ARM GAS  C:\Users\haske\AppData\Local\Temp\ccEGgQv3.s 			page 1


   1              		.syntax unified
   2              		.cpu cortex-m0plus
   3              		.fpu softvfp
   4              		.eabi_attribute 20, 1
   5              		.eabi_attribute 21, 1
   6              		.eabi_attribute 23, 3
   7              		.eabi_attribute 24, 1
   8              		.eabi_attribute 25, 1
   9              		.eabi_attribute 26, 1
  10              		.eabi_attribute 30, 1
  11              		.eabi_attribute 34, 0
  12              		.eabi_attribute 18, 4
  13              		.thumb
  14              		.syntax unified
  15              		.file	"lv_keyboard.c"
  16              		.text
  17              	.Ltext0:
  18              		.cfi_sections	.debug_frame
  19              		.section	.text.lv_keyboard_update_ctrl_map,"ax",%progbits
  20              		.align	2
  21              		.code	16
  22              		.thumb_func
  23              		.type	lv_keyboard_update_ctrl_map, %function
  24              	lv_keyboard_update_ctrl_map:
  25              	.LFB173:
  26              		.file 1 "..\\..\\..\\arduinoLCD\\test\\Pain Drain\\libraries\\lvgl\\src\\extra\\widgets\\keyboard\
   1:..\..\..\arduinoLCD\test\Pain Drain\libraries\lvgl\src\extra\widgets\keyboard/lv_keyboard.c **** 
   2:..\..\..\arduinoLCD\test\Pain Drain\libraries\lvgl\src\extra\widgets\keyboard/lv_keyboard.c **** /**
   3:..\..\..\arduinoLCD\test\Pain Drain\libraries\lvgl\src\extra\widgets\keyboard/lv_keyboard.c ****  * @file lv_keyboard.c
   4:..\..\..\arduinoLCD\test\Pain Drain\libraries\lvgl\src\extra\widgets\keyboard/lv_keyboard.c ****  *
   5:..\..\..\arduinoLCD\test\Pain Drain\libraries\lvgl\src\extra\widgets\keyboard/lv_keyboard.c ****  */
   6:..\..\..\arduinoLCD\test\Pain Drain\libraries\lvgl\src\extra\widgets\keyboard/lv_keyboard.c **** 
   7:..\..\..\arduinoLCD\test\Pain Drain\libraries\lvgl\src\extra\widgets\keyboard/lv_keyboard.c **** /*********************
   8:..\..\..\arduinoLCD\test\Pain Drain\libraries\lvgl\src\extra\widgets\keyboard/lv_keyboard.c ****  *      INCLUDES
   9:..\..\..\arduinoLCD\test\Pain Drain\libraries\lvgl\src\extra\widgets\keyboard/lv_keyboard.c ****  *********************/
  10:..\..\..\arduinoLCD\test\Pain Drain\libraries\lvgl\src\extra\widgets\keyboard/lv_keyboard.c **** #include "lv_keyboard.h"
  11:..\..\..\arduinoLCD\test\Pain Drain\libraries\lvgl\src\extra\widgets\keyboard/lv_keyboard.c **** #if LV_USE_KEYBOARD
  12:..\..\..\arduinoLCD\test\Pain Drain\libraries\lvgl\src\extra\widgets\keyboard/lv_keyboard.c **** 
  13:..\..\..\arduinoLCD\test\Pain Drain\libraries\lvgl\src\extra\widgets\keyboard/lv_keyboard.c **** #include "../../../widgets/lv_textarea.h"
  14:..\..\..\arduinoLCD\test\Pain Drain\libraries\lvgl\src\extra\widgets\keyboard/lv_keyboard.c **** #include "../../../misc/lv_assert.h"
  15:..\..\..\arduinoLCD\test\Pain Drain\libraries\lvgl\src\extra\widgets\keyboard/lv_keyboard.c **** 
  16:..\..\..\arduinoLCD\test\Pain Drain\libraries\lvgl\src\extra\widgets\keyboard/lv_keyboard.c **** #include <stdlib.h>
  17:..\..\..\arduinoLCD\test\Pain Drain\libraries\lvgl\src\extra\widgets\keyboard/lv_keyboard.c **** 
  18:..\..\..\arduinoLCD\test\Pain Drain\libraries\lvgl\src\extra\widgets\keyboard/lv_keyboard.c **** /*********************
  19:..\..\..\arduinoLCD\test\Pain Drain\libraries\lvgl\src\extra\widgets\keyboard/lv_keyboard.c ****  *      DEFINES
  20:..\..\..\arduinoLCD\test\Pain Drain\libraries\lvgl\src\extra\widgets\keyboard/lv_keyboard.c ****  *********************/
  21:..\..\..\arduinoLCD\test\Pain Drain\libraries\lvgl\src\extra\widgets\keyboard/lv_keyboard.c **** #define MY_CLASS    &lv_keyboard_class
  22:..\..\..\arduinoLCD\test\Pain Drain\libraries\lvgl\src\extra\widgets\keyboard/lv_keyboard.c **** #define LV_KB_BTN(width) LV_BTNMATRIX_CTRL_POPOVER | width
  23:..\..\..\arduinoLCD\test\Pain Drain\libraries\lvgl\src\extra\widgets\keyboard/lv_keyboard.c **** 
  24:..\..\..\arduinoLCD\test\Pain Drain\libraries\lvgl\src\extra\widgets\keyboard/lv_keyboard.c **** /**********************
  25:..\..\..\arduinoLCD\test\Pain Drain\libraries\lvgl\src\extra\widgets\keyboard/lv_keyboard.c ****  *      TYPEDEFS
  26:..\..\..\arduinoLCD\test\Pain Drain\libraries\lvgl\src\extra\widgets\keyboard/lv_keyboard.c ****  **********************/
  27:..\..\..\arduinoLCD\test\Pain Drain\libraries\lvgl\src\extra\widgets\keyboard/lv_keyboard.c **** 
  28:..\..\..\arduinoLCD\test\Pain Drain\libraries\lvgl\src\extra\widgets\keyboard/lv_keyboard.c **** /**********************
  29:..\..\..\arduinoLCD\test\Pain Drain\libraries\lvgl\src\extra\widgets\keyboard/lv_keyboard.c ****  *  STATIC PROTOTYPES
  30:..\..\..\arduinoLCD\test\Pain Drain\libraries\lvgl\src\extra\widgets\keyboard/lv_keyboard.c ****  **********************/
  31:..\..\..\arduinoLCD\test\Pain Drain\libraries\lvgl\src\extra\widgets\keyboard/lv_keyboard.c **** static void lv_keyboard_constructor(const lv_obj_class_t * class_p, lv_obj_t * obj);
ARM GAS  C:\Users\haske\AppData\Local\Temp\ccEGgQv3.s 			page 2


  32:..\..\..\arduinoLCD\test\Pain Drain\libraries\lvgl\src\extra\widgets\keyboard/lv_keyboard.c **** 
  33:..\..\..\arduinoLCD\test\Pain Drain\libraries\lvgl\src\extra\widgets\keyboard/lv_keyboard.c **** static void lv_keyboard_update_map(lv_obj_t * obj);
  34:..\..\..\arduinoLCD\test\Pain Drain\libraries\lvgl\src\extra\widgets\keyboard/lv_keyboard.c **** 
  35:..\..\..\arduinoLCD\test\Pain Drain\libraries\lvgl\src\extra\widgets\keyboard/lv_keyboard.c **** static void lv_keyboard_update_ctrl_map(lv_obj_t * obj);
  36:..\..\..\arduinoLCD\test\Pain Drain\libraries\lvgl\src\extra\widgets\keyboard/lv_keyboard.c **** 
  37:..\..\..\arduinoLCD\test\Pain Drain\libraries\lvgl\src\extra\widgets\keyboard/lv_keyboard.c **** /**********************
  38:..\..\..\arduinoLCD\test\Pain Drain\libraries\lvgl\src\extra\widgets\keyboard/lv_keyboard.c ****  *  STATIC VARIABLES
  39:..\..\..\arduinoLCD\test\Pain Drain\libraries\lvgl\src\extra\widgets\keyboard/lv_keyboard.c ****  **********************/
  40:..\..\..\arduinoLCD\test\Pain Drain\libraries\lvgl\src\extra\widgets\keyboard/lv_keyboard.c **** const lv_obj_class_t lv_keyboard_class = {
  41:..\..\..\arduinoLCD\test\Pain Drain\libraries\lvgl\src\extra\widgets\keyboard/lv_keyboard.c ****     .constructor_cb = lv_keyboard_constructor,
  42:..\..\..\arduinoLCD\test\Pain Drain\libraries\lvgl\src\extra\widgets\keyboard/lv_keyboard.c ****     .width_def = LV_PCT(100),
  43:..\..\..\arduinoLCD\test\Pain Drain\libraries\lvgl\src\extra\widgets\keyboard/lv_keyboard.c ****     .height_def = LV_PCT(50),
  44:..\..\..\arduinoLCD\test\Pain Drain\libraries\lvgl\src\extra\widgets\keyboard/lv_keyboard.c ****     .instance_size = sizeof(lv_keyboard_t),
  45:..\..\..\arduinoLCD\test\Pain Drain\libraries\lvgl\src\extra\widgets\keyboard/lv_keyboard.c ****     .editable = 1,
  46:..\..\..\arduinoLCD\test\Pain Drain\libraries\lvgl\src\extra\widgets\keyboard/lv_keyboard.c ****     .base_class = &lv_btnmatrix_class
  47:..\..\..\arduinoLCD\test\Pain Drain\libraries\lvgl\src\extra\widgets\keyboard/lv_keyboard.c **** };
  48:..\..\..\arduinoLCD\test\Pain Drain\libraries\lvgl\src\extra\widgets\keyboard/lv_keyboard.c **** 
  49:..\..\..\arduinoLCD\test\Pain Drain\libraries\lvgl\src\extra\widgets\keyboard/lv_keyboard.c **** static const char * const default_kb_map_lc[] = {"1#", "q", "w", "e", "r", "t", "y", "u", "i", "o",
  50:..\..\..\arduinoLCD\test\Pain Drain\libraries\lvgl\src\extra\widgets\keyboard/lv_keyboard.c ****                                                  "ABC", "a", "s", "d", "f", "g", "h", "j", "k", "l"
  51:..\..\..\arduinoLCD\test\Pain Drain\libraries\lvgl\src\extra\widgets\keyboard/lv_keyboard.c ****                                                  "_", "-", "z", "x", "c", "v", "b", "n", "m", ".", 
  52:..\..\..\arduinoLCD\test\Pain Drain\libraries\lvgl\src\extra\widgets\keyboard/lv_keyboard.c ****                                                  LV_SYMBOL_KEYBOARD, LV_SYMBOL_LEFT, " ", LV_SYMBOL
  53:..\..\..\arduinoLCD\test\Pain Drain\libraries\lvgl\src\extra\widgets\keyboard/lv_keyboard.c ****                                                 };
  54:..\..\..\arduinoLCD\test\Pain Drain\libraries\lvgl\src\extra\widgets\keyboard/lv_keyboard.c **** 
  55:..\..\..\arduinoLCD\test\Pain Drain\libraries\lvgl\src\extra\widgets\keyboard/lv_keyboard.c **** static const lv_btnmatrix_ctrl_t default_kb_ctrl_lc_map[] = {
  56:..\..\..\arduinoLCD\test\Pain Drain\libraries\lvgl\src\extra\widgets\keyboard/lv_keyboard.c ****     LV_KEYBOARD_CTRL_BTN_FLAGS | 5, LV_KB_BTN(4), LV_KB_BTN(4), LV_KB_BTN(4), LV_KB_BTN(4), LV_KB_B
  57:..\..\..\arduinoLCD\test\Pain Drain\libraries\lvgl\src\extra\widgets\keyboard/lv_keyboard.c ****     LV_KEYBOARD_CTRL_BTN_FLAGS | 6, LV_KB_BTN(3), LV_KB_BTN(3), LV_KB_BTN(3), LV_KB_BTN(3), LV_KB_B
  58:..\..\..\arduinoLCD\test\Pain Drain\libraries\lvgl\src\extra\widgets\keyboard/lv_keyboard.c ****     LV_BTNMATRIX_CTRL_CHECKED | LV_KB_BTN(1), LV_BTNMATRIX_CTRL_CHECKED | LV_KB_BTN(1), LV_KB_BTN(1
  59:..\..\..\arduinoLCD\test\Pain Drain\libraries\lvgl\src\extra\widgets\keyboard/lv_keyboard.c ****     LV_KEYBOARD_CTRL_BTN_FLAGS | 2, LV_BTNMATRIX_CTRL_CHECKED | 2, 6, LV_BTNMATRIX_CTRL_CHECKED | 2
  60:..\..\..\arduinoLCD\test\Pain Drain\libraries\lvgl\src\extra\widgets\keyboard/lv_keyboard.c **** };
  61:..\..\..\arduinoLCD\test\Pain Drain\libraries\lvgl\src\extra\widgets\keyboard/lv_keyboard.c **** 
  62:..\..\..\arduinoLCD\test\Pain Drain\libraries\lvgl\src\extra\widgets\keyboard/lv_keyboard.c **** static const char * const default_kb_map_uc[] = {"1#", "Q", "W", "E", "R", "T", "Y", "U", "I", "O",
  63:..\..\..\arduinoLCD\test\Pain Drain\libraries\lvgl\src\extra\widgets\keyboard/lv_keyboard.c ****                                                  "abc", "A", "S", "D", "F", "G", "H", "J", "K", "L"
  64:..\..\..\arduinoLCD\test\Pain Drain\libraries\lvgl\src\extra\widgets\keyboard/lv_keyboard.c ****                                                  "_", "-", "Z", "X", "C", "V", "B", "N", "M", ".", 
  65:..\..\..\arduinoLCD\test\Pain Drain\libraries\lvgl\src\extra\widgets\keyboard/lv_keyboard.c ****                                                  LV_SYMBOL_KEYBOARD, LV_SYMBOL_LEFT, " ", LV_SYMBOL
  66:..\..\..\arduinoLCD\test\Pain Drain\libraries\lvgl\src\extra\widgets\keyboard/lv_keyboard.c ****                                                 };
  67:..\..\..\arduinoLCD\test\Pain Drain\libraries\lvgl\src\extra\widgets\keyboard/lv_keyboard.c **** 
  68:..\..\..\arduinoLCD\test\Pain Drain\libraries\lvgl\src\extra\widgets\keyboard/lv_keyboard.c **** static const lv_btnmatrix_ctrl_t default_kb_ctrl_uc_map[] = {
  69:..\..\..\arduinoLCD\test\Pain Drain\libraries\lvgl\src\extra\widgets\keyboard/lv_keyboard.c ****     LV_KEYBOARD_CTRL_BTN_FLAGS | 5, LV_KB_BTN(4), LV_KB_BTN(4), LV_KB_BTN(4), LV_KB_BTN(4), LV_KB_B
  70:..\..\..\arduinoLCD\test\Pain Drain\libraries\lvgl\src\extra\widgets\keyboard/lv_keyboard.c ****     LV_KEYBOARD_CTRL_BTN_FLAGS | 6, LV_KB_BTN(3), LV_KB_BTN(3), LV_KB_BTN(3), LV_KB_BTN(3), LV_KB_B
  71:..\..\..\arduinoLCD\test\Pain Drain\libraries\lvgl\src\extra\widgets\keyboard/lv_keyboard.c ****     LV_BTNMATRIX_CTRL_CHECKED | LV_KB_BTN(1), LV_BTNMATRIX_CTRL_CHECKED | LV_KB_BTN(1), LV_KB_BTN(1
  72:..\..\..\arduinoLCD\test\Pain Drain\libraries\lvgl\src\extra\widgets\keyboard/lv_keyboard.c ****     LV_KEYBOARD_CTRL_BTN_FLAGS | 2, LV_BTNMATRIX_CTRL_CHECKED | 2, 6, LV_BTNMATRIX_CTRL_CHECKED | 2
  73:..\..\..\arduinoLCD\test\Pain Drain\libraries\lvgl\src\extra\widgets\keyboard/lv_keyboard.c **** };
  74:..\..\..\arduinoLCD\test\Pain Drain\libraries\lvgl\src\extra\widgets\keyboard/lv_keyboard.c **** 
  75:..\..\..\arduinoLCD\test\Pain Drain\libraries\lvgl\src\extra\widgets\keyboard/lv_keyboard.c **** static const char * const default_kb_map_spec[] = {"1", "2", "3", "4", "5", "6", "7", "8", "9", "0"
  76:..\..\..\arduinoLCD\test\Pain Drain\libraries\lvgl\src\extra\widgets\keyboard/lv_keyboard.c ****                                                    "abc", "+", "-", "/", "*", "=", "%", "!", "?", "
  77:..\..\..\arduinoLCD\test\Pain Drain\libraries\lvgl\src\extra\widgets\keyboard/lv_keyboard.c ****                                                    "\\",  "@", "$", "(", ")", "{", "}", "[", "]", "
  78:..\..\..\arduinoLCD\test\Pain Drain\libraries\lvgl\src\extra\widgets\keyboard/lv_keyboard.c ****                                                    LV_SYMBOL_KEYBOARD, LV_SYMBOL_LEFT, " ", LV_SYMB
  79:..\..\..\arduinoLCD\test\Pain Drain\libraries\lvgl\src\extra\widgets\keyboard/lv_keyboard.c ****                                                   };
  80:..\..\..\arduinoLCD\test\Pain Drain\libraries\lvgl\src\extra\widgets\keyboard/lv_keyboard.c **** 
  81:..\..\..\arduinoLCD\test\Pain Drain\libraries\lvgl\src\extra\widgets\keyboard/lv_keyboard.c **** static const lv_btnmatrix_ctrl_t default_kb_ctrl_spec_map[] = {
  82:..\..\..\arduinoLCD\test\Pain Drain\libraries\lvgl\src\extra\widgets\keyboard/lv_keyboard.c ****     LV_KB_BTN(1), LV_KB_BTN(1), LV_KB_BTN(1), LV_KB_BTN(1), LV_KB_BTN(1), LV_KB_BTN(1), LV_KB_BTN(1
  83:..\..\..\arduinoLCD\test\Pain Drain\libraries\lvgl\src\extra\widgets\keyboard/lv_keyboard.c ****     LV_KEYBOARD_CTRL_BTN_FLAGS | 2, LV_KB_BTN(1), LV_KB_BTN(1), LV_KB_BTN(1), LV_KB_BTN(1), LV_KB_B
  84:..\..\..\arduinoLCD\test\Pain Drain\libraries\lvgl\src\extra\widgets\keyboard/lv_keyboard.c ****     LV_KB_BTN(1), LV_KB_BTN(1), LV_KB_BTN(1), LV_KB_BTN(1), LV_KB_BTN(1), LV_KB_BTN(1), LV_KB_BTN(1
  85:..\..\..\arduinoLCD\test\Pain Drain\libraries\lvgl\src\extra\widgets\keyboard/lv_keyboard.c ****     LV_KEYBOARD_CTRL_BTN_FLAGS | 2, LV_BTNMATRIX_CTRL_CHECKED | 2, 6, LV_BTNMATRIX_CTRL_CHECKED | 2
  86:..\..\..\arduinoLCD\test\Pain Drain\libraries\lvgl\src\extra\widgets\keyboard/lv_keyboard.c **** };
  87:..\..\..\arduinoLCD\test\Pain Drain\libraries\lvgl\src\extra\widgets\keyboard/lv_keyboard.c **** 
  88:..\..\..\arduinoLCD\test\Pain Drain\libraries\lvgl\src\extra\widgets\keyboard/lv_keyboard.c **** static const char * const default_kb_map_num[] = {"1", "2", "3", LV_SYMBOL_KEYBOARD, "\n",
ARM GAS  C:\Users\haske\AppData\Local\Temp\ccEGgQv3.s 			page 3


  89:..\..\..\arduinoLCD\test\Pain Drain\libraries\lvgl\src\extra\widgets\keyboard/lv_keyboard.c ****                                                   "4", "5", "6", LV_SYMBOL_OK, "\n",
  90:..\..\..\arduinoLCD\test\Pain Drain\libraries\lvgl\src\extra\widgets\keyboard/lv_keyboard.c ****                                                   "7", "8", "9", LV_SYMBOL_BACKSPACE, "\n",
  91:..\..\..\arduinoLCD\test\Pain Drain\libraries\lvgl\src\extra\widgets\keyboard/lv_keyboard.c ****                                                   "+/-", "0", ".", LV_SYMBOL_LEFT, LV_SYMBOL_RIGHT,
  92:..\..\..\arduinoLCD\test\Pain Drain\libraries\lvgl\src\extra\widgets\keyboard/lv_keyboard.c ****                                                  };
  93:..\..\..\arduinoLCD\test\Pain Drain\libraries\lvgl\src\extra\widgets\keyboard/lv_keyboard.c **** 
  94:..\..\..\arduinoLCD\test\Pain Drain\libraries\lvgl\src\extra\widgets\keyboard/lv_keyboard.c **** static const lv_btnmatrix_ctrl_t default_kb_ctrl_num_map[] = {
  95:..\..\..\arduinoLCD\test\Pain Drain\libraries\lvgl\src\extra\widgets\keyboard/lv_keyboard.c ****     1, 1, 1, LV_KEYBOARD_CTRL_BTN_FLAGS | 2,
  96:..\..\..\arduinoLCD\test\Pain Drain\libraries\lvgl\src\extra\widgets\keyboard/lv_keyboard.c ****     1, 1, 1, LV_KEYBOARD_CTRL_BTN_FLAGS | 2,
  97:..\..\..\arduinoLCD\test\Pain Drain\libraries\lvgl\src\extra\widgets\keyboard/lv_keyboard.c ****     1, 1, 1, 2,
  98:..\..\..\arduinoLCD\test\Pain Drain\libraries\lvgl\src\extra\widgets\keyboard/lv_keyboard.c ****     1, 1, 1, 1, 1
  99:..\..\..\arduinoLCD\test\Pain Drain\libraries\lvgl\src\extra\widgets\keyboard/lv_keyboard.c **** };
 100:..\..\..\arduinoLCD\test\Pain Drain\libraries\lvgl\src\extra\widgets\keyboard/lv_keyboard.c **** 
 101:..\..\..\arduinoLCD\test\Pain Drain\libraries\lvgl\src\extra\widgets\keyboard/lv_keyboard.c **** static const char * * kb_map[9] = {
 102:..\..\..\arduinoLCD\test\Pain Drain\libraries\lvgl\src\extra\widgets\keyboard/lv_keyboard.c ****     (const char * *)default_kb_map_lc,
 103:..\..\..\arduinoLCD\test\Pain Drain\libraries\lvgl\src\extra\widgets\keyboard/lv_keyboard.c ****     (const char * *)default_kb_map_uc,
 104:..\..\..\arduinoLCD\test\Pain Drain\libraries\lvgl\src\extra\widgets\keyboard/lv_keyboard.c ****     (const char * *)default_kb_map_spec,
 105:..\..\..\arduinoLCD\test\Pain Drain\libraries\lvgl\src\extra\widgets\keyboard/lv_keyboard.c ****     (const char * *)default_kb_map_num,
 106:..\..\..\arduinoLCD\test\Pain Drain\libraries\lvgl\src\extra\widgets\keyboard/lv_keyboard.c ****     (const char * *)default_kb_map_lc,
 107:..\..\..\arduinoLCD\test\Pain Drain\libraries\lvgl\src\extra\widgets\keyboard/lv_keyboard.c ****     (const char * *)default_kb_map_lc,
 108:..\..\..\arduinoLCD\test\Pain Drain\libraries\lvgl\src\extra\widgets\keyboard/lv_keyboard.c ****     (const char * *)default_kb_map_lc,
 109:..\..\..\arduinoLCD\test\Pain Drain\libraries\lvgl\src\extra\widgets\keyboard/lv_keyboard.c ****     (const char * *)default_kb_map_lc,
 110:..\..\..\arduinoLCD\test\Pain Drain\libraries\lvgl\src\extra\widgets\keyboard/lv_keyboard.c ****     (const char * *)NULL,
 111:..\..\..\arduinoLCD\test\Pain Drain\libraries\lvgl\src\extra\widgets\keyboard/lv_keyboard.c **** };
 112:..\..\..\arduinoLCD\test\Pain Drain\libraries\lvgl\src\extra\widgets\keyboard/lv_keyboard.c **** static const lv_btnmatrix_ctrl_t * kb_ctrl[9] = {
 113:..\..\..\arduinoLCD\test\Pain Drain\libraries\lvgl\src\extra\widgets\keyboard/lv_keyboard.c ****     default_kb_ctrl_lc_map,
 114:..\..\..\arduinoLCD\test\Pain Drain\libraries\lvgl\src\extra\widgets\keyboard/lv_keyboard.c ****     default_kb_ctrl_uc_map,
 115:..\..\..\arduinoLCD\test\Pain Drain\libraries\lvgl\src\extra\widgets\keyboard/lv_keyboard.c ****     default_kb_ctrl_spec_map,
 116:..\..\..\arduinoLCD\test\Pain Drain\libraries\lvgl\src\extra\widgets\keyboard/lv_keyboard.c ****     default_kb_ctrl_num_map,
 117:..\..\..\arduinoLCD\test\Pain Drain\libraries\lvgl\src\extra\widgets\keyboard/lv_keyboard.c ****     default_kb_ctrl_lc_map,
 118:..\..\..\arduinoLCD\test\Pain Drain\libraries\lvgl\src\extra\widgets\keyboard/lv_keyboard.c ****     default_kb_ctrl_lc_map,
 119:..\..\..\arduinoLCD\test\Pain Drain\libraries\lvgl\src\extra\widgets\keyboard/lv_keyboard.c ****     default_kb_ctrl_lc_map,
 120:..\..\..\arduinoLCD\test\Pain Drain\libraries\lvgl\src\extra\widgets\keyboard/lv_keyboard.c ****     default_kb_ctrl_lc_map,
 121:..\..\..\arduinoLCD\test\Pain Drain\libraries\lvgl\src\extra\widgets\keyboard/lv_keyboard.c ****     NULL,
 122:..\..\..\arduinoLCD\test\Pain Drain\libraries\lvgl\src\extra\widgets\keyboard/lv_keyboard.c **** };
 123:..\..\..\arduinoLCD\test\Pain Drain\libraries\lvgl\src\extra\widgets\keyboard/lv_keyboard.c **** 
 124:..\..\..\arduinoLCD\test\Pain Drain\libraries\lvgl\src\extra\widgets\keyboard/lv_keyboard.c **** /**********************
 125:..\..\..\arduinoLCD\test\Pain Drain\libraries\lvgl\src\extra\widgets\keyboard/lv_keyboard.c ****  *      MACROS
 126:..\..\..\arduinoLCD\test\Pain Drain\libraries\lvgl\src\extra\widgets\keyboard/lv_keyboard.c ****  **********************/
 127:..\..\..\arduinoLCD\test\Pain Drain\libraries\lvgl\src\extra\widgets\keyboard/lv_keyboard.c **** 
 128:..\..\..\arduinoLCD\test\Pain Drain\libraries\lvgl\src\extra\widgets\keyboard/lv_keyboard.c **** /**********************
 129:..\..\..\arduinoLCD\test\Pain Drain\libraries\lvgl\src\extra\widgets\keyboard/lv_keyboard.c ****  *   GLOBAL FUNCTIONS
 130:..\..\..\arduinoLCD\test\Pain Drain\libraries\lvgl\src\extra\widgets\keyboard/lv_keyboard.c ****  **********************/
 131:..\..\..\arduinoLCD\test\Pain Drain\libraries\lvgl\src\extra\widgets\keyboard/lv_keyboard.c **** 
 132:..\..\..\arduinoLCD\test\Pain Drain\libraries\lvgl\src\extra\widgets\keyboard/lv_keyboard.c **** /**
 133:..\..\..\arduinoLCD\test\Pain Drain\libraries\lvgl\src\extra\widgets\keyboard/lv_keyboard.c ****  * Create a Keyboard object
 134:..\..\..\arduinoLCD\test\Pain Drain\libraries\lvgl\src\extra\widgets\keyboard/lv_keyboard.c ****  * @param parent pointer to an object, it will be the parent of the new keyboard
 135:..\..\..\arduinoLCD\test\Pain Drain\libraries\lvgl\src\extra\widgets\keyboard/lv_keyboard.c ****  * @return pointer to the created keyboard
 136:..\..\..\arduinoLCD\test\Pain Drain\libraries\lvgl\src\extra\widgets\keyboard/lv_keyboard.c ****  */
 137:..\..\..\arduinoLCD\test\Pain Drain\libraries\lvgl\src\extra\widgets\keyboard/lv_keyboard.c **** lv_obj_t * lv_keyboard_create(lv_obj_t * parent)
 138:..\..\..\arduinoLCD\test\Pain Drain\libraries\lvgl\src\extra\widgets\keyboard/lv_keyboard.c **** {
 139:..\..\..\arduinoLCD\test\Pain Drain\libraries\lvgl\src\extra\widgets\keyboard/lv_keyboard.c ****     LV_LOG_INFO("begin");
 140:..\..\..\arduinoLCD\test\Pain Drain\libraries\lvgl\src\extra\widgets\keyboard/lv_keyboard.c ****     lv_obj_t * obj = lv_obj_class_create_obj(&lv_keyboard_class, parent);
 141:..\..\..\arduinoLCD\test\Pain Drain\libraries\lvgl\src\extra\widgets\keyboard/lv_keyboard.c ****     lv_obj_class_init_obj(obj);
 142:..\..\..\arduinoLCD\test\Pain Drain\libraries\lvgl\src\extra\widgets\keyboard/lv_keyboard.c ****     return obj;
 143:..\..\..\arduinoLCD\test\Pain Drain\libraries\lvgl\src\extra\widgets\keyboard/lv_keyboard.c **** }
 144:..\..\..\arduinoLCD\test\Pain Drain\libraries\lvgl\src\extra\widgets\keyboard/lv_keyboard.c **** 
 145:..\..\..\arduinoLCD\test\Pain Drain\libraries\lvgl\src\extra\widgets\keyboard/lv_keyboard.c **** /*=====================
ARM GAS  C:\Users\haske\AppData\Local\Temp\ccEGgQv3.s 			page 4


 146:..\..\..\arduinoLCD\test\Pain Drain\libraries\lvgl\src\extra\widgets\keyboard/lv_keyboard.c ****  * Setter functions
 147:..\..\..\arduinoLCD\test\Pain Drain\libraries\lvgl\src\extra\widgets\keyboard/lv_keyboard.c ****  *====================*/
 148:..\..\..\arduinoLCD\test\Pain Drain\libraries\lvgl\src\extra\widgets\keyboard/lv_keyboard.c **** 
 149:..\..\..\arduinoLCD\test\Pain Drain\libraries\lvgl\src\extra\widgets\keyboard/lv_keyboard.c **** /**
 150:..\..\..\arduinoLCD\test\Pain Drain\libraries\lvgl\src\extra\widgets\keyboard/lv_keyboard.c ****  * Assign a Text Area to the Keyboard. The pressed characters will be put there.
 151:..\..\..\arduinoLCD\test\Pain Drain\libraries\lvgl\src\extra\widgets\keyboard/lv_keyboard.c ****  * @param kb pointer to a Keyboard object
 152:..\..\..\arduinoLCD\test\Pain Drain\libraries\lvgl\src\extra\widgets\keyboard/lv_keyboard.c ****  * @param ta pointer to a Text Area object to write there
 153:..\..\..\arduinoLCD\test\Pain Drain\libraries\lvgl\src\extra\widgets\keyboard/lv_keyboard.c ****  */
 154:..\..\..\arduinoLCD\test\Pain Drain\libraries\lvgl\src\extra\widgets\keyboard/lv_keyboard.c **** void lv_keyboard_set_textarea(lv_obj_t * obj, lv_obj_t * ta)
 155:..\..\..\arduinoLCD\test\Pain Drain\libraries\lvgl\src\extra\widgets\keyboard/lv_keyboard.c **** {
 156:..\..\..\arduinoLCD\test\Pain Drain\libraries\lvgl\src\extra\widgets\keyboard/lv_keyboard.c ****     if(ta) {
 157:..\..\..\arduinoLCD\test\Pain Drain\libraries\lvgl\src\extra\widgets\keyboard/lv_keyboard.c ****         LV_ASSERT_OBJ(ta, &lv_textarea_class);
 158:..\..\..\arduinoLCD\test\Pain Drain\libraries\lvgl\src\extra\widgets\keyboard/lv_keyboard.c ****     }
 159:..\..\..\arduinoLCD\test\Pain Drain\libraries\lvgl\src\extra\widgets\keyboard/lv_keyboard.c **** 
 160:..\..\..\arduinoLCD\test\Pain Drain\libraries\lvgl\src\extra\widgets\keyboard/lv_keyboard.c ****     LV_ASSERT_OBJ(obj, MY_CLASS);
 161:..\..\..\arduinoLCD\test\Pain Drain\libraries\lvgl\src\extra\widgets\keyboard/lv_keyboard.c ****     lv_keyboard_t * keyboard = (lv_keyboard_t *)obj;
 162:..\..\..\arduinoLCD\test\Pain Drain\libraries\lvgl\src\extra\widgets\keyboard/lv_keyboard.c **** 
 163:..\..\..\arduinoLCD\test\Pain Drain\libraries\lvgl\src\extra\widgets\keyboard/lv_keyboard.c ****     /*Hide the cursor of the old Text area if cursor management is enabled*/
 164:..\..\..\arduinoLCD\test\Pain Drain\libraries\lvgl\src\extra\widgets\keyboard/lv_keyboard.c ****     if(keyboard->ta) {
 165:..\..\..\arduinoLCD\test\Pain Drain\libraries\lvgl\src\extra\widgets\keyboard/lv_keyboard.c ****         lv_obj_clear_state(obj, LV_STATE_FOCUSED);
 166:..\..\..\arduinoLCD\test\Pain Drain\libraries\lvgl\src\extra\widgets\keyboard/lv_keyboard.c ****     }
 167:..\..\..\arduinoLCD\test\Pain Drain\libraries\lvgl\src\extra\widgets\keyboard/lv_keyboard.c **** 
 168:..\..\..\arduinoLCD\test\Pain Drain\libraries\lvgl\src\extra\widgets\keyboard/lv_keyboard.c ****     keyboard->ta = ta;
 169:..\..\..\arduinoLCD\test\Pain Drain\libraries\lvgl\src\extra\widgets\keyboard/lv_keyboard.c **** 
 170:..\..\..\arduinoLCD\test\Pain Drain\libraries\lvgl\src\extra\widgets\keyboard/lv_keyboard.c ****     /*Show the cursor of the new Text area if cursor management is enabled*/
 171:..\..\..\arduinoLCD\test\Pain Drain\libraries\lvgl\src\extra\widgets\keyboard/lv_keyboard.c ****     if(keyboard->ta) {
 172:..\..\..\arduinoLCD\test\Pain Drain\libraries\lvgl\src\extra\widgets\keyboard/lv_keyboard.c ****         lv_obj_add_flag(obj, LV_STATE_FOCUSED);
 173:..\..\..\arduinoLCD\test\Pain Drain\libraries\lvgl\src\extra\widgets\keyboard/lv_keyboard.c ****     }
 174:..\..\..\arduinoLCD\test\Pain Drain\libraries\lvgl\src\extra\widgets\keyboard/lv_keyboard.c **** }
 175:..\..\..\arduinoLCD\test\Pain Drain\libraries\lvgl\src\extra\widgets\keyboard/lv_keyboard.c **** 
 176:..\..\..\arduinoLCD\test\Pain Drain\libraries\lvgl\src\extra\widgets\keyboard/lv_keyboard.c **** /**
 177:..\..\..\arduinoLCD\test\Pain Drain\libraries\lvgl\src\extra\widgets\keyboard/lv_keyboard.c ****  * Set a new a mode (text or number map)
 178:..\..\..\arduinoLCD\test\Pain Drain\libraries\lvgl\src\extra\widgets\keyboard/lv_keyboard.c ****  * @param kb pointer to a Keyboard object
 179:..\..\..\arduinoLCD\test\Pain Drain\libraries\lvgl\src\extra\widgets\keyboard/lv_keyboard.c ****  * @param mode the mode from 'lv_keyboard_mode_t'
 180:..\..\..\arduinoLCD\test\Pain Drain\libraries\lvgl\src\extra\widgets\keyboard/lv_keyboard.c ****  */
 181:..\..\..\arduinoLCD\test\Pain Drain\libraries\lvgl\src\extra\widgets\keyboard/lv_keyboard.c **** void lv_keyboard_set_mode(lv_obj_t * obj, lv_keyboard_mode_t mode)
 182:..\..\..\arduinoLCD\test\Pain Drain\libraries\lvgl\src\extra\widgets\keyboard/lv_keyboard.c **** {
 183:..\..\..\arduinoLCD\test\Pain Drain\libraries\lvgl\src\extra\widgets\keyboard/lv_keyboard.c ****     LV_ASSERT_OBJ(obj, MY_CLASS);
 184:..\..\..\arduinoLCD\test\Pain Drain\libraries\lvgl\src\extra\widgets\keyboard/lv_keyboard.c ****     lv_keyboard_t * keyboard = (lv_keyboard_t *)obj;
 185:..\..\..\arduinoLCD\test\Pain Drain\libraries\lvgl\src\extra\widgets\keyboard/lv_keyboard.c ****     if(keyboard->mode == mode) return;
 186:..\..\..\arduinoLCD\test\Pain Drain\libraries\lvgl\src\extra\widgets\keyboard/lv_keyboard.c **** 
 187:..\..\..\arduinoLCD\test\Pain Drain\libraries\lvgl\src\extra\widgets\keyboard/lv_keyboard.c ****     keyboard->mode = mode;
 188:..\..\..\arduinoLCD\test\Pain Drain\libraries\lvgl\src\extra\widgets\keyboard/lv_keyboard.c ****     lv_keyboard_update_map(obj);
 189:..\..\..\arduinoLCD\test\Pain Drain\libraries\lvgl\src\extra\widgets\keyboard/lv_keyboard.c **** }
 190:..\..\..\arduinoLCD\test\Pain Drain\libraries\lvgl\src\extra\widgets\keyboard/lv_keyboard.c **** 
 191:..\..\..\arduinoLCD\test\Pain Drain\libraries\lvgl\src\extra\widgets\keyboard/lv_keyboard.c **** /**
 192:..\..\..\arduinoLCD\test\Pain Drain\libraries\lvgl\src\extra\widgets\keyboard/lv_keyboard.c ****  * Show the button title in a popover when pressed.
 193:..\..\..\arduinoLCD\test\Pain Drain\libraries\lvgl\src\extra\widgets\keyboard/lv_keyboard.c ****  * @param kb pointer to a Keyboard object
 194:..\..\..\arduinoLCD\test\Pain Drain\libraries\lvgl\src\extra\widgets\keyboard/lv_keyboard.c ****  * @param en whether "popovers" mode is enabled
 195:..\..\..\arduinoLCD\test\Pain Drain\libraries\lvgl\src\extra\widgets\keyboard/lv_keyboard.c ****  */
 196:..\..\..\arduinoLCD\test\Pain Drain\libraries\lvgl\src\extra\widgets\keyboard/lv_keyboard.c **** void lv_keyboard_set_popovers(lv_obj_t * obj, bool en)
 197:..\..\..\arduinoLCD\test\Pain Drain\libraries\lvgl\src\extra\widgets\keyboard/lv_keyboard.c **** {
 198:..\..\..\arduinoLCD\test\Pain Drain\libraries\lvgl\src\extra\widgets\keyboard/lv_keyboard.c ****     lv_keyboard_t * keyboard = (lv_keyboard_t *)obj;
 199:..\..\..\arduinoLCD\test\Pain Drain\libraries\lvgl\src\extra\widgets\keyboard/lv_keyboard.c **** 
 200:..\..\..\arduinoLCD\test\Pain Drain\libraries\lvgl\src\extra\widgets\keyboard/lv_keyboard.c ****     if(keyboard->popovers == en) {
 201:..\..\..\arduinoLCD\test\Pain Drain\libraries\lvgl\src\extra\widgets\keyboard/lv_keyboard.c ****         return;
 202:..\..\..\arduinoLCD\test\Pain Drain\libraries\lvgl\src\extra\widgets\keyboard/lv_keyboard.c ****     }
ARM GAS  C:\Users\haske\AppData\Local\Temp\ccEGgQv3.s 			page 5


 203:..\..\..\arduinoLCD\test\Pain Drain\libraries\lvgl\src\extra\widgets\keyboard/lv_keyboard.c **** 
 204:..\..\..\arduinoLCD\test\Pain Drain\libraries\lvgl\src\extra\widgets\keyboard/lv_keyboard.c ****     keyboard->popovers = en;
 205:..\..\..\arduinoLCD\test\Pain Drain\libraries\lvgl\src\extra\widgets\keyboard/lv_keyboard.c ****     lv_keyboard_update_ctrl_map(obj);
 206:..\..\..\arduinoLCD\test\Pain Drain\libraries\lvgl\src\extra\widgets\keyboard/lv_keyboard.c **** }
 207:..\..\..\arduinoLCD\test\Pain Drain\libraries\lvgl\src\extra\widgets\keyboard/lv_keyboard.c **** 
 208:..\..\..\arduinoLCD\test\Pain Drain\libraries\lvgl\src\extra\widgets\keyboard/lv_keyboard.c **** /**
 209:..\..\..\arduinoLCD\test\Pain Drain\libraries\lvgl\src\extra\widgets\keyboard/lv_keyboard.c ****  * Set a new map for the keyboard
 210:..\..\..\arduinoLCD\test\Pain Drain\libraries\lvgl\src\extra\widgets\keyboard/lv_keyboard.c ****  * @param kb pointer to a Keyboard object
 211:..\..\..\arduinoLCD\test\Pain Drain\libraries\lvgl\src\extra\widgets\keyboard/lv_keyboard.c ****  * @param mode keyboard map to alter 'lv_keyboard_mode_t'
 212:..\..\..\arduinoLCD\test\Pain Drain\libraries\lvgl\src\extra\widgets\keyboard/lv_keyboard.c ****  * @param map pointer to a string array to describe the map.
 213:..\..\..\arduinoLCD\test\Pain Drain\libraries\lvgl\src\extra\widgets\keyboard/lv_keyboard.c ****  *            See 'lv_btnmatrix_set_map()' for more info.
 214:..\..\..\arduinoLCD\test\Pain Drain\libraries\lvgl\src\extra\widgets\keyboard/lv_keyboard.c ****  */
 215:..\..\..\arduinoLCD\test\Pain Drain\libraries\lvgl\src\extra\widgets\keyboard/lv_keyboard.c **** void lv_keyboard_set_map(lv_obj_t * obj, lv_keyboard_mode_t mode, const char * map[],
 216:..\..\..\arduinoLCD\test\Pain Drain\libraries\lvgl\src\extra\widgets\keyboard/lv_keyboard.c ****                          const lv_btnmatrix_ctrl_t ctrl_map[])
 217:..\..\..\arduinoLCD\test\Pain Drain\libraries\lvgl\src\extra\widgets\keyboard/lv_keyboard.c **** {
 218:..\..\..\arduinoLCD\test\Pain Drain\libraries\lvgl\src\extra\widgets\keyboard/lv_keyboard.c ****     kb_map[mode] = map;
 219:..\..\..\arduinoLCD\test\Pain Drain\libraries\lvgl\src\extra\widgets\keyboard/lv_keyboard.c ****     kb_ctrl[mode] = ctrl_map;
 220:..\..\..\arduinoLCD\test\Pain Drain\libraries\lvgl\src\extra\widgets\keyboard/lv_keyboard.c ****     lv_keyboard_update_map(obj);
 221:..\..\..\arduinoLCD\test\Pain Drain\libraries\lvgl\src\extra\widgets\keyboard/lv_keyboard.c **** }
 222:..\..\..\arduinoLCD\test\Pain Drain\libraries\lvgl\src\extra\widgets\keyboard/lv_keyboard.c **** 
 223:..\..\..\arduinoLCD\test\Pain Drain\libraries\lvgl\src\extra\widgets\keyboard/lv_keyboard.c **** /*=====================
 224:..\..\..\arduinoLCD\test\Pain Drain\libraries\lvgl\src\extra\widgets\keyboard/lv_keyboard.c ****  * Getter functions
 225:..\..\..\arduinoLCD\test\Pain Drain\libraries\lvgl\src\extra\widgets\keyboard/lv_keyboard.c ****  *====================*/
 226:..\..\..\arduinoLCD\test\Pain Drain\libraries\lvgl\src\extra\widgets\keyboard/lv_keyboard.c **** 
 227:..\..\..\arduinoLCD\test\Pain Drain\libraries\lvgl\src\extra\widgets\keyboard/lv_keyboard.c **** /**
 228:..\..\..\arduinoLCD\test\Pain Drain\libraries\lvgl\src\extra\widgets\keyboard/lv_keyboard.c ****  * Assign a Text Area to the Keyboard. The pressed characters will be put there.
 229:..\..\..\arduinoLCD\test\Pain Drain\libraries\lvgl\src\extra\widgets\keyboard/lv_keyboard.c ****  * @param kb pointer to a Keyboard object
 230:..\..\..\arduinoLCD\test\Pain Drain\libraries\lvgl\src\extra\widgets\keyboard/lv_keyboard.c ****  * @return pointer to the assigned Text Area object
 231:..\..\..\arduinoLCD\test\Pain Drain\libraries\lvgl\src\extra\widgets\keyboard/lv_keyboard.c ****  */
 232:..\..\..\arduinoLCD\test\Pain Drain\libraries\lvgl\src\extra\widgets\keyboard/lv_keyboard.c **** lv_obj_t * lv_keyboard_get_textarea(const lv_obj_t * obj)
 233:..\..\..\arduinoLCD\test\Pain Drain\libraries\lvgl\src\extra\widgets\keyboard/lv_keyboard.c **** {
 234:..\..\..\arduinoLCD\test\Pain Drain\libraries\lvgl\src\extra\widgets\keyboard/lv_keyboard.c ****     LV_ASSERT_OBJ(obj, MY_CLASS);
 235:..\..\..\arduinoLCD\test\Pain Drain\libraries\lvgl\src\extra\widgets\keyboard/lv_keyboard.c ****     lv_keyboard_t * keyboard = (lv_keyboard_t *)obj;
 236:..\..\..\arduinoLCD\test\Pain Drain\libraries\lvgl\src\extra\widgets\keyboard/lv_keyboard.c ****     return keyboard->ta;
 237:..\..\..\arduinoLCD\test\Pain Drain\libraries\lvgl\src\extra\widgets\keyboard/lv_keyboard.c **** }
 238:..\..\..\arduinoLCD\test\Pain Drain\libraries\lvgl\src\extra\widgets\keyboard/lv_keyboard.c **** 
 239:..\..\..\arduinoLCD\test\Pain Drain\libraries\lvgl\src\extra\widgets\keyboard/lv_keyboard.c **** /**
 240:..\..\..\arduinoLCD\test\Pain Drain\libraries\lvgl\src\extra\widgets\keyboard/lv_keyboard.c ****  * Set a new a mode (text or number map)
 241:..\..\..\arduinoLCD\test\Pain Drain\libraries\lvgl\src\extra\widgets\keyboard/lv_keyboard.c ****  * @param kb pointer to a Keyboard object
 242:..\..\..\arduinoLCD\test\Pain Drain\libraries\lvgl\src\extra\widgets\keyboard/lv_keyboard.c ****  * @return the current mode from 'lv_keyboard_mode_t'
 243:..\..\..\arduinoLCD\test\Pain Drain\libraries\lvgl\src\extra\widgets\keyboard/lv_keyboard.c ****  */
 244:..\..\..\arduinoLCD\test\Pain Drain\libraries\lvgl\src\extra\widgets\keyboard/lv_keyboard.c **** lv_keyboard_mode_t lv_keyboard_get_mode(const lv_obj_t * obj)
 245:..\..\..\arduinoLCD\test\Pain Drain\libraries\lvgl\src\extra\widgets\keyboard/lv_keyboard.c **** {
 246:..\..\..\arduinoLCD\test\Pain Drain\libraries\lvgl\src\extra\widgets\keyboard/lv_keyboard.c ****     LV_ASSERT_OBJ(obj, MY_CLASS);
 247:..\..\..\arduinoLCD\test\Pain Drain\libraries\lvgl\src\extra\widgets\keyboard/lv_keyboard.c ****     lv_keyboard_t * keyboard = (lv_keyboard_t *)obj;
 248:..\..\..\arduinoLCD\test\Pain Drain\libraries\lvgl\src\extra\widgets\keyboard/lv_keyboard.c ****     return keyboard->mode;
 249:..\..\..\arduinoLCD\test\Pain Drain\libraries\lvgl\src\extra\widgets\keyboard/lv_keyboard.c **** }
 250:..\..\..\arduinoLCD\test\Pain Drain\libraries\lvgl\src\extra\widgets\keyboard/lv_keyboard.c **** 
 251:..\..\..\arduinoLCD\test\Pain Drain\libraries\lvgl\src\extra\widgets\keyboard/lv_keyboard.c **** /**
 252:..\..\..\arduinoLCD\test\Pain Drain\libraries\lvgl\src\extra\widgets\keyboard/lv_keyboard.c ****  * Tell whether "popovers" mode is enabled or not.
 253:..\..\..\arduinoLCD\test\Pain Drain\libraries\lvgl\src\extra\widgets\keyboard/lv_keyboard.c ****  * @param kb pointer to a Keyboard object
 254:..\..\..\arduinoLCD\test\Pain Drain\libraries\lvgl\src\extra\widgets\keyboard/lv_keyboard.c ****  * @return true: "popovers" mode is enabled; false: disabled
 255:..\..\..\arduinoLCD\test\Pain Drain\libraries\lvgl\src\extra\widgets\keyboard/lv_keyboard.c ****  */
 256:..\..\..\arduinoLCD\test\Pain Drain\libraries\lvgl\src\extra\widgets\keyboard/lv_keyboard.c **** bool lv_btnmatrix_get_popovers(const lv_obj_t * obj)
 257:..\..\..\arduinoLCD\test\Pain Drain\libraries\lvgl\src\extra\widgets\keyboard/lv_keyboard.c **** {
 258:..\..\..\arduinoLCD\test\Pain Drain\libraries\lvgl\src\extra\widgets\keyboard/lv_keyboard.c ****     lv_keyboard_t * keyboard = (lv_keyboard_t *)obj;
 259:..\..\..\arduinoLCD\test\Pain Drain\libraries\lvgl\src\extra\widgets\keyboard/lv_keyboard.c ****     return keyboard->popovers;
ARM GAS  C:\Users\haske\AppData\Local\Temp\ccEGgQv3.s 			page 6


 260:..\..\..\arduinoLCD\test\Pain Drain\libraries\lvgl\src\extra\widgets\keyboard/lv_keyboard.c **** }
 261:..\..\..\arduinoLCD\test\Pain Drain\libraries\lvgl\src\extra\widgets\keyboard/lv_keyboard.c **** 
 262:..\..\..\arduinoLCD\test\Pain Drain\libraries\lvgl\src\extra\widgets\keyboard/lv_keyboard.c **** /*=====================
 263:..\..\..\arduinoLCD\test\Pain Drain\libraries\lvgl\src\extra\widgets\keyboard/lv_keyboard.c ****  * Other functions
 264:..\..\..\arduinoLCD\test\Pain Drain\libraries\lvgl\src\extra\widgets\keyboard/lv_keyboard.c ****  *====================*/
 265:..\..\..\arduinoLCD\test\Pain Drain\libraries\lvgl\src\extra\widgets\keyboard/lv_keyboard.c **** 
 266:..\..\..\arduinoLCD\test\Pain Drain\libraries\lvgl\src\extra\widgets\keyboard/lv_keyboard.c **** /**
 267:..\..\..\arduinoLCD\test\Pain Drain\libraries\lvgl\src\extra\widgets\keyboard/lv_keyboard.c ****  * Default keyboard event to add characters to the Text area and change the map.
 268:..\..\..\arduinoLCD\test\Pain Drain\libraries\lvgl\src\extra\widgets\keyboard/lv_keyboard.c ****  * If a custom `event_cb` is added to the keyboard this function can be called from it to handle th
 269:..\..\..\arduinoLCD\test\Pain Drain\libraries\lvgl\src\extra\widgets\keyboard/lv_keyboard.c ****  * button clicks
 270:..\..\..\arduinoLCD\test\Pain Drain\libraries\lvgl\src\extra\widgets\keyboard/lv_keyboard.c ****  * @param kb pointer to a keyboard
 271:..\..\..\arduinoLCD\test\Pain Drain\libraries\lvgl\src\extra\widgets\keyboard/lv_keyboard.c ****  * @param event the triggering event
 272:..\..\..\arduinoLCD\test\Pain Drain\libraries\lvgl\src\extra\widgets\keyboard/lv_keyboard.c ****  */
 273:..\..\..\arduinoLCD\test\Pain Drain\libraries\lvgl\src\extra\widgets\keyboard/lv_keyboard.c **** void lv_keyboard_def_event_cb(lv_event_t * e)
 274:..\..\..\arduinoLCD\test\Pain Drain\libraries\lvgl\src\extra\widgets\keyboard/lv_keyboard.c **** {
 275:..\..\..\arduinoLCD\test\Pain Drain\libraries\lvgl\src\extra\widgets\keyboard/lv_keyboard.c ****     lv_obj_t * obj = lv_event_get_target(e);
 276:..\..\..\arduinoLCD\test\Pain Drain\libraries\lvgl\src\extra\widgets\keyboard/lv_keyboard.c **** 
 277:..\..\..\arduinoLCD\test\Pain Drain\libraries\lvgl\src\extra\widgets\keyboard/lv_keyboard.c ****     LV_ASSERT_OBJ(obj, MY_CLASS);
 278:..\..\..\arduinoLCD\test\Pain Drain\libraries\lvgl\src\extra\widgets\keyboard/lv_keyboard.c ****     lv_keyboard_t * keyboard = (lv_keyboard_t *)obj;
 279:..\..\..\arduinoLCD\test\Pain Drain\libraries\lvgl\src\extra\widgets\keyboard/lv_keyboard.c ****     uint16_t btn_id   = lv_btnmatrix_get_selected_btn(obj);
 280:..\..\..\arduinoLCD\test\Pain Drain\libraries\lvgl\src\extra\widgets\keyboard/lv_keyboard.c ****     if(btn_id == LV_BTNMATRIX_BTN_NONE) return;
 281:..\..\..\arduinoLCD\test\Pain Drain\libraries\lvgl\src\extra\widgets\keyboard/lv_keyboard.c **** 
 282:..\..\..\arduinoLCD\test\Pain Drain\libraries\lvgl\src\extra\widgets\keyboard/lv_keyboard.c ****     const char * txt = lv_btnmatrix_get_btn_text(obj, lv_btnmatrix_get_selected_btn(obj));
 283:..\..\..\arduinoLCD\test\Pain Drain\libraries\lvgl\src\extra\widgets\keyboard/lv_keyboard.c ****     if(txt == NULL) return;
 284:..\..\..\arduinoLCD\test\Pain Drain\libraries\lvgl\src\extra\widgets\keyboard/lv_keyboard.c **** 
 285:..\..\..\arduinoLCD\test\Pain Drain\libraries\lvgl\src\extra\widgets\keyboard/lv_keyboard.c ****     if(strcmp(txt, "abc") == 0) {
 286:..\..\..\arduinoLCD\test\Pain Drain\libraries\lvgl\src\extra\widgets\keyboard/lv_keyboard.c ****         keyboard->mode = LV_KEYBOARD_MODE_TEXT_LOWER;
 287:..\..\..\arduinoLCD\test\Pain Drain\libraries\lvgl\src\extra\widgets\keyboard/lv_keyboard.c ****         lv_btnmatrix_set_map(obj, kb_map[LV_KEYBOARD_MODE_TEXT_LOWER]);
 288:..\..\..\arduinoLCD\test\Pain Drain\libraries\lvgl\src\extra\widgets\keyboard/lv_keyboard.c ****         lv_keyboard_update_ctrl_map(obj);
 289:..\..\..\arduinoLCD\test\Pain Drain\libraries\lvgl\src\extra\widgets\keyboard/lv_keyboard.c ****         return;
 290:..\..\..\arduinoLCD\test\Pain Drain\libraries\lvgl\src\extra\widgets\keyboard/lv_keyboard.c ****     }
 291:..\..\..\arduinoLCD\test\Pain Drain\libraries\lvgl\src\extra\widgets\keyboard/lv_keyboard.c ****     else if(strcmp(txt, "ABC") == 0) {
 292:..\..\..\arduinoLCD\test\Pain Drain\libraries\lvgl\src\extra\widgets\keyboard/lv_keyboard.c ****         keyboard->mode = LV_KEYBOARD_MODE_TEXT_UPPER;
 293:..\..\..\arduinoLCD\test\Pain Drain\libraries\lvgl\src\extra\widgets\keyboard/lv_keyboard.c ****         lv_btnmatrix_set_map(obj, kb_map[LV_KEYBOARD_MODE_TEXT_UPPER]);
 294:..\..\..\arduinoLCD\test\Pain Drain\libraries\lvgl\src\extra\widgets\keyboard/lv_keyboard.c ****         lv_keyboard_update_ctrl_map(obj);
 295:..\..\..\arduinoLCD\test\Pain Drain\libraries\lvgl\src\extra\widgets\keyboard/lv_keyboard.c ****         return;
 296:..\..\..\arduinoLCD\test\Pain Drain\libraries\lvgl\src\extra\widgets\keyboard/lv_keyboard.c ****     }
 297:..\..\..\arduinoLCD\test\Pain Drain\libraries\lvgl\src\extra\widgets\keyboard/lv_keyboard.c ****     else if(strcmp(txt, "1#") == 0) {
 298:..\..\..\arduinoLCD\test\Pain Drain\libraries\lvgl\src\extra\widgets\keyboard/lv_keyboard.c ****         keyboard->mode = LV_KEYBOARD_MODE_SPECIAL;
 299:..\..\..\arduinoLCD\test\Pain Drain\libraries\lvgl\src\extra\widgets\keyboard/lv_keyboard.c ****         lv_btnmatrix_set_map(obj, kb_map[LV_KEYBOARD_MODE_SPECIAL]);
 300:..\..\..\arduinoLCD\test\Pain Drain\libraries\lvgl\src\extra\widgets\keyboard/lv_keyboard.c ****         lv_keyboard_update_ctrl_map(obj);
 301:..\..\..\arduinoLCD\test\Pain Drain\libraries\lvgl\src\extra\widgets\keyboard/lv_keyboard.c ****         return;
 302:..\..\..\arduinoLCD\test\Pain Drain\libraries\lvgl\src\extra\widgets\keyboard/lv_keyboard.c ****     }
 303:..\..\..\arduinoLCD\test\Pain Drain\libraries\lvgl\src\extra\widgets\keyboard/lv_keyboard.c ****     else if(strcmp(txt, LV_SYMBOL_CLOSE) == 0 || strcmp(txt, LV_SYMBOL_KEYBOARD) == 0) {
 304:..\..\..\arduinoLCD\test\Pain Drain\libraries\lvgl\src\extra\widgets\keyboard/lv_keyboard.c ****         lv_res_t res = lv_event_send(obj, LV_EVENT_CANCEL, NULL);
 305:..\..\..\arduinoLCD\test\Pain Drain\libraries\lvgl\src\extra\widgets\keyboard/lv_keyboard.c ****         if(res != LV_RES_OK) return;
 306:..\..\..\arduinoLCD\test\Pain Drain\libraries\lvgl\src\extra\widgets\keyboard/lv_keyboard.c **** 
 307:..\..\..\arduinoLCD\test\Pain Drain\libraries\lvgl\src\extra\widgets\keyboard/lv_keyboard.c ****         if(keyboard->ta) {
 308:..\..\..\arduinoLCD\test\Pain Drain\libraries\lvgl\src\extra\widgets\keyboard/lv_keyboard.c ****             res = lv_event_send(keyboard->ta, LV_EVENT_CANCEL, NULL);
 309:..\..\..\arduinoLCD\test\Pain Drain\libraries\lvgl\src\extra\widgets\keyboard/lv_keyboard.c ****             if(res != LV_RES_OK) return;
 310:..\..\..\arduinoLCD\test\Pain Drain\libraries\lvgl\src\extra\widgets\keyboard/lv_keyboard.c ****         }
 311:..\..\..\arduinoLCD\test\Pain Drain\libraries\lvgl\src\extra\widgets\keyboard/lv_keyboard.c ****         return;
 312:..\..\..\arduinoLCD\test\Pain Drain\libraries\lvgl\src\extra\widgets\keyboard/lv_keyboard.c ****     }
 313:..\..\..\arduinoLCD\test\Pain Drain\libraries\lvgl\src\extra\widgets\keyboard/lv_keyboard.c ****     else if(strcmp(txt, LV_SYMBOL_OK) == 0) {
 314:..\..\..\arduinoLCD\test\Pain Drain\libraries\lvgl\src\extra\widgets\keyboard/lv_keyboard.c ****         lv_res_t res = lv_event_send(obj, LV_EVENT_READY, NULL);
 315:..\..\..\arduinoLCD\test\Pain Drain\libraries\lvgl\src\extra\widgets\keyboard/lv_keyboard.c ****         if(res != LV_RES_OK) return;
 316:..\..\..\arduinoLCD\test\Pain Drain\libraries\lvgl\src\extra\widgets\keyboard/lv_keyboard.c **** 
ARM GAS  C:\Users\haske\AppData\Local\Temp\ccEGgQv3.s 			page 7


 317:..\..\..\arduinoLCD\test\Pain Drain\libraries\lvgl\src\extra\widgets\keyboard/lv_keyboard.c ****         if(keyboard->ta) {
 318:..\..\..\arduinoLCD\test\Pain Drain\libraries\lvgl\src\extra\widgets\keyboard/lv_keyboard.c ****             res = lv_event_send(keyboard->ta, LV_EVENT_READY, NULL);
 319:..\..\..\arduinoLCD\test\Pain Drain\libraries\lvgl\src\extra\widgets\keyboard/lv_keyboard.c ****             if(res != LV_RES_OK) return;
 320:..\..\..\arduinoLCD\test\Pain Drain\libraries\lvgl\src\extra\widgets\keyboard/lv_keyboard.c ****         }
 321:..\..\..\arduinoLCD\test\Pain Drain\libraries\lvgl\src\extra\widgets\keyboard/lv_keyboard.c ****         return;
 322:..\..\..\arduinoLCD\test\Pain Drain\libraries\lvgl\src\extra\widgets\keyboard/lv_keyboard.c ****     }
 323:..\..\..\arduinoLCD\test\Pain Drain\libraries\lvgl\src\extra\widgets\keyboard/lv_keyboard.c **** 
 324:..\..\..\arduinoLCD\test\Pain Drain\libraries\lvgl\src\extra\widgets\keyboard/lv_keyboard.c ****     /*Add the characters to the text area if set*/
 325:..\..\..\arduinoLCD\test\Pain Drain\libraries\lvgl\src\extra\widgets\keyboard/lv_keyboard.c ****     if(keyboard->ta == NULL) return;
 326:..\..\..\arduinoLCD\test\Pain Drain\libraries\lvgl\src\extra\widgets\keyboard/lv_keyboard.c **** 
 327:..\..\..\arduinoLCD\test\Pain Drain\libraries\lvgl\src\extra\widgets\keyboard/lv_keyboard.c ****     if(strcmp(txt, "Enter") == 0 || strcmp(txt, LV_SYMBOL_NEW_LINE) == 0) {
 328:..\..\..\arduinoLCD\test\Pain Drain\libraries\lvgl\src\extra\widgets\keyboard/lv_keyboard.c ****         lv_textarea_add_char(keyboard->ta, '\n');
 329:..\..\..\arduinoLCD\test\Pain Drain\libraries\lvgl\src\extra\widgets\keyboard/lv_keyboard.c ****         if(lv_textarea_get_one_line(keyboard->ta)) {
 330:..\..\..\arduinoLCD\test\Pain Drain\libraries\lvgl\src\extra\widgets\keyboard/lv_keyboard.c ****             lv_res_t res = lv_event_send(keyboard->ta, LV_EVENT_READY, NULL);
 331:..\..\..\arduinoLCD\test\Pain Drain\libraries\lvgl\src\extra\widgets\keyboard/lv_keyboard.c ****             if(res != LV_RES_OK) return;
 332:..\..\..\arduinoLCD\test\Pain Drain\libraries\lvgl\src\extra\widgets\keyboard/lv_keyboard.c ****         }
 333:..\..\..\arduinoLCD\test\Pain Drain\libraries\lvgl\src\extra\widgets\keyboard/lv_keyboard.c ****     }
 334:..\..\..\arduinoLCD\test\Pain Drain\libraries\lvgl\src\extra\widgets\keyboard/lv_keyboard.c ****     else if(strcmp(txt, LV_SYMBOL_LEFT) == 0) {
 335:..\..\..\arduinoLCD\test\Pain Drain\libraries\lvgl\src\extra\widgets\keyboard/lv_keyboard.c ****         lv_textarea_cursor_left(keyboard->ta);
 336:..\..\..\arduinoLCD\test\Pain Drain\libraries\lvgl\src\extra\widgets\keyboard/lv_keyboard.c ****     }
 337:..\..\..\arduinoLCD\test\Pain Drain\libraries\lvgl\src\extra\widgets\keyboard/lv_keyboard.c ****     else if(strcmp(txt, LV_SYMBOL_RIGHT) == 0) {
 338:..\..\..\arduinoLCD\test\Pain Drain\libraries\lvgl\src\extra\widgets\keyboard/lv_keyboard.c ****         lv_textarea_cursor_right(keyboard->ta);
 339:..\..\..\arduinoLCD\test\Pain Drain\libraries\lvgl\src\extra\widgets\keyboard/lv_keyboard.c ****     }
 340:..\..\..\arduinoLCD\test\Pain Drain\libraries\lvgl\src\extra\widgets\keyboard/lv_keyboard.c ****     else if(strcmp(txt, LV_SYMBOL_BACKSPACE) == 0) {
 341:..\..\..\arduinoLCD\test\Pain Drain\libraries\lvgl\src\extra\widgets\keyboard/lv_keyboard.c ****         lv_textarea_del_char(keyboard->ta);
 342:..\..\..\arduinoLCD\test\Pain Drain\libraries\lvgl\src\extra\widgets\keyboard/lv_keyboard.c ****     }
 343:..\..\..\arduinoLCD\test\Pain Drain\libraries\lvgl\src\extra\widgets\keyboard/lv_keyboard.c ****     else if(strcmp(txt, "+/-") == 0) {
 344:..\..\..\arduinoLCD\test\Pain Drain\libraries\lvgl\src\extra\widgets\keyboard/lv_keyboard.c ****         uint16_t cur        = lv_textarea_get_cursor_pos(keyboard->ta);
 345:..\..\..\arduinoLCD\test\Pain Drain\libraries\lvgl\src\extra\widgets\keyboard/lv_keyboard.c ****         const char * ta_txt = lv_textarea_get_text(keyboard->ta);
 346:..\..\..\arduinoLCD\test\Pain Drain\libraries\lvgl\src\extra\widgets\keyboard/lv_keyboard.c ****         if(ta_txt[0] == '-') {
 347:..\..\..\arduinoLCD\test\Pain Drain\libraries\lvgl\src\extra\widgets\keyboard/lv_keyboard.c ****             lv_textarea_set_cursor_pos(keyboard->ta, 1);
 348:..\..\..\arduinoLCD\test\Pain Drain\libraries\lvgl\src\extra\widgets\keyboard/lv_keyboard.c ****             lv_textarea_del_char(keyboard->ta);
 349:..\..\..\arduinoLCD\test\Pain Drain\libraries\lvgl\src\extra\widgets\keyboard/lv_keyboard.c ****             lv_textarea_add_char(keyboard->ta, '+');
 350:..\..\..\arduinoLCD\test\Pain Drain\libraries\lvgl\src\extra\widgets\keyboard/lv_keyboard.c ****             lv_textarea_set_cursor_pos(keyboard->ta, cur);
 351:..\..\..\arduinoLCD\test\Pain Drain\libraries\lvgl\src\extra\widgets\keyboard/lv_keyboard.c ****         }
 352:..\..\..\arduinoLCD\test\Pain Drain\libraries\lvgl\src\extra\widgets\keyboard/lv_keyboard.c ****         else if(ta_txt[0] == '+') {
 353:..\..\..\arduinoLCD\test\Pain Drain\libraries\lvgl\src\extra\widgets\keyboard/lv_keyboard.c ****             lv_textarea_set_cursor_pos(keyboard->ta, 1);
 354:..\..\..\arduinoLCD\test\Pain Drain\libraries\lvgl\src\extra\widgets\keyboard/lv_keyboard.c ****             lv_textarea_del_char(keyboard->ta);
 355:..\..\..\arduinoLCD\test\Pain Drain\libraries\lvgl\src\extra\widgets\keyboard/lv_keyboard.c ****             lv_textarea_add_char(keyboard->ta, '-');
 356:..\..\..\arduinoLCD\test\Pain Drain\libraries\lvgl\src\extra\widgets\keyboard/lv_keyboard.c ****             lv_textarea_set_cursor_pos(keyboard->ta, cur);
 357:..\..\..\arduinoLCD\test\Pain Drain\libraries\lvgl\src\extra\widgets\keyboard/lv_keyboard.c ****         }
 358:..\..\..\arduinoLCD\test\Pain Drain\libraries\lvgl\src\extra\widgets\keyboard/lv_keyboard.c ****         else {
 359:..\..\..\arduinoLCD\test\Pain Drain\libraries\lvgl\src\extra\widgets\keyboard/lv_keyboard.c ****             lv_textarea_set_cursor_pos(keyboard->ta, 0);
 360:..\..\..\arduinoLCD\test\Pain Drain\libraries\lvgl\src\extra\widgets\keyboard/lv_keyboard.c ****             lv_textarea_add_char(keyboard->ta, '-');
 361:..\..\..\arduinoLCD\test\Pain Drain\libraries\lvgl\src\extra\widgets\keyboard/lv_keyboard.c ****             lv_textarea_set_cursor_pos(keyboard->ta, cur + 1);
 362:..\..\..\arduinoLCD\test\Pain Drain\libraries\lvgl\src\extra\widgets\keyboard/lv_keyboard.c ****         }
 363:..\..\..\arduinoLCD\test\Pain Drain\libraries\lvgl\src\extra\widgets\keyboard/lv_keyboard.c ****     }
 364:..\..\..\arduinoLCD\test\Pain Drain\libraries\lvgl\src\extra\widgets\keyboard/lv_keyboard.c ****     else {
 365:..\..\..\arduinoLCD\test\Pain Drain\libraries\lvgl\src\extra\widgets\keyboard/lv_keyboard.c ****         lv_textarea_add_text(keyboard->ta, txt);
 366:..\..\..\arduinoLCD\test\Pain Drain\libraries\lvgl\src\extra\widgets\keyboard/lv_keyboard.c ****     }
 367:..\..\..\arduinoLCD\test\Pain Drain\libraries\lvgl\src\extra\widgets\keyboard/lv_keyboard.c **** }
 368:..\..\..\arduinoLCD\test\Pain Drain\libraries\lvgl\src\extra\widgets\keyboard/lv_keyboard.c **** 
 369:..\..\..\arduinoLCD\test\Pain Drain\libraries\lvgl\src\extra\widgets\keyboard/lv_keyboard.c **** /**********************
 370:..\..\..\arduinoLCD\test\Pain Drain\libraries\lvgl\src\extra\widgets\keyboard/lv_keyboard.c ****  *   STATIC FUNCTIONS
 371:..\..\..\arduinoLCD\test\Pain Drain\libraries\lvgl\src\extra\widgets\keyboard/lv_keyboard.c ****  **********************/
 372:..\..\..\arduinoLCD\test\Pain Drain\libraries\lvgl\src\extra\widgets\keyboard/lv_keyboard.c **** 
 373:..\..\..\arduinoLCD\test\Pain Drain\libraries\lvgl\src\extra\widgets\keyboard/lv_keyboard.c **** static void lv_keyboard_constructor(const lv_obj_class_t * class_p, lv_obj_t * obj)
ARM GAS  C:\Users\haske\AppData\Local\Temp\ccEGgQv3.s 			page 8


 374:..\..\..\arduinoLCD\test\Pain Drain\libraries\lvgl\src\extra\widgets\keyboard/lv_keyboard.c **** {
 375:..\..\..\arduinoLCD\test\Pain Drain\libraries\lvgl\src\extra\widgets\keyboard/lv_keyboard.c ****     LV_UNUSED(class_p);
 376:..\..\..\arduinoLCD\test\Pain Drain\libraries\lvgl\src\extra\widgets\keyboard/lv_keyboard.c ****     lv_obj_clear_flag(obj, LV_OBJ_FLAG_CLICK_FOCUSABLE);
 377:..\..\..\arduinoLCD\test\Pain Drain\libraries\lvgl\src\extra\widgets\keyboard/lv_keyboard.c **** 
 378:..\..\..\arduinoLCD\test\Pain Drain\libraries\lvgl\src\extra\widgets\keyboard/lv_keyboard.c ****     lv_keyboard_t * keyboard = (lv_keyboard_t *)obj;
 379:..\..\..\arduinoLCD\test\Pain Drain\libraries\lvgl\src\extra\widgets\keyboard/lv_keyboard.c ****     keyboard->ta         = NULL;
 380:..\..\..\arduinoLCD\test\Pain Drain\libraries\lvgl\src\extra\widgets\keyboard/lv_keyboard.c ****     keyboard->mode       = LV_KEYBOARD_MODE_TEXT_LOWER;
 381:..\..\..\arduinoLCD\test\Pain Drain\libraries\lvgl\src\extra\widgets\keyboard/lv_keyboard.c ****     keyboard->popovers   = 0;
 382:..\..\..\arduinoLCD\test\Pain Drain\libraries\lvgl\src\extra\widgets\keyboard/lv_keyboard.c **** 
 383:..\..\..\arduinoLCD\test\Pain Drain\libraries\lvgl\src\extra\widgets\keyboard/lv_keyboard.c ****     lv_obj_align(obj, LV_ALIGN_BOTTOM_MID, 0, 0);
 384:..\..\..\arduinoLCD\test\Pain Drain\libraries\lvgl\src\extra\widgets\keyboard/lv_keyboard.c ****     lv_obj_add_event_cb(obj, lv_keyboard_def_event_cb, LV_EVENT_VALUE_CHANGED, NULL);
 385:..\..\..\arduinoLCD\test\Pain Drain\libraries\lvgl\src\extra\widgets\keyboard/lv_keyboard.c ****     lv_obj_set_style_base_dir(obj, LV_BASE_DIR_LTR, 0);
 386:..\..\..\arduinoLCD\test\Pain Drain\libraries\lvgl\src\extra\widgets\keyboard/lv_keyboard.c **** 
 387:..\..\..\arduinoLCD\test\Pain Drain\libraries\lvgl\src\extra\widgets\keyboard/lv_keyboard.c ****     lv_keyboard_update_map(obj);
 388:..\..\..\arduinoLCD\test\Pain Drain\libraries\lvgl\src\extra\widgets\keyboard/lv_keyboard.c **** }
 389:..\..\..\arduinoLCD\test\Pain Drain\libraries\lvgl\src\extra\widgets\keyboard/lv_keyboard.c **** 
 390:..\..\..\arduinoLCD\test\Pain Drain\libraries\lvgl\src\extra\widgets\keyboard/lv_keyboard.c **** /**
 391:..\..\..\arduinoLCD\test\Pain Drain\libraries\lvgl\src\extra\widgets\keyboard/lv_keyboard.c ****  * Update the key and control map for the current mode
 392:..\..\..\arduinoLCD\test\Pain Drain\libraries\lvgl\src\extra\widgets\keyboard/lv_keyboard.c ****  * @param obj pointer to a keyboard object
 393:..\..\..\arduinoLCD\test\Pain Drain\libraries\lvgl\src\extra\widgets\keyboard/lv_keyboard.c ****  */
 394:..\..\..\arduinoLCD\test\Pain Drain\libraries\lvgl\src\extra\widgets\keyboard/lv_keyboard.c **** static void lv_keyboard_update_map(lv_obj_t * obj)
 395:..\..\..\arduinoLCD\test\Pain Drain\libraries\lvgl\src\extra\widgets\keyboard/lv_keyboard.c **** {
 396:..\..\..\arduinoLCD\test\Pain Drain\libraries\lvgl\src\extra\widgets\keyboard/lv_keyboard.c ****     lv_keyboard_t * keyboard = (lv_keyboard_t *)obj;
 397:..\..\..\arduinoLCD\test\Pain Drain\libraries\lvgl\src\extra\widgets\keyboard/lv_keyboard.c ****     lv_btnmatrix_set_map(obj, kb_map[keyboard->mode]);
 398:..\..\..\arduinoLCD\test\Pain Drain\libraries\lvgl\src\extra\widgets\keyboard/lv_keyboard.c ****     lv_keyboard_update_ctrl_map(obj);
 399:..\..\..\arduinoLCD\test\Pain Drain\libraries\lvgl\src\extra\widgets\keyboard/lv_keyboard.c **** }
 400:..\..\..\arduinoLCD\test\Pain Drain\libraries\lvgl\src\extra\widgets\keyboard/lv_keyboard.c **** 
 401:..\..\..\arduinoLCD\test\Pain Drain\libraries\lvgl\src\extra\widgets\keyboard/lv_keyboard.c **** /**
 402:..\..\..\arduinoLCD\test\Pain Drain\libraries\lvgl\src\extra\widgets\keyboard/lv_keyboard.c ****  * Update the control map for the current mode
 403:..\..\..\arduinoLCD\test\Pain Drain\libraries\lvgl\src\extra\widgets\keyboard/lv_keyboard.c ****  * @param obj pointer to a keyboard object
 404:..\..\..\arduinoLCD\test\Pain Drain\libraries\lvgl\src\extra\widgets\keyboard/lv_keyboard.c ****  */
 405:..\..\..\arduinoLCD\test\Pain Drain\libraries\lvgl\src\extra\widgets\keyboard/lv_keyboard.c **** static void lv_keyboard_update_ctrl_map(lv_obj_t * obj)
 406:..\..\..\arduinoLCD\test\Pain Drain\libraries\lvgl\src\extra\widgets\keyboard/lv_keyboard.c **** {
  27              		.loc 1 406 0
  28              		.cfi_startproc
  29              		@ args = 0, pretend = 0, frame = 0
  30              		@ frame_needed = 0, uses_anonymous_args = 0
  31              	.LVL0:
  32 0000 70B5     		push	{r4, r5, r6, lr}
  33              		.cfi_def_cfa_offset 16
  34              		.cfi_offset 4, -16
  35              		.cfi_offset 5, -12
  36              		.cfi_offset 6, -8
  37              		.cfi_offset 14, -4
  38 0002 0400     		movs	r4, r0
  39              	.LVL1:
 407:..\..\..\arduinoLCD\test\Pain Drain\libraries\lvgl\src\extra\widgets\keyboard/lv_keyboard.c ****     lv_keyboard_t * keyboard = (lv_keyboard_t *)obj;
 408:..\..\..\arduinoLCD\test\Pain Drain\libraries\lvgl\src\extra\widgets\keyboard/lv_keyboard.c **** 
 409:..\..\..\arduinoLCD\test\Pain Drain\libraries\lvgl\src\extra\widgets\keyboard/lv_keyboard.c ****     if(keyboard->popovers) {
  40              		.loc 1 409 0
  41 0004 3D23     		movs	r3, #61
  42 0006 C35C     		ldrb	r3, [r0, r3]
  43 0008 DB07     		lsls	r3, r3, #31
  44 000a 07D5     		bpl	.L2
 410:..\..\..\arduinoLCD\test\Pain Drain\libraries\lvgl\src\extra\widgets\keyboard/lv_keyboard.c ****         /*Apply the current control map (already includes LV_BTNMATRIX_CTRL_POPOVER flags)*/
 411:..\..\..\arduinoLCD\test\Pain Drain\libraries\lvgl\src\extra\widgets\keyboard/lv_keyboard.c ****         lv_btnmatrix_set_ctrl_map(obj, kb_ctrl[keyboard->mode]);
  45              		.loc 1 411 0
ARM GAS  C:\Users\haske\AppData\Local\Temp\ccEGgQv3.s 			page 9


  46 000c 3C23     		movs	r3, #60
  47 000e C35C     		ldrb	r3, [r0, r3]
  48 0010 9B00     		lsls	r3, r3, #2
  49 0012 144A     		ldr	r2, .L6
  50 0014 9958     		ldr	r1, [r3, r2]
  51 0016 FFF7FEFF 		bl	lv_btnmatrix_set_ctrl_map
  52              	.LVL2:
  53 001a 21E0     		b	.L1
  54              	.LVL3:
  55              	.L2:
  56              	.LBB2:
 412:..\..\..\arduinoLCD\test\Pain Drain\libraries\lvgl\src\extra\widgets\keyboard/lv_keyboard.c ****     }
 413:..\..\..\arduinoLCD\test\Pain Drain\libraries\lvgl\src\extra\widgets\keyboard/lv_keyboard.c ****     else {
 414:..\..\..\arduinoLCD\test\Pain Drain\libraries\lvgl\src\extra\widgets\keyboard/lv_keyboard.c ****         /*Make a copy of the current control map*/
 415:..\..\..\arduinoLCD\test\Pain Drain\libraries\lvgl\src\extra\widgets\keyboard/lv_keyboard.c ****         lv_btnmatrix_t * btnm = (lv_btnmatrix_t *)obj;
 416:..\..\..\arduinoLCD\test\Pain Drain\libraries\lvgl\src\extra\widgets\keyboard/lv_keyboard.c ****         lv_btnmatrix_ctrl_t * ctrl_map = lv_mem_alloc(btnm->btn_cnt * sizeof(lv_btnmatrix_ctrl_t));
  57              		.loc 1 416 0
  58 001c 008E     		ldrh	r0, [r0, #48]
  59              	.LVL4:
  60 001e 4000     		lsls	r0, r0, #1
  61 0020 FFF7FEFF 		bl	lv_mem_alloc
  62              	.LVL5:
  63 0024 0500     		movs	r5, r0
  64              	.LVL6:
 417:..\..\..\arduinoLCD\test\Pain Drain\libraries\lvgl\src\extra\widgets\keyboard/lv_keyboard.c ****         lv_memcpy(ctrl_map, kb_ctrl[keyboard->mode], sizeof(lv_btnmatrix_ctrl_t) * btnm->btn_cnt);
  65              		.loc 1 417 0
  66 0026 3C23     		movs	r3, #60
  67 0028 E35C     		ldrb	r3, [r4, r3]
  68 002a 9B00     		lsls	r3, r3, #2
  69 002c 0D4A     		ldr	r2, .L6
  70 002e 9958     		ldr	r1, [r3, r2]
  71 0030 228E     		ldrh	r2, [r4, #48]
  72 0032 5200     		lsls	r2, r2, #1
  73 0034 FFF7FEFF 		bl	lv_memcpy
  74              	.LVL7:
  75              	.LBB3:
 418:..\..\..\arduinoLCD\test\Pain Drain\libraries\lvgl\src\extra\widgets\keyboard/lv_keyboard.c **** 
 419:..\..\..\arduinoLCD\test\Pain Drain\libraries\lvgl\src\extra\widgets\keyboard/lv_keyboard.c ****         /*Remove all LV_BTNMATRIX_CTRL_POPOVER flags*/
 420:..\..\..\arduinoLCD\test\Pain Drain\libraries\lvgl\src\extra\widgets\keyboard/lv_keyboard.c ****         for(uint16_t i = 0; i < btnm->btn_cnt; i++) {
  76              		.loc 1 420 0
  77 0038 0023     		movs	r3, #0
  78 003a 07E0     		b	.L4
  79              	.LVL8:
  80              	.L5:
 421:..\..\..\arduinoLCD\test\Pain Drain\libraries\lvgl\src\extra\widgets\keyboard/lv_keyboard.c ****             ctrl_map[i] &= (~LV_BTNMATRIX_CTRL_POPOVER);
  81              		.loc 1 421 0 discriminator 3
  82 003c 5A00     		lsls	r2, r3, #1
  83 003e AA18     		adds	r2, r5, r2
  84 0040 1088     		ldrh	r0, [r2]
  85 0042 0949     		ldr	r1, .L6+4
  86 0044 0140     		ands	r1, r0
  87 0046 1180     		strh	r1, [r2]
 420:..\..\..\arduinoLCD\test\Pain Drain\libraries\lvgl\src\extra\widgets\keyboard/lv_keyboard.c ****             ctrl_map[i] &= (~LV_BTNMATRIX_CTRL_POPOVER);
  88              		.loc 1 420 0 discriminator 3
  89 0048 0133     		adds	r3, r3, #1
  90              	.LVL9:
  91 004a 9BB2     		uxth	r3, r3
ARM GAS  C:\Users\haske\AppData\Local\Temp\ccEGgQv3.s 			page 10


  92              	.LVL10:
  93              	.L4:
 420:..\..\..\arduinoLCD\test\Pain Drain\libraries\lvgl\src\extra\widgets\keyboard/lv_keyboard.c ****             ctrl_map[i] &= (~LV_BTNMATRIX_CTRL_POPOVER);
  94              		.loc 1 420 0 is_stmt 0 discriminator 1
  95 004c 228E     		ldrh	r2, [r4, #48]
  96 004e 9342     		cmp	r3, r2
  97 0050 F4D3     		bcc	.L5
  98              	.LBE3:
 422:..\..\..\arduinoLCD\test\Pain Drain\libraries\lvgl\src\extra\widgets\keyboard/lv_keyboard.c ****         }
 423:..\..\..\arduinoLCD\test\Pain Drain\libraries\lvgl\src\extra\widgets\keyboard/lv_keyboard.c **** 
 424:..\..\..\arduinoLCD\test\Pain Drain\libraries\lvgl\src\extra\widgets\keyboard/lv_keyboard.c ****         /*Apply new control map and clean up*/
 425:..\..\..\arduinoLCD\test\Pain Drain\libraries\lvgl\src\extra\widgets\keyboard/lv_keyboard.c ****         lv_btnmatrix_set_ctrl_map(obj, ctrl_map);
  99              		.loc 1 425 0 is_stmt 1
 100 0052 2900     		movs	r1, r5
 101 0054 2000     		movs	r0, r4
 102 0056 FFF7FEFF 		bl	lv_btnmatrix_set_ctrl_map
 103              	.LVL11:
 426:..\..\..\arduinoLCD\test\Pain Drain\libraries\lvgl\src\extra\widgets\keyboard/lv_keyboard.c ****         lv_mem_free(ctrl_map);
 104              		.loc 1 426 0
 105 005a 2800     		movs	r0, r5
 106 005c FFF7FEFF 		bl	lv_mem_free
 107              	.LVL12:
 108              	.L1:
 109              	.LBE2:
 427:..\..\..\arduinoLCD\test\Pain Drain\libraries\lvgl\src\extra\widgets\keyboard/lv_keyboard.c ****     }
 428:..\..\..\arduinoLCD\test\Pain Drain\libraries\lvgl\src\extra\widgets\keyboard/lv_keyboard.c **** }
 110              		.loc 1 428 0
 111              		@ sp needed
 112              	.LVL13:
 113 0060 70BD     		pop	{r4, r5, r6, pc}
 114              	.L7:
 115 0062 C046     		.align	2
 116              	.L6:
 117 0064 00000000 		.word	.LANCHOR0
 118 0068 FFFDFFFF 		.word	-513
 119              		.cfi_endproc
 120              	.LFE173:
 121              		.size	lv_keyboard_update_ctrl_map, .-lv_keyboard_update_ctrl_map
 122              		.section	.text.lv_keyboard_update_map,"ax",%progbits
 123              		.align	2
 124              		.code	16
 125              		.thumb_func
 126              		.type	lv_keyboard_update_map, %function
 127              	lv_keyboard_update_map:
 128              	.LFB172:
 395:..\..\..\arduinoLCD\test\Pain Drain\libraries\lvgl\src\extra\widgets\keyboard/lv_keyboard.c ****     lv_keyboard_t * keyboard = (lv_keyboard_t *)obj;
 129              		.loc 1 395 0
 130              		.cfi_startproc
 131              		@ args = 0, pretend = 0, frame = 0
 132              		@ frame_needed = 0, uses_anonymous_args = 0
 133              	.LVL14:
 134 0000 10B5     		push	{r4, lr}
 135              		.cfi_def_cfa_offset 8
 136              		.cfi_offset 4, -8
 137              		.cfi_offset 14, -4
 138 0002 0400     		movs	r4, r0
 139              	.LVL15:
ARM GAS  C:\Users\haske\AppData\Local\Temp\ccEGgQv3.s 			page 11


 397:..\..\..\arduinoLCD\test\Pain Drain\libraries\lvgl\src\extra\widgets\keyboard/lv_keyboard.c ****     lv_keyboard_update_ctrl_map(obj);
 140              		.loc 1 397 0
 141 0004 3C23     		movs	r3, #60
 142 0006 C35C     		ldrb	r3, [r0, r3]
 143 0008 9B00     		lsls	r3, r3, #2
 144 000a 044A     		ldr	r2, .L9
 145 000c D318     		adds	r3, r2, r3
 146 000e 596A     		ldr	r1, [r3, #36]
 147 0010 FFF7FEFF 		bl	lv_btnmatrix_set_map
 148              	.LVL16:
 398:..\..\..\arduinoLCD\test\Pain Drain\libraries\lvgl\src\extra\widgets\keyboard/lv_keyboard.c **** }
 149              		.loc 1 398 0
 150 0014 2000     		movs	r0, r4
 151 0016 FFF7FEFF 		bl	lv_keyboard_update_ctrl_map
 152              	.LVL17:
 399:..\..\..\arduinoLCD\test\Pain Drain\libraries\lvgl\src\extra\widgets\keyboard/lv_keyboard.c **** 
 153              		.loc 1 399 0
 154              		@ sp needed
 155              	.LVL18:
 156 001a 10BD     		pop	{r4, pc}
 157              	.L10:
 158              		.align	2
 159              	.L9:
 160 001c 00000000 		.word	.LANCHOR0
 161              		.cfi_endproc
 162              	.LFE172:
 163              		.size	lv_keyboard_update_map, .-lv_keyboard_update_map
 164              		.section	.text.lv_keyboard_constructor,"ax",%progbits
 165              		.align	2
 166              		.code	16
 167              		.thumb_func
 168              		.type	lv_keyboard_constructor, %function
 169              	lv_keyboard_constructor:
 170              	.LFB171:
 374:..\..\..\arduinoLCD\test\Pain Drain\libraries\lvgl\src\extra\widgets\keyboard/lv_keyboard.c ****     LV_UNUSED(class_p);
 171              		.loc 1 374 0
 172              		.cfi_startproc
 173              		@ args = 0, pretend = 0, frame = 0
 174              		@ frame_needed = 0, uses_anonymous_args = 0
 175              	.LVL19:
 176 0000 10B5     		push	{r4, lr}
 177              		.cfi_def_cfa_offset 8
 178              		.cfi_offset 4, -8
 179              		.cfi_offset 14, -4
 180 0002 0C00     		movs	r4, r1
 376:..\..\..\arduinoLCD\test\Pain Drain\libraries\lvgl\src\extra\widgets\keyboard/lv_keyboard.c **** 
 181              		.loc 1 376 0
 182 0004 0421     		movs	r1, #4
 183              	.LVL20:
 184 0006 2000     		movs	r0, r4
 185              	.LVL21:
 186 0008 FFF7FEFF 		bl	lv_obj_clear_flag
 187              	.LVL22:
 379:..\..\..\arduinoLCD\test\Pain Drain\libraries\lvgl\src\extra\widgets\keyboard/lv_keyboard.c ****     keyboard->mode       = LV_KEYBOARD_MODE_TEXT_LOWER;
 188              		.loc 1 379 0
 189 000c 0023     		movs	r3, #0
 190 000e A363     		str	r3, [r4, #56]
ARM GAS  C:\Users\haske\AppData\Local\Temp\ccEGgQv3.s 			page 12


 380:..\..\..\arduinoLCD\test\Pain Drain\libraries\lvgl\src\extra\widgets\keyboard/lv_keyboard.c ****     keyboard->popovers   = 0;
 191              		.loc 1 380 0
 192 0010 3C22     		movs	r2, #60
 193 0012 A354     		strb	r3, [r4, r2]
 381:..\..\..\arduinoLCD\test\Pain Drain\libraries\lvgl\src\extra\widgets\keyboard/lv_keyboard.c **** 
 194              		.loc 1 381 0
 195 0014 0132     		adds	r2, r2, #1
 196 0016 A35C     		ldrb	r3, [r4, r2]
 197 0018 0121     		movs	r1, #1
 198 001a 8B43     		bics	r3, r1
 199 001c A354     		strb	r3, [r4, r2]
 383:..\..\..\arduinoLCD\test\Pain Drain\libraries\lvgl\src\extra\widgets\keyboard/lv_keyboard.c ****     lv_obj_add_event_cb(obj, lv_keyboard_def_event_cb, LV_EVENT_VALUE_CHANGED, NULL);
 200              		.loc 1 383 0
 201 001e 0023     		movs	r3, #0
 202 0020 0022     		movs	r2, #0
 203 0022 0431     		adds	r1, r1, #4
 204 0024 2000     		movs	r0, r4
 205 0026 FFF7FEFF 		bl	lv_obj_align
 206              	.LVL23:
 384:..\..\..\arduinoLCD\test\Pain Drain\libraries\lvgl\src\extra\widgets\keyboard/lv_keyboard.c ****     lv_obj_set_style_base_dir(obj, LV_BASE_DIR_LTR, 0);
 207              		.loc 1 384 0
 208 002a 0023     		movs	r3, #0
 209 002c 1C22     		movs	r2, #28
 210 002e 0649     		ldr	r1, .L12
 211 0030 2000     		movs	r0, r4
 212 0032 FFF7FEFF 		bl	lv_obj_add_event_cb
 213              	.LVL24:
 385:..\..\..\arduinoLCD\test\Pain Drain\libraries\lvgl\src\extra\widgets\keyboard/lv_keyboard.c **** 
 214              		.loc 1 385 0
 215 0036 0022     		movs	r2, #0
 216 0038 0021     		movs	r1, #0
 217 003a 2000     		movs	r0, r4
 218 003c FFF7FEFF 		bl	lv_obj_set_style_base_dir
 219              	.LVL25:
 387:..\..\..\arduinoLCD\test\Pain Drain\libraries\lvgl\src\extra\widgets\keyboard/lv_keyboard.c **** }
 220              		.loc 1 387 0
 221 0040 2000     		movs	r0, r4
 222 0042 FFF7FEFF 		bl	lv_keyboard_update_map
 223              	.LVL26:
 388:..\..\..\arduinoLCD\test\Pain Drain\libraries\lvgl\src\extra\widgets\keyboard/lv_keyboard.c **** 
 224              		.loc 1 388 0
 225              		@ sp needed
 226              	.LVL27:
 227 0046 10BD     		pop	{r4, pc}
 228              	.L13:
 229              		.align	2
 230              	.L12:
 231 0048 00000000 		.word	lv_keyboard_def_event_cb
 232              		.cfi_endproc
 233              	.LFE171:
 234              		.size	lv_keyboard_constructor, .-lv_keyboard_constructor
 235              		.section	.text.lv_keyboard_def_event_cb,"ax",%progbits
 236              		.align	2
 237              		.global	lv_keyboard_def_event_cb
 238              		.code	16
 239              		.thumb_func
 240              		.type	lv_keyboard_def_event_cb, %function
ARM GAS  C:\Users\haske\AppData\Local\Temp\ccEGgQv3.s 			page 13


 241              	lv_keyboard_def_event_cb:
 242              	.LFB170:
 274:..\..\..\arduinoLCD\test\Pain Drain\libraries\lvgl\src\extra\widgets\keyboard/lv_keyboard.c ****     lv_obj_t * obj = lv_event_get_target(e);
 243              		.loc 1 274 0
 244              		.cfi_startproc
 245              		@ args = 0, pretend = 0, frame = 0
 246              		@ frame_needed = 0, uses_anonymous_args = 0
 247              	.LVL28:
 248 0000 70B5     		push	{r4, r5, r6, lr}
 249              		.cfi_def_cfa_offset 16
 250              		.cfi_offset 4, -16
 251              		.cfi_offset 5, -12
 252              		.cfi_offset 6, -8
 253              		.cfi_offset 14, -4
 275:..\..\..\arduinoLCD\test\Pain Drain\libraries\lvgl\src\extra\widgets\keyboard/lv_keyboard.c **** 
 254              		.loc 1 275 0
 255 0002 FFF7FEFF 		bl	lv_event_get_target
 256              	.LVL29:
 257 0006 0400     		movs	r4, r0
 258              	.LVL30:
 279:..\..\..\arduinoLCD\test\Pain Drain\libraries\lvgl\src\extra\widgets\keyboard/lv_keyboard.c ****     if(btn_id == LV_BTNMATRIX_BTN_NONE) return;
 259              		.loc 1 279 0
 260 0008 FFF7FEFF 		bl	lv_btnmatrix_get_selected_btn
 261              	.LVL31:
 280:..\..\..\arduinoLCD\test\Pain Drain\libraries\lvgl\src\extra\widgets\keyboard/lv_keyboard.c **** 
 262              		.loc 1 280 0
 263 000c 7C4B     		ldr	r3, .L30
 264 000e 9842     		cmp	r0, r3
 265 0010 00D1     		bne	.LCB244
 266 0012 F4E0     		b	.L14	@long jump
 267              	.LCB244:
 282:..\..\..\arduinoLCD\test\Pain Drain\libraries\lvgl\src\extra\widgets\keyboard/lv_keyboard.c ****     if(txt == NULL) return;
 268              		.loc 1 282 0
 269 0014 2000     		movs	r0, r4
 270              	.LVL32:
 271 0016 FFF7FEFF 		bl	lv_btnmatrix_get_selected_btn
 272              	.LVL33:
 273 001a 0100     		movs	r1, r0
 274 001c 2000     		movs	r0, r4
 275 001e FFF7FEFF 		bl	lv_btnmatrix_get_btn_text
 276              	.LVL34:
 277 0022 051E     		subs	r5, r0, #0
 278              	.LVL35:
 283:..\..\..\arduinoLCD\test\Pain Drain\libraries\lvgl\src\extra\widgets\keyboard/lv_keyboard.c **** 
 279              		.loc 1 283 0
 280 0024 00D1     		bne	.LCB256
 281 0026 EAE0     		b	.L14	@long jump
 282              	.LCB256:
 285:..\..\..\arduinoLCD\test\Pain Drain\libraries\lvgl\src\extra\widgets\keyboard/lv_keyboard.c ****         keyboard->mode = LV_KEYBOARD_MODE_TEXT_LOWER;
 283              		.loc 1 285 0
 284 0028 7649     		ldr	r1, .L30+4
 285 002a FFF7FEFF 		bl	strcmp
 286              	.LVL36:
 287 002e 0028     		cmp	r0, #0
 288 0030 0BD1     		bne	.L16
 286:..\..\..\arduinoLCD\test\Pain Drain\libraries\lvgl\src\extra\widgets\keyboard/lv_keyboard.c ****         lv_btnmatrix_set_map(obj, kb_map[LV_KEYBOARD_MODE_TEXT_LOWER]);
 289              		.loc 1 286 0
ARM GAS  C:\Users\haske\AppData\Local\Temp\ccEGgQv3.s 			page 14


 290 0032 0022     		movs	r2, #0
 291 0034 3C23     		movs	r3, #60
 292 0036 E254     		strb	r2, [r4, r3]
 287:..\..\..\arduinoLCD\test\Pain Drain\libraries\lvgl\src\extra\widgets\keyboard/lv_keyboard.c ****         lv_keyboard_update_ctrl_map(obj);
 293              		.loc 1 287 0
 294 0038 734B     		ldr	r3, .L30+8
 295 003a 596A     		ldr	r1, [r3, #36]
 296 003c 2000     		movs	r0, r4
 297 003e FFF7FEFF 		bl	lv_btnmatrix_set_map
 298              	.LVL37:
 288:..\..\..\arduinoLCD\test\Pain Drain\libraries\lvgl\src\extra\widgets\keyboard/lv_keyboard.c ****         return;
 299              		.loc 1 288 0
 300 0042 2000     		movs	r0, r4
 301 0044 FFF7FEFF 		bl	lv_keyboard_update_ctrl_map
 302              	.LVL38:
 289:..\..\..\arduinoLCD\test\Pain Drain\libraries\lvgl\src\extra\widgets\keyboard/lv_keyboard.c ****     }
 303              		.loc 1 289 0
 304 0048 D9E0     		b	.L14
 305              	.L16:
 291:..\..\..\arduinoLCD\test\Pain Drain\libraries\lvgl\src\extra\widgets\keyboard/lv_keyboard.c ****         keyboard->mode = LV_KEYBOARD_MODE_TEXT_UPPER;
 306              		.loc 1 291 0
 307 004a 7049     		ldr	r1, .L30+12
 308 004c 2800     		movs	r0, r5
 309 004e FFF7FEFF 		bl	strcmp
 310              	.LVL39:
 311 0052 0028     		cmp	r0, #0
 312 0054 0BD1     		bne	.L17
 292:..\..\..\arduinoLCD\test\Pain Drain\libraries\lvgl\src\extra\widgets\keyboard/lv_keyboard.c ****         lv_btnmatrix_set_map(obj, kb_map[LV_KEYBOARD_MODE_TEXT_UPPER]);
 313              		.loc 1 292 0
 314 0056 0122     		movs	r2, #1
 315 0058 3C23     		movs	r3, #60
 316 005a E254     		strb	r2, [r4, r3]
 293:..\..\..\arduinoLCD\test\Pain Drain\libraries\lvgl\src\extra\widgets\keyboard/lv_keyboard.c ****         lv_keyboard_update_ctrl_map(obj);
 317              		.loc 1 293 0
 318 005c 6A4B     		ldr	r3, .L30+8
 319 005e 996A     		ldr	r1, [r3, #40]
 320 0060 2000     		movs	r0, r4
 321 0062 FFF7FEFF 		bl	lv_btnmatrix_set_map
 322              	.LVL40:
 294:..\..\..\arduinoLCD\test\Pain Drain\libraries\lvgl\src\extra\widgets\keyboard/lv_keyboard.c ****         return;
 323              		.loc 1 294 0
 324 0066 2000     		movs	r0, r4
 325 0068 FFF7FEFF 		bl	lv_keyboard_update_ctrl_map
 326              	.LVL41:
 295:..\..\..\arduinoLCD\test\Pain Drain\libraries\lvgl\src\extra\widgets\keyboard/lv_keyboard.c ****     }
 327              		.loc 1 295 0
 328 006c C7E0     		b	.L14
 329              	.L17:
 297:..\..\..\arduinoLCD\test\Pain Drain\libraries\lvgl\src\extra\widgets\keyboard/lv_keyboard.c ****         keyboard->mode = LV_KEYBOARD_MODE_SPECIAL;
 330              		.loc 1 297 0
 331 006e 6849     		ldr	r1, .L30+16
 332 0070 2800     		movs	r0, r5
 333 0072 FFF7FEFF 		bl	strcmp
 334              	.LVL42:
 335 0076 0028     		cmp	r0, #0
 336 0078 0BD1     		bne	.L18
 298:..\..\..\arduinoLCD\test\Pain Drain\libraries\lvgl\src\extra\widgets\keyboard/lv_keyboard.c ****         lv_btnmatrix_set_map(obj, kb_map[LV_KEYBOARD_MODE_SPECIAL]);
ARM GAS  C:\Users\haske\AppData\Local\Temp\ccEGgQv3.s 			page 15


 337              		.loc 1 298 0
 338 007a 0222     		movs	r2, #2
 339 007c 3C23     		movs	r3, #60
 340 007e E254     		strb	r2, [r4, r3]
 299:..\..\..\arduinoLCD\test\Pain Drain\libraries\lvgl\src\extra\widgets\keyboard/lv_keyboard.c ****         lv_keyboard_update_ctrl_map(obj);
 341              		.loc 1 299 0
 342 0080 614B     		ldr	r3, .L30+8
 343 0082 D96A     		ldr	r1, [r3, #44]
 344 0084 2000     		movs	r0, r4
 345 0086 FFF7FEFF 		bl	lv_btnmatrix_set_map
 346              	.LVL43:
 300:..\..\..\arduinoLCD\test\Pain Drain\libraries\lvgl\src\extra\widgets\keyboard/lv_keyboard.c ****         return;
 347              		.loc 1 300 0
 348 008a 2000     		movs	r0, r4
 349 008c FFF7FEFF 		bl	lv_keyboard_update_ctrl_map
 350              	.LVL44:
 301:..\..\..\arduinoLCD\test\Pain Drain\libraries\lvgl\src\extra\widgets\keyboard/lv_keyboard.c ****     }
 351              		.loc 1 301 0
 352 0090 B5E0     		b	.L14
 353              	.L18:
 303:..\..\..\arduinoLCD\test\Pain Drain\libraries\lvgl\src\extra\widgets\keyboard/lv_keyboard.c ****         lv_res_t res = lv_event_send(obj, LV_EVENT_CANCEL, NULL);
 354              		.loc 1 303 0
 355 0092 6049     		ldr	r1, .L30+20
 356 0094 2800     		movs	r0, r5
 357 0096 FFF7FEFF 		bl	strcmp
 358              	.LVL45:
 359 009a 0028     		cmp	r0, #0
 360 009c 05D0     		beq	.L19
 303:..\..\..\arduinoLCD\test\Pain Drain\libraries\lvgl\src\extra\widgets\keyboard/lv_keyboard.c ****         lv_res_t res = lv_event_send(obj, LV_EVENT_CANCEL, NULL);
 361              		.loc 1 303 0 is_stmt 0 discriminator 1
 362 009e 5E49     		ldr	r1, .L30+24
 363 00a0 2800     		movs	r0, r5
 364 00a2 FFF7FEFF 		bl	strcmp
 365              	.LVL46:
 366 00a6 0028     		cmp	r0, #0
 367 00a8 10D1     		bne	.L20
 368              	.L19:
 369              	.LBB4:
 304:..\..\..\arduinoLCD\test\Pain Drain\libraries\lvgl\src\extra\widgets\keyboard/lv_keyboard.c ****         if(res != LV_RES_OK) return;
 370              		.loc 1 304 0 is_stmt 1
 371 00aa 0022     		movs	r2, #0
 372 00ac 2021     		movs	r1, #32
 373 00ae 2000     		movs	r0, r4
 374 00b0 FFF7FEFF 		bl	lv_event_send
 375              	.LVL47:
 305:..\..\..\arduinoLCD\test\Pain Drain\libraries\lvgl\src\extra\widgets\keyboard/lv_keyboard.c **** 
 376              		.loc 1 305 0
 377 00b4 0128     		cmp	r0, #1
 378 00b6 00D0     		beq	.LCB345
 379 00b8 A1E0     		b	.L14	@long jump
 380              	.LCB345:
 307:..\..\..\arduinoLCD\test\Pain Drain\libraries\lvgl\src\extra\widgets\keyboard/lv_keyboard.c ****             res = lv_event_send(keyboard->ta, LV_EVENT_CANCEL, NULL);
 381              		.loc 1 307 0
 382 00ba A06B     		ldr	r0, [r4, #56]
 383              	.LVL48:
 384 00bc 0028     		cmp	r0, #0
 385 00be 00D1     		bne	.LCB349
ARM GAS  C:\Users\haske\AppData\Local\Temp\ccEGgQv3.s 			page 16


 386 00c0 9DE0     		b	.L14	@long jump
 387              	.LCB349:
 308:..\..\..\arduinoLCD\test\Pain Drain\libraries\lvgl\src\extra\widgets\keyboard/lv_keyboard.c ****             if(res != LV_RES_OK) return;
 388              		.loc 1 308 0
 389 00c2 0022     		movs	r2, #0
 390 00c4 2021     		movs	r1, #32
 391 00c6 FFF7FEFF 		bl	lv_event_send
 392              	.LVL49:
 393 00ca 98E0     		b	.L14
 394              	.L20:
 395              	.LBE4:
 313:..\..\..\arduinoLCD\test\Pain Drain\libraries\lvgl\src\extra\widgets\keyboard/lv_keyboard.c ****         lv_res_t res = lv_event_send(obj, LV_EVENT_READY, NULL);
 396              		.loc 1 313 0
 397 00cc 5349     		ldr	r1, .L30+28
 398 00ce 2800     		movs	r0, r5
 399 00d0 FFF7FEFF 		bl	strcmp
 400              	.LVL50:
 401 00d4 0028     		cmp	r0, #0
 402 00d6 10D1     		bne	.L21
 403              	.LBB5:
 314:..\..\..\arduinoLCD\test\Pain Drain\libraries\lvgl\src\extra\widgets\keyboard/lv_keyboard.c ****         if(res != LV_RES_OK) return;
 404              		.loc 1 314 0
 405 00d8 0022     		movs	r2, #0
 406 00da 1F21     		movs	r1, #31
 407 00dc 2000     		movs	r0, r4
 408 00de FFF7FEFF 		bl	lv_event_send
 409              	.LVL51:
 315:..\..\..\arduinoLCD\test\Pain Drain\libraries\lvgl\src\extra\widgets\keyboard/lv_keyboard.c **** 
 410              		.loc 1 315 0
 411 00e2 0128     		cmp	r0, #1
 412 00e4 00D0     		beq	.LCB376
 413 00e6 8AE0     		b	.L14	@long jump
 414              	.LCB376:
 317:..\..\..\arduinoLCD\test\Pain Drain\libraries\lvgl\src\extra\widgets\keyboard/lv_keyboard.c ****             res = lv_event_send(keyboard->ta, LV_EVENT_READY, NULL);
 415              		.loc 1 317 0
 416 00e8 A06B     		ldr	r0, [r4, #56]
 417              	.LVL52:
 418 00ea 0028     		cmp	r0, #0
 419 00ec 00D1     		bne	.LCB380
 420 00ee 86E0     		b	.L14	@long jump
 421              	.LCB380:
 318:..\..\..\arduinoLCD\test\Pain Drain\libraries\lvgl\src\extra\widgets\keyboard/lv_keyboard.c ****             if(res != LV_RES_OK) return;
 422              		.loc 1 318 0
 423 00f0 0022     		movs	r2, #0
 424 00f2 1F21     		movs	r1, #31
 425 00f4 FFF7FEFF 		bl	lv_event_send
 426              	.LVL53:
 427 00f8 81E0     		b	.L14
 428              	.L21:
 429              	.LBE5:
 325:..\..\..\arduinoLCD\test\Pain Drain\libraries\lvgl\src\extra\widgets\keyboard/lv_keyboard.c **** 
 430              		.loc 1 325 0
 431 00fa A66B     		ldr	r6, [r4, #56]
 432 00fc 002E     		cmp	r6, #0
 433 00fe 7ED0     		beq	.L14
 327:..\..\..\arduinoLCD\test\Pain Drain\libraries\lvgl\src\extra\widgets\keyboard/lv_keyboard.c ****         lv_textarea_add_char(keyboard->ta, '\n');
 434              		.loc 1 327 0
ARM GAS  C:\Users\haske\AppData\Local\Temp\ccEGgQv3.s 			page 17


 435 0100 4749     		ldr	r1, .L30+32
 436 0102 2800     		movs	r0, r5
 437 0104 FFF7FEFF 		bl	strcmp
 438              	.LVL54:
 439 0108 0028     		cmp	r0, #0
 440 010a 05D0     		beq	.L22
 327:..\..\..\arduinoLCD\test\Pain Drain\libraries\lvgl\src\extra\widgets\keyboard/lv_keyboard.c ****         lv_textarea_add_char(keyboard->ta, '\n');
 441              		.loc 1 327 0 is_stmt 0 discriminator 1
 442 010c 4549     		ldr	r1, .L30+36
 443 010e 2800     		movs	r0, r5
 444 0110 FFF7FEFF 		bl	strcmp
 445              	.LVL55:
 446 0114 0028     		cmp	r0, #0
 447 0116 0ED1     		bne	.L23
 448              	.L22:
 328:..\..\..\arduinoLCD\test\Pain Drain\libraries\lvgl\src\extra\widgets\keyboard/lv_keyboard.c ****         if(lv_textarea_get_one_line(keyboard->ta)) {
 449              		.loc 1 328 0 is_stmt 1
 450 0118 0A21     		movs	r1, #10
 451 011a 3000     		movs	r0, r6
 452 011c FFF7FEFF 		bl	lv_textarea_add_char
 453              	.LVL56:
 329:..\..\..\arduinoLCD\test\Pain Drain\libraries\lvgl\src\extra\widgets\keyboard/lv_keyboard.c ****             lv_res_t res = lv_event_send(keyboard->ta, LV_EVENT_READY, NULL);
 454              		.loc 1 329 0
 455 0120 A06B     		ldr	r0, [r4, #56]
 456 0122 FFF7FEFF 		bl	lv_textarea_get_one_line
 457              	.LVL57:
 458 0126 0028     		cmp	r0, #0
 459 0128 69D0     		beq	.L14
 460              	.LBB6:
 330:..\..\..\arduinoLCD\test\Pain Drain\libraries\lvgl\src\extra\widgets\keyboard/lv_keyboard.c ****             if(res != LV_RES_OK) return;
 461              		.loc 1 330 0
 462 012a A06B     		ldr	r0, [r4, #56]
 463 012c 0022     		movs	r2, #0
 464 012e 1F21     		movs	r1, #31
 465 0130 FFF7FEFF 		bl	lv_event_send
 466              	.LVL58:
 467 0134 63E0     		b	.L14
 468              	.L23:
 469              	.LBE6:
 334:..\..\..\arduinoLCD\test\Pain Drain\libraries\lvgl\src\extra\widgets\keyboard/lv_keyboard.c ****         lv_textarea_cursor_left(keyboard->ta);
 470              		.loc 1 334 0
 471 0136 3C49     		ldr	r1, .L30+40
 472 0138 2800     		movs	r0, r5
 473 013a FFF7FEFF 		bl	strcmp
 474              	.LVL59:
 475 013e 0028     		cmp	r0, #0
 476 0140 03D1     		bne	.L24
 335:..\..\..\arduinoLCD\test\Pain Drain\libraries\lvgl\src\extra\widgets\keyboard/lv_keyboard.c ****     }
 477              		.loc 1 335 0
 478 0142 3000     		movs	r0, r6
 479 0144 FFF7FEFF 		bl	lv_textarea_cursor_left
 480              	.LVL60:
 481 0148 59E0     		b	.L14
 482              	.L24:
 337:..\..\..\arduinoLCD\test\Pain Drain\libraries\lvgl\src\extra\widgets\keyboard/lv_keyboard.c ****         lv_textarea_cursor_right(keyboard->ta);
 483              		.loc 1 337 0
 484 014a 3849     		ldr	r1, .L30+44
ARM GAS  C:\Users\haske\AppData\Local\Temp\ccEGgQv3.s 			page 18


 485 014c 2800     		movs	r0, r5
 486 014e FFF7FEFF 		bl	strcmp
 487              	.LVL61:
 488 0152 0028     		cmp	r0, #0
 489 0154 03D1     		bne	.L25
 338:..\..\..\arduinoLCD\test\Pain Drain\libraries\lvgl\src\extra\widgets\keyboard/lv_keyboard.c ****     }
 490              		.loc 1 338 0
 491 0156 3000     		movs	r0, r6
 492 0158 FFF7FEFF 		bl	lv_textarea_cursor_right
 493              	.LVL62:
 494 015c 4FE0     		b	.L14
 495              	.L25:
 340:..\..\..\arduinoLCD\test\Pain Drain\libraries\lvgl\src\extra\widgets\keyboard/lv_keyboard.c ****         lv_textarea_del_char(keyboard->ta);
 496              		.loc 1 340 0
 497 015e 3449     		ldr	r1, .L30+48
 498 0160 2800     		movs	r0, r5
 499 0162 FFF7FEFF 		bl	strcmp
 500              	.LVL63:
 501 0166 0028     		cmp	r0, #0
 502 0168 03D1     		bne	.L26
 341:..\..\..\arduinoLCD\test\Pain Drain\libraries\lvgl\src\extra\widgets\keyboard/lv_keyboard.c ****     }
 503              		.loc 1 341 0
 504 016a 3000     		movs	r0, r6
 505 016c FFF7FEFF 		bl	lv_textarea_del_char
 506              	.LVL64:
 507 0170 45E0     		b	.L14
 508              	.L26:
 343:..\..\..\arduinoLCD\test\Pain Drain\libraries\lvgl\src\extra\widgets\keyboard/lv_keyboard.c ****         uint16_t cur        = lv_textarea_get_cursor_pos(keyboard->ta);
 509              		.loc 1 343 0
 510 0172 3049     		ldr	r1, .L30+52
 511 0174 2800     		movs	r0, r5
 512 0176 FFF7FEFF 		bl	strcmp
 513              	.LVL65:
 514 017a 0028     		cmp	r0, #0
 515 017c 3BD1     		bne	.L27
 516              	.LBB7:
 344:..\..\..\arduinoLCD\test\Pain Drain\libraries\lvgl\src\extra\widgets\keyboard/lv_keyboard.c ****         const char * ta_txt = lv_textarea_get_text(keyboard->ta);
 517              		.loc 1 344 0
 518 017e 3000     		movs	r0, r6
 519 0180 FFF7FEFF 		bl	lv_textarea_get_cursor_pos
 520              	.LVL66:
 521 0184 0500     		movs	r5, r0
 522              	.LVL67:
 345:..\..\..\arduinoLCD\test\Pain Drain\libraries\lvgl\src\extra\widgets\keyboard/lv_keyboard.c ****         if(ta_txt[0] == '-') {
 523              		.loc 1 345 0
 524 0186 A06B     		ldr	r0, [r4, #56]
 525 0188 FFF7FEFF 		bl	lv_textarea_get_text
 526              	.LVL68:
 346:..\..\..\arduinoLCD\test\Pain Drain\libraries\lvgl\src\extra\widgets\keyboard/lv_keyboard.c ****             lv_textarea_set_cursor_pos(keyboard->ta, 1);
 527              		.loc 1 346 0
 528 018c 0378     		ldrb	r3, [r0]
 529 018e 2D2B     		cmp	r3, #45
 530 0190 0FD1     		bne	.L28
 347:..\..\..\arduinoLCD\test\Pain Drain\libraries\lvgl\src\extra\widgets\keyboard/lv_keyboard.c ****             lv_textarea_del_char(keyboard->ta);
 531              		.loc 1 347 0
 532 0192 0121     		movs	r1, #1
 533 0194 A06B     		ldr	r0, [r4, #56]
ARM GAS  C:\Users\haske\AppData\Local\Temp\ccEGgQv3.s 			page 19


 534              	.LVL69:
 535 0196 FFF7FEFF 		bl	lv_textarea_set_cursor_pos
 536              	.LVL70:
 348:..\..\..\arduinoLCD\test\Pain Drain\libraries\lvgl\src\extra\widgets\keyboard/lv_keyboard.c ****             lv_textarea_add_char(keyboard->ta, '+');
 537              		.loc 1 348 0
 538 019a A06B     		ldr	r0, [r4, #56]
 539 019c FFF7FEFF 		bl	lv_textarea_del_char
 540              	.LVL71:
 349:..\..\..\arduinoLCD\test\Pain Drain\libraries\lvgl\src\extra\widgets\keyboard/lv_keyboard.c ****             lv_textarea_set_cursor_pos(keyboard->ta, cur);
 541              		.loc 1 349 0
 542 01a0 2B21     		movs	r1, #43
 543 01a2 A06B     		ldr	r0, [r4, #56]
 544 01a4 FFF7FEFF 		bl	lv_textarea_add_char
 545              	.LVL72:
 350:..\..\..\arduinoLCD\test\Pain Drain\libraries\lvgl\src\extra\widgets\keyboard/lv_keyboard.c ****         }
 546              		.loc 1 350 0
 547 01a8 A9B2     		uxth	r1, r5
 548 01aa A06B     		ldr	r0, [r4, #56]
 549 01ac FFF7FEFF 		bl	lv_textarea_set_cursor_pos
 550              	.LVL73:
 551 01b0 25E0     		b	.L14
 552              	.LVL74:
 553              	.L28:
 352:..\..\..\arduinoLCD\test\Pain Drain\libraries\lvgl\src\extra\widgets\keyboard/lv_keyboard.c ****             lv_textarea_set_cursor_pos(keyboard->ta, 1);
 554              		.loc 1 352 0
 555 01b2 2B2B     		cmp	r3, #43
 556 01b4 10D1     		bne	.L29
 353:..\..\..\arduinoLCD\test\Pain Drain\libraries\lvgl\src\extra\widgets\keyboard/lv_keyboard.c ****             lv_textarea_del_char(keyboard->ta);
 557              		.loc 1 353 0
 558 01b6 0121     		movs	r1, #1
 559 01b8 A06B     		ldr	r0, [r4, #56]
 560              	.LVL75:
 561 01ba FFF7FEFF 		bl	lv_textarea_set_cursor_pos
 562              	.LVL76:
 354:..\..\..\arduinoLCD\test\Pain Drain\libraries\lvgl\src\extra\widgets\keyboard/lv_keyboard.c ****             lv_textarea_add_char(keyboard->ta, '-');
 563              		.loc 1 354 0
 564 01be A06B     		ldr	r0, [r4, #56]
 565 01c0 FFF7FEFF 		bl	lv_textarea_del_char
 566              	.LVL77:
 355:..\..\..\arduinoLCD\test\Pain Drain\libraries\lvgl\src\extra\widgets\keyboard/lv_keyboard.c ****             lv_textarea_set_cursor_pos(keyboard->ta, cur);
 567              		.loc 1 355 0
 568 01c4 2D21     		movs	r1, #45
 569 01c6 A06B     		ldr	r0, [r4, #56]
 570 01c8 FFF7FEFF 		bl	lv_textarea_add_char
 571              	.LVL78:
 356:..\..\..\arduinoLCD\test\Pain Drain\libraries\lvgl\src\extra\widgets\keyboard/lv_keyboard.c ****         }
 572              		.loc 1 356 0
 573 01cc 2904     		lsls	r1, r5, #16
 574 01ce 090C     		lsrs	r1, r1, #16
 575 01d0 A06B     		ldr	r0, [r4, #56]
 576 01d2 FFF7FEFF 		bl	lv_textarea_set_cursor_pos
 577              	.LVL79:
 578 01d6 12E0     		b	.L14
 579              	.LVL80:
 580              	.L29:
 359:..\..\..\arduinoLCD\test\Pain Drain\libraries\lvgl\src\extra\widgets\keyboard/lv_keyboard.c ****             lv_textarea_add_char(keyboard->ta, '-');
 581              		.loc 1 359 0
ARM GAS  C:\Users\haske\AppData\Local\Temp\ccEGgQv3.s 			page 20


 582 01d8 0021     		movs	r1, #0
 583 01da A06B     		ldr	r0, [r4, #56]
 584              	.LVL81:
 585 01dc FFF7FEFF 		bl	lv_textarea_set_cursor_pos
 586              	.LVL82:
 360:..\..\..\arduinoLCD\test\Pain Drain\libraries\lvgl\src\extra\widgets\keyboard/lv_keyboard.c ****             lv_textarea_set_cursor_pos(keyboard->ta, cur + 1);
 587              		.loc 1 360 0
 588 01e0 2D21     		movs	r1, #45
 589 01e2 A06B     		ldr	r0, [r4, #56]
 590 01e4 FFF7FEFF 		bl	lv_textarea_add_char
 591              	.LVL83:
 361:..\..\..\arduinoLCD\test\Pain Drain\libraries\lvgl\src\extra\widgets\keyboard/lv_keyboard.c ****         }
 592              		.loc 1 361 0
 593 01e8 2904     		lsls	r1, r5, #16
 594 01ea 090C     		lsrs	r1, r1, #16
 595 01ec 0131     		adds	r1, r1, #1
 596 01ee A06B     		ldr	r0, [r4, #56]
 597 01f0 FFF7FEFF 		bl	lv_textarea_set_cursor_pos
 598              	.LVL84:
 599 01f4 03E0     		b	.L14
 600              	.LVL85:
 601              	.L27:
 602              	.LBE7:
 365:..\..\..\arduinoLCD\test\Pain Drain\libraries\lvgl\src\extra\widgets\keyboard/lv_keyboard.c ****     }
 603              		.loc 1 365 0
 604 01f6 2900     		movs	r1, r5
 605 01f8 3000     		movs	r0, r6
 606 01fa FFF7FEFF 		bl	lv_textarea_add_text
 607              	.LVL86:
 608              	.L14:
 367:..\..\..\arduinoLCD\test\Pain Drain\libraries\lvgl\src\extra\widgets\keyboard/lv_keyboard.c **** 
 609              		.loc 1 367 0
 610              		@ sp needed
 611              	.LVL87:
 612 01fe 70BD     		pop	{r4, r5, r6, pc}
 613              	.L31:
 614              		.align	2
 615              	.L30:
 616 0200 FFFF0000 		.word	65535
 617 0204 00000000 		.word	.LC3
 618 0208 00000000 		.word	.LANCHOR0
 619 020c 04000000 		.word	.LC6
 620 0210 08000000 		.word	.LC8
 621 0214 0C000000 		.word	.LC10
 622 0218 10000000 		.word	.LC12
 623 021c 14000000 		.word	.LC14
 624 0220 18000000 		.word	.LC16
 625 0224 20000000 		.word	.LC18
 626 0228 24000000 		.word	.LC20
 627 022c 28000000 		.word	.LC22
 628 0230 2C000000 		.word	.LC24
 629 0234 30000000 		.word	.LC26
 630              		.cfi_endproc
 631              	.LFE170:
 632              		.size	lv_keyboard_def_event_cb, .-lv_keyboard_def_event_cb
 633              		.section	.text.lv_keyboard_create,"ax",%progbits
 634              		.align	2
ARM GAS  C:\Users\haske\AppData\Local\Temp\ccEGgQv3.s 			page 21


 635              		.global	lv_keyboard_create
 636              		.code	16
 637              		.thumb_func
 638              		.type	lv_keyboard_create, %function
 639              	lv_keyboard_create:
 640              	.LFB162:
 138:..\..\..\arduinoLCD\test\Pain Drain\libraries\lvgl\src\extra\widgets\keyboard/lv_keyboard.c ****     LV_LOG_INFO("begin");
 641              		.loc 1 138 0
 642              		.cfi_startproc
 643              		@ args = 0, pretend = 0, frame = 0
 644              		@ frame_needed = 0, uses_anonymous_args = 0
 645              	.LVL88:
 646 0000 10B5     		push	{r4, lr}
 647              		.cfi_def_cfa_offset 8
 648              		.cfi_offset 4, -8
 649              		.cfi_offset 14, -4
 650 0002 0100     		movs	r1, r0
 140:..\..\..\arduinoLCD\test\Pain Drain\libraries\lvgl\src\extra\widgets\keyboard/lv_keyboard.c ****     lv_obj_class_init_obj(obj);
 651              		.loc 1 140 0
 652 0004 0348     		ldr	r0, .L33
 653              	.LVL89:
 654 0006 FFF7FEFF 		bl	lv_obj_class_create_obj
 655              	.LVL90:
 656 000a 0400     		movs	r4, r0
 657              	.LVL91:
 141:..\..\..\arduinoLCD\test\Pain Drain\libraries\lvgl\src\extra\widgets\keyboard/lv_keyboard.c ****     return obj;
 658              		.loc 1 141 0
 659 000c FFF7FEFF 		bl	lv_obj_class_init_obj
 660              	.LVL92:
 143:..\..\..\arduinoLCD\test\Pain Drain\libraries\lvgl\src\extra\widgets\keyboard/lv_keyboard.c **** 
 661              		.loc 1 143 0
 662 0010 2000     		movs	r0, r4
 663              		@ sp needed
 664              	.LVL93:
 665 0012 10BD     		pop	{r4, pc}
 666              	.L34:
 667              		.align	2
 668              	.L33:
 669 0014 00000000 		.word	.LANCHOR1
 670              		.cfi_endproc
 671              	.LFE162:
 672              		.size	lv_keyboard_create, .-lv_keyboard_create
 673              		.section	.text.lv_keyboard_set_textarea,"ax",%progbits
 674              		.align	2
 675              		.global	lv_keyboard_set_textarea
 676              		.code	16
 677              		.thumb_func
 678              		.type	lv_keyboard_set_textarea, %function
 679              	lv_keyboard_set_textarea:
 680              	.LFB163:
 155:..\..\..\arduinoLCD\test\Pain Drain\libraries\lvgl\src\extra\widgets\keyboard/lv_keyboard.c ****     if(ta) {
 681              		.loc 1 155 0
 682              		.cfi_startproc
 683              		@ args = 0, pretend = 0, frame = 0
 684              		@ frame_needed = 0, uses_anonymous_args = 0
 685              	.LVL94:
 686 0000 70B5     		push	{r4, r5, r6, lr}
ARM GAS  C:\Users\haske\AppData\Local\Temp\ccEGgQv3.s 			page 22


 687              		.cfi_def_cfa_offset 16
 688              		.cfi_offset 4, -16
 689              		.cfi_offset 5, -12
 690              		.cfi_offset 6, -8
 691              		.cfi_offset 14, -4
 692 0002 0400     		movs	r4, r0
 693 0004 0D00     		movs	r5, r1
 694              	.LVL95:
 164:..\..\..\arduinoLCD\test\Pain Drain\libraries\lvgl\src\extra\widgets\keyboard/lv_keyboard.c ****         lv_obj_clear_state(obj, LV_STATE_FOCUSED);
 695              		.loc 1 164 0
 696 0006 836B     		ldr	r3, [r0, #56]
 697 0008 002B     		cmp	r3, #0
 698 000a 02D0     		beq	.L36
 165:..\..\..\arduinoLCD\test\Pain Drain\libraries\lvgl\src\extra\widgets\keyboard/lv_keyboard.c ****     }
 699              		.loc 1 165 0
 700 000c 0221     		movs	r1, #2
 701              	.LVL96:
 702 000e FFF7FEFF 		bl	lv_obj_clear_state
 703              	.LVL97:
 704              	.L36:
 168:..\..\..\arduinoLCD\test\Pain Drain\libraries\lvgl\src\extra\widgets\keyboard/lv_keyboard.c **** 
 705              		.loc 1 168 0
 706 0012 A563     		str	r5, [r4, #56]
 171:..\..\..\arduinoLCD\test\Pain Drain\libraries\lvgl\src\extra\widgets\keyboard/lv_keyboard.c ****         lv_obj_add_flag(obj, LV_STATE_FOCUSED);
 707              		.loc 1 171 0
 708 0014 002D     		cmp	r5, #0
 709 0016 03D0     		beq	.L35
 172:..\..\..\arduinoLCD\test\Pain Drain\libraries\lvgl\src\extra\widgets\keyboard/lv_keyboard.c ****     }
 710              		.loc 1 172 0
 711 0018 0221     		movs	r1, #2
 712 001a 2000     		movs	r0, r4
 713 001c FFF7FEFF 		bl	lv_obj_add_flag
 714              	.LVL98:
 715              	.L35:
 174:..\..\..\arduinoLCD\test\Pain Drain\libraries\lvgl\src\extra\widgets\keyboard/lv_keyboard.c **** 
 716              		.loc 1 174 0
 717              		@ sp needed
 718              	.LVL99:
 719              	.LVL100:
 720 0020 70BD     		pop	{r4, r5, r6, pc}
 721              		.cfi_endproc
 722              	.LFE163:
 723              		.size	lv_keyboard_set_textarea, .-lv_keyboard_set_textarea
 724 0022 C046     		.section	.text.lv_keyboard_set_mode,"ax",%progbits
 725              		.align	2
 726              		.global	lv_keyboard_set_mode
 727              		.code	16
 728              		.thumb_func
 729              		.type	lv_keyboard_set_mode, %function
 730              	lv_keyboard_set_mode:
 731              	.LFB164:
 182:..\..\..\arduinoLCD\test\Pain Drain\libraries\lvgl\src\extra\widgets\keyboard/lv_keyboard.c ****     LV_ASSERT_OBJ(obj, MY_CLASS);
 732              		.loc 1 182 0
 733              		.cfi_startproc
 734              		@ args = 0, pretend = 0, frame = 0
 735              		@ frame_needed = 0, uses_anonymous_args = 0
 736              	.LVL101:
ARM GAS  C:\Users\haske\AppData\Local\Temp\ccEGgQv3.s 			page 23


 737 0000 10B5     		push	{r4, lr}
 738              		.cfi_def_cfa_offset 8
 739              		.cfi_offset 4, -8
 740              		.cfi_offset 14, -4
 741              	.LVL102:
 185:..\..\..\arduinoLCD\test\Pain Drain\libraries\lvgl\src\extra\widgets\keyboard/lv_keyboard.c **** 
 742              		.loc 1 185 0
 743 0002 3C23     		movs	r3, #60
 744 0004 C35C     		ldrb	r3, [r0, r3]
 745 0006 8B42     		cmp	r3, r1
 746 0008 03D0     		beq	.L38
 187:..\..\..\arduinoLCD\test\Pain Drain\libraries\lvgl\src\extra\widgets\keyboard/lv_keyboard.c ****     lv_keyboard_update_map(obj);
 747              		.loc 1 187 0
 748 000a 3C23     		movs	r3, #60
 749 000c C154     		strb	r1, [r0, r3]
 188:..\..\..\arduinoLCD\test\Pain Drain\libraries\lvgl\src\extra\widgets\keyboard/lv_keyboard.c **** }
 750              		.loc 1 188 0
 751 000e FFF7FEFF 		bl	lv_keyboard_update_map
 752              	.LVL103:
 753              	.L38:
 189:..\..\..\arduinoLCD\test\Pain Drain\libraries\lvgl\src\extra\widgets\keyboard/lv_keyboard.c **** 
 754              		.loc 1 189 0
 755              		@ sp needed
 756 0012 10BD     		pop	{r4, pc}
 757              		.cfi_endproc
 758              	.LFE164:
 759              		.size	lv_keyboard_set_mode, .-lv_keyboard_set_mode
 760              		.section	.text.lv_keyboard_set_popovers,"ax",%progbits
 761              		.align	2
 762              		.global	lv_keyboard_set_popovers
 763              		.code	16
 764              		.thumb_func
 765              		.type	lv_keyboard_set_popovers, %function
 766              	lv_keyboard_set_popovers:
 767              	.LFB165:
 197:..\..\..\arduinoLCD\test\Pain Drain\libraries\lvgl\src\extra\widgets\keyboard/lv_keyboard.c ****     lv_keyboard_t * keyboard = (lv_keyboard_t *)obj;
 768              		.loc 1 197 0
 769              		.cfi_startproc
 770              		@ args = 0, pretend = 0, frame = 0
 771              		@ frame_needed = 0, uses_anonymous_args = 0
 772              	.LVL104:
 773 0000 10B5     		push	{r4, lr}
 774              		.cfi_def_cfa_offset 8
 775              		.cfi_offset 4, -8
 776              		.cfi_offset 14, -4
 777              	.LVL105:
 200:..\..\..\arduinoLCD\test\Pain Drain\libraries\lvgl\src\extra\widgets\keyboard/lv_keyboard.c ****         return;
 778              		.loc 1 200 0
 779 0002 3D23     		movs	r3, #61
 780 0004 C35C     		ldrb	r3, [r0, r3]
 781 0006 DB07     		lsls	r3, r3, #31
 782 0008 DB0F     		lsrs	r3, r3, #31
 783 000a DBB2     		uxtb	r3, r3
 784 000c 8B42     		cmp	r3, r1
 785 000e 09D0     		beq	.L40
 204:..\..\..\arduinoLCD\test\Pain Drain\libraries\lvgl\src\extra\widgets\keyboard/lv_keyboard.c ****     lv_keyboard_update_ctrl_map(obj);
 786              		.loc 1 204 0
ARM GAS  C:\Users\haske\AppData\Local\Temp\ccEGgQv3.s 			page 24


 787 0010 3D22     		movs	r2, #61
 788 0012 0123     		movs	r3, #1
 789 0014 1940     		ands	r1, r3
 790              	.LVL106:
 791 0016 835C     		ldrb	r3, [r0, r2]
 792 0018 0124     		movs	r4, #1
 793 001a A343     		bics	r3, r4
 794 001c 1943     		orrs	r1, r3
 795 001e 8154     		strb	r1, [r0, r2]
 205:..\..\..\arduinoLCD\test\Pain Drain\libraries\lvgl\src\extra\widgets\keyboard/lv_keyboard.c **** }
 796              		.loc 1 205 0
 797 0020 FFF7FEFF 		bl	lv_keyboard_update_ctrl_map
 798              	.LVL107:
 799              	.L40:
 206:..\..\..\arduinoLCD\test\Pain Drain\libraries\lvgl\src\extra\widgets\keyboard/lv_keyboard.c **** 
 800              		.loc 1 206 0
 801              		@ sp needed
 802 0024 10BD     		pop	{r4, pc}
 803              		.cfi_endproc
 804              	.LFE165:
 805              		.size	lv_keyboard_set_popovers, .-lv_keyboard_set_popovers
 806 0026 C046     		.section	.text.lv_keyboard_set_map,"ax",%progbits
 807              		.align	2
 808              		.global	lv_keyboard_set_map
 809              		.code	16
 810              		.thumb_func
 811              		.type	lv_keyboard_set_map, %function
 812              	lv_keyboard_set_map:
 813              	.LFB166:
 217:..\..\..\arduinoLCD\test\Pain Drain\libraries\lvgl\src\extra\widgets\keyboard/lv_keyboard.c ****     kb_map[mode] = map;
 814              		.loc 1 217 0
 815              		.cfi_startproc
 816              		@ args = 0, pretend = 0, frame = 0
 817              		@ frame_needed = 0, uses_anonymous_args = 0
 818              	.LVL108:
 819 0000 70B5     		push	{r4, r5, r6, lr}
 820              		.cfi_def_cfa_offset 16
 821              		.cfi_offset 4, -16
 822              		.cfi_offset 5, -12
 823              		.cfi_offset 6, -8
 824              		.cfi_offset 14, -4
 218:..\..\..\arduinoLCD\test\Pain Drain\libraries\lvgl\src\extra\widgets\keyboard/lv_keyboard.c ****     kb_ctrl[mode] = ctrl_map;
 825              		.loc 1 218 0
 826 0002 044C     		ldr	r4, .L43
 827 0004 8900     		lsls	r1, r1, #2
 828              	.LVL109:
 829 0006 6518     		adds	r5, r4, r1
 830 0008 6A62     		str	r2, [r5, #36]
 219:..\..\..\arduinoLCD\test\Pain Drain\libraries\lvgl\src\extra\widgets\keyboard/lv_keyboard.c ****     lv_keyboard_update_map(obj);
 831              		.loc 1 219 0
 832 000a 0B51     		str	r3, [r1, r4]
 220:..\..\..\arduinoLCD\test\Pain Drain\libraries\lvgl\src\extra\widgets\keyboard/lv_keyboard.c **** }
 833              		.loc 1 220 0
 834 000c FFF7FEFF 		bl	lv_keyboard_update_map
 835              	.LVL110:
 221:..\..\..\arduinoLCD\test\Pain Drain\libraries\lvgl\src\extra\widgets\keyboard/lv_keyboard.c **** 
 836              		.loc 1 221 0
ARM GAS  C:\Users\haske\AppData\Local\Temp\ccEGgQv3.s 			page 25


 837              		@ sp needed
 838 0010 70BD     		pop	{r4, r5, r6, pc}
 839              	.L44:
 840 0012 C046     		.align	2
 841              	.L43:
 842 0014 00000000 		.word	.LANCHOR0
 843              		.cfi_endproc
 844              	.LFE166:
 845              		.size	lv_keyboard_set_map, .-lv_keyboard_set_map
 846              		.section	.text.lv_keyboard_get_textarea,"ax",%progbits
 847              		.align	2
 848              		.global	lv_keyboard_get_textarea
 849              		.code	16
 850              		.thumb_func
 851              		.type	lv_keyboard_get_textarea, %function
 852              	lv_keyboard_get_textarea:
 853              	.LFB167:
 233:..\..\..\arduinoLCD\test\Pain Drain\libraries\lvgl\src\extra\widgets\keyboard/lv_keyboard.c ****     LV_ASSERT_OBJ(obj, MY_CLASS);
 854              		.loc 1 233 0
 855              		.cfi_startproc
 856              		@ args = 0, pretend = 0, frame = 0
 857              		@ frame_needed = 0, uses_anonymous_args = 0
 858              		@ link register save eliminated.
 859              	.LVL111:
 236:..\..\..\arduinoLCD\test\Pain Drain\libraries\lvgl\src\extra\widgets\keyboard/lv_keyboard.c **** }
 860              		.loc 1 236 0
 861 0000 806B     		ldr	r0, [r0, #56]
 862              	.LVL112:
 237:..\..\..\arduinoLCD\test\Pain Drain\libraries\lvgl\src\extra\widgets\keyboard/lv_keyboard.c **** 
 863              		.loc 1 237 0
 864              		@ sp needed
 865 0002 7047     		bx	lr
 866              		.cfi_endproc
 867              	.LFE167:
 868              		.size	lv_keyboard_get_textarea, .-lv_keyboard_get_textarea
 869              		.section	.text.lv_keyboard_get_mode,"ax",%progbits
 870              		.align	2
 871              		.global	lv_keyboard_get_mode
 872              		.code	16
 873              		.thumb_func
 874              		.type	lv_keyboard_get_mode, %function
 875              	lv_keyboard_get_mode:
 876              	.LFB168:
 245:..\..\..\arduinoLCD\test\Pain Drain\libraries\lvgl\src\extra\widgets\keyboard/lv_keyboard.c ****     LV_ASSERT_OBJ(obj, MY_CLASS);
 877              		.loc 1 245 0
 878              		.cfi_startproc
 879              		@ args = 0, pretend = 0, frame = 0
 880              		@ frame_needed = 0, uses_anonymous_args = 0
 881              		@ link register save eliminated.
 882              	.LVL113:
 248:..\..\..\arduinoLCD\test\Pain Drain\libraries\lvgl\src\extra\widgets\keyboard/lv_keyboard.c **** }
 883              		.loc 1 248 0
 884 0000 3C23     		movs	r3, #60
 885 0002 C05C     		ldrb	r0, [r0, r3]
 886              	.LVL114:
 249:..\..\..\arduinoLCD\test\Pain Drain\libraries\lvgl\src\extra\widgets\keyboard/lv_keyboard.c **** 
 887              		.loc 1 249 0
ARM GAS  C:\Users\haske\AppData\Local\Temp\ccEGgQv3.s 			page 26


 888              		@ sp needed
 889 0004 7047     		bx	lr
 890              		.cfi_endproc
 891              	.LFE168:
 892              		.size	lv_keyboard_get_mode, .-lv_keyboard_get_mode
 893 0006 C046     		.section	.text.lv_btnmatrix_get_popovers,"ax",%progbits
 894              		.align	2
 895              		.global	lv_btnmatrix_get_popovers
 896              		.code	16
 897              		.thumb_func
 898              		.type	lv_btnmatrix_get_popovers, %function
 899              	lv_btnmatrix_get_popovers:
 900              	.LFB169:
 257:..\..\..\arduinoLCD\test\Pain Drain\libraries\lvgl\src\extra\widgets\keyboard/lv_keyboard.c ****     lv_keyboard_t * keyboard = (lv_keyboard_t *)obj;
 901              		.loc 1 257 0
 902              		.cfi_startproc
 903              		@ args = 0, pretend = 0, frame = 0
 904              		@ frame_needed = 0, uses_anonymous_args = 0
 905              		@ link register save eliminated.
 906              	.LVL115:
 259:..\..\..\arduinoLCD\test\Pain Drain\libraries\lvgl\src\extra\widgets\keyboard/lv_keyboard.c **** }
 907              		.loc 1 259 0
 908 0000 3D23     		movs	r3, #61
 909 0002 C05C     		ldrb	r0, [r0, r3]
 910              	.LVL116:
 911 0004 C007     		lsls	r0, r0, #31
 912 0006 C00F     		lsrs	r0, r0, #31
 913 0008 C0B2     		uxtb	r0, r0
 260:..\..\..\arduinoLCD\test\Pain Drain\libraries\lvgl\src\extra\widgets\keyboard/lv_keyboard.c **** 
 914              		.loc 1 260 0
 915              		@ sp needed
 916 000a 7047     		bx	lr
 917              		.cfi_endproc
 918              	.LFE169:
 919              		.size	lv_btnmatrix_get_popovers, .-lv_btnmatrix_get_popovers
 920              		.global	lv_keyboard_class
 921              		.section	.rodata
 922              		.align	2
 923              		.set	.LANCHOR1,. + 0
 924              		.type	lv_keyboard_class, %object
 925              		.size	lv_keyboard_class, 28
 926              	lv_keyboard_class:
 927 0000 00000000 		.word	lv_btnmatrix_class
 928 0004 00000000 		.word	lv_keyboard_constructor
 929 0008 00000000 		.space	12
 929      00000000 
 929      00000000 
 930 0014 6420     		.short	8292
 931 0016 3220     		.short	8242
 932 0018 01       		.byte	1
 933 0019 04       		.byte	4
 934 001a 00       		.byte	0
 935 001b 00       		.space	1
 936              		.type	default_kb_ctrl_num_map, %object
 937              		.size	default_kb_ctrl_num_map, 34
 938              	default_kb_ctrl_num_map:
 939 001c 0100     		.short	1
ARM GAS  C:\Users\haske\AppData\Local\Temp\ccEGgQv3.s 			page 27


 940 001e 0100     		.short	1
 941 0020 0100     		.short	1
 942 0022 9201     		.short	402
 943 0024 0100     		.short	1
 944 0026 0100     		.short	1
 945 0028 0100     		.short	1
 946 002a 9201     		.short	402
 947 002c 0100     		.short	1
 948 002e 0100     		.short	1
 949 0030 0100     		.short	1
 950 0032 0200     		.short	2
 951 0034 0100     		.short	1
 952 0036 0100     		.short	1
 953 0038 0100     		.short	1
 954 003a 0100     		.short	1
 955 003c 0100     		.short	1
 956 003e 0000     		.space	2
 957              		.type	default_kb_map_num, %object
 958              		.size	default_kb_map_num, 84
 959              	default_kb_map_num:
 960 0040 34000000 		.word	.LC30
 961 0044 38000000 		.word	.LC31
 962 0048 3C000000 		.word	.LC32
 963 004c 10000000 		.word	.LC12
 964 0050 40000000 		.word	.LC33
 965 0054 44000000 		.word	.LC34
 966 0058 48000000 		.word	.LC35
 967 005c 4C000000 		.word	.LC36
 968 0060 14000000 		.word	.LC14
 969 0064 40000000 		.word	.LC33
 970 0068 50000000 		.word	.LC37
 971 006c 54000000 		.word	.LC38
 972 0070 58000000 		.word	.LC39
 973 0074 2C000000 		.word	.LC24
 974 0078 40000000 		.word	.LC33
 975 007c 30000000 		.word	.LC26
 976 0080 5C000000 		.word	.LC40
 977 0084 60000000 		.word	.LC41
 978 0088 24000000 		.word	.LC20
 979 008c 28000000 		.word	.LC22
 980 0090 64000000 		.word	.LC42
 981              		.type	default_kb_ctrl_spec_map, %object
 982              		.size	default_kb_ctrl_spec_map, 80
 983              	default_kb_ctrl_spec_map:
 984 0094 0102     		.short	513
 985 0096 0102     		.short	513
 986 0098 0102     		.short	513
 987 009a 0102     		.short	513
 988 009c 0102     		.short	513
 989 009e 0102     		.short	513
 990 00a0 0102     		.short	513
 991 00a2 0102     		.short	513
 992 00a4 0102     		.short	513
 993 00a6 0102     		.short	513
 994 00a8 8200     		.short	130
 995 00aa 9201     		.short	402
 996 00ac 0102     		.short	513
ARM GAS  C:\Users\haske\AppData\Local\Temp\ccEGgQv3.s 			page 28


 997 00ae 0102     		.short	513
 998 00b0 0102     		.short	513
 999 00b2 0102     		.short	513
 1000 00b4 0102     		.short	513
 1001 00b6 0102     		.short	513
 1002 00b8 0102     		.short	513
 1003 00ba 0102     		.short	513
 1004 00bc 0102     		.short	513
 1005 00be 0102     		.short	513
 1006 00c0 0102     		.short	513
 1007 00c2 0102     		.short	513
 1008 00c4 0102     		.short	513
 1009 00c6 0102     		.short	513
 1010 00c8 0102     		.short	513
 1011 00ca 0102     		.short	513
 1012 00cc 0102     		.short	513
 1013 00ce 0102     		.short	513
 1014 00d0 0102     		.short	513
 1015 00d2 0102     		.short	513
 1016 00d4 0102     		.short	513
 1017 00d6 0102     		.short	513
 1018 00d8 0102     		.short	513
 1019 00da 9201     		.short	402
 1020 00dc 8200     		.short	130
 1021 00de 0600     		.short	6
 1022 00e0 8200     		.short	130
 1023 00e2 9201     		.short	402
 1024              		.type	default_kb_map_spec, %object
 1025              		.size	default_kb_map_spec, 176
 1026              	default_kb_map_spec:
 1027 00e4 34000000 		.word	.LC30
 1028 00e8 38000000 		.word	.LC31
 1029 00ec 3C000000 		.word	.LC32
 1030 00f0 44000000 		.word	.LC34
 1031 00f4 48000000 		.word	.LC35
 1032 00f8 4C000000 		.word	.LC36
 1033 00fc 50000000 		.word	.LC37
 1034 0100 54000000 		.word	.LC38
 1035 0104 58000000 		.word	.LC39
 1036 0108 5C000000 		.word	.LC40
 1037 010c 2C000000 		.word	.LC24
 1038 0110 40000000 		.word	.LC33
 1039 0114 00000000 		.word	.LC3
 1040 0118 68000000 		.word	.LC43
 1041 011c 6C000000 		.word	.LC44
 1042 0120 70000000 		.word	.LC45
 1043 0124 74000000 		.word	.LC46
 1044 0128 78000000 		.word	.LC47
 1045 012c 7C000000 		.word	.LC48
 1046 0130 80000000 		.word	.LC49
 1047 0134 84000000 		.word	.LC50
 1048 0138 88000000 		.word	.LC51
 1049 013c 8C000000 		.word	.LC52
 1050 0140 90000000 		.word	.LC53
 1051 0144 40000000 		.word	.LC33
 1052 0148 94000000 		.word	.LC54
 1053 014c 98000000 		.word	.LC55
ARM GAS  C:\Users\haske\AppData\Local\Temp\ccEGgQv3.s 			page 29


 1054 0150 9C000000 		.word	.LC56
 1055 0154 A0000000 		.word	.LC57
 1056 0158 A4000000 		.word	.LC58
 1057 015c A8000000 		.word	.LC59
 1058 0160 AC000000 		.word	.LC60
 1059 0164 B0000000 		.word	.LC61
 1060 0168 B4000000 		.word	.LC62
 1061 016c B8000000 		.word	.LC63
 1062 0170 BC000000 		.word	.LC64
 1063 0174 C0000000 		.word	.LC65
 1064 0178 40000000 		.word	.LC33
 1065 017c 10000000 		.word	.LC12
 1066 0180 24000000 		.word	.LC20
 1067 0184 C4000000 		.word	.LC66
 1068 0188 28000000 		.word	.LC22
 1069 018c 14000000 		.word	.LC14
 1070 0190 64000000 		.word	.LC42
 1071              		.type	default_kb_ctrl_uc_map, %object
 1072              		.size	default_kb_ctrl_uc_map, 80
 1073              	default_kb_ctrl_uc_map:
 1074 0194 9501     		.short	405
 1075 0196 0402     		.short	516
 1076 0198 0402     		.short	516
 1077 019a 0402     		.short	516
 1078 019c 0402     		.short	516
 1079 019e 0402     		.short	516
 1080 01a0 0402     		.short	516
 1081 01a2 0402     		.short	516
 1082 01a4 0402     		.short	516
 1083 01a6 0402     		.short	516
 1084 01a8 0402     		.short	516
 1085 01aa 8700     		.short	135
 1086 01ac 9601     		.short	406
 1087 01ae 0302     		.short	515
 1088 01b0 0302     		.short	515
 1089 01b2 0302     		.short	515
 1090 01b4 0302     		.short	515
 1091 01b6 0302     		.short	515
 1092 01b8 0302     		.short	515
 1093 01ba 0302     		.short	515
 1094 01bc 0302     		.short	515
 1095 01be 0302     		.short	515
 1096 01c0 8700     		.short	135
 1097 01c2 8102     		.short	641
 1098 01c4 8102     		.short	641
 1099 01c6 0102     		.short	513
 1100 01c8 0102     		.short	513
 1101 01ca 0102     		.short	513
 1102 01cc 0102     		.short	513
 1103 01ce 0102     		.short	513
 1104 01d0 0102     		.short	513
 1105 01d2 0102     		.short	513
 1106 01d4 8102     		.short	641
 1107 01d6 8102     		.short	641
 1108 01d8 8102     		.short	641
 1109 01da 9201     		.short	402
 1110 01dc 8200     		.short	130
ARM GAS  C:\Users\haske\AppData\Local\Temp\ccEGgQv3.s 			page 30


 1111 01de 0600     		.short	6
 1112 01e0 8200     		.short	130
 1113 01e2 9201     		.short	402
 1114              		.type	default_kb_map_uc, %object
 1115              		.size	default_kb_map_uc, 176
 1116              	default_kb_map_uc:
 1117 01e4 08000000 		.word	.LC8
 1118 01e8 C8000000 		.word	.LC67
 1119 01ec CC000000 		.word	.LC68
 1120 01f0 D0000000 		.word	.LC69
 1121 01f4 D4000000 		.word	.LC70
 1122 01f8 D8000000 		.word	.LC71
 1123 01fc DC000000 		.word	.LC72
 1124 0200 E0000000 		.word	.LC73
 1125 0204 E4000000 		.word	.LC74
 1126 0208 E8000000 		.word	.LC75
 1127 020c EC000000 		.word	.LC76
 1128 0210 2C000000 		.word	.LC24
 1129 0214 40000000 		.word	.LC33
 1130 0218 00000000 		.word	.LC3
 1131 021c F0000000 		.word	.LC77
 1132 0220 F4000000 		.word	.LC78
 1133 0224 F8000000 		.word	.LC79
 1134 0228 FC000000 		.word	.LC80
 1135 022c 00010000 		.word	.LC81
 1136 0230 04010000 		.word	.LC82
 1137 0234 08010000 		.word	.LC83
 1138 0238 0C010000 		.word	.LC84
 1139 023c 10010000 		.word	.LC85
 1140 0240 20000000 		.word	.LC18
 1141 0244 40000000 		.word	.LC33
 1142 0248 14010000 		.word	.LC86
 1143 024c 6C000000 		.word	.LC44
 1144 0250 18010000 		.word	.LC87
 1145 0254 1C010000 		.word	.LC88
 1146 0258 20010000 		.word	.LC89
 1147 025c 24010000 		.word	.LC90
 1148 0260 28010000 		.word	.LC91
 1149 0264 2C010000 		.word	.LC92
 1150 0268 30010000 		.word	.LC93
 1151 026c 60000000 		.word	.LC41
 1152 0270 34010000 		.word	.LC94
 1153 0274 38010000 		.word	.LC95
 1154 0278 40000000 		.word	.LC33
 1155 027c 10000000 		.word	.LC12
 1156 0280 24000000 		.word	.LC20
 1157 0284 C4000000 		.word	.LC66
 1158 0288 28000000 		.word	.LC22
 1159 028c 14000000 		.word	.LC14
 1160 0290 64000000 		.word	.LC42
 1161              		.type	default_kb_ctrl_lc_map, %object
 1162              		.size	default_kb_ctrl_lc_map, 80
 1163              	default_kb_ctrl_lc_map:
 1164 0294 9501     		.short	405
 1165 0296 0402     		.short	516
 1166 0298 0402     		.short	516
 1167 029a 0402     		.short	516
ARM GAS  C:\Users\haske\AppData\Local\Temp\ccEGgQv3.s 			page 31


 1168 029c 0402     		.short	516
 1169 029e 0402     		.short	516
 1170 02a0 0402     		.short	516
 1171 02a2 0402     		.short	516
 1172 02a4 0402     		.short	516
 1173 02a6 0402     		.short	516
 1174 02a8 0402     		.short	516
 1175 02aa 8700     		.short	135
 1176 02ac 9601     		.short	406
 1177 02ae 0302     		.short	515
 1178 02b0 0302     		.short	515
 1179 02b2 0302     		.short	515
 1180 02b4 0302     		.short	515
 1181 02b6 0302     		.short	515
 1182 02b8 0302     		.short	515
 1183 02ba 0302     		.short	515
 1184 02bc 0302     		.short	515
 1185 02be 0302     		.short	515
 1186 02c0 8700     		.short	135
 1187 02c2 8102     		.short	641
 1188 02c4 8102     		.short	641
 1189 02c6 0102     		.short	513
 1190 02c8 0102     		.short	513
 1191 02ca 0102     		.short	513
 1192 02cc 0102     		.short	513
 1193 02ce 0102     		.short	513
 1194 02d0 0102     		.short	513
 1195 02d2 0102     		.short	513
 1196 02d4 8102     		.short	641
 1197 02d6 8102     		.short	641
 1198 02d8 8102     		.short	641
 1199 02da 9201     		.short	402
 1200 02dc 8200     		.short	130
 1201 02de 0600     		.short	6
 1202 02e0 8200     		.short	130
 1203 02e2 9201     		.short	402
 1204              		.type	default_kb_map_lc, %object
 1205              		.size	default_kb_map_lc, 176
 1206              	default_kb_map_lc:
 1207 02e4 08000000 		.word	.LC8
 1208 02e8 3C010000 		.word	.LC96
 1209 02ec 40010000 		.word	.LC97
 1210 02f0 44010000 		.word	.LC98
 1211 02f4 48010000 		.word	.LC99
 1212 02f8 4C010000 		.word	.LC100
 1213 02fc 50010000 		.word	.LC101
 1214 0300 54010000 		.word	.LC102
 1215 0304 58010000 		.word	.LC103
 1216 0308 5C010000 		.word	.LC104
 1217 030c 60010000 		.word	.LC105
 1218 0310 2C000000 		.word	.LC24
 1219 0314 40000000 		.word	.LC33
 1220 0318 04000000 		.word	.LC6
 1221 031c 64010000 		.word	.LC106
 1222 0320 68010000 		.word	.LC107
 1223 0324 6C010000 		.word	.LC108
 1224 0328 70010000 		.word	.LC109
ARM GAS  C:\Users\haske\AppData\Local\Temp\ccEGgQv3.s 			page 32


 1225 032c 74010000 		.word	.LC110
 1226 0330 78010000 		.word	.LC111
 1227 0334 7C010000 		.word	.LC112
 1228 0338 80010000 		.word	.LC113
 1229 033c 84010000 		.word	.LC114
 1230 0340 20000000 		.word	.LC18
 1231 0344 40000000 		.word	.LC33
 1232 0348 14010000 		.word	.LC86
 1233 034c 6C000000 		.word	.LC44
 1234 0350 88010000 		.word	.LC115
 1235 0354 8C010000 		.word	.LC116
 1236 0358 90010000 		.word	.LC117
 1237 035c 94010000 		.word	.LC118
 1238 0360 98010000 		.word	.LC119
 1239 0364 9C010000 		.word	.LC120
 1240 0368 A0010000 		.word	.LC121
 1241 036c 60000000 		.word	.LC41
 1242 0370 34010000 		.word	.LC94
 1243 0374 38010000 		.word	.LC95
 1244 0378 40000000 		.word	.LC33
 1245 037c 10000000 		.word	.LC12
 1246 0380 24000000 		.word	.LC20
 1247 0384 C4000000 		.word	.LC66
 1248 0388 28000000 		.word	.LC22
 1249 038c 14000000 		.word	.LC14
 1250 0390 64000000 		.word	.LC42
 1251              		.data
 1252              		.align	2
 1253              		.set	.LANCHOR0,. + 0
 1254              		.type	kb_ctrl, %object
 1255              		.size	kb_ctrl, 36
 1256              	kb_ctrl:
 1257 0000 94020000 		.word	default_kb_ctrl_lc_map
 1258 0004 94010000 		.word	default_kb_ctrl_uc_map
 1259 0008 94000000 		.word	default_kb_ctrl_spec_map
 1260 000c 1C000000 		.word	default_kb_ctrl_num_map
 1261 0010 94020000 		.word	default_kb_ctrl_lc_map
 1262 0014 94020000 		.word	default_kb_ctrl_lc_map
 1263 0018 94020000 		.word	default_kb_ctrl_lc_map
 1264 001c 94020000 		.word	default_kb_ctrl_lc_map
 1265 0020 00000000 		.word	0
 1266              		.type	kb_map, %object
 1267              		.size	kb_map, 36
 1268              	kb_map:
 1269 0024 E4020000 		.word	default_kb_map_lc
 1270 0028 E4010000 		.word	default_kb_map_uc
 1271 002c E4000000 		.word	default_kb_map_spec
 1272 0030 40000000 		.word	default_kb_map_num
 1273 0034 E4020000 		.word	default_kb_map_lc
 1274 0038 E4020000 		.word	default_kb_map_lc
 1275 003c E4020000 		.word	default_kb_map_lc
 1276 0040 E4020000 		.word	default_kb_map_lc
 1277 0044 00000000 		.word	0
 1278              		.section	.rodata.str1.4,"aMS",%progbits,1
 1279              		.align	2
 1280              	.LC3:
 1281 0000 61626300 		.ascii	"abc\000"
ARM GAS  C:\Users\haske\AppData\Local\Temp\ccEGgQv3.s 			page 33


 1282              	.LC6:
 1283 0004 41424300 		.ascii	"ABC\000"
 1284              	.LC8:
 1285 0008 312300   		.ascii	"1#\000"
 1286 000b 00       		.space	1
 1287              	.LC10:
 1288 000c EF808D00 		.ascii	"\357\200\215\000"
 1289              	.LC12:
 1290 0010 EF849C00 		.ascii	"\357\204\234\000"
 1291              	.LC14:
 1292 0014 EF808C00 		.ascii	"\357\200\214\000"
 1293              	.LC16:
 1294 0018 456E7465 		.ascii	"Enter\000"
 1294      7200
 1295 001e 0000     		.space	2
 1296              	.LC18:
 1297 0020 EFA2A200 		.ascii	"\357\242\242\000"
 1298              	.LC20:
 1299 0024 EF819300 		.ascii	"\357\201\223\000"
 1300              	.LC22:
 1301 0028 EF819400 		.ascii	"\357\201\224\000"
 1302              	.LC24:
 1303 002c EF959A00 		.ascii	"\357\225\232\000"
 1304              	.LC26:
 1305 0030 2B2F2D00 		.ascii	"+/-\000"
 1306              	.LC30:
 1307 0034 3100     		.ascii	"1\000"
 1308 0036 0000     		.space	2
 1309              	.LC31:
 1310 0038 3200     		.ascii	"2\000"
 1311 003a 0000     		.space	2
 1312              	.LC32:
 1313 003c 3300     		.ascii	"3\000"
 1314 003e 0000     		.space	2
 1315              	.LC33:
 1316 0040 0A00     		.ascii	"\012\000"
 1317 0042 0000     		.space	2
 1318              	.LC34:
 1319 0044 3400     		.ascii	"4\000"
 1320 0046 0000     		.space	2
 1321              	.LC35:
 1322 0048 3500     		.ascii	"5\000"
 1323 004a 0000     		.space	2
 1324              	.LC36:
 1325 004c 3600     		.ascii	"6\000"
 1326 004e 0000     		.space	2
 1327              	.LC37:
 1328 0050 3700     		.ascii	"7\000"
 1329 0052 0000     		.space	2
 1330              	.LC38:
 1331 0054 3800     		.ascii	"8\000"
 1332 0056 0000     		.space	2
 1333              	.LC39:
 1334 0058 3900     		.ascii	"9\000"
 1335 005a 0000     		.space	2
 1336              	.LC40:
 1337 005c 3000     		.ascii	"0\000"
ARM GAS  C:\Users\haske\AppData\Local\Temp\ccEGgQv3.s 			page 34


 1338 005e 0000     		.space	2
 1339              	.LC41:
 1340 0060 2E00     		.ascii	".\000"
 1341 0062 0000     		.space	2
 1342              	.LC42:
 1343 0064 00       		.ascii	"\000"
 1344 0065 000000   		.space	3
 1345              	.LC43:
 1346 0068 2B00     		.ascii	"+\000"
 1347 006a 0000     		.space	2
 1348              	.LC44:
 1349 006c 2D00     		.ascii	"-\000"
 1350 006e 0000     		.space	2
 1351              	.LC45:
 1352 0070 2F00     		.ascii	"/\000"
 1353 0072 0000     		.space	2
 1354              	.LC46:
 1355 0074 2A00     		.ascii	"*\000"
 1356 0076 0000     		.space	2
 1357              	.LC47:
 1358 0078 3D00     		.ascii	"=\000"
 1359 007a 0000     		.space	2
 1360              	.LC48:
 1361 007c 2500     		.ascii	"%\000"
 1362 007e 0000     		.space	2
 1363              	.LC49:
 1364 0080 2100     		.ascii	"!\000"
 1365 0082 0000     		.space	2
 1366              	.LC50:
 1367 0084 3F00     		.ascii	"?\000"
 1368 0086 0000     		.space	2
 1369              	.LC51:
 1370 0088 2300     		.ascii	"#\000"
 1371 008a 0000     		.space	2
 1372              	.LC52:
 1373 008c 3C00     		.ascii	"<\000"
 1374 008e 0000     		.space	2
 1375              	.LC53:
 1376 0090 3E00     		.ascii	">\000"
 1377 0092 0000     		.space	2
 1378              	.LC54:
 1379 0094 5C00     		.ascii	"\\\000"
 1380 0096 0000     		.space	2
 1381              	.LC55:
 1382 0098 4000     		.ascii	"@\000"
 1383 009a 0000     		.space	2
 1384              	.LC56:
 1385 009c 2400     		.ascii	"$\000"
 1386 009e 0000     		.space	2
 1387              	.LC57:
 1388 00a0 2800     		.ascii	"(\000"
 1389 00a2 0000     		.space	2
 1390              	.LC58:
 1391 00a4 2900     		.ascii	")\000"
 1392 00a6 0000     		.space	2
 1393              	.LC59:
 1394 00a8 7B00     		.ascii	"{\000"
ARM GAS  C:\Users\haske\AppData\Local\Temp\ccEGgQv3.s 			page 35


 1395 00aa 0000     		.space	2
 1396              	.LC60:
 1397 00ac 7D00     		.ascii	"}\000"
 1398 00ae 0000     		.space	2
 1399              	.LC61:
 1400 00b0 5B00     		.ascii	"[\000"
 1401 00b2 0000     		.space	2
 1402              	.LC62:
 1403 00b4 5D00     		.ascii	"]\000"
 1404 00b6 0000     		.space	2
 1405              	.LC63:
 1406 00b8 3B00     		.ascii	";\000"
 1407 00ba 0000     		.space	2
 1408              	.LC64:
 1409 00bc 2200     		.ascii	"\"\000"
 1410 00be 0000     		.space	2
 1411              	.LC65:
 1412 00c0 2700     		.ascii	"'\000"
 1413 00c2 0000     		.space	2
 1414              	.LC66:
 1415 00c4 2000     		.ascii	" \000"
 1416 00c6 0000     		.space	2
 1417              	.LC67:
 1418 00c8 5100     		.ascii	"Q\000"
 1419 00ca 0000     		.space	2
 1420              	.LC68:
 1421 00cc 5700     		.ascii	"W\000"
 1422 00ce 0000     		.space	2
 1423              	.LC69:
 1424 00d0 4500     		.ascii	"E\000"
 1425 00d2 0000     		.space	2
 1426              	.LC70:
 1427 00d4 5200     		.ascii	"R\000"
 1428 00d6 0000     		.space	2
 1429              	.LC71:
 1430 00d8 5400     		.ascii	"T\000"
 1431 00da 0000     		.space	2
 1432              	.LC72:
 1433 00dc 5900     		.ascii	"Y\000"
 1434 00de 0000     		.space	2
 1435              	.LC73:
 1436 00e0 5500     		.ascii	"U\000"
 1437 00e2 0000     		.space	2
 1438              	.LC74:
 1439 00e4 4900     		.ascii	"I\000"
 1440 00e6 0000     		.space	2
 1441              	.LC75:
 1442 00e8 4F00     		.ascii	"O\000"
 1443 00ea 0000     		.space	2
 1444              	.LC76:
 1445 00ec 5000     		.ascii	"P\000"
 1446 00ee 0000     		.space	2
 1447              	.LC77:
 1448 00f0 4100     		.ascii	"A\000"
 1449 00f2 0000     		.space	2
 1450              	.LC78:
 1451 00f4 5300     		.ascii	"S\000"
ARM GAS  C:\Users\haske\AppData\Local\Temp\ccEGgQv3.s 			page 36


 1452 00f6 0000     		.space	2
 1453              	.LC79:
 1454 00f8 4400     		.ascii	"D\000"
 1455 00fa 0000     		.space	2
 1456              	.LC80:
 1457 00fc 4600     		.ascii	"F\000"
 1458 00fe 0000     		.space	2
 1459              	.LC81:
 1460 0100 4700     		.ascii	"G\000"
 1461 0102 0000     		.space	2
 1462              	.LC82:
 1463 0104 4800     		.ascii	"H\000"
 1464 0106 0000     		.space	2
 1465              	.LC83:
 1466 0108 4A00     		.ascii	"J\000"
 1467 010a 0000     		.space	2
 1468              	.LC84:
 1469 010c 4B00     		.ascii	"K\000"
 1470 010e 0000     		.space	2
 1471              	.LC85:
 1472 0110 4C00     		.ascii	"L\000"
 1473 0112 0000     		.space	2
 1474              	.LC86:
 1475 0114 5F00     		.ascii	"_\000"
 1476 0116 0000     		.space	2
 1477              	.LC87:
 1478 0118 5A00     		.ascii	"Z\000"
 1479 011a 0000     		.space	2
 1480              	.LC88:
 1481 011c 5800     		.ascii	"X\000"
 1482 011e 0000     		.space	2
 1483              	.LC89:
 1484 0120 4300     		.ascii	"C\000"
 1485 0122 0000     		.space	2
 1486              	.LC90:
 1487 0124 5600     		.ascii	"V\000"
 1488 0126 0000     		.space	2
 1489              	.LC91:
 1490 0128 4200     		.ascii	"B\000"
 1491 012a 0000     		.space	2
 1492              	.LC92:
 1493 012c 4E00     		.ascii	"N\000"
 1494 012e 0000     		.space	2
 1495              	.LC93:
 1496 0130 4D00     		.ascii	"M\000"
 1497 0132 0000     		.space	2
 1498              	.LC94:
 1499 0134 2C00     		.ascii	",\000"
 1500 0136 0000     		.space	2
 1501              	.LC95:
 1502 0138 3A00     		.ascii	":\000"
 1503 013a 0000     		.space	2
 1504              	.LC96:
 1505 013c 7100     		.ascii	"q\000"
 1506 013e 0000     		.space	2
 1507              	.LC97:
 1508 0140 7700     		.ascii	"w\000"
ARM GAS  C:\Users\haske\AppData\Local\Temp\ccEGgQv3.s 			page 37


 1509 0142 0000     		.space	2
 1510              	.LC98:
 1511 0144 6500     		.ascii	"e\000"
 1512 0146 0000     		.space	2
 1513              	.LC99:
 1514 0148 7200     		.ascii	"r\000"
 1515 014a 0000     		.space	2
 1516              	.LC100:
 1517 014c 7400     		.ascii	"t\000"
 1518 014e 0000     		.space	2
 1519              	.LC101:
 1520 0150 7900     		.ascii	"y\000"
 1521 0152 0000     		.space	2
 1522              	.LC102:
 1523 0154 7500     		.ascii	"u\000"
 1524 0156 0000     		.space	2
 1525              	.LC103:
 1526 0158 6900     		.ascii	"i\000"
 1527 015a 0000     		.space	2
 1528              	.LC104:
 1529 015c 6F00     		.ascii	"o\000"
 1530 015e 0000     		.space	2
 1531              	.LC105:
 1532 0160 7000     		.ascii	"p\000"
 1533 0162 0000     		.space	2
 1534              	.LC106:
 1535 0164 6100     		.ascii	"a\000"
 1536 0166 0000     		.space	2
 1537              	.LC107:
 1538 0168 7300     		.ascii	"s\000"
 1539 016a 0000     		.space	2
 1540              	.LC108:
 1541 016c 6400     		.ascii	"d\000"
 1542 016e 0000     		.space	2
 1543              	.LC109:
 1544 0170 6600     		.ascii	"f\000"
 1545 0172 0000     		.space	2
 1546              	.LC110:
 1547 0174 6700     		.ascii	"g\000"
 1548 0176 0000     		.space	2
 1549              	.LC111:
 1550 0178 6800     		.ascii	"h\000"
 1551 017a 0000     		.space	2
 1552              	.LC112:
 1553 017c 6A00     		.ascii	"j\000"
 1554 017e 0000     		.space	2
 1555              	.LC113:
 1556 0180 6B00     		.ascii	"k\000"
 1557 0182 0000     		.space	2
 1558              	.LC114:
 1559 0184 6C00     		.ascii	"l\000"
 1560 0186 0000     		.space	2
 1561              	.LC115:
 1562 0188 7A00     		.ascii	"z\000"
 1563 018a 0000     		.space	2
 1564              	.LC116:
 1565 018c 7800     		.ascii	"x\000"
ARM GAS  C:\Users\haske\AppData\Local\Temp\ccEGgQv3.s 			page 38


 1566 018e 0000     		.space	2
 1567              	.LC117:
 1568 0190 6300     		.ascii	"c\000"
 1569 0192 0000     		.space	2
 1570              	.LC118:
 1571 0194 7600     		.ascii	"v\000"
 1572 0196 0000     		.space	2
 1573              	.LC119:
 1574 0198 6200     		.ascii	"b\000"
 1575 019a 0000     		.space	2
 1576              	.LC120:
 1577 019c 6E00     		.ascii	"n\000"
 1578 019e 0000     		.space	2
 1579              	.LC121:
 1580 01a0 6D00     		.ascii	"m\000"
 1581              		.text
 1582              	.Letext0:
 1583              		.file 2 "c:\\program files (x86)\\cypress\\psoc creator\\4.4\\psoc creator\\import\\gnu\\arm\\5.4.
 1584              		.file 3 "c:\\program files (x86)\\cypress\\psoc creator\\4.4\\psoc creator\\import\\gnu\\arm\\5.4.
 1585              		.file 4 "c:\\projects\\paindrain\\arduinolcd\\test\\pain drain\\libraries\\lvgl\\src\\misc\\lv_are
 1586              		.file 5 "c:\\projects\\paindrain\\arduinolcd\\test\\pain drain\\libraries\\lvgl\\src\\font\\lv_fon
 1587              		.file 6 "c:\\projects\\paindrain\\arduinolcd\\test\\pain drain\\libraries\\lvgl\\src\\misc\\lv_typ
 1588              		.file 7 "c:\\projects\\paindrain\\arduinolcd\\test\\pain drain\\libraries\\lvgl\\src\\misc\\lv_col
 1589              		.file 8 "c:\\projects\\paindrain\\arduinolcd\\test\\pain drain\\libraries\\lvgl\\src\\misc\\lv_bid
 1590              		.file 9 "c:\\projects\\paindrain\\arduinolcd\\test\\pain drain\\libraries\\lvgl\\src\\misc\\lv_sty
 1591              		.file 10 "c:\\projects\\paindrain\\arduinolcd\\test\\pain drain\\libraries\\lvgl\\src\\core\\lv_ob
 1592              		.file 11 "c:\\projects\\paindrain\\arduinolcd\\test\\pain drain\\libraries\\lvgl\\src\\misc\\lv_ll
 1593              		.file 12 "c:\\projects\\paindrain\\arduinolcd\\test\\pain drain\\libraries\\lvgl\\src\\core\\lv_gr
 1594              		.file 13 "c:\\projects\\paindrain\\arduinolcd\\test\\pain drain\\libraries\\lvgl\\src\\core\\lv_ob
 1595              		.file 14 "c:\\projects\\paindrain\\arduinolcd\\test\\pain drain\\libraries\\lvgl\\src\\core\\lv_ob
 1596              		.file 15 "c:\\projects\\paindrain\\arduinolcd\\test\\pain drain\\libraries\\lvgl\\src\\core\\lv_ob
 1597              		.file 16 "c:\\projects\\paindrain\\arduinolcd\\test\\pain drain\\libraries\\lvgl\\src\\core\\lv_ev
 1598              		.file 17 "c:\\projects\\paindrain\\arduinolcd\\test\\pain drain\\libraries\\lvgl\\src\\widgets\\lv
 1599              		.file 18 "..\\..\\..\\arduinoLCD\\test\\Pain Drain\\libraries\\lvgl\\src\\extra\\widgets\\keyboard
 1600              		.file 19 "c:\\projects\\paindrain\\arduinolcd\\test\\pain drain\\libraries\\lvgl\\src\\misc\\lv_me
 1601              		.file 20 "c:\\projects\\paindrain\\arduinolcd\\test\\pain drain\\libraries\\lvgl\\src\\core\\lv_ob
 1602              		.file 21 "c:\\projects\\paindrain\\arduinolcd\\test\\pain drain\\libraries\\lvgl\\src\\core\\lv_ob
 1603              		.file 22 "c:\\projects\\paindrain\\arduinolcd\\test\\pain drain\\libraries\\lvgl\\src\\widgets\\lv
 1604              		.file 23 "c:\\program files (x86)\\cypress\\psoc creator\\4.4\\psoc creator\\import\\gnu\\arm\\5.4
 1605              		.section	.debug_info,"",%progbits
 1606              	.Ldebug_info0:
 1607 0000 CC1C0000 		.4byte	0x1ccc
 1608 0004 0400     		.2byte	0x4
 1609 0006 00000000 		.4byte	.Ldebug_abbrev0
 1610 000a 04       		.byte	0x4
 1611 000b 01       		.uleb128 0x1
 1612 000c 46070000 		.4byte	.LASF452
 1613 0010 0C       		.byte	0xc
 1614 0011 14050000 		.4byte	.LASF453
 1615 0015 D31A0000 		.4byte	.LASF454
 1616 0019 00000000 		.4byte	.Ldebug_ranges0+0
 1617 001d 00000000 		.4byte	0
 1618 0021 00000000 		.4byte	.Ldebug_line0
 1619 0025 02       		.uleb128 0x2
 1620 0026 9B150000 		.4byte	.LASF0
 1621 002a 02       		.byte	0x2
 1622 002b 1B       		.byte	0x1b
ARM GAS  C:\Users\haske\AppData\Local\Temp\ccEGgQv3.s 			page 39


 1623 002c 30000000 		.4byte	0x30
 1624 0030 03       		.uleb128 0x3
 1625 0031 01       		.byte	0x1
 1626 0032 06       		.byte	0x6
 1627 0033 00050000 		.4byte	.LASF2
 1628 0037 02       		.uleb128 0x2
 1629 0038 87020000 		.4byte	.LASF1
 1630 003c 02       		.byte	0x2
 1631 003d 1D       		.byte	0x1d
 1632 003e 42000000 		.4byte	0x42
 1633 0042 03       		.uleb128 0x3
 1634 0043 01       		.byte	0x1
 1635 0044 08       		.byte	0x8
 1636 0045 17060000 		.4byte	.LASF3
 1637 0049 02       		.uleb128 0x2
 1638 004a 6F170000 		.4byte	.LASF4
 1639 004e 02       		.byte	0x2
 1640 004f 29       		.byte	0x29
 1641 0050 54000000 		.4byte	0x54
 1642 0054 03       		.uleb128 0x3
 1643 0055 02       		.byte	0x2
 1644 0056 05       		.byte	0x5
 1645 0057 97180000 		.4byte	.LASF5
 1646 005b 02       		.uleb128 0x2
 1647 005c 99080000 		.4byte	.LASF6
 1648 0060 02       		.byte	0x2
 1649 0061 2B       		.byte	0x2b
 1650 0062 66000000 		.4byte	0x66
 1651 0066 03       		.uleb128 0x3
 1652 0067 02       		.byte	0x2
 1653 0068 07       		.byte	0x7
 1654 0069 021D0000 		.4byte	.LASF7
 1655 006d 02       		.uleb128 0x2
 1656 006e 141E0000 		.4byte	.LASF8
 1657 0072 02       		.byte	0x2
 1658 0073 3F       		.byte	0x3f
 1659 0074 78000000 		.4byte	0x78
 1660 0078 03       		.uleb128 0x3
 1661 0079 04       		.byte	0x4
 1662 007a 05       		.byte	0x5
 1663 007b 79030000 		.4byte	.LASF9
 1664 007f 02       		.uleb128 0x2
 1665 0080 690F0000 		.4byte	.LASF10
 1666 0084 02       		.byte	0x2
 1667 0085 41       		.byte	0x41
 1668 0086 8A000000 		.4byte	0x8a
 1669 008a 03       		.uleb128 0x3
 1670 008b 04       		.byte	0x4
 1671 008c 07       		.byte	0x7
 1672 008d 880D0000 		.4byte	.LASF11
 1673 0091 03       		.uleb128 0x3
 1674 0092 08       		.byte	0x8
 1675 0093 05       		.byte	0x5
 1676 0094 990F0000 		.4byte	.LASF12
 1677 0098 03       		.uleb128 0x3
 1678 0099 08       		.byte	0x8
 1679 009a 07       		.byte	0x7
ARM GAS  C:\Users\haske\AppData\Local\Temp\ccEGgQv3.s 			page 40


 1680 009b DB150000 		.4byte	.LASF13
 1681 009f 04       		.uleb128 0x4
 1682 00a0 04       		.byte	0x4
 1683 00a1 05       		.byte	0x5
 1684 00a2 696E7400 		.ascii	"int\000"
 1685 00a6 03       		.uleb128 0x3
 1686 00a7 04       		.byte	0x4
 1687 00a8 07       		.byte	0x7
 1688 00a9 04120000 		.4byte	.LASF14
 1689 00ad 02       		.uleb128 0x2
 1690 00ae 1D000000 		.4byte	.LASF15
 1691 00b2 03       		.byte	0x3
 1692 00b3 14       		.byte	0x14
 1693 00b4 25000000 		.4byte	0x25
 1694 00b8 02       		.uleb128 0x2
 1695 00b9 0C050000 		.4byte	.LASF16
 1696 00bd 03       		.byte	0x3
 1697 00be 18       		.byte	0x18
 1698 00bf 37000000 		.4byte	0x37
 1699 00c3 02       		.uleb128 0x2
 1700 00c4 68190000 		.4byte	.LASF17
 1701 00c8 03       		.byte	0x3
 1702 00c9 20       		.byte	0x20
 1703 00ca 49000000 		.4byte	0x49
 1704 00ce 02       		.uleb128 0x2
 1705 00cf 71160000 		.4byte	.LASF18
 1706 00d3 03       		.byte	0x3
 1707 00d4 24       		.byte	0x24
 1708 00d5 5B000000 		.4byte	0x5b
 1709 00d9 02       		.uleb128 0x2
 1710 00da AE000000 		.4byte	.LASF19
 1711 00de 03       		.byte	0x3
 1712 00df 2C       		.byte	0x2c
 1713 00e0 6D000000 		.4byte	0x6d
 1714 00e4 02       		.uleb128 0x2
 1715 00e5 3D1C0000 		.4byte	.LASF20
 1716 00e9 03       		.byte	0x3
 1717 00ea 30       		.byte	0x30
 1718 00eb 7F000000 		.4byte	0x7f
 1719 00ef 03       		.uleb128 0x3
 1720 00f0 08       		.byte	0x8
 1721 00f1 04       		.byte	0x4
 1722 00f2 E2140000 		.4byte	.LASF21
 1723 00f6 02       		.uleb128 0x2
 1724 00f7 521D0000 		.4byte	.LASF22
 1725 00fb 04       		.byte	0x4
 1726 00fc 1B       		.byte	0x1b
 1727 00fd C3000000 		.4byte	0xc3
 1728 0101 05       		.uleb128 0x5
 1729 0102 04       		.byte	0x4
 1730 0103 04       		.byte	0x4
 1731 0104 25       		.byte	0x25
 1732 0105 1E010000 		.4byte	0x11e
 1733 0109 06       		.uleb128 0x6
 1734 010a 7800     		.ascii	"x\000"
 1735 010c 04       		.byte	0x4
 1736 010d 26       		.byte	0x26
ARM GAS  C:\Users\haske\AppData\Local\Temp\ccEGgQv3.s 			page 41


 1737 010e F6000000 		.4byte	0xf6
 1738 0112 00       		.byte	0
 1739 0113 06       		.uleb128 0x6
 1740 0114 7900     		.ascii	"y\000"
 1741 0116 04       		.byte	0x4
 1742 0117 27       		.byte	0x27
 1743 0118 F6000000 		.4byte	0xf6
 1744 011c 02       		.byte	0x2
 1745 011d 00       		.byte	0
 1746 011e 02       		.uleb128 0x2
 1747 011f F2000000 		.4byte	.LASF23
 1748 0123 04       		.byte	0x4
 1749 0124 28       		.byte	0x28
 1750 0125 01010000 		.4byte	0x101
 1751 0129 05       		.uleb128 0x5
 1752 012a 08       		.byte	0x8
 1753 012b 04       		.byte	0x4
 1754 012c 2B       		.byte	0x2b
 1755 012d 5E010000 		.4byte	0x15e
 1756 0131 06       		.uleb128 0x6
 1757 0132 783100   		.ascii	"x1\000"
 1758 0135 04       		.byte	0x4
 1759 0136 2C       		.byte	0x2c
 1760 0137 F6000000 		.4byte	0xf6
 1761 013b 00       		.byte	0
 1762 013c 06       		.uleb128 0x6
 1763 013d 793100   		.ascii	"y1\000"
 1764 0140 04       		.byte	0x4
 1765 0141 2D       		.byte	0x2d
 1766 0142 F6000000 		.4byte	0xf6
 1767 0146 02       		.byte	0x2
 1768 0147 06       		.uleb128 0x6
 1769 0148 783200   		.ascii	"x2\000"
 1770 014b 04       		.byte	0x4
 1771 014c 2E       		.byte	0x2e
 1772 014d F6000000 		.4byte	0xf6
 1773 0151 04       		.byte	0x4
 1774 0152 06       		.uleb128 0x6
 1775 0153 793200   		.ascii	"y2\000"
 1776 0156 04       		.byte	0x4
 1777 0157 2F       		.byte	0x2f
 1778 0158 F6000000 		.4byte	0xf6
 1779 015c 06       		.byte	0x6
 1780 015d 00       		.byte	0
 1781 015e 02       		.uleb128 0x2
 1782 015f BC0A0000 		.4byte	.LASF24
 1783 0163 04       		.byte	0x4
 1784 0164 30       		.byte	0x30
 1785 0165 29010000 		.4byte	0x129
 1786 0169 07       		.uleb128 0x7
 1787 016a 01       		.byte	0x1
 1788 016b 42000000 		.4byte	0x42
 1789 016f 04       		.byte	0x4
 1790 0170 33       		.byte	0x33
 1791 0171 FA010000 		.4byte	0x1fa
 1792 0175 08       		.uleb128 0x8
 1793 0176 66150000 		.4byte	.LASF25
ARM GAS  C:\Users\haske\AppData\Local\Temp\ccEGgQv3.s 			page 42


 1794 017a 00       		.byte	0
 1795 017b 08       		.uleb128 0x8
 1796 017c A4150000 		.4byte	.LASF26
 1797 0180 01       		.byte	0x1
 1798 0181 08       		.uleb128 0x8
 1799 0182 73180000 		.4byte	.LASF27
 1800 0186 02       		.byte	0x2
 1801 0187 08       		.uleb128 0x8
 1802 0188 DE080000 		.4byte	.LASF28
 1803 018c 03       		.byte	0x3
 1804 018d 08       		.uleb128 0x8
 1805 018e 34100000 		.4byte	.LASF29
 1806 0192 04       		.byte	0x4
 1807 0193 08       		.uleb128 0x8
 1808 0194 28140000 		.4byte	.LASF30
 1809 0198 05       		.byte	0x5
 1810 0199 08       		.uleb128 0x8
 1811 019a A81D0000 		.4byte	.LASF31
 1812 019e 06       		.byte	0x6
 1813 019f 08       		.uleb128 0x8
 1814 01a0 010A0000 		.4byte	.LASF32
 1815 01a4 07       		.byte	0x7
 1816 01a5 08       		.uleb128 0x8
 1817 01a6 121B0000 		.4byte	.LASF33
 1818 01aa 08       		.byte	0x8
 1819 01ab 08       		.uleb128 0x8
 1820 01ac 83120000 		.4byte	.LASF34
 1821 01b0 09       		.byte	0x9
 1822 01b1 08       		.uleb128 0x8
 1823 01b2 05150000 		.4byte	.LASF35
 1824 01b6 0A       		.byte	0xa
 1825 01b7 08       		.uleb128 0x8
 1826 01b8 951B0000 		.4byte	.LASF36
 1827 01bc 0B       		.byte	0xb
 1828 01bd 08       		.uleb128 0x8
 1829 01be 2F190000 		.4byte	.LASF37
 1830 01c2 0C       		.byte	0xc
 1831 01c3 08       		.uleb128 0x8
 1832 01c4 450F0000 		.4byte	.LASF38
 1833 01c8 0D       		.byte	0xd
 1834 01c9 08       		.uleb128 0x8
 1835 01ca 610D0000 		.4byte	.LASF39
 1836 01ce 0E       		.byte	0xe
 1837 01cf 08       		.uleb128 0x8
 1838 01d0 220C0000 		.4byte	.LASF40
 1839 01d4 0F       		.byte	0xf
 1840 01d5 08       		.uleb128 0x8
 1841 01d6 6C1C0000 		.4byte	.LASF41
 1842 01da 10       		.byte	0x10
 1843 01db 08       		.uleb128 0x8
 1844 01dc C8080000 		.4byte	.LASF42
 1845 01e0 11       		.byte	0x11
 1846 01e1 08       		.uleb128 0x8
 1847 01e2 A70F0000 		.4byte	.LASF43
 1848 01e6 12       		.byte	0x12
 1849 01e7 08       		.uleb128 0x8
 1850 01e8 5A160000 		.4byte	.LASF44
ARM GAS  C:\Users\haske\AppData\Local\Temp\ccEGgQv3.s 			page 43


 1851 01ec 13       		.byte	0x13
 1852 01ed 08       		.uleb128 0x8
 1853 01ee 93010000 		.4byte	.LASF45
 1854 01f2 14       		.byte	0x14
 1855 01f3 08       		.uleb128 0x8
 1856 01f4 C8140000 		.4byte	.LASF46
 1857 01f8 15       		.byte	0x15
 1858 01f9 00       		.byte	0
 1859 01fa 02       		.uleb128 0x2
 1860 01fb 30090000 		.4byte	.LASF47
 1861 01ff 04       		.byte	0x4
 1862 0200 59       		.byte	0x59
 1863 0201 B8000000 		.4byte	0xb8
 1864 0205 05       		.uleb128 0x5
 1865 0206 10       		.byte	0x10
 1866 0207 05       		.byte	0x5
 1867 0208 29       		.byte	0x29
 1868 0209 74020000 		.4byte	0x274
 1869 020d 09       		.uleb128 0x9
 1870 020e 270E0000 		.4byte	.LASF48
 1871 0212 05       		.byte	0x5
 1872 0213 2B       		.byte	0x2b
 1873 0214 FC020000 		.4byte	0x2fc
 1874 0218 00       		.byte	0
 1875 0219 09       		.uleb128 0x9
 1876 021a 4D000000 		.4byte	.LASF49
 1877 021e 05       		.byte	0x5
 1878 021f 2C       		.byte	0x2c
 1879 0220 CE000000 		.4byte	0xce
 1880 0224 04       		.byte	0x4
 1881 0225 09       		.uleb128 0x9
 1882 0226 91180000 		.4byte	.LASF50
 1883 022a 05       		.byte	0x5
 1884 022b 2D       		.byte	0x2d
 1885 022c CE000000 		.4byte	0xce
 1886 0230 06       		.byte	0x6
 1887 0231 09       		.uleb128 0x9
 1888 0232 5C180000 		.4byte	.LASF51
 1889 0236 05       		.byte	0x5
 1890 0237 2E       		.byte	0x2e
 1891 0238 CE000000 		.4byte	0xce
 1892 023c 08       		.byte	0x8
 1893 023d 09       		.uleb128 0x9
 1894 023e F2060000 		.4byte	.LASF52
 1895 0242 05       		.byte	0x5
 1896 0243 2F       		.byte	0x2f
 1897 0244 C3000000 		.4byte	0xc3
 1898 0248 0A       		.byte	0xa
 1899 0249 09       		.uleb128 0x9
 1900 024a F8060000 		.4byte	.LASF53
 1901 024e 05       		.byte	0x5
 1902 024f 30       		.byte	0x30
 1903 0250 C3000000 		.4byte	0xc3
 1904 0254 0C       		.byte	0xc
 1905 0255 0A       		.uleb128 0xa
 1906 0256 62707000 		.ascii	"bpp\000"
 1907 025a 05       		.byte	0x5
ARM GAS  C:\Users\haske\AppData\Local\Temp\ccEGgQv3.s 			page 44


 1908 025b 31       		.byte	0x31
 1909 025c B8000000 		.4byte	0xb8
 1910 0260 01       		.byte	0x1
 1911 0261 04       		.byte	0x4
 1912 0262 04       		.byte	0x4
 1913 0263 0E       		.byte	0xe
 1914 0264 0B       		.uleb128 0xb
 1915 0265 3D1F0000 		.4byte	.LASF54
 1916 0269 05       		.byte	0x5
 1917 026a 32       		.byte	0x32
 1918 026b B8000000 		.4byte	0xb8
 1919 026f 01       		.byte	0x1
 1920 0270 01       		.byte	0x1
 1921 0271 03       		.byte	0x3
 1922 0272 0E       		.byte	0xe
 1923 0273 00       		.byte	0
 1924 0274 0C       		.uleb128 0xc
 1925 0275 5E0F0000 		.4byte	.LASF184
 1926 0279 1C       		.byte	0x1c
 1927 027a 05       		.byte	0x5
 1928 027b 40       		.byte	0x40
 1929 027c FC020000 		.4byte	0x2fc
 1930 0280 09       		.uleb128 0x9
 1931 0281 061E0000 		.4byte	.LASF55
 1932 0285 05       		.byte	0x5
 1933 0286 42       		.byte	0x42
 1934 0287 3D030000 		.4byte	0x33d
 1935 028b 00       		.byte	0
 1936 028c 09       		.uleb128 0x9
 1937 028d AF050000 		.4byte	.LASF56
 1938 0291 05       		.byte	0x5
 1939 0292 45       		.byte	0x45
 1940 0293 62030000 		.4byte	0x362
 1941 0297 04       		.byte	0x4
 1942 0298 09       		.uleb128 0x9
 1943 0299 19010000 		.4byte	.LASF57
 1944 029d 05       		.byte	0x5
 1945 029e 48       		.byte	0x48
 1946 029f F6000000 		.4byte	0xf6
 1947 02a3 08       		.byte	0x8
 1948 02a4 09       		.uleb128 0x9
 1949 02a5 A1180000 		.4byte	.LASF58
 1950 02a9 05       		.byte	0x5
 1951 02aa 49       		.byte	0x49
 1952 02ab F6000000 		.4byte	0xf6
 1953 02af 0A       		.byte	0xa
 1954 02b0 0B       		.uleb128 0xb
 1955 02b1 1B150000 		.4byte	.LASF59
 1956 02b5 05       		.byte	0x5
 1957 02b6 4A       		.byte	0x4a
 1958 02b7 B8000000 		.4byte	0xb8
 1959 02bb 01       		.byte	0x1
 1960 02bc 02       		.byte	0x2
 1961 02bd 06       		.byte	0x6
 1962 02be 0C       		.byte	0xc
 1963 02bf 09       		.uleb128 0x9
 1964 02c0 3D080000 		.4byte	.LASF60
ARM GAS  C:\Users\haske\AppData\Local\Temp\ccEGgQv3.s 			page 45


 1965 02c4 05       		.byte	0x5
 1966 02c5 4C       		.byte	0x4c
 1967 02c6 AD000000 		.4byte	0xad
 1968 02ca 0D       		.byte	0xd
 1969 02cb 09       		.uleb128 0x9
 1970 02cc E8100000 		.4byte	.LASF61
 1971 02d0 05       		.byte	0x5
 1972 02d1 4D       		.byte	0x4d
 1973 02d2 AD000000 		.4byte	0xad
 1974 02d6 0E       		.byte	0xe
 1975 02d7 06       		.uleb128 0x6
 1976 02d8 64736300 		.ascii	"dsc\000"
 1977 02dc 05       		.byte	0x5
 1978 02dd 4F       		.byte	0x4f
 1979 02de 68030000 		.4byte	0x368
 1980 02e2 10       		.byte	0x10
 1981 02e3 09       		.uleb128 0x9
 1982 02e4 530A0000 		.4byte	.LASF62
 1983 02e8 05       		.byte	0x5
 1984 02e9 50       		.byte	0x50
 1985 02ea FC020000 		.4byte	0x2fc
 1986 02ee 14       		.byte	0x14
 1987 02ef 09       		.uleb128 0x9
 1988 02f0 8A1D0000 		.4byte	.LASF63
 1989 02f4 05       		.byte	0x5
 1990 02f5 52       		.byte	0x52
 1991 02f6 6F030000 		.4byte	0x36f
 1992 02fa 18       		.byte	0x18
 1993 02fb 00       		.byte	0
 1994 02fc 0D       		.uleb128 0xd
 1995 02fd 04       		.byte	0x4
 1996 02fe 02030000 		.4byte	0x302
 1997 0302 0E       		.uleb128 0xe
 1998 0303 74020000 		.4byte	0x274
 1999 0307 02       		.uleb128 0x2
 2000 0308 69130000 		.4byte	.LASF64
 2001 030c 05       		.byte	0x5
 2002 030d 33       		.byte	0x33
 2003 030e 05020000 		.4byte	0x205
 2004 0312 0F       		.uleb128 0xf
 2005 0313 30030000 		.4byte	0x330
 2006 0317 30030000 		.4byte	0x330
 2007 031b 10       		.uleb128 0x10
 2008 031c FC020000 		.4byte	0x2fc
 2009 0320 10       		.uleb128 0x10
 2010 0321 37030000 		.4byte	0x337
 2011 0325 10       		.uleb128 0x10
 2012 0326 E4000000 		.4byte	0xe4
 2013 032a 10       		.uleb128 0x10
 2014 032b E4000000 		.4byte	0xe4
 2015 032f 00       		.byte	0
 2016 0330 03       		.uleb128 0x3
 2017 0331 01       		.byte	0x1
 2018 0332 02       		.byte	0x2
 2019 0333 07070000 		.4byte	.LASF65
 2020 0337 0D       		.uleb128 0xd
 2021 0338 04       		.byte	0x4
ARM GAS  C:\Users\haske\AppData\Local\Temp\ccEGgQv3.s 			page 46


 2022 0339 07030000 		.4byte	0x307
 2023 033d 0D       		.uleb128 0xd
 2024 033e 04       		.byte	0x4
 2025 033f 12030000 		.4byte	0x312
 2026 0343 0F       		.uleb128 0xf
 2027 0344 57030000 		.4byte	0x357
 2028 0348 57030000 		.4byte	0x357
 2029 034c 10       		.uleb128 0x10
 2030 034d FC020000 		.4byte	0x2fc
 2031 0351 10       		.uleb128 0x10
 2032 0352 E4000000 		.4byte	0xe4
 2033 0356 00       		.byte	0
 2034 0357 0D       		.uleb128 0xd
 2035 0358 04       		.byte	0x4
 2036 0359 5D030000 		.4byte	0x35d
 2037 035d 0E       		.uleb128 0xe
 2038 035e B8000000 		.4byte	0xb8
 2039 0362 0D       		.uleb128 0xd
 2040 0363 04       		.byte	0x4
 2041 0364 43030000 		.4byte	0x343
 2042 0368 0D       		.uleb128 0xd
 2043 0369 04       		.byte	0x4
 2044 036a 6E030000 		.4byte	0x36e
 2045 036e 11       		.uleb128 0x11
 2046 036f 12       		.uleb128 0x12
 2047 0370 04       		.byte	0x4
 2048 0371 02       		.uleb128 0x2
 2049 0372 C81C0000 		.4byte	.LASF66
 2050 0376 05       		.byte	0x5
 2051 0377 54       		.byte	0x54
 2052 0378 74020000 		.4byte	0x274
 2053 037c 07       		.uleb128 0x7
 2054 037d 01       		.byte	0x1
 2055 037e 42000000 		.4byte	0x42
 2056 0382 06       		.byte	0x6
 2057 0383 2A       		.byte	0x2a
 2058 0384 95030000 		.4byte	0x395
 2059 0388 08       		.uleb128 0x8
 2060 0389 88010000 		.4byte	.LASF67
 2061 038d 00       		.byte	0
 2062 038e 08       		.uleb128 0x8
 2063 038f 7A160000 		.4byte	.LASF68
 2064 0393 01       		.byte	0x1
 2065 0394 00       		.byte	0
 2066 0395 02       		.uleb128 0x2
 2067 0396 A5140000 		.4byte	.LASF69
 2068 039a 06       		.byte	0x6
 2069 039b 2F       		.byte	0x2f
 2070 039c B8000000 		.4byte	0xb8
 2071 03a0 03       		.uleb128 0x3
 2072 03a1 04       		.byte	0x4
 2073 03a2 07       		.byte	0x7
 2074 03a3 53000000 		.4byte	.LASF70
 2075 03a7 03       		.uleb128 0x3
 2076 03a8 01       		.byte	0x1
 2077 03a9 08       		.byte	0x8
 2078 03aa 15080000 		.4byte	.LASF71
ARM GAS  C:\Users\haske\AppData\Local\Temp\ccEGgQv3.s 			page 47


 2079 03ae 0D       		.uleb128 0xd
 2080 03af 04       		.byte	0x4
 2081 03b0 B4030000 		.4byte	0x3b4
 2082 03b4 0E       		.uleb128 0xe
 2083 03b5 A7030000 		.4byte	0x3a7
 2084 03b9 05       		.uleb128 0x5
 2085 03ba 02       		.byte	0x2
 2086 03bb 07       		.byte	0x7
 2087 03bc D1       		.byte	0xd1
 2088 03bd EF030000 		.4byte	0x3ef
 2089 03c1 0B       		.uleb128 0xb
 2090 03c2 C0050000 		.4byte	.LASF72
 2091 03c6 07       		.byte	0x7
 2092 03c7 D3       		.byte	0xd3
 2093 03c8 CE000000 		.4byte	0xce
 2094 03cc 02       		.byte	0x2
 2095 03cd 05       		.byte	0x5
 2096 03ce 0B       		.byte	0xb
 2097 03cf 00       		.byte	0
 2098 03d0 0B       		.uleb128 0xb
 2099 03d1 C21C0000 		.4byte	.LASF73
 2100 03d5 07       		.byte	0x7
 2101 03d6 D4       		.byte	0xd4
 2102 03d7 CE000000 		.4byte	0xce
 2103 03db 02       		.byte	0x2
 2104 03dc 06       		.byte	0x6
 2105 03dd 05       		.byte	0x5
 2106 03de 00       		.byte	0
 2107 03df 0A       		.uleb128 0xa
 2108 03e0 72656400 		.ascii	"red\000"
 2109 03e4 07       		.byte	0x7
 2110 03e5 D5       		.byte	0xd5
 2111 03e6 CE000000 		.4byte	0xce
 2112 03ea 02       		.byte	0x2
 2113 03eb 05       		.byte	0x5
 2114 03ec 00       		.byte	0
 2115 03ed 00       		.byte	0
 2116 03ee 00       		.byte	0
 2117 03ef 13       		.uleb128 0x13
 2118 03f0 02       		.byte	0x2
 2119 03f1 07       		.byte	0x7
 2120 03f2 D0       		.byte	0xd0
 2121 03f3 0D040000 		.4byte	0x40d
 2122 03f7 14       		.uleb128 0x14
 2123 03f8 636800   		.ascii	"ch\000"
 2124 03fb 07       		.byte	0x7
 2125 03fc DC       		.byte	0xdc
 2126 03fd B9030000 		.4byte	0x3b9
 2127 0401 15       		.uleb128 0x15
 2128 0402 AB170000 		.4byte	.LASF74
 2129 0406 07       		.byte	0x7
 2130 0407 DD       		.byte	0xdd
 2131 0408 CE000000 		.4byte	0xce
 2132 040c 00       		.byte	0
 2133 040d 02       		.uleb128 0x2
 2134 040e 84180000 		.4byte	.LASF75
 2135 0412 07       		.byte	0x7
ARM GAS  C:\Users\haske\AppData\Local\Temp\ccEGgQv3.s 			page 48


 2136 0413 DE       		.byte	0xde
 2137 0414 EF030000 		.4byte	0x3ef
 2138 0418 02       		.uleb128 0x2
 2139 0419 9E160000 		.4byte	.LASF76
 2140 041d 07       		.byte	0x7
 2141 041e EB       		.byte	0xeb
 2142 041f 0D040000 		.4byte	0x40d
 2143 0423 07       		.uleb128 0x7
 2144 0424 01       		.byte	0x1
 2145 0425 42000000 		.4byte	0x42
 2146 0429 08       		.byte	0x8
 2147 042a 21       		.byte	0x21
 2148 042b 4E040000 		.4byte	0x44e
 2149 042f 08       		.uleb128 0x8
 2150 0430 471E0000 		.4byte	.LASF77
 2151 0434 00       		.byte	0
 2152 0435 08       		.uleb128 0x8
 2153 0436 26040000 		.4byte	.LASF78
 2154 043a 01       		.byte	0x1
 2155 043b 08       		.uleb128 0x8
 2156 043c F61E0000 		.4byte	.LASF79
 2157 0440 02       		.byte	0x2
 2158 0441 08       		.uleb128 0x8
 2159 0442 B9100000 		.4byte	.LASF80
 2160 0446 20       		.byte	0x20
 2161 0447 08       		.uleb128 0x8
 2162 0448 CE060000 		.4byte	.LASF81
 2163 044c 21       		.byte	0x21
 2164 044d 00       		.byte	0
 2165 044e 13       		.uleb128 0x13
 2166 044f 04       		.byte	0x4
 2167 0450 09       		.byte	0x9
 2168 0451 A7       		.byte	0xa7
 2169 0452 78040000 		.4byte	0x478
 2170 0456 14       		.uleb128 0x14
 2171 0457 6E756D00 		.ascii	"num\000"
 2172 045b 09       		.byte	0x9
 2173 045c A8       		.byte	0xa8
 2174 045d D9000000 		.4byte	0xd9
 2175 0461 14       		.uleb128 0x14
 2176 0462 70747200 		.ascii	"ptr\000"
 2177 0466 09       		.byte	0x9
 2178 0467 A9       		.byte	0xa9
 2179 0468 68030000 		.4byte	0x368
 2180 046c 15       		.uleb128 0x15
 2181 046d CC170000 		.4byte	.LASF82
 2182 0471 09       		.byte	0x9
 2183 0472 AA       		.byte	0xaa
 2184 0473 18040000 		.4byte	0x418
 2185 0477 00       		.byte	0
 2186 0478 02       		.uleb128 0x2
 2187 0479 1A120000 		.4byte	.LASF83
 2188 047d 09       		.byte	0x9
 2189 047e AB       		.byte	0xab
 2190 047f 4E040000 		.4byte	0x44e
 2191 0483 07       		.uleb128 0x7
 2192 0484 02       		.byte	0x2
ARM GAS  C:\Users\haske\AppData\Local\Temp\ccEGgQv3.s 			page 49


 2193 0485 66000000 		.4byte	0x66
 2194 0489 09       		.byte	0x9
 2195 048a B2       		.byte	0xb2
 2196 048b A8060000 		.4byte	0x6a8
 2197 048f 08       		.uleb128 0x8
 2198 0490 750B0000 		.4byte	.LASF84
 2199 0494 00       		.byte	0
 2200 0495 08       		.uleb128 0x8
 2201 0496 A9160000 		.4byte	.LASF85
 2202 049a 01       		.byte	0x1
 2203 049b 08       		.uleb128 0x8
 2204 049c B8160000 		.4byte	.LASF86
 2205 04a0 02       		.byte	0x2
 2206 04a1 08       		.uleb128 0x8
 2207 04a2 DB020000 		.4byte	.LASF87
 2208 04a6 03       		.byte	0x3
 2209 04a7 08       		.uleb128 0x8
 2210 04a8 6F010000 		.4byte	.LASF88
 2211 04ac 04       		.byte	0x4
 2212 04ad 08       		.uleb128 0x8
 2213 04ae 411B0000 		.4byte	.LASF89
 2214 04b2 05       		.byte	0x5
 2215 04b3 08       		.uleb128 0x8
 2216 04b4 15180000 		.4byte	.LASF90
 2217 04b8 06       		.byte	0x6
 2218 04b9 08       		.uleb128 0x8
 2219 04ba D81B0000 		.4byte	.LASF91
 2220 04be 07       		.byte	0x7
 2221 04bf 08       		.uleb128 0x8
 2222 04c0 E31B0000 		.4byte	.LASF92
 2223 04c4 08       		.byte	0x8
 2224 04c5 08       		.uleb128 0x8
 2225 04c6 08060000 		.4byte	.LASF93
 2226 04ca 09       		.byte	0x9
 2227 04cb 08       		.uleb128 0x8
 2228 04cc 46130000 		.4byte	.LASF94
 2229 04d0 0A       		.byte	0xa
 2230 04d1 08       		.uleb128 0x8
 2231 04d2 9A020000 		.4byte	.LASF95
 2232 04d6 0B       		.byte	0xb
 2233 04d7 08       		.uleb128 0x8
 2234 04d8 331A0000 		.4byte	.LASF96
 2235 04dc 10       		.byte	0x10
 2236 04dd 08       		.uleb128 0x8
 2237 04de 4F0C0000 		.4byte	.LASF97
 2238 04e2 11       		.byte	0x11
 2239 04e3 08       		.uleb128 0x8
 2240 04e4 C50E0000 		.4byte	.LASF98
 2241 04e8 12       		.byte	0x12
 2242 04e9 08       		.uleb128 0x8
 2243 04ea 59030000 		.4byte	.LASF99
 2244 04ee 13       		.byte	0x13
 2245 04ef 08       		.uleb128 0x8
 2246 04f0 830E0000 		.4byte	.LASF100
 2247 04f4 14       		.byte	0x14
 2248 04f5 08       		.uleb128 0x8
 2249 04f6 4A020000 		.4byte	.LASF101
ARM GAS  C:\Users\haske\AppData\Local\Temp\ccEGgQv3.s 			page 50


 2250 04fa 15       		.byte	0x15
 2251 04fb 08       		.uleb128 0x8
 2252 04fc 65080000 		.4byte	.LASF102
 2253 0500 16       		.byte	0x16
 2254 0501 08       		.uleb128 0x8
 2255 0502 E8130000 		.4byte	.LASF103
 2256 0506 17       		.byte	0x17
 2257 0507 08       		.uleb128 0x8
 2258 0508 F1080000 		.4byte	.LASF104
 2259 050c 20       		.byte	0x20
 2260 050d 08       		.uleb128 0x8
 2261 050e B20C0000 		.4byte	.LASF105
 2262 0512 21       		.byte	0x21
 2263 0513 08       		.uleb128 0x8
 2264 0514 45180000 		.4byte	.LASF106
 2265 0518 22       		.byte	0x22
 2266 0519 08       		.uleb128 0x8
 2267 051a 9A050000 		.4byte	.LASF107
 2268 051e 23       		.byte	0x23
 2269 051f 08       		.uleb128 0x8
 2270 0520 F30C0000 		.4byte	.LASF108
 2271 0524 24       		.byte	0x24
 2272 0525 08       		.uleb128 0x8
 2273 0526 0B160000 		.4byte	.LASF109
 2274 052a 25       		.byte	0x25
 2275 052b 08       		.uleb128 0x8
 2276 052c 1A1F0000 		.4byte	.LASF110
 2277 0530 26       		.byte	0x26
 2278 0531 08       		.uleb128 0x8
 2279 0532 6F020000 		.4byte	.LASF111
 2280 0536 27       		.byte	0x27
 2281 0537 08       		.uleb128 0x8
 2282 0538 10170000 		.4byte	.LASF112
 2283 053c 28       		.byte	0x28
 2284 053d 08       		.uleb128 0x8
 2285 053e 681A0000 		.4byte	.LASF113
 2286 0542 29       		.byte	0x29
 2287 0543 08       		.uleb128 0x8
 2288 0544 EE020000 		.4byte	.LASF114
 2289 0548 2A       		.byte	0x2a
 2290 0549 08       		.uleb128 0x8
 2291 054a AB030000 		.4byte	.LASF115
 2292 054e 2B       		.byte	0x2b
 2293 054f 08       		.uleb128 0x8
 2294 0550 5C040000 		.4byte	.LASF116
 2295 0554 2C       		.byte	0x2c
 2296 0555 08       		.uleb128 0x8
 2297 0556 85150000 		.4byte	.LASF117
 2298 055a 30       		.byte	0x30
 2299 055b 08       		.uleb128 0x8
 2300 055c 91040000 		.4byte	.LASF118
 2301 0560 31       		.byte	0x31
 2302 0561 08       		.uleb128 0x8
 2303 0562 0B020000 		.4byte	.LASF119
 2304 0566 32       		.byte	0x32
 2305 0567 08       		.uleb128 0x8
 2306 0568 21160000 		.4byte	.LASF120
ARM GAS  C:\Users\haske\AppData\Local\Temp\ccEGgQv3.s 			page 51


 2307 056c 33       		.byte	0x33
 2308 056d 08       		.uleb128 0x8
 2309 056e C31B0000 		.4byte	.LASF121
 2310 0572 34       		.byte	0x34
 2311 0573 08       		.uleb128 0x8
 2312 0574 C60A0000 		.4byte	.LASF122
 2313 0578 35       		.byte	0x35
 2314 0579 08       		.uleb128 0x8
 2315 057a 731D0000 		.4byte	.LASF123
 2316 057e 36       		.byte	0x36
 2317 057f 08       		.uleb128 0x8
 2318 0580 84080000 		.4byte	.LASF124
 2319 0584 37       		.byte	0x37
 2320 0585 08       		.uleb128 0x8
 2321 0586 631F0000 		.4byte	.LASF125
 2322 058a 38       		.byte	0x38
 2323 058b 08       		.uleb128 0x8
 2324 058c A6130000 		.4byte	.LASF126
 2325 0590 40       		.byte	0x40
 2326 0591 08       		.uleb128 0x8
 2327 0592 CB160000 		.4byte	.LASF127
 2328 0596 41       		.byte	0x41
 2329 0597 08       		.uleb128 0x8
 2330 0598 E1160000 		.4byte	.LASF128
 2331 059c 42       		.byte	0x42
 2332 059d 08       		.uleb128 0x8
 2333 059e CE1D0000 		.4byte	.LASF129
 2334 05a2 43       		.byte	0x43
 2335 05a3 08       		.uleb128 0x8
 2336 05a4 D5040000 		.4byte	.LASF130
 2337 05a8 44       		.byte	0x44
 2338 05a9 08       		.uleb128 0x8
 2339 05aa 06030000 		.4byte	.LASF131
 2340 05ae 45       		.byte	0x45
 2341 05af 08       		.uleb128 0x8
 2342 05b0 500D0000 		.4byte	.LASF132
 2343 05b4 46       		.byte	0x46
 2344 05b5 08       		.uleb128 0x8
 2345 05b6 A4060000 		.4byte	.LASF133
 2346 05ba 47       		.byte	0x47
 2347 05bb 08       		.uleb128 0x8
 2348 05bc 03090000 		.4byte	.LASF134
 2349 05c0 48       		.byte	0x48
 2350 05c1 08       		.uleb128 0x8
 2351 05c2 7C1A0000 		.4byte	.LASF135
 2352 05c6 49       		.byte	0x49
 2353 05c7 08       		.uleb128 0x8
 2354 05c8 E8090000 		.4byte	.LASF136
 2355 05cc 4A       		.byte	0x4a
 2356 05cd 08       		.uleb128 0x8
 2357 05ce 75000000 		.4byte	.LASF137
 2358 05d2 4B       		.byte	0x4b
 2359 05d3 08       		.uleb128 0x8
 2360 05d4 EE1B0000 		.4byte	.LASF138
 2361 05d8 4C       		.byte	0x4c
 2362 05d9 08       		.uleb128 0x8
 2363 05da 520E0000 		.4byte	.LASF139
ARM GAS  C:\Users\haske\AppData\Local\Temp\ccEGgQv3.s 			page 52


 2364 05de 4D       		.byte	0x4d
 2365 05df 08       		.uleb128 0x8
 2366 05e0 C20C0000 		.4byte	.LASF140
 2367 05e4 4E       		.byte	0x4e
 2368 05e5 08       		.uleb128 0x8
 2369 05e6 DF060000 		.4byte	.LASF141
 2370 05ea 50       		.byte	0x50
 2371 05eb 08       		.uleb128 0x8
 2372 05ec 10110000 		.4byte	.LASF142
 2373 05f0 51       		.byte	0x51
 2374 05f1 08       		.uleb128 0x8
 2375 05f2 46190000 		.4byte	.LASF143
 2376 05f6 52       		.byte	0x52
 2377 05f7 08       		.uleb128 0x8
 2378 05f8 9D000000 		.4byte	.LASF144
 2379 05fc 53       		.byte	0x53
 2380 05fd 08       		.uleb128 0x8
 2381 05fe 24170000 		.4byte	.LASF145
 2382 0602 54       		.byte	0x54
 2383 0603 08       		.uleb128 0x8
 2384 0604 B8110000 		.4byte	.LASF146
 2385 0608 55       		.byte	0x55
 2386 0609 08       		.uleb128 0x8
 2387 060a E00D0000 		.4byte	.LASF147
 2388 060e 56       		.byte	0x56
 2389 060f 08       		.uleb128 0x8
 2390 0610 79170000 		.4byte	.LASF148
 2391 0614 57       		.byte	0x57
 2392 0615 08       		.uleb128 0x8
 2393 0616 821F0000 		.4byte	.LASF149
 2394 061a 58       		.byte	0x58
 2395 061b 08       		.uleb128 0x8
 2396 061c 870B0000 		.4byte	.LASF150
 2397 0620 59       		.byte	0x59
 2398 0621 08       		.uleb128 0x8
 2399 0622 FC100000 		.4byte	.LASF151
 2400 0626 5A       		.byte	0x5a
 2401 0627 08       		.uleb128 0x8
 2402 0628 310F0000 		.4byte	.LASF152
 2403 062c 5B       		.byte	0x5b
 2404 062d 08       		.uleb128 0x8
 2405 062e 33000000 		.4byte	.LASF153
 2406 0632 60       		.byte	0x60
 2407 0633 08       		.uleb128 0x8
 2408 0634 86100000 		.4byte	.LASF154
 2409 0638 61       		.byte	0x61
 2410 0639 08       		.uleb128 0x8
 2411 063a AE140000 		.4byte	.LASF155
 2412 063e 62       		.byte	0x62
 2413 063f 08       		.uleb128 0x8
 2414 0640 0D0F0000 		.4byte	.LASF156
 2415 0644 63       		.byte	0x63
 2416 0645 08       		.uleb128 0x8
 2417 0646 3C0C0000 		.4byte	.LASF157
 2418 064a 64       		.byte	0x64
 2419 064b 08       		.uleb128 0x8
 2420 064c 780A0000 		.4byte	.LASF158
ARM GAS  C:\Users\haske\AppData\Local\Temp\ccEGgQv3.s 			page 53


 2421 0650 65       		.byte	0x65
 2422 0651 08       		.uleb128 0x8
 2423 0652 82030000 		.4byte	.LASF159
 2424 0656 66       		.byte	0x66
 2425 0657 08       		.uleb128 0x8
 2426 0658 1C090000 		.4byte	.LASF160
 2427 065c 67       		.byte	0x67
 2428 065d 08       		.uleb128 0x8
 2429 065e 130A0000 		.4byte	.LASF161
 2430 0662 68       		.byte	0x68
 2431 0663 08       		.uleb128 0x8
 2432 0664 28030000 		.4byte	.LASF162
 2433 0668 69       		.byte	0x69
 2434 0669 08       		.uleb128 0x8
 2435 066a 1C070000 		.4byte	.LASF163
 2436 066e 6A       		.byte	0x6a
 2437 066f 08       		.uleb128 0x8
 2438 0670 31070000 		.4byte	.LASF164
 2439 0674 6B       		.byte	0x6b
 2440 0675 08       		.uleb128 0x8
 2441 0676 8C0A0000 		.4byte	.LASF165
 2442 067a 6C       		.byte	0x6c
 2443 067b 08       		.uleb128 0x8
 2444 067c 6D100000 		.4byte	.LASF166
 2445 0680 6D       		.byte	0x6d
 2446 0681 08       		.uleb128 0x8
 2447 0682 4F060000 		.4byte	.LASF167
 2448 0686 6E       		.byte	0x6e
 2449 0687 08       		.uleb128 0x8
 2450 0688 6A060000 		.4byte	.LASF168
 2451 068c 6F       		.byte	0x6f
 2452 068d 08       		.uleb128 0x8
 2453 068e C7010000 		.4byte	.LASF169
 2454 0692 6F       		.byte	0x6f
 2455 0693 08       		.uleb128 0x8
 2456 0694 011A0000 		.4byte	.LASF170
 2457 0698 70       		.byte	0x70
 2458 0699 16       		.uleb128 0x16
 2459 069a 8C170000 		.4byte	.LASF171
 2460 069e FFFF     		.2byte	0xffff
 2461 06a0 16       		.uleb128 0x16
 2462 06a1 6E120000 		.4byte	.LASF172
 2463 06a5 FFFF     		.2byte	0xffff
 2464 06a7 00       		.byte	0
 2465 06a8 17       		.uleb128 0x17
 2466 06a9 340A0000 		.4byte	.LASF173
 2467 06ad 09       		.byte	0x9
 2468 06ae 1C01     		.2byte	0x11c
 2469 06b0 83040000 		.4byte	0x483
 2470 06b4 18       		.uleb128 0x18
 2471 06b5 08       		.byte	0x8
 2472 06b6 09       		.byte	0x9
 2473 06b7 3601     		.2byte	0x136
 2474 06b9 D8060000 		.4byte	0x6d8
 2475 06bd 19       		.uleb128 0x19
 2476 06be 50090000 		.4byte	.LASF174
 2477 06c2 09       		.byte	0x9
ARM GAS  C:\Users\haske\AppData\Local\Temp\ccEGgQv3.s 			page 54


 2478 06c3 3701     		.2byte	0x137
 2479 06c5 A8060000 		.4byte	0x6a8
 2480 06c9 00       		.byte	0
 2481 06ca 19       		.uleb128 0x19
 2482 06cb E8070000 		.4byte	.LASF175
 2483 06cf 09       		.byte	0x9
 2484 06d0 3801     		.2byte	0x138
 2485 06d2 78040000 		.4byte	0x478
 2486 06d6 04       		.byte	0x4
 2487 06d7 00       		.byte	0
 2488 06d8 17       		.uleb128 0x17
 2489 06d9 AF0B0000 		.4byte	.LASF176
 2490 06dd 09       		.byte	0x9
 2491 06de 3901     		.2byte	0x139
 2492 06e0 B4060000 		.4byte	0x6b4
 2493 06e4 1A       		.uleb128 0x1a
 2494 06e5 04       		.byte	0x4
 2495 06e6 09       		.byte	0x9
 2496 06e7 4601     		.2byte	0x146
 2497 06e9 12070000 		.4byte	0x712
 2498 06ed 1B       		.uleb128 0x1b
 2499 06ee 39170000 		.4byte	.LASF177
 2500 06f2 09       		.byte	0x9
 2501 06f3 4701     		.2byte	0x147
 2502 06f5 78040000 		.4byte	0x478
 2503 06f9 1B       		.uleb128 0x1b
 2504 06fa 5C0A0000 		.4byte	.LASF178
 2505 06fe 09       		.byte	0x9
 2506 06ff 4801     		.2byte	0x148
 2507 0701 12070000 		.4byte	0x712
 2508 0705 1B       		.uleb128 0x1b
 2509 0706 78090000 		.4byte	.LASF179
 2510 070a 09       		.byte	0x9
 2511 070b 4901     		.2byte	0x149
 2512 070d 18070000 		.4byte	0x718
 2513 0711 00       		.byte	0
 2514 0712 0D       		.uleb128 0xd
 2515 0713 04       		.byte	0x4
 2516 0714 B8000000 		.4byte	0xb8
 2517 0718 0D       		.uleb128 0xd
 2518 0719 04       		.byte	0x4
 2519 071a 1E070000 		.4byte	0x71e
 2520 071e 0E       		.uleb128 0xe
 2521 071f D8060000 		.4byte	0x6d8
 2522 0723 18       		.uleb128 0x18
 2523 0724 08       		.byte	0x8
 2524 0725 09       		.byte	0x9
 2525 0726 3E01     		.2byte	0x13e
 2526 0728 61070000 		.4byte	0x761
 2527 072c 1C       		.uleb128 0x1c
 2528 072d 765F7000 		.ascii	"v_p\000"
 2529 0731 09       		.byte	0x9
 2530 0732 4A01     		.2byte	0x14a
 2531 0734 E4060000 		.4byte	0x6e4
 2532 0738 00       		.byte	0
 2533 0739 19       		.uleb128 0x19
 2534 073a 0C1B0000 		.4byte	.LASF180
ARM GAS  C:\Users\haske\AppData\Local\Temp\ccEGgQv3.s 			page 55


 2535 073e 09       		.byte	0x9
 2536 073f 4C01     		.2byte	0x14c
 2537 0741 CE000000 		.4byte	0xce
 2538 0745 04       		.byte	0x4
 2539 0746 19       		.uleb128 0x19
 2540 0747 CA000000 		.4byte	.LASF181
 2541 074b 09       		.byte	0x9
 2542 074c 4D01     		.2byte	0x14d
 2543 074e B8000000 		.4byte	0xb8
 2544 0752 06       		.byte	0x6
 2545 0753 19       		.uleb128 0x19
 2546 0754 14000000 		.4byte	.LASF182
 2547 0758 09       		.byte	0x9
 2548 0759 4E01     		.2byte	0x14e
 2549 075b B8000000 		.4byte	0xb8
 2550 075f 07       		.byte	0x7
 2551 0760 00       		.byte	0
 2552 0761 17       		.uleb128 0x17
 2553 0762 D40C0000 		.4byte	.LASF183
 2554 0766 09       		.byte	0x9
 2555 0767 4F01     		.2byte	0x14f
 2556 0769 23070000 		.4byte	0x723
 2557 076d 0D       		.uleb128 0xd
 2558 076e 04       		.byte	0x4
 2559 076f 73070000 		.4byte	0x773
 2560 0773 0C       		.uleb128 0xc
 2561 0774 0B180000 		.4byte	.LASF185
 2562 0778 24       		.byte	0x24
 2563 0779 0A       		.byte	0xa
 2564 077a AE       		.byte	0xae
 2565 077b 3A080000 		.4byte	0x83a
 2566 077f 09       		.uleb128 0x9
 2567 0780 DC110000 		.4byte	.LASF186
 2568 0784 0A       		.byte	0xa
 2569 0785 AF       		.byte	0xaf
 2570 0786 060F0000 		.4byte	0xf06
 2571 078a 00       		.byte	0
 2572 078b 09       		.uleb128 0x9
 2573 078c F00B0000 		.4byte	.LASF187
 2574 0790 0A       		.byte	0xa
 2575 0791 B0       		.byte	0xb0
 2576 0792 6D070000 		.4byte	0x76d
 2577 0796 04       		.byte	0x4
 2578 0797 09       		.uleb128 0x9
 2579 0798 2F010000 		.4byte	.LASF188
 2580 079c 0A       		.byte	0xa
 2581 079d B1       		.byte	0xb1
 2582 079e 110F0000 		.4byte	0xf11
 2583 07a2 08       		.byte	0x8
 2584 07a3 09       		.uleb128 0x9
 2585 07a4 3F0D0000 		.4byte	.LASF189
 2586 07a8 0A       		.byte	0xa
 2587 07a9 B2       		.byte	0xb2
 2588 07aa 170F0000 		.4byte	0xf17
 2589 07ae 0C       		.byte	0xc
 2590 07af 09       		.uleb128 0x9
 2591 07b0 8A1D0000 		.4byte	.LASF63
ARM GAS  C:\Users\haske\AppData\Local\Temp\ccEGgQv3.s 			page 56


 2592 07b4 0A       		.byte	0xa
 2593 07b5 B4       		.byte	0xb4
 2594 07b6 6F030000 		.4byte	0x36f
 2595 07ba 10       		.byte	0x10
 2596 07bb 09       		.uleb128 0x9
 2597 07bc 7A190000 		.4byte	.LASF190
 2598 07c0 0A       		.byte	0xa
 2599 07c1 B6       		.byte	0xb6
 2600 07c2 5E010000 		.4byte	0x15e
 2601 07c6 14       		.byte	0x14
 2602 07c7 09       		.uleb128 0x9
 2603 07c8 EE070000 		.4byte	.LASF191
 2604 07cc 0A       		.byte	0xa
 2605 07cd B7       		.byte	0xb7
 2606 07ce DC0A0000 		.4byte	0xadc
 2607 07d2 1C       		.byte	0x1c
 2608 07d3 09       		.uleb128 0x9
 2609 07d4 69010000 		.4byte	.LASF192
 2610 07d8 0A       		.byte	0xa
 2611 07d9 B8       		.byte	0xb8
 2612 07da 85090000 		.4byte	0x985
 2613 07de 20       		.byte	0x20
 2614 07df 0B       		.uleb128 0xb
 2615 07e0 F5040000 		.4byte	.LASF193
 2616 07e4 0A       		.byte	0xa
 2617 07e5 B9       		.byte	0xb9
 2618 07e6 CE000000 		.4byte	0xce
 2619 07ea 02       		.byte	0x2
 2620 07eb 01       		.byte	0x1
 2621 07ec 0F       		.byte	0xf
 2622 07ed 22       		.byte	0x22
 2623 07ee 0B       		.uleb128 0xb
 2624 07ef CC020000 		.4byte	.LASF194
 2625 07f3 0A       		.byte	0xa
 2626 07f4 BA       		.byte	0xba
 2627 07f5 CE000000 		.4byte	0xce
 2628 07f9 02       		.byte	0x2
 2629 07fa 01       		.byte	0x1
 2630 07fb 0E       		.byte	0xe
 2631 07fc 22       		.byte	0x22
 2632 07fd 0B       		.uleb128 0xb
 2633 07fe 3B110000 		.4byte	.LASF195
 2634 0802 0A       		.byte	0xa
 2635 0803 BB       		.byte	0xbb
 2636 0804 CE000000 		.4byte	0xce
 2637 0808 02       		.byte	0x2
 2638 0809 01       		.byte	0x1
 2639 080a 0D       		.byte	0xd
 2640 080b 22       		.byte	0x22
 2641 080c 0B       		.uleb128 0xb
 2642 080d EB040000 		.4byte	.LASF196
 2643 0811 0A       		.byte	0xa
 2644 0812 BC       		.byte	0xbc
 2645 0813 CE000000 		.4byte	0xce
 2646 0817 02       		.byte	0x2
 2647 0818 06       		.byte	0x6
 2648 0819 07       		.byte	0x7
ARM GAS  C:\Users\haske\AppData\Local\Temp\ccEGgQv3.s 			page 57


 2649 081a 22       		.byte	0x22
 2650 081b 0B       		.uleb128 0xb
 2651 081c FE060000 		.4byte	.LASF197
 2652 0820 0A       		.byte	0xa
 2653 0821 BD       		.byte	0xbd
 2654 0822 CE000000 		.4byte	0xce
 2655 0826 02       		.byte	0x2
 2656 0827 01       		.byte	0x1
 2657 0828 06       		.byte	0x6
 2658 0829 22       		.byte	0x22
 2659 082a 0B       		.uleb128 0xb
 2660 082b 91020000 		.4byte	.LASF198
 2661 082f 0A       		.byte	0xa
 2662 0830 BE       		.byte	0xbe
 2663 0831 CE000000 		.4byte	0xce
 2664 0835 02       		.byte	0x2
 2665 0836 01       		.byte	0x1
 2666 0837 05       		.byte	0x5
 2667 0838 22       		.byte	0x22
 2668 0839 00       		.byte	0
 2669 083a 0E       		.uleb128 0xe
 2670 083b 71030000 		.4byte	0x371
 2671 083f 0D       		.uleb128 0xd
 2672 0840 04       		.byte	0x4
 2673 0841 5E010000 		.4byte	0x15e
 2674 0845 02       		.uleb128 0x2
 2675 0846 40000000 		.4byte	.LASF199
 2676 084a 0B       		.byte	0xb
 2677 084b 1D       		.byte	0x1d
 2678 084c B8000000 		.4byte	0xb8
 2679 0850 05       		.uleb128 0x5
 2680 0851 0C       		.byte	0xc
 2681 0852 0B       		.byte	0xb
 2682 0853 20       		.byte	0x20
 2683 0854 7D080000 		.4byte	0x87d
 2684 0858 09       		.uleb128 0x9
 2685 0859 071F0000 		.4byte	.LASF200
 2686 085d 0B       		.byte	0xb
 2687 085e 21       		.byte	0x21
 2688 085f E4000000 		.4byte	0xe4
 2689 0863 00       		.byte	0
 2690 0864 09       		.uleb128 0x9
 2691 0865 8C040000 		.4byte	.LASF201
 2692 0869 0B       		.byte	0xb
 2693 086a 22       		.byte	0x22
 2694 086b 7D080000 		.4byte	0x87d
 2695 086f 04       		.byte	0x4
 2696 0870 09       		.uleb128 0x9
 2697 0871 8C000000 		.4byte	.LASF202
 2698 0875 0B       		.byte	0xb
 2699 0876 23       		.byte	0x23
 2700 0877 7D080000 		.4byte	0x87d
 2701 087b 08       		.byte	0x8
 2702 087c 00       		.byte	0
 2703 087d 0D       		.uleb128 0xd
 2704 087e 04       		.byte	0x4
 2705 087f 45080000 		.4byte	0x845
ARM GAS  C:\Users\haske\AppData\Local\Temp\ccEGgQv3.s 			page 58


 2706 0883 02       		.uleb128 0x2
 2707 0884 AB180000 		.4byte	.LASF203
 2708 0888 0B       		.byte	0xb
 2709 0889 24       		.byte	0x24
 2710 088a 50080000 		.4byte	0x850
 2711 088e 0D       		.uleb128 0xd
 2712 088f 04       		.byte	0x4
 2713 0890 6D070000 		.4byte	0x76d
 2714 0894 0C       		.uleb128 0xc
 2715 0895 0E1F0000 		.4byte	.LASF204
 2716 0899 20       		.byte	0x20
 2717 089a 0C       		.byte	0xc
 2718 089b 3B       		.byte	0x3b
 2719 089c 19090000 		.4byte	0x919
 2720 08a0 09       		.uleb128 0x9
 2721 08a1 4B0E0000 		.4byte	.LASF205
 2722 08a5 0C       		.byte	0xc
 2723 08a6 3C       		.byte	0x3c
 2724 08a7 83080000 		.4byte	0x883
 2725 08ab 00       		.byte	0
 2726 08ac 09       		.uleb128 0x9
 2727 08ad 781F0000 		.4byte	.LASF206
 2728 08b1 0C       		.byte	0xc
 2729 08b2 3D       		.byte	0x3d
 2730 08b3 8E080000 		.4byte	0x88e
 2731 08b7 0C       		.byte	0xc
 2732 08b8 09       		.uleb128 0x9
 2733 08b9 8B140000 		.4byte	.LASF207
 2734 08bd 0C       		.byte	0xc
 2735 08be 3F       		.byte	0x3f
 2736 08bf EB0D0000 		.4byte	0xdeb
 2737 08c3 10       		.byte	0x10
 2738 08c4 09       		.uleb128 0x9
 2739 08c5 54040000 		.4byte	.LASF208
 2740 08c9 0C       		.byte	0xc
 2741 08ca 40       		.byte	0x40
 2742 08cb 070E0000 		.4byte	0xe07
 2743 08cf 14       		.byte	0x14
 2744 08d0 09       		.uleb128 0x9
 2745 08d1 8A1D0000 		.4byte	.LASF63
 2746 08d5 0C       		.byte	0xc
 2747 08d6 45       		.byte	0x45
 2748 08d7 6F030000 		.4byte	0x36f
 2749 08db 18       		.byte	0x18
 2750 08dc 0B       		.uleb128 0xb
 2751 08dd C9040000 		.4byte	.LASF209
 2752 08e1 0C       		.byte	0xc
 2753 08e2 48       		.byte	0x48
 2754 08e3 B8000000 		.4byte	0xb8
 2755 08e7 01       		.byte	0x1
 2756 08e8 01       		.byte	0x1
 2757 08e9 07       		.byte	0x7
 2758 08ea 1C       		.byte	0x1c
 2759 08eb 0B       		.uleb128 0xb
 2760 08ec B6150000 		.4byte	.LASF210
 2761 08f0 0C       		.byte	0xc
 2762 08f1 49       		.byte	0x49
ARM GAS  C:\Users\haske\AppData\Local\Temp\ccEGgQv3.s 			page 59


 2763 08f2 B8000000 		.4byte	0xb8
 2764 08f6 01       		.byte	0x1
 2765 08f7 01       		.byte	0x1
 2766 08f8 06       		.byte	0x6
 2767 08f9 1C       		.byte	0x1c
 2768 08fa 0B       		.uleb128 0xb
 2769 08fb 381E0000 		.4byte	.LASF211
 2770 08ff 0C       		.byte	0xc
 2771 0900 4A       		.byte	0x4a
 2772 0901 B8000000 		.4byte	0xb8
 2773 0905 01       		.byte	0x1
 2774 0906 01       		.byte	0x1
 2775 0907 05       		.byte	0x5
 2776 0908 1C       		.byte	0x1c
 2777 0909 0B       		.uleb128 0xb
 2778 090a 99160000 		.4byte	.LASF212
 2779 090e 0C       		.byte	0xc
 2780 090f 4C       		.byte	0x4c
 2781 0910 B8000000 		.4byte	0xb8
 2782 0914 01       		.byte	0x1
 2783 0915 01       		.byte	0x1
 2784 0916 04       		.byte	0x4
 2785 0917 1C       		.byte	0x1c
 2786 0918 00       		.byte	0
 2787 0919 0D       		.uleb128 0xd
 2788 091a 04       		.byte	0x4
 2789 091b 94080000 		.4byte	0x894
 2790 091f 07       		.uleb128 0x7
 2791 0920 02       		.byte	0x2
 2792 0921 66000000 		.4byte	0x66
 2793 0925 0A       		.byte	0xa
 2794 0926 29       		.byte	0x29
 2795 0927 85090000 		.4byte	0x985
 2796 092b 08       		.uleb128 0x8
 2797 092c 62180000 		.4byte	.LASF213
 2798 0930 00       		.byte	0
 2799 0931 08       		.uleb128 0x8
 2800 0932 C9190000 		.4byte	.LASF214
 2801 0936 01       		.byte	0x1
 2802 0937 08       		.uleb128 0x8
 2803 0938 571E0000 		.4byte	.LASF215
 2804 093c 02       		.byte	0x2
 2805 093d 08       		.uleb128 0x8
 2806 093e D8030000 		.4byte	.LASF216
 2807 0942 04       		.byte	0x4
 2808 0943 08       		.uleb128 0x8
 2809 0944 AA090000 		.4byte	.LASF217
 2810 0948 08       		.byte	0x8
 2811 0949 08       		.uleb128 0x8
 2812 094a C7030000 		.4byte	.LASF218
 2813 094e 10       		.byte	0x10
 2814 094f 08       		.uleb128 0x8
 2815 0950 94140000 		.4byte	.LASF219
 2816 0954 20       		.byte	0x20
 2817 0955 08       		.uleb128 0x8
 2818 0956 A4080000 		.4byte	.LASF220
 2819 095a 40       		.byte	0x40
ARM GAS  C:\Users\haske\AppData\Local\Temp\ccEGgQv3.s 			page 60


 2820 095b 08       		.uleb128 0x8
 2821 095c 940E0000 		.4byte	.LASF221
 2822 0960 80       		.byte	0x80
 2823 0961 16       		.uleb128 0x16
 2824 0962 551B0000 		.4byte	.LASF222
 2825 0966 0010     		.2byte	0x1000
 2826 0968 16       		.uleb128 0x16
 2827 0969 651B0000 		.4byte	.LASF223
 2828 096d 0020     		.2byte	0x2000
 2829 096f 16       		.uleb128 0x16
 2830 0970 751B0000 		.4byte	.LASF224
 2831 0974 0040     		.2byte	0x4000
 2832 0976 16       		.uleb128 0x16
 2833 0977 851B0000 		.4byte	.LASF225
 2834 097b 0080     		.2byte	0x8000
 2835 097d 16       		.uleb128 0x16
 2836 097e A5040000 		.4byte	.LASF226
 2837 0982 FFFF     		.2byte	0xffff
 2838 0984 00       		.byte	0
 2839 0985 02       		.uleb128 0x2
 2840 0986 03040000 		.4byte	.LASF227
 2841 098a 0A       		.byte	0xa
 2842 098b 3C       		.byte	0x3c
 2843 098c CE000000 		.4byte	0xce
 2844 0990 07       		.uleb128 0x7
 2845 0991 04       		.byte	0x4
 2846 0992 A6000000 		.4byte	0xa6
 2847 0996 0A       		.byte	0xa
 2848 0997 44       		.byte	0x44
 2849 0998 F4090000 		.4byte	0x9f4
 2850 099c 08       		.uleb128 0x8
 2851 099d 28150000 		.4byte	.LASF228
 2852 09a1 00       		.byte	0
 2853 09a2 1D       		.uleb128 0x1d
 2854 09a3 8E110000 		.4byte	.LASF229
 2855 09a7 00000100 		.4byte	0x10000
 2856 09ab 1D       		.uleb128 0x1d
 2857 09ac 61110000 		.4byte	.LASF230
 2858 09b0 00000200 		.4byte	0x20000
 2859 09b4 1D       		.uleb128 0x1d
 2860 09b5 000F0000 		.4byte	.LASF231
 2861 09b9 00000300 		.4byte	0x30000
 2862 09bd 1D       		.uleb128 0x1d
 2863 09be 5E020000 		.4byte	.LASF232
 2864 09c2 00000400 		.4byte	0x40000
 2865 09c6 1D       		.uleb128 0x1d
 2866 09c7 77150000 		.4byte	.LASF233
 2867 09cb 00000500 		.4byte	0x50000
 2868 09cf 1D       		.uleb128 0x1d
 2869 09d0 E51D0000 		.4byte	.LASF234
 2870 09d4 00000600 		.4byte	0x60000
 2871 09d8 1D       		.uleb128 0x1d
 2872 09d9 461C0000 		.4byte	.LASF235
 2873 09dd 00000700 		.4byte	0x70000
 2874 09e1 1D       		.uleb128 0x1d
 2875 09e2 531A0000 		.4byte	.LASF236
 2876 09e6 00000800 		.4byte	0x80000
ARM GAS  C:\Users\haske\AppData\Local\Temp\ccEGgQv3.s 			page 61


 2877 09ea 1D       		.uleb128 0x1d
 2878 09eb 6C090000 		.4byte	.LASF237
 2879 09ef 00000F00 		.4byte	0xf0000
 2880 09f3 00       		.byte	0
 2881 09f4 07       		.uleb128 0x7
 2882 09f5 04       		.byte	0x4
 2883 09f6 A6000000 		.4byte	0xa6
 2884 09fa 0A       		.byte	0xa
 2885 09fb 59       		.byte	0x59
 2886 09fc DC0A0000 		.4byte	0xadc
 2887 0a00 08       		.uleb128 0x8
 2888 0a01 700E0000 		.4byte	.LASF238
 2889 0a05 01       		.byte	0x1
 2890 0a06 08       		.uleb128 0x8
 2891 0a07 25110000 		.4byte	.LASF239
 2892 0a0b 02       		.byte	0x2
 2893 0a0c 08       		.uleb128 0x8
 2894 0a0d 29180000 		.4byte	.LASF240
 2895 0a11 04       		.byte	0x4
 2896 0a12 08       		.uleb128 0x8
 2897 0a13 350E0000 		.4byte	.LASF241
 2898 0a17 08       		.byte	0x8
 2899 0a18 08       		.uleb128 0x8
 2900 0a19 42030000 		.4byte	.LASF242
 2901 0a1d 10       		.byte	0x10
 2902 0a1e 08       		.uleb128 0x8
 2903 0a1f CD100000 		.4byte	.LASF243
 2904 0a23 20       		.byte	0x20
 2905 0a24 08       		.uleb128 0x8
 2906 0a25 C40D0000 		.4byte	.LASF244
 2907 0a29 40       		.byte	0x40
 2908 0a2a 08       		.uleb128 0x8
 2909 0a2b DA1E0000 		.4byte	.LASF245
 2910 0a2f 80       		.byte	0x80
 2911 0a30 16       		.uleb128 0x16
 2912 0a31 BA090000 		.4byte	.LASF246
 2913 0a35 0001     		.2byte	0x100
 2914 0a37 16       		.uleb128 0x16
 2915 0a38 950C0000 		.4byte	.LASF247
 2916 0a3c 0002     		.2byte	0x200
 2917 0a3e 16       		.uleb128 0x16
 2918 0a3f C5050000 		.4byte	.LASF248
 2919 0a43 0003     		.2byte	0x300
 2920 0a45 16       		.uleb128 0x16
 2921 0a46 11130000 		.4byte	.LASF249
 2922 0a4a 0004     		.2byte	0x400
 2923 0a4c 16       		.uleb128 0x16
 2924 0a4d 36040000 		.4byte	.LASF250
 2925 0a51 0008     		.2byte	0x800
 2926 0a53 16       		.uleb128 0x16
 2927 0a54 1B0F0000 		.4byte	.LASF251
 2928 0a58 0010     		.2byte	0x1000
 2929 0a5a 16       		.uleb128 0x16
 2930 0a5b C9180000 		.4byte	.LASF252
 2931 0a5f 0020     		.2byte	0x2000
 2932 0a61 16       		.uleb128 0x16
 2933 0a62 0E0E0000 		.4byte	.LASF253
ARM GAS  C:\Users\haske\AppData\Local\Temp\ccEGgQv3.s 			page 62


 2934 0a66 0040     		.2byte	0x4000
 2935 0a68 16       		.uleb128 0x16
 2936 0a69 49100000 		.4byte	.LASF254
 2937 0a6d 0080     		.2byte	0x8000
 2938 0a6f 1D       		.uleb128 0x1d
 2939 0a70 0E040000 		.4byte	.LASF255
 2940 0a74 00000100 		.4byte	0x10000
 2941 0a78 1D       		.uleb128 0x1d
 2942 0a79 CE130000 		.4byte	.LASF256
 2943 0a7d 00000200 		.4byte	0x20000
 2944 0a81 1D       		.uleb128 0x1d
 2945 0a82 6D0C0000 		.4byte	.LASF257
 2946 0a86 00000400 		.4byte	0x40000
 2947 0a8a 1D       		.uleb128 0x1d
 2948 0a8b 090D0000 		.4byte	.LASF258
 2949 0a8f 00000800 		.4byte	0x80000
 2950 0a93 1D       		.uleb128 0x1d
 2951 0a94 70050000 		.4byte	.LASF259
 2952 0a98 00008000 		.4byte	0x800000
 2953 0a9c 1D       		.uleb128 0x1d
 2954 0a9d 85050000 		.4byte	.LASF260
 2955 0aa1 00000001 		.4byte	0x1000000
 2956 0aa5 1D       		.uleb128 0x1d
 2957 0aa6 DE050000 		.4byte	.LASF261
 2958 0aaa 00000002 		.4byte	0x2000000
 2959 0aae 1D       		.uleb128 0x1d
 2960 0aaf F3050000 		.4byte	.LASF262
 2961 0ab3 00000004 		.4byte	0x4000000
 2962 0ab7 1D       		.uleb128 0x1d
 2963 0ab8 FE0A0000 		.4byte	.LASF263
 2964 0abc 00000008 		.4byte	0x8000000
 2965 0ac0 1D       		.uleb128 0x1d
 2966 0ac1 110B0000 		.4byte	.LASF264
 2967 0ac5 00000010 		.4byte	0x10000000
 2968 0ac9 1D       		.uleb128 0x1d
 2969 0aca 240B0000 		.4byte	.LASF265
 2970 0ace 00000020 		.4byte	0x20000000
 2971 0ad2 1D       		.uleb128 0x1d
 2972 0ad3 370B0000 		.4byte	.LASF266
 2973 0ad7 00000040 		.4byte	0x40000000
 2974 0adb 00       		.byte	0
 2975 0adc 02       		.uleb128 0x2
 2976 0add 9E1C0000 		.4byte	.LASF267
 2977 0ae1 0A       		.byte	0xa
 2978 0ae2 7D       		.byte	0x7d
 2979 0ae3 E4000000 		.4byte	0xe4
 2980 0ae7 02       		.uleb128 0x2
 2981 0ae8 B6000000 		.4byte	.LASF268
 2982 0aec 0D       		.byte	0xd
 2983 0aed 26       		.byte	0x26
 2984 0aee B8000000 		.4byte	0xb8
 2985 0af2 02       		.uleb128 0x2
 2986 0af3 F4140000 		.4byte	.LASF269
 2987 0af7 0D       		.byte	0xd
 2988 0af8 30       		.byte	0x30
 2989 0af9 B8000000 		.4byte	0xb8
 2990 0afd 05       		.uleb128 0x5
ARM GAS  C:\Users\haske\AppData\Local\Temp\ccEGgQv3.s 			page 63


 2991 0afe 08       		.byte	0x8
 2992 0aff 0E       		.byte	0xe
 2993 0b00 27       		.byte	0x27
 2994 0b01 3F0B0000 		.4byte	0xb3f
 2995 0b05 09       		.uleb128 0x9
 2996 0b06 EE140000 		.4byte	.LASF270
 2997 0b0a 0E       		.byte	0xe
 2998 0b0b 28       		.byte	0x28
 2999 0b0c 3F0B0000 		.4byte	0xb3f
 3000 0b10 00       		.byte	0
 3001 0b11 0B       		.uleb128 0xb
 3002 0b12 1E1E0000 		.4byte	.LASF271
 3003 0b16 0E       		.byte	0xe
 3004 0b17 29       		.byte	0x29
 3005 0b18 E4000000 		.4byte	0xe4
 3006 0b1c 04       		.byte	0x4
 3007 0b1d 18       		.byte	0x18
 3008 0b1e 08       		.byte	0x8
 3009 0b1f 04       		.byte	0x4
 3010 0b20 0B       		.uleb128 0xb
 3011 0b21 7F010000 		.4byte	.LASF272
 3012 0b25 0E       		.byte	0xe
 3013 0b26 2A       		.byte	0x2a
 3014 0b27 E4000000 		.4byte	0xe4
 3015 0b2b 04       		.byte	0x4
 3016 0b2c 01       		.byte	0x1
 3017 0b2d 07       		.byte	0x7
 3018 0b2e 04       		.byte	0x4
 3019 0b2f 0B       		.uleb128 0xb
 3020 0b30 FF0B0000 		.4byte	.LASF273
 3021 0b34 0E       		.byte	0xe
 3022 0b35 2B       		.byte	0x2b
 3023 0b36 E4000000 		.4byte	0xe4
 3024 0b3a 04       		.byte	0x4
 3025 0b3b 01       		.byte	0x1
 3026 0b3c 06       		.byte	0x6
 3027 0b3d 04       		.byte	0x4
 3028 0b3e 00       		.byte	0
 3029 0b3f 0D       		.uleb128 0xd
 3030 0b40 04       		.byte	0x4
 3031 0b41 61070000 		.4byte	0x761
 3032 0b45 02       		.uleb128 0x2
 3033 0b46 9A090000 		.4byte	.LASF274
 3034 0b4a 0E       		.byte	0xe
 3035 0b4b 2C       		.byte	0x2c
 3036 0b4c FD0A0000 		.4byte	0xafd
 3037 0b50 0C       		.uleb128 0xc
 3038 0b51 4A160000 		.4byte	.LASF275
 3039 0b55 1C       		.byte	0x1c
 3040 0b56 0F       		.byte	0xf
 3041 0b57 31       		.byte	0x31
 3042 0b58 DE0B0000 		.4byte	0xbde
 3043 0b5c 09       		.uleb128 0x9
 3044 0b5d FD130000 		.4byte	.LASF276
 3045 0b61 0F       		.byte	0xf
 3046 0b62 32       		.byte	0x32
 3047 0b63 DE0B0000 		.4byte	0xbde
ARM GAS  C:\Users\haske\AppData\Local\Temp\ccEGgQv3.s 			page 64


 3048 0b67 00       		.byte	0
 3049 0b68 09       		.uleb128 0x9
 3050 0b69 AA010000 		.4byte	.LASF277
 3051 0b6d 0F       		.byte	0xf
 3052 0b6e 33       		.byte	0x33
 3053 0b6f 810C0000 		.4byte	0xc81
 3054 0b73 04       		.byte	0x4
 3055 0b74 09       		.uleb128 0x9
 3056 0b75 FD170000 		.4byte	.LASF278
 3057 0b79 0F       		.byte	0xf
 3058 0b7a 34       		.byte	0x34
 3059 0b7b 810C0000 		.4byte	0xc81
 3060 0b7f 08       		.byte	0x8
 3061 0b80 09       		.uleb128 0x9
 3062 0b81 8A1D0000 		.4byte	.LASF63
 3063 0b85 0F       		.byte	0xf
 3064 0b86 36       		.byte	0x36
 3065 0b87 6F030000 		.4byte	0x36f
 3066 0b8b 0C       		.byte	0xc
 3067 0b8c 09       		.uleb128 0x9
 3068 0b8d 740F0000 		.4byte	.LASF279
 3069 0b91 0F       		.byte	0xf
 3070 0b92 38       		.byte	0x38
 3071 0b93 970C0000 		.4byte	0xc97
 3072 0b97 10       		.byte	0x10
 3073 0b98 09       		.uleb128 0x9
 3074 0b99 630C0000 		.4byte	.LASF280
 3075 0b9d 0F       		.byte	0xf
 3076 0b9e 3A       		.byte	0x3a
 3077 0b9f F6000000 		.4byte	0xf6
 3078 0ba3 14       		.byte	0x14
 3079 0ba4 09       		.uleb128 0x9
 3080 0ba5 811E0000 		.4byte	.LASF281
 3081 0ba9 0F       		.byte	0xf
 3082 0baa 3B       		.byte	0x3b
 3083 0bab F6000000 		.4byte	0xf6
 3084 0baf 16       		.byte	0x16
 3085 0bb0 0B       		.uleb128 0xb
 3086 0bb1 050E0000 		.4byte	.LASF282
 3087 0bb5 0F       		.byte	0xf
 3088 0bb6 3C       		.byte	0x3c
 3089 0bb7 E4000000 		.4byte	0xe4
 3090 0bbb 04       		.byte	0x4
 3091 0bbc 02       		.byte	0x2
 3092 0bbd 1E       		.byte	0x1e
 3093 0bbe 18       		.byte	0x18
 3094 0bbf 0B       		.uleb128 0xb
 3095 0bc0 A1030000 		.4byte	.LASF283
 3096 0bc4 0F       		.byte	0xf
 3097 0bc5 3D       		.byte	0x3d
 3098 0bc6 E4000000 		.4byte	0xe4
 3099 0bca 04       		.byte	0x4
 3100 0bcb 02       		.byte	0x2
 3101 0bcc 1C       		.byte	0x1c
 3102 0bcd 18       		.byte	0x18
 3103 0bce 0B       		.uleb128 0xb
 3104 0bcf B70E0000 		.4byte	.LASF284
ARM GAS  C:\Users\haske\AppData\Local\Temp\ccEGgQv3.s 			page 65


 3105 0bd3 0F       		.byte	0xf
 3106 0bd4 3E       		.byte	0x3e
 3107 0bd5 E4000000 		.4byte	0xe4
 3108 0bd9 04       		.byte	0x4
 3109 0bda 10       		.byte	0x10
 3110 0bdb 0C       		.byte	0xc
 3111 0bdc 18       		.byte	0x18
 3112 0bdd 00       		.byte	0
 3113 0bde 0D       		.uleb128 0xd
 3114 0bdf 04       		.byte	0x4
 3115 0be0 E40B0000 		.4byte	0xbe4
 3116 0be4 0E       		.uleb128 0xe
 3117 0be5 500B0000 		.4byte	0xb50
 3118 0be9 0D       		.uleb128 0xd
 3119 0bea 04       		.byte	0x4
 3120 0beb EF0B0000 		.4byte	0xbef
 3121 0bef 0C       		.uleb128 0xc
 3122 0bf0 8D0F0000 		.4byte	.LASF285
 3123 0bf4 1C       		.byte	0x1c
 3124 0bf5 10       		.byte	0x10
 3125 0bf6 5E       		.byte	0x5e
 3126 0bf7 710C0000 		.4byte	0xc71
 3127 0bfb 09       		.uleb128 0x9
 3128 0bfc FE0D0000 		.4byte	.LASF286
 3129 0c00 10       		.byte	0x10
 3130 0c01 5F       		.byte	0x5f
 3131 0c02 6D070000 		.4byte	0x76d
 3132 0c06 00       		.byte	0
 3133 0c07 09       		.uleb128 0x9
 3134 0c08 59190000 		.4byte	.LASF287
 3135 0c0c 10       		.byte	0x10
 3136 0c0d 60       		.byte	0x60
 3137 0c0e 6D070000 		.4byte	0x76d
 3138 0c12 04       		.byte	0x4
 3139 0c13 09       		.uleb128 0x9
 3140 0c14 D2170000 		.4byte	.LASF288
 3141 0c18 10       		.byte	0x10
 3142 0c19 61       		.byte	0x61
 3143 0c1a CF0D0000 		.4byte	0xdcf
 3144 0c1e 08       		.byte	0x8
 3145 0c1f 09       		.uleb128 0x9
 3146 0c20 8A1D0000 		.4byte	.LASF63
 3147 0c24 10       		.byte	0x10
 3148 0c25 62       		.byte	0x62
 3149 0c26 6F030000 		.4byte	0x36f
 3150 0c2a 0C       		.byte	0xc
 3151 0c2b 09       		.uleb128 0x9
 3152 0c2c F80D0000 		.4byte	.LASF289
 3153 0c30 10       		.byte	0x10
 3154 0c31 63       		.byte	0x63
 3155 0c32 6F030000 		.4byte	0x36f
 3156 0c36 10       		.byte	0x10
 3157 0c37 09       		.uleb128 0x9
 3158 0c38 F11E0000 		.4byte	.LASF290
 3159 0c3c 10       		.byte	0x10
 3160 0c3d 64       		.byte	0x64
 3161 0c3e E90B0000 		.4byte	0xbe9
ARM GAS  C:\Users\haske\AppData\Local\Temp\ccEGgQv3.s 			page 66


 3162 0c42 14       		.byte	0x14
 3163 0c43 0B       		.uleb128 0xb
 3164 0c44 F4070000 		.4byte	.LASF291
 3165 0c48 10       		.byte	0x10
 3166 0c49 65       		.byte	0x65
 3167 0c4a B8000000 		.4byte	0xb8
 3168 0c4e 01       		.byte	0x1
 3169 0c4f 01       		.byte	0x1
 3170 0c50 07       		.byte	0x7
 3171 0c51 18       		.byte	0x18
 3172 0c52 0B       		.uleb128 0xb
 3173 0c53 D8070000 		.4byte	.LASF292
 3174 0c57 10       		.byte	0x10
 3175 0c58 66       		.byte	0x66
 3176 0c59 B8000000 		.4byte	0xb8
 3177 0c5d 01       		.byte	0x1
 3178 0c5e 01       		.byte	0x1
 3179 0c5f 06       		.byte	0x6
 3180 0c60 18       		.byte	0x18
 3181 0c61 0B       		.uleb128 0xb
 3182 0c62 98130000 		.4byte	.LASF293
 3183 0c66 10       		.byte	0x10
 3184 0c67 67       		.byte	0x67
 3185 0c68 B8000000 		.4byte	0xb8
 3186 0c6c 01       		.byte	0x1
 3187 0c6d 01       		.byte	0x1
 3188 0c6e 05       		.byte	0x5
 3189 0c6f 18       		.byte	0x18
 3190 0c70 00       		.byte	0
 3191 0c71 1E       		.uleb128 0x1e
 3192 0c72 810C0000 		.4byte	0xc81
 3193 0c76 10       		.uleb128 0x10
 3194 0c77 DE0B0000 		.4byte	0xbde
 3195 0c7b 10       		.uleb128 0x10
 3196 0c7c 6D070000 		.4byte	0x76d
 3197 0c80 00       		.byte	0
 3198 0c81 0D       		.uleb128 0xd
 3199 0c82 04       		.byte	0x4
 3200 0c83 710C0000 		.4byte	0xc71
 3201 0c87 1E       		.uleb128 0x1e
 3202 0c88 970C0000 		.4byte	0xc97
 3203 0c8c 10       		.uleb128 0x10
 3204 0c8d DE0B0000 		.4byte	0xbde
 3205 0c91 10       		.uleb128 0x10
 3206 0c92 E90B0000 		.4byte	0xbe9
 3207 0c96 00       		.byte	0
 3208 0c97 0D       		.uleb128 0xd
 3209 0c98 04       		.byte	0x4
 3210 0c99 870C0000 		.4byte	0xc87
 3211 0c9d 02       		.uleb128 0x2
 3212 0c9e A00B0000 		.4byte	.LASF294
 3213 0ca2 0F       		.byte	0xf
 3214 0ca3 3F       		.byte	0x3f
 3215 0ca4 500B0000 		.4byte	0xb50
 3216 0ca8 07       		.uleb128 0x7
 3217 0ca9 01       		.byte	0x1
 3218 0caa 42000000 		.4byte	0x42
ARM GAS  C:\Users\haske\AppData\Local\Temp\ccEGgQv3.s 			page 67


 3219 0cae 10       		.byte	0x10
 3220 0caf 20       		.byte	0x20
 3221 0cb0 CF0D0000 		.4byte	0xdcf
 3222 0cb4 08       		.uleb128 0x8
 3223 0cb5 6C030000 		.4byte	.LASF295
 3224 0cb9 00       		.byte	0
 3225 0cba 08       		.uleb128 0x8
 3226 0cbb 35150000 		.4byte	.LASF296
 3227 0cbf 01       		.byte	0x1
 3228 0cc0 08       		.uleb128 0x8
 3229 0cc1 BC130000 		.4byte	.LASF297
 3230 0cc5 02       		.byte	0x2
 3231 0cc6 08       		.uleb128 0x8
 3232 0cc7 941D0000 		.4byte	.LASF298
 3233 0ccb 03       		.byte	0x3
 3234 0ccc 08       		.uleb128 0x8
 3235 0ccd 08140000 		.4byte	.LASF299
 3236 0cd1 04       		.byte	0x4
 3237 0cd2 08       		.uleb128 0x8
 3238 0cd3 F5010000 		.4byte	.LASF300
 3239 0cd7 05       		.byte	0x5
 3240 0cd8 08       		.uleb128 0x8
 3241 0cd9 56140000 		.4byte	.LASF301
 3242 0cdd 06       		.byte	0x6
 3243 0cde 08       		.uleb128 0x8
 3244 0cdf 640B0000 		.4byte	.LASF302
 3245 0ce3 07       		.byte	0x7
 3246 0ce4 08       		.uleb128 0x8
 3247 0ce5 2B1F0000 		.4byte	.LASF303
 3248 0ce9 08       		.byte	0x8
 3249 0cea 08       		.uleb128 0x8
 3250 0ceb 5D1D0000 		.4byte	.LASF304
 3251 0cef 09       		.byte	0x9
 3252 0cf0 08       		.uleb128 0x8
 3253 0cf1 251B0000 		.4byte	.LASF305
 3254 0cf5 0A       		.byte	0xa
 3255 0cf6 08       		.uleb128 0x8
 3256 0cf7 46150000 		.4byte	.LASF306
 3257 0cfb 0B       		.byte	0xb
 3258 0cfc 08       		.uleb128 0x8
 3259 0cfd E4010000 		.4byte	.LASF307
 3260 0d01 0C       		.byte	0xc
 3261 0d02 08       		.uleb128 0x8
 3262 0d03 451D0000 		.4byte	.LASF308
 3263 0d07 0D       		.byte	0xd
 3264 0d08 08       		.uleb128 0x8
 3265 0d09 271E0000 		.4byte	.LASF309
 3266 0d0d 0E       		.byte	0xe
 3267 0d0e 08       		.uleb128 0x8
 3268 0d0f 901A0000 		.4byte	.LASF310
 3269 0d13 0F       		.byte	0xf
 3270 0d14 08       		.uleb128 0x8
 3271 0d15 790D0000 		.4byte	.LASF311
 3272 0d19 10       		.byte	0x10
 3273 0d1a 08       		.uleb128 0x8
 3274 0d1b B6080000 		.4byte	.LASF312
 3275 0d1f 11       		.byte	0x11
ARM GAS  C:\Users\haske\AppData\Local\Temp\ccEGgQv3.s 			page 68


 3276 0d20 08       		.uleb128 0x8
 3277 0d21 50080000 		.4byte	.LASF313
 3278 0d25 12       		.byte	0x12
 3279 0d26 08       		.uleb128 0x8
 3280 0d27 21080000 		.4byte	.LASF314
 3281 0d2b 13       		.byte	0x13
 3282 0d2c 08       		.uleb128 0x8
 3283 0d2d 5C000000 		.4byte	.LASF315
 3284 0d31 14       		.byte	0x14
 3285 0d32 08       		.uleb128 0x8
 3286 0d33 3C060000 		.4byte	.LASF316
 3287 0d37 15       		.byte	0x15
 3288 0d38 08       		.uleb128 0x8
 3289 0d39 C50B0000 		.4byte	.LASF317
 3290 0d3d 16       		.byte	0x16
 3291 0d3e 08       		.uleb128 0x8
 3292 0d3f E4110000 		.4byte	.LASF318
 3293 0d43 17       		.byte	0x17
 3294 0d44 08       		.uleb128 0x8
 3295 0d45 2A1C0000 		.4byte	.LASF319
 3296 0d49 18       		.byte	0x18
 3297 0d4a 08       		.uleb128 0x8
 3298 0d4b FF180000 		.4byte	.LASF320
 3299 0d4f 19       		.byte	0x19
 3300 0d50 08       		.uleb128 0x8
 3301 0d51 16190000 		.4byte	.LASF321
 3302 0d55 1A       		.byte	0x1a
 3303 0d56 08       		.uleb128 0x8
 3304 0d57 B2040000 		.4byte	.LASF322
 3305 0d5b 1B       		.byte	0x1b
 3306 0d5c 08       		.uleb128 0x8
 3307 0d5d A8120000 		.4byte	.LASF323
 3308 0d61 1C       		.byte	0x1c
 3309 0d62 08       		.uleb128 0x8
 3310 0d63 D4000000 		.4byte	.LASF324
 3311 0d67 1D       		.byte	0x1d
 3312 0d68 08       		.uleb128 0x8
 3313 0d69 A60E0000 		.4byte	.LASF325
 3314 0d6d 1E       		.byte	0x1e
 3315 0d6e 08       		.uleb128 0x8
 3316 0d6f 1B1C0000 		.4byte	.LASF326
 3317 0d73 1F       		.byte	0x1f
 3318 0d74 08       		.uleb128 0x8
 3319 0d75 56150000 		.4byte	.LASF327
 3320 0d79 20       		.byte	0x20
 3321 0d7a 08       		.uleb128 0x8
 3322 0d7b CC110000 		.4byte	.LASF328
 3323 0d7f 21       		.byte	0x21
 3324 0d80 08       		.uleb128 0x8
 3325 0d81 52010000 		.4byte	.LASF329
 3326 0d85 22       		.byte	0x22
 3327 0d86 08       		.uleb128 0x8
 3328 0d87 21020000 		.4byte	.LASF330
 3329 0d8b 23       		.byte	0x23
 3330 0d8c 08       		.uleb128 0x8
 3331 0d8d E90E0000 		.4byte	.LASF331
 3332 0d91 24       		.byte	0x24
ARM GAS  C:\Users\haske\AppData\Local\Temp\ccEGgQv3.s 			page 69


 3333 0d92 08       		.uleb128 0x8
 3334 0d93 8C1E0000 		.4byte	.LASF332
 3335 0d97 25       		.byte	0x25
 3336 0d98 08       		.uleb128 0x8
 3337 0d99 7D130000 		.4byte	.LASF333
 3338 0d9d 26       		.byte	0x26
 3339 0d9e 08       		.uleb128 0x8
 3340 0d9f 39090000 		.4byte	.LASF334
 3341 0da3 27       		.byte	0x27
 3342 0da4 08       		.uleb128 0x8
 3343 0da5 F2150000 		.4byte	.LASF335
 3344 0da9 28       		.byte	0x28
 3345 0daa 08       		.uleb128 0x8
 3346 0dab AC1C0000 		.4byte	.LASF336
 3347 0daf 29       		.byte	0x29
 3348 0db0 08       		.uleb128 0x8
 3349 0db1 041C0000 		.4byte	.LASF337
 3350 0db5 2A       		.byte	0x2a
 3351 0db6 08       		.uleb128 0x8
 3352 0db7 D21C0000 		.4byte	.LASF338
 3353 0dbb 2B       		.byte	0x2b
 3354 0dbc 08       		.uleb128 0x8
 3355 0dbd 25060000 		.4byte	.LASF339
 3356 0dc1 2C       		.byte	0x2c
 3357 0dc2 08       		.uleb128 0x8
 3358 0dc3 441A0000 		.4byte	.LASF340
 3359 0dc7 2D       		.byte	0x2d
 3360 0dc8 08       		.uleb128 0x8
 3361 0dc9 D7170000 		.4byte	.LASF341
 3362 0dcd 80       		.byte	0x80
 3363 0dce 00       		.byte	0
 3364 0dcf 02       		.uleb128 0x2
 3365 0dd0 7D0F0000 		.4byte	.LASF342
 3366 0dd4 10       		.byte	0x10
 3367 0dd5 5C       		.byte	0x5c
 3368 0dd6 A80C0000 		.4byte	0xca8
 3369 0dda 02       		.uleb128 0x2
 3370 0ddb 47010000 		.4byte	.LASF343
 3371 0ddf 10       		.byte	0x10
 3372 0de0 68       		.byte	0x68
 3373 0de1 EF0B0000 		.4byte	0xbef
 3374 0de5 0D       		.uleb128 0xd
 3375 0de6 04       		.byte	0x4
 3376 0de7 DA0D0000 		.4byte	0xdda
 3377 0deb 02       		.uleb128 0x2
 3378 0dec 36160000 		.4byte	.LASF344
 3379 0df0 0C       		.byte	0xc
 3380 0df1 34       		.byte	0x34
 3381 0df2 F60D0000 		.4byte	0xdf6
 3382 0df6 0D       		.uleb128 0xd
 3383 0df7 04       		.byte	0x4
 3384 0df8 FC0D0000 		.4byte	0xdfc
 3385 0dfc 1E       		.uleb128 0x1e
 3386 0dfd 070E0000 		.4byte	0xe07
 3387 0e01 10       		.uleb128 0x10
 3388 0e02 19090000 		.4byte	0x919
 3389 0e06 00       		.byte	0
ARM GAS  C:\Users\haske\AppData\Local\Temp\ccEGgQv3.s 			page 70


 3390 0e07 02       		.uleb128 0x2
 3391 0e08 EB0A0000 		.4byte	.LASF345
 3392 0e0c 0C       		.byte	0xc
 3393 0e0d 35       		.byte	0x35
 3394 0e0e 120E0000 		.4byte	0xe12
 3395 0e12 0D       		.uleb128 0xd
 3396 0e13 04       		.byte	0x4
 3397 0e14 180E0000 		.4byte	0xe18
 3398 0e18 1E       		.uleb128 0x1e
 3399 0e19 280E0000 		.4byte	0xe28
 3400 0e1d 10       		.uleb128 0x10
 3401 0e1e 19090000 		.4byte	0x919
 3402 0e22 10       		.uleb128 0x10
 3403 0e23 30030000 		.4byte	0x330
 3404 0e27 00       		.byte	0
 3405 0e28 02       		.uleb128 0x2
 3406 0e29 85060000 		.4byte	.LASF346
 3407 0e2d 0C       		.byte	0xc
 3408 0e2e 4E       		.byte	0x4e
 3409 0e2f 94080000 		.4byte	0x894
 3410 0e33 05       		.uleb128 0x5
 3411 0e34 1C       		.byte	0x1c
 3412 0e35 0A       		.byte	0xa
 3413 0e36 9B       		.byte	0x9b
 3414 0e37 EA0E0000 		.4byte	0xeea
 3415 0e3b 09       		.uleb128 0x9
 3416 0e3c 64100000 		.4byte	.LASF347
 3417 0e40 0A       		.byte	0xa
 3418 0e41 9C       		.byte	0x9c
 3419 0e42 8E080000 		.4byte	0x88e
 3420 0e46 00       		.byte	0
 3421 0e47 09       		.uleb128 0x9
 3422 0e48 460D0000 		.4byte	.LASF348
 3423 0e4c 0A       		.byte	0xa
 3424 0e4d 9D       		.byte	0x9d
 3425 0e4e E4000000 		.4byte	0xe4
 3426 0e52 04       		.byte	0x4
 3427 0e53 09       		.uleb128 0x9
 3428 0e54 2C0A0000 		.4byte	.LASF349
 3429 0e58 0A       		.byte	0xa
 3430 0e59 9E       		.byte	0x9e
 3431 0e5a EA0E0000 		.4byte	0xeea
 3432 0e5e 08       		.byte	0x8
 3433 0e5f 09       		.uleb128 0x9
 3434 0e60 D7090000 		.4byte	.LASF350
 3435 0e64 0A       		.byte	0xa
 3436 0e65 A0       		.byte	0xa0
 3437 0e66 F50E0000 		.4byte	0xef5
 3438 0e6a 0C       		.byte	0xc
 3439 0e6b 09       		.uleb128 0x9
 3440 0e6c 4C0A0000 		.4byte	.LASF351
 3441 0e70 0A       		.byte	0xa
 3442 0e71 A1       		.byte	0xa1
 3443 0e72 1E010000 		.4byte	0x11e
 3444 0e76 10       		.byte	0x10
 3445 0e77 09       		.uleb128 0x9
 3446 0e78 B9010000 		.4byte	.LASF352
ARM GAS  C:\Users\haske\AppData\Local\Temp\ccEGgQv3.s 			page 71


 3447 0e7c 0A       		.byte	0xa
 3448 0e7d A3       		.byte	0xa3
 3449 0e7e F6000000 		.4byte	0xf6
 3450 0e82 14       		.byte	0x14
 3451 0e83 09       		.uleb128 0x9
 3452 0e84 DD0A0000 		.4byte	.LASF353
 3453 0e88 0A       		.byte	0xa
 3454 0e89 A4       		.byte	0xa4
 3455 0e8a F6000000 		.4byte	0xf6
 3456 0e8e 16       		.byte	0x16
 3457 0e8f 0B       		.uleb128 0xb
 3458 0e90 0D070000 		.4byte	.LASF354
 3459 0e94 0A       		.byte	0xa
 3460 0e95 A6       		.byte	0xa6
 3461 0e96 E70A0000 		.4byte	0xae7
 3462 0e9a 01       		.byte	0x1
 3463 0e9b 02       		.byte	0x2
 3464 0e9c 06       		.byte	0x6
 3465 0e9d 18       		.byte	0x18
 3466 0e9e 0B       		.uleb128 0xb
 3467 0e9f 39010000 		.4byte	.LASF355
 3468 0ea3 0A       		.byte	0xa
 3469 0ea4 A7       		.byte	0xa7
 3470 0ea5 F20A0000 		.4byte	0xaf2
 3471 0ea9 01       		.byte	0x1
 3472 0eaa 02       		.byte	0x2
 3473 0eab 04       		.byte	0x4
 3474 0eac 18       		.byte	0x18
 3475 0ead 0B       		.uleb128 0xb
 3476 0eae 9A0D0000 		.4byte	.LASF356
 3477 0eb2 0A       		.byte	0xa
 3478 0eb3 A8       		.byte	0xa8
 3479 0eb4 F20A0000 		.4byte	0xaf2
 3480 0eb8 01       		.byte	0x1
 3481 0eb9 02       		.byte	0x2
 3482 0eba 02       		.byte	0x2
 3483 0ebb 18       		.byte	0x18
 3484 0ebc 0B       		.uleb128 0xb
 3485 0ebd 96030000 		.4byte	.LASF357
 3486 0ec1 0A       		.byte	0xa
 3487 0ec2 A9       		.byte	0xa9
 3488 0ec3 FA010000 		.4byte	0x1fa
 3489 0ec7 01       		.byte	0x1
 3490 0ec8 04       		.byte	0x4
 3491 0ec9 04       		.byte	0x4
 3492 0eca 19       		.byte	0x19
 3493 0ecb 0B       		.uleb128 0xb
 3494 0ecc 9D1F0000 		.4byte	.LASF358
 3495 0ed0 0A       		.byte	0xa
 3496 0ed1 AA       		.byte	0xaa
 3497 0ed2 B8000000 		.4byte	0xb8
 3498 0ed6 01       		.byte	0x1
 3499 0ed7 06       		.byte	0x6
 3500 0ed8 02       		.byte	0x2
 3501 0ed9 1A       		.byte	0x1a
 3502 0eda 0B       		.uleb128 0xb
 3503 0edb 6D0A0000 		.4byte	.LASF359
ARM GAS  C:\Users\haske\AppData\Local\Temp\ccEGgQv3.s 			page 72


 3504 0edf 0A       		.byte	0xa
 3505 0ee0 AB       		.byte	0xab
 3506 0ee1 B8000000 		.4byte	0xb8
 3507 0ee5 01       		.byte	0x1
 3508 0ee6 02       		.byte	0x2
 3509 0ee7 00       		.byte	0
 3510 0ee8 1A       		.byte	0x1a
 3511 0ee9 00       		.byte	0
 3512 0eea 0D       		.uleb128 0xd
 3513 0eeb 04       		.byte	0x4
 3514 0eec 280E0000 		.4byte	0xe28
 3515 0ef0 1F       		.uleb128 0x1f
 3516 0ef1 BE1D0000 		.4byte	.LASF455
 3517 0ef5 0D       		.uleb128 0xd
 3518 0ef6 04       		.byte	0x4
 3519 0ef7 F00E0000 		.4byte	0xef0
 3520 0efb 02       		.uleb128 0x2
 3521 0efc 90060000 		.4byte	.LASF360
 3522 0f00 0A       		.byte	0xa
 3523 0f01 AC       		.byte	0xac
 3524 0f02 330E0000 		.4byte	0xe33
 3525 0f06 0D       		.uleb128 0xd
 3526 0f07 04       		.byte	0x4
 3527 0f08 0C0F0000 		.4byte	0xf0c
 3528 0f0c 0E       		.uleb128 0xe
 3529 0f0d 9D0C0000 		.4byte	0xc9d
 3530 0f11 0D       		.uleb128 0xd
 3531 0f12 04       		.byte	0x4
 3532 0f13 FB0E0000 		.4byte	0xefb
 3533 0f17 0D       		.uleb128 0xd
 3534 0f18 04       		.byte	0x4
 3535 0f19 450B0000 		.4byte	0xb45
 3536 0f1d 02       		.uleb128 0x2
 3537 0f1e EB170000 		.4byte	.LASF361
 3538 0f22 0A       		.byte	0xa
 3539 0f23 BF       		.byte	0xbf
 3540 0f24 73070000 		.4byte	0x773
 3541 0f28 07       		.uleb128 0x7
 3542 0f29 02       		.byte	0x2
 3543 0f2a 66000000 		.4byte	0x66
 3544 0f2e 11       		.byte	0x11
 3545 0f2f 22       		.byte	0x22
 3546 0f30 830F0000 		.4byte	0xf83
 3547 0f34 08       		.uleb128 0x8
 3548 0f35 DC0B0000 		.4byte	.LASF362
 3549 0f39 07       		.byte	0x7
 3550 0f3a 08       		.uleb128 0x8
 3551 0f3b ED120000 		.4byte	.LASF363
 3552 0f3f 08       		.byte	0x8
 3553 0f40 08       		.uleb128 0x8
 3554 0f41 A80D0000 		.4byte	.LASF364
 3555 0f45 10       		.byte	0x10
 3556 0f46 08       		.uleb128 0x8
 3557 0f47 73110000 		.4byte	.LASF365
 3558 0f4b 20       		.byte	0x20
 3559 0f4c 08       		.uleb128 0x8
 3560 0f4d BE1E0000 		.4byte	.LASF366
ARM GAS  C:\Users\haske\AppData\Local\Temp\ccEGgQv3.s 			page 73


 3561 0f51 40       		.byte	0x40
 3562 0f52 08       		.uleb128 0x8
 3563 0f53 4A0B0000 		.4byte	.LASF367
 3564 0f57 80       		.byte	0x80
 3565 0f58 16       		.uleb128 0x16
 3566 0f59 BE150000 		.4byte	.LASF368
 3567 0f5d 0001     		.2byte	0x100
 3568 0f5f 16       		.uleb128 0x16
 3569 0f60 080C0000 		.4byte	.LASF369
 3570 0f64 0002     		.2byte	0x200
 3571 0f66 16       		.uleb128 0x16
 3572 0f67 72040000 		.4byte	.LASF370
 3573 0f6b 0010     		.2byte	0x1000
 3574 0f6d 16       		.uleb128 0x16
 3575 0f6e 821C0000 		.4byte	.LASF371
 3576 0f72 0020     		.2byte	0x2000
 3577 0f74 16       		.uleb128 0x16
 3578 0f75 FE0F0000 		.4byte	.LASF372
 3579 0f79 0040     		.2byte	0x4000
 3580 0f7b 16       		.uleb128 0x16
 3581 0f7c 19100000 		.4byte	.LASF373
 3582 0f80 0080     		.2byte	0x8000
 3583 0f82 00       		.byte	0
 3584 0f83 02       		.uleb128 0x2
 3585 0f84 D00F0000 		.4byte	.LASF374
 3586 0f88 11       		.byte	0x11
 3587 0f89 31       		.byte	0x31
 3588 0f8a CE000000 		.4byte	0xce
 3589 0f8e 0D       		.uleb128 0xd
 3590 0f8f 04       		.byte	0x4
 3591 0f90 1D0F0000 		.4byte	0xf1d
 3592 0f94 05       		.uleb128 0x5
 3593 0f95 38       		.byte	0x38
 3594 0f96 11       		.byte	0x11
 3595 0f97 37       		.byte	0x37
 3596 0f98 00100000 		.4byte	0x1000
 3597 0f9c 06       		.uleb128 0x6
 3598 0f9d 6F626A00 		.ascii	"obj\000"
 3599 0fa1 11       		.byte	0x11
 3600 0fa2 38       		.byte	0x38
 3601 0fa3 1D0F0000 		.4byte	0xf1d
 3602 0fa7 00       		.byte	0
 3603 0fa8 09       		.uleb128 0x9
 3604 0fa9 F20D0000 		.4byte	.LASF375
 3605 0fad 11       		.byte	0x11
 3606 0fae 39       		.byte	0x39
 3607 0faf 00100000 		.4byte	0x1000
 3608 0fb3 24       		.byte	0x24
 3609 0fb4 09       		.uleb128 0x9
 3610 0fb5 BF020000 		.4byte	.LASF376
 3611 0fb9 11       		.byte	0x11
 3612 0fba 3A       		.byte	0x3a
 3613 0fbb 3F080000 		.4byte	0x83f
 3614 0fbf 28       		.byte	0x28
 3615 0fc0 09       		.uleb128 0x9
 3616 0fc1 70190000 		.4byte	.LASF377
 3617 0fc5 11       		.byte	0x11
ARM GAS  C:\Users\haske\AppData\Local\Temp\ccEGgQv3.s 			page 74


 3618 0fc6 3B       		.byte	0x3b
 3619 0fc7 06100000 		.4byte	0x1006
 3620 0fcb 2C       		.byte	0x2c
 3621 0fcc 09       		.uleb128 0x9
 3622 0fcd F70B0000 		.4byte	.LASF378
 3623 0fd1 11       		.byte	0x11
 3624 0fd2 3C       		.byte	0x3c
 3625 0fd3 CE000000 		.4byte	0xce
 3626 0fd7 30       		.byte	0x30
 3627 0fd8 09       		.uleb128 0x9
 3628 0fd9 440A0000 		.4byte	.LASF379
 3629 0fdd 11       		.byte	0x11
 3630 0fde 3D       		.byte	0x3d
 3631 0fdf CE000000 		.4byte	0xce
 3632 0fe3 32       		.byte	0x32
 3633 0fe4 09       		.uleb128 0x9
 3634 0fe5 06130000 		.4byte	.LASF380
 3635 0fe9 11       		.byte	0x11
 3636 0fea 3E       		.byte	0x3e
 3637 0feb CE000000 		.4byte	0xce
 3638 0fef 34       		.byte	0x34
 3639 0ff0 0B       		.uleb128 0xb
 3640 0ff1 660E0000 		.4byte	.LASF381
 3641 0ff5 11       		.byte	0x11
 3642 0ff6 3F       		.byte	0x3f
 3643 0ff7 B8000000 		.4byte	0xb8
 3644 0ffb 01       		.byte	0x1
 3645 0ffc 01       		.byte	0x1
 3646 0ffd 07       		.byte	0x7
 3647 0ffe 36       		.byte	0x36
 3648 0fff 00       		.byte	0
 3649 1000 0D       		.uleb128 0xd
 3650 1001 04       		.byte	0x4
 3651 1002 AE030000 		.4byte	0x3ae
 3652 1006 0D       		.uleb128 0xd
 3653 1007 04       		.byte	0x4
 3654 1008 830F0000 		.4byte	0xf83
 3655 100c 02       		.uleb128 0x2
 3656 100d 24000000 		.4byte	.LASF382
 3657 1011 11       		.byte	0x11
 3658 1012 40       		.byte	0x40
 3659 1013 940F0000 		.4byte	0xf94
 3660 1017 07       		.uleb128 0x7
 3661 1018 01       		.byte	0x1
 3662 1019 42000000 		.4byte	0x42
 3663 101d 12       		.byte	0x12
 3664 101e 27       		.byte	0x27
 3665 101f 54100000 		.4byte	0x1054
 3666 1023 08       		.uleb128 0x8
 3667 1024 FD000000 		.4byte	.LASF383
 3668 1028 00       		.byte	0
 3669 1029 08       		.uleb128 0x8
 3670 102a 53170000 		.4byte	.LASF384
 3671 102e 01       		.byte	0x1
 3672 102f 08       		.uleb128 0x8
 3673 1030 2D130000 		.4byte	.LASF385
 3674 1034 02       		.byte	0x2
ARM GAS  C:\Users\haske\AppData\Local\Temp\ccEGgQv3.s 			page 75


 3675 1035 08       		.uleb128 0x8
 3676 1036 A0110000 		.4byte	.LASF386
 3677 103a 03       		.byte	0x3
 3678 103b 08       		.uleb128 0x8
 3679 103c 81190000 		.4byte	.LASF387
 3680 1040 04       		.byte	0x4
 3681 1041 08       		.uleb128 0x8
 3682 1042 99190000 		.4byte	.LASF388
 3683 1046 05       		.byte	0x5
 3684 1047 08       		.uleb128 0x8
 3685 1048 B1190000 		.4byte	.LASF389
 3686 104c 06       		.byte	0x6
 3687 104d 08       		.uleb128 0x8
 3688 104e EB030000 		.4byte	.LASF390
 3689 1052 07       		.byte	0x7
 3690 1053 00       		.byte	0
 3691 1054 02       		.uleb128 0x2
 3692 1055 F31D0000 		.4byte	.LASF391
 3693 1059 12       		.byte	0x12
 3694 105a 31       		.byte	0x31
 3695 105b B8000000 		.4byte	0xb8
 3696 105f 05       		.uleb128 0x5
 3697 1060 40       		.byte	0x40
 3698 1061 12       		.byte	0x12
 3699 1062 34       		.byte	0x34
 3700 1063 9A100000 		.4byte	0x109a
 3701 1067 09       		.uleb128 0x9
 3702 1068 D0040000 		.4byte	.LASF392
 3703 106c 12       		.byte	0x12
 3704 106d 35       		.byte	0x35
 3705 106e 0C100000 		.4byte	0x100c
 3706 1072 00       		.byte	0
 3707 1073 06       		.uleb128 0x6
 3708 1074 746100   		.ascii	"ta\000"
 3709 1077 12       		.byte	0x12
 3710 1078 36       		.byte	0x36
 3711 1079 8E0F0000 		.4byte	0xf8e
 3712 107d 38       		.byte	0x38
 3713 107e 09       		.uleb128 0x9
 3714 107f E0180000 		.4byte	.LASF393
 3715 1083 12       		.byte	0x12
 3716 1084 37       		.byte	0x37
 3717 1085 54100000 		.4byte	0x1054
 3718 1089 3C       		.byte	0x3c
 3719 108a 0B       		.uleb128 0xb
 3720 108b F4170000 		.4byte	.LASF394
 3721 108f 12       		.byte	0x12
 3722 1090 38       		.byte	0x38
 3723 1091 B8000000 		.4byte	0xb8
 3724 1095 01       		.byte	0x1
 3725 1096 01       		.byte	0x1
 3726 1097 07       		.byte	0x7
 3727 1098 3D       		.byte	0x3d
 3728 1099 00       		.byte	0
 3729 109a 02       		.uleb128 0x2
 3730 109b E4000000 		.4byte	.LASF395
 3731 109f 12       		.byte	0x12
ARM GAS  C:\Users\haske\AppData\Local\Temp\ccEGgQv3.s 			page 76


 3732 10a0 39       		.byte	0x39
 3733 10a1 5F100000 		.4byte	0x105f
 3734 10a5 20       		.uleb128 0x20
 3735 10a6 B0170000 		.4byte	.LASF398
 3736 10aa 01       		.byte	0x1
 3737 10ab 9501     		.2byte	0x195
 3738 10ad 00000000 		.4byte	.LFB173
 3739 10b1 6C000000 		.4byte	.LFE173-.LFB173
 3740 10b5 01       		.uleb128 0x1
 3741 10b6 9C       		.byte	0x9c
 3742 10b7 7D110000 		.4byte	0x117d
 3743 10bb 21       		.uleb128 0x21
 3744 10bc 6F626A00 		.ascii	"obj\000"
 3745 10c0 01       		.byte	0x1
 3746 10c1 9501     		.2byte	0x195
 3747 10c3 8E0F0000 		.4byte	0xf8e
 3748 10c7 00000000 		.4byte	.LLST0
 3749 10cb 22       		.uleb128 0x22
 3750 10cc 1F140000 		.4byte	.LASF396
 3751 10d0 01       		.byte	0x1
 3752 10d1 9701     		.2byte	0x197
 3753 10d3 7D110000 		.4byte	0x117d
 3754 10d7 42000000 		.4byte	.LLST1
 3755 10db 23       		.uleb128 0x23
 3756 10dc 1C000000 		.4byte	.LBB2
 3757 10e0 44000000 		.4byte	.LBE2-.LBB2
 3758 10e4 6C110000 		.4byte	0x116c
 3759 10e8 22       		.uleb128 0x22
 3760 10e9 D0040000 		.4byte	.LASF392
 3761 10ed 01       		.byte	0x1
 3762 10ee 9F01     		.2byte	0x19f
 3763 10f0 83110000 		.4byte	0x1183
 3764 10f4 84000000 		.4byte	.LLST2
 3765 10f8 22       		.uleb128 0x22
 3766 10f9 11120000 		.4byte	.LASF397
 3767 10fd 01       		.byte	0x1
 3768 10fe A001     		.2byte	0x1a0
 3769 1100 06100000 		.4byte	0x1006
 3770 1104 A2000000 		.4byte	.LLST3
 3771 1108 23       		.uleb128 0x23
 3772 1109 38000000 		.4byte	.LBB3
 3773 110d 1A000000 		.4byte	.LBE3-.LBB3
 3774 1111 24110000 		.4byte	0x1124
 3775 1115 24       		.uleb128 0x24
 3776 1116 6900     		.ascii	"i\000"
 3777 1118 01       		.byte	0x1
 3778 1119 A401     		.2byte	0x1a4
 3779 111b CE000000 		.4byte	0xce
 3780 111f C0000000 		.4byte	.LLST4
 3781 1123 00       		.byte	0
 3782 1124 25       		.uleb128 0x25
 3783 1125 24000000 		.4byte	.LVL5
 3784 1129 A11B0000 		.4byte	0x1ba1
 3785 112d 26       		.uleb128 0x26
 3786 112e 38000000 		.4byte	.LVL7
 3787 1132 AC1B0000 		.4byte	0x1bac
 3788 1136 41110000 		.4byte	0x1141
ARM GAS  C:\Users\haske\AppData\Local\Temp\ccEGgQv3.s 			page 77


 3789 113a 27       		.uleb128 0x27
 3790 113b 01       		.uleb128 0x1
 3791 113c 50       		.byte	0x50
 3792 113d 02       		.uleb128 0x2
 3793 113e 75       		.byte	0x75
 3794 113f 00       		.sleb128 0
 3795 1140 00       		.byte	0
 3796 1141 26       		.uleb128 0x26
 3797 1142 5A000000 		.4byte	.LVL11
 3798 1146 B71B0000 		.4byte	0x1bb7
 3799 114a 5B110000 		.4byte	0x115b
 3800 114e 27       		.uleb128 0x27
 3801 114f 01       		.uleb128 0x1
 3802 1150 50       		.byte	0x50
 3803 1151 02       		.uleb128 0x2
 3804 1152 74       		.byte	0x74
 3805 1153 00       		.sleb128 0
 3806 1154 27       		.uleb128 0x27
 3807 1155 01       		.uleb128 0x1
 3808 1156 51       		.byte	0x51
 3809 1157 02       		.uleb128 0x2
 3810 1158 75       		.byte	0x75
 3811 1159 00       		.sleb128 0
 3812 115a 00       		.byte	0
 3813 115b 28       		.uleb128 0x28
 3814 115c 60000000 		.4byte	.LVL12
 3815 1160 C21B0000 		.4byte	0x1bc2
 3816 1164 27       		.uleb128 0x27
 3817 1165 01       		.uleb128 0x1
 3818 1166 50       		.byte	0x50
 3819 1167 02       		.uleb128 0x2
 3820 1168 75       		.byte	0x75
 3821 1169 00       		.sleb128 0
 3822 116a 00       		.byte	0
 3823 116b 00       		.byte	0
 3824 116c 28       		.uleb128 0x28
 3825 116d 1A000000 		.4byte	.LVL2
 3826 1171 B71B0000 		.4byte	0x1bb7
 3827 1175 27       		.uleb128 0x27
 3828 1176 01       		.uleb128 0x1
 3829 1177 50       		.byte	0x50
 3830 1178 02       		.uleb128 0x2
 3831 1179 74       		.byte	0x74
 3832 117a 00       		.sleb128 0
 3833 117b 00       		.byte	0
 3834 117c 00       		.byte	0
 3835 117d 0D       		.uleb128 0xd
 3836 117e 04       		.byte	0x4
 3837 117f 9A100000 		.4byte	0x109a
 3838 1183 0D       		.uleb128 0xd
 3839 1184 04       		.byte	0x4
 3840 1185 0C100000 		.4byte	0x100c
 3841 1189 20       		.uleb128 0x20
 3842 118a 55090000 		.4byte	.LASF399
 3843 118e 01       		.byte	0x1
 3844 118f 8A01     		.2byte	0x18a
 3845 1191 00000000 		.4byte	.LFB172
ARM GAS  C:\Users\haske\AppData\Local\Temp\ccEGgQv3.s 			page 78


 3846 1195 20000000 		.4byte	.LFE172-.LFB172
 3847 1199 01       		.uleb128 0x1
 3848 119a 9C       		.byte	0x9c
 3849 119b E4110000 		.4byte	0x11e4
 3850 119f 21       		.uleb128 0x21
 3851 11a0 6F626A00 		.ascii	"obj\000"
 3852 11a4 01       		.byte	0x1
 3853 11a5 8A01     		.2byte	0x18a
 3854 11a7 8E0F0000 		.4byte	0xf8e
 3855 11ab EA000000 		.4byte	.LLST5
 3856 11af 22       		.uleb128 0x22
 3857 11b0 1F140000 		.4byte	.LASF396
 3858 11b4 01       		.byte	0x1
 3859 11b5 8C01     		.2byte	0x18c
 3860 11b7 7D110000 		.4byte	0x117d
 3861 11bb 16010000 		.4byte	.LLST6
 3862 11bf 26       		.uleb128 0x26
 3863 11c0 14000000 		.4byte	.LVL16
 3864 11c4 CD1B0000 		.4byte	0x1bcd
 3865 11c8 D3110000 		.4byte	0x11d3
 3866 11cc 27       		.uleb128 0x27
 3867 11cd 01       		.uleb128 0x1
 3868 11ce 50       		.byte	0x50
 3869 11cf 02       		.uleb128 0x2
 3870 11d0 74       		.byte	0x74
 3871 11d1 00       		.sleb128 0
 3872 11d2 00       		.byte	0
 3873 11d3 28       		.uleb128 0x28
 3874 11d4 1A000000 		.4byte	.LVL17
 3875 11d8 A5100000 		.4byte	0x10a5
 3876 11dc 27       		.uleb128 0x27
 3877 11dd 01       		.uleb128 0x1
 3878 11de 50       		.byte	0x50
 3879 11df 02       		.uleb128 0x2
 3880 11e0 74       		.byte	0x74
 3881 11e1 00       		.sleb128 0
 3882 11e2 00       		.byte	0
 3883 11e3 00       		.byte	0
 3884 11e4 20       		.uleb128 0x20
 3885 11e5 EA1C0000 		.4byte	.LASF400
 3886 11e9 01       		.byte	0x1
 3887 11ea 7501     		.2byte	0x175
 3888 11ec 00000000 		.4byte	.LFB171
 3889 11f0 4C000000 		.4byte	.LFE171-.LFB171
 3890 11f4 01       		.uleb128 0x1
 3891 11f5 9C       		.byte	0x9c
 3892 11f6 BC120000 		.4byte	0x12bc
 3893 11fa 29       		.uleb128 0x29
 3894 11fb DC110000 		.4byte	.LASF186
 3895 11ff 01       		.byte	0x1
 3896 1200 7501     		.2byte	0x175
 3897 1202 060F0000 		.4byte	0xf06
 3898 1206 42010000 		.4byte	.LLST7
 3899 120a 21       		.uleb128 0x21
 3900 120b 6F626A00 		.ascii	"obj\000"
 3901 120f 01       		.byte	0x1
 3902 1210 7501     		.2byte	0x175
ARM GAS  C:\Users\haske\AppData\Local\Temp\ccEGgQv3.s 			page 79


 3903 1212 8E0F0000 		.4byte	0xf8e
 3904 1216 63010000 		.4byte	.LLST8
 3905 121a 22       		.uleb128 0x22
 3906 121b 1F140000 		.4byte	.LASF396
 3907 121f 01       		.byte	0x1
 3908 1220 7A01     		.2byte	0x17a
 3909 1222 7D110000 		.4byte	0x117d
 3910 1226 8F010000 		.4byte	.LLST9
 3911 122a 26       		.uleb128 0x26
 3912 122b 0C000000 		.4byte	.LVL22
 3913 122f D81B0000 		.4byte	0x1bd8
 3914 1233 43120000 		.4byte	0x1243
 3915 1237 27       		.uleb128 0x27
 3916 1238 01       		.uleb128 0x1
 3917 1239 50       		.byte	0x50
 3918 123a 02       		.uleb128 0x2
 3919 123b 74       		.byte	0x74
 3920 123c 00       		.sleb128 0
 3921 123d 27       		.uleb128 0x27
 3922 123e 01       		.uleb128 0x1
 3923 123f 51       		.byte	0x51
 3924 1240 01       		.uleb128 0x1
 3925 1241 34       		.byte	0x34
 3926 1242 00       		.byte	0
 3927 1243 26       		.uleb128 0x26
 3928 1244 2A000000 		.4byte	.LVL23
 3929 1248 E31B0000 		.4byte	0x1be3
 3930 124c 66120000 		.4byte	0x1266
 3931 1250 27       		.uleb128 0x27
 3932 1251 01       		.uleb128 0x1
 3933 1252 50       		.byte	0x50
 3934 1253 02       		.uleb128 0x2
 3935 1254 74       		.byte	0x74
 3936 1255 00       		.sleb128 0
 3937 1256 27       		.uleb128 0x27
 3938 1257 01       		.uleb128 0x1
 3939 1258 51       		.byte	0x51
 3940 1259 01       		.uleb128 0x1
 3941 125a 35       		.byte	0x35
 3942 125b 27       		.uleb128 0x27
 3943 125c 01       		.uleb128 0x1
 3944 125d 52       		.byte	0x52
 3945 125e 01       		.uleb128 0x1
 3946 125f 30       		.byte	0x30
 3947 1260 27       		.uleb128 0x27
 3948 1261 01       		.uleb128 0x1
 3949 1262 53       		.byte	0x53
 3950 1263 01       		.uleb128 0x1
 3951 1264 30       		.byte	0x30
 3952 1265 00       		.byte	0
 3953 1266 26       		.uleb128 0x26
 3954 1267 36000000 		.4byte	.LVL24
 3955 126b EE1B0000 		.4byte	0x1bee
 3956 126f 8D120000 		.4byte	0x128d
 3957 1273 27       		.uleb128 0x27
 3958 1274 01       		.uleb128 0x1
 3959 1275 50       		.byte	0x50
ARM GAS  C:\Users\haske\AppData\Local\Temp\ccEGgQv3.s 			page 80


 3960 1276 02       		.uleb128 0x2
 3961 1277 74       		.byte	0x74
 3962 1278 00       		.sleb128 0
 3963 1279 27       		.uleb128 0x27
 3964 127a 01       		.uleb128 0x1
 3965 127b 51       		.byte	0x51
 3966 127c 05       		.uleb128 0x5
 3967 127d 03       		.byte	0x3
 3968 127e 00000000 		.4byte	lv_keyboard_def_event_cb
 3969 1282 27       		.uleb128 0x27
 3970 1283 01       		.uleb128 0x1
 3971 1284 52       		.byte	0x52
 3972 1285 01       		.uleb128 0x1
 3973 1286 4C       		.byte	0x4c
 3974 1287 27       		.uleb128 0x27
 3975 1288 01       		.uleb128 0x1
 3976 1289 53       		.byte	0x53
 3977 128a 01       		.uleb128 0x1
 3978 128b 30       		.byte	0x30
 3979 128c 00       		.byte	0
 3980 128d 26       		.uleb128 0x26
 3981 128e 40000000 		.4byte	.LVL25
 3982 1292 F91B0000 		.4byte	0x1bf9
 3983 1296 AB120000 		.4byte	0x12ab
 3984 129a 27       		.uleb128 0x27
 3985 129b 01       		.uleb128 0x1
 3986 129c 50       		.byte	0x50
 3987 129d 02       		.uleb128 0x2
 3988 129e 74       		.byte	0x74
 3989 129f 00       		.sleb128 0
 3990 12a0 27       		.uleb128 0x27
 3991 12a1 01       		.uleb128 0x1
 3992 12a2 51       		.byte	0x51
 3993 12a3 01       		.uleb128 0x1
 3994 12a4 30       		.byte	0x30
 3995 12a5 27       		.uleb128 0x27
 3996 12a6 01       		.uleb128 0x1
 3997 12a7 52       		.byte	0x52
 3998 12a8 01       		.uleb128 0x1
 3999 12a9 30       		.byte	0x30
 4000 12aa 00       		.byte	0
 4001 12ab 28       		.uleb128 0x28
 4002 12ac 46000000 		.4byte	.LVL26
 4003 12b0 89110000 		.4byte	0x1189
 4004 12b4 27       		.uleb128 0x27
 4005 12b5 01       		.uleb128 0x1
 4006 12b6 50       		.byte	0x50
 4007 12b7 02       		.uleb128 0x2
 4008 12b8 74       		.byte	0x74
 4009 12b9 00       		.sleb128 0
 4010 12ba 00       		.byte	0
 4011 12bb 00       		.byte	0
 4012 12bc 2A       		.uleb128 0x2a
 4013 12bd 55120000 		.4byte	.LASF403
 4014 12c1 01       		.byte	0x1
 4015 12c2 1101     		.2byte	0x111
 4016 12c4 00000000 		.4byte	.LFB170
ARM GAS  C:\Users\haske\AppData\Local\Temp\ccEGgQv3.s 			page 81


 4017 12c8 38020000 		.4byte	.LFE170-.LFB170
 4018 12cc 01       		.uleb128 0x1
 4019 12cd 9C       		.byte	0x9c
 4020 12ce A2170000 		.4byte	0x17a2
 4021 12d2 21       		.uleb128 0x21
 4022 12d3 6500     		.ascii	"e\000"
 4023 12d5 01       		.byte	0x1
 4024 12d6 1101     		.2byte	0x111
 4025 12d8 E50D0000 		.4byte	0xde5
 4026 12dc B0010000 		.4byte	.LLST10
 4027 12e0 24       		.uleb128 0x24
 4028 12e1 6F626A00 		.ascii	"obj\000"
 4029 12e5 01       		.byte	0x1
 4030 12e6 1301     		.2byte	0x113
 4031 12e8 8E0F0000 		.4byte	0xf8e
 4032 12ec D1010000 		.4byte	.LLST11
 4033 12f0 22       		.uleb128 0x22
 4034 12f1 1F140000 		.4byte	.LASF396
 4035 12f5 01       		.byte	0x1
 4036 12f6 1601     		.2byte	0x116
 4037 12f8 7D110000 		.4byte	0x117d
 4038 12fc D1010000 		.4byte	.LLST11
 4039 1300 22       		.uleb128 0x22
 4040 1301 1A080000 		.4byte	.LASF401
 4041 1305 01       		.byte	0x1
 4042 1306 1701     		.2byte	0x117
 4043 1308 CE000000 		.4byte	0xce
 4044 130c EF010000 		.4byte	.LLST13
 4045 1310 24       		.uleb128 0x24
 4046 1311 74787400 		.ascii	"txt\000"
 4047 1315 01       		.byte	0x1
 4048 1316 1A01     		.2byte	0x11a
 4049 1318 AE030000 		.4byte	0x3ae
 4050 131c 02020000 		.4byte	.LLST14
 4051 1320 23       		.uleb128 0x23
 4052 1321 AA000000 		.4byte	.LBB4
 4053 1325 22000000 		.4byte	.LBE4-.LBB4
 4054 1329 72130000 		.4byte	0x1372
 4055 132d 24       		.uleb128 0x24
 4056 132e 72657300 		.ascii	"res\000"
 4057 1332 01       		.byte	0x1
 4058 1333 3001     		.2byte	0x130
 4059 1335 95030000 		.4byte	0x395
 4060 1339 2B020000 		.4byte	.LLST15
 4061 133d 26       		.uleb128 0x26
 4062 133e B4000000 		.4byte	.LVL47
 4063 1342 051C0000 		.4byte	0x1c05
 4064 1346 5C130000 		.4byte	0x135c
 4065 134a 27       		.uleb128 0x27
 4066 134b 01       		.uleb128 0x1
 4067 134c 50       		.byte	0x50
 4068 134d 02       		.uleb128 0x2
 4069 134e 74       		.byte	0x74
 4070 134f 00       		.sleb128 0
 4071 1350 27       		.uleb128 0x27
 4072 1351 01       		.uleb128 0x1
 4073 1352 51       		.byte	0x51
ARM GAS  C:\Users\haske\AppData\Local\Temp\ccEGgQv3.s 			page 82


 4074 1353 02       		.uleb128 0x2
 4075 1354 08       		.byte	0x8
 4076 1355 20       		.byte	0x20
 4077 1356 27       		.uleb128 0x27
 4078 1357 01       		.uleb128 0x1
 4079 1358 52       		.byte	0x52
 4080 1359 01       		.uleb128 0x1
 4081 135a 30       		.byte	0x30
 4082 135b 00       		.byte	0
 4083 135c 28       		.uleb128 0x28
 4084 135d CA000000 		.4byte	.LVL49
 4085 1361 051C0000 		.4byte	0x1c05
 4086 1365 27       		.uleb128 0x27
 4087 1366 01       		.uleb128 0x1
 4088 1367 51       		.byte	0x51
 4089 1368 02       		.uleb128 0x2
 4090 1369 08       		.byte	0x8
 4091 136a 20       		.byte	0x20
 4092 136b 27       		.uleb128 0x27
 4093 136c 01       		.uleb128 0x1
 4094 136d 52       		.byte	0x52
 4095 136e 01       		.uleb128 0x1
 4096 136f 30       		.byte	0x30
 4097 1370 00       		.byte	0
 4098 1371 00       		.byte	0
 4099 1372 23       		.uleb128 0x23
 4100 1373 D8000000 		.4byte	.LBB5
 4101 1377 22000000 		.4byte	.LBE5-.LBB5
 4102 137b C2130000 		.4byte	0x13c2
 4103 137f 24       		.uleb128 0x24
 4104 1380 72657300 		.ascii	"res\000"
 4105 1384 01       		.byte	0x1
 4106 1385 3A01     		.2byte	0x13a
 4107 1387 95030000 		.4byte	0x395
 4108 138b 3E020000 		.4byte	.LLST16
 4109 138f 26       		.uleb128 0x26
 4110 1390 E2000000 		.4byte	.LVL51
 4111 1394 051C0000 		.4byte	0x1c05
 4112 1398 AD130000 		.4byte	0x13ad
 4113 139c 27       		.uleb128 0x27
 4114 139d 01       		.uleb128 0x1
 4115 139e 50       		.byte	0x50
 4116 139f 02       		.uleb128 0x2
 4117 13a0 74       		.byte	0x74
 4118 13a1 00       		.sleb128 0
 4119 13a2 27       		.uleb128 0x27
 4120 13a3 01       		.uleb128 0x1
 4121 13a4 51       		.byte	0x51
 4122 13a5 01       		.uleb128 0x1
 4123 13a6 4F       		.byte	0x4f
 4124 13a7 27       		.uleb128 0x27
 4125 13a8 01       		.uleb128 0x1
 4126 13a9 52       		.byte	0x52
 4127 13aa 01       		.uleb128 0x1
 4128 13ab 30       		.byte	0x30
 4129 13ac 00       		.byte	0
 4130 13ad 28       		.uleb128 0x28
ARM GAS  C:\Users\haske\AppData\Local\Temp\ccEGgQv3.s 			page 83


 4131 13ae F8000000 		.4byte	.LVL53
 4132 13b2 051C0000 		.4byte	0x1c05
 4133 13b6 27       		.uleb128 0x27
 4134 13b7 01       		.uleb128 0x1
 4135 13b8 51       		.byte	0x51
 4136 13b9 01       		.uleb128 0x1
 4137 13ba 4F       		.byte	0x4f
 4138 13bb 27       		.uleb128 0x27
 4139 13bc 01       		.uleb128 0x1
 4140 13bd 52       		.byte	0x52
 4141 13be 01       		.uleb128 0x1
 4142 13bf 30       		.byte	0x30
 4143 13c0 00       		.byte	0
 4144 13c1 00       		.byte	0
 4145 13c2 23       		.uleb128 0x23
 4146 13c3 2A010000 		.4byte	.LBB6
 4147 13c7 0C000000 		.4byte	.LBE6-.LBB6
 4148 13cb F0130000 		.4byte	0x13f0
 4149 13cf 2B       		.uleb128 0x2b
 4150 13d0 72657300 		.ascii	"res\000"
 4151 13d4 01       		.byte	0x1
 4152 13d5 4A01     		.2byte	0x14a
 4153 13d7 95030000 		.4byte	0x395
 4154 13db 28       		.uleb128 0x28
 4155 13dc 34010000 		.4byte	.LVL58
 4156 13e0 051C0000 		.4byte	0x1c05
 4157 13e4 27       		.uleb128 0x27
 4158 13e5 01       		.uleb128 0x1
 4159 13e6 51       		.byte	0x51
 4160 13e7 01       		.uleb128 0x1
 4161 13e8 4F       		.byte	0x4f
 4162 13e9 27       		.uleb128 0x27
 4163 13ea 01       		.uleb128 0x1
 4164 13eb 52       		.byte	0x52
 4165 13ec 01       		.uleb128 0x1
 4166 13ed 30       		.byte	0x30
 4167 13ee 00       		.byte	0
 4168 13ef 00       		.byte	0
 4169 13f0 23       		.uleb128 0x23
 4170 13f1 7E010000 		.4byte	.LBB7
 4171 13f5 78000000 		.4byte	.LBE7-.LBB7
 4172 13f9 08150000 		.4byte	0x1508
 4173 13fd 24       		.uleb128 0x24
 4174 13fe 63757200 		.ascii	"cur\000"
 4175 1402 01       		.byte	0x1
 4176 1403 5801     		.2byte	0x158
 4177 1405 CE000000 		.4byte	0xce
 4178 1409 51020000 		.4byte	.LLST17
 4179 140d 22       		.uleb128 0x22
 4180 140e 21150000 		.4byte	.LASF402
 4181 1412 01       		.byte	0x1
 4182 1413 5901     		.2byte	0x159
 4183 1415 AE030000 		.4byte	0x3ae
 4184 1419 64020000 		.4byte	.LLST18
 4185 141d 26       		.uleb128 0x26
 4186 141e 84010000 		.4byte	.LVL66
 4187 1422 101C0000 		.4byte	0x1c10
ARM GAS  C:\Users\haske\AppData\Local\Temp\ccEGgQv3.s 			page 84


 4188 1426 31140000 		.4byte	0x1431
 4189 142a 27       		.uleb128 0x27
 4190 142b 01       		.uleb128 0x1
 4191 142c 50       		.byte	0x50
 4192 142d 02       		.uleb128 0x2
 4193 142e 76       		.byte	0x76
 4194 142f 00       		.sleb128 0
 4195 1430 00       		.byte	0
 4196 1431 25       		.uleb128 0x25
 4197 1432 8C010000 		.4byte	.LVL68
 4198 1436 1B1C0000 		.4byte	0x1c1b
 4199 143a 26       		.uleb128 0x26
 4200 143b 9A010000 		.4byte	.LVL70
 4201 143f 261C0000 		.4byte	0x1c26
 4202 1443 4D140000 		.4byte	0x144d
 4203 1447 27       		.uleb128 0x27
 4204 1448 01       		.uleb128 0x1
 4205 1449 51       		.byte	0x51
 4206 144a 01       		.uleb128 0x1
 4207 144b 31       		.byte	0x31
 4208 144c 00       		.byte	0
 4209 144d 25       		.uleb128 0x25
 4210 144e A0010000 		.4byte	.LVL71
 4211 1452 311C0000 		.4byte	0x1c31
 4212 1456 26       		.uleb128 0x26
 4213 1457 A8010000 		.4byte	.LVL72
 4214 145b 3C1C0000 		.4byte	0x1c3c
 4215 145f 6A140000 		.4byte	0x146a
 4216 1463 27       		.uleb128 0x27
 4217 1464 01       		.uleb128 0x1
 4218 1465 51       		.byte	0x51
 4219 1466 02       		.uleb128 0x2
 4220 1467 08       		.byte	0x8
 4221 1468 2B       		.byte	0x2b
 4222 1469 00       		.byte	0
 4223 146a 26       		.uleb128 0x26
 4224 146b B0010000 		.4byte	.LVL73
 4225 146f 261C0000 		.4byte	0x1c26
 4226 1473 82140000 		.4byte	0x1482
 4227 1477 27       		.uleb128 0x27
 4228 1478 01       		.uleb128 0x1
 4229 1479 51       		.byte	0x51
 4230 147a 06       		.uleb128 0x6
 4231 147b 75       		.byte	0x75
 4232 147c 00       		.sleb128 0
 4233 147d 0A       		.byte	0xa
 4234 147e FFFF     		.2byte	0xffff
 4235 1480 1A       		.byte	0x1a
 4236 1481 00       		.byte	0
 4237 1482 26       		.uleb128 0x26
 4238 1483 BE010000 		.4byte	.LVL76
 4239 1487 261C0000 		.4byte	0x1c26
 4240 148b 95140000 		.4byte	0x1495
 4241 148f 27       		.uleb128 0x27
 4242 1490 01       		.uleb128 0x1
 4243 1491 51       		.byte	0x51
 4244 1492 01       		.uleb128 0x1
ARM GAS  C:\Users\haske\AppData\Local\Temp\ccEGgQv3.s 			page 85


 4245 1493 31       		.byte	0x31
 4246 1494 00       		.byte	0
 4247 1495 25       		.uleb128 0x25
 4248 1496 C4010000 		.4byte	.LVL77
 4249 149a 311C0000 		.4byte	0x1c31
 4250 149e 26       		.uleb128 0x26
 4251 149f CC010000 		.4byte	.LVL78
 4252 14a3 3C1C0000 		.4byte	0x1c3c
 4253 14a7 B2140000 		.4byte	0x14b2
 4254 14ab 27       		.uleb128 0x27
 4255 14ac 01       		.uleb128 0x1
 4256 14ad 51       		.byte	0x51
 4257 14ae 02       		.uleb128 0x2
 4258 14af 08       		.byte	0x8
 4259 14b0 2D       		.byte	0x2d
 4260 14b1 00       		.byte	0
 4261 14b2 26       		.uleb128 0x26
 4262 14b3 D6010000 		.4byte	.LVL79
 4263 14b7 261C0000 		.4byte	0x1c26
 4264 14bb CA140000 		.4byte	0x14ca
 4265 14bf 27       		.uleb128 0x27
 4266 14c0 01       		.uleb128 0x1
 4267 14c1 51       		.byte	0x51
 4268 14c2 06       		.uleb128 0x6
 4269 14c3 75       		.byte	0x75
 4270 14c4 00       		.sleb128 0
 4271 14c5 40       		.byte	0x40
 4272 14c6 24       		.byte	0x24
 4273 14c7 40       		.byte	0x40
 4274 14c8 25       		.byte	0x25
 4275 14c9 00       		.byte	0
 4276 14ca 26       		.uleb128 0x26
 4277 14cb E0010000 		.4byte	.LVL82
 4278 14cf 261C0000 		.4byte	0x1c26
 4279 14d3 DD140000 		.4byte	0x14dd
 4280 14d7 27       		.uleb128 0x27
 4281 14d8 01       		.uleb128 0x1
 4282 14d9 51       		.byte	0x51
 4283 14da 01       		.uleb128 0x1
 4284 14db 30       		.byte	0x30
 4285 14dc 00       		.byte	0
 4286 14dd 26       		.uleb128 0x26
 4287 14de E8010000 		.4byte	.LVL83
 4288 14e2 3C1C0000 		.4byte	0x1c3c
 4289 14e6 F1140000 		.4byte	0x14f1
 4290 14ea 27       		.uleb128 0x27
 4291 14eb 01       		.uleb128 0x1
 4292 14ec 51       		.byte	0x51
 4293 14ed 02       		.uleb128 0x2
 4294 14ee 08       		.byte	0x8
 4295 14ef 2D       		.byte	0x2d
 4296 14f0 00       		.byte	0
 4297 14f1 28       		.uleb128 0x28
 4298 14f2 F4010000 		.4byte	.LVL84
 4299 14f6 261C0000 		.4byte	0x1c26
 4300 14fa 27       		.uleb128 0x27
 4301 14fb 01       		.uleb128 0x1
ARM GAS  C:\Users\haske\AppData\Local\Temp\ccEGgQv3.s 			page 86


 4302 14fc 51       		.byte	0x51
 4303 14fd 08       		.uleb128 0x8
 4304 14fe 75       		.byte	0x75
 4305 14ff 00       		.sleb128 0
 4306 1500 40       		.byte	0x40
 4307 1501 24       		.byte	0x24
 4308 1502 40       		.byte	0x40
 4309 1503 25       		.byte	0x25
 4310 1504 23       		.byte	0x23
 4311 1505 01       		.uleb128 0x1
 4312 1506 00       		.byte	0
 4313 1507 00       		.byte	0
 4314 1508 26       		.uleb128 0x26
 4315 1509 06000000 		.4byte	.LVL29
 4316 150d 471C0000 		.4byte	0x1c47
 4317 1511 1D150000 		.4byte	0x151d
 4318 1515 27       		.uleb128 0x27
 4319 1516 01       		.uleb128 0x1
 4320 1517 50       		.byte	0x50
 4321 1518 03       		.uleb128 0x3
 4322 1519 F3       		.byte	0xf3
 4323 151a 01       		.uleb128 0x1
 4324 151b 50       		.byte	0x50
 4325 151c 00       		.byte	0
 4326 151d 26       		.uleb128 0x26
 4327 151e 0C000000 		.4byte	.LVL31
 4328 1522 521C0000 		.4byte	0x1c52
 4329 1526 31150000 		.4byte	0x1531
 4330 152a 27       		.uleb128 0x27
 4331 152b 01       		.uleb128 0x1
 4332 152c 50       		.byte	0x50
 4333 152d 02       		.uleb128 0x2
 4334 152e 74       		.byte	0x74
 4335 152f 00       		.sleb128 0
 4336 1530 00       		.byte	0
 4337 1531 26       		.uleb128 0x26
 4338 1532 1A000000 		.4byte	.LVL33
 4339 1536 521C0000 		.4byte	0x1c52
 4340 153a 45150000 		.4byte	0x1545
 4341 153e 27       		.uleb128 0x27
 4342 153f 01       		.uleb128 0x1
 4343 1540 50       		.byte	0x50
 4344 1541 02       		.uleb128 0x2
 4345 1542 74       		.byte	0x74
 4346 1543 00       		.sleb128 0
 4347 1544 00       		.byte	0
 4348 1545 26       		.uleb128 0x26
 4349 1546 22000000 		.4byte	.LVL34
 4350 154a 5D1C0000 		.4byte	0x1c5d
 4351 154e 59150000 		.4byte	0x1559
 4352 1552 27       		.uleb128 0x27
 4353 1553 01       		.uleb128 0x1
 4354 1554 50       		.byte	0x50
 4355 1555 02       		.uleb128 0x2
 4356 1556 74       		.byte	0x74
 4357 1557 00       		.sleb128 0
 4358 1558 00       		.byte	0
ARM GAS  C:\Users\haske\AppData\Local\Temp\ccEGgQv3.s 			page 87


 4359 1559 26       		.uleb128 0x26
 4360 155a 2E000000 		.4byte	.LVL36
 4361 155e 681C0000 		.4byte	0x1c68
 4362 1562 76150000 		.4byte	0x1576
 4363 1566 27       		.uleb128 0x27
 4364 1567 01       		.uleb128 0x1
 4365 1568 50       		.byte	0x50
 4366 1569 02       		.uleb128 0x2
 4367 156a 75       		.byte	0x75
 4368 156b 00       		.sleb128 0
 4369 156c 27       		.uleb128 0x27
 4370 156d 01       		.uleb128 0x1
 4371 156e 51       		.byte	0x51
 4372 156f 05       		.uleb128 0x5
 4373 1570 03       		.byte	0x3
 4374 1571 00000000 		.4byte	.LC3
 4375 1575 00       		.byte	0
 4376 1576 26       		.uleb128 0x26
 4377 1577 42000000 		.4byte	.LVL37
 4378 157b CD1B0000 		.4byte	0x1bcd
 4379 157f 8A150000 		.4byte	0x158a
 4380 1583 27       		.uleb128 0x27
 4381 1584 01       		.uleb128 0x1
 4382 1585 50       		.byte	0x50
 4383 1586 02       		.uleb128 0x2
 4384 1587 74       		.byte	0x74
 4385 1588 00       		.sleb128 0
 4386 1589 00       		.byte	0
 4387 158a 26       		.uleb128 0x26
 4388 158b 48000000 		.4byte	.LVL38
 4389 158f A5100000 		.4byte	0x10a5
 4390 1593 9E150000 		.4byte	0x159e
 4391 1597 27       		.uleb128 0x27
 4392 1598 01       		.uleb128 0x1
 4393 1599 50       		.byte	0x50
 4394 159a 02       		.uleb128 0x2
 4395 159b 74       		.byte	0x74
 4396 159c 00       		.sleb128 0
 4397 159d 00       		.byte	0
 4398 159e 26       		.uleb128 0x26
 4399 159f 52000000 		.4byte	.LVL39
 4400 15a3 681C0000 		.4byte	0x1c68
 4401 15a7 BB150000 		.4byte	0x15bb
 4402 15ab 27       		.uleb128 0x27
 4403 15ac 01       		.uleb128 0x1
 4404 15ad 50       		.byte	0x50
 4405 15ae 02       		.uleb128 0x2
 4406 15af 75       		.byte	0x75
 4407 15b0 00       		.sleb128 0
 4408 15b1 27       		.uleb128 0x27
 4409 15b2 01       		.uleb128 0x1
 4410 15b3 51       		.byte	0x51
 4411 15b4 05       		.uleb128 0x5
 4412 15b5 03       		.byte	0x3
 4413 15b6 04000000 		.4byte	.LC6
 4414 15ba 00       		.byte	0
 4415 15bb 26       		.uleb128 0x26
ARM GAS  C:\Users\haske\AppData\Local\Temp\ccEGgQv3.s 			page 88


 4416 15bc 66000000 		.4byte	.LVL40
 4417 15c0 CD1B0000 		.4byte	0x1bcd
 4418 15c4 CF150000 		.4byte	0x15cf
 4419 15c8 27       		.uleb128 0x27
 4420 15c9 01       		.uleb128 0x1
 4421 15ca 50       		.byte	0x50
 4422 15cb 02       		.uleb128 0x2
 4423 15cc 74       		.byte	0x74
 4424 15cd 00       		.sleb128 0
 4425 15ce 00       		.byte	0
 4426 15cf 26       		.uleb128 0x26
 4427 15d0 6C000000 		.4byte	.LVL41
 4428 15d4 A5100000 		.4byte	0x10a5
 4429 15d8 E3150000 		.4byte	0x15e3
 4430 15dc 27       		.uleb128 0x27
 4431 15dd 01       		.uleb128 0x1
 4432 15de 50       		.byte	0x50
 4433 15df 02       		.uleb128 0x2
 4434 15e0 74       		.byte	0x74
 4435 15e1 00       		.sleb128 0
 4436 15e2 00       		.byte	0
 4437 15e3 26       		.uleb128 0x26
 4438 15e4 76000000 		.4byte	.LVL42
 4439 15e8 681C0000 		.4byte	0x1c68
 4440 15ec 00160000 		.4byte	0x1600
 4441 15f0 27       		.uleb128 0x27
 4442 15f1 01       		.uleb128 0x1
 4443 15f2 50       		.byte	0x50
 4444 15f3 02       		.uleb128 0x2
 4445 15f4 75       		.byte	0x75
 4446 15f5 00       		.sleb128 0
 4447 15f6 27       		.uleb128 0x27
 4448 15f7 01       		.uleb128 0x1
 4449 15f8 51       		.byte	0x51
 4450 15f9 05       		.uleb128 0x5
 4451 15fa 03       		.byte	0x3
 4452 15fb 08000000 		.4byte	.LC8
 4453 15ff 00       		.byte	0
 4454 1600 26       		.uleb128 0x26
 4455 1601 8A000000 		.4byte	.LVL43
 4456 1605 CD1B0000 		.4byte	0x1bcd
 4457 1609 14160000 		.4byte	0x1614
 4458 160d 27       		.uleb128 0x27
 4459 160e 01       		.uleb128 0x1
 4460 160f 50       		.byte	0x50
 4461 1610 02       		.uleb128 0x2
 4462 1611 74       		.byte	0x74
 4463 1612 00       		.sleb128 0
 4464 1613 00       		.byte	0
 4465 1614 26       		.uleb128 0x26
 4466 1615 90000000 		.4byte	.LVL44
 4467 1619 A5100000 		.4byte	0x10a5
 4468 161d 28160000 		.4byte	0x1628
 4469 1621 27       		.uleb128 0x27
 4470 1622 01       		.uleb128 0x1
 4471 1623 50       		.byte	0x50
 4472 1624 02       		.uleb128 0x2
ARM GAS  C:\Users\haske\AppData\Local\Temp\ccEGgQv3.s 			page 89


 4473 1625 74       		.byte	0x74
 4474 1626 00       		.sleb128 0
 4475 1627 00       		.byte	0
 4476 1628 26       		.uleb128 0x26
 4477 1629 9A000000 		.4byte	.LVL45
 4478 162d 681C0000 		.4byte	0x1c68
 4479 1631 45160000 		.4byte	0x1645
 4480 1635 27       		.uleb128 0x27
 4481 1636 01       		.uleb128 0x1
 4482 1637 50       		.byte	0x50
 4483 1638 02       		.uleb128 0x2
 4484 1639 75       		.byte	0x75
 4485 163a 00       		.sleb128 0
 4486 163b 27       		.uleb128 0x27
 4487 163c 01       		.uleb128 0x1
 4488 163d 51       		.byte	0x51
 4489 163e 05       		.uleb128 0x5
 4490 163f 03       		.byte	0x3
 4491 1640 0C000000 		.4byte	.LC10
 4492 1644 00       		.byte	0
 4493 1645 26       		.uleb128 0x26
 4494 1646 A6000000 		.4byte	.LVL46
 4495 164a 681C0000 		.4byte	0x1c68
 4496 164e 62160000 		.4byte	0x1662
 4497 1652 27       		.uleb128 0x27
 4498 1653 01       		.uleb128 0x1
 4499 1654 50       		.byte	0x50
 4500 1655 02       		.uleb128 0x2
 4501 1656 75       		.byte	0x75
 4502 1657 00       		.sleb128 0
 4503 1658 27       		.uleb128 0x27
 4504 1659 01       		.uleb128 0x1
 4505 165a 51       		.byte	0x51
 4506 165b 05       		.uleb128 0x5
 4507 165c 03       		.byte	0x3
 4508 165d 10000000 		.4byte	.LC12
 4509 1661 00       		.byte	0
 4510 1662 26       		.uleb128 0x26
 4511 1663 D4000000 		.4byte	.LVL50
 4512 1667 681C0000 		.4byte	0x1c68
 4513 166b 7F160000 		.4byte	0x167f
 4514 166f 27       		.uleb128 0x27
 4515 1670 01       		.uleb128 0x1
 4516 1671 50       		.byte	0x50
 4517 1672 02       		.uleb128 0x2
 4518 1673 75       		.byte	0x75
 4519 1674 00       		.sleb128 0
 4520 1675 27       		.uleb128 0x27
 4521 1676 01       		.uleb128 0x1
 4522 1677 51       		.byte	0x51
 4523 1678 05       		.uleb128 0x5
 4524 1679 03       		.byte	0x3
 4525 167a 14000000 		.4byte	.LC14
 4526 167e 00       		.byte	0
 4527 167f 26       		.uleb128 0x26
 4528 1680 08010000 		.4byte	.LVL54
 4529 1684 681C0000 		.4byte	0x1c68
ARM GAS  C:\Users\haske\AppData\Local\Temp\ccEGgQv3.s 			page 90


 4530 1688 9C160000 		.4byte	0x169c
 4531 168c 27       		.uleb128 0x27
 4532 168d 01       		.uleb128 0x1
 4533 168e 50       		.byte	0x50
 4534 168f 02       		.uleb128 0x2
 4535 1690 75       		.byte	0x75
 4536 1691 00       		.sleb128 0
 4537 1692 27       		.uleb128 0x27
 4538 1693 01       		.uleb128 0x1
 4539 1694 51       		.byte	0x51
 4540 1695 05       		.uleb128 0x5
 4541 1696 03       		.byte	0x3
 4542 1697 18000000 		.4byte	.LC16
 4543 169b 00       		.byte	0
 4544 169c 26       		.uleb128 0x26
 4545 169d 14010000 		.4byte	.LVL55
 4546 16a1 681C0000 		.4byte	0x1c68
 4547 16a5 B9160000 		.4byte	0x16b9
 4548 16a9 27       		.uleb128 0x27
 4549 16aa 01       		.uleb128 0x1
 4550 16ab 50       		.byte	0x50
 4551 16ac 02       		.uleb128 0x2
 4552 16ad 75       		.byte	0x75
 4553 16ae 00       		.sleb128 0
 4554 16af 27       		.uleb128 0x27
 4555 16b0 01       		.uleb128 0x1
 4556 16b1 51       		.byte	0x51
 4557 16b2 05       		.uleb128 0x5
 4558 16b3 03       		.byte	0x3
 4559 16b4 20000000 		.4byte	.LC18
 4560 16b8 00       		.byte	0
 4561 16b9 26       		.uleb128 0x26
 4562 16ba 20010000 		.4byte	.LVL56
 4563 16be 3C1C0000 		.4byte	0x1c3c
 4564 16c2 D2160000 		.4byte	0x16d2
 4565 16c6 27       		.uleb128 0x27
 4566 16c7 01       		.uleb128 0x1
 4567 16c8 50       		.byte	0x50
 4568 16c9 02       		.uleb128 0x2
 4569 16ca 76       		.byte	0x76
 4570 16cb 00       		.sleb128 0
 4571 16cc 27       		.uleb128 0x27
 4572 16cd 01       		.uleb128 0x1
 4573 16ce 51       		.byte	0x51
 4574 16cf 01       		.uleb128 0x1
 4575 16d0 3A       		.byte	0x3a
 4576 16d1 00       		.byte	0
 4577 16d2 25       		.uleb128 0x25
 4578 16d3 26010000 		.4byte	.LVL57
 4579 16d7 731C0000 		.4byte	0x1c73
 4580 16db 26       		.uleb128 0x26
 4581 16dc 3E010000 		.4byte	.LVL59
 4582 16e0 681C0000 		.4byte	0x1c68
 4583 16e4 F8160000 		.4byte	0x16f8
 4584 16e8 27       		.uleb128 0x27
 4585 16e9 01       		.uleb128 0x1
 4586 16ea 50       		.byte	0x50
ARM GAS  C:\Users\haske\AppData\Local\Temp\ccEGgQv3.s 			page 91


 4587 16eb 02       		.uleb128 0x2
 4588 16ec 75       		.byte	0x75
 4589 16ed 00       		.sleb128 0
 4590 16ee 27       		.uleb128 0x27
 4591 16ef 01       		.uleb128 0x1
 4592 16f0 51       		.byte	0x51
 4593 16f1 05       		.uleb128 0x5
 4594 16f2 03       		.byte	0x3
 4595 16f3 24000000 		.4byte	.LC20
 4596 16f7 00       		.byte	0
 4597 16f8 26       		.uleb128 0x26
 4598 16f9 48010000 		.4byte	.LVL60
 4599 16fd 7F1C0000 		.4byte	0x1c7f
 4600 1701 0C170000 		.4byte	0x170c
 4601 1705 27       		.uleb128 0x27
 4602 1706 01       		.uleb128 0x1
 4603 1707 50       		.byte	0x50
 4604 1708 02       		.uleb128 0x2
 4605 1709 76       		.byte	0x76
 4606 170a 00       		.sleb128 0
 4607 170b 00       		.byte	0
 4608 170c 26       		.uleb128 0x26
 4609 170d 52010000 		.4byte	.LVL61
 4610 1711 681C0000 		.4byte	0x1c68
 4611 1715 29170000 		.4byte	0x1729
 4612 1719 27       		.uleb128 0x27
 4613 171a 01       		.uleb128 0x1
 4614 171b 50       		.byte	0x50
 4615 171c 02       		.uleb128 0x2
 4616 171d 75       		.byte	0x75
 4617 171e 00       		.sleb128 0
 4618 171f 27       		.uleb128 0x27
 4619 1720 01       		.uleb128 0x1
 4620 1721 51       		.byte	0x51
 4621 1722 05       		.uleb128 0x5
 4622 1723 03       		.byte	0x3
 4623 1724 28000000 		.4byte	.LC22
 4624 1728 00       		.byte	0
 4625 1729 26       		.uleb128 0x26
 4626 172a 5C010000 		.4byte	.LVL62
 4627 172e 8B1C0000 		.4byte	0x1c8b
 4628 1732 3D170000 		.4byte	0x173d
 4629 1736 27       		.uleb128 0x27
 4630 1737 01       		.uleb128 0x1
 4631 1738 50       		.byte	0x50
 4632 1739 02       		.uleb128 0x2
 4633 173a 76       		.byte	0x76
 4634 173b 00       		.sleb128 0
 4635 173c 00       		.byte	0
 4636 173d 26       		.uleb128 0x26
 4637 173e 66010000 		.4byte	.LVL63
 4638 1742 681C0000 		.4byte	0x1c68
 4639 1746 5A170000 		.4byte	0x175a
 4640 174a 27       		.uleb128 0x27
 4641 174b 01       		.uleb128 0x1
 4642 174c 50       		.byte	0x50
 4643 174d 02       		.uleb128 0x2
ARM GAS  C:\Users\haske\AppData\Local\Temp\ccEGgQv3.s 			page 92


 4644 174e 75       		.byte	0x75
 4645 174f 00       		.sleb128 0
 4646 1750 27       		.uleb128 0x27
 4647 1751 01       		.uleb128 0x1
 4648 1752 51       		.byte	0x51
 4649 1753 05       		.uleb128 0x5
 4650 1754 03       		.byte	0x3
 4651 1755 2C000000 		.4byte	.LC24
 4652 1759 00       		.byte	0
 4653 175a 26       		.uleb128 0x26
 4654 175b 70010000 		.4byte	.LVL64
 4655 175f 311C0000 		.4byte	0x1c31
 4656 1763 6E170000 		.4byte	0x176e
 4657 1767 27       		.uleb128 0x27
 4658 1768 01       		.uleb128 0x1
 4659 1769 50       		.byte	0x50
 4660 176a 02       		.uleb128 0x2
 4661 176b 76       		.byte	0x76
 4662 176c 00       		.sleb128 0
 4663 176d 00       		.byte	0
 4664 176e 26       		.uleb128 0x26
 4665 176f 7A010000 		.4byte	.LVL65
 4666 1773 681C0000 		.4byte	0x1c68
 4667 1777 8B170000 		.4byte	0x178b
 4668 177b 27       		.uleb128 0x27
 4669 177c 01       		.uleb128 0x1
 4670 177d 50       		.byte	0x50
 4671 177e 02       		.uleb128 0x2
 4672 177f 75       		.byte	0x75
 4673 1780 00       		.sleb128 0
 4674 1781 27       		.uleb128 0x27
 4675 1782 01       		.uleb128 0x1
 4676 1783 51       		.byte	0x51
 4677 1784 05       		.uleb128 0x5
 4678 1785 03       		.byte	0x3
 4679 1786 30000000 		.4byte	.LC26
 4680 178a 00       		.byte	0
 4681 178b 28       		.uleb128 0x28
 4682 178c FE010000 		.4byte	.LVL86
 4683 1790 971C0000 		.4byte	0x1c97
 4684 1794 27       		.uleb128 0x27
 4685 1795 01       		.uleb128 0x1
 4686 1796 50       		.byte	0x50
 4687 1797 02       		.uleb128 0x2
 4688 1798 76       		.byte	0x76
 4689 1799 00       		.sleb128 0
 4690 179a 27       		.uleb128 0x27
 4691 179b 01       		.uleb128 0x1
 4692 179c 51       		.byte	0x51
 4693 179d 02       		.uleb128 0x2
 4694 179e 75       		.byte	0x75
 4695 179f 00       		.sleb128 0
 4696 17a0 00       		.byte	0
 4697 17a1 00       		.byte	0
 4698 17a2 2C       		.uleb128 0x2c
 4699 17a3 40170000 		.4byte	.LASF408
 4700 17a7 01       		.byte	0x1
ARM GAS  C:\Users\haske\AppData\Local\Temp\ccEGgQv3.s 			page 93


 4701 17a8 89       		.byte	0x89
 4702 17a9 8E0F0000 		.4byte	0xf8e
 4703 17ad 00000000 		.4byte	.LFB162
 4704 17b1 18000000 		.4byte	.LFE162-.LFB162
 4705 17b5 01       		.uleb128 0x1
 4706 17b6 9C       		.byte	0x9c
 4707 17b7 08180000 		.4byte	0x1808
 4708 17bb 2D       		.uleb128 0x2d
 4709 17bc F00B0000 		.4byte	.LASF187
 4710 17c0 01       		.byte	0x1
 4711 17c1 89       		.byte	0x89
 4712 17c2 8E0F0000 		.4byte	0xf8e
 4713 17c6 8D020000 		.4byte	.LLST19
 4714 17ca 2E       		.uleb128 0x2e
 4715 17cb 6F626A00 		.ascii	"obj\000"
 4716 17cf 01       		.byte	0x1
 4717 17d0 8C       		.byte	0x8c
 4718 17d1 8E0F0000 		.4byte	0xf8e
 4719 17d5 B9020000 		.4byte	.LLST20
 4720 17d9 26       		.uleb128 0x26
 4721 17da 0A000000 		.4byte	.LVL90
 4722 17de A21C0000 		.4byte	0x1ca2
 4723 17e2 F7170000 		.4byte	0x17f7
 4724 17e6 27       		.uleb128 0x27
 4725 17e7 01       		.uleb128 0x1
 4726 17e8 50       		.byte	0x50
 4727 17e9 05       		.uleb128 0x5
 4728 17ea 03       		.byte	0x3
 4729 17eb 00000000 		.4byte	.LANCHOR1
 4730 17ef 27       		.uleb128 0x27
 4731 17f0 01       		.uleb128 0x1
 4732 17f1 51       		.byte	0x51
 4733 17f2 03       		.uleb128 0x3
 4734 17f3 F3       		.byte	0xf3
 4735 17f4 01       		.uleb128 0x1
 4736 17f5 50       		.byte	0x50
 4737 17f6 00       		.byte	0
 4738 17f7 28       		.uleb128 0x28
 4739 17f8 10000000 		.4byte	.LVL92
 4740 17fc AD1C0000 		.4byte	0x1cad
 4741 1800 27       		.uleb128 0x27
 4742 1801 01       		.uleb128 0x1
 4743 1802 50       		.byte	0x50
 4744 1803 02       		.uleb128 0x2
 4745 1804 74       		.byte	0x74
 4746 1805 00       		.sleb128 0
 4747 1806 00       		.byte	0
 4748 1807 00       		.byte	0
 4749 1808 2F       		.uleb128 0x2f
 4750 1809 FC070000 		.4byte	.LASF404
 4751 180d 01       		.byte	0x1
 4752 180e 9A       		.byte	0x9a
 4753 180f 00000000 		.4byte	.LFB163
 4754 1813 22000000 		.4byte	.LFE163-.LFB163
 4755 1817 01       		.uleb128 0x1
 4756 1818 9C       		.byte	0x9c
 4757 1819 78180000 		.4byte	0x1878
ARM GAS  C:\Users\haske\AppData\Local\Temp\ccEGgQv3.s 			page 94


 4758 181d 30       		.uleb128 0x30
 4759 181e 6F626A00 		.ascii	"obj\000"
 4760 1822 01       		.byte	0x1
 4761 1823 9A       		.byte	0x9a
 4762 1824 8E0F0000 		.4byte	0xf8e
 4763 1828 E2020000 		.4byte	.LLST21
 4764 182c 30       		.uleb128 0x30
 4765 182d 746100   		.ascii	"ta\000"
 4766 1830 01       		.byte	0x1
 4767 1831 9A       		.byte	0x9a
 4768 1832 8E0F0000 		.4byte	0xf8e
 4769 1836 0E030000 		.4byte	.LLST22
 4770 183a 31       		.uleb128 0x31
 4771 183b 1F140000 		.4byte	.LASF396
 4772 183f 01       		.byte	0x1
 4773 1840 A1       		.byte	0xa1
 4774 1841 7D110000 		.4byte	0x117d
 4775 1845 3A030000 		.4byte	.LLST23
 4776 1849 26       		.uleb128 0x26
 4777 184a 12000000 		.4byte	.LVL97
 4778 184e B81C0000 		.4byte	0x1cb8
 4779 1852 62180000 		.4byte	0x1862
 4780 1856 27       		.uleb128 0x27
 4781 1857 01       		.uleb128 0x1
 4782 1858 50       		.byte	0x50
 4783 1859 02       		.uleb128 0x2
 4784 185a 74       		.byte	0x74
 4785 185b 00       		.sleb128 0
 4786 185c 27       		.uleb128 0x27
 4787 185d 01       		.uleb128 0x1
 4788 185e 51       		.byte	0x51
 4789 185f 01       		.uleb128 0x1
 4790 1860 32       		.byte	0x32
 4791 1861 00       		.byte	0
 4792 1862 28       		.uleb128 0x28
 4793 1863 20000000 		.4byte	.LVL98
 4794 1867 C41C0000 		.4byte	0x1cc4
 4795 186b 27       		.uleb128 0x27
 4796 186c 01       		.uleb128 0x1
 4797 186d 50       		.byte	0x50
 4798 186e 02       		.uleb128 0x2
 4799 186f 74       		.byte	0x74
 4800 1870 00       		.sleb128 0
 4801 1871 27       		.uleb128 0x27
 4802 1872 01       		.uleb128 0x1
 4803 1873 51       		.byte	0x51
 4804 1874 01       		.uleb128 0x1
 4805 1875 32       		.byte	0x32
 4806 1876 00       		.byte	0
 4807 1877 00       		.byte	0
 4808 1878 2F       		.uleb128 0x2f
 4809 1879 301D0000 		.4byte	.LASF405
 4810 187d 01       		.byte	0x1
 4811 187e B5       		.byte	0xb5
 4812 187f 00000000 		.4byte	.LFB164
 4813 1883 14000000 		.4byte	.LFE164-.LFB164
 4814 1887 01       		.uleb128 0x1
ARM GAS  C:\Users\haske\AppData\Local\Temp\ccEGgQv3.s 			page 95


 4815 1888 9C       		.byte	0x9c
 4816 1889 CC180000 		.4byte	0x18cc
 4817 188d 30       		.uleb128 0x30
 4818 188e 6F626A00 		.ascii	"obj\000"
 4819 1892 01       		.byte	0x1
 4820 1893 B5       		.byte	0xb5
 4821 1894 8E0F0000 		.4byte	0xf8e
 4822 1898 66030000 		.4byte	.LLST24
 4823 189c 2D       		.uleb128 0x2d
 4824 189d E0180000 		.4byte	.LASF393
 4825 18a1 01       		.byte	0x1
 4826 18a2 B5       		.byte	0xb5
 4827 18a3 54100000 		.4byte	0x1054
 4828 18a7 87030000 		.4byte	.LLST25
 4829 18ab 31       		.uleb128 0x31
 4830 18ac 1F140000 		.4byte	.LASF396
 4831 18b0 01       		.byte	0x1
 4832 18b1 B8       		.byte	0xb8
 4833 18b2 7D110000 		.4byte	0x117d
 4834 18b6 A8030000 		.4byte	.LLST26
 4835 18ba 28       		.uleb128 0x28
 4836 18bb 12000000 		.4byte	.LVL103
 4837 18bf 89110000 		.4byte	0x1189
 4838 18c3 27       		.uleb128 0x27
 4839 18c4 01       		.uleb128 0x1
 4840 18c5 50       		.byte	0x50
 4841 18c6 03       		.uleb128 0x3
 4842 18c7 F3       		.byte	0xf3
 4843 18c8 01       		.uleb128 0x1
 4844 18c9 50       		.byte	0x50
 4845 18ca 00       		.byte	0
 4846 18cb 00       		.byte	0
 4847 18cc 2F       		.uleb128 0x2f
 4848 18cd A0100000 		.4byte	.LASF406
 4849 18d1 01       		.byte	0x1
 4850 18d2 C4       		.byte	0xc4
 4851 18d3 00000000 		.4byte	.LFB165
 4852 18d7 26000000 		.4byte	.LFE165-.LFB165
 4853 18db 01       		.uleb128 0x1
 4854 18dc 9C       		.byte	0x9c
 4855 18dd 1F190000 		.4byte	0x191f
 4856 18e1 30       		.uleb128 0x30
 4857 18e2 6F626A00 		.ascii	"obj\000"
 4858 18e6 01       		.byte	0x1
 4859 18e7 C4       		.byte	0xc4
 4860 18e8 8E0F0000 		.4byte	0xf8e
 4861 18ec C9030000 		.4byte	.LLST27
 4862 18f0 30       		.uleb128 0x30
 4863 18f1 656E00   		.ascii	"en\000"
 4864 18f4 01       		.byte	0x1
 4865 18f5 C4       		.byte	0xc4
 4866 18f6 30030000 		.4byte	0x330
 4867 18fa EA030000 		.4byte	.LLST28
 4868 18fe 31       		.uleb128 0x31
 4869 18ff 1F140000 		.4byte	.LASF396
 4870 1903 01       		.byte	0x1
 4871 1904 C6       		.byte	0xc6
ARM GAS  C:\Users\haske\AppData\Local\Temp\ccEGgQv3.s 			page 96


 4872 1905 7D110000 		.4byte	0x117d
 4873 1909 0B040000 		.4byte	.LLST29
 4874 190d 28       		.uleb128 0x28
 4875 190e 24000000 		.4byte	.LVL107
 4876 1912 A5100000 		.4byte	0x10a5
 4877 1916 27       		.uleb128 0x27
 4878 1917 01       		.uleb128 0x1
 4879 1918 50       		.byte	0x50
 4880 1919 03       		.uleb128 0x3
 4881 191a F3       		.byte	0xf3
 4882 191b 01       		.uleb128 0x1
 4883 191c 50       		.byte	0x50
 4884 191d 00       		.byte	0
 4885 191e 00       		.byte	0
 4886 191f 2F       		.uleb128 0x2f
 4887 1920 ED190000 		.4byte	.LASF407
 4888 1924 01       		.byte	0x1
 4889 1925 D7       		.byte	0xd7
 4890 1926 00000000 		.4byte	.LFB166
 4891 192a 18000000 		.4byte	.LFE166-.LFB166
 4892 192e 01       		.uleb128 0x1
 4893 192f 9C       		.byte	0x9c
 4894 1930 82190000 		.4byte	0x1982
 4895 1934 30       		.uleb128 0x30
 4896 1935 6F626A00 		.ascii	"obj\000"
 4897 1939 01       		.byte	0x1
 4898 193a D7       		.byte	0xd7
 4899 193b 8E0F0000 		.4byte	0xf8e
 4900 193f 2C040000 		.4byte	.LLST30
 4901 1943 2D       		.uleb128 0x2d
 4902 1944 E0180000 		.4byte	.LASF393
 4903 1948 01       		.byte	0x1
 4904 1949 D7       		.byte	0xd7
 4905 194a 54100000 		.4byte	0x1054
 4906 194e 4D040000 		.4byte	.LLST31
 4907 1952 30       		.uleb128 0x30
 4908 1953 6D617000 		.ascii	"map\000"
 4909 1957 01       		.byte	0x1
 4910 1958 D7       		.byte	0xd7
 4911 1959 00100000 		.4byte	0x1000
 4912 195d 6E040000 		.4byte	.LLST32
 4913 1961 2D       		.uleb128 0x2d
 4914 1962 11120000 		.4byte	.LASF397
 4915 1966 01       		.byte	0x1
 4916 1967 D8       		.byte	0xd8
 4917 1968 82190000 		.4byte	0x1982
 4918 196c 8F040000 		.4byte	.LLST33
 4919 1970 28       		.uleb128 0x28
 4920 1971 10000000 		.4byte	.LVL110
 4921 1975 89110000 		.4byte	0x1189
 4922 1979 27       		.uleb128 0x27
 4923 197a 01       		.uleb128 0x1
 4924 197b 50       		.byte	0x50
 4925 197c 03       		.uleb128 0x3
 4926 197d F3       		.byte	0xf3
 4927 197e 01       		.uleb128 0x1
 4928 197f 50       		.byte	0x50
ARM GAS  C:\Users\haske\AppData\Local\Temp\ccEGgQv3.s 			page 97


 4929 1980 00       		.byte	0
 4930 1981 00       		.byte	0
 4931 1982 0D       		.uleb128 0xd
 4932 1983 04       		.byte	0x4
 4933 1984 88190000 		.4byte	0x1988
 4934 1988 0E       		.uleb128 0xe
 4935 1989 830F0000 		.4byte	0xf83
 4936 198d 2C       		.uleb128 0x2c
 4937 198e F7160000 		.4byte	.LASF409
 4938 1992 01       		.byte	0x1
 4939 1993 E8       		.byte	0xe8
 4940 1994 8E0F0000 		.4byte	0xf8e
 4941 1998 00000000 		.4byte	.LFB167
 4942 199c 04000000 		.4byte	.LFE167-.LFB167
 4943 19a0 01       		.uleb128 0x1
 4944 19a1 9C       		.byte	0x9c
 4945 19a2 C5190000 		.4byte	0x19c5
 4946 19a6 30       		.uleb128 0x30
 4947 19a7 6F626A00 		.ascii	"obj\000"
 4948 19ab 01       		.byte	0x1
 4949 19ac E8       		.byte	0xe8
 4950 19ad C5190000 		.4byte	0x19c5
 4951 19b1 B0040000 		.4byte	.LLST34
 4952 19b5 31       		.uleb128 0x31
 4953 19b6 1F140000 		.4byte	.LASF396
 4954 19ba 01       		.byte	0x1
 4955 19bb EB       		.byte	0xeb
 4956 19bc 7D110000 		.4byte	0x117d
 4957 19c0 D1040000 		.4byte	.LLST35
 4958 19c4 00       		.byte	0
 4959 19c5 0D       		.uleb128 0xd
 4960 19c6 04       		.byte	0x4
 4961 19c7 CB190000 		.4byte	0x19cb
 4962 19cb 0E       		.uleb128 0xe
 4963 19cc 1D0F0000 		.4byte	0xf1d
 4964 19d0 2C       		.uleb128 0x2c
 4965 19d1 A91E0000 		.4byte	.LASF410
 4966 19d5 01       		.byte	0x1
 4967 19d6 F4       		.byte	0xf4
 4968 19d7 54100000 		.4byte	0x1054
 4969 19db 00000000 		.4byte	.LFB168
 4970 19df 06000000 		.4byte	.LFE168-.LFB168
 4971 19e3 01       		.uleb128 0x1
 4972 19e4 9C       		.byte	0x9c
 4973 19e5 081A0000 		.4byte	0x1a08
 4974 19e9 30       		.uleb128 0x30
 4975 19ea 6F626A00 		.ascii	"obj\000"
 4976 19ee 01       		.byte	0x1
 4977 19ef F4       		.byte	0xf4
 4978 19f0 C5190000 		.4byte	0x19c5
 4979 19f4 F2040000 		.4byte	.LLST36
 4980 19f8 31       		.uleb128 0x31
 4981 19f9 1F140000 		.4byte	.LASF396
 4982 19fd 01       		.byte	0x1
 4983 19fe F7       		.byte	0xf7
 4984 19ff 7D110000 		.4byte	0x117d
 4985 1a03 13050000 		.4byte	.LLST37
ARM GAS  C:\Users\haske\AppData\Local\Temp\ccEGgQv3.s 			page 98


 4986 1a07 00       		.byte	0
 4987 1a08 32       		.uleb128 0x32
 4988 1a09 E40F0000 		.4byte	.LASF411
 4989 1a0d 01       		.byte	0x1
 4990 1a0e 0001     		.2byte	0x100
 4991 1a10 30030000 		.4byte	0x330
 4992 1a14 00000000 		.4byte	.LFB169
 4993 1a18 0C000000 		.4byte	.LFE169-.LFB169
 4994 1a1c 01       		.uleb128 0x1
 4995 1a1d 9C       		.byte	0x9c
 4996 1a1e 431A0000 		.4byte	0x1a43
 4997 1a22 21       		.uleb128 0x21
 4998 1a23 6F626A00 		.ascii	"obj\000"
 4999 1a27 01       		.byte	0x1
 5000 1a28 0001     		.2byte	0x100
 5001 1a2a C5190000 		.4byte	0x19c5
 5002 1a2e 34050000 		.4byte	.LLST38
 5003 1a32 22       		.uleb128 0x22
 5004 1a33 1F140000 		.4byte	.LASF396
 5005 1a37 01       		.byte	0x1
 5006 1a38 0201     		.2byte	0x102
 5007 1a3a 7D110000 		.4byte	0x117d
 5008 1a3e 55050000 		.4byte	.LLST39
 5009 1a42 00       		.byte	0
 5010 1a43 33       		.uleb128 0x33
 5011 1a44 531A0000 		.4byte	0x1a53
 5012 1a48 531A0000 		.4byte	0x1a53
 5013 1a4c 34       		.uleb128 0x34
 5014 1a4d A0030000 		.4byte	0x3a0
 5015 1a51 2B       		.byte	0x2b
 5016 1a52 00       		.byte	0
 5017 1a53 0E       		.uleb128 0xe
 5018 1a54 AE030000 		.4byte	0x3ae
 5019 1a58 35       		.uleb128 0x35
 5020 1a59 A31A0000 		.4byte	.LASF412
 5021 1a5d 01       		.byte	0x1
 5022 1a5e 31       		.byte	0x31
 5023 1a5f 691A0000 		.4byte	0x1a69
 5024 1a63 05       		.uleb128 0x5
 5025 1a64 03       		.byte	0x3
 5026 1a65 E4020000 		.4byte	default_kb_map_lc
 5027 1a69 0E       		.uleb128 0xe
 5028 1a6a 431A0000 		.4byte	0x1a43
 5029 1a6e 33       		.uleb128 0x33
 5030 1a6f 88190000 		.4byte	0x1988
 5031 1a73 7E1A0000 		.4byte	0x1a7e
 5032 1a77 34       		.uleb128 0x34
 5033 1a78 A0030000 		.4byte	0x3a0
 5034 1a7c 27       		.byte	0x27
 5035 1a7d 00       		.byte	0
 5036 1a7e 35       		.uleb128 0x35
 5037 1a7f 551C0000 		.4byte	.LASF413
 5038 1a83 01       		.byte	0x1
 5039 1a84 37       		.byte	0x37
 5040 1a85 8F1A0000 		.4byte	0x1a8f
 5041 1a89 05       		.uleb128 0x5
 5042 1a8a 03       		.byte	0x3
ARM GAS  C:\Users\haske\AppData\Local\Temp\ccEGgQv3.s 			page 99


 5043 1a8b 94020000 		.4byte	default_kb_ctrl_lc_map
 5044 1a8f 0E       		.uleb128 0xe
 5045 1a90 6E1A0000 		.4byte	0x1a6e
 5046 1a94 35       		.uleb128 0x35
 5047 1a95 38020000 		.4byte	.LASF414
 5048 1a99 01       		.byte	0x1
 5049 1a9a 3E       		.byte	0x3e
 5050 1a9b A51A0000 		.4byte	0x1aa5
 5051 1a9f 05       		.uleb128 0x5
 5052 1aa0 03       		.byte	0x3
 5053 1aa1 E4010000 		.4byte	default_kb_map_uc
 5054 1aa5 0E       		.uleb128 0xe
 5055 1aa6 431A0000 		.4byte	0x1a43
 5056 1aaa 35       		.uleb128 0x35
 5057 1aab 4C1F0000 		.4byte	.LASF415
 5058 1aaf 01       		.byte	0x1
 5059 1ab0 44       		.byte	0x44
 5060 1ab1 BB1A0000 		.4byte	0x1abb
 5061 1ab5 05       		.uleb128 0x5
 5062 1ab6 03       		.byte	0x3
 5063 1ab7 94010000 		.4byte	default_kb_ctrl_uc_map
 5064 1abb 0E       		.uleb128 0xe
 5065 1abc 6E1A0000 		.4byte	0x1a6e
 5066 1ac0 35       		.uleb128 0x35
 5067 1ac1 BF120000 		.4byte	.LASF416
 5068 1ac5 01       		.byte	0x1
 5069 1ac6 4B       		.byte	0x4b
 5070 1ac7 D11A0000 		.4byte	0x1ad1
 5071 1acb 05       		.uleb128 0x5
 5072 1acc 03       		.byte	0x3
 5073 1acd E4000000 		.4byte	default_kb_map_spec
 5074 1ad1 0E       		.uleb128 0xe
 5075 1ad2 431A0000 		.4byte	0x1a43
 5076 1ad6 35       		.uleb128 0x35
 5077 1ad7 681E0000 		.4byte	.LASF417
 5078 1adb 01       		.byte	0x1
 5079 1adc 51       		.byte	0x51
 5080 1add E71A0000 		.4byte	0x1ae7
 5081 1ae1 05       		.uleb128 0x5
 5082 1ae2 03       		.byte	0x3
 5083 1ae3 94000000 		.4byte	default_kb_ctrl_spec_map
 5084 1ae7 0E       		.uleb128 0xe
 5085 1ae8 6E1A0000 		.4byte	0x1a6e
 5086 1aec 33       		.uleb128 0x33
 5087 1aed 531A0000 		.4byte	0x1a53
 5088 1af1 FC1A0000 		.4byte	0x1afc
 5089 1af5 34       		.uleb128 0x34
 5090 1af6 A0030000 		.4byte	0x3a0
 5091 1afa 14       		.byte	0x14
 5092 1afb 00       		.byte	0
 5093 1afc 35       		.uleb128 0x35
 5094 1afd DA190000 		.4byte	.LASF418
 5095 1b01 01       		.byte	0x1
 5096 1b02 58       		.byte	0x58
 5097 1b03 0D1B0000 		.4byte	0x1b0d
 5098 1b07 05       		.uleb128 0x5
 5099 1b08 03       		.byte	0x3
ARM GAS  C:\Users\haske\AppData\Local\Temp\ccEGgQv3.s 			page 100


 5100 1b09 40000000 		.4byte	default_kb_map_num
 5101 1b0d 0E       		.uleb128 0xe
 5102 1b0e EC1A0000 		.4byte	0x1aec
 5103 1b12 33       		.uleb128 0x33
 5104 1b13 88190000 		.4byte	0x1988
 5105 1b17 221B0000 		.4byte	0x1b22
 5106 1b1b 34       		.uleb128 0x34
 5107 1b1c A0030000 		.4byte	0x3a0
 5108 1b20 10       		.byte	0x10
 5109 1b21 00       		.byte	0
 5110 1b22 35       		.uleb128 0x35
 5111 1b23 A40A0000 		.4byte	.LASF419
 5112 1b27 01       		.byte	0x1
 5113 1b28 5E       		.byte	0x5e
 5114 1b29 331B0000 		.4byte	0x1b33
 5115 1b2d 05       		.uleb128 0x5
 5116 1b2e 03       		.byte	0x3
 5117 1b2f 1C000000 		.4byte	default_kb_ctrl_num_map
 5118 1b33 0E       		.uleb128 0xe
 5119 1b34 121B0000 		.4byte	0x1b12
 5120 1b38 33       		.uleb128 0x33
 5121 1b39 00100000 		.4byte	0x1000
 5122 1b3d 481B0000 		.4byte	0x1b48
 5123 1b41 34       		.uleb128 0x34
 5124 1b42 A0030000 		.4byte	0x3a0
 5125 1b46 08       		.byte	0x8
 5126 1b47 00       		.byte	0
 5127 1b48 35       		.uleb128 0x35
 5128 1b49 FD110000 		.4byte	.LASF420
 5129 1b4d 01       		.byte	0x1
 5130 1b4e 65       		.byte	0x65
 5131 1b4f 381B0000 		.4byte	0x1b38
 5132 1b53 05       		.uleb128 0x5
 5133 1b54 03       		.byte	0x3
 5134 1b55 24000000 		.4byte	kb_map
 5135 1b59 33       		.uleb128 0x33
 5136 1b5a 82190000 		.4byte	0x1982
 5137 1b5e 691B0000 		.4byte	0x1b69
 5138 1b62 34       		.uleb128 0x34
 5139 1b63 A0030000 		.4byte	0x3a0
 5140 1b67 08       		.byte	0x8
 5141 1b68 00       		.byte	0
 5142 1b69 35       		.uleb128 0x35
 5143 1b6a 391B0000 		.4byte	.LASF421
 5144 1b6e 01       		.byte	0x1
 5145 1b6f 70       		.byte	0x70
 5146 1b70 591B0000 		.4byte	0x1b59
 5147 1b74 05       		.uleb128 0x5
 5148 1b75 03       		.byte	0x3
 5149 1b76 00000000 		.4byte	kb_ctrl
 5150 1b7a 36       		.uleb128 0x36
 5151 1b7b B3180000 		.4byte	.LASF422
 5152 1b7f 05       		.byte	0x5
 5153 1b80 94       		.byte	0x94
 5154 1b81 3A080000 		.4byte	0x83a
 5155 1b85 36       		.uleb128 0x36
 5156 1b86 56130000 		.4byte	.LASF423
ARM GAS  C:\Users\haske\AppData\Local\Temp\ccEGgQv3.s 			page 101


 5157 1b8a 11       		.byte	0x11
 5158 1b8b 42       		.byte	0x42
 5159 1b8c 0C0F0000 		.4byte	0xf0c
 5160 1b90 37       		.uleb128 0x37
 5161 1b91 D70E0000 		.4byte	.LASF424
 5162 1b95 01       		.byte	0x1
 5163 1b96 28       		.byte	0x28
 5164 1b97 0C0F0000 		.4byte	0xf0c
 5165 1b9b 05       		.uleb128 0x5
 5166 1b9c 03       		.byte	0x3
 5167 1b9d 00000000 		.4byte	lv_keyboard_class
 5168 1ba1 38       		.uleb128 0x38
 5169 1ba2 9E170000 		.4byte	.LASF425
 5170 1ba6 9E170000 		.4byte	.LASF425
 5171 1baa 13       		.byte	0x13
 5172 1bab 4A       		.byte	0x4a
 5173 1bac 38       		.uleb128 0x38
 5174 1bad 25010000 		.4byte	.LASF426
 5175 1bb1 25010000 		.4byte	.LASF426
 5176 1bb5 13       		.byte	0x13
 5177 1bb6 BA       		.byte	0xba
 5178 1bb7 38       		.uleb128 0x38
 5179 1bb8 E5180000 		.4byte	.LASF427
 5180 1bbc E5180000 		.4byte	.LASF427
 5181 1bc0 11       		.byte	0x11
 5182 1bc1 70       		.byte	0x70
 5183 1bc2 38       		.uleb128 0x38
 5184 1bc3 91000000 		.4byte	.LASF428
 5185 1bc7 91000000 		.4byte	.LASF428
 5186 1bcb 13       		.byte	0x13
 5187 1bcc 50       		.byte	0x50
 5188 1bcd 38       		.uleb128 0x38
 5189 1bce AA020000 		.4byte	.LASF429
 5190 1bd2 AA020000 		.4byte	.LASF429
 5191 1bd6 11       		.byte	0x11
 5192 1bd7 62       		.byte	0x62
 5193 1bd8 38       		.uleb128 0x38
 5194 1bd9 43120000 		.4byte	.LASF430
 5195 1bdd 43120000 		.4byte	.LASF430
 5196 1be1 0A       		.byte	0xa
 5197 1be2 F3       		.byte	0xf3
 5198 1be3 38       		.uleb128 0x38
 5199 1be4 77080000 		.4byte	.LASF431
 5200 1be8 77080000 		.4byte	.LASF431
 5201 1bec 14       		.byte	0x14
 5202 1bed B4       		.byte	0xb4
 5203 1bee 38       		.uleb128 0x38
 5204 1bef 00000000 		.4byte	.LASF432
 5205 1bf3 00000000 		.4byte	.LASF432
 5206 1bf7 10       		.byte	0x10
 5207 1bf8 ED       		.byte	0xed
 5208 1bf9 39       		.uleb128 0x39
 5209 1bfa D3120000 		.4byte	.LASF433
 5210 1bfe D3120000 		.4byte	.LASF433
 5211 1c02 15       		.byte	0x15
 5212 1c03 8802     		.2byte	0x288
 5213 1c05 38       		.uleb128 0x38
ARM GAS  C:\Users\haske\AppData\Local\Temp\ccEGgQv3.s 			page 102


 5214 1c06 1A030000 		.4byte	.LASF434
 5215 1c0a 1A030000 		.4byte	.LASF434
 5216 1c0e 10       		.byte	0x10
 5217 1c0f 92       		.byte	0x92
 5218 1c10 38       		.uleb128 0x38
 5219 1c11 151D0000 		.4byte	.LASF435
 5220 1c15 151D0000 		.4byte	.LASF435
 5221 1c19 16       		.byte	0x16
 5222 1c1a F9       		.byte	0xf9
 5223 1c1b 38       		.uleb128 0x38
 5224 1c1c B9060000 		.4byte	.LASF436
 5225 1c20 B9060000 		.4byte	.LASF436
 5226 1c24 16       		.byte	0x16
 5227 1c25 E4       		.byte	0xe4
 5228 1c26 38       		.uleb128 0x38
 5229 1c27 46110000 		.4byte	.LASF437
 5230 1c2b 46110000 		.4byte	.LASF437
 5231 1c2f 16       		.byte	0x16
 5232 1c30 8E       		.byte	0x8e
 5233 1c31 38       		.uleb128 0x38
 5234 1c32 84160000 		.4byte	.LASF438
 5235 1c36 84160000 		.4byte	.LASF438
 5236 1c3a 16       		.byte	0x16
 5237 1c3b 6D       		.byte	0x6d
 5238 1c3c 38       		.uleb128 0x38
 5239 1c3d 1E1A0000 		.4byte	.LASF439
 5240 1c41 1E1A0000 		.4byte	.LASF439
 5241 1c45 16       		.byte	0x16
 5242 1c46 60       		.byte	0x60
 5243 1c47 38       		.uleb128 0x38
 5244 1c48 DF0C0000 		.4byte	.LASF440
 5245 1c4c DF0C0000 		.4byte	.LASF440
 5246 1c50 10       		.byte	0x10
 5247 1c51 A1       		.byte	0xa1
 5248 1c52 38       		.uleb128 0x38
 5249 1c53 B51A0000 		.4byte	.LASF441
 5250 1c57 B51A0000 		.4byte	.LASF441
 5251 1c5b 11       		.byte	0x11
 5252 1c5c BD       		.byte	0xbd
 5253 1c5d 38       		.uleb128 0x38
 5254 1c5e 3C140000 		.4byte	.LASF442
 5255 1c62 3C140000 		.4byte	.LASF442
 5256 1c66 11       		.byte	0x11
 5257 1c67 C5       		.byte	0xc5
 5258 1c68 38       		.uleb128 0x38
 5259 1c69 E1090000 		.4byte	.LASF443
 5260 1c6d E1090000 		.4byte	.LASF443
 5261 1c71 17       		.byte	0x17
 5262 1c72 1C       		.byte	0x1c
 5263 1c73 39       		.uleb128 0x39
 5264 1c74 260D0000 		.4byte	.LASF444
 5265 1c78 260D0000 		.4byte	.LASF444
 5266 1c7c 16       		.byte	0x16
 5267 1c7d 1501     		.2byte	0x115
 5268 1c7f 39       		.uleb128 0x39
 5269 1c80 73140000 		.4byte	.LASF445
 5270 1c84 73140000 		.4byte	.LASF445
ARM GAS  C:\Users\haske\AppData\Local\Temp\ccEGgQv3.s 			page 103


 5271 1c88 16       		.byte	0x16
 5272 1c89 4E01     		.2byte	0x14e
 5273 1c8b 39       		.uleb128 0x39
 5274 1c8c AA1B0000 		.4byte	.LASF446
 5275 1c90 AA1B0000 		.4byte	.LASF446
 5276 1c94 16       		.byte	0x16
 5277 1c95 4801     		.2byte	0x148
 5278 1c97 38       		.uleb128 0x38
 5279 1c98 93120000 		.4byte	.LASF447
 5280 1c9c 93120000 		.4byte	.LASF447
 5281 1ca0 16       		.byte	0x16
 5282 1ca1 67       		.byte	0x67
 5283 1ca2 38       		.uleb128 0x38
 5284 1ca3 2B120000 		.4byte	.LASF448
 5285 1ca7 2B120000 		.4byte	.LASF448
 5286 1cab 0F       		.byte	0xf
 5287 1cac 4B       		.byte	0x4b
 5288 1cad 38       		.uleb128 0x38
 5289 1cae 84090000 		.4byte	.LASF449
 5290 1cb2 84090000 		.4byte	.LASF449
 5291 1cb6 0F       		.byte	0xf
 5292 1cb7 4D       		.byte	0x4d
 5293 1cb8 39       		.uleb128 0x39
 5294 1cb9 820C0000 		.4byte	.LASF450
 5295 1cbd 820C0000 		.4byte	.LASF450
 5296 1cc1 0A       		.byte	0xa
 5297 1cc2 0401     		.2byte	0x104
 5298 1cc4 38       		.uleb128 0x38
 5299 1cc5 C00F0000 		.4byte	.LASF451
 5300 1cc9 C00F0000 		.4byte	.LASF451
 5301 1ccd 0A       		.byte	0xa
 5302 1cce EC       		.byte	0xec
 5303 1ccf 00       		.byte	0
 5304              		.section	.debug_abbrev,"",%progbits
 5305              	.Ldebug_abbrev0:
 5306 0000 01       		.uleb128 0x1
 5307 0001 11       		.uleb128 0x11
 5308 0002 01       		.byte	0x1
 5309 0003 25       		.uleb128 0x25
 5310 0004 0E       		.uleb128 0xe
 5311 0005 13       		.uleb128 0x13
 5312 0006 0B       		.uleb128 0xb
 5313 0007 03       		.uleb128 0x3
 5314 0008 0E       		.uleb128 0xe
 5315 0009 1B       		.uleb128 0x1b
 5316 000a 0E       		.uleb128 0xe
 5317 000b 55       		.uleb128 0x55
 5318 000c 17       		.uleb128 0x17
 5319 000d 11       		.uleb128 0x11
 5320 000e 01       		.uleb128 0x1
 5321 000f 10       		.uleb128 0x10
 5322 0010 17       		.uleb128 0x17
 5323 0011 00       		.byte	0
 5324 0012 00       		.byte	0
 5325 0013 02       		.uleb128 0x2
 5326 0014 16       		.uleb128 0x16
 5327 0015 00       		.byte	0
ARM GAS  C:\Users\haske\AppData\Local\Temp\ccEGgQv3.s 			page 104


 5328 0016 03       		.uleb128 0x3
 5329 0017 0E       		.uleb128 0xe
 5330 0018 3A       		.uleb128 0x3a
 5331 0019 0B       		.uleb128 0xb
 5332 001a 3B       		.uleb128 0x3b
 5333 001b 0B       		.uleb128 0xb
 5334 001c 49       		.uleb128 0x49
 5335 001d 13       		.uleb128 0x13
 5336 001e 00       		.byte	0
 5337 001f 00       		.byte	0
 5338 0020 03       		.uleb128 0x3
 5339 0021 24       		.uleb128 0x24
 5340 0022 00       		.byte	0
 5341 0023 0B       		.uleb128 0xb
 5342 0024 0B       		.uleb128 0xb
 5343 0025 3E       		.uleb128 0x3e
 5344 0026 0B       		.uleb128 0xb
 5345 0027 03       		.uleb128 0x3
 5346 0028 0E       		.uleb128 0xe
 5347 0029 00       		.byte	0
 5348 002a 00       		.byte	0
 5349 002b 04       		.uleb128 0x4
 5350 002c 24       		.uleb128 0x24
 5351 002d 00       		.byte	0
 5352 002e 0B       		.uleb128 0xb
 5353 002f 0B       		.uleb128 0xb
 5354 0030 3E       		.uleb128 0x3e
 5355 0031 0B       		.uleb128 0xb
 5356 0032 03       		.uleb128 0x3
 5357 0033 08       		.uleb128 0x8
 5358 0034 00       		.byte	0
 5359 0035 00       		.byte	0
 5360 0036 05       		.uleb128 0x5
 5361 0037 13       		.uleb128 0x13
 5362 0038 01       		.byte	0x1
 5363 0039 0B       		.uleb128 0xb
 5364 003a 0B       		.uleb128 0xb
 5365 003b 3A       		.uleb128 0x3a
 5366 003c 0B       		.uleb128 0xb
 5367 003d 3B       		.uleb128 0x3b
 5368 003e 0B       		.uleb128 0xb
 5369 003f 01       		.uleb128 0x1
 5370 0040 13       		.uleb128 0x13
 5371 0041 00       		.byte	0
 5372 0042 00       		.byte	0
 5373 0043 06       		.uleb128 0x6
 5374 0044 0D       		.uleb128 0xd
 5375 0045 00       		.byte	0
 5376 0046 03       		.uleb128 0x3
 5377 0047 08       		.uleb128 0x8
 5378 0048 3A       		.uleb128 0x3a
 5379 0049 0B       		.uleb128 0xb
 5380 004a 3B       		.uleb128 0x3b
 5381 004b 0B       		.uleb128 0xb
 5382 004c 49       		.uleb128 0x49
 5383 004d 13       		.uleb128 0x13
 5384 004e 38       		.uleb128 0x38
ARM GAS  C:\Users\haske\AppData\Local\Temp\ccEGgQv3.s 			page 105


 5385 004f 0B       		.uleb128 0xb
 5386 0050 00       		.byte	0
 5387 0051 00       		.byte	0
 5388 0052 07       		.uleb128 0x7
 5389 0053 04       		.uleb128 0x4
 5390 0054 01       		.byte	0x1
 5391 0055 0B       		.uleb128 0xb
 5392 0056 0B       		.uleb128 0xb
 5393 0057 49       		.uleb128 0x49
 5394 0058 13       		.uleb128 0x13
 5395 0059 3A       		.uleb128 0x3a
 5396 005a 0B       		.uleb128 0xb
 5397 005b 3B       		.uleb128 0x3b
 5398 005c 0B       		.uleb128 0xb
 5399 005d 01       		.uleb128 0x1
 5400 005e 13       		.uleb128 0x13
 5401 005f 00       		.byte	0
 5402 0060 00       		.byte	0
 5403 0061 08       		.uleb128 0x8
 5404 0062 28       		.uleb128 0x28
 5405 0063 00       		.byte	0
 5406 0064 03       		.uleb128 0x3
 5407 0065 0E       		.uleb128 0xe
 5408 0066 1C       		.uleb128 0x1c
 5409 0067 0B       		.uleb128 0xb
 5410 0068 00       		.byte	0
 5411 0069 00       		.byte	0
 5412 006a 09       		.uleb128 0x9
 5413 006b 0D       		.uleb128 0xd
 5414 006c 00       		.byte	0
 5415 006d 03       		.uleb128 0x3
 5416 006e 0E       		.uleb128 0xe
 5417 006f 3A       		.uleb128 0x3a
 5418 0070 0B       		.uleb128 0xb
 5419 0071 3B       		.uleb128 0x3b
 5420 0072 0B       		.uleb128 0xb
 5421 0073 49       		.uleb128 0x49
 5422 0074 13       		.uleb128 0x13
 5423 0075 38       		.uleb128 0x38
 5424 0076 0B       		.uleb128 0xb
 5425 0077 00       		.byte	0
 5426 0078 00       		.byte	0
 5427 0079 0A       		.uleb128 0xa
 5428 007a 0D       		.uleb128 0xd
 5429 007b 00       		.byte	0
 5430 007c 03       		.uleb128 0x3
 5431 007d 08       		.uleb128 0x8
 5432 007e 3A       		.uleb128 0x3a
 5433 007f 0B       		.uleb128 0xb
 5434 0080 3B       		.uleb128 0x3b
 5435 0081 0B       		.uleb128 0xb
 5436 0082 49       		.uleb128 0x49
 5437 0083 13       		.uleb128 0x13
 5438 0084 0B       		.uleb128 0xb
 5439 0085 0B       		.uleb128 0xb
 5440 0086 0D       		.uleb128 0xd
 5441 0087 0B       		.uleb128 0xb
ARM GAS  C:\Users\haske\AppData\Local\Temp\ccEGgQv3.s 			page 106


 5442 0088 0C       		.uleb128 0xc
 5443 0089 0B       		.uleb128 0xb
 5444 008a 38       		.uleb128 0x38
 5445 008b 0B       		.uleb128 0xb
 5446 008c 00       		.byte	0
 5447 008d 00       		.byte	0
 5448 008e 0B       		.uleb128 0xb
 5449 008f 0D       		.uleb128 0xd
 5450 0090 00       		.byte	0
 5451 0091 03       		.uleb128 0x3
 5452 0092 0E       		.uleb128 0xe
 5453 0093 3A       		.uleb128 0x3a
 5454 0094 0B       		.uleb128 0xb
 5455 0095 3B       		.uleb128 0x3b
 5456 0096 0B       		.uleb128 0xb
 5457 0097 49       		.uleb128 0x49
 5458 0098 13       		.uleb128 0x13
 5459 0099 0B       		.uleb128 0xb
 5460 009a 0B       		.uleb128 0xb
 5461 009b 0D       		.uleb128 0xd
 5462 009c 0B       		.uleb128 0xb
 5463 009d 0C       		.uleb128 0xc
 5464 009e 0B       		.uleb128 0xb
 5465 009f 38       		.uleb128 0x38
 5466 00a0 0B       		.uleb128 0xb
 5467 00a1 00       		.byte	0
 5468 00a2 00       		.byte	0
 5469 00a3 0C       		.uleb128 0xc
 5470 00a4 13       		.uleb128 0x13
 5471 00a5 01       		.byte	0x1
 5472 00a6 03       		.uleb128 0x3
 5473 00a7 0E       		.uleb128 0xe
 5474 00a8 0B       		.uleb128 0xb
 5475 00a9 0B       		.uleb128 0xb
 5476 00aa 3A       		.uleb128 0x3a
 5477 00ab 0B       		.uleb128 0xb
 5478 00ac 3B       		.uleb128 0x3b
 5479 00ad 0B       		.uleb128 0xb
 5480 00ae 01       		.uleb128 0x1
 5481 00af 13       		.uleb128 0x13
 5482 00b0 00       		.byte	0
 5483 00b1 00       		.byte	0
 5484 00b2 0D       		.uleb128 0xd
 5485 00b3 0F       		.uleb128 0xf
 5486 00b4 00       		.byte	0
 5487 00b5 0B       		.uleb128 0xb
 5488 00b6 0B       		.uleb128 0xb
 5489 00b7 49       		.uleb128 0x49
 5490 00b8 13       		.uleb128 0x13
 5491 00b9 00       		.byte	0
 5492 00ba 00       		.byte	0
 5493 00bb 0E       		.uleb128 0xe
 5494 00bc 26       		.uleb128 0x26
 5495 00bd 00       		.byte	0
 5496 00be 49       		.uleb128 0x49
 5497 00bf 13       		.uleb128 0x13
 5498 00c0 00       		.byte	0
ARM GAS  C:\Users\haske\AppData\Local\Temp\ccEGgQv3.s 			page 107


 5499 00c1 00       		.byte	0
 5500 00c2 0F       		.uleb128 0xf
 5501 00c3 15       		.uleb128 0x15
 5502 00c4 01       		.byte	0x1
 5503 00c5 27       		.uleb128 0x27
 5504 00c6 19       		.uleb128 0x19
 5505 00c7 49       		.uleb128 0x49
 5506 00c8 13       		.uleb128 0x13
 5507 00c9 01       		.uleb128 0x1
 5508 00ca 13       		.uleb128 0x13
 5509 00cb 00       		.byte	0
 5510 00cc 00       		.byte	0
 5511 00cd 10       		.uleb128 0x10
 5512 00ce 05       		.uleb128 0x5
 5513 00cf 00       		.byte	0
 5514 00d0 49       		.uleb128 0x49
 5515 00d1 13       		.uleb128 0x13
 5516 00d2 00       		.byte	0
 5517 00d3 00       		.byte	0
 5518 00d4 11       		.uleb128 0x11
 5519 00d5 26       		.uleb128 0x26
 5520 00d6 00       		.byte	0
 5521 00d7 00       		.byte	0
 5522 00d8 00       		.byte	0
 5523 00d9 12       		.uleb128 0x12
 5524 00da 0F       		.uleb128 0xf
 5525 00db 00       		.byte	0
 5526 00dc 0B       		.uleb128 0xb
 5527 00dd 0B       		.uleb128 0xb
 5528 00de 00       		.byte	0
 5529 00df 00       		.byte	0
 5530 00e0 13       		.uleb128 0x13
 5531 00e1 17       		.uleb128 0x17
 5532 00e2 01       		.byte	0x1
 5533 00e3 0B       		.uleb128 0xb
 5534 00e4 0B       		.uleb128 0xb
 5535 00e5 3A       		.uleb128 0x3a
 5536 00e6 0B       		.uleb128 0xb
 5537 00e7 3B       		.uleb128 0x3b
 5538 00e8 0B       		.uleb128 0xb
 5539 00e9 01       		.uleb128 0x1
 5540 00ea 13       		.uleb128 0x13
 5541 00eb 00       		.byte	0
 5542 00ec 00       		.byte	0
 5543 00ed 14       		.uleb128 0x14
 5544 00ee 0D       		.uleb128 0xd
 5545 00ef 00       		.byte	0
 5546 00f0 03       		.uleb128 0x3
 5547 00f1 08       		.uleb128 0x8
 5548 00f2 3A       		.uleb128 0x3a
 5549 00f3 0B       		.uleb128 0xb
 5550 00f4 3B       		.uleb128 0x3b
 5551 00f5 0B       		.uleb128 0xb
 5552 00f6 49       		.uleb128 0x49
 5553 00f7 13       		.uleb128 0x13
 5554 00f8 00       		.byte	0
 5555 00f9 00       		.byte	0
ARM GAS  C:\Users\haske\AppData\Local\Temp\ccEGgQv3.s 			page 108


 5556 00fa 15       		.uleb128 0x15
 5557 00fb 0D       		.uleb128 0xd
 5558 00fc 00       		.byte	0
 5559 00fd 03       		.uleb128 0x3
 5560 00fe 0E       		.uleb128 0xe
 5561 00ff 3A       		.uleb128 0x3a
 5562 0100 0B       		.uleb128 0xb
 5563 0101 3B       		.uleb128 0x3b
 5564 0102 0B       		.uleb128 0xb
 5565 0103 49       		.uleb128 0x49
 5566 0104 13       		.uleb128 0x13
 5567 0105 00       		.byte	0
 5568 0106 00       		.byte	0
 5569 0107 16       		.uleb128 0x16
 5570 0108 28       		.uleb128 0x28
 5571 0109 00       		.byte	0
 5572 010a 03       		.uleb128 0x3
 5573 010b 0E       		.uleb128 0xe
 5574 010c 1C       		.uleb128 0x1c
 5575 010d 05       		.uleb128 0x5
 5576 010e 00       		.byte	0
 5577 010f 00       		.byte	0
 5578 0110 17       		.uleb128 0x17
 5579 0111 16       		.uleb128 0x16
 5580 0112 00       		.byte	0
 5581 0113 03       		.uleb128 0x3
 5582 0114 0E       		.uleb128 0xe
 5583 0115 3A       		.uleb128 0x3a
 5584 0116 0B       		.uleb128 0xb
 5585 0117 3B       		.uleb128 0x3b
 5586 0118 05       		.uleb128 0x5
 5587 0119 49       		.uleb128 0x49
 5588 011a 13       		.uleb128 0x13
 5589 011b 00       		.byte	0
 5590 011c 00       		.byte	0
 5591 011d 18       		.uleb128 0x18
 5592 011e 13       		.uleb128 0x13
 5593 011f 01       		.byte	0x1
 5594 0120 0B       		.uleb128 0xb
 5595 0121 0B       		.uleb128 0xb
 5596 0122 3A       		.uleb128 0x3a
 5597 0123 0B       		.uleb128 0xb
 5598 0124 3B       		.uleb128 0x3b
 5599 0125 05       		.uleb128 0x5
 5600 0126 01       		.uleb128 0x1
 5601 0127 13       		.uleb128 0x13
 5602 0128 00       		.byte	0
 5603 0129 00       		.byte	0
 5604 012a 19       		.uleb128 0x19
 5605 012b 0D       		.uleb128 0xd
 5606 012c 00       		.byte	0
 5607 012d 03       		.uleb128 0x3
 5608 012e 0E       		.uleb128 0xe
 5609 012f 3A       		.uleb128 0x3a
 5610 0130 0B       		.uleb128 0xb
 5611 0131 3B       		.uleb128 0x3b
 5612 0132 05       		.uleb128 0x5
ARM GAS  C:\Users\haske\AppData\Local\Temp\ccEGgQv3.s 			page 109


 5613 0133 49       		.uleb128 0x49
 5614 0134 13       		.uleb128 0x13
 5615 0135 38       		.uleb128 0x38
 5616 0136 0B       		.uleb128 0xb
 5617 0137 00       		.byte	0
 5618 0138 00       		.byte	0
 5619 0139 1A       		.uleb128 0x1a
 5620 013a 17       		.uleb128 0x17
 5621 013b 01       		.byte	0x1
 5622 013c 0B       		.uleb128 0xb
 5623 013d 0B       		.uleb128 0xb
 5624 013e 3A       		.uleb128 0x3a
 5625 013f 0B       		.uleb128 0xb
 5626 0140 3B       		.uleb128 0x3b
 5627 0141 05       		.uleb128 0x5
 5628 0142 01       		.uleb128 0x1
 5629 0143 13       		.uleb128 0x13
 5630 0144 00       		.byte	0
 5631 0145 00       		.byte	0
 5632 0146 1B       		.uleb128 0x1b
 5633 0147 0D       		.uleb128 0xd
 5634 0148 00       		.byte	0
 5635 0149 03       		.uleb128 0x3
 5636 014a 0E       		.uleb128 0xe
 5637 014b 3A       		.uleb128 0x3a
 5638 014c 0B       		.uleb128 0xb
 5639 014d 3B       		.uleb128 0x3b
 5640 014e 05       		.uleb128 0x5
 5641 014f 49       		.uleb128 0x49
 5642 0150 13       		.uleb128 0x13
 5643 0151 00       		.byte	0
 5644 0152 00       		.byte	0
 5645 0153 1C       		.uleb128 0x1c
 5646 0154 0D       		.uleb128 0xd
 5647 0155 00       		.byte	0
 5648 0156 03       		.uleb128 0x3
 5649 0157 08       		.uleb128 0x8
 5650 0158 3A       		.uleb128 0x3a
 5651 0159 0B       		.uleb128 0xb
 5652 015a 3B       		.uleb128 0x3b
 5653 015b 05       		.uleb128 0x5
 5654 015c 49       		.uleb128 0x49
 5655 015d 13       		.uleb128 0x13
 5656 015e 38       		.uleb128 0x38
 5657 015f 0B       		.uleb128 0xb
 5658 0160 00       		.byte	0
 5659 0161 00       		.byte	0
 5660 0162 1D       		.uleb128 0x1d
 5661 0163 28       		.uleb128 0x28
 5662 0164 00       		.byte	0
 5663 0165 03       		.uleb128 0x3
 5664 0166 0E       		.uleb128 0xe
 5665 0167 1C       		.uleb128 0x1c
 5666 0168 06       		.uleb128 0x6
 5667 0169 00       		.byte	0
 5668 016a 00       		.byte	0
 5669 016b 1E       		.uleb128 0x1e
ARM GAS  C:\Users\haske\AppData\Local\Temp\ccEGgQv3.s 			page 110


 5670 016c 15       		.uleb128 0x15
 5671 016d 01       		.byte	0x1
 5672 016e 27       		.uleb128 0x27
 5673 016f 19       		.uleb128 0x19
 5674 0170 01       		.uleb128 0x1
 5675 0171 13       		.uleb128 0x13
 5676 0172 00       		.byte	0
 5677 0173 00       		.byte	0
 5678 0174 1F       		.uleb128 0x1f
 5679 0175 13       		.uleb128 0x13
 5680 0176 00       		.byte	0
 5681 0177 03       		.uleb128 0x3
 5682 0178 0E       		.uleb128 0xe
 5683 0179 3C       		.uleb128 0x3c
 5684 017a 19       		.uleb128 0x19
 5685 017b 00       		.byte	0
 5686 017c 00       		.byte	0
 5687 017d 20       		.uleb128 0x20
 5688 017e 2E       		.uleb128 0x2e
 5689 017f 01       		.byte	0x1
 5690 0180 03       		.uleb128 0x3
 5691 0181 0E       		.uleb128 0xe
 5692 0182 3A       		.uleb128 0x3a
 5693 0183 0B       		.uleb128 0xb
 5694 0184 3B       		.uleb128 0x3b
 5695 0185 05       		.uleb128 0x5
 5696 0186 27       		.uleb128 0x27
 5697 0187 19       		.uleb128 0x19
 5698 0188 11       		.uleb128 0x11
 5699 0189 01       		.uleb128 0x1
 5700 018a 12       		.uleb128 0x12
 5701 018b 06       		.uleb128 0x6
 5702 018c 40       		.uleb128 0x40
 5703 018d 18       		.uleb128 0x18
 5704 018e 9742     		.uleb128 0x2117
 5705 0190 19       		.uleb128 0x19
 5706 0191 01       		.uleb128 0x1
 5707 0192 13       		.uleb128 0x13
 5708 0193 00       		.byte	0
 5709 0194 00       		.byte	0
 5710 0195 21       		.uleb128 0x21
 5711 0196 05       		.uleb128 0x5
 5712 0197 00       		.byte	0
 5713 0198 03       		.uleb128 0x3
 5714 0199 08       		.uleb128 0x8
 5715 019a 3A       		.uleb128 0x3a
 5716 019b 0B       		.uleb128 0xb
 5717 019c 3B       		.uleb128 0x3b
 5718 019d 05       		.uleb128 0x5
 5719 019e 49       		.uleb128 0x49
 5720 019f 13       		.uleb128 0x13
 5721 01a0 02       		.uleb128 0x2
 5722 01a1 17       		.uleb128 0x17
 5723 01a2 00       		.byte	0
 5724 01a3 00       		.byte	0
 5725 01a4 22       		.uleb128 0x22
 5726 01a5 34       		.uleb128 0x34
ARM GAS  C:\Users\haske\AppData\Local\Temp\ccEGgQv3.s 			page 111


 5727 01a6 00       		.byte	0
 5728 01a7 03       		.uleb128 0x3
 5729 01a8 0E       		.uleb128 0xe
 5730 01a9 3A       		.uleb128 0x3a
 5731 01aa 0B       		.uleb128 0xb
 5732 01ab 3B       		.uleb128 0x3b
 5733 01ac 05       		.uleb128 0x5
 5734 01ad 49       		.uleb128 0x49
 5735 01ae 13       		.uleb128 0x13
 5736 01af 02       		.uleb128 0x2
 5737 01b0 17       		.uleb128 0x17
 5738 01b1 00       		.byte	0
 5739 01b2 00       		.byte	0
 5740 01b3 23       		.uleb128 0x23
 5741 01b4 0B       		.uleb128 0xb
 5742 01b5 01       		.byte	0x1
 5743 01b6 11       		.uleb128 0x11
 5744 01b7 01       		.uleb128 0x1
 5745 01b8 12       		.uleb128 0x12
 5746 01b9 06       		.uleb128 0x6
 5747 01ba 01       		.uleb128 0x1
 5748 01bb 13       		.uleb128 0x13
 5749 01bc 00       		.byte	0
 5750 01bd 00       		.byte	0
 5751 01be 24       		.uleb128 0x24
 5752 01bf 34       		.uleb128 0x34
 5753 01c0 00       		.byte	0
 5754 01c1 03       		.uleb128 0x3
 5755 01c2 08       		.uleb128 0x8
 5756 01c3 3A       		.uleb128 0x3a
 5757 01c4 0B       		.uleb128 0xb
 5758 01c5 3B       		.uleb128 0x3b
 5759 01c6 05       		.uleb128 0x5
 5760 01c7 49       		.uleb128 0x49
 5761 01c8 13       		.uleb128 0x13
 5762 01c9 02       		.uleb128 0x2
 5763 01ca 17       		.uleb128 0x17
 5764 01cb 00       		.byte	0
 5765 01cc 00       		.byte	0
 5766 01cd 25       		.uleb128 0x25
 5767 01ce 898201   		.uleb128 0x4109
 5768 01d1 00       		.byte	0
 5769 01d2 11       		.uleb128 0x11
 5770 01d3 01       		.uleb128 0x1
 5771 01d4 31       		.uleb128 0x31
 5772 01d5 13       		.uleb128 0x13
 5773 01d6 00       		.byte	0
 5774 01d7 00       		.byte	0
 5775 01d8 26       		.uleb128 0x26
 5776 01d9 898201   		.uleb128 0x4109
 5777 01dc 01       		.byte	0x1
 5778 01dd 11       		.uleb128 0x11
 5779 01de 01       		.uleb128 0x1
 5780 01df 31       		.uleb128 0x31
 5781 01e0 13       		.uleb128 0x13
 5782 01e1 01       		.uleb128 0x1
 5783 01e2 13       		.uleb128 0x13
ARM GAS  C:\Users\haske\AppData\Local\Temp\ccEGgQv3.s 			page 112


 5784 01e3 00       		.byte	0
 5785 01e4 00       		.byte	0
 5786 01e5 27       		.uleb128 0x27
 5787 01e6 8A8201   		.uleb128 0x410a
 5788 01e9 00       		.byte	0
 5789 01ea 02       		.uleb128 0x2
 5790 01eb 18       		.uleb128 0x18
 5791 01ec 9142     		.uleb128 0x2111
 5792 01ee 18       		.uleb128 0x18
 5793 01ef 00       		.byte	0
 5794 01f0 00       		.byte	0
 5795 01f1 28       		.uleb128 0x28
 5796 01f2 898201   		.uleb128 0x4109
 5797 01f5 01       		.byte	0x1
 5798 01f6 11       		.uleb128 0x11
 5799 01f7 01       		.uleb128 0x1
 5800 01f8 31       		.uleb128 0x31
 5801 01f9 13       		.uleb128 0x13
 5802 01fa 00       		.byte	0
 5803 01fb 00       		.byte	0
 5804 01fc 29       		.uleb128 0x29
 5805 01fd 05       		.uleb128 0x5
 5806 01fe 00       		.byte	0
 5807 01ff 03       		.uleb128 0x3
 5808 0200 0E       		.uleb128 0xe
 5809 0201 3A       		.uleb128 0x3a
 5810 0202 0B       		.uleb128 0xb
 5811 0203 3B       		.uleb128 0x3b
 5812 0204 05       		.uleb128 0x5
 5813 0205 49       		.uleb128 0x49
 5814 0206 13       		.uleb128 0x13
 5815 0207 02       		.uleb128 0x2
 5816 0208 17       		.uleb128 0x17
 5817 0209 00       		.byte	0
 5818 020a 00       		.byte	0
 5819 020b 2A       		.uleb128 0x2a
 5820 020c 2E       		.uleb128 0x2e
 5821 020d 01       		.byte	0x1
 5822 020e 3F       		.uleb128 0x3f
 5823 020f 19       		.uleb128 0x19
 5824 0210 03       		.uleb128 0x3
 5825 0211 0E       		.uleb128 0xe
 5826 0212 3A       		.uleb128 0x3a
 5827 0213 0B       		.uleb128 0xb
 5828 0214 3B       		.uleb128 0x3b
 5829 0215 05       		.uleb128 0x5
 5830 0216 27       		.uleb128 0x27
 5831 0217 19       		.uleb128 0x19
 5832 0218 11       		.uleb128 0x11
 5833 0219 01       		.uleb128 0x1
 5834 021a 12       		.uleb128 0x12
 5835 021b 06       		.uleb128 0x6
 5836 021c 40       		.uleb128 0x40
 5837 021d 18       		.uleb128 0x18
 5838 021e 9742     		.uleb128 0x2117
 5839 0220 19       		.uleb128 0x19
 5840 0221 01       		.uleb128 0x1
ARM GAS  C:\Users\haske\AppData\Local\Temp\ccEGgQv3.s 			page 113


 5841 0222 13       		.uleb128 0x13
 5842 0223 00       		.byte	0
 5843 0224 00       		.byte	0
 5844 0225 2B       		.uleb128 0x2b
 5845 0226 34       		.uleb128 0x34
 5846 0227 00       		.byte	0
 5847 0228 03       		.uleb128 0x3
 5848 0229 08       		.uleb128 0x8
 5849 022a 3A       		.uleb128 0x3a
 5850 022b 0B       		.uleb128 0xb
 5851 022c 3B       		.uleb128 0x3b
 5852 022d 05       		.uleb128 0x5
 5853 022e 49       		.uleb128 0x49
 5854 022f 13       		.uleb128 0x13
 5855 0230 00       		.byte	0
 5856 0231 00       		.byte	0
 5857 0232 2C       		.uleb128 0x2c
 5858 0233 2E       		.uleb128 0x2e
 5859 0234 01       		.byte	0x1
 5860 0235 3F       		.uleb128 0x3f
 5861 0236 19       		.uleb128 0x19
 5862 0237 03       		.uleb128 0x3
 5863 0238 0E       		.uleb128 0xe
 5864 0239 3A       		.uleb128 0x3a
 5865 023a 0B       		.uleb128 0xb
 5866 023b 3B       		.uleb128 0x3b
 5867 023c 0B       		.uleb128 0xb
 5868 023d 27       		.uleb128 0x27
 5869 023e 19       		.uleb128 0x19
 5870 023f 49       		.uleb128 0x49
 5871 0240 13       		.uleb128 0x13
 5872 0241 11       		.uleb128 0x11
 5873 0242 01       		.uleb128 0x1
 5874 0243 12       		.uleb128 0x12
 5875 0244 06       		.uleb128 0x6
 5876 0245 40       		.uleb128 0x40
 5877 0246 18       		.uleb128 0x18
 5878 0247 9742     		.uleb128 0x2117
 5879 0249 19       		.uleb128 0x19
 5880 024a 01       		.uleb128 0x1
 5881 024b 13       		.uleb128 0x13
 5882 024c 00       		.byte	0
 5883 024d 00       		.byte	0
 5884 024e 2D       		.uleb128 0x2d
 5885 024f 05       		.uleb128 0x5
 5886 0250 00       		.byte	0
 5887 0251 03       		.uleb128 0x3
 5888 0252 0E       		.uleb128 0xe
 5889 0253 3A       		.uleb128 0x3a
 5890 0254 0B       		.uleb128 0xb
 5891 0255 3B       		.uleb128 0x3b
 5892 0256 0B       		.uleb128 0xb
 5893 0257 49       		.uleb128 0x49
 5894 0258 13       		.uleb128 0x13
 5895 0259 02       		.uleb128 0x2
 5896 025a 17       		.uleb128 0x17
 5897 025b 00       		.byte	0
ARM GAS  C:\Users\haske\AppData\Local\Temp\ccEGgQv3.s 			page 114


 5898 025c 00       		.byte	0
 5899 025d 2E       		.uleb128 0x2e
 5900 025e 34       		.uleb128 0x34
 5901 025f 00       		.byte	0
 5902 0260 03       		.uleb128 0x3
 5903 0261 08       		.uleb128 0x8
 5904 0262 3A       		.uleb128 0x3a
 5905 0263 0B       		.uleb128 0xb
 5906 0264 3B       		.uleb128 0x3b
 5907 0265 0B       		.uleb128 0xb
 5908 0266 49       		.uleb128 0x49
 5909 0267 13       		.uleb128 0x13
 5910 0268 02       		.uleb128 0x2
 5911 0269 17       		.uleb128 0x17
 5912 026a 00       		.byte	0
 5913 026b 00       		.byte	0
 5914 026c 2F       		.uleb128 0x2f
 5915 026d 2E       		.uleb128 0x2e
 5916 026e 01       		.byte	0x1
 5917 026f 3F       		.uleb128 0x3f
 5918 0270 19       		.uleb128 0x19
 5919 0271 03       		.uleb128 0x3
 5920 0272 0E       		.uleb128 0xe
 5921 0273 3A       		.uleb128 0x3a
 5922 0274 0B       		.uleb128 0xb
 5923 0275 3B       		.uleb128 0x3b
 5924 0276 0B       		.uleb128 0xb
 5925 0277 27       		.uleb128 0x27
 5926 0278 19       		.uleb128 0x19
 5927 0279 11       		.uleb128 0x11
 5928 027a 01       		.uleb128 0x1
 5929 027b 12       		.uleb128 0x12
 5930 027c 06       		.uleb128 0x6
 5931 027d 40       		.uleb128 0x40
 5932 027e 18       		.uleb128 0x18
 5933 027f 9742     		.uleb128 0x2117
 5934 0281 19       		.uleb128 0x19
 5935 0282 01       		.uleb128 0x1
 5936 0283 13       		.uleb128 0x13
 5937 0284 00       		.byte	0
 5938 0285 00       		.byte	0
 5939 0286 30       		.uleb128 0x30
 5940 0287 05       		.uleb128 0x5
 5941 0288 00       		.byte	0
 5942 0289 03       		.uleb128 0x3
 5943 028a 08       		.uleb128 0x8
 5944 028b 3A       		.uleb128 0x3a
 5945 028c 0B       		.uleb128 0xb
 5946 028d 3B       		.uleb128 0x3b
 5947 028e 0B       		.uleb128 0xb
 5948 028f 49       		.uleb128 0x49
 5949 0290 13       		.uleb128 0x13
 5950 0291 02       		.uleb128 0x2
 5951 0292 17       		.uleb128 0x17
 5952 0293 00       		.byte	0
 5953 0294 00       		.byte	0
 5954 0295 31       		.uleb128 0x31
ARM GAS  C:\Users\haske\AppData\Local\Temp\ccEGgQv3.s 			page 115


 5955 0296 34       		.uleb128 0x34
 5956 0297 00       		.byte	0
 5957 0298 03       		.uleb128 0x3
 5958 0299 0E       		.uleb128 0xe
 5959 029a 3A       		.uleb128 0x3a
 5960 029b 0B       		.uleb128 0xb
 5961 029c 3B       		.uleb128 0x3b
 5962 029d 0B       		.uleb128 0xb
 5963 029e 49       		.uleb128 0x49
 5964 029f 13       		.uleb128 0x13
 5965 02a0 02       		.uleb128 0x2
 5966 02a1 17       		.uleb128 0x17
 5967 02a2 00       		.byte	0
 5968 02a3 00       		.byte	0
 5969 02a4 32       		.uleb128 0x32
 5970 02a5 2E       		.uleb128 0x2e
 5971 02a6 01       		.byte	0x1
 5972 02a7 3F       		.uleb128 0x3f
 5973 02a8 19       		.uleb128 0x19
 5974 02a9 03       		.uleb128 0x3
 5975 02aa 0E       		.uleb128 0xe
 5976 02ab 3A       		.uleb128 0x3a
 5977 02ac 0B       		.uleb128 0xb
 5978 02ad 3B       		.uleb128 0x3b
 5979 02ae 05       		.uleb128 0x5
 5980 02af 27       		.uleb128 0x27
 5981 02b0 19       		.uleb128 0x19
 5982 02b1 49       		.uleb128 0x49
 5983 02b2 13       		.uleb128 0x13
 5984 02b3 11       		.uleb128 0x11
 5985 02b4 01       		.uleb128 0x1
 5986 02b5 12       		.uleb128 0x12
 5987 02b6 06       		.uleb128 0x6
 5988 02b7 40       		.uleb128 0x40
 5989 02b8 18       		.uleb128 0x18
 5990 02b9 9742     		.uleb128 0x2117
 5991 02bb 19       		.uleb128 0x19
 5992 02bc 01       		.uleb128 0x1
 5993 02bd 13       		.uleb128 0x13
 5994 02be 00       		.byte	0
 5995 02bf 00       		.byte	0
 5996 02c0 33       		.uleb128 0x33
 5997 02c1 01       		.uleb128 0x1
 5998 02c2 01       		.byte	0x1
 5999 02c3 49       		.uleb128 0x49
 6000 02c4 13       		.uleb128 0x13
 6001 02c5 01       		.uleb128 0x1
 6002 02c6 13       		.uleb128 0x13
 6003 02c7 00       		.byte	0
 6004 02c8 00       		.byte	0
 6005 02c9 34       		.uleb128 0x34
 6006 02ca 21       		.uleb128 0x21
 6007 02cb 00       		.byte	0
 6008 02cc 49       		.uleb128 0x49
 6009 02cd 13       		.uleb128 0x13
 6010 02ce 2F       		.uleb128 0x2f
 6011 02cf 0B       		.uleb128 0xb
ARM GAS  C:\Users\haske\AppData\Local\Temp\ccEGgQv3.s 			page 116


 6012 02d0 00       		.byte	0
 6013 02d1 00       		.byte	0
 6014 02d2 35       		.uleb128 0x35
 6015 02d3 34       		.uleb128 0x34
 6016 02d4 00       		.byte	0
 6017 02d5 03       		.uleb128 0x3
 6018 02d6 0E       		.uleb128 0xe
 6019 02d7 3A       		.uleb128 0x3a
 6020 02d8 0B       		.uleb128 0xb
 6021 02d9 3B       		.uleb128 0x3b
 6022 02da 0B       		.uleb128 0xb
 6023 02db 49       		.uleb128 0x49
 6024 02dc 13       		.uleb128 0x13
 6025 02dd 02       		.uleb128 0x2
 6026 02de 18       		.uleb128 0x18
 6027 02df 00       		.byte	0
 6028 02e0 00       		.byte	0
 6029 02e1 36       		.uleb128 0x36
 6030 02e2 34       		.uleb128 0x34
 6031 02e3 00       		.byte	0
 6032 02e4 03       		.uleb128 0x3
 6033 02e5 0E       		.uleb128 0xe
 6034 02e6 3A       		.uleb128 0x3a
 6035 02e7 0B       		.uleb128 0xb
 6036 02e8 3B       		.uleb128 0x3b
 6037 02e9 0B       		.uleb128 0xb
 6038 02ea 49       		.uleb128 0x49
 6039 02eb 13       		.uleb128 0x13
 6040 02ec 3F       		.uleb128 0x3f
 6041 02ed 19       		.uleb128 0x19
 6042 02ee 3C       		.uleb128 0x3c
 6043 02ef 19       		.uleb128 0x19
 6044 02f0 00       		.byte	0
 6045 02f1 00       		.byte	0
 6046 02f2 37       		.uleb128 0x37
 6047 02f3 34       		.uleb128 0x34
 6048 02f4 00       		.byte	0
 6049 02f5 03       		.uleb128 0x3
 6050 02f6 0E       		.uleb128 0xe
 6051 02f7 3A       		.uleb128 0x3a
 6052 02f8 0B       		.uleb128 0xb
 6053 02f9 3B       		.uleb128 0x3b
 6054 02fa 0B       		.uleb128 0xb
 6055 02fb 49       		.uleb128 0x49
 6056 02fc 13       		.uleb128 0x13
 6057 02fd 3F       		.uleb128 0x3f
 6058 02fe 19       		.uleb128 0x19
 6059 02ff 02       		.uleb128 0x2
 6060 0300 18       		.uleb128 0x18
 6061 0301 00       		.byte	0
 6062 0302 00       		.byte	0
 6063 0303 38       		.uleb128 0x38
 6064 0304 2E       		.uleb128 0x2e
 6065 0305 00       		.byte	0
 6066 0306 3F       		.uleb128 0x3f
 6067 0307 19       		.uleb128 0x19
 6068 0308 3C       		.uleb128 0x3c
ARM GAS  C:\Users\haske\AppData\Local\Temp\ccEGgQv3.s 			page 117


 6069 0309 19       		.uleb128 0x19
 6070 030a 6E       		.uleb128 0x6e
 6071 030b 0E       		.uleb128 0xe
 6072 030c 03       		.uleb128 0x3
 6073 030d 0E       		.uleb128 0xe
 6074 030e 3A       		.uleb128 0x3a
 6075 030f 0B       		.uleb128 0xb
 6076 0310 3B       		.uleb128 0x3b
 6077 0311 0B       		.uleb128 0xb
 6078 0312 00       		.byte	0
 6079 0313 00       		.byte	0
 6080 0314 39       		.uleb128 0x39
 6081 0315 2E       		.uleb128 0x2e
 6082 0316 00       		.byte	0
 6083 0317 3F       		.uleb128 0x3f
 6084 0318 19       		.uleb128 0x19
 6085 0319 3C       		.uleb128 0x3c
 6086 031a 19       		.uleb128 0x19
 6087 031b 6E       		.uleb128 0x6e
 6088 031c 0E       		.uleb128 0xe
 6089 031d 03       		.uleb128 0x3
 6090 031e 0E       		.uleb128 0xe
 6091 031f 3A       		.uleb128 0x3a
 6092 0320 0B       		.uleb128 0xb
 6093 0321 3B       		.uleb128 0x3b
 6094 0322 05       		.uleb128 0x5
 6095 0323 00       		.byte	0
 6096 0324 00       		.byte	0
 6097 0325 00       		.byte	0
 6098              		.section	.debug_loc,"",%progbits
 6099              	.Ldebug_loc0:
 6100              	.LLST0:
 6101 0000 00000000 		.4byte	.LVL0
 6102 0004 19000000 		.4byte	.LVL2-1
 6103 0008 0100     		.2byte	0x1
 6104 000a 50       		.byte	0x50
 6105 000b 19000000 		.4byte	.LVL2-1
 6106 000f 1C000000 		.4byte	.LVL3
 6107 0013 0100     		.2byte	0x1
 6108 0015 54       		.byte	0x54
 6109 0016 1C000000 		.4byte	.LVL3
 6110 001a 1E000000 		.4byte	.LVL4
 6111 001e 0100     		.2byte	0x1
 6112 0020 50       		.byte	0x50
 6113 0021 1E000000 		.4byte	.LVL4
 6114 0025 60000000 		.4byte	.LVL13
 6115 0029 0100     		.2byte	0x1
 6116 002b 54       		.byte	0x54
 6117 002c 60000000 		.4byte	.LVL13
 6118 0030 6C000000 		.4byte	.LFE173
 6119 0034 0400     		.2byte	0x4
 6120 0036 F3       		.byte	0xf3
 6121 0037 01       		.uleb128 0x1
 6122 0038 50       		.byte	0x50
 6123 0039 9F       		.byte	0x9f
 6124 003a 00000000 		.4byte	0
 6125 003e 00000000 		.4byte	0
ARM GAS  C:\Users\haske\AppData\Local\Temp\ccEGgQv3.s 			page 118


 6126              	.LLST1:
 6127 0042 04000000 		.4byte	.LVL1
 6128 0046 19000000 		.4byte	.LVL2-1
 6129 004a 0100     		.2byte	0x1
 6130 004c 50       		.byte	0x50
 6131 004d 19000000 		.4byte	.LVL2-1
 6132 0051 1C000000 		.4byte	.LVL3
 6133 0055 0100     		.2byte	0x1
 6134 0057 54       		.byte	0x54
 6135 0058 1C000000 		.4byte	.LVL3
 6136 005c 1E000000 		.4byte	.LVL4
 6137 0060 0100     		.2byte	0x1
 6138 0062 50       		.byte	0x50
 6139 0063 1E000000 		.4byte	.LVL4
 6140 0067 60000000 		.4byte	.LVL13
 6141 006b 0100     		.2byte	0x1
 6142 006d 54       		.byte	0x54
 6143 006e 60000000 		.4byte	.LVL13
 6144 0072 6C000000 		.4byte	.LFE173
 6145 0076 0400     		.2byte	0x4
 6146 0078 F3       		.byte	0xf3
 6147 0079 01       		.uleb128 0x1
 6148 007a 50       		.byte	0x50
 6149 007b 9F       		.byte	0x9f
 6150 007c 00000000 		.4byte	0
 6151 0080 00000000 		.4byte	0
 6152              	.LLST2:
 6153 0084 1C000000 		.4byte	.LVL3
 6154 0088 1E000000 		.4byte	.LVL4
 6155 008c 0100     		.2byte	0x1
 6156 008e 50       		.byte	0x50
 6157 008f 1E000000 		.4byte	.LVL4
 6158 0093 60000000 		.4byte	.LVL12
 6159 0097 0100     		.2byte	0x1
 6160 0099 54       		.byte	0x54
 6161 009a 00000000 		.4byte	0
 6162 009e 00000000 		.4byte	0
 6163              	.LLST3:
 6164 00a2 26000000 		.4byte	.LVL6
 6165 00a6 37000000 		.4byte	.LVL7-1
 6166 00aa 0100     		.2byte	0x1
 6167 00ac 50       		.byte	0x50
 6168 00ad 37000000 		.4byte	.LVL7-1
 6169 00b1 60000000 		.4byte	.LVL12
 6170 00b5 0100     		.2byte	0x1
 6171 00b7 55       		.byte	0x55
 6172 00b8 00000000 		.4byte	0
 6173 00bc 00000000 		.4byte	0
 6174              	.LLST4:
 6175 00c0 38000000 		.4byte	.LVL7
 6176 00c4 3C000000 		.4byte	.LVL8
 6177 00c8 0200     		.2byte	0x2
 6178 00ca 30       		.byte	0x30
 6179 00cb 9F       		.byte	0x9f
 6180 00cc 3C000000 		.4byte	.LVL8
 6181 00d0 4A000000 		.4byte	.LVL9
 6182 00d4 0100     		.2byte	0x1
ARM GAS  C:\Users\haske\AppData\Local\Temp\ccEGgQv3.s 			page 119


 6183 00d6 53       		.byte	0x53
 6184 00d7 4C000000 		.4byte	.LVL10
 6185 00db 59000000 		.4byte	.LVL11-1
 6186 00df 0100     		.2byte	0x1
 6187 00e1 53       		.byte	0x53
 6188 00e2 00000000 		.4byte	0
 6189 00e6 00000000 		.4byte	0
 6190              	.LLST5:
 6191 00ea 00000000 		.4byte	.LVL14
 6192 00ee 13000000 		.4byte	.LVL16-1
 6193 00f2 0100     		.2byte	0x1
 6194 00f4 50       		.byte	0x50
 6195 00f5 13000000 		.4byte	.LVL16-1
 6196 00f9 1A000000 		.4byte	.LVL18
 6197 00fd 0100     		.2byte	0x1
 6198 00ff 54       		.byte	0x54
 6199 0100 1A000000 		.4byte	.LVL18
 6200 0104 20000000 		.4byte	.LFE172
 6201 0108 0400     		.2byte	0x4
 6202 010a F3       		.byte	0xf3
 6203 010b 01       		.uleb128 0x1
 6204 010c 50       		.byte	0x50
 6205 010d 9F       		.byte	0x9f
 6206 010e 00000000 		.4byte	0
 6207 0112 00000000 		.4byte	0
 6208              	.LLST6:
 6209 0116 04000000 		.4byte	.LVL15
 6210 011a 13000000 		.4byte	.LVL16-1
 6211 011e 0100     		.2byte	0x1
 6212 0120 50       		.byte	0x50
 6213 0121 13000000 		.4byte	.LVL16-1
 6214 0125 1A000000 		.4byte	.LVL18
 6215 0129 0100     		.2byte	0x1
 6216 012b 54       		.byte	0x54
 6217 012c 1A000000 		.4byte	.LVL18
 6218 0130 20000000 		.4byte	.LFE172
 6219 0134 0400     		.2byte	0x4
 6220 0136 F3       		.byte	0xf3
 6221 0137 01       		.uleb128 0x1
 6222 0138 50       		.byte	0x50
 6223 0139 9F       		.byte	0x9f
 6224 013a 00000000 		.4byte	0
 6225 013e 00000000 		.4byte	0
 6226              	.LLST7:
 6227 0142 00000000 		.4byte	.LVL19
 6228 0146 08000000 		.4byte	.LVL21
 6229 014a 0100     		.2byte	0x1
 6230 014c 50       		.byte	0x50
 6231 014d 08000000 		.4byte	.LVL21
 6232 0151 4C000000 		.4byte	.LFE171
 6233 0155 0400     		.2byte	0x4
 6234 0157 F3       		.byte	0xf3
 6235 0158 01       		.uleb128 0x1
 6236 0159 50       		.byte	0x50
 6237 015a 9F       		.byte	0x9f
 6238 015b 00000000 		.4byte	0
 6239 015f 00000000 		.4byte	0
ARM GAS  C:\Users\haske\AppData\Local\Temp\ccEGgQv3.s 			page 120


 6240              	.LLST8:
 6241 0163 00000000 		.4byte	.LVL19
 6242 0167 06000000 		.4byte	.LVL20
 6243 016b 0100     		.2byte	0x1
 6244 016d 51       		.byte	0x51
 6245 016e 06000000 		.4byte	.LVL20
 6246 0172 46000000 		.4byte	.LVL27
 6247 0176 0100     		.2byte	0x1
 6248 0178 54       		.byte	0x54
 6249 0179 46000000 		.4byte	.LVL27
 6250 017d 4C000000 		.4byte	.LFE171
 6251 0181 0400     		.2byte	0x4
 6252 0183 F3       		.byte	0xf3
 6253 0184 01       		.uleb128 0x1
 6254 0185 51       		.byte	0x51
 6255 0186 9F       		.byte	0x9f
 6256 0187 00000000 		.4byte	0
 6257 018b 00000000 		.4byte	0
 6258              	.LLST9:
 6259 018f 0C000000 		.4byte	.LVL22
 6260 0193 46000000 		.4byte	.LVL27
 6261 0197 0100     		.2byte	0x1
 6262 0199 54       		.byte	0x54
 6263 019a 46000000 		.4byte	.LVL27
 6264 019e 4C000000 		.4byte	.LFE171
 6265 01a2 0400     		.2byte	0x4
 6266 01a4 F3       		.byte	0xf3
 6267 01a5 01       		.uleb128 0x1
 6268 01a6 51       		.byte	0x51
 6269 01a7 9F       		.byte	0x9f
 6270 01a8 00000000 		.4byte	0
 6271 01ac 00000000 		.4byte	0
 6272              	.LLST10:
 6273 01b0 00000000 		.4byte	.LVL28
 6274 01b4 05000000 		.4byte	.LVL29-1
 6275 01b8 0100     		.2byte	0x1
 6276 01ba 50       		.byte	0x50
 6277 01bb 05000000 		.4byte	.LVL29-1
 6278 01bf 38020000 		.4byte	.LFE170
 6279 01c3 0400     		.2byte	0x4
 6280 01c5 F3       		.byte	0xf3
 6281 01c6 01       		.uleb128 0x1
 6282 01c7 50       		.byte	0x50
 6283 01c8 9F       		.byte	0x9f
 6284 01c9 00000000 		.4byte	0
 6285 01cd 00000000 		.4byte	0
 6286              	.LLST11:
 6287 01d1 08000000 		.4byte	.LVL30
 6288 01d5 0B000000 		.4byte	.LVL31-1
 6289 01d9 0100     		.2byte	0x1
 6290 01db 50       		.byte	0x50
 6291 01dc 0B000000 		.4byte	.LVL31-1
 6292 01e0 FE010000 		.4byte	.LVL87
 6293 01e4 0100     		.2byte	0x1
 6294 01e6 54       		.byte	0x54
 6295 01e7 00000000 		.4byte	0
 6296 01eb 00000000 		.4byte	0
ARM GAS  C:\Users\haske\AppData\Local\Temp\ccEGgQv3.s 			page 121


 6297              	.LLST13:
 6298 01ef 0C000000 		.4byte	.LVL31
 6299 01f3 16000000 		.4byte	.LVL32
 6300 01f7 0100     		.2byte	0x1
 6301 01f9 50       		.byte	0x50
 6302 01fa 00000000 		.4byte	0
 6303 01fe 00000000 		.4byte	0
 6304              	.LLST14:
 6305 0202 24000000 		.4byte	.LVL35
 6306 0206 2D000000 		.4byte	.LVL36-1
 6307 020a 0100     		.2byte	0x1
 6308 020c 50       		.byte	0x50
 6309 020d 2D000000 		.4byte	.LVL36-1
 6310 0211 86010000 		.4byte	.LVL67
 6311 0215 0100     		.2byte	0x1
 6312 0217 55       		.byte	0x55
 6313 0218 F6010000 		.4byte	.LVL85
 6314 021c FE010000 		.4byte	.LVL86
 6315 0220 0100     		.2byte	0x1
 6316 0222 55       		.byte	0x55
 6317 0223 00000000 		.4byte	0
 6318 0227 00000000 		.4byte	0
 6319              	.LLST15:
 6320 022b B4000000 		.4byte	.LVL47
 6321 022f BC000000 		.4byte	.LVL48
 6322 0233 0100     		.2byte	0x1
 6323 0235 50       		.byte	0x50
 6324 0236 00000000 		.4byte	0
 6325 023a 00000000 		.4byte	0
 6326              	.LLST16:
 6327 023e E2000000 		.4byte	.LVL51
 6328 0242 EA000000 		.4byte	.LVL52
 6329 0246 0100     		.2byte	0x1
 6330 0248 50       		.byte	0x50
 6331 0249 00000000 		.4byte	0
 6332 024d 00000000 		.4byte	0
 6333              	.LLST17:
 6334 0251 86010000 		.4byte	.LVL67
 6335 0255 F6010000 		.4byte	.LVL85
 6336 0259 0100     		.2byte	0x1
 6337 025b 55       		.byte	0x55
 6338 025c 00000000 		.4byte	0
 6339 0260 00000000 		.4byte	0
 6340              	.LLST18:
 6341 0264 8C010000 		.4byte	.LVL68
 6342 0268 96010000 		.4byte	.LVL69
 6343 026c 0100     		.2byte	0x1
 6344 026e 50       		.byte	0x50
 6345 026f B2010000 		.4byte	.LVL74
 6346 0273 BA010000 		.4byte	.LVL75
 6347 0277 0100     		.2byte	0x1
 6348 0279 50       		.byte	0x50
 6349 027a D8010000 		.4byte	.LVL80
 6350 027e DC010000 		.4byte	.LVL81
 6351 0282 0100     		.2byte	0x1
 6352 0284 50       		.byte	0x50
 6353 0285 00000000 		.4byte	0
ARM GAS  C:\Users\haske\AppData\Local\Temp\ccEGgQv3.s 			page 122


 6354 0289 00000000 		.4byte	0
 6355              	.LLST19:
 6356 028d 00000000 		.4byte	.LVL88
 6357 0291 06000000 		.4byte	.LVL89
 6358 0295 0100     		.2byte	0x1
 6359 0297 50       		.byte	0x50
 6360 0298 06000000 		.4byte	.LVL89
 6361 029c 09000000 		.4byte	.LVL90-1
 6362 02a0 0100     		.2byte	0x1
 6363 02a2 51       		.byte	0x51
 6364 02a3 09000000 		.4byte	.LVL90-1
 6365 02a7 18000000 		.4byte	.LFE162
 6366 02ab 0400     		.2byte	0x4
 6367 02ad F3       		.byte	0xf3
 6368 02ae 01       		.uleb128 0x1
 6369 02af 50       		.byte	0x50
 6370 02b0 9F       		.byte	0x9f
 6371 02b1 00000000 		.4byte	0
 6372 02b5 00000000 		.4byte	0
 6373              	.LLST20:
 6374 02b9 0C000000 		.4byte	.LVL91
 6375 02bd 0F000000 		.4byte	.LVL92-1
 6376 02c1 0100     		.2byte	0x1
 6377 02c3 50       		.byte	0x50
 6378 02c4 0F000000 		.4byte	.LVL92-1
 6379 02c8 12000000 		.4byte	.LVL93
 6380 02cc 0100     		.2byte	0x1
 6381 02ce 54       		.byte	0x54
 6382 02cf 12000000 		.4byte	.LVL93
 6383 02d3 18000000 		.4byte	.LFE162
 6384 02d7 0100     		.2byte	0x1
 6385 02d9 50       		.byte	0x50
 6386 02da 00000000 		.4byte	0
 6387 02de 00000000 		.4byte	0
 6388              	.LLST21:
 6389 02e2 00000000 		.4byte	.LVL94
 6390 02e6 11000000 		.4byte	.LVL97-1
 6391 02ea 0100     		.2byte	0x1
 6392 02ec 50       		.byte	0x50
 6393 02ed 11000000 		.4byte	.LVL97-1
 6394 02f1 20000000 		.4byte	.LVL99
 6395 02f5 0100     		.2byte	0x1
 6396 02f7 54       		.byte	0x54
 6397 02f8 20000000 		.4byte	.LVL99
 6398 02fc 22000000 		.4byte	.LFE163
 6399 0300 0400     		.2byte	0x4
 6400 0302 F3       		.byte	0xf3
 6401 0303 01       		.uleb128 0x1
 6402 0304 50       		.byte	0x50
 6403 0305 9F       		.byte	0x9f
 6404 0306 00000000 		.4byte	0
 6405 030a 00000000 		.4byte	0
 6406              	.LLST22:
 6407 030e 00000000 		.4byte	.LVL94
 6408 0312 0E000000 		.4byte	.LVL96
 6409 0316 0100     		.2byte	0x1
 6410 0318 51       		.byte	0x51
ARM GAS  C:\Users\haske\AppData\Local\Temp\ccEGgQv3.s 			page 123


 6411 0319 0E000000 		.4byte	.LVL96
 6412 031d 20000000 		.4byte	.LVL100
 6413 0321 0100     		.2byte	0x1
 6414 0323 55       		.byte	0x55
 6415 0324 20000000 		.4byte	.LVL100
 6416 0328 22000000 		.4byte	.LFE163
 6417 032c 0400     		.2byte	0x4
 6418 032e F3       		.byte	0xf3
 6419 032f 01       		.uleb128 0x1
 6420 0330 51       		.byte	0x51
 6421 0331 9F       		.byte	0x9f
 6422 0332 00000000 		.4byte	0
 6423 0336 00000000 		.4byte	0
 6424              	.LLST23:
 6425 033a 06000000 		.4byte	.LVL95
 6426 033e 11000000 		.4byte	.LVL97-1
 6427 0342 0100     		.2byte	0x1
 6428 0344 50       		.byte	0x50
 6429 0345 11000000 		.4byte	.LVL97-1
 6430 0349 20000000 		.4byte	.LVL99
 6431 034d 0100     		.2byte	0x1
 6432 034f 54       		.byte	0x54
 6433 0350 20000000 		.4byte	.LVL99
 6434 0354 22000000 		.4byte	.LFE163
 6435 0358 0400     		.2byte	0x4
 6436 035a F3       		.byte	0xf3
 6437 035b 01       		.uleb128 0x1
 6438 035c 50       		.byte	0x50
 6439 035d 9F       		.byte	0x9f
 6440 035e 00000000 		.4byte	0
 6441 0362 00000000 		.4byte	0
 6442              	.LLST24:
 6443 0366 00000000 		.4byte	.LVL101
 6444 036a 11000000 		.4byte	.LVL103-1
 6445 036e 0100     		.2byte	0x1
 6446 0370 50       		.byte	0x50
 6447 0371 11000000 		.4byte	.LVL103-1
 6448 0375 14000000 		.4byte	.LFE164
 6449 0379 0400     		.2byte	0x4
 6450 037b F3       		.byte	0xf3
 6451 037c 01       		.uleb128 0x1
 6452 037d 50       		.byte	0x50
 6453 037e 9F       		.byte	0x9f
 6454 037f 00000000 		.4byte	0
 6455 0383 00000000 		.4byte	0
 6456              	.LLST25:
 6457 0387 00000000 		.4byte	.LVL101
 6458 038b 11000000 		.4byte	.LVL103-1
 6459 038f 0100     		.2byte	0x1
 6460 0391 51       		.byte	0x51
 6461 0392 11000000 		.4byte	.LVL103-1
 6462 0396 14000000 		.4byte	.LFE164
 6463 039a 0400     		.2byte	0x4
 6464 039c F3       		.byte	0xf3
 6465 039d 01       		.uleb128 0x1
 6466 039e 51       		.byte	0x51
 6467 039f 9F       		.byte	0x9f
ARM GAS  C:\Users\haske\AppData\Local\Temp\ccEGgQv3.s 			page 124


 6468 03a0 00000000 		.4byte	0
 6469 03a4 00000000 		.4byte	0
 6470              	.LLST26:
 6471 03a8 02000000 		.4byte	.LVL102
 6472 03ac 11000000 		.4byte	.LVL103-1
 6473 03b0 0100     		.2byte	0x1
 6474 03b2 50       		.byte	0x50
 6475 03b3 11000000 		.4byte	.LVL103-1
 6476 03b7 14000000 		.4byte	.LFE164
 6477 03bb 0400     		.2byte	0x4
 6478 03bd F3       		.byte	0xf3
 6479 03be 01       		.uleb128 0x1
 6480 03bf 50       		.byte	0x50
 6481 03c0 9F       		.byte	0x9f
 6482 03c1 00000000 		.4byte	0
 6483 03c5 00000000 		.4byte	0
 6484              	.LLST27:
 6485 03c9 00000000 		.4byte	.LVL104
 6486 03cd 23000000 		.4byte	.LVL107-1
 6487 03d1 0100     		.2byte	0x1
 6488 03d3 50       		.byte	0x50
 6489 03d4 23000000 		.4byte	.LVL107-1
 6490 03d8 26000000 		.4byte	.LFE165
 6491 03dc 0400     		.2byte	0x4
 6492 03de F3       		.byte	0xf3
 6493 03df 01       		.uleb128 0x1
 6494 03e0 50       		.byte	0x50
 6495 03e1 9F       		.byte	0x9f
 6496 03e2 00000000 		.4byte	0
 6497 03e6 00000000 		.4byte	0
 6498              	.LLST28:
 6499 03ea 00000000 		.4byte	.LVL104
 6500 03ee 16000000 		.4byte	.LVL106
 6501 03f2 0100     		.2byte	0x1
 6502 03f4 51       		.byte	0x51
 6503 03f5 16000000 		.4byte	.LVL106
 6504 03f9 26000000 		.4byte	.LFE165
 6505 03fd 0400     		.2byte	0x4
 6506 03ff F3       		.byte	0xf3
 6507 0400 01       		.uleb128 0x1
 6508 0401 51       		.byte	0x51
 6509 0402 9F       		.byte	0x9f
 6510 0403 00000000 		.4byte	0
 6511 0407 00000000 		.4byte	0
 6512              	.LLST29:
 6513 040b 02000000 		.4byte	.LVL105
 6514 040f 23000000 		.4byte	.LVL107-1
 6515 0413 0100     		.2byte	0x1
 6516 0415 50       		.byte	0x50
 6517 0416 23000000 		.4byte	.LVL107-1
 6518 041a 26000000 		.4byte	.LFE165
 6519 041e 0400     		.2byte	0x4
 6520 0420 F3       		.byte	0xf3
 6521 0421 01       		.uleb128 0x1
 6522 0422 50       		.byte	0x50
 6523 0423 9F       		.byte	0x9f
 6524 0424 00000000 		.4byte	0
ARM GAS  C:\Users\haske\AppData\Local\Temp\ccEGgQv3.s 			page 125


 6525 0428 00000000 		.4byte	0
 6526              	.LLST30:
 6527 042c 00000000 		.4byte	.LVL108
 6528 0430 0F000000 		.4byte	.LVL110-1
 6529 0434 0100     		.2byte	0x1
 6530 0436 50       		.byte	0x50
 6531 0437 0F000000 		.4byte	.LVL110-1
 6532 043b 18000000 		.4byte	.LFE166
 6533 043f 0400     		.2byte	0x4
 6534 0441 F3       		.byte	0xf3
 6535 0442 01       		.uleb128 0x1
 6536 0443 50       		.byte	0x50
 6537 0444 9F       		.byte	0x9f
 6538 0445 00000000 		.4byte	0
 6539 0449 00000000 		.4byte	0
 6540              	.LLST31:
 6541 044d 00000000 		.4byte	.LVL108
 6542 0451 06000000 		.4byte	.LVL109
 6543 0455 0100     		.2byte	0x1
 6544 0457 51       		.byte	0x51
 6545 0458 06000000 		.4byte	.LVL109
 6546 045c 18000000 		.4byte	.LFE166
 6547 0460 0400     		.2byte	0x4
 6548 0462 F3       		.byte	0xf3
 6549 0463 01       		.uleb128 0x1
 6550 0464 51       		.byte	0x51
 6551 0465 9F       		.byte	0x9f
 6552 0466 00000000 		.4byte	0
 6553 046a 00000000 		.4byte	0
 6554              	.LLST32:
 6555 046e 00000000 		.4byte	.LVL108
 6556 0472 0F000000 		.4byte	.LVL110-1
 6557 0476 0100     		.2byte	0x1
 6558 0478 52       		.byte	0x52
 6559 0479 0F000000 		.4byte	.LVL110-1
 6560 047d 18000000 		.4byte	.LFE166
 6561 0481 0400     		.2byte	0x4
 6562 0483 F3       		.byte	0xf3
 6563 0484 01       		.uleb128 0x1
 6564 0485 52       		.byte	0x52
 6565 0486 9F       		.byte	0x9f
 6566 0487 00000000 		.4byte	0
 6567 048b 00000000 		.4byte	0
 6568              	.LLST33:
 6569 048f 00000000 		.4byte	.LVL108
 6570 0493 0F000000 		.4byte	.LVL110-1
 6571 0497 0100     		.2byte	0x1
 6572 0499 53       		.byte	0x53
 6573 049a 0F000000 		.4byte	.LVL110-1
 6574 049e 18000000 		.4byte	.LFE166
 6575 04a2 0400     		.2byte	0x4
 6576 04a4 F3       		.byte	0xf3
 6577 04a5 01       		.uleb128 0x1
 6578 04a6 53       		.byte	0x53
 6579 04a7 9F       		.byte	0x9f
 6580 04a8 00000000 		.4byte	0
 6581 04ac 00000000 		.4byte	0
ARM GAS  C:\Users\haske\AppData\Local\Temp\ccEGgQv3.s 			page 126


 6582              	.LLST34:
 6583 04b0 00000000 		.4byte	.LVL111
 6584 04b4 02000000 		.4byte	.LVL112
 6585 04b8 0100     		.2byte	0x1
 6586 04ba 50       		.byte	0x50
 6587 04bb 02000000 		.4byte	.LVL112
 6588 04bf 04000000 		.4byte	.LFE167
 6589 04c3 0400     		.2byte	0x4
 6590 04c5 F3       		.byte	0xf3
 6591 04c6 01       		.uleb128 0x1
 6592 04c7 50       		.byte	0x50
 6593 04c8 9F       		.byte	0x9f
 6594 04c9 00000000 		.4byte	0
 6595 04cd 00000000 		.4byte	0
 6596              	.LLST35:
 6597 04d1 00000000 		.4byte	.LVL111
 6598 04d5 02000000 		.4byte	.LVL112
 6599 04d9 0100     		.2byte	0x1
 6600 04db 50       		.byte	0x50
 6601 04dc 02000000 		.4byte	.LVL112
 6602 04e0 04000000 		.4byte	.LFE167
 6603 04e4 0400     		.2byte	0x4
 6604 04e6 F3       		.byte	0xf3
 6605 04e7 01       		.uleb128 0x1
 6606 04e8 50       		.byte	0x50
 6607 04e9 9F       		.byte	0x9f
 6608 04ea 00000000 		.4byte	0
 6609 04ee 00000000 		.4byte	0
 6610              	.LLST36:
 6611 04f2 00000000 		.4byte	.LVL113
 6612 04f6 04000000 		.4byte	.LVL114
 6613 04fa 0100     		.2byte	0x1
 6614 04fc 50       		.byte	0x50
 6615 04fd 04000000 		.4byte	.LVL114
 6616 0501 06000000 		.4byte	.LFE168
 6617 0505 0400     		.2byte	0x4
 6618 0507 F3       		.byte	0xf3
 6619 0508 01       		.uleb128 0x1
 6620 0509 50       		.byte	0x50
 6621 050a 9F       		.byte	0x9f
 6622 050b 00000000 		.4byte	0
 6623 050f 00000000 		.4byte	0
 6624              	.LLST37:
 6625 0513 00000000 		.4byte	.LVL113
 6626 0517 04000000 		.4byte	.LVL114
 6627 051b 0100     		.2byte	0x1
 6628 051d 50       		.byte	0x50
 6629 051e 04000000 		.4byte	.LVL114
 6630 0522 06000000 		.4byte	.LFE168
 6631 0526 0400     		.2byte	0x4
 6632 0528 F3       		.byte	0xf3
 6633 0529 01       		.uleb128 0x1
 6634 052a 50       		.byte	0x50
 6635 052b 9F       		.byte	0x9f
 6636 052c 00000000 		.4byte	0
 6637 0530 00000000 		.4byte	0
 6638              	.LLST38:
ARM GAS  C:\Users\haske\AppData\Local\Temp\ccEGgQv3.s 			page 127


 6639 0534 00000000 		.4byte	.LVL115
 6640 0538 04000000 		.4byte	.LVL116
 6641 053c 0100     		.2byte	0x1
 6642 053e 50       		.byte	0x50
 6643 053f 04000000 		.4byte	.LVL116
 6644 0543 0C000000 		.4byte	.LFE169
 6645 0547 0400     		.2byte	0x4
 6646 0549 F3       		.byte	0xf3
 6647 054a 01       		.uleb128 0x1
 6648 054b 50       		.byte	0x50
 6649 054c 9F       		.byte	0x9f
 6650 054d 00000000 		.4byte	0
 6651 0551 00000000 		.4byte	0
 6652              	.LLST39:
 6653 0555 00000000 		.4byte	.LVL115
 6654 0559 04000000 		.4byte	.LVL116
 6655 055d 0100     		.2byte	0x1
 6656 055f 50       		.byte	0x50
 6657 0560 04000000 		.4byte	.LVL116
 6658 0564 0C000000 		.4byte	.LFE169
 6659 0568 0400     		.2byte	0x4
 6660 056a F3       		.byte	0xf3
 6661 056b 01       		.uleb128 0x1
 6662 056c 50       		.byte	0x50
 6663 056d 9F       		.byte	0x9f
 6664 056e 00000000 		.4byte	0
 6665 0572 00000000 		.4byte	0
 6666              		.section	.debug_aranges,"",%progbits
 6667 0000 74000000 		.4byte	0x74
 6668 0004 0200     		.2byte	0x2
 6669 0006 00000000 		.4byte	.Ldebug_info0
 6670 000a 04       		.byte	0x4
 6671 000b 00       		.byte	0
 6672 000c 0000     		.2byte	0
 6673 000e 0000     		.2byte	0
 6674 0010 00000000 		.4byte	.LFB173
 6675 0014 6C000000 		.4byte	.LFE173-.LFB173
 6676 0018 00000000 		.4byte	.LFB172
 6677 001c 20000000 		.4byte	.LFE172-.LFB172
 6678 0020 00000000 		.4byte	.LFB171
 6679 0024 4C000000 		.4byte	.LFE171-.LFB171
 6680 0028 00000000 		.4byte	.LFB170
 6681 002c 38020000 		.4byte	.LFE170-.LFB170
 6682 0030 00000000 		.4byte	.LFB162
 6683 0034 18000000 		.4byte	.LFE162-.LFB162
 6684 0038 00000000 		.4byte	.LFB163
 6685 003c 22000000 		.4byte	.LFE163-.LFB163
 6686 0040 00000000 		.4byte	.LFB164
 6687 0044 14000000 		.4byte	.LFE164-.LFB164
 6688 0048 00000000 		.4byte	.LFB165
 6689 004c 26000000 		.4byte	.LFE165-.LFB165
 6690 0050 00000000 		.4byte	.LFB166
 6691 0054 18000000 		.4byte	.LFE166-.LFB166
 6692 0058 00000000 		.4byte	.LFB167
 6693 005c 04000000 		.4byte	.LFE167-.LFB167
 6694 0060 00000000 		.4byte	.LFB168
 6695 0064 06000000 		.4byte	.LFE168-.LFB168
ARM GAS  C:\Users\haske\AppData\Local\Temp\ccEGgQv3.s 			page 128


 6696 0068 00000000 		.4byte	.LFB169
 6697 006c 0C000000 		.4byte	.LFE169-.LFB169
 6698 0070 00000000 		.4byte	0
 6699 0074 00000000 		.4byte	0
 6700              		.section	.debug_ranges,"",%progbits
 6701              	.Ldebug_ranges0:
 6702 0000 00000000 		.4byte	.LFB173
 6703 0004 6C000000 		.4byte	.LFE173
 6704 0008 00000000 		.4byte	.LFB172
 6705 000c 20000000 		.4byte	.LFE172
 6706 0010 00000000 		.4byte	.LFB171
 6707 0014 4C000000 		.4byte	.LFE171
 6708 0018 00000000 		.4byte	.LFB170
 6709 001c 38020000 		.4byte	.LFE170
 6710 0020 00000000 		.4byte	.LFB162
 6711 0024 18000000 		.4byte	.LFE162
 6712 0028 00000000 		.4byte	.LFB163
 6713 002c 22000000 		.4byte	.LFE163
 6714 0030 00000000 		.4byte	.LFB164
 6715 0034 14000000 		.4byte	.LFE164
 6716 0038 00000000 		.4byte	.LFB165
 6717 003c 26000000 		.4byte	.LFE165
 6718 0040 00000000 		.4byte	.LFB166
 6719 0044 18000000 		.4byte	.LFE166
 6720 0048 00000000 		.4byte	.LFB167
 6721 004c 04000000 		.4byte	.LFE167
 6722 0050 00000000 		.4byte	.LFB168
 6723 0054 06000000 		.4byte	.LFE168
 6724 0058 00000000 		.4byte	.LFB169
 6725 005c 0C000000 		.4byte	.LFE169
 6726 0060 00000000 		.4byte	0
 6727 0064 00000000 		.4byte	0
 6728              		.section	.debug_line,"",%progbits
 6729              	.Ldebug_line0:
 6730 0000 7C050000 		.section	.debug_str,"MS",%progbits,1
 6730      02002B04 
 6730      00000201 
 6730      FB0E0D00 
 6730      01010101 
 6731              	.LASF432:
 6732 0000 6C765F6F 		.ascii	"lv_obj_add_event_cb\000"
 6732      626A5F61 
 6732      64645F65 
 6732      76656E74 
 6732      5F636200 
 6733              	.LASF182:
 6734 0014 70726F70 		.ascii	"prop_cnt\000"
 6734      5F636E74 
 6734      00
 6735              	.LASF15:
 6736 001d 696E7438 		.ascii	"int8_t\000"
 6736      5F7400
 6737              	.LASF382:
 6738 0024 6C765F62 		.ascii	"lv_btnmatrix_t\000"
 6738      746E6D61 
 6738      74726978 
 6738      5F7400
ARM GAS  C:\Users\haske\AppData\Local\Temp\ccEGgQv3.s 			page 129


 6739              	.LASF153:
 6740 0033 4C565F53 		.ascii	"LV_STYLE_OPA\000"
 6740      54594C45 
 6740      5F4F5041 
 6740      00
 6741              	.LASF199:
 6742 0040 6C765F6C 		.ascii	"lv_ll_node_t\000"
 6742      6C5F6E6F 
 6742      64655F74 
 6742      00
 6743              	.LASF49:
 6744 004d 6164765F 		.ascii	"adv_w\000"
 6744      7700
 6745              	.LASF70:
 6746 0053 73697A65 		.ascii	"sizetype\000"
 6746      74797065 
 6746      00
 6747              	.LASF315:
 6748 005c 4C565F45 		.ascii	"LV_EVENT_DRAW_MAIN_BEGIN\000"
 6748      56454E54 
 6748      5F445241 
 6748      575F4D41 
 6748      494E5F42 
 6749              	.LASF137:
 6750 0075 4C565F53 		.ascii	"LV_STYLE_LINE_DASH_GAP\000"
 6750      54594C45 
 6750      5F4C494E 
 6750      455F4441 
 6750      53485F47 
 6751              	.LASF202:
 6752 008c 7461696C 		.ascii	"tail\000"
 6752      00
 6753              	.LASF428:
 6754 0091 6C765F6D 		.ascii	"lv_mem_free\000"
 6754      656D5F66 
 6754      72656500 
 6755              	.LASF144:
 6756 009d 4C565F53 		.ascii	"LV_STYLE_ARC_OPA\000"
 6756      54594C45 
 6756      5F415243 
 6756      5F4F5041 
 6756      00
 6757              	.LASF19:
 6758 00ae 696E7433 		.ascii	"int32_t\000"
 6758      325F7400 
 6759              	.LASF268:
 6760 00b6 6C765F73 		.ascii	"lv_scrollbar_mode_t\000"
 6760      63726F6C 
 6760      6C626172 
 6760      5F6D6F64 
 6760      655F7400 
 6761              	.LASF181:
 6762 00ca 6861735F 		.ascii	"has_group\000"
 6762      67726F75 
 6762      7000
 6763              	.LASF324:
 6764 00d4 4C565F45 		.ascii	"LV_EVENT_INSERT\000"
ARM GAS  C:\Users\haske\AppData\Local\Temp\ccEGgQv3.s 			page 130


 6764      56454E54 
 6764      5F494E53 
 6764      45525400 
 6765              	.LASF395:
 6766 00e4 6C765F6B 		.ascii	"lv_keyboard_t\000"
 6766      6579626F 
 6766      6172645F 
 6766      7400
 6767              	.LASF23:
 6768 00f2 6C765F70 		.ascii	"lv_point_t\000"
 6768      6F696E74 
 6768      5F7400
 6769              	.LASF383:
 6770 00fd 4C565F4B 		.ascii	"LV_KEYBOARD_MODE_TEXT_LOWER\000"
 6770      4559424F 
 6770      4152445F 
 6770      4D4F4445 
 6770      5F544558 
 6771              	.LASF57:
 6772 0119 6C696E65 		.ascii	"line_height\000"
 6772      5F686569 
 6772      67687400 
 6773              	.LASF426:
 6774 0125 6C765F6D 		.ascii	"lv_memcpy\000"
 6774      656D6370 
 6774      7900
 6775              	.LASF188:
 6776 012f 73706563 		.ascii	"spec_attr\000"
 6776      5F617474 
 6776      7200
 6777              	.LASF355:
 6778 0139 7363726F 		.ascii	"scroll_snap_x\000"
 6778      6C6C5F73 
 6778      6E61705F 
 6778      7800
 6779              	.LASF343:
 6780 0147 6C765F65 		.ascii	"lv_event_t\000"
 6780      76656E74 
 6780      5F7400
 6781              	.LASF329:
 6782 0152 4C565F45 		.ascii	"LV_EVENT_CHILD_CHANGED\000"
 6782      56454E54 
 6782      5F434849 
 6782      4C445F43 
 6782      48414E47 
 6783              	.LASF192:
 6784 0169 73746174 		.ascii	"state\000"
 6784      6500
 6785              	.LASF88:
 6786 016f 4C565F53 		.ascii	"LV_STYLE_HEIGHT\000"
 6786      54594C45 
 6786      5F484549 
 6786      47485400 
 6787              	.LASF272:
 6788 017f 69735F6C 		.ascii	"is_local\000"
 6788      6F63616C 
 6788      00
ARM GAS  C:\Users\haske\AppData\Local\Temp\ccEGgQv3.s 			page 131


 6789              	.LASF67:
 6790 0188 4C565F52 		.ascii	"LV_RES_INV\000"
 6790      45535F49 
 6790      4E5600
 6791              	.LASF45:
 6792 0193 4C565F41 		.ascii	"LV_ALIGN_OUT_RIGHT_MID\000"
 6792      4C49474E 
 6792      5F4F5554 
 6792      5F524947 
 6792      48545F4D 
 6793              	.LASF277:
 6794 01aa 636F6E73 		.ascii	"constructor_cb\000"
 6794      74727563 
 6794      746F725F 
 6794      636200
 6795              	.LASF352:
 6796 01b9 6578745F 		.ascii	"ext_click_pad\000"
 6796      636C6963 
 6796      6B5F7061 
 6796      6400
 6797              	.LASF169:
 6798 01c7 5F4C565F 		.ascii	"_LV_STYLE_LAST_BUILT_IN_PROP\000"
 6798      5354594C 
 6798      455F4C41 
 6798      53545F42 
 6798      55494C54 
 6799              	.LASF307:
 6800 01e4 4C565F45 		.ascii	"LV_EVENT_GESTURE\000"
 6800      56454E54 
 6800      5F474553 
 6800      54555245 
 6800      00
 6801              	.LASF300:
 6802 01f5 4C565F45 		.ascii	"LV_EVENT_LONG_PRESSED\000"
 6802      56454E54 
 6802      5F4C4F4E 
 6802      475F5052 
 6802      45535345 
 6803              	.LASF119:
 6804 020b 4C565F53 		.ascii	"LV_STYLE_BORDER_WIDTH\000"
 6804      54594C45 
 6804      5F424F52 
 6804      4445525F 
 6804      57494454 
 6805              	.LASF330:
 6806 0221 4C565F45 		.ascii	"LV_EVENT_CHILD_CREATED\000"
 6806      56454E54 
 6806      5F434849 
 6806      4C445F43 
 6806      52454154 
 6807              	.LASF414:
 6808 0238 64656661 		.ascii	"default_kb_map_uc\000"
 6808      756C745F 
 6808      6B625F6D 
 6808      61705F75 
 6808      6300
 6809              	.LASF101:
ARM GAS  C:\Users\haske\AppData\Local\Temp\ccEGgQv3.s 			page 132


 6810 024a 4C565F53 		.ascii	"LV_STYLE_PAD_COLUMN\000"
 6810      54594C45 
 6810      5F504144 
 6810      5F434F4C 
 6810      554D4E00 
 6811              	.LASF232:
 6812 025e 4C565F50 		.ascii	"LV_PART_SELECTED\000"
 6812      4152545F 
 6812      53454C45 
 6812      43544544 
 6812      00
 6813              	.LASF111:
 6814 026f 4C565F53 		.ascii	"LV_STYLE_BG_DITHER_MODE\000"
 6814      54594C45 
 6814      5F42475F 
 6814      44495448 
 6814      45525F4D 
 6815              	.LASF1:
 6816 0287 5F5F7569 		.ascii	"__uint8_t\000"
 6816      6E74385F 
 6816      7400
 6817              	.LASF198:
 6818 0291 775F6C61 		.ascii	"w_layout\000"
 6818      796F7574 
 6818      00
 6819              	.LASF95:
 6820 029a 4C565F53 		.ascii	"LV_STYLE_RADIUS\000"
 6820      54594C45 
 6820      5F524144 
 6820      49555300 
 6821              	.LASF429:
 6822 02aa 6C765F62 		.ascii	"lv_btnmatrix_set_map\000"
 6822      746E6D61 
 6822      74726978 
 6822      5F736574 
 6822      5F6D6170 
 6823              	.LASF376:
 6824 02bf 62757474 		.ascii	"button_areas\000"
 6824      6F6E5F61 
 6824      72656173 
 6824      00
 6825              	.LASF194:
 6826 02cc 7363725F 		.ascii	"scr_layout_inv\000"
 6826      6C61796F 
 6826      75745F69 
 6826      6E7600
 6827              	.LASF87:
 6828 02db 4C565F53 		.ascii	"LV_STYLE_MAX_WIDTH\000"
 6828      54594C45 
 6828      5F4D4158 
 6828      5F574944 
 6828      544800
 6829              	.LASF114:
 6830 02ee 4C565F53 		.ascii	"LV_STYLE_BG_IMG_RECOLOR\000"
 6830      54594C45 
 6830      5F42475F 
 6830      494D475F 
ARM GAS  C:\Users\haske\AppData\Local\Temp\ccEGgQv3.s 			page 133


 6830      5245434F 
 6831              	.LASF131:
 6832 0306 4C565F53 		.ascii	"LV_STYLE_SHADOW_OPA\000"
 6832      54594C45 
 6832      5F534841 
 6832      444F575F 
 6832      4F504100 
 6833              	.LASF434:
 6834 031a 6C765F65 		.ascii	"lv_event_send\000"
 6834      76656E74 
 6834      5F73656E 
 6834      6400
 6835              	.LASF162:
 6836 0328 4C565F53 		.ascii	"LV_STYLE_TRANSFORM_HEIGHT\000"
 6836      54594C45 
 6836      5F545241 
 6836      4E53464F 
 6836      524D5F48 
 6837              	.LASF242:
 6838 0342 4C565F4F 		.ascii	"LV_OBJ_FLAG_SCROLLABLE\000"
 6838      424A5F46 
 6838      4C41475F 
 6838      5343524F 
 6838      4C4C4142 
 6839              	.LASF99:
 6840 0359 4C565F53 		.ascii	"LV_STYLE_PAD_RIGHT\000"
 6840      54594C45 
 6840      5F504144 
 6840      5F524947 
 6840      485400
 6841              	.LASF295:
 6842 036c 4C565F45 		.ascii	"LV_EVENT_ALL\000"
 6842      56454E54 
 6842      5F414C4C 
 6842      00
 6843              	.LASF9:
 6844 0379 6C6F6E67 		.ascii	"long int\000"
 6844      20696E74 
 6844      00
 6845              	.LASF159:
 6846 0382 4C565F53 		.ascii	"LV_STYLE_TRANSITION\000"
 6846      54594C45 
 6846      5F545241 
 6846      4E534954 
 6846      494F4E00 
 6847              	.LASF357:
 6848 0396 7363726F 		.ascii	"scroll_dir\000"
 6848      6C6C5F64 
 6848      697200
 6849              	.LASF283:
 6850 03a1 67726F75 		.ascii	"group_def\000"
 6850      705F6465 
 6850      6600
 6851              	.LASF115:
 6852 03ab 4C565F53 		.ascii	"LV_STYLE_BG_IMG_RECOLOR_OPA\000"
 6852      54594C45 
 6852      5F42475F 
ARM GAS  C:\Users\haske\AppData\Local\Temp\ccEGgQv3.s 			page 134


 6852      494D475F 
 6852      5245434F 
 6853              	.LASF218:
 6854 03c7 4C565F53 		.ascii	"LV_STATE_HOVERED\000"
 6854      54415445 
 6854      5F484F56 
 6854      45524544 
 6854      00
 6855              	.LASF216:
 6856 03d8 4C565F53 		.ascii	"LV_STATE_FOCUS_KEY\000"
 6856      54415445 
 6856      5F464F43 
 6856      55535F4B 
 6856      455900
 6857              	.LASF390:
 6858 03eb 4C565F4B 		.ascii	"LV_KEYBOARD_MODE_USER_4\000"
 6858      4559424F 
 6858      4152445F 
 6858      4D4F4445 
 6858      5F555345 
 6859              	.LASF227:
 6860 0403 6C765F73 		.ascii	"lv_state_t\000"
 6860      74617465 
 6860      5F7400
 6861              	.LASF255:
 6862 040e 4C565F4F 		.ascii	"LV_OBJ_FLAG_ADV_HITTEST\000"
 6862      424A5F46 
 6862      4C41475F 
 6862      4144565F 
 6862      48495454 
 6863              	.LASF78:
 6864 0426 4C565F42 		.ascii	"LV_BASE_DIR_RTL\000"
 6864      4153455F 
 6864      4449525F 
 6864      52544C00 
 6865              	.LASF250:
 6866 0436 4C565F4F 		.ascii	"LV_OBJ_FLAG_SCROLL_WITH_ARROW\000"
 6866      424A5F46 
 6866      4C41475F 
 6866      5343524F 
 6866      4C4C5F57 
 6867              	.LASF208:
 6868 0454 65646765 		.ascii	"edge_cb\000"
 6868      5F636200 
 6869              	.LASF116:
 6870 045c 4C565F53 		.ascii	"LV_STYLE_BG_IMG_TILED\000"
 6870      54594C45 
 6870      5F42475F 
 6870      494D475F 
 6870      54494C45 
 6871              	.LASF370:
 6872 0472 4C565F42 		.ascii	"LV_BTNMATRIX_CTRL_RECOLOR\000"
 6872      544E4D41 
 6872      54524958 
 6872      5F435452 
 6872      4C5F5245 
 6873              	.LASF201:
ARM GAS  C:\Users\haske\AppData\Local\Temp\ccEGgQv3.s 			page 135


 6874 048c 68656164 		.ascii	"head\000"
 6874      00
 6875              	.LASF118:
 6876 0491 4C565F53 		.ascii	"LV_STYLE_BORDER_OPA\000"
 6876      54594C45 
 6876      5F424F52 
 6876      4445525F 
 6876      4F504100 
 6877              	.LASF226:
 6878 04a5 4C565F53 		.ascii	"LV_STATE_ANY\000"
 6878      54415445 
 6878      5F414E59 
 6878      00
 6879              	.LASF322:
 6880 04b2 4C565F45 		.ascii	"LV_EVENT_DRAW_PART_END\000"
 6880      56454E54 
 6880      5F445241 
 6880      575F5041 
 6880      52545F45 
 6881              	.LASF209:
 6882 04c9 66726F7A 		.ascii	"frozen\000"
 6882      656E00
 6883              	.LASF392:
 6884 04d0 62746E6D 		.ascii	"btnm\000"
 6884      00
 6885              	.LASF130:
 6886 04d5 4C565F53 		.ascii	"LV_STYLE_SHADOW_COLOR\000"
 6886      54594C45 
 6886      5F534841 
 6886      444F575F 
 6886      434F4C4F 
 6887              	.LASF196:
 6888 04eb 7374796C 		.ascii	"style_cnt\000"
 6888      655F636E 
 6888      7400
 6889              	.LASF193:
 6890 04f5 6C61796F 		.ascii	"layout_inv\000"
 6890      75745F69 
 6890      6E7600
 6891              	.LASF2:
 6892 0500 7369676E 		.ascii	"signed char\000"
 6892      65642063 
 6892      68617200 
 6893              	.LASF16:
 6894 050c 75696E74 		.ascii	"uint8_t\000"
 6894      385F7400 
 6895              	.LASF453:
 6896 0514 2E2E5C2E 		.ascii	"..\\..\\..\\arduinoLCD\\test\\Pain Drain\\libraries"
 6896      2E5C2E2E 
 6896      5C617264 
 6896      75696E6F 
 6896      4C43445C 
 6897 0541 5C6C7667 		.ascii	"\\lvgl\\src\\extra\\widgets\\keyboard\\lv_keyboard."
 6897      6C5C7372 
 6897      635C6578 
 6897      7472615C 
 6897      77696467 
ARM GAS  C:\Users\haske\AppData\Local\Temp\ccEGgQv3.s 			page 136


 6898 056e 6300     		.ascii	"c\000"
 6899              	.LASF259:
 6900 0570 4C565F4F 		.ascii	"LV_OBJ_FLAG_LAYOUT_1\000"
 6900      424A5F46 
 6900      4C41475F 
 6900      4C41594F 
 6900      55545F31 
 6901              	.LASF260:
 6902 0585 4C565F4F 		.ascii	"LV_OBJ_FLAG_LAYOUT_2\000"
 6902      424A5F46 
 6902      4C41475F 
 6902      4C41594F 
 6902      55545F32 
 6903              	.LASF107:
 6904 059a 4C565F53 		.ascii	"LV_STYLE_BG_GRAD_DIR\000"
 6904      54594C45 
 6904      5F42475F 
 6904      47524144 
 6904      5F444952 
 6905              	.LASF56:
 6906 05af 6765745F 		.ascii	"get_glyph_bitmap\000"
 6906      676C7970 
 6906      685F6269 
 6906      746D6170 
 6906      00
 6907              	.LASF72:
 6908 05c0 626C7565 		.ascii	"blue\000"
 6908      00
 6909              	.LASF248:
 6910 05c5 4C565F4F 		.ascii	"LV_OBJ_FLAG_SCROLL_CHAIN\000"
 6910      424A5F46 
 6910      4C41475F 
 6910      5343524F 
 6910      4C4C5F43 
 6911              	.LASF261:
 6912 05de 4C565F4F 		.ascii	"LV_OBJ_FLAG_WIDGET_1\000"
 6912      424A5F46 
 6912      4C41475F 
 6912      57494447 
 6912      45545F31 
 6913              	.LASF262:
 6914 05f3 4C565F4F 		.ascii	"LV_OBJ_FLAG_WIDGET_2\000"
 6914      424A5F46 
 6914      4C41475F 
 6914      57494447 
 6914      45545F32 
 6915              	.LASF93:
 6916 0608 4C565F53 		.ascii	"LV_STYLE_ALIGN\000"
 6916      54594C45 
 6916      5F414C49 
 6916      474E00
 6917              	.LASF3:
 6918 0617 756E7369 		.ascii	"unsigned char\000"
 6918      676E6564 
 6918      20636861 
 6918      7200
 6919              	.LASF339:
ARM GAS  C:\Users\haske\AppData\Local\Temp\ccEGgQv3.s 			page 137


 6920 0625 4C565F45 		.ascii	"LV_EVENT_GET_SELF_SIZE\000"
 6920      56454E54 
 6920      5F474554 
 6920      5F53454C 
 6920      465F5349 
 6921              	.LASF316:
 6922 063c 4C565F45 		.ascii	"LV_EVENT_DRAW_MAIN\000"
 6922      56454E54 
 6922      5F445241 
 6922      575F4D41 
 6922      494E00
 6923              	.LASF167:
 6924 064f 4C565F53 		.ascii	"LV_STYLE_TRANSFORM_PIVOT_X\000"
 6924      54594C45 
 6924      5F545241 
 6924      4E53464F 
 6924      524D5F50 
 6925              	.LASF168:
 6926 066a 4C565F53 		.ascii	"LV_STYLE_TRANSFORM_PIVOT_Y\000"
 6926      54594C45 
 6926      5F545241 
 6926      4E53464F 
 6926      524D5F50 
 6927              	.LASF346:
 6928 0685 6C765F67 		.ascii	"lv_group_t\000"
 6928      726F7570 
 6928      5F7400
 6929              	.LASF360:
 6930 0690 5F6C765F 		.ascii	"_lv_obj_spec_attr_t\000"
 6930      6F626A5F 
 6930      73706563 
 6930      5F617474 
 6930      725F7400 
 6931              	.LASF133:
 6932 06a4 4C565F53 		.ascii	"LV_STYLE_IMG_RECOLOR\000"
 6932      54594C45 
 6932      5F494D47 
 6932      5F524543 
 6932      4F4C4F52 
 6933              	.LASF436:
 6934 06b9 6C765F74 		.ascii	"lv_textarea_get_text\000"
 6934      65787461 
 6934      7265615F 
 6934      6765745F 
 6934      74657874 
 6935              	.LASF81:
 6936 06ce 4C565F42 		.ascii	"LV_BASE_DIR_WEAK\000"
 6936      4153455F 
 6936      4449525F 
 6936      5745414B 
 6936      00
 6937              	.LASF141:
 6938 06df 4C565F53 		.ascii	"LV_STYLE_ARC_WIDTH\000"
 6938      54594C45 
 6938      5F415243 
 6938      5F574944 
 6938      544800
ARM GAS  C:\Users\haske\AppData\Local\Temp\ccEGgQv3.s 			page 138


 6939              	.LASF52:
 6940 06f2 6F66735F 		.ascii	"ofs_x\000"
 6940      7800
 6941              	.LASF53:
 6942 06f8 6F66735F 		.ascii	"ofs_y\000"
 6942      7900
 6943              	.LASF197:
 6944 06fe 685F6C61 		.ascii	"h_layout\000"
 6944      796F7574 
 6944      00
 6945              	.LASF65:
 6946 0707 5F426F6F 		.ascii	"_Bool\000"
 6946      6C00
 6947              	.LASF354:
 6948 070d 7363726F 		.ascii	"scrollbar_mode\000"
 6948      6C6C6261 
 6948      725F6D6F 
 6948      646500
 6949              	.LASF163:
 6950 071c 4C565F53 		.ascii	"LV_STYLE_TRANSLATE_X\000"
 6950      54594C45 
 6950      5F545241 
 6950      4E534C41 
 6950      54455F58 
 6951              	.LASF164:
 6952 0731 4C565F53 		.ascii	"LV_STYLE_TRANSLATE_Y\000"
 6952      54594C45 
 6952      5F545241 
 6952      4E534C41 
 6952      54455F59 
 6953              	.LASF452:
 6954 0746 474E5520 		.ascii	"GNU C11 5.4.1 20160609 (release) [ARM/embedded-5-br"
 6954      43313120 
 6954      352E342E 
 6954      31203230 
 6954      31363036 
 6955 0779 616E6368 		.ascii	"anch revision 237715] -mcpu=cortex-m0plus -mthumb -"
 6955      20726576 
 6955      6973696F 
 6955      6E203233 
 6955      37373135 
 6956 07ac 67202D4F 		.ascii	"g -Og -ffunction-sections -ffat-lto-objects\000"
 6956      67202D66 
 6956      66756E63 
 6956      74696F6E 
 6956      2D736563 
 6957              	.LASF292:
 6958 07d8 73746F70 		.ascii	"stop_processing\000"
 6958      5F70726F 
 6958      63657373 
 6958      696E6700 
 6959              	.LASF175:
 6960 07e8 76616C75 		.ascii	"value\000"
 6960      6500
 6961              	.LASF191:
 6962 07ee 666C6167 		.ascii	"flags\000"
 6962      7300
ARM GAS  C:\Users\haske\AppData\Local\Temp\ccEGgQv3.s 			page 139


 6963              	.LASF291:
 6964 07f4 64656C65 		.ascii	"deleted\000"
 6964      74656400 
 6965              	.LASF404:
 6966 07fc 6C765F6B 		.ascii	"lv_keyboard_set_textarea\000"
 6966      6579626F 
 6966      6172645F 
 6966      7365745F 
 6966      74657874 
 6967              	.LASF71:
 6968 0815 63686172 		.ascii	"char\000"
 6968      00
 6969              	.LASF401:
 6970 081a 62746E5F 		.ascii	"btn_id\000"
 6970      696400
 6971              	.LASF314:
 6972 0821 4C565F45 		.ascii	"LV_EVENT_REFR_EXT_DRAW_SIZE\000"
 6972      56454E54 
 6972      5F524546 
 6972      525F4558 
 6972      545F4452 
 6973              	.LASF60:
 6974 083d 756E6465 		.ascii	"underline_position\000"
 6974      726C696E 
 6974      655F706F 
 6974      73697469 
 6974      6F6E00
 6975              	.LASF313:
 6976 0850 4C565F45 		.ascii	"LV_EVENT_COVER_CHECK\000"
 6976      56454E54 
 6976      5F434F56 
 6976      45525F43 
 6976      4845434B 
 6977              	.LASF102:
 6978 0865 4C565F53 		.ascii	"LV_STYLE_BASE_DIR\000"
 6978      54594C45 
 6978      5F424153 
 6978      455F4449 
 6978      5200
 6979              	.LASF431:
 6980 0877 6C765F6F 		.ascii	"lv_obj_align\000"
 6980      626A5F61 
 6980      6C69676E 
 6980      00
 6981              	.LASF124:
 6982 0884 4C565F53 		.ascii	"LV_STYLE_OUTLINE_OPA\000"
 6982      54594C45 
 6982      5F4F5554 
 6982      4C494E45 
 6982      5F4F5041 
 6983              	.LASF6:
 6984 0899 5F5F7569 		.ascii	"__uint16_t\000"
 6984      6E743136 
 6984      5F7400
 6985              	.LASF220:
 6986 08a4 4C565F53 		.ascii	"LV_STATE_SCROLLED\000"
 6986      54415445 
ARM GAS  C:\Users\haske\AppData\Local\Temp\ccEGgQv3.s 			page 140


 6986      5F534352 
 6986      4F4C4C45 
 6986      4400
 6987              	.LASF312:
 6988 08b6 4C565F45 		.ascii	"LV_EVENT_HIT_TEST\000"
 6988      56454E54 
 6988      5F484954 
 6988      5F544553 
 6988      5400
 6989              	.LASF42:
 6990 08c8 4C565F41 		.ascii	"LV_ALIGN_OUT_LEFT_MID\000"
 6990      4C49474E 
 6990      5F4F5554 
 6990      5F4C4546 
 6990      545F4D49 
 6991              	.LASF28:
 6992 08de 4C565F41 		.ascii	"LV_ALIGN_TOP_RIGHT\000"
 6992      4C49474E 
 6992      5F544F50 
 6992      5F524947 
 6992      485400
 6993              	.LASF104:
 6994 08f1 4C565F53 		.ascii	"LV_STYLE_BG_COLOR\000"
 6994      54594C45 
 6994      5F42475F 
 6994      434F4C4F 
 6994      5200
 6995              	.LASF134:
 6996 0903 4C565F53 		.ascii	"LV_STYLE_IMG_RECOLOR_OPA\000"
 6996      54594C45 
 6996      5F494D47 
 6996      5F524543 
 6996      4F4C4F52 
 6997              	.LASF160:
 6998 091c 4C565F53 		.ascii	"LV_STYLE_BLEND_MODE\000"
 6998      54594C45 
 6998      5F424C45 
 6998      4E445F4D 
 6998      4F444500 
 6999              	.LASF47:
 7000 0930 6C765F64 		.ascii	"lv_dir_t\000"
 7000      69725F74 
 7000      00
 7001              	.LASF334:
 7002 0939 4C565F45 		.ascii	"LV_EVENT_SCREEN_LOADED\000"
 7002      56454E54 
 7002      5F534352 
 7002      45454E5F 
 7002      4C4F4144 
 7003              	.LASF174:
 7004 0950 70726F70 		.ascii	"prop\000"
 7004      00
 7005              	.LASF399:
 7006 0955 6C765F6B 		.ascii	"lv_keyboard_update_map\000"
 7006      6579626F 
 7006      6172645F 
 7006      75706461 
ARM GAS  C:\Users\haske\AppData\Local\Temp\ccEGgQv3.s 			page 141


 7006      74655F6D 
 7007              	.LASF237:
 7008 096c 4C565F50 		.ascii	"LV_PART_ANY\000"
 7008      4152545F 
 7008      414E5900 
 7009              	.LASF179:
 7010 0978 636F6E73 		.ascii	"const_props\000"
 7010      745F7072 
 7010      6F707300 
 7011              	.LASF449:
 7012 0984 6C765F6F 		.ascii	"lv_obj_class_init_obj\000"
 7012      626A5F63 
 7012      6C617373 
 7012      5F696E69 
 7012      745F6F62 
 7013              	.LASF274:
 7014 099a 5F6C765F 		.ascii	"_lv_obj_style_t\000"
 7014      6F626A5F 
 7014      7374796C 
 7014      655F7400 
 7015              	.LASF217:
 7016 09aa 4C565F53 		.ascii	"LV_STATE_EDITED\000"
 7016      54415445 
 7016      5F454449 
 7016      54454400 
 7017              	.LASF246:
 7018 09ba 4C565F4F 		.ascii	"LV_OBJ_FLAG_SCROLL_CHAIN_HOR\000"
 7018      424A5F46 
 7018      4C41475F 
 7018      5343524F 
 7018      4C4C5F43 
 7019              	.LASF350:
 7020 09d7 6576656E 		.ascii	"event_dsc\000"
 7020      745F6473 
 7020      6300
 7021              	.LASF443:
 7022 09e1 73747263 		.ascii	"strcmp\000"
 7022      6D7000
 7023              	.LASF136:
 7024 09e8 4C565F53 		.ascii	"LV_STYLE_LINE_DASH_WIDTH\000"
 7024      54594C45 
 7024      5F4C494E 
 7024      455F4441 
 7024      53485F57 
 7025              	.LASF32:
 7026 0a01 4C565F41 		.ascii	"LV_ALIGN_LEFT_MID\000"
 7026      4C49474E 
 7026      5F4C4546 
 7026      545F4D49 
 7026      4400
 7027              	.LASF161:
 7028 0a13 4C565F53 		.ascii	"LV_STYLE_TRANSFORM_WIDTH\000"
 7028      54594C45 
 7028      5F545241 
 7028      4E53464F 
 7028      524D5F57 
 7029              	.LASF349:
ARM GAS  C:\Users\haske\AppData\Local\Temp\ccEGgQv3.s 			page 142


 7030 0a2c 67726F75 		.ascii	"group_p\000"
 7030      705F7000 
 7031              	.LASF173:
 7032 0a34 6C765F73 		.ascii	"lv_style_prop_t\000"
 7032      74796C65 
 7032      5F70726F 
 7032      705F7400 
 7033              	.LASF379:
 7034 0a44 726F775F 		.ascii	"row_cnt\000"
 7034      636E7400 
 7035              	.LASF351:
 7036 0a4c 7363726F 		.ascii	"scroll\000"
 7036      6C6C00
 7037              	.LASF62:
 7038 0a53 66616C6C 		.ascii	"fallback\000"
 7038      6261636B 
 7038      00
 7039              	.LASF178:
 7040 0a5c 76616C75 		.ascii	"values_and_props\000"
 7040      65735F61 
 7040      6E645F70 
 7040      726F7073 
 7040      00
 7041              	.LASF359:
 7042 0a6d 6C617965 		.ascii	"layer_type\000"
 7042      725F7479 
 7042      706500
 7043              	.LASF158:
 7044 0a78 4C565F53 		.ascii	"LV_STYLE_ANIM_SPEED\000"
 7044      54594C45 
 7044      5F414E49 
 7044      4D5F5350 
 7044      45454400 
 7045              	.LASF165:
 7046 0a8c 4C565F53 		.ascii	"LV_STYLE_TRANSFORM_ZOOM\000"
 7046      54594C45 
 7046      5F545241 
 7046      4E53464F 
 7046      524D5F5A 
 7047              	.LASF419:
 7048 0aa4 64656661 		.ascii	"default_kb_ctrl_num_map\000"
 7048      756C745F 
 7048      6B625F63 
 7048      74726C5F 
 7048      6E756D5F 
 7049              	.LASF24:
 7050 0abc 6C765F61 		.ascii	"lv_area_t\000"
 7050      7265615F 
 7050      7400
 7051              	.LASF122:
 7052 0ac6 4C565F53 		.ascii	"LV_STYLE_OUTLINE_WIDTH\000"
 7052      54594C45 
 7052      5F4F5554 
 7052      4C494E45 
 7052      5F574944 
 7053              	.LASF353:
 7054 0add 6578745F 		.ascii	"ext_draw_size\000"
ARM GAS  C:\Users\haske\AppData\Local\Temp\ccEGgQv3.s 			page 143


 7054      64726177 
 7054      5F73697A 
 7054      6500
 7055              	.LASF345:
 7056 0aeb 6C765F67 		.ascii	"lv_group_edge_cb_t\000"
 7056      726F7570 
 7056      5F656467 
 7056      655F6362 
 7056      5F7400
 7057              	.LASF263:
 7058 0afe 4C565F4F 		.ascii	"LV_OBJ_FLAG_USER_1\000"
 7058      424A5F46 
 7058      4C41475F 
 7058      55534552 
 7058      5F3100
 7059              	.LASF264:
 7060 0b11 4C565F4F 		.ascii	"LV_OBJ_FLAG_USER_2\000"
 7060      424A5F46 
 7060      4C41475F 
 7060      55534552 
 7060      5F3200
 7061              	.LASF265:
 7062 0b24 4C565F4F 		.ascii	"LV_OBJ_FLAG_USER_3\000"
 7062      424A5F46 
 7062      4C41475F 
 7062      55534552 
 7062      5F3300
 7063              	.LASF266:
 7064 0b37 4C565F4F 		.ascii	"LV_OBJ_FLAG_USER_4\000"
 7064      424A5F46 
 7064      4C41475F 
 7064      55534552 
 7064      5F3400
 7065              	.LASF367:
 7066 0b4a 4C565F42 		.ascii	"LV_BTNMATRIX_CTRL_CHECKED\000"
 7066      544E4D41 
 7066      54524958 
 7066      5F435452 
 7066      4C5F4348 
 7067              	.LASF302:
 7068 0b64 4C565F45 		.ascii	"LV_EVENT_CLICKED\000"
 7068      56454E54 
 7068      5F434C49 
 7068      434B4544 
 7068      00
 7069              	.LASF84:
 7070 0b75 4C565F53 		.ascii	"LV_STYLE_PROP_INV\000"
 7070      54594C45 
 7070      5F50524F 
 7070      505F494E 
 7070      5600
 7071              	.LASF150:
 7072 0b87 4C565F53 		.ascii	"LV_STYLE_TEXT_LINE_SPACE\000"
 7072      54594C45 
 7072      5F544558 
 7072      545F4C49 
 7072      4E455F53 
ARM GAS  C:\Users\haske\AppData\Local\Temp\ccEGgQv3.s 			page 144


 7073              	.LASF294:
 7074 0ba0 6C765F6F 		.ascii	"lv_obj_class_t\000"
 7074      626A5F63 
 7074      6C617373 
 7074      5F7400
 7075              	.LASF176:
 7076 0baf 6C765F73 		.ascii	"lv_style_const_prop_t\000"
 7076      74796C65 
 7076      5F636F6E 
 7076      73745F70 
 7076      726F705F 
 7077              	.LASF317:
 7078 0bc5 4C565F45 		.ascii	"LV_EVENT_DRAW_MAIN_END\000"
 7078      56454E54 
 7078      5F445241 
 7078      575F4D41 
 7078      494E5F45 
 7079              	.LASF362:
 7080 0bdc 5F4C565F 		.ascii	"_LV_BTNMATRIX_WIDTH\000"
 7080      42544E4D 
 7080      41545249 
 7080      585F5749 
 7080      44544800 
 7081              	.LASF187:
 7082 0bf0 70617265 		.ascii	"parent\000"
 7082      6E7400
 7083              	.LASF378:
 7084 0bf7 62746E5F 		.ascii	"btn_cnt\000"
 7084      636E7400 
 7085              	.LASF273:
 7086 0bff 69735F74 		.ascii	"is_trans\000"
 7086      72616E73 
 7086      00
 7087              	.LASF369:
 7088 0c08 4C565F42 		.ascii	"LV_BTNMATRIX_CTRL_POPOVER\000"
 7088      544E4D41 
 7088      54524958 
 7088      5F435452 
 7088      4C5F504F 
 7089              	.LASF40:
 7090 0c22 4C565F41 		.ascii	"LV_ALIGN_OUT_BOTTOM_RIGHT\000"
 7090      4C49474E 
 7090      5F4F5554 
 7090      5F424F54 
 7090      544F4D5F 
 7091              	.LASF157:
 7092 0c3c 4C565F53 		.ascii	"LV_STYLE_ANIM_TIME\000"
 7092      54594C45 
 7092      5F414E49 
 7092      4D5F5449 
 7092      4D4500
 7093              	.LASF97:
 7094 0c4f 4C565F53 		.ascii	"LV_STYLE_PAD_BOTTOM\000"
 7094      54594C45 
 7094      5F504144 
 7094      5F424F54 
 7094      544F4D00 
ARM GAS  C:\Users\haske\AppData\Local\Temp\ccEGgQv3.s 			page 145


 7095              	.LASF280:
 7096 0c63 77696474 		.ascii	"width_def\000"
 7096      685F6465 
 7096      6600
 7097              	.LASF257:
 7098 0c6d 4C565F4F 		.ascii	"LV_OBJ_FLAG_FLOATING\000"
 7098      424A5F46 
 7098      4C41475F 
 7098      464C4F41 
 7098      54494E47 
 7099              	.LASF450:
 7100 0c82 6C765F6F 		.ascii	"lv_obj_clear_state\000"
 7100      626A5F63 
 7100      6C656172 
 7100      5F737461 
 7100      746500
 7101              	.LASF247:
 7102 0c95 4C565F4F 		.ascii	"LV_OBJ_FLAG_SCROLL_CHAIN_VER\000"
 7102      424A5F46 
 7102      4C41475F 
 7102      5343524F 
 7102      4C4C5F43 
 7103              	.LASF105:
 7104 0cb2 4C565F53 		.ascii	"LV_STYLE_BG_OPA\000"
 7104      54594C45 
 7104      5F42475F 
 7104      4F504100 
 7105              	.LASF140:
 7106 0cc2 4C565F53 		.ascii	"LV_STYLE_LINE_OPA\000"
 7106      54594C45 
 7106      5F4C494E 
 7106      455F4F50 
 7106      4100
 7107              	.LASF183:
 7108 0cd4 6C765F73 		.ascii	"lv_style_t\000"
 7108      74796C65 
 7108      5F7400
 7109              	.LASF440:
 7110 0cdf 6C765F65 		.ascii	"lv_event_get_target\000"
 7110      76656E74 
 7110      5F676574 
 7110      5F746172 
 7110      67657400 
 7111              	.LASF108:
 7112 0cf3 4C565F53 		.ascii	"LV_STYLE_BG_MAIN_STOP\000"
 7112      54594C45 
 7112      5F42475F 
 7112      4D41494E 
 7112      5F53544F 
 7113              	.LASF258:
 7114 0d09 4C565F4F 		.ascii	"LV_OBJ_FLAG_OVERFLOW_VISIBLE\000"
 7114      424A5F46 
 7114      4C41475F 
 7114      4F564552 
 7114      464C4F57 
 7115              	.LASF444:
 7116 0d26 6C765F74 		.ascii	"lv_textarea_get_one_line\000"
ARM GAS  C:\Users\haske\AppData\Local\Temp\ccEGgQv3.s 			page 146


 7116      65787461 
 7116      7265615F 
 7116      6765745F 
 7116      6F6E655F 
 7117              	.LASF189:
 7118 0d3f 7374796C 		.ascii	"styles\000"
 7118      657300
 7119              	.LASF348:
 7120 0d46 6368696C 		.ascii	"child_cnt\000"
 7120      645F636E 
 7120      7400
 7121              	.LASF132:
 7122 0d50 4C565F53 		.ascii	"LV_STYLE_IMG_OPA\000"
 7122      54594C45 
 7122      5F494D47 
 7122      5F4F5041 
 7122      00
 7123              	.LASF39:
 7124 0d61 4C565F41 		.ascii	"LV_ALIGN_OUT_BOTTOM_MID\000"
 7124      4C49474E 
 7124      5F4F5554 
 7124      5F424F54 
 7124      544F4D5F 
 7125              	.LASF311:
 7126 0d79 4C565F45 		.ascii	"LV_EVENT_LEAVE\000"
 7126      56454E54 
 7126      5F4C4541 
 7126      564500
 7127              	.LASF11:
 7128 0d88 6C6F6E67 		.ascii	"long unsigned int\000"
 7128      20756E73 
 7128      69676E65 
 7128      6420696E 
 7128      7400
 7129              	.LASF356:
 7130 0d9a 7363726F 		.ascii	"scroll_snap_y\000"
 7130      6C6C5F73 
 7130      6E61705F 
 7130      7900
 7131              	.LASF364:
 7132 0da8 4C565F42 		.ascii	"LV_BTNMATRIX_CTRL_NO_REPEAT\000"
 7132      544E4D41 
 7132      54524958 
 7132      5F435452 
 7132      4C5F4E4F 
 7133              	.LASF244:
 7134 0dc4 4C565F4F 		.ascii	"LV_OBJ_FLAG_SCROLL_MOMENTUM\000"
 7134      424A5F46 
 7134      4C41475F 
 7134      5343524F 
 7134      4C4C5F4D 
 7135              	.LASF147:
 7136 0de0 4C565F53 		.ascii	"LV_STYLE_TEXT_OPA\000"
 7136      54594C45 
 7136      5F544558 
 7136      545F4F50 
 7136      4100
ARM GAS  C:\Users\haske\AppData\Local\Temp\ccEGgQv3.s 			page 147


 7137              	.LASF375:
 7138 0df2 6D61705F 		.ascii	"map_p\000"
 7138      7000
 7139              	.LASF289:
 7140 0df8 70617261 		.ascii	"param\000"
 7140      6D00
 7141              	.LASF286:
 7142 0dfe 74617267 		.ascii	"target\000"
 7142      657400
 7143              	.LASF282:
 7144 0e05 65646974 		.ascii	"editable\000"
 7144      61626C65 
 7144      00
 7145              	.LASF253:
 7146 0e0e 4C565F4F 		.ascii	"LV_OBJ_FLAG_EVENT_BUBBLE\000"
 7146      424A5F46 
 7146      4C41475F 
 7146      4556454E 
 7146      545F4255 
 7147              	.LASF48:
 7148 0e27 7265736F 		.ascii	"resolved_font\000"
 7148      6C766564 
 7148      5F666F6E 
 7148      7400
 7149              	.LASF241:
 7150 0e35 4C565F4F 		.ascii	"LV_OBJ_FLAG_CHECKABLE\000"
 7150      424A5F46 
 7150      4C41475F 
 7150      43484543 
 7150      4B41424C 
 7151              	.LASF205:
 7152 0e4b 6F626A5F 		.ascii	"obj_ll\000"
 7152      6C6C00
 7153              	.LASF139:
 7154 0e52 4C565F53 		.ascii	"LV_STYLE_LINE_COLOR\000"
 7154      54594C45 
 7154      5F4C494E 
 7154      455F434F 
 7154      4C4F5200 
 7155              	.LASF381:
 7156 0e66 6F6E655F 		.ascii	"one_check\000"
 7156      63686563 
 7156      6B00
 7157              	.LASF238:
 7158 0e70 4C565F4F 		.ascii	"LV_OBJ_FLAG_HIDDEN\000"
 7158      424A5F46 
 7158      4C41475F 
 7158      48494444 
 7158      454E00
 7159              	.LASF100:
 7160 0e83 4C565F53 		.ascii	"LV_STYLE_PAD_ROW\000"
 7160      54594C45 
 7160      5F504144 
 7160      5F524F57 
 7160      00
 7161              	.LASF221:
 7162 0e94 4C565F53 		.ascii	"LV_STATE_DISABLED\000"
ARM GAS  C:\Users\haske\AppData\Local\Temp\ccEGgQv3.s 			page 148


 7162      54415445 
 7162      5F444953 
 7162      41424C45 
 7162      4400
 7163              	.LASF325:
 7164 0ea6 4C565F45 		.ascii	"LV_EVENT_REFRESH\000"
 7164      56454E54 
 7164      5F524546 
 7164      52455348 
 7164      00
 7165              	.LASF284:
 7166 0eb7 696E7374 		.ascii	"instance_size\000"
 7166      616E6365 
 7166      5F73697A 
 7166      6500
 7167              	.LASF98:
 7168 0ec5 4C565F53 		.ascii	"LV_STYLE_PAD_LEFT\000"
 7168      54594C45 
 7168      5F504144 
 7168      5F4C4546 
 7168      5400
 7169              	.LASF424:
 7170 0ed7 6C765F6B 		.ascii	"lv_keyboard_class\000"
 7170      6579626F 
 7170      6172645F 
 7170      636C6173 
 7170      7300
 7171              	.LASF331:
 7172 0ee9 4C565F45 		.ascii	"LV_EVENT_CHILD_DELETED\000"
 7172      56454E54 
 7172      5F434849 
 7172      4C445F44 
 7172      454C4554 
 7173              	.LASF231:
 7174 0f00 4C565F50 		.ascii	"LV_PART_KNOB\000"
 7174      4152545F 
 7174      4B4E4F42 
 7174      00
 7175              	.LASF156:
 7176 0f0d 4C565F53 		.ascii	"LV_STYLE_ANIM\000"
 7176      54594C45 
 7176      5F414E49 
 7176      4D00
 7177              	.LASF251:
 7178 0f1b 4C565F4F 		.ascii	"LV_OBJ_FLAG_SNAPPABLE\000"
 7178      424A5F46 
 7178      4C41475F 
 7178      534E4150 
 7178      5041424C 
 7179              	.LASF152:
 7180 0f31 4C565F53 		.ascii	"LV_STYLE_TEXT_ALIGN\000"
 7180      54594C45 
 7180      5F544558 
 7180      545F414C 
 7180      49474E00 
 7181              	.LASF38:
 7182 0f45 4C565F41 		.ascii	"LV_ALIGN_OUT_BOTTOM_LEFT\000"
ARM GAS  C:\Users\haske\AppData\Local\Temp\ccEGgQv3.s 			page 149


 7182      4C49474E 
 7182      5F4F5554 
 7182      5F424F54 
 7182      544F4D5F 
 7183              	.LASF184:
 7184 0f5e 5F6C765F 		.ascii	"_lv_font_t\000"
 7184      666F6E74 
 7184      5F7400
 7185              	.LASF10:
 7186 0f69 5F5F7569 		.ascii	"__uint32_t\000"
 7186      6E743332 
 7186      5F7400
 7187              	.LASF279:
 7188 0f74 6576656E 		.ascii	"event_cb\000"
 7188      745F6362 
 7188      00
 7189              	.LASF342:
 7190 0f7d 6C765F65 		.ascii	"lv_event_code_t\000"
 7190      76656E74 
 7190      5F636F64 
 7190      655F7400 
 7191              	.LASF285:
 7192 0f8d 5F6C765F 		.ascii	"_lv_event_t\000"
 7192      6576656E 
 7192      745F7400 
 7193              	.LASF12:
 7194 0f99 6C6F6E67 		.ascii	"long long int\000"
 7194      206C6F6E 
 7194      6720696E 
 7194      7400
 7195              	.LASF43:
 7196 0fa7 4C565F41 		.ascii	"LV_ALIGN_OUT_LEFT_BOTTOM\000"
 7196      4C49474E 
 7196      5F4F5554 
 7196      5F4C4546 
 7196      545F424F 
 7197              	.LASF451:
 7198 0fc0 6C765F6F 		.ascii	"lv_obj_add_flag\000"
 7198      626A5F61 
 7198      64645F66 
 7198      6C616700 
 7199              	.LASF374:
 7200 0fd0 6C765F62 		.ascii	"lv_btnmatrix_ctrl_t\000"
 7200      746E6D61 
 7200      74726978 
 7200      5F637472 
 7200      6C5F7400 
 7201              	.LASF411:
 7202 0fe4 6C765F62 		.ascii	"lv_btnmatrix_get_popovers\000"
 7202      746E6D61 
 7202      74726978 
 7202      5F676574 
 7202      5F706F70 
 7203              	.LASF372:
 7204 0ffe 4C565F42 		.ascii	"LV_BTNMATRIX_CTRL_CUSTOM_1\000"
 7204      544E4D41 
 7204      54524958 
ARM GAS  C:\Users\haske\AppData\Local\Temp\ccEGgQv3.s 			page 150


 7204      5F435452 
 7204      4C5F4355 
 7205              	.LASF373:
 7206 1019 4C565F42 		.ascii	"LV_BTNMATRIX_CTRL_CUSTOM_2\000"
 7206      544E4D41 
 7206      54524958 
 7206      5F435452 
 7206      4C5F4355 
 7207              	.LASF29:
 7208 1034 4C565F41 		.ascii	"LV_ALIGN_BOTTOM_LEFT\000"
 7208      4C49474E 
 7208      5F424F54 
 7208      544F4D5F 
 7208      4C454654 
 7209              	.LASF254:
 7210 1049 4C565F4F 		.ascii	"LV_OBJ_FLAG_GESTURE_BUBBLE\000"
 7210      424A5F46 
 7210      4C41475F 
 7210      47455354 
 7210      5552455F 
 7211              	.LASF347:
 7212 1064 6368696C 		.ascii	"children\000"
 7212      6472656E 
 7212      00
 7213              	.LASF166:
 7214 106d 4C565F53 		.ascii	"LV_STYLE_TRANSFORM_ANGLE\000"
 7214      54594C45 
 7214      5F545241 
 7214      4E53464F 
 7214      524D5F41 
 7215              	.LASF154:
 7216 1086 4C565F53 		.ascii	"LV_STYLE_COLOR_FILTER_DSC\000"
 7216      54594C45 
 7216      5F434F4C 
 7216      4F525F46 
 7216      494C5445 
 7217              	.LASF406:
 7218 10a0 6C765F6B 		.ascii	"lv_keyboard_set_popovers\000"
 7218      6579626F 
 7218      6172645F 
 7218      7365745F 
 7218      706F706F 
 7219              	.LASF80:
 7220 10b9 4C565F42 		.ascii	"LV_BASE_DIR_NEUTRAL\000"
 7220      4153455F 
 7220      4449525F 
 7220      4E455554 
 7220      52414C00 
 7221              	.LASF243:
 7222 10cd 4C565F4F 		.ascii	"LV_OBJ_FLAG_SCROLL_ELASTIC\000"
 7222      424A5F46 
 7222      4C41475F 
 7222      5343524F 
 7222      4C4C5F45 
 7223              	.LASF61:
 7224 10e8 756E6465 		.ascii	"underline_thickness\000"
 7224      726C696E 
ARM GAS  C:\Users\haske\AppData\Local\Temp\ccEGgQv3.s 			page 151


 7224      655F7468 
 7224      69636B6E 
 7224      65737300 
 7225              	.LASF151:
 7226 10fc 4C565F53 		.ascii	"LV_STYLE_TEXT_DECOR\000"
 7226      54594C45 
 7226      5F544558 
 7226      545F4445 
 7226      434F5200 
 7227              	.LASF142:
 7228 1110 4C565F53 		.ascii	"LV_STYLE_ARC_ROUNDED\000"
 7228      54594C45 
 7228      5F415243 
 7228      5F524F55 
 7228      4E444544 
 7229              	.LASF239:
 7230 1125 4C565F4F 		.ascii	"LV_OBJ_FLAG_CLICKABLE\000"
 7230      424A5F46 
 7230      4C41475F 
 7230      434C4943 
 7230      4B41424C 
 7231              	.LASF195:
 7232 113b 736B6970 		.ascii	"skip_trans\000"
 7232      5F747261 
 7232      6E7300
 7233              	.LASF437:
 7234 1146 6C765F74 		.ascii	"lv_textarea_set_cursor_pos\000"
 7234      65787461 
 7234      7265615F 
 7234      7365745F 
 7234      63757273 
 7235              	.LASF230:
 7236 1161 4C565F50 		.ascii	"LV_PART_INDICATOR\000"
 7236      4152545F 
 7236      494E4449 
 7236      4341544F 
 7236      5200
 7237              	.LASF365:
 7238 1173 4C565F42 		.ascii	"LV_BTNMATRIX_CTRL_DISABLED\000"
 7238      544E4D41 
 7238      54524958 
 7238      5F435452 
 7238      4C5F4449 
 7239              	.LASF229:
 7240 118e 4C565F50 		.ascii	"LV_PART_SCROLLBAR\000"
 7240      4152545F 
 7240      5343524F 
 7240      4C4C4241 
 7240      5200
 7241              	.LASF386:
 7242 11a0 4C565F4B 		.ascii	"LV_KEYBOARD_MODE_NUMBER\000"
 7242      4559424F 
 7242      4152445F 
 7242      4D4F4445 
 7242      5F4E554D 
 7243              	.LASF146:
 7244 11b8 4C565F53 		.ascii	"LV_STYLE_TEXT_COLOR\000"
ARM GAS  C:\Users\haske\AppData\Local\Temp\ccEGgQv3.s 			page 152


 7244      54594C45 
 7244      5F544558 
 7244      545F434F 
 7244      4C4F5200 
 7245              	.LASF328:
 7246 11cc 4C565F45 		.ascii	"LV_EVENT_DELETE\000"
 7246      56454E54 
 7246      5F44454C 
 7246      45544500 
 7247              	.LASF186:
 7248 11dc 636C6173 		.ascii	"class_p\000"
 7248      735F7000 
 7249              	.LASF318:
 7250 11e4 4C565F45 		.ascii	"LV_EVENT_DRAW_POST_BEGIN\000"
 7250      56454E54 
 7250      5F445241 
 7250      575F504F 
 7250      53545F42 
 7251              	.LASF420:
 7252 11fd 6B625F6D 		.ascii	"kb_map\000"
 7252      617000
 7253              	.LASF14:
 7254 1204 756E7369 		.ascii	"unsigned int\000"
 7254      676E6564 
 7254      20696E74 
 7254      00
 7255              	.LASF397:
 7256 1211 6374726C 		.ascii	"ctrl_map\000"
 7256      5F6D6170 
 7256      00
 7257              	.LASF83:
 7258 121a 6C765F73 		.ascii	"lv_style_value_t\000"
 7258      74796C65 
 7258      5F76616C 
 7258      75655F74 
 7258      00
 7259              	.LASF448:
 7260 122b 6C765F6F 		.ascii	"lv_obj_class_create_obj\000"
 7260      626A5F63 
 7260      6C617373 
 7260      5F637265 
 7260      6174655F 
 7261              	.LASF430:
 7262 1243 6C765F6F 		.ascii	"lv_obj_clear_flag\000"
 7262      626A5F63 
 7262      6C656172 
 7262      5F666C61 
 7262      6700
 7263              	.LASF403:
 7264 1255 6C765F6B 		.ascii	"lv_keyboard_def_event_cb\000"
 7264      6579626F 
 7264      6172645F 
 7264      6465665F 
 7264      6576656E 
 7265              	.LASF172:
 7266 126e 5F4C565F 		.ascii	"_LV_STYLE_PROP_CONST\000"
 7266      5354594C 
ARM GAS  C:\Users\haske\AppData\Local\Temp\ccEGgQv3.s 			page 153


 7266      455F5052 
 7266      4F505F43 
 7266      4F4E5354 
 7267              	.LASF34:
 7268 1283 4C565F41 		.ascii	"LV_ALIGN_CENTER\000"
 7268      4C49474E 
 7268      5F43454E 
 7268      54455200 
 7269              	.LASF447:
 7270 1293 6C765F74 		.ascii	"lv_textarea_add_text\000"
 7270      65787461 
 7270      7265615F 
 7270      6164645F 
 7270      74657874 
 7271              	.LASF323:
 7272 12a8 4C565F45 		.ascii	"LV_EVENT_VALUE_CHANGED\000"
 7272      56454E54 
 7272      5F56414C 
 7272      55455F43 
 7272      48414E47 
 7273              	.LASF416:
 7274 12bf 64656661 		.ascii	"default_kb_map_spec\000"
 7274      756C745F 
 7274      6B625F6D 
 7274      61705F73 
 7274      70656300 
 7275              	.LASF433:
 7276 12d3 6C765F6F 		.ascii	"lv_obj_set_style_base_dir\000"
 7276      626A5F73 
 7276      65745F73 
 7276      74796C65 
 7276      5F626173 
 7277              	.LASF363:
 7278 12ed 4C565F42 		.ascii	"LV_BTNMATRIX_CTRL_HIDDEN\000"
 7278      544E4D41 
 7278      54524958 
 7278      5F435452 
 7278      4C5F4849 
 7279              	.LASF380:
 7280 1306 62746E5F 		.ascii	"btn_id_sel\000"
 7280      69645F73 
 7280      656C00
 7281              	.LASF249:
 7282 1311 4C565F4F 		.ascii	"LV_OBJ_FLAG_SCROLL_ON_FOCUS\000"
 7282      424A5F46 
 7282      4C41475F 
 7282      5343524F 
 7282      4C4C5F4F 
 7283              	.LASF385:
 7284 132d 4C565F4B 		.ascii	"LV_KEYBOARD_MODE_SPECIAL\000"
 7284      4559424F 
 7284      4152445F 
 7284      4D4F4445 
 7284      5F535045 
 7285              	.LASF94:
 7286 1346 4C565F53 		.ascii	"LV_STYLE_LAYOUT\000"
 7286      54594C45 
ARM GAS  C:\Users\haske\AppData\Local\Temp\ccEGgQv3.s 			page 154


 7286      5F4C4159 
 7286      4F555400 
 7287              	.LASF423:
 7288 1356 6C765F62 		.ascii	"lv_btnmatrix_class\000"
 7288      746E6D61 
 7288      74726978 
 7288      5F636C61 
 7288      737300
 7289              	.LASF64:
 7290 1369 6C765F66 		.ascii	"lv_font_glyph_dsc_t\000"
 7290      6F6E745F 
 7290      676C7970 
 7290      685F6473 
 7290      635F7400 
 7291              	.LASF333:
 7292 137d 4C565F45 		.ascii	"LV_EVENT_SCREEN_LOAD_START\000"
 7292      56454E54 
 7292      5F534352 
 7292      45454E5F 
 7292      4C4F4144 
 7293              	.LASF293:
 7294 1398 73746F70 		.ascii	"stop_bubbling\000"
 7294      5F627562 
 7294      626C696E 
 7294      6700
 7295              	.LASF126:
 7296 13a6 4C565F53 		.ascii	"LV_STYLE_SHADOW_WIDTH\000"
 7296      54594C45 
 7296      5F534841 
 7296      444F575F 
 7296      57494454 
 7297              	.LASF297:
 7298 13bc 4C565F45 		.ascii	"LV_EVENT_PRESSING\000"
 7298      56454E54 
 7298      5F505245 
 7298      5353494E 
 7298      4700
 7299              	.LASF256:
 7300 13ce 4C565F4F 		.ascii	"LV_OBJ_FLAG_IGNORE_LAYOUT\000"
 7300      424A5F46 
 7300      4C41475F 
 7300      49474E4F 
 7300      52455F4C 
 7301              	.LASF103:
 7302 13e8 4C565F53 		.ascii	"LV_STYLE_CLIP_CORNER\000"
 7302      54594C45 
 7302      5F434C49 
 7302      505F434F 
 7302      524E4552 
 7303              	.LASF276:
 7304 13fd 62617365 		.ascii	"base_class\000"
 7304      5F636C61 
 7304      737300
 7305              	.LASF299:
 7306 1408 4C565F45 		.ascii	"LV_EVENT_SHORT_CLICKED\000"
 7306      56454E54 
 7306      5F53484F 
ARM GAS  C:\Users\haske\AppData\Local\Temp\ccEGgQv3.s 			page 155


 7306      52545F43 
 7306      4C49434B 
 7307              	.LASF396:
 7308 141f 6B657962 		.ascii	"keyboard\000"
 7308      6F617264 
 7308      00
 7309              	.LASF30:
 7310 1428 4C565F41 		.ascii	"LV_ALIGN_BOTTOM_MID\000"
 7310      4C49474E 
 7310      5F424F54 
 7310      544F4D5F 
 7310      4D494400 
 7311              	.LASF442:
 7312 143c 6C765F62 		.ascii	"lv_btnmatrix_get_btn_text\000"
 7312      746E6D61 
 7312      74726978 
 7312      5F676574 
 7312      5F62746E 
 7313              	.LASF301:
 7314 1456 4C565F45 		.ascii	"LV_EVENT_LONG_PRESSED_REPEAT\000"
 7314      56454E54 
 7314      5F4C4F4E 
 7314      475F5052 
 7314      45535345 
 7315              	.LASF445:
 7316 1473 6C765F74 		.ascii	"lv_textarea_cursor_left\000"
 7316      65787461 
 7316      7265615F 
 7316      63757273 
 7316      6F725F6C 
 7317              	.LASF207:
 7318 148b 666F6375 		.ascii	"focus_cb\000"
 7318      735F6362 
 7318      00
 7319              	.LASF219:
 7320 1494 4C565F53 		.ascii	"LV_STATE_PRESSED\000"
 7320      54415445 
 7320      5F505245 
 7320      53534544 
 7320      00
 7321              	.LASF69:
 7322 14a5 6C765F72 		.ascii	"lv_res_t\000"
 7322      65735F74 
 7322      00
 7323              	.LASF155:
 7324 14ae 4C565F53 		.ascii	"LV_STYLE_COLOR_FILTER_OPA\000"
 7324      54594C45 
 7324      5F434F4C 
 7324      4F525F46 
 7324      494C5445 
 7325              	.LASF46:
 7326 14c8 4C565F41 		.ascii	"LV_ALIGN_OUT_RIGHT_BOTTOM\000"
 7326      4C49474E 
 7326      5F4F5554 
 7326      5F524947 
 7326      48545F42 
 7327              	.LASF21:
ARM GAS  C:\Users\haske\AppData\Local\Temp\ccEGgQv3.s 			page 156


 7328 14e2 6C6F6E67 		.ascii	"long double\000"
 7328      20646F75 
 7328      626C6500 
 7329              	.LASF270:
 7330 14ee 7374796C 		.ascii	"style\000"
 7330      6500
 7331              	.LASF269:
 7332 14f4 6C765F73 		.ascii	"lv_scroll_snap_t\000"
 7332      63726F6C 
 7332      6C5F736E 
 7332      61705F74 
 7332      00
 7333              	.LASF35:
 7334 1505 4C565F41 		.ascii	"LV_ALIGN_OUT_TOP_LEFT\000"
 7334      4C49474E 
 7334      5F4F5554 
 7334      5F544F50 
 7334      5F4C4546 
 7335              	.LASF59:
 7336 151b 73756270 		.ascii	"subpx\000"
 7336      7800
 7337              	.LASF402:
 7338 1521 74615F74 		.ascii	"ta_txt\000"
 7338      787400
 7339              	.LASF228:
 7340 1528 4C565F50 		.ascii	"LV_PART_MAIN\000"
 7340      4152545F 
 7340      4D41494E 
 7340      00
 7341              	.LASF296:
 7342 1535 4C565F45 		.ascii	"LV_EVENT_PRESSED\000"
 7342      56454E54 
 7342      5F505245 
 7342      53534544 
 7342      00
 7343              	.LASF306:
 7344 1546 4C565F45 		.ascii	"LV_EVENT_SCROLL\000"
 7344      56454E54 
 7344      5F534352 
 7344      4F4C4C00 
 7345              	.LASF327:
 7346 1556 4C565F45 		.ascii	"LV_EVENT_CANCEL\000"
 7346      56454E54 
 7346      5F43414E 
 7346      43454C00 
 7347              	.LASF25:
 7348 1566 4C565F41 		.ascii	"LV_ALIGN_DEFAULT\000"
 7348      4C49474E 
 7348      5F444546 
 7348      41554C54 
 7348      00
 7349              	.LASF233:
 7350 1577 4C565F50 		.ascii	"LV_PART_ITEMS\000"
 7350      4152545F 
 7350      4954454D 
 7350      5300
 7351              	.LASF117:
ARM GAS  C:\Users\haske\AppData\Local\Temp\ccEGgQv3.s 			page 157


 7352 1585 4C565F53 		.ascii	"LV_STYLE_BORDER_COLOR\000"
 7352      54594C45 
 7352      5F424F52 
 7352      4445525F 
 7352      434F4C4F 
 7353              	.LASF0:
 7354 159b 5F5F696E 		.ascii	"__int8_t\000"
 7354      74385F74 
 7354      00
 7355              	.LASF26:
 7356 15a4 4C565F41 		.ascii	"LV_ALIGN_TOP_LEFT\000"
 7356      4C49474E 
 7356      5F544F50 
 7356      5F4C4546 
 7356      5400
 7357              	.LASF210:
 7358 15b6 65646974 		.ascii	"editing\000"
 7358      696E6700 
 7359              	.LASF368:
 7360 15be 4C565F42 		.ascii	"LV_BTNMATRIX_CTRL_CLICK_TRIG\000"
 7360      544E4D41 
 7360      54524958 
 7360      5F435452 
 7360      4C5F434C 
 7361              	.LASF13:
 7362 15db 6C6F6E67 		.ascii	"long long unsigned int\000"
 7362      206C6F6E 
 7362      6720756E 
 7362      7369676E 
 7362      65642069 
 7363              	.LASF335:
 7364 15f2 4C565F45 		.ascii	"LV_EVENT_SCREEN_UNLOADED\000"
 7364      56454E54 
 7364      5F534352 
 7364      45454E5F 
 7364      554E4C4F 
 7365              	.LASF109:
 7366 160b 4C565F53 		.ascii	"LV_STYLE_BG_GRAD_STOP\000"
 7366      54594C45 
 7366      5F42475F 
 7366      47524144 
 7366      5F53544F 
 7367              	.LASF120:
 7368 1621 4C565F53 		.ascii	"LV_STYLE_BORDER_SIDE\000"
 7368      54594C45 
 7368      5F424F52 
 7368      4445525F 
 7368      53494445 
 7369              	.LASF344:
 7370 1636 6C765F67 		.ascii	"lv_group_focus_cb_t\000"
 7370      726F7570 
 7370      5F666F63 
 7370      75735F63 
 7370      625F7400 
 7371              	.LASF275:
 7372 164a 5F6C765F 		.ascii	"_lv_obj_class_t\000"
 7372      6F626A5F 
ARM GAS  C:\Users\haske\AppData\Local\Temp\ccEGgQv3.s 			page 158


 7372      636C6173 
 7372      735F7400 
 7373              	.LASF44:
 7374 165a 4C565F41 		.ascii	"LV_ALIGN_OUT_RIGHT_TOP\000"
 7374      4C49474E 
 7374      5F4F5554 
 7374      5F524947 
 7374      48545F54 
 7375              	.LASF18:
 7376 1671 75696E74 		.ascii	"uint16_t\000"
 7376      31365F74 
 7376      00
 7377              	.LASF68:
 7378 167a 4C565F52 		.ascii	"LV_RES_OK\000"
 7378      45535F4F 
 7378      4B00
 7379              	.LASF438:
 7380 1684 6C765F74 		.ascii	"lv_textarea_del_char\000"
 7380      65787461 
 7380      7265615F 
 7380      64656C5F 
 7380      63686172 
 7381              	.LASF212:
 7382 1699 77726170 		.ascii	"wrap\000"
 7382      00
 7383              	.LASF76:
 7384 169e 6C765F63 		.ascii	"lv_color_t\000"
 7384      6F6C6F72 
 7384      5F7400
 7385              	.LASF85:
 7386 16a9 4C565F53 		.ascii	"LV_STYLE_WIDTH\000"
 7386      54594C45 
 7386      5F574944 
 7386      544800
 7387              	.LASF86:
 7388 16b8 4C565F53 		.ascii	"LV_STYLE_MIN_WIDTH\000"
 7388      54594C45 
 7388      5F4D494E 
 7388      5F574944 
 7388      544800
 7389              	.LASF127:
 7390 16cb 4C565F53 		.ascii	"LV_STYLE_SHADOW_OFS_X\000"
 7390      54594C45 
 7390      5F534841 
 7390      444F575F 
 7390      4F46535F 
 7391              	.LASF128:
 7392 16e1 4C565F53 		.ascii	"LV_STYLE_SHADOW_OFS_Y\000"
 7392      54594C45 
 7392      5F534841 
 7392      444F575F 
 7392      4F46535F 
 7393              	.LASF409:
 7394 16f7 6C765F6B 		.ascii	"lv_keyboard_get_textarea\000"
 7394      6579626F 
 7394      6172645F 
 7394      6765745F 
ARM GAS  C:\Users\haske\AppData\Local\Temp\ccEGgQv3.s 			page 159


 7394      74657874 
 7395              	.LASF112:
 7396 1710 4C565F53 		.ascii	"LV_STYLE_BG_IMG_SRC\000"
 7396      54594C45 
 7396      5F42475F 
 7396      494D475F 
 7396      53524300 
 7397              	.LASF145:
 7398 1724 4C565F53 		.ascii	"LV_STYLE_ARC_IMG_SRC\000"
 7398      54594C45 
 7398      5F415243 
 7398      5F494D47 
 7398      5F535243 
 7399              	.LASF177:
 7400 1739 76616C75 		.ascii	"value1\000"
 7400      653100
 7401              	.LASF408:
 7402 1740 6C765F6B 		.ascii	"lv_keyboard_create\000"
 7402      6579626F 
 7402      6172645F 
 7402      63726561 
 7402      746500
 7403              	.LASF384:
 7404 1753 4C565F4B 		.ascii	"LV_KEYBOARD_MODE_TEXT_UPPER\000"
 7404      4559424F 
 7404      4152445F 
 7404      4D4F4445 
 7404      5F544558 
 7405              	.LASF4:
 7406 176f 5F5F696E 		.ascii	"__int16_t\000"
 7406      7431365F 
 7406      7400
 7407              	.LASF148:
 7408 1779 4C565F53 		.ascii	"LV_STYLE_TEXT_FONT\000"
 7408      54594C45 
 7408      5F544558 
 7408      545F464F 
 7408      4E5400
 7409              	.LASF171:
 7410 178c 4C565F53 		.ascii	"LV_STYLE_PROP_ANY\000"
 7410      54594C45 
 7410      5F50524F 
 7410      505F414E 
 7410      5900
 7411              	.LASF425:
 7412 179e 6C765F6D 		.ascii	"lv_mem_alloc\000"
 7412      656D5F61 
 7412      6C6C6F63 
 7412      00
 7413              	.LASF74:
 7414 17ab 66756C6C 		.ascii	"full\000"
 7414      00
 7415              	.LASF398:
 7416 17b0 6C765F6B 		.ascii	"lv_keyboard_update_ctrl_map\000"
 7416      6579626F 
 7416      6172645F 
 7416      75706461 
ARM GAS  C:\Users\haske\AppData\Local\Temp\ccEGgQv3.s 			page 160


 7416      74655F63 
 7417              	.LASF82:
 7418 17cc 636F6C6F 		.ascii	"color\000"
 7418      7200
 7419              	.LASF288:
 7420 17d2 636F6465 		.ascii	"code\000"
 7420      00
 7421              	.LASF341:
 7422 17d7 4C565F45 		.ascii	"LV_EVENT_PREPROCESS\000"
 7422      56454E54 
 7422      5F505245 
 7422      50524F43 
 7422      45535300 
 7423              	.LASF361:
 7424 17eb 6C765F6F 		.ascii	"lv_obj_t\000"
 7424      626A5F74 
 7424      00
 7425              	.LASF394:
 7426 17f4 706F706F 		.ascii	"popovers\000"
 7426      76657273 
 7426      00
 7427              	.LASF278:
 7428 17fd 64657374 		.ascii	"destructor_cb\000"
 7428      72756374 
 7428      6F725F63 
 7428      6200
 7429              	.LASF185:
 7430 180b 5F6C765F 		.ascii	"_lv_obj_t\000"
 7430      6F626A5F 
 7430      7400
 7431              	.LASF90:
 7432 1815 4C565F53 		.ascii	"LV_STYLE_MAX_HEIGHT\000"
 7432      54594C45 
 7432      5F4D4158 
 7432      5F484549 
 7432      47485400 
 7433              	.LASF240:
 7434 1829 4C565F4F 		.ascii	"LV_OBJ_FLAG_CLICK_FOCUSABLE\000"
 7434      424A5F46 
 7434      4C41475F 
 7434      434C4943 
 7434      4B5F464F 
 7435              	.LASF106:
 7436 1845 4C565F53 		.ascii	"LV_STYLE_BG_GRAD_COLOR\000"
 7436      54594C45 
 7436      5F42475F 
 7436      47524144 
 7436      5F434F4C 
 7437              	.LASF51:
 7438 185c 626F785F 		.ascii	"box_h\000"
 7438      6800
 7439              	.LASF213:
 7440 1862 4C565F53 		.ascii	"LV_STATE_DEFAULT\000"
 7440      54415445 
 7440      5F444546 
 7440      41554C54 
 7440      00
ARM GAS  C:\Users\haske\AppData\Local\Temp\ccEGgQv3.s 			page 161


 7441              	.LASF27:
 7442 1873 4C565F41 		.ascii	"LV_ALIGN_TOP_MID\000"
 7442      4C49474E 
 7442      5F544F50 
 7442      5F4D4944 
 7442      00
 7443              	.LASF75:
 7444 1884 6C765F63 		.ascii	"lv_color16_t\000"
 7444      6F6C6F72 
 7444      31365F74 
 7444      00
 7445              	.LASF50:
 7446 1891 626F785F 		.ascii	"box_w\000"
 7446      7700
 7447              	.LASF5:
 7448 1897 73686F72 		.ascii	"short int\000"
 7448      7420696E 
 7448      7400
 7449              	.LASF58:
 7450 18a1 62617365 		.ascii	"base_line\000"
 7450      5F6C696E 
 7450      6500
 7451              	.LASF203:
 7452 18ab 6C765F6C 		.ascii	"lv_ll_t\000"
 7452      6C5F7400 
 7453              	.LASF422:
 7454 18b3 6C765F66 		.ascii	"lv_font_montserrat_14\000"
 7454      6F6E745F 
 7454      6D6F6E74 
 7454      73657272 
 7454      61745F31 
 7455              	.LASF252:
 7456 18c9 4C565F4F 		.ascii	"LV_OBJ_FLAG_PRESS_LOCK\000"
 7456      424A5F46 
 7456      4C41475F 
 7456      50524553 
 7456      535F4C4F 
 7457              	.LASF393:
 7458 18e0 6D6F6465 		.ascii	"mode\000"
 7458      00
 7459              	.LASF427:
 7460 18e5 6C765F62 		.ascii	"lv_btnmatrix_set_ctrl_map\000"
 7460      746E6D61 
 7460      74726978 
 7460      5F736574 
 7460      5F637472 
 7461              	.LASF320:
 7462 18ff 4C565F45 		.ascii	"LV_EVENT_DRAW_POST_END\000"
 7462      56454E54 
 7462      5F445241 
 7462      575F504F 
 7462      53545F45 
 7463              	.LASF321:
 7464 1916 4C565F45 		.ascii	"LV_EVENT_DRAW_PART_BEGIN\000"
 7464      56454E54 
 7464      5F445241 
 7464      575F5041 
ARM GAS  C:\Users\haske\AppData\Local\Temp\ccEGgQv3.s 			page 162


 7464      52545F42 
 7465              	.LASF37:
 7466 192f 4C565F41 		.ascii	"LV_ALIGN_OUT_TOP_RIGHT\000"
 7466      4C49474E 
 7466      5F4F5554 
 7466      5F544F50 
 7466      5F524947 
 7467              	.LASF143:
 7468 1946 4C565F53 		.ascii	"LV_STYLE_ARC_COLOR\000"
 7468      54594C45 
 7468      5F415243 
 7468      5F434F4C 
 7468      4F5200
 7469              	.LASF287:
 7470 1959 63757272 		.ascii	"current_target\000"
 7470      656E745F 
 7470      74617267 
 7470      657400
 7471              	.LASF17:
 7472 1968 696E7431 		.ascii	"int16_t\000"
 7472      365F7400 
 7473              	.LASF377:
 7474 1970 6374726C 		.ascii	"ctrl_bits\000"
 7474      5F626974 
 7474      7300
 7475              	.LASF190:
 7476 197a 636F6F72 		.ascii	"coords\000"
 7476      647300
 7477              	.LASF387:
 7478 1981 4C565F4B 		.ascii	"LV_KEYBOARD_MODE_USER_1\000"
 7478      4559424F 
 7478      4152445F 
 7478      4D4F4445 
 7478      5F555345 
 7479              	.LASF388:
 7480 1999 4C565F4B 		.ascii	"LV_KEYBOARD_MODE_USER_2\000"
 7480      4559424F 
 7480      4152445F 
 7480      4D4F4445 
 7480      5F555345 
 7481              	.LASF389:
 7482 19b1 4C565F4B 		.ascii	"LV_KEYBOARD_MODE_USER_3\000"
 7482      4559424F 
 7482      4152445F 
 7482      4D4F4445 
 7482      5F555345 
 7483              	.LASF214:
 7484 19c9 4C565F53 		.ascii	"LV_STATE_CHECKED\000"
 7484      54415445 
 7484      5F434845 
 7484      434B4544 
 7484      00
 7485              	.LASF418:
 7486 19da 64656661 		.ascii	"default_kb_map_num\000"
 7486      756C745F 
 7486      6B625F6D 
 7486      61705F6E 
ARM GAS  C:\Users\haske\AppData\Local\Temp\ccEGgQv3.s 			page 163


 7486      756D00
 7487              	.LASF407:
 7488 19ed 6C765F6B 		.ascii	"lv_keyboard_set_map\000"
 7488      6579626F 
 7488      6172645F 
 7488      7365745F 
 7488      6D617000 
 7489              	.LASF170:
 7490 1a01 5F4C565F 		.ascii	"_LV_STYLE_NUM_BUILT_IN_PROPS\000"
 7490      5354594C 
 7490      455F4E55 
 7490      4D5F4255 
 7490      494C545F 
 7491              	.LASF439:
 7492 1a1e 6C765F74 		.ascii	"lv_textarea_add_char\000"
 7492      65787461 
 7492      7265615F 
 7492      6164645F 
 7492      63686172 
 7493              	.LASF96:
 7494 1a33 4C565F53 		.ascii	"LV_STYLE_PAD_TOP\000"
 7494      54594C45 
 7494      5F504144 
 7494      5F544F50 
 7494      00
 7495              	.LASF340:
 7496 1a44 5F4C565F 		.ascii	"_LV_EVENT_LAST\000"
 7496      4556454E 
 7496      545F4C41 
 7496      535400
 7497              	.LASF236:
 7498 1a53 4C565F50 		.ascii	"LV_PART_CUSTOM_FIRST\000"
 7498      4152545F 
 7498      43555354 
 7498      4F4D5F46 
 7498      49525354 
 7499              	.LASF113:
 7500 1a68 4C565F53 		.ascii	"LV_STYLE_BG_IMG_OPA\000"
 7500      54594C45 
 7500      5F42475F 
 7500      494D475F 
 7500      4F504100 
 7501              	.LASF135:
 7502 1a7c 4C565F53 		.ascii	"LV_STYLE_LINE_WIDTH\000"
 7502      54594C45 
 7502      5F4C494E 
 7502      455F5749 
 7502      44544800 
 7503              	.LASF310:
 7504 1a90 4C565F45 		.ascii	"LV_EVENT_DEFOCUSED\000"
 7504      56454E54 
 7504      5F444546 
 7504      4F435553 
 7504      454400
 7505              	.LASF412:
 7506 1aa3 64656661 		.ascii	"default_kb_map_lc\000"
 7506      756C745F 
ARM GAS  C:\Users\haske\AppData\Local\Temp\ccEGgQv3.s 			page 164


 7506      6B625F6D 
 7506      61705F6C 
 7506      6300
 7507              	.LASF441:
 7508 1ab5 6C765F62 		.ascii	"lv_btnmatrix_get_selected_btn\000"
 7508      746E6D61 
 7508      74726978 
 7508      5F676574 
 7508      5F73656C 
 7509              	.LASF454:
 7510 1ad3 433A5C50 		.ascii	"C:\\Projects\\PainDrain\\firmware\\PainDrain\\PainD"
 7510      726F6A65 
 7510      6374735C 
 7510      5061696E 
 7510      44726169 
 7511 1b01 7261696E 		.ascii	"rain.cydsn\000"
 7511      2E637964 
 7511      736E00
 7512              	.LASF180:
 7513 1b0c 70726F70 		.ascii	"prop1\000"
 7513      3100
 7514              	.LASF33:
 7515 1b12 4C565F41 		.ascii	"LV_ALIGN_RIGHT_MID\000"
 7515      4C49474E 
 7515      5F524947 
 7515      48545F4D 
 7515      494400
 7516              	.LASF305:
 7517 1b25 4C565F45 		.ascii	"LV_EVENT_SCROLL_END\000"
 7517      56454E54 
 7517      5F534352 
 7517      4F4C4C5F 
 7517      454E4400 
 7518              	.LASF421:
 7519 1b39 6B625F63 		.ascii	"kb_ctrl\000"
 7519      74726C00 
 7520              	.LASF89:
 7521 1b41 4C565F53 		.ascii	"LV_STYLE_MIN_HEIGHT\000"
 7521      54594C45 
 7521      5F4D494E 
 7521      5F484549 
 7521      47485400 
 7522              	.LASF222:
 7523 1b55 4C565F53 		.ascii	"LV_STATE_USER_1\000"
 7523      54415445 
 7523      5F555345 
 7523      525F3100 
 7524              	.LASF223:
 7525 1b65 4C565F53 		.ascii	"LV_STATE_USER_2\000"
 7525      54415445 
 7525      5F555345 
 7525      525F3200 
 7526              	.LASF224:
 7527 1b75 4C565F53 		.ascii	"LV_STATE_USER_3\000"
 7527      54415445 
 7527      5F555345 
 7527      525F3300 
ARM GAS  C:\Users\haske\AppData\Local\Temp\ccEGgQv3.s 			page 165


 7528              	.LASF225:
 7529 1b85 4C565F53 		.ascii	"LV_STATE_USER_4\000"
 7529      54415445 
 7529      5F555345 
 7529      525F3400 
 7530              	.LASF36:
 7531 1b95 4C565F41 		.ascii	"LV_ALIGN_OUT_TOP_MID\000"
 7531      4C49474E 
 7531      5F4F5554 
 7531      5F544F50 
 7531      5F4D4944 
 7532              	.LASF446:
 7533 1baa 6C765F74 		.ascii	"lv_textarea_cursor_right\000"
 7533      65787461 
 7533      7265615F 
 7533      63757273 
 7533      6F725F72 
 7534              	.LASF121:
 7535 1bc3 4C565F53 		.ascii	"LV_STYLE_BORDER_POST\000"
 7535      54594C45 
 7535      5F424F52 
 7535      4445525F 
 7535      504F5354 
 7536              	.LASF91:
 7537 1bd8 4C565F53 		.ascii	"LV_STYLE_X\000"
 7537      54594C45 
 7537      5F5800
 7538              	.LASF92:
 7539 1be3 4C565F53 		.ascii	"LV_STYLE_Y\000"
 7539      54594C45 
 7539      5F5900
 7540              	.LASF138:
 7541 1bee 4C565F53 		.ascii	"LV_STYLE_LINE_ROUNDED\000"
 7541      54594C45 
 7541      5F4C494E 
 7541      455F524F 
 7541      554E4445 
 7542              	.LASF337:
 7543 1c04 4C565F45 		.ascii	"LV_EVENT_STYLE_CHANGED\000"
 7543      56454E54 
 7543      5F535459 
 7543      4C455F43 
 7543      48414E47 
 7544              	.LASF326:
 7545 1c1b 4C565F45 		.ascii	"LV_EVENT_READY\000"
 7545      56454E54 
 7545      5F524541 
 7545      445900
 7546              	.LASF319:
 7547 1c2a 4C565F45 		.ascii	"LV_EVENT_DRAW_POST\000"
 7547      56454E54 
 7547      5F445241 
 7547      575F504F 
 7547      535400
 7548              	.LASF20:
 7549 1c3d 75696E74 		.ascii	"uint32_t\000"
 7549      33325F74 
ARM GAS  C:\Users\haske\AppData\Local\Temp\ccEGgQv3.s 			page 166


 7549      00
 7550              	.LASF235:
 7551 1c46 4C565F50 		.ascii	"LV_PART_CURSOR\000"
 7551      4152545F 
 7551      43555253 
 7551      4F5200
 7552              	.LASF413:
 7553 1c55 64656661 		.ascii	"default_kb_ctrl_lc_map\000"
 7553      756C745F 
 7553      6B625F63 
 7553      74726C5F 
 7553      6C635F6D 
 7554              	.LASF41:
 7555 1c6c 4C565F41 		.ascii	"LV_ALIGN_OUT_LEFT_TOP\000"
 7555      4C49474E 
 7555      5F4F5554 
 7555      5F4C4546 
 7555      545F544F 
 7556              	.LASF371:
 7557 1c82 5F4C565F 		.ascii	"_LV_BTNMATRIX_CTRL_RESERVED\000"
 7557      42544E4D 
 7557      41545249 
 7557      585F4354 
 7557      524C5F52 
 7558              	.LASF267:
 7559 1c9e 6C765F6F 		.ascii	"lv_obj_flag_t\000"
 7559      626A5F66 
 7559      6C61675F 
 7559      7400
 7560              	.LASF336:
 7561 1cac 4C565F45 		.ascii	"LV_EVENT_SIZE_CHANGED\000"
 7561      56454E54 
 7561      5F53495A 
 7561      455F4348 
 7561      414E4745 
 7562              	.LASF73:
 7563 1cc2 67726565 		.ascii	"green\000"
 7563      6E00
 7564              	.LASF66:
 7565 1cc8 6C765F66 		.ascii	"lv_font_t\000"
 7565      6F6E745F 
 7565      7400
 7566              	.LASF338:
 7567 1cd2 4C565F45 		.ascii	"LV_EVENT_LAYOUT_CHANGED\000"
 7567      56454E54 
 7567      5F4C4159 
 7567      4F55545F 
 7567      4348414E 
 7568              	.LASF400:
 7569 1cea 6C765F6B 		.ascii	"lv_keyboard_constructor\000"
 7569      6579626F 
 7569      6172645F 
 7569      636F6E73 
 7569      74727563 
 7570              	.LASF7:
 7571 1d02 73686F72 		.ascii	"short unsigned int\000"
 7571      7420756E 
ARM GAS  C:\Users\haske\AppData\Local\Temp\ccEGgQv3.s 			page 167


 7571      7369676E 
 7571      65642069 
 7571      6E7400
 7572              	.LASF435:
 7573 1d15 6C765F74 		.ascii	"lv_textarea_get_cursor_pos\000"
 7573      65787461 
 7573      7265615F 
 7573      6765745F 
 7573      63757273 
 7574              	.LASF405:
 7575 1d30 6C765F6B 		.ascii	"lv_keyboard_set_mode\000"
 7575      6579626F 
 7575      6172645F 
 7575      7365745F 
 7575      6D6F6465 
 7576              	.LASF308:
 7577 1d45 4C565F45 		.ascii	"LV_EVENT_KEY\000"
 7577      56454E54 
 7577      5F4B4559 
 7577      00
 7578              	.LASF22:
 7579 1d52 6C765F63 		.ascii	"lv_coord_t\000"
 7579      6F6F7264 
 7579      5F7400
 7580              	.LASF304:
 7581 1d5d 4C565F45 		.ascii	"LV_EVENT_SCROLL_BEGIN\000"
 7581      56454E54 
 7581      5F534352 
 7581      4F4C4C5F 
 7581      42454749 
 7582              	.LASF123:
 7583 1d73 4C565F53 		.ascii	"LV_STYLE_OUTLINE_COLOR\000"
 7583      54594C45 
 7583      5F4F5554 
 7583      4C494E45 
 7583      5F434F4C 
 7584              	.LASF63:
 7585 1d8a 75736572 		.ascii	"user_data\000"
 7585      5F646174 
 7585      6100
 7586              	.LASF298:
 7587 1d94 4C565F45 		.ascii	"LV_EVENT_PRESS_LOST\000"
 7587      56454E54 
 7587      5F505245 
 7587      53535F4C 
 7587      4F535400 
 7588              	.LASF31:
 7589 1da8 4C565F41 		.ascii	"LV_ALIGN_BOTTOM_RIGHT\000"
 7589      4C49474E 
 7589      5F424F54 
 7589      544F4D5F 
 7589      52494748 
 7590              	.LASF455:
 7591 1dbe 5F6C765F 		.ascii	"_lv_event_dsc_t\000"
 7591      6576656E 
 7591      745F6473 
 7591      635F7400 
ARM GAS  C:\Users\haske\AppData\Local\Temp\ccEGgQv3.s 			page 168


 7592              	.LASF129:
 7593 1dce 4C565F53 		.ascii	"LV_STYLE_SHADOW_SPREAD\000"
 7593      54594C45 
 7593      5F534841 
 7593      444F575F 
 7593      53505245 
 7594              	.LASF234:
 7595 1de5 4C565F50 		.ascii	"LV_PART_TICKS\000"
 7595      4152545F 
 7595      5449434B 
 7595      5300
 7596              	.LASF391:
 7597 1df3 6C765F6B 		.ascii	"lv_keyboard_mode_t\000"
 7597      6579626F 
 7597      6172645F 
 7597      6D6F6465 
 7597      5F7400
 7598              	.LASF55:
 7599 1e06 6765745F 		.ascii	"get_glyph_dsc\000"
 7599      676C7970 
 7599      685F6473 
 7599      6300
 7600              	.LASF8:
 7601 1e14 5F5F696E 		.ascii	"__int32_t\000"
 7601      7433325F 
 7601      7400
 7602              	.LASF271:
 7603 1e1e 73656C65 		.ascii	"selector\000"
 7603      63746F72 
 7603      00
 7604              	.LASF309:
 7605 1e27 4C565F45 		.ascii	"LV_EVENT_FOCUSED\000"
 7605      56454E54 
 7605      5F464F43 
 7605      55534544 
 7605      00
 7606              	.LASF211:
 7607 1e38 7265666F 		.ascii	"refocus_policy\000"
 7607      6375735F 
 7607      706F6C69 
 7607      637900
 7608              	.LASF77:
 7609 1e47 4C565F42 		.ascii	"LV_BASE_DIR_LTR\000"
 7609      4153455F 
 7609      4449525F 
 7609      4C545200 
 7610              	.LASF215:
 7611 1e57 4C565F53 		.ascii	"LV_STATE_FOCUSED\000"
 7611      54415445 
 7611      5F464F43 
 7611      55534544 
 7611      00
 7612              	.LASF417:
 7613 1e68 64656661 		.ascii	"default_kb_ctrl_spec_map\000"
 7613      756C745F 
 7613      6B625F63 
 7613      74726C5F 
ARM GAS  C:\Users\haske\AppData\Local\Temp\ccEGgQv3.s 			page 169


 7613      73706563 
 7614              	.LASF281:
 7615 1e81 68656967 		.ascii	"height_def\000"
 7615      68745F64 
 7615      656600
 7616              	.LASF332:
 7617 1e8c 4C565F45 		.ascii	"LV_EVENT_SCREEN_UNLOAD_START\000"
 7617      56454E54 
 7617      5F534352 
 7617      45454E5F 
 7617      554E4C4F 
 7618              	.LASF410:
 7619 1ea9 6C765F6B 		.ascii	"lv_keyboard_get_mode\000"
 7619      6579626F 
 7619      6172645F 
 7619      6765745F 
 7619      6D6F6465 
 7620              	.LASF366:
 7621 1ebe 4C565F42 		.ascii	"LV_BTNMATRIX_CTRL_CHECKABLE\000"
 7621      544E4D41 
 7621      54524958 
 7621      5F435452 
 7621      4C5F4348 
 7622              	.LASF245:
 7623 1eda 4C565F4F 		.ascii	"LV_OBJ_FLAG_SCROLL_ONE\000"
 7623      424A5F46 
 7623      4C41475F 
 7623      5343524F 
 7623      4C4C5F4F 
 7624              	.LASF290:
 7625 1ef1 70726576 		.ascii	"prev\000"
 7625      00
 7626              	.LASF79:
 7627 1ef6 4C565F42 		.ascii	"LV_BASE_DIR_AUTO\000"
 7627      4153455F 
 7627      4449525F 
 7627      4155544F 
 7627      00
 7628              	.LASF200:
 7629 1f07 6E5F7369 		.ascii	"n_size\000"
 7629      7A6500
 7630              	.LASF204:
 7631 1f0e 5F6C765F 		.ascii	"_lv_group_t\000"
 7631      67726F75 
 7631      705F7400 
 7632              	.LASF110:
 7633 1f1a 4C565F53 		.ascii	"LV_STYLE_BG_GRAD\000"
 7633      54594C45 
 7633      5F42475F 
 7633      47524144 
 7633      00
 7634              	.LASF303:
 7635 1f2b 4C565F45 		.ascii	"LV_EVENT_RELEASED\000"
 7635      56454E54 
 7635      5F52454C 
 7635      45415345 
 7635      4400
ARM GAS  C:\Users\haske\AppData\Local\Temp\ccEGgQv3.s 			page 170


 7636              	.LASF54:
 7637 1f3d 69735F70 		.ascii	"is_placeholder\000"
 7637      6C616365 
 7637      686F6C64 
 7637      657200
 7638              	.LASF415:
 7639 1f4c 64656661 		.ascii	"default_kb_ctrl_uc_map\000"
 7639      756C745F 
 7639      6B625F63 
 7639      74726C5F 
 7639      75635F6D 
 7640              	.LASF125:
 7641 1f63 4C565F53 		.ascii	"LV_STYLE_OUTLINE_PAD\000"
 7641      54594C45 
 7641      5F4F5554 
 7641      4C494E45 
 7641      5F504144 
 7642              	.LASF206:
 7643 1f78 6F626A5F 		.ascii	"obj_focus\000"
 7643      666F6375 
 7643      7300
 7644              	.LASF149:
 7645 1f82 4C565F53 		.ascii	"LV_STYLE_TEXT_LETTER_SPACE\000"
 7645      54594C45 
 7645      5F544558 
 7645      545F4C45 
 7645      54544552 
 7646              	.LASF358:
 7647 1f9d 6576656E 		.ascii	"event_dsc_cnt\000"
 7647      745F6473 
 7647      635F636E 
 7647      7400
 7648              		.ident	"GCC: (GNU Tools for ARM Embedded Processors) 5.4.1 20160609 (release) [ARM/embedded-5-bran
