ARM GAS  C:\Users\haske\AppData\Local\Temp\ccoc8x2c.s 			page 1


   1              		.syntax unified
   2              		.cpu cortex-m0plus
   3              		.fpu softvfp
   4              		.eabi_attribute 20, 1
   5              		.eabi_attribute 21, 1
   6              		.eabi_attribute 23, 3
   7              		.eabi_attribute 24, 1
   8              		.eabi_attribute 25, 1
   9              		.eabi_attribute 26, 1
  10              		.eabi_attribute 30, 1
  11              		.eabi_attribute 34, 0
  12              		.eabi_attribute 18, 4
  13              		.thumb
  14              		.syntax unified
  15              		.file	"lv_led.c"
  16              		.text
  17              	.Ltext0:
  18              		.cfi_sections	.debug_frame
  19              		.section	.text.lv_led_constructor,"ax",%progbits
  20              		.align	2
  21              		.code	16
  22              		.thumb_func
  23              		.type	lv_led_constructor, %function
  24              	lv_led_constructor:
  25              	.LFB209:
  26              		.file 1 "..\\..\\..\\arduinoLCD\\test\\Pain Drain\\libraries\\lvgl\\src\\extra\\widgets\\led\\lv_l
   1:..\..\..\arduinoLCD\test\Pain Drain\libraries\lvgl\src\extra\widgets\led/lv_led.c **** /**
   2:..\..\..\arduinoLCD\test\Pain Drain\libraries\lvgl\src\extra\widgets\led/lv_led.c ****  * @file lv_led.c
   3:..\..\..\arduinoLCD\test\Pain Drain\libraries\lvgl\src\extra\widgets\led/lv_led.c ****  *
   4:..\..\..\arduinoLCD\test\Pain Drain\libraries\lvgl\src\extra\widgets\led/lv_led.c ****  */
   5:..\..\..\arduinoLCD\test\Pain Drain\libraries\lvgl\src\extra\widgets\led/lv_led.c **** 
   6:..\..\..\arduinoLCD\test\Pain Drain\libraries\lvgl\src\extra\widgets\led/lv_led.c **** /*********************
   7:..\..\..\arduinoLCD\test\Pain Drain\libraries\lvgl\src\extra\widgets\led/lv_led.c ****  *      INCLUDES
   8:..\..\..\arduinoLCD\test\Pain Drain\libraries\lvgl\src\extra\widgets\led/lv_led.c ****  *********************/
   9:..\..\..\arduinoLCD\test\Pain Drain\libraries\lvgl\src\extra\widgets\led/lv_led.c **** #include "lv_led.h"
  10:..\..\..\arduinoLCD\test\Pain Drain\libraries\lvgl\src\extra\widgets\led/lv_led.c **** #if LV_USE_LED
  11:..\..\..\arduinoLCD\test\Pain Drain\libraries\lvgl\src\extra\widgets\led/lv_led.c **** 
  12:..\..\..\arduinoLCD\test\Pain Drain\libraries\lvgl\src\extra\widgets\led/lv_led.c **** #include "../../../misc/lv_assert.h"
  13:..\..\..\arduinoLCD\test\Pain Drain\libraries\lvgl\src\extra\widgets\led/lv_led.c **** 
  14:..\..\..\arduinoLCD\test\Pain Drain\libraries\lvgl\src\extra\widgets\led/lv_led.c **** /*********************
  15:..\..\..\arduinoLCD\test\Pain Drain\libraries\lvgl\src\extra\widgets\led/lv_led.c ****  *      DEFINES
  16:..\..\..\arduinoLCD\test\Pain Drain\libraries\lvgl\src\extra\widgets\led/lv_led.c ****  *********************/
  17:..\..\..\arduinoLCD\test\Pain Drain\libraries\lvgl\src\extra\widgets\led/lv_led.c **** #define MY_CLASS &lv_led_class
  18:..\..\..\arduinoLCD\test\Pain Drain\libraries\lvgl\src\extra\widgets\led/lv_led.c **** 
  19:..\..\..\arduinoLCD\test\Pain Drain\libraries\lvgl\src\extra\widgets\led/lv_led.c **** /**********************
  20:..\..\..\arduinoLCD\test\Pain Drain\libraries\lvgl\src\extra\widgets\led/lv_led.c ****  *      TYPEDEFS
  21:..\..\..\arduinoLCD\test\Pain Drain\libraries\lvgl\src\extra\widgets\led/lv_led.c ****  **********************/
  22:..\..\..\arduinoLCD\test\Pain Drain\libraries\lvgl\src\extra\widgets\led/lv_led.c **** 
  23:..\..\..\arduinoLCD\test\Pain Drain\libraries\lvgl\src\extra\widgets\led/lv_led.c **** /**********************
  24:..\..\..\arduinoLCD\test\Pain Drain\libraries\lvgl\src\extra\widgets\led/lv_led.c ****  *  STATIC PROTOTYPES
  25:..\..\..\arduinoLCD\test\Pain Drain\libraries\lvgl\src\extra\widgets\led/lv_led.c ****  **********************/
  26:..\..\..\arduinoLCD\test\Pain Drain\libraries\lvgl\src\extra\widgets\led/lv_led.c **** static void lv_led_constructor(const lv_obj_class_t * class_p, lv_obj_t * obj);
  27:..\..\..\arduinoLCD\test\Pain Drain\libraries\lvgl\src\extra\widgets\led/lv_led.c **** static void lv_led_event(const lv_obj_class_t * class_p, lv_event_t * e);
  28:..\..\..\arduinoLCD\test\Pain Drain\libraries\lvgl\src\extra\widgets\led/lv_led.c **** 
  29:..\..\..\arduinoLCD\test\Pain Drain\libraries\lvgl\src\extra\widgets\led/lv_led.c **** /**********************
  30:..\..\..\arduinoLCD\test\Pain Drain\libraries\lvgl\src\extra\widgets\led/lv_led.c ****  *  STATIC VARIABLES
  31:..\..\..\arduinoLCD\test\Pain Drain\libraries\lvgl\src\extra\widgets\led/lv_led.c ****  **********************/
ARM GAS  C:\Users\haske\AppData\Local\Temp\ccoc8x2c.s 			page 2


  32:..\..\..\arduinoLCD\test\Pain Drain\libraries\lvgl\src\extra\widgets\led/lv_led.c **** const lv_obj_class_t lv_led_class  = {
  33:..\..\..\arduinoLCD\test\Pain Drain\libraries\lvgl\src\extra\widgets\led/lv_led.c ****     .base_class = &lv_obj_class,
  34:..\..\..\arduinoLCD\test\Pain Drain\libraries\lvgl\src\extra\widgets\led/lv_led.c ****     .constructor_cb = lv_led_constructor,
  35:..\..\..\arduinoLCD\test\Pain Drain\libraries\lvgl\src\extra\widgets\led/lv_led.c ****     .width_def = LV_DPI_DEF / 5,
  36:..\..\..\arduinoLCD\test\Pain Drain\libraries\lvgl\src\extra\widgets\led/lv_led.c ****     .height_def = LV_DPI_DEF / 5,
  37:..\..\..\arduinoLCD\test\Pain Drain\libraries\lvgl\src\extra\widgets\led/lv_led.c ****     .event_cb = lv_led_event,
  38:..\..\..\arduinoLCD\test\Pain Drain\libraries\lvgl\src\extra\widgets\led/lv_led.c ****     .instance_size = sizeof(lv_led_t),
  39:..\..\..\arduinoLCD\test\Pain Drain\libraries\lvgl\src\extra\widgets\led/lv_led.c **** };
  40:..\..\..\arduinoLCD\test\Pain Drain\libraries\lvgl\src\extra\widgets\led/lv_led.c **** 
  41:..\..\..\arduinoLCD\test\Pain Drain\libraries\lvgl\src\extra\widgets\led/lv_led.c **** /**********************
  42:..\..\..\arduinoLCD\test\Pain Drain\libraries\lvgl\src\extra\widgets\led/lv_led.c ****  *      MACROS
  43:..\..\..\arduinoLCD\test\Pain Drain\libraries\lvgl\src\extra\widgets\led/lv_led.c ****  **********************/
  44:..\..\..\arduinoLCD\test\Pain Drain\libraries\lvgl\src\extra\widgets\led/lv_led.c **** 
  45:..\..\..\arduinoLCD\test\Pain Drain\libraries\lvgl\src\extra\widgets\led/lv_led.c **** /**********************
  46:..\..\..\arduinoLCD\test\Pain Drain\libraries\lvgl\src\extra\widgets\led/lv_led.c ****  *   GLOBAL FUNCTIONS
  47:..\..\..\arduinoLCD\test\Pain Drain\libraries\lvgl\src\extra\widgets\led/lv_led.c ****  **********************/
  48:..\..\..\arduinoLCD\test\Pain Drain\libraries\lvgl\src\extra\widgets\led/lv_led.c **** 
  49:..\..\..\arduinoLCD\test\Pain Drain\libraries\lvgl\src\extra\widgets\led/lv_led.c **** /**
  50:..\..\..\arduinoLCD\test\Pain Drain\libraries\lvgl\src\extra\widgets\led/lv_led.c ****  * Create a led object
  51:..\..\..\arduinoLCD\test\Pain Drain\libraries\lvgl\src\extra\widgets\led/lv_led.c ****  * @param parent pointer to an object, it will be the parent of the new led
  52:..\..\..\arduinoLCD\test\Pain Drain\libraries\lvgl\src\extra\widgets\led/lv_led.c ****  * @return pointer to the created led
  53:..\..\..\arduinoLCD\test\Pain Drain\libraries\lvgl\src\extra\widgets\led/lv_led.c ****  */
  54:..\..\..\arduinoLCD\test\Pain Drain\libraries\lvgl\src\extra\widgets\led/lv_led.c **** lv_obj_t * lv_led_create(lv_obj_t * parent)
  55:..\..\..\arduinoLCD\test\Pain Drain\libraries\lvgl\src\extra\widgets\led/lv_led.c **** {
  56:..\..\..\arduinoLCD\test\Pain Drain\libraries\lvgl\src\extra\widgets\led/lv_led.c ****     LV_LOG_INFO("begin");
  57:..\..\..\arduinoLCD\test\Pain Drain\libraries\lvgl\src\extra\widgets\led/lv_led.c ****     lv_obj_t * obj = lv_obj_class_create_obj(MY_CLASS, parent);
  58:..\..\..\arduinoLCD\test\Pain Drain\libraries\lvgl\src\extra\widgets\led/lv_led.c ****     lv_obj_class_init_obj(obj);
  59:..\..\..\arduinoLCD\test\Pain Drain\libraries\lvgl\src\extra\widgets\led/lv_led.c ****     return obj;
  60:..\..\..\arduinoLCD\test\Pain Drain\libraries\lvgl\src\extra\widgets\led/lv_led.c **** }
  61:..\..\..\arduinoLCD\test\Pain Drain\libraries\lvgl\src\extra\widgets\led/lv_led.c **** 
  62:..\..\..\arduinoLCD\test\Pain Drain\libraries\lvgl\src\extra\widgets\led/lv_led.c **** /*=====================
  63:..\..\..\arduinoLCD\test\Pain Drain\libraries\lvgl\src\extra\widgets\led/lv_led.c ****  * Setter functions
  64:..\..\..\arduinoLCD\test\Pain Drain\libraries\lvgl\src\extra\widgets\led/lv_led.c ****  *====================*/
  65:..\..\..\arduinoLCD\test\Pain Drain\libraries\lvgl\src\extra\widgets\led/lv_led.c **** 
  66:..\..\..\arduinoLCD\test\Pain Drain\libraries\lvgl\src\extra\widgets\led/lv_led.c **** /**
  67:..\..\..\arduinoLCD\test\Pain Drain\libraries\lvgl\src\extra\widgets\led/lv_led.c ****  * Set the color of the LED
  68:..\..\..\arduinoLCD\test\Pain Drain\libraries\lvgl\src\extra\widgets\led/lv_led.c ****  * @param led       pointer to a LED object
  69:..\..\..\arduinoLCD\test\Pain Drain\libraries\lvgl\src\extra\widgets\led/lv_led.c ****  * @param color     the color of the LED
  70:..\..\..\arduinoLCD\test\Pain Drain\libraries\lvgl\src\extra\widgets\led/lv_led.c ****  */
  71:..\..\..\arduinoLCD\test\Pain Drain\libraries\lvgl\src\extra\widgets\led/lv_led.c **** void lv_led_set_color(lv_obj_t * obj, lv_color_t color)
  72:..\..\..\arduinoLCD\test\Pain Drain\libraries\lvgl\src\extra\widgets\led/lv_led.c **** {
  73:..\..\..\arduinoLCD\test\Pain Drain\libraries\lvgl\src\extra\widgets\led/lv_led.c ****     LV_ASSERT_OBJ(obj, MY_CLASS);
  74:..\..\..\arduinoLCD\test\Pain Drain\libraries\lvgl\src\extra\widgets\led/lv_led.c **** 
  75:..\..\..\arduinoLCD\test\Pain Drain\libraries\lvgl\src\extra\widgets\led/lv_led.c ****     lv_led_t * led = (lv_led_t *)obj;
  76:..\..\..\arduinoLCD\test\Pain Drain\libraries\lvgl\src\extra\widgets\led/lv_led.c ****     led->color = color;
  77:..\..\..\arduinoLCD\test\Pain Drain\libraries\lvgl\src\extra\widgets\led/lv_led.c ****     lv_obj_invalidate(obj);
  78:..\..\..\arduinoLCD\test\Pain Drain\libraries\lvgl\src\extra\widgets\led/lv_led.c **** }
  79:..\..\..\arduinoLCD\test\Pain Drain\libraries\lvgl\src\extra\widgets\led/lv_led.c **** 
  80:..\..\..\arduinoLCD\test\Pain Drain\libraries\lvgl\src\extra\widgets\led/lv_led.c **** /**
  81:..\..\..\arduinoLCD\test\Pain Drain\libraries\lvgl\src\extra\widgets\led/lv_led.c ****  * Set the brightness of a LED object
  82:..\..\..\arduinoLCD\test\Pain Drain\libraries\lvgl\src\extra\widgets\led/lv_led.c ****  * @param led pointer to a LED object
  83:..\..\..\arduinoLCD\test\Pain Drain\libraries\lvgl\src\extra\widgets\led/lv_led.c ****  * @param bright LV_LED_BRIGHT_MIN (max. dark) ... LV_LED_BRIGHT_MAX (max. light)
  84:..\..\..\arduinoLCD\test\Pain Drain\libraries\lvgl\src\extra\widgets\led/lv_led.c ****  */
  85:..\..\..\arduinoLCD\test\Pain Drain\libraries\lvgl\src\extra\widgets\led/lv_led.c **** void lv_led_set_brightness(lv_obj_t * obj, uint8_t bright)
  86:..\..\..\arduinoLCD\test\Pain Drain\libraries\lvgl\src\extra\widgets\led/lv_led.c **** {
  87:..\..\..\arduinoLCD\test\Pain Drain\libraries\lvgl\src\extra\widgets\led/lv_led.c ****     LV_ASSERT_OBJ(obj, MY_CLASS);
  88:..\..\..\arduinoLCD\test\Pain Drain\libraries\lvgl\src\extra\widgets\led/lv_led.c **** 
ARM GAS  C:\Users\haske\AppData\Local\Temp\ccoc8x2c.s 			page 3


  89:..\..\..\arduinoLCD\test\Pain Drain\libraries\lvgl\src\extra\widgets\led/lv_led.c ****     lv_led_t * led = (lv_led_t *)obj;
  90:..\..\..\arduinoLCD\test\Pain Drain\libraries\lvgl\src\extra\widgets\led/lv_led.c ****     if(led->bright == bright) return;
  91:..\..\..\arduinoLCD\test\Pain Drain\libraries\lvgl\src\extra\widgets\led/lv_led.c **** 
  92:..\..\..\arduinoLCD\test\Pain Drain\libraries\lvgl\src\extra\widgets\led/lv_led.c ****     led->bright = LV_CLAMP(LV_LED_BRIGHT_MIN, bright, LV_LED_BRIGHT_MAX);
  93:..\..\..\arduinoLCD\test\Pain Drain\libraries\lvgl\src\extra\widgets\led/lv_led.c **** 
  94:..\..\..\arduinoLCD\test\Pain Drain\libraries\lvgl\src\extra\widgets\led/lv_led.c ****     /*Invalidate the object there fore it will be redrawn*/
  95:..\..\..\arduinoLCD\test\Pain Drain\libraries\lvgl\src\extra\widgets\led/lv_led.c ****     lv_obj_invalidate(obj);
  96:..\..\..\arduinoLCD\test\Pain Drain\libraries\lvgl\src\extra\widgets\led/lv_led.c **** }
  97:..\..\..\arduinoLCD\test\Pain Drain\libraries\lvgl\src\extra\widgets\led/lv_led.c **** 
  98:..\..\..\arduinoLCD\test\Pain Drain\libraries\lvgl\src\extra\widgets\led/lv_led.c **** /**
  99:..\..\..\arduinoLCD\test\Pain Drain\libraries\lvgl\src\extra\widgets\led/lv_led.c ****  * Light on a LED
 100:..\..\..\arduinoLCD\test\Pain Drain\libraries\lvgl\src\extra\widgets\led/lv_led.c ****  * @param led pointer to a LED object
 101:..\..\..\arduinoLCD\test\Pain Drain\libraries\lvgl\src\extra\widgets\led/lv_led.c ****  */
 102:..\..\..\arduinoLCD\test\Pain Drain\libraries\lvgl\src\extra\widgets\led/lv_led.c **** void lv_led_on(lv_obj_t * led)
 103:..\..\..\arduinoLCD\test\Pain Drain\libraries\lvgl\src\extra\widgets\led/lv_led.c **** {
 104:..\..\..\arduinoLCD\test\Pain Drain\libraries\lvgl\src\extra\widgets\led/lv_led.c ****     lv_led_set_brightness(led, LV_LED_BRIGHT_MAX);
 105:..\..\..\arduinoLCD\test\Pain Drain\libraries\lvgl\src\extra\widgets\led/lv_led.c **** }
 106:..\..\..\arduinoLCD\test\Pain Drain\libraries\lvgl\src\extra\widgets\led/lv_led.c **** 
 107:..\..\..\arduinoLCD\test\Pain Drain\libraries\lvgl\src\extra\widgets\led/lv_led.c **** /**
 108:..\..\..\arduinoLCD\test\Pain Drain\libraries\lvgl\src\extra\widgets\led/lv_led.c ****  * Light off a LED
 109:..\..\..\arduinoLCD\test\Pain Drain\libraries\lvgl\src\extra\widgets\led/lv_led.c ****  * @param led pointer to a LED object
 110:..\..\..\arduinoLCD\test\Pain Drain\libraries\lvgl\src\extra\widgets\led/lv_led.c ****  */
 111:..\..\..\arduinoLCD\test\Pain Drain\libraries\lvgl\src\extra\widgets\led/lv_led.c **** void lv_led_off(lv_obj_t * led)
 112:..\..\..\arduinoLCD\test\Pain Drain\libraries\lvgl\src\extra\widgets\led/lv_led.c **** {
 113:..\..\..\arduinoLCD\test\Pain Drain\libraries\lvgl\src\extra\widgets\led/lv_led.c ****     lv_led_set_brightness(led, LV_LED_BRIGHT_MIN);
 114:..\..\..\arduinoLCD\test\Pain Drain\libraries\lvgl\src\extra\widgets\led/lv_led.c **** }
 115:..\..\..\arduinoLCD\test\Pain Drain\libraries\lvgl\src\extra\widgets\led/lv_led.c **** 
 116:..\..\..\arduinoLCD\test\Pain Drain\libraries\lvgl\src\extra\widgets\led/lv_led.c **** /**
 117:..\..\..\arduinoLCD\test\Pain Drain\libraries\lvgl\src\extra\widgets\led/lv_led.c ****  * Toggle the state of a LED
 118:..\..\..\arduinoLCD\test\Pain Drain\libraries\lvgl\src\extra\widgets\led/lv_led.c ****  * @param led pointer to a LED object
 119:..\..\..\arduinoLCD\test\Pain Drain\libraries\lvgl\src\extra\widgets\led/lv_led.c ****  */
 120:..\..\..\arduinoLCD\test\Pain Drain\libraries\lvgl\src\extra\widgets\led/lv_led.c **** void lv_led_toggle(lv_obj_t * obj)
 121:..\..\..\arduinoLCD\test\Pain Drain\libraries\lvgl\src\extra\widgets\led/lv_led.c **** {
 122:..\..\..\arduinoLCD\test\Pain Drain\libraries\lvgl\src\extra\widgets\led/lv_led.c ****     uint8_t bright = lv_led_get_brightness(obj);
 123:..\..\..\arduinoLCD\test\Pain Drain\libraries\lvgl\src\extra\widgets\led/lv_led.c ****     if(bright > (LV_LED_BRIGHT_MIN + LV_LED_BRIGHT_MAX) >> 1)
 124:..\..\..\arduinoLCD\test\Pain Drain\libraries\lvgl\src\extra\widgets\led/lv_led.c ****         lv_led_off(obj);
 125:..\..\..\arduinoLCD\test\Pain Drain\libraries\lvgl\src\extra\widgets\led/lv_led.c ****     else
 126:..\..\..\arduinoLCD\test\Pain Drain\libraries\lvgl\src\extra\widgets\led/lv_led.c ****         lv_led_on(obj);
 127:..\..\..\arduinoLCD\test\Pain Drain\libraries\lvgl\src\extra\widgets\led/lv_led.c **** }
 128:..\..\..\arduinoLCD\test\Pain Drain\libraries\lvgl\src\extra\widgets\led/lv_led.c **** 
 129:..\..\..\arduinoLCD\test\Pain Drain\libraries\lvgl\src\extra\widgets\led/lv_led.c **** /*=====================
 130:..\..\..\arduinoLCD\test\Pain Drain\libraries\lvgl\src\extra\widgets\led/lv_led.c ****  * Getter functions
 131:..\..\..\arduinoLCD\test\Pain Drain\libraries\lvgl\src\extra\widgets\led/lv_led.c ****  *====================*/
 132:..\..\..\arduinoLCD\test\Pain Drain\libraries\lvgl\src\extra\widgets\led/lv_led.c **** 
 133:..\..\..\arduinoLCD\test\Pain Drain\libraries\lvgl\src\extra\widgets\led/lv_led.c **** /**
 134:..\..\..\arduinoLCD\test\Pain Drain\libraries\lvgl\src\extra\widgets\led/lv_led.c ****  * Get the brightness of a LEd object
 135:..\..\..\arduinoLCD\test\Pain Drain\libraries\lvgl\src\extra\widgets\led/lv_led.c ****  * @param led pointer to LED object
 136:..\..\..\arduinoLCD\test\Pain Drain\libraries\lvgl\src\extra\widgets\led/lv_led.c ****  * @return bright 0 (max. dark) ... 255 (max. light)
 137:..\..\..\arduinoLCD\test\Pain Drain\libraries\lvgl\src\extra\widgets\led/lv_led.c ****  */
 138:..\..\..\arduinoLCD\test\Pain Drain\libraries\lvgl\src\extra\widgets\led/lv_led.c **** uint8_t lv_led_get_brightness(const lv_obj_t * obj)
 139:..\..\..\arduinoLCD\test\Pain Drain\libraries\lvgl\src\extra\widgets\led/lv_led.c **** {
 140:..\..\..\arduinoLCD\test\Pain Drain\libraries\lvgl\src\extra\widgets\led/lv_led.c ****     LV_ASSERT_OBJ(obj, MY_CLASS);
 141:..\..\..\arduinoLCD\test\Pain Drain\libraries\lvgl\src\extra\widgets\led/lv_led.c **** 
 142:..\..\..\arduinoLCD\test\Pain Drain\libraries\lvgl\src\extra\widgets\led/lv_led.c ****     lv_led_t * led = (lv_led_t *)obj;
 143:..\..\..\arduinoLCD\test\Pain Drain\libraries\lvgl\src\extra\widgets\led/lv_led.c ****     return led->bright;
 144:..\..\..\arduinoLCD\test\Pain Drain\libraries\lvgl\src\extra\widgets\led/lv_led.c **** }
 145:..\..\..\arduinoLCD\test\Pain Drain\libraries\lvgl\src\extra\widgets\led/lv_led.c **** 
ARM GAS  C:\Users\haske\AppData\Local\Temp\ccoc8x2c.s 			page 4


 146:..\..\..\arduinoLCD\test\Pain Drain\libraries\lvgl\src\extra\widgets\led/lv_led.c **** /**********************
 147:..\..\..\arduinoLCD\test\Pain Drain\libraries\lvgl\src\extra\widgets\led/lv_led.c ****  *   STATIC FUNCTIONS
 148:..\..\..\arduinoLCD\test\Pain Drain\libraries\lvgl\src\extra\widgets\led/lv_led.c ****  **********************/
 149:..\..\..\arduinoLCD\test\Pain Drain\libraries\lvgl\src\extra\widgets\led/lv_led.c **** 
 150:..\..\..\arduinoLCD\test\Pain Drain\libraries\lvgl\src\extra\widgets\led/lv_led.c **** static void lv_led_constructor(const lv_obj_class_t * class_p, lv_obj_t * obj)
 151:..\..\..\arduinoLCD\test\Pain Drain\libraries\lvgl\src\extra\widgets\led/lv_led.c **** {
  27              		.loc 1 151 0
  28              		.cfi_startproc
  29              		@ args = 0, pretend = 0, frame = 0
  30              		@ frame_needed = 0, uses_anonymous_args = 0
  31              	.LVL0:
  32 0000 10B5     		push	{r4, lr}
  33              		.cfi_def_cfa_offset 8
  34              		.cfi_offset 4, -8
  35              		.cfi_offset 14, -4
  36 0002 0C00     		movs	r4, r1
  37              	.LVL1:
 152:..\..\..\arduinoLCD\test\Pain Drain\libraries\lvgl\src\extra\widgets\led/lv_led.c ****     LV_UNUSED(class_p);
 153:..\..\..\arduinoLCD\test\Pain Drain\libraries\lvgl\src\extra\widgets\led/lv_led.c ****     lv_led_t * led = (lv_led_t *)obj;
 154:..\..\..\arduinoLCD\test\Pain Drain\libraries\lvgl\src\extra\widgets\led/lv_led.c ****     led->color = lv_theme_get_color_primary(obj);
  38              		.loc 1 154 0
  39 0004 0800     		movs	r0, r1
  40              	.LVL2:
  41 0006 FFF7FEFF 		bl	lv_theme_get_color_primary
  42              	.LVL3:
  43 000a A084     		strh	r0, [r4, #36]
 155:..\..\..\arduinoLCD\test\Pain Drain\libraries\lvgl\src\extra\widgets\led/lv_led.c ****     led->bright = LV_LED_BRIGHT_MAX;
  44              		.loc 1 155 0
  45 000c FF22     		movs	r2, #255
  46 000e 2623     		movs	r3, #38
  47 0010 E254     		strb	r2, [r4, r3]
 156:..\..\..\arduinoLCD\test\Pain Drain\libraries\lvgl\src\extra\widgets\led/lv_led.c **** }
  48              		.loc 1 156 0
  49              		@ sp needed
  50              	.LVL4:
  51 0012 10BD     		pop	{r4, pc}
  52              		.cfi_endproc
  53              	.LFE209:
  54              		.size	lv_led_constructor, .-lv_led_constructor
  55              		.global	__aeabi_idiv
  56              		.section	.text.lv_led_event,"ax",%progbits
  57              		.align	2
  58              		.code	16
  59              		.thumb_func
  60              		.type	lv_led_event, %function
  61              	lv_led_event:
  62              	.LFB210:
 157:..\..\..\arduinoLCD\test\Pain Drain\libraries\lvgl\src\extra\widgets\led/lv_led.c **** 
 158:..\..\..\arduinoLCD\test\Pain Drain\libraries\lvgl\src\extra\widgets\led/lv_led.c **** static void lv_led_event(const lv_obj_class_t * class_p, lv_event_t * e)
 159:..\..\..\arduinoLCD\test\Pain Drain\libraries\lvgl\src\extra\widgets\led/lv_led.c **** {
  63              		.loc 1 159 0
  64              		.cfi_startproc
  65              		@ args = 0, pretend = 0, frame = 144
  66              		@ frame_needed = 0, uses_anonymous_args = 0
  67              	.LVL5:
  68 0000 F0B5     		push	{r4, r5, r6, r7, lr}
  69              		.cfi_def_cfa_offset 20
ARM GAS  C:\Users\haske\AppData\Local\Temp\ccoc8x2c.s 			page 5


  70              		.cfi_offset 4, -20
  71              		.cfi_offset 5, -16
  72              		.cfi_offset 6, -12
  73              		.cfi_offset 7, -8
  74              		.cfi_offset 14, -4
  75 0002 5F46     		mov	r7, fp
  76 0004 5646     		mov	r6, r10
  77 0006 4D46     		mov	r5, r9
  78 0008 4446     		mov	r4, r8
  79 000a F0B4     		push	{r4, r5, r6, r7}
  80              		.cfi_def_cfa_offset 36
  81              		.cfi_offset 8, -36
  82              		.cfi_offset 9, -32
  83              		.cfi_offset 10, -28
  84              		.cfi_offset 11, -24
  85 000c A5B0     		sub	sp, sp, #148
  86              		.cfi_def_cfa_offset 184
  87 000e 0C00     		movs	r4, r1
  88 0010 0091     		str	r1, [sp]
 160:..\..\..\arduinoLCD\test\Pain Drain\libraries\lvgl\src\extra\widgets\led/lv_led.c ****     LV_UNUSED(class_p);
 161:..\..\..\arduinoLCD\test\Pain Drain\libraries\lvgl\src\extra\widgets\led/lv_led.c **** 
 162:..\..\..\arduinoLCD\test\Pain Drain\libraries\lvgl\src\extra\widgets\led/lv_led.c ****     lv_res_t res;
 163:..\..\..\arduinoLCD\test\Pain Drain\libraries\lvgl\src\extra\widgets\led/lv_led.c **** 
 164:..\..\..\arduinoLCD\test\Pain Drain\libraries\lvgl\src\extra\widgets\led/lv_led.c ****     /* Call the ancestor's event handler */
 165:..\..\..\arduinoLCD\test\Pain Drain\libraries\lvgl\src\extra\widgets\led/lv_led.c ****     lv_event_code_t code = lv_event_get_code(e);
  89              		.loc 1 165 0
  90 0012 0800     		movs	r0, r1
  91              	.LVL6:
  92 0014 FFF7FEFF 		bl	lv_event_get_code
  93              	.LVL7:
  94 0018 0500     		movs	r5, r0
  95              	.LVL8:
 166:..\..\..\arduinoLCD\test\Pain Drain\libraries\lvgl\src\extra\widgets\led/lv_led.c ****     if(code != LV_EVENT_DRAW_MAIN && code != LV_EVENT_DRAW_MAIN_END) {
  96              		.loc 1 166 0
  97 001a 1538     		subs	r0, r0, #21
  98              	.LVL9:
  99 001c C0B2     		uxtb	r0, r0
 100 001e 0128     		cmp	r0, #1
 101 0020 06D9     		bls	.L3
 167:..\..\..\arduinoLCD\test\Pain Drain\libraries\lvgl\src\extra\widgets\led/lv_led.c ****         res = lv_obj_event_base(MY_CLASS, e);
 102              		.loc 1 167 0
 103 0022 2100     		movs	r1, r4
 104 0024 F648     		ldr	r0, .L5
 105 0026 FFF7FEFF 		bl	lv_obj_event_base
 106              	.LVL10:
 168:..\..\..\arduinoLCD\test\Pain Drain\libraries\lvgl\src\extra\widgets\led/lv_led.c ****         if(res != LV_RES_OK) return;
 107              		.loc 1 168 0
 108 002a 0128     		cmp	r0, #1
 109 002c 00D0     		beq	.LCB75
 110 002e 4DE2     		b	.L2	@long jump
 111              	.LCB75:
 112              	.LVL11:
 113              	.L3:
 169:..\..\..\arduinoLCD\test\Pain Drain\libraries\lvgl\src\extra\widgets\led/lv_led.c ****     }
 170:..\..\..\arduinoLCD\test\Pain Drain\libraries\lvgl\src\extra\widgets\led/lv_led.c **** 
 171:..\..\..\arduinoLCD\test\Pain Drain\libraries\lvgl\src\extra\widgets\led/lv_led.c ****     lv_obj_t * obj = lv_event_get_target(e);
 114              		.loc 1 171 0
ARM GAS  C:\Users\haske\AppData\Local\Temp\ccoc8x2c.s 			page 6


 115 0030 0098     		ldr	r0, [sp]
 116 0032 FFF7FEFF 		bl	lv_event_get_target
 117              	.LVL12:
 118 0036 0700     		movs	r7, r0
 119              	.LVL13:
 172:..\..\..\arduinoLCD\test\Pain Drain\libraries\lvgl\src\extra\widgets\led/lv_led.c ****     if(code == LV_EVENT_DRAW_MAIN) {
 120              		.loc 1 172 0
 121 0038 152D     		cmp	r5, #21
 122 003a 00D0     		beq	.LCB84
 123 003c 46E2     		b	.L2	@long jump
 124              	.LCB84:
 125              	.LVL14:
 126              	.LBB164:
 173:..\..\..\arduinoLCD\test\Pain Drain\libraries\lvgl\src\extra\widgets\led/lv_led.c ****         /*Make darker colors in a temporary style according to the brightness*/
 174:..\..\..\arduinoLCD\test\Pain Drain\libraries\lvgl\src\extra\widgets\led/lv_led.c ****         lv_led_t * led = (lv_led_t *)obj;
 175:..\..\..\arduinoLCD\test\Pain Drain\libraries\lvgl\src\extra\widgets\led/lv_led.c **** 
 176:..\..\..\arduinoLCD\test\Pain Drain\libraries\lvgl\src\extra\widgets\led/lv_led.c ****         lv_draw_rect_dsc_t rect_dsc;
 177:..\..\..\arduinoLCD\test\Pain Drain\libraries\lvgl\src\extra\widgets\led/lv_led.c ****         lv_draw_rect_dsc_init(&rect_dsc);
 127              		.loc 1 177 0 discriminator 2
 128 003e 04A8     		add	r0, sp, #16
 129              	.LVL15:
 130 0040 FFF7FEFF 		bl	lv_draw_rect_dsc_init
 131              	.LVL16:
 178:..\..\..\arduinoLCD\test\Pain Drain\libraries\lvgl\src\extra\widgets\led/lv_led.c ****         lv_obj_init_draw_rect_dsc(obj, LV_PART_MAIN, &rect_dsc);
 132              		.loc 1 178 0 discriminator 2
 133 0044 04AA     		add	r2, sp, #16
 134 0046 0021     		movs	r1, #0
 135 0048 3800     		movs	r0, r7
 136 004a FFF7FEFF 		bl	lv_obj_init_draw_rect_dsc
 137              	.LVL17:
 138 004e 04AB     		add	r3, sp, #16
 139 0050 9988     		ldrh	r1, [r3, #4]
 140              	.LBB165:
 141              	.LBB166:
 142              	.LBB167:
 143              	.LBB168:
 144              		.file 2 "c:\\projects\\paindrain\\arduinolcd\\test\\pain drain\\libraries\\lvgl\\src\\misc\\lv_col
   1:c:\projects\paindrain\arduinolcd\test\pain drain\libraries\lvgl\src\misc\lv_color.h **** /**
   2:c:\projects\paindrain\arduinolcd\test\pain drain\libraries\lvgl\src\misc\lv_color.h ****  * @file lv_color.h
   3:c:\projects\paindrain\arduinolcd\test\pain drain\libraries\lvgl\src\misc\lv_color.h ****  *
   4:c:\projects\paindrain\arduinolcd\test\pain drain\libraries\lvgl\src\misc\lv_color.h ****  */
   5:c:\projects\paindrain\arduinolcd\test\pain drain\libraries\lvgl\src\misc\lv_color.h **** 
   6:c:\projects\paindrain\arduinolcd\test\pain drain\libraries\lvgl\src\misc\lv_color.h **** #ifndef LV_COLOR_H
   7:c:\projects\paindrain\arduinolcd\test\pain drain\libraries\lvgl\src\misc\lv_color.h **** #define LV_COLOR_H
   8:c:\projects\paindrain\arduinolcd\test\pain drain\libraries\lvgl\src\misc\lv_color.h **** 
   9:c:\projects\paindrain\arduinolcd\test\pain drain\libraries\lvgl\src\misc\lv_color.h **** #ifdef __cplusplus
  10:c:\projects\paindrain\arduinolcd\test\pain drain\libraries\lvgl\src\misc\lv_color.h **** extern "C" {
  11:c:\projects\paindrain\arduinolcd\test\pain drain\libraries\lvgl\src\misc\lv_color.h **** #endif
  12:c:\projects\paindrain\arduinolcd\test\pain drain\libraries\lvgl\src\misc\lv_color.h **** 
  13:c:\projects\paindrain\arduinolcd\test\pain drain\libraries\lvgl\src\misc\lv_color.h **** /*********************
  14:c:\projects\paindrain\arduinolcd\test\pain drain\libraries\lvgl\src\misc\lv_color.h ****  *      INCLUDES
  15:c:\projects\paindrain\arduinolcd\test\pain drain\libraries\lvgl\src\misc\lv_color.h ****  *********************/
  16:c:\projects\paindrain\arduinolcd\test\pain drain\libraries\lvgl\src\misc\lv_color.h **** #include "../lv_conf_internal.h"
  17:c:\projects\paindrain\arduinolcd\test\pain drain\libraries\lvgl\src\misc\lv_color.h **** #include "lv_assert.h"
  18:c:\projects\paindrain\arduinolcd\test\pain drain\libraries\lvgl\src\misc\lv_color.h **** #include "lv_math.h"
  19:c:\projects\paindrain\arduinolcd\test\pain drain\libraries\lvgl\src\misc\lv_color.h **** #include "lv_types.h"
  20:c:\projects\paindrain\arduinolcd\test\pain drain\libraries\lvgl\src\misc\lv_color.h **** 
ARM GAS  C:\Users\haske\AppData\Local\Temp\ccoc8x2c.s 			page 7


  21:c:\projects\paindrain\arduinolcd\test\pain drain\libraries\lvgl\src\misc\lv_color.h **** /*Error checking*/
  22:c:\projects\paindrain\arduinolcd\test\pain drain\libraries\lvgl\src\misc\lv_color.h **** #if LV_COLOR_DEPTH == 24
  23:c:\projects\paindrain\arduinolcd\test\pain drain\libraries\lvgl\src\misc\lv_color.h **** #error "LV_COLOR_DEPTH 24 is deprecated. Use LV_COLOR_DEPTH 32 instead (lv_conf.h)"
  24:c:\projects\paindrain\arduinolcd\test\pain drain\libraries\lvgl\src\misc\lv_color.h **** #endif
  25:c:\projects\paindrain\arduinolcd\test\pain drain\libraries\lvgl\src\misc\lv_color.h **** 
  26:c:\projects\paindrain\arduinolcd\test\pain drain\libraries\lvgl\src\misc\lv_color.h **** #if LV_COLOR_DEPTH != 16 && LV_COLOR_16_SWAP != 0
  27:c:\projects\paindrain\arduinolcd\test\pain drain\libraries\lvgl\src\misc\lv_color.h **** #error "LV_COLOR_16_SWAP requires LV_COLOR_DEPTH == 16. Set it in lv_conf.h"
  28:c:\projects\paindrain\arduinolcd\test\pain drain\libraries\lvgl\src\misc\lv_color.h **** #endif
  29:c:\projects\paindrain\arduinolcd\test\pain drain\libraries\lvgl\src\misc\lv_color.h **** 
  30:c:\projects\paindrain\arduinolcd\test\pain drain\libraries\lvgl\src\misc\lv_color.h **** #include <stdint.h>
  31:c:\projects\paindrain\arduinolcd\test\pain drain\libraries\lvgl\src\misc\lv_color.h **** 
  32:c:\projects\paindrain\arduinolcd\test\pain drain\libraries\lvgl\src\misc\lv_color.h **** /*********************
  33:c:\projects\paindrain\arduinolcd\test\pain drain\libraries\lvgl\src\misc\lv_color.h ****  *      DEFINES
  34:c:\projects\paindrain\arduinolcd\test\pain drain\libraries\lvgl\src\misc\lv_color.h ****  *********************/
  35:c:\projects\paindrain\arduinolcd\test\pain drain\libraries\lvgl\src\misc\lv_color.h **** LV_EXPORT_CONST_INT(LV_COLOR_DEPTH);
  36:c:\projects\paindrain\arduinolcd\test\pain drain\libraries\lvgl\src\misc\lv_color.h **** LV_EXPORT_CONST_INT(LV_COLOR_16_SWAP);
  37:c:\projects\paindrain\arduinolcd\test\pain drain\libraries\lvgl\src\misc\lv_color.h **** 
  38:c:\projects\paindrain\arduinolcd\test\pain drain\libraries\lvgl\src\misc\lv_color.h **** /**
  39:c:\projects\paindrain\arduinolcd\test\pain drain\libraries\lvgl\src\misc\lv_color.h ****  * Opacity percentages.
  40:c:\projects\paindrain\arduinolcd\test\pain drain\libraries\lvgl\src\misc\lv_color.h ****  */
  41:c:\projects\paindrain\arduinolcd\test\pain drain\libraries\lvgl\src\misc\lv_color.h **** enum {
  42:c:\projects\paindrain\arduinolcd\test\pain drain\libraries\lvgl\src\misc\lv_color.h ****     LV_OPA_TRANSP = 0,
  43:c:\projects\paindrain\arduinolcd\test\pain drain\libraries\lvgl\src\misc\lv_color.h ****     LV_OPA_0      = 0,
  44:c:\projects\paindrain\arduinolcd\test\pain drain\libraries\lvgl\src\misc\lv_color.h ****     LV_OPA_10     = 25,
  45:c:\projects\paindrain\arduinolcd\test\pain drain\libraries\lvgl\src\misc\lv_color.h ****     LV_OPA_20     = 51,
  46:c:\projects\paindrain\arduinolcd\test\pain drain\libraries\lvgl\src\misc\lv_color.h ****     LV_OPA_30     = 76,
  47:c:\projects\paindrain\arduinolcd\test\pain drain\libraries\lvgl\src\misc\lv_color.h ****     LV_OPA_40     = 102,
  48:c:\projects\paindrain\arduinolcd\test\pain drain\libraries\lvgl\src\misc\lv_color.h ****     LV_OPA_50     = 127,
  49:c:\projects\paindrain\arduinolcd\test\pain drain\libraries\lvgl\src\misc\lv_color.h ****     LV_OPA_60     = 153,
  50:c:\projects\paindrain\arduinolcd\test\pain drain\libraries\lvgl\src\misc\lv_color.h ****     LV_OPA_70     = 178,
  51:c:\projects\paindrain\arduinolcd\test\pain drain\libraries\lvgl\src\misc\lv_color.h ****     LV_OPA_80     = 204,
  52:c:\projects\paindrain\arduinolcd\test\pain drain\libraries\lvgl\src\misc\lv_color.h ****     LV_OPA_90     = 229,
  53:c:\projects\paindrain\arduinolcd\test\pain drain\libraries\lvgl\src\misc\lv_color.h ****     LV_OPA_100    = 255,
  54:c:\projects\paindrain\arduinolcd\test\pain drain\libraries\lvgl\src\misc\lv_color.h ****     LV_OPA_COVER  = 255,
  55:c:\projects\paindrain\arduinolcd\test\pain drain\libraries\lvgl\src\misc\lv_color.h **** };
  56:c:\projects\paindrain\arduinolcd\test\pain drain\libraries\lvgl\src\misc\lv_color.h **** 
  57:c:\projects\paindrain\arduinolcd\test\pain drain\libraries\lvgl\src\misc\lv_color.h **** #define LV_OPA_MIN 2    /*Opacities below this will be transparent*/
  58:c:\projects\paindrain\arduinolcd\test\pain drain\libraries\lvgl\src\misc\lv_color.h **** #define LV_OPA_MAX 253  /*Opacities above this will fully cover*/
  59:c:\projects\paindrain\arduinolcd\test\pain drain\libraries\lvgl\src\misc\lv_color.h **** 
  60:c:\projects\paindrain\arduinolcd\test\pain drain\libraries\lvgl\src\misc\lv_color.h **** #if LV_COLOR_DEPTH == 1
  61:c:\projects\paindrain\arduinolcd\test\pain drain\libraries\lvgl\src\misc\lv_color.h **** #define LV_COLOR_SIZE 8
  62:c:\projects\paindrain\arduinolcd\test\pain drain\libraries\lvgl\src\misc\lv_color.h **** #elif LV_COLOR_DEPTH == 8
  63:c:\projects\paindrain\arduinolcd\test\pain drain\libraries\lvgl\src\misc\lv_color.h **** #define LV_COLOR_SIZE 8
  64:c:\projects\paindrain\arduinolcd\test\pain drain\libraries\lvgl\src\misc\lv_color.h **** #elif LV_COLOR_DEPTH == 16
  65:c:\projects\paindrain\arduinolcd\test\pain drain\libraries\lvgl\src\misc\lv_color.h **** #define LV_COLOR_SIZE 16
  66:c:\projects\paindrain\arduinolcd\test\pain drain\libraries\lvgl\src\misc\lv_color.h **** #elif LV_COLOR_DEPTH == 32
  67:c:\projects\paindrain\arduinolcd\test\pain drain\libraries\lvgl\src\misc\lv_color.h **** #define LV_COLOR_SIZE 32
  68:c:\projects\paindrain\arduinolcd\test\pain drain\libraries\lvgl\src\misc\lv_color.h **** #else
  69:c:\projects\paindrain\arduinolcd\test\pain drain\libraries\lvgl\src\misc\lv_color.h **** #error "Invalid LV_COLOR_DEPTH in lv_conf.h! Set it to 1, 8, 16 or 32!"
  70:c:\projects\paindrain\arduinolcd\test\pain drain\libraries\lvgl\src\misc\lv_color.h **** #endif
  71:c:\projects\paindrain\arduinolcd\test\pain drain\libraries\lvgl\src\misc\lv_color.h **** 
  72:c:\projects\paindrain\arduinolcd\test\pain drain\libraries\lvgl\src\misc\lv_color.h **** #if defined(__cplusplus) && !defined(_LV_COLOR_HAS_MODERN_CPP)
  73:c:\projects\paindrain\arduinolcd\test\pain drain\libraries\lvgl\src\misc\lv_color.h **** /**
  74:c:\projects\paindrain\arduinolcd\test\pain drain\libraries\lvgl\src\misc\lv_color.h **** * MSVC compiler's definition of the __cplusplus indicating 199711L regardless to C++ standard versi
  75:c:\projects\paindrain\arduinolcd\test\pain drain\libraries\lvgl\src\misc\lv_color.h **** * see https://devblogs.microsoft.com/cppblog/msvc-now-correctly-reports-cplusplus
  76:c:\projects\paindrain\arduinolcd\test\pain drain\libraries\lvgl\src\misc\lv_color.h **** * so we use _MSC_VER macro instead of __cplusplus
  77:c:\projects\paindrain\arduinolcd\test\pain drain\libraries\lvgl\src\misc\lv_color.h **** */
ARM GAS  C:\Users\haske\AppData\Local\Temp\ccoc8x2c.s 			page 8


  78:c:\projects\paindrain\arduinolcd\test\pain drain\libraries\lvgl\src\misc\lv_color.h **** #ifdef _MSC_VER
  79:c:\projects\paindrain\arduinolcd\test\pain drain\libraries\lvgl\src\misc\lv_color.h **** #if _MSC_VER >= 1900 /*Visual Studio 2015*/
  80:c:\projects\paindrain\arduinolcd\test\pain drain\libraries\lvgl\src\misc\lv_color.h **** #define _LV_COLOR_HAS_MODERN_CPP 1
  81:c:\projects\paindrain\arduinolcd\test\pain drain\libraries\lvgl\src\misc\lv_color.h **** #endif
  82:c:\projects\paindrain\arduinolcd\test\pain drain\libraries\lvgl\src\misc\lv_color.h **** #else
  83:c:\projects\paindrain\arduinolcd\test\pain drain\libraries\lvgl\src\misc\lv_color.h **** #if __cplusplus >= 201103L
  84:c:\projects\paindrain\arduinolcd\test\pain drain\libraries\lvgl\src\misc\lv_color.h **** #define _LV_COLOR_HAS_MODERN_CPP 1
  85:c:\projects\paindrain\arduinolcd\test\pain drain\libraries\lvgl\src\misc\lv_color.h **** #endif
  86:c:\projects\paindrain\arduinolcd\test\pain drain\libraries\lvgl\src\misc\lv_color.h **** #endif
  87:c:\projects\paindrain\arduinolcd\test\pain drain\libraries\lvgl\src\misc\lv_color.h **** #endif /*__cplusplus*/
  88:c:\projects\paindrain\arduinolcd\test\pain drain\libraries\lvgl\src\misc\lv_color.h **** 
  89:c:\projects\paindrain\arduinolcd\test\pain drain\libraries\lvgl\src\misc\lv_color.h **** #ifndef _LV_COLOR_HAS_MODERN_CPP
  90:c:\projects\paindrain\arduinolcd\test\pain drain\libraries\lvgl\src\misc\lv_color.h **** #define _LV_COLOR_HAS_MODERN_CPP 0
  91:c:\projects\paindrain\arduinolcd\test\pain drain\libraries\lvgl\src\misc\lv_color.h **** #endif
  92:c:\projects\paindrain\arduinolcd\test\pain drain\libraries\lvgl\src\misc\lv_color.h **** 
  93:c:\projects\paindrain\arduinolcd\test\pain drain\libraries\lvgl\src\misc\lv_color.h **** #if _LV_COLOR_HAS_MODERN_CPP
  94:c:\projects\paindrain\arduinolcd\test\pain drain\libraries\lvgl\src\misc\lv_color.h **** /*Fix msvc compiler error C4576 inside C++ code*/
  95:c:\projects\paindrain\arduinolcd\test\pain drain\libraries\lvgl\src\misc\lv_color.h **** #define _LV_COLOR_MAKE_TYPE_HELPER lv_color_t
  96:c:\projects\paindrain\arduinolcd\test\pain drain\libraries\lvgl\src\misc\lv_color.h **** #else
  97:c:\projects\paindrain\arduinolcd\test\pain drain\libraries\lvgl\src\misc\lv_color.h **** #define _LV_COLOR_MAKE_TYPE_HELPER (lv_color_t)
  98:c:\projects\paindrain\arduinolcd\test\pain drain\libraries\lvgl\src\misc\lv_color.h **** #endif
  99:c:\projects\paindrain\arduinolcd\test\pain drain\libraries\lvgl\src\misc\lv_color.h **** 
 100:c:\projects\paindrain\arduinolcd\test\pain drain\libraries\lvgl\src\misc\lv_color.h **** /*---------------------------------------
 101:c:\projects\paindrain\arduinolcd\test\pain drain\libraries\lvgl\src\misc\lv_color.h ****  * Macros for all existing color depths
 102:c:\projects\paindrain\arduinolcd\test\pain drain\libraries\lvgl\src\misc\lv_color.h ****  * to set/get values of the color channels
 103:c:\projects\paindrain\arduinolcd\test\pain drain\libraries\lvgl\src\misc\lv_color.h ****  *------------------------------------------*/
 104:c:\projects\paindrain\arduinolcd\test\pain drain\libraries\lvgl\src\misc\lv_color.h **** # define LV_COLOR_SET_R1(c, v) (c).ch.red = (uint8_t)((v) & 0x1)
 105:c:\projects\paindrain\arduinolcd\test\pain drain\libraries\lvgl\src\misc\lv_color.h **** # define LV_COLOR_SET_G1(c, v) (c).ch.green = (uint8_t)((v) & 0x1)
 106:c:\projects\paindrain\arduinolcd\test\pain drain\libraries\lvgl\src\misc\lv_color.h **** # define LV_COLOR_SET_B1(c, v) (c).ch.blue = (uint8_t)((v) & 0x1)
 107:c:\projects\paindrain\arduinolcd\test\pain drain\libraries\lvgl\src\misc\lv_color.h **** # define LV_COLOR_SET_A1(c, v) do {} while(0)
 108:c:\projects\paindrain\arduinolcd\test\pain drain\libraries\lvgl\src\misc\lv_color.h **** 
 109:c:\projects\paindrain\arduinolcd\test\pain drain\libraries\lvgl\src\misc\lv_color.h **** # define LV_COLOR_GET_R1(c) (c).ch.red
 110:c:\projects\paindrain\arduinolcd\test\pain drain\libraries\lvgl\src\misc\lv_color.h **** # define LV_COLOR_GET_G1(c) (c).ch.green
 111:c:\projects\paindrain\arduinolcd\test\pain drain\libraries\lvgl\src\misc\lv_color.h **** # define LV_COLOR_GET_B1(c) (c).ch.blue
 112:c:\projects\paindrain\arduinolcd\test\pain drain\libraries\lvgl\src\misc\lv_color.h **** # define LV_COLOR_GET_A1(c) 0xFF
 113:c:\projects\paindrain\arduinolcd\test\pain drain\libraries\lvgl\src\misc\lv_color.h **** 
 114:c:\projects\paindrain\arduinolcd\test\pain drain\libraries\lvgl\src\misc\lv_color.h **** # define _LV_COLOR_ZERO_INITIALIZER1 {0x00}
 115:c:\projects\paindrain\arduinolcd\test\pain drain\libraries\lvgl\src\misc\lv_color.h **** # define LV_COLOR_MAKE1(r8, g8, b8)  {(uint8_t)((b8 >> 7) | (g8 >> 7) | (r8 >> 7))}
 116:c:\projects\paindrain\arduinolcd\test\pain drain\libraries\lvgl\src\misc\lv_color.h **** 
 117:c:\projects\paindrain\arduinolcd\test\pain drain\libraries\lvgl\src\misc\lv_color.h **** # define LV_COLOR_SET_R8(c, v) (c).ch.red = (uint8_t)((v) & 0x7U)
 118:c:\projects\paindrain\arduinolcd\test\pain drain\libraries\lvgl\src\misc\lv_color.h **** # define LV_COLOR_SET_G8(c, v) (c).ch.green = (uint8_t)((v) & 0x7U)
 119:c:\projects\paindrain\arduinolcd\test\pain drain\libraries\lvgl\src\misc\lv_color.h **** # define LV_COLOR_SET_B8(c, v) (c).ch.blue = (uint8_t)((v) & 0x3U)
 120:c:\projects\paindrain\arduinolcd\test\pain drain\libraries\lvgl\src\misc\lv_color.h **** # define LV_COLOR_SET_A8(c, v) do {} while(0)
 121:c:\projects\paindrain\arduinolcd\test\pain drain\libraries\lvgl\src\misc\lv_color.h **** 
 122:c:\projects\paindrain\arduinolcd\test\pain drain\libraries\lvgl\src\misc\lv_color.h **** # define LV_COLOR_GET_R8(c) (c).ch.red
 123:c:\projects\paindrain\arduinolcd\test\pain drain\libraries\lvgl\src\misc\lv_color.h **** # define LV_COLOR_GET_G8(c) (c).ch.green
 124:c:\projects\paindrain\arduinolcd\test\pain drain\libraries\lvgl\src\misc\lv_color.h **** # define LV_COLOR_GET_B8(c) (c).ch.blue
 125:c:\projects\paindrain\arduinolcd\test\pain drain\libraries\lvgl\src\misc\lv_color.h **** # define LV_COLOR_GET_A8(c) 0xFF
 126:c:\projects\paindrain\arduinolcd\test\pain drain\libraries\lvgl\src\misc\lv_color.h **** 
 127:c:\projects\paindrain\arduinolcd\test\pain drain\libraries\lvgl\src\misc\lv_color.h **** # define _LV_COLOR_ZERO_INITIALIZER8 {{0x00, 0x00, 0x00}}
 128:c:\projects\paindrain\arduinolcd\test\pain drain\libraries\lvgl\src\misc\lv_color.h **** # define LV_COLOR_MAKE8(r8, g8, b8) {{(uint8_t)((b8 >> 6) & 0x3U), (uint8_t)((g8 >> 5) & 0x7U), (ui
 129:c:\projects\paindrain\arduinolcd\test\pain drain\libraries\lvgl\src\misc\lv_color.h **** 
 130:c:\projects\paindrain\arduinolcd\test\pain drain\libraries\lvgl\src\misc\lv_color.h **** # define LV_COLOR_SET_R16(c, v) (c).ch.red = (uint8_t)((v) & 0x1FU)
 131:c:\projects\paindrain\arduinolcd\test\pain drain\libraries\lvgl\src\misc\lv_color.h **** #if LV_COLOR_16_SWAP == 0
 132:c:\projects\paindrain\arduinolcd\test\pain drain\libraries\lvgl\src\misc\lv_color.h **** # define LV_COLOR_SET_G16(c, v) (c).ch.green = (uint8_t)((v) & 0x3FU)
 133:c:\projects\paindrain\arduinolcd\test\pain drain\libraries\lvgl\src\misc\lv_color.h **** #else
 134:c:\projects\paindrain\arduinolcd\test\pain drain\libraries\lvgl\src\misc\lv_color.h **** # define LV_COLOR_SET_G16(c, v) {(c).ch.green_h = (uint8_t)(((v) >> 3) & 0x7); (c).ch.green_l = (ui
ARM GAS  C:\Users\haske\AppData\Local\Temp\ccoc8x2c.s 			page 9


 135:c:\projects\paindrain\arduinolcd\test\pain drain\libraries\lvgl\src\misc\lv_color.h **** #endif
 136:c:\projects\paindrain\arduinolcd\test\pain drain\libraries\lvgl\src\misc\lv_color.h **** # define LV_COLOR_SET_B16(c, v) (c).ch.blue = (uint8_t)((v) & 0x1FU)
 137:c:\projects\paindrain\arduinolcd\test\pain drain\libraries\lvgl\src\misc\lv_color.h **** # define LV_COLOR_SET_A16(c, v) do {} while(0)
 138:c:\projects\paindrain\arduinolcd\test\pain drain\libraries\lvgl\src\misc\lv_color.h **** 
 139:c:\projects\paindrain\arduinolcd\test\pain drain\libraries\lvgl\src\misc\lv_color.h **** # define LV_COLOR_GET_R16(c) (c).ch.red
 140:c:\projects\paindrain\arduinolcd\test\pain drain\libraries\lvgl\src\misc\lv_color.h **** #if LV_COLOR_16_SWAP == 0
 141:c:\projects\paindrain\arduinolcd\test\pain drain\libraries\lvgl\src\misc\lv_color.h **** # define LV_COLOR_GET_G16(c) (c).ch.green
 142:c:\projects\paindrain\arduinolcd\test\pain drain\libraries\lvgl\src\misc\lv_color.h **** #else
 143:c:\projects\paindrain\arduinolcd\test\pain drain\libraries\lvgl\src\misc\lv_color.h **** # define LV_COLOR_GET_G16(c) (((c).ch.green_h << 3) + (c).ch.green_l)
 144:c:\projects\paindrain\arduinolcd\test\pain drain\libraries\lvgl\src\misc\lv_color.h **** #endif
 145:c:\projects\paindrain\arduinolcd\test\pain drain\libraries\lvgl\src\misc\lv_color.h **** # define LV_COLOR_GET_B16(c) (c).ch.blue
 146:c:\projects\paindrain\arduinolcd\test\pain drain\libraries\lvgl\src\misc\lv_color.h **** # define LV_COLOR_GET_A16(c) 0xFF
 147:c:\projects\paindrain\arduinolcd\test\pain drain\libraries\lvgl\src\misc\lv_color.h **** 
 148:c:\projects\paindrain\arduinolcd\test\pain drain\libraries\lvgl\src\misc\lv_color.h **** #if LV_COLOR_16_SWAP == 0
 149:c:\projects\paindrain\arduinolcd\test\pain drain\libraries\lvgl\src\misc\lv_color.h **** # define _LV_COLOR_ZERO_INITIALIZER16  {{0x00, 0x00, 0x00}}
 150:c:\projects\paindrain\arduinolcd\test\pain drain\libraries\lvgl\src\misc\lv_color.h **** # define LV_COLOR_MAKE16(r8, g8, b8) {{(uint8_t)((b8 >> 3) & 0x1FU), (uint8_t)((g8 >> 2) & 0x3FU), 
 151:c:\projects\paindrain\arduinolcd\test\pain drain\libraries\lvgl\src\misc\lv_color.h **** #else
 152:c:\projects\paindrain\arduinolcd\test\pain drain\libraries\lvgl\src\misc\lv_color.h **** # define _LV_COLOR_ZERO_INITIALIZER16 {{0x00, 0x00, 0x00, 0x00}}
 153:c:\projects\paindrain\arduinolcd\test\pain drain\libraries\lvgl\src\misc\lv_color.h **** # define LV_COLOR_MAKE16(r8, g8, b8) {{(uint8_t)((g8 >> 5) & 0x7U), (uint8_t)((r8 >> 3) & 0x1FU), (
 154:c:\projects\paindrain\arduinolcd\test\pain drain\libraries\lvgl\src\misc\lv_color.h **** #endif
 155:c:\projects\paindrain\arduinolcd\test\pain drain\libraries\lvgl\src\misc\lv_color.h **** 
 156:c:\projects\paindrain\arduinolcd\test\pain drain\libraries\lvgl\src\misc\lv_color.h **** # define LV_COLOR_SET_R32(c, v) (c).ch.red = (uint8_t)((v) & 0xFF)
 157:c:\projects\paindrain\arduinolcd\test\pain drain\libraries\lvgl\src\misc\lv_color.h **** # define LV_COLOR_SET_G32(c, v) (c).ch.green = (uint8_t)((v) & 0xFF)
 158:c:\projects\paindrain\arduinolcd\test\pain drain\libraries\lvgl\src\misc\lv_color.h **** # define LV_COLOR_SET_B32(c, v) (c).ch.blue = (uint8_t)((v) & 0xFF)
 159:c:\projects\paindrain\arduinolcd\test\pain drain\libraries\lvgl\src\misc\lv_color.h **** # define LV_COLOR_SET_A32(c, v) (c).ch.alpha = (uint8_t)((v) & 0xFF)
 160:c:\projects\paindrain\arduinolcd\test\pain drain\libraries\lvgl\src\misc\lv_color.h **** 
 161:c:\projects\paindrain\arduinolcd\test\pain drain\libraries\lvgl\src\misc\lv_color.h **** # define LV_COLOR_GET_R32(c) (c).ch.red
 162:c:\projects\paindrain\arduinolcd\test\pain drain\libraries\lvgl\src\misc\lv_color.h **** # define LV_COLOR_GET_G32(c) (c).ch.green
 163:c:\projects\paindrain\arduinolcd\test\pain drain\libraries\lvgl\src\misc\lv_color.h **** # define LV_COLOR_GET_B32(c) (c).ch.blue
 164:c:\projects\paindrain\arduinolcd\test\pain drain\libraries\lvgl\src\misc\lv_color.h **** # define LV_COLOR_GET_A32(c) (c).ch.alpha
 165:c:\projects\paindrain\arduinolcd\test\pain drain\libraries\lvgl\src\misc\lv_color.h **** 
 166:c:\projects\paindrain\arduinolcd\test\pain drain\libraries\lvgl\src\misc\lv_color.h **** # define _LV_COLOR_ZERO_INITIALIZER32  {{0x00, 0x00, 0x00, 0x00}}
 167:c:\projects\paindrain\arduinolcd\test\pain drain\libraries\lvgl\src\misc\lv_color.h **** # define LV_COLOR_MAKE32(r8, g8, b8) {{b8, g8, r8, 0xff}} /*Fix 0xff alpha*/
 168:c:\projects\paindrain\arduinolcd\test\pain drain\libraries\lvgl\src\misc\lv_color.h **** 
 169:c:\projects\paindrain\arduinolcd\test\pain drain\libraries\lvgl\src\misc\lv_color.h **** /*---------------------------------------
 170:c:\projects\paindrain\arduinolcd\test\pain drain\libraries\lvgl\src\misc\lv_color.h ****  * Macros for the current color depth
 171:c:\projects\paindrain\arduinolcd\test\pain drain\libraries\lvgl\src\misc\lv_color.h ****  * to set/get values of the color channels
 172:c:\projects\paindrain\arduinolcd\test\pain drain\libraries\lvgl\src\misc\lv_color.h ****  *------------------------------------------*/
 173:c:\projects\paindrain\arduinolcd\test\pain drain\libraries\lvgl\src\misc\lv_color.h **** #define LV_COLOR_SET_R(c, v) LV_CONCAT(LV_COLOR_SET_R, LV_COLOR_DEPTH)(c, v)
 174:c:\projects\paindrain\arduinolcd\test\pain drain\libraries\lvgl\src\misc\lv_color.h **** #define LV_COLOR_SET_G(c, v) LV_CONCAT(LV_COLOR_SET_G, LV_COLOR_DEPTH)(c, v)
 175:c:\projects\paindrain\arduinolcd\test\pain drain\libraries\lvgl\src\misc\lv_color.h **** #define LV_COLOR_SET_B(c, v) LV_CONCAT(LV_COLOR_SET_B, LV_COLOR_DEPTH)(c, v)
 176:c:\projects\paindrain\arduinolcd\test\pain drain\libraries\lvgl\src\misc\lv_color.h **** #define LV_COLOR_SET_A(c, v) LV_CONCAT(LV_COLOR_SET_A, LV_COLOR_DEPTH)(c, v)
 177:c:\projects\paindrain\arduinolcd\test\pain drain\libraries\lvgl\src\misc\lv_color.h **** 
 178:c:\projects\paindrain\arduinolcd\test\pain drain\libraries\lvgl\src\misc\lv_color.h **** #define LV_COLOR_GET_R(c) LV_CONCAT(LV_COLOR_GET_R, LV_COLOR_DEPTH)(c)
 179:c:\projects\paindrain\arduinolcd\test\pain drain\libraries\lvgl\src\misc\lv_color.h **** #define LV_COLOR_GET_G(c) LV_CONCAT(LV_COLOR_GET_G, LV_COLOR_DEPTH)(c)
 180:c:\projects\paindrain\arduinolcd\test\pain drain\libraries\lvgl\src\misc\lv_color.h **** #define LV_COLOR_GET_B(c) LV_CONCAT(LV_COLOR_GET_B, LV_COLOR_DEPTH)(c)
 181:c:\projects\paindrain\arduinolcd\test\pain drain\libraries\lvgl\src\misc\lv_color.h **** #define LV_COLOR_GET_A(c) LV_CONCAT(LV_COLOR_GET_A, LV_COLOR_DEPTH)(c)
 182:c:\projects\paindrain\arduinolcd\test\pain drain\libraries\lvgl\src\misc\lv_color.h **** 
 183:c:\projects\paindrain\arduinolcd\test\pain drain\libraries\lvgl\src\misc\lv_color.h **** #define _LV_COLOR_ZERO_INITIALIZER LV_CONCAT(_LV_COLOR_ZERO_INITIALIZER, LV_COLOR_DEPTH)
 184:c:\projects\paindrain\arduinolcd\test\pain drain\libraries\lvgl\src\misc\lv_color.h **** #define LV_COLOR_MAKE(r8, g8, b8) LV_CONCAT(LV_COLOR_MAKE, LV_COLOR_DEPTH)(r8, g8, b8)
 185:c:\projects\paindrain\arduinolcd\test\pain drain\libraries\lvgl\src\misc\lv_color.h **** 
 186:c:\projects\paindrain\arduinolcd\test\pain drain\libraries\lvgl\src\misc\lv_color.h **** /**********************
 187:c:\projects\paindrain\arduinolcd\test\pain drain\libraries\lvgl\src\misc\lv_color.h ****  *      TYPEDEFS
 188:c:\projects\paindrain\arduinolcd\test\pain drain\libraries\lvgl\src\misc\lv_color.h ****  **********************/
 189:c:\projects\paindrain\arduinolcd\test\pain drain\libraries\lvgl\src\misc\lv_color.h **** 
 190:c:\projects\paindrain\arduinolcd\test\pain drain\libraries\lvgl\src\misc\lv_color.h **** typedef union {
 191:c:\projects\paindrain\arduinolcd\test\pain drain\libraries\lvgl\src\misc\lv_color.h ****     uint8_t full; /*must be declared first to set all bits of byte via initializer list*/
ARM GAS  C:\Users\haske\AppData\Local\Temp\ccoc8x2c.s 			page 10


 192:c:\projects\paindrain\arduinolcd\test\pain drain\libraries\lvgl\src\misc\lv_color.h ****     union {
 193:c:\projects\paindrain\arduinolcd\test\pain drain\libraries\lvgl\src\misc\lv_color.h ****         uint8_t blue : 1;
 194:c:\projects\paindrain\arduinolcd\test\pain drain\libraries\lvgl\src\misc\lv_color.h ****         uint8_t green : 1;
 195:c:\projects\paindrain\arduinolcd\test\pain drain\libraries\lvgl\src\misc\lv_color.h ****         uint8_t red : 1;
 196:c:\projects\paindrain\arduinolcd\test\pain drain\libraries\lvgl\src\misc\lv_color.h ****     } ch;
 197:c:\projects\paindrain\arduinolcd\test\pain drain\libraries\lvgl\src\misc\lv_color.h **** } lv_color1_t;
 198:c:\projects\paindrain\arduinolcd\test\pain drain\libraries\lvgl\src\misc\lv_color.h **** 
 199:c:\projects\paindrain\arduinolcd\test\pain drain\libraries\lvgl\src\misc\lv_color.h **** typedef union {
 200:c:\projects\paindrain\arduinolcd\test\pain drain\libraries\lvgl\src\misc\lv_color.h ****     struct {
 201:c:\projects\paindrain\arduinolcd\test\pain drain\libraries\lvgl\src\misc\lv_color.h ****         uint8_t blue : 2;
 202:c:\projects\paindrain\arduinolcd\test\pain drain\libraries\lvgl\src\misc\lv_color.h ****         uint8_t green : 3;
 203:c:\projects\paindrain\arduinolcd\test\pain drain\libraries\lvgl\src\misc\lv_color.h ****         uint8_t red : 3;
 204:c:\projects\paindrain\arduinolcd\test\pain drain\libraries\lvgl\src\misc\lv_color.h ****     } ch;
 205:c:\projects\paindrain\arduinolcd\test\pain drain\libraries\lvgl\src\misc\lv_color.h ****     uint8_t full;
 206:c:\projects\paindrain\arduinolcd\test\pain drain\libraries\lvgl\src\misc\lv_color.h **** } lv_color8_t;
 207:c:\projects\paindrain\arduinolcd\test\pain drain\libraries\lvgl\src\misc\lv_color.h **** 
 208:c:\projects\paindrain\arduinolcd\test\pain drain\libraries\lvgl\src\misc\lv_color.h **** typedef union {
 209:c:\projects\paindrain\arduinolcd\test\pain drain\libraries\lvgl\src\misc\lv_color.h ****     struct {
 210:c:\projects\paindrain\arduinolcd\test\pain drain\libraries\lvgl\src\misc\lv_color.h **** #if LV_COLOR_16_SWAP == 0
 211:c:\projects\paindrain\arduinolcd\test\pain drain\libraries\lvgl\src\misc\lv_color.h ****         uint16_t blue : 5;
 212:c:\projects\paindrain\arduinolcd\test\pain drain\libraries\lvgl\src\misc\lv_color.h ****         uint16_t green : 6;
 213:c:\projects\paindrain\arduinolcd\test\pain drain\libraries\lvgl\src\misc\lv_color.h ****         uint16_t red : 5;
 214:c:\projects\paindrain\arduinolcd\test\pain drain\libraries\lvgl\src\misc\lv_color.h **** #else
 215:c:\projects\paindrain\arduinolcd\test\pain drain\libraries\lvgl\src\misc\lv_color.h ****         uint16_t green_h : 3;
 216:c:\projects\paindrain\arduinolcd\test\pain drain\libraries\lvgl\src\misc\lv_color.h ****         uint16_t red : 5;
 217:c:\projects\paindrain\arduinolcd\test\pain drain\libraries\lvgl\src\misc\lv_color.h ****         uint16_t blue : 5;
 218:c:\projects\paindrain\arduinolcd\test\pain drain\libraries\lvgl\src\misc\lv_color.h ****         uint16_t green_l : 3;
 219:c:\projects\paindrain\arduinolcd\test\pain drain\libraries\lvgl\src\misc\lv_color.h **** #endif
 220:c:\projects\paindrain\arduinolcd\test\pain drain\libraries\lvgl\src\misc\lv_color.h ****     } ch;
 221:c:\projects\paindrain\arduinolcd\test\pain drain\libraries\lvgl\src\misc\lv_color.h ****     uint16_t full;
 222:c:\projects\paindrain\arduinolcd\test\pain drain\libraries\lvgl\src\misc\lv_color.h **** } lv_color16_t;
 223:c:\projects\paindrain\arduinolcd\test\pain drain\libraries\lvgl\src\misc\lv_color.h **** 
 224:c:\projects\paindrain\arduinolcd\test\pain drain\libraries\lvgl\src\misc\lv_color.h **** typedef union {
 225:c:\projects\paindrain\arduinolcd\test\pain drain\libraries\lvgl\src\misc\lv_color.h ****     struct {
 226:c:\projects\paindrain\arduinolcd\test\pain drain\libraries\lvgl\src\misc\lv_color.h ****         uint8_t blue;
 227:c:\projects\paindrain\arduinolcd\test\pain drain\libraries\lvgl\src\misc\lv_color.h ****         uint8_t green;
 228:c:\projects\paindrain\arduinolcd\test\pain drain\libraries\lvgl\src\misc\lv_color.h ****         uint8_t red;
 229:c:\projects\paindrain\arduinolcd\test\pain drain\libraries\lvgl\src\misc\lv_color.h ****         uint8_t alpha;
 230:c:\projects\paindrain\arduinolcd\test\pain drain\libraries\lvgl\src\misc\lv_color.h ****     } ch;
 231:c:\projects\paindrain\arduinolcd\test\pain drain\libraries\lvgl\src\misc\lv_color.h ****     uint32_t full;
 232:c:\projects\paindrain\arduinolcd\test\pain drain\libraries\lvgl\src\misc\lv_color.h **** } lv_color32_t;
 233:c:\projects\paindrain\arduinolcd\test\pain drain\libraries\lvgl\src\misc\lv_color.h **** 
 234:c:\projects\paindrain\arduinolcd\test\pain drain\libraries\lvgl\src\misc\lv_color.h **** typedef LV_CONCAT3(uint, LV_COLOR_SIZE, _t) lv_color_int_t;
 235:c:\projects\paindrain\arduinolcd\test\pain drain\libraries\lvgl\src\misc\lv_color.h **** typedef LV_CONCAT3(lv_color, LV_COLOR_DEPTH, _t) lv_color_t;
 236:c:\projects\paindrain\arduinolcd\test\pain drain\libraries\lvgl\src\misc\lv_color.h **** 
 237:c:\projects\paindrain\arduinolcd\test\pain drain\libraries\lvgl\src\misc\lv_color.h **** typedef struct {
 238:c:\projects\paindrain\arduinolcd\test\pain drain\libraries\lvgl\src\misc\lv_color.h ****     uint16_t h;
 239:c:\projects\paindrain\arduinolcd\test\pain drain\libraries\lvgl\src\misc\lv_color.h ****     uint8_t s;
 240:c:\projects\paindrain\arduinolcd\test\pain drain\libraries\lvgl\src\misc\lv_color.h ****     uint8_t v;
 241:c:\projects\paindrain\arduinolcd\test\pain drain\libraries\lvgl\src\misc\lv_color.h **** } lv_color_hsv_t;
 242:c:\projects\paindrain\arduinolcd\test\pain drain\libraries\lvgl\src\misc\lv_color.h **** 
 243:c:\projects\paindrain\arduinolcd\test\pain drain\libraries\lvgl\src\misc\lv_color.h **** //! @cond Doxygen_Suppress
 244:c:\projects\paindrain\arduinolcd\test\pain drain\libraries\lvgl\src\misc\lv_color.h **** /*No idea where the guard is required but else throws warnings in the docs*/
 245:c:\projects\paindrain\arduinolcd\test\pain drain\libraries\lvgl\src\misc\lv_color.h **** typedef uint8_t lv_opa_t;
 246:c:\projects\paindrain\arduinolcd\test\pain drain\libraries\lvgl\src\misc\lv_color.h **** //! @endcond
 247:c:\projects\paindrain\arduinolcd\test\pain drain\libraries\lvgl\src\misc\lv_color.h **** 
 248:c:\projects\paindrain\arduinolcd\test\pain drain\libraries\lvgl\src\misc\lv_color.h **** struct _lv_color_filter_dsc_t;
ARM GAS  C:\Users\haske\AppData\Local\Temp\ccoc8x2c.s 			page 11


 249:c:\projects\paindrain\arduinolcd\test\pain drain\libraries\lvgl\src\misc\lv_color.h **** 
 250:c:\projects\paindrain\arduinolcd\test\pain drain\libraries\lvgl\src\misc\lv_color.h **** typedef lv_color_t (*lv_color_filter_cb_t)(const struct _lv_color_filter_dsc_t *, lv_color_t, lv_op
 251:c:\projects\paindrain\arduinolcd\test\pain drain\libraries\lvgl\src\misc\lv_color.h **** 
 252:c:\projects\paindrain\arduinolcd\test\pain drain\libraries\lvgl\src\misc\lv_color.h **** typedef struct _lv_color_filter_dsc_t {
 253:c:\projects\paindrain\arduinolcd\test\pain drain\libraries\lvgl\src\misc\lv_color.h ****     lv_color_filter_cb_t filter_cb;
 254:c:\projects\paindrain\arduinolcd\test\pain drain\libraries\lvgl\src\misc\lv_color.h ****     void * user_data;
 255:c:\projects\paindrain\arduinolcd\test\pain drain\libraries\lvgl\src\misc\lv_color.h **** } lv_color_filter_dsc_t;
 256:c:\projects\paindrain\arduinolcd\test\pain drain\libraries\lvgl\src\misc\lv_color.h **** 
 257:c:\projects\paindrain\arduinolcd\test\pain drain\libraries\lvgl\src\misc\lv_color.h **** 
 258:c:\projects\paindrain\arduinolcd\test\pain drain\libraries\lvgl\src\misc\lv_color.h **** typedef enum {
 259:c:\projects\paindrain\arduinolcd\test\pain drain\libraries\lvgl\src\misc\lv_color.h ****     LV_PALETTE_RED,
 260:c:\projects\paindrain\arduinolcd\test\pain drain\libraries\lvgl\src\misc\lv_color.h ****     LV_PALETTE_PINK,
 261:c:\projects\paindrain\arduinolcd\test\pain drain\libraries\lvgl\src\misc\lv_color.h ****     LV_PALETTE_PURPLE,
 262:c:\projects\paindrain\arduinolcd\test\pain drain\libraries\lvgl\src\misc\lv_color.h ****     LV_PALETTE_DEEP_PURPLE,
 263:c:\projects\paindrain\arduinolcd\test\pain drain\libraries\lvgl\src\misc\lv_color.h ****     LV_PALETTE_INDIGO,
 264:c:\projects\paindrain\arduinolcd\test\pain drain\libraries\lvgl\src\misc\lv_color.h ****     LV_PALETTE_BLUE,
 265:c:\projects\paindrain\arduinolcd\test\pain drain\libraries\lvgl\src\misc\lv_color.h ****     LV_PALETTE_LIGHT_BLUE,
 266:c:\projects\paindrain\arduinolcd\test\pain drain\libraries\lvgl\src\misc\lv_color.h ****     LV_PALETTE_CYAN,
 267:c:\projects\paindrain\arduinolcd\test\pain drain\libraries\lvgl\src\misc\lv_color.h ****     LV_PALETTE_TEAL,
 268:c:\projects\paindrain\arduinolcd\test\pain drain\libraries\lvgl\src\misc\lv_color.h ****     LV_PALETTE_GREEN,
 269:c:\projects\paindrain\arduinolcd\test\pain drain\libraries\lvgl\src\misc\lv_color.h ****     LV_PALETTE_LIGHT_GREEN,
 270:c:\projects\paindrain\arduinolcd\test\pain drain\libraries\lvgl\src\misc\lv_color.h ****     LV_PALETTE_LIME,
 271:c:\projects\paindrain\arduinolcd\test\pain drain\libraries\lvgl\src\misc\lv_color.h ****     LV_PALETTE_YELLOW,
 272:c:\projects\paindrain\arduinolcd\test\pain drain\libraries\lvgl\src\misc\lv_color.h ****     LV_PALETTE_AMBER,
 273:c:\projects\paindrain\arduinolcd\test\pain drain\libraries\lvgl\src\misc\lv_color.h ****     LV_PALETTE_ORANGE,
 274:c:\projects\paindrain\arduinolcd\test\pain drain\libraries\lvgl\src\misc\lv_color.h ****     LV_PALETTE_DEEP_ORANGE,
 275:c:\projects\paindrain\arduinolcd\test\pain drain\libraries\lvgl\src\misc\lv_color.h ****     LV_PALETTE_BROWN,
 276:c:\projects\paindrain\arduinolcd\test\pain drain\libraries\lvgl\src\misc\lv_color.h ****     LV_PALETTE_BLUE_GREY,
 277:c:\projects\paindrain\arduinolcd\test\pain drain\libraries\lvgl\src\misc\lv_color.h ****     LV_PALETTE_GREY,
 278:c:\projects\paindrain\arduinolcd\test\pain drain\libraries\lvgl\src\misc\lv_color.h ****     _LV_PALETTE_LAST,
 279:c:\projects\paindrain\arduinolcd\test\pain drain\libraries\lvgl\src\misc\lv_color.h ****     LV_PALETTE_NONE = 0xff,
 280:c:\projects\paindrain\arduinolcd\test\pain drain\libraries\lvgl\src\misc\lv_color.h **** } lv_palette_t;
 281:c:\projects\paindrain\arduinolcd\test\pain drain\libraries\lvgl\src\misc\lv_color.h **** 
 282:c:\projects\paindrain\arduinolcd\test\pain drain\libraries\lvgl\src\misc\lv_color.h **** /**********************
 283:c:\projects\paindrain\arduinolcd\test\pain drain\libraries\lvgl\src\misc\lv_color.h ****  * GLOBAL PROTOTYPES
 284:c:\projects\paindrain\arduinolcd\test\pain drain\libraries\lvgl\src\misc\lv_color.h ****  **********************/
 285:c:\projects\paindrain\arduinolcd\test\pain drain\libraries\lvgl\src\misc\lv_color.h **** 
 286:c:\projects\paindrain\arduinolcd\test\pain drain\libraries\lvgl\src\misc\lv_color.h **** /*In color conversations:
 287:c:\projects\paindrain\arduinolcd\test\pain drain\libraries\lvgl\src\misc\lv_color.h ****  * - When converting to bigger color type the LSB weight of 1 LSB is calculated
 288:c:\projects\paindrain\arduinolcd\test\pain drain\libraries\lvgl\src\misc\lv_color.h ****  *   E.g. 16 bit Red has 5 bits
 289:c:\projects\paindrain\arduinolcd\test\pain drain\libraries\lvgl\src\misc\lv_color.h ****  *         8 bit Red has 3 bits
 290:c:\projects\paindrain\arduinolcd\test\pain drain\libraries\lvgl\src\misc\lv_color.h ****  *        ----------------------
 291:c:\projects\paindrain\arduinolcd\test\pain drain\libraries\lvgl\src\misc\lv_color.h ****  *        8 bit red LSB = (2^5 - 1) / (2^3 - 1) = 31 / 7 = 4
 292:c:\projects\paindrain\arduinolcd\test\pain drain\libraries\lvgl\src\misc\lv_color.h ****  *
 293:c:\projects\paindrain\arduinolcd\test\pain drain\libraries\lvgl\src\misc\lv_color.h ****  * - When calculating to smaller color type simply shift out the LSBs
 294:c:\projects\paindrain\arduinolcd\test\pain drain\libraries\lvgl\src\misc\lv_color.h ****  *   E.g.  8 bit Red has 3 bits
 295:c:\projects\paindrain\arduinolcd\test\pain drain\libraries\lvgl\src\misc\lv_color.h ****  *        16 bit Red has 5 bits
 296:c:\projects\paindrain\arduinolcd\test\pain drain\libraries\lvgl\src\misc\lv_color.h ****  *        ----------------------
 297:c:\projects\paindrain\arduinolcd\test\pain drain\libraries\lvgl\src\misc\lv_color.h ****  *         Shift right with 5 - 3 = 2
 298:c:\projects\paindrain\arduinolcd\test\pain drain\libraries\lvgl\src\misc\lv_color.h ****  */
 299:c:\projects\paindrain\arduinolcd\test\pain drain\libraries\lvgl\src\misc\lv_color.h **** static inline uint8_t lv_color_to1(lv_color_t color)
 300:c:\projects\paindrain\arduinolcd\test\pain drain\libraries\lvgl\src\misc\lv_color.h **** {
 301:c:\projects\paindrain\arduinolcd\test\pain drain\libraries\lvgl\src\misc\lv_color.h **** #if LV_COLOR_DEPTH == 1
 302:c:\projects\paindrain\arduinolcd\test\pain drain\libraries\lvgl\src\misc\lv_color.h ****     return color.full;
 303:c:\projects\paindrain\arduinolcd\test\pain drain\libraries\lvgl\src\misc\lv_color.h **** #elif LV_COLOR_DEPTH == 8
 304:c:\projects\paindrain\arduinolcd\test\pain drain\libraries\lvgl\src\misc\lv_color.h ****     if((LV_COLOR_GET_R(color) & 0x4) || (LV_COLOR_GET_G(color) & 0x4) || (LV_COLOR_GET_B(color) & 0
 305:c:\projects\paindrain\arduinolcd\test\pain drain\libraries\lvgl\src\misc\lv_color.h ****         return 1;
ARM GAS  C:\Users\haske\AppData\Local\Temp\ccoc8x2c.s 			page 12


 306:c:\projects\paindrain\arduinolcd\test\pain drain\libraries\lvgl\src\misc\lv_color.h ****     }
 307:c:\projects\paindrain\arduinolcd\test\pain drain\libraries\lvgl\src\misc\lv_color.h ****     else {
 308:c:\projects\paindrain\arduinolcd\test\pain drain\libraries\lvgl\src\misc\lv_color.h ****         return 0;
 309:c:\projects\paindrain\arduinolcd\test\pain drain\libraries\lvgl\src\misc\lv_color.h ****     }
 310:c:\projects\paindrain\arduinolcd\test\pain drain\libraries\lvgl\src\misc\lv_color.h **** #elif LV_COLOR_DEPTH == 16
 311:c:\projects\paindrain\arduinolcd\test\pain drain\libraries\lvgl\src\misc\lv_color.h ****     if((LV_COLOR_GET_R(color) & 0x10) || (LV_COLOR_GET_G(color) & 0x20) || (LV_COLOR_GET_B(color) &
 312:c:\projects\paindrain\arduinolcd\test\pain drain\libraries\lvgl\src\misc\lv_color.h ****         return 1;
 313:c:\projects\paindrain\arduinolcd\test\pain drain\libraries\lvgl\src\misc\lv_color.h ****     }
 314:c:\projects\paindrain\arduinolcd\test\pain drain\libraries\lvgl\src\misc\lv_color.h ****     else {
 315:c:\projects\paindrain\arduinolcd\test\pain drain\libraries\lvgl\src\misc\lv_color.h ****         return 0;
 316:c:\projects\paindrain\arduinolcd\test\pain drain\libraries\lvgl\src\misc\lv_color.h ****     }
 317:c:\projects\paindrain\arduinolcd\test\pain drain\libraries\lvgl\src\misc\lv_color.h **** #elif LV_COLOR_DEPTH == 32
 318:c:\projects\paindrain\arduinolcd\test\pain drain\libraries\lvgl\src\misc\lv_color.h ****     if((LV_COLOR_GET_R(color) & 0x80) || (LV_COLOR_GET_G(color) & 0x80) || (LV_COLOR_GET_B(color) &
 319:c:\projects\paindrain\arduinolcd\test\pain drain\libraries\lvgl\src\misc\lv_color.h ****         return 1;
 320:c:\projects\paindrain\arduinolcd\test\pain drain\libraries\lvgl\src\misc\lv_color.h ****     }
 321:c:\projects\paindrain\arduinolcd\test\pain drain\libraries\lvgl\src\misc\lv_color.h ****     else {
 322:c:\projects\paindrain\arduinolcd\test\pain drain\libraries\lvgl\src\misc\lv_color.h ****         return 0;
 323:c:\projects\paindrain\arduinolcd\test\pain drain\libraries\lvgl\src\misc\lv_color.h ****     }
 324:c:\projects\paindrain\arduinolcd\test\pain drain\libraries\lvgl\src\misc\lv_color.h **** #endif
 325:c:\projects\paindrain\arduinolcd\test\pain drain\libraries\lvgl\src\misc\lv_color.h **** }
 326:c:\projects\paindrain\arduinolcd\test\pain drain\libraries\lvgl\src\misc\lv_color.h **** 
 327:c:\projects\paindrain\arduinolcd\test\pain drain\libraries\lvgl\src\misc\lv_color.h **** static inline uint8_t lv_color_to8(lv_color_t color)
 328:c:\projects\paindrain\arduinolcd\test\pain drain\libraries\lvgl\src\misc\lv_color.h **** {
 329:c:\projects\paindrain\arduinolcd\test\pain drain\libraries\lvgl\src\misc\lv_color.h **** #if LV_COLOR_DEPTH == 1
 330:c:\projects\paindrain\arduinolcd\test\pain drain\libraries\lvgl\src\misc\lv_color.h ****     if(color.full == 0)
 331:c:\projects\paindrain\arduinolcd\test\pain drain\libraries\lvgl\src\misc\lv_color.h ****         return 0;
 332:c:\projects\paindrain\arduinolcd\test\pain drain\libraries\lvgl\src\misc\lv_color.h ****     else
 333:c:\projects\paindrain\arduinolcd\test\pain drain\libraries\lvgl\src\misc\lv_color.h ****         return 0xFF;
 334:c:\projects\paindrain\arduinolcd\test\pain drain\libraries\lvgl\src\misc\lv_color.h **** #elif LV_COLOR_DEPTH == 8
 335:c:\projects\paindrain\arduinolcd\test\pain drain\libraries\lvgl\src\misc\lv_color.h ****     return color.full;
 336:c:\projects\paindrain\arduinolcd\test\pain drain\libraries\lvgl\src\misc\lv_color.h **** #elif LV_COLOR_DEPTH == 16
 337:c:\projects\paindrain\arduinolcd\test\pain drain\libraries\lvgl\src\misc\lv_color.h ****     lv_color8_t ret;
 338:c:\projects\paindrain\arduinolcd\test\pain drain\libraries\lvgl\src\misc\lv_color.h ****     LV_COLOR_SET_R8(ret, LV_COLOR_GET_R(color) >> 2); /*5 - 3  = 2*/
 339:c:\projects\paindrain\arduinolcd\test\pain drain\libraries\lvgl\src\misc\lv_color.h ****     LV_COLOR_SET_G8(ret, LV_COLOR_GET_G(color) >> 3); /*6 - 3  = 3*/
 340:c:\projects\paindrain\arduinolcd\test\pain drain\libraries\lvgl\src\misc\lv_color.h ****     LV_COLOR_SET_B8(ret, LV_COLOR_GET_B(color) >> 3); /*5 - 2  = 3*/
 341:c:\projects\paindrain\arduinolcd\test\pain drain\libraries\lvgl\src\misc\lv_color.h ****     return ret.full;
 342:c:\projects\paindrain\arduinolcd\test\pain drain\libraries\lvgl\src\misc\lv_color.h **** #elif LV_COLOR_DEPTH == 32
 343:c:\projects\paindrain\arduinolcd\test\pain drain\libraries\lvgl\src\misc\lv_color.h ****     lv_color8_t ret;
 344:c:\projects\paindrain\arduinolcd\test\pain drain\libraries\lvgl\src\misc\lv_color.h ****     LV_COLOR_SET_R8(ret, LV_COLOR_GET_R(color) >> 5); /*8 - 3  = 5*/
 345:c:\projects\paindrain\arduinolcd\test\pain drain\libraries\lvgl\src\misc\lv_color.h ****     LV_COLOR_SET_G8(ret, LV_COLOR_GET_G(color) >> 5); /*8 - 3  = 5*/
 346:c:\projects\paindrain\arduinolcd\test\pain drain\libraries\lvgl\src\misc\lv_color.h ****     LV_COLOR_SET_B8(ret, LV_COLOR_GET_B(color) >> 6); /*8 - 2  = 6*/
 347:c:\projects\paindrain\arduinolcd\test\pain drain\libraries\lvgl\src\misc\lv_color.h ****     return ret.full;
 348:c:\projects\paindrain\arduinolcd\test\pain drain\libraries\lvgl\src\misc\lv_color.h **** #endif
 349:c:\projects\paindrain\arduinolcd\test\pain drain\libraries\lvgl\src\misc\lv_color.h **** }
 350:c:\projects\paindrain\arduinolcd\test\pain drain\libraries\lvgl\src\misc\lv_color.h **** 
 351:c:\projects\paindrain\arduinolcd\test\pain drain\libraries\lvgl\src\misc\lv_color.h **** static inline uint16_t lv_color_to16(lv_color_t color)
 352:c:\projects\paindrain\arduinolcd\test\pain drain\libraries\lvgl\src\misc\lv_color.h **** {
 353:c:\projects\paindrain\arduinolcd\test\pain drain\libraries\lvgl\src\misc\lv_color.h **** #if LV_COLOR_DEPTH == 1
 354:c:\projects\paindrain\arduinolcd\test\pain drain\libraries\lvgl\src\misc\lv_color.h ****     if(color.full == 0)
 355:c:\projects\paindrain\arduinolcd\test\pain drain\libraries\lvgl\src\misc\lv_color.h ****         return 0;
 356:c:\projects\paindrain\arduinolcd\test\pain drain\libraries\lvgl\src\misc\lv_color.h ****     else
 357:c:\projects\paindrain\arduinolcd\test\pain drain\libraries\lvgl\src\misc\lv_color.h ****         return 0xFFFF;
 358:c:\projects\paindrain\arduinolcd\test\pain drain\libraries\lvgl\src\misc\lv_color.h **** #elif LV_COLOR_DEPTH == 8
 359:c:\projects\paindrain\arduinolcd\test\pain drain\libraries\lvgl\src\misc\lv_color.h ****     lv_color16_t ret;
 360:c:\projects\paindrain\arduinolcd\test\pain drain\libraries\lvgl\src\misc\lv_color.h ****     LV_COLOR_SET_R16(ret, LV_COLOR_GET_R(color) * 4);  /*(2^5 - 1)/(2^3 - 1) = 31/7 = 4*/
 361:c:\projects\paindrain\arduinolcd\test\pain drain\libraries\lvgl\src\misc\lv_color.h ****     LV_COLOR_SET_G16(ret, LV_COLOR_GET_G(color) * 9);  /*(2^6 - 1)/(2^3 - 1) = 63/7 = 9*/
 362:c:\projects\paindrain\arduinolcd\test\pain drain\libraries\lvgl\src\misc\lv_color.h ****     LV_COLOR_SET_B16(ret, LV_COLOR_GET_B(color) * 10); /*(2^5 - 1)/(2^2 - 1) = 31/3 = 10*/
ARM GAS  C:\Users\haske\AppData\Local\Temp\ccoc8x2c.s 			page 13


 363:c:\projects\paindrain\arduinolcd\test\pain drain\libraries\lvgl\src\misc\lv_color.h ****     return ret.full;
 364:c:\projects\paindrain\arduinolcd\test\pain drain\libraries\lvgl\src\misc\lv_color.h **** #elif LV_COLOR_DEPTH == 16
 365:c:\projects\paindrain\arduinolcd\test\pain drain\libraries\lvgl\src\misc\lv_color.h ****     return color.full;
 366:c:\projects\paindrain\arduinolcd\test\pain drain\libraries\lvgl\src\misc\lv_color.h **** #elif LV_COLOR_DEPTH == 32
 367:c:\projects\paindrain\arduinolcd\test\pain drain\libraries\lvgl\src\misc\lv_color.h ****     lv_color16_t ret;
 368:c:\projects\paindrain\arduinolcd\test\pain drain\libraries\lvgl\src\misc\lv_color.h ****     LV_COLOR_SET_R16(ret, LV_COLOR_GET_R(color) >> 3); /*8 - 5  = 3*/
 369:c:\projects\paindrain\arduinolcd\test\pain drain\libraries\lvgl\src\misc\lv_color.h ****     LV_COLOR_SET_G16(ret, LV_COLOR_GET_G(color) >> 2); /*8 - 6  = 2*/
 370:c:\projects\paindrain\arduinolcd\test\pain drain\libraries\lvgl\src\misc\lv_color.h ****     LV_COLOR_SET_B16(ret, LV_COLOR_GET_B(color) >> 3); /*8 - 5  = 3*/
 371:c:\projects\paindrain\arduinolcd\test\pain drain\libraries\lvgl\src\misc\lv_color.h ****     return ret.full;
 372:c:\projects\paindrain\arduinolcd\test\pain drain\libraries\lvgl\src\misc\lv_color.h **** #endif
 373:c:\projects\paindrain\arduinolcd\test\pain drain\libraries\lvgl\src\misc\lv_color.h **** }
 374:c:\projects\paindrain\arduinolcd\test\pain drain\libraries\lvgl\src\misc\lv_color.h **** 
 375:c:\projects\paindrain\arduinolcd\test\pain drain\libraries\lvgl\src\misc\lv_color.h **** static inline uint32_t lv_color_to32(lv_color_t color)
 376:c:\projects\paindrain\arduinolcd\test\pain drain\libraries\lvgl\src\misc\lv_color.h **** {
 377:c:\projects\paindrain\arduinolcd\test\pain drain\libraries\lvgl\src\misc\lv_color.h **** #if LV_COLOR_DEPTH == 1
 378:c:\projects\paindrain\arduinolcd\test\pain drain\libraries\lvgl\src\misc\lv_color.h ****     if(color.full == 0)
 379:c:\projects\paindrain\arduinolcd\test\pain drain\libraries\lvgl\src\misc\lv_color.h ****         return 0xFF000000;
 380:c:\projects\paindrain\arduinolcd\test\pain drain\libraries\lvgl\src\misc\lv_color.h ****     else
 381:c:\projects\paindrain\arduinolcd\test\pain drain\libraries\lvgl\src\misc\lv_color.h ****         return 0xFFFFFFFF;
 382:c:\projects\paindrain\arduinolcd\test\pain drain\libraries\lvgl\src\misc\lv_color.h **** #elif LV_COLOR_DEPTH == 8
 383:c:\projects\paindrain\arduinolcd\test\pain drain\libraries\lvgl\src\misc\lv_color.h ****     lv_color32_t ret;
 384:c:\projects\paindrain\arduinolcd\test\pain drain\libraries\lvgl\src\misc\lv_color.h ****     LV_COLOR_SET_R32(ret, LV_COLOR_GET_R(color) * 36); /*(2^8 - 1)/(2^3 - 1) = 255/7 = 36*/
 385:c:\projects\paindrain\arduinolcd\test\pain drain\libraries\lvgl\src\misc\lv_color.h ****     LV_COLOR_SET_G32(ret, LV_COLOR_GET_G(color) * 36); /*(2^8 - 1)/(2^3 - 1) = 255/7 = 36*/
 386:c:\projects\paindrain\arduinolcd\test\pain drain\libraries\lvgl\src\misc\lv_color.h ****     LV_COLOR_SET_B32(ret, LV_COLOR_GET_B(color) * 85); /*(2^8 - 1)/(2^2 - 1) = 255/3 = 85*/
 387:c:\projects\paindrain\arduinolcd\test\pain drain\libraries\lvgl\src\misc\lv_color.h ****     LV_COLOR_SET_A32(ret, 0xFF);
 388:c:\projects\paindrain\arduinolcd\test\pain drain\libraries\lvgl\src\misc\lv_color.h ****     return ret.full;
 389:c:\projects\paindrain\arduinolcd\test\pain drain\libraries\lvgl\src\misc\lv_color.h **** #elif LV_COLOR_DEPTH == 16
 390:c:\projects\paindrain\arduinolcd\test\pain drain\libraries\lvgl\src\misc\lv_color.h ****     /**
 391:c:\projects\paindrain\arduinolcd\test\pain drain\libraries\lvgl\src\misc\lv_color.h ****      * The floating point math for conversion is:
 392:c:\projects\paindrain\arduinolcd\test\pain drain\libraries\lvgl\src\misc\lv_color.h ****      *  valueto = valuefrom * ( (2^bitsto - 1) / (float)(2^bitsfrom - 1) )
 393:c:\projects\paindrain\arduinolcd\test\pain drain\libraries\lvgl\src\misc\lv_color.h ****      * The faster integer math for conversion is:
 394:c:\projects\paindrain\arduinolcd\test\pain drain\libraries\lvgl\src\misc\lv_color.h ****      *  valueto = ( valuefrom * multiplier + adder ) >> divisor
 395:c:\projects\paindrain\arduinolcd\test\pain drain\libraries\lvgl\src\misc\lv_color.h ****      *   multiplier = FLOOR( ( (2^bitsto - 1) << divisor ) / (float)(2^bitsfrom - 1) )
 396:c:\projects\paindrain\arduinolcd\test\pain drain\libraries\lvgl\src\misc\lv_color.h ****      *
 397:c:\projects\paindrain\arduinolcd\test\pain drain\libraries\lvgl\src\misc\lv_color.h ****      * Find the first divisor where ( adder >> divisor ) <= 0
 398:c:\projects\paindrain\arduinolcd\test\pain drain\libraries\lvgl\src\misc\lv_color.h ****      *
 399:c:\projects\paindrain\arduinolcd\test\pain drain\libraries\lvgl\src\misc\lv_color.h ****      * 5-bit to 8-bit: ( 31 * multiplier + adder ) >> divisor = 255
 400:c:\projects\paindrain\arduinolcd\test\pain drain\libraries\lvgl\src\misc\lv_color.h ****      * divisor  multiplier  adder  min (0)  max (31)
 401:c:\projects\paindrain\arduinolcd\test\pain drain\libraries\lvgl\src\misc\lv_color.h ****      *       0           8      7        7       255
 402:c:\projects\paindrain\arduinolcd\test\pain drain\libraries\lvgl\src\misc\lv_color.h ****      *       1          16     14        7       255
 403:c:\projects\paindrain\arduinolcd\test\pain drain\libraries\lvgl\src\misc\lv_color.h ****      *       2          32     28        7       255
 404:c:\projects\paindrain\arduinolcd\test\pain drain\libraries\lvgl\src\misc\lv_color.h ****      *       3          65     25        3       255
 405:c:\projects\paindrain\arduinolcd\test\pain drain\libraries\lvgl\src\misc\lv_color.h ****      *       4         131     19        1       255
 406:c:\projects\paindrain\arduinolcd\test\pain drain\libraries\lvgl\src\misc\lv_color.h ****      *       5         263      7        0       255
 407:c:\projects\paindrain\arduinolcd\test\pain drain\libraries\lvgl\src\misc\lv_color.h ****      *
 408:c:\projects\paindrain\arduinolcd\test\pain drain\libraries\lvgl\src\misc\lv_color.h ****      * 6-bit to 8-bit: 255 = ( 63 * multiplier + adder ) >> divisor
 409:c:\projects\paindrain\arduinolcd\test\pain drain\libraries\lvgl\src\misc\lv_color.h ****      * divisor  multiplier  adder  min (0)  max (63)
 410:c:\projects\paindrain\arduinolcd\test\pain drain\libraries\lvgl\src\misc\lv_color.h ****      *       0           4      3        3       255
 411:c:\projects\paindrain\arduinolcd\test\pain drain\libraries\lvgl\src\misc\lv_color.h ****      *       1           8      6        3       255
 412:c:\projects\paindrain\arduinolcd\test\pain drain\libraries\lvgl\src\misc\lv_color.h ****      *       2          16     12        3       255
 413:c:\projects\paindrain\arduinolcd\test\pain drain\libraries\lvgl\src\misc\lv_color.h ****      *       3          32     24        3       255
 414:c:\projects\paindrain\arduinolcd\test\pain drain\libraries\lvgl\src\misc\lv_color.h ****      *       4          64     48        3       255
 415:c:\projects\paindrain\arduinolcd\test\pain drain\libraries\lvgl\src\misc\lv_color.h ****      *       5         129     33        1       255
 416:c:\projects\paindrain\arduinolcd\test\pain drain\libraries\lvgl\src\misc\lv_color.h ****      *       6         259      3        0       255
 417:c:\projects\paindrain\arduinolcd\test\pain drain\libraries\lvgl\src\misc\lv_color.h ****      */
 418:c:\projects\paindrain\arduinolcd\test\pain drain\libraries\lvgl\src\misc\lv_color.h **** 
 419:c:\projects\paindrain\arduinolcd\test\pain drain\libraries\lvgl\src\misc\lv_color.h ****     lv_color32_t ret;
ARM GAS  C:\Users\haske\AppData\Local\Temp\ccoc8x2c.s 			page 14


 420:c:\projects\paindrain\arduinolcd\test\pain drain\libraries\lvgl\src\misc\lv_color.h ****     LV_COLOR_SET_R32(ret, (LV_COLOR_GET_R(color) * 263 + 7) >> 5);
 145              		.loc 2 420 0 discriminator 2
 146 0052 CA0A     		lsrs	r2, r1, #11
 147 0054 5301     		lsls	r3, r2, #5
 148 0056 9B18     		adds	r3, r3, r2
 149 0058 DB00     		lsls	r3, r3, #3
 150 005a 9B1A     		subs	r3, r3, r2
 151 005c 0733     		adds	r3, r3, #7
 152 005e 5B11     		asrs	r3, r3, #5
 153 0060 DBB2     		uxtb	r3, r3
 154 0062 1B04     		lsls	r3, r3, #16
 155              	.LVL18:
 421:c:\projects\paindrain\arduinolcd\test\pain drain\libraries\lvgl\src\misc\lv_color.h ****     LV_COLOR_SET_G32(ret, (LV_COLOR_GET_G(color) * 259 + 3) >> 6);
 156              		.loc 2 421 0 discriminator 2
 157 0064 4A05     		lsls	r2, r1, #21
 158 0066 920E     		lsrs	r2, r2, #26
 159 0068 D001     		lsls	r0, r2, #7
 160 006a 8018     		adds	r0, r0, r2
 161 006c 4000     		lsls	r0, r0, #1
 162 006e 8218     		adds	r2, r0, r2
 163 0070 0332     		adds	r2, r2, #3
 164 0072 9211     		asrs	r2, r2, #6
 165 0074 D2B2     		uxtb	r2, r2
 166 0076 1202     		lsls	r2, r2, #8
 167              	.LVL19:
 168 0078 1343     		orrs	r3, r2
 169              	.LVL20:
 422:c:\projects\paindrain\arduinolcd\test\pain drain\libraries\lvgl\src\misc\lv_color.h ****     LV_COLOR_SET_B32(ret, (LV_COLOR_GET_B(color) * 263 + 7) >> 5);
 170              		.loc 2 422 0 discriminator 2
 171 007a C906     		lsls	r1, r1, #27
 172 007c C90E     		lsrs	r1, r1, #27
 173 007e 4A01     		lsls	r2, r1, #5
 174 0080 5218     		adds	r2, r2, r1
 175 0082 D200     		lsls	r2, r2, #3
 176 0084 521A     		subs	r2, r2, r1
 177 0086 0732     		adds	r2, r2, #7
 178 0088 5211     		asrs	r2, r2, #5
 179 008a D2B2     		uxtb	r2, r2
 180 008c FF21     		movs	r1, #255
 181 008e 8946     		mov	r9, r1
 182              	.LVL21:
 183 0090 1343     		orrs	r3, r2
 184              	.LVL22:
 423:c:\projects\paindrain\arduinolcd\test\pain drain\libraries\lvgl\src\misc\lv_color.h ****     LV_COLOR_SET_A32(ret, 0xFF);
 185              		.loc 2 423 0 discriminator 2
 186 0092 FF22     		movs	r2, #255
 187 0094 1206     		lsls	r2, r2, #24
 188 0096 9246     		mov	r10, r2
 189              	.LVL23:
 190 0098 1343     		orrs	r3, r2
 191              	.LVL24:
 192              	.LBE168:
 193              	.LBE167:
 424:c:\projects\paindrain\arduinolcd\test\pain drain\libraries\lvgl\src\misc\lv_color.h ****     return ret.full;
 425:c:\projects\paindrain\arduinolcd\test\pain drain\libraries\lvgl\src\misc\lv_color.h **** #elif LV_COLOR_DEPTH == 32
 426:c:\projects\paindrain\arduinolcd\test\pain drain\libraries\lvgl\src\misc\lv_color.h ****     return color.full;
 427:c:\projects\paindrain\arduinolcd\test\pain drain\libraries\lvgl\src\misc\lv_color.h **** #endif
ARM GAS  C:\Users\haske\AppData\Local\Temp\ccoc8x2c.s 			page 15


 428:c:\projects\paindrain\arduinolcd\test\pain drain\libraries\lvgl\src\misc\lv_color.h **** }
 429:c:\projects\paindrain\arduinolcd\test\pain drain\libraries\lvgl\src\misc\lv_color.h **** 
 430:c:\projects\paindrain\arduinolcd\test\pain drain\libraries\lvgl\src\misc\lv_color.h **** //! @cond Doxygen_Suppress
 431:c:\projects\paindrain\arduinolcd\test\pain drain\libraries\lvgl\src\misc\lv_color.h **** 
 432:c:\projects\paindrain\arduinolcd\test\pain drain\libraries\lvgl\src\misc\lv_color.h **** /**
 433:c:\projects\paindrain\arduinolcd\test\pain drain\libraries\lvgl\src\misc\lv_color.h ****  * Mix two colors with a given ratio.
 434:c:\projects\paindrain\arduinolcd\test\pain drain\libraries\lvgl\src\misc\lv_color.h ****  * @param c1 the first color to mix (usually the foreground)
 435:c:\projects\paindrain\arduinolcd\test\pain drain\libraries\lvgl\src\misc\lv_color.h ****  * @param c2 the second color to mix (usually the background)
 436:c:\projects\paindrain\arduinolcd\test\pain drain\libraries\lvgl\src\misc\lv_color.h ****  * @param mix The ratio of the colors. 0: full `c2`, 255: full `c1`, 127: half `c1` and half`c2`
 437:c:\projects\paindrain\arduinolcd\test\pain drain\libraries\lvgl\src\misc\lv_color.h ****  * @return the mixed color
 438:c:\projects\paindrain\arduinolcd\test\pain drain\libraries\lvgl\src\misc\lv_color.h ****  */
 439:c:\projects\paindrain\arduinolcd\test\pain drain\libraries\lvgl\src\misc\lv_color.h **** LV_ATTRIBUTE_FAST_MEM static inline lv_color_t lv_color_mix(lv_color_t c1, lv_color_t c2, uint8_t m
 440:c:\projects\paindrain\arduinolcd\test\pain drain\libraries\lvgl\src\misc\lv_color.h **** {
 441:c:\projects\paindrain\arduinolcd\test\pain drain\libraries\lvgl\src\misc\lv_color.h ****     lv_color_t ret;
 442:c:\projects\paindrain\arduinolcd\test\pain drain\libraries\lvgl\src\misc\lv_color.h **** 
 443:c:\projects\paindrain\arduinolcd\test\pain drain\libraries\lvgl\src\misc\lv_color.h **** #if LV_COLOR_DEPTH == 16 && LV_COLOR_16_SWAP == 0 && LV_COLOR_MIX_ROUND_OFS == 0
 444:c:\projects\paindrain\arduinolcd\test\pain drain\libraries\lvgl\src\misc\lv_color.h ****     /*Source: https://stackoverflow.com/a/50012418/1999969*/
 445:c:\projects\paindrain\arduinolcd\test\pain drain\libraries\lvgl\src\misc\lv_color.h ****     mix = (uint32_t)((uint32_t)mix + 4) >> 3;
 446:c:\projects\paindrain\arduinolcd\test\pain drain\libraries\lvgl\src\misc\lv_color.h ****     uint32_t bg = (uint32_t)((uint32_t)c2.full | ((uint32_t)c2.full << 16)) &
 447:c:\projects\paindrain\arduinolcd\test\pain drain\libraries\lvgl\src\misc\lv_color.h ****                   0x7E0F81F; /*0b00000111111000001111100000011111*/
 448:c:\projects\paindrain\arduinolcd\test\pain drain\libraries\lvgl\src\misc\lv_color.h ****     uint32_t fg = (uint32_t)((uint32_t)c1.full | ((uint32_t)c1.full << 16)) & 0x7E0F81F;
 449:c:\projects\paindrain\arduinolcd\test\pain drain\libraries\lvgl\src\misc\lv_color.h ****     uint32_t result = ((((fg - bg) * mix) >> 5) + bg) & 0x7E0F81F;
 450:c:\projects\paindrain\arduinolcd\test\pain drain\libraries\lvgl\src\misc\lv_color.h ****     ret.full = (uint16_t)((result >> 16) | result);
 451:c:\projects\paindrain\arduinolcd\test\pain drain\libraries\lvgl\src\misc\lv_color.h **** #elif LV_COLOR_DEPTH != 1
 452:c:\projects\paindrain\arduinolcd\test\pain drain\libraries\lvgl\src\misc\lv_color.h ****     /*LV_COLOR_DEPTH == 8, 16 or 32*/
 453:c:\projects\paindrain\arduinolcd\test\pain drain\libraries\lvgl\src\misc\lv_color.h ****     LV_COLOR_SET_R(ret, LV_UDIV255((uint16_t)LV_COLOR_GET_R(c1) * mix + LV_COLOR_GET_R(c2) *
 454:c:\projects\paindrain\arduinolcd\test\pain drain\libraries\lvgl\src\misc\lv_color.h ****                                    (255 - mix) + LV_COLOR_MIX_ROUND_OFS));
 455:c:\projects\paindrain\arduinolcd\test\pain drain\libraries\lvgl\src\misc\lv_color.h ****     LV_COLOR_SET_G(ret, LV_UDIV255((uint16_t)LV_COLOR_GET_G(c1) * mix + LV_COLOR_GET_G(c2) *
 456:c:\projects\paindrain\arduinolcd\test\pain drain\libraries\lvgl\src\misc\lv_color.h ****                                    (255 - mix) + LV_COLOR_MIX_ROUND_OFS));
 457:c:\projects\paindrain\arduinolcd\test\pain drain\libraries\lvgl\src\misc\lv_color.h ****     LV_COLOR_SET_B(ret, LV_UDIV255((uint16_t)LV_COLOR_GET_B(c1) * mix + LV_COLOR_GET_B(c2) *
 458:c:\projects\paindrain\arduinolcd\test\pain drain\libraries\lvgl\src\misc\lv_color.h ****                                    (255 - mix) + LV_COLOR_MIX_ROUND_OFS));
 459:c:\projects\paindrain\arduinolcd\test\pain drain\libraries\lvgl\src\misc\lv_color.h ****     LV_COLOR_SET_A(ret, 0xFF);
 460:c:\projects\paindrain\arduinolcd\test\pain drain\libraries\lvgl\src\misc\lv_color.h **** #else
 461:c:\projects\paindrain\arduinolcd\test\pain drain\libraries\lvgl\src\misc\lv_color.h ****     /*LV_COLOR_DEPTH == 1*/
 462:c:\projects\paindrain\arduinolcd\test\pain drain\libraries\lvgl\src\misc\lv_color.h ****     ret.full = mix > LV_OPA_50 ? c1.full : c2.full;
 463:c:\projects\paindrain\arduinolcd\test\pain drain\libraries\lvgl\src\misc\lv_color.h **** #endif
 464:c:\projects\paindrain\arduinolcd\test\pain drain\libraries\lvgl\src\misc\lv_color.h **** 
 465:c:\projects\paindrain\arduinolcd\test\pain drain\libraries\lvgl\src\misc\lv_color.h ****     return ret;
 466:c:\projects\paindrain\arduinolcd\test\pain drain\libraries\lvgl\src\misc\lv_color.h **** }
 467:c:\projects\paindrain\arduinolcd\test\pain drain\libraries\lvgl\src\misc\lv_color.h **** 
 468:c:\projects\paindrain\arduinolcd\test\pain drain\libraries\lvgl\src\misc\lv_color.h **** LV_ATTRIBUTE_FAST_MEM static inline void lv_color_premult(lv_color_t c, uint8_t mix, uint16_t * out
 469:c:\projects\paindrain\arduinolcd\test\pain drain\libraries\lvgl\src\misc\lv_color.h **** {
 470:c:\projects\paindrain\arduinolcd\test\pain drain\libraries\lvgl\src\misc\lv_color.h **** #if LV_COLOR_DEPTH != 1
 471:c:\projects\paindrain\arduinolcd\test\pain drain\libraries\lvgl\src\misc\lv_color.h ****     out[0] = (uint16_t)LV_COLOR_GET_R(c) * mix;
 472:c:\projects\paindrain\arduinolcd\test\pain drain\libraries\lvgl\src\misc\lv_color.h ****     out[1] = (uint16_t)LV_COLOR_GET_G(c) * mix;
 473:c:\projects\paindrain\arduinolcd\test\pain drain\libraries\lvgl\src\misc\lv_color.h ****     out[2] = (uint16_t)LV_COLOR_GET_B(c) * mix;
 474:c:\projects\paindrain\arduinolcd\test\pain drain\libraries\lvgl\src\misc\lv_color.h **** #else
 475:c:\projects\paindrain\arduinolcd\test\pain drain\libraries\lvgl\src\misc\lv_color.h ****     (void) mix;
 476:c:\projects\paindrain\arduinolcd\test\pain drain\libraries\lvgl\src\misc\lv_color.h ****     /*Pre-multiplication can't be used with 1 bpp*/
 477:c:\projects\paindrain\arduinolcd\test\pain drain\libraries\lvgl\src\misc\lv_color.h ****     out[0] = LV_COLOR_GET_R(c);
 478:c:\projects\paindrain\arduinolcd\test\pain drain\libraries\lvgl\src\misc\lv_color.h ****     out[1] = LV_COLOR_GET_G(c);
 479:c:\projects\paindrain\arduinolcd\test\pain drain\libraries\lvgl\src\misc\lv_color.h ****     out[2] = LV_COLOR_GET_B(c);
 480:c:\projects\paindrain\arduinolcd\test\pain drain\libraries\lvgl\src\misc\lv_color.h **** #endif
 481:c:\projects\paindrain\arduinolcd\test\pain drain\libraries\lvgl\src\misc\lv_color.h **** 
 482:c:\projects\paindrain\arduinolcd\test\pain drain\libraries\lvgl\src\misc\lv_color.h **** }
 483:c:\projects\paindrain\arduinolcd\test\pain drain\libraries\lvgl\src\misc\lv_color.h **** 
 484:c:\projects\paindrain\arduinolcd\test\pain drain\libraries\lvgl\src\misc\lv_color.h **** /**
ARM GAS  C:\Users\haske\AppData\Local\Temp\ccoc8x2c.s 			page 16


 485:c:\projects\paindrain\arduinolcd\test\pain drain\libraries\lvgl\src\misc\lv_color.h ****  * Mix two colors with a given ratio. It runs faster then `lv_color_mix` but requires some pre comp
 486:c:\projects\paindrain\arduinolcd\test\pain drain\libraries\lvgl\src\misc\lv_color.h ****  * @param premult_c1 The first color. Should be preprocessed with `lv_color_premult(c1)`
 487:c:\projects\paindrain\arduinolcd\test\pain drain\libraries\lvgl\src\misc\lv_color.h ****  * @param c2 The second color. As it is no pre computation required on it
 488:c:\projects\paindrain\arduinolcd\test\pain drain\libraries\lvgl\src\misc\lv_color.h ****  * @param mix The ratio of the colors. 0: full `c1`, 255: full `c2`, 127: half `c1` and half `c2`.
 489:c:\projects\paindrain\arduinolcd\test\pain drain\libraries\lvgl\src\misc\lv_color.h ****  *            Should be modified like mix = `255 - mix`
 490:c:\projects\paindrain\arduinolcd\test\pain drain\libraries\lvgl\src\misc\lv_color.h ****  * @return the mixed color
 491:c:\projects\paindrain\arduinolcd\test\pain drain\libraries\lvgl\src\misc\lv_color.h ****  * @note 255 won't give clearly `c1`.
 492:c:\projects\paindrain\arduinolcd\test\pain drain\libraries\lvgl\src\misc\lv_color.h ****  */
 493:c:\projects\paindrain\arduinolcd\test\pain drain\libraries\lvgl\src\misc\lv_color.h **** LV_ATTRIBUTE_FAST_MEM static inline lv_color_t lv_color_mix_premult(uint16_t * premult_c1, lv_color
 494:c:\projects\paindrain\arduinolcd\test\pain drain\libraries\lvgl\src\misc\lv_color.h **** {
 495:c:\projects\paindrain\arduinolcd\test\pain drain\libraries\lvgl\src\misc\lv_color.h ****     lv_color_t ret;
 496:c:\projects\paindrain\arduinolcd\test\pain drain\libraries\lvgl\src\misc\lv_color.h **** #if LV_COLOR_DEPTH != 1
 497:c:\projects\paindrain\arduinolcd\test\pain drain\libraries\lvgl\src\misc\lv_color.h ****     /*LV_COLOR_DEPTH == 8 or 32*/
 498:c:\projects\paindrain\arduinolcd\test\pain drain\libraries\lvgl\src\misc\lv_color.h ****     LV_COLOR_SET_R(ret, LV_UDIV255(premult_c1[0] + LV_COLOR_GET_R(c2) * mix + LV_COLOR_MIX_ROUND_OF
 499:c:\projects\paindrain\arduinolcd\test\pain drain\libraries\lvgl\src\misc\lv_color.h ****     LV_COLOR_SET_G(ret, LV_UDIV255(premult_c1[1] + LV_COLOR_GET_G(c2) * mix + LV_COLOR_MIX_ROUND_OF
 500:c:\projects\paindrain\arduinolcd\test\pain drain\libraries\lvgl\src\misc\lv_color.h ****     LV_COLOR_SET_B(ret, LV_UDIV255(premult_c1[2] + LV_COLOR_GET_B(c2) * mix + LV_COLOR_MIX_ROUND_OF
 501:c:\projects\paindrain\arduinolcd\test\pain drain\libraries\lvgl\src\misc\lv_color.h ****     LV_COLOR_SET_A(ret, 0xFF);
 502:c:\projects\paindrain\arduinolcd\test\pain drain\libraries\lvgl\src\misc\lv_color.h **** #else
 503:c:\projects\paindrain\arduinolcd\test\pain drain\libraries\lvgl\src\misc\lv_color.h ****     /*LV_COLOR_DEPTH == 1*/
 504:c:\projects\paindrain\arduinolcd\test\pain drain\libraries\lvgl\src\misc\lv_color.h ****     /*Restore color1*/
 505:c:\projects\paindrain\arduinolcd\test\pain drain\libraries\lvgl\src\misc\lv_color.h ****     lv_color_t c1;
 506:c:\projects\paindrain\arduinolcd\test\pain drain\libraries\lvgl\src\misc\lv_color.h ****     LV_COLOR_SET_R(c1, premult_c1[0]);
 507:c:\projects\paindrain\arduinolcd\test\pain drain\libraries\lvgl\src\misc\lv_color.h ****     LV_COLOR_SET_G(c1, premult_c1[1]);
 508:c:\projects\paindrain\arduinolcd\test\pain drain\libraries\lvgl\src\misc\lv_color.h ****     LV_COLOR_SET_B(c1, premult_c1[2]);
 509:c:\projects\paindrain\arduinolcd\test\pain drain\libraries\lvgl\src\misc\lv_color.h ****     ret.full = mix > LV_OPA_50 ? c2.full : c1.full;
 510:c:\projects\paindrain\arduinolcd\test\pain drain\libraries\lvgl\src\misc\lv_color.h **** #endif
 511:c:\projects\paindrain\arduinolcd\test\pain drain\libraries\lvgl\src\misc\lv_color.h **** 
 512:c:\projects\paindrain\arduinolcd\test\pain drain\libraries\lvgl\src\misc\lv_color.h ****     return ret;
 513:c:\projects\paindrain\arduinolcd\test\pain drain\libraries\lvgl\src\misc\lv_color.h **** }
 514:c:\projects\paindrain\arduinolcd\test\pain drain\libraries\lvgl\src\misc\lv_color.h **** 
 515:c:\projects\paindrain\arduinolcd\test\pain drain\libraries\lvgl\src\misc\lv_color.h **** /**
 516:c:\projects\paindrain\arduinolcd\test\pain drain\libraries\lvgl\src\misc\lv_color.h ****  * Mix two colors. Both color can have alpha value.
 517:c:\projects\paindrain\arduinolcd\test\pain drain\libraries\lvgl\src\misc\lv_color.h ****  * @param bg_color background color
 518:c:\projects\paindrain\arduinolcd\test\pain drain\libraries\lvgl\src\misc\lv_color.h ****  * @param bg_opa alpha of the background color
 519:c:\projects\paindrain\arduinolcd\test\pain drain\libraries\lvgl\src\misc\lv_color.h ****  * @param fg_color foreground color
 520:c:\projects\paindrain\arduinolcd\test\pain drain\libraries\lvgl\src\misc\lv_color.h ****  * @param fg_opa alpha of the foreground color
 521:c:\projects\paindrain\arduinolcd\test\pain drain\libraries\lvgl\src\misc\lv_color.h ****  * @param res_color the result color
 522:c:\projects\paindrain\arduinolcd\test\pain drain\libraries\lvgl\src\misc\lv_color.h ****  * @param res_opa the result opacity
 523:c:\projects\paindrain\arduinolcd\test\pain drain\libraries\lvgl\src\misc\lv_color.h ****  */
 524:c:\projects\paindrain\arduinolcd\test\pain drain\libraries\lvgl\src\misc\lv_color.h **** LV_ATTRIBUTE_FAST_MEM static inline void lv_color_mix_with_alpha(lv_color_t bg_color, lv_opa_t bg_o
 525:c:\projects\paindrain\arduinolcd\test\pain drain\libraries\lvgl\src\misc\lv_color.h ****                                                                  lv_color_t fg_color, lv_opa_t fg_o
 526:c:\projects\paindrain\arduinolcd\test\pain drain\libraries\lvgl\src\misc\lv_color.h ****                                                                  lv_color_t * res_color, lv_opa_t *
 527:c:\projects\paindrain\arduinolcd\test\pain drain\libraries\lvgl\src\misc\lv_color.h **** {
 528:c:\projects\paindrain\arduinolcd\test\pain drain\libraries\lvgl\src\misc\lv_color.h ****     /*Pick the foreground if it's fully opaque or the Background is fully transparent*/
 529:c:\projects\paindrain\arduinolcd\test\pain drain\libraries\lvgl\src\misc\lv_color.h ****     if(fg_opa >= LV_OPA_MAX || bg_opa <= LV_OPA_MIN) {
 530:c:\projects\paindrain\arduinolcd\test\pain drain\libraries\lvgl\src\misc\lv_color.h ****         res_color->full = fg_color.full;
 531:c:\projects\paindrain\arduinolcd\test\pain drain\libraries\lvgl\src\misc\lv_color.h ****         *res_opa = fg_opa;
 532:c:\projects\paindrain\arduinolcd\test\pain drain\libraries\lvgl\src\misc\lv_color.h ****     }
 533:c:\projects\paindrain\arduinolcd\test\pain drain\libraries\lvgl\src\misc\lv_color.h ****     /*Transparent foreground: use the Background*/
 534:c:\projects\paindrain\arduinolcd\test\pain drain\libraries\lvgl\src\misc\lv_color.h ****     else if(fg_opa <= LV_OPA_MIN) {
 535:c:\projects\paindrain\arduinolcd\test\pain drain\libraries\lvgl\src\misc\lv_color.h ****         res_color->full = bg_color.full;
 536:c:\projects\paindrain\arduinolcd\test\pain drain\libraries\lvgl\src\misc\lv_color.h ****         *res_opa = bg_opa;
 537:c:\projects\paindrain\arduinolcd\test\pain drain\libraries\lvgl\src\misc\lv_color.h ****     }
 538:c:\projects\paindrain\arduinolcd\test\pain drain\libraries\lvgl\src\misc\lv_color.h ****     /*Opaque background: use simple mix*/
 539:c:\projects\paindrain\arduinolcd\test\pain drain\libraries\lvgl\src\misc\lv_color.h ****     else if(bg_opa >= LV_OPA_MAX) {
 540:c:\projects\paindrain\arduinolcd\test\pain drain\libraries\lvgl\src\misc\lv_color.h ****         *res_color = lv_color_mix(fg_color, bg_color, fg_opa);
 541:c:\projects\paindrain\arduinolcd\test\pain drain\libraries\lvgl\src\misc\lv_color.h ****         *res_opa = LV_OPA_COVER;
ARM GAS  C:\Users\haske\AppData\Local\Temp\ccoc8x2c.s 			page 17


 542:c:\projects\paindrain\arduinolcd\test\pain drain\libraries\lvgl\src\misc\lv_color.h ****     }
 543:c:\projects\paindrain\arduinolcd\test\pain drain\libraries\lvgl\src\misc\lv_color.h ****     /*Both colors have alpha. Expensive calculation need to be applied*/
 544:c:\projects\paindrain\arduinolcd\test\pain drain\libraries\lvgl\src\misc\lv_color.h ****     else {
 545:c:\projects\paindrain\arduinolcd\test\pain drain\libraries\lvgl\src\misc\lv_color.h ****         /*Save the parameters and the result. If they will be asked again don't compute again*/
 546:c:\projects\paindrain\arduinolcd\test\pain drain\libraries\lvgl\src\misc\lv_color.h ****         static lv_opa_t fg_opa_save     = 0;
 547:c:\projects\paindrain\arduinolcd\test\pain drain\libraries\lvgl\src\misc\lv_color.h ****         static lv_opa_t bg_opa_save     = 0;
 548:c:\projects\paindrain\arduinolcd\test\pain drain\libraries\lvgl\src\misc\lv_color.h ****         static lv_color_t fg_color_save = _LV_COLOR_ZERO_INITIALIZER;
 549:c:\projects\paindrain\arduinolcd\test\pain drain\libraries\lvgl\src\misc\lv_color.h ****         static lv_color_t bg_color_save = _LV_COLOR_ZERO_INITIALIZER;
 550:c:\projects\paindrain\arduinolcd\test\pain drain\libraries\lvgl\src\misc\lv_color.h ****         static lv_color_t res_color_saved = _LV_COLOR_ZERO_INITIALIZER;
 551:c:\projects\paindrain\arduinolcd\test\pain drain\libraries\lvgl\src\misc\lv_color.h ****         static lv_opa_t res_opa_saved = 0;
 552:c:\projects\paindrain\arduinolcd\test\pain drain\libraries\lvgl\src\misc\lv_color.h **** 
 553:c:\projects\paindrain\arduinolcd\test\pain drain\libraries\lvgl\src\misc\lv_color.h ****         if(fg_opa != fg_opa_save || bg_opa != bg_opa_save || fg_color.full != fg_color_save.full ||
 554:c:\projects\paindrain\arduinolcd\test\pain drain\libraries\lvgl\src\misc\lv_color.h ****            bg_color.full != bg_color_save.full) {
 555:c:\projects\paindrain\arduinolcd\test\pain drain\libraries\lvgl\src\misc\lv_color.h ****             fg_opa_save        = fg_opa;
 556:c:\projects\paindrain\arduinolcd\test\pain drain\libraries\lvgl\src\misc\lv_color.h ****             bg_opa_save        = bg_opa;
 557:c:\projects\paindrain\arduinolcd\test\pain drain\libraries\lvgl\src\misc\lv_color.h ****             fg_color_save.full = fg_color.full;
 558:c:\projects\paindrain\arduinolcd\test\pain drain\libraries\lvgl\src\misc\lv_color.h ****             bg_color_save.full = bg_color.full;
 559:c:\projects\paindrain\arduinolcd\test\pain drain\libraries\lvgl\src\misc\lv_color.h ****             /*Info:
 560:c:\projects\paindrain\arduinolcd\test\pain drain\libraries\lvgl\src\misc\lv_color.h ****              * https://en.wikipedia.org/wiki/Alpha_compositing#Analytical_derivation_of_the_over_op
 561:c:\projects\paindrain\arduinolcd\test\pain drain\libraries\lvgl\src\misc\lv_color.h ****             res_opa_saved = 255 - ((uint16_t)((uint16_t)(255 - fg_opa) * (255 - bg_opa)) >> 8);
 562:c:\projects\paindrain\arduinolcd\test\pain drain\libraries\lvgl\src\misc\lv_color.h ****             LV_ASSERT(res_opa_saved != 0);
 563:c:\projects\paindrain\arduinolcd\test\pain drain\libraries\lvgl\src\misc\lv_color.h ****             lv_opa_t ratio = (uint16_t)((uint16_t)fg_opa * 255) / res_opa_saved;
 564:c:\projects\paindrain\arduinolcd\test\pain drain\libraries\lvgl\src\misc\lv_color.h ****             res_color_saved = lv_color_mix(fg_color, bg_color, ratio);
 565:c:\projects\paindrain\arduinolcd\test\pain drain\libraries\lvgl\src\misc\lv_color.h **** 
 566:c:\projects\paindrain\arduinolcd\test\pain drain\libraries\lvgl\src\misc\lv_color.h ****         }
 567:c:\projects\paindrain\arduinolcd\test\pain drain\libraries\lvgl\src\misc\lv_color.h **** 
 568:c:\projects\paindrain\arduinolcd\test\pain drain\libraries\lvgl\src\misc\lv_color.h ****         res_color->full = res_color_saved.full;
 569:c:\projects\paindrain\arduinolcd\test\pain drain\libraries\lvgl\src\misc\lv_color.h ****         *res_opa = res_opa_saved;
 570:c:\projects\paindrain\arduinolcd\test\pain drain\libraries\lvgl\src\misc\lv_color.h ****     }
 571:c:\projects\paindrain\arduinolcd\test\pain drain\libraries\lvgl\src\misc\lv_color.h **** }
 572:c:\projects\paindrain\arduinolcd\test\pain drain\libraries\lvgl\src\misc\lv_color.h **** 
 573:c:\projects\paindrain\arduinolcd\test\pain drain\libraries\lvgl\src\misc\lv_color.h **** //! @endcond
 574:c:\projects\paindrain\arduinolcd\test\pain drain\libraries\lvgl\src\misc\lv_color.h **** 
 575:c:\projects\paindrain\arduinolcd\test\pain drain\libraries\lvgl\src\misc\lv_color.h **** /**
 576:c:\projects\paindrain\arduinolcd\test\pain drain\libraries\lvgl\src\misc\lv_color.h ****  * Get the brightness of a color
 577:c:\projects\paindrain\arduinolcd\test\pain drain\libraries\lvgl\src\misc\lv_color.h ****  * @param color a color
 578:c:\projects\paindrain\arduinolcd\test\pain drain\libraries\lvgl\src\misc\lv_color.h ****  * @return the brightness [0..255]
 579:c:\projects\paindrain\arduinolcd\test\pain drain\libraries\lvgl\src\misc\lv_color.h ****  */
 580:c:\projects\paindrain\arduinolcd\test\pain drain\libraries\lvgl\src\misc\lv_color.h **** static inline uint8_t lv_color_brightness(lv_color_t color)
 581:c:\projects\paindrain\arduinolcd\test\pain drain\libraries\lvgl\src\misc\lv_color.h **** {
 582:c:\projects\paindrain\arduinolcd\test\pain drain\libraries\lvgl\src\misc\lv_color.h ****     lv_color32_t c32;
 583:c:\projects\paindrain\arduinolcd\test\pain drain\libraries\lvgl\src\misc\lv_color.h ****     c32.full        = lv_color_to32(color);
 584:c:\projects\paindrain\arduinolcd\test\pain drain\libraries\lvgl\src\misc\lv_color.h ****     uint16_t bright = (uint16_t)(3u * LV_COLOR_GET_R32(c32) + LV_COLOR_GET_B32(c32) + 4u * LV_COLOR
 194              		.loc 2 584 0 discriminator 2
 195 009a 1A02     		lsls	r2, r3, #8
 196 009c 120E     		lsrs	r2, r2, #24
 197 009e 1904     		lsls	r1, r3, #16
 198 00a0 090E     		lsrs	r1, r1, #24
 199 00a2 5000     		lsls	r0, r2, #1
 200 00a4 1218     		adds	r2, r2, r0
 201 00a6 8900     		lsls	r1, r1, #2
 202 00a8 5218     		adds	r2, r2, r1
 203 00aa 92B2     		uxth	r2, r2
 204 00ac DBB2     		uxtb	r3, r3
 205              	.LVL25:
 206 00ae D318     		adds	r3, r2, r3
 207 00b0 9BB2     		uxth	r3, r3
ARM GAS  C:\Users\haske\AppData\Local\Temp\ccoc8x2c.s 			page 18


 208              	.LVL26:
 585:c:\projects\paindrain\arduinolcd\test\pain drain\libraries\lvgl\src\misc\lv_color.h ****     return (uint8_t)(bright >> 3);
 209              		.loc 2 585 0 discriminator 2
 210 00b2 DB08     		lsrs	r3, r3, #3
 211              	.LVL27:
 212 00b4 DBB2     		uxtb	r3, r3
 213              	.LVL28:
 214              	.LBE166:
 215              	.LBE165:
 216              	.LBB169:
 217              	.LBB170:
 445:c:\projects\paindrain\arduinolcd\test\pain drain\libraries\lvgl\src\misc\lv_color.h ****     uint32_t bg = (uint32_t)((uint32_t)c2.full | ((uint32_t)c2.full << 16)) &
 218              		.loc 2 445 0 discriminator 2
 219 00b6 0433     		adds	r3, r3, #4
 220 00b8 DB08     		lsrs	r3, r3, #3
 221              	.LVL29:
 446:c:\projects\paindrain\arduinolcd\test\pain drain\libraries\lvgl\src\misc\lv_color.h ****                   0x7E0F81F; /*0b00000111111000001111100000011111*/
 222              		.loc 2 446 0 discriminator 2
 223 00ba D24A     		ldr	r2, .L5+4
 224              	.LVL30:
 448:c:\projects\paindrain\arduinolcd\test\pain drain\libraries\lvgl\src\misc\lv_color.h ****     uint32_t result = ((((fg - bg) * mix) >> 5) + bg) & 0x7E0F81F;
 225              		.loc 2 448 0 discriminator 2
 226 00bc BE8C     		ldrh	r6, [r7, #36]
 227 00be 3104     		lsls	r1, r6, #16
 228 00c0 0E43     		orrs	r6, r1
 229              	.LVL31:
 449:c:\projects\paindrain\arduinolcd\test\pain drain\libraries\lvgl\src\misc\lv_color.h ****     ret.full = (uint16_t)((result >> 16) | result);
 230              		.loc 2 449 0 discriminator 2
 231 00c2 1640     		ands	r6, r2
 232              	.LVL32:
 233 00c4 4946     		mov	r1, r9
 234 00c6 0B40     		ands	r3, r1
 235              	.LVL33:
 236 00c8 7343     		muls	r3, r6
 237 00ca 5B09     		lsrs	r3, r3, #5
 238 00cc 1340     		ands	r3, r2
 239              	.LVL34:
 450:c:\projects\paindrain\arduinolcd\test\pain drain\libraries\lvgl\src\misc\lv_color.h **** #elif LV_COLOR_DEPTH != 1
 240              		.loc 2 450 0 discriminator 2
 241 00ce 1E0C     		lsrs	r6, r3, #16
 242              	.LVL35:
 243 00d0 3343     		orrs	r3, r6
 244              	.LVL36:
 245 00d2 9EB2     		uxth	r6, r3
 246              	.LVL37:
 247              	.LBE170:
 248              	.LBE169:
 179:..\..\..\arduinoLCD\test\Pain Drain\libraries\lvgl\src\extra\widgets\led/lv_led.c **** 
 180:..\..\..\arduinoLCD\test\Pain Drain\libraries\lvgl\src\extra\widgets\led/lv_led.c ****         /*Use the original colors brightness to modify color->led*/
 181:..\..\..\arduinoLCD\test\Pain Drain\libraries\lvgl\src\extra\widgets\led/lv_led.c ****         rect_dsc.bg_color = lv_color_mix(led->color, lv_color_black(), lv_color_brightness(rect_dsc
 249              		.loc 1 181 0 discriminator 2
 250 00d4 04AB     		add	r3, sp, #16
 251 00d6 9E80     		strh	r6, [r3, #4]
 252 00d8 D888     		ldrh	r0, [r3, #6]
 253              	.LBB171:
 254              	.LBB172:
 255              	.LBB173:
ARM GAS  C:\Users\haske\AppData\Local\Temp\ccoc8x2c.s 			page 19


 256              	.LBB174:
 420:c:\projects\paindrain\arduinolcd\test\pain drain\libraries\lvgl\src\misc\lv_color.h ****     LV_COLOR_SET_G32(ret, (LV_COLOR_GET_G(color) * 259 + 3) >> 6);
 257              		.loc 2 420 0 discriminator 2
 258 00da C10A     		lsrs	r1, r0, #11
 259 00dc 4B01     		lsls	r3, r1, #5
 260 00de 5B18     		adds	r3, r3, r1
 261 00e0 DB00     		lsls	r3, r3, #3
 262 00e2 5B1A     		subs	r3, r3, r1
 263 00e4 0733     		adds	r3, r3, #7
 264 00e6 5B11     		asrs	r3, r3, #5
 265 00e8 DBB2     		uxtb	r3, r3
 266 00ea 1904     		lsls	r1, r3, #16
 267              	.LVL38:
 421:c:\projects\paindrain\arduinolcd\test\pain drain\libraries\lvgl\src\misc\lv_color.h ****     LV_COLOR_SET_B32(ret, (LV_COLOR_GET_B(color) * 263 + 7) >> 5);
 268              		.loc 2 421 0 discriminator 2
 269 00ec 4305     		lsls	r3, r0, #21
 270 00ee 9B0E     		lsrs	r3, r3, #26
 271 00f0 DD01     		lsls	r5, r3, #7
 272 00f2 ED18     		adds	r5, r5, r3
 273 00f4 6D00     		lsls	r5, r5, #1
 274 00f6 EB18     		adds	r3, r5, r3
 275 00f8 0333     		adds	r3, r3, #3
 276 00fa 9B11     		asrs	r3, r3, #6
 277 00fc DBB2     		uxtb	r3, r3
 278 00fe 1B02     		lsls	r3, r3, #8
 279              	.LVL39:
 280 0100 1943     		orrs	r1, r3
 281              	.LVL40:
 422:c:\projects\paindrain\arduinolcd\test\pain drain\libraries\lvgl\src\misc\lv_color.h ****     LV_COLOR_SET_A32(ret, 0xFF);
 282              		.loc 2 422 0 discriminator 2
 283 0102 C006     		lsls	r0, r0, #27
 284 0104 C00E     		lsrs	r0, r0, #27
 285 0106 4301     		lsls	r3, r0, #5
 286 0108 1B18     		adds	r3, r3, r0
 287 010a DB00     		lsls	r3, r3, #3
 288 010c 1B1A     		subs	r3, r3, r0
 289 010e 0733     		adds	r3, r3, #7
 290 0110 5B11     		asrs	r3, r3, #5
 291 0112 DBB2     		uxtb	r3, r3
 292              	.LVL41:
 293 0114 1943     		orrs	r1, r3
 294              	.LVL42:
 423:c:\projects\paindrain\arduinolcd\test\pain drain\libraries\lvgl\src\misc\lv_color.h ****     return ret.full;
 295              		.loc 2 423 0 discriminator 2
 296 0116 5346     		mov	r3, r10
 297              	.LVL43:
 298 0118 1943     		orrs	r1, r3
 299              	.LVL44:
 300              	.LBE174:
 301              	.LBE173:
 584:c:\projects\paindrain\arduinolcd\test\pain drain\libraries\lvgl\src\misc\lv_color.h ****     return (uint8_t)(bright >> 3);
 302              		.loc 2 584 0 discriminator 2
 303 011a 0802     		lsls	r0, r1, #8
 304 011c 000E     		lsrs	r0, r0, #24
 305 011e 0D04     		lsls	r5, r1, #16
 306 0120 2D0E     		lsrs	r5, r5, #24
 307 0122 4300     		lsls	r3, r0, #1
ARM GAS  C:\Users\haske\AppData\Local\Temp\ccoc8x2c.s 			page 20


 308 0124 C018     		adds	r0, r0, r3
 309 0126 AD00     		lsls	r5, r5, #2
 310 0128 4319     		adds	r3, r0, r5
 311 012a 98B2     		uxth	r0, r3
 312 012c CBB2     		uxtb	r3, r1
 313 012e C318     		adds	r3, r0, r3
 314 0130 9BB2     		uxth	r3, r3
 315              	.LVL45:
 316              		.loc 2 585 0 discriminator 2
 317 0132 DB08     		lsrs	r3, r3, #3
 318              	.LVL46:
 319 0134 DBB2     		uxtb	r3, r3
 320              	.LVL47:
 321              	.LBE172:
 322              	.LBE171:
 323              	.LBB175:
 324              	.LBB176:
 445:c:\projects\paindrain\arduinolcd\test\pain drain\libraries\lvgl\src\misc\lv_color.h ****     uint32_t bg = (uint32_t)((uint32_t)c2.full | ((uint32_t)c2.full << 16)) &
 325              		.loc 2 445 0 discriminator 2
 326 0136 0433     		adds	r3, r3, #4
 327 0138 DB08     		lsrs	r3, r3, #3
 328              	.LVL48:
 448:c:\projects\paindrain\arduinolcd\test\pain drain\libraries\lvgl\src\misc\lv_color.h ****     uint32_t result = ((((fg - bg) * mix) >> 5) + bg) & 0x7E0F81F;
 329              		.loc 2 448 0 discriminator 2
 330 013a BD8C     		ldrh	r5, [r7, #36]
 331 013c 2904     		lsls	r1, r5, #16
 332              	.LVL49:
 333 013e 0D43     		orrs	r5, r1
 334              	.LVL50:
 449:c:\projects\paindrain\arduinolcd\test\pain drain\libraries\lvgl\src\misc\lv_color.h ****     ret.full = (uint16_t)((result >> 16) | result);
 335              		.loc 2 449 0 discriminator 2
 336 0140 1540     		ands	r5, r2
 337              	.LVL51:
 338 0142 4946     		mov	r1, r9
 339 0144 0B40     		ands	r3, r1
 340              	.LVL52:
 341 0146 6B43     		muls	r3, r5
 342 0148 5B09     		lsrs	r3, r3, #5
 343 014a 1340     		ands	r3, r2
 344              	.LVL53:
 450:c:\projects\paindrain\arduinolcd\test\pain drain\libraries\lvgl\src\misc\lv_color.h **** #elif LV_COLOR_DEPTH != 1
 345              		.loc 2 450 0 discriminator 2
 346 014c 1D0C     		lsrs	r5, r3, #16
 347              	.LVL54:
 348 014e 2B43     		orrs	r3, r5
 349              	.LVL55:
 350 0150 9DB2     		uxth	r5, r3
 351              	.LVL56:
 352              	.LBE176:
 353              	.LBE175:
 182:..\..\..\arduinoLCD\test\Pain Drain\libraries\lvgl\src\extra\widgets\led/lv_led.c ****         rect_dsc.bg_grad.stops[0].color = lv_color_mix(led->color, lv_color_black(),
 354              		.loc 1 182 0 discriminator 2
 355 0152 04AB     		add	r3, sp, #16
 356 0154 DD80     		strh	r5, [r3, #6]
 357 0156 5889     		ldrh	r0, [r3, #10]
 358              	.LBB177:
 359              	.LBB178:
ARM GAS  C:\Users\haske\AppData\Local\Temp\ccoc8x2c.s 			page 21


 360              	.LBB179:
 361              	.LBB180:
 420:c:\projects\paindrain\arduinolcd\test\pain drain\libraries\lvgl\src\misc\lv_color.h ****     LV_COLOR_SET_G32(ret, (LV_COLOR_GET_G(color) * 259 + 3) >> 6);
 362              		.loc 2 420 0 discriminator 2
 363 0158 C10A     		lsrs	r1, r0, #11
 364 015a 4B01     		lsls	r3, r1, #5
 365 015c 5B18     		adds	r3, r3, r1
 366 015e DB00     		lsls	r3, r3, #3
 367 0160 5B1A     		subs	r3, r3, r1
 368 0162 0733     		adds	r3, r3, #7
 369 0164 5B11     		asrs	r3, r3, #5
 370 0166 DBB2     		uxtb	r3, r3
 371 0168 1904     		lsls	r1, r3, #16
 372              	.LVL57:
 421:c:\projects\paindrain\arduinolcd\test\pain drain\libraries\lvgl\src\misc\lv_color.h ****     LV_COLOR_SET_B32(ret, (LV_COLOR_GET_B(color) * 263 + 7) >> 5);
 373              		.loc 2 421 0 discriminator 2
 374 016a 4305     		lsls	r3, r0, #21
 375 016c 9B0E     		lsrs	r3, r3, #26
 376 016e DC01     		lsls	r4, r3, #7
 377              	.LVL58:
 378 0170 E418     		adds	r4, r4, r3
 379 0172 6400     		lsls	r4, r4, #1
 380 0174 E318     		adds	r3, r4, r3
 381 0176 0333     		adds	r3, r3, #3
 382 0178 9B11     		asrs	r3, r3, #6
 383 017a DBB2     		uxtb	r3, r3
 384 017c 1B02     		lsls	r3, r3, #8
 385              	.LVL59:
 386 017e 1943     		orrs	r1, r3
 387              	.LVL60:
 422:c:\projects\paindrain\arduinolcd\test\pain drain\libraries\lvgl\src\misc\lv_color.h ****     LV_COLOR_SET_A32(ret, 0xFF);
 388              		.loc 2 422 0 discriminator 2
 389 0180 C006     		lsls	r0, r0, #27
 390 0182 C00E     		lsrs	r0, r0, #27
 391 0184 4301     		lsls	r3, r0, #5
 392 0186 1B18     		adds	r3, r3, r0
 393 0188 DB00     		lsls	r3, r3, #3
 394 018a 1B1A     		subs	r3, r3, r0
 395 018c 0733     		adds	r3, r3, #7
 396 018e 5B11     		asrs	r3, r3, #5
 397 0190 DBB2     		uxtb	r3, r3
 398              	.LVL61:
 399 0192 1943     		orrs	r1, r3
 400              	.LVL62:
 423:c:\projects\paindrain\arduinolcd\test\pain drain\libraries\lvgl\src\misc\lv_color.h ****     return ret.full;
 401              		.loc 2 423 0 discriminator 2
 402 0194 5346     		mov	r3, r10
 403              	.LVL63:
 404 0196 1943     		orrs	r1, r3
 405              	.LVL64:
 406              	.LBE180:
 407              	.LBE179:
 584:c:\projects\paindrain\arduinolcd\test\pain drain\libraries\lvgl\src\misc\lv_color.h ****     return (uint8_t)(bright >> 3);
 408              		.loc 2 584 0 discriminator 2
 409 0198 0B02     		lsls	r3, r1, #8
 410 019a 1B0E     		lsrs	r3, r3, #24
 411 019c 0804     		lsls	r0, r1, #16
ARM GAS  C:\Users\haske\AppData\Local\Temp\ccoc8x2c.s 			page 22


 412 019e 000E     		lsrs	r0, r0, #24
 413 01a0 5C00     		lsls	r4, r3, #1
 414 01a2 1B19     		adds	r3, r3, r4
 415 01a4 8000     		lsls	r0, r0, #2
 416 01a6 1B18     		adds	r3, r3, r0
 417 01a8 98B2     		uxth	r0, r3
 418 01aa CBB2     		uxtb	r3, r1
 419 01ac C318     		adds	r3, r0, r3
 420 01ae 9BB2     		uxth	r3, r3
 421              	.LVL65:
 422              		.loc 2 585 0 discriminator 2
 423 01b0 DB08     		lsrs	r3, r3, #3
 424              	.LVL66:
 425 01b2 DBB2     		uxtb	r3, r3
 426              	.LVL67:
 427              	.LBE178:
 428              	.LBE177:
 429              	.LBB181:
 430              	.LBB182:
 445:c:\projects\paindrain\arduinolcd\test\pain drain\libraries\lvgl\src\misc\lv_color.h ****     uint32_t bg = (uint32_t)((uint32_t)c2.full | ((uint32_t)c2.full << 16)) &
 431              		.loc 2 445 0 discriminator 2
 432 01b4 0433     		adds	r3, r3, #4
 433 01b6 DB08     		lsrs	r3, r3, #3
 434              	.LVL68:
 448:c:\projects\paindrain\arduinolcd\test\pain drain\libraries\lvgl\src\misc\lv_color.h ****     uint32_t result = ((((fg - bg) * mix) >> 5) + bg) & 0x7E0F81F;
 435              		.loc 2 448 0 discriminator 2
 436 01b8 B88C     		ldrh	r0, [r7, #36]
 437 01ba 0104     		lsls	r1, r0, #16
 438              	.LVL69:
 439 01bc 0843     		orrs	r0, r1
 440              	.LVL70:
 449:c:\projects\paindrain\arduinolcd\test\pain drain\libraries\lvgl\src\misc\lv_color.h ****     ret.full = (uint16_t)((result >> 16) | result);
 441              		.loc 2 449 0 discriminator 2
 442 01be 1040     		ands	r0, r2
 443              	.LVL71:
 444 01c0 4946     		mov	r1, r9
 445 01c2 0B40     		ands	r3, r1
 446              	.LVL72:
 447 01c4 4343     		muls	r3, r0
 448 01c6 5B09     		lsrs	r3, r3, #5
 449 01c8 1340     		ands	r3, r2
 450              	.LVL73:
 450:c:\projects\paindrain\arduinolcd\test\pain drain\libraries\lvgl\src\misc\lv_color.h **** #elif LV_COLOR_DEPTH != 1
 451              		.loc 2 450 0 discriminator 2
 452 01ca 180C     		lsrs	r0, r3, #16
 453              	.LVL74:
 454 01cc 0343     		orrs	r3, r0
 455              	.LVL75:
 456 01ce 98B2     		uxth	r0, r3
 457              	.LVL76:
 458              	.LBE182:
 459              	.LBE181:
 183:..\..\..\arduinoLCD\test\Pain Drain\libraries\lvgl\src\extra\widgets\led/lv_led.c ****                                                        lv_color_brightness(rect_dsc.bg_grad.stops[0
 184:..\..\..\arduinoLCD\test\Pain Drain\libraries\lvgl\src\extra\widgets\led/lv_led.c ****         rect_dsc.bg_grad.stops[1].color = lv_color_mix(led->color, lv_color_black(),
 460              		.loc 1 184 0 discriminator 2
 461 01d0 04AB     		add	r3, sp, #16
 462 01d2 0290     		str	r0, [sp, #8]
ARM GAS  C:\Users\haske\AppData\Local\Temp\ccoc8x2c.s 			page 23


 463 01d4 5881     		strh	r0, [r3, #10]
 464 01d6 9C8D     		ldrh	r4, [r3, #44]
 465              	.LBB183:
 466              	.LBB184:
 467              	.LBB185:
 468              	.LBB186:
 420:c:\projects\paindrain\arduinolcd\test\pain drain\libraries\lvgl\src\misc\lv_color.h ****     LV_COLOR_SET_G32(ret, (LV_COLOR_GET_G(color) * 259 + 3) >> 6);
 469              		.loc 2 420 0 discriminator 2
 470 01d8 E10A     		lsrs	r1, r4, #11
 471 01da 4B01     		lsls	r3, r1, #5
 472 01dc 5B18     		adds	r3, r3, r1
 473 01de DB00     		lsls	r3, r3, #3
 474 01e0 5B1A     		subs	r3, r3, r1
 475 01e2 0733     		adds	r3, r3, #7
 476 01e4 5B11     		asrs	r3, r3, #5
 477 01e6 DBB2     		uxtb	r3, r3
 478 01e8 1B04     		lsls	r3, r3, #16
 479              	.LVL77:
 421:c:\projects\paindrain\arduinolcd\test\pain drain\libraries\lvgl\src\misc\lv_color.h ****     LV_COLOR_SET_B32(ret, (LV_COLOR_GET_B(color) * 263 + 7) >> 5);
 480              		.loc 2 421 0 discriminator 2
 481 01ea 6105     		lsls	r1, r4, #21
 482 01ec 890E     		lsrs	r1, r1, #26
 483 01ee C801     		lsls	r0, r1, #7
 484 01f0 8046     		mov	r8, r0
 485 01f2 8844     		add	r8, r8, r1
 486 01f4 4046     		mov	r0, r8
 487 01f6 4000     		lsls	r0, r0, #1
 488 01f8 8046     		mov	r8, r0
 489 01fa 4144     		add	r1, r1, r8
 490 01fc 0331     		adds	r1, r1, #3
 491 01fe 8911     		asrs	r1, r1, #6
 492 0200 C9B2     		uxtb	r1, r1
 493 0202 0902     		lsls	r1, r1, #8
 494              	.LVL78:
 495 0204 0B43     		orrs	r3, r1
 496              	.LVL79:
 422:c:\projects\paindrain\arduinolcd\test\pain drain\libraries\lvgl\src\misc\lv_color.h ****     LV_COLOR_SET_A32(ret, 0xFF);
 497              		.loc 2 422 0 discriminator 2
 498 0206 E106     		lsls	r1, r4, #27
 499 0208 CC0E     		lsrs	r4, r1, #27
 500 020a 6101     		lsls	r1, r4, #5
 501 020c 0919     		adds	r1, r1, r4
 502 020e C900     		lsls	r1, r1, #3
 503 0210 091B     		subs	r1, r1, r4
 504 0212 0731     		adds	r1, r1, #7
 505 0214 4911     		asrs	r1, r1, #5
 506 0216 C9B2     		uxtb	r1, r1
 507              	.LVL80:
 508 0218 0B43     		orrs	r3, r1
 509              	.LVL81:
 423:c:\projects\paindrain\arduinolcd\test\pain drain\libraries\lvgl\src\misc\lv_color.h ****     return ret.full;
 510              		.loc 2 423 0 discriminator 2
 511 021a 5146     		mov	r1, r10
 512              	.LVL82:
 513 021c 0B43     		orrs	r3, r1
 514              	.LVL83:
 515              	.LBE186:
ARM GAS  C:\Users\haske\AppData\Local\Temp\ccoc8x2c.s 			page 24


 516              	.LBE185:
 584:c:\projects\paindrain\arduinolcd\test\pain drain\libraries\lvgl\src\misc\lv_color.h ****     return (uint8_t)(bright >> 3);
 517              		.loc 2 584 0 discriminator 2
 518 021e 1902     		lsls	r1, r3, #8
 519 0220 090E     		lsrs	r1, r1, #24
 520 0222 8C46     		mov	ip, r1
 521 0224 1904     		lsls	r1, r3, #16
 522 0226 090E     		lsrs	r1, r1, #24
 523 0228 6046     		mov	r0, ip
 524 022a 4400     		lsls	r4, r0, #1
 525 022c 6444     		add	r4, r4, ip
 526 022e 8900     		lsls	r1, r1, #2
 527 0230 6118     		adds	r1, r4, r1
 528 0232 89B2     		uxth	r1, r1
 529 0234 DBB2     		uxtb	r3, r3
 530              	.LVL84:
 531 0236 CB18     		adds	r3, r1, r3
 532 0238 9BB2     		uxth	r3, r3
 533              	.LVL85:
 534              		.loc 2 585 0 discriminator 2
 535 023a DB08     		lsrs	r3, r3, #3
 536              	.LVL86:
 537 023c DBB2     		uxtb	r3, r3
 538              	.LVL87:
 539              	.LBE184:
 540              	.LBE183:
 541              	.LBB187:
 542              	.LBB188:
 445:c:\projects\paindrain\arduinolcd\test\pain drain\libraries\lvgl\src\misc\lv_color.h ****     uint32_t bg = (uint32_t)((uint32_t)c2.full | ((uint32_t)c2.full << 16)) &
 543              		.loc 2 445 0 discriminator 2
 544 023e 0433     		adds	r3, r3, #4
 545 0240 DB08     		lsrs	r3, r3, #3
 546              	.LVL88:
 448:c:\projects\paindrain\arduinolcd\test\pain drain\libraries\lvgl\src\misc\lv_color.h ****     uint32_t result = ((((fg - bg) * mix) >> 5) + bg) & 0x7E0F81F;
 547              		.loc 2 448 0 discriminator 2
 548 0242 BC8C     		ldrh	r4, [r7, #36]
 549 0244 2104     		lsls	r1, r4, #16
 550 0246 2143     		orrs	r1, r4
 551              	.LVL89:
 449:c:\projects\paindrain\arduinolcd\test\pain drain\libraries\lvgl\src\misc\lv_color.h ****     ret.full = (uint16_t)((result >> 16) | result);
 552              		.loc 2 449 0 discriminator 2
 553 0248 1140     		ands	r1, r2
 554              	.LVL90:
 555 024a 4846     		mov	r0, r9
 556 024c 0340     		ands	r3, r0
 557              	.LVL91:
 558 024e 4B43     		muls	r3, r1
 559 0250 5B09     		lsrs	r3, r3, #5
 560 0252 1340     		ands	r3, r2
 561              	.LVL92:
 450:c:\projects\paindrain\arduinolcd\test\pain drain\libraries\lvgl\src\misc\lv_color.h **** #elif LV_COLOR_DEPTH != 1
 562              		.loc 2 450 0 discriminator 2
 563 0254 190C     		lsrs	r1, r3, #16
 564              	.LVL93:
 565 0256 0B43     		orrs	r3, r1
 566              	.LVL94:
 567 0258 9CB2     		uxth	r4, r3
ARM GAS  C:\Users\haske\AppData\Local\Temp\ccoc8x2c.s 			page 25


 568              	.LVL95:
 569              	.LBE188:
 570              	.LBE187:
 185:..\..\..\arduinoLCD\test\Pain Drain\libraries\lvgl\src\extra\widgets\led/lv_led.c ****                                                        lv_color_brightness(rect_dsc.bg_grad.stops[1
 186:..\..\..\arduinoLCD\test\Pain Drain\libraries\lvgl\src\extra\widgets\led/lv_led.c ****         rect_dsc.shadow_color = lv_color_mix(led->color, lv_color_black(), lv_color_brightness(rect
 571              		.loc 1 186 0 discriminator 2
 572 025a 04AB     		add	r3, sp, #16
 573 025c 9C85     		strh	r4, [r3, #44]
 574 025e DB8B     		ldrh	r3, [r3, #30]
 575 0260 9C46     		mov	ip, r3
 576              	.LBB189:
 577              	.LBB190:
 578              	.LBB191:
 579              	.LBB192:
 420:c:\projects\paindrain\arduinolcd\test\pain drain\libraries\lvgl\src\misc\lv_color.h ****     LV_COLOR_SET_G32(ret, (LV_COLOR_GET_G(color) * 259 + 3) >> 6);
 580              		.loc 2 420 0 discriminator 2
 581 0262 D90A     		lsrs	r1, r3, #11
 582 0264 4B01     		lsls	r3, r1, #5
 583 0266 5B18     		adds	r3, r3, r1
 584 0268 DB00     		lsls	r3, r3, #3
 585 026a 5B1A     		subs	r3, r3, r1
 586 026c 0733     		adds	r3, r3, #7
 587 026e 5B11     		asrs	r3, r3, #5
 588 0270 DBB2     		uxtb	r3, r3
 589 0272 1B04     		lsls	r3, r3, #16
 590              	.LVL96:
 421:c:\projects\paindrain\arduinolcd\test\pain drain\libraries\lvgl\src\misc\lv_color.h ****     LV_COLOR_SET_B32(ret, (LV_COLOR_GET_B(color) * 263 + 7) >> 5);
 591              		.loc 2 421 0 discriminator 2
 592 0274 6146     		mov	r1, ip
 593 0276 4905     		lsls	r1, r1, #21
 594 0278 890E     		lsrs	r1, r1, #26
 595 027a C801     		lsls	r0, r1, #7
 596 027c 8046     		mov	r8, r0
 597 027e 8844     		add	r8, r8, r1
 598 0280 4046     		mov	r0, r8
 599 0282 4000     		lsls	r0, r0, #1
 600 0284 8046     		mov	r8, r0
 601 0286 4144     		add	r1, r1, r8
 602 0288 0331     		adds	r1, r1, #3
 603 028a 8911     		asrs	r1, r1, #6
 604 028c C9B2     		uxtb	r1, r1
 605 028e 0902     		lsls	r1, r1, #8
 606              	.LVL97:
 607 0290 0B43     		orrs	r3, r1
 608              	.LVL98:
 422:c:\projects\paindrain\arduinolcd\test\pain drain\libraries\lvgl\src\misc\lv_color.h ****     LV_COLOR_SET_A32(ret, 0xFF);
 609              		.loc 2 422 0 discriminator 2
 610 0292 6146     		mov	r1, ip
 611 0294 C906     		lsls	r1, r1, #27
 612 0296 C90E     		lsrs	r1, r1, #27
 613 0298 8C46     		mov	ip, r1
 614 029a 4901     		lsls	r1, r1, #5
 615 029c 6144     		add	r1, r1, ip
 616 029e C900     		lsls	r1, r1, #3
 617 02a0 6046     		mov	r0, ip
 618 02a2 091A     		subs	r1, r1, r0
 619 02a4 0731     		adds	r1, r1, #7
ARM GAS  C:\Users\haske\AppData\Local\Temp\ccoc8x2c.s 			page 26


 620 02a6 4911     		asrs	r1, r1, #5
 621 02a8 C9B2     		uxtb	r1, r1
 622              	.LVL99:
 623 02aa 0B43     		orrs	r3, r1
 624              	.LVL100:
 423:c:\projects\paindrain\arduinolcd\test\pain drain\libraries\lvgl\src\misc\lv_color.h ****     return ret.full;
 625              		.loc 2 423 0 discriminator 2
 626 02ac 5146     		mov	r1, r10
 627              	.LVL101:
 628 02ae 0B43     		orrs	r3, r1
 629              	.LVL102:
 630              	.LBE192:
 631              	.LBE191:
 584:c:\projects\paindrain\arduinolcd\test\pain drain\libraries\lvgl\src\misc\lv_color.h ****     return (uint8_t)(bright >> 3);
 632              		.loc 2 584 0 discriminator 2
 633 02b0 1902     		lsls	r1, r3, #8
 634 02b2 090E     		lsrs	r1, r1, #24
 635 02b4 8C46     		mov	ip, r1
 636 02b6 1904     		lsls	r1, r3, #16
 637 02b8 090E     		lsrs	r1, r1, #24
 638 02ba 6046     		mov	r0, ip
 639 02bc 4000     		lsls	r0, r0, #1
 640 02be 8046     		mov	r8, r0
 641 02c0 C444     		add	ip, ip, r8
 642 02c2 8900     		lsls	r1, r1, #2
 643 02c4 6144     		add	r1, r1, ip
 644 02c6 89B2     		uxth	r1, r1
 645 02c8 DBB2     		uxtb	r3, r3
 646              	.LVL103:
 647 02ca CB18     		adds	r3, r1, r3
 648 02cc 9BB2     		uxth	r3, r3
 649              	.LVL104:
 650              		.loc 2 585 0 discriminator 2
 651 02ce DB08     		lsrs	r3, r3, #3
 652              	.LVL105:
 653 02d0 DBB2     		uxtb	r3, r3
 654              	.LVL106:
 655              	.LBE190:
 656              	.LBE189:
 657              	.LBB193:
 658              	.LBB194:
 445:c:\projects\paindrain\arduinolcd\test\pain drain\libraries\lvgl\src\misc\lv_color.h ****     uint32_t bg = (uint32_t)((uint32_t)c2.full | ((uint32_t)c2.full << 16)) &
 659              		.loc 2 445 0 discriminator 2
 660 02d2 0433     		adds	r3, r3, #4
 661 02d4 DB08     		lsrs	r3, r3, #3
 662              	.LVL107:
 448:c:\projects\paindrain\arduinolcd\test\pain drain\libraries\lvgl\src\misc\lv_color.h ****     uint32_t result = ((((fg - bg) * mix) >> 5) + bg) & 0x7E0F81F;
 663              		.loc 2 448 0 discriminator 2
 664 02d6 B98C     		ldrh	r1, [r7, #36]
 665 02d8 8C46     		mov	ip, r1
 666 02da 0904     		lsls	r1, r1, #16
 667 02dc 6046     		mov	r0, ip
 668 02de 0143     		orrs	r1, r0
 669              	.LVL108:
 449:c:\projects\paindrain\arduinolcd\test\pain drain\libraries\lvgl\src\misc\lv_color.h ****     ret.full = (uint16_t)((result >> 16) | result);
 670              		.loc 2 449 0 discriminator 2
 671 02e0 1140     		ands	r1, r2
ARM GAS  C:\Users\haske\AppData\Local\Temp\ccoc8x2c.s 			page 27


 672              	.LVL109:
 673 02e2 4846     		mov	r0, r9
 674 02e4 0340     		ands	r3, r0
 675              	.LVL110:
 676 02e6 5943     		muls	r1, r3
 677              	.LVL111:
 678 02e8 4909     		lsrs	r1, r1, #5
 679 02ea 1140     		ands	r1, r2
 680              	.LVL112:
 450:c:\projects\paindrain\arduinolcd\test\pain drain\libraries\lvgl\src\misc\lv_color.h **** #elif LV_COLOR_DEPTH != 1
 681              		.loc 2 450 0 discriminator 2
 682 02ec 0B0C     		lsrs	r3, r1, #16
 683 02ee 1943     		orrs	r1, r3
 684              	.LVL113:
 685 02f0 89B2     		uxth	r1, r1
 686              	.LVL114:
 687              	.LBE194:
 688              	.LBE193:
 187:..\..\..\arduinoLCD\test\Pain Drain\libraries\lvgl\src\extra\widgets\led/lv_led.c ****         rect_dsc.border_color = lv_color_mix(led->color, lv_color_black(), lv_color_brightness(rect
 689              		.loc 1 187 0 discriminator 2
 690 02f2 04AB     		add	r3, sp, #16
 691 02f4 0191     		str	r1, [sp, #4]
 692 02f6 D983     		strh	r1, [r3, #30]
 693 02f8 9B8C     		ldrh	r3, [r3, #36]
 694 02fa 9846     		mov	r8, r3
 695              	.LBB195:
 696              	.LBB196:
 697              	.LBB197:
 698              	.LBB198:
 420:c:\projects\paindrain\arduinolcd\test\pain drain\libraries\lvgl\src\misc\lv_color.h ****     LV_COLOR_SET_G32(ret, (LV_COLOR_GET_G(color) * 259 + 3) >> 6);
 699              		.loc 2 420 0 discriminator 2
 700 02fc DB0A     		lsrs	r3, r3, #11
 701 02fe 9C46     		mov	ip, r3
 702 0300 5B01     		lsls	r3, r3, #5
 703 0302 6344     		add	r3, r3, ip
 704 0304 DB00     		lsls	r3, r3, #3
 705 0306 6046     		mov	r0, ip
 706 0308 1B1A     		subs	r3, r3, r0
 707 030a 0733     		adds	r3, r3, #7
 708 030c 5B11     		asrs	r3, r3, #5
 709 030e DBB2     		uxtb	r3, r3
 710 0310 1B04     		lsls	r3, r3, #16
 711              	.LVL115:
 421:c:\projects\paindrain\arduinolcd\test\pain drain\libraries\lvgl\src\misc\lv_color.h ****     LV_COLOR_SET_B32(ret, (LV_COLOR_GET_B(color) * 263 + 7) >> 5);
 712              		.loc 2 421 0 discriminator 2
 713 0312 4046     		mov	r0, r8
 714 0314 4005     		lsls	r0, r0, #21
 715 0316 800E     		lsrs	r0, r0, #26
 716 0318 8446     		mov	ip, r0
 717 031a C001     		lsls	r0, r0, #7
 718 031c 8346     		mov	fp, r0
 719 031e E344     		add	fp, fp, ip
 720 0320 5846     		mov	r0, fp
 721 0322 4000     		lsls	r0, r0, #1
 722 0324 8346     		mov	fp, r0
 723 0326 DC44     		add	ip, ip, fp
 724 0328 0320     		movs	r0, #3
ARM GAS  C:\Users\haske\AppData\Local\Temp\ccoc8x2c.s 			page 28


 725 032a 8346     		mov	fp, r0
 726 032c DC44     		add	ip, ip, fp
 727 032e 6046     		mov	r0, ip
 728 0330 8011     		asrs	r0, r0, #6
 729 0332 C0B2     		uxtb	r0, r0
 730 0334 0002     		lsls	r0, r0, #8
 731              	.LVL116:
 732 0336 0343     		orrs	r3, r0
 733              	.LVL117:
 422:c:\projects\paindrain\arduinolcd\test\pain drain\libraries\lvgl\src\misc\lv_color.h ****     LV_COLOR_SET_A32(ret, 0xFF);
 734              		.loc 2 422 0 discriminator 2
 735 0338 4046     		mov	r0, r8
 736 033a C006     		lsls	r0, r0, #27
 737 033c C00E     		lsrs	r0, r0, #27
 738 033e 8046     		mov	r8, r0
 739 0340 4001     		lsls	r0, r0, #5
 740 0342 8446     		mov	ip, r0
 741 0344 C444     		add	ip, ip, r8
 742 0346 6046     		mov	r0, ip
 743 0348 C000     		lsls	r0, r0, #3
 744 034a 4146     		mov	r1, r8
 745 034c 401A     		subs	r0, r0, r1
 746 034e 8446     		mov	ip, r0
 747 0350 0721     		movs	r1, #7
 748 0352 8846     		mov	r8, r1
 749 0354 C444     		add	ip, ip, r8
 750 0356 6146     		mov	r1, ip
 751 0358 4911     		asrs	r1, r1, #5
 752 035a 6846     		mov	r0, sp
 753 035c 8173     		strb	r1, [r0, #14]
 754 035e 817B     		ldrb	r1, [r0, #14]
 755              	.LVL118:
 756 0360 0B43     		orrs	r3, r1
 757              	.LVL119:
 423:c:\projects\paindrain\arduinolcd\test\pain drain\libraries\lvgl\src\misc\lv_color.h ****     return ret.full;
 758              		.loc 2 423 0 discriminator 2
 759 0362 5146     		mov	r1, r10
 760              	.LVL120:
 761 0364 0B43     		orrs	r3, r1
 762              	.LVL121:
 763              	.LBE198:
 764              	.LBE197:
 584:c:\projects\paindrain\arduinolcd\test\pain drain\libraries\lvgl\src\misc\lv_color.h ****     return (uint8_t)(bright >> 3);
 765              		.loc 2 584 0 discriminator 2
 766 0366 1902     		lsls	r1, r3, #8
 767 0368 090E     		lsrs	r1, r1, #24
 768 036a 8A46     		mov	r10, r1
 769 036c 1904     		lsls	r1, r3, #16
 770 036e 090E     		lsrs	r1, r1, #24
 771 0370 8846     		mov	r8, r1
 772 0372 5146     		mov	r1, r10
 773 0374 4900     		lsls	r1, r1, #1
 774 0376 8C46     		mov	ip, r1
 775 0378 D444     		add	ip, ip, r10
 776 037a 4146     		mov	r1, r8
 777 037c 8900     		lsls	r1, r1, #2
 778 037e 8846     		mov	r8, r1
ARM GAS  C:\Users\haske\AppData\Local\Temp\ccoc8x2c.s 			page 29


 779 0380 C444     		add	ip, ip, r8
 780 0382 6146     		mov	r1, ip
 781 0384 C181     		strh	r1, [r0, #14]
 782 0386 C189     		ldrh	r1, [r0, #14]
 783 0388 8C46     		mov	ip, r1
 784 038a DBB2     		uxtb	r3, r3
 785              	.LVL122:
 786 038c 6344     		add	r3, r3, ip
 787 038e 9BB2     		uxth	r3, r3
 788              	.LVL123:
 789              		.loc 2 585 0 discriminator 2
 790 0390 DB08     		lsrs	r3, r3, #3
 791              	.LVL124:
 792 0392 DBB2     		uxtb	r3, r3
 793              	.LVL125:
 794              	.LBE196:
 795              	.LBE195:
 796              	.LBB199:
 797              	.LBB200:
 445:c:\projects\paindrain\arduinolcd\test\pain drain\libraries\lvgl\src\misc\lv_color.h ****     uint32_t bg = (uint32_t)((uint32_t)c2.full | ((uint32_t)c2.full << 16)) &
 798              		.loc 2 445 0 discriminator 2
 799 0394 0433     		adds	r3, r3, #4
 800 0396 DB08     		lsrs	r3, r3, #3
 801 0398 9C46     		mov	ip, r3
 802              	.LVL126:
 448:c:\projects\paindrain\arduinolcd\test\pain drain\libraries\lvgl\src\misc\lv_color.h ****     uint32_t result = ((((fg - bg) * mix) >> 5) + bg) & 0x7E0F81F;
 803              		.loc 2 448 0 discriminator 2
 804 039a BB8C     		ldrh	r3, [r7, #36]
 805 039c 1904     		lsls	r1, r3, #16
 806 039e 0B43     		orrs	r3, r1
 807              	.LVL127:
 449:c:\projects\paindrain\arduinolcd\test\pain drain\libraries\lvgl\src\misc\lv_color.h ****     ret.full = (uint16_t)((result >> 16) | result);
 808              		.loc 2 449 0 discriminator 2
 809 03a0 1340     		ands	r3, r2
 810              	.LVL128:
 811 03a2 9846     		mov	r8, r3
 812 03a4 6346     		mov	r3, ip
 813              	.LVL129:
 814 03a6 4946     		mov	r1, r9
 815 03a8 0B40     		ands	r3, r1
 816 03aa 4146     		mov	r1, r8
 817 03ac 4B43     		muls	r3, r1
 818 03ae 5B09     		lsrs	r3, r3, #5
 819 03b0 1340     		ands	r3, r2
 820              	.LVL130:
 450:c:\projects\paindrain\arduinolcd\test\pain drain\libraries\lvgl\src\misc\lv_color.h **** #elif LV_COLOR_DEPTH != 1
 821              		.loc 2 450 0 discriminator 2
 822 03b2 190C     		lsrs	r1, r3, #16
 823 03b4 0B43     		orrs	r3, r1
 824              	.LVL131:
 825 03b6 9BB2     		uxth	r3, r3
 826 03b8 9C46     		mov	ip, r3
 827              	.LVL132:
 828              	.LBE200:
 829              	.LBE199:
 188:..\..\..\arduinoLCD\test\Pain Drain\libraries\lvgl\src\extra\widgets\led/lv_led.c ****         rect_dsc.outline_color = lv_color_mix(led->color, lv_color_black(), lv_color_brightness(rec
 830              		.loc 1 188 0 discriminator 2
ARM GAS  C:\Users\haske\AppData\Local\Temp\ccoc8x2c.s 			page 30


 831 03ba 04AB     		add	r3, sp, #16
 832 03bc 6146     		mov	r1, ip
 833 03be 9984     		strh	r1, [r3, #36]
 189:..\..\..\arduinoLCD\test\Pain Drain\libraries\lvgl\src\extra\widgets\led/lv_led.c **** 
 190:..\..\..\arduinoLCD\test\Pain Drain\libraries\lvgl\src\extra\widgets\led/lv_led.c ****         /*Mix. the color with black proportionally with brightness*/
 191:..\..\..\arduinoLCD\test\Pain Drain\libraries\lvgl\src\extra\widgets\led/lv_led.c ****         rect_dsc.bg_color = lv_color_mix(rect_dsc.bg_color, lv_color_black(), led->bright);
 834              		.loc 1 191 0 discriminator 2
 835 03c0 2623     		movs	r3, #38
 836 03c2 FB5C     		ldrb	r3, [r7, r3]
 837              	.LVL133:
 838              	.LBB201:
 839              	.LBB202:
 445:c:\projects\paindrain\arduinolcd\test\pain drain\libraries\lvgl\src\misc\lv_color.h ****     uint32_t bg = (uint32_t)((uint32_t)c2.full | ((uint32_t)c2.full << 16)) &
 840              		.loc 2 445 0 discriminator 2
 841 03c4 0433     		adds	r3, r3, #4
 842              	.LVL134:
 843 03c6 DB08     		lsrs	r3, r3, #3
 844              	.LVL135:
 448:c:\projects\paindrain\arduinolcd\test\pain drain\libraries\lvgl\src\misc\lv_color.h ****     uint32_t result = ((((fg - bg) * mix) >> 5) + bg) & 0x7E0F81F;
 845              		.loc 2 448 0 discriminator 2
 846 03c8 3104     		lsls	r1, r6, #16
 847 03ca 0E43     		orrs	r6, r1
 848              	.LVL136:
 449:c:\projects\paindrain\arduinolcd\test\pain drain\libraries\lvgl\src\misc\lv_color.h ****     ret.full = (uint16_t)((result >> 16) | result);
 849              		.loc 2 449 0 discriminator 2
 850 03cc 1640     		ands	r6, r2
 851              	.LVL137:
 852 03ce 4946     		mov	r1, r9
 853 03d0 0B40     		ands	r3, r1
 854              	.LVL138:
 855 03d2 5E43     		muls	r6, r3
 856              	.LVL139:
 857 03d4 7609     		lsrs	r6, r6, #5
 858 03d6 1640     		ands	r6, r2
 859              	.LVL140:
 450:c:\projects\paindrain\arduinolcd\test\pain drain\libraries\lvgl\src\misc\lv_color.h **** #elif LV_COLOR_DEPTH != 1
 860              		.loc 2 450 0 discriminator 2
 861 03d8 310C     		lsrs	r1, r6, #16
 862 03da 0E43     		orrs	r6, r1
 863              	.LVL141:
 864              	.LBE202:
 865              	.LBE201:
 866              		.loc 1 191 0 discriminator 2
 867 03dc 04A9     		add	r1, sp, #16
 868 03de 8E80     		strh	r6, [r1, #4]
 869              	.LVL142:
 870              	.LBB203:
 871              	.LBB204:
 448:c:\projects\paindrain\arduinolcd\test\pain drain\libraries\lvgl\src\misc\lv_color.h ****     uint32_t result = ((((fg - bg) * mix) >> 5) + bg) & 0x7E0F81F;
 872              		.loc 2 448 0 discriminator 2
 873 03e0 2E04     		lsls	r6, r5, #16
 874 03e2 3543     		orrs	r5, r6
 875              	.LVL143:
 449:c:\projects\paindrain\arduinolcd\test\pain drain\libraries\lvgl\src\misc\lv_color.h ****     ret.full = (uint16_t)((result >> 16) | result);
 876              		.loc 2 449 0 discriminator 2
 877 03e4 1540     		ands	r5, r2
 878              	.LVL144:
ARM GAS  C:\Users\haske\AppData\Local\Temp\ccoc8x2c.s 			page 31


 879 03e6 5D43     		muls	r5, r3
 880              	.LVL145:
 881 03e8 6D09     		lsrs	r5, r5, #5
 882 03ea 1540     		ands	r5, r2
 883              	.LVL146:
 450:c:\projects\paindrain\arduinolcd\test\pain drain\libraries\lvgl\src\misc\lv_color.h **** #elif LV_COLOR_DEPTH != 1
 884              		.loc 2 450 0 discriminator 2
 885 03ec 2E0C     		lsrs	r6, r5, #16
 886 03ee 3543     		orrs	r5, r6
 887              	.LVL147:
 888              	.LBE204:
 889              	.LBE203:
 192:..\..\..\arduinoLCD\test\Pain Drain\libraries\lvgl\src\extra\widgets\led/lv_led.c ****         rect_dsc.bg_grad.stops[0].color   = lv_color_mix(rect_dsc.bg_grad.stops[0].color, lv_color_
 890              		.loc 1 192 0 discriminator 2
 891 03f0 CD80     		strh	r5, [r1, #6]
 892              	.LVL148:
 893              	.LBB205:
 894              	.LBB206:
 448:c:\projects\paindrain\arduinolcd\test\pain drain\libraries\lvgl\src\misc\lv_color.h ****     uint32_t result = ((((fg - bg) * mix) >> 5) + bg) & 0x7E0F81F;
 895              		.loc 2 448 0 discriminator 2
 896 03f2 0298     		ldr	r0, [sp, #8]
 897 03f4 0504     		lsls	r5, r0, #16
 898 03f6 2843     		orrs	r0, r5
 899              	.LVL149:
 449:c:\projects\paindrain\arduinolcd\test\pain drain\libraries\lvgl\src\misc\lv_color.h ****     ret.full = (uint16_t)((result >> 16) | result);
 900              		.loc 2 449 0 discriminator 2
 901 03f8 1040     		ands	r0, r2
 902              	.LVL150:
 903 03fa 5843     		muls	r0, r3
 904              	.LVL151:
 905 03fc 4009     		lsrs	r0, r0, #5
 906 03fe 03E0     		b	.L6
 907              	.L7:
 908              		.align	2
 909              	.L5:
 910 0400 00000000 		.word	.LANCHOR0
 911 0404 1FF8E007 		.word	132184095
 912              	.L6:
 913 0408 1040     		ands	r0, r2
 914              	.LVL152:
 450:c:\projects\paindrain\arduinolcd\test\pain drain\libraries\lvgl\src\misc\lv_color.h **** #elif LV_COLOR_DEPTH != 1
 915              		.loc 2 450 0 discriminator 2
 916 040a 050C     		lsrs	r5, r0, #16
 917              	.LVL153:
 918 040c 2843     		orrs	r0, r5
 919              	.LVL154:
 920              	.LBE206:
 921              	.LBE205:
 193:..\..\..\arduinoLCD\test\Pain Drain\libraries\lvgl\src\extra\widgets\led/lv_led.c ****         rect_dsc.bg_grad.stops[1].color   = lv_color_mix(rect_dsc.bg_grad.stops[1].color, lv_color_
 922              		.loc 1 193 0 discriminator 2
 923 040e 4881     		strh	r0, [r1, #10]
 924              	.LVL155:
 925              	.LBB207:
 926              	.LBB208:
 448:c:\projects\paindrain\arduinolcd\test\pain drain\libraries\lvgl\src\misc\lv_color.h ****     uint32_t result = ((((fg - bg) * mix) >> 5) + bg) & 0x7E0F81F;
 927              		.loc 2 448 0 discriminator 2
 928 0410 0199     		ldr	r1, [sp, #4]
ARM GAS  C:\Users\haske\AppData\Local\Temp\ccoc8x2c.s 			page 32


 929 0412 0804     		lsls	r0, r1, #16
 930 0414 0143     		orrs	r1, r0
 931              	.LVL156:
 449:c:\projects\paindrain\arduinolcd\test\pain drain\libraries\lvgl\src\misc\lv_color.h ****     ret.full = (uint16_t)((result >> 16) | result);
 932              		.loc 2 449 0 discriminator 2
 933 0416 1140     		ands	r1, r2
 934              	.LVL157:
 935 0418 5943     		muls	r1, r3
 936              	.LVL158:
 937 041a 4909     		lsrs	r1, r1, #5
 938 041c 0A40     		ands	r2, r1
 939              	.LVL159:
 450:c:\projects\paindrain\arduinolcd\test\pain drain\libraries\lvgl\src\misc\lv_color.h **** #elif LV_COLOR_DEPTH != 1
 940              		.loc 2 450 0 discriminator 2
 941 041e 110C     		lsrs	r1, r2, #16
 942 0420 0A43     		orrs	r2, r1
 943              	.LVL160:
 944              	.LBE208:
 945              	.LBE207:
 194:..\..\..\arduinoLCD\test\Pain Drain\libraries\lvgl\src\extra\widgets\led/lv_led.c ****         rect_dsc.border_color = lv_color_mix(rect_dsc.border_color, lv_color_black(), led->bright);
 946              		.loc 1 194 0 discriminator 2
 947 0422 04A9     		add	r1, sp, #16
 948 0424 CA83     		strh	r2, [r1, #30]
 949              	.LVL161:
 950              	.LBB209:
 951              	.LBB210:
 448:c:\projects\paindrain\arduinolcd\test\pain drain\libraries\lvgl\src\misc\lv_color.h ****     uint32_t result = ((((fg - bg) * mix) >> 5) + bg) & 0x7E0F81F;
 952              		.loc 2 448 0 discriminator 2
 953 0426 2104     		lsls	r1, r4, #16
 954 0428 2143     		orrs	r1, r4
 955 042a 2C4A     		ldr	r2, .L8
 956              	.LVL162:
 449:c:\projects\paindrain\arduinolcd\test\pain drain\libraries\lvgl\src\misc\lv_color.h ****     ret.full = (uint16_t)((result >> 16) | result);
 957              		.loc 2 449 0 discriminator 2
 958 042c 1140     		ands	r1, r2
 959              	.LVL163:
 960 042e 4B43     		muls	r3, r1
 961 0430 5B09     		lsrs	r3, r3, #5
 962 0432 1340     		ands	r3, r2
 963              	.LVL164:
 450:c:\projects\paindrain\arduinolcd\test\pain drain\libraries\lvgl\src\misc\lv_color.h **** #elif LV_COLOR_DEPTH != 1
 964              		.loc 2 450 0 discriminator 2
 965 0434 190C     		lsrs	r1, r3, #16
 966              	.LVL165:
 967 0436 0B43     		orrs	r3, r1
 968              	.LVL166:
 969              	.LBE210:
 970              	.LBE209:
 195:..\..\..\arduinoLCD\test\Pain Drain\libraries\lvgl\src\extra\widgets\led/lv_led.c ****         rect_dsc.shadow_color = lv_color_mix(rect_dsc.shadow_color, lv_color_black(), led->bright);
 971              		.loc 1 195 0 discriminator 2
 972 0438 04A9     		add	r1, sp, #16
 973 043a 8B85     		strh	r3, [r1, #44]
 196:..\..\..\arduinoLCD\test\Pain Drain\libraries\lvgl\src\extra\widgets\led/lv_led.c ****         rect_dsc.outline_color = lv_color_mix(rect_dsc.outline_color, lv_color_black(), led->bright
 974              		.loc 1 196 0 discriminator 2
 975 043c 2625     		movs	r5, #38
 976 043e 785D     		ldrb	r0, [r7, r5]
 977              	.LVL167:
ARM GAS  C:\Users\haske\AppData\Local\Temp\ccoc8x2c.s 			page 33


 978              	.LBB211:
 979              	.LBB212:
 445:c:\projects\paindrain\arduinolcd\test\pain drain\libraries\lvgl\src\misc\lv_color.h ****     uint32_t bg = (uint32_t)((uint32_t)c2.full | ((uint32_t)c2.full << 16)) &
 980              		.loc 2 445 0 discriminator 2
 981 0440 031D     		adds	r3, r0, #4
 982 0442 DB08     		lsrs	r3, r3, #3
 983              	.LVL168:
 448:c:\projects\paindrain\arduinolcd\test\pain drain\libraries\lvgl\src\misc\lv_color.h ****     uint32_t result = ((((fg - bg) * mix) >> 5) + bg) & 0x7E0F81F;
 984              		.loc 2 448 0 discriminator 2
 985 0444 6146     		mov	r1, ip
 986 0446 0904     		lsls	r1, r1, #16
 987 0448 6446     		mov	r4, ip
 988 044a 2143     		orrs	r1, r4
 989              	.LVL169:
 449:c:\projects\paindrain\arduinolcd\test\pain drain\libraries\lvgl\src\misc\lv_color.h ****     ret.full = (uint16_t)((result >> 16) | result);
 990              		.loc 2 449 0 discriminator 2
 991 044c 1140     		ands	r1, r2
 992              	.LVL170:
 993 044e FF26     		movs	r6, #255
 994 0450 3340     		ands	r3, r6
 995              	.LVL171:
 996 0452 4B43     		muls	r3, r1
 997 0454 5B09     		lsrs	r3, r3, #5
 998 0456 1A40     		ands	r2, r3
 999              	.LVL172:
 450:c:\projects\paindrain\arduinolcd\test\pain drain\libraries\lvgl\src\misc\lv_color.h **** #elif LV_COLOR_DEPTH != 1
 1000              		.loc 2 450 0 discriminator 2
 1001 0458 130C     		lsrs	r3, r2, #16
 1002 045a 1A43     		orrs	r2, r3
 1003              	.LVL173:
 1004              	.LBE212:
 1005              	.LBE211:
 1006              		.loc 1 196 0 discriminator 2
 1007 045c 04AB     		add	r3, sp, #16
 1008 045e 9A84     		strh	r2, [r3, #36]
 197:..\..\..\arduinoLCD\test\Pain Drain\libraries\lvgl\src\extra\widgets\led/lv_led.c **** 
 198:..\..\..\arduinoLCD\test\Pain Drain\libraries\lvgl\src\extra\widgets\led/lv_led.c ****         /*Set the current shadow width according to brightness proportionally between LV_LED_BRIGHT
 199:..\..\..\arduinoLCD\test\Pain Drain\libraries\lvgl\src\extra\widgets\led/lv_led.c ****          * and LV_LED_BRIGHT_ON*/
 200:..\..\..\arduinoLCD\test\Pain Drain\libraries\lvgl\src\extra\widgets\led/lv_led.c ****         rect_dsc.shadow_width = ((led->bright - LV_LED_BRIGHT_MIN) * rect_dsc.shadow_width) /
 1009              		.loc 1 200 0 discriminator 2
 1010 0460 5038     		subs	r0, r0, #80
 1011 0462 2E22     		movs	r2, #46
 1012 0464 9B5E     		ldrsh	r3, [r3, r2]
 1013 0466 5843     		muls	r0, r3
 1014 0468 AF21     		movs	r1, #175
 1015 046a FFF7FEFF 		bl	__aeabi_idiv
 1016              	.LVL174:
 1017 046e 04AB     		add	r3, sp, #16
 1018 0470 D885     		strh	r0, [r3, #46]
 201:..\..\..\arduinoLCD\test\Pain Drain\libraries\lvgl\src\extra\widgets\led/lv_led.c ****                                 (LV_LED_BRIGHT_MAX - LV_LED_BRIGHT_MIN);
 202:..\..\..\arduinoLCD\test\Pain Drain\libraries\lvgl\src\extra\widgets\led/lv_led.c ****         rect_dsc.shadow_spread = ((led->bright - LV_LED_BRIGHT_MIN) * rect_dsc.shadow_spread) /
 1019              		.loc 1 202 0 discriminator 2
 1020 0472 785D     		ldrb	r0, [r7, r5]
 1021 0474 0300     		movs	r3, r0
 1022 0476 503B     		subs	r3, r3, #80
 1023 0478 04AA     		add	r2, sp, #16
 1024 047a 3420     		movs	r0, #52
ARM GAS  C:\Users\haske\AppData\Local\Temp\ccoc8x2c.s 			page 34


 1025 047c 105E     		ldrsh	r0, [r2, r0]
 1026 047e 5843     		muls	r0, r3
 1027 0480 AF21     		movs	r1, #175
 1028 0482 FFF7FEFF 		bl	__aeabi_idiv
 1029              	.LVL175:
 1030 0486 04AB     		add	r3, sp, #16
 1031 0488 9886     		strh	r0, [r3, #52]
 203:..\..\..\arduinoLCD\test\Pain Drain\libraries\lvgl\src\extra\widgets\led/lv_led.c ****                                  (LV_LED_BRIGHT_MAX - LV_LED_BRIGHT_MIN);
 204:..\..\..\arduinoLCD\test\Pain Drain\libraries\lvgl\src\extra\widgets\led/lv_led.c **** 
 205:..\..\..\arduinoLCD\test\Pain Drain\libraries\lvgl\src\extra\widgets\led/lv_led.c ****         lv_draw_ctx_t * draw_ctx = lv_event_get_draw_ctx(e);
 1032              		.loc 1 205 0 discriminator 2
 1033 048a 0098     		ldr	r0, [sp]
 1034 048c FFF7FEFF 		bl	lv_event_get_draw_ctx
 1035              	.LVL176:
 1036 0490 0400     		movs	r4, r0
 1037              	.LVL177:
 206:..\..\..\arduinoLCD\test\Pain Drain\libraries\lvgl\src\extra\widgets\led/lv_led.c **** 
 207:..\..\..\arduinoLCD\test\Pain Drain\libraries\lvgl\src\extra\widgets\led/lv_led.c ****         lv_obj_draw_part_dsc_t  part_draw_dsc;
 208:..\..\..\arduinoLCD\test\Pain Drain\libraries\lvgl\src\extra\widgets\led/lv_led.c ****         lv_obj_draw_dsc_init(&part_draw_dsc, draw_ctx);
 1038              		.loc 1 208 0 discriminator 2
 1039 0492 0100     		movs	r1, r0
 1040 0494 12A8     		add	r0, sp, #72
 1041              	.LVL178:
 1042 0496 FFF7FEFF 		bl	lv_obj_draw_dsc_init
 1043              	.LVL179:
 209:..\..\..\arduinoLCD\test\Pain Drain\libraries\lvgl\src\extra\widgets\led/lv_led.c ****         part_draw_dsc.draw_area = &obj->coords;
 1044              		.loc 1 209 0 discriminator 2
 1045 049a 3D00     		movs	r5, r7
 1046 049c 1435     		adds	r5, r5, #20
 1047 049e 1595     		str	r5, [sp, #84]
 210:..\..\..\arduinoLCD\test\Pain Drain\libraries\lvgl\src\extra\widgets\led/lv_led.c ****         part_draw_dsc.class_p = MY_CLASS;
 1048              		.loc 1 210 0 discriminator 2
 1049 04a0 0F4B     		ldr	r3, .L8+4
 1050 04a2 1393     		str	r3, [sp, #76]
 211:..\..\..\arduinoLCD\test\Pain Drain\libraries\lvgl\src\extra\widgets\led/lv_led.c ****         part_draw_dsc.type = LV_LED_DRAW_PART_RECTANGLE;
 1051              		.loc 1 211 0 discriminator 2
 1052 04a4 0023     		movs	r3, #0
 1053 04a6 1493     		str	r3, [sp, #80]
 212:..\..\..\arduinoLCD\test\Pain Drain\libraries\lvgl\src\extra\widgets\led/lv_led.c ****         part_draw_dsc.rect_dsc = &rect_dsc;
 1054              		.loc 1 212 0 discriminator 2
 1055 04a8 04AA     		add	r2, sp, #16
 1056 04aa 1692     		str	r2, [sp, #88]
 213:..\..\..\arduinoLCD\test\Pain Drain\libraries\lvgl\src\extra\widgets\led/lv_led.c ****         part_draw_dsc.part = LV_PART_MAIN;
 1057              		.loc 1 213 0 discriminator 2
 1058 04ac 1F93     		str	r3, [sp, #124]
 214:..\..\..\arduinoLCD\test\Pain Drain\libraries\lvgl\src\extra\widgets\led/lv_led.c **** 
 215:..\..\..\arduinoLCD\test\Pain Drain\libraries\lvgl\src\extra\widgets\led/lv_led.c ****         lv_event_send(obj, LV_EVENT_DRAW_PART_BEGIN, &part_draw_dsc);
 1059              		.loc 1 215 0 discriminator 2
 1060 04ae 12AA     		add	r2, sp, #72
 1061 04b0 1A21     		movs	r1, #26
 1062 04b2 3800     		movs	r0, r7
 1063 04b4 FFF7FEFF 		bl	lv_event_send
 1064              	.LVL180:
 216:..\..\..\arduinoLCD\test\Pain Drain\libraries\lvgl\src\extra\widgets\led/lv_led.c ****         lv_draw_rect(draw_ctx, &rect_dsc, &obj->coords);
 1065              		.loc 1 216 0 discriminator 2
 1066 04b8 2A00     		movs	r2, r5
 1067 04ba 04A9     		add	r1, sp, #16
ARM GAS  C:\Users\haske\AppData\Local\Temp\ccoc8x2c.s 			page 35


 1068 04bc 2000     		movs	r0, r4
 1069 04be FFF7FEFF 		bl	lv_draw_rect
 1070              	.LVL181:
 217:..\..\..\arduinoLCD\test\Pain Drain\libraries\lvgl\src\extra\widgets\led/lv_led.c ****         lv_event_send(obj, LV_EVENT_DRAW_PART_END, &part_draw_dsc);
 1071              		.loc 1 217 0 discriminator 2
 1072 04c2 12AA     		add	r2, sp, #72
 1073 04c4 1B21     		movs	r1, #27
 1074 04c6 3800     		movs	r0, r7
 1075 04c8 FFF7FEFF 		bl	lv_event_send
 1076              	.LVL182:
 1077              	.L2:
 1078              	.LBE164:
 218:..\..\..\arduinoLCD\test\Pain Drain\libraries\lvgl\src\extra\widgets\led/lv_led.c ****     }
 219:..\..\..\arduinoLCD\test\Pain Drain\libraries\lvgl\src\extra\widgets\led/lv_led.c **** }
 1079              		.loc 1 219 0
 1080 04cc 25B0     		add	sp, sp, #148
 1081              	.LVL183:
 1082              		@ sp needed
 1083 04ce 3CBC     		pop	{r2, r3, r4, r5}
 1084 04d0 9046     		mov	r8, r2
 1085 04d2 9946     		mov	r9, r3
 1086 04d4 A246     		mov	r10, r4
 1087 04d6 AB46     		mov	fp, r5
 1088 04d8 F0BD     		pop	{r4, r5, r6, r7, pc}
 1089              	.L9:
 1090 04da C046     		.align	2
 1091              	.L8:
 1092 04dc 1FF8E007 		.word	132184095
 1093 04e0 00000000 		.word	.LANCHOR0
 1094              		.cfi_endproc
 1095              	.LFE210:
 1096              		.size	lv_led_event, .-lv_led_event
 1097              		.section	.text.lv_led_create,"ax",%progbits
 1098              		.align	2
 1099              		.global	lv_led_create
 1100              		.code	16
 1101              		.thumb_func
 1102              		.type	lv_led_create, %function
 1103              	lv_led_create:
 1104              	.LFB202:
  55:..\..\..\arduinoLCD\test\Pain Drain\libraries\lvgl\src\extra\widgets\led/lv_led.c ****     LV_LOG_INFO("begin");
 1105              		.loc 1 55 0
 1106              		.cfi_startproc
 1107              		@ args = 0, pretend = 0, frame = 0
 1108              		@ frame_needed = 0, uses_anonymous_args = 0
 1109              	.LVL184:
 1110 0000 10B5     		push	{r4, lr}
 1111              		.cfi_def_cfa_offset 8
 1112              		.cfi_offset 4, -8
 1113              		.cfi_offset 14, -4
 1114 0002 0100     		movs	r1, r0
  57:..\..\..\arduinoLCD\test\Pain Drain\libraries\lvgl\src\extra\widgets\led/lv_led.c ****     lv_obj_class_init_obj(obj);
 1115              		.loc 1 57 0
 1116 0004 0348     		ldr	r0, .L11
 1117              	.LVL185:
 1118 0006 FFF7FEFF 		bl	lv_obj_class_create_obj
 1119              	.LVL186:
ARM GAS  C:\Users\haske\AppData\Local\Temp\ccoc8x2c.s 			page 36


 1120 000a 0400     		movs	r4, r0
 1121              	.LVL187:
  58:..\..\..\arduinoLCD\test\Pain Drain\libraries\lvgl\src\extra\widgets\led/lv_led.c ****     return obj;
 1122              		.loc 1 58 0
 1123 000c FFF7FEFF 		bl	lv_obj_class_init_obj
 1124              	.LVL188:
  60:..\..\..\arduinoLCD\test\Pain Drain\libraries\lvgl\src\extra\widgets\led/lv_led.c **** 
 1125              		.loc 1 60 0
 1126 0010 2000     		movs	r0, r4
 1127              		@ sp needed
 1128              	.LVL189:
 1129 0012 10BD     		pop	{r4, pc}
 1130              	.L12:
 1131              		.align	2
 1132              	.L11:
 1133 0014 00000000 		.word	.LANCHOR0
 1134              		.cfi_endproc
 1135              	.LFE202:
 1136              		.size	lv_led_create, .-lv_led_create
 1137              		.section	.text.lv_led_set_color,"ax",%progbits
 1138              		.align	2
 1139              		.global	lv_led_set_color
 1140              		.code	16
 1141              		.thumb_func
 1142              		.type	lv_led_set_color, %function
 1143              	lv_led_set_color:
 1144              	.LFB203:
  72:..\..\..\arduinoLCD\test\Pain Drain\libraries\lvgl\src\extra\widgets\led/lv_led.c ****     LV_ASSERT_OBJ(obj, MY_CLASS);
 1145              		.loc 1 72 0
 1146              		.cfi_startproc
 1147              		@ args = 0, pretend = 0, frame = 0
 1148              		@ frame_needed = 0, uses_anonymous_args = 0
 1149              	.LVL190:
 1150 0000 10B5     		push	{r4, lr}
 1151              		.cfi_def_cfa_offset 8
 1152              		.cfi_offset 4, -8
 1153              		.cfi_offset 14, -4
 1154              	.LVL191:
  76:..\..\..\arduinoLCD\test\Pain Drain\libraries\lvgl\src\extra\widgets\led/lv_led.c ****     lv_obj_invalidate(obj);
 1155              		.loc 1 76 0
 1156 0002 8184     		strh	r1, [r0, #36]
  77:..\..\..\arduinoLCD\test\Pain Drain\libraries\lvgl\src\extra\widgets\led/lv_led.c **** }
 1157              		.loc 1 77 0
 1158 0004 FFF7FEFF 		bl	lv_obj_invalidate
 1159              	.LVL192:
  78:..\..\..\arduinoLCD\test\Pain Drain\libraries\lvgl\src\extra\widgets\led/lv_led.c **** 
 1160              		.loc 1 78 0
 1161              		@ sp needed
 1162 0008 10BD     		pop	{r4, pc}
 1163              		.cfi_endproc
 1164              	.LFE203:
 1165              		.size	lv_led_set_color, .-lv_led_set_color
 1166 000a C046     		.section	.text.lv_led_set_brightness,"ax",%progbits
 1167              		.align	2
 1168              		.global	lv_led_set_brightness
 1169              		.code	16
 1170              		.thumb_func
ARM GAS  C:\Users\haske\AppData\Local\Temp\ccoc8x2c.s 			page 37


 1171              		.type	lv_led_set_brightness, %function
 1172              	lv_led_set_brightness:
 1173              	.LFB204:
  86:..\..\..\arduinoLCD\test\Pain Drain\libraries\lvgl\src\extra\widgets\led/lv_led.c ****     LV_ASSERT_OBJ(obj, MY_CLASS);
 1174              		.loc 1 86 0
 1175              		.cfi_startproc
 1176              		@ args = 0, pretend = 0, frame = 0
 1177              		@ frame_needed = 0, uses_anonymous_args = 0
 1178              	.LVL193:
 1179 0000 10B5     		push	{r4, lr}
 1180              		.cfi_def_cfa_offset 8
 1181              		.cfi_offset 4, -8
 1182              		.cfi_offset 14, -4
 1183              	.LVL194:
  90:..\..\..\arduinoLCD\test\Pain Drain\libraries\lvgl\src\extra\widgets\led/lv_led.c **** 
 1184              		.loc 1 90 0
 1185 0002 2623     		movs	r3, #38
 1186 0004 C35C     		ldrb	r3, [r0, r3]
 1187 0006 8B42     		cmp	r3, r1
 1188 0008 09D0     		beq	.L14
  92:..\..\..\arduinoLCD\test\Pain Drain\libraries\lvgl\src\extra\widgets\led/lv_led.c **** 
 1189              		.loc 1 92 0
 1190 000a 0B00     		movs	r3, r1
 1191 000c 503B     		subs	r3, r3, #80
 1192 000e DBB2     		uxtb	r3, r3
 1193 0010 AF2B     		cmp	r3, #175
 1194 0012 00D9     		bls	.L16
 1195 0014 5021     		movs	r1, #80
 1196              	.LVL195:
 1197              	.L16:
  92:..\..\..\arduinoLCD\test\Pain Drain\libraries\lvgl\src\extra\widgets\led/lv_led.c **** 
 1198              		.loc 1 92 0 is_stmt 0 discriminator 4
 1199 0016 2623     		movs	r3, #38
 1200 0018 C154     		strb	r1, [r0, r3]
  95:..\..\..\arduinoLCD\test\Pain Drain\libraries\lvgl\src\extra\widgets\led/lv_led.c **** }
 1201              		.loc 1 95 0 is_stmt 1 discriminator 4
 1202 001a FFF7FEFF 		bl	lv_obj_invalidate
 1203              	.LVL196:
 1204              	.L14:
  96:..\..\..\arduinoLCD\test\Pain Drain\libraries\lvgl\src\extra\widgets\led/lv_led.c **** 
 1205              		.loc 1 96 0
 1206              		@ sp needed
 1207 001e 10BD     		pop	{r4, pc}
 1208              		.cfi_endproc
 1209              	.LFE204:
 1210              		.size	lv_led_set_brightness, .-lv_led_set_brightness
 1211              		.section	.text.lv_led_on,"ax",%progbits
 1212              		.align	2
 1213              		.global	lv_led_on
 1214              		.code	16
 1215              		.thumb_func
 1216              		.type	lv_led_on, %function
 1217              	lv_led_on:
 1218              	.LFB205:
 103:..\..\..\arduinoLCD\test\Pain Drain\libraries\lvgl\src\extra\widgets\led/lv_led.c ****     lv_led_set_brightness(led, LV_LED_BRIGHT_MAX);
 1219              		.loc 1 103 0
 1220              		.cfi_startproc
ARM GAS  C:\Users\haske\AppData\Local\Temp\ccoc8x2c.s 			page 38


 1221              		@ args = 0, pretend = 0, frame = 0
 1222              		@ frame_needed = 0, uses_anonymous_args = 0
 1223              	.LVL197:
 1224 0000 10B5     		push	{r4, lr}
 1225              		.cfi_def_cfa_offset 8
 1226              		.cfi_offset 4, -8
 1227              		.cfi_offset 14, -4
 104:..\..\..\arduinoLCD\test\Pain Drain\libraries\lvgl\src\extra\widgets\led/lv_led.c **** }
 1228              		.loc 1 104 0
 1229 0002 FF21     		movs	r1, #255
 1230 0004 FFF7FEFF 		bl	lv_led_set_brightness
 1231              	.LVL198:
 105:..\..\..\arduinoLCD\test\Pain Drain\libraries\lvgl\src\extra\widgets\led/lv_led.c **** 
 1232              		.loc 1 105 0
 1233              		@ sp needed
 1234 0008 10BD     		pop	{r4, pc}
 1235              		.cfi_endproc
 1236              	.LFE205:
 1237              		.size	lv_led_on, .-lv_led_on
 1238 000a C046     		.section	.text.lv_led_off,"ax",%progbits
 1239              		.align	2
 1240              		.global	lv_led_off
 1241              		.code	16
 1242              		.thumb_func
 1243              		.type	lv_led_off, %function
 1244              	lv_led_off:
 1245              	.LFB206:
 112:..\..\..\arduinoLCD\test\Pain Drain\libraries\lvgl\src\extra\widgets\led/lv_led.c ****     lv_led_set_brightness(led, LV_LED_BRIGHT_MIN);
 1246              		.loc 1 112 0
 1247              		.cfi_startproc
 1248              		@ args = 0, pretend = 0, frame = 0
 1249              		@ frame_needed = 0, uses_anonymous_args = 0
 1250              	.LVL199:
 1251 0000 10B5     		push	{r4, lr}
 1252              		.cfi_def_cfa_offset 8
 1253              		.cfi_offset 4, -8
 1254              		.cfi_offset 14, -4
 113:..\..\..\arduinoLCD\test\Pain Drain\libraries\lvgl\src\extra\widgets\led/lv_led.c **** }
 1255              		.loc 1 113 0
 1256 0002 5021     		movs	r1, #80
 1257 0004 FFF7FEFF 		bl	lv_led_set_brightness
 1258              	.LVL200:
 114:..\..\..\arduinoLCD\test\Pain Drain\libraries\lvgl\src\extra\widgets\led/lv_led.c **** 
 1259              		.loc 1 114 0
 1260              		@ sp needed
 1261 0008 10BD     		pop	{r4, pc}
 1262              		.cfi_endproc
 1263              	.LFE206:
 1264              		.size	lv_led_off, .-lv_led_off
 1265 000a C046     		.section	.text.lv_led_get_brightness,"ax",%progbits
 1266              		.align	2
 1267              		.global	lv_led_get_brightness
 1268              		.code	16
 1269              		.thumb_func
 1270              		.type	lv_led_get_brightness, %function
 1271              	lv_led_get_brightness:
 1272              	.LFB208:
ARM GAS  C:\Users\haske\AppData\Local\Temp\ccoc8x2c.s 			page 39


 139:..\..\..\arduinoLCD\test\Pain Drain\libraries\lvgl\src\extra\widgets\led/lv_led.c ****     LV_ASSERT_OBJ(obj, MY_CLASS);
 1273              		.loc 1 139 0
 1274              		.cfi_startproc
 1275              		@ args = 0, pretend = 0, frame = 0
 1276              		@ frame_needed = 0, uses_anonymous_args = 0
 1277              		@ link register save eliminated.
 1278              	.LVL201:
 143:..\..\..\arduinoLCD\test\Pain Drain\libraries\lvgl\src\extra\widgets\led/lv_led.c **** }
 1279              		.loc 1 143 0
 1280 0000 2623     		movs	r3, #38
 1281 0002 C05C     		ldrb	r0, [r0, r3]
 1282              	.LVL202:
 144:..\..\..\arduinoLCD\test\Pain Drain\libraries\lvgl\src\extra\widgets\led/lv_led.c **** 
 1283              		.loc 1 144 0
 1284              		@ sp needed
 1285 0004 7047     		bx	lr
 1286              		.cfi_endproc
 1287              	.LFE208:
 1288              		.size	lv_led_get_brightness, .-lv_led_get_brightness
 1289 0006 C046     		.section	.text.lv_led_toggle,"ax",%progbits
 1290              		.align	2
 1291              		.global	lv_led_toggle
 1292              		.code	16
 1293              		.thumb_func
 1294              		.type	lv_led_toggle, %function
 1295              	lv_led_toggle:
 1296              	.LFB207:
 121:..\..\..\arduinoLCD\test\Pain Drain\libraries\lvgl\src\extra\widgets\led/lv_led.c ****     uint8_t bright = lv_led_get_brightness(obj);
 1297              		.loc 1 121 0
 1298              		.cfi_startproc
 1299              		@ args = 0, pretend = 0, frame = 0
 1300              		@ frame_needed = 0, uses_anonymous_args = 0
 1301              	.LVL203:
 1302 0000 10B5     		push	{r4, lr}
 1303              		.cfi_def_cfa_offset 8
 1304              		.cfi_offset 4, -8
 1305              		.cfi_offset 14, -4
 1306 0002 0400     		movs	r4, r0
 122:..\..\..\arduinoLCD\test\Pain Drain\libraries\lvgl\src\extra\widgets\led/lv_led.c ****     if(bright > (LV_LED_BRIGHT_MIN + LV_LED_BRIGHT_MAX) >> 1)
 1307              		.loc 1 122 0
 1308 0004 FFF7FEFF 		bl	lv_led_get_brightness
 1309              	.LVL204:
 123:..\..\..\arduinoLCD\test\Pain Drain\libraries\lvgl\src\extra\widgets\led/lv_led.c ****         lv_led_off(obj);
 1310              		.loc 1 123 0
 1311 0008 A728     		cmp	r0, #167
 1312 000a 03D9     		bls	.L22
 124:..\..\..\arduinoLCD\test\Pain Drain\libraries\lvgl\src\extra\widgets\led/lv_led.c ****     else
 1313              		.loc 1 124 0
 1314 000c 2000     		movs	r0, r4
 1315              	.LVL205:
 1316 000e FFF7FEFF 		bl	lv_led_off
 1317              	.LVL206:
 1318 0012 02E0     		b	.L21
 1319              	.LVL207:
 1320              	.L22:
 126:..\..\..\arduinoLCD\test\Pain Drain\libraries\lvgl\src\extra\widgets\led/lv_led.c **** }
 1321              		.loc 1 126 0
ARM GAS  C:\Users\haske\AppData\Local\Temp\ccoc8x2c.s 			page 40


 1322 0014 2000     		movs	r0, r4
 1323              	.LVL208:
 1324 0016 FFF7FEFF 		bl	lv_led_on
 1325              	.LVL209:
 1326              	.L21:
 127:..\..\..\arduinoLCD\test\Pain Drain\libraries\lvgl\src\extra\widgets\led/lv_led.c **** 
 1327              		.loc 1 127 0
 1328              		@ sp needed
 1329              	.LVL210:
 1330 001a 10BD     		pop	{r4, pc}
 1331              		.cfi_endproc
 1332              	.LFE207:
 1333              		.size	lv_led_toggle, .-lv_led_toggle
 1334              		.global	lv_led_class
 1335              		.section	.rodata
 1336              		.align	2
 1337              		.set	.LANCHOR0,. + 0
 1338              		.type	lv_led_class, %object
 1339              		.size	lv_led_class, 28
 1340              	lv_led_class:
 1341 0000 00000000 		.word	lv_obj_class
 1342 0004 00000000 		.word	lv_led_constructor
 1343 0008 00000000 		.space	8
 1343      00000000 
 1344 0010 00000000 		.word	lv_led_event
 1345 0014 1A00     		.short	26
 1346 0016 1A00     		.short	26
 1347 0018 80       		.byte	128
 1348 0019 02       		.byte	2
 1349 001a 00       		.byte	0
 1350 001b 00       		.space	1
 1351              		.text
 1352              	.Letext0:
 1353              		.file 3 "c:\\program files (x86)\\cypress\\psoc creator\\4.4\\psoc creator\\import\\gnu\\arm\\5.4.
 1354              		.file 4 "c:\\program files (x86)\\cypress\\psoc creator\\4.4\\psoc creator\\import\\gnu\\arm\\5.4.
 1355              		.file 5 "c:\\projects\\paindrain\\arduinolcd\\test\\pain drain\\libraries\\lvgl\\src/misc/lv_types
 1356              		.file 6 "c:\\program files (x86)\\cypress\\psoc creator\\4.4\\psoc creator\\import\\gnu\\arm\\5.4.
 1357              		.file 7 "c:\\projects\\paindrain\\arduinolcd\\test\\pain drain\\libraries\\lvgl\\src\\misc\\lv_are
 1358              		.file 8 "c:\\projects\\paindrain\\arduinolcd\\test\\pain drain\\libraries\\lvgl\\src\\font\\lv_fon
 1359              		.file 9 "c:\\projects\\paindrain\\arduinolcd\\test\\pain drain\\libraries\\lvgl\\src\\misc\\lv_txt
 1360              		.file 10 "c:\\projects\\paindrain\\arduinolcd\\test\\pain drain\\libraries\\lvgl\\src\\misc\\lv_bi
 1361              		.file 11 "c:\\projects\\paindrain\\arduinolcd\\test\\pain drain\\libraries\\lvgl\\src\\misc\\lv_st
 1362              		.file 12 "c:\\projects\\paindrain\\arduinolcd\\test\\pain drain\\libraries\\lvgl\\src\\draw\\lv_im
 1363              		.file 13 "c:\\projects\\paindrain\\arduinolcd\\test\\pain drain\\libraries\\lvgl\\src/core/lv_obj.
 1364              		.file 14 "c:\\projects\\paindrain\\arduinolcd\\test\\pain drain\\libraries\\lvgl\\src\\draw\\lv_dr
 1365              		.file 15 "c:\\projects\\paindrain\\arduinolcd\\test\\pain drain\\libraries\\lvgl\\src\\draw\\lv_dr
 1366              		.file 16 "c:\\projects\\paindrain\\arduinolcd\\test\\pain drain\\libraries\\lvgl\\src\\draw\\lv_dr
 1367              		.file 17 "c:\\projects\\paindrain\\arduinolcd\\test\\pain drain\\libraries\\lvgl\\src\\draw\\lv_dr
 1368              		.file 18 "c:\\projects\\paindrain\\arduinolcd\\test\\pain drain\\libraries\\lvgl\\src\\draw\\lv_dr
 1369              		.file 19 "c:\\projects\\paindrain\\arduinolcd\\test\\pain drain\\libraries\\lvgl\\src\\draw\\lv_dr
 1370              		.file 20 "c:\\projects\\paindrain\\arduinolcd\\test\\pain drain\\libraries\\lvgl\\src\\draw\\lv_dr
 1371              		.file 21 "c:\\projects\\paindrain\\arduinolcd\\test\\pain drain\\libraries\\lvgl\\src\\misc\\lv_ll
 1372              		.file 22 "c:\\projects\\paindrain\\arduinolcd\\test\\pain drain\\libraries\\lvgl\\src/core/lv_grou
 1373              		.file 23 "c:\\projects\\paindrain\\arduinolcd\\test\\pain drain\\libraries\\lvgl\\src/core/lv_obj_
 1374              		.file 24 "c:\\projects\\paindrain\\arduinolcd\\test\\pain drain\\libraries\\lvgl\\src/core/lv_obj_
 1375              		.file 25 "c:\\projects\\paindrain\\arduinolcd\\test\\pain drain\\libraries\\lvgl\\src/core/lv_obj_
 1376              		.file 26 "c:\\projects\\paindrain\\arduinolcd\\test\\pain drain\\libraries\\lvgl\\src/core/lv_obj_
ARM GAS  C:\Users\haske\AppData\Local\Temp\ccoc8x2c.s 			page 41


 1377              		.file 27 "c:\\projects\\paindrain\\arduinolcd\\test\\pain drain\\libraries\\lvgl\\src/core/lv_even
 1378              		.file 28 "c:\\projects\\paindrain\\arduinolcd\\test\\pain drain\\libraries\\lvgl\\src/widgets/lv_b
 1379              		.file 29 "c:\\projects\\paindrain\\arduinolcd\\test\\pain drain\\libraries\\lvgl\\src/extra/widget
 1380              		.file 30 "..\\..\\..\\arduinoLCD\\test\\Pain Drain\\libraries\\lvgl\\src\\extra\\widgets\\led\\lv_
 1381              		.file 31 "c:\\projects\\paindrain\\arduinolcd\\test\\pain drain\\libraries\\lvgl\\src/extra/layout
 1382              		.file 32 "c:\\projects\\paindrain\\arduinolcd\\test\\pain drain\\libraries\\lvgl\\src/extra/layout
 1383              		.file 33 "c:\\projects\\paindrain\\arduinolcd\\test\\pain drain\\libraries\\lvgl\\src/core/lv_them
 1384              		.file 34 "c:\\projects\\paindrain\\arduinolcd\\test\\pain drain\\libraries\\lvgl\\src\\core\\lv_ob
 1385              		.section	.debug_info,"",%progbits
 1386              	.Ldebug_info0:
 1387 0000 71240000 		.4byte	0x2471
 1388 0004 0400     		.2byte	0x4
 1389 0006 00000000 		.4byte	.Ldebug_abbrev0
 1390 000a 04       		.byte	0x4
 1391 000b 01       		.uleb128 0x1
 1392 000c D0170000 		.4byte	.LASF475
 1393 0010 0C       		.byte	0xc
 1394 0011 FF140000 		.4byte	.LASF476
 1395 0015 C60F0000 		.4byte	.LASF477
 1396 0019 00000000 		.4byte	.Ldebug_ranges0+0
 1397 001d 00000000 		.4byte	0
 1398 0021 00000000 		.4byte	.Ldebug_line0
 1399 0025 02       		.uleb128 0x2
 1400 0026 FE1B0000 		.4byte	.LASF0
 1401 002a 03       		.byte	0x3
 1402 002b 1B       		.byte	0x1b
 1403 002c 30000000 		.4byte	0x30
 1404 0030 03       		.uleb128 0x3
 1405 0031 01       		.byte	0x1
 1406 0032 06       		.byte	0x6
 1407 0033 740F0000 		.4byte	.LASF2
 1408 0037 02       		.uleb128 0x2
 1409 0038 A2000000 		.4byte	.LASF1
 1410 003c 03       		.byte	0x3
 1411 003d 1D       		.byte	0x1d
 1412 003e 42000000 		.4byte	0x42
 1413 0042 03       		.uleb128 0x3
 1414 0043 01       		.byte	0x1
 1415 0044 08       		.byte	0x8
 1416 0045 13070000 		.4byte	.LASF3
 1417 0049 02       		.uleb128 0x2
 1418 004a 2B060000 		.4byte	.LASF4
 1419 004e 03       		.byte	0x3
 1420 004f 29       		.byte	0x29
 1421 0050 54000000 		.4byte	0x54
 1422 0054 03       		.uleb128 0x3
 1423 0055 02       		.byte	0x2
 1424 0056 05       		.byte	0x5
 1425 0057 021D0000 		.4byte	.LASF5
 1426 005b 02       		.uleb128 0x2
 1427 005c 35060000 		.4byte	.LASF6
 1428 0060 03       		.byte	0x3
 1429 0061 2B       		.byte	0x2b
 1430 0062 66000000 		.4byte	0x66
 1431 0066 03       		.uleb128 0x3
 1432 0067 02       		.byte	0x2
 1433 0068 07       		.byte	0x7
ARM GAS  C:\Users\haske\AppData\Local\Temp\ccoc8x2c.s 			page 42


 1434 0069 570F0000 		.4byte	.LASF7
 1435 006d 02       		.uleb128 0x2
 1436 006e 95170000 		.4byte	.LASF8
 1437 0072 03       		.byte	0x3
 1438 0073 3F       		.byte	0x3f
 1439 0074 78000000 		.4byte	0x78
 1440 0078 03       		.uleb128 0x3
 1441 0079 04       		.byte	0x4
 1442 007a 05       		.byte	0x5
 1443 007b E9110000 		.4byte	.LASF9
 1444 007f 02       		.uleb128 0x2
 1445 0080 9F170000 		.4byte	.LASF10
 1446 0084 03       		.byte	0x3
 1447 0085 41       		.byte	0x41
 1448 0086 8A000000 		.4byte	0x8a
 1449 008a 03       		.uleb128 0x3
 1450 008b 04       		.byte	0x4
 1451 008c 07       		.byte	0x7
 1452 008d 90130000 		.4byte	.LASF11
 1453 0091 03       		.uleb128 0x3
 1454 0092 08       		.byte	0x8
 1455 0093 05       		.byte	0x5
 1456 0094 B91A0000 		.4byte	.LASF12
 1457 0098 03       		.uleb128 0x3
 1458 0099 08       		.byte	0x8
 1459 009a 07       		.byte	0x7
 1460 009b 3A190000 		.4byte	.LASF13
 1461 009f 04       		.uleb128 0x4
 1462 00a0 04       		.byte	0x4
 1463 00a1 05       		.byte	0x5
 1464 00a2 696E7400 		.ascii	"int\000"
 1465 00a6 03       		.uleb128 0x3
 1466 00a7 04       		.byte	0x4
 1467 00a8 07       		.byte	0x7
 1468 00a9 811C0000 		.4byte	.LASF14
 1469 00ad 02       		.uleb128 0x2
 1470 00ae 420E0000 		.4byte	.LASF15
 1471 00b2 04       		.byte	0x4
 1472 00b3 14       		.byte	0x14
 1473 00b4 25000000 		.4byte	0x25
 1474 00b8 02       		.uleb128 0x2
 1475 00b9 EC090000 		.4byte	.LASF16
 1476 00bd 04       		.byte	0x4
 1477 00be 18       		.byte	0x18
 1478 00bf 37000000 		.4byte	0x37
 1479 00c3 02       		.uleb128 0x2
 1480 00c4 3A0F0000 		.4byte	.LASF17
 1481 00c8 04       		.byte	0x4
 1482 00c9 20       		.byte	0x20
 1483 00ca 49000000 		.4byte	0x49
 1484 00ce 02       		.uleb128 0x2
 1485 00cf BB010000 		.4byte	.LASF18
 1486 00d3 04       		.byte	0x4
 1487 00d4 24       		.byte	0x24
 1488 00d5 5B000000 		.4byte	0x5b
 1489 00d9 02       		.uleb128 0x2
 1490 00da 6A030000 		.4byte	.LASF19
ARM GAS  C:\Users\haske\AppData\Local\Temp\ccoc8x2c.s 			page 43


 1491 00de 04       		.byte	0x4
 1492 00df 2C       		.byte	0x2c
 1493 00e0 6D000000 		.4byte	0x6d
 1494 00e4 02       		.uleb128 0x2
 1495 00e5 26130000 		.4byte	.LASF20
 1496 00e9 04       		.byte	0x4
 1497 00ea 30       		.byte	0x30
 1498 00eb 7F000000 		.4byte	0x7f
 1499 00ef 05       		.uleb128 0x5
 1500 00f0 01       		.byte	0x1
 1501 00f1 42000000 		.4byte	0x42
 1502 00f5 05       		.byte	0x5
 1503 00f6 2A       		.byte	0x2a
 1504 00f7 08010000 		.4byte	0x108
 1505 00fb 06       		.uleb128 0x6
 1506 00fc BC180000 		.4byte	.LASF21
 1507 0100 00       		.byte	0
 1508 0101 06       		.uleb128 0x6
 1509 0102 62180000 		.4byte	.LASF22
 1510 0106 01       		.byte	0x1
 1511 0107 00       		.byte	0
 1512 0108 02       		.uleb128 0x2
 1513 0109 66000000 		.4byte	.LASF23
 1514 010d 05       		.byte	0x5
 1515 010e 2F       		.byte	0x2f
 1516 010f B8000000 		.4byte	0xb8
 1517 0113 07       		.uleb128 0x7
 1518 0114 04       		.byte	0x4
 1519 0115 02       		.uleb128 0x2
 1520 0116 E5090000 		.4byte	.LASF24
 1521 011a 06       		.byte	0x6
 1522 011b D8       		.byte	0xd8
 1523 011c A6000000 		.4byte	0xa6
 1524 0120 03       		.uleb128 0x3
 1525 0121 08       		.byte	0x8
 1526 0122 04       		.byte	0x4
 1527 0123 73130000 		.4byte	.LASF25
 1528 0127 03       		.uleb128 0x3
 1529 0128 04       		.byte	0x4
 1530 0129 07       		.byte	0x7
 1531 012a 150F0000 		.4byte	.LASF26
 1532 012e 08       		.uleb128 0x8
 1533 012f 04       		.byte	0x4
 1534 0130 34010000 		.4byte	0x134
 1535 0134 03       		.uleb128 0x3
 1536 0135 01       		.byte	0x1
 1537 0136 08       		.byte	0x8
 1538 0137 36140000 		.4byte	.LASF27
 1539 013b 02       		.uleb128 0x2
 1540 013c E8080000 		.4byte	.LASF28
 1541 0140 07       		.byte	0x7
 1542 0141 1B       		.byte	0x1b
 1543 0142 C3000000 		.4byte	0xc3
 1544 0146 09       		.uleb128 0x9
 1545 0147 04       		.byte	0x4
 1546 0148 07       		.byte	0x7
 1547 0149 25       		.byte	0x25
ARM GAS  C:\Users\haske\AppData\Local\Temp\ccoc8x2c.s 			page 44


 1548 014a 63010000 		.4byte	0x163
 1549 014e 0A       		.uleb128 0xa
 1550 014f 7800     		.ascii	"x\000"
 1551 0151 07       		.byte	0x7
 1552 0152 26       		.byte	0x26
 1553 0153 3B010000 		.4byte	0x13b
 1554 0157 00       		.byte	0
 1555 0158 0A       		.uleb128 0xa
 1556 0159 7900     		.ascii	"y\000"
 1557 015b 07       		.byte	0x7
 1558 015c 27       		.byte	0x27
 1559 015d 3B010000 		.4byte	0x13b
 1560 0161 02       		.byte	0x2
 1561 0162 00       		.byte	0
 1562 0163 02       		.uleb128 0x2
 1563 0164 93070000 		.4byte	.LASF29
 1564 0168 07       		.byte	0x7
 1565 0169 28       		.byte	0x28
 1566 016a 46010000 		.4byte	0x146
 1567 016e 09       		.uleb128 0x9
 1568 016f 08       		.byte	0x8
 1569 0170 07       		.byte	0x7
 1570 0171 2B       		.byte	0x2b
 1571 0172 A3010000 		.4byte	0x1a3
 1572 0176 0A       		.uleb128 0xa
 1573 0177 783100   		.ascii	"x1\000"
 1574 017a 07       		.byte	0x7
 1575 017b 2C       		.byte	0x2c
 1576 017c 3B010000 		.4byte	0x13b
 1577 0180 00       		.byte	0
 1578 0181 0A       		.uleb128 0xa
 1579 0182 793100   		.ascii	"y1\000"
 1580 0185 07       		.byte	0x7
 1581 0186 2D       		.byte	0x2d
 1582 0187 3B010000 		.4byte	0x13b
 1583 018b 02       		.byte	0x2
 1584 018c 0A       		.uleb128 0xa
 1585 018d 783200   		.ascii	"x2\000"
 1586 0190 07       		.byte	0x7
 1587 0191 2E       		.byte	0x2e
 1588 0192 3B010000 		.4byte	0x13b
 1589 0196 04       		.byte	0x4
 1590 0197 0A       		.uleb128 0xa
 1591 0198 793200   		.ascii	"y2\000"
 1592 019b 07       		.byte	0x7
 1593 019c 2F       		.byte	0x2f
 1594 019d 3B010000 		.4byte	0x13b
 1595 01a1 06       		.byte	0x6
 1596 01a2 00       		.byte	0
 1597 01a3 02       		.uleb128 0x2
 1598 01a4 41100000 		.4byte	.LASF30
 1599 01a8 07       		.byte	0x7
 1600 01a9 30       		.byte	0x30
 1601 01aa 6E010000 		.4byte	0x16e
 1602 01ae 02       		.uleb128 0x2
 1603 01af 8F000000 		.4byte	.LASF31
 1604 01b3 07       		.byte	0x7
ARM GAS  C:\Users\haske\AppData\Local\Temp\ccoc8x2c.s 			page 45


 1605 01b4 59       		.byte	0x59
 1606 01b5 B8000000 		.4byte	0xb8
 1607 01b9 09       		.uleb128 0x9
 1608 01ba 10       		.byte	0x10
 1609 01bb 08       		.byte	0x8
 1610 01bc 29       		.byte	0x29
 1611 01bd 28020000 		.4byte	0x228
 1612 01c1 0B       		.uleb128 0xb
 1613 01c2 B6030000 		.4byte	.LASF32
 1614 01c6 08       		.byte	0x8
 1615 01c7 2B       		.byte	0x2b
 1616 01c8 B0020000 		.4byte	0x2b0
 1617 01cc 00       		.byte	0
 1618 01cd 0B       		.uleb128 0xb
 1619 01ce 480D0000 		.4byte	.LASF33
 1620 01d2 08       		.byte	0x8
 1621 01d3 2C       		.byte	0x2c
 1622 01d4 CE000000 		.4byte	0xce
 1623 01d8 04       		.byte	0x4
 1624 01d9 0B       		.uleb128 0xb
 1625 01da 1E080000 		.4byte	.LASF34
 1626 01de 08       		.byte	0x8
 1627 01df 2D       		.byte	0x2d
 1628 01e0 CE000000 		.4byte	0xce
 1629 01e4 06       		.byte	0x6
 1630 01e5 0B       		.uleb128 0xb
 1631 01e6 06080000 		.4byte	.LASF35
 1632 01ea 08       		.byte	0x8
 1633 01eb 2E       		.byte	0x2e
 1634 01ec CE000000 		.4byte	0xce
 1635 01f0 08       		.byte	0x8
 1636 01f1 0B       		.uleb128 0xb
 1637 01f2 2E0F0000 		.4byte	.LASF36
 1638 01f6 08       		.byte	0x8
 1639 01f7 2F       		.byte	0x2f
 1640 01f8 C3000000 		.4byte	0xc3
 1641 01fc 0A       		.byte	0xa
 1642 01fd 0B       		.uleb128 0xb
 1643 01fe 340F0000 		.4byte	.LASF37
 1644 0202 08       		.byte	0x8
 1645 0203 30       		.byte	0x30
 1646 0204 C3000000 		.4byte	0xc3
 1647 0208 0C       		.byte	0xc
 1648 0209 0C       		.uleb128 0xc
 1649 020a 62707000 		.ascii	"bpp\000"
 1650 020e 08       		.byte	0x8
 1651 020f 31       		.byte	0x31
 1652 0210 B8000000 		.4byte	0xb8
 1653 0214 01       		.byte	0x1
 1654 0215 04       		.byte	0x4
 1655 0216 04       		.byte	0x4
 1656 0217 0E       		.byte	0xe
 1657 0218 0D       		.uleb128 0xd
 1658 0219 D5120000 		.4byte	.LASF38
 1659 021d 08       		.byte	0x8
 1660 021e 32       		.byte	0x32
 1661 021f B8000000 		.4byte	0xb8
ARM GAS  C:\Users\haske\AppData\Local\Temp\ccoc8x2c.s 			page 46


 1662 0223 01       		.byte	0x1
 1663 0224 01       		.byte	0x1
 1664 0225 03       		.byte	0x3
 1665 0226 0E       		.byte	0xe
 1666 0227 00       		.byte	0
 1667 0228 0E       		.uleb128 0xe
 1668 0229 79180000 		.4byte	.LASF176
 1669 022d 1C       		.byte	0x1c
 1670 022e 08       		.byte	0x8
 1671 022f 40       		.byte	0x40
 1672 0230 B0020000 		.4byte	0x2b0
 1673 0234 0B       		.uleb128 0xb
 1674 0235 CC160000 		.4byte	.LASF39
 1675 0239 08       		.byte	0x8
 1676 023a 42       		.byte	0x42
 1677 023b F1020000 		.4byte	0x2f1
 1678 023f 00       		.byte	0
 1679 0240 0B       		.uleb128 0xb
 1680 0241 9E120000 		.4byte	.LASF40
 1681 0245 08       		.byte	0x8
 1682 0246 45       		.byte	0x45
 1683 0247 16030000 		.4byte	0x316
 1684 024b 04       		.byte	0x4
 1685 024c 0B       		.uleb128 0xb
 1686 024d 20110000 		.4byte	.LASF41
 1687 0251 08       		.byte	0x8
 1688 0252 48       		.byte	0x48
 1689 0253 3B010000 		.4byte	0x13b
 1690 0257 08       		.byte	0x8
 1691 0258 0B       		.uleb128 0xb
 1692 0259 CC140000 		.4byte	.LASF42
 1693 025d 08       		.byte	0x8
 1694 025e 49       		.byte	0x49
 1695 025f 3B010000 		.4byte	0x13b
 1696 0263 0A       		.byte	0xa
 1697 0264 0D       		.uleb128 0xd
 1698 0265 A5020000 		.4byte	.LASF43
 1699 0269 08       		.byte	0x8
 1700 026a 4A       		.byte	0x4a
 1701 026b B8000000 		.4byte	0xb8
 1702 026f 01       		.byte	0x1
 1703 0270 02       		.byte	0x2
 1704 0271 06       		.byte	0x6
 1705 0272 0C       		.byte	0xc
 1706 0273 0B       		.uleb128 0xb
 1707 0274 32070000 		.4byte	.LASF44
 1708 0278 08       		.byte	0x8
 1709 0279 4C       		.byte	0x4c
 1710 027a AD000000 		.4byte	0xad
 1711 027e 0D       		.byte	0xd
 1712 027f 0B       		.uleb128 0xb
 1713 0280 1B010000 		.4byte	.LASF45
 1714 0284 08       		.byte	0x8
 1715 0285 4D       		.byte	0x4d
 1716 0286 AD000000 		.4byte	0xad
 1717 028a 0E       		.byte	0xe
 1718 028b 0A       		.uleb128 0xa
ARM GAS  C:\Users\haske\AppData\Local\Temp\ccoc8x2c.s 			page 47


 1719 028c 64736300 		.ascii	"dsc\000"
 1720 0290 08       		.byte	0x8
 1721 0291 4F       		.byte	0x4f
 1722 0292 1C030000 		.4byte	0x31c
 1723 0296 10       		.byte	0x10
 1724 0297 0B       		.uleb128 0xb
 1725 0298 90020000 		.4byte	.LASF46
 1726 029c 08       		.byte	0x8
 1727 029d 50       		.byte	0x50
 1728 029e B0020000 		.4byte	0x2b0
 1729 02a2 14       		.byte	0x14
 1730 02a3 0B       		.uleb128 0xb
 1731 02a4 13130000 		.4byte	.LASF47
 1732 02a8 08       		.byte	0x8
 1733 02a9 52       		.byte	0x52
 1734 02aa 13010000 		.4byte	0x113
 1735 02ae 18       		.byte	0x18
 1736 02af 00       		.byte	0
 1737 02b0 08       		.uleb128 0x8
 1738 02b1 04       		.byte	0x4
 1739 02b2 B6020000 		.4byte	0x2b6
 1740 02b6 0F       		.uleb128 0xf
 1741 02b7 28020000 		.4byte	0x228
 1742 02bb 02       		.uleb128 0x2
 1743 02bc 7F010000 		.4byte	.LASF48
 1744 02c0 08       		.byte	0x8
 1745 02c1 33       		.byte	0x33
 1746 02c2 B9010000 		.4byte	0x1b9
 1747 02c6 10       		.uleb128 0x10
 1748 02c7 E4020000 		.4byte	0x2e4
 1749 02cb E4020000 		.4byte	0x2e4
 1750 02cf 11       		.uleb128 0x11
 1751 02d0 B0020000 		.4byte	0x2b0
 1752 02d4 11       		.uleb128 0x11
 1753 02d5 EB020000 		.4byte	0x2eb
 1754 02d9 11       		.uleb128 0x11
 1755 02da E4000000 		.4byte	0xe4
 1756 02de 11       		.uleb128 0x11
 1757 02df E4000000 		.4byte	0xe4
 1758 02e3 00       		.byte	0
 1759 02e4 03       		.uleb128 0x3
 1760 02e5 01       		.byte	0x1
 1761 02e6 02       		.byte	0x2
 1762 02e7 B8000000 		.4byte	.LASF49
 1763 02eb 08       		.uleb128 0x8
 1764 02ec 04       		.byte	0x4
 1765 02ed BB020000 		.4byte	0x2bb
 1766 02f1 08       		.uleb128 0x8
 1767 02f2 04       		.byte	0x4
 1768 02f3 C6020000 		.4byte	0x2c6
 1769 02f7 10       		.uleb128 0x10
 1770 02f8 0B030000 		.4byte	0x30b
 1771 02fc 0B030000 		.4byte	0x30b
 1772 0300 11       		.uleb128 0x11
 1773 0301 B0020000 		.4byte	0x2b0
 1774 0305 11       		.uleb128 0x11
 1775 0306 E4000000 		.4byte	0xe4
ARM GAS  C:\Users\haske\AppData\Local\Temp\ccoc8x2c.s 			page 48


 1776 030a 00       		.byte	0
 1777 030b 08       		.uleb128 0x8
 1778 030c 04       		.byte	0x4
 1779 030d 11030000 		.4byte	0x311
 1780 0311 0F       		.uleb128 0xf
 1781 0312 B8000000 		.4byte	0xb8
 1782 0316 08       		.uleb128 0x8
 1783 0317 04       		.byte	0x4
 1784 0318 F7020000 		.4byte	0x2f7
 1785 031c 08       		.uleb128 0x8
 1786 031d 04       		.byte	0x4
 1787 031e 22030000 		.4byte	0x322
 1788 0322 12       		.uleb128 0x12
 1789 0323 02       		.uleb128 0x2
 1790 0324 B4110000 		.4byte	.LASF50
 1791 0328 08       		.byte	0x8
 1792 0329 54       		.byte	0x54
 1793 032a 28020000 		.4byte	0x228
 1794 032e 09       		.uleb128 0x9
 1795 032f 02       		.byte	0x2
 1796 0330 02       		.byte	0x2
 1797 0331 D1       		.byte	0xd1
 1798 0332 64030000 		.4byte	0x364
 1799 0336 0D       		.uleb128 0xd
 1800 0337 EF1A0000 		.4byte	.LASF51
 1801 033b 02       		.byte	0x2
 1802 033c D3       		.byte	0xd3
 1803 033d CE000000 		.4byte	0xce
 1804 0341 02       		.byte	0x2
 1805 0342 05       		.byte	0x5
 1806 0343 0B       		.byte	0xb
 1807 0344 00       		.byte	0
 1808 0345 0D       		.uleb128 0xd
 1809 0346 3B100000 		.4byte	.LASF52
 1810 034a 02       		.byte	0x2
 1811 034b D4       		.byte	0xd4
 1812 034c CE000000 		.4byte	0xce
 1813 0350 02       		.byte	0x2
 1814 0351 06       		.byte	0x6
 1815 0352 05       		.byte	0x5
 1816 0353 00       		.byte	0
 1817 0354 0C       		.uleb128 0xc
 1818 0355 72656400 		.ascii	"red\000"
 1819 0359 02       		.byte	0x2
 1820 035a D5       		.byte	0xd5
 1821 035b CE000000 		.4byte	0xce
 1822 035f 02       		.byte	0x2
 1823 0360 05       		.byte	0x5
 1824 0361 00       		.byte	0
 1825 0362 00       		.byte	0
 1826 0363 00       		.byte	0
 1827 0364 13       		.uleb128 0x13
 1828 0365 02       		.byte	0x2
 1829 0366 02       		.byte	0x2
 1830 0367 D0       		.byte	0xd0
 1831 0368 82030000 		.4byte	0x382
 1832 036c 14       		.uleb128 0x14
ARM GAS  C:\Users\haske\AppData\Local\Temp\ccoc8x2c.s 			page 49


 1833 036d 636800   		.ascii	"ch\000"
 1834 0370 02       		.byte	0x2
 1835 0371 DC       		.byte	0xdc
 1836 0372 2E030000 		.4byte	0x32e
 1837 0376 15       		.uleb128 0x15
 1838 0377 7F100000 		.4byte	.LASF53
 1839 037b 02       		.byte	0x2
 1840 037c DD       		.byte	0xdd
 1841 037d CE000000 		.4byte	0xce
 1842 0381 00       		.byte	0
 1843 0382 02       		.uleb128 0x2
 1844 0383 33080000 		.4byte	.LASF54
 1845 0387 02       		.byte	0x2
 1846 0388 DE       		.byte	0xde
 1847 0389 64030000 		.4byte	0x364
 1848 038d 09       		.uleb128 0x9
 1849 038e 04       		.byte	0x4
 1850 038f 02       		.byte	0x2
 1851 0390 E1       		.byte	0xe1
 1852 0391 C6030000 		.4byte	0x3c6
 1853 0395 0B       		.uleb128 0xb
 1854 0396 EF1A0000 		.4byte	.LASF51
 1855 039a 02       		.byte	0x2
 1856 039b E2       		.byte	0xe2
 1857 039c B8000000 		.4byte	0xb8
 1858 03a0 00       		.byte	0
 1859 03a1 0B       		.uleb128 0xb
 1860 03a2 3B100000 		.4byte	.LASF52
 1861 03a6 02       		.byte	0x2
 1862 03a7 E3       		.byte	0xe3
 1863 03a8 B8000000 		.4byte	0xb8
 1864 03ac 01       		.byte	0x1
 1865 03ad 0A       		.uleb128 0xa
 1866 03ae 72656400 		.ascii	"red\000"
 1867 03b2 02       		.byte	0x2
 1868 03b3 E4       		.byte	0xe4
 1869 03b4 B8000000 		.4byte	0xb8
 1870 03b8 02       		.byte	0x2
 1871 03b9 0B       		.uleb128 0xb
 1872 03ba A31A0000 		.4byte	.LASF55
 1873 03be 02       		.byte	0x2
 1874 03bf E5       		.byte	0xe5
 1875 03c0 B8000000 		.4byte	0xb8
 1876 03c4 03       		.byte	0x3
 1877 03c5 00       		.byte	0
 1878 03c6 13       		.uleb128 0x13
 1879 03c7 04       		.byte	0x4
 1880 03c8 02       		.byte	0x2
 1881 03c9 E0       		.byte	0xe0
 1882 03ca E4030000 		.4byte	0x3e4
 1883 03ce 14       		.uleb128 0x14
 1884 03cf 636800   		.ascii	"ch\000"
 1885 03d2 02       		.byte	0x2
 1886 03d3 E6       		.byte	0xe6
 1887 03d4 8D030000 		.4byte	0x38d
 1888 03d8 15       		.uleb128 0x15
 1889 03d9 7F100000 		.4byte	.LASF53
ARM GAS  C:\Users\haske\AppData\Local\Temp\ccoc8x2c.s 			page 50


 1890 03dd 02       		.byte	0x2
 1891 03de E7       		.byte	0xe7
 1892 03df E4000000 		.4byte	0xe4
 1893 03e3 00       		.byte	0
 1894 03e4 02       		.uleb128 0x2
 1895 03e5 F9190000 		.4byte	.LASF56
 1896 03e9 02       		.byte	0x2
 1897 03ea E8       		.byte	0xe8
 1898 03eb C6030000 		.4byte	0x3c6
 1899 03ef 02       		.uleb128 0x2
 1900 03f0 FB070000 		.4byte	.LASF57
 1901 03f4 02       		.byte	0x2
 1902 03f5 EB       		.byte	0xeb
 1903 03f6 82030000 		.4byte	0x382
 1904 03fa 02       		.uleb128 0x2
 1905 03fb 1D130000 		.4byte	.LASF58
 1906 03ff 02       		.byte	0x2
 1907 0400 F5       		.byte	0xf5
 1908 0401 B8000000 		.4byte	0xb8
 1909 0405 02       		.uleb128 0x2
 1910 0406 24080000 		.4byte	.LASF59
 1911 040a 09       		.byte	0x9
 1912 040b 30       		.byte	0x30
 1913 040c B8000000 		.4byte	0xb8
 1914 0410 02       		.uleb128 0x2
 1915 0411 7F000000 		.4byte	.LASF60
 1916 0415 09       		.byte	0x9
 1917 0416 42       		.byte	0x42
 1918 0417 B8000000 		.4byte	0xb8
 1919 041b 02       		.uleb128 0x2
 1920 041c 19160000 		.4byte	.LASF61
 1921 0420 0A       		.byte	0xa
 1922 0421 2A       		.byte	0x2a
 1923 0422 B8000000 		.4byte	0xb8
 1924 0426 02       		.uleb128 0x2
 1925 0427 A91A0000 		.4byte	.LASF62
 1926 042b 0B       		.byte	0xb
 1927 042c 5E       		.byte	0x5e
 1928 042d B8000000 		.4byte	0xb8
 1929 0431 02       		.uleb128 0x2
 1930 0432 66070000 		.4byte	.LASF63
 1931 0436 0B       		.byte	0xb
 1932 0437 6A       		.byte	0x6a
 1933 0438 B8000000 		.4byte	0xb8
 1934 043c 02       		.uleb128 0x2
 1935 043d 21070000 		.4byte	.LASF64
 1936 0441 0B       		.byte	0xb
 1937 0442 79       		.byte	0x79
 1938 0443 B8000000 		.4byte	0xb8
 1939 0447 02       		.uleb128 0x2
 1940 0448 CD050000 		.4byte	.LASF65
 1941 044c 0B       		.byte	0xb
 1942 044d 84       		.byte	0x84
 1943 044e B8000000 		.4byte	0xb8
 1944 0452 02       		.uleb128 0x2
 1945 0453 36160000 		.4byte	.LASF66
 1946 0457 0B       		.byte	0xb
ARM GAS  C:\Users\haske\AppData\Local\Temp\ccoc8x2c.s 			page 51


 1947 0458 90       		.byte	0x90
 1948 0459 B8000000 		.4byte	0xb8
 1949 045d 09       		.uleb128 0x9
 1950 045e 04       		.byte	0x4
 1951 045f 0B       		.byte	0xb
 1952 0460 95       		.byte	0x95
 1953 0461 7E040000 		.4byte	0x47e
 1954 0465 0B       		.uleb128 0xb
 1955 0466 AC140000 		.4byte	.LASF67
 1956 046a 0B       		.byte	0xb
 1957 046b 96       		.byte	0x96
 1958 046c EF030000 		.4byte	0x3ef
 1959 0470 00       		.byte	0
 1960 0471 0B       		.uleb128 0xb
 1961 0472 99020000 		.4byte	.LASF68
 1962 0476 0B       		.byte	0xb
 1963 0477 97       		.byte	0x97
 1964 0478 B8000000 		.4byte	0xb8
 1965 047c 02       		.byte	0x2
 1966 047d 00       		.byte	0
 1967 047e 02       		.uleb128 0x2
 1968 047f B30F0000 		.4byte	.LASF69
 1969 0483 0B       		.byte	0xb
 1970 0484 98       		.byte	0x98
 1971 0485 5D040000 		.4byte	0x45d
 1972 0489 09       		.uleb128 0x9
 1973 048a 0A       		.byte	0xa
 1974 048b 0B       		.byte	0xb
 1975 048c 9B       		.byte	0x9b
 1976 048d C8040000 		.4byte	0x4c8
 1977 0491 0B       		.uleb128 0xb
 1978 0492 DD190000 		.4byte	.LASF70
 1979 0496 0B       		.byte	0xb
 1980 0497 9C       		.byte	0x9c
 1981 0498 C8040000 		.4byte	0x4c8
 1982 049c 00       		.byte	0
 1983 049d 0B       		.uleb128 0xb
 1984 049e 2F0C0000 		.4byte	.LASF71
 1985 04a2 0B       		.byte	0xb
 1986 04a3 9D       		.byte	0x9d
 1987 04a4 B8000000 		.4byte	0xb8
 1988 04a8 08       		.byte	0x8
 1989 04a9 0C       		.uleb128 0xc
 1990 04aa 64697200 		.ascii	"dir\000"
 1991 04ae 0B       		.byte	0xb
 1992 04af 9E       		.byte	0x9e
 1993 04b0 47040000 		.4byte	0x447
 1994 04b4 01       		.byte	0x1
 1995 04b5 03       		.byte	0x3
 1996 04b6 05       		.byte	0x5
 1997 04b7 09       		.byte	0x9
 1998 04b8 0D       		.uleb128 0xd
 1999 04b9 4D1A0000 		.4byte	.LASF72
 2000 04bd 0B       		.byte	0xb
 2001 04be A0       		.byte	0xa0
 2002 04bf 52040000 		.4byte	0x452
 2003 04c3 01       		.byte	0x1
ARM GAS  C:\Users\haske\AppData\Local\Temp\ccoc8x2c.s 			page 52


 2004 04c4 03       		.byte	0x3
 2005 04c5 02       		.byte	0x2
 2006 04c6 09       		.byte	0x9
 2007 04c7 00       		.byte	0
 2008 04c8 16       		.uleb128 0x16
 2009 04c9 7E040000 		.4byte	0x47e
 2010 04cd D8040000 		.4byte	0x4d8
 2011 04d1 17       		.uleb128 0x17
 2012 04d2 27010000 		.4byte	0x127
 2013 04d6 01       		.byte	0x1
 2014 04d7 00       		.byte	0
 2015 04d8 02       		.uleb128 0x2
 2016 04d9 84100000 		.4byte	.LASF73
 2017 04dd 0B       		.byte	0xb
 2018 04de A2       		.byte	0xa2
 2019 04df 89040000 		.4byte	0x489
 2020 04e3 13       		.uleb128 0x13
 2021 04e4 04       		.byte	0x4
 2022 04e5 0B       		.byte	0xb
 2023 04e6 A7       		.byte	0xa7
 2024 04e7 0D050000 		.4byte	0x50d
 2025 04eb 14       		.uleb128 0x14
 2026 04ec 6E756D00 		.ascii	"num\000"
 2027 04f0 0B       		.byte	0xb
 2028 04f1 A8       		.byte	0xa8
 2029 04f2 D9000000 		.4byte	0xd9
 2030 04f6 14       		.uleb128 0x14
 2031 04f7 70747200 		.ascii	"ptr\000"
 2032 04fb 0B       		.byte	0xb
 2033 04fc A9       		.byte	0xa9
 2034 04fd 1C030000 		.4byte	0x31c
 2035 0501 15       		.uleb128 0x15
 2036 0502 AC140000 		.4byte	.LASF67
 2037 0506 0B       		.byte	0xb
 2038 0507 AA       		.byte	0xaa
 2039 0508 EF030000 		.4byte	0x3ef
 2040 050c 00       		.byte	0
 2041 050d 02       		.uleb128 0x2
 2042 050e 1B1B0000 		.4byte	.LASF74
 2043 0512 0B       		.byte	0xb
 2044 0513 AB       		.byte	0xab
 2045 0514 E3040000 		.4byte	0x4e3
 2046 0518 05       		.uleb128 0x5
 2047 0519 02       		.byte	0x2
 2048 051a 66000000 		.4byte	0x66
 2049 051e 0B       		.byte	0xb
 2050 051f B2       		.byte	0xb2
 2051 0520 3D070000 		.4byte	0x73d
 2052 0524 06       		.uleb128 0x6
 2053 0525 9A1B0000 		.4byte	.LASF75
 2054 0529 00       		.byte	0
 2055 052a 06       		.uleb128 0x6
 2056 052b 7F140000 		.4byte	.LASF76
 2057 052f 01       		.byte	0x1
 2058 0530 06       		.uleb128 0x6
 2059 0531 60040000 		.4byte	.LASF77
 2060 0535 02       		.byte	0x2
ARM GAS  C:\Users\haske\AppData\Local\Temp\ccoc8x2c.s 			page 53


 2061 0536 06       		.uleb128 0x6
 2062 0537 F9020000 		.4byte	.LASF78
 2063 053b 03       		.byte	0x3
 2064 053c 06       		.uleb128 0x6
 2065 053d 2B050000 		.4byte	.LASF79
 2066 0541 04       		.byte	0x4
 2067 0542 06       		.uleb128 0x6
 2068 0543 3B1D0000 		.4byte	.LASF80
 2069 0547 05       		.byte	0x5
 2070 0548 06       		.uleb128 0x6
 2071 0549 6E120000 		.4byte	.LASF81
 2072 054d 06       		.byte	0x6
 2073 054e 06       		.uleb128 0x6
 2074 054f D5040000 		.4byte	.LASF82
 2075 0553 07       		.byte	0x7
 2076 0554 06       		.uleb128 0x6
 2077 0555 E0040000 		.4byte	.LASF83
 2078 0559 08       		.byte	0x8
 2079 055a 06       		.uleb128 0x6
 2080 055b DB0E0000 		.4byte	.LASF84
 2081 055f 09       		.byte	0x9
 2082 0560 06       		.uleb128 0x6
 2083 0561 56000000 		.4byte	.LASF85
 2084 0565 0A       		.byte	0xa
 2085 0566 06       		.uleb128 0x6
 2086 0567 04170000 		.4byte	.LASF86
 2087 056b 0B       		.byte	0xb
 2088 056c 06       		.uleb128 0x6
 2089 056d 86150000 		.4byte	.LASF87
 2090 0571 10       		.byte	0x10
 2091 0572 06       		.uleb128 0x6
 2092 0573 B2190000 		.4byte	.LASF88
 2093 0577 11       		.byte	0x11
 2094 0578 06       		.uleb128 0x6
 2095 0579 55160000 		.4byte	.LASF89
 2096 057d 12       		.byte	0x12
 2097 057e 06       		.uleb128 0x6
 2098 057f 2F0E0000 		.4byte	.LASF90
 2099 0583 13       		.byte	0x13
 2100 0584 06       		.uleb128 0x6
 2101 0585 040F0000 		.4byte	.LASF91
 2102 0589 14       		.byte	0x14
 2103 058a 06       		.uleb128 0x6
 2104 058b 6B010000 		.4byte	.LASF92
 2105 058f 15       		.byte	0x15
 2106 0590 06       		.uleb128 0x6
 2107 0591 1D0E0000 		.4byte	.LASF93
 2108 0595 16       		.byte	0x16
 2109 0596 06       		.uleb128 0x6
 2110 0597 A7180000 		.4byte	.LASF94
 2111 059b 17       		.byte	0x17
 2112 059c 06       		.uleb128 0x6
 2113 059d 6A1A0000 		.4byte	.LASF95
 2114 05a1 20       		.byte	0x20
 2115 05a2 06       		.uleb128 0x6
 2116 05a3 1E0F0000 		.4byte	.LASF96
 2117 05a7 21       		.byte	0x21
ARM GAS  C:\Users\haske\AppData\Local\Temp\ccoc8x2c.s 			page 54


 2118 05a8 06       		.uleb128 0x6
 2119 05a9 F6040000 		.4byte	.LASF97
 2120 05ad 22       		.byte	0x22
 2121 05ae 06       		.uleb128 0x6
 2122 05af 52050000 		.4byte	.LASF98
 2123 05b3 23       		.byte	0x23
 2124 05b4 06       		.uleb128 0x6
 2125 05b5 42010000 		.4byte	.LASF99
 2126 05b9 24       		.byte	0x24
 2127 05ba 06       		.uleb128 0x6
 2128 05bb 6C0B0000 		.4byte	.LASF100
 2129 05bf 25       		.byte	0x25
 2130 05c0 06       		.uleb128 0x6
 2131 05c1 8E0F0000 		.4byte	.LASF101
 2132 05c5 26       		.byte	0x26
 2133 05c6 06       		.uleb128 0x6
 2134 05c7 1E0A0000 		.4byte	.LASF102
 2135 05cb 27       		.byte	0x27
 2136 05cc 06       		.uleb128 0x6
 2137 05cd EE0D0000 		.4byte	.LASF103
 2138 05d1 28       		.byte	0x28
 2139 05d2 06       		.uleb128 0x6
 2140 05d3 E4010000 		.4byte	.LASF104
 2141 05d7 29       		.byte	0x29
 2142 05d8 06       		.uleb128 0x6
 2143 05d9 4E070000 		.4byte	.LASF105
 2144 05dd 2A       		.byte	0x2a
 2145 05de 06       		.uleb128 0x6
 2146 05df 871A0000 		.4byte	.LASF106
 2147 05e3 2B       		.byte	0x2b
 2148 05e4 06       		.uleb128 0x6
 2149 05e5 C80D0000 		.4byte	.LASF107
 2150 05e9 2C       		.byte	0x2c
 2151 05ea 06       		.uleb128 0x6
 2152 05eb 541A0000 		.4byte	.LASF108
 2153 05ef 30       		.byte	0x30
 2154 05f0 06       		.uleb128 0x6
 2155 05f1 9F0F0000 		.4byte	.LASF109
 2156 05f5 31       		.byte	0x31
 2157 05f6 06       		.uleb128 0x6
 2158 05f7 25100000 		.4byte	.LASF110
 2159 05fb 32       		.byte	0x32
 2160 05fc 06       		.uleb128 0x6
 2161 05fd 60090000 		.4byte	.LASF111
 2162 0601 33       		.byte	0x33
 2163 0602 06       		.uleb128 0x6
 2164 0603 EA140000 		.4byte	.LASF112
 2165 0607 34       		.byte	0x34
 2166 0608 06       		.uleb128 0x6
 2167 0609 850C0000 		.4byte	.LASF113
 2168 060d 35       		.byte	0x35
 2169 060e 06       		.uleb128 0x6
 2170 060f 7E170000 		.4byte	.LASF114
 2171 0613 36       		.byte	0x36
 2172 0614 06       		.uleb128 0x6
 2173 0615 C81C0000 		.4byte	.LASF115
 2174 0619 37       		.byte	0x37
ARM GAS  C:\Users\haske\AppData\Local\Temp\ccoc8x2c.s 			page 55


 2175 061a 06       		.uleb128 0x6
 2176 061b 0A190000 		.4byte	.LASF116
 2177 061f 38       		.byte	0x38
 2178 0620 06       		.uleb128 0x6
 2179 0621 4F1D0000 		.4byte	.LASF117
 2180 0625 40       		.byte	0x40
 2181 0626 06       		.uleb128 0x6
 2182 0627 CE130000 		.4byte	.LASF118
 2183 062b 41       		.byte	0x41
 2184 062c 06       		.uleb128 0x6
 2185 062d E4130000 		.4byte	.LASF119
 2186 0631 42       		.byte	0x42
 2187 0632 06       		.uleb128 0x6
 2188 0633 95140000 		.4byte	.LASF120
 2189 0637 43       		.byte	0x43
 2190 0638 06       		.uleb128 0x6
 2191 0639 D2080000 		.4byte	.LASF121
 2192 063d 44       		.byte	0x44
 2193 063e 06       		.uleb128 0x6
 2194 063f 8A120000 		.4byte	.LASF122
 2195 0643 45       		.byte	0x45
 2196 0644 06       		.uleb128 0x6
 2197 0645 29190000 		.4byte	.LASF123
 2198 0649 46       		.byte	0x46
 2199 064a 06       		.uleb128 0x6
 2200 064b FE060000 		.4byte	.LASF124
 2201 064f 47       		.byte	0x47
 2202 0650 06       		.uleb128 0x6
 2203 0651 85190000 		.4byte	.LASF125
 2204 0655 48       		.byte	0x48
 2205 0656 06       		.uleb128 0x6
 2206 0657 D6020000 		.4byte	.LASF126
 2207 065b 49       		.byte	0x49
 2208 065c 06       		.uleb128 0x6
 2209 065d 050A0000 		.4byte	.LASF127
 2210 0661 4A       		.byte	0x4a
 2211 0662 06       		.uleb128 0x6
 2212 0663 67160000 		.4byte	.LASF128
 2213 0667 4B       		.byte	0x4b
 2214 0668 06       		.uleb128 0x6
 2215 0669 20030000 		.4byte	.LASF129
 2216 066d 4C       		.byte	0x4c
 2217 066e 06       		.uleb128 0x6
 2218 066f A20B0000 		.4byte	.LASF130
 2219 0673 4D       		.byte	0x4d
 2220 0674 06       		.uleb128 0x6
 2221 0675 24140000 		.4byte	.LASF131
 2222 0679 4E       		.byte	0x4e
 2223 067a 06       		.uleb128 0x6
 2224 067b A81C0000 		.4byte	.LASF132
 2225 067f 50       		.byte	0x50
 2226 0680 06       		.uleb128 0x6
 2227 0681 B9130000 		.4byte	.LASF133
 2228 0685 51       		.byte	0x51
 2229 0686 06       		.uleb128 0x6
 2230 0687 60080000 		.4byte	.LASF134
 2231 068b 52       		.byte	0x52
ARM GAS  C:\Users\haske\AppData\Local\Temp\ccoc8x2c.s 			page 56


 2232 068c 06       		.uleb128 0x6
 2233 068d E0060000 		.4byte	.LASF135
 2234 0691 53       		.byte	0x53
 2235 0692 06       		.uleb128 0x6
 2236 0693 EB180000 		.4byte	.LASF136
 2237 0697 54       		.byte	0x54
 2238 0698 06       		.uleb128 0x6
 2239 0699 D6140000 		.4byte	.LASF137
 2240 069d 55       		.byte	0x55
 2241 069e 06       		.uleb128 0x6
 2242 069f B9080000 		.4byte	.LASF138
 2243 06a3 56       		.byte	0x56
 2244 06a4 06       		.uleb128 0x6
 2245 06a5 5F020000 		.4byte	.LASF139
 2246 06a9 57       		.byte	0x57
 2247 06aa 06       		.uleb128 0x6
 2248 06ab F40A0000 		.4byte	.LASF140
 2249 06af 58       		.byte	0x58
 2250 06b0 06       		.uleb128 0x6
 2251 06b1 6F1B0000 		.4byte	.LASF141
 2252 06b5 59       		.byte	0x59
 2253 06b6 06       		.uleb128 0x6
 2254 06b7 75090000 		.4byte	.LASF142
 2255 06bb 5A       		.byte	0x5a
 2256 06bc 06       		.uleb128 0x6
 2257 06bd 4E060000 		.4byte	.LASF143
 2258 06c1 5B       		.byte	0x5b
 2259 06c2 06       		.uleb128 0x6
 2260 06c3 9B030000 		.4byte	.LASF144
 2261 06c7 60       		.byte	0x60
 2262 06c8 06       		.uleb128 0x6
 2263 06c9 071C0000 		.4byte	.LASF145
 2264 06cd 61       		.byte	0x61
 2265 06ce 06       		.uleb128 0x6
 2266 06cf 8E1C0000 		.4byte	.LASF146
 2267 06d3 62       		.byte	0x62
 2268 06d4 06       		.uleb128 0x6
 2269 06d5 89160000 		.4byte	.LASF147
 2270 06d9 63       		.byte	0x63
 2271 06da 06       		.uleb128 0x6
 2272 06db 590B0000 		.4byte	.LASF148
 2273 06df 64       		.byte	0x64
 2274 06e0 06       		.uleb128 0x6
 2275 06e1 F9030000 		.4byte	.LASF149
 2276 06e5 65       		.byte	0x65
 2277 06e6 06       		.uleb128 0x6
 2278 06e7 090E0000 		.4byte	.LASF150
 2279 06eb 66       		.byte	0x66
 2280 06ec 06       		.uleb128 0x6
 2281 06ed 73040000 		.4byte	.LASF151
 2282 06f1 67       		.byte	0x67
 2283 06f2 06       		.uleb128 0x6
 2284 06f3 BD020000 		.4byte	.LASF152
 2285 06f7 68       		.byte	0x68
 2286 06f8 06       		.uleb128 0x6
 2287 06f9 93010000 		.4byte	.LASF153
 2288 06fd 69       		.byte	0x69
ARM GAS  C:\Users\haske\AppData\Local\Temp\ccoc8x2c.s 			page 57


 2289 06fe 06       		.uleb128 0x6
 2290 06ff B50A0000 		.4byte	.LASF154
 2291 0703 6A       		.byte	0x6a
 2292 0704 06       		.uleb128 0x6
 2293 0705 CA0A0000 		.4byte	.LASF155
 2294 0709 6B       		.byte	0x6b
 2295 070a 06       		.uleb128 0x6
 2296 070b 6E150000 		.4byte	.LASF156
 2297 070f 6C       		.byte	0x6c
 2298 0710 06       		.uleb128 0x6
 2299 0711 26170000 		.4byte	.LASF157
 2300 0715 6D       		.byte	0x6d
 2301 0716 06       		.uleb128 0x6
 2302 0717 C8150000 		.4byte	.LASF158
 2303 071b 6E       		.byte	0x6e
 2304 071c 06       		.uleb128 0x6
 2305 071d E3150000 		.4byte	.LASF159
 2306 0721 6F       		.byte	0x6f
 2307 0722 06       		.uleb128 0x6
 2308 0723 76070000 		.4byte	.LASF160
 2309 0727 6F       		.byte	0x6f
 2310 0728 06       		.uleb128 0x6
 2311 0729 3C0B0000 		.4byte	.LASF161
 2312 072d 70       		.byte	0x70
 2313 072e 18       		.uleb128 0x18
 2314 072f 0D050000 		.4byte	.LASF162
 2315 0733 FFFF     		.2byte	0xffff
 2316 0735 18       		.uleb128 0x18
 2317 0736 79030000 		.4byte	.LASF163
 2318 073a FFFF     		.2byte	0xffff
 2319 073c 00       		.byte	0
 2320 073d 19       		.uleb128 0x19
 2321 073e 01120000 		.4byte	.LASF164
 2322 0742 0B       		.byte	0xb
 2323 0743 1C01     		.2byte	0x11c
 2324 0745 18050000 		.4byte	0x518
 2325 0749 1A       		.uleb128 0x1a
 2326 074a 08       		.byte	0x8
 2327 074b 0B       		.byte	0xb
 2328 074c 3601     		.2byte	0x136
 2329 074e 6D070000 		.4byte	0x76d
 2330 0752 1B       		.uleb128 0x1b
 2331 0753 15040000 		.4byte	.LASF165
 2332 0757 0B       		.byte	0xb
 2333 0758 3701     		.2byte	0x137
 2334 075a 3D070000 		.4byte	0x73d
 2335 075e 00       		.byte	0
 2336 075f 1B       		.uleb128 0x1b
 2337 0760 B60B0000 		.4byte	.LASF166
 2338 0764 0B       		.byte	0xb
 2339 0765 3801     		.2byte	0x138
 2340 0767 0D050000 		.4byte	0x50d
 2341 076b 04       		.byte	0x4
 2342 076c 00       		.byte	0
 2343 076d 19       		.uleb128 0x19
 2344 076e 940E0000 		.4byte	.LASF167
 2345 0772 0B       		.byte	0xb
ARM GAS  C:\Users\haske\AppData\Local\Temp\ccoc8x2c.s 			page 58


 2346 0773 3901     		.2byte	0x139
 2347 0775 49070000 		.4byte	0x749
 2348 0779 1C       		.uleb128 0x1c
 2349 077a 04       		.byte	0x4
 2350 077b 0B       		.byte	0xb
 2351 077c 4601     		.2byte	0x146
 2352 077e A7070000 		.4byte	0x7a7
 2353 0782 1D       		.uleb128 0x1d
 2354 0783 72030000 		.4byte	.LASF168
 2355 0787 0B       		.byte	0xb
 2356 0788 4701     		.2byte	0x147
 2357 078a 0D050000 		.4byte	0x50d
 2358 078e 1D       		.uleb128 0x1d
 2359 078f 6E100000 		.4byte	.LASF169
 2360 0793 0B       		.byte	0xb
 2361 0794 4801     		.2byte	0x148
 2362 0796 A7070000 		.4byte	0x7a7
 2363 079a 1D       		.uleb128 0x1d
 2364 079b 1D1D0000 		.4byte	.LASF170
 2365 079f 0B       		.byte	0xb
 2366 07a0 4901     		.2byte	0x149
 2367 07a2 AD070000 		.4byte	0x7ad
 2368 07a6 00       		.byte	0
 2369 07a7 08       		.uleb128 0x8
 2370 07a8 04       		.byte	0x4
 2371 07a9 B8000000 		.4byte	0xb8
 2372 07ad 08       		.uleb128 0x8
 2373 07ae 04       		.byte	0x4
 2374 07af B3070000 		.4byte	0x7b3
 2375 07b3 0F       		.uleb128 0xf
 2376 07b4 6D070000 		.4byte	0x76d
 2377 07b8 1A       		.uleb128 0x1a
 2378 07b9 08       		.byte	0x8
 2379 07ba 0B       		.byte	0xb
 2380 07bb 3E01     		.2byte	0x13e
 2381 07bd F6070000 		.4byte	0x7f6
 2382 07c1 1E       		.uleb128 0x1e
 2383 07c2 765F7000 		.ascii	"v_p\000"
 2384 07c6 0B       		.byte	0xb
 2385 07c7 4A01     		.2byte	0x14a
 2386 07c9 79070000 		.4byte	0x779
 2387 07cd 00       		.byte	0
 2388 07ce 1B       		.uleb128 0x1b
 2389 07cf 490E0000 		.4byte	.LASF171
 2390 07d3 0B       		.byte	0xb
 2391 07d4 4C01     		.2byte	0x14c
 2392 07d6 CE000000 		.4byte	0xce
 2393 07da 04       		.byte	0x4
 2394 07db 1B       		.uleb128 0x1b
 2395 07dc 98000000 		.4byte	.LASF172
 2396 07e0 0B       		.byte	0xb
 2397 07e1 4D01     		.2byte	0x14d
 2398 07e3 B8000000 		.4byte	0xb8
 2399 07e7 06       		.byte	0x6
 2400 07e8 1B       		.uleb128 0x1b
 2401 07e9 8F0A0000 		.4byte	.LASF173
 2402 07ed 0B       		.byte	0xb
ARM GAS  C:\Users\haske\AppData\Local\Temp\ccoc8x2c.s 			page 59


 2403 07ee 4E01     		.2byte	0x14e
 2404 07f0 B8000000 		.4byte	0xb8
 2405 07f4 07       		.byte	0x7
 2406 07f5 00       		.byte	0
 2407 07f6 19       		.uleb128 0x19
 2408 07f7 B2140000 		.4byte	.LASF174
 2409 07fb 0B       		.byte	0xb
 2410 07fc 4F01     		.2byte	0x14f
 2411 07fe B8070000 		.4byte	0x7b8
 2412 0802 02       		.uleb128 0x2
 2413 0803 E31B0000 		.4byte	.LASF175
 2414 0807 0C       		.byte	0xc
 2415 0808 69       		.byte	0x69
 2416 0809 B8000000 		.4byte	0xb8
 2417 080d 08       		.uleb128 0x8
 2418 080e 04       		.byte	0x4
 2419 080f 13080000 		.4byte	0x813
 2420 0813 0E       		.uleb128 0xe
 2421 0814 6A0F0000 		.4byte	.LASF177
 2422 0818 24       		.byte	0x24
 2423 0819 0D       		.byte	0xd
 2424 081a AE       		.byte	0xae
 2425 081b DA080000 		.4byte	0x8da
 2426 081f 0B       		.uleb128 0xb
 2427 0820 CD120000 		.4byte	.LASF178
 2428 0824 0D       		.byte	0xd
 2429 0825 AF       		.byte	0xaf
 2430 0826 3C170000 		.4byte	0x173c
 2431 082a 00       		.byte	0
 2432 082b 0B       		.uleb128 0xb
 2433 082c 51190000 		.4byte	.LASF179
 2434 0830 0D       		.byte	0xd
 2435 0831 B0       		.byte	0xb0
 2436 0832 0D080000 		.4byte	0x80d
 2437 0836 04       		.byte	0x4
 2438 0837 0B       		.uleb128 0xb
 2439 0838 651D0000 		.4byte	.LASF180
 2440 083c 0D       		.byte	0xd
 2441 083d B1       		.byte	0xb1
 2442 083e 47170000 		.4byte	0x1747
 2443 0842 08       		.byte	0x8
 2444 0843 0B       		.uleb128 0xb
 2445 0844 9E020000 		.4byte	.LASF181
 2446 0848 0D       		.byte	0xd
 2447 0849 B2       		.byte	0xb2
 2448 084a 4D170000 		.4byte	0x174d
 2449 084e 0C       		.byte	0xc
 2450 084f 0B       		.uleb128 0xb
 2451 0850 13130000 		.4byte	.LASF47
 2452 0854 0D       		.byte	0xd
 2453 0855 B4       		.byte	0xb4
 2454 0856 13010000 		.4byte	0x113
 2455 085a 10       		.byte	0x10
 2456 085b 0B       		.uleb128 0xb
 2457 085c CB080000 		.4byte	.LASF182
 2458 0860 0D       		.byte	0xd
 2459 0861 B6       		.byte	0xb6
ARM GAS  C:\Users\haske\AppData\Local\Temp\ccoc8x2c.s 			page 60


 2460 0862 A3010000 		.4byte	0x1a3
 2461 0866 14       		.byte	0x14
 2462 0867 0B       		.uleb128 0xb
 2463 0868 861D0000 		.4byte	.LASF183
 2464 086c 0D       		.byte	0xd
 2465 086d B7       		.byte	0xb7
 2466 086e 0B120000 		.4byte	0x120b
 2467 0872 1C       		.byte	0x1c
 2468 0873 0B       		.uleb128 0xb
 2469 0874 EB100000 		.4byte	.LASF184
 2470 0878 0D       		.byte	0xd
 2471 0879 B8       		.byte	0xb8
 2472 087a 9C110000 		.4byte	0x119c
 2473 087e 20       		.byte	0x20
 2474 087f 0D       		.uleb128 0xd
 2475 0880 C4010000 		.4byte	.LASF185
 2476 0884 0D       		.byte	0xd
 2477 0885 B9       		.byte	0xb9
 2478 0886 CE000000 		.4byte	0xce
 2479 088a 02       		.byte	0x2
 2480 088b 01       		.byte	0x1
 2481 088c 0F       		.byte	0xf
 2482 088d 22       		.byte	0x22
 2483 088e 0D       		.uleb128 0xd
 2484 088f 1C090000 		.4byte	.LASF186
 2485 0893 0D       		.byte	0xd
 2486 0894 BA       		.byte	0xba
 2487 0895 CE000000 		.4byte	0xce
 2488 0899 02       		.byte	0x2
 2489 089a 01       		.byte	0x1
 2490 089b 0E       		.byte	0xe
 2491 089c 22       		.byte	0x22
 2492 089d 0D       		.uleb128 0xd
 2493 089e F71C0000 		.4byte	.LASF187
 2494 08a2 0D       		.byte	0xd
 2495 08a3 BB       		.byte	0xbb
 2496 08a4 CE000000 		.4byte	0xce
 2497 08a8 02       		.byte	0x2
 2498 08a9 01       		.byte	0x1
 2499 08aa 0D       		.byte	0xd
 2500 08ab 22       		.byte	0x22
 2501 08ac 0D       		.uleb128 0xd
 2502 08ad 9C100000 		.4byte	.LASF188
 2503 08b1 0D       		.byte	0xd
 2504 08b2 BC       		.byte	0xbc
 2505 08b3 CE000000 		.4byte	0xce
 2506 08b7 02       		.byte	0x2
 2507 08b8 06       		.byte	0x6
 2508 08b9 07       		.byte	0x7
 2509 08ba 22       		.byte	0x22
 2510 08bb 0D       		.uleb128 0xd
 2511 08bc 1E000000 		.4byte	.LASF189
 2512 08c0 0D       		.byte	0xd
 2513 08c1 BD       		.byte	0xbd
 2514 08c2 CE000000 		.4byte	0xce
 2515 08c6 02       		.byte	0x2
 2516 08c7 01       		.byte	0x1
ARM GAS  C:\Users\haske\AppData\Local\Temp\ccoc8x2c.s 			page 61


 2517 08c8 06       		.byte	0x6
 2518 08c9 22       		.byte	0x22
 2519 08ca 0D       		.uleb128 0xd
 2520 08cb 75170000 		.4byte	.LASF190
 2521 08cf 0D       		.byte	0xd
 2522 08d0 BE       		.byte	0xbe
 2523 08d1 CE000000 		.4byte	0xce
 2524 08d5 02       		.byte	0x2
 2525 08d6 01       		.byte	0x1
 2526 08d7 05       		.byte	0x5
 2527 08d8 22       		.byte	0x22
 2528 08d9 00       		.byte	0
 2529 08da 08       		.uleb128 0x8
 2530 08db 04       		.byte	0x4
 2531 08dc EF030000 		.4byte	0x3ef
 2532 08e0 09       		.uleb128 0x9
 2533 08e1 38       		.byte	0x38
 2534 08e2 0E       		.byte	0xe
 2535 08e3 20       		.byte	0x20
 2536 08e4 270A0000 		.4byte	0xa27
 2537 08e8 0B       		.uleb128 0xb
 2538 08e9 991D0000 		.4byte	.LASF191
 2539 08ed 0E       		.byte	0xe
 2540 08ee 21       		.byte	0x21
 2541 08ef 3B010000 		.4byte	0x13b
 2542 08f3 00       		.byte	0
 2543 08f4 0B       		.uleb128 0xb
 2544 08f5 E90A0000 		.4byte	.LASF192
 2545 08f9 0E       		.byte	0xe
 2546 08fa 22       		.byte	0x22
 2547 08fb 26040000 		.4byte	0x426
 2548 08ff 02       		.byte	0x2
 2549 0900 0B       		.uleb128 0xb
 2550 0901 00000000 		.4byte	.LASF193
 2551 0905 0E       		.byte	0xe
 2552 0906 25       		.byte	0x25
 2553 0907 FA030000 		.4byte	0x3fa
 2554 090b 03       		.byte	0x3
 2555 090c 0B       		.uleb128 0xb
 2556 090d 7D1D0000 		.4byte	.LASF194
 2557 0911 0E       		.byte	0xe
 2558 0912 26       		.byte	0x26
 2559 0913 EF030000 		.4byte	0x3ef
 2560 0917 04       		.byte	0x4
 2561 0918 0B       		.uleb128 0xb
 2562 0919 0D040000 		.4byte	.LASF195
 2563 091d 0E       		.byte	0xe
 2564 091e 27       		.byte	0x27
 2565 091f D8040000 		.4byte	0x4d8
 2566 0923 06       		.byte	0x6
 2567 0924 0B       		.uleb128 0xb
 2568 0925 A0080000 		.4byte	.LASF196
 2569 0929 0E       		.byte	0xe
 2570 092a 2A       		.byte	0x2a
 2571 092b 1C030000 		.4byte	0x31c
 2572 092f 10       		.byte	0x10
 2573 0930 0B       		.uleb128 0xb
ARM GAS  C:\Users\haske\AppData\Local\Temp\ccoc8x2c.s 			page 62


 2574 0931 0D110000 		.4byte	.LASF197
 2575 0935 0E       		.byte	0xe
 2576 0936 2B       		.byte	0x2b
 2577 0937 1C030000 		.4byte	0x31c
 2578 093b 14       		.byte	0x14
 2579 093c 0B       		.uleb128 0xb
 2580 093d 90040000 		.4byte	.LASF198
 2581 0941 0E       		.byte	0xe
 2582 0942 2C       		.byte	0x2c
 2583 0943 EF030000 		.4byte	0x3ef
 2584 0947 18       		.byte	0x18
 2585 0948 0B       		.uleb128 0xb
 2586 0949 7C1A0000 		.4byte	.LASF199
 2587 094d 0E       		.byte	0xe
 2588 094e 2D       		.byte	0x2d
 2589 094f FA030000 		.4byte	0x3fa
 2590 0953 1A       		.byte	0x1a
 2591 0954 0B       		.uleb128 0xb
 2592 0955 FF0C0000 		.4byte	.LASF200
 2593 0959 0E       		.byte	0xe
 2594 095a 2E       		.byte	0x2e
 2595 095b FA030000 		.4byte	0x3fa
 2596 095f 1B       		.byte	0x1b
 2597 0960 0B       		.uleb128 0xb
 2598 0961 B80E0000 		.4byte	.LASF201
 2599 0965 0E       		.byte	0xe
 2600 0966 2F       		.byte	0x2f
 2601 0967 B8000000 		.4byte	0xb8
 2602 096b 1C       		.byte	0x1c
 2603 096c 0B       		.uleb128 0xb
 2604 096d 6C180000 		.4byte	.LASF202
 2605 0971 0E       		.byte	0xe
 2606 0972 32       		.byte	0x32
 2607 0973 EF030000 		.4byte	0x3ef
 2608 0977 1E       		.byte	0x1e
 2609 0978 0B       		.uleb128 0xb
 2610 0979 120D0000 		.4byte	.LASF203
 2611 097d 0E       		.byte	0xe
 2612 097e 33       		.byte	0x33
 2613 097f 3B010000 		.4byte	0x13b
 2614 0983 20       		.byte	0x20
 2615 0984 0B       		.uleb128 0xb
 2616 0985 980A0000 		.4byte	.LASF204
 2617 0989 0E       		.byte	0xe
 2618 098a 34       		.byte	0x34
 2619 098b FA030000 		.4byte	0x3fa
 2620 098f 22       		.byte	0x22
 2621 0990 0D       		.uleb128 0xd
 2622 0991 DF180000 		.4byte	.LASF205
 2623 0995 0E       		.byte	0xe
 2624 0996 35       		.byte	0x35
 2625 0997 B8000000 		.4byte	0xb8
 2626 099b 01       		.byte	0x1
 2627 099c 01       		.byte	0x1
 2628 099d 07       		.byte	0x7
 2629 099e 23       		.byte	0x23
 2630 099f 0D       		.uleb128 0xd
ARM GAS  C:\Users\haske\AppData\Local\Temp\ccoc8x2c.s 			page 63


 2631 09a0 BC0B0000 		.4byte	.LASF206
 2632 09a4 0E       		.byte	0xe
 2633 09a5 36       		.byte	0x36
 2634 09a6 3C040000 		.4byte	0x43c
 2635 09aa 01       		.byte	0x1
 2636 09ab 05       		.byte	0x5
 2637 09ac 02       		.byte	0x2
 2638 09ad 23       		.byte	0x23
 2639 09ae 0B       		.uleb128 0xb
 2640 09af 05130000 		.4byte	.LASF207
 2641 09b3 0E       		.byte	0xe
 2642 09b4 39       		.byte	0x39
 2643 09b5 EF030000 		.4byte	0x3ef
 2644 09b9 24       		.byte	0x24
 2645 09ba 0B       		.uleb128 0xb
 2646 09bb F3080000 		.4byte	.LASF208
 2647 09bf 0E       		.byte	0xe
 2648 09c0 3A       		.byte	0x3a
 2649 09c1 3B010000 		.4byte	0x13b
 2650 09c5 26       		.byte	0x26
 2651 09c6 0B       		.uleb128 0xb
 2652 09c7 EA0E0000 		.4byte	.LASF209
 2653 09cb 0E       		.byte	0xe
 2654 09cc 3B       		.byte	0x3b
 2655 09cd 3B010000 		.4byte	0x13b
 2656 09d1 28       		.byte	0x28
 2657 09d2 0B       		.uleb128 0xb
 2658 09d3 FA130000 		.4byte	.LASF210
 2659 09d7 0E       		.byte	0xe
 2660 09d8 3C       		.byte	0x3c
 2661 09d9 FA030000 		.4byte	0x3fa
 2662 09dd 2A       		.byte	0x2a
 2663 09de 0B       		.uleb128 0xb
 2664 09df AA170000 		.4byte	.LASF211
 2665 09e3 0E       		.byte	0xe
 2666 09e4 3F       		.byte	0x3f
 2667 09e5 EF030000 		.4byte	0x3ef
 2668 09e9 2C       		.byte	0x2c
 2669 09ea 0B       		.uleb128 0xb
 2670 09eb D70C0000 		.4byte	.LASF212
 2671 09ef 0E       		.byte	0xe
 2672 09f0 40       		.byte	0x40
 2673 09f1 3B010000 		.4byte	0x13b
 2674 09f5 2E       		.byte	0x2e
 2675 09f6 0B       		.uleb128 0xb
 2676 09f7 3B120000 		.4byte	.LASF213
 2677 09fb 0E       		.byte	0xe
 2678 09fc 41       		.byte	0x41
 2679 09fd 3B010000 		.4byte	0x13b
 2680 0a01 30       		.byte	0x30
 2681 0a02 0B       		.uleb128 0xb
 2682 0a03 48120000 		.4byte	.LASF214
 2683 0a07 0E       		.byte	0xe
 2684 0a08 42       		.byte	0x42
 2685 0a09 3B010000 		.4byte	0x13b
 2686 0a0d 32       		.byte	0x32
 2687 0a0e 0B       		.uleb128 0xb
ARM GAS  C:\Users\haske\AppData\Local\Temp\ccoc8x2c.s 			page 64


 2688 0a0f A5090000 		.4byte	.LASF215
 2689 0a13 0E       		.byte	0xe
 2690 0a14 43       		.byte	0x43
 2691 0a15 3B010000 		.4byte	0x13b
 2692 0a19 34       		.byte	0x34
 2693 0a1a 0B       		.uleb128 0xb
 2694 0a1b 3D0D0000 		.4byte	.LASF216
 2695 0a1f 0E       		.byte	0xe
 2696 0a20 44       		.byte	0x44
 2697 0a21 FA030000 		.4byte	0x3fa
 2698 0a25 36       		.byte	0x36
 2699 0a26 00       		.byte	0
 2700 0a27 02       		.uleb128 0x2
 2701 0a28 DF070000 		.4byte	.LASF217
 2702 0a2c 0E       		.byte	0xe
 2703 0a2d 45       		.byte	0x45
 2704 0a2e E0080000 		.4byte	0x8e0
 2705 0a32 09       		.uleb128 0x9
 2706 0a33 20       		.byte	0x20
 2707 0a34 0F       		.byte	0xf
 2708 0a35 1E       		.byte	0x1e
 2709 0a36 010B0000 		.4byte	0xb01
 2710 0a3a 0B       		.uleb128 0xb
 2711 0a3b 6F000000 		.4byte	.LASF218
 2712 0a3f 0F       		.byte	0xf
 2713 0a40 1F       		.byte	0x1f
 2714 0a41 010B0000 		.4byte	0xb01
 2715 0a45 00       		.byte	0
 2716 0a46 0B       		.uleb128 0xb
 2717 0a47 62060000 		.4byte	.LASF219
 2718 0a4b 0F       		.byte	0xf
 2719 0a4c 20       		.byte	0x20
 2720 0a4d E4000000 		.4byte	0xe4
 2721 0a51 04       		.byte	0x4
 2722 0a52 0B       		.uleb128 0xb
 2723 0a53 A30A0000 		.4byte	.LASF220
 2724 0a57 0F       		.byte	0xf
 2725 0a58 21       		.byte	0x21
 2726 0a59 E4000000 		.4byte	0xe4
 2727 0a5d 08       		.byte	0x8
 2728 0a5e 0B       		.uleb128 0xb
 2729 0a5f AC140000 		.4byte	.LASF67
 2730 0a63 0F       		.byte	0xf
 2731 0a64 22       		.byte	0x22
 2732 0a65 EF030000 		.4byte	0x3ef
 2733 0a69 0C       		.byte	0xc
 2734 0a6a 0B       		.uleb128 0xb
 2735 0a6b 92100000 		.4byte	.LASF221
 2736 0a6f 0F       		.byte	0xf
 2737 0a70 23       		.byte	0x23
 2738 0a71 EF030000 		.4byte	0x3ef
 2739 0a75 0E       		.byte	0xe
 2740 0a76 0B       		.uleb128 0xb
 2741 0a77 291D0000 		.4byte	.LASF222
 2742 0a7b 0F       		.byte	0xf
 2743 0a7c 24       		.byte	0x24
 2744 0a7d EF030000 		.4byte	0x3ef
ARM GAS  C:\Users\haske\AppData\Local\Temp\ccoc8x2c.s 			page 65


 2745 0a81 10       		.byte	0x10
 2746 0a82 0B       		.uleb128 0xb
 2747 0a83 74000000 		.4byte	.LASF223
 2748 0a87 0F       		.byte	0xf
 2749 0a88 25       		.byte	0x25
 2750 0a89 3B010000 		.4byte	0x13b
 2751 0a8d 12       		.byte	0x12
 2752 0a8e 0B       		.uleb128 0xb
 2753 0a8f A6100000 		.4byte	.LASF224
 2754 0a93 0F       		.byte	0xf
 2755 0a94 26       		.byte	0x26
 2756 0a95 3B010000 		.4byte	0x13b
 2757 0a99 14       		.byte	0x14
 2758 0a9a 0B       		.uleb128 0xb
 2759 0a9b 2E0F0000 		.4byte	.LASF36
 2760 0a9f 0F       		.byte	0xf
 2761 0aa0 27       		.byte	0x27
 2762 0aa1 3B010000 		.4byte	0x13b
 2763 0aa5 16       		.byte	0x16
 2764 0aa6 0B       		.uleb128 0xb
 2765 0aa7 340F0000 		.4byte	.LASF37
 2766 0aab 0F       		.byte	0xf
 2767 0aac 28       		.byte	0x28
 2768 0aad 3B010000 		.4byte	0x13b
 2769 0ab1 18       		.byte	0x18
 2770 0ab2 0A       		.uleb128 0xa
 2771 0ab3 6F706100 		.ascii	"opa\000"
 2772 0ab7 0F       		.byte	0xf
 2773 0ab8 29       		.byte	0x29
 2774 0ab9 FA030000 		.4byte	0x3fa
 2775 0abd 1A       		.byte	0x1a
 2776 0abe 0B       		.uleb128 0xb
 2777 0abf 97150000 		.4byte	.LASF225
 2778 0ac3 0F       		.byte	0xf
 2779 0ac4 2A       		.byte	0x2a
 2780 0ac5 1B040000 		.4byte	0x41b
 2781 0ac9 1B       		.byte	0x1b
 2782 0aca 0B       		.uleb128 0xb
 2783 0acb F7050000 		.4byte	.LASF226
 2784 0acf 0F       		.byte	0xf
 2785 0ad0 2B       		.byte	0x2b
 2786 0ad1 10040000 		.4byte	0x410
 2787 0ad5 1C       		.byte	0x1c
 2788 0ad6 0B       		.uleb128 0xb
 2789 0ad7 6E0E0000 		.4byte	.LASF227
 2790 0adb 0F       		.byte	0xf
 2791 0adc 2C       		.byte	0x2c
 2792 0add 05040000 		.4byte	0x405
 2793 0ae1 1D       		.byte	0x1d
 2794 0ae2 0D       		.uleb128 0xd
 2795 0ae3 16090000 		.4byte	.LASF228
 2796 0ae7 0F       		.byte	0xf
 2797 0ae8 2D       		.byte	0x2d
 2798 0ae9 31040000 		.4byte	0x431
 2799 0aed 01       		.byte	0x1
 2800 0aee 03       		.byte	0x3
 2801 0aef 05       		.byte	0x5
ARM GAS  C:\Users\haske\AppData\Local\Temp\ccoc8x2c.s 			page 66


 2802 0af0 1E       		.byte	0x1e
 2803 0af1 0D       		.uleb128 0xd
 2804 0af2 E90A0000 		.4byte	.LASF192
 2805 0af6 0F       		.byte	0xf
 2806 0af7 2E       		.byte	0x2e
 2807 0af8 26040000 		.4byte	0x426
 2808 0afc 01       		.byte	0x1
 2809 0afd 03       		.byte	0x3
 2810 0afe 02       		.byte	0x2
 2811 0aff 1E       		.byte	0x1e
 2812 0b00 00       		.byte	0
 2813 0b01 08       		.uleb128 0x8
 2814 0b02 04       		.byte	0x4
 2815 0b03 070B0000 		.4byte	0xb07
 2816 0b07 0F       		.uleb128 0xf
 2817 0b08 23030000 		.4byte	0x323
 2818 0b0c 02       		.uleb128 0x2
 2819 0b0d 4F0E0000 		.4byte	.LASF229
 2820 0b11 0F       		.byte	0xf
 2821 0b12 2F       		.byte	0x2f
 2822 0b13 320A0000 		.4byte	0xa32
 2823 0b17 09       		.uleb128 0x9
 2824 0b18 18       		.byte	0x18
 2825 0b19 10       		.byte	0x10
 2826 0b1a 20       		.byte	0x20
 2827 0b1b 920B0000 		.4byte	0xb92
 2828 0b1f 0B       		.uleb128 0xb
 2829 0b20 65010000 		.4byte	.LASF230
 2830 0b24 10       		.byte	0x10
 2831 0b25 22       		.byte	0x22
 2832 0b26 C3000000 		.4byte	0xc3
 2833 0b2a 00       		.byte	0
 2834 0b2b 0B       		.uleb128 0xb
 2835 0b2c FF0F0000 		.4byte	.LASF231
 2836 0b30 10       		.byte	0x10
 2837 0b31 23       		.byte	0x23
 2838 0b32 CE000000 		.4byte	0xce
 2839 0b36 02       		.byte	0x2
 2840 0b37 0B       		.uleb128 0xb
 2841 0b38 7F190000 		.4byte	.LASF232
 2842 0b3c 10       		.byte	0x10
 2843 0b3d 24       		.byte	0x24
 2844 0b3e 63010000 		.4byte	0x163
 2845 0b42 04       		.byte	0x4
 2846 0b43 0B       		.uleb128 0xb
 2847 0b44 5A170000 		.4byte	.LASF233
 2848 0b48 10       		.byte	0x10
 2849 0b49 26       		.byte	0x26
 2850 0b4a EF030000 		.4byte	0x3ef
 2851 0b4e 08       		.byte	0x8
 2852 0b4f 0B       		.uleb128 0xb
 2853 0b50 35110000 		.4byte	.LASF234
 2854 0b54 10       		.byte	0x10
 2855 0b55 27       		.byte	0x27
 2856 0b56 FA030000 		.4byte	0x3fa
 2857 0b5a 0A       		.byte	0xa
 2858 0b5b 0A       		.uleb128 0xa
ARM GAS  C:\Users\haske\AppData\Local\Temp\ccoc8x2c.s 			page 67


 2859 0b5c 6F706100 		.ascii	"opa\000"
 2860 0b60 10       		.byte	0x10
 2861 0b61 29       		.byte	0x29
 2862 0b62 FA030000 		.4byte	0x3fa
 2863 0b66 0B       		.byte	0xb
 2864 0b67 0D       		.uleb128 0xd
 2865 0b68 E90A0000 		.4byte	.LASF192
 2866 0b6c 10       		.byte	0x10
 2867 0b6d 2A       		.byte	0x2a
 2868 0b6e 26040000 		.4byte	0x426
 2869 0b72 01       		.byte	0x1
 2870 0b73 04       		.byte	0x4
 2871 0b74 04       		.byte	0x4
 2872 0b75 0C       		.byte	0xc
 2873 0b76 0B       		.uleb128 0xb
 2874 0b77 77060000 		.4byte	.LASF235
 2875 0b7b 10       		.byte	0x10
 2876 0b7c 2C       		.byte	0x2c
 2877 0b7d D9000000 		.4byte	0xd9
 2878 0b81 10       		.byte	0x10
 2879 0b82 0D       		.uleb128 0xd
 2880 0b83 1A1A0000 		.4byte	.LASF236
 2881 0b87 10       		.byte	0x10
 2882 0b88 2D       		.byte	0x2d
 2883 0b89 B8000000 		.4byte	0xb8
 2884 0b8d 01       		.byte	0x1
 2885 0b8e 01       		.byte	0x1
 2886 0b8f 07       		.byte	0x7
 2887 0b90 14       		.byte	0x14
 2888 0b91 00       		.byte	0
 2889 0b92 02       		.uleb128 0x2
 2890 0b93 C7180000 		.4byte	.LASF237
 2891 0b97 10       		.byte	0x10
 2892 0b98 2E       		.byte	0x2e
 2893 0b99 170B0000 		.4byte	0xb17
 2894 0b9d 09       		.uleb128 0x9
 2895 0b9e 0A       		.byte	0xa
 2896 0b9f 11       		.byte	0x11
 2897 0ba0 1C       		.byte	0x1c
 2898 0ba1 1E0C0000 		.4byte	0xc1e
 2899 0ba5 0B       		.uleb128 0xb
 2900 0ba6 AC140000 		.4byte	.LASF67
 2901 0baa 11       		.byte	0x11
 2902 0bab 1D       		.byte	0x1d
 2903 0bac EF030000 		.4byte	0x3ef
 2904 0bb0 00       		.byte	0
 2905 0bb1 0B       		.uleb128 0xb
 2906 0bb2 D9180000 		.4byte	.LASF238
 2907 0bb6 11       		.byte	0x11
 2908 0bb7 1E       		.byte	0x1e
 2909 0bb8 3B010000 		.4byte	0x13b
 2910 0bbc 02       		.byte	0x2
 2911 0bbd 0B       		.uleb128 0xb
 2912 0bbe 10010000 		.4byte	.LASF239
 2913 0bc2 11       		.byte	0x11
 2914 0bc3 1F       		.byte	0x1f
 2915 0bc4 3B010000 		.4byte	0x13b
ARM GAS  C:\Users\haske\AppData\Local\Temp\ccoc8x2c.s 			page 68


 2916 0bc8 04       		.byte	0x4
 2917 0bc9 0B       		.uleb128 0xb
 2918 0bca B0130000 		.4byte	.LASF240
 2919 0bce 11       		.byte	0x11
 2920 0bcf 20       		.byte	0x20
 2921 0bd0 3B010000 		.4byte	0x13b
 2922 0bd4 06       		.byte	0x6
 2923 0bd5 0A       		.uleb128 0xa
 2924 0bd6 6F706100 		.ascii	"opa\000"
 2925 0bda 11       		.byte	0x11
 2926 0bdb 21       		.byte	0x21
 2927 0bdc FA030000 		.4byte	0x3fa
 2928 0be0 08       		.byte	0x8
 2929 0be1 0D       		.uleb128 0xd
 2930 0be2 E90A0000 		.4byte	.LASF192
 2931 0be6 11       		.byte	0x11
 2932 0be7 22       		.byte	0x22
 2933 0be8 26040000 		.4byte	0x426
 2934 0bec 01       		.byte	0x1
 2935 0bed 02       		.byte	0x2
 2936 0bee 06       		.byte	0x6
 2937 0bef 09       		.byte	0x9
 2938 0bf0 0D       		.uleb128 0xd
 2939 0bf1 A01D0000 		.4byte	.LASF241
 2940 0bf5 11       		.byte	0x11
 2941 0bf6 23       		.byte	0x23
 2942 0bf7 B8000000 		.4byte	0xb8
 2943 0bfb 01       		.byte	0x1
 2944 0bfc 01       		.byte	0x1
 2945 0bfd 05       		.byte	0x5
 2946 0bfe 09       		.byte	0x9
 2947 0bff 0D       		.uleb128 0xd
 2948 0c00 440C0000 		.4byte	.LASF242
 2949 0c04 11       		.byte	0x11
 2950 0c05 24       		.byte	0x24
 2951 0c06 B8000000 		.4byte	0xb8
 2952 0c0a 01       		.byte	0x1
 2953 0c0b 01       		.byte	0x1
 2954 0c0c 04       		.byte	0x4
 2955 0c0d 09       		.byte	0x9
 2956 0c0e 0D       		.uleb128 0xd
 2957 0c0f 82120000 		.4byte	.LASF243
 2958 0c13 11       		.byte	0x11
 2959 0c14 25       		.byte	0x25
 2960 0c15 B8000000 		.4byte	0xb8
 2961 0c19 01       		.byte	0x1
 2962 0c1a 01       		.byte	0x1
 2963 0c1b 03       		.byte	0x3
 2964 0c1c 09       		.byte	0x9
 2965 0c1d 00       		.byte	0
 2966 0c1e 02       		.uleb128 0x2
 2967 0c1f 6C140000 		.4byte	.LASF244
 2968 0c23 11       		.byte	0x11
 2969 0c24 26       		.byte	0x26
 2970 0c25 9D0B0000 		.4byte	0xb9d
 2971 0c29 09       		.uleb128 0x9
 2972 0c2a 10       		.byte	0x10
ARM GAS  C:\Users\haske\AppData\Local\Temp\ccoc8x2c.s 			page 69


 2973 0c2b 12       		.byte	0x12
 2974 0c2c 1C       		.byte	0x1c
 2975 0c2d 980C0000 		.4byte	0xc98
 2976 0c31 0B       		.uleb128 0xb
 2977 0c32 AC140000 		.4byte	.LASF67
 2978 0c36 12       		.byte	0x12
 2979 0c37 1D       		.byte	0x1d
 2980 0c38 EF030000 		.4byte	0x3ef
 2981 0c3c 00       		.byte	0
 2982 0c3d 0B       		.uleb128 0xb
 2983 0c3e D9180000 		.4byte	.LASF238
 2984 0c42 12       		.byte	0x12
 2985 0c43 1E       		.byte	0x1e
 2986 0c44 3B010000 		.4byte	0x13b
 2987 0c48 02       		.byte	0x2
 2988 0c49 0B       		.uleb128 0xb
 2989 0c4a 1F050000 		.4byte	.LASF245
 2990 0c4e 12       		.byte	0x12
 2991 0c4f 1F       		.byte	0x1f
 2992 0c50 CE000000 		.4byte	0xce
 2993 0c54 04       		.byte	0x4
 2994 0c55 0B       		.uleb128 0xb
 2995 0c56 00190000 		.4byte	.LASF246
 2996 0c5a 12       		.byte	0x12
 2997 0c5b 20       		.byte	0x20
 2998 0c5c CE000000 		.4byte	0xce
 2999 0c60 06       		.byte	0x6
 3000 0c61 0B       		.uleb128 0xb
 3001 0c62 061A0000 		.4byte	.LASF247
 3002 0c66 12       		.byte	0x12
 3003 0c67 21       		.byte	0x21
 3004 0c68 1C030000 		.4byte	0x31c
 3005 0c6c 08       		.byte	0x8
 3006 0c6d 0A       		.uleb128 0xa
 3007 0c6e 6F706100 		.ascii	"opa\000"
 3008 0c72 12       		.byte	0x12
 3009 0c73 22       		.byte	0x22
 3010 0c74 FA030000 		.4byte	0x3fa
 3011 0c78 0C       		.byte	0xc
 3012 0c79 0D       		.uleb128 0xd
 3013 0c7a E90A0000 		.4byte	.LASF192
 3014 0c7e 12       		.byte	0x12
 3015 0c7f 23       		.byte	0x23
 3016 0c80 26040000 		.4byte	0x426
 3017 0c84 01       		.byte	0x1
 3018 0c85 02       		.byte	0x2
 3019 0c86 06       		.byte	0x6
 3020 0c87 0D       		.byte	0xd
 3021 0c88 0D       		.uleb128 0xd
 3022 0c89 9F040000 		.4byte	.LASF248
 3023 0c8d 12       		.byte	0x12
 3024 0c8e 24       		.byte	0x24
 3025 0c8f B8000000 		.4byte	0xb8
 3026 0c93 01       		.byte	0x1
 3027 0c94 01       		.byte	0x1
 3028 0c95 05       		.byte	0x5
 3029 0c96 0D       		.byte	0xd
ARM GAS  C:\Users\haske\AppData\Local\Temp\ccoc8x2c.s 			page 70


 3030 0c97 00       		.byte	0
 3031 0c98 02       		.uleb128 0x2
 3032 0c99 B60D0000 		.4byte	.LASF249
 3033 0c9d 12       		.byte	0x12
 3034 0c9e 25       		.byte	0x25
 3035 0c9f 290C0000 		.4byte	0xc29
 3036 0ca3 08       		.uleb128 0x8
 3037 0ca4 04       		.byte	0x4
 3038 0ca5 FA030000 		.4byte	0x3fa
 3039 0ca9 05       		.uleb128 0x5
 3040 0caa 01       		.byte	0x1
 3041 0cab 42000000 		.4byte	0x42
 3042 0caf 13       		.byte	0x13
 3043 0cb0 1C       		.byte	0x1c
 3044 0cb1 C80C0000 		.4byte	0xcc8
 3045 0cb5 06       		.uleb128 0x6
 3046 0cb6 560D0000 		.4byte	.LASF250
 3047 0cba 00       		.byte	0
 3048 0cbb 06       		.uleb128 0x6
 3049 0cbc DC030000 		.4byte	.LASF251
 3050 0cc0 01       		.byte	0x1
 3051 0cc1 06       		.uleb128 0x6
 3052 0cc2 35000000 		.4byte	.LASF252
 3053 0cc6 02       		.byte	0x2
 3054 0cc7 00       		.byte	0
 3055 0cc8 02       		.uleb128 0x2
 3056 0cc9 E4120000 		.4byte	.LASF253
 3057 0ccd 13       		.byte	0x13
 3058 0cce 20       		.byte	0x20
 3059 0ccf A90C0000 		.4byte	0xca9
 3060 0cd3 09       		.uleb128 0x9
 3061 0cd4 10       		.byte	0x10
 3062 0cd5 14       		.byte	0x14
 3063 0cd6 33       		.byte	0x33
 3064 0cd7 0C0D0000 		.4byte	0xd0c
 3065 0cdb 0B       		.uleb128 0xb
 3066 0cdc 1F190000 		.4byte	.LASF254
 3067 0ce0 14       		.byte	0x14
 3068 0ce1 34       		.byte	0x34
 3069 0ce2 0C0D0000 		.4byte	0xd0c
 3070 0ce6 00       		.byte	0
 3071 0ce7 0B       		.uleb128 0xb
 3072 0ce8 96110000 		.4byte	.LASF255
 3073 0cec 14       		.byte	0x14
 3074 0ced 35       		.byte	0x35
 3075 0cee 170D0000 		.4byte	0xd17
 3076 0cf2 04       		.byte	0x4
 3077 0cf3 0A       		.uleb128 0xa
 3078 0cf4 62756600 		.ascii	"buf\000"
 3079 0cf8 14       		.byte	0x14
 3080 0cf9 36       		.byte	0x36
 3081 0cfa 13010000 		.4byte	0x113
 3082 0cfe 08       		.byte	0x8
 3083 0cff 0B       		.uleb128 0xb
 3084 0d00 A8030000 		.4byte	.LASF256
 3085 0d04 14       		.byte	0x14
 3086 0d05 37       		.byte	0x37
ARM GAS  C:\Users\haske\AppData\Local\Temp\ccoc8x2c.s 			page 71


 3087 0d06 E4020000 		.4byte	0x2e4
 3088 0d0a 0C       		.byte	0xc
 3089 0d0b 00       		.byte	0
 3090 0d0c 08       		.uleb128 0x8
 3091 0d0d 04       		.byte	0x4
 3092 0d0e 120D0000 		.4byte	0xd12
 3093 0d12 0F       		.uleb128 0xf
 3094 0d13 A3010000 		.4byte	0x1a3
 3095 0d17 08       		.uleb128 0x8
 3096 0d18 04       		.byte	0x4
 3097 0d19 A3010000 		.4byte	0x1a3
 3098 0d1d 0E       		.uleb128 0xe
 3099 0d1e 7A0A0000 		.4byte	.LASF257
 3100 0d22 28       		.byte	0x28
 3101 0d23 14       		.byte	0x14
 3102 0d24 2D       		.byte	0x2d
 3103 0d25 720D0000 		.4byte	0xd72
 3104 0d29 0B       		.uleb128 0xb
 3105 0d2a AB0A0000 		.4byte	.LASF258
 3106 0d2e 14       		.byte	0x14
 3107 0d2f 2E       		.byte	0x2e
 3108 0d30 A3010000 		.4byte	0x1a3
 3109 0d34 00       		.byte	0
 3110 0d35 0B       		.uleb128 0xb
 3111 0d36 881B0000 		.4byte	.LASF259
 3112 0d3a 14       		.byte	0x14
 3113 0d3b 2F       		.byte	0x2f
 3114 0d3c A3010000 		.4byte	0x1a3
 3115 0d40 08       		.byte	0x8
 3116 0d41 0B       		.uleb128 0xb
 3117 0d42 3A1A0000 		.4byte	.LASF260
 3118 0d46 14       		.byte	0x14
 3119 0d47 30       		.byte	0x30
 3120 0d48 3B010000 		.4byte	0x13b
 3121 0d4c 10       		.byte	0x10
 3122 0d4d 0B       		.uleb128 0xb
 3123 0d4e 0F0B0000 		.4byte	.LASF261
 3124 0d52 14       		.byte	0x14
 3125 0d53 31       		.byte	0x31
 3126 0d54 3B010000 		.4byte	0x13b
 3127 0d58 12       		.byte	0x12
 3128 0d59 0A       		.uleb128 0xa
 3129 0d5a 62756600 		.ascii	"buf\000"
 3130 0d5e 14       		.byte	0x14
 3131 0d5f 32       		.byte	0x32
 3132 0d60 13010000 		.4byte	0x113
 3133 0d64 14       		.byte	0x14
 3134 0d65 0B       		.uleb128 0xb
 3135 0d66 9C0C0000 		.4byte	.LASF262
 3136 0d6a 14       		.byte	0x14
 3137 0d6b 38       		.byte	0x38
 3138 0d6c D30C0000 		.4byte	0xcd3
 3139 0d70 18       		.byte	0x18
 3140 0d71 00       		.byte	0
 3141 0d72 02       		.uleb128 0x2
 3142 0d73 A20D0000 		.4byte	.LASF263
 3143 0d77 14       		.byte	0x14
ARM GAS  C:\Users\haske\AppData\Local\Temp\ccoc8x2c.s 			page 72


 3144 0d78 39       		.byte	0x39
 3145 0d79 1D0D0000 		.4byte	0xd1d
 3146 0d7d 0E       		.uleb128 0xe
 3147 0d7e EA020000 		.4byte	.LASF264
 3148 0d82 54       		.byte	0x54
 3149 0d83 14       		.byte	0x14
 3150 0d84 3B       		.byte	0x3b
 3151 0d85 860E0000 		.4byte	0xe86
 3152 0d89 0A       		.uleb128 0xa
 3153 0d8a 62756600 		.ascii	"buf\000"
 3154 0d8e 14       		.byte	0x14
 3155 0d8f 3F       		.byte	0x3f
 3156 0d90 13010000 		.4byte	0x113
 3157 0d94 00       		.byte	0
 3158 0d95 0B       		.uleb128 0xb
 3159 0d96 96110000 		.4byte	.LASF255
 3160 0d9a 14       		.byte	0x14
 3161 0d9b 44       		.byte	0x44
 3162 0d9c 170D0000 		.4byte	0xd17
 3163 0da0 04       		.byte	0x4
 3164 0da1 0B       		.uleb128 0xb
 3165 0da2 1F190000 		.4byte	.LASF254
 3166 0da6 14       		.byte	0x14
 3167 0da7 49       		.byte	0x49
 3168 0da8 0C0D0000 		.4byte	0xd0c
 3169 0dac 08       		.byte	0x8
 3170 0dad 0B       		.uleb128 0xb
 3171 0dae 820B0000 		.4byte	.LASF265
 3172 0db2 14       		.byte	0x14
 3173 0db3 4B       		.byte	0x4b
 3174 0db4 970E0000 		.4byte	0xe97
 3175 0db8 0C       		.byte	0xc
 3176 0db9 0B       		.uleb128 0xb
 3177 0dba D91B0000 		.4byte	.LASF266
 3178 0dbe 14       		.byte	0x14
 3179 0dbf 4D       		.byte	0x4d
 3180 0dc0 BD0E0000 		.4byte	0xebd
 3181 0dc4 10       		.byte	0x10
 3182 0dc5 0B       		.uleb128 0xb
 3183 0dc6 B2160000 		.4byte	.LASF267
 3184 0dca 14       		.byte	0x14
 3185 0dcb 4F       		.byte	0x4f
 3186 0dcc FD0E0000 		.4byte	0xefd
 3187 0dd0 14       		.byte	0x14
 3188 0dd1 0B       		.uleb128 0xb
 3189 0dd2 4C0A0000 		.4byte	.LASF268
 3190 0dd6 14       		.byte	0x14
 3191 0dd7 52       		.byte	0x52
 3192 0dd8 2D0F0000 		.4byte	0xf2d
 3193 0ddc 18       		.byte	0x18
 3194 0ddd 0B       		.uleb128 0xb
 3195 0dde 3B0C0000 		.4byte	.LASF269
 3196 0de2 14       		.byte	0x14
 3197 0de3 55       		.byte	0x55
 3198 0de4 510F0000 		.4byte	0xf51
 3199 0de8 1C       		.byte	0x1c
 3200 0de9 0B       		.uleb128 0xb
ARM GAS  C:\Users\haske\AppData\Local\Temp\ccoc8x2c.s 			page 73


 3201 0dea 4E0C0000 		.4byte	.LASF270
 3202 0dee 14       		.byte	0x14
 3203 0def 58       		.byte	0x58
 3204 0df0 7C0F0000 		.4byte	0xf7c
 3205 0df4 20       		.byte	0x20
 3206 0df5 0B       		.uleb128 0xb
 3207 0df6 31120000 		.4byte	.LASF271
 3208 0dfa 14       		.byte	0x14
 3209 0dfb 5C       		.byte	0x5c
 3210 0dfc A70F0000 		.4byte	0xfa7
 3211 0e00 24       		.byte	0x24
 3212 0e01 0B       		.uleb128 0xb
 3213 0e02 2F130000 		.4byte	.LASF272
 3214 0e06 14       		.byte	0x14
 3215 0e07 60       		.byte	0x60
 3216 0e08 C70F0000 		.4byte	0xfc7
 3217 0e0c 28       		.byte	0x28
 3218 0e0d 0B       		.uleb128 0xb
 3219 0e0e 89180000 		.4byte	.LASF273
 3220 0e12 14       		.byte	0x14
 3221 0e13 71       		.byte	0x71
 3222 0e14 05100000 		.4byte	0x1005
 3223 0e18 2C       		.byte	0x2c
 3224 0e19 0B       		.uleb128 0xb
 3225 0e1a 1C140000 		.4byte	.LASF274
 3226 0e1e 14       		.byte	0x14
 3227 0e1f 78       		.byte	0x78
 3228 0e20 BD0E0000 		.4byte	0xebd
 3229 0e24 30       		.byte	0x30
 3230 0e25 0B       		.uleb128 0xb
 3231 0e26 0B1B0000 		.4byte	.LASF275
 3232 0e2a 14       		.byte	0x14
 3233 0e2b 7D       		.byte	0x7d
 3234 0e2c 970E0000 		.4byte	0xe97
 3235 0e30 34       		.byte	0x34
 3236 0e31 0B       		.uleb128 0xb
 3237 0e32 66110000 		.4byte	.LASF276
 3238 0e36 14       		.byte	0x14
 3239 0e37 8D       		.byte	0x8d
 3240 0e38 34100000 		.4byte	0x1034
 3241 0e3c 38       		.byte	0x38
 3242 0e3d 0B       		.uleb128 0xb
 3243 0e3e 7E160000 		.4byte	.LASF277
 3244 0e42 14       		.byte	0x14
 3245 0e43 99       		.byte	0x99
 3246 0e44 59100000 		.4byte	0x1059
 3247 0e48 3C       		.byte	0x3c
 3248 0e49 0B       		.uleb128 0xb
 3249 0e4a 58010000 		.4byte	.LASF278
 3250 0e4e 14       		.byte	0x14
 3251 0e4f A3       		.byte	0xa3
 3252 0e50 74100000 		.4byte	0x1074
 3253 0e54 40       		.byte	0x40
 3254 0e55 0B       		.uleb128 0xb
 3255 0e56 01090000 		.4byte	.LASF279
 3256 0e5a 14       		.byte	0x14
 3257 0e5b AC       		.byte	0xac
ARM GAS  C:\Users\haske\AppData\Local\Temp\ccoc8x2c.s 			page 74


 3258 0e5c 8F100000 		.4byte	0x108f
 3259 0e60 44       		.byte	0x44
 3260 0e61 0B       		.uleb128 0xb
 3261 0e62 AB080000 		.4byte	.LASF280
 3262 0e66 14       		.byte	0x14
 3263 0e67 B5       		.byte	0xb5
 3264 0e68 AB100000 		.4byte	0x10ab
 3265 0e6c 48       		.byte	0x48
 3266 0e6d 0B       		.uleb128 0xb
 3267 0e6e 80060000 		.4byte	.LASF281
 3268 0e72 14       		.byte	0x14
 3269 0e73 BA       		.byte	0xba
 3270 0e74 15010000 		.4byte	0x115
 3271 0e78 4C       		.byte	0x4c
 3272 0e79 0B       		.uleb128 0xb
 3273 0e7a 13130000 		.4byte	.LASF47
 3274 0e7e 14       		.byte	0x14
 3275 0e7f BD       		.byte	0xbd
 3276 0e80 13010000 		.4byte	0x113
 3277 0e84 50       		.byte	0x50
 3278 0e85 00       		.byte	0
 3279 0e86 1F       		.uleb128 0x1f
 3280 0e87 910E0000 		.4byte	0xe91
 3281 0e8b 11       		.uleb128 0x11
 3282 0e8c 910E0000 		.4byte	0xe91
 3283 0e90 00       		.byte	0
 3284 0e91 08       		.uleb128 0x8
 3285 0e92 04       		.byte	0x4
 3286 0e93 7D0D0000 		.4byte	0xd7d
 3287 0e97 08       		.uleb128 0x8
 3288 0e98 04       		.byte	0x4
 3289 0e99 860E0000 		.4byte	0xe86
 3290 0e9d 1F       		.uleb128 0x1f
 3291 0e9e B20E0000 		.4byte	0xeb2
 3292 0ea2 11       		.uleb128 0x11
 3293 0ea3 910E0000 		.4byte	0xe91
 3294 0ea7 11       		.uleb128 0x11
 3295 0ea8 B20E0000 		.4byte	0xeb2
 3296 0eac 11       		.uleb128 0x11
 3297 0ead 0C0D0000 		.4byte	0xd0c
 3298 0eb1 00       		.byte	0
 3299 0eb2 08       		.uleb128 0x8
 3300 0eb3 04       		.byte	0x4
 3301 0eb4 B80E0000 		.4byte	0xeb8
 3302 0eb8 0F       		.uleb128 0xf
 3303 0eb9 270A0000 		.4byte	0xa27
 3304 0ebd 08       		.uleb128 0x8
 3305 0ebe 04       		.byte	0x4
 3306 0ebf 9D0E0000 		.4byte	0xe9d
 3307 0ec3 1F       		.uleb128 0x1f
 3308 0ec4 E70E0000 		.4byte	0xee7
 3309 0ec8 11       		.uleb128 0x11
 3310 0ec9 910E0000 		.4byte	0xe91
 3311 0ecd 11       		.uleb128 0x11
 3312 0ece E70E0000 		.4byte	0xee7
 3313 0ed2 11       		.uleb128 0x11
 3314 0ed3 F20E0000 		.4byte	0xef2
ARM GAS  C:\Users\haske\AppData\Local\Temp\ccoc8x2c.s 			page 75


 3315 0ed7 11       		.uleb128 0x11
 3316 0ed8 CE000000 		.4byte	0xce
 3317 0edc 11       		.uleb128 0x11
 3318 0edd CE000000 		.4byte	0xce
 3319 0ee1 11       		.uleb128 0x11
 3320 0ee2 CE000000 		.4byte	0xce
 3321 0ee6 00       		.byte	0
 3322 0ee7 08       		.uleb128 0x8
 3323 0ee8 04       		.byte	0x4
 3324 0ee9 ED0E0000 		.4byte	0xeed
 3325 0eed 0F       		.uleb128 0xf
 3326 0eee 980C0000 		.4byte	0xc98
 3327 0ef2 08       		.uleb128 0x8
 3328 0ef3 04       		.byte	0x4
 3329 0ef4 F80E0000 		.4byte	0xef8
 3330 0ef8 0F       		.uleb128 0xf
 3331 0ef9 63010000 		.4byte	0x163
 3332 0efd 08       		.uleb128 0x8
 3333 0efe 04       		.byte	0x4
 3334 0eff C30E0000 		.4byte	0xec3
 3335 0f03 1F       		.uleb128 0x1f
 3336 0f04 220F0000 		.4byte	0xf22
 3337 0f08 11       		.uleb128 0x11
 3338 0f09 910E0000 		.4byte	0xe91
 3339 0f0d 11       		.uleb128 0x11
 3340 0f0e 220F0000 		.4byte	0xf22
 3341 0f12 11       		.uleb128 0x11
 3342 0f13 0C0D0000 		.4byte	0xd0c
 3343 0f17 11       		.uleb128 0x11
 3344 0f18 0B030000 		.4byte	0x30b
 3345 0f1c 11       		.uleb128 0x11
 3346 0f1d 02080000 		.4byte	0x802
 3347 0f21 00       		.byte	0
 3348 0f22 08       		.uleb128 0x8
 3349 0f23 04       		.byte	0x4
 3350 0f24 280F0000 		.4byte	0xf28
 3351 0f28 0F       		.uleb128 0xf
 3352 0f29 920B0000 		.4byte	0xb92
 3353 0f2d 08       		.uleb128 0x8
 3354 0f2e 04       		.byte	0x4
 3355 0f2f 030F0000 		.4byte	0xf03
 3356 0f33 10       		.uleb128 0x10
 3357 0f34 08010000 		.4byte	0x108
 3358 0f38 510F0000 		.4byte	0xf51
 3359 0f3c 11       		.uleb128 0x11
 3360 0f3d 910E0000 		.4byte	0xe91
 3361 0f41 11       		.uleb128 0x11
 3362 0f42 220F0000 		.4byte	0xf22
 3363 0f46 11       		.uleb128 0x11
 3364 0f47 0C0D0000 		.4byte	0xd0c
 3365 0f4b 11       		.uleb128 0x11
 3366 0f4c 1C030000 		.4byte	0x31c
 3367 0f50 00       		.byte	0
 3368 0f51 08       		.uleb128 0x8
 3369 0f52 04       		.byte	0x4
 3370 0f53 330F0000 		.4byte	0xf33
 3371 0f57 1F       		.uleb128 0x1f
ARM GAS  C:\Users\haske\AppData\Local\Temp\ccoc8x2c.s 			page 76


 3372 0f58 710F0000 		.4byte	0xf71
 3373 0f5c 11       		.uleb128 0x11
 3374 0f5d 910E0000 		.4byte	0xe91
 3375 0f61 11       		.uleb128 0x11
 3376 0f62 710F0000 		.4byte	0xf71
 3377 0f66 11       		.uleb128 0x11
 3378 0f67 F20E0000 		.4byte	0xef2
 3379 0f6b 11       		.uleb128 0x11
 3380 0f6c E4000000 		.4byte	0xe4
 3381 0f70 00       		.byte	0
 3382 0f71 08       		.uleb128 0x8
 3383 0f72 04       		.byte	0x4
 3384 0f73 770F0000 		.4byte	0xf77
 3385 0f77 0F       		.uleb128 0xf
 3386 0f78 0C0B0000 		.4byte	0xb0c
 3387 0f7c 08       		.uleb128 0x8
 3388 0f7d 04       		.byte	0x4
 3389 0f7e 570F0000 		.4byte	0xf57
 3390 0f82 1F       		.uleb128 0x1f
 3391 0f83 9C0F0000 		.4byte	0xf9c
 3392 0f87 11       		.uleb128 0x11
 3393 0f88 910E0000 		.4byte	0xe91
 3394 0f8c 11       		.uleb128 0x11
 3395 0f8d 9C0F0000 		.4byte	0xf9c
 3396 0f91 11       		.uleb128 0x11
 3397 0f92 F20E0000 		.4byte	0xef2
 3398 0f96 11       		.uleb128 0x11
 3399 0f97 F20E0000 		.4byte	0xef2
 3400 0f9b 00       		.byte	0
 3401 0f9c 08       		.uleb128 0x8
 3402 0f9d 04       		.byte	0x4
 3403 0f9e A20F0000 		.4byte	0xfa2
 3404 0fa2 0F       		.uleb128 0xf
 3405 0fa3 1E0C0000 		.4byte	0xc1e
 3406 0fa7 08       		.uleb128 0x8
 3407 0fa8 04       		.byte	0x4
 3408 0fa9 820F0000 		.4byte	0xf82
 3409 0fad 1F       		.uleb128 0x1f
 3410 0fae C70F0000 		.4byte	0xfc7
 3411 0fb2 11       		.uleb128 0x11
 3412 0fb3 910E0000 		.4byte	0xe91
 3413 0fb7 11       		.uleb128 0x11
 3414 0fb8 B20E0000 		.4byte	0xeb2
 3415 0fbc 11       		.uleb128 0x11
 3416 0fbd F20E0000 		.4byte	0xef2
 3417 0fc1 11       		.uleb128 0x11
 3418 0fc2 CE000000 		.4byte	0xce
 3419 0fc6 00       		.byte	0
 3420 0fc7 08       		.uleb128 0x8
 3421 0fc8 04       		.byte	0x4
 3422 0fc9 AD0F0000 		.4byte	0xfad
 3423 0fcd 1F       		.uleb128 0x1f
 3424 0fce 05100000 		.4byte	0x1005
 3425 0fd2 11       		.uleb128 0x11
 3426 0fd3 910E0000 		.4byte	0xe91
 3427 0fd7 11       		.uleb128 0x11
 3428 0fd8 0C0D0000 		.4byte	0xd0c
ARM GAS  C:\Users\haske\AppData\Local\Temp\ccoc8x2c.s 			page 77


 3429 0fdc 11       		.uleb128 0x11
 3430 0fdd 1C030000 		.4byte	0x31c
 3431 0fe1 11       		.uleb128 0x11
 3432 0fe2 3B010000 		.4byte	0x13b
 3433 0fe6 11       		.uleb128 0x11
 3434 0fe7 3B010000 		.4byte	0x13b
 3435 0feb 11       		.uleb128 0x11
 3436 0fec 3B010000 		.4byte	0x13b
 3437 0ff0 11       		.uleb128 0x11
 3438 0ff1 220F0000 		.4byte	0xf22
 3439 0ff5 11       		.uleb128 0x11
 3440 0ff6 02080000 		.4byte	0x802
 3441 0ffa 11       		.uleb128 0x11
 3442 0ffb DA080000 		.4byte	0x8da
 3443 0fff 11       		.uleb128 0x11
 3444 1000 A30C0000 		.4byte	0xca3
 3445 1004 00       		.byte	0
 3446 1005 08       		.uleb128 0x8
 3447 1006 04       		.byte	0x4
 3448 1007 CD0F0000 		.4byte	0xfcd
 3449 100b 1F       		.uleb128 0x1f
 3450 100c 34100000 		.4byte	0x1034
 3451 1010 11       		.uleb128 0x11
 3452 1011 910E0000 		.4byte	0xe91
 3453 1015 11       		.uleb128 0x11
 3454 1016 13010000 		.4byte	0x113
 3455 101a 11       		.uleb128 0x11
 3456 101b 3B010000 		.4byte	0x13b
 3457 101f 11       		.uleb128 0x11
 3458 1020 0C0D0000 		.4byte	0xd0c
 3459 1024 11       		.uleb128 0x11
 3460 1025 13010000 		.4byte	0x113
 3461 1029 11       		.uleb128 0x11
 3462 102a 3B010000 		.4byte	0x13b
 3463 102e 11       		.uleb128 0x11
 3464 102f 0C0D0000 		.4byte	0xd0c
 3465 1033 00       		.byte	0
 3466 1034 08       		.uleb128 0x8
 3467 1035 04       		.byte	0x4
 3468 1036 0B100000 		.4byte	0x100b
 3469 103a 10       		.uleb128 0x10
 3470 103b 53100000 		.4byte	0x1053
 3471 103f 53100000 		.4byte	0x1053
 3472 1043 11       		.uleb128 0x11
 3473 1044 910E0000 		.4byte	0xe91
 3474 1048 11       		.uleb128 0x11
 3475 1049 53100000 		.4byte	0x1053
 3476 104d 11       		.uleb128 0x11
 3477 104e C80C0000 		.4byte	0xcc8
 3478 1052 00       		.byte	0
 3479 1053 08       		.uleb128 0x8
 3480 1054 04       		.byte	0x4
 3481 1055 1D0D0000 		.4byte	0xd1d
 3482 1059 08       		.uleb128 0x8
 3483 105a 04       		.byte	0x4
 3484 105b 3A100000 		.4byte	0x103a
 3485 105f 1F       		.uleb128 0x1f
ARM GAS  C:\Users\haske\AppData\Local\Temp\ccoc8x2c.s 			page 78


 3486 1060 74100000 		.4byte	0x1074
 3487 1064 11       		.uleb128 0x11
 3488 1065 910E0000 		.4byte	0xe91
 3489 1069 11       		.uleb128 0x11
 3490 106a 53100000 		.4byte	0x1053
 3491 106e 11       		.uleb128 0x11
 3492 106f C80C0000 		.4byte	0xcc8
 3493 1073 00       		.byte	0
 3494 1074 08       		.uleb128 0x8
 3495 1075 04       		.byte	0x4
 3496 1076 5F100000 		.4byte	0x105f
 3497 107a 1F       		.uleb128 0x1f
 3498 107b 8F100000 		.4byte	0x108f
 3499 107f 11       		.uleb128 0x11
 3500 1080 910E0000 		.4byte	0xe91
 3501 1084 11       		.uleb128 0x11
 3502 1085 53100000 		.4byte	0x1053
 3503 1089 11       		.uleb128 0x11
 3504 108a 220F0000 		.4byte	0xf22
 3505 108e 00       		.byte	0
 3506 108f 08       		.uleb128 0x8
 3507 1090 04       		.byte	0x4
 3508 1091 7A100000 		.4byte	0x107a
 3509 1095 1F       		.uleb128 0x1f
 3510 1096 A5100000 		.4byte	0x10a5
 3511 109a 11       		.uleb128 0x11
 3512 109b 910E0000 		.4byte	0xe91
 3513 109f 11       		.uleb128 0x11
 3514 10a0 A5100000 		.4byte	0x10a5
 3515 10a4 00       		.byte	0
 3516 10a5 08       		.uleb128 0x8
 3517 10a6 04       		.byte	0x4
 3518 10a7 720D0000 		.4byte	0xd72
 3519 10ab 08       		.uleb128 0x8
 3520 10ac 04       		.byte	0x4
 3521 10ad 95100000 		.4byte	0x1095
 3522 10b1 02       		.uleb128 0x2
 3523 10b2 51150000 		.4byte	.LASF282
 3524 10b6 14       		.byte	0x14
 3525 10b7 C0       		.byte	0xc0
 3526 10b8 7D0D0000 		.4byte	0xd7d
 3527 10bc 02       		.uleb128 0x2
 3528 10bd CB070000 		.4byte	.LASF283
 3529 10c1 15       		.byte	0x15
 3530 10c2 1D       		.byte	0x1d
 3531 10c3 B8000000 		.4byte	0xb8
 3532 10c7 09       		.uleb128 0x9
 3533 10c8 0C       		.byte	0xc
 3534 10c9 15       		.byte	0x15
 3535 10ca 20       		.byte	0x20
 3536 10cb F4100000 		.4byte	0x10f4
 3537 10cf 0B       		.uleb128 0xb
 3538 10d0 E3190000 		.4byte	.LASF284
 3539 10d4 15       		.byte	0x15
 3540 10d5 21       		.byte	0x21
 3541 10d6 E4000000 		.4byte	0xe4
 3542 10da 00       		.byte	0
ARM GAS  C:\Users\haske\AppData\Local\Temp\ccoc8x2c.s 			page 79


 3543 10db 0B       		.uleb128 0xb
 3544 10dc 84180000 		.4byte	.LASF285
 3545 10e0 15       		.byte	0x15
 3546 10e1 22       		.byte	0x22
 3547 10e2 F4100000 		.4byte	0x10f4
 3548 10e6 04       		.byte	0x4
 3549 10e7 0B       		.uleb128 0xb
 3550 10e8 14170000 		.4byte	.LASF286
 3551 10ec 15       		.byte	0x15
 3552 10ed 23       		.byte	0x23
 3553 10ee F4100000 		.4byte	0x10f4
 3554 10f2 08       		.byte	0x8
 3555 10f3 00       		.byte	0
 3556 10f4 08       		.uleb128 0x8
 3557 10f5 04       		.byte	0x4
 3558 10f6 BC100000 		.4byte	0x10bc
 3559 10fa 02       		.uleb128 0x2
 3560 10fb 4E0D0000 		.4byte	.LASF287
 3561 10ff 15       		.byte	0x15
 3562 1100 24       		.byte	0x24
 3563 1101 C7100000 		.4byte	0x10c7
 3564 1105 08       		.uleb128 0x8
 3565 1106 04       		.byte	0x4
 3566 1107 B1100000 		.4byte	0x10b1
 3567 110b 08       		.uleb128 0x8
 3568 110c 04       		.byte	0x4
 3569 110d 0D080000 		.4byte	0x80d
 3570 1111 0E       		.uleb128 0xe
 3571 1112 AC000000 		.4byte	.LASF288
 3572 1116 20       		.byte	0x20
 3573 1117 16       		.byte	0x16
 3574 1118 3B       		.byte	0x3b
 3575 1119 96110000 		.4byte	0x1196
 3576 111d 0B       		.uleb128 0xb
 3577 111e 8E140000 		.4byte	.LASF289
 3578 1122 16       		.byte	0x16
 3579 1123 3C       		.byte	0x3c
 3580 1124 FA100000 		.4byte	0x10fa
 3581 1128 00       		.byte	0
 3582 1129 0B       		.uleb128 0xb
 3583 112a D6060000 		.4byte	.LASF290
 3584 112e 16       		.byte	0x16
 3585 112f 3D       		.byte	0x3d
 3586 1130 0B110000 		.4byte	0x110b
 3587 1134 0C       		.byte	0xc
 3588 1135 0B       		.uleb128 0xb
 3589 1136 87040000 		.4byte	.LASF291
 3590 113a 16       		.byte	0x16
 3591 113b 3F       		.byte	0x3f
 3592 113c 21160000 		.4byte	0x1621
 3593 1140 10       		.byte	0x10
 3594 1141 0B       		.uleb128 0xb
 3595 1142 1D100000 		.4byte	.LASF292
 3596 1146 16       		.byte	0x16
 3597 1147 40       		.byte	0x40
 3598 1148 3D160000 		.4byte	0x163d
 3599 114c 14       		.byte	0x14
ARM GAS  C:\Users\haske\AppData\Local\Temp\ccoc8x2c.s 			page 80


 3600 114d 0B       		.uleb128 0xb
 3601 114e 13130000 		.4byte	.LASF47
 3602 1152 16       		.byte	0x16
 3603 1153 45       		.byte	0x45
 3604 1154 13010000 		.4byte	0x113
 3605 1158 18       		.byte	0x18
 3606 1159 0D       		.uleb128 0xd
 3607 115a C80B0000 		.4byte	.LASF293
 3608 115e 16       		.byte	0x16
 3609 115f 48       		.byte	0x48
 3610 1160 B8000000 		.4byte	0xb8
 3611 1164 01       		.byte	0x1
 3612 1165 01       		.byte	0x1
 3613 1166 07       		.byte	0x7
 3614 1167 1C       		.byte	0x1c
 3615 1168 0D       		.uleb128 0xd
 3616 1169 66100000 		.4byte	.LASF294
 3617 116d 16       		.byte	0x16
 3618 116e 49       		.byte	0x49
 3619 116f B8000000 		.4byte	0xb8
 3620 1173 01       		.byte	0x1
 3621 1174 01       		.byte	0x1
 3622 1175 06       		.byte	0x6
 3623 1176 1C       		.byte	0x1c
 3624 1177 0D       		.uleb128 0xd
 3625 1178 98180000 		.4byte	.LASF295
 3626 117c 16       		.byte	0x16
 3627 117d 4A       		.byte	0x4a
 3628 117e B8000000 		.4byte	0xb8
 3629 1182 01       		.byte	0x1
 3630 1183 01       		.byte	0x1
 3631 1184 05       		.byte	0x5
 3632 1185 1C       		.byte	0x1c
 3633 1186 0D       		.uleb128 0xd
 3634 1187 C3150000 		.4byte	.LASF296
 3635 118b 16       		.byte	0x16
 3636 118c 4C       		.byte	0x4c
 3637 118d B8000000 		.4byte	0xb8
 3638 1191 01       		.byte	0x1
 3639 1192 01       		.byte	0x1
 3640 1193 04       		.byte	0x4
 3641 1194 1C       		.byte	0x1c
 3642 1195 00       		.byte	0
 3643 1196 08       		.uleb128 0x8
 3644 1197 04       		.byte	0x4
 3645 1198 11110000 		.4byte	0x1111
 3646 119c 02       		.uleb128 0x2
 3647 119d FA120000 		.4byte	.LASF297
 3648 11a1 0D       		.byte	0xd
 3649 11a2 3C       		.byte	0x3c
 3650 11a3 CE000000 		.4byte	0xce
 3651 11a7 05       		.uleb128 0x5
 3652 11a8 04       		.byte	0x4
 3653 11a9 A6000000 		.4byte	0xa6
 3654 11ad 0D       		.byte	0xd
 3655 11ae 44       		.byte	0x44
 3656 11af 0B120000 		.4byte	0x120b
ARM GAS  C:\Users\haske\AppData\Local\Temp\ccoc8x2c.s 			page 81


 3657 11b3 06       		.uleb128 0x6
 3658 11b4 2D020000 		.4byte	.LASF298
 3659 11b8 00       		.byte	0
 3660 11b9 20       		.uleb128 0x20
 3661 11ba D7110000 		.4byte	.LASF299
 3662 11be 00000100 		.4byte	0x10000
 3663 11c2 20       		.uleb128 0x20
 3664 11c3 D3090000 		.4byte	.LASF300
 3665 11c7 00000200 		.4byte	0x20000
 3666 11cb 20       		.uleb128 0x20
 3667 11cc B20C0000 		.4byte	.LASF301
 3668 11d0 00000300 		.4byte	0x30000
 3669 11d4 20       		.uleb128 0x20
 3670 11d5 F4090000 		.4byte	.LASF302
 3671 11d9 00000400 		.4byte	0x40000
 3672 11dd 20       		.uleb128 0x20
 3673 11de 40080000 		.4byte	.LASF303
 3674 11e2 00000500 		.4byte	0x50000
 3675 11e6 20       		.uleb128 0x20
 3676 11e7 40060000 		.4byte	.LASF304
 3677 11eb 00000600 		.4byte	0x60000
 3678 11ef 20       		.uleb128 0x20
 3679 11f0 EF1B0000 		.4byte	.LASF305
 3680 11f4 00000700 		.4byte	0x70000
 3681 11f8 20       		.uleb128 0x20
 3682 11f9 FB000000 		.4byte	.LASF306
 3683 11fd 00000800 		.4byte	0x80000
 3684 1201 20       		.uleb128 0x20
 3685 1202 0E1A0000 		.4byte	.LASF307
 3686 1206 00000F00 		.4byte	0xf0000
 3687 120a 00       		.byte	0
 3688 120b 02       		.uleb128 0x2
 3689 120c 72020000 		.4byte	.LASF308
 3690 1210 0D       		.byte	0xd
 3691 1211 7D       		.byte	0x7d
 3692 1212 E4000000 		.4byte	0xe4
 3693 1216 02       		.uleb128 0x2
 3694 1217 3B140000 		.4byte	.LASF309
 3695 121b 17       		.byte	0x17
 3696 121c 26       		.byte	0x26
 3697 121d B8000000 		.4byte	0xb8
 3698 1221 02       		.uleb128 0x2
 3699 1222 5A0C0000 		.4byte	.LASF310
 3700 1226 17       		.byte	0x17
 3701 1227 30       		.byte	0x30
 3702 1228 B8000000 		.4byte	0xb8
 3703 122c 09       		.uleb128 0x9
 3704 122d 08       		.byte	0x8
 3705 122e 18       		.byte	0x18
 3706 122f 27       		.byte	0x27
 3707 1230 6E120000 		.4byte	0x126e
 3708 1234 0B       		.uleb128 0xb
 3709 1235 FE160000 		.4byte	.LASF311
 3710 1239 18       		.byte	0x18
 3711 123a 28       		.byte	0x28
 3712 123b 6E120000 		.4byte	0x126e
 3713 123f 00       		.byte	0
ARM GAS  C:\Users\haske\AppData\Local\Temp\ccoc8x2c.s 			page 82


 3714 1240 0D       		.uleb128 0xd
 3715 1241 4E080000 		.4byte	.LASF312
 3716 1245 18       		.byte	0x18
 3717 1246 29       		.byte	0x29
 3718 1247 E4000000 		.4byte	0xe4
 3719 124b 04       		.byte	0x4
 3720 124c 18       		.byte	0x18
 3721 124d 08       		.byte	0x8
 3722 124e 04       		.byte	0x4
 3723 124f 0D       		.uleb128 0xd
 3724 1250 57080000 		.4byte	.LASF313
 3725 1254 18       		.byte	0x18
 3726 1255 2A       		.byte	0x2a
 3727 1256 E4000000 		.4byte	0xe4
 3728 125a 04       		.byte	0x4
 3729 125b 01       		.byte	0x1
 3730 125c 07       		.byte	0x7
 3731 125d 04       		.byte	0x4
 3732 125e 0D       		.uleb128 0xd
 3733 125f F2070000 		.4byte	.LASF314
 3734 1263 18       		.byte	0x18
 3735 1264 2B       		.byte	0x2b
 3736 1265 E4000000 		.4byte	0xe4
 3737 1269 04       		.byte	0x4
 3738 126a 01       		.byte	0x1
 3739 126b 06       		.byte	0x6
 3740 126c 04       		.byte	0x4
 3741 126d 00       		.byte	0
 3742 126e 08       		.uleb128 0x8
 3743 126f 04       		.byte	0x4
 3744 1270 F6070000 		.4byte	0x7f6
 3745 1274 02       		.uleb128 0x2
 3746 1275 11120000 		.4byte	.LASF315
 3747 1279 18       		.byte	0x18
 3748 127a 2C       		.byte	0x2c
 3749 127b 2C120000 		.4byte	0x122c
 3750 127f 09       		.uleb128 0x9
 3751 1280 48       		.byte	0x48
 3752 1281 19       		.byte	0x19
 3753 1282 2A       		.byte	0x2a
 3754 1283 5D130000 		.4byte	0x135d
 3755 1287 0B       		.uleb128 0xb
 3756 1288 911B0000 		.4byte	.LASF316
 3757 128c 19       		.byte	0x19
 3758 128d 2B       		.byte	0x2b
 3759 128e 05110000 		.4byte	0x1105
 3760 1292 00       		.byte	0
 3761 1293 0B       		.uleb128 0xb
 3762 1294 CD120000 		.4byte	.LASF178
 3763 1298 19       		.byte	0x19
 3764 1299 2C       		.byte	0x2c
 3765 129a EB130000 		.4byte	0x13eb
 3766 129e 04       		.byte	0x4
 3767 129f 0B       		.uleb128 0xb
 3768 12a0 C50E0000 		.4byte	.LASF317
 3769 12a4 19       		.byte	0x19
 3770 12a5 2D       		.byte	0x2d
ARM GAS  C:\Users\haske\AppData\Local\Temp\ccoc8x2c.s 			page 83


 3771 12a6 E4000000 		.4byte	0xe4
 3772 12aa 08       		.byte	0x8
 3773 12ab 0B       		.uleb128 0xb
 3774 12ac D9000000 		.4byte	.LASF318
 3775 12b0 19       		.byte	0x19
 3776 12b1 2E       		.byte	0x2e
 3777 12b2 170D0000 		.4byte	0xd17
 3778 12b6 0C       		.byte	0xc
 3779 12b7 0B       		.uleb128 0xb
 3780 12b8 3A020000 		.4byte	.LASF319
 3781 12bc 19       		.byte	0x19
 3782 12bd 30       		.byte	0x30
 3783 12be F6130000 		.4byte	0x13f6
 3784 12c2 10       		.byte	0x10
 3785 12c3 0B       		.uleb128 0xb
 3786 12c4 DA010000 		.4byte	.LASF320
 3787 12c8 19       		.byte	0x19
 3788 12c9 32       		.byte	0x32
 3789 12ca FC130000 		.4byte	0x13fc
 3790 12ce 14       		.byte	0x14
 3791 12cf 0B       		.uleb128 0xb
 3792 12d0 45070000 		.4byte	.LASF321
 3793 12d4 19       		.byte	0x19
 3794 12d5 34       		.byte	0x34
 3795 12d6 02140000 		.4byte	0x1402
 3796 12da 18       		.byte	0x18
 3797 12db 0B       		.uleb128 0xb
 3798 12dc F50B0000 		.4byte	.LASF322
 3799 12e0 19       		.byte	0x19
 3800 12e1 36       		.byte	0x36
 3801 12e2 08140000 		.4byte	0x1408
 3802 12e6 1C       		.byte	0x1c
 3803 12e7 0B       		.uleb128 0xb
 3804 12e8 9E190000 		.4byte	.LASF323
 3805 12ec 19       		.byte	0x19
 3806 12ed 38       		.byte	0x38
 3807 12ee 0E140000 		.4byte	0x140e
 3808 12f2 20       		.byte	0x20
 3809 12f3 0A       		.uleb128 0xa
 3810 12f4 703100   		.ascii	"p1\000"
 3811 12f7 19       		.byte	0x19
 3812 12f8 3A       		.byte	0x3a
 3813 12f9 F20E0000 		.4byte	0xef2
 3814 12fd 24       		.byte	0x24
 3815 12fe 0A       		.uleb128 0xa
 3816 12ff 703200   		.ascii	"p2\000"
 3817 1302 19       		.byte	0x19
 3818 1303 3B       		.byte	0x3b
 3819 1304 F20E0000 		.4byte	0xef2
 3820 1308 28       		.byte	0x28
 3821 1309 0B       		.uleb128 0xb
 3822 130a DF0A0000 		.4byte	.LASF324
 3823 130e 19       		.byte	0x19
 3824 130f 3C       		.byte	0x3c
 3825 1310 2E010000 		.4byte	0x12e
 3826 1314 2C       		.byte	0x2c
 3827 1315 0B       		.uleb128 0xb
ARM GAS  C:\Users\haske\AppData\Local\Temp\ccoc8x2c.s 			page 84


 3828 1316 421B0000 		.4byte	.LASF325
 3829 131a 19       		.byte	0x19
 3830 131b 3D       		.byte	0x3d
 3831 131c E4000000 		.4byte	0xe4
 3832 1320 30       		.byte	0x30
 3833 1321 0B       		.uleb128 0xb
 3834 1322 04100000 		.4byte	.LASF326
 3835 1326 19       		.byte	0x19
 3836 1327 3E       		.byte	0x3e
 3837 1328 E4000000 		.4byte	0xe4
 3838 132c 34       		.byte	0x34
 3839 132d 0A       		.uleb128 0xa
 3840 132e 696400   		.ascii	"id\000"
 3841 1331 19       		.byte	0x19
 3842 1332 3F       		.byte	0x3f
 3843 1333 E4000000 		.4byte	0xe4
 3844 1337 38       		.byte	0x38
 3845 1338 0B       		.uleb128 0xb
 3846 1339 991D0000 		.4byte	.LASF191
 3847 133d 19       		.byte	0x19
 3848 133e 40       		.byte	0x40
 3849 133f 3B010000 		.4byte	0x13b
 3850 1343 3C       		.byte	0x3c
 3851 1344 0B       		.uleb128 0xb
 3852 1345 B60B0000 		.4byte	.LASF166
 3853 1349 19       		.byte	0x19
 3854 134a 41       		.byte	0x41
 3855 134b D9000000 		.4byte	0xd9
 3856 134f 40       		.byte	0x40
 3857 1350 0B       		.uleb128 0xb
 3858 1351 19170000 		.4byte	.LASF327
 3859 1355 19       		.byte	0x19
 3860 1356 42       		.byte	0x42
 3861 1357 1C030000 		.4byte	0x31c
 3862 135b 44       		.byte	0x44
 3863 135c 00       		.byte	0
 3864 135d 0E       		.uleb128 0xe
 3865 135e 9E060000 		.4byte	.LASF328
 3866 1362 1C       		.byte	0x1c
 3867 1363 1A       		.byte	0x1a
 3868 1364 31       		.byte	0x31
 3869 1365 EB130000 		.4byte	0x13eb
 3870 1369 0B       		.uleb128 0xb
 3871 136a 630E0000 		.4byte	.LASF329
 3872 136e 1A       		.byte	0x1a
 3873 136f 32       		.byte	0x32
 3874 1370 EB130000 		.4byte	0x13eb
 3875 1374 00       		.byte	0
 3876 1375 0B       		.uleb128 0xb
 3877 1376 F2110000 		.4byte	.LASF330
 3878 137a 1A       		.byte	0x1a
 3879 137b 33       		.byte	0x33
 3880 137c B7140000 		.4byte	0x14b7
 3881 1380 04       		.byte	0x4
 3882 1381 0B       		.uleb128 0xb
 3883 1382 211C0000 		.4byte	.LASF331
 3884 1386 1A       		.byte	0x1a
ARM GAS  C:\Users\haske\AppData\Local\Temp\ccoc8x2c.s 			page 85


 3885 1387 34       		.byte	0x34
 3886 1388 B7140000 		.4byte	0x14b7
 3887 138c 08       		.byte	0x8
 3888 138d 0B       		.uleb128 0xb
 3889 138e 13130000 		.4byte	.LASF47
 3890 1392 1A       		.byte	0x1a
 3891 1393 36       		.byte	0x36
 3892 1394 13010000 		.4byte	0x113
 3893 1398 0C       		.byte	0xc
 3894 1399 0B       		.uleb128 0xb
 3895 139a 0D090000 		.4byte	.LASF332
 3896 139e 1A       		.byte	0x1a
 3897 139f 38       		.byte	0x38
 3898 13a0 CD140000 		.4byte	0x14cd
 3899 13a4 10       		.byte	0x10
 3900 13a5 0B       		.uleb128 0xb
 3901 13a6 C3120000 		.4byte	.LASF333
 3902 13aa 1A       		.byte	0x1a
 3903 13ab 3A       		.byte	0x3a
 3904 13ac 3B010000 		.4byte	0x13b
 3905 13b0 14       		.byte	0x14
 3906 13b1 0B       		.uleb128 0xb
 3907 13b2 6C060000 		.4byte	.LASF334
 3908 13b6 1A       		.byte	0x1a
 3909 13b7 3B       		.byte	0x3b
 3910 13b8 3B010000 		.4byte	0x13b
 3911 13bc 16       		.byte	0x16
 3912 13bd 0D       		.uleb128 0xd
 3913 13be 2C110000 		.4byte	.LASF335
 3914 13c2 1A       		.byte	0x1a
 3915 13c3 3C       		.byte	0x3c
 3916 13c4 E4000000 		.4byte	0xe4
 3917 13c8 04       		.byte	0x4
 3918 13c9 02       		.byte	0x2
 3919 13ca 1E       		.byte	0x1e
 3920 13cb 18       		.byte	0x18
 3921 13cc 0D       		.uleb128 0xd
 3922 13cd 5B130000 		.4byte	.LASF336
 3923 13d1 1A       		.byte	0x1a
 3924 13d2 3D       		.byte	0x3d
 3925 13d3 E4000000 		.4byte	0xe4
 3926 13d7 04       		.byte	0x4
 3927 13d8 02       		.byte	0x2
 3928 13d9 1C       		.byte	0x1c
 3929 13da 18       		.byte	0x18
 3930 13db 0D       		.uleb128 0xd
 3931 13dc AA0E0000 		.4byte	.LASF337
 3932 13e0 1A       		.byte	0x1a
 3933 13e1 3E       		.byte	0x3e
 3934 13e2 E4000000 		.4byte	0xe4
 3935 13e6 04       		.byte	0x4
 3936 13e7 10       		.byte	0x10
 3937 13e8 0C       		.byte	0xc
 3938 13e9 18       		.byte	0x18
 3939 13ea 00       		.byte	0
 3940 13eb 08       		.uleb128 0x8
 3941 13ec 04       		.byte	0x4
ARM GAS  C:\Users\haske\AppData\Local\Temp\ccoc8x2c.s 			page 86


 3942 13ed F1130000 		.4byte	0x13f1
 3943 13f1 0F       		.uleb128 0xf
 3944 13f2 5D130000 		.4byte	0x135d
 3945 13f6 08       		.uleb128 0x8
 3946 13f7 04       		.byte	0x4
 3947 13f8 270A0000 		.4byte	0xa27
 3948 13fc 08       		.uleb128 0x8
 3949 13fd 04       		.byte	0x4
 3950 13fe 0C0B0000 		.4byte	0xb0c
 3951 1402 08       		.uleb128 0x8
 3952 1403 04       		.byte	0x4
 3953 1404 1E0C0000 		.4byte	0xc1e
 3954 1408 08       		.uleb128 0x8
 3955 1409 04       		.byte	0x4
 3956 140a 920B0000 		.4byte	0xb92
 3957 140e 08       		.uleb128 0x8
 3958 140f 04       		.byte	0x4
 3959 1410 980C0000 		.4byte	0xc98
 3960 1414 02       		.uleb128 0x2
 3961 1415 FD0B0000 		.4byte	.LASF338
 3962 1419 19       		.byte	0x19
 3963 141a 43       		.byte	0x43
 3964 141b 7F120000 		.4byte	0x127f
 3965 141f 08       		.uleb128 0x8
 3966 1420 04       		.byte	0x4
 3967 1421 25140000 		.4byte	0x1425
 3968 1425 0E       		.uleb128 0xe
 3969 1426 A6190000 		.4byte	.LASF339
 3970 142a 1C       		.byte	0x1c
 3971 142b 1B       		.byte	0x1b
 3972 142c 5E       		.byte	0x5e
 3973 142d A7140000 		.4byte	0x14a7
 3974 1431 0B       		.uleb128 0xb
 3975 1432 D8070000 		.4byte	.LASF340
 3976 1436 1B       		.byte	0x1b
 3977 1437 5F       		.byte	0x5f
 3978 1438 0D080000 		.4byte	0x80d
 3979 143c 00       		.byte	0
 3980 143d 0B       		.uleb128 0xb
 3981 143e 5F150000 		.4byte	.LASF341
 3982 1442 1B       		.byte	0x1b
 3983 1443 60       		.byte	0x60
 3984 1444 0D080000 		.4byte	0x80d
 3985 1448 04       		.byte	0x4
 3986 1449 0B       		.uleb128 0xb
 3987 144a E40A0000 		.4byte	.LASF342
 3988 144e 1B       		.byte	0x1b
 3989 144f 61       		.byte	0x61
 3990 1450 05160000 		.4byte	0x1605
 3991 1454 08       		.byte	0x8
 3992 1455 0B       		.uleb128 0xb
 3993 1456 13130000 		.4byte	.LASF47
 3994 145a 1B       		.byte	0x1b
 3995 145b 62       		.byte	0x62
 3996 145c 13010000 		.4byte	0x113
 3997 1460 0C       		.byte	0xc
 3998 1461 0B       		.uleb128 0xb
ARM GAS  C:\Users\haske\AppData\Local\Temp\ccoc8x2c.s 			page 87


 3999 1462 5D0A0000 		.4byte	.LASF343
 4000 1466 1B       		.byte	0x1b
 4001 1467 63       		.byte	0x63
 4002 1468 13010000 		.4byte	0x113
 4003 146c 10       		.byte	0x10
 4004 146d 0B       		.uleb128 0xb
 4005 146e 361D0000 		.4byte	.LASF344
 4006 1472 1B       		.byte	0x1b
 4007 1473 64       		.byte	0x64
 4008 1474 1F140000 		.4byte	0x141f
 4009 1478 14       		.byte	0x14
 4010 1479 0D       		.uleb128 0xd
 4011 147a 2F1C0000 		.4byte	.LASF345
 4012 147e 1B       		.byte	0x1b
 4013 147f 65       		.byte	0x65
 4014 1480 B8000000 		.4byte	0xb8
 4015 1484 01       		.byte	0x1
 4016 1485 01       		.byte	0x1
 4017 1486 07       		.byte	0x7
 4018 1487 18       		.byte	0x18
 4019 1488 0D       		.uleb128 0xd
 4020 1489 67050000 		.4byte	.LASF346
 4021 148d 1B       		.byte	0x1b
 4022 148e 66       		.byte	0x66
 4023 148f B8000000 		.4byte	0xb8
 4024 1493 01       		.byte	0x1
 4025 1494 01       		.byte	0x1
 4026 1495 06       		.byte	0x6
 4027 1496 18       		.byte	0x18
 4028 1497 0D       		.uleb128 0xd
 4029 1498 F60E0000 		.4byte	.LASF347
 4030 149c 1B       		.byte	0x1b
 4031 149d 67       		.byte	0x67
 4032 149e B8000000 		.4byte	0xb8
 4033 14a2 01       		.byte	0x1
 4034 14a3 01       		.byte	0x1
 4035 14a4 05       		.byte	0x5
 4036 14a5 18       		.byte	0x18
 4037 14a6 00       		.byte	0
 4038 14a7 1F       		.uleb128 0x1f
 4039 14a8 B7140000 		.4byte	0x14b7
 4040 14ac 11       		.uleb128 0x11
 4041 14ad EB130000 		.4byte	0x13eb
 4042 14b1 11       		.uleb128 0x11
 4043 14b2 0D080000 		.4byte	0x80d
 4044 14b6 00       		.byte	0
 4045 14b7 08       		.uleb128 0x8
 4046 14b8 04       		.byte	0x4
 4047 14b9 A7140000 		.4byte	0x14a7
 4048 14bd 1F       		.uleb128 0x1f
 4049 14be CD140000 		.4byte	0x14cd
 4050 14c2 11       		.uleb128 0x11
 4051 14c3 EB130000 		.4byte	0x13eb
 4052 14c7 11       		.uleb128 0x11
 4053 14c8 1F140000 		.4byte	0x141f
 4054 14cc 00       		.byte	0
 4055 14cd 08       		.uleb128 0x8
ARM GAS  C:\Users\haske\AppData\Local\Temp\ccoc8x2c.s 			page 88


 4056 14ce 04       		.byte	0x4
 4057 14cf BD140000 		.4byte	0x14bd
 4058 14d3 02       		.uleb128 0x2
 4059 14d4 51090000 		.4byte	.LASF348
 4060 14d8 1A       		.byte	0x1a
 4061 14d9 3F       		.byte	0x3f
 4062 14da 5D130000 		.4byte	0x135d
 4063 14de 05       		.uleb128 0x5
 4064 14df 01       		.byte	0x1
 4065 14e0 42000000 		.4byte	0x42
 4066 14e4 1B       		.byte	0x1b
 4067 14e5 20       		.byte	0x20
 4068 14e6 05160000 		.4byte	0x1605
 4069 14ea 06       		.uleb128 0x6
 4070 14eb 8E030000 		.4byte	.LASF349
 4071 14ef 00       		.byte	0
 4072 14f0 06       		.uleb128 0x6
 4073 14f1 BB160000 		.4byte	.LASF350
 4074 14f5 01       		.byte	0x1
 4075 14f6 06       		.uleb128 0x6
 4076 14f7 6E0D0000 		.4byte	.LASF351
 4077 14fb 02       		.byte	0x2
 4078 14fc 06       		.uleb128 0x6
 4079 14fd 4F140000 		.4byte	.LASF352
 4080 1501 03       		.byte	0x3
 4081 1502 06       		.uleb128 0x6
 4082 1503 8B0B0000 		.4byte	.LASF353
 4083 1507 04       		.byte	0x4
 4084 1508 06       		.uleb128 0x6
 4085 1509 5E1C0000 		.4byte	.LASF354
 4086 150d 05       		.byte	0x5
 4087 150e 06       		.uleb128 0x6
 4088 150f A7040000 		.4byte	.LASF355
 4089 1513 06       		.byte	0x6
 4090 1514 06       		.uleb128 0x6
 4091 1515 371C0000 		.4byte	.LASF356
 4092 1519 07       		.byte	0x7
 4093 151a 06       		.uleb128 0x6
 4094 151b 0C080000 		.4byte	.LASF357
 4095 151f 08       		.byte	0x8
 4096 1520 06       		.uleb128 0x6
 4097 1521 06140000 		.4byte	.LASF358
 4098 1525 09       		.byte	0x9
 4099 1526 06       		.uleb128 0x6
 4100 1527 1B0C0000 		.4byte	.LASF359
 4101 152b 0A       		.byte	0xa
 4102 152c 06       		.uleb128 0x6
 4103 152d BB060000 		.4byte	.LASF360
 4104 1531 0B       		.byte	0xb
 4105 1532 06       		.uleb128 0x6
 4106 1533 CA0E0000 		.4byte	.LASF361
 4107 1537 0C       		.byte	0xc
 4108 1538 06       		.uleb128 0x6
 4109 1539 BB1C0000 		.4byte	.LASF362
 4110 153d 0D       		.byte	0xd
 4111 153e 06       		.uleb128 0x6
 4112 153f C4040000 		.4byte	.LASF363
ARM GAS  C:\Users\haske\AppData\Local\Temp\ccoc8x2c.s 			page 89


 4113 1543 0E       		.byte	0xe
 4114 1544 06       		.uleb128 0x6
 4115 1545 2F010000 		.4byte	.LASF364
 4116 1549 0F       		.byte	0xf
 4117 154a 06       		.uleb128 0x6
 4118 154b 48030000 		.4byte	.LASF365
 4119 154f 10       		.byte	0x10
 4120 1550 06       		.uleb128 0x6
 4121 1551 E3160000 		.4byte	.LASF366
 4122 1555 11       		.byte	0x11
 4123 1556 06       		.uleb128 0x6
 4124 1557 420F0000 		.4byte	.LASF367
 4125 155b 12       		.byte	0x12
 4126 155c 06       		.uleb128 0x6
 4127 155d DB050000 		.4byte	.LASF368
 4128 1561 13       		.byte	0x13
 4129 1562 06       		.uleb128 0x6
 4130 1563 B7170000 		.4byte	.LASF369
 4131 1567 14       		.byte	0x14
 4132 1568 06       		.uleb128 0x6
 4133 1569 4D040000 		.4byte	.LASF370
 4134 156d 15       		.byte	0x15
 4135 156e 06       		.uleb128 0x6
 4136 156f C21B0000 		.4byte	.LASF371
 4137 1573 16       		.byte	0x16
 4138 1574 06       		.uleb128 0x6
 4139 1575 C71A0000 		.4byte	.LASF372
 4140 1579 17       		.byte	0x17
 4141 157a 06       		.uleb128 0x6
 4142 157b 57030000 		.4byte	.LASF373
 4143 157f 18       		.byte	0x18
 4144 1580 06       		.uleb128 0x6
 4145 1581 F41A0000 		.4byte	.LASF374
 4146 1585 19       		.byte	0x19
 4147 1586 06       		.uleb128 0x6
 4148 1587 66190000 		.4byte	.LASF375
 4149 158b 1A       		.byte	0x1a
 4150 158c 06       		.uleb128 0x6
 4151 158d 7D0E0000 		.4byte	.LASF376
 4152 1591 1B       		.byte	0x1b
 4153 1592 06       		.uleb128 0x6
 4154 1593 07000000 		.4byte	.LASF377
 4155 1597 1C       		.byte	0x1c
 4156 1598 06       		.uleb128 0x6
 4157 1599 21120000 		.4byte	.LASF378
 4158 159d 1D       		.byte	0x1d
 4159 159e 06       		.uleb128 0x6
 4160 159f 7F130000 		.4byte	.LASF379
 4161 15a3 1E       		.byte	0x1e
 4162 15a4 06       		.uleb128 0x6
 4163 15a5 BD140000 		.4byte	.LASF380
 4164 15a9 1F       		.byte	0x1f
 4165 15aa 06       		.uleb128 0x6
 4166 15ab 6A0A0000 		.4byte	.LASF381
 4167 15af 20       		.byte	0x20
 4168 15b0 06       		.uleb128 0x6
 4169 15b1 80020000 		.4byte	.LASF382
ARM GAS  C:\Users\haske\AppData\Local\Temp\ccoc8x2c.s 			page 90


 4170 15b5 21       		.byte	0x21
 4171 15b6 06       		.uleb128 0x6
 4172 15b7 B3100000 		.4byte	.LASF383
 4173 15bb 22       		.byte	0x22
 4174 15bc 06       		.uleb128 0x6
 4175 15bd 250B0000 		.4byte	.LASF384
 4176 15c1 23       		.byte	0x23
 4177 15c2 06       		.uleb128 0x6
 4178 15c3 77050000 		.4byte	.LASF385
 4179 15c7 24       		.byte	0x24
 4180 15c8 06       		.uleb128 0x6
 4181 15c9 F8010000 		.4byte	.LASF386
 4182 15cd 25       		.byte	0x25
 4183 15ce 06       		.uleb128 0x6
 4184 15cf DA0B0000 		.4byte	.LASF387
 4185 15d3 26       		.byte	0x26
 4186 15d4 06       		.uleb128 0x6
 4187 15d5 3B050000 		.4byte	.LASF388
 4188 15d9 27       		.byte	0x27
 4189 15da 06       		.uleb128 0x6
 4190 15db 55120000 		.4byte	.LASF389
 4191 15df 28       		.byte	0x28
 4192 15e0 06       		.uleb128 0x6
 4193 15e1 AC1B0000 		.4byte	.LASF390
 4194 15e5 29       		.byte	0x29
 4195 15e6 06       		.uleb128 0x6
 4196 15e7 8B0D0000 		.4byte	.LASF391
 4197 15eb 2A       		.byte	0x2a
 4198 15ec 06       		.uleb128 0x6
 4199 15ed C4030000 		.4byte	.LASF392
 4200 15f1 2B       		.byte	0x2b
 4201 15f2 06       		.uleb128 0x6
 4202 15f3 C6190000 		.4byte	.LASF393
 4203 15f7 2C       		.byte	0x2c
 4204 15f8 06       		.uleb128 0x6
 4205 15f9 E01A0000 		.4byte	.LASF394
 4206 15fd 2D       		.byte	0x2d
 4207 15fe 06       		.uleb128 0x6
 4208 15ff 8C080000 		.4byte	.LASF395
 4209 1603 80       		.byte	0x80
 4210 1604 00       		.byte	0
 4211 1605 02       		.uleb128 0x2
 4212 1606 41110000 		.4byte	.LASF396
 4213 160a 1B       		.byte	0x1b
 4214 160b 5C       		.byte	0x5c
 4215 160c DE140000 		.4byte	0x14de
 4216 1610 02       		.uleb128 0x2
 4217 1611 CF0B0000 		.4byte	.LASF397
 4218 1615 1B       		.byte	0x1b
 4219 1616 68       		.byte	0x68
 4220 1617 25140000 		.4byte	0x1425
 4221 161b 08       		.uleb128 0x8
 4222 161c 04       		.byte	0x4
 4223 161d 10160000 		.4byte	0x1610
 4224 1621 02       		.uleb128 0x2
 4225 1622 09100000 		.4byte	.LASF398
 4226 1626 16       		.byte	0x16
ARM GAS  C:\Users\haske\AppData\Local\Temp\ccoc8x2c.s 			page 91


 4227 1627 34       		.byte	0x34
 4228 1628 2C160000 		.4byte	0x162c
 4229 162c 08       		.uleb128 0x8
 4230 162d 04       		.byte	0x4
 4231 162e 32160000 		.4byte	0x1632
 4232 1632 1F       		.uleb128 0x1f
 4233 1633 3D160000 		.4byte	0x163d
 4234 1637 11       		.uleb128 0x11
 4235 1638 96110000 		.4byte	0x1196
 4236 163c 00       		.byte	0
 4237 163d 02       		.uleb128 0x2
 4238 163e 2B090000 		.4byte	.LASF399
 4239 1642 16       		.byte	0x16
 4240 1643 35       		.byte	0x35
 4241 1644 48160000 		.4byte	0x1648
 4242 1648 08       		.uleb128 0x8
 4243 1649 04       		.byte	0x4
 4244 164a 4E160000 		.4byte	0x164e
 4245 164e 1F       		.uleb128 0x1f
 4246 164f 5E160000 		.4byte	0x165e
 4247 1653 11       		.uleb128 0x11
 4248 1654 96110000 		.4byte	0x1196
 4249 1658 11       		.uleb128 0x11
 4250 1659 E4020000 		.4byte	0x2e4
 4251 165d 00       		.byte	0
 4252 165e 02       		.uleb128 0x2
 4253 165f EB040000 		.4byte	.LASF400
 4254 1663 16       		.byte	0x16
 4255 1664 4E       		.byte	0x4e
 4256 1665 11110000 		.4byte	0x1111
 4257 1669 09       		.uleb128 0x9
 4258 166a 1C       		.byte	0x1c
 4259 166b 0D       		.byte	0xd
 4260 166c 9B       		.byte	0x9b
 4261 166d 20170000 		.4byte	0x1720
 4262 1671 0B       		.uleb128 0xb
 4263 1672 F5160000 		.4byte	.LASF401
 4264 1676 0D       		.byte	0xd
 4265 1677 9C       		.byte	0x9c
 4266 1678 0B110000 		.4byte	0x110b
 4267 167c 00       		.byte	0
 4268 167d 0B       		.uleb128 0xb
 4269 167e 94060000 		.4byte	.LASF402
 4270 1682 0D       		.byte	0xd
 4271 1683 9D       		.byte	0x9d
 4272 1684 E4000000 		.4byte	0xe4
 4273 1688 04       		.byte	0x4
 4274 1689 0B       		.uleb128 0xb
 4275 168a 89090000 		.4byte	.LASF403
 4276 168e 0D       		.byte	0xd
 4277 168f 9E       		.byte	0x9e
 4278 1690 20170000 		.4byte	0x1720
 4279 1694 08       		.byte	0x8
 4280 1695 0B       		.uleb128 0xb
 4281 1696 A0150000 		.4byte	.LASF404
 4282 169a 0D       		.byte	0xd
 4283 169b A0       		.byte	0xa0
ARM GAS  C:\Users\haske\AppData\Local\Temp\ccoc8x2c.s 			page 92


 4284 169c 2B170000 		.4byte	0x172b
 4285 16a0 0C       		.byte	0xc
 4286 16a1 0B       		.uleb128 0xb
 4287 16a2 140C0000 		.4byte	.LASF405
 4288 16a6 0D       		.byte	0xd
 4289 16a7 A1       		.byte	0xa1
 4290 16a8 63010000 		.4byte	0x163
 4291 16ac 10       		.byte	0x10
 4292 16ad 0B       		.uleb128 0xb
 4293 16ae 800F0000 		.4byte	.LASF406
 4294 16b2 0D       		.byte	0xd
 4295 16b3 A3       		.byte	0xa3
 4296 16b4 3B010000 		.4byte	0x13b
 4297 16b8 14       		.byte	0x14
 4298 16b9 0B       		.uleb128 0xb
 4299 16ba 611B0000 		.4byte	.LASF407
 4300 16be 0D       		.byte	0xd
 4301 16bf A4       		.byte	0xa4
 4302 16c0 3B010000 		.4byte	0x13b
 4303 16c4 16       		.byte	0x16
 4304 16c5 0D       		.uleb128 0xd
 4305 16c6 EA190000 		.4byte	.LASF408
 4306 16ca 0D       		.byte	0xd
 4307 16cb A6       		.byte	0xa6
 4308 16cc 16120000 		.4byte	0x1216
 4309 16d0 01       		.byte	0x1
 4310 16d1 02       		.byte	0x2
 4311 16d2 06       		.byte	0x6
 4312 16d3 18       		.byte	0x18
 4313 16d4 0D       		.uleb128 0xd
 4314 16d5 65130000 		.4byte	.LASF409
 4315 16d9 0D       		.byte	0xd
 4316 16da A7       		.byte	0xa7
 4317 16db 21120000 		.4byte	0x1221
 4318 16df 01       		.byte	0x1
 4319 16e0 02       		.byte	0x2
 4320 16e1 04       		.byte	0x4
 4321 16e2 18       		.byte	0x18
 4322 16e3 0D       		.uleb128 0xd
 4323 16e4 47160000 		.4byte	.LASF410
 4324 16e8 0D       		.byte	0xd
 4325 16e9 A8       		.byte	0xa8
 4326 16ea 21120000 		.4byte	0x1221
 4327 16ee 01       		.byte	0x1
 4328 16ef 02       		.byte	0x2
 4329 16f0 02       		.byte	0x2
 4330 16f1 18       		.byte	0x18
 4331 16f2 0D       		.uleb128 0xd
 4332 16f3 800D0000 		.4byte	.LASF411
 4333 16f7 0D       		.byte	0xd
 4334 16f8 A9       		.byte	0xa9
 4335 16f9 AE010000 		.4byte	0x1ae
 4336 16fd 01       		.byte	0x1
 4337 16fe 04       		.byte	0x4
 4338 16ff 04       		.byte	0x4
 4339 1700 19       		.byte	0x19
 4340 1701 0D       		.uleb128 0xd
ARM GAS  C:\Users\haske\AppData\Local\Temp\ccoc8x2c.s 			page 93


 4341 1702 A2130000 		.4byte	.LASF412
 4342 1706 0D       		.byte	0xd
 4343 1707 AA       		.byte	0xaa
 4344 1708 B8000000 		.4byte	0xb8
 4345 170c 01       		.byte	0x1
 4346 170d 06       		.byte	0x6
 4347 170e 02       		.byte	0x2
 4348 170f 1A       		.byte	0x1a
 4349 1710 0D       		.uleb128 0xd
 4350 1711 CB060000 		.4byte	.LASF413
 4351 1715 0D       		.byte	0xd
 4352 1716 AB       		.byte	0xab
 4353 1717 B8000000 		.4byte	0xb8
 4354 171b 01       		.byte	0x1
 4355 171c 02       		.byte	0x2
 4356 171d 00       		.byte	0
 4357 171e 1A       		.byte	0x1a
 4358 171f 00       		.byte	0
 4359 1720 08       		.uleb128 0x8
 4360 1721 04       		.byte	0x4
 4361 1722 5E160000 		.4byte	0x165e
 4362 1726 21       		.uleb128 0x21
 4363 1727 DE0D0000 		.4byte	.LASF478
 4364 172b 08       		.uleb128 0x8
 4365 172c 04       		.byte	0x4
 4366 172d 26170000 		.4byte	0x1726
 4367 1731 02       		.uleb128 0x2
 4368 1732 0C030000 		.4byte	.LASF414
 4369 1736 0D       		.byte	0xd
 4370 1737 AC       		.byte	0xac
 4371 1738 69160000 		.4byte	0x1669
 4372 173c 08       		.uleb128 0x8
 4373 173d 04       		.byte	0x4
 4374 173e 42170000 		.4byte	0x1742
 4375 1742 0F       		.uleb128 0xf
 4376 1743 D3140000 		.4byte	0x14d3
 4377 1747 08       		.uleb128 0x8
 4378 1748 04       		.byte	0x4
 4379 1749 31170000 		.4byte	0x1731
 4380 174d 08       		.uleb128 0x8
 4381 174e 04       		.byte	0x4
 4382 174f 74120000 		.4byte	0x1274
 4383 1753 02       		.uleb128 0x2
 4384 1754 DA160000 		.4byte	.LASF415
 4385 1758 0D       		.byte	0xd
 4386 1759 BF       		.byte	0xbf
 4387 175a 13080000 		.4byte	0x813
 4388 175e 08       		.uleb128 0x8
 4389 175f 04       		.byte	0x4
 4390 1760 53170000 		.4byte	0x1753
 4391 1764 05       		.uleb128 0x5
 4392 1765 01       		.byte	0x1
 4393 1766 42000000 		.4byte	0x42
 4394 176a 1C       		.byte	0x1c
 4395 176b 21       		.byte	0x21
 4396 176c 83170000 		.4byte	0x1783
 4397 1770 06       		.uleb128 0x6
ARM GAS  C:\Users\haske\AppData\Local\Temp\ccoc8x2c.s 			page 94


 4398 1771 4E1B0000 		.4byte	.LASF416
 4399 1775 00       		.byte	0
 4400 1776 06       		.uleb128 0x6
 4401 1777 E3000000 		.4byte	.LASF417
 4402 177b 01       		.byte	0x1
 4403 177c 06       		.uleb128 0x6
 4404 177d 3B040000 		.4byte	.LASF418
 4405 1781 02       		.byte	0x2
 4406 1782 00       		.byte	0
 4407 1783 05       		.uleb128 0x5
 4408 1784 01       		.byte	0x1
 4409 1785 42000000 		.4byte	0x42
 4410 1789 1D       		.byte	0x1d
 4411 178a 17       		.byte	0x17
 4412 178b BA170000 		.4byte	0x17ba
 4413 178f 06       		.uleb128 0x6
 4414 1790 73080000 		.4byte	.LASF419
 4415 1794 00       		.byte	0
 4416 1795 06       		.uleb128 0x6
 4417 1796 13060000 		.4byte	.LASF420
 4418 179a 01       		.byte	0x1
 4419 179b 06       		.uleb128 0x6
 4420 179c AA150000 		.4byte	.LASF421
 4421 17a0 02       		.byte	0x2
 4422 17a1 06       		.uleb128 0x6
 4423 17a2 1A040000 		.4byte	.LASF422
 4424 17a6 03       		.byte	0x3
 4425 17a7 06       		.uleb128 0x6
 4426 17a8 B3090000 		.4byte	.LASF423
 4427 17ac 04       		.byte	0x4
 4428 17ad 06       		.uleb128 0x6
 4429 17ae CA100000 		.4byte	.LASF424
 4430 17b2 05       		.byte	0x5
 4431 17b3 06       		.uleb128 0x6
 4432 17b4 9F110000 		.4byte	.LASF425
 4433 17b8 06       		.byte	0x6
 4434 17b9 00       		.byte	0
 4435 17ba 09       		.uleb128 0x9
 4436 17bb 28       		.byte	0x28
 4437 17bc 1E       		.byte	0x1e
 4438 17bd 27       		.byte	0x27
 4439 17be E7170000 		.4byte	0x17e7
 4440 17c2 0A       		.uleb128 0xa
 4441 17c3 6F626A00 		.ascii	"obj\000"
 4442 17c7 1E       		.byte	0x1e
 4443 17c8 28       		.byte	0x28
 4444 17c9 53170000 		.4byte	0x1753
 4445 17cd 00       		.byte	0
 4446 17ce 0B       		.uleb128 0xb
 4447 17cf AC140000 		.4byte	.LASF67
 4448 17d3 1E       		.byte	0x1e
 4449 17d4 29       		.byte	0x29
 4450 17d5 EF030000 		.4byte	0x3ef
 4451 17d9 24       		.byte	0x24
 4452 17da 0B       		.uleb128 0xb
 4453 17db 630A0000 		.4byte	.LASF426
 4454 17df 1E       		.byte	0x1e
ARM GAS  C:\Users\haske\AppData\Local\Temp\ccoc8x2c.s 			page 95


 4455 17e0 2A       		.byte	0x2a
 4456 17e1 B8000000 		.4byte	0xb8
 4457 17e5 26       		.byte	0x26
 4458 17e6 00       		.byte	0
 4459 17e7 02       		.uleb128 0x2
 4460 17e8 63140000 		.4byte	.LASF427
 4461 17ec 1E       		.byte	0x1e
 4462 17ed 2B       		.byte	0x2b
 4463 17ee BA170000 		.4byte	0x17ba
 4464 17f2 05       		.uleb128 0x5
 4465 17f3 01       		.byte	0x1
 4466 17f4 42000000 		.4byte	0x42
 4467 17f8 1E       		.byte	0x1e
 4468 17f9 33       		.byte	0x33
 4469 17fa 05180000 		.4byte	0x1805
 4470 17fe 06       		.uleb128 0x6
 4471 17ff FE150000 		.4byte	.LASF428
 4472 1803 00       		.byte	0
 4473 1804 00       		.byte	0
 4474 1805 22       		.uleb128 0x22
 4475 1806 6F1D0000 		.4byte	.LASF429
 4476 180a 02       		.byte	0x2
 4477 180b 7701     		.2byte	0x177
 4478 180d E4000000 		.4byte	0xe4
 4479 1811 03       		.byte	0x3
 4480 1812 2F180000 		.4byte	0x182f
 4481 1816 23       		.uleb128 0x23
 4482 1817 AC140000 		.4byte	.LASF67
 4483 181b 02       		.byte	0x2
 4484 181c 7701     		.2byte	0x177
 4485 181e EF030000 		.4byte	0x3ef
 4486 1822 24       		.uleb128 0x24
 4487 1823 72657400 		.ascii	"ret\000"
 4488 1827 02       		.byte	0x2
 4489 1828 A301     		.2byte	0x1a3
 4490 182a E4030000 		.4byte	0x3e4
 4491 182e 00       		.byte	0
 4492 182f 22       		.uleb128 0x22
 4493 1830 8E050000 		.4byte	.LASF430
 4494 1834 02       		.byte	0x2
 4495 1835 4C02     		.2byte	0x24c
 4496 1837 EF030000 		.4byte	0x3ef
 4497 183b 03       		.byte	0x3
 4498 183c 5F180000 		.4byte	0x185f
 4499 1840 25       		.uleb128 0x25
 4500 1841 7200     		.ascii	"r\000"
 4501 1843 02       		.byte	0x2
 4502 1844 4C02     		.2byte	0x24c
 4503 1846 B8000000 		.4byte	0xb8
 4504 184a 25       		.uleb128 0x25
 4505 184b 6700     		.ascii	"g\000"
 4506 184d 02       		.byte	0x2
 4507 184e 4C02     		.2byte	0x24c
 4508 1850 B8000000 		.4byte	0xb8
 4509 1854 25       		.uleb128 0x25
 4510 1855 6200     		.ascii	"b\000"
 4511 1857 02       		.byte	0x2
ARM GAS  C:\Users\haske\AppData\Local\Temp\ccoc8x2c.s 			page 96


 4512 1858 4C02     		.2byte	0x24c
 4513 185a B8000000 		.4byte	0xb8
 4514 185e 00       		.byte	0
 4515 185f 22       		.uleb128 0x22
 4516 1860 741C0000 		.4byte	.LASF431
 4517 1864 02       		.byte	0x2
 4518 1865 B701     		.2byte	0x1b7
 4519 1867 EF030000 		.4byte	0x3ef
 4520 186b 03       		.byte	0x3
 4521 186c C1180000 		.4byte	0x18c1
 4522 1870 25       		.uleb128 0x25
 4523 1871 633100   		.ascii	"c1\000"
 4524 1874 02       		.byte	0x2
 4525 1875 B701     		.2byte	0x1b7
 4526 1877 EF030000 		.4byte	0x3ef
 4527 187b 25       		.uleb128 0x25
 4528 187c 633200   		.ascii	"c2\000"
 4529 187f 02       		.byte	0x2
 4530 1880 B701     		.2byte	0x1b7
 4531 1882 EF030000 		.4byte	0x3ef
 4532 1886 25       		.uleb128 0x25
 4533 1887 6D697800 		.ascii	"mix\000"
 4534 188b 02       		.byte	0x2
 4535 188c B701     		.2byte	0x1b7
 4536 188e B8000000 		.4byte	0xb8
 4537 1892 24       		.uleb128 0x24
 4538 1893 72657400 		.ascii	"ret\000"
 4539 1897 02       		.byte	0x2
 4540 1898 B901     		.2byte	0x1b9
 4541 189a EF030000 		.4byte	0x3ef
 4542 189e 24       		.uleb128 0x24
 4543 189f 626700   		.ascii	"bg\000"
 4544 18a2 02       		.byte	0x2
 4545 18a3 BE01     		.2byte	0x1be
 4546 18a5 E4000000 		.4byte	0xe4
 4547 18a9 24       		.uleb128 0x24
 4548 18aa 666700   		.ascii	"fg\000"
 4549 18ad 02       		.byte	0x2
 4550 18ae C001     		.2byte	0x1c0
 4551 18b0 E4000000 		.4byte	0xe4
 4552 18b4 26       		.uleb128 0x26
 4553 18b5 020E0000 		.4byte	.LASF432
 4554 18b9 02       		.byte	0x2
 4555 18ba C101     		.2byte	0x1c1
 4556 18bc E4000000 		.4byte	0xe4
 4557 18c0 00       		.byte	0
 4558 18c1 27       		.uleb128 0x27
 4559 18c2 27160000 		.4byte	.LASF479
 4560 18c6 02       		.byte	0x2
 4561 18c7 B502     		.2byte	0x2b5
 4562 18c9 EF030000 		.4byte	0x3ef
 4563 18cd 03       		.byte	0x3
 4564 18ce 28       		.uleb128 0x28
 4565 18cf 62170000 		.4byte	.LASF434
 4566 18d3 01       		.byte	0x1
 4567 18d4 96       		.byte	0x96
 4568 18d5 00000000 		.4byte	.LFB209
ARM GAS  C:\Users\haske\AppData\Local\Temp\ccoc8x2c.s 			page 97


 4569 18d9 14000000 		.4byte	.LFE209-.LFB209
 4570 18dd 01       		.uleb128 0x1
 4571 18de 9C       		.byte	0x9c
 4572 18df 21190000 		.4byte	0x1921
 4573 18e3 29       		.uleb128 0x29
 4574 18e4 CD120000 		.4byte	.LASF178
 4575 18e8 01       		.byte	0x1
 4576 18e9 96       		.byte	0x96
 4577 18ea 3C170000 		.4byte	0x173c
 4578 18ee 00000000 		.4byte	.LLST0
 4579 18f2 2A       		.uleb128 0x2a
 4580 18f3 6F626A00 		.ascii	"obj\000"
 4581 18f7 01       		.byte	0x1
 4582 18f8 96       		.byte	0x96
 4583 18f9 5E170000 		.4byte	0x175e
 4584 18fd 21000000 		.4byte	.LLST1
 4585 1901 2B       		.uleb128 0x2b
 4586 1902 6C656400 		.ascii	"led\000"
 4587 1906 01       		.byte	0x1
 4588 1907 99       		.byte	0x99
 4589 1908 21190000 		.4byte	0x1921
 4590 190c 4D000000 		.4byte	.LLST2
 4591 1910 2C       		.uleb128 0x2c
 4592 1911 0A000000 		.4byte	.LVL3
 4593 1915 E3230000 		.4byte	0x23e3
 4594 1919 2D       		.uleb128 0x2d
 4595 191a 01       		.uleb128 0x1
 4596 191b 50       		.byte	0x50
 4597 191c 02       		.uleb128 0x2
 4598 191d 74       		.byte	0x74
 4599 191e 00       		.sleb128 0
 4600 191f 00       		.byte	0
 4601 1920 00       		.byte	0
 4602 1921 08       		.uleb128 0x8
 4603 1922 04       		.byte	0x4
 4604 1923 E7170000 		.4byte	0x17e7
 4605 1927 22       		.uleb128 0x22
 4606 1928 AF120000 		.4byte	.LASF433
 4607 192c 02       		.byte	0x2
 4608 192d 4402     		.2byte	0x244
 4609 192f B8000000 		.4byte	0xb8
 4610 1933 03       		.byte	0x3
 4611 1934 5D190000 		.4byte	0x195d
 4612 1938 23       		.uleb128 0x23
 4613 1939 AC140000 		.4byte	.LASF67
 4614 193d 02       		.byte	0x2
 4615 193e 4402     		.2byte	0x244
 4616 1940 EF030000 		.4byte	0x3ef
 4617 1944 24       		.uleb128 0x24
 4618 1945 63333200 		.ascii	"c32\000"
 4619 1949 02       		.byte	0x2
 4620 194a 4602     		.2byte	0x246
 4621 194c E4030000 		.4byte	0x3e4
 4622 1950 26       		.uleb128 0x26
 4623 1951 630A0000 		.4byte	.LASF426
 4624 1955 02       		.byte	0x2
 4625 1956 4802     		.2byte	0x248
ARM GAS  C:\Users\haske\AppData\Local\Temp\ccoc8x2c.s 			page 98


 4626 1958 CE000000 		.4byte	0xce
 4627 195c 00       		.byte	0
 4628 195d 2E       		.uleb128 0x2e
 4629 195e 8C1D0000 		.4byte	.LASF435
 4630 1962 01       		.byte	0x1
 4631 1963 9E       		.byte	0x9e
 4632 1964 00000000 		.4byte	.LFB210
 4633 1968 E4040000 		.4byte	.LFE210-.LFB210
 4634 196c 01       		.uleb128 0x1
 4635 196d 9C       		.byte	0x9c
 4636 196e E2200000 		.4byte	0x20e2
 4637 1972 29       		.uleb128 0x29
 4638 1973 CD120000 		.4byte	.LASF178
 4639 1977 01       		.byte	0x1
 4640 1978 9E       		.byte	0x9e
 4641 1979 3C170000 		.4byte	0x173c
 4642 197d 79000000 		.4byte	.LLST3
 4643 1981 2A       		.uleb128 0x2a
 4644 1982 6500     		.ascii	"e\000"
 4645 1984 01       		.byte	0x1
 4646 1985 9E       		.byte	0x9e
 4647 1986 1B160000 		.4byte	0x161b
 4648 198a 9A000000 		.4byte	.LLST4
 4649 198e 2B       		.uleb128 0x2b
 4650 198f 72657300 		.ascii	"res\000"
 4651 1993 01       		.byte	0x1
 4652 1994 A2       		.byte	0xa2
 4653 1995 08010000 		.4byte	0x108
 4654 1999 D1000000 		.4byte	.LLST5
 4655 199d 2F       		.uleb128 0x2f
 4656 199e E40A0000 		.4byte	.LASF342
 4657 19a2 01       		.byte	0x1
 4658 19a3 A5       		.byte	0xa5
 4659 19a4 05160000 		.4byte	0x1605
 4660 19a8 E4000000 		.4byte	.LLST6
 4661 19ac 2B       		.uleb128 0x2b
 4662 19ad 6F626A00 		.ascii	"obj\000"
 4663 19b1 01       		.byte	0x1
 4664 19b2 AB       		.byte	0xab
 4665 19b3 5E170000 		.4byte	0x175e
 4666 19b7 F7000000 		.4byte	.LLST7
 4667 19bb 30       		.uleb128 0x30
 4668 19bc 3E000000 		.4byte	.LBB164
 4669 19c0 8E040000 		.4byte	.LBE164-.LBB164
 4670 19c4 9F200000 		.4byte	0x209f
 4671 19c8 2B       		.uleb128 0x2b
 4672 19c9 6C656400 		.ascii	"led\000"
 4673 19cd 01       		.byte	0x1
 4674 19ce AE       		.byte	0xae
 4675 19cf 21190000 		.4byte	0x1921
 4676 19d3 15010000 		.4byte	.LLST8
 4677 19d7 31       		.uleb128 0x31
 4678 19d8 3A020000 		.4byte	.LASF319
 4679 19dc 01       		.byte	0x1
 4680 19dd B0       		.byte	0xb0
 4681 19de 270A0000 		.4byte	0xa27
 4682 19e2 03       		.uleb128 0x3
ARM GAS  C:\Users\haske\AppData\Local\Temp\ccoc8x2c.s 			page 99


 4683 19e3 91       		.byte	0x91
 4684 19e4 D87E     		.sleb128 -168
 4685 19e6 2F       		.uleb128 0x2f
 4686 19e7 911B0000 		.4byte	.LASF316
 4687 19eb 01       		.byte	0x1
 4688 19ec CD       		.byte	0xcd
 4689 19ed 05110000 		.4byte	0x1105
 4690 19f1 33010000 		.4byte	.LLST9
 4691 19f5 31       		.uleb128 0x31
 4692 19f6 58190000 		.4byte	.LASF436
 4693 19fa 01       		.byte	0x1
 4694 19fb CF       		.byte	0xcf
 4695 19fc 14140000 		.4byte	0x1414
 4696 1a00 03       		.uleb128 0x3
 4697 1a01 91       		.byte	0x91
 4698 1a02 907F     		.sleb128 -112
 4699 1a04 32       		.uleb128 0x32
 4700 1a05 27190000 		.4byte	0x1927
 4701 1a09 52000000 		.4byte	.LBB165
 4702 1a0d 64000000 		.4byte	.LBE165-.LBB165
 4703 1a11 01       		.byte	0x1
 4704 1a12 B5       		.byte	0xb5
 4705 1a13 5E1A0000 		.4byte	0x1a5e
 4706 1a17 33       		.uleb128 0x33
 4707 1a18 38190000 		.4byte	0x1938
 4708 1a1c 34       		.uleb128 0x34
 4709 1a1d 52000000 		.4byte	.LBB166
 4710 1a21 64000000 		.4byte	.LBE166-.LBB166
 4711 1a25 35       		.uleb128 0x35
 4712 1a26 44190000 		.4byte	0x1944
 4713 1a2a 36       		.uleb128 0x36
 4714 1a2b 50190000 		.4byte	0x1950
 4715 1a2f 5C010000 		.4byte	.LLST10
 4716 1a33 37       		.uleb128 0x37
 4717 1a34 05180000 		.4byte	0x1805
 4718 1a38 52000000 		.4byte	.LBB167
 4719 1a3c 48000000 		.4byte	.LBE167-.LBB167
 4720 1a40 02       		.byte	0x2
 4721 1a41 4702     		.2byte	0x247
 4722 1a43 33       		.uleb128 0x33
 4723 1a44 16180000 		.4byte	0x1816
 4724 1a48 34       		.uleb128 0x34
 4725 1a49 52000000 		.4byte	.LBB168
 4726 1a4d 48000000 		.4byte	.LBE168-.LBB168
 4727 1a51 36       		.uleb128 0x36
 4728 1a52 22180000 		.4byte	0x1822
 4729 1a56 1F020000 		.4byte	.LLST11
 4730 1a5a 00       		.byte	0
 4731 1a5b 00       		.byte	0
 4732 1a5c 00       		.byte	0
 4733 1a5d 00       		.byte	0
 4734 1a5e 32       		.uleb128 0x32
 4735 1a5f 5F180000 		.4byte	0x185f
 4736 1a63 B6000000 		.4byte	.LBB169
 4737 1a67 1E000000 		.4byte	.LBE169-.LBB169
 4738 1a6b 01       		.byte	0x1
 4739 1a6c B5       		.byte	0xb5
ARM GAS  C:\Users\haske\AppData\Local\Temp\ccoc8x2c.s 			page 100


 4740 1a6d AF1A0000 		.4byte	0x1aaf
 4741 1a71 38       		.uleb128 0x38
 4742 1a72 86180000 		.4byte	0x1886
 4743 1a76 48020000 		.4byte	.LLST12
 4744 1a7a 33       		.uleb128 0x33
 4745 1a7b 7B180000 		.4byte	0x187b
 4746 1a7f 33       		.uleb128 0x33
 4747 1a80 70180000 		.4byte	0x1870
 4748 1a84 34       		.uleb128 0x34
 4749 1a85 B6000000 		.4byte	.LBB170
 4750 1a89 1E000000 		.4byte	.LBE170-.LBB170
 4751 1a8d 35       		.uleb128 0x35
 4752 1a8e 92180000 		.4byte	0x1892
 4753 1a92 36       		.uleb128 0x36
 4754 1a93 9E180000 		.4byte	0x189e
 4755 1a97 66040000 		.4byte	.LLST13
 4756 1a9b 36       		.uleb128 0x36
 4757 1a9c A9180000 		.4byte	0x18a9
 4758 1aa0 7A040000 		.4byte	.LLST14
 4759 1aa4 36       		.uleb128 0x36
 4760 1aa5 B4180000 		.4byte	0x18b4
 4761 1aa9 BE040000 		.4byte	.LLST15
 4762 1aad 00       		.byte	0
 4763 1aae 00       		.byte	0
 4764 1aaf 32       		.uleb128 0x32
 4765 1ab0 27190000 		.4byte	0x1927
 4766 1ab4 DA000000 		.4byte	.LBB171
 4767 1ab8 5C000000 		.4byte	.LBE171-.LBB171
 4768 1abc 01       		.byte	0x1
 4769 1abd B6       		.byte	0xb6
 4770 1abe 091B0000 		.4byte	0x1b09
 4771 1ac2 33       		.uleb128 0x33
 4772 1ac3 38190000 		.4byte	0x1938
 4773 1ac7 34       		.uleb128 0x34
 4774 1ac8 DA000000 		.4byte	.LBB172
 4775 1acc 5C000000 		.4byte	.LBE172-.LBB172
 4776 1ad0 35       		.uleb128 0x35
 4777 1ad1 44190000 		.4byte	0x1944
 4778 1ad5 36       		.uleb128 0x36
 4779 1ad6 50190000 		.4byte	0x1950
 4780 1ada FB060000 		.4byte	.LLST16
 4781 1ade 37       		.uleb128 0x37
 4782 1adf 05180000 		.4byte	0x1805
 4783 1ae3 DA000000 		.4byte	.LBB173
 4784 1ae7 40000000 		.4byte	.LBE173-.LBB173
 4785 1aeb 02       		.byte	0x2
 4786 1aec 4702     		.2byte	0x247
 4787 1aee 33       		.uleb128 0x33
 4788 1aef 16180000 		.4byte	0x1816
 4789 1af3 34       		.uleb128 0x34
 4790 1af4 DA000000 		.4byte	.LBB174
 4791 1af8 40000000 		.4byte	.LBE174-.LBB174
 4792 1afc 36       		.uleb128 0x36
 4793 1afd 22180000 		.4byte	0x1822
 4794 1b01 21070000 		.4byte	.LLST17
 4795 1b05 00       		.byte	0
 4796 1b06 00       		.byte	0
ARM GAS  C:\Users\haske\AppData\Local\Temp\ccoc8x2c.s 			page 101


 4797 1b07 00       		.byte	0
 4798 1b08 00       		.byte	0
 4799 1b09 32       		.uleb128 0x32
 4800 1b0a 5F180000 		.4byte	0x185f
 4801 1b0e 36010000 		.4byte	.LBB175
 4802 1b12 1C000000 		.4byte	.LBE175-.LBB175
 4803 1b16 01       		.byte	0x1
 4804 1b17 B6       		.byte	0xb6
 4805 1b18 5A1B0000 		.4byte	0x1b5a
 4806 1b1c 38       		.uleb128 0x38
 4807 1b1d 86180000 		.4byte	0x1886
 4808 1b21 4A070000 		.4byte	.LLST18
 4809 1b25 33       		.uleb128 0x33
 4810 1b26 7B180000 		.4byte	0x187b
 4811 1b2a 33       		.uleb128 0x33
 4812 1b2b 70180000 		.4byte	0x1870
 4813 1b2f 34       		.uleb128 0x34
 4814 1b30 36010000 		.4byte	.LBB176
 4815 1b34 1C000000 		.4byte	.LBE176-.LBB176
 4816 1b38 35       		.uleb128 0x35
 4817 1b39 92180000 		.4byte	0x1892
 4818 1b3d 36       		.uleb128 0x36
 4819 1b3e 9E180000 		.4byte	0x189e
 4820 1b42 1A080000 		.4byte	.LLST19
 4821 1b46 36       		.uleb128 0x36
 4822 1b47 A9180000 		.4byte	0x18a9
 4823 1b4b 2E080000 		.4byte	.LLST20
 4824 1b4f 36       		.uleb128 0x36
 4825 1b50 B4180000 		.4byte	0x18b4
 4826 1b54 72080000 		.4byte	.LLST21
 4827 1b58 00       		.byte	0
 4828 1b59 00       		.byte	0
 4829 1b5a 32       		.uleb128 0x32
 4830 1b5b 27190000 		.4byte	0x1927
 4831 1b5f 58010000 		.4byte	.LBB177
 4832 1b63 5C000000 		.4byte	.LBE177-.LBB177
 4833 1b67 01       		.byte	0x1
 4834 1b68 B8       		.byte	0xb8
 4835 1b69 B41B0000 		.4byte	0x1bb4
 4836 1b6d 33       		.uleb128 0x33
 4837 1b6e 38190000 		.4byte	0x1938
 4838 1b72 34       		.uleb128 0x34
 4839 1b73 58010000 		.4byte	.LBB178
 4840 1b77 5C000000 		.4byte	.LBE178-.LBB178
 4841 1b7b 35       		.uleb128 0x35
 4842 1b7c 44190000 		.4byte	0x1944
 4843 1b80 36       		.uleb128 0x36
 4844 1b81 50190000 		.4byte	0x1950
 4845 1b85 61090000 		.4byte	.LLST22
 4846 1b89 37       		.uleb128 0x37
 4847 1b8a 05180000 		.4byte	0x1805
 4848 1b8e 58010000 		.4byte	.LBB179
 4849 1b92 40000000 		.4byte	.LBE179-.LBB179
 4850 1b96 02       		.byte	0x2
 4851 1b97 4702     		.2byte	0x247
 4852 1b99 33       		.uleb128 0x33
 4853 1b9a 16180000 		.4byte	0x1816
ARM GAS  C:\Users\haske\AppData\Local\Temp\ccoc8x2c.s 			page 102


 4854 1b9e 34       		.uleb128 0x34
 4855 1b9f 58010000 		.4byte	.LBB180
 4856 1ba3 40000000 		.4byte	.LBE180-.LBB180
 4857 1ba7 36       		.uleb128 0x36
 4858 1ba8 22180000 		.4byte	0x1822
 4859 1bac 87090000 		.4byte	.LLST23
 4860 1bb0 00       		.byte	0
 4861 1bb1 00       		.byte	0
 4862 1bb2 00       		.byte	0
 4863 1bb3 00       		.byte	0
 4864 1bb4 32       		.uleb128 0x32
 4865 1bb5 5F180000 		.4byte	0x185f
 4866 1bb9 B4010000 		.4byte	.LBB181
 4867 1bbd 1C000000 		.4byte	.LBE181-.LBB181
 4868 1bc1 01       		.byte	0x1
 4869 1bc2 B8       		.byte	0xb8
 4870 1bc3 051C0000 		.4byte	0x1c05
 4871 1bc7 38       		.uleb128 0x38
 4872 1bc8 86180000 		.4byte	0x1886
 4873 1bcc B0090000 		.4byte	.LLST24
 4874 1bd0 33       		.uleb128 0x33
 4875 1bd1 7B180000 		.4byte	0x187b
 4876 1bd5 33       		.uleb128 0x33
 4877 1bd6 70180000 		.4byte	0x1870
 4878 1bda 34       		.uleb128 0x34
 4879 1bdb B4010000 		.4byte	.LBB182
 4880 1bdf 1C000000 		.4byte	.LBE182-.LBB182
 4881 1be3 35       		.uleb128 0x35
 4882 1be4 92180000 		.4byte	0x1892
 4883 1be8 36       		.uleb128 0x36
 4884 1be9 9E180000 		.4byte	0x189e
 4885 1bed CE0B0000 		.4byte	.LLST25
 4886 1bf1 36       		.uleb128 0x36
 4887 1bf2 A9180000 		.4byte	0x18a9
 4888 1bf6 E20B0000 		.4byte	.LLST26
 4889 1bfa 36       		.uleb128 0x36
 4890 1bfb B4180000 		.4byte	0x18b4
 4891 1bff 260C0000 		.4byte	.LLST27
 4892 1c03 00       		.byte	0
 4893 1c04 00       		.byte	0
 4894 1c05 32       		.uleb128 0x32
 4895 1c06 27190000 		.4byte	0x1927
 4896 1c0a D8010000 		.4byte	.LBB183
 4897 1c0e 66000000 		.4byte	.LBE183-.LBB183
 4898 1c12 01       		.byte	0x1
 4899 1c13 BA       		.byte	0xba
 4900 1c14 5F1C0000 		.4byte	0x1c5f
 4901 1c18 33       		.uleb128 0x33
 4902 1c19 38190000 		.4byte	0x1938
 4903 1c1d 34       		.uleb128 0x34
 4904 1c1e D8010000 		.4byte	.LBB184
 4905 1c22 66000000 		.4byte	.LBE184-.LBB184
 4906 1c26 35       		.uleb128 0x35
 4907 1c27 44190000 		.4byte	0x1944
 4908 1c2b 36       		.uleb128 0x36
 4909 1c2c 50190000 		.4byte	0x1950
 4910 1c30 630E0000 		.4byte	.LLST28
ARM GAS  C:\Users\haske\AppData\Local\Temp\ccoc8x2c.s 			page 103


 4911 1c34 37       		.uleb128 0x37
 4912 1c35 05180000 		.4byte	0x1805
 4913 1c39 D8010000 		.4byte	.LBB185
 4914 1c3d 46000000 		.4byte	.LBE185-.LBB185
 4915 1c41 02       		.byte	0x2
 4916 1c42 4702     		.2byte	0x247
 4917 1c44 33       		.uleb128 0x33
 4918 1c45 16180000 		.4byte	0x1816
 4919 1c49 34       		.uleb128 0x34
 4920 1c4a D8010000 		.4byte	.LBB186
 4921 1c4e 46000000 		.4byte	.LBE186-.LBB186
 4922 1c52 36       		.uleb128 0x36
 4923 1c53 22180000 		.4byte	0x1822
 4924 1c57 090F0000 		.4byte	.LLST29
 4925 1c5b 00       		.byte	0
 4926 1c5c 00       		.byte	0
 4927 1c5d 00       		.byte	0
 4928 1c5e 00       		.byte	0
 4929 1c5f 32       		.uleb128 0x32
 4930 1c60 5F180000 		.4byte	0x185f
 4931 1c64 3E020000 		.4byte	.LBB187
 4932 1c68 1C000000 		.4byte	.LBE187-.LBB187
 4933 1c6c 01       		.byte	0x1
 4934 1c6d BA       		.byte	0xba
 4935 1c6e B01C0000 		.4byte	0x1cb0
 4936 1c72 38       		.uleb128 0x38
 4937 1c73 86180000 		.4byte	0x1886
 4938 1c77 320F0000 		.4byte	.LLST30
 4939 1c7b 33       		.uleb128 0x33
 4940 1c7c 7B180000 		.4byte	0x187b
 4941 1c80 33       		.uleb128 0x33
 4942 1c81 70180000 		.4byte	0x1870
 4943 1c85 34       		.uleb128 0x34
 4944 1c86 3E020000 		.4byte	.LBB188
 4945 1c8a 1C000000 		.4byte	.LBE188-.LBB188
 4946 1c8e 35       		.uleb128 0x35
 4947 1c8f 92180000 		.4byte	0x1892
 4948 1c93 36       		.uleb128 0x36
 4949 1c94 9E180000 		.4byte	0x189e
 4950 1c98 77100000 		.4byte	.LLST31
 4951 1c9c 36       		.uleb128 0x36
 4952 1c9d A9180000 		.4byte	0x18a9
 4953 1ca1 8B100000 		.4byte	.LLST32
 4954 1ca5 36       		.uleb128 0x36
 4955 1ca6 B4180000 		.4byte	0x18b4
 4956 1caa C3100000 		.4byte	.LLST33
 4957 1cae 00       		.byte	0
 4958 1caf 00       		.byte	0
 4959 1cb0 32       		.uleb128 0x32
 4960 1cb1 27190000 		.4byte	0x1927
 4961 1cb5 62020000 		.4byte	.LBB189
 4962 1cb9 70000000 		.4byte	.LBE189-.LBB189
 4963 1cbd 01       		.byte	0x1
 4964 1cbe BB       		.byte	0xbb
 4965 1cbf 0A1D0000 		.4byte	0x1d0a
 4966 1cc3 33       		.uleb128 0x33
 4967 1cc4 38190000 		.4byte	0x1938
ARM GAS  C:\Users\haske\AppData\Local\Temp\ccoc8x2c.s 			page 104


 4968 1cc8 34       		.uleb128 0x34
 4969 1cc9 62020000 		.4byte	.LBB190
 4970 1ccd 70000000 		.4byte	.LBE190-.LBB190
 4971 1cd1 35       		.uleb128 0x35
 4972 1cd2 44190000 		.4byte	0x1944
 4973 1cd6 36       		.uleb128 0x36
 4974 1cd7 50190000 		.4byte	0x1950
 4975 1cdb 1B120000 		.4byte	.LLST34
 4976 1cdf 37       		.uleb128 0x37
 4977 1ce0 05180000 		.4byte	0x1805
 4978 1ce4 62020000 		.4byte	.LBB191
 4979 1ce8 4E000000 		.4byte	.LBE191-.LBB191
 4980 1cec 02       		.byte	0x2
 4981 1ced 4702     		.2byte	0x247
 4982 1cef 33       		.uleb128 0x33
 4983 1cf0 16180000 		.4byte	0x1816
 4984 1cf4 34       		.uleb128 0x34
 4985 1cf5 62020000 		.4byte	.LBB192
 4986 1cf9 4E000000 		.4byte	.LBE192-.LBB192
 4987 1cfd 36       		.uleb128 0x36
 4988 1cfe 22180000 		.4byte	0x1822
 4989 1d02 DE120000 		.4byte	.LLST35
 4990 1d06 00       		.byte	0
 4991 1d07 00       		.byte	0
 4992 1d08 00       		.byte	0
 4993 1d09 00       		.byte	0
 4994 1d0a 32       		.uleb128 0x32
 4995 1d0b 5F180000 		.4byte	0x185f
 4996 1d0f D2020000 		.4byte	.LBB193
 4997 1d13 20000000 		.4byte	.LBE193-.LBB193
 4998 1d17 01       		.byte	0x1
 4999 1d18 BB       		.byte	0xbb
 5000 1d19 5B1D0000 		.4byte	0x1d5b
 5001 1d1d 38       		.uleb128 0x38
 5002 1d1e 86180000 		.4byte	0x1886
 5003 1d22 07130000 		.4byte	.LLST36
 5004 1d26 33       		.uleb128 0x33
 5005 1d27 7B180000 		.4byte	0x187b
 5006 1d2b 33       		.uleb128 0x33
 5007 1d2c 70180000 		.4byte	0x1870
 5008 1d30 34       		.uleb128 0x34
 5009 1d31 D2020000 		.4byte	.LBB194
 5010 1d35 20000000 		.4byte	.LBE194-.LBB194
 5011 1d39 35       		.uleb128 0x35
 5012 1d3a 92180000 		.4byte	0x1892
 5013 1d3e 36       		.uleb128 0x36
 5014 1d3f 9E180000 		.4byte	0x189e
 5015 1d43 25150000 		.4byte	.LLST37
 5016 1d47 36       		.uleb128 0x36
 5017 1d48 A9180000 		.4byte	0x18a9
 5018 1d4c 39150000 		.4byte	.LLST38
 5019 1d50 36       		.uleb128 0x36
 5020 1d51 B4180000 		.4byte	0x18b4
 5021 1d55 71150000 		.4byte	.LLST39
 5022 1d59 00       		.byte	0
 5023 1d5a 00       		.byte	0
 5024 1d5b 32       		.uleb128 0x32
ARM GAS  C:\Users\haske\AppData\Local\Temp\ccoc8x2c.s 			page 105


 5025 1d5c 27190000 		.4byte	0x1927
 5026 1d60 FC020000 		.4byte	.LBB195
 5027 1d64 98000000 		.4byte	.LBE195-.LBB195
 5028 1d68 01       		.byte	0x1
 5029 1d69 BC       		.byte	0xbc
 5030 1d6a B51D0000 		.4byte	0x1db5
 5031 1d6e 33       		.uleb128 0x33
 5032 1d6f 38190000 		.4byte	0x1938
 5033 1d73 34       		.uleb128 0x34
 5034 1d74 FC020000 		.4byte	.LBB196
 5035 1d78 98000000 		.4byte	.LBE196-.LBB196
 5036 1d7c 35       		.uleb128 0x35
 5037 1d7d 44190000 		.4byte	0x1944
 5038 1d81 36       		.uleb128 0x36
 5039 1d82 50190000 		.4byte	0x1950
 5040 1d86 A2170000 		.4byte	.LLST40
 5041 1d8a 37       		.uleb128 0x37
 5042 1d8b 05180000 		.4byte	0x1805
 5043 1d8f FC020000 		.4byte	.LBB197
 5044 1d93 6A000000 		.4byte	.LBE197-.LBB197
 5045 1d97 02       		.byte	0x2
 5046 1d98 4702     		.2byte	0x247
 5047 1d9a 33       		.uleb128 0x33
 5048 1d9b 16180000 		.4byte	0x1816
 5049 1d9f 34       		.uleb128 0x34
 5050 1da0 FC020000 		.4byte	.LBB198
 5051 1da4 6A000000 		.4byte	.LBE198-.LBB198
 5052 1da8 36       		.uleb128 0x36
 5053 1da9 22180000 		.4byte	0x1822
 5054 1dad 68180000 		.4byte	.LLST41
 5055 1db1 00       		.byte	0
 5056 1db2 00       		.byte	0
 5057 1db3 00       		.byte	0
 5058 1db4 00       		.byte	0
 5059 1db5 32       		.uleb128 0x32
 5060 1db6 5F180000 		.4byte	0x185f
 5061 1dba 94030000 		.4byte	.LBB199
 5062 1dbe 26000000 		.4byte	.LBE199-.LBB199
 5063 1dc2 01       		.byte	0x1
 5064 1dc3 BC       		.byte	0xbc
 5065 1dc4 061E0000 		.4byte	0x1e06
 5066 1dc8 38       		.uleb128 0x38
 5067 1dc9 86180000 		.4byte	0x1886
 5068 1dcd 91180000 		.4byte	.LLST42
 5069 1dd1 33       		.uleb128 0x33
 5070 1dd2 7B180000 		.4byte	0x187b
 5071 1dd6 33       		.uleb128 0x33
 5072 1dd7 70180000 		.4byte	0x1870
 5073 1ddb 34       		.uleb128 0x34
 5074 1ddc 94030000 		.4byte	.LBB200
 5075 1de0 26000000 		.4byte	.LBE200-.LBB200
 5076 1de4 35       		.uleb128 0x35
 5077 1de5 92180000 		.4byte	0x1892
 5078 1de9 36       		.uleb128 0x36
 5079 1dea 9E180000 		.4byte	0x189e
 5080 1dee A4180000 		.4byte	.LLST43
 5081 1df2 36       		.uleb128 0x36
ARM GAS  C:\Users\haske\AppData\Local\Temp\ccoc8x2c.s 			page 106


 5082 1df3 A9180000 		.4byte	0x18a9
 5083 1df7 B8180000 		.4byte	.LLST44
 5084 1dfb 36       		.uleb128 0x36
 5085 1dfc B4180000 		.4byte	0x18b4
 5086 1e00 E6180000 		.4byte	.LLST45
 5087 1e04 00       		.byte	0
 5088 1e05 00       		.byte	0
 5089 1e06 32       		.uleb128 0x32
 5090 1e07 5F180000 		.4byte	0x185f
 5091 1e0b C4030000 		.4byte	.LBB201
 5092 1e0f 18000000 		.4byte	.LBE201-.LBB201
 5093 1e13 01       		.byte	0x1
 5094 1e14 BF       		.byte	0xbf
 5095 1e15 571E0000 		.4byte	0x1e57
 5096 1e19 38       		.uleb128 0x38
 5097 1e1a 86180000 		.4byte	0x1886
 5098 1e1e 11190000 		.4byte	.LLST46
 5099 1e22 33       		.uleb128 0x33
 5100 1e23 7B180000 		.4byte	0x187b
 5101 1e27 33       		.uleb128 0x33
 5102 1e28 70180000 		.4byte	0x1870
 5103 1e2c 34       		.uleb128 0x34
 5104 1e2d C4030000 		.4byte	.LBB202
 5105 1e31 18000000 		.4byte	.LBE202-.LBB202
 5106 1e35 35       		.uleb128 0x35
 5107 1e36 92180000 		.4byte	0x1892
 5108 1e3a 36       		.uleb128 0x36
 5109 1e3b 9E180000 		.4byte	0x189e
 5110 1e3f 52190000 		.4byte	.LLST47
 5111 1e43 36       		.uleb128 0x36
 5112 1e44 A9180000 		.4byte	0x18a9
 5113 1e48 66190000 		.4byte	.LLST48
 5114 1e4c 36       		.uleb128 0x36
 5115 1e4d B4180000 		.4byte	0x18b4
 5116 1e51 89190000 		.4byte	.LLST49
 5117 1e55 00       		.byte	0
 5118 1e56 00       		.byte	0
 5119 1e57 32       		.uleb128 0x32
 5120 1e58 5F180000 		.4byte	0x185f
 5121 1e5c E0030000 		.4byte	.LBB203
 5122 1e60 10000000 		.4byte	.LBE203-.LBB203
 5123 1e64 01       		.byte	0x1
 5124 1e65 C0       		.byte	0xc0
 5125 1e66 A41E0000 		.4byte	0x1ea4
 5126 1e6a 33       		.uleb128 0x33
 5127 1e6b 86180000 		.4byte	0x1886
 5128 1e6f 33       		.uleb128 0x33
 5129 1e70 7B180000 		.4byte	0x187b
 5130 1e74 33       		.uleb128 0x33
 5131 1e75 70180000 		.4byte	0x1870
 5132 1e79 34       		.uleb128 0x34
 5133 1e7a E0030000 		.4byte	.LBB204
 5134 1e7e 10000000 		.4byte	.LBE204-.LBB204
 5135 1e82 35       		.uleb128 0x35
 5136 1e83 92180000 		.4byte	0x1892
 5137 1e87 36       		.uleb128 0x36
 5138 1e88 9E180000 		.4byte	0x189e
ARM GAS  C:\Users\haske\AppData\Local\Temp\ccoc8x2c.s 			page 107


 5139 1e8c 9C190000 		.4byte	.LLST50
 5140 1e90 36       		.uleb128 0x36
 5141 1e91 A9180000 		.4byte	0x18a9
 5142 1e95 B0190000 		.4byte	.LLST51
 5143 1e99 36       		.uleb128 0x36
 5144 1e9a B4180000 		.4byte	0x18b4
 5145 1e9e D3190000 		.4byte	.LLST52
 5146 1ea2 00       		.byte	0
 5147 1ea3 00       		.byte	0
 5148 1ea4 32       		.uleb128 0x32
 5149 1ea5 5F180000 		.4byte	0x185f
 5150 1ea9 F2030000 		.4byte	.LBB205
 5151 1ead 1C000000 		.4byte	.LBE205-.LBB205
 5152 1eb1 01       		.byte	0x1
 5153 1eb2 C1       		.byte	0xc1
 5154 1eb3 F11E0000 		.4byte	0x1ef1
 5155 1eb7 33       		.uleb128 0x33
 5156 1eb8 86180000 		.4byte	0x1886
 5157 1ebc 33       		.uleb128 0x33
 5158 1ebd 7B180000 		.4byte	0x187b
 5159 1ec1 33       		.uleb128 0x33
 5160 1ec2 70180000 		.4byte	0x1870
 5161 1ec6 34       		.uleb128 0x34
 5162 1ec7 F2030000 		.4byte	.LBB206
 5163 1ecb 1C000000 		.4byte	.LBE206-.LBB206
 5164 1ecf 35       		.uleb128 0x35
 5165 1ed0 92180000 		.4byte	0x1892
 5166 1ed4 36       		.uleb128 0x36
 5167 1ed5 9E180000 		.4byte	0x189e
 5168 1ed9 E6190000 		.4byte	.LLST53
 5169 1edd 36       		.uleb128 0x36
 5170 1ede A9180000 		.4byte	0x18a9
 5171 1ee2 FA190000 		.4byte	.LLST54
 5172 1ee6 36       		.uleb128 0x36
 5173 1ee7 B4180000 		.4byte	0x18b4
 5174 1eeb 4B1A0000 		.4byte	.LLST55
 5175 1eef 00       		.byte	0
 5176 1ef0 00       		.byte	0
 5177 1ef1 32       		.uleb128 0x32
 5178 1ef2 5F180000 		.4byte	0x185f
 5179 1ef6 10040000 		.4byte	.LBB207
 5180 1efa 12000000 		.4byte	.LBE207-.LBB207
 5181 1efe 01       		.byte	0x1
 5182 1eff C2       		.byte	0xc2
 5183 1f00 3E1F0000 		.4byte	0x1f3e
 5184 1f04 33       		.uleb128 0x33
 5185 1f05 86180000 		.4byte	0x1886
 5186 1f09 33       		.uleb128 0x33
 5187 1f0a 7B180000 		.4byte	0x187b
 5188 1f0e 33       		.uleb128 0x33
 5189 1f0f 70180000 		.4byte	0x1870
 5190 1f13 34       		.uleb128 0x34
 5191 1f14 10040000 		.4byte	.LBB208
 5192 1f18 12000000 		.4byte	.LBE208-.LBB208
 5193 1f1c 35       		.uleb128 0x35
 5194 1f1d 92180000 		.4byte	0x1892
 5195 1f21 36       		.uleb128 0x36
ARM GAS  C:\Users\haske\AppData\Local\Temp\ccoc8x2c.s 			page 108


 5196 1f22 9E180000 		.4byte	0x189e
 5197 1f26 5E1A0000 		.4byte	.LLST56
 5198 1f2a 36       		.uleb128 0x36
 5199 1f2b A9180000 		.4byte	0x18a9
 5200 1f2f 721A0000 		.4byte	.LLST57
 5201 1f33 36       		.uleb128 0x36
 5202 1f34 B4180000 		.4byte	0x18b4
 5203 1f38 C21A0000 		.4byte	.LLST58
 5204 1f3c 00       		.byte	0
 5205 1f3d 00       		.byte	0
 5206 1f3e 32       		.uleb128 0x32
 5207 1f3f 5F180000 		.4byte	0x185f
 5208 1f43 26040000 		.4byte	.LBB209
 5209 1f47 12000000 		.4byte	.LBE209-.LBB209
 5210 1f4b 01       		.byte	0x1
 5211 1f4c C3       		.byte	0xc3
 5212 1f4d 8B1F0000 		.4byte	0x1f8b
 5213 1f51 33       		.uleb128 0x33
 5214 1f52 86180000 		.4byte	0x1886
 5215 1f56 33       		.uleb128 0x33
 5216 1f57 7B180000 		.4byte	0x187b
 5217 1f5b 33       		.uleb128 0x33
 5218 1f5c 70180000 		.4byte	0x1870
 5219 1f60 34       		.uleb128 0x34
 5220 1f61 26040000 		.4byte	.LBB210
 5221 1f65 12000000 		.4byte	.LBE210-.LBB210
 5222 1f69 35       		.uleb128 0x35
 5223 1f6a 92180000 		.4byte	0x1892
 5224 1f6e 36       		.uleb128 0x36
 5225 1f6f 9E180000 		.4byte	0x189e
 5226 1f73 D51A0000 		.4byte	.LLST59
 5227 1f77 36       		.uleb128 0x36
 5228 1f78 A9180000 		.4byte	0x18a9
 5229 1f7c E91A0000 		.4byte	.LLST60
 5230 1f80 36       		.uleb128 0x36
 5231 1f81 B4180000 		.4byte	0x18b4
 5232 1f85 211B0000 		.4byte	.LLST61
 5233 1f89 00       		.byte	0
 5234 1f8a 00       		.byte	0
 5235 1f8b 32       		.uleb128 0x32
 5236 1f8c 5F180000 		.4byte	0x185f
 5237 1f90 40040000 		.4byte	.LBB211
 5238 1f94 1C000000 		.4byte	.LBE211-.LBB211
 5239 1f98 01       		.byte	0x1
 5240 1f99 C4       		.byte	0xc4
 5241 1f9a DC1F0000 		.4byte	0x1fdc
 5242 1f9e 38       		.uleb128 0x38
 5243 1f9f 86180000 		.4byte	0x1886
 5244 1fa3 341B0000 		.4byte	.LLST62
 5245 1fa7 33       		.uleb128 0x33
 5246 1fa8 7B180000 		.4byte	0x187b
 5247 1fac 33       		.uleb128 0x33
 5248 1fad 70180000 		.4byte	0x1870
 5249 1fb1 34       		.uleb128 0x34
 5250 1fb2 40040000 		.4byte	.LBB212
 5251 1fb6 1C000000 		.4byte	.LBE212-.LBB212
 5252 1fba 35       		.uleb128 0x35
ARM GAS  C:\Users\haske\AppData\Local\Temp\ccoc8x2c.s 			page 109


 5253 1fbb 92180000 		.4byte	0x1892
 5254 1fbf 36       		.uleb128 0x36
 5255 1fc0 9E180000 		.4byte	0x189e
 5256 1fc4 611B0000 		.4byte	.LLST63
 5257 1fc8 36       		.uleb128 0x36
 5258 1fc9 A9180000 		.4byte	0x18a9
 5259 1fcd 751B0000 		.4byte	.LLST64
 5260 1fd1 36       		.uleb128 0x36
 5261 1fd2 B4180000 		.4byte	0x18b4
 5262 1fd6 981B0000 		.4byte	.LLST65
 5263 1fda 00       		.byte	0
 5264 1fdb 00       		.byte	0
 5265 1fdc 39       		.uleb128 0x39
 5266 1fdd 44000000 		.4byte	.LVL16
 5267 1fe1 EE230000 		.4byte	0x23ee
 5268 1fe5 F11F0000 		.4byte	0x1ff1
 5269 1fe9 2D       		.uleb128 0x2d
 5270 1fea 01       		.uleb128 0x1
 5271 1feb 50       		.byte	0x50
 5272 1fec 03       		.uleb128 0x3
 5273 1fed 91       		.byte	0x91
 5274 1fee D87E     		.sleb128 -168
 5275 1ff0 00       		.byte	0
 5276 1ff1 39       		.uleb128 0x39
 5277 1ff2 4E000000 		.4byte	.LVL17
 5278 1ff6 F9230000 		.4byte	0x23f9
 5279 1ffa 11200000 		.4byte	0x2011
 5280 1ffe 2D       		.uleb128 0x2d
 5281 1fff 01       		.uleb128 0x1
 5282 2000 50       		.byte	0x50
 5283 2001 02       		.uleb128 0x2
 5284 2002 77       		.byte	0x77
 5285 2003 00       		.sleb128 0
 5286 2004 2D       		.uleb128 0x2d
 5287 2005 01       		.uleb128 0x1
 5288 2006 51       		.byte	0x51
 5289 2007 01       		.uleb128 0x1
 5290 2008 30       		.byte	0x30
 5291 2009 2D       		.uleb128 0x2d
 5292 200a 01       		.uleb128 0x1
 5293 200b 52       		.byte	0x52
 5294 200c 03       		.uleb128 0x3
 5295 200d 91       		.byte	0x91
 5296 200e D87E     		.sleb128 -168
 5297 2010 00       		.byte	0
 5298 2011 39       		.uleb128 0x39
 5299 2012 90040000 		.4byte	.LVL176
 5300 2016 04240000 		.4byte	0x2404
 5301 201a 26200000 		.4byte	0x2026
 5302 201e 2D       		.uleb128 0x2d
 5303 201f 01       		.uleb128 0x1
 5304 2020 50       		.byte	0x50
 5305 2021 03       		.uleb128 0x3
 5306 2022 7D       		.byte	0x7d
 5307 2023 00       		.sleb128 0
 5308 2024 06       		.byte	0x6
 5309 2025 00       		.byte	0
ARM GAS  C:\Users\haske\AppData\Local\Temp\ccoc8x2c.s 			page 110


 5310 2026 39       		.uleb128 0x39
 5311 2027 9A040000 		.4byte	.LVL179
 5312 202b 10240000 		.4byte	0x2410
 5313 202f 41200000 		.4byte	0x2041
 5314 2033 2D       		.uleb128 0x2d
 5315 2034 01       		.uleb128 0x1
 5316 2035 50       		.byte	0x50
 5317 2036 03       		.uleb128 0x3
 5318 2037 91       		.byte	0x91
 5319 2038 907F     		.sleb128 -112
 5320 203a 2D       		.uleb128 0x2d
 5321 203b 01       		.uleb128 0x1
 5322 203c 51       		.byte	0x51
 5323 203d 02       		.uleb128 0x2
 5324 203e 74       		.byte	0x74
 5325 203f 00       		.sleb128 0
 5326 2040 00       		.byte	0
 5327 2041 39       		.uleb128 0x39
 5328 2042 B8040000 		.4byte	.LVL180
 5329 2046 1B240000 		.4byte	0x241b
 5330 204a 61200000 		.4byte	0x2061
 5331 204e 2D       		.uleb128 0x2d
 5332 204f 01       		.uleb128 0x1
 5333 2050 50       		.byte	0x50
 5334 2051 02       		.uleb128 0x2
 5335 2052 77       		.byte	0x77
 5336 2053 00       		.sleb128 0
 5337 2054 2D       		.uleb128 0x2d
 5338 2055 01       		.uleb128 0x1
 5339 2056 51       		.byte	0x51
 5340 2057 01       		.uleb128 0x1
 5341 2058 4A       		.byte	0x4a
 5342 2059 2D       		.uleb128 0x2d
 5343 205a 01       		.uleb128 0x1
 5344 205b 52       		.byte	0x52
 5345 205c 03       		.uleb128 0x3
 5346 205d 91       		.byte	0x91
 5347 205e 907F     		.sleb128 -112
 5348 2060 00       		.byte	0
 5349 2061 39       		.uleb128 0x39
 5350 2062 C2040000 		.4byte	.LVL181
 5351 2066 26240000 		.4byte	0x2426
 5352 206a 82200000 		.4byte	0x2082
 5353 206e 2D       		.uleb128 0x2d
 5354 206f 01       		.uleb128 0x1
 5355 2070 50       		.byte	0x50
 5356 2071 02       		.uleb128 0x2
 5357 2072 74       		.byte	0x74
 5358 2073 00       		.sleb128 0
 5359 2074 2D       		.uleb128 0x2d
 5360 2075 01       		.uleb128 0x1
 5361 2076 51       		.byte	0x51
 5362 2077 03       		.uleb128 0x3
 5363 2078 91       		.byte	0x91
 5364 2079 D87E     		.sleb128 -168
 5365 207b 2D       		.uleb128 0x2d
 5366 207c 01       		.uleb128 0x1
ARM GAS  C:\Users\haske\AppData\Local\Temp\ccoc8x2c.s 			page 111


 5367 207d 52       		.byte	0x52
 5368 207e 02       		.uleb128 0x2
 5369 207f 75       		.byte	0x75
 5370 2080 00       		.sleb128 0
 5371 2081 00       		.byte	0
 5372 2082 2C       		.uleb128 0x2c
 5373 2083 CC040000 		.4byte	.LVL182
 5374 2087 1B240000 		.4byte	0x241b
 5375 208b 2D       		.uleb128 0x2d
 5376 208c 01       		.uleb128 0x1
 5377 208d 50       		.byte	0x50
 5378 208e 02       		.uleb128 0x2
 5379 208f 77       		.byte	0x77
 5380 2090 00       		.sleb128 0
 5381 2091 2D       		.uleb128 0x2d
 5382 2092 01       		.uleb128 0x1
 5383 2093 51       		.byte	0x51
 5384 2094 01       		.uleb128 0x1
 5385 2095 4B       		.byte	0x4b
 5386 2096 2D       		.uleb128 0x2d
 5387 2097 01       		.uleb128 0x1
 5388 2098 52       		.byte	0x52
 5389 2099 03       		.uleb128 0x3
 5390 209a 91       		.byte	0x91
 5391 209b 907F     		.sleb128 -112
 5392 209d 00       		.byte	0
 5393 209e 00       		.byte	0
 5394 209f 39       		.uleb128 0x39
 5395 20a0 18000000 		.4byte	.LVL7
 5396 20a4 31240000 		.4byte	0x2431
 5397 20a8 B3200000 		.4byte	0x20b3
 5398 20ac 2D       		.uleb128 0x2d
 5399 20ad 01       		.uleb128 0x1
 5400 20ae 50       		.byte	0x50
 5401 20af 02       		.uleb128 0x2
 5402 20b0 74       		.byte	0x74
 5403 20b1 00       		.sleb128 0
 5404 20b2 00       		.byte	0
 5405 20b3 39       		.uleb128 0x39
 5406 20b4 2A000000 		.4byte	.LVL10
 5407 20b8 3C240000 		.4byte	0x243c
 5408 20bc D0200000 		.4byte	0x20d0
 5409 20c0 2D       		.uleb128 0x2d
 5410 20c1 01       		.uleb128 0x1
 5411 20c2 50       		.byte	0x50
 5412 20c3 05       		.uleb128 0x5
 5413 20c4 03       		.byte	0x3
 5414 20c5 00000000 		.4byte	.LANCHOR0
 5415 20c9 2D       		.uleb128 0x2d
 5416 20ca 01       		.uleb128 0x1
 5417 20cb 51       		.byte	0x51
 5418 20cc 02       		.uleb128 0x2
 5419 20cd 74       		.byte	0x74
 5420 20ce 00       		.sleb128 0
 5421 20cf 00       		.byte	0
 5422 20d0 2C       		.uleb128 0x2c
 5423 20d1 36000000 		.4byte	.LVL12
ARM GAS  C:\Users\haske\AppData\Local\Temp\ccoc8x2c.s 			page 112


 5424 20d5 47240000 		.4byte	0x2447
 5425 20d9 2D       		.uleb128 0x2d
 5426 20da 01       		.uleb128 0x1
 5427 20db 50       		.byte	0x50
 5428 20dc 03       		.uleb128 0x3
 5429 20dd 7D       		.byte	0x7d
 5430 20de 00       		.sleb128 0
 5431 20df 06       		.byte	0x6
 5432 20e0 00       		.byte	0
 5433 20e1 00       		.byte	0
 5434 20e2 3A       		.uleb128 0x3a
 5435 20e3 88110000 		.4byte	.LASF441
 5436 20e7 01       		.byte	0x1
 5437 20e8 36       		.byte	0x36
 5438 20e9 5E170000 		.4byte	0x175e
 5439 20ed 00000000 		.4byte	.LFB202
 5440 20f1 18000000 		.4byte	.LFE202-.LFB202
 5441 20f5 01       		.uleb128 0x1
 5442 20f6 9C       		.byte	0x9c
 5443 20f7 48210000 		.4byte	0x2148
 5444 20fb 29       		.uleb128 0x29
 5445 20fc 51190000 		.4byte	.LASF179
 5446 2100 01       		.byte	0x1
 5447 2101 36       		.byte	0x36
 5448 2102 5E170000 		.4byte	0x175e
 5449 2106 AB1B0000 		.4byte	.LLST66
 5450 210a 2B       		.uleb128 0x2b
 5451 210b 6F626A00 		.ascii	"obj\000"
 5452 210f 01       		.byte	0x1
 5453 2110 39       		.byte	0x39
 5454 2111 5E170000 		.4byte	0x175e
 5455 2115 D71B0000 		.4byte	.LLST67
 5456 2119 39       		.uleb128 0x39
 5457 211a 0A000000 		.4byte	.LVL186
 5458 211e 52240000 		.4byte	0x2452
 5459 2122 37210000 		.4byte	0x2137
 5460 2126 2D       		.uleb128 0x2d
 5461 2127 01       		.uleb128 0x1
 5462 2128 50       		.byte	0x50
 5463 2129 05       		.uleb128 0x5
 5464 212a 03       		.byte	0x3
 5465 212b 00000000 		.4byte	.LANCHOR0
 5466 212f 2D       		.uleb128 0x2d
 5467 2130 01       		.uleb128 0x1
 5468 2131 51       		.byte	0x51
 5469 2132 03       		.uleb128 0x3
 5470 2133 F3       		.byte	0xf3
 5471 2134 01       		.uleb128 0x1
 5472 2135 50       		.byte	0x50
 5473 2136 00       		.byte	0
 5474 2137 2C       		.uleb128 0x2c
 5475 2138 10000000 		.4byte	.LVL188
 5476 213c 5D240000 		.4byte	0x245d
 5477 2140 2D       		.uleb128 0x2d
 5478 2141 01       		.uleb128 0x1
 5479 2142 50       		.byte	0x50
 5480 2143 02       		.uleb128 0x2
ARM GAS  C:\Users\haske\AppData\Local\Temp\ccoc8x2c.s 			page 113


 5481 2144 74       		.byte	0x74
 5482 2145 00       		.sleb128 0
 5483 2146 00       		.byte	0
 5484 2147 00       		.byte	0
 5485 2148 3B       		.uleb128 0x3b
 5486 2149 0C1D0000 		.4byte	.LASF437
 5487 214d 01       		.byte	0x1
 5488 214e 47       		.byte	0x47
 5489 214f 00000000 		.4byte	.LFB203
 5490 2153 0A000000 		.4byte	.LFE203-.LFB203
 5491 2157 01       		.uleb128 0x1
 5492 2158 9C       		.byte	0x9c
 5493 2159 9C210000 		.4byte	0x219c
 5494 215d 2A       		.uleb128 0x2a
 5495 215e 6F626A00 		.ascii	"obj\000"
 5496 2162 01       		.byte	0x1
 5497 2163 47       		.byte	0x47
 5498 2164 5E170000 		.4byte	0x175e
 5499 2168 001C0000 		.4byte	.LLST68
 5500 216c 29       		.uleb128 0x29
 5501 216d AC140000 		.4byte	.LASF67
 5502 2171 01       		.byte	0x1
 5503 2172 47       		.byte	0x47
 5504 2173 EF030000 		.4byte	0x3ef
 5505 2177 211C0000 		.4byte	.LLST69
 5506 217b 2B       		.uleb128 0x2b
 5507 217c 6C656400 		.ascii	"led\000"
 5508 2180 01       		.byte	0x1
 5509 2181 4B       		.byte	0x4b
 5510 2182 21190000 		.4byte	0x1921
 5511 2186 341C0000 		.4byte	.LLST70
 5512 218a 2C       		.uleb128 0x2c
 5513 218b 08000000 		.4byte	.LVL192
 5514 218f 68240000 		.4byte	0x2468
 5515 2193 2D       		.uleb128 0x2d
 5516 2194 01       		.uleb128 0x1
 5517 2195 50       		.byte	0x50
 5518 2196 03       		.uleb128 0x3
 5519 2197 F3       		.byte	0xf3
 5520 2198 01       		.uleb128 0x1
 5521 2199 50       		.byte	0x50
 5522 219a 00       		.byte	0
 5523 219b 00       		.byte	0
 5524 219c 3B       		.uleb128 0x3b
 5525 219d 241A0000 		.4byte	.LASF438
 5526 21a1 01       		.byte	0x1
 5527 21a2 55       		.byte	0x55
 5528 21a3 00000000 		.4byte	.LFB204
 5529 21a7 20000000 		.4byte	.LFE204-.LFB204
 5530 21ab 01       		.uleb128 0x1
 5531 21ac 9C       		.byte	0x9c
 5532 21ad F0210000 		.4byte	0x21f0
 5533 21b1 2A       		.uleb128 0x2a
 5534 21b2 6F626A00 		.ascii	"obj\000"
 5535 21b6 01       		.byte	0x1
 5536 21b7 55       		.byte	0x55
 5537 21b8 5E170000 		.4byte	0x175e
ARM GAS  C:\Users\haske\AppData\Local\Temp\ccoc8x2c.s 			page 114


 5538 21bc 551C0000 		.4byte	.LLST71
 5539 21c0 29       		.uleb128 0x29
 5540 21c1 630A0000 		.4byte	.LASF426
 5541 21c5 01       		.byte	0x1
 5542 21c6 55       		.byte	0x55
 5543 21c7 B8000000 		.4byte	0xb8
 5544 21cb 761C0000 		.4byte	.LLST72
 5545 21cf 2B       		.uleb128 0x2b
 5546 21d0 6C656400 		.ascii	"led\000"
 5547 21d4 01       		.byte	0x1
 5548 21d5 59       		.byte	0x59
 5549 21d6 21190000 		.4byte	0x1921
 5550 21da 971C0000 		.4byte	.LLST73
 5551 21de 2C       		.uleb128 0x2c
 5552 21df 1E000000 		.4byte	.LVL196
 5553 21e3 68240000 		.4byte	0x2468
 5554 21e7 2D       		.uleb128 0x2d
 5555 21e8 01       		.uleb128 0x1
 5556 21e9 50       		.byte	0x50
 5557 21ea 03       		.uleb128 0x3
 5558 21eb F3       		.byte	0xf3
 5559 21ec 01       		.uleb128 0x1
 5560 21ed 50       		.byte	0x50
 5561 21ee 00       		.byte	0
 5562 21ef 00       		.byte	0
 5563 21f0 3B       		.uleb128 0x3b
 5564 21f1 730E0000 		.4byte	.LASF439
 5565 21f5 01       		.byte	0x1
 5566 21f6 66       		.byte	0x66
 5567 21f7 00000000 		.4byte	.LFB205
 5568 21fb 0A000000 		.4byte	.LFE205-.LFB205
 5569 21ff 01       		.uleb128 0x1
 5570 2200 9C       		.byte	0x9c
 5571 2201 2C220000 		.4byte	0x222c
 5572 2205 2A       		.uleb128 0x2a
 5573 2206 6C656400 		.ascii	"led\000"
 5574 220a 01       		.byte	0x1
 5575 220b 66       		.byte	0x66
 5576 220c 5E170000 		.4byte	0x175e
 5577 2210 B81C0000 		.4byte	.LLST74
 5578 2214 2C       		.uleb128 0x2c
 5579 2215 08000000 		.4byte	.LVL198
 5580 2219 9C210000 		.4byte	0x219c
 5581 221d 2D       		.uleb128 0x2d
 5582 221e 01       		.uleb128 0x1
 5583 221f 50       		.byte	0x50
 5584 2220 03       		.uleb128 0x3
 5585 2221 F3       		.byte	0xf3
 5586 2222 01       		.uleb128 0x1
 5587 2223 50       		.byte	0x50
 5588 2224 2D       		.uleb128 0x2d
 5589 2225 01       		.uleb128 0x1
 5590 2226 51       		.byte	0x51
 5591 2227 02       		.uleb128 0x2
 5592 2228 09       		.byte	0x9
 5593 2229 FF       		.byte	0xff
 5594 222a 00       		.byte	0
ARM GAS  C:\Users\haske\AppData\Local\Temp\ccoc8x2c.s 			page 115


 5595 222b 00       		.byte	0
 5596 222c 3B       		.uleb128 0x3b
 5597 222d CF010000 		.4byte	.LASF440
 5598 2231 01       		.byte	0x1
 5599 2232 6F       		.byte	0x6f
 5600 2233 00000000 		.4byte	.LFB206
 5601 2237 0A000000 		.4byte	.LFE206-.LFB206
 5602 223b 01       		.uleb128 0x1
 5603 223c 9C       		.byte	0x9c
 5604 223d 68220000 		.4byte	0x2268
 5605 2241 2A       		.uleb128 0x2a
 5606 2242 6C656400 		.ascii	"led\000"
 5607 2246 01       		.byte	0x1
 5608 2247 6F       		.byte	0x6f
 5609 2248 5E170000 		.4byte	0x175e
 5610 224c D91C0000 		.4byte	.LLST75
 5611 2250 2C       		.uleb128 0x2c
 5612 2251 08000000 		.4byte	.LVL200
 5613 2255 9C210000 		.4byte	0x219c
 5614 2259 2D       		.uleb128 0x2d
 5615 225a 01       		.uleb128 0x1
 5616 225b 50       		.byte	0x50
 5617 225c 03       		.uleb128 0x3
 5618 225d F3       		.byte	0xf3
 5619 225e 01       		.uleb128 0x1
 5620 225f 50       		.byte	0x50
 5621 2260 2D       		.uleb128 0x2d
 5622 2261 01       		.uleb128 0x1
 5623 2262 51       		.byte	0x51
 5624 2263 02       		.uleb128 0x2
 5625 2264 08       		.byte	0x8
 5626 2265 50       		.byte	0x50
 5627 2266 00       		.byte	0
 5628 2267 00       		.byte	0
 5629 2268 3A       		.uleb128 0x3a
 5630 2269 481C0000 		.4byte	.LASF442
 5631 226d 01       		.byte	0x1
 5632 226e 8A       		.byte	0x8a
 5633 226f B8000000 		.4byte	0xb8
 5634 2273 00000000 		.4byte	.LFB208
 5635 2277 06000000 		.4byte	.LFE208-.LFB208
 5636 227b 01       		.uleb128 0x1
 5637 227c 9C       		.byte	0x9c
 5638 227d A0220000 		.4byte	0x22a0
 5639 2281 2A       		.uleb128 0x2a
 5640 2282 6F626A00 		.ascii	"obj\000"
 5641 2286 01       		.byte	0x1
 5642 2287 8A       		.byte	0x8a
 5643 2288 A0220000 		.4byte	0x22a0
 5644 228c FA1C0000 		.4byte	.LLST76
 5645 2290 2B       		.uleb128 0x2b
 5646 2291 6C656400 		.ascii	"led\000"
 5647 2295 01       		.byte	0x1
 5648 2296 8E       		.byte	0x8e
 5649 2297 21190000 		.4byte	0x1921
 5650 229b 1B1D0000 		.4byte	.LLST77
 5651 229f 00       		.byte	0
ARM GAS  C:\Users\haske\AppData\Local\Temp\ccoc8x2c.s 			page 116


 5652 22a0 08       		.uleb128 0x8
 5653 22a1 04       		.byte	0x4
 5654 22a2 A6220000 		.4byte	0x22a6
 5655 22a6 0F       		.uleb128 0xf
 5656 22a7 53170000 		.4byte	0x1753
 5657 22ab 3B       		.uleb128 0x3b
 5658 22ac 27000000 		.4byte	.LASF443
 5659 22b0 01       		.byte	0x1
 5660 22b1 78       		.byte	0x78
 5661 22b2 00000000 		.4byte	.LFB207
 5662 22b6 1C000000 		.4byte	.LFE207-.LFB207
 5663 22ba 01       		.uleb128 0x1
 5664 22bb 9C       		.byte	0x9c
 5665 22bc 17230000 		.4byte	0x2317
 5666 22c0 2A       		.uleb128 0x2a
 5667 22c1 6F626A00 		.ascii	"obj\000"
 5668 22c5 01       		.byte	0x1
 5669 22c6 78       		.byte	0x78
 5670 22c7 5E170000 		.4byte	0x175e
 5671 22cb 3C1D0000 		.4byte	.LLST78
 5672 22cf 2F       		.uleb128 0x2f
 5673 22d0 630A0000 		.4byte	.LASF426
 5674 22d4 01       		.byte	0x1
 5675 22d5 7A       		.byte	0x7a
 5676 22d6 B8000000 		.4byte	0xb8
 5677 22da 681D0000 		.4byte	.LLST79
 5678 22de 39       		.uleb128 0x39
 5679 22df 08000000 		.4byte	.LVL204
 5680 22e3 68220000 		.4byte	0x2268
 5681 22e7 F2220000 		.4byte	0x22f2
 5682 22eb 2D       		.uleb128 0x2d
 5683 22ec 01       		.uleb128 0x1
 5684 22ed 50       		.byte	0x50
 5685 22ee 02       		.uleb128 0x2
 5686 22ef 74       		.byte	0x74
 5687 22f0 00       		.sleb128 0
 5688 22f1 00       		.byte	0
 5689 22f2 39       		.uleb128 0x39
 5690 22f3 12000000 		.4byte	.LVL206
 5691 22f7 2C220000 		.4byte	0x222c
 5692 22fb 06230000 		.4byte	0x2306
 5693 22ff 2D       		.uleb128 0x2d
 5694 2300 01       		.uleb128 0x1
 5695 2301 50       		.byte	0x50
 5696 2302 02       		.uleb128 0x2
 5697 2303 74       		.byte	0x74
 5698 2304 00       		.sleb128 0
 5699 2305 00       		.byte	0
 5700 2306 2C       		.uleb128 0x2c
 5701 2307 1A000000 		.4byte	.LVL209
 5702 230b F0210000 		.4byte	0x21f0
 5703 230f 2D       		.uleb128 0x2d
 5704 2310 01       		.uleb128 0x1
 5705 2311 50       		.byte	0x50
 5706 2312 02       		.uleb128 0x2
 5707 2313 74       		.byte	0x74
 5708 2314 00       		.sleb128 0
ARM GAS  C:\Users\haske\AppData\Local\Temp\ccoc8x2c.s 			page 117


 5709 2315 00       		.byte	0
 5710 2316 00       		.byte	0
 5711 2317 3C       		.uleb128 0x3c
 5712 2318 72110000 		.4byte	.LASF444
 5713 231c 08       		.byte	0x8
 5714 231d 94       		.byte	0x94
 5715 231e 070B0000 		.4byte	0xb07
 5716 2322 3C       		.uleb128 0x3c
 5717 2323 A50C0000 		.4byte	.LASF445
 5718 2327 0D       		.byte	0xd
 5719 2328 95       		.byte	0x95
 5720 2329 42170000 		.4byte	0x1742
 5721 232d 3C       		.uleb128 0x3c
 5722 232e B8070000 		.4byte	.LASF446
 5723 2332 1F       		.byte	0x1f
 5724 2333 3D       		.byte	0x3d
 5725 2334 3D070000 		.4byte	0x73d
 5726 2338 3C       		.uleb128 0x3c
 5727 2339 BE110000 		.4byte	.LASF447
 5728 233d 1F       		.byte	0x1f
 5729 233e 3E       		.byte	0x3e
 5730 233f 3D070000 		.4byte	0x73d
 5731 2343 3C       		.uleb128 0x3c
 5732 2344 9E070000 		.4byte	.LASF448
 5733 2348 1F       		.byte	0x1f
 5734 2349 3F       		.byte	0x3f
 5735 234a 3D070000 		.4byte	0x73d
 5736 234e 3C       		.uleb128 0x3c
 5737 234f DD1C0000 		.4byte	.LASF449
 5738 2353 1F       		.byte	0x1f
 5739 2354 40       		.byte	0x40
 5740 2355 3D070000 		.4byte	0x73d
 5741 2359 3C       		.uleb128 0x3c
 5742 235a 3E090000 		.4byte	.LASF450
 5743 235e 1F       		.byte	0x1f
 5744 235f 41       		.byte	0x41
 5745 2360 3D070000 		.4byte	0x73d
 5746 2364 3C       		.uleb128 0x3c
 5747 2365 9C050000 		.4byte	.LASF451
 5748 2369 20       		.byte	0x20
 5749 236a 39       		.byte	0x39
 5750 236b 3D070000 		.4byte	0x73d
 5751 236f 3C       		.uleb128 0x3c
 5752 2370 E40C0000 		.4byte	.LASF452
 5753 2374 20       		.byte	0x20
 5754 2375 3A       		.byte	0x3a
 5755 2376 3D070000 		.4byte	0x73d
 5756 237a 3C       		.uleb128 0x3c
 5757 237b 43020000 		.4byte	.LASF453
 5758 237f 20       		.byte	0x20
 5759 2380 3B       		.byte	0x3b
 5760 2381 3D070000 		.4byte	0x73d
 5761 2385 3C       		.uleb128 0x3c
 5762 2386 15020000 		.4byte	.LASF454
 5763 238a 20       		.byte	0x20
 5764 238b 3C       		.byte	0x3c
 5765 238c 3D070000 		.4byte	0x73d
ARM GAS  C:\Users\haske\AppData\Local\Temp\ccoc8x2c.s 			page 118


 5766 2390 3C       		.uleb128 0x3c
 5767 2391 1F0D0000 		.4byte	.LASF455
 5768 2395 20       		.byte	0x20
 5769 2396 3D       		.byte	0x3d
 5770 2397 3D070000 		.4byte	0x73d
 5771 239b 3C       		.uleb128 0x3c
 5772 239c 3C130000 		.4byte	.LASF456
 5773 23a0 20       		.byte	0x20
 5774 23a1 3E       		.byte	0x3e
 5775 23a2 3D070000 		.4byte	0x73d
 5776 23a6 3C       		.uleb128 0x3c
 5777 23a7 4B100000 		.4byte	.LASF457
 5778 23ab 20       		.byte	0x20
 5779 23ac 3F       		.byte	0x3f
 5780 23ad 3D070000 		.4byte	0x73d
 5781 23b1 3C       		.uleb128 0x3c
 5782 23b2 97160000 		.4byte	.LASF458
 5783 23b6 20       		.byte	0x20
 5784 23b7 40       		.byte	0x40
 5785 23b8 3D070000 		.4byte	0x73d
 5786 23bc 3C       		.uleb128 0x3c
 5787 23bd F1100000 		.4byte	.LASF459
 5788 23c1 20       		.byte	0x20
 5789 23c2 41       		.byte	0x41
 5790 23c3 3D070000 		.4byte	0x73d
 5791 23c7 3C       		.uleb128 0x3c
 5792 23c8 3F170000 		.4byte	.LASF460
 5793 23cc 20       		.byte	0x20
 5794 23cd 42       		.byte	0x42
 5795 23ce 3D070000 		.4byte	0x73d
 5796 23d2 3D       		.uleb128 0x3d
 5797 23d3 F1060000 		.4byte	.LASF461
 5798 23d7 01       		.byte	0x1
 5799 23d8 20       		.byte	0x20
 5800 23d9 42170000 		.4byte	0x1742
 5801 23dd 05       		.uleb128 0x5
 5802 23de 03       		.byte	0x3
 5803 23df 00000000 		.4byte	lv_led_class
 5804 23e3 3E       		.uleb128 0x3e
 5805 23e4 BE000000 		.4byte	.LASF462
 5806 23e8 BE000000 		.4byte	.LASF462
 5807 23ec 21       		.byte	0x21
 5808 23ed 67       		.byte	0x67
 5809 23ee 3E       		.uleb128 0x3e
 5810 23ef 2C1B0000 		.4byte	.LASF463
 5811 23f3 2C1B0000 		.4byte	.LASF463
 5812 23f7 0E       		.byte	0xe
 5813 23f8 4D       		.byte	0x4d
 5814 23f9 3E       		.uleb128 0x3e
 5815 23fa 6B0C0000 		.4byte	.LASF464
 5816 23fe 6B0C0000 		.4byte	.LASF464
 5817 2402 19       		.byte	0x19
 5818 2403 53       		.byte	0x53
 5819 2404 3F       		.uleb128 0x3f
 5820 2405 FD050000 		.4byte	.LASF465
 5821 2409 FD050000 		.4byte	.LASF465
 5822 240d 1B       		.byte	0x1b
ARM GAS  C:\Users\haske\AppData\Local\Temp\ccoc8x2c.s 			page 119


 5823 240e 2701     		.2byte	0x127
 5824 2410 3E       		.uleb128 0x3e
 5825 2411 51110000 		.4byte	.LASF466
 5826 2415 51110000 		.4byte	.LASF466
 5827 2419 19       		.byte	0x19
 5828 241a 88       		.byte	0x88
 5829 241b 3E       		.uleb128 0x3e
 5830 241c AD010000 		.4byte	.LASF467
 5831 2420 AD010000 		.4byte	.LASF467
 5832 2424 1B       		.byte	0x1b
 5833 2425 92       		.byte	0x92
 5834 2426 3E       		.uleb128 0x3e
 5835 2427 AE060000 		.4byte	.LASF468
 5836 242b AE060000 		.4byte	.LASF468
 5837 242f 0E       		.byte	0xe
 5838 2430 56       		.byte	0x56
 5839 2431 3E       		.uleb128 0x3e
 5840 2432 36030000 		.4byte	.LASF469
 5841 2436 36030000 		.4byte	.LASF469
 5842 243a 1B       		.byte	0x1b
 5843 243b B0       		.byte	0xb0
 5844 243c 3E       		.uleb128 0x3e
 5845 243d AB020000 		.4byte	.LASF470
 5846 2441 AB020000 		.4byte	.LASF470
 5847 2445 1B       		.byte	0x1b
 5848 2446 9A       		.byte	0x9a
 5849 2447 3E       		.uleb128 0x3e
 5850 2448 91090000 		.4byte	.LASF471
 5851 244c 91090000 		.4byte	.LASF471
 5852 2450 1B       		.byte	0x1b
 5853 2451 A1       		.byte	0xa1
 5854 2452 3E       		.uleb128 0x3e
 5855 2453 BF0C0000 		.4byte	.LASF472
 5856 2457 BF0C0000 		.4byte	.LASF472
 5857 245b 1A       		.byte	0x1a
 5858 245c 4B       		.byte	0x4b
 5859 245d 3E       		.uleb128 0x3e
 5860 245e 360A0000 		.4byte	.LASF473
 5861 2462 360A0000 		.4byte	.LASF473
 5862 2466 1A       		.byte	0x1a
 5863 2467 4D       		.byte	0x4d
 5864 2468 3F       		.uleb128 0x3f
 5865 2469 BB050000 		.4byte	.LASF474
 5866 246d BB050000 		.4byte	.LASF474
 5867 2471 22       		.byte	0x22
 5868 2472 7D01     		.2byte	0x17d
 5869 2474 00       		.byte	0
 5870              		.section	.debug_abbrev,"",%progbits
 5871              	.Ldebug_abbrev0:
 5872 0000 01       		.uleb128 0x1
 5873 0001 11       		.uleb128 0x11
 5874 0002 01       		.byte	0x1
 5875 0003 25       		.uleb128 0x25
 5876 0004 0E       		.uleb128 0xe
 5877 0005 13       		.uleb128 0x13
 5878 0006 0B       		.uleb128 0xb
 5879 0007 03       		.uleb128 0x3
ARM GAS  C:\Users\haske\AppData\Local\Temp\ccoc8x2c.s 			page 120


 5880 0008 0E       		.uleb128 0xe
 5881 0009 1B       		.uleb128 0x1b
 5882 000a 0E       		.uleb128 0xe
 5883 000b 55       		.uleb128 0x55
 5884 000c 17       		.uleb128 0x17
 5885 000d 11       		.uleb128 0x11
 5886 000e 01       		.uleb128 0x1
 5887 000f 10       		.uleb128 0x10
 5888 0010 17       		.uleb128 0x17
 5889 0011 00       		.byte	0
 5890 0012 00       		.byte	0
 5891 0013 02       		.uleb128 0x2
 5892 0014 16       		.uleb128 0x16
 5893 0015 00       		.byte	0
 5894 0016 03       		.uleb128 0x3
 5895 0017 0E       		.uleb128 0xe
 5896 0018 3A       		.uleb128 0x3a
 5897 0019 0B       		.uleb128 0xb
 5898 001a 3B       		.uleb128 0x3b
 5899 001b 0B       		.uleb128 0xb
 5900 001c 49       		.uleb128 0x49
 5901 001d 13       		.uleb128 0x13
 5902 001e 00       		.byte	0
 5903 001f 00       		.byte	0
 5904 0020 03       		.uleb128 0x3
 5905 0021 24       		.uleb128 0x24
 5906 0022 00       		.byte	0
 5907 0023 0B       		.uleb128 0xb
 5908 0024 0B       		.uleb128 0xb
 5909 0025 3E       		.uleb128 0x3e
 5910 0026 0B       		.uleb128 0xb
 5911 0027 03       		.uleb128 0x3
 5912 0028 0E       		.uleb128 0xe
 5913 0029 00       		.byte	0
 5914 002a 00       		.byte	0
 5915 002b 04       		.uleb128 0x4
 5916 002c 24       		.uleb128 0x24
 5917 002d 00       		.byte	0
 5918 002e 0B       		.uleb128 0xb
 5919 002f 0B       		.uleb128 0xb
 5920 0030 3E       		.uleb128 0x3e
 5921 0031 0B       		.uleb128 0xb
 5922 0032 03       		.uleb128 0x3
 5923 0033 08       		.uleb128 0x8
 5924 0034 00       		.byte	0
 5925 0035 00       		.byte	0
 5926 0036 05       		.uleb128 0x5
 5927 0037 04       		.uleb128 0x4
 5928 0038 01       		.byte	0x1
 5929 0039 0B       		.uleb128 0xb
 5930 003a 0B       		.uleb128 0xb
 5931 003b 49       		.uleb128 0x49
 5932 003c 13       		.uleb128 0x13
 5933 003d 3A       		.uleb128 0x3a
 5934 003e 0B       		.uleb128 0xb
 5935 003f 3B       		.uleb128 0x3b
 5936 0040 0B       		.uleb128 0xb
ARM GAS  C:\Users\haske\AppData\Local\Temp\ccoc8x2c.s 			page 121


 5937 0041 01       		.uleb128 0x1
 5938 0042 13       		.uleb128 0x13
 5939 0043 00       		.byte	0
 5940 0044 00       		.byte	0
 5941 0045 06       		.uleb128 0x6
 5942 0046 28       		.uleb128 0x28
 5943 0047 00       		.byte	0
 5944 0048 03       		.uleb128 0x3
 5945 0049 0E       		.uleb128 0xe
 5946 004a 1C       		.uleb128 0x1c
 5947 004b 0B       		.uleb128 0xb
 5948 004c 00       		.byte	0
 5949 004d 00       		.byte	0
 5950 004e 07       		.uleb128 0x7
 5951 004f 0F       		.uleb128 0xf
 5952 0050 00       		.byte	0
 5953 0051 0B       		.uleb128 0xb
 5954 0052 0B       		.uleb128 0xb
 5955 0053 00       		.byte	0
 5956 0054 00       		.byte	0
 5957 0055 08       		.uleb128 0x8
 5958 0056 0F       		.uleb128 0xf
 5959 0057 00       		.byte	0
 5960 0058 0B       		.uleb128 0xb
 5961 0059 0B       		.uleb128 0xb
 5962 005a 49       		.uleb128 0x49
 5963 005b 13       		.uleb128 0x13
 5964 005c 00       		.byte	0
 5965 005d 00       		.byte	0
 5966 005e 09       		.uleb128 0x9
 5967 005f 13       		.uleb128 0x13
 5968 0060 01       		.byte	0x1
 5969 0061 0B       		.uleb128 0xb
 5970 0062 0B       		.uleb128 0xb
 5971 0063 3A       		.uleb128 0x3a
 5972 0064 0B       		.uleb128 0xb
 5973 0065 3B       		.uleb128 0x3b
 5974 0066 0B       		.uleb128 0xb
 5975 0067 01       		.uleb128 0x1
 5976 0068 13       		.uleb128 0x13
 5977 0069 00       		.byte	0
 5978 006a 00       		.byte	0
 5979 006b 0A       		.uleb128 0xa
 5980 006c 0D       		.uleb128 0xd
 5981 006d 00       		.byte	0
 5982 006e 03       		.uleb128 0x3
 5983 006f 08       		.uleb128 0x8
 5984 0070 3A       		.uleb128 0x3a
 5985 0071 0B       		.uleb128 0xb
 5986 0072 3B       		.uleb128 0x3b
 5987 0073 0B       		.uleb128 0xb
 5988 0074 49       		.uleb128 0x49
 5989 0075 13       		.uleb128 0x13
 5990 0076 38       		.uleb128 0x38
 5991 0077 0B       		.uleb128 0xb
 5992 0078 00       		.byte	0
 5993 0079 00       		.byte	0
ARM GAS  C:\Users\haske\AppData\Local\Temp\ccoc8x2c.s 			page 122


 5994 007a 0B       		.uleb128 0xb
 5995 007b 0D       		.uleb128 0xd
 5996 007c 00       		.byte	0
 5997 007d 03       		.uleb128 0x3
 5998 007e 0E       		.uleb128 0xe
 5999 007f 3A       		.uleb128 0x3a
 6000 0080 0B       		.uleb128 0xb
 6001 0081 3B       		.uleb128 0x3b
 6002 0082 0B       		.uleb128 0xb
 6003 0083 49       		.uleb128 0x49
 6004 0084 13       		.uleb128 0x13
 6005 0085 38       		.uleb128 0x38
 6006 0086 0B       		.uleb128 0xb
 6007 0087 00       		.byte	0
 6008 0088 00       		.byte	0
 6009 0089 0C       		.uleb128 0xc
 6010 008a 0D       		.uleb128 0xd
 6011 008b 00       		.byte	0
 6012 008c 03       		.uleb128 0x3
 6013 008d 08       		.uleb128 0x8
 6014 008e 3A       		.uleb128 0x3a
 6015 008f 0B       		.uleb128 0xb
 6016 0090 3B       		.uleb128 0x3b
 6017 0091 0B       		.uleb128 0xb
 6018 0092 49       		.uleb128 0x49
 6019 0093 13       		.uleb128 0x13
 6020 0094 0B       		.uleb128 0xb
 6021 0095 0B       		.uleb128 0xb
 6022 0096 0D       		.uleb128 0xd
 6023 0097 0B       		.uleb128 0xb
 6024 0098 0C       		.uleb128 0xc
 6025 0099 0B       		.uleb128 0xb
 6026 009a 38       		.uleb128 0x38
 6027 009b 0B       		.uleb128 0xb
 6028 009c 00       		.byte	0
 6029 009d 00       		.byte	0
 6030 009e 0D       		.uleb128 0xd
 6031 009f 0D       		.uleb128 0xd
 6032 00a0 00       		.byte	0
 6033 00a1 03       		.uleb128 0x3
 6034 00a2 0E       		.uleb128 0xe
 6035 00a3 3A       		.uleb128 0x3a
 6036 00a4 0B       		.uleb128 0xb
 6037 00a5 3B       		.uleb128 0x3b
 6038 00a6 0B       		.uleb128 0xb
 6039 00a7 49       		.uleb128 0x49
 6040 00a8 13       		.uleb128 0x13
 6041 00a9 0B       		.uleb128 0xb
 6042 00aa 0B       		.uleb128 0xb
 6043 00ab 0D       		.uleb128 0xd
 6044 00ac 0B       		.uleb128 0xb
 6045 00ad 0C       		.uleb128 0xc
 6046 00ae 0B       		.uleb128 0xb
 6047 00af 38       		.uleb128 0x38
 6048 00b0 0B       		.uleb128 0xb
 6049 00b1 00       		.byte	0
 6050 00b2 00       		.byte	0
ARM GAS  C:\Users\haske\AppData\Local\Temp\ccoc8x2c.s 			page 123


 6051 00b3 0E       		.uleb128 0xe
 6052 00b4 13       		.uleb128 0x13
 6053 00b5 01       		.byte	0x1
 6054 00b6 03       		.uleb128 0x3
 6055 00b7 0E       		.uleb128 0xe
 6056 00b8 0B       		.uleb128 0xb
 6057 00b9 0B       		.uleb128 0xb
 6058 00ba 3A       		.uleb128 0x3a
 6059 00bb 0B       		.uleb128 0xb
 6060 00bc 3B       		.uleb128 0x3b
 6061 00bd 0B       		.uleb128 0xb
 6062 00be 01       		.uleb128 0x1
 6063 00bf 13       		.uleb128 0x13
 6064 00c0 00       		.byte	0
 6065 00c1 00       		.byte	0
 6066 00c2 0F       		.uleb128 0xf
 6067 00c3 26       		.uleb128 0x26
 6068 00c4 00       		.byte	0
 6069 00c5 49       		.uleb128 0x49
 6070 00c6 13       		.uleb128 0x13
 6071 00c7 00       		.byte	0
 6072 00c8 00       		.byte	0
 6073 00c9 10       		.uleb128 0x10
 6074 00ca 15       		.uleb128 0x15
 6075 00cb 01       		.byte	0x1
 6076 00cc 27       		.uleb128 0x27
 6077 00cd 19       		.uleb128 0x19
 6078 00ce 49       		.uleb128 0x49
 6079 00cf 13       		.uleb128 0x13
 6080 00d0 01       		.uleb128 0x1
 6081 00d1 13       		.uleb128 0x13
 6082 00d2 00       		.byte	0
 6083 00d3 00       		.byte	0
 6084 00d4 11       		.uleb128 0x11
 6085 00d5 05       		.uleb128 0x5
 6086 00d6 00       		.byte	0
 6087 00d7 49       		.uleb128 0x49
 6088 00d8 13       		.uleb128 0x13
 6089 00d9 00       		.byte	0
 6090 00da 00       		.byte	0
 6091 00db 12       		.uleb128 0x12
 6092 00dc 26       		.uleb128 0x26
 6093 00dd 00       		.byte	0
 6094 00de 00       		.byte	0
 6095 00df 00       		.byte	0
 6096 00e0 13       		.uleb128 0x13
 6097 00e1 17       		.uleb128 0x17
 6098 00e2 01       		.byte	0x1
 6099 00e3 0B       		.uleb128 0xb
 6100 00e4 0B       		.uleb128 0xb
 6101 00e5 3A       		.uleb128 0x3a
 6102 00e6 0B       		.uleb128 0xb
 6103 00e7 3B       		.uleb128 0x3b
 6104 00e8 0B       		.uleb128 0xb
 6105 00e9 01       		.uleb128 0x1
 6106 00ea 13       		.uleb128 0x13
 6107 00eb 00       		.byte	0
ARM GAS  C:\Users\haske\AppData\Local\Temp\ccoc8x2c.s 			page 124


 6108 00ec 00       		.byte	0
 6109 00ed 14       		.uleb128 0x14
 6110 00ee 0D       		.uleb128 0xd
 6111 00ef 00       		.byte	0
 6112 00f0 03       		.uleb128 0x3
 6113 00f1 08       		.uleb128 0x8
 6114 00f2 3A       		.uleb128 0x3a
 6115 00f3 0B       		.uleb128 0xb
 6116 00f4 3B       		.uleb128 0x3b
 6117 00f5 0B       		.uleb128 0xb
 6118 00f6 49       		.uleb128 0x49
 6119 00f7 13       		.uleb128 0x13
 6120 00f8 00       		.byte	0
 6121 00f9 00       		.byte	0
 6122 00fa 15       		.uleb128 0x15
 6123 00fb 0D       		.uleb128 0xd
 6124 00fc 00       		.byte	0
 6125 00fd 03       		.uleb128 0x3
 6126 00fe 0E       		.uleb128 0xe
 6127 00ff 3A       		.uleb128 0x3a
 6128 0100 0B       		.uleb128 0xb
 6129 0101 3B       		.uleb128 0x3b
 6130 0102 0B       		.uleb128 0xb
 6131 0103 49       		.uleb128 0x49
 6132 0104 13       		.uleb128 0x13
 6133 0105 00       		.byte	0
 6134 0106 00       		.byte	0
 6135 0107 16       		.uleb128 0x16
 6136 0108 01       		.uleb128 0x1
 6137 0109 01       		.byte	0x1
 6138 010a 49       		.uleb128 0x49
 6139 010b 13       		.uleb128 0x13
 6140 010c 01       		.uleb128 0x1
 6141 010d 13       		.uleb128 0x13
 6142 010e 00       		.byte	0
 6143 010f 00       		.byte	0
 6144 0110 17       		.uleb128 0x17
 6145 0111 21       		.uleb128 0x21
 6146 0112 00       		.byte	0
 6147 0113 49       		.uleb128 0x49
 6148 0114 13       		.uleb128 0x13
 6149 0115 2F       		.uleb128 0x2f
 6150 0116 0B       		.uleb128 0xb
 6151 0117 00       		.byte	0
 6152 0118 00       		.byte	0
 6153 0119 18       		.uleb128 0x18
 6154 011a 28       		.uleb128 0x28
 6155 011b 00       		.byte	0
 6156 011c 03       		.uleb128 0x3
 6157 011d 0E       		.uleb128 0xe
 6158 011e 1C       		.uleb128 0x1c
 6159 011f 05       		.uleb128 0x5
 6160 0120 00       		.byte	0
 6161 0121 00       		.byte	0
 6162 0122 19       		.uleb128 0x19
 6163 0123 16       		.uleb128 0x16
 6164 0124 00       		.byte	0
ARM GAS  C:\Users\haske\AppData\Local\Temp\ccoc8x2c.s 			page 125


 6165 0125 03       		.uleb128 0x3
 6166 0126 0E       		.uleb128 0xe
 6167 0127 3A       		.uleb128 0x3a
 6168 0128 0B       		.uleb128 0xb
 6169 0129 3B       		.uleb128 0x3b
 6170 012a 05       		.uleb128 0x5
 6171 012b 49       		.uleb128 0x49
 6172 012c 13       		.uleb128 0x13
 6173 012d 00       		.byte	0
 6174 012e 00       		.byte	0
 6175 012f 1A       		.uleb128 0x1a
 6176 0130 13       		.uleb128 0x13
 6177 0131 01       		.byte	0x1
 6178 0132 0B       		.uleb128 0xb
 6179 0133 0B       		.uleb128 0xb
 6180 0134 3A       		.uleb128 0x3a
 6181 0135 0B       		.uleb128 0xb
 6182 0136 3B       		.uleb128 0x3b
 6183 0137 05       		.uleb128 0x5
 6184 0138 01       		.uleb128 0x1
 6185 0139 13       		.uleb128 0x13
 6186 013a 00       		.byte	0
 6187 013b 00       		.byte	0
 6188 013c 1B       		.uleb128 0x1b
 6189 013d 0D       		.uleb128 0xd
 6190 013e 00       		.byte	0
 6191 013f 03       		.uleb128 0x3
 6192 0140 0E       		.uleb128 0xe
 6193 0141 3A       		.uleb128 0x3a
 6194 0142 0B       		.uleb128 0xb
 6195 0143 3B       		.uleb128 0x3b
 6196 0144 05       		.uleb128 0x5
 6197 0145 49       		.uleb128 0x49
 6198 0146 13       		.uleb128 0x13
 6199 0147 38       		.uleb128 0x38
 6200 0148 0B       		.uleb128 0xb
 6201 0149 00       		.byte	0
 6202 014a 00       		.byte	0
 6203 014b 1C       		.uleb128 0x1c
 6204 014c 17       		.uleb128 0x17
 6205 014d 01       		.byte	0x1
 6206 014e 0B       		.uleb128 0xb
 6207 014f 0B       		.uleb128 0xb
 6208 0150 3A       		.uleb128 0x3a
 6209 0151 0B       		.uleb128 0xb
 6210 0152 3B       		.uleb128 0x3b
 6211 0153 05       		.uleb128 0x5
 6212 0154 01       		.uleb128 0x1
 6213 0155 13       		.uleb128 0x13
 6214 0156 00       		.byte	0
 6215 0157 00       		.byte	0
 6216 0158 1D       		.uleb128 0x1d
 6217 0159 0D       		.uleb128 0xd
 6218 015a 00       		.byte	0
 6219 015b 03       		.uleb128 0x3
 6220 015c 0E       		.uleb128 0xe
 6221 015d 3A       		.uleb128 0x3a
ARM GAS  C:\Users\haske\AppData\Local\Temp\ccoc8x2c.s 			page 126


 6222 015e 0B       		.uleb128 0xb
 6223 015f 3B       		.uleb128 0x3b
 6224 0160 05       		.uleb128 0x5
 6225 0161 49       		.uleb128 0x49
 6226 0162 13       		.uleb128 0x13
 6227 0163 00       		.byte	0
 6228 0164 00       		.byte	0
 6229 0165 1E       		.uleb128 0x1e
 6230 0166 0D       		.uleb128 0xd
 6231 0167 00       		.byte	0
 6232 0168 03       		.uleb128 0x3
 6233 0169 08       		.uleb128 0x8
 6234 016a 3A       		.uleb128 0x3a
 6235 016b 0B       		.uleb128 0xb
 6236 016c 3B       		.uleb128 0x3b
 6237 016d 05       		.uleb128 0x5
 6238 016e 49       		.uleb128 0x49
 6239 016f 13       		.uleb128 0x13
 6240 0170 38       		.uleb128 0x38
 6241 0171 0B       		.uleb128 0xb
 6242 0172 00       		.byte	0
 6243 0173 00       		.byte	0
 6244 0174 1F       		.uleb128 0x1f
 6245 0175 15       		.uleb128 0x15
 6246 0176 01       		.byte	0x1
 6247 0177 27       		.uleb128 0x27
 6248 0178 19       		.uleb128 0x19
 6249 0179 01       		.uleb128 0x1
 6250 017a 13       		.uleb128 0x13
 6251 017b 00       		.byte	0
 6252 017c 00       		.byte	0
 6253 017d 20       		.uleb128 0x20
 6254 017e 28       		.uleb128 0x28
 6255 017f 00       		.byte	0
 6256 0180 03       		.uleb128 0x3
 6257 0181 0E       		.uleb128 0xe
 6258 0182 1C       		.uleb128 0x1c
 6259 0183 06       		.uleb128 0x6
 6260 0184 00       		.byte	0
 6261 0185 00       		.byte	0
 6262 0186 21       		.uleb128 0x21
 6263 0187 13       		.uleb128 0x13
 6264 0188 00       		.byte	0
 6265 0189 03       		.uleb128 0x3
 6266 018a 0E       		.uleb128 0xe
 6267 018b 3C       		.uleb128 0x3c
 6268 018c 19       		.uleb128 0x19
 6269 018d 00       		.byte	0
 6270 018e 00       		.byte	0
 6271 018f 22       		.uleb128 0x22
 6272 0190 2E       		.uleb128 0x2e
 6273 0191 01       		.byte	0x1
 6274 0192 03       		.uleb128 0x3
 6275 0193 0E       		.uleb128 0xe
 6276 0194 3A       		.uleb128 0x3a
 6277 0195 0B       		.uleb128 0xb
 6278 0196 3B       		.uleb128 0x3b
ARM GAS  C:\Users\haske\AppData\Local\Temp\ccoc8x2c.s 			page 127


 6279 0197 05       		.uleb128 0x5
 6280 0198 27       		.uleb128 0x27
 6281 0199 19       		.uleb128 0x19
 6282 019a 49       		.uleb128 0x49
 6283 019b 13       		.uleb128 0x13
 6284 019c 20       		.uleb128 0x20
 6285 019d 0B       		.uleb128 0xb
 6286 019e 01       		.uleb128 0x1
 6287 019f 13       		.uleb128 0x13
 6288 01a0 00       		.byte	0
 6289 01a1 00       		.byte	0
 6290 01a2 23       		.uleb128 0x23
 6291 01a3 05       		.uleb128 0x5
 6292 01a4 00       		.byte	0
 6293 01a5 03       		.uleb128 0x3
 6294 01a6 0E       		.uleb128 0xe
 6295 01a7 3A       		.uleb128 0x3a
 6296 01a8 0B       		.uleb128 0xb
 6297 01a9 3B       		.uleb128 0x3b
 6298 01aa 05       		.uleb128 0x5
 6299 01ab 49       		.uleb128 0x49
 6300 01ac 13       		.uleb128 0x13
 6301 01ad 00       		.byte	0
 6302 01ae 00       		.byte	0
 6303 01af 24       		.uleb128 0x24
 6304 01b0 34       		.uleb128 0x34
 6305 01b1 00       		.byte	0
 6306 01b2 03       		.uleb128 0x3
 6307 01b3 08       		.uleb128 0x8
 6308 01b4 3A       		.uleb128 0x3a
 6309 01b5 0B       		.uleb128 0xb
 6310 01b6 3B       		.uleb128 0x3b
 6311 01b7 05       		.uleb128 0x5
 6312 01b8 49       		.uleb128 0x49
 6313 01b9 13       		.uleb128 0x13
 6314 01ba 00       		.byte	0
 6315 01bb 00       		.byte	0
 6316 01bc 25       		.uleb128 0x25
 6317 01bd 05       		.uleb128 0x5
 6318 01be 00       		.byte	0
 6319 01bf 03       		.uleb128 0x3
 6320 01c0 08       		.uleb128 0x8
 6321 01c1 3A       		.uleb128 0x3a
 6322 01c2 0B       		.uleb128 0xb
 6323 01c3 3B       		.uleb128 0x3b
 6324 01c4 05       		.uleb128 0x5
 6325 01c5 49       		.uleb128 0x49
 6326 01c6 13       		.uleb128 0x13
 6327 01c7 00       		.byte	0
 6328 01c8 00       		.byte	0
 6329 01c9 26       		.uleb128 0x26
 6330 01ca 34       		.uleb128 0x34
 6331 01cb 00       		.byte	0
 6332 01cc 03       		.uleb128 0x3
 6333 01cd 0E       		.uleb128 0xe
 6334 01ce 3A       		.uleb128 0x3a
 6335 01cf 0B       		.uleb128 0xb
ARM GAS  C:\Users\haske\AppData\Local\Temp\ccoc8x2c.s 			page 128


 6336 01d0 3B       		.uleb128 0x3b
 6337 01d1 05       		.uleb128 0x5
 6338 01d2 49       		.uleb128 0x49
 6339 01d3 13       		.uleb128 0x13
 6340 01d4 00       		.byte	0
 6341 01d5 00       		.byte	0
 6342 01d6 27       		.uleb128 0x27
 6343 01d7 2E       		.uleb128 0x2e
 6344 01d8 00       		.byte	0
 6345 01d9 03       		.uleb128 0x3
 6346 01da 0E       		.uleb128 0xe
 6347 01db 3A       		.uleb128 0x3a
 6348 01dc 0B       		.uleb128 0xb
 6349 01dd 3B       		.uleb128 0x3b
 6350 01de 05       		.uleb128 0x5
 6351 01df 27       		.uleb128 0x27
 6352 01e0 19       		.uleb128 0x19
 6353 01e1 49       		.uleb128 0x49
 6354 01e2 13       		.uleb128 0x13
 6355 01e3 20       		.uleb128 0x20
 6356 01e4 0B       		.uleb128 0xb
 6357 01e5 00       		.byte	0
 6358 01e6 00       		.byte	0
 6359 01e7 28       		.uleb128 0x28
 6360 01e8 2E       		.uleb128 0x2e
 6361 01e9 01       		.byte	0x1
 6362 01ea 03       		.uleb128 0x3
 6363 01eb 0E       		.uleb128 0xe
 6364 01ec 3A       		.uleb128 0x3a
 6365 01ed 0B       		.uleb128 0xb
 6366 01ee 3B       		.uleb128 0x3b
 6367 01ef 0B       		.uleb128 0xb
 6368 01f0 27       		.uleb128 0x27
 6369 01f1 19       		.uleb128 0x19
 6370 01f2 11       		.uleb128 0x11
 6371 01f3 01       		.uleb128 0x1
 6372 01f4 12       		.uleb128 0x12
 6373 01f5 06       		.uleb128 0x6
 6374 01f6 40       		.uleb128 0x40
 6375 01f7 18       		.uleb128 0x18
 6376 01f8 9742     		.uleb128 0x2117
 6377 01fa 19       		.uleb128 0x19
 6378 01fb 01       		.uleb128 0x1
 6379 01fc 13       		.uleb128 0x13
 6380 01fd 00       		.byte	0
 6381 01fe 00       		.byte	0
 6382 01ff 29       		.uleb128 0x29
 6383 0200 05       		.uleb128 0x5
 6384 0201 00       		.byte	0
 6385 0202 03       		.uleb128 0x3
 6386 0203 0E       		.uleb128 0xe
 6387 0204 3A       		.uleb128 0x3a
 6388 0205 0B       		.uleb128 0xb
 6389 0206 3B       		.uleb128 0x3b
 6390 0207 0B       		.uleb128 0xb
 6391 0208 49       		.uleb128 0x49
 6392 0209 13       		.uleb128 0x13
ARM GAS  C:\Users\haske\AppData\Local\Temp\ccoc8x2c.s 			page 129


 6393 020a 02       		.uleb128 0x2
 6394 020b 17       		.uleb128 0x17
 6395 020c 00       		.byte	0
 6396 020d 00       		.byte	0
 6397 020e 2A       		.uleb128 0x2a
 6398 020f 05       		.uleb128 0x5
 6399 0210 00       		.byte	0
 6400 0211 03       		.uleb128 0x3
 6401 0212 08       		.uleb128 0x8
 6402 0213 3A       		.uleb128 0x3a
 6403 0214 0B       		.uleb128 0xb
 6404 0215 3B       		.uleb128 0x3b
 6405 0216 0B       		.uleb128 0xb
 6406 0217 49       		.uleb128 0x49
 6407 0218 13       		.uleb128 0x13
 6408 0219 02       		.uleb128 0x2
 6409 021a 17       		.uleb128 0x17
 6410 021b 00       		.byte	0
 6411 021c 00       		.byte	0
 6412 021d 2B       		.uleb128 0x2b
 6413 021e 34       		.uleb128 0x34
 6414 021f 00       		.byte	0
 6415 0220 03       		.uleb128 0x3
 6416 0221 08       		.uleb128 0x8
 6417 0222 3A       		.uleb128 0x3a
 6418 0223 0B       		.uleb128 0xb
 6419 0224 3B       		.uleb128 0x3b
 6420 0225 0B       		.uleb128 0xb
 6421 0226 49       		.uleb128 0x49
 6422 0227 13       		.uleb128 0x13
 6423 0228 02       		.uleb128 0x2
 6424 0229 17       		.uleb128 0x17
 6425 022a 00       		.byte	0
 6426 022b 00       		.byte	0
 6427 022c 2C       		.uleb128 0x2c
 6428 022d 898201   		.uleb128 0x4109
 6429 0230 01       		.byte	0x1
 6430 0231 11       		.uleb128 0x11
 6431 0232 01       		.uleb128 0x1
 6432 0233 31       		.uleb128 0x31
 6433 0234 13       		.uleb128 0x13
 6434 0235 00       		.byte	0
 6435 0236 00       		.byte	0
 6436 0237 2D       		.uleb128 0x2d
 6437 0238 8A8201   		.uleb128 0x410a
 6438 023b 00       		.byte	0
 6439 023c 02       		.uleb128 0x2
 6440 023d 18       		.uleb128 0x18
 6441 023e 9142     		.uleb128 0x2111
 6442 0240 18       		.uleb128 0x18
 6443 0241 00       		.byte	0
 6444 0242 00       		.byte	0
 6445 0243 2E       		.uleb128 0x2e
 6446 0244 2E       		.uleb128 0x2e
 6447 0245 01       		.byte	0x1
 6448 0246 03       		.uleb128 0x3
 6449 0247 0E       		.uleb128 0xe
ARM GAS  C:\Users\haske\AppData\Local\Temp\ccoc8x2c.s 			page 130


 6450 0248 3A       		.uleb128 0x3a
 6451 0249 0B       		.uleb128 0xb
 6452 024a 3B       		.uleb128 0x3b
 6453 024b 0B       		.uleb128 0xb
 6454 024c 27       		.uleb128 0x27
 6455 024d 19       		.uleb128 0x19
 6456 024e 11       		.uleb128 0x11
 6457 024f 01       		.uleb128 0x1
 6458 0250 12       		.uleb128 0x12
 6459 0251 06       		.uleb128 0x6
 6460 0252 40       		.uleb128 0x40
 6461 0253 18       		.uleb128 0x18
 6462 0254 9642     		.uleb128 0x2116
 6463 0256 19       		.uleb128 0x19
 6464 0257 01       		.uleb128 0x1
 6465 0258 13       		.uleb128 0x13
 6466 0259 00       		.byte	0
 6467 025a 00       		.byte	0
 6468 025b 2F       		.uleb128 0x2f
 6469 025c 34       		.uleb128 0x34
 6470 025d 00       		.byte	0
 6471 025e 03       		.uleb128 0x3
 6472 025f 0E       		.uleb128 0xe
 6473 0260 3A       		.uleb128 0x3a
 6474 0261 0B       		.uleb128 0xb
 6475 0262 3B       		.uleb128 0x3b
 6476 0263 0B       		.uleb128 0xb
 6477 0264 49       		.uleb128 0x49
 6478 0265 13       		.uleb128 0x13
 6479 0266 02       		.uleb128 0x2
 6480 0267 17       		.uleb128 0x17
 6481 0268 00       		.byte	0
 6482 0269 00       		.byte	0
 6483 026a 30       		.uleb128 0x30
 6484 026b 0B       		.uleb128 0xb
 6485 026c 01       		.byte	0x1
 6486 026d 11       		.uleb128 0x11
 6487 026e 01       		.uleb128 0x1
 6488 026f 12       		.uleb128 0x12
 6489 0270 06       		.uleb128 0x6
 6490 0271 01       		.uleb128 0x1
 6491 0272 13       		.uleb128 0x13
 6492 0273 00       		.byte	0
 6493 0274 00       		.byte	0
 6494 0275 31       		.uleb128 0x31
 6495 0276 34       		.uleb128 0x34
 6496 0277 00       		.byte	0
 6497 0278 03       		.uleb128 0x3
 6498 0279 0E       		.uleb128 0xe
 6499 027a 3A       		.uleb128 0x3a
 6500 027b 0B       		.uleb128 0xb
 6501 027c 3B       		.uleb128 0x3b
 6502 027d 0B       		.uleb128 0xb
 6503 027e 49       		.uleb128 0x49
 6504 027f 13       		.uleb128 0x13
 6505 0280 02       		.uleb128 0x2
 6506 0281 18       		.uleb128 0x18
ARM GAS  C:\Users\haske\AppData\Local\Temp\ccoc8x2c.s 			page 131


 6507 0282 00       		.byte	0
 6508 0283 00       		.byte	0
 6509 0284 32       		.uleb128 0x32
 6510 0285 1D       		.uleb128 0x1d
 6511 0286 01       		.byte	0x1
 6512 0287 31       		.uleb128 0x31
 6513 0288 13       		.uleb128 0x13
 6514 0289 11       		.uleb128 0x11
 6515 028a 01       		.uleb128 0x1
 6516 028b 12       		.uleb128 0x12
 6517 028c 06       		.uleb128 0x6
 6518 028d 58       		.uleb128 0x58
 6519 028e 0B       		.uleb128 0xb
 6520 028f 59       		.uleb128 0x59
 6521 0290 0B       		.uleb128 0xb
 6522 0291 01       		.uleb128 0x1
 6523 0292 13       		.uleb128 0x13
 6524 0293 00       		.byte	0
 6525 0294 00       		.byte	0
 6526 0295 33       		.uleb128 0x33
 6527 0296 05       		.uleb128 0x5
 6528 0297 00       		.byte	0
 6529 0298 31       		.uleb128 0x31
 6530 0299 13       		.uleb128 0x13
 6531 029a 00       		.byte	0
 6532 029b 00       		.byte	0
 6533 029c 34       		.uleb128 0x34
 6534 029d 0B       		.uleb128 0xb
 6535 029e 01       		.byte	0x1
 6536 029f 11       		.uleb128 0x11
 6537 02a0 01       		.uleb128 0x1
 6538 02a1 12       		.uleb128 0x12
 6539 02a2 06       		.uleb128 0x6
 6540 02a3 00       		.byte	0
 6541 02a4 00       		.byte	0
 6542 02a5 35       		.uleb128 0x35
 6543 02a6 34       		.uleb128 0x34
 6544 02a7 00       		.byte	0
 6545 02a8 31       		.uleb128 0x31
 6546 02a9 13       		.uleb128 0x13
 6547 02aa 00       		.byte	0
 6548 02ab 00       		.byte	0
 6549 02ac 36       		.uleb128 0x36
 6550 02ad 34       		.uleb128 0x34
 6551 02ae 00       		.byte	0
 6552 02af 31       		.uleb128 0x31
 6553 02b0 13       		.uleb128 0x13
 6554 02b1 02       		.uleb128 0x2
 6555 02b2 17       		.uleb128 0x17
 6556 02b3 00       		.byte	0
 6557 02b4 00       		.byte	0
 6558 02b5 37       		.uleb128 0x37
 6559 02b6 1D       		.uleb128 0x1d
 6560 02b7 01       		.byte	0x1
 6561 02b8 31       		.uleb128 0x31
 6562 02b9 13       		.uleb128 0x13
 6563 02ba 11       		.uleb128 0x11
ARM GAS  C:\Users\haske\AppData\Local\Temp\ccoc8x2c.s 			page 132


 6564 02bb 01       		.uleb128 0x1
 6565 02bc 12       		.uleb128 0x12
 6566 02bd 06       		.uleb128 0x6
 6567 02be 58       		.uleb128 0x58
 6568 02bf 0B       		.uleb128 0xb
 6569 02c0 59       		.uleb128 0x59
 6570 02c1 05       		.uleb128 0x5
 6571 02c2 00       		.byte	0
 6572 02c3 00       		.byte	0
 6573 02c4 38       		.uleb128 0x38
 6574 02c5 05       		.uleb128 0x5
 6575 02c6 00       		.byte	0
 6576 02c7 31       		.uleb128 0x31
 6577 02c8 13       		.uleb128 0x13
 6578 02c9 02       		.uleb128 0x2
 6579 02ca 17       		.uleb128 0x17
 6580 02cb 00       		.byte	0
 6581 02cc 00       		.byte	0
 6582 02cd 39       		.uleb128 0x39
 6583 02ce 898201   		.uleb128 0x4109
 6584 02d1 01       		.byte	0x1
 6585 02d2 11       		.uleb128 0x11
 6586 02d3 01       		.uleb128 0x1
 6587 02d4 31       		.uleb128 0x31
 6588 02d5 13       		.uleb128 0x13
 6589 02d6 01       		.uleb128 0x1
 6590 02d7 13       		.uleb128 0x13
 6591 02d8 00       		.byte	0
 6592 02d9 00       		.byte	0
 6593 02da 3A       		.uleb128 0x3a
 6594 02db 2E       		.uleb128 0x2e
 6595 02dc 01       		.byte	0x1
 6596 02dd 3F       		.uleb128 0x3f
 6597 02de 19       		.uleb128 0x19
 6598 02df 03       		.uleb128 0x3
 6599 02e0 0E       		.uleb128 0xe
 6600 02e1 3A       		.uleb128 0x3a
 6601 02e2 0B       		.uleb128 0xb
 6602 02e3 3B       		.uleb128 0x3b
 6603 02e4 0B       		.uleb128 0xb
 6604 02e5 27       		.uleb128 0x27
 6605 02e6 19       		.uleb128 0x19
 6606 02e7 49       		.uleb128 0x49
 6607 02e8 13       		.uleb128 0x13
 6608 02e9 11       		.uleb128 0x11
 6609 02ea 01       		.uleb128 0x1
 6610 02eb 12       		.uleb128 0x12
 6611 02ec 06       		.uleb128 0x6
 6612 02ed 40       		.uleb128 0x40
 6613 02ee 18       		.uleb128 0x18
 6614 02ef 9742     		.uleb128 0x2117
 6615 02f1 19       		.uleb128 0x19
 6616 02f2 01       		.uleb128 0x1
 6617 02f3 13       		.uleb128 0x13
 6618 02f4 00       		.byte	0
 6619 02f5 00       		.byte	0
 6620 02f6 3B       		.uleb128 0x3b
ARM GAS  C:\Users\haske\AppData\Local\Temp\ccoc8x2c.s 			page 133


 6621 02f7 2E       		.uleb128 0x2e
 6622 02f8 01       		.byte	0x1
 6623 02f9 3F       		.uleb128 0x3f
 6624 02fa 19       		.uleb128 0x19
 6625 02fb 03       		.uleb128 0x3
 6626 02fc 0E       		.uleb128 0xe
 6627 02fd 3A       		.uleb128 0x3a
 6628 02fe 0B       		.uleb128 0xb
 6629 02ff 3B       		.uleb128 0x3b
 6630 0300 0B       		.uleb128 0xb
 6631 0301 27       		.uleb128 0x27
 6632 0302 19       		.uleb128 0x19
 6633 0303 11       		.uleb128 0x11
 6634 0304 01       		.uleb128 0x1
 6635 0305 12       		.uleb128 0x12
 6636 0306 06       		.uleb128 0x6
 6637 0307 40       		.uleb128 0x40
 6638 0308 18       		.uleb128 0x18
 6639 0309 9742     		.uleb128 0x2117
 6640 030b 19       		.uleb128 0x19
 6641 030c 01       		.uleb128 0x1
 6642 030d 13       		.uleb128 0x13
 6643 030e 00       		.byte	0
 6644 030f 00       		.byte	0
 6645 0310 3C       		.uleb128 0x3c
 6646 0311 34       		.uleb128 0x34
 6647 0312 00       		.byte	0
 6648 0313 03       		.uleb128 0x3
 6649 0314 0E       		.uleb128 0xe
 6650 0315 3A       		.uleb128 0x3a
 6651 0316 0B       		.uleb128 0xb
 6652 0317 3B       		.uleb128 0x3b
 6653 0318 0B       		.uleb128 0xb
 6654 0319 49       		.uleb128 0x49
 6655 031a 13       		.uleb128 0x13
 6656 031b 3F       		.uleb128 0x3f
 6657 031c 19       		.uleb128 0x19
 6658 031d 3C       		.uleb128 0x3c
 6659 031e 19       		.uleb128 0x19
 6660 031f 00       		.byte	0
 6661 0320 00       		.byte	0
 6662 0321 3D       		.uleb128 0x3d
 6663 0322 34       		.uleb128 0x34
 6664 0323 00       		.byte	0
 6665 0324 03       		.uleb128 0x3
 6666 0325 0E       		.uleb128 0xe
 6667 0326 3A       		.uleb128 0x3a
 6668 0327 0B       		.uleb128 0xb
 6669 0328 3B       		.uleb128 0x3b
 6670 0329 0B       		.uleb128 0xb
 6671 032a 49       		.uleb128 0x49
 6672 032b 13       		.uleb128 0x13
 6673 032c 3F       		.uleb128 0x3f
 6674 032d 19       		.uleb128 0x19
 6675 032e 02       		.uleb128 0x2
 6676 032f 18       		.uleb128 0x18
 6677 0330 00       		.byte	0
ARM GAS  C:\Users\haske\AppData\Local\Temp\ccoc8x2c.s 			page 134


 6678 0331 00       		.byte	0
 6679 0332 3E       		.uleb128 0x3e
 6680 0333 2E       		.uleb128 0x2e
 6681 0334 00       		.byte	0
 6682 0335 3F       		.uleb128 0x3f
 6683 0336 19       		.uleb128 0x19
 6684 0337 3C       		.uleb128 0x3c
 6685 0338 19       		.uleb128 0x19
 6686 0339 6E       		.uleb128 0x6e
 6687 033a 0E       		.uleb128 0xe
 6688 033b 03       		.uleb128 0x3
 6689 033c 0E       		.uleb128 0xe
 6690 033d 3A       		.uleb128 0x3a
 6691 033e 0B       		.uleb128 0xb
 6692 033f 3B       		.uleb128 0x3b
 6693 0340 0B       		.uleb128 0xb
 6694 0341 00       		.byte	0
 6695 0342 00       		.byte	0
 6696 0343 3F       		.uleb128 0x3f
 6697 0344 2E       		.uleb128 0x2e
 6698 0345 00       		.byte	0
 6699 0346 3F       		.uleb128 0x3f
 6700 0347 19       		.uleb128 0x19
 6701 0348 3C       		.uleb128 0x3c
 6702 0349 19       		.uleb128 0x19
 6703 034a 6E       		.uleb128 0x6e
 6704 034b 0E       		.uleb128 0xe
 6705 034c 03       		.uleb128 0x3
 6706 034d 0E       		.uleb128 0xe
 6707 034e 3A       		.uleb128 0x3a
 6708 034f 0B       		.uleb128 0xb
 6709 0350 3B       		.uleb128 0x3b
 6710 0351 05       		.uleb128 0x5
 6711 0352 00       		.byte	0
 6712 0353 00       		.byte	0
 6713 0354 00       		.byte	0
 6714              		.section	.debug_loc,"",%progbits
 6715              	.Ldebug_loc0:
 6716              	.LLST0:
 6717 0000 00000000 		.4byte	.LVL0
 6718 0004 06000000 		.4byte	.LVL2
 6719 0008 0100     		.2byte	0x1
 6720 000a 50       		.byte	0x50
 6721 000b 06000000 		.4byte	.LVL2
 6722 000f 14000000 		.4byte	.LFE209
 6723 0013 0400     		.2byte	0x4
 6724 0015 F3       		.byte	0xf3
 6725 0016 01       		.uleb128 0x1
 6726 0017 50       		.byte	0x50
 6727 0018 9F       		.byte	0x9f
 6728 0019 00000000 		.4byte	0
 6729 001d 00000000 		.4byte	0
 6730              	.LLST1:
 6731 0021 00000000 		.4byte	.LVL0
 6732 0025 09000000 		.4byte	.LVL3-1
 6733 0029 0100     		.2byte	0x1
 6734 002b 51       		.byte	0x51
ARM GAS  C:\Users\haske\AppData\Local\Temp\ccoc8x2c.s 			page 135


 6735 002c 09000000 		.4byte	.LVL3-1
 6736 0030 12000000 		.4byte	.LVL4
 6737 0034 0100     		.2byte	0x1
 6738 0036 54       		.byte	0x54
 6739 0037 12000000 		.4byte	.LVL4
 6740 003b 14000000 		.4byte	.LFE209
 6741 003f 0400     		.2byte	0x4
 6742 0041 F3       		.byte	0xf3
 6743 0042 01       		.uleb128 0x1
 6744 0043 51       		.byte	0x51
 6745 0044 9F       		.byte	0x9f
 6746 0045 00000000 		.4byte	0
 6747 0049 00000000 		.4byte	0
 6748              	.LLST2:
 6749 004d 04000000 		.4byte	.LVL1
 6750 0051 09000000 		.4byte	.LVL3-1
 6751 0055 0100     		.2byte	0x1
 6752 0057 51       		.byte	0x51
 6753 0058 09000000 		.4byte	.LVL3-1
 6754 005c 12000000 		.4byte	.LVL4
 6755 0060 0100     		.2byte	0x1
 6756 0062 54       		.byte	0x54
 6757 0063 12000000 		.4byte	.LVL4
 6758 0067 14000000 		.4byte	.LFE209
 6759 006b 0400     		.2byte	0x4
 6760 006d F3       		.byte	0xf3
 6761 006e 01       		.uleb128 0x1
 6762 006f 51       		.byte	0x51
 6763 0070 9F       		.byte	0x9f
 6764 0071 00000000 		.4byte	0
 6765 0075 00000000 		.4byte	0
 6766              	.LLST3:
 6767 0079 00000000 		.4byte	.LVL5
 6768 007d 14000000 		.4byte	.LVL6
 6769 0081 0100     		.2byte	0x1
 6770 0083 50       		.byte	0x50
 6771 0084 14000000 		.4byte	.LVL6
 6772 0088 E4040000 		.4byte	.LFE210
 6773 008c 0400     		.2byte	0x4
 6774 008e F3       		.byte	0xf3
 6775 008f 01       		.uleb128 0x1
 6776 0090 50       		.byte	0x50
 6777 0091 9F       		.byte	0x9f
 6778 0092 00000000 		.4byte	0
 6779 0096 00000000 		.4byte	0
 6780              	.LLST4:
 6781 009a 00000000 		.4byte	.LVL5
 6782 009e 17000000 		.4byte	.LVL7-1
 6783 00a2 0100     		.2byte	0x1
 6784 00a4 51       		.byte	0x51
 6785 00a5 17000000 		.4byte	.LVL7-1
 6786 00a9 70010000 		.4byte	.LVL58
 6787 00ad 0100     		.2byte	0x1
 6788 00af 54       		.byte	0x54
 6789 00b0 70010000 		.4byte	.LVL58
 6790 00b4 CE040000 		.4byte	.LVL183
 6791 00b8 0200     		.2byte	0x2
ARM GAS  C:\Users\haske\AppData\Local\Temp\ccoc8x2c.s 			page 136


 6792 00ba 7D       		.byte	0x7d
 6793 00bb 00       		.sleb128 0
 6794 00bc CE040000 		.4byte	.LVL183
 6795 00c0 E4040000 		.4byte	.LFE210
 6796 00c4 0300     		.2byte	0x3
 6797 00c6 91       		.byte	0x91
 6798 00c7 C87E     		.sleb128 -184
 6799 00c9 00000000 		.4byte	0
 6800 00cd 00000000 		.4byte	0
 6801              	.LLST5:
 6802 00d1 2A000000 		.4byte	.LVL10
 6803 00d5 30000000 		.4byte	.LVL11
 6804 00d9 0100     		.2byte	0x1
 6805 00db 50       		.byte	0x50
 6806 00dc 00000000 		.4byte	0
 6807 00e0 00000000 		.4byte	0
 6808              	.LLST6:
 6809 00e4 1A000000 		.4byte	.LVL8
 6810 00e8 1C000000 		.4byte	.LVL9
 6811 00ec 0100     		.2byte	0x1
 6812 00ee 50       		.byte	0x50
 6813 00ef 00000000 		.4byte	0
 6814 00f3 00000000 		.4byte	0
 6815              	.LLST7:
 6816 00f7 38000000 		.4byte	.LVL13
 6817 00fb 40000000 		.4byte	.LVL15
 6818 00ff 0100     		.2byte	0x1
 6819 0101 50       		.byte	0x50
 6820 0102 40000000 		.4byte	.LVL15
 6821 0106 CC040000 		.4byte	.LVL182
 6822 010a 0100     		.2byte	0x1
 6823 010c 57       		.byte	0x57
 6824 010d 00000000 		.4byte	0
 6825 0111 00000000 		.4byte	0
 6826              	.LLST8:
 6827 0115 3E000000 		.4byte	.LVL14
 6828 0119 40000000 		.4byte	.LVL15
 6829 011d 0100     		.2byte	0x1
 6830 011f 50       		.byte	0x50
 6831 0120 40000000 		.4byte	.LVL15
 6832 0124 CC040000 		.4byte	.LVL182
 6833 0128 0100     		.2byte	0x1
 6834 012a 57       		.byte	0x57
 6835 012b 00000000 		.4byte	0
 6836 012f 00000000 		.4byte	0
 6837              	.LLST9:
 6838 0133 92040000 		.4byte	.LVL177
 6839 0137 96040000 		.4byte	.LVL178
 6840 013b 0100     		.2byte	0x1
 6841 013d 50       		.byte	0x50
 6842 013e 96040000 		.4byte	.LVL178
 6843 0142 99040000 		.4byte	.LVL179-1
 6844 0146 0100     		.2byte	0x1
 6845 0148 51       		.byte	0x51
 6846 0149 99040000 		.4byte	.LVL179-1
 6847 014d CC040000 		.4byte	.LVL182
 6848 0151 0100     		.2byte	0x1
ARM GAS  C:\Users\haske\AppData\Local\Temp\ccoc8x2c.s 			page 137


 6849 0153 54       		.byte	0x54
 6850 0154 00000000 		.4byte	0
 6851 0158 00000000 		.4byte	0
 6852              	.LLST10:
 6853 015c B2000000 		.4byte	.LVL26
 6854 0160 B4000000 		.4byte	.LVL27
 6855 0164 0100     		.2byte	0x1
 6856 0166 53       		.byte	0x53
 6857 0167 B4000000 		.4byte	.LVL27
 6858 016b B6000000 		.4byte	.LVL28
 6859 016f A600     		.2byte	0xa6
 6860 0171 91       		.byte	0x91
 6861 0172 DC7E     		.sleb128 -164
 6862 0174 94       		.byte	0x94
 6863 0175 02       		.byte	0x2
 6864 0176 0A       		.byte	0xa
 6865 0177 FFFF     		.2byte	0xffff
 6866 0179 1A       		.byte	0x1a
 6867 017a 3B       		.byte	0x3b
 6868 017b 25       		.byte	0x25
 6869 017c 35       		.byte	0x35
 6870 017d 24       		.byte	0x24
 6871 017e 91       		.byte	0x91
 6872 017f DC7E     		.sleb128 -164
 6873 0181 94       		.byte	0x94
 6874 0182 02       		.byte	0x2
 6875 0183 0A       		.byte	0xa
 6876 0184 FFFF     		.2byte	0xffff
 6877 0186 1A       		.byte	0x1a
 6878 0187 3B       		.byte	0x3b
 6879 0188 25       		.byte	0x25
 6880 0189 22       		.byte	0x22
 6881 018a 33       		.byte	0x33
 6882 018b 24       		.byte	0x24
 6883 018c 91       		.byte	0x91
 6884 018d DC7E     		.sleb128 -164
 6885 018f 94       		.byte	0x94
 6886 0190 02       		.byte	0x2
 6887 0191 0A       		.byte	0xa
 6888 0192 FFFF     		.2byte	0xffff
 6889 0194 1A       		.byte	0x1a
 6890 0195 3B       		.byte	0x3b
 6891 0196 25       		.byte	0x25
 6892 0197 1C       		.byte	0x1c
 6893 0198 23       		.byte	0x23
 6894 0199 07       		.uleb128 0x7
 6895 019a 35       		.byte	0x35
 6896 019b 26       		.byte	0x26
 6897 019c 08       		.byte	0x8
 6898 019d FF       		.byte	0xff
 6899 019e 1A       		.byte	0x1a
 6900 019f 40       		.byte	0x40
 6901 01a0 24       		.byte	0x24
 6902 01a1 91       		.byte	0x91
 6903 01a2 DC7E     		.sleb128 -164
 6904 01a4 94       		.byte	0x94
 6905 01a5 02       		.byte	0x2
ARM GAS  C:\Users\haske\AppData\Local\Temp\ccoc8x2c.s 			page 138


 6906 01a6 0A       		.byte	0xa
 6907 01a7 FFFF     		.2byte	0xffff
 6908 01a9 1A       		.byte	0x1a
 6909 01aa 45       		.byte	0x45
 6910 01ab 24       		.byte	0x24
 6911 01ac 4A       		.byte	0x4a
 6912 01ad 25       		.byte	0x25
 6913 01ae 37       		.byte	0x37
 6914 01af 24       		.byte	0x24
 6915 01b0 91       		.byte	0x91
 6916 01b1 DC7E     		.sleb128 -164
 6917 01b3 94       		.byte	0x94
 6918 01b4 02       		.byte	0x2
 6919 01b5 0A       		.byte	0xa
 6920 01b6 FFFF     		.2byte	0xffff
 6921 01b8 1A       		.byte	0x1a
 6922 01b9 45       		.byte	0x45
 6923 01ba 24       		.byte	0x24
 6924 01bb 4A       		.byte	0x4a
 6925 01bc 25       		.byte	0x25
 6926 01bd 22       		.byte	0x22
 6927 01be 31       		.byte	0x31
 6928 01bf 24       		.byte	0x24
 6929 01c0 91       		.byte	0x91
 6930 01c1 DC7E     		.sleb128 -164
 6931 01c3 94       		.byte	0x94
 6932 01c4 02       		.byte	0x2
 6933 01c5 0A       		.byte	0xa
 6934 01c6 FFFF     		.2byte	0xffff
 6935 01c8 1A       		.byte	0x1a
 6936 01c9 45       		.byte	0x45
 6937 01ca 24       		.byte	0x24
 6938 01cb 4A       		.byte	0x4a
 6939 01cc 25       		.byte	0x25
 6940 01cd 22       		.byte	0x22
 6941 01ce 23       		.byte	0x23
 6942 01cf 03       		.uleb128 0x3
 6943 01d0 36       		.byte	0x36
 6944 01d1 26       		.byte	0x26
 6945 01d2 08       		.byte	0x8
 6946 01d3 FF       		.byte	0xff
 6947 01d4 1A       		.byte	0x1a
 6948 01d5 38       		.byte	0x38
 6949 01d6 24       		.byte	0x24
 6950 01d7 21       		.byte	0x21
 6951 01d8 91       		.byte	0x91
 6952 01d9 DC7E     		.sleb128 -164
 6953 01db 94       		.byte	0x94
 6954 01dc 02       		.byte	0x2
 6955 01dd 0A       		.byte	0xa
 6956 01de FFFF     		.2byte	0xffff
 6957 01e0 1A       		.byte	0x1a
 6958 01e1 4B       		.byte	0x4b
 6959 01e2 24       		.byte	0x24
 6960 01e3 4B       		.byte	0x4b
 6961 01e4 25       		.byte	0x25
 6962 01e5 35       		.byte	0x35
ARM GAS  C:\Users\haske\AppData\Local\Temp\ccoc8x2c.s 			page 139


 6963 01e6 24       		.byte	0x24
 6964 01e7 91       		.byte	0x91
 6965 01e8 DC7E     		.sleb128 -164
 6966 01ea 94       		.byte	0x94
 6967 01eb 02       		.byte	0x2
 6968 01ec 0A       		.byte	0xa
 6969 01ed FFFF     		.2byte	0xffff
 6970 01ef 1A       		.byte	0x1a
 6971 01f0 4B       		.byte	0x4b
 6972 01f1 24       		.byte	0x24
 6973 01f2 4B       		.byte	0x4b
 6974 01f3 25       		.byte	0x25
 6975 01f4 22       		.byte	0x22
 6976 01f5 33       		.byte	0x33
 6977 01f6 24       		.byte	0x24
 6978 01f7 91       		.byte	0x91
 6979 01f8 DC7E     		.sleb128 -164
 6980 01fa 94       		.byte	0x94
 6981 01fb 02       		.byte	0x2
 6982 01fc 0A       		.byte	0xa
 6983 01fd FFFF     		.2byte	0xffff
 6984 01ff 1A       		.byte	0x1a
 6985 0200 4B       		.byte	0x4b
 6986 0201 24       		.byte	0x24
 6987 0202 4B       		.byte	0x4b
 6988 0203 25       		.byte	0x25
 6989 0204 1C       		.byte	0x1c
 6990 0205 23       		.byte	0x23
 6991 0206 07       		.uleb128 0x7
 6992 0207 35       		.byte	0x35
 6993 0208 26       		.byte	0x26
 6994 0209 08       		.byte	0x8
 6995 020a FF       		.byte	0xff
 6996 020b 1A       		.byte	0x1a
 6997 020c 21       		.byte	0x21
 6998 020d 7A       		.byte	0x7a
 6999 020e 00       		.sleb128 0
 7000 020f 21       		.byte	0x21
 7001 0210 08       		.byte	0x8
 7002 0211 FF       		.byte	0xff
 7003 0212 1A       		.byte	0x1a
 7004 0213 72       		.byte	0x72
 7005 0214 00       		.sleb128 0
 7006 0215 22       		.byte	0x22
 7007 0216 9F       		.byte	0x9f
 7008 0217 00000000 		.4byte	0
 7009 021b 00000000 		.4byte	0
 7010              	.LLST11:
 7011 021f 78000000 		.4byte	.LVL19
 7012 0223 7A000000 		.4byte	.LVL20
 7013 0227 0100     		.2byte	0x1
 7014 0229 53       		.byte	0x53
 7015 022a 90000000 		.4byte	.LVL21
 7016 022e 92000000 		.4byte	.LVL22
 7017 0232 0100     		.2byte	0x1
 7018 0234 53       		.byte	0x53
 7019 0235 98000000 		.4byte	.LVL23
ARM GAS  C:\Users\haske\AppData\Local\Temp\ccoc8x2c.s 			page 140


 7020 0239 AE000000 		.4byte	.LVL25
 7021 023d 0100     		.2byte	0x1
 7022 023f 53       		.byte	0x53
 7023 0240 00000000 		.4byte	0
 7024 0244 00000000 		.4byte	0
 7025              	.LLST12:
 7026 0248 BA000000 		.4byte	.LVL29
 7027 024c C8000000 		.4byte	.LVL33
 7028 0250 0100     		.2byte	0x1
 7029 0252 53       		.byte	0x53
 7030 0253 C8000000 		.4byte	.LVL33
 7031 0257 D4000000 		.4byte	.LVL37
 7032 025b 0102     		.2byte	0x201
 7033 025d 91       		.byte	0x91
 7034 025e DC7E     		.sleb128 -164
 7035 0260 94       		.byte	0x94
 7036 0261 02       		.byte	0x2
 7037 0262 0A       		.byte	0xa
 7038 0263 FFFF     		.2byte	0xffff
 7039 0265 1A       		.byte	0x1a
 7040 0266 3B       		.byte	0x3b
 7041 0267 25       		.byte	0x25
 7042 0268 35       		.byte	0x35
 7043 0269 24       		.byte	0x24
 7044 026a 91       		.byte	0x91
 7045 026b DC7E     		.sleb128 -164
 7046 026d 94       		.byte	0x94
 7047 026e 02       		.byte	0x2
 7048 026f 0A       		.byte	0xa
 7049 0270 FFFF     		.2byte	0xffff
 7050 0272 1A       		.byte	0x1a
 7051 0273 3B       		.byte	0x3b
 7052 0274 25       		.byte	0x25
 7053 0275 22       		.byte	0x22
 7054 0276 33       		.byte	0x33
 7055 0277 24       		.byte	0x24
 7056 0278 91       		.byte	0x91
 7057 0279 DC7E     		.sleb128 -164
 7058 027b 94       		.byte	0x94
 7059 027c 02       		.byte	0x2
 7060 027d 0A       		.byte	0xa
 7061 027e FFFF     		.2byte	0xffff
 7062 0280 1A       		.byte	0x1a
 7063 0281 3B       		.byte	0x3b
 7064 0282 25       		.byte	0x25
 7065 0283 1C       		.byte	0x1c
 7066 0284 23       		.byte	0x23
 7067 0285 07       		.uleb128 0x7
 7068 0286 35       		.byte	0x35
 7069 0287 26       		.byte	0x26
 7070 0288 08       		.byte	0x8
 7071 0289 FF       		.byte	0xff
 7072 028a 1A       		.byte	0x1a
 7073 028b 40       		.byte	0x40
 7074 028c 24       		.byte	0x24
 7075 028d 91       		.byte	0x91
 7076 028e DC7E     		.sleb128 -164
ARM GAS  C:\Users\haske\AppData\Local\Temp\ccoc8x2c.s 			page 141


 7077 0290 94       		.byte	0x94
 7078 0291 02       		.byte	0x2
 7079 0292 0A       		.byte	0xa
 7080 0293 FFFF     		.2byte	0xffff
 7081 0295 1A       		.byte	0x1a
 7082 0296 45       		.byte	0x45
 7083 0297 24       		.byte	0x24
 7084 0298 4A       		.byte	0x4a
 7085 0299 25       		.byte	0x25
 7086 029a 37       		.byte	0x37
 7087 029b 24       		.byte	0x24
 7088 029c 91       		.byte	0x91
 7089 029d DC7E     		.sleb128 -164
 7090 029f 94       		.byte	0x94
 7091 02a0 02       		.byte	0x2
 7092 02a1 0A       		.byte	0xa
 7093 02a2 FFFF     		.2byte	0xffff
 7094 02a4 1A       		.byte	0x1a
 7095 02a5 45       		.byte	0x45
 7096 02a6 24       		.byte	0x24
 7097 02a7 4A       		.byte	0x4a
 7098 02a8 25       		.byte	0x25
 7099 02a9 22       		.byte	0x22
 7100 02aa 31       		.byte	0x31
 7101 02ab 24       		.byte	0x24
 7102 02ac 91       		.byte	0x91
 7103 02ad DC7E     		.sleb128 -164
 7104 02af 94       		.byte	0x94
 7105 02b0 02       		.byte	0x2
 7106 02b1 0A       		.byte	0xa
 7107 02b2 FFFF     		.2byte	0xffff
 7108 02b4 1A       		.byte	0x1a
 7109 02b5 45       		.byte	0x45
 7110 02b6 24       		.byte	0x24
 7111 02b7 4A       		.byte	0x4a
 7112 02b8 25       		.byte	0x25
 7113 02b9 22       		.byte	0x22
 7114 02ba 23       		.byte	0x23
 7115 02bb 03       		.uleb128 0x3
 7116 02bc 36       		.byte	0x36
 7117 02bd 26       		.byte	0x26
 7118 02be 08       		.byte	0x8
 7119 02bf FF       		.byte	0xff
 7120 02c0 1A       		.byte	0x1a
 7121 02c1 38       		.byte	0x38
 7122 02c2 24       		.byte	0x24
 7123 02c3 21       		.byte	0x21
 7124 02c4 91       		.byte	0x91
 7125 02c5 DC7E     		.sleb128 -164
 7126 02c7 94       		.byte	0x94
 7127 02c8 02       		.byte	0x2
 7128 02c9 0A       		.byte	0xa
 7129 02ca FFFF     		.2byte	0xffff
 7130 02cc 1A       		.byte	0x1a
 7131 02cd 4B       		.byte	0x4b
 7132 02ce 24       		.byte	0x24
 7133 02cf 4B       		.byte	0x4b
ARM GAS  C:\Users\haske\AppData\Local\Temp\ccoc8x2c.s 			page 142


 7134 02d0 25       		.byte	0x25
 7135 02d1 35       		.byte	0x35
 7136 02d2 24       		.byte	0x24
 7137 02d3 91       		.byte	0x91
 7138 02d4 DC7E     		.sleb128 -164
 7139 02d6 94       		.byte	0x94
 7140 02d7 02       		.byte	0x2
 7141 02d8 0A       		.byte	0xa
 7142 02d9 FFFF     		.2byte	0xffff
 7143 02db 1A       		.byte	0x1a
 7144 02dc 4B       		.byte	0x4b
 7145 02dd 24       		.byte	0x24
 7146 02de 4B       		.byte	0x4b
 7147 02df 25       		.byte	0x25
 7148 02e0 22       		.byte	0x22
 7149 02e1 33       		.byte	0x33
 7150 02e2 24       		.byte	0x24
 7151 02e3 91       		.byte	0x91
 7152 02e4 DC7E     		.sleb128 -164
 7153 02e6 94       		.byte	0x94
 7154 02e7 02       		.byte	0x2
 7155 02e8 0A       		.byte	0xa
 7156 02e9 FFFF     		.2byte	0xffff
 7157 02eb 1A       		.byte	0x1a
 7158 02ec 4B       		.byte	0x4b
 7159 02ed 24       		.byte	0x24
 7160 02ee 4B       		.byte	0x4b
 7161 02ef 25       		.byte	0x25
 7162 02f0 1C       		.byte	0x1c
 7163 02f1 23       		.byte	0x23
 7164 02f2 07       		.uleb128 0x7
 7165 02f3 35       		.byte	0x35
 7166 02f4 26       		.byte	0x26
 7167 02f5 08       		.byte	0x8
 7168 02f6 FF       		.byte	0xff
 7169 02f7 1A       		.byte	0x1a
 7170 02f8 21       		.byte	0x21
 7171 02f9 7A       		.byte	0x7a
 7172 02fa 00       		.sleb128 0
 7173 02fb 21       		.byte	0x21
 7174 02fc 38       		.byte	0x38
 7175 02fd 24       		.byte	0x24
 7176 02fe 48       		.byte	0x48
 7177 02ff 25       		.byte	0x25
 7178 0300 91       		.byte	0x91
 7179 0301 DC7E     		.sleb128 -164
 7180 0303 94       		.byte	0x94
 7181 0304 02       		.byte	0x2
 7182 0305 0A       		.byte	0xa
 7183 0306 FFFF     		.2byte	0xffff
 7184 0308 1A       		.byte	0x1a
 7185 0309 3B       		.byte	0x3b
 7186 030a 25       		.byte	0x25
 7187 030b 35       		.byte	0x35
 7188 030c 24       		.byte	0x24
 7189 030d 91       		.byte	0x91
 7190 030e DC7E     		.sleb128 -164
ARM GAS  C:\Users\haske\AppData\Local\Temp\ccoc8x2c.s 			page 143


 7191 0310 94       		.byte	0x94
 7192 0311 02       		.byte	0x2
 7193 0312 0A       		.byte	0xa
 7194 0313 FFFF     		.2byte	0xffff
 7195 0315 1A       		.byte	0x1a
 7196 0316 3B       		.byte	0x3b
 7197 0317 25       		.byte	0x25
 7198 0318 22       		.byte	0x22
 7199 0319 33       		.byte	0x33
 7200 031a 24       		.byte	0x24
 7201 031b 91       		.byte	0x91
 7202 031c DC7E     		.sleb128 -164
 7203 031e 94       		.byte	0x94
 7204 031f 02       		.byte	0x2
 7205 0320 0A       		.byte	0xa
 7206 0321 FFFF     		.2byte	0xffff
 7207 0323 1A       		.byte	0x1a
 7208 0324 3B       		.byte	0x3b
 7209 0325 25       		.byte	0x25
 7210 0326 1C       		.byte	0x1c
 7211 0327 23       		.byte	0x23
 7212 0328 07       		.uleb128 0x7
 7213 0329 35       		.byte	0x35
 7214 032a 26       		.byte	0x26
 7215 032b 08       		.byte	0x8
 7216 032c FF       		.byte	0xff
 7217 032d 1A       		.byte	0x1a
 7218 032e 40       		.byte	0x40
 7219 032f 24       		.byte	0x24
 7220 0330 91       		.byte	0x91
 7221 0331 DC7E     		.sleb128 -164
 7222 0333 94       		.byte	0x94
 7223 0334 02       		.byte	0x2
 7224 0335 0A       		.byte	0xa
 7225 0336 FFFF     		.2byte	0xffff
 7226 0338 1A       		.byte	0x1a
 7227 0339 45       		.byte	0x45
 7228 033a 24       		.byte	0x24
 7229 033b 4A       		.byte	0x4a
 7230 033c 25       		.byte	0x25
 7231 033d 37       		.byte	0x37
 7232 033e 24       		.byte	0x24
 7233 033f 91       		.byte	0x91
 7234 0340 DC7E     		.sleb128 -164
 7235 0342 94       		.byte	0x94
 7236 0343 02       		.byte	0x2
 7237 0344 0A       		.byte	0xa
 7238 0345 FFFF     		.2byte	0xffff
 7239 0347 1A       		.byte	0x1a
 7240 0348 45       		.byte	0x45
 7241 0349 24       		.byte	0x24
 7242 034a 4A       		.byte	0x4a
 7243 034b 25       		.byte	0x25
 7244 034c 22       		.byte	0x22
 7245 034d 31       		.byte	0x31
 7246 034e 24       		.byte	0x24
 7247 034f 91       		.byte	0x91
ARM GAS  C:\Users\haske\AppData\Local\Temp\ccoc8x2c.s 			page 144


 7248 0350 DC7E     		.sleb128 -164
 7249 0352 94       		.byte	0x94
 7250 0353 02       		.byte	0x2
 7251 0354 0A       		.byte	0xa
 7252 0355 FFFF     		.2byte	0xffff
 7253 0357 1A       		.byte	0x1a
 7254 0358 45       		.byte	0x45
 7255 0359 24       		.byte	0x24
 7256 035a 4A       		.byte	0x4a
 7257 035b 25       		.byte	0x25
 7258 035c 22       		.byte	0x22
 7259 035d 23       		.byte	0x23
 7260 035e 03       		.uleb128 0x3
 7261 035f 36       		.byte	0x36
 7262 0360 26       		.byte	0x26
 7263 0361 08       		.byte	0x8
 7264 0362 FF       		.byte	0xff
 7265 0363 1A       		.byte	0x1a
 7266 0364 38       		.byte	0x38
 7267 0365 24       		.byte	0x24
 7268 0366 21       		.byte	0x21
 7269 0367 91       		.byte	0x91
 7270 0368 DC7E     		.sleb128 -164
 7271 036a 94       		.byte	0x94
 7272 036b 02       		.byte	0x2
 7273 036c 0A       		.byte	0xa
 7274 036d FFFF     		.2byte	0xffff
 7275 036f 1A       		.byte	0x1a
 7276 0370 4B       		.byte	0x4b
 7277 0371 24       		.byte	0x24
 7278 0372 4B       		.byte	0x4b
 7279 0373 25       		.byte	0x25
 7280 0374 35       		.byte	0x35
 7281 0375 24       		.byte	0x24
 7282 0376 91       		.byte	0x91
 7283 0377 DC7E     		.sleb128 -164
 7284 0379 94       		.byte	0x94
 7285 037a 02       		.byte	0x2
 7286 037b 0A       		.byte	0xa
 7287 037c FFFF     		.2byte	0xffff
 7288 037e 1A       		.byte	0x1a
 7289 037f 4B       		.byte	0x4b
 7290 0380 24       		.byte	0x24
 7291 0381 4B       		.byte	0x4b
 7292 0382 25       		.byte	0x25
 7293 0383 22       		.byte	0x22
 7294 0384 33       		.byte	0x33
 7295 0385 24       		.byte	0x24
 7296 0386 91       		.byte	0x91
 7297 0387 DC7E     		.sleb128 -164
 7298 0389 94       		.byte	0x94
 7299 038a 02       		.byte	0x2
 7300 038b 0A       		.byte	0xa
 7301 038c FFFF     		.2byte	0xffff
 7302 038e 1A       		.byte	0x1a
 7303 038f 4B       		.byte	0x4b
 7304 0390 24       		.byte	0x24
ARM GAS  C:\Users\haske\AppData\Local\Temp\ccoc8x2c.s 			page 145


 7305 0391 4B       		.byte	0x4b
 7306 0392 25       		.byte	0x25
 7307 0393 1C       		.byte	0x1c
 7308 0394 23       		.byte	0x23
 7309 0395 07       		.uleb128 0x7
 7310 0396 35       		.byte	0x35
 7311 0397 26       		.byte	0x26
 7312 0398 08       		.byte	0x8
 7313 0399 FF       		.byte	0xff
 7314 039a 1A       		.byte	0x1a
 7315 039b 21       		.byte	0x21
 7316 039c 7A       		.byte	0x7a
 7317 039d 00       		.sleb128 0
 7318 039e 21       		.byte	0x21
 7319 039f 40       		.byte	0x40
 7320 03a0 24       		.byte	0x24
 7321 03a1 48       		.byte	0x48
 7322 03a2 25       		.byte	0x25
 7323 03a3 32       		.byte	0x32
 7324 03a4 24       		.byte	0x24
 7325 03a5 22       		.byte	0x22
 7326 03a6 70       		.byte	0x70
 7327 03a7 00       		.sleb128 0
 7328 03a8 22       		.byte	0x22
 7329 03a9 0A       		.byte	0xa
 7330 03aa FFFF     		.2byte	0xffff
 7331 03ac 1A       		.byte	0x1a
 7332 03ad 91       		.byte	0x91
 7333 03ae DC7E     		.sleb128 -164
 7334 03b0 94       		.byte	0x94
 7335 03b1 02       		.byte	0x2
 7336 03b2 0A       		.byte	0xa
 7337 03b3 FFFF     		.2byte	0xffff
 7338 03b5 1A       		.byte	0x1a
 7339 03b6 3B       		.byte	0x3b
 7340 03b7 25       		.byte	0x25
 7341 03b8 35       		.byte	0x35
 7342 03b9 24       		.byte	0x24
 7343 03ba 91       		.byte	0x91
 7344 03bb DC7E     		.sleb128 -164
 7345 03bd 94       		.byte	0x94
 7346 03be 02       		.byte	0x2
 7347 03bf 0A       		.byte	0xa
 7348 03c0 FFFF     		.2byte	0xffff
 7349 03c2 1A       		.byte	0x1a
 7350 03c3 3B       		.byte	0x3b
 7351 03c4 25       		.byte	0x25
 7352 03c5 22       		.byte	0x22
 7353 03c6 33       		.byte	0x33
 7354 03c7 24       		.byte	0x24
 7355 03c8 91       		.byte	0x91
 7356 03c9 DC7E     		.sleb128 -164
 7357 03cb 94       		.byte	0x94
 7358 03cc 02       		.byte	0x2
 7359 03cd 0A       		.byte	0xa
 7360 03ce FFFF     		.2byte	0xffff
 7361 03d0 1A       		.byte	0x1a
ARM GAS  C:\Users\haske\AppData\Local\Temp\ccoc8x2c.s 			page 146


 7362 03d1 3B       		.byte	0x3b
 7363 03d2 25       		.byte	0x25
 7364 03d3 1C       		.byte	0x1c
 7365 03d4 23       		.byte	0x23
 7366 03d5 07       		.uleb128 0x7
 7367 03d6 35       		.byte	0x35
 7368 03d7 26       		.byte	0x26
 7369 03d8 08       		.byte	0x8
 7370 03d9 FF       		.byte	0xff
 7371 03da 1A       		.byte	0x1a
 7372 03db 40       		.byte	0x40
 7373 03dc 24       		.byte	0x24
 7374 03dd 91       		.byte	0x91
 7375 03de DC7E     		.sleb128 -164
 7376 03e0 94       		.byte	0x94
 7377 03e1 02       		.byte	0x2
 7378 03e2 0A       		.byte	0xa
 7379 03e3 FFFF     		.2byte	0xffff
 7380 03e5 1A       		.byte	0x1a
 7381 03e6 45       		.byte	0x45
 7382 03e7 24       		.byte	0x24
 7383 03e8 4A       		.byte	0x4a
 7384 03e9 25       		.byte	0x25
 7385 03ea 37       		.byte	0x37
 7386 03eb 24       		.byte	0x24
 7387 03ec 91       		.byte	0x91
 7388 03ed DC7E     		.sleb128 -164
 7389 03ef 94       		.byte	0x94
 7390 03f0 02       		.byte	0x2
 7391 03f1 0A       		.byte	0xa
 7392 03f2 FFFF     		.2byte	0xffff
 7393 03f4 1A       		.byte	0x1a
 7394 03f5 45       		.byte	0x45
 7395 03f6 24       		.byte	0x24
 7396 03f7 4A       		.byte	0x4a
 7397 03f8 25       		.byte	0x25
 7398 03f9 22       		.byte	0x22
 7399 03fa 31       		.byte	0x31
 7400 03fb 24       		.byte	0x24
 7401 03fc 91       		.byte	0x91
 7402 03fd DC7E     		.sleb128 -164
 7403 03ff 94       		.byte	0x94
 7404 0400 02       		.byte	0x2
 7405 0401 0A       		.byte	0xa
 7406 0402 FFFF     		.2byte	0xffff
 7407 0404 1A       		.byte	0x1a
 7408 0405 45       		.byte	0x45
 7409 0406 24       		.byte	0x24
 7410 0407 4A       		.byte	0x4a
 7411 0408 25       		.byte	0x25
 7412 0409 22       		.byte	0x22
 7413 040a 23       		.byte	0x23
 7414 040b 03       		.uleb128 0x3
 7415 040c 36       		.byte	0x36
 7416 040d 26       		.byte	0x26
 7417 040e 08       		.byte	0x8
 7418 040f FF       		.byte	0xff
ARM GAS  C:\Users\haske\AppData\Local\Temp\ccoc8x2c.s 			page 147


 7419 0410 1A       		.byte	0x1a
 7420 0411 38       		.byte	0x38
 7421 0412 24       		.byte	0x24
 7422 0413 21       		.byte	0x21
 7423 0414 91       		.byte	0x91
 7424 0415 DC7E     		.sleb128 -164
 7425 0417 94       		.byte	0x94
 7426 0418 02       		.byte	0x2
 7427 0419 0A       		.byte	0xa
 7428 041a FFFF     		.2byte	0xffff
 7429 041c 1A       		.byte	0x1a
 7430 041d 4B       		.byte	0x4b
 7431 041e 24       		.byte	0x24
 7432 041f 4B       		.byte	0x4b
 7433 0420 25       		.byte	0x25
 7434 0421 35       		.byte	0x35
 7435 0422 24       		.byte	0x24
 7436 0423 91       		.byte	0x91
 7437 0424 DC7E     		.sleb128 -164
 7438 0426 94       		.byte	0x94
 7439 0427 02       		.byte	0x2
 7440 0428 0A       		.byte	0xa
 7441 0429 FFFF     		.2byte	0xffff
 7442 042b 1A       		.byte	0x1a
 7443 042c 4B       		.byte	0x4b
 7444 042d 24       		.byte	0x24
 7445 042e 4B       		.byte	0x4b
 7446 042f 25       		.byte	0x25
 7447 0430 22       		.byte	0x22
 7448 0431 33       		.byte	0x33
 7449 0432 24       		.byte	0x24
 7450 0433 91       		.byte	0x91
 7451 0434 DC7E     		.sleb128 -164
 7452 0436 94       		.byte	0x94
 7453 0437 02       		.byte	0x2
 7454 0438 0A       		.byte	0xa
 7455 0439 FFFF     		.2byte	0xffff
 7456 043b 1A       		.byte	0x1a
 7457 043c 4B       		.byte	0x4b
 7458 043d 24       		.byte	0x24
 7459 043e 4B       		.byte	0x4b
 7460 043f 25       		.byte	0x25
 7461 0440 1C       		.byte	0x1c
 7462 0441 23       		.byte	0x23
 7463 0442 07       		.uleb128 0x7
 7464 0443 35       		.byte	0x35
 7465 0444 26       		.byte	0x26
 7466 0445 08       		.byte	0x8
 7467 0446 FF       		.byte	0xff
 7468 0447 1A       		.byte	0x1a
 7469 0448 21       		.byte	0x21
 7470 0449 7A       		.byte	0x7a
 7471 044a 00       		.sleb128 0
 7472 044b 21       		.byte	0x21
 7473 044c 08       		.byte	0x8
 7474 044d FF       		.byte	0xff
 7475 044e 1A       		.byte	0x1a
ARM GAS  C:\Users\haske\AppData\Local\Temp\ccoc8x2c.s 			page 148


 7476 044f 22       		.byte	0x22
 7477 0450 0A       		.byte	0xa
 7478 0451 FFFF     		.2byte	0xffff
 7479 0453 1A       		.byte	0x1a
 7480 0454 33       		.byte	0x33
 7481 0455 25       		.byte	0x25
 7482 0456 08       		.byte	0x8
 7483 0457 FF       		.byte	0xff
 7484 0458 1A       		.byte	0x1a
 7485 0459 23       		.byte	0x23
 7486 045a 04       		.uleb128 0x4
 7487 045b 33       		.byte	0x33
 7488 045c 25       		.byte	0x25
 7489 045d 9F       		.byte	0x9f
 7490 045e 00000000 		.4byte	0
 7491 0462 00000000 		.4byte	0
 7492              	.LLST13:
 7493 0466 BC000000 		.4byte	.LVL30
 7494 046a D4000000 		.4byte	.LVL37
 7495 046e 0200     		.2byte	0x2
 7496 0470 30       		.byte	0x30
 7497 0471 9F       		.byte	0x9f
 7498 0472 00000000 		.4byte	0
 7499 0476 00000000 		.4byte	0
 7500              	.LLST14:
 7501 047a C2000000 		.4byte	.LVL31
 7502 047e C4000000 		.4byte	.LVL32
 7503 0482 0600     		.2byte	0x6
 7504 0484 76       		.byte	0x76
 7505 0485 00       		.sleb128 0
 7506 0486 72       		.byte	0x72
 7507 0487 00       		.sleb128 0
 7508 0488 1A       		.byte	0x1a
 7509 0489 9F       		.byte	0x9f
 7510 048a C4000000 		.4byte	.LVL32
 7511 048e D0000000 		.4byte	.LVL35
 7512 0492 0100     		.2byte	0x1
 7513 0494 56       		.byte	0x56
 7514 0495 D0000000 		.4byte	.LVL35
 7515 0499 D4000000 		.4byte	.LVL37
 7516 049d 1700     		.2byte	0x17
 7517 049f 77       		.byte	0x77
 7518 04a0 24       		.sleb128 36
 7519 04a1 94       		.byte	0x94
 7520 04a2 02       		.byte	0x2
 7521 04a3 0A       		.byte	0xa
 7522 04a4 FFFF     		.2byte	0xffff
 7523 04a6 1A       		.byte	0x1a
 7524 04a7 40       		.byte	0x40
 7525 04a8 24       		.byte	0x24
 7526 04a9 77       		.byte	0x77
 7527 04aa 24       		.sleb128 36
 7528 04ab 94       		.byte	0x94
 7529 04ac 02       		.byte	0x2
 7530 04ad 0A       		.byte	0xa
 7531 04ae FFFF     		.2byte	0xffff
 7532 04b0 1A       		.byte	0x1a
ARM GAS  C:\Users\haske\AppData\Local\Temp\ccoc8x2c.s 			page 149


 7533 04b1 21       		.byte	0x21
 7534 04b2 72       		.byte	0x72
 7535 04b3 00       		.sleb128 0
 7536 04b4 1A       		.byte	0x1a
 7537 04b5 9F       		.byte	0x9f
 7538 04b6 00000000 		.4byte	0
 7539 04ba 00000000 		.4byte	0
 7540              	.LLST15:
 7541 04be CE000000 		.4byte	.LVL34
 7542 04c2 D2000000 		.4byte	.LVL36
 7543 04c6 0100     		.2byte	0x1
 7544 04c8 53       		.byte	0x53
 7545 04c9 D2000000 		.4byte	.LVL36
 7546 04cd D4000000 		.4byte	.LVL37
 7547 04d1 2002     		.2byte	0x220
 7548 04d3 77       		.byte	0x77
 7549 04d4 24       		.sleb128 36
 7550 04d5 94       		.byte	0x94
 7551 04d6 02       		.byte	0x2
 7552 04d7 0A       		.byte	0xa
 7553 04d8 FFFF     		.2byte	0xffff
 7554 04da 1A       		.byte	0x1a
 7555 04db 40       		.byte	0x40
 7556 04dc 24       		.byte	0x24
 7557 04dd 77       		.byte	0x77
 7558 04de 24       		.sleb128 36
 7559 04df 94       		.byte	0x94
 7560 04e0 02       		.byte	0x2
 7561 04e1 0A       		.byte	0xa
 7562 04e2 FFFF     		.2byte	0xffff
 7563 04e4 1A       		.byte	0x1a
 7564 04e5 21       		.byte	0x21
 7565 04e6 72       		.byte	0x72
 7566 04e7 00       		.sleb128 0
 7567 04e8 1A       		.byte	0x1a
 7568 04e9 91       		.byte	0x91
 7569 04ea DC7E     		.sleb128 -164
 7570 04ec 94       		.byte	0x94
 7571 04ed 02       		.byte	0x2
 7572 04ee 0A       		.byte	0xa
 7573 04ef FFFF     		.2byte	0xffff
 7574 04f1 1A       		.byte	0x1a
 7575 04f2 3B       		.byte	0x3b
 7576 04f3 25       		.byte	0x25
 7577 04f4 35       		.byte	0x35
 7578 04f5 24       		.byte	0x24
 7579 04f6 91       		.byte	0x91
 7580 04f7 DC7E     		.sleb128 -164
 7581 04f9 94       		.byte	0x94
 7582 04fa 02       		.byte	0x2
 7583 04fb 0A       		.byte	0xa
 7584 04fc FFFF     		.2byte	0xffff
 7585 04fe 1A       		.byte	0x1a
 7586 04ff 3B       		.byte	0x3b
 7587 0500 25       		.byte	0x25
 7588 0501 22       		.byte	0x22
 7589 0502 33       		.byte	0x33
ARM GAS  C:\Users\haske\AppData\Local\Temp\ccoc8x2c.s 			page 150


 7590 0503 24       		.byte	0x24
 7591 0504 91       		.byte	0x91
 7592 0505 DC7E     		.sleb128 -164
 7593 0507 94       		.byte	0x94
 7594 0508 02       		.byte	0x2
 7595 0509 0A       		.byte	0xa
 7596 050a FFFF     		.2byte	0xffff
 7597 050c 1A       		.byte	0x1a
 7598 050d 3B       		.byte	0x3b
 7599 050e 25       		.byte	0x25
 7600 050f 1C       		.byte	0x1c
 7601 0510 23       		.byte	0x23
 7602 0511 07       		.uleb128 0x7
 7603 0512 35       		.byte	0x35
 7604 0513 26       		.byte	0x26
 7605 0514 08       		.byte	0x8
 7606 0515 FF       		.byte	0xff
 7607 0516 1A       		.byte	0x1a
 7608 0517 40       		.byte	0x40
 7609 0518 24       		.byte	0x24
 7610 0519 91       		.byte	0x91
 7611 051a DC7E     		.sleb128 -164
 7612 051c 94       		.byte	0x94
 7613 051d 02       		.byte	0x2
 7614 051e 0A       		.byte	0xa
 7615 051f FFFF     		.2byte	0xffff
 7616 0521 1A       		.byte	0x1a
 7617 0522 45       		.byte	0x45
 7618 0523 24       		.byte	0x24
 7619 0524 4A       		.byte	0x4a
 7620 0525 25       		.byte	0x25
 7621 0526 37       		.byte	0x37
 7622 0527 24       		.byte	0x24
 7623 0528 91       		.byte	0x91
 7624 0529 DC7E     		.sleb128 -164
 7625 052b 94       		.byte	0x94
 7626 052c 02       		.byte	0x2
 7627 052d 0A       		.byte	0xa
 7628 052e FFFF     		.2byte	0xffff
 7629 0530 1A       		.byte	0x1a
 7630 0531 45       		.byte	0x45
 7631 0532 24       		.byte	0x24
 7632 0533 4A       		.byte	0x4a
 7633 0534 25       		.byte	0x25
 7634 0535 22       		.byte	0x22
 7635 0536 31       		.byte	0x31
 7636 0537 24       		.byte	0x24
 7637 0538 91       		.byte	0x91
 7638 0539 DC7E     		.sleb128 -164
 7639 053b 94       		.byte	0x94
 7640 053c 02       		.byte	0x2
 7641 053d 0A       		.byte	0xa
 7642 053e FFFF     		.2byte	0xffff
 7643 0540 1A       		.byte	0x1a
 7644 0541 45       		.byte	0x45
 7645 0542 24       		.byte	0x24
 7646 0543 4A       		.byte	0x4a
ARM GAS  C:\Users\haske\AppData\Local\Temp\ccoc8x2c.s 			page 151


 7647 0544 25       		.byte	0x25
 7648 0545 22       		.byte	0x22
 7649 0546 23       		.byte	0x23
 7650 0547 03       		.uleb128 0x3
 7651 0548 36       		.byte	0x36
 7652 0549 26       		.byte	0x26
 7653 054a 08       		.byte	0x8
 7654 054b FF       		.byte	0xff
 7655 054c 1A       		.byte	0x1a
 7656 054d 38       		.byte	0x38
 7657 054e 24       		.byte	0x24
 7658 054f 21       		.byte	0x21
 7659 0550 91       		.byte	0x91
 7660 0551 DC7E     		.sleb128 -164
 7661 0553 94       		.byte	0x94
 7662 0554 02       		.byte	0x2
 7663 0555 0A       		.byte	0xa
 7664 0556 FFFF     		.2byte	0xffff
 7665 0558 1A       		.byte	0x1a
 7666 0559 4B       		.byte	0x4b
 7667 055a 24       		.byte	0x24
 7668 055b 4B       		.byte	0x4b
 7669 055c 25       		.byte	0x25
 7670 055d 35       		.byte	0x35
 7671 055e 24       		.byte	0x24
 7672 055f 91       		.byte	0x91
 7673 0560 DC7E     		.sleb128 -164
 7674 0562 94       		.byte	0x94
 7675 0563 02       		.byte	0x2
 7676 0564 0A       		.byte	0xa
 7677 0565 FFFF     		.2byte	0xffff
 7678 0567 1A       		.byte	0x1a
 7679 0568 4B       		.byte	0x4b
 7680 0569 24       		.byte	0x24
 7681 056a 4B       		.byte	0x4b
 7682 056b 25       		.byte	0x25
 7683 056c 22       		.byte	0x22
 7684 056d 33       		.byte	0x33
 7685 056e 24       		.byte	0x24
 7686 056f 91       		.byte	0x91
 7687 0570 DC7E     		.sleb128 -164
 7688 0572 94       		.byte	0x94
 7689 0573 02       		.byte	0x2
 7690 0574 0A       		.byte	0xa
 7691 0575 FFFF     		.2byte	0xffff
 7692 0577 1A       		.byte	0x1a
 7693 0578 4B       		.byte	0x4b
 7694 0579 24       		.byte	0x24
 7695 057a 4B       		.byte	0x4b
 7696 057b 25       		.byte	0x25
 7697 057c 1C       		.byte	0x1c
 7698 057d 23       		.byte	0x23
 7699 057e 07       		.uleb128 0x7
 7700 057f 35       		.byte	0x35
 7701 0580 26       		.byte	0x26
 7702 0581 08       		.byte	0x8
 7703 0582 FF       		.byte	0xff
ARM GAS  C:\Users\haske\AppData\Local\Temp\ccoc8x2c.s 			page 152


 7704 0583 1A       		.byte	0x1a
 7705 0584 21       		.byte	0x21
 7706 0585 7A       		.byte	0x7a
 7707 0586 00       		.sleb128 0
 7708 0587 21       		.byte	0x21
 7709 0588 38       		.byte	0x38
 7710 0589 24       		.byte	0x24
 7711 058a 48       		.byte	0x48
 7712 058b 25       		.byte	0x25
 7713 058c 91       		.byte	0x91
 7714 058d DC7E     		.sleb128 -164
 7715 058f 94       		.byte	0x94
 7716 0590 02       		.byte	0x2
 7717 0591 0A       		.byte	0xa
 7718 0592 FFFF     		.2byte	0xffff
 7719 0594 1A       		.byte	0x1a
 7720 0595 3B       		.byte	0x3b
 7721 0596 25       		.byte	0x25
 7722 0597 35       		.byte	0x35
 7723 0598 24       		.byte	0x24
 7724 0599 91       		.byte	0x91
 7725 059a DC7E     		.sleb128 -164
 7726 059c 94       		.byte	0x94
 7727 059d 02       		.byte	0x2
 7728 059e 0A       		.byte	0xa
 7729 059f FFFF     		.2byte	0xffff
 7730 05a1 1A       		.byte	0x1a
 7731 05a2 3B       		.byte	0x3b
 7732 05a3 25       		.byte	0x25
 7733 05a4 22       		.byte	0x22
 7734 05a5 33       		.byte	0x33
 7735 05a6 24       		.byte	0x24
 7736 05a7 91       		.byte	0x91
 7737 05a8 DC7E     		.sleb128 -164
 7738 05aa 94       		.byte	0x94
 7739 05ab 02       		.byte	0x2
 7740 05ac 0A       		.byte	0xa
 7741 05ad FFFF     		.2byte	0xffff
 7742 05af 1A       		.byte	0x1a
 7743 05b0 3B       		.byte	0x3b
 7744 05b1 25       		.byte	0x25
 7745 05b2 1C       		.byte	0x1c
 7746 05b3 23       		.byte	0x23
 7747 05b4 07       		.uleb128 0x7
 7748 05b5 35       		.byte	0x35
 7749 05b6 26       		.byte	0x26
 7750 05b7 08       		.byte	0x8
 7751 05b8 FF       		.byte	0xff
 7752 05b9 1A       		.byte	0x1a
 7753 05ba 40       		.byte	0x40
 7754 05bb 24       		.byte	0x24
 7755 05bc 91       		.byte	0x91
 7756 05bd DC7E     		.sleb128 -164
 7757 05bf 94       		.byte	0x94
 7758 05c0 02       		.byte	0x2
 7759 05c1 0A       		.byte	0xa
 7760 05c2 FFFF     		.2byte	0xffff
ARM GAS  C:\Users\haske\AppData\Local\Temp\ccoc8x2c.s 			page 153


 7761 05c4 1A       		.byte	0x1a
 7762 05c5 45       		.byte	0x45
 7763 05c6 24       		.byte	0x24
 7764 05c7 4A       		.byte	0x4a
 7765 05c8 25       		.byte	0x25
 7766 05c9 37       		.byte	0x37
 7767 05ca 24       		.byte	0x24
 7768 05cb 91       		.byte	0x91
 7769 05cc DC7E     		.sleb128 -164
 7770 05ce 94       		.byte	0x94
 7771 05cf 02       		.byte	0x2
 7772 05d0 0A       		.byte	0xa
 7773 05d1 FFFF     		.2byte	0xffff
 7774 05d3 1A       		.byte	0x1a
 7775 05d4 45       		.byte	0x45
 7776 05d5 24       		.byte	0x24
 7777 05d6 4A       		.byte	0x4a
 7778 05d7 25       		.byte	0x25
 7779 05d8 22       		.byte	0x22
 7780 05d9 31       		.byte	0x31
 7781 05da 24       		.byte	0x24
 7782 05db 91       		.byte	0x91
 7783 05dc DC7E     		.sleb128 -164
 7784 05de 94       		.byte	0x94
 7785 05df 02       		.byte	0x2
 7786 05e0 0A       		.byte	0xa
 7787 05e1 FFFF     		.2byte	0xffff
 7788 05e3 1A       		.byte	0x1a
 7789 05e4 45       		.byte	0x45
 7790 05e5 24       		.byte	0x24
 7791 05e6 4A       		.byte	0x4a
 7792 05e7 25       		.byte	0x25
 7793 05e8 22       		.byte	0x22
 7794 05e9 23       		.byte	0x23
 7795 05ea 03       		.uleb128 0x3
 7796 05eb 36       		.byte	0x36
 7797 05ec 26       		.byte	0x26
 7798 05ed 08       		.byte	0x8
 7799 05ee FF       		.byte	0xff
 7800 05ef 1A       		.byte	0x1a
 7801 05f0 38       		.byte	0x38
 7802 05f1 24       		.byte	0x24
 7803 05f2 21       		.byte	0x21
 7804 05f3 91       		.byte	0x91
 7805 05f4 DC7E     		.sleb128 -164
 7806 05f6 94       		.byte	0x94
 7807 05f7 02       		.byte	0x2
 7808 05f8 0A       		.byte	0xa
 7809 05f9 FFFF     		.2byte	0xffff
 7810 05fb 1A       		.byte	0x1a
 7811 05fc 4B       		.byte	0x4b
 7812 05fd 24       		.byte	0x24
 7813 05fe 4B       		.byte	0x4b
 7814 05ff 25       		.byte	0x25
 7815 0600 35       		.byte	0x35
 7816 0601 24       		.byte	0x24
 7817 0602 91       		.byte	0x91
ARM GAS  C:\Users\haske\AppData\Local\Temp\ccoc8x2c.s 			page 154


 7818 0603 DC7E     		.sleb128 -164
 7819 0605 94       		.byte	0x94
 7820 0606 02       		.byte	0x2
 7821 0607 0A       		.byte	0xa
 7822 0608 FFFF     		.2byte	0xffff
 7823 060a 1A       		.byte	0x1a
 7824 060b 4B       		.byte	0x4b
 7825 060c 24       		.byte	0x24
 7826 060d 4B       		.byte	0x4b
 7827 060e 25       		.byte	0x25
 7828 060f 22       		.byte	0x22
 7829 0610 33       		.byte	0x33
 7830 0611 24       		.byte	0x24
 7831 0612 91       		.byte	0x91
 7832 0613 DC7E     		.sleb128 -164
 7833 0615 94       		.byte	0x94
 7834 0616 02       		.byte	0x2
 7835 0617 0A       		.byte	0xa
 7836 0618 FFFF     		.2byte	0xffff
 7837 061a 1A       		.byte	0x1a
 7838 061b 4B       		.byte	0x4b
 7839 061c 24       		.byte	0x24
 7840 061d 4B       		.byte	0x4b
 7841 061e 25       		.byte	0x25
 7842 061f 1C       		.byte	0x1c
 7843 0620 23       		.byte	0x23
 7844 0621 07       		.uleb128 0x7
 7845 0622 35       		.byte	0x35
 7846 0623 26       		.byte	0x26
 7847 0624 08       		.byte	0x8
 7848 0625 FF       		.byte	0xff
 7849 0626 1A       		.byte	0x1a
 7850 0627 21       		.byte	0x21
 7851 0628 7A       		.byte	0x7a
 7852 0629 00       		.sleb128 0
 7853 062a 21       		.byte	0x21
 7854 062b 40       		.byte	0x40
 7855 062c 24       		.byte	0x24
 7856 062d 48       		.byte	0x48
 7857 062e 25       		.byte	0x25
 7858 062f 32       		.byte	0x32
 7859 0630 24       		.byte	0x24
 7860 0631 22       		.byte	0x22
 7861 0632 70       		.byte	0x70
 7862 0633 00       		.sleb128 0
 7863 0634 22       		.byte	0x22
 7864 0635 0A       		.byte	0xa
 7865 0636 FFFF     		.2byte	0xffff
 7866 0638 1A       		.byte	0x1a
 7867 0639 91       		.byte	0x91
 7868 063a DC7E     		.sleb128 -164
 7869 063c 94       		.byte	0x94
 7870 063d 02       		.byte	0x2
 7871 063e 0A       		.byte	0xa
 7872 063f FFFF     		.2byte	0xffff
 7873 0641 1A       		.byte	0x1a
 7874 0642 3B       		.byte	0x3b
ARM GAS  C:\Users\haske\AppData\Local\Temp\ccoc8x2c.s 			page 155


 7875 0643 25       		.byte	0x25
 7876 0644 35       		.byte	0x35
 7877 0645 24       		.byte	0x24
 7878 0646 91       		.byte	0x91
 7879 0647 DC7E     		.sleb128 -164
 7880 0649 94       		.byte	0x94
 7881 064a 02       		.byte	0x2
 7882 064b 0A       		.byte	0xa
 7883 064c FFFF     		.2byte	0xffff
 7884 064e 1A       		.byte	0x1a
 7885 064f 3B       		.byte	0x3b
 7886 0650 25       		.byte	0x25
 7887 0651 22       		.byte	0x22
 7888 0652 33       		.byte	0x33
 7889 0653 24       		.byte	0x24
 7890 0654 91       		.byte	0x91
 7891 0655 DC7E     		.sleb128 -164
 7892 0657 94       		.byte	0x94
 7893 0658 02       		.byte	0x2
 7894 0659 0A       		.byte	0xa
 7895 065a FFFF     		.2byte	0xffff
 7896 065c 1A       		.byte	0x1a
 7897 065d 3B       		.byte	0x3b
 7898 065e 25       		.byte	0x25
 7899 065f 1C       		.byte	0x1c
 7900 0660 23       		.byte	0x23
 7901 0661 07       		.uleb128 0x7
 7902 0662 35       		.byte	0x35
 7903 0663 26       		.byte	0x26
 7904 0664 08       		.byte	0x8
 7905 0665 FF       		.byte	0xff
 7906 0666 1A       		.byte	0x1a
 7907 0667 40       		.byte	0x40
 7908 0668 24       		.byte	0x24
 7909 0669 91       		.byte	0x91
 7910 066a DC7E     		.sleb128 -164
 7911 066c 94       		.byte	0x94
 7912 066d 02       		.byte	0x2
 7913 066e 0A       		.byte	0xa
 7914 066f FFFF     		.2byte	0xffff
 7915 0671 1A       		.byte	0x1a
 7916 0672 45       		.byte	0x45
 7917 0673 24       		.byte	0x24
 7918 0674 4A       		.byte	0x4a
 7919 0675 25       		.byte	0x25
 7920 0676 37       		.byte	0x37
 7921 0677 24       		.byte	0x24
 7922 0678 91       		.byte	0x91
 7923 0679 DC7E     		.sleb128 -164
 7924 067b 94       		.byte	0x94
 7925 067c 02       		.byte	0x2
 7926 067d 0A       		.byte	0xa
 7927 067e FFFF     		.2byte	0xffff
 7928 0680 1A       		.byte	0x1a
 7929 0681 45       		.byte	0x45
 7930 0682 24       		.byte	0x24
 7931 0683 4A       		.byte	0x4a
ARM GAS  C:\Users\haske\AppData\Local\Temp\ccoc8x2c.s 			page 156


 7932 0684 25       		.byte	0x25
 7933 0685 22       		.byte	0x22
 7934 0686 31       		.byte	0x31
 7935 0687 24       		.byte	0x24
 7936 0688 91       		.byte	0x91
 7937 0689 DC7E     		.sleb128 -164
 7938 068b 94       		.byte	0x94
 7939 068c 02       		.byte	0x2
 7940 068d 0A       		.byte	0xa
 7941 068e FFFF     		.2byte	0xffff
 7942 0690 1A       		.byte	0x1a
 7943 0691 45       		.byte	0x45
 7944 0692 24       		.byte	0x24
 7945 0693 4A       		.byte	0x4a
 7946 0694 25       		.byte	0x25
 7947 0695 22       		.byte	0x22
 7948 0696 23       		.byte	0x23
 7949 0697 03       		.uleb128 0x3
 7950 0698 36       		.byte	0x36
 7951 0699 26       		.byte	0x26
 7952 069a 08       		.byte	0x8
 7953 069b FF       		.byte	0xff
 7954 069c 1A       		.byte	0x1a
 7955 069d 38       		.byte	0x38
 7956 069e 24       		.byte	0x24
 7957 069f 21       		.byte	0x21
 7958 06a0 91       		.byte	0x91
 7959 06a1 DC7E     		.sleb128 -164
 7960 06a3 94       		.byte	0x94
 7961 06a4 02       		.byte	0x2
 7962 06a5 0A       		.byte	0xa
 7963 06a6 FFFF     		.2byte	0xffff
 7964 06a8 1A       		.byte	0x1a
 7965 06a9 4B       		.byte	0x4b
 7966 06aa 24       		.byte	0x24
 7967 06ab 4B       		.byte	0x4b
 7968 06ac 25       		.byte	0x25
 7969 06ad 35       		.byte	0x35
 7970 06ae 24       		.byte	0x24
 7971 06af 91       		.byte	0x91
 7972 06b0 DC7E     		.sleb128 -164
 7973 06b2 94       		.byte	0x94
 7974 06b3 02       		.byte	0x2
 7975 06b4 0A       		.byte	0xa
 7976 06b5 FFFF     		.2byte	0xffff
 7977 06b7 1A       		.byte	0x1a
 7978 06b8 4B       		.byte	0x4b
 7979 06b9 24       		.byte	0x24
 7980 06ba 4B       		.byte	0x4b
 7981 06bb 25       		.byte	0x25
 7982 06bc 22       		.byte	0x22
 7983 06bd 33       		.byte	0x33
 7984 06be 24       		.byte	0x24
 7985 06bf 91       		.byte	0x91
 7986 06c0 DC7E     		.sleb128 -164
 7987 06c2 94       		.byte	0x94
 7988 06c3 02       		.byte	0x2
ARM GAS  C:\Users\haske\AppData\Local\Temp\ccoc8x2c.s 			page 157


 7989 06c4 0A       		.byte	0xa
 7990 06c5 FFFF     		.2byte	0xffff
 7991 06c7 1A       		.byte	0x1a
 7992 06c8 4B       		.byte	0x4b
 7993 06c9 24       		.byte	0x24
 7994 06ca 4B       		.byte	0x4b
 7995 06cb 25       		.byte	0x25
 7996 06cc 1C       		.byte	0x1c
 7997 06cd 23       		.byte	0x23
 7998 06ce 07       		.uleb128 0x7
 7999 06cf 35       		.byte	0x35
 8000 06d0 26       		.byte	0x26
 8001 06d1 08       		.byte	0x8
 8002 06d2 FF       		.byte	0xff
 8003 06d3 1A       		.byte	0x1a
 8004 06d4 21       		.byte	0x21
 8005 06d5 7A       		.byte	0x7a
 8006 06d6 00       		.sleb128 0
 8007 06d7 21       		.byte	0x21
 8008 06d8 08       		.byte	0x8
 8009 06d9 FF       		.byte	0xff
 8010 06da 1A       		.byte	0x1a
 8011 06db 22       		.byte	0x22
 8012 06dc 0A       		.byte	0xa
 8013 06dd FFFF     		.2byte	0xffff
 8014 06df 1A       		.byte	0x1a
 8015 06e0 33       		.byte	0x33
 8016 06e1 25       		.byte	0x25
 8017 06e2 08       		.byte	0x8
 8018 06e3 FF       		.byte	0xff
 8019 06e4 1A       		.byte	0x1a
 8020 06e5 23       		.byte	0x23
 8021 06e6 04       		.uleb128 0x4
 8022 06e7 33       		.byte	0x33
 8023 06e8 25       		.byte	0x25
 8024 06e9 71       		.byte	0x71
 8025 06ea 00       		.sleb128 0
 8026 06eb 1A       		.byte	0x1a
 8027 06ec 1E       		.byte	0x1e
 8028 06ed 35       		.byte	0x35
 8029 06ee 25       		.byte	0x25
 8030 06ef 72       		.byte	0x72
 8031 06f0 00       		.sleb128 0
 8032 06f1 1A       		.byte	0x1a
 8033 06f2 9F       		.byte	0x9f
 8034 06f3 00000000 		.4byte	0
 8035 06f7 00000000 		.4byte	0
 8036              	.LLST16:
 8037 06fb 32010000 		.4byte	.LVL45
 8038 06ff 34010000 		.4byte	.LVL46
 8039 0703 0100     		.2byte	0x1
 8040 0705 53       		.byte	0x53
 8041 0706 34010000 		.4byte	.LVL46
 8042 070a 36010000 		.4byte	.LVL47
 8043 070e 0900     		.2byte	0x9
 8044 0710 71       		.byte	0x71
 8045 0711 00       		.sleb128 0
ARM GAS  C:\Users\haske\AppData\Local\Temp\ccoc8x2c.s 			page 158


 8046 0712 08       		.byte	0x8
 8047 0713 FF       		.byte	0xff
 8048 0714 1A       		.byte	0x1a
 8049 0715 70       		.byte	0x70
 8050 0716 00       		.sleb128 0
 8051 0717 22       		.byte	0x22
 8052 0718 9F       		.byte	0x9f
 8053 0719 00000000 		.4byte	0
 8054 071d 00000000 		.4byte	0
 8055              	.LLST17:
 8056 0721 00010000 		.4byte	.LVL39
 8057 0725 02010000 		.4byte	.LVL40
 8058 0729 0100     		.2byte	0x1
 8059 072b 51       		.byte	0x51
 8060 072c 14010000 		.4byte	.LVL41
 8061 0730 16010000 		.4byte	.LVL42
 8062 0734 0100     		.2byte	0x1
 8063 0736 51       		.byte	0x51
 8064 0737 18010000 		.4byte	.LVL43
 8065 073b 3E010000 		.4byte	.LVL49
 8066 073f 0100     		.2byte	0x1
 8067 0741 51       		.byte	0x51
 8068 0742 00000000 		.4byte	0
 8069 0746 00000000 		.4byte	0
 8070              	.LLST18:
 8071 074a 3A010000 		.4byte	.LVL48
 8072 074e 46010000 		.4byte	.LVL52
 8073 0752 0100     		.2byte	0x1
 8074 0754 53       		.byte	0x53
 8075 0755 46010000 		.4byte	.LVL52
 8076 0759 52010000 		.4byte	.LVL56
 8077 075d B300     		.2byte	0xb3
 8078 075f 91       		.byte	0x91
 8079 0760 DE7E     		.sleb128 -162
 8080 0762 94       		.byte	0x94
 8081 0763 02       		.byte	0x2
 8082 0764 0A       		.byte	0xa
 8083 0765 FFFF     		.2byte	0xffff
 8084 0767 1A       		.byte	0x1a
 8085 0768 3B       		.byte	0x3b
 8086 0769 25       		.byte	0x25
 8087 076a 35       		.byte	0x35
 8088 076b 24       		.byte	0x24
 8089 076c 91       		.byte	0x91
 8090 076d DE7E     		.sleb128 -162
 8091 076f 94       		.byte	0x94
 8092 0770 02       		.byte	0x2
 8093 0771 0A       		.byte	0xa
 8094 0772 FFFF     		.2byte	0xffff
 8095 0774 1A       		.byte	0x1a
 8096 0775 3B       		.byte	0x3b
 8097 0776 25       		.byte	0x25
 8098 0777 22       		.byte	0x22
 8099 0778 33       		.byte	0x33
 8100 0779 24       		.byte	0x24
 8101 077a 91       		.byte	0x91
 8102 077b DE7E     		.sleb128 -162
ARM GAS  C:\Users\haske\AppData\Local\Temp\ccoc8x2c.s 			page 159


 8103 077d 94       		.byte	0x94
 8104 077e 02       		.byte	0x2
 8105 077f 0A       		.byte	0xa
 8106 0780 FFFF     		.2byte	0xffff
 8107 0782 1A       		.byte	0x1a
 8108 0783 3B       		.byte	0x3b
 8109 0784 25       		.byte	0x25
 8110 0785 1C       		.byte	0x1c
 8111 0786 23       		.byte	0x23
 8112 0787 07       		.uleb128 0x7
 8113 0788 35       		.byte	0x35
 8114 0789 26       		.byte	0x26
 8115 078a 08       		.byte	0x8
 8116 078b FF       		.byte	0xff
 8117 078c 1A       		.byte	0x1a
 8118 078d 40       		.byte	0x40
 8119 078e 24       		.byte	0x24
 8120 078f 91       		.byte	0x91
 8121 0790 DE7E     		.sleb128 -162
 8122 0792 94       		.byte	0x94
 8123 0793 02       		.byte	0x2
 8124 0794 0A       		.byte	0xa
 8125 0795 FFFF     		.2byte	0xffff
 8126 0797 1A       		.byte	0x1a
 8127 0798 45       		.byte	0x45
 8128 0799 24       		.byte	0x24
 8129 079a 4A       		.byte	0x4a
 8130 079b 25       		.byte	0x25
 8131 079c 37       		.byte	0x37
 8132 079d 24       		.byte	0x24
 8133 079e 91       		.byte	0x91
 8134 079f DE7E     		.sleb128 -162
 8135 07a1 94       		.byte	0x94
 8136 07a2 02       		.byte	0x2
 8137 07a3 0A       		.byte	0xa
 8138 07a4 FFFF     		.2byte	0xffff
 8139 07a6 1A       		.byte	0x1a
 8140 07a7 45       		.byte	0x45
 8141 07a8 24       		.byte	0x24
 8142 07a9 4A       		.byte	0x4a
 8143 07aa 25       		.byte	0x25
 8144 07ab 22       		.byte	0x22
 8145 07ac 31       		.byte	0x31
 8146 07ad 24       		.byte	0x24
 8147 07ae 91       		.byte	0x91
 8148 07af DE7E     		.sleb128 -162
 8149 07b1 94       		.byte	0x94
 8150 07b2 02       		.byte	0x2
 8151 07b3 0A       		.byte	0xa
 8152 07b4 FFFF     		.2byte	0xffff
 8153 07b6 1A       		.byte	0x1a
 8154 07b7 45       		.byte	0x45
 8155 07b8 24       		.byte	0x24
 8156 07b9 4A       		.byte	0x4a
 8157 07ba 25       		.byte	0x25
 8158 07bb 22       		.byte	0x22
 8159 07bc 23       		.byte	0x23
ARM GAS  C:\Users\haske\AppData\Local\Temp\ccoc8x2c.s 			page 160


 8160 07bd 03       		.uleb128 0x3
 8161 07be 36       		.byte	0x36
 8162 07bf 26       		.byte	0x26
 8163 07c0 08       		.byte	0x8
 8164 07c1 FF       		.byte	0xff
 8165 07c2 1A       		.byte	0x1a
 8166 07c3 38       		.byte	0x38
 8167 07c4 24       		.byte	0x24
 8168 07c5 21       		.byte	0x21
 8169 07c6 91       		.byte	0x91
 8170 07c7 DE7E     		.sleb128 -162
 8171 07c9 94       		.byte	0x94
 8172 07ca 02       		.byte	0x2
 8173 07cb 0A       		.byte	0xa
 8174 07cc FFFF     		.2byte	0xffff
 8175 07ce 1A       		.byte	0x1a
 8176 07cf 4B       		.byte	0x4b
 8177 07d0 24       		.byte	0x24
 8178 07d1 4B       		.byte	0x4b
 8179 07d2 25       		.byte	0x25
 8180 07d3 35       		.byte	0x35
 8181 07d4 24       		.byte	0x24
 8182 07d5 91       		.byte	0x91
 8183 07d6 DE7E     		.sleb128 -162
 8184 07d8 94       		.byte	0x94
 8185 07d9 02       		.byte	0x2
 8186 07da 0A       		.byte	0xa
 8187 07db FFFF     		.2byte	0xffff
 8188 07dd 1A       		.byte	0x1a
 8189 07de 4B       		.byte	0x4b
 8190 07df 24       		.byte	0x24
 8191 07e0 4B       		.byte	0x4b
 8192 07e1 25       		.byte	0x25
 8193 07e2 22       		.byte	0x22
 8194 07e3 33       		.byte	0x33
 8195 07e4 24       		.byte	0x24
 8196 07e5 91       		.byte	0x91
 8197 07e6 DE7E     		.sleb128 -162
 8198 07e8 94       		.byte	0x94
 8199 07e9 02       		.byte	0x2
 8200 07ea 0A       		.byte	0xa
 8201 07eb FFFF     		.2byte	0xffff
 8202 07ed 1A       		.byte	0x1a
 8203 07ee 4B       		.byte	0x4b
 8204 07ef 24       		.byte	0x24
 8205 07f0 4B       		.byte	0x4b
 8206 07f1 25       		.byte	0x25
 8207 07f2 1C       		.byte	0x1c
 8208 07f3 23       		.byte	0x23
 8209 07f4 07       		.uleb128 0x7
 8210 07f5 35       		.byte	0x35
 8211 07f6 26       		.byte	0x26
 8212 07f7 08       		.byte	0x8
 8213 07f8 FF       		.byte	0xff
 8214 07f9 1A       		.byte	0x1a
 8215 07fa 21       		.byte	0x21
 8216 07fb 7A       		.byte	0x7a
ARM GAS  C:\Users\haske\AppData\Local\Temp\ccoc8x2c.s 			page 161


 8217 07fc 00       		.sleb128 0
 8218 07fd 21       		.byte	0x21
 8219 07fe 08       		.byte	0x8
 8220 07ff FF       		.byte	0xff
 8221 0800 1A       		.byte	0x1a
 8222 0801 70       		.byte	0x70
 8223 0802 00       		.sleb128 0
 8224 0803 22       		.byte	0x22
 8225 0804 0A       		.byte	0xa
 8226 0805 FFFF     		.2byte	0xffff
 8227 0807 1A       		.byte	0x1a
 8228 0808 33       		.byte	0x33
 8229 0809 25       		.byte	0x25
 8230 080a 08       		.byte	0x8
 8231 080b FF       		.byte	0xff
 8232 080c 1A       		.byte	0x1a
 8233 080d 23       		.byte	0x23
 8234 080e 04       		.uleb128 0x4
 8235 080f 33       		.byte	0x33
 8236 0810 25       		.byte	0x25
 8237 0811 9F       		.byte	0x9f
 8238 0812 00000000 		.4byte	0
 8239 0816 00000000 		.4byte	0
 8240              	.LLST19:
 8241 081a 3A010000 		.4byte	.LVL48
 8242 081e 52010000 		.4byte	.LVL56
 8243 0822 0200     		.2byte	0x2
 8244 0824 30       		.byte	0x30
 8245 0825 9F       		.byte	0x9f
 8246 0826 00000000 		.4byte	0
 8247 082a 00000000 		.4byte	0
 8248              	.LLST20:
 8249 082e 40010000 		.4byte	.LVL50
 8250 0832 42010000 		.4byte	.LVL51
 8251 0836 0600     		.2byte	0x6
 8252 0838 75       		.byte	0x75
 8253 0839 00       		.sleb128 0
 8254 083a 72       		.byte	0x72
 8255 083b 00       		.sleb128 0
 8256 083c 1A       		.byte	0x1a
 8257 083d 9F       		.byte	0x9f
 8258 083e 42010000 		.4byte	.LVL51
 8259 0842 4E010000 		.4byte	.LVL54
 8260 0846 0100     		.2byte	0x1
 8261 0848 55       		.byte	0x55
 8262 0849 4E010000 		.4byte	.LVL54
 8263 084d 52010000 		.4byte	.LVL56
 8264 0851 1700     		.2byte	0x17
 8265 0853 77       		.byte	0x77
 8266 0854 24       		.sleb128 36
 8267 0855 94       		.byte	0x94
 8268 0856 02       		.byte	0x2
 8269 0857 0A       		.byte	0xa
 8270 0858 FFFF     		.2byte	0xffff
 8271 085a 1A       		.byte	0x1a
 8272 085b 40       		.byte	0x40
 8273 085c 24       		.byte	0x24
ARM GAS  C:\Users\haske\AppData\Local\Temp\ccoc8x2c.s 			page 162


 8274 085d 77       		.byte	0x77
 8275 085e 24       		.sleb128 36
 8276 085f 94       		.byte	0x94
 8277 0860 02       		.byte	0x2
 8278 0861 0A       		.byte	0xa
 8279 0862 FFFF     		.2byte	0xffff
 8280 0864 1A       		.byte	0x1a
 8281 0865 21       		.byte	0x21
 8282 0866 72       		.byte	0x72
 8283 0867 00       		.sleb128 0
 8284 0868 1A       		.byte	0x1a
 8285 0869 9F       		.byte	0x9f
 8286 086a 00000000 		.4byte	0
 8287 086e 00000000 		.4byte	0
 8288              	.LLST21:
 8289 0872 4C010000 		.4byte	.LVL53
 8290 0876 50010000 		.4byte	.LVL55
 8291 087a 0100     		.2byte	0x1
 8292 087c 53       		.byte	0x53
 8293 087d 50010000 		.4byte	.LVL55
 8294 0881 52010000 		.4byte	.LVL56
 8295 0885 D200     		.2byte	0xd2
 8296 0887 77       		.byte	0x77
 8297 0888 24       		.sleb128 36
 8298 0889 94       		.byte	0x94
 8299 088a 02       		.byte	0x2
 8300 088b 0A       		.byte	0xa
 8301 088c FFFF     		.2byte	0xffff
 8302 088e 1A       		.byte	0x1a
 8303 088f 40       		.byte	0x40
 8304 0890 24       		.byte	0x24
 8305 0891 77       		.byte	0x77
 8306 0892 24       		.sleb128 36
 8307 0893 94       		.byte	0x94
 8308 0894 02       		.byte	0x2
 8309 0895 0A       		.byte	0xa
 8310 0896 FFFF     		.2byte	0xffff
 8311 0898 1A       		.byte	0x1a
 8312 0899 21       		.byte	0x21
 8313 089a 72       		.byte	0x72
 8314 089b 00       		.sleb128 0
 8315 089c 1A       		.byte	0x1a
 8316 089d 91       		.byte	0x91
 8317 089e DE7E     		.sleb128 -162
 8318 08a0 94       		.byte	0x94
 8319 08a1 02       		.byte	0x2
 8320 08a2 0A       		.byte	0xa
 8321 08a3 FFFF     		.2byte	0xffff
 8322 08a5 1A       		.byte	0x1a
 8323 08a6 3B       		.byte	0x3b
 8324 08a7 25       		.byte	0x25
 8325 08a8 35       		.byte	0x35
 8326 08a9 24       		.byte	0x24
 8327 08aa 91       		.byte	0x91
 8328 08ab DE7E     		.sleb128 -162
 8329 08ad 94       		.byte	0x94
 8330 08ae 02       		.byte	0x2
ARM GAS  C:\Users\haske\AppData\Local\Temp\ccoc8x2c.s 			page 163


 8331 08af 0A       		.byte	0xa
 8332 08b0 FFFF     		.2byte	0xffff
 8333 08b2 1A       		.byte	0x1a
 8334 08b3 3B       		.byte	0x3b
 8335 08b4 25       		.byte	0x25
 8336 08b5 22       		.byte	0x22
 8337 08b6 33       		.byte	0x33
 8338 08b7 24       		.byte	0x24
 8339 08b8 91       		.byte	0x91
 8340 08b9 DE7E     		.sleb128 -162
 8341 08bb 94       		.byte	0x94
 8342 08bc 02       		.byte	0x2
 8343 08bd 0A       		.byte	0xa
 8344 08be FFFF     		.2byte	0xffff
 8345 08c0 1A       		.byte	0x1a
 8346 08c1 3B       		.byte	0x3b
 8347 08c2 25       		.byte	0x25
 8348 08c3 1C       		.byte	0x1c
 8349 08c4 23       		.byte	0x23
 8350 08c5 07       		.uleb128 0x7
 8351 08c6 35       		.byte	0x35
 8352 08c7 26       		.byte	0x26
 8353 08c8 08       		.byte	0x8
 8354 08c9 FF       		.byte	0xff
 8355 08ca 1A       		.byte	0x1a
 8356 08cb 40       		.byte	0x40
 8357 08cc 24       		.byte	0x24
 8358 08cd 91       		.byte	0x91
 8359 08ce DE7E     		.sleb128 -162
 8360 08d0 94       		.byte	0x94
 8361 08d1 02       		.byte	0x2
 8362 08d2 0A       		.byte	0xa
 8363 08d3 FFFF     		.2byte	0xffff
 8364 08d5 1A       		.byte	0x1a
 8365 08d6 45       		.byte	0x45
 8366 08d7 24       		.byte	0x24
 8367 08d8 4A       		.byte	0x4a
 8368 08d9 25       		.byte	0x25
 8369 08da 37       		.byte	0x37
 8370 08db 24       		.byte	0x24
 8371 08dc 91       		.byte	0x91
 8372 08dd DE7E     		.sleb128 -162
 8373 08df 94       		.byte	0x94
 8374 08e0 02       		.byte	0x2
 8375 08e1 0A       		.byte	0xa
 8376 08e2 FFFF     		.2byte	0xffff
 8377 08e4 1A       		.byte	0x1a
 8378 08e5 45       		.byte	0x45
 8379 08e6 24       		.byte	0x24
 8380 08e7 4A       		.byte	0x4a
 8381 08e8 25       		.byte	0x25
 8382 08e9 22       		.byte	0x22
 8383 08ea 31       		.byte	0x31
 8384 08eb 24       		.byte	0x24
 8385 08ec 91       		.byte	0x91
 8386 08ed DE7E     		.sleb128 -162
 8387 08ef 94       		.byte	0x94
ARM GAS  C:\Users\haske\AppData\Local\Temp\ccoc8x2c.s 			page 164


 8388 08f0 02       		.byte	0x2
 8389 08f1 0A       		.byte	0xa
 8390 08f2 FFFF     		.2byte	0xffff
 8391 08f4 1A       		.byte	0x1a
 8392 08f5 45       		.byte	0x45
 8393 08f6 24       		.byte	0x24
 8394 08f7 4A       		.byte	0x4a
 8395 08f8 25       		.byte	0x25
 8396 08f9 22       		.byte	0x22
 8397 08fa 23       		.byte	0x23
 8398 08fb 03       		.uleb128 0x3
 8399 08fc 36       		.byte	0x36
 8400 08fd 26       		.byte	0x26
 8401 08fe 08       		.byte	0x8
 8402 08ff FF       		.byte	0xff
 8403 0900 1A       		.byte	0x1a
 8404 0901 38       		.byte	0x38
 8405 0902 24       		.byte	0x24
 8406 0903 21       		.byte	0x21
 8407 0904 91       		.byte	0x91
 8408 0905 DE7E     		.sleb128 -162
 8409 0907 94       		.byte	0x94
 8410 0908 02       		.byte	0x2
 8411 0909 0A       		.byte	0xa
 8412 090a FFFF     		.2byte	0xffff
 8413 090c 1A       		.byte	0x1a
 8414 090d 4B       		.byte	0x4b
 8415 090e 24       		.byte	0x24
 8416 090f 4B       		.byte	0x4b
 8417 0910 25       		.byte	0x25
 8418 0911 35       		.byte	0x35
 8419 0912 24       		.byte	0x24
 8420 0913 91       		.byte	0x91
 8421 0914 DE7E     		.sleb128 -162
 8422 0916 94       		.byte	0x94
 8423 0917 02       		.byte	0x2
 8424 0918 0A       		.byte	0xa
 8425 0919 FFFF     		.2byte	0xffff
 8426 091b 1A       		.byte	0x1a
 8427 091c 4B       		.byte	0x4b
 8428 091d 24       		.byte	0x24
 8429 091e 4B       		.byte	0x4b
 8430 091f 25       		.byte	0x25
 8431 0920 22       		.byte	0x22
 8432 0921 33       		.byte	0x33
 8433 0922 24       		.byte	0x24
 8434 0923 91       		.byte	0x91
 8435 0924 DE7E     		.sleb128 -162
 8436 0926 94       		.byte	0x94
 8437 0927 02       		.byte	0x2
 8438 0928 0A       		.byte	0xa
 8439 0929 FFFF     		.2byte	0xffff
 8440 092b 1A       		.byte	0x1a
 8441 092c 4B       		.byte	0x4b
 8442 092d 24       		.byte	0x24
 8443 092e 4B       		.byte	0x4b
 8444 092f 25       		.byte	0x25
ARM GAS  C:\Users\haske\AppData\Local\Temp\ccoc8x2c.s 			page 165


 8445 0930 1C       		.byte	0x1c
 8446 0931 23       		.byte	0x23
 8447 0932 07       		.uleb128 0x7
 8448 0933 35       		.byte	0x35
 8449 0934 26       		.byte	0x26
 8450 0935 08       		.byte	0x8
 8451 0936 FF       		.byte	0xff
 8452 0937 1A       		.byte	0x1a
 8453 0938 21       		.byte	0x21
 8454 0939 7A       		.byte	0x7a
 8455 093a 00       		.sleb128 0
 8456 093b 21       		.byte	0x21
 8457 093c 08       		.byte	0x8
 8458 093d FF       		.byte	0xff
 8459 093e 1A       		.byte	0x1a
 8460 093f 70       		.byte	0x70
 8461 0940 00       		.sleb128 0
 8462 0941 22       		.byte	0x22
 8463 0942 0A       		.byte	0xa
 8464 0943 FFFF     		.2byte	0xffff
 8465 0945 1A       		.byte	0x1a
 8466 0946 33       		.byte	0x33
 8467 0947 25       		.byte	0x25
 8468 0948 08       		.byte	0x8
 8469 0949 FF       		.byte	0xff
 8470 094a 1A       		.byte	0x1a
 8471 094b 23       		.byte	0x23
 8472 094c 04       		.uleb128 0x4
 8473 094d 33       		.byte	0x33
 8474 094e 25       		.byte	0x25
 8475 094f 71       		.byte	0x71
 8476 0950 00       		.sleb128 0
 8477 0951 1A       		.byte	0x1a
 8478 0952 1E       		.byte	0x1e
 8479 0953 35       		.byte	0x35
 8480 0954 25       		.byte	0x25
 8481 0955 72       		.byte	0x72
 8482 0956 00       		.sleb128 0
 8483 0957 1A       		.byte	0x1a
 8484 0958 9F       		.byte	0x9f
 8485 0959 00000000 		.4byte	0
 8486 095d 00000000 		.4byte	0
 8487              	.LLST22:
 8488 0961 B0010000 		.4byte	.LVL65
 8489 0965 B2010000 		.4byte	.LVL66
 8490 0969 0100     		.2byte	0x1
 8491 096b 53       		.byte	0x53
 8492 096c B2010000 		.4byte	.LVL66
 8493 0970 B4010000 		.4byte	.LVL67
 8494 0974 0900     		.2byte	0x9
 8495 0976 71       		.byte	0x71
 8496 0977 00       		.sleb128 0
 8497 0978 08       		.byte	0x8
 8498 0979 FF       		.byte	0xff
 8499 097a 1A       		.byte	0x1a
 8500 097b 70       		.byte	0x70
 8501 097c 00       		.sleb128 0
ARM GAS  C:\Users\haske\AppData\Local\Temp\ccoc8x2c.s 			page 166


 8502 097d 22       		.byte	0x22
 8503 097e 9F       		.byte	0x9f
 8504 097f 00000000 		.4byte	0
 8505 0983 00000000 		.4byte	0
 8506              	.LLST23:
 8507 0987 7E010000 		.4byte	.LVL59
 8508 098b 80010000 		.4byte	.LVL60
 8509 098f 0100     		.2byte	0x1
 8510 0991 51       		.byte	0x51
 8511 0992 92010000 		.4byte	.LVL61
 8512 0996 94010000 		.4byte	.LVL62
 8513 099a 0100     		.2byte	0x1
 8514 099c 51       		.byte	0x51
 8515 099d 96010000 		.4byte	.LVL63
 8516 09a1 BC010000 		.4byte	.LVL69
 8517 09a5 0100     		.2byte	0x1
 8518 09a7 51       		.byte	0x51
 8519 09a8 00000000 		.4byte	0
 8520 09ac 00000000 		.4byte	0
 8521              	.LLST24:
 8522 09b0 B8010000 		.4byte	.LVL68
 8523 09b4 C4010000 		.4byte	.LVL72
 8524 09b8 0100     		.2byte	0x1
 8525 09ba 53       		.byte	0x53
 8526 09bb C4010000 		.4byte	.LVL72
 8527 09bf D0010000 		.4byte	.LVL76
 8528 09c3 0102     		.2byte	0x201
 8529 09c5 91       		.byte	0x91
 8530 09c6 E27E     		.sleb128 -158
 8531 09c8 94       		.byte	0x94
 8532 09c9 02       		.byte	0x2
 8533 09ca 0A       		.byte	0xa
 8534 09cb FFFF     		.2byte	0xffff
 8535 09cd 1A       		.byte	0x1a
 8536 09ce 3B       		.byte	0x3b
 8537 09cf 25       		.byte	0x25
 8538 09d0 35       		.byte	0x35
 8539 09d1 24       		.byte	0x24
 8540 09d2 91       		.byte	0x91
 8541 09d3 E27E     		.sleb128 -158
 8542 09d5 94       		.byte	0x94
 8543 09d6 02       		.byte	0x2
 8544 09d7 0A       		.byte	0xa
 8545 09d8 FFFF     		.2byte	0xffff
 8546 09da 1A       		.byte	0x1a
 8547 09db 3B       		.byte	0x3b
 8548 09dc 25       		.byte	0x25
 8549 09dd 22       		.byte	0x22
 8550 09de 33       		.byte	0x33
 8551 09df 24       		.byte	0x24
 8552 09e0 91       		.byte	0x91
 8553 09e1 E27E     		.sleb128 -158
 8554 09e3 94       		.byte	0x94
 8555 09e4 02       		.byte	0x2
 8556 09e5 0A       		.byte	0xa
 8557 09e6 FFFF     		.2byte	0xffff
 8558 09e8 1A       		.byte	0x1a
ARM GAS  C:\Users\haske\AppData\Local\Temp\ccoc8x2c.s 			page 167


 8559 09e9 3B       		.byte	0x3b
 8560 09ea 25       		.byte	0x25
 8561 09eb 1C       		.byte	0x1c
 8562 09ec 23       		.byte	0x23
 8563 09ed 07       		.uleb128 0x7
 8564 09ee 35       		.byte	0x35
 8565 09ef 26       		.byte	0x26
 8566 09f0 08       		.byte	0x8
 8567 09f1 FF       		.byte	0xff
 8568 09f2 1A       		.byte	0x1a
 8569 09f3 40       		.byte	0x40
 8570 09f4 24       		.byte	0x24
 8571 09f5 91       		.byte	0x91
 8572 09f6 E27E     		.sleb128 -158
 8573 09f8 94       		.byte	0x94
 8574 09f9 02       		.byte	0x2
 8575 09fa 0A       		.byte	0xa
 8576 09fb FFFF     		.2byte	0xffff
 8577 09fd 1A       		.byte	0x1a
 8578 09fe 45       		.byte	0x45
 8579 09ff 24       		.byte	0x24
 8580 0a00 4A       		.byte	0x4a
 8581 0a01 25       		.byte	0x25
 8582 0a02 37       		.byte	0x37
 8583 0a03 24       		.byte	0x24
 8584 0a04 91       		.byte	0x91
 8585 0a05 E27E     		.sleb128 -158
 8586 0a07 94       		.byte	0x94
 8587 0a08 02       		.byte	0x2
 8588 0a09 0A       		.byte	0xa
 8589 0a0a FFFF     		.2byte	0xffff
 8590 0a0c 1A       		.byte	0x1a
 8591 0a0d 45       		.byte	0x45
 8592 0a0e 24       		.byte	0x24
 8593 0a0f 4A       		.byte	0x4a
 8594 0a10 25       		.byte	0x25
 8595 0a11 22       		.byte	0x22
 8596 0a12 31       		.byte	0x31
 8597 0a13 24       		.byte	0x24
 8598 0a14 91       		.byte	0x91
 8599 0a15 E27E     		.sleb128 -158
 8600 0a17 94       		.byte	0x94
 8601 0a18 02       		.byte	0x2
 8602 0a19 0A       		.byte	0xa
 8603 0a1a FFFF     		.2byte	0xffff
 8604 0a1c 1A       		.byte	0x1a
 8605 0a1d 45       		.byte	0x45
 8606 0a1e 24       		.byte	0x24
 8607 0a1f 4A       		.byte	0x4a
 8608 0a20 25       		.byte	0x25
 8609 0a21 22       		.byte	0x22
 8610 0a22 23       		.byte	0x23
 8611 0a23 03       		.uleb128 0x3
 8612 0a24 36       		.byte	0x36
 8613 0a25 26       		.byte	0x26
 8614 0a26 08       		.byte	0x8
 8615 0a27 FF       		.byte	0xff
ARM GAS  C:\Users\haske\AppData\Local\Temp\ccoc8x2c.s 			page 168


 8616 0a28 1A       		.byte	0x1a
 8617 0a29 38       		.byte	0x38
 8618 0a2a 24       		.byte	0x24
 8619 0a2b 21       		.byte	0x21
 8620 0a2c 91       		.byte	0x91
 8621 0a2d E27E     		.sleb128 -158
 8622 0a2f 94       		.byte	0x94
 8623 0a30 02       		.byte	0x2
 8624 0a31 0A       		.byte	0xa
 8625 0a32 FFFF     		.2byte	0xffff
 8626 0a34 1A       		.byte	0x1a
 8627 0a35 4B       		.byte	0x4b
 8628 0a36 24       		.byte	0x24
 8629 0a37 4B       		.byte	0x4b
 8630 0a38 25       		.byte	0x25
 8631 0a39 35       		.byte	0x35
 8632 0a3a 24       		.byte	0x24
 8633 0a3b 91       		.byte	0x91
 8634 0a3c E27E     		.sleb128 -158
 8635 0a3e 94       		.byte	0x94
 8636 0a3f 02       		.byte	0x2
 8637 0a40 0A       		.byte	0xa
 8638 0a41 FFFF     		.2byte	0xffff
 8639 0a43 1A       		.byte	0x1a
 8640 0a44 4B       		.byte	0x4b
 8641 0a45 24       		.byte	0x24
 8642 0a46 4B       		.byte	0x4b
 8643 0a47 25       		.byte	0x25
 8644 0a48 22       		.byte	0x22
 8645 0a49 33       		.byte	0x33
 8646 0a4a 24       		.byte	0x24
 8647 0a4b 91       		.byte	0x91
 8648 0a4c E27E     		.sleb128 -158
 8649 0a4e 94       		.byte	0x94
 8650 0a4f 02       		.byte	0x2
 8651 0a50 0A       		.byte	0xa
 8652 0a51 FFFF     		.2byte	0xffff
 8653 0a53 1A       		.byte	0x1a
 8654 0a54 4B       		.byte	0x4b
 8655 0a55 24       		.byte	0x24
 8656 0a56 4B       		.byte	0x4b
 8657 0a57 25       		.byte	0x25
 8658 0a58 1C       		.byte	0x1c
 8659 0a59 23       		.byte	0x23
 8660 0a5a 07       		.uleb128 0x7
 8661 0a5b 35       		.byte	0x35
 8662 0a5c 26       		.byte	0x26
 8663 0a5d 08       		.byte	0x8
 8664 0a5e FF       		.byte	0xff
 8665 0a5f 1A       		.byte	0x1a
 8666 0a60 21       		.byte	0x21
 8667 0a61 7A       		.byte	0x7a
 8668 0a62 00       		.sleb128 0
 8669 0a63 21       		.byte	0x21
 8670 0a64 38       		.byte	0x38
 8671 0a65 24       		.byte	0x24
 8672 0a66 48       		.byte	0x48
ARM GAS  C:\Users\haske\AppData\Local\Temp\ccoc8x2c.s 			page 169


 8673 0a67 25       		.byte	0x25
 8674 0a68 91       		.byte	0x91
 8675 0a69 E27E     		.sleb128 -158
 8676 0a6b 94       		.byte	0x94
 8677 0a6c 02       		.byte	0x2
 8678 0a6d 0A       		.byte	0xa
 8679 0a6e FFFF     		.2byte	0xffff
 8680 0a70 1A       		.byte	0x1a
 8681 0a71 3B       		.byte	0x3b
 8682 0a72 25       		.byte	0x25
 8683 0a73 35       		.byte	0x35
 8684 0a74 24       		.byte	0x24
 8685 0a75 91       		.byte	0x91
 8686 0a76 E27E     		.sleb128 -158
 8687 0a78 94       		.byte	0x94
 8688 0a79 02       		.byte	0x2
 8689 0a7a 0A       		.byte	0xa
 8690 0a7b FFFF     		.2byte	0xffff
 8691 0a7d 1A       		.byte	0x1a
 8692 0a7e 3B       		.byte	0x3b
 8693 0a7f 25       		.byte	0x25
 8694 0a80 22       		.byte	0x22
 8695 0a81 33       		.byte	0x33
 8696 0a82 24       		.byte	0x24
 8697 0a83 91       		.byte	0x91
 8698 0a84 E27E     		.sleb128 -158
 8699 0a86 94       		.byte	0x94
 8700 0a87 02       		.byte	0x2
 8701 0a88 0A       		.byte	0xa
 8702 0a89 FFFF     		.2byte	0xffff
 8703 0a8b 1A       		.byte	0x1a
 8704 0a8c 3B       		.byte	0x3b
 8705 0a8d 25       		.byte	0x25
 8706 0a8e 1C       		.byte	0x1c
 8707 0a8f 23       		.byte	0x23
 8708 0a90 07       		.uleb128 0x7
 8709 0a91 35       		.byte	0x35
 8710 0a92 26       		.byte	0x26
 8711 0a93 08       		.byte	0x8
 8712 0a94 FF       		.byte	0xff
 8713 0a95 1A       		.byte	0x1a
 8714 0a96 40       		.byte	0x40
 8715 0a97 24       		.byte	0x24
 8716 0a98 91       		.byte	0x91
 8717 0a99 E27E     		.sleb128 -158
 8718 0a9b 94       		.byte	0x94
 8719 0a9c 02       		.byte	0x2
 8720 0a9d 0A       		.byte	0xa
 8721 0a9e FFFF     		.2byte	0xffff
 8722 0aa0 1A       		.byte	0x1a
 8723 0aa1 45       		.byte	0x45
 8724 0aa2 24       		.byte	0x24
 8725 0aa3 4A       		.byte	0x4a
 8726 0aa4 25       		.byte	0x25
 8727 0aa5 37       		.byte	0x37
 8728 0aa6 24       		.byte	0x24
 8729 0aa7 91       		.byte	0x91
ARM GAS  C:\Users\haske\AppData\Local\Temp\ccoc8x2c.s 			page 170


 8730 0aa8 E27E     		.sleb128 -158
 8731 0aaa 94       		.byte	0x94
 8732 0aab 02       		.byte	0x2
 8733 0aac 0A       		.byte	0xa
 8734 0aad FFFF     		.2byte	0xffff
 8735 0aaf 1A       		.byte	0x1a
 8736 0ab0 45       		.byte	0x45
 8737 0ab1 24       		.byte	0x24
 8738 0ab2 4A       		.byte	0x4a
 8739 0ab3 25       		.byte	0x25
 8740 0ab4 22       		.byte	0x22
 8741 0ab5 31       		.byte	0x31
 8742 0ab6 24       		.byte	0x24
 8743 0ab7 91       		.byte	0x91
 8744 0ab8 E27E     		.sleb128 -158
 8745 0aba 94       		.byte	0x94
 8746 0abb 02       		.byte	0x2
 8747 0abc 0A       		.byte	0xa
 8748 0abd FFFF     		.2byte	0xffff
 8749 0abf 1A       		.byte	0x1a
 8750 0ac0 45       		.byte	0x45
 8751 0ac1 24       		.byte	0x24
 8752 0ac2 4A       		.byte	0x4a
 8753 0ac3 25       		.byte	0x25
 8754 0ac4 22       		.byte	0x22
 8755 0ac5 23       		.byte	0x23
 8756 0ac6 03       		.uleb128 0x3
 8757 0ac7 36       		.byte	0x36
 8758 0ac8 26       		.byte	0x26
 8759 0ac9 08       		.byte	0x8
 8760 0aca FF       		.byte	0xff
 8761 0acb 1A       		.byte	0x1a
 8762 0acc 38       		.byte	0x38
 8763 0acd 24       		.byte	0x24
 8764 0ace 21       		.byte	0x21
 8765 0acf 91       		.byte	0x91
 8766 0ad0 E27E     		.sleb128 -158
 8767 0ad2 94       		.byte	0x94
 8768 0ad3 02       		.byte	0x2
 8769 0ad4 0A       		.byte	0xa
 8770 0ad5 FFFF     		.2byte	0xffff
 8771 0ad7 1A       		.byte	0x1a
 8772 0ad8 4B       		.byte	0x4b
 8773 0ad9 24       		.byte	0x24
 8774 0ada 4B       		.byte	0x4b
 8775 0adb 25       		.byte	0x25
 8776 0adc 35       		.byte	0x35
 8777 0add 24       		.byte	0x24
 8778 0ade 91       		.byte	0x91
 8779 0adf E27E     		.sleb128 -158
 8780 0ae1 94       		.byte	0x94
 8781 0ae2 02       		.byte	0x2
 8782 0ae3 0A       		.byte	0xa
 8783 0ae4 FFFF     		.2byte	0xffff
 8784 0ae6 1A       		.byte	0x1a
 8785 0ae7 4B       		.byte	0x4b
 8786 0ae8 24       		.byte	0x24
ARM GAS  C:\Users\haske\AppData\Local\Temp\ccoc8x2c.s 			page 171


 8787 0ae9 4B       		.byte	0x4b
 8788 0aea 25       		.byte	0x25
 8789 0aeb 22       		.byte	0x22
 8790 0aec 33       		.byte	0x33
 8791 0aed 24       		.byte	0x24
 8792 0aee 91       		.byte	0x91
 8793 0aef E27E     		.sleb128 -158
 8794 0af1 94       		.byte	0x94
 8795 0af2 02       		.byte	0x2
 8796 0af3 0A       		.byte	0xa
 8797 0af4 FFFF     		.2byte	0xffff
 8798 0af6 1A       		.byte	0x1a
 8799 0af7 4B       		.byte	0x4b
 8800 0af8 24       		.byte	0x24
 8801 0af9 4B       		.byte	0x4b
 8802 0afa 25       		.byte	0x25
 8803 0afb 1C       		.byte	0x1c
 8804 0afc 23       		.byte	0x23
 8805 0afd 07       		.uleb128 0x7
 8806 0afe 35       		.byte	0x35
 8807 0aff 26       		.byte	0x26
 8808 0b00 08       		.byte	0x8
 8809 0b01 FF       		.byte	0xff
 8810 0b02 1A       		.byte	0x1a
 8811 0b03 21       		.byte	0x21
 8812 0b04 7A       		.byte	0x7a
 8813 0b05 00       		.sleb128 0
 8814 0b06 21       		.byte	0x21
 8815 0b07 40       		.byte	0x40
 8816 0b08 24       		.byte	0x24
 8817 0b09 48       		.byte	0x48
 8818 0b0a 25       		.byte	0x25
 8819 0b0b 32       		.byte	0x32
 8820 0b0c 24       		.byte	0x24
 8821 0b0d 22       		.byte	0x22
 8822 0b0e 74       		.byte	0x74
 8823 0b0f 00       		.sleb128 0
 8824 0b10 22       		.byte	0x22
 8825 0b11 0A       		.byte	0xa
 8826 0b12 FFFF     		.2byte	0xffff
 8827 0b14 1A       		.byte	0x1a
 8828 0b15 91       		.byte	0x91
 8829 0b16 E27E     		.sleb128 -158
 8830 0b18 94       		.byte	0x94
 8831 0b19 02       		.byte	0x2
 8832 0b1a 0A       		.byte	0xa
 8833 0b1b FFFF     		.2byte	0xffff
 8834 0b1d 1A       		.byte	0x1a
 8835 0b1e 3B       		.byte	0x3b
 8836 0b1f 25       		.byte	0x25
 8837 0b20 35       		.byte	0x35
 8838 0b21 24       		.byte	0x24
 8839 0b22 91       		.byte	0x91
 8840 0b23 E27E     		.sleb128 -158
 8841 0b25 94       		.byte	0x94
 8842 0b26 02       		.byte	0x2
 8843 0b27 0A       		.byte	0xa
ARM GAS  C:\Users\haske\AppData\Local\Temp\ccoc8x2c.s 			page 172


 8844 0b28 FFFF     		.2byte	0xffff
 8845 0b2a 1A       		.byte	0x1a
 8846 0b2b 3B       		.byte	0x3b
 8847 0b2c 25       		.byte	0x25
 8848 0b2d 22       		.byte	0x22
 8849 0b2e 33       		.byte	0x33
 8850 0b2f 24       		.byte	0x24
 8851 0b30 91       		.byte	0x91
 8852 0b31 E27E     		.sleb128 -158
 8853 0b33 94       		.byte	0x94
 8854 0b34 02       		.byte	0x2
 8855 0b35 0A       		.byte	0xa
 8856 0b36 FFFF     		.2byte	0xffff
 8857 0b38 1A       		.byte	0x1a
 8858 0b39 3B       		.byte	0x3b
 8859 0b3a 25       		.byte	0x25
 8860 0b3b 1C       		.byte	0x1c
 8861 0b3c 23       		.byte	0x23
 8862 0b3d 07       		.uleb128 0x7
 8863 0b3e 35       		.byte	0x35
 8864 0b3f 26       		.byte	0x26
 8865 0b40 08       		.byte	0x8
 8866 0b41 FF       		.byte	0xff
 8867 0b42 1A       		.byte	0x1a
 8868 0b43 40       		.byte	0x40
 8869 0b44 24       		.byte	0x24
 8870 0b45 91       		.byte	0x91
 8871 0b46 E27E     		.sleb128 -158
 8872 0b48 94       		.byte	0x94
 8873 0b49 02       		.byte	0x2
 8874 0b4a 0A       		.byte	0xa
 8875 0b4b FFFF     		.2byte	0xffff
 8876 0b4d 1A       		.byte	0x1a
 8877 0b4e 45       		.byte	0x45
 8878 0b4f 24       		.byte	0x24
 8879 0b50 4A       		.byte	0x4a
 8880 0b51 25       		.byte	0x25
 8881 0b52 37       		.byte	0x37
 8882 0b53 24       		.byte	0x24
 8883 0b54 91       		.byte	0x91
 8884 0b55 E27E     		.sleb128 -158
 8885 0b57 94       		.byte	0x94
 8886 0b58 02       		.byte	0x2
 8887 0b59 0A       		.byte	0xa
 8888 0b5a FFFF     		.2byte	0xffff
 8889 0b5c 1A       		.byte	0x1a
 8890 0b5d 45       		.byte	0x45
 8891 0b5e 24       		.byte	0x24
 8892 0b5f 4A       		.byte	0x4a
 8893 0b60 25       		.byte	0x25
 8894 0b61 22       		.byte	0x22
 8895 0b62 31       		.byte	0x31
 8896 0b63 24       		.byte	0x24
 8897 0b64 91       		.byte	0x91
 8898 0b65 E27E     		.sleb128 -158
 8899 0b67 94       		.byte	0x94
 8900 0b68 02       		.byte	0x2
ARM GAS  C:\Users\haske\AppData\Local\Temp\ccoc8x2c.s 			page 173


 8901 0b69 0A       		.byte	0xa
 8902 0b6a FFFF     		.2byte	0xffff
 8903 0b6c 1A       		.byte	0x1a
 8904 0b6d 45       		.byte	0x45
 8905 0b6e 24       		.byte	0x24
 8906 0b6f 4A       		.byte	0x4a
 8907 0b70 25       		.byte	0x25
 8908 0b71 22       		.byte	0x22
 8909 0b72 23       		.byte	0x23
 8910 0b73 03       		.uleb128 0x3
 8911 0b74 36       		.byte	0x36
 8912 0b75 26       		.byte	0x26
 8913 0b76 08       		.byte	0x8
 8914 0b77 FF       		.byte	0xff
 8915 0b78 1A       		.byte	0x1a
 8916 0b79 38       		.byte	0x38
 8917 0b7a 24       		.byte	0x24
 8918 0b7b 21       		.byte	0x21
 8919 0b7c 91       		.byte	0x91
 8920 0b7d E27E     		.sleb128 -158
 8921 0b7f 94       		.byte	0x94
 8922 0b80 02       		.byte	0x2
 8923 0b81 0A       		.byte	0xa
 8924 0b82 FFFF     		.2byte	0xffff
 8925 0b84 1A       		.byte	0x1a
 8926 0b85 4B       		.byte	0x4b
 8927 0b86 24       		.byte	0x24
 8928 0b87 4B       		.byte	0x4b
 8929 0b88 25       		.byte	0x25
 8930 0b89 35       		.byte	0x35
 8931 0b8a 24       		.byte	0x24
 8932 0b8b 91       		.byte	0x91
 8933 0b8c E27E     		.sleb128 -158
 8934 0b8e 94       		.byte	0x94
 8935 0b8f 02       		.byte	0x2
 8936 0b90 0A       		.byte	0xa
 8937 0b91 FFFF     		.2byte	0xffff
 8938 0b93 1A       		.byte	0x1a
 8939 0b94 4B       		.byte	0x4b
 8940 0b95 24       		.byte	0x24
 8941 0b96 4B       		.byte	0x4b
 8942 0b97 25       		.byte	0x25
 8943 0b98 22       		.byte	0x22
 8944 0b99 33       		.byte	0x33
 8945 0b9a 24       		.byte	0x24
 8946 0b9b 91       		.byte	0x91
 8947 0b9c E27E     		.sleb128 -158
 8948 0b9e 94       		.byte	0x94
 8949 0b9f 02       		.byte	0x2
 8950 0ba0 0A       		.byte	0xa
 8951 0ba1 FFFF     		.2byte	0xffff
 8952 0ba3 1A       		.byte	0x1a
 8953 0ba4 4B       		.byte	0x4b
 8954 0ba5 24       		.byte	0x24
 8955 0ba6 4B       		.byte	0x4b
 8956 0ba7 25       		.byte	0x25
 8957 0ba8 1C       		.byte	0x1c
ARM GAS  C:\Users\haske\AppData\Local\Temp\ccoc8x2c.s 			page 174


 8958 0ba9 23       		.byte	0x23
 8959 0baa 07       		.uleb128 0x7
 8960 0bab 35       		.byte	0x35
 8961 0bac 26       		.byte	0x26
 8962 0bad 08       		.byte	0x8
 8963 0bae FF       		.byte	0xff
 8964 0baf 1A       		.byte	0x1a
 8965 0bb0 21       		.byte	0x21
 8966 0bb1 7A       		.byte	0x7a
 8967 0bb2 00       		.sleb128 0
 8968 0bb3 21       		.byte	0x21
 8969 0bb4 08       		.byte	0x8
 8970 0bb5 FF       		.byte	0xff
 8971 0bb6 1A       		.byte	0x1a
 8972 0bb7 22       		.byte	0x22
 8973 0bb8 0A       		.byte	0xa
 8974 0bb9 FFFF     		.2byte	0xffff
 8975 0bbb 1A       		.byte	0x1a
 8976 0bbc 33       		.byte	0x33
 8977 0bbd 25       		.byte	0x25
 8978 0bbe 08       		.byte	0x8
 8979 0bbf FF       		.byte	0xff
 8980 0bc0 1A       		.byte	0x1a
 8981 0bc1 23       		.byte	0x23
 8982 0bc2 04       		.uleb128 0x4
 8983 0bc3 33       		.byte	0x33
 8984 0bc4 25       		.byte	0x25
 8985 0bc5 9F       		.byte	0x9f
 8986 0bc6 00000000 		.4byte	0
 8987 0bca 00000000 		.4byte	0
 8988              	.LLST25:
 8989 0bce B8010000 		.4byte	.LVL68
 8990 0bd2 D0010000 		.4byte	.LVL76
 8991 0bd6 0200     		.2byte	0x2
 8992 0bd8 30       		.byte	0x30
 8993 0bd9 9F       		.byte	0x9f
 8994 0bda 00000000 		.4byte	0
 8995 0bde 00000000 		.4byte	0
 8996              	.LLST26:
 8997 0be2 BE010000 		.4byte	.LVL70
 8998 0be6 C0010000 		.4byte	.LVL71
 8999 0bea 0600     		.2byte	0x6
 9000 0bec 70       		.byte	0x70
 9001 0bed 00       		.sleb128 0
 9002 0bee 72       		.byte	0x72
 9003 0bef 00       		.sleb128 0
 9004 0bf0 1A       		.byte	0x1a
 9005 0bf1 9F       		.byte	0x9f
 9006 0bf2 C0010000 		.4byte	.LVL71
 9007 0bf6 CC010000 		.4byte	.LVL74
 9008 0bfa 0100     		.2byte	0x1
 9009 0bfc 50       		.byte	0x50
 9010 0bfd CC010000 		.4byte	.LVL74
 9011 0c01 D0010000 		.4byte	.LVL76
 9012 0c05 1700     		.2byte	0x17
 9013 0c07 77       		.byte	0x77
 9014 0c08 24       		.sleb128 36
ARM GAS  C:\Users\haske\AppData\Local\Temp\ccoc8x2c.s 			page 175


 9015 0c09 94       		.byte	0x94
 9016 0c0a 02       		.byte	0x2
 9017 0c0b 0A       		.byte	0xa
 9018 0c0c FFFF     		.2byte	0xffff
 9019 0c0e 1A       		.byte	0x1a
 9020 0c0f 40       		.byte	0x40
 9021 0c10 24       		.byte	0x24
 9022 0c11 77       		.byte	0x77
 9023 0c12 24       		.sleb128 36
 9024 0c13 94       		.byte	0x94
 9025 0c14 02       		.byte	0x2
 9026 0c15 0A       		.byte	0xa
 9027 0c16 FFFF     		.2byte	0xffff
 9028 0c18 1A       		.byte	0x1a
 9029 0c19 21       		.byte	0x21
 9030 0c1a 72       		.byte	0x72
 9031 0c1b 00       		.sleb128 0
 9032 0c1c 1A       		.byte	0x1a
 9033 0c1d 9F       		.byte	0x9f
 9034 0c1e 00000000 		.4byte	0
 9035 0c22 00000000 		.4byte	0
 9036              	.LLST27:
 9037 0c26 CA010000 		.4byte	.LVL73
 9038 0c2a CE010000 		.4byte	.LVL75
 9039 0c2e 0100     		.2byte	0x1
 9040 0c30 53       		.byte	0x53
 9041 0c31 CE010000 		.4byte	.LVL75
 9042 0c35 D0010000 		.4byte	.LVL76
 9043 0c39 2002     		.2byte	0x220
 9044 0c3b 77       		.byte	0x77
 9045 0c3c 24       		.sleb128 36
 9046 0c3d 94       		.byte	0x94
 9047 0c3e 02       		.byte	0x2
 9048 0c3f 0A       		.byte	0xa
 9049 0c40 FFFF     		.2byte	0xffff
 9050 0c42 1A       		.byte	0x1a
 9051 0c43 40       		.byte	0x40
 9052 0c44 24       		.byte	0x24
 9053 0c45 77       		.byte	0x77
 9054 0c46 24       		.sleb128 36
 9055 0c47 94       		.byte	0x94
 9056 0c48 02       		.byte	0x2
 9057 0c49 0A       		.byte	0xa
 9058 0c4a FFFF     		.2byte	0xffff
 9059 0c4c 1A       		.byte	0x1a
 9060 0c4d 21       		.byte	0x21
 9061 0c4e 72       		.byte	0x72
 9062 0c4f 00       		.sleb128 0
 9063 0c50 1A       		.byte	0x1a
 9064 0c51 91       		.byte	0x91
 9065 0c52 E27E     		.sleb128 -158
 9066 0c54 94       		.byte	0x94
 9067 0c55 02       		.byte	0x2
 9068 0c56 0A       		.byte	0xa
 9069 0c57 FFFF     		.2byte	0xffff
 9070 0c59 1A       		.byte	0x1a
 9071 0c5a 3B       		.byte	0x3b
ARM GAS  C:\Users\haske\AppData\Local\Temp\ccoc8x2c.s 			page 176


 9072 0c5b 25       		.byte	0x25
 9073 0c5c 35       		.byte	0x35
 9074 0c5d 24       		.byte	0x24
 9075 0c5e 91       		.byte	0x91
 9076 0c5f E27E     		.sleb128 -158
 9077 0c61 94       		.byte	0x94
 9078 0c62 02       		.byte	0x2
 9079 0c63 0A       		.byte	0xa
 9080 0c64 FFFF     		.2byte	0xffff
 9081 0c66 1A       		.byte	0x1a
 9082 0c67 3B       		.byte	0x3b
 9083 0c68 25       		.byte	0x25
 9084 0c69 22       		.byte	0x22
 9085 0c6a 33       		.byte	0x33
 9086 0c6b 24       		.byte	0x24
 9087 0c6c 91       		.byte	0x91
 9088 0c6d E27E     		.sleb128 -158
 9089 0c6f 94       		.byte	0x94
 9090 0c70 02       		.byte	0x2
 9091 0c71 0A       		.byte	0xa
 9092 0c72 FFFF     		.2byte	0xffff
 9093 0c74 1A       		.byte	0x1a
 9094 0c75 3B       		.byte	0x3b
 9095 0c76 25       		.byte	0x25
 9096 0c77 1C       		.byte	0x1c
 9097 0c78 23       		.byte	0x23
 9098 0c79 07       		.uleb128 0x7
 9099 0c7a 35       		.byte	0x35
 9100 0c7b 26       		.byte	0x26
 9101 0c7c 08       		.byte	0x8
 9102 0c7d FF       		.byte	0xff
 9103 0c7e 1A       		.byte	0x1a
 9104 0c7f 40       		.byte	0x40
 9105 0c80 24       		.byte	0x24
 9106 0c81 91       		.byte	0x91
 9107 0c82 E27E     		.sleb128 -158
 9108 0c84 94       		.byte	0x94
 9109 0c85 02       		.byte	0x2
 9110 0c86 0A       		.byte	0xa
 9111 0c87 FFFF     		.2byte	0xffff
 9112 0c89 1A       		.byte	0x1a
 9113 0c8a 45       		.byte	0x45
 9114 0c8b 24       		.byte	0x24
 9115 0c8c 4A       		.byte	0x4a
 9116 0c8d 25       		.byte	0x25
 9117 0c8e 37       		.byte	0x37
 9118 0c8f 24       		.byte	0x24
 9119 0c90 91       		.byte	0x91
 9120 0c91 E27E     		.sleb128 -158
 9121 0c93 94       		.byte	0x94
 9122 0c94 02       		.byte	0x2
 9123 0c95 0A       		.byte	0xa
 9124 0c96 FFFF     		.2byte	0xffff
 9125 0c98 1A       		.byte	0x1a
 9126 0c99 45       		.byte	0x45
 9127 0c9a 24       		.byte	0x24
 9128 0c9b 4A       		.byte	0x4a
ARM GAS  C:\Users\haske\AppData\Local\Temp\ccoc8x2c.s 			page 177


 9129 0c9c 25       		.byte	0x25
 9130 0c9d 22       		.byte	0x22
 9131 0c9e 31       		.byte	0x31
 9132 0c9f 24       		.byte	0x24
 9133 0ca0 91       		.byte	0x91
 9134 0ca1 E27E     		.sleb128 -158
 9135 0ca3 94       		.byte	0x94
 9136 0ca4 02       		.byte	0x2
 9137 0ca5 0A       		.byte	0xa
 9138 0ca6 FFFF     		.2byte	0xffff
 9139 0ca8 1A       		.byte	0x1a
 9140 0ca9 45       		.byte	0x45
 9141 0caa 24       		.byte	0x24
 9142 0cab 4A       		.byte	0x4a
 9143 0cac 25       		.byte	0x25
 9144 0cad 22       		.byte	0x22
 9145 0cae 23       		.byte	0x23
 9146 0caf 03       		.uleb128 0x3
 9147 0cb0 36       		.byte	0x36
 9148 0cb1 26       		.byte	0x26
 9149 0cb2 08       		.byte	0x8
 9150 0cb3 FF       		.byte	0xff
 9151 0cb4 1A       		.byte	0x1a
 9152 0cb5 38       		.byte	0x38
 9153 0cb6 24       		.byte	0x24
 9154 0cb7 21       		.byte	0x21
 9155 0cb8 91       		.byte	0x91
 9156 0cb9 E27E     		.sleb128 -158
 9157 0cbb 94       		.byte	0x94
 9158 0cbc 02       		.byte	0x2
 9159 0cbd 0A       		.byte	0xa
 9160 0cbe FFFF     		.2byte	0xffff
 9161 0cc0 1A       		.byte	0x1a
 9162 0cc1 4B       		.byte	0x4b
 9163 0cc2 24       		.byte	0x24
 9164 0cc3 4B       		.byte	0x4b
 9165 0cc4 25       		.byte	0x25
 9166 0cc5 35       		.byte	0x35
 9167 0cc6 24       		.byte	0x24
 9168 0cc7 91       		.byte	0x91
 9169 0cc8 E27E     		.sleb128 -158
 9170 0cca 94       		.byte	0x94
 9171 0ccb 02       		.byte	0x2
 9172 0ccc 0A       		.byte	0xa
 9173 0ccd FFFF     		.2byte	0xffff
 9174 0ccf 1A       		.byte	0x1a
 9175 0cd0 4B       		.byte	0x4b
 9176 0cd1 24       		.byte	0x24
 9177 0cd2 4B       		.byte	0x4b
 9178 0cd3 25       		.byte	0x25
 9179 0cd4 22       		.byte	0x22
 9180 0cd5 33       		.byte	0x33
 9181 0cd6 24       		.byte	0x24
 9182 0cd7 91       		.byte	0x91
 9183 0cd8 E27E     		.sleb128 -158
 9184 0cda 94       		.byte	0x94
 9185 0cdb 02       		.byte	0x2
ARM GAS  C:\Users\haske\AppData\Local\Temp\ccoc8x2c.s 			page 178


 9186 0cdc 0A       		.byte	0xa
 9187 0cdd FFFF     		.2byte	0xffff
 9188 0cdf 1A       		.byte	0x1a
 9189 0ce0 4B       		.byte	0x4b
 9190 0ce1 24       		.byte	0x24
 9191 0ce2 4B       		.byte	0x4b
 9192 0ce3 25       		.byte	0x25
 9193 0ce4 1C       		.byte	0x1c
 9194 0ce5 23       		.byte	0x23
 9195 0ce6 07       		.uleb128 0x7
 9196 0ce7 35       		.byte	0x35
 9197 0ce8 26       		.byte	0x26
 9198 0ce9 08       		.byte	0x8
 9199 0cea FF       		.byte	0xff
 9200 0ceb 1A       		.byte	0x1a
 9201 0cec 21       		.byte	0x21
 9202 0ced 7A       		.byte	0x7a
 9203 0cee 00       		.sleb128 0
 9204 0cef 21       		.byte	0x21
 9205 0cf0 38       		.byte	0x38
 9206 0cf1 24       		.byte	0x24
 9207 0cf2 48       		.byte	0x48
 9208 0cf3 25       		.byte	0x25
 9209 0cf4 91       		.byte	0x91
 9210 0cf5 E27E     		.sleb128 -158
 9211 0cf7 94       		.byte	0x94
 9212 0cf8 02       		.byte	0x2
 9213 0cf9 0A       		.byte	0xa
 9214 0cfa FFFF     		.2byte	0xffff
 9215 0cfc 1A       		.byte	0x1a
 9216 0cfd 3B       		.byte	0x3b
 9217 0cfe 25       		.byte	0x25
 9218 0cff 35       		.byte	0x35
 9219 0d00 24       		.byte	0x24
 9220 0d01 91       		.byte	0x91
 9221 0d02 E27E     		.sleb128 -158
 9222 0d04 94       		.byte	0x94
 9223 0d05 02       		.byte	0x2
 9224 0d06 0A       		.byte	0xa
 9225 0d07 FFFF     		.2byte	0xffff
 9226 0d09 1A       		.byte	0x1a
 9227 0d0a 3B       		.byte	0x3b
 9228 0d0b 25       		.byte	0x25
 9229 0d0c 22       		.byte	0x22
 9230 0d0d 33       		.byte	0x33
 9231 0d0e 24       		.byte	0x24
 9232 0d0f 91       		.byte	0x91
 9233 0d10 E27E     		.sleb128 -158
 9234 0d12 94       		.byte	0x94
 9235 0d13 02       		.byte	0x2
 9236 0d14 0A       		.byte	0xa
 9237 0d15 FFFF     		.2byte	0xffff
 9238 0d17 1A       		.byte	0x1a
 9239 0d18 3B       		.byte	0x3b
 9240 0d19 25       		.byte	0x25
 9241 0d1a 1C       		.byte	0x1c
 9242 0d1b 23       		.byte	0x23
ARM GAS  C:\Users\haske\AppData\Local\Temp\ccoc8x2c.s 			page 179


 9243 0d1c 07       		.uleb128 0x7
 9244 0d1d 35       		.byte	0x35
 9245 0d1e 26       		.byte	0x26
 9246 0d1f 08       		.byte	0x8
 9247 0d20 FF       		.byte	0xff
 9248 0d21 1A       		.byte	0x1a
 9249 0d22 40       		.byte	0x40
 9250 0d23 24       		.byte	0x24
 9251 0d24 91       		.byte	0x91
 9252 0d25 E27E     		.sleb128 -158
 9253 0d27 94       		.byte	0x94
 9254 0d28 02       		.byte	0x2
 9255 0d29 0A       		.byte	0xa
 9256 0d2a FFFF     		.2byte	0xffff
 9257 0d2c 1A       		.byte	0x1a
 9258 0d2d 45       		.byte	0x45
 9259 0d2e 24       		.byte	0x24
 9260 0d2f 4A       		.byte	0x4a
 9261 0d30 25       		.byte	0x25
 9262 0d31 37       		.byte	0x37
 9263 0d32 24       		.byte	0x24
 9264 0d33 91       		.byte	0x91
 9265 0d34 E27E     		.sleb128 -158
 9266 0d36 94       		.byte	0x94
 9267 0d37 02       		.byte	0x2
 9268 0d38 0A       		.byte	0xa
 9269 0d39 FFFF     		.2byte	0xffff
 9270 0d3b 1A       		.byte	0x1a
 9271 0d3c 45       		.byte	0x45
 9272 0d3d 24       		.byte	0x24
 9273 0d3e 4A       		.byte	0x4a
 9274 0d3f 25       		.byte	0x25
 9275 0d40 22       		.byte	0x22
 9276 0d41 31       		.byte	0x31
 9277 0d42 24       		.byte	0x24
 9278 0d43 91       		.byte	0x91
 9279 0d44 E27E     		.sleb128 -158
 9280 0d46 94       		.byte	0x94
 9281 0d47 02       		.byte	0x2
 9282 0d48 0A       		.byte	0xa
 9283 0d49 FFFF     		.2byte	0xffff
 9284 0d4b 1A       		.byte	0x1a
 9285 0d4c 45       		.byte	0x45
 9286 0d4d 24       		.byte	0x24
 9287 0d4e 4A       		.byte	0x4a
 9288 0d4f 25       		.byte	0x25
 9289 0d50 22       		.byte	0x22
 9290 0d51 23       		.byte	0x23
 9291 0d52 03       		.uleb128 0x3
 9292 0d53 36       		.byte	0x36
 9293 0d54 26       		.byte	0x26
 9294 0d55 08       		.byte	0x8
 9295 0d56 FF       		.byte	0xff
 9296 0d57 1A       		.byte	0x1a
 9297 0d58 38       		.byte	0x38
 9298 0d59 24       		.byte	0x24
 9299 0d5a 21       		.byte	0x21
ARM GAS  C:\Users\haske\AppData\Local\Temp\ccoc8x2c.s 			page 180


 9300 0d5b 91       		.byte	0x91
 9301 0d5c E27E     		.sleb128 -158
 9302 0d5e 94       		.byte	0x94
 9303 0d5f 02       		.byte	0x2
 9304 0d60 0A       		.byte	0xa
 9305 0d61 FFFF     		.2byte	0xffff
 9306 0d63 1A       		.byte	0x1a
 9307 0d64 4B       		.byte	0x4b
 9308 0d65 24       		.byte	0x24
 9309 0d66 4B       		.byte	0x4b
 9310 0d67 25       		.byte	0x25
 9311 0d68 35       		.byte	0x35
 9312 0d69 24       		.byte	0x24
 9313 0d6a 91       		.byte	0x91
 9314 0d6b E27E     		.sleb128 -158
 9315 0d6d 94       		.byte	0x94
 9316 0d6e 02       		.byte	0x2
 9317 0d6f 0A       		.byte	0xa
 9318 0d70 FFFF     		.2byte	0xffff
 9319 0d72 1A       		.byte	0x1a
 9320 0d73 4B       		.byte	0x4b
 9321 0d74 24       		.byte	0x24
 9322 0d75 4B       		.byte	0x4b
 9323 0d76 25       		.byte	0x25
 9324 0d77 22       		.byte	0x22
 9325 0d78 33       		.byte	0x33
 9326 0d79 24       		.byte	0x24
 9327 0d7a 91       		.byte	0x91
 9328 0d7b E27E     		.sleb128 -158
 9329 0d7d 94       		.byte	0x94
 9330 0d7e 02       		.byte	0x2
 9331 0d7f 0A       		.byte	0xa
 9332 0d80 FFFF     		.2byte	0xffff
 9333 0d82 1A       		.byte	0x1a
 9334 0d83 4B       		.byte	0x4b
 9335 0d84 24       		.byte	0x24
 9336 0d85 4B       		.byte	0x4b
 9337 0d86 25       		.byte	0x25
 9338 0d87 1C       		.byte	0x1c
 9339 0d88 23       		.byte	0x23
 9340 0d89 07       		.uleb128 0x7
 9341 0d8a 35       		.byte	0x35
 9342 0d8b 26       		.byte	0x26
 9343 0d8c 08       		.byte	0x8
 9344 0d8d FF       		.byte	0xff
 9345 0d8e 1A       		.byte	0x1a
 9346 0d8f 21       		.byte	0x21
 9347 0d90 7A       		.byte	0x7a
 9348 0d91 00       		.sleb128 0
 9349 0d92 21       		.byte	0x21
 9350 0d93 40       		.byte	0x40
 9351 0d94 24       		.byte	0x24
 9352 0d95 48       		.byte	0x48
 9353 0d96 25       		.byte	0x25
 9354 0d97 32       		.byte	0x32
 9355 0d98 24       		.byte	0x24
 9356 0d99 22       		.byte	0x22
ARM GAS  C:\Users\haske\AppData\Local\Temp\ccoc8x2c.s 			page 181


 9357 0d9a 74       		.byte	0x74
 9358 0d9b 00       		.sleb128 0
 9359 0d9c 22       		.byte	0x22
 9360 0d9d 0A       		.byte	0xa
 9361 0d9e FFFF     		.2byte	0xffff
 9362 0da0 1A       		.byte	0x1a
 9363 0da1 91       		.byte	0x91
 9364 0da2 E27E     		.sleb128 -158
 9365 0da4 94       		.byte	0x94
 9366 0da5 02       		.byte	0x2
 9367 0da6 0A       		.byte	0xa
 9368 0da7 FFFF     		.2byte	0xffff
 9369 0da9 1A       		.byte	0x1a
 9370 0daa 3B       		.byte	0x3b
 9371 0dab 25       		.byte	0x25
 9372 0dac 35       		.byte	0x35
 9373 0dad 24       		.byte	0x24
 9374 0dae 91       		.byte	0x91
 9375 0daf E27E     		.sleb128 -158
 9376 0db1 94       		.byte	0x94
 9377 0db2 02       		.byte	0x2
 9378 0db3 0A       		.byte	0xa
 9379 0db4 FFFF     		.2byte	0xffff
 9380 0db6 1A       		.byte	0x1a
 9381 0db7 3B       		.byte	0x3b
 9382 0db8 25       		.byte	0x25
 9383 0db9 22       		.byte	0x22
 9384 0dba 33       		.byte	0x33
 9385 0dbb 24       		.byte	0x24
 9386 0dbc 91       		.byte	0x91
 9387 0dbd E27E     		.sleb128 -158
 9388 0dbf 94       		.byte	0x94
 9389 0dc0 02       		.byte	0x2
 9390 0dc1 0A       		.byte	0xa
 9391 0dc2 FFFF     		.2byte	0xffff
 9392 0dc4 1A       		.byte	0x1a
 9393 0dc5 3B       		.byte	0x3b
 9394 0dc6 25       		.byte	0x25
 9395 0dc7 1C       		.byte	0x1c
 9396 0dc8 23       		.byte	0x23
 9397 0dc9 07       		.uleb128 0x7
 9398 0dca 35       		.byte	0x35
 9399 0dcb 26       		.byte	0x26
 9400 0dcc 08       		.byte	0x8
 9401 0dcd FF       		.byte	0xff
 9402 0dce 1A       		.byte	0x1a
 9403 0dcf 40       		.byte	0x40
 9404 0dd0 24       		.byte	0x24
 9405 0dd1 91       		.byte	0x91
 9406 0dd2 E27E     		.sleb128 -158
 9407 0dd4 94       		.byte	0x94
 9408 0dd5 02       		.byte	0x2
 9409 0dd6 0A       		.byte	0xa
 9410 0dd7 FFFF     		.2byte	0xffff
 9411 0dd9 1A       		.byte	0x1a
 9412 0dda 45       		.byte	0x45
 9413 0ddb 24       		.byte	0x24
ARM GAS  C:\Users\haske\AppData\Local\Temp\ccoc8x2c.s 			page 182


 9414 0ddc 4A       		.byte	0x4a
 9415 0ddd 25       		.byte	0x25
 9416 0dde 37       		.byte	0x37
 9417 0ddf 24       		.byte	0x24
 9418 0de0 91       		.byte	0x91
 9419 0de1 E27E     		.sleb128 -158
 9420 0de3 94       		.byte	0x94
 9421 0de4 02       		.byte	0x2
 9422 0de5 0A       		.byte	0xa
 9423 0de6 FFFF     		.2byte	0xffff
 9424 0de8 1A       		.byte	0x1a
 9425 0de9 45       		.byte	0x45
 9426 0dea 24       		.byte	0x24
 9427 0deb 4A       		.byte	0x4a
 9428 0dec 25       		.byte	0x25
 9429 0ded 22       		.byte	0x22
 9430 0dee 31       		.byte	0x31
 9431 0def 24       		.byte	0x24
 9432 0df0 91       		.byte	0x91
 9433 0df1 E27E     		.sleb128 -158
 9434 0df3 94       		.byte	0x94
 9435 0df4 02       		.byte	0x2
 9436 0df5 0A       		.byte	0xa
 9437 0df6 FFFF     		.2byte	0xffff
 9438 0df8 1A       		.byte	0x1a
 9439 0df9 45       		.byte	0x45
 9440 0dfa 24       		.byte	0x24
 9441 0dfb 4A       		.byte	0x4a
 9442 0dfc 25       		.byte	0x25
 9443 0dfd 22       		.byte	0x22
 9444 0dfe 23       		.byte	0x23
 9445 0dff 03       		.uleb128 0x3
 9446 0e00 36       		.byte	0x36
 9447 0e01 26       		.byte	0x26
 9448 0e02 08       		.byte	0x8
 9449 0e03 FF       		.byte	0xff
 9450 0e04 1A       		.byte	0x1a
 9451 0e05 38       		.byte	0x38
 9452 0e06 24       		.byte	0x24
 9453 0e07 21       		.byte	0x21
 9454 0e08 91       		.byte	0x91
 9455 0e09 E27E     		.sleb128 -158
 9456 0e0b 94       		.byte	0x94
 9457 0e0c 02       		.byte	0x2
 9458 0e0d 0A       		.byte	0xa
 9459 0e0e FFFF     		.2byte	0xffff
 9460 0e10 1A       		.byte	0x1a
 9461 0e11 4B       		.byte	0x4b
 9462 0e12 24       		.byte	0x24
 9463 0e13 4B       		.byte	0x4b
 9464 0e14 25       		.byte	0x25
 9465 0e15 35       		.byte	0x35
 9466 0e16 24       		.byte	0x24
 9467 0e17 91       		.byte	0x91
 9468 0e18 E27E     		.sleb128 -158
 9469 0e1a 94       		.byte	0x94
 9470 0e1b 02       		.byte	0x2
ARM GAS  C:\Users\haske\AppData\Local\Temp\ccoc8x2c.s 			page 183


 9471 0e1c 0A       		.byte	0xa
 9472 0e1d FFFF     		.2byte	0xffff
 9473 0e1f 1A       		.byte	0x1a
 9474 0e20 4B       		.byte	0x4b
 9475 0e21 24       		.byte	0x24
 9476 0e22 4B       		.byte	0x4b
 9477 0e23 25       		.byte	0x25
 9478 0e24 22       		.byte	0x22
 9479 0e25 33       		.byte	0x33
 9480 0e26 24       		.byte	0x24
 9481 0e27 91       		.byte	0x91
 9482 0e28 E27E     		.sleb128 -158
 9483 0e2a 94       		.byte	0x94
 9484 0e2b 02       		.byte	0x2
 9485 0e2c 0A       		.byte	0xa
 9486 0e2d FFFF     		.2byte	0xffff
 9487 0e2f 1A       		.byte	0x1a
 9488 0e30 4B       		.byte	0x4b
 9489 0e31 24       		.byte	0x24
 9490 0e32 4B       		.byte	0x4b
 9491 0e33 25       		.byte	0x25
 9492 0e34 1C       		.byte	0x1c
 9493 0e35 23       		.byte	0x23
 9494 0e36 07       		.uleb128 0x7
 9495 0e37 35       		.byte	0x35
 9496 0e38 26       		.byte	0x26
 9497 0e39 08       		.byte	0x8
 9498 0e3a FF       		.byte	0xff
 9499 0e3b 1A       		.byte	0x1a
 9500 0e3c 21       		.byte	0x21
 9501 0e3d 7A       		.byte	0x7a
 9502 0e3e 00       		.sleb128 0
 9503 0e3f 21       		.byte	0x21
 9504 0e40 08       		.byte	0x8
 9505 0e41 FF       		.byte	0xff
 9506 0e42 1A       		.byte	0x1a
 9507 0e43 22       		.byte	0x22
 9508 0e44 0A       		.byte	0xa
 9509 0e45 FFFF     		.2byte	0xffff
 9510 0e47 1A       		.byte	0x1a
 9511 0e48 33       		.byte	0x33
 9512 0e49 25       		.byte	0x25
 9513 0e4a 08       		.byte	0x8
 9514 0e4b FF       		.byte	0xff
 9515 0e4c 1A       		.byte	0x1a
 9516 0e4d 23       		.byte	0x23
 9517 0e4e 04       		.uleb128 0x4
 9518 0e4f 33       		.byte	0x33
 9519 0e50 25       		.byte	0x25
 9520 0e51 71       		.byte	0x71
 9521 0e52 00       		.sleb128 0
 9522 0e53 1A       		.byte	0x1a
 9523 0e54 1E       		.byte	0x1e
 9524 0e55 35       		.byte	0x35
 9525 0e56 25       		.byte	0x25
 9526 0e57 72       		.byte	0x72
 9527 0e58 00       		.sleb128 0
ARM GAS  C:\Users\haske\AppData\Local\Temp\ccoc8x2c.s 			page 184


 9528 0e59 1A       		.byte	0x1a
 9529 0e5a 9F       		.byte	0x9f
 9530 0e5b 00000000 		.4byte	0
 9531 0e5f 00000000 		.4byte	0
 9532              	.LLST28:
 9533 0e63 3A020000 		.4byte	.LVL85
 9534 0e67 3C020000 		.4byte	.LVL86
 9535 0e6b 0100     		.2byte	0x1
 9536 0e6d 53       		.byte	0x53
 9537 0e6e 3C020000 		.4byte	.LVL86
 9538 0e72 3E020000 		.4byte	.LVL87
 9539 0e76 8900     		.2byte	0x89
 9540 0e78 91       		.byte	0x91
 9541 0e79 847F     		.sleb128 -124
 9542 0e7b 94       		.byte	0x94
 9543 0e7c 02       		.byte	0x2
 9544 0e7d 0A       		.byte	0xa
 9545 0e7e FFFF     		.2byte	0xffff
 9546 0e80 1A       		.byte	0x1a
 9547 0e81 3B       		.byte	0x3b
 9548 0e82 25       		.byte	0x25
 9549 0e83 35       		.byte	0x35
 9550 0e84 24       		.byte	0x24
 9551 0e85 91       		.byte	0x91
 9552 0e86 847F     		.sleb128 -124
 9553 0e88 94       		.byte	0x94
 9554 0e89 02       		.byte	0x2
 9555 0e8a 0A       		.byte	0xa
 9556 0e8b FFFF     		.2byte	0xffff
 9557 0e8d 1A       		.byte	0x1a
 9558 0e8e 3B       		.byte	0x3b
 9559 0e8f 25       		.byte	0x25
 9560 0e90 22       		.byte	0x22
 9561 0e91 33       		.byte	0x33
 9562 0e92 24       		.byte	0x24
 9563 0e93 91       		.byte	0x91
 9564 0e94 847F     		.sleb128 -124
 9565 0e96 94       		.byte	0x94
 9566 0e97 02       		.byte	0x2
 9567 0e98 0A       		.byte	0xa
 9568 0e99 FFFF     		.2byte	0xffff
 9569 0e9b 1A       		.byte	0x1a
 9570 0e9c 3B       		.byte	0x3b
 9571 0e9d 25       		.byte	0x25
 9572 0e9e 1C       		.byte	0x1c
 9573 0e9f 23       		.byte	0x23
 9574 0ea0 07       		.uleb128 0x7
 9575 0ea1 35       		.byte	0x35
 9576 0ea2 26       		.byte	0x26
 9577 0ea3 08       		.byte	0x8
 9578 0ea4 FF       		.byte	0xff
 9579 0ea5 1A       		.byte	0x1a
 9580 0ea6 40       		.byte	0x40
 9581 0ea7 24       		.byte	0x24
 9582 0ea8 91       		.byte	0x91
 9583 0ea9 847F     		.sleb128 -124
 9584 0eab 94       		.byte	0x94
ARM GAS  C:\Users\haske\AppData\Local\Temp\ccoc8x2c.s 			page 185


 9585 0eac 02       		.byte	0x2
 9586 0ead 0A       		.byte	0xa
 9587 0eae FFFF     		.2byte	0xffff
 9588 0eb0 1A       		.byte	0x1a
 9589 0eb1 45       		.byte	0x45
 9590 0eb2 24       		.byte	0x24
 9591 0eb3 4A       		.byte	0x4a
 9592 0eb4 25       		.byte	0x25
 9593 0eb5 78       		.byte	0x78
 9594 0eb6 00       		.sleb128 0
 9595 0eb7 22       		.byte	0x22
 9596 0eb8 23       		.byte	0x23
 9597 0eb9 03       		.uleb128 0x3
 9598 0eba 36       		.byte	0x36
 9599 0ebb 26       		.byte	0x26
 9600 0ebc 08       		.byte	0x8
 9601 0ebd FF       		.byte	0xff
 9602 0ebe 1A       		.byte	0x1a
 9603 0ebf 38       		.byte	0x38
 9604 0ec0 24       		.byte	0x24
 9605 0ec1 21       		.byte	0x21
 9606 0ec2 91       		.byte	0x91
 9607 0ec3 847F     		.sleb128 -124
 9608 0ec5 94       		.byte	0x94
 9609 0ec6 02       		.byte	0x2
 9610 0ec7 0A       		.byte	0xa
 9611 0ec8 FFFF     		.2byte	0xffff
 9612 0eca 1A       		.byte	0x1a
 9613 0ecb 4B       		.byte	0x4b
 9614 0ecc 24       		.byte	0x24
 9615 0ecd 4B       		.byte	0x4b
 9616 0ece 25       		.byte	0x25
 9617 0ecf 35       		.byte	0x35
 9618 0ed0 24       		.byte	0x24
 9619 0ed1 91       		.byte	0x91
 9620 0ed2 847F     		.sleb128 -124
 9621 0ed4 94       		.byte	0x94
 9622 0ed5 02       		.byte	0x2
 9623 0ed6 0A       		.byte	0xa
 9624 0ed7 FFFF     		.2byte	0xffff
 9625 0ed9 1A       		.byte	0x1a
 9626 0eda 4B       		.byte	0x4b
 9627 0edb 24       		.byte	0x24
 9628 0edc 4B       		.byte	0x4b
 9629 0edd 25       		.byte	0x25
 9630 0ede 22       		.byte	0x22
 9631 0edf 33       		.byte	0x33
 9632 0ee0 24       		.byte	0x24
 9633 0ee1 91       		.byte	0x91
 9634 0ee2 847F     		.sleb128 -124
 9635 0ee4 94       		.byte	0x94
 9636 0ee5 02       		.byte	0x2
 9637 0ee6 0A       		.byte	0xa
 9638 0ee7 FFFF     		.2byte	0xffff
 9639 0ee9 1A       		.byte	0x1a
 9640 0eea 4B       		.byte	0x4b
 9641 0eeb 24       		.byte	0x24
ARM GAS  C:\Users\haske\AppData\Local\Temp\ccoc8x2c.s 			page 186


 9642 0eec 4B       		.byte	0x4b
 9643 0eed 25       		.byte	0x25
 9644 0eee 1C       		.byte	0x1c
 9645 0eef 23       		.byte	0x23
 9646 0ef0 07       		.uleb128 0x7
 9647 0ef1 35       		.byte	0x35
 9648 0ef2 26       		.byte	0x26
 9649 0ef3 08       		.byte	0x8
 9650 0ef4 FF       		.byte	0xff
 9651 0ef5 1A       		.byte	0x1a
 9652 0ef6 21       		.byte	0x21
 9653 0ef7 7A       		.byte	0x7a
 9654 0ef8 00       		.sleb128 0
 9655 0ef9 21       		.byte	0x21
 9656 0efa 08       		.byte	0x8
 9657 0efb FF       		.byte	0xff
 9658 0efc 1A       		.byte	0x1a
 9659 0efd 71       		.byte	0x71
 9660 0efe 00       		.sleb128 0
 9661 0eff 22       		.byte	0x22
 9662 0f00 9F       		.byte	0x9f
 9663 0f01 00000000 		.4byte	0
 9664 0f05 00000000 		.4byte	0
 9665              	.LLST29:
 9666 0f09 04020000 		.4byte	.LVL78
 9667 0f0d 06020000 		.4byte	.LVL79
 9668 0f11 0100     		.2byte	0x1
 9669 0f13 53       		.byte	0x53
 9670 0f14 18020000 		.4byte	.LVL80
 9671 0f18 1A020000 		.4byte	.LVL81
 9672 0f1c 0100     		.2byte	0x1
 9673 0f1e 53       		.byte	0x53
 9674 0f1f 1C020000 		.4byte	.LVL82
 9675 0f23 36020000 		.4byte	.LVL84
 9676 0f27 0100     		.2byte	0x1
 9677 0f29 53       		.byte	0x53
 9678 0f2a 00000000 		.4byte	0
 9679 0f2e 00000000 		.4byte	0
 9680              	.LLST30:
 9681 0f32 42020000 		.4byte	.LVL88
 9682 0f36 4E020000 		.4byte	.LVL91
 9683 0f3a 0100     		.2byte	0x1
 9684 0f3c 53       		.byte	0x53
 9685 0f3d 4E020000 		.4byte	.LVL91
 9686 0f41 5A020000 		.4byte	.LVL95
 9687 0f45 2801     		.2byte	0x128
 9688 0f47 7C       		.byte	0x7c
 9689 0f48 00       		.sleb128 0
 9690 0f49 31       		.byte	0x31
 9691 0f4a 24       		.byte	0x24
 9692 0f4b 91       		.byte	0x91
 9693 0f4c 847F     		.sleb128 -124
 9694 0f4e 94       		.byte	0x94
 9695 0f4f 02       		.byte	0x2
 9696 0f50 0A       		.byte	0xa
 9697 0f51 FFFF     		.2byte	0xffff
 9698 0f53 1A       		.byte	0x1a
ARM GAS  C:\Users\haske\AppData\Local\Temp\ccoc8x2c.s 			page 187


 9699 0f54 3B       		.byte	0x3b
 9700 0f55 25       		.byte	0x25
 9701 0f56 35       		.byte	0x35
 9702 0f57 24       		.byte	0x24
 9703 0f58 91       		.byte	0x91
 9704 0f59 847F     		.sleb128 -124
 9705 0f5b 94       		.byte	0x94
 9706 0f5c 02       		.byte	0x2
 9707 0f5d 0A       		.byte	0xa
 9708 0f5e FFFF     		.2byte	0xffff
 9709 0f60 1A       		.byte	0x1a
 9710 0f61 3B       		.byte	0x3b
 9711 0f62 25       		.byte	0x25
 9712 0f63 22       		.byte	0x22
 9713 0f64 33       		.byte	0x33
 9714 0f65 24       		.byte	0x24
 9715 0f66 91       		.byte	0x91
 9716 0f67 847F     		.sleb128 -124
 9717 0f69 94       		.byte	0x94
 9718 0f6a 02       		.byte	0x2
 9719 0f6b 0A       		.byte	0xa
 9720 0f6c FFFF     		.2byte	0xffff
 9721 0f6e 1A       		.byte	0x1a
 9722 0f6f 3B       		.byte	0x3b
 9723 0f70 25       		.byte	0x25
 9724 0f71 1C       		.byte	0x1c
 9725 0f72 23       		.byte	0x23
 9726 0f73 07       		.uleb128 0x7
 9727 0f74 35       		.byte	0x35
 9728 0f75 26       		.byte	0x26
 9729 0f76 08       		.byte	0x8
 9730 0f77 FF       		.byte	0xff
 9731 0f78 1A       		.byte	0x1a
 9732 0f79 40       		.byte	0x40
 9733 0f7a 24       		.byte	0x24
 9734 0f7b 91       		.byte	0x91
 9735 0f7c 847F     		.sleb128 -124
 9736 0f7e 94       		.byte	0x94
 9737 0f7f 02       		.byte	0x2
 9738 0f80 0A       		.byte	0xa
 9739 0f81 FFFF     		.2byte	0xffff
 9740 0f83 1A       		.byte	0x1a
 9741 0f84 45       		.byte	0x45
 9742 0f85 24       		.byte	0x24
 9743 0f86 4A       		.byte	0x4a
 9744 0f87 25       		.byte	0x25
 9745 0f88 78       		.byte	0x78
 9746 0f89 00       		.sleb128 0
 9747 0f8a 22       		.byte	0x22
 9748 0f8b 23       		.byte	0x23
 9749 0f8c 03       		.uleb128 0x3
 9750 0f8d 36       		.byte	0x36
 9751 0f8e 26       		.byte	0x26
 9752 0f8f 08       		.byte	0x8
 9753 0f90 FF       		.byte	0xff
 9754 0f91 1A       		.byte	0x1a
 9755 0f92 38       		.byte	0x38
ARM GAS  C:\Users\haske\AppData\Local\Temp\ccoc8x2c.s 			page 188


 9756 0f93 24       		.byte	0x24
 9757 0f94 21       		.byte	0x21
 9758 0f95 91       		.byte	0x91
 9759 0f96 847F     		.sleb128 -124
 9760 0f98 94       		.byte	0x94
 9761 0f99 02       		.byte	0x2
 9762 0f9a 0A       		.byte	0xa
 9763 0f9b FFFF     		.2byte	0xffff
 9764 0f9d 1A       		.byte	0x1a
 9765 0f9e 4B       		.byte	0x4b
 9766 0f9f 24       		.byte	0x24
 9767 0fa0 4B       		.byte	0x4b
 9768 0fa1 25       		.byte	0x25
 9769 0fa2 35       		.byte	0x35
 9770 0fa3 24       		.byte	0x24
 9771 0fa4 91       		.byte	0x91
 9772 0fa5 847F     		.sleb128 -124
 9773 0fa7 94       		.byte	0x94
 9774 0fa8 02       		.byte	0x2
 9775 0fa9 0A       		.byte	0xa
 9776 0faa FFFF     		.2byte	0xffff
 9777 0fac 1A       		.byte	0x1a
 9778 0fad 4B       		.byte	0x4b
 9779 0fae 24       		.byte	0x24
 9780 0faf 4B       		.byte	0x4b
 9781 0fb0 25       		.byte	0x25
 9782 0fb1 22       		.byte	0x22
 9783 0fb2 33       		.byte	0x33
 9784 0fb3 24       		.byte	0x24
 9785 0fb4 91       		.byte	0x91
 9786 0fb5 847F     		.sleb128 -124
 9787 0fb7 94       		.byte	0x94
 9788 0fb8 02       		.byte	0x2
 9789 0fb9 0A       		.byte	0xa
 9790 0fba FFFF     		.2byte	0xffff
 9791 0fbc 1A       		.byte	0x1a
 9792 0fbd 4B       		.byte	0x4b
 9793 0fbe 24       		.byte	0x24
 9794 0fbf 4B       		.byte	0x4b
 9795 0fc0 25       		.byte	0x25
 9796 0fc1 1C       		.byte	0x1c
 9797 0fc2 23       		.byte	0x23
 9798 0fc3 07       		.uleb128 0x7
 9799 0fc4 35       		.byte	0x35
 9800 0fc5 26       		.byte	0x26
 9801 0fc6 08       		.byte	0x8
 9802 0fc7 FF       		.byte	0xff
 9803 0fc8 1A       		.byte	0x1a
 9804 0fc9 21       		.byte	0x21
 9805 0fca 7A       		.byte	0x7a
 9806 0fcb 00       		.sleb128 0
 9807 0fcc 21       		.byte	0x21
 9808 0fcd 40       		.byte	0x40
 9809 0fce 24       		.byte	0x24
 9810 0fcf 48       		.byte	0x48
 9811 0fd0 25       		.byte	0x25
 9812 0fd1 32       		.byte	0x32
ARM GAS  C:\Users\haske\AppData\Local\Temp\ccoc8x2c.s 			page 189


 9813 0fd2 24       		.byte	0x24
 9814 0fd3 22       		.byte	0x22
 9815 0fd4 7C       		.byte	0x7c
 9816 0fd5 00       		.sleb128 0
 9817 0fd6 22       		.byte	0x22
 9818 0fd7 0A       		.byte	0xa
 9819 0fd8 FFFF     		.2byte	0xffff
 9820 0fda 1A       		.byte	0x1a
 9821 0fdb 91       		.byte	0x91
 9822 0fdc 847F     		.sleb128 -124
 9823 0fde 94       		.byte	0x94
 9824 0fdf 02       		.byte	0x2
 9825 0fe0 0A       		.byte	0xa
 9826 0fe1 FFFF     		.2byte	0xffff
 9827 0fe3 1A       		.byte	0x1a
 9828 0fe4 3B       		.byte	0x3b
 9829 0fe5 25       		.byte	0x25
 9830 0fe6 35       		.byte	0x35
 9831 0fe7 24       		.byte	0x24
 9832 0fe8 91       		.byte	0x91
 9833 0fe9 847F     		.sleb128 -124
 9834 0feb 94       		.byte	0x94
 9835 0fec 02       		.byte	0x2
 9836 0fed 0A       		.byte	0xa
 9837 0fee FFFF     		.2byte	0xffff
 9838 0ff0 1A       		.byte	0x1a
 9839 0ff1 3B       		.byte	0x3b
 9840 0ff2 25       		.byte	0x25
 9841 0ff3 22       		.byte	0x22
 9842 0ff4 33       		.byte	0x33
 9843 0ff5 24       		.byte	0x24
 9844 0ff6 91       		.byte	0x91
 9845 0ff7 847F     		.sleb128 -124
 9846 0ff9 94       		.byte	0x94
 9847 0ffa 02       		.byte	0x2
 9848 0ffb 0A       		.byte	0xa
 9849 0ffc FFFF     		.2byte	0xffff
 9850 0ffe 1A       		.byte	0x1a
 9851 0fff 3B       		.byte	0x3b
 9852 1000 25       		.byte	0x25
 9853 1001 1C       		.byte	0x1c
 9854 1002 23       		.byte	0x23
 9855 1003 07       		.uleb128 0x7
 9856 1004 35       		.byte	0x35
 9857 1005 26       		.byte	0x26
 9858 1006 08       		.byte	0x8
 9859 1007 FF       		.byte	0xff
 9860 1008 1A       		.byte	0x1a
 9861 1009 40       		.byte	0x40
 9862 100a 24       		.byte	0x24
 9863 100b 91       		.byte	0x91
 9864 100c 847F     		.sleb128 -124
 9865 100e 94       		.byte	0x94
 9866 100f 02       		.byte	0x2
 9867 1010 0A       		.byte	0xa
 9868 1011 FFFF     		.2byte	0xffff
 9869 1013 1A       		.byte	0x1a
ARM GAS  C:\Users\haske\AppData\Local\Temp\ccoc8x2c.s 			page 190


 9870 1014 45       		.byte	0x45
 9871 1015 24       		.byte	0x24
 9872 1016 4A       		.byte	0x4a
 9873 1017 25       		.byte	0x25
 9874 1018 78       		.byte	0x78
 9875 1019 00       		.sleb128 0
 9876 101a 22       		.byte	0x22
 9877 101b 23       		.byte	0x23
 9878 101c 03       		.uleb128 0x3
 9879 101d 36       		.byte	0x36
 9880 101e 26       		.byte	0x26
 9881 101f 08       		.byte	0x8
 9882 1020 FF       		.byte	0xff
 9883 1021 1A       		.byte	0x1a
 9884 1022 38       		.byte	0x38
 9885 1023 24       		.byte	0x24
 9886 1024 21       		.byte	0x21
 9887 1025 91       		.byte	0x91
 9888 1026 847F     		.sleb128 -124
 9889 1028 94       		.byte	0x94
 9890 1029 02       		.byte	0x2
 9891 102a 0A       		.byte	0xa
 9892 102b FFFF     		.2byte	0xffff
 9893 102d 1A       		.byte	0x1a
 9894 102e 4B       		.byte	0x4b
 9895 102f 24       		.byte	0x24
 9896 1030 4B       		.byte	0x4b
 9897 1031 25       		.byte	0x25
 9898 1032 35       		.byte	0x35
 9899 1033 24       		.byte	0x24
 9900 1034 91       		.byte	0x91
 9901 1035 847F     		.sleb128 -124
 9902 1037 94       		.byte	0x94
 9903 1038 02       		.byte	0x2
 9904 1039 0A       		.byte	0xa
 9905 103a FFFF     		.2byte	0xffff
 9906 103c 1A       		.byte	0x1a
 9907 103d 4B       		.byte	0x4b
 9908 103e 24       		.byte	0x24
 9909 103f 4B       		.byte	0x4b
 9910 1040 25       		.byte	0x25
 9911 1041 22       		.byte	0x22
 9912 1042 33       		.byte	0x33
 9913 1043 24       		.byte	0x24
 9914 1044 91       		.byte	0x91
 9915 1045 847F     		.sleb128 -124
 9916 1047 94       		.byte	0x94
 9917 1048 02       		.byte	0x2
 9918 1049 0A       		.byte	0xa
 9919 104a FFFF     		.2byte	0xffff
 9920 104c 1A       		.byte	0x1a
 9921 104d 4B       		.byte	0x4b
 9922 104e 24       		.byte	0x24
 9923 104f 4B       		.byte	0x4b
 9924 1050 25       		.byte	0x25
 9925 1051 1C       		.byte	0x1c
 9926 1052 23       		.byte	0x23
ARM GAS  C:\Users\haske\AppData\Local\Temp\ccoc8x2c.s 			page 191


 9927 1053 07       		.uleb128 0x7
 9928 1054 35       		.byte	0x35
 9929 1055 26       		.byte	0x26
 9930 1056 08       		.byte	0x8
 9931 1057 FF       		.byte	0xff
 9932 1058 1A       		.byte	0x1a
 9933 1059 21       		.byte	0x21
 9934 105a 7A       		.byte	0x7a
 9935 105b 00       		.sleb128 0
 9936 105c 21       		.byte	0x21
 9937 105d 08       		.byte	0x8
 9938 105e FF       		.byte	0xff
 9939 105f 1A       		.byte	0x1a
 9940 1060 22       		.byte	0x22
 9941 1061 0A       		.byte	0xa
 9942 1062 FFFF     		.2byte	0xffff
 9943 1064 1A       		.byte	0x1a
 9944 1065 33       		.byte	0x33
 9945 1066 25       		.byte	0x25
 9946 1067 08       		.byte	0x8
 9947 1068 FF       		.byte	0xff
 9948 1069 1A       		.byte	0x1a
 9949 106a 23       		.byte	0x23
 9950 106b 04       		.uleb128 0x4
 9951 106c 33       		.byte	0x33
 9952 106d 25       		.byte	0x25
 9953 106e 9F       		.byte	0x9f
 9954 106f 00000000 		.4byte	0
 9955 1073 00000000 		.4byte	0
 9956              	.LLST31:
 9957 1077 42020000 		.4byte	.LVL88
 9958 107b 5A020000 		.4byte	.LVL95
 9959 107f 0200     		.2byte	0x2
 9960 1081 30       		.byte	0x30
 9961 1082 9F       		.byte	0x9f
 9962 1083 00000000 		.4byte	0
 9963 1087 00000000 		.4byte	0
 9964              	.LLST32:
 9965 108b 48020000 		.4byte	.LVL89
 9966 108f 4A020000 		.4byte	.LVL90
 9967 1093 0600     		.2byte	0x6
 9968 1095 71       		.byte	0x71
 9969 1096 00       		.sleb128 0
 9970 1097 72       		.byte	0x72
 9971 1098 00       		.sleb128 0
 9972 1099 1A       		.byte	0x1a
 9973 109a 9F       		.byte	0x9f
 9974 109b 4A020000 		.4byte	.LVL90
 9975 109f 56020000 		.4byte	.LVL93
 9976 10a3 0100     		.2byte	0x1
 9977 10a5 51       		.byte	0x51
 9978 10a6 56020000 		.4byte	.LVL93
 9979 10aa 5A020000 		.4byte	.LVL95
 9980 10ae 0B00     		.2byte	0xb
 9981 10b0 74       		.byte	0x74
 9982 10b1 00       		.sleb128 0
 9983 10b2 40       		.byte	0x40
ARM GAS  C:\Users\haske\AppData\Local\Temp\ccoc8x2c.s 			page 192


 9984 10b3 24       		.byte	0x24
 9985 10b4 74       		.byte	0x74
 9986 10b5 00       		.sleb128 0
 9987 10b6 21       		.byte	0x21
 9988 10b7 72       		.byte	0x72
 9989 10b8 00       		.sleb128 0
 9990 10b9 1A       		.byte	0x1a
 9991 10ba 9F       		.byte	0x9f
 9992 10bb 00000000 		.4byte	0
 9993 10bf 00000000 		.4byte	0
 9994              	.LLST33:
 9995 10c3 54020000 		.4byte	.LVL92
 9996 10c7 58020000 		.4byte	.LVL94
 9997 10cb 0100     		.2byte	0x1
 9998 10cd 53       		.byte	0x53
 9999 10ce 58020000 		.4byte	.LVL94
 10000 10d2 5A020000 		.4byte	.LVL95
 10001 10d6 3B01     		.2byte	0x13b
 10002 10d8 74       		.byte	0x74
 10003 10d9 00       		.sleb128 0
 10004 10da 40       		.byte	0x40
 10005 10db 24       		.byte	0x24
 10006 10dc 74       		.byte	0x74
 10007 10dd 00       		.sleb128 0
 10008 10de 21       		.byte	0x21
 10009 10df 72       		.byte	0x72
 10010 10e0 00       		.sleb128 0
 10011 10e1 1A       		.byte	0x1a
 10012 10e2 7C       		.byte	0x7c
 10013 10e3 00       		.sleb128 0
 10014 10e4 31       		.byte	0x31
 10015 10e5 24       		.byte	0x24
 10016 10e6 91       		.byte	0x91
 10017 10e7 847F     		.sleb128 -124
 10018 10e9 94       		.byte	0x94
 10019 10ea 02       		.byte	0x2
 10020 10eb 0A       		.byte	0xa
 10021 10ec FFFF     		.2byte	0xffff
 10022 10ee 1A       		.byte	0x1a
 10023 10ef 3B       		.byte	0x3b
 10024 10f0 25       		.byte	0x25
 10025 10f1 35       		.byte	0x35
 10026 10f2 24       		.byte	0x24
 10027 10f3 91       		.byte	0x91
 10028 10f4 847F     		.sleb128 -124
 10029 10f6 94       		.byte	0x94
 10030 10f7 02       		.byte	0x2
 10031 10f8 0A       		.byte	0xa
 10032 10f9 FFFF     		.2byte	0xffff
 10033 10fb 1A       		.byte	0x1a
 10034 10fc 3B       		.byte	0x3b
 10035 10fd 25       		.byte	0x25
 10036 10fe 22       		.byte	0x22
 10037 10ff 33       		.byte	0x33
 10038 1100 24       		.byte	0x24
 10039 1101 91       		.byte	0x91
 10040 1102 847F     		.sleb128 -124
ARM GAS  C:\Users\haske\AppData\Local\Temp\ccoc8x2c.s 			page 193


 10041 1104 94       		.byte	0x94
 10042 1105 02       		.byte	0x2
 10043 1106 0A       		.byte	0xa
 10044 1107 FFFF     		.2byte	0xffff
 10045 1109 1A       		.byte	0x1a
 10046 110a 3B       		.byte	0x3b
 10047 110b 25       		.byte	0x25
 10048 110c 1C       		.byte	0x1c
 10049 110d 23       		.byte	0x23
 10050 110e 07       		.uleb128 0x7
 10051 110f 35       		.byte	0x35
 10052 1110 26       		.byte	0x26
 10053 1111 08       		.byte	0x8
 10054 1112 FF       		.byte	0xff
 10055 1113 1A       		.byte	0x1a
 10056 1114 40       		.byte	0x40
 10057 1115 24       		.byte	0x24
 10058 1116 91       		.byte	0x91
 10059 1117 847F     		.sleb128 -124
 10060 1119 94       		.byte	0x94
 10061 111a 02       		.byte	0x2
 10062 111b 0A       		.byte	0xa
 10063 111c FFFF     		.2byte	0xffff
 10064 111e 1A       		.byte	0x1a
 10065 111f 45       		.byte	0x45
 10066 1120 24       		.byte	0x24
 10067 1121 4A       		.byte	0x4a
 10068 1122 25       		.byte	0x25
 10069 1123 78       		.byte	0x78
 10070 1124 00       		.sleb128 0
 10071 1125 22       		.byte	0x22
 10072 1126 23       		.byte	0x23
 10073 1127 03       		.uleb128 0x3
 10074 1128 36       		.byte	0x36
 10075 1129 26       		.byte	0x26
 10076 112a 08       		.byte	0x8
 10077 112b FF       		.byte	0xff
 10078 112c 1A       		.byte	0x1a
 10079 112d 38       		.byte	0x38
 10080 112e 24       		.byte	0x24
 10081 112f 21       		.byte	0x21
 10082 1130 91       		.byte	0x91
 10083 1131 847F     		.sleb128 -124
 10084 1133 94       		.byte	0x94
 10085 1134 02       		.byte	0x2
 10086 1135 0A       		.byte	0xa
 10087 1136 FFFF     		.2byte	0xffff
 10088 1138 1A       		.byte	0x1a
 10089 1139 4B       		.byte	0x4b
 10090 113a 24       		.byte	0x24
 10091 113b 4B       		.byte	0x4b
 10092 113c 25       		.byte	0x25
 10093 113d 35       		.byte	0x35
 10094 113e 24       		.byte	0x24
 10095 113f 91       		.byte	0x91
 10096 1140 847F     		.sleb128 -124
 10097 1142 94       		.byte	0x94
ARM GAS  C:\Users\haske\AppData\Local\Temp\ccoc8x2c.s 			page 194


 10098 1143 02       		.byte	0x2
 10099 1144 0A       		.byte	0xa
 10100 1145 FFFF     		.2byte	0xffff
 10101 1147 1A       		.byte	0x1a
 10102 1148 4B       		.byte	0x4b
 10103 1149 24       		.byte	0x24
 10104 114a 4B       		.byte	0x4b
 10105 114b 25       		.byte	0x25
 10106 114c 22       		.byte	0x22
 10107 114d 33       		.byte	0x33
 10108 114e 24       		.byte	0x24
 10109 114f 91       		.byte	0x91
 10110 1150 847F     		.sleb128 -124
 10111 1152 94       		.byte	0x94
 10112 1153 02       		.byte	0x2
 10113 1154 0A       		.byte	0xa
 10114 1155 FFFF     		.2byte	0xffff
 10115 1157 1A       		.byte	0x1a
 10116 1158 4B       		.byte	0x4b
 10117 1159 24       		.byte	0x24
 10118 115a 4B       		.byte	0x4b
 10119 115b 25       		.byte	0x25
 10120 115c 1C       		.byte	0x1c
 10121 115d 23       		.byte	0x23
 10122 115e 07       		.uleb128 0x7
 10123 115f 35       		.byte	0x35
 10124 1160 26       		.byte	0x26
 10125 1161 08       		.byte	0x8
 10126 1162 FF       		.byte	0xff
 10127 1163 1A       		.byte	0x1a
 10128 1164 21       		.byte	0x21
 10129 1165 7A       		.byte	0x7a
 10130 1166 00       		.sleb128 0
 10131 1167 21       		.byte	0x21
 10132 1168 40       		.byte	0x40
 10133 1169 24       		.byte	0x24
 10134 116a 48       		.byte	0x48
 10135 116b 25       		.byte	0x25
 10136 116c 32       		.byte	0x32
 10137 116d 24       		.byte	0x24
 10138 116e 22       		.byte	0x22
 10139 116f 7C       		.byte	0x7c
 10140 1170 00       		.sleb128 0
 10141 1171 22       		.byte	0x22
 10142 1172 0A       		.byte	0xa
 10143 1173 FFFF     		.2byte	0xffff
 10144 1175 1A       		.byte	0x1a
 10145 1176 91       		.byte	0x91
 10146 1177 847F     		.sleb128 -124
 10147 1179 94       		.byte	0x94
 10148 117a 02       		.byte	0x2
 10149 117b 0A       		.byte	0xa
 10150 117c FFFF     		.2byte	0xffff
 10151 117e 1A       		.byte	0x1a
 10152 117f 3B       		.byte	0x3b
 10153 1180 25       		.byte	0x25
 10154 1181 35       		.byte	0x35
ARM GAS  C:\Users\haske\AppData\Local\Temp\ccoc8x2c.s 			page 195


 10155 1182 24       		.byte	0x24
 10156 1183 91       		.byte	0x91
 10157 1184 847F     		.sleb128 -124
 10158 1186 94       		.byte	0x94
 10159 1187 02       		.byte	0x2
 10160 1188 0A       		.byte	0xa
 10161 1189 FFFF     		.2byte	0xffff
 10162 118b 1A       		.byte	0x1a
 10163 118c 3B       		.byte	0x3b
 10164 118d 25       		.byte	0x25
 10165 118e 22       		.byte	0x22
 10166 118f 33       		.byte	0x33
 10167 1190 24       		.byte	0x24
 10168 1191 91       		.byte	0x91
 10169 1192 847F     		.sleb128 -124
 10170 1194 94       		.byte	0x94
 10171 1195 02       		.byte	0x2
 10172 1196 0A       		.byte	0xa
 10173 1197 FFFF     		.2byte	0xffff
 10174 1199 1A       		.byte	0x1a
 10175 119a 3B       		.byte	0x3b
 10176 119b 25       		.byte	0x25
 10177 119c 1C       		.byte	0x1c
 10178 119d 23       		.byte	0x23
 10179 119e 07       		.uleb128 0x7
 10180 119f 35       		.byte	0x35
 10181 11a0 26       		.byte	0x26
 10182 11a1 08       		.byte	0x8
 10183 11a2 FF       		.byte	0xff
 10184 11a3 1A       		.byte	0x1a
 10185 11a4 40       		.byte	0x40
 10186 11a5 24       		.byte	0x24
 10187 11a6 91       		.byte	0x91
 10188 11a7 847F     		.sleb128 -124
 10189 11a9 94       		.byte	0x94
 10190 11aa 02       		.byte	0x2
 10191 11ab 0A       		.byte	0xa
 10192 11ac FFFF     		.2byte	0xffff
 10193 11ae 1A       		.byte	0x1a
 10194 11af 45       		.byte	0x45
 10195 11b0 24       		.byte	0x24
 10196 11b1 4A       		.byte	0x4a
 10197 11b2 25       		.byte	0x25
 10198 11b3 78       		.byte	0x78
 10199 11b4 00       		.sleb128 0
 10200 11b5 22       		.byte	0x22
 10201 11b6 23       		.byte	0x23
 10202 11b7 03       		.uleb128 0x3
 10203 11b8 36       		.byte	0x36
 10204 11b9 26       		.byte	0x26
 10205 11ba 08       		.byte	0x8
 10206 11bb FF       		.byte	0xff
 10207 11bc 1A       		.byte	0x1a
 10208 11bd 38       		.byte	0x38
 10209 11be 24       		.byte	0x24
 10210 11bf 21       		.byte	0x21
 10211 11c0 91       		.byte	0x91
ARM GAS  C:\Users\haske\AppData\Local\Temp\ccoc8x2c.s 			page 196


 10212 11c1 847F     		.sleb128 -124
 10213 11c3 94       		.byte	0x94
 10214 11c4 02       		.byte	0x2
 10215 11c5 0A       		.byte	0xa
 10216 11c6 FFFF     		.2byte	0xffff
 10217 11c8 1A       		.byte	0x1a
 10218 11c9 4B       		.byte	0x4b
 10219 11ca 24       		.byte	0x24
 10220 11cb 4B       		.byte	0x4b
 10221 11cc 25       		.byte	0x25
 10222 11cd 35       		.byte	0x35
 10223 11ce 24       		.byte	0x24
 10224 11cf 91       		.byte	0x91
 10225 11d0 847F     		.sleb128 -124
 10226 11d2 94       		.byte	0x94
 10227 11d3 02       		.byte	0x2
 10228 11d4 0A       		.byte	0xa
 10229 11d5 FFFF     		.2byte	0xffff
 10230 11d7 1A       		.byte	0x1a
 10231 11d8 4B       		.byte	0x4b
 10232 11d9 24       		.byte	0x24
 10233 11da 4B       		.byte	0x4b
 10234 11db 25       		.byte	0x25
 10235 11dc 22       		.byte	0x22
 10236 11dd 33       		.byte	0x33
 10237 11de 24       		.byte	0x24
 10238 11df 91       		.byte	0x91
 10239 11e0 847F     		.sleb128 -124
 10240 11e2 94       		.byte	0x94
 10241 11e3 02       		.byte	0x2
 10242 11e4 0A       		.byte	0xa
 10243 11e5 FFFF     		.2byte	0xffff
 10244 11e7 1A       		.byte	0x1a
 10245 11e8 4B       		.byte	0x4b
 10246 11e9 24       		.byte	0x24
 10247 11ea 4B       		.byte	0x4b
 10248 11eb 25       		.byte	0x25
 10249 11ec 1C       		.byte	0x1c
 10250 11ed 23       		.byte	0x23
 10251 11ee 07       		.uleb128 0x7
 10252 11ef 35       		.byte	0x35
 10253 11f0 26       		.byte	0x26
 10254 11f1 08       		.byte	0x8
 10255 11f2 FF       		.byte	0xff
 10256 11f3 1A       		.byte	0x1a
 10257 11f4 21       		.byte	0x21
 10258 11f5 7A       		.byte	0x7a
 10259 11f6 00       		.sleb128 0
 10260 11f7 21       		.byte	0x21
 10261 11f8 08       		.byte	0x8
 10262 11f9 FF       		.byte	0xff
 10263 11fa 1A       		.byte	0x1a
 10264 11fb 22       		.byte	0x22
 10265 11fc 0A       		.byte	0xa
 10266 11fd FFFF     		.2byte	0xffff
 10267 11ff 1A       		.byte	0x1a
 10268 1200 33       		.byte	0x33
ARM GAS  C:\Users\haske\AppData\Local\Temp\ccoc8x2c.s 			page 197


 10269 1201 25       		.byte	0x25
 10270 1202 08       		.byte	0x8
 10271 1203 FF       		.byte	0xff
 10272 1204 1A       		.byte	0x1a
 10273 1205 23       		.byte	0x23
 10274 1206 04       		.uleb128 0x4
 10275 1207 33       		.byte	0x33
 10276 1208 25       		.byte	0x25
 10277 1209 70       		.byte	0x70
 10278 120a 00       		.sleb128 0
 10279 120b 1A       		.byte	0x1a
 10280 120c 1E       		.byte	0x1e
 10281 120d 35       		.byte	0x35
 10282 120e 25       		.byte	0x25
 10283 120f 72       		.byte	0x72
 10284 1210 00       		.sleb128 0
 10285 1211 1A       		.byte	0x1a
 10286 1212 9F       		.byte	0x9f
 10287 1213 00000000 		.4byte	0
 10288 1217 00000000 		.4byte	0
 10289              	.LLST34:
 10290 121b CE020000 		.4byte	.LVL104
 10291 121f D0020000 		.4byte	.LVL105
 10292 1223 0100     		.2byte	0x1
 10293 1225 53       		.byte	0x53
 10294 1226 D0020000 		.4byte	.LVL105
 10295 122a D2020000 		.4byte	.LVL106
 10296 122e A600     		.2byte	0xa6
 10297 1230 91       		.byte	0x91
 10298 1231 F67E     		.sleb128 -138
 10299 1233 94       		.byte	0x94
 10300 1234 02       		.byte	0x2
 10301 1235 0A       		.byte	0xa
 10302 1236 FFFF     		.2byte	0xffff
 10303 1238 1A       		.byte	0x1a
 10304 1239 3B       		.byte	0x3b
 10305 123a 25       		.byte	0x25
 10306 123b 35       		.byte	0x35
 10307 123c 24       		.byte	0x24
 10308 123d 91       		.byte	0x91
 10309 123e F67E     		.sleb128 -138
 10310 1240 94       		.byte	0x94
 10311 1241 02       		.byte	0x2
 10312 1242 0A       		.byte	0xa
 10313 1243 FFFF     		.2byte	0xffff
 10314 1245 1A       		.byte	0x1a
 10315 1246 3B       		.byte	0x3b
 10316 1247 25       		.byte	0x25
 10317 1248 22       		.byte	0x22
 10318 1249 33       		.byte	0x33
 10319 124a 24       		.byte	0x24
 10320 124b 91       		.byte	0x91
 10321 124c F67E     		.sleb128 -138
 10322 124e 94       		.byte	0x94
 10323 124f 02       		.byte	0x2
 10324 1250 0A       		.byte	0xa
 10325 1251 FFFF     		.2byte	0xffff
ARM GAS  C:\Users\haske\AppData\Local\Temp\ccoc8x2c.s 			page 198


 10326 1253 1A       		.byte	0x1a
 10327 1254 3B       		.byte	0x3b
 10328 1255 25       		.byte	0x25
 10329 1256 1C       		.byte	0x1c
 10330 1257 23       		.byte	0x23
 10331 1258 07       		.uleb128 0x7
 10332 1259 35       		.byte	0x35
 10333 125a 26       		.byte	0x26
 10334 125b 08       		.byte	0x8
 10335 125c FF       		.byte	0xff
 10336 125d 1A       		.byte	0x1a
 10337 125e 40       		.byte	0x40
 10338 125f 24       		.byte	0x24
 10339 1260 91       		.byte	0x91
 10340 1261 F67E     		.sleb128 -138
 10341 1263 94       		.byte	0x94
 10342 1264 02       		.byte	0x2
 10343 1265 0A       		.byte	0xa
 10344 1266 FFFF     		.2byte	0xffff
 10345 1268 1A       		.byte	0x1a
 10346 1269 45       		.byte	0x45
 10347 126a 24       		.byte	0x24
 10348 126b 4A       		.byte	0x4a
 10349 126c 25       		.byte	0x25
 10350 126d 91       		.byte	0x91
 10351 126e F67E     		.sleb128 -138
 10352 1270 94       		.byte	0x94
 10353 1271 02       		.byte	0x2
 10354 1272 0A       		.byte	0xa
 10355 1273 FFFF     		.2byte	0xffff
 10356 1275 1A       		.byte	0x1a
 10357 1276 45       		.byte	0x45
 10358 1277 24       		.byte	0x24
 10359 1278 4A       		.byte	0x4a
 10360 1279 25       		.byte	0x25
 10361 127a 37       		.byte	0x37
 10362 127b 24       		.byte	0x24
 10363 127c 91       		.byte	0x91
 10364 127d F67E     		.sleb128 -138
 10365 127f 94       		.byte	0x94
 10366 1280 02       		.byte	0x2
 10367 1281 0A       		.byte	0xa
 10368 1282 FFFF     		.2byte	0xffff
 10369 1284 1A       		.byte	0x1a
 10370 1285 45       		.byte	0x45
 10371 1286 24       		.byte	0x24
 10372 1287 4A       		.byte	0x4a
 10373 1288 25       		.byte	0x25
 10374 1289 22       		.byte	0x22
 10375 128a 31       		.byte	0x31
 10376 128b 24       		.byte	0x24
 10377 128c 22       		.byte	0x22
 10378 128d 23       		.byte	0x23
 10379 128e 03       		.uleb128 0x3
 10380 128f 36       		.byte	0x36
 10381 1290 26       		.byte	0x26
 10382 1291 08       		.byte	0x8
ARM GAS  C:\Users\haske\AppData\Local\Temp\ccoc8x2c.s 			page 199


 10383 1292 FF       		.byte	0xff
 10384 1293 1A       		.byte	0x1a
 10385 1294 38       		.byte	0x38
 10386 1295 24       		.byte	0x24
 10387 1296 21       		.byte	0x21
 10388 1297 91       		.byte	0x91
 10389 1298 F67E     		.sleb128 -138
 10390 129a 94       		.byte	0x94
 10391 129b 02       		.byte	0x2
 10392 129c 0A       		.byte	0xa
 10393 129d FFFF     		.2byte	0xffff
 10394 129f 1A       		.byte	0x1a
 10395 12a0 4B       		.byte	0x4b
 10396 12a1 24       		.byte	0x24
 10397 12a2 4B       		.byte	0x4b
 10398 12a3 25       		.byte	0x25
 10399 12a4 35       		.byte	0x35
 10400 12a5 24       		.byte	0x24
 10401 12a6 91       		.byte	0x91
 10402 12a7 F67E     		.sleb128 -138
 10403 12a9 94       		.byte	0x94
 10404 12aa 02       		.byte	0x2
 10405 12ab 0A       		.byte	0xa
 10406 12ac FFFF     		.2byte	0xffff
 10407 12ae 1A       		.byte	0x1a
 10408 12af 4B       		.byte	0x4b
 10409 12b0 24       		.byte	0x24
 10410 12b1 4B       		.byte	0x4b
 10411 12b2 25       		.byte	0x25
 10412 12b3 22       		.byte	0x22
 10413 12b4 33       		.byte	0x33
 10414 12b5 24       		.byte	0x24
 10415 12b6 91       		.byte	0x91
 10416 12b7 F67E     		.sleb128 -138
 10417 12b9 94       		.byte	0x94
 10418 12ba 02       		.byte	0x2
 10419 12bb 0A       		.byte	0xa
 10420 12bc FFFF     		.2byte	0xffff
 10421 12be 1A       		.byte	0x1a
 10422 12bf 4B       		.byte	0x4b
 10423 12c0 24       		.byte	0x24
 10424 12c1 4B       		.byte	0x4b
 10425 12c2 25       		.byte	0x25
 10426 12c3 1C       		.byte	0x1c
 10427 12c4 23       		.byte	0x23
 10428 12c5 07       		.uleb128 0x7
 10429 12c6 35       		.byte	0x35
 10430 12c7 26       		.byte	0x26
 10431 12c8 08       		.byte	0x8
 10432 12c9 FF       		.byte	0xff
 10433 12ca 1A       		.byte	0x1a
 10434 12cb 21       		.byte	0x21
 10435 12cc 7A       		.byte	0x7a
 10436 12cd 00       		.sleb128 0
 10437 12ce 21       		.byte	0x21
 10438 12cf 08       		.byte	0x8
 10439 12d0 FF       		.byte	0xff
ARM GAS  C:\Users\haske\AppData\Local\Temp\ccoc8x2c.s 			page 200


 10440 12d1 1A       		.byte	0x1a
 10441 12d2 71       		.byte	0x71
 10442 12d3 00       		.sleb128 0
 10443 12d4 22       		.byte	0x22
 10444 12d5 9F       		.byte	0x9f
 10445 12d6 00000000 		.4byte	0
 10446 12da 00000000 		.4byte	0
 10447              	.LLST35:
 10448 12de 90020000 		.4byte	.LVL97
 10449 12e2 92020000 		.4byte	.LVL98
 10450 12e6 0100     		.2byte	0x1
 10451 12e8 53       		.byte	0x53
 10452 12e9 AA020000 		.4byte	.LVL99
 10453 12ed AC020000 		.4byte	.LVL100
 10454 12f1 0100     		.2byte	0x1
 10455 12f3 53       		.byte	0x53
 10456 12f4 AE020000 		.4byte	.LVL101
 10457 12f8 CA020000 		.4byte	.LVL103
 10458 12fc 0100     		.2byte	0x1
 10459 12fe 53       		.byte	0x53
 10460 12ff 00000000 		.4byte	0
 10461 1303 00000000 		.4byte	0
 10462              	.LLST36:
 10463 1307 D6020000 		.4byte	.LVL107
 10464 130b E6020000 		.4byte	.LVL110
 10465 130f 0100     		.2byte	0x1
 10466 1311 53       		.byte	0x53
 10467 1312 E6020000 		.4byte	.LVL110
 10468 1316 F2020000 		.4byte	.LVL114
 10469 131a 0102     		.2byte	0x201
 10470 131c 91       		.byte	0x91
 10471 131d F67E     		.sleb128 -138
 10472 131f 94       		.byte	0x94
 10473 1320 02       		.byte	0x2
 10474 1321 0A       		.byte	0xa
 10475 1322 FFFF     		.2byte	0xffff
 10476 1324 1A       		.byte	0x1a
 10477 1325 3B       		.byte	0x3b
 10478 1326 25       		.byte	0x25
 10479 1327 35       		.byte	0x35
 10480 1328 24       		.byte	0x24
 10481 1329 91       		.byte	0x91
 10482 132a F67E     		.sleb128 -138
 10483 132c 94       		.byte	0x94
 10484 132d 02       		.byte	0x2
 10485 132e 0A       		.byte	0xa
 10486 132f FFFF     		.2byte	0xffff
 10487 1331 1A       		.byte	0x1a
 10488 1332 3B       		.byte	0x3b
 10489 1333 25       		.byte	0x25
 10490 1334 22       		.byte	0x22
 10491 1335 33       		.byte	0x33
 10492 1336 24       		.byte	0x24
 10493 1337 91       		.byte	0x91
 10494 1338 F67E     		.sleb128 -138
 10495 133a 94       		.byte	0x94
 10496 133b 02       		.byte	0x2
ARM GAS  C:\Users\haske\AppData\Local\Temp\ccoc8x2c.s 			page 201


 10497 133c 0A       		.byte	0xa
 10498 133d FFFF     		.2byte	0xffff
 10499 133f 1A       		.byte	0x1a
 10500 1340 3B       		.byte	0x3b
 10501 1341 25       		.byte	0x25
 10502 1342 1C       		.byte	0x1c
 10503 1343 23       		.byte	0x23
 10504 1344 07       		.uleb128 0x7
 10505 1345 35       		.byte	0x35
 10506 1346 26       		.byte	0x26
 10507 1347 08       		.byte	0x8
 10508 1348 FF       		.byte	0xff
 10509 1349 1A       		.byte	0x1a
 10510 134a 40       		.byte	0x40
 10511 134b 24       		.byte	0x24
 10512 134c 91       		.byte	0x91
 10513 134d F67E     		.sleb128 -138
 10514 134f 94       		.byte	0x94
 10515 1350 02       		.byte	0x2
 10516 1351 0A       		.byte	0xa
 10517 1352 FFFF     		.2byte	0xffff
 10518 1354 1A       		.byte	0x1a
 10519 1355 45       		.byte	0x45
 10520 1356 24       		.byte	0x24
 10521 1357 4A       		.byte	0x4a
 10522 1358 25       		.byte	0x25
 10523 1359 91       		.byte	0x91
 10524 135a F67E     		.sleb128 -138
 10525 135c 94       		.byte	0x94
 10526 135d 02       		.byte	0x2
 10527 135e 0A       		.byte	0xa
 10528 135f FFFF     		.2byte	0xffff
 10529 1361 1A       		.byte	0x1a
 10530 1362 45       		.byte	0x45
 10531 1363 24       		.byte	0x24
 10532 1364 4A       		.byte	0x4a
 10533 1365 25       		.byte	0x25
 10534 1366 37       		.byte	0x37
 10535 1367 24       		.byte	0x24
 10536 1368 91       		.byte	0x91
 10537 1369 F67E     		.sleb128 -138
 10538 136b 94       		.byte	0x94
 10539 136c 02       		.byte	0x2
 10540 136d 0A       		.byte	0xa
 10541 136e FFFF     		.2byte	0xffff
 10542 1370 1A       		.byte	0x1a
 10543 1371 45       		.byte	0x45
 10544 1372 24       		.byte	0x24
 10545 1373 4A       		.byte	0x4a
 10546 1374 25       		.byte	0x25
 10547 1375 22       		.byte	0x22
 10548 1376 31       		.byte	0x31
 10549 1377 24       		.byte	0x24
 10550 1378 22       		.byte	0x22
 10551 1379 23       		.byte	0x23
 10552 137a 03       		.uleb128 0x3
 10553 137b 36       		.byte	0x36
ARM GAS  C:\Users\haske\AppData\Local\Temp\ccoc8x2c.s 			page 202


 10554 137c 26       		.byte	0x26
 10555 137d 08       		.byte	0x8
 10556 137e FF       		.byte	0xff
 10557 137f 1A       		.byte	0x1a
 10558 1380 38       		.byte	0x38
 10559 1381 24       		.byte	0x24
 10560 1382 21       		.byte	0x21
 10561 1383 91       		.byte	0x91
 10562 1384 F67E     		.sleb128 -138
 10563 1386 94       		.byte	0x94
 10564 1387 02       		.byte	0x2
 10565 1388 0A       		.byte	0xa
 10566 1389 FFFF     		.2byte	0xffff
 10567 138b 1A       		.byte	0x1a
 10568 138c 4B       		.byte	0x4b
 10569 138d 24       		.byte	0x24
 10570 138e 4B       		.byte	0x4b
 10571 138f 25       		.byte	0x25
 10572 1390 35       		.byte	0x35
 10573 1391 24       		.byte	0x24
 10574 1392 91       		.byte	0x91
 10575 1393 F67E     		.sleb128 -138
 10576 1395 94       		.byte	0x94
 10577 1396 02       		.byte	0x2
 10578 1397 0A       		.byte	0xa
 10579 1398 FFFF     		.2byte	0xffff
 10580 139a 1A       		.byte	0x1a
 10581 139b 4B       		.byte	0x4b
 10582 139c 24       		.byte	0x24
 10583 139d 4B       		.byte	0x4b
 10584 139e 25       		.byte	0x25
 10585 139f 22       		.byte	0x22
 10586 13a0 33       		.byte	0x33
 10587 13a1 24       		.byte	0x24
 10588 13a2 91       		.byte	0x91
 10589 13a3 F67E     		.sleb128 -138
 10590 13a5 94       		.byte	0x94
 10591 13a6 02       		.byte	0x2
 10592 13a7 0A       		.byte	0xa
 10593 13a8 FFFF     		.2byte	0xffff
 10594 13aa 1A       		.byte	0x1a
 10595 13ab 4B       		.byte	0x4b
 10596 13ac 24       		.byte	0x24
 10597 13ad 4B       		.byte	0x4b
 10598 13ae 25       		.byte	0x25
 10599 13af 1C       		.byte	0x1c
 10600 13b0 23       		.byte	0x23
 10601 13b1 07       		.uleb128 0x7
 10602 13b2 35       		.byte	0x35
 10603 13b3 26       		.byte	0x26
 10604 13b4 08       		.byte	0x8
 10605 13b5 FF       		.byte	0xff
 10606 13b6 1A       		.byte	0x1a
 10607 13b7 21       		.byte	0x21
 10608 13b8 7A       		.byte	0x7a
 10609 13b9 00       		.sleb128 0
 10610 13ba 21       		.byte	0x21
ARM GAS  C:\Users\haske\AppData\Local\Temp\ccoc8x2c.s 			page 203


 10611 13bb 38       		.byte	0x38
 10612 13bc 24       		.byte	0x24
 10613 13bd 48       		.byte	0x48
 10614 13be 25       		.byte	0x25
 10615 13bf 91       		.byte	0x91
 10616 13c0 F67E     		.sleb128 -138
 10617 13c2 94       		.byte	0x94
 10618 13c3 02       		.byte	0x2
 10619 13c4 0A       		.byte	0xa
 10620 13c5 FFFF     		.2byte	0xffff
 10621 13c7 1A       		.byte	0x1a
 10622 13c8 3B       		.byte	0x3b
 10623 13c9 25       		.byte	0x25
 10624 13ca 35       		.byte	0x35
 10625 13cb 24       		.byte	0x24
 10626 13cc 91       		.byte	0x91
 10627 13cd F67E     		.sleb128 -138
 10628 13cf 94       		.byte	0x94
 10629 13d0 02       		.byte	0x2
 10630 13d1 0A       		.byte	0xa
 10631 13d2 FFFF     		.2byte	0xffff
 10632 13d4 1A       		.byte	0x1a
 10633 13d5 3B       		.byte	0x3b
 10634 13d6 25       		.byte	0x25
 10635 13d7 22       		.byte	0x22
 10636 13d8 33       		.byte	0x33
 10637 13d9 24       		.byte	0x24
 10638 13da 91       		.byte	0x91
 10639 13db F67E     		.sleb128 -138
 10640 13dd 94       		.byte	0x94
 10641 13de 02       		.byte	0x2
 10642 13df 0A       		.byte	0xa
 10643 13e0 FFFF     		.2byte	0xffff
 10644 13e2 1A       		.byte	0x1a
 10645 13e3 3B       		.byte	0x3b
 10646 13e4 25       		.byte	0x25
 10647 13e5 1C       		.byte	0x1c
 10648 13e6 23       		.byte	0x23
 10649 13e7 07       		.uleb128 0x7
 10650 13e8 35       		.byte	0x35
 10651 13e9 26       		.byte	0x26
 10652 13ea 08       		.byte	0x8
 10653 13eb FF       		.byte	0xff
 10654 13ec 1A       		.byte	0x1a
 10655 13ed 40       		.byte	0x40
 10656 13ee 24       		.byte	0x24
 10657 13ef 91       		.byte	0x91
 10658 13f0 F67E     		.sleb128 -138
 10659 13f2 94       		.byte	0x94
 10660 13f3 02       		.byte	0x2
 10661 13f4 0A       		.byte	0xa
 10662 13f5 FFFF     		.2byte	0xffff
 10663 13f7 1A       		.byte	0x1a
 10664 13f8 45       		.byte	0x45
 10665 13f9 24       		.byte	0x24
 10666 13fa 4A       		.byte	0x4a
 10667 13fb 25       		.byte	0x25
ARM GAS  C:\Users\haske\AppData\Local\Temp\ccoc8x2c.s 			page 204


 10668 13fc 91       		.byte	0x91
 10669 13fd F67E     		.sleb128 -138
 10670 13ff 94       		.byte	0x94
 10671 1400 02       		.byte	0x2
 10672 1401 0A       		.byte	0xa
 10673 1402 FFFF     		.2byte	0xffff
 10674 1404 1A       		.byte	0x1a
 10675 1405 45       		.byte	0x45
 10676 1406 24       		.byte	0x24
 10677 1407 4A       		.byte	0x4a
 10678 1408 25       		.byte	0x25
 10679 1409 37       		.byte	0x37
 10680 140a 24       		.byte	0x24
 10681 140b 91       		.byte	0x91
 10682 140c F67E     		.sleb128 -138
 10683 140e 94       		.byte	0x94
 10684 140f 02       		.byte	0x2
 10685 1410 0A       		.byte	0xa
 10686 1411 FFFF     		.2byte	0xffff
 10687 1413 1A       		.byte	0x1a
 10688 1414 45       		.byte	0x45
 10689 1415 24       		.byte	0x24
 10690 1416 4A       		.byte	0x4a
 10691 1417 25       		.byte	0x25
 10692 1418 22       		.byte	0x22
 10693 1419 31       		.byte	0x31
 10694 141a 24       		.byte	0x24
 10695 141b 22       		.byte	0x22
 10696 141c 23       		.byte	0x23
 10697 141d 03       		.uleb128 0x3
 10698 141e 36       		.byte	0x36
 10699 141f 26       		.byte	0x26
 10700 1420 08       		.byte	0x8
 10701 1421 FF       		.byte	0xff
 10702 1422 1A       		.byte	0x1a
 10703 1423 38       		.byte	0x38
 10704 1424 24       		.byte	0x24
 10705 1425 21       		.byte	0x21
 10706 1426 91       		.byte	0x91
 10707 1427 F67E     		.sleb128 -138
 10708 1429 94       		.byte	0x94
 10709 142a 02       		.byte	0x2
 10710 142b 0A       		.byte	0xa
 10711 142c FFFF     		.2byte	0xffff
 10712 142e 1A       		.byte	0x1a
 10713 142f 4B       		.byte	0x4b
 10714 1430 24       		.byte	0x24
 10715 1431 4B       		.byte	0x4b
 10716 1432 25       		.byte	0x25
 10717 1433 35       		.byte	0x35
 10718 1434 24       		.byte	0x24
 10719 1435 91       		.byte	0x91
 10720 1436 F67E     		.sleb128 -138
 10721 1438 94       		.byte	0x94
 10722 1439 02       		.byte	0x2
 10723 143a 0A       		.byte	0xa
 10724 143b FFFF     		.2byte	0xffff
ARM GAS  C:\Users\haske\AppData\Local\Temp\ccoc8x2c.s 			page 205


 10725 143d 1A       		.byte	0x1a
 10726 143e 4B       		.byte	0x4b
 10727 143f 24       		.byte	0x24
 10728 1440 4B       		.byte	0x4b
 10729 1441 25       		.byte	0x25
 10730 1442 22       		.byte	0x22
 10731 1443 33       		.byte	0x33
 10732 1444 24       		.byte	0x24
 10733 1445 91       		.byte	0x91
 10734 1446 F67E     		.sleb128 -138
 10735 1448 94       		.byte	0x94
 10736 1449 02       		.byte	0x2
 10737 144a 0A       		.byte	0xa
 10738 144b FFFF     		.2byte	0xffff
 10739 144d 1A       		.byte	0x1a
 10740 144e 4B       		.byte	0x4b
 10741 144f 24       		.byte	0x24
 10742 1450 4B       		.byte	0x4b
 10743 1451 25       		.byte	0x25
 10744 1452 1C       		.byte	0x1c
 10745 1453 23       		.byte	0x23
 10746 1454 07       		.uleb128 0x7
 10747 1455 35       		.byte	0x35
 10748 1456 26       		.byte	0x26
 10749 1457 08       		.byte	0x8
 10750 1458 FF       		.byte	0xff
 10751 1459 1A       		.byte	0x1a
 10752 145a 21       		.byte	0x21
 10753 145b 7A       		.byte	0x7a
 10754 145c 00       		.sleb128 0
 10755 145d 21       		.byte	0x21
 10756 145e 40       		.byte	0x40
 10757 145f 24       		.byte	0x24
 10758 1460 48       		.byte	0x48
 10759 1461 25       		.byte	0x25
 10760 1462 32       		.byte	0x32
 10761 1463 24       		.byte	0x24
 10762 1464 22       		.byte	0x22
 10763 1465 78       		.byte	0x78
 10764 1466 00       		.sleb128 0
 10765 1467 22       		.byte	0x22
 10766 1468 0A       		.byte	0xa
 10767 1469 FFFF     		.2byte	0xffff
 10768 146b 1A       		.byte	0x1a
 10769 146c 91       		.byte	0x91
 10770 146d F67E     		.sleb128 -138
 10771 146f 94       		.byte	0x94
 10772 1470 02       		.byte	0x2
 10773 1471 0A       		.byte	0xa
 10774 1472 FFFF     		.2byte	0xffff
 10775 1474 1A       		.byte	0x1a
 10776 1475 3B       		.byte	0x3b
 10777 1476 25       		.byte	0x25
 10778 1477 35       		.byte	0x35
 10779 1478 24       		.byte	0x24
 10780 1479 91       		.byte	0x91
 10781 147a F67E     		.sleb128 -138
ARM GAS  C:\Users\haske\AppData\Local\Temp\ccoc8x2c.s 			page 206


 10782 147c 94       		.byte	0x94
 10783 147d 02       		.byte	0x2
 10784 147e 0A       		.byte	0xa
 10785 147f FFFF     		.2byte	0xffff
 10786 1481 1A       		.byte	0x1a
 10787 1482 3B       		.byte	0x3b
 10788 1483 25       		.byte	0x25
 10789 1484 22       		.byte	0x22
 10790 1485 33       		.byte	0x33
 10791 1486 24       		.byte	0x24
 10792 1487 91       		.byte	0x91
 10793 1488 F67E     		.sleb128 -138
 10794 148a 94       		.byte	0x94
 10795 148b 02       		.byte	0x2
 10796 148c 0A       		.byte	0xa
 10797 148d FFFF     		.2byte	0xffff
 10798 148f 1A       		.byte	0x1a
 10799 1490 3B       		.byte	0x3b
 10800 1491 25       		.byte	0x25
 10801 1492 1C       		.byte	0x1c
 10802 1493 23       		.byte	0x23
 10803 1494 07       		.uleb128 0x7
 10804 1495 35       		.byte	0x35
 10805 1496 26       		.byte	0x26
 10806 1497 08       		.byte	0x8
 10807 1498 FF       		.byte	0xff
 10808 1499 1A       		.byte	0x1a
 10809 149a 40       		.byte	0x40
 10810 149b 24       		.byte	0x24
 10811 149c 91       		.byte	0x91
 10812 149d F67E     		.sleb128 -138
 10813 149f 94       		.byte	0x94
 10814 14a0 02       		.byte	0x2
 10815 14a1 0A       		.byte	0xa
 10816 14a2 FFFF     		.2byte	0xffff
 10817 14a4 1A       		.byte	0x1a
 10818 14a5 45       		.byte	0x45
 10819 14a6 24       		.byte	0x24
 10820 14a7 4A       		.byte	0x4a
 10821 14a8 25       		.byte	0x25
 10822 14a9 91       		.byte	0x91
 10823 14aa F67E     		.sleb128 -138
 10824 14ac 94       		.byte	0x94
 10825 14ad 02       		.byte	0x2
 10826 14ae 0A       		.byte	0xa
 10827 14af FFFF     		.2byte	0xffff
 10828 14b1 1A       		.byte	0x1a
 10829 14b2 45       		.byte	0x45
 10830 14b3 24       		.byte	0x24
 10831 14b4 4A       		.byte	0x4a
 10832 14b5 25       		.byte	0x25
 10833 14b6 37       		.byte	0x37
 10834 14b7 24       		.byte	0x24
 10835 14b8 91       		.byte	0x91
 10836 14b9 F67E     		.sleb128 -138
 10837 14bb 94       		.byte	0x94
 10838 14bc 02       		.byte	0x2
ARM GAS  C:\Users\haske\AppData\Local\Temp\ccoc8x2c.s 			page 207


 10839 14bd 0A       		.byte	0xa
 10840 14be FFFF     		.2byte	0xffff
 10841 14c0 1A       		.byte	0x1a
 10842 14c1 45       		.byte	0x45
 10843 14c2 24       		.byte	0x24
 10844 14c3 4A       		.byte	0x4a
 10845 14c4 25       		.byte	0x25
 10846 14c5 22       		.byte	0x22
 10847 14c6 31       		.byte	0x31
 10848 14c7 24       		.byte	0x24
 10849 14c8 22       		.byte	0x22
 10850 14c9 23       		.byte	0x23
 10851 14ca 03       		.uleb128 0x3
 10852 14cb 36       		.byte	0x36
 10853 14cc 26       		.byte	0x26
 10854 14cd 08       		.byte	0x8
 10855 14ce FF       		.byte	0xff
 10856 14cf 1A       		.byte	0x1a
 10857 14d0 38       		.byte	0x38
 10858 14d1 24       		.byte	0x24
 10859 14d2 21       		.byte	0x21
 10860 14d3 91       		.byte	0x91
 10861 14d4 F67E     		.sleb128 -138
 10862 14d6 94       		.byte	0x94
 10863 14d7 02       		.byte	0x2
 10864 14d8 0A       		.byte	0xa
 10865 14d9 FFFF     		.2byte	0xffff
 10866 14db 1A       		.byte	0x1a
 10867 14dc 4B       		.byte	0x4b
 10868 14dd 24       		.byte	0x24
 10869 14de 4B       		.byte	0x4b
 10870 14df 25       		.byte	0x25
 10871 14e0 35       		.byte	0x35
 10872 14e1 24       		.byte	0x24
 10873 14e2 91       		.byte	0x91
 10874 14e3 F67E     		.sleb128 -138
 10875 14e5 94       		.byte	0x94
 10876 14e6 02       		.byte	0x2
 10877 14e7 0A       		.byte	0xa
 10878 14e8 FFFF     		.2byte	0xffff
 10879 14ea 1A       		.byte	0x1a
 10880 14eb 4B       		.byte	0x4b
 10881 14ec 24       		.byte	0x24
 10882 14ed 4B       		.byte	0x4b
 10883 14ee 25       		.byte	0x25
 10884 14ef 22       		.byte	0x22
 10885 14f0 33       		.byte	0x33
 10886 14f1 24       		.byte	0x24
 10887 14f2 91       		.byte	0x91
 10888 14f3 F67E     		.sleb128 -138
 10889 14f5 94       		.byte	0x94
 10890 14f6 02       		.byte	0x2
 10891 14f7 0A       		.byte	0xa
 10892 14f8 FFFF     		.2byte	0xffff
 10893 14fa 1A       		.byte	0x1a
 10894 14fb 4B       		.byte	0x4b
 10895 14fc 24       		.byte	0x24
ARM GAS  C:\Users\haske\AppData\Local\Temp\ccoc8x2c.s 			page 208


 10896 14fd 4B       		.byte	0x4b
 10897 14fe 25       		.byte	0x25
 10898 14ff 1C       		.byte	0x1c
 10899 1500 23       		.byte	0x23
 10900 1501 07       		.uleb128 0x7
 10901 1502 35       		.byte	0x35
 10902 1503 26       		.byte	0x26
 10903 1504 08       		.byte	0x8
 10904 1505 FF       		.byte	0xff
 10905 1506 1A       		.byte	0x1a
 10906 1507 21       		.byte	0x21
 10907 1508 7A       		.byte	0x7a
 10908 1509 00       		.sleb128 0
 10909 150a 21       		.byte	0x21
 10910 150b 08       		.byte	0x8
 10911 150c FF       		.byte	0xff
 10912 150d 1A       		.byte	0x1a
 10913 150e 22       		.byte	0x22
 10914 150f 0A       		.byte	0xa
 10915 1510 FFFF     		.2byte	0xffff
 10916 1512 1A       		.byte	0x1a
 10917 1513 33       		.byte	0x33
 10918 1514 25       		.byte	0x25
 10919 1515 08       		.byte	0x8
 10920 1516 FF       		.byte	0xff
 10921 1517 1A       		.byte	0x1a
 10922 1518 23       		.byte	0x23
 10923 1519 04       		.uleb128 0x4
 10924 151a 33       		.byte	0x33
 10925 151b 25       		.byte	0x25
 10926 151c 9F       		.byte	0x9f
 10927 151d 00000000 		.4byte	0
 10928 1521 00000000 		.4byte	0
 10929              	.LLST37:
 10930 1525 D6020000 		.4byte	.LVL107
 10931 1529 F2020000 		.4byte	.LVL114
 10932 152d 0200     		.2byte	0x2
 10933 152f 30       		.byte	0x30
 10934 1530 9F       		.byte	0x9f
 10935 1531 00000000 		.4byte	0
 10936 1535 00000000 		.4byte	0
 10937              	.LLST38:
 10938 1539 E0020000 		.4byte	.LVL108
 10939 153d E2020000 		.4byte	.LVL109
 10940 1541 0600     		.2byte	0x6
 10941 1543 71       		.byte	0x71
 10942 1544 00       		.sleb128 0
 10943 1545 72       		.byte	0x72
 10944 1546 00       		.sleb128 0
 10945 1547 1A       		.byte	0x1a
 10946 1548 9F       		.byte	0x9f
 10947 1549 E2020000 		.4byte	.LVL109
 10948 154d E8020000 		.4byte	.LVL111
 10949 1551 0100     		.2byte	0x1
 10950 1553 51       		.byte	0x51
 10951 1554 E8020000 		.4byte	.LVL111
 10952 1558 F2020000 		.4byte	.LVL114
ARM GAS  C:\Users\haske\AppData\Local\Temp\ccoc8x2c.s 			page 209


 10953 155c 0B00     		.2byte	0xb
 10954 155e 7C       		.byte	0x7c
 10955 155f 00       		.sleb128 0
 10956 1560 40       		.byte	0x40
 10957 1561 24       		.byte	0x24
 10958 1562 7C       		.byte	0x7c
 10959 1563 00       		.sleb128 0
 10960 1564 21       		.byte	0x21
 10961 1565 72       		.byte	0x72
 10962 1566 00       		.sleb128 0
 10963 1567 1A       		.byte	0x1a
 10964 1568 9F       		.byte	0x9f
 10965 1569 00000000 		.4byte	0
 10966 156d 00000000 		.4byte	0
 10967              	.LLST39:
 10968 1571 EC020000 		.4byte	.LVL112
 10969 1575 F0020000 		.4byte	.LVL113
 10970 1579 0100     		.2byte	0x1
 10971 157b 51       		.byte	0x51
 10972 157c F0020000 		.4byte	.LVL113
 10973 1580 F2020000 		.4byte	.LVL114
 10974 1584 1402     		.2byte	0x214
 10975 1586 7C       		.byte	0x7c
 10976 1587 00       		.sleb128 0
 10977 1588 40       		.byte	0x40
 10978 1589 24       		.byte	0x24
 10979 158a 7C       		.byte	0x7c
 10980 158b 00       		.sleb128 0
 10981 158c 21       		.byte	0x21
 10982 158d 72       		.byte	0x72
 10983 158e 00       		.sleb128 0
 10984 158f 1A       		.byte	0x1a
 10985 1590 91       		.byte	0x91
 10986 1591 F67E     		.sleb128 -138
 10987 1593 94       		.byte	0x94
 10988 1594 02       		.byte	0x2
 10989 1595 0A       		.byte	0xa
 10990 1596 FFFF     		.2byte	0xffff
 10991 1598 1A       		.byte	0x1a
 10992 1599 3B       		.byte	0x3b
 10993 159a 25       		.byte	0x25
 10994 159b 35       		.byte	0x35
 10995 159c 24       		.byte	0x24
 10996 159d 91       		.byte	0x91
 10997 159e F67E     		.sleb128 -138
 10998 15a0 94       		.byte	0x94
 10999 15a1 02       		.byte	0x2
 11000 15a2 0A       		.byte	0xa
 11001 15a3 FFFF     		.2byte	0xffff
 11002 15a5 1A       		.byte	0x1a
 11003 15a6 3B       		.byte	0x3b
 11004 15a7 25       		.byte	0x25
 11005 15a8 22       		.byte	0x22
 11006 15a9 33       		.byte	0x33
 11007 15aa 24       		.byte	0x24
 11008 15ab 91       		.byte	0x91
 11009 15ac F67E     		.sleb128 -138
ARM GAS  C:\Users\haske\AppData\Local\Temp\ccoc8x2c.s 			page 210


 11010 15ae 94       		.byte	0x94
 11011 15af 02       		.byte	0x2
 11012 15b0 0A       		.byte	0xa
 11013 15b1 FFFF     		.2byte	0xffff
 11014 15b3 1A       		.byte	0x1a
 11015 15b4 3B       		.byte	0x3b
 11016 15b5 25       		.byte	0x25
 11017 15b6 1C       		.byte	0x1c
 11018 15b7 23       		.byte	0x23
 11019 15b8 07       		.uleb128 0x7
 11020 15b9 35       		.byte	0x35
 11021 15ba 26       		.byte	0x26
 11022 15bb 08       		.byte	0x8
 11023 15bc FF       		.byte	0xff
 11024 15bd 1A       		.byte	0x1a
 11025 15be 40       		.byte	0x40
 11026 15bf 24       		.byte	0x24
 11027 15c0 91       		.byte	0x91
 11028 15c1 F67E     		.sleb128 -138
 11029 15c3 94       		.byte	0x94
 11030 15c4 02       		.byte	0x2
 11031 15c5 0A       		.byte	0xa
 11032 15c6 FFFF     		.2byte	0xffff
 11033 15c8 1A       		.byte	0x1a
 11034 15c9 45       		.byte	0x45
 11035 15ca 24       		.byte	0x24
 11036 15cb 4A       		.byte	0x4a
 11037 15cc 25       		.byte	0x25
 11038 15cd 91       		.byte	0x91
 11039 15ce F67E     		.sleb128 -138
 11040 15d0 94       		.byte	0x94
 11041 15d1 02       		.byte	0x2
 11042 15d2 0A       		.byte	0xa
 11043 15d3 FFFF     		.2byte	0xffff
 11044 15d5 1A       		.byte	0x1a
 11045 15d6 45       		.byte	0x45
 11046 15d7 24       		.byte	0x24
 11047 15d8 4A       		.byte	0x4a
 11048 15d9 25       		.byte	0x25
 11049 15da 37       		.byte	0x37
 11050 15db 24       		.byte	0x24
 11051 15dc 91       		.byte	0x91
 11052 15dd F67E     		.sleb128 -138
 11053 15df 94       		.byte	0x94
 11054 15e0 02       		.byte	0x2
 11055 15e1 0A       		.byte	0xa
 11056 15e2 FFFF     		.2byte	0xffff
 11057 15e4 1A       		.byte	0x1a
 11058 15e5 45       		.byte	0x45
 11059 15e6 24       		.byte	0x24
 11060 15e7 4A       		.byte	0x4a
 11061 15e8 25       		.byte	0x25
 11062 15e9 22       		.byte	0x22
 11063 15ea 31       		.byte	0x31
 11064 15eb 24       		.byte	0x24
 11065 15ec 22       		.byte	0x22
 11066 15ed 23       		.byte	0x23
ARM GAS  C:\Users\haske\AppData\Local\Temp\ccoc8x2c.s 			page 211


 11067 15ee 03       		.uleb128 0x3
 11068 15ef 36       		.byte	0x36
 11069 15f0 26       		.byte	0x26
 11070 15f1 08       		.byte	0x8
 11071 15f2 FF       		.byte	0xff
 11072 15f3 1A       		.byte	0x1a
 11073 15f4 38       		.byte	0x38
 11074 15f5 24       		.byte	0x24
 11075 15f6 21       		.byte	0x21
 11076 15f7 91       		.byte	0x91
 11077 15f8 F67E     		.sleb128 -138
 11078 15fa 94       		.byte	0x94
 11079 15fb 02       		.byte	0x2
 11080 15fc 0A       		.byte	0xa
 11081 15fd FFFF     		.2byte	0xffff
 11082 15ff 1A       		.byte	0x1a
 11083 1600 4B       		.byte	0x4b
 11084 1601 24       		.byte	0x24
 11085 1602 4B       		.byte	0x4b
 11086 1603 25       		.byte	0x25
 11087 1604 35       		.byte	0x35
 11088 1605 24       		.byte	0x24
 11089 1606 91       		.byte	0x91
 11090 1607 F67E     		.sleb128 -138
 11091 1609 94       		.byte	0x94
 11092 160a 02       		.byte	0x2
 11093 160b 0A       		.byte	0xa
 11094 160c FFFF     		.2byte	0xffff
 11095 160e 1A       		.byte	0x1a
 11096 160f 4B       		.byte	0x4b
 11097 1610 24       		.byte	0x24
 11098 1611 4B       		.byte	0x4b
 11099 1612 25       		.byte	0x25
 11100 1613 22       		.byte	0x22
 11101 1614 33       		.byte	0x33
 11102 1615 24       		.byte	0x24
 11103 1616 91       		.byte	0x91
 11104 1617 F67E     		.sleb128 -138
 11105 1619 94       		.byte	0x94
 11106 161a 02       		.byte	0x2
 11107 161b 0A       		.byte	0xa
 11108 161c FFFF     		.2byte	0xffff
 11109 161e 1A       		.byte	0x1a
 11110 161f 4B       		.byte	0x4b
 11111 1620 24       		.byte	0x24
 11112 1621 4B       		.byte	0x4b
 11113 1622 25       		.byte	0x25
 11114 1623 1C       		.byte	0x1c
 11115 1624 23       		.byte	0x23
 11116 1625 07       		.uleb128 0x7
 11117 1626 35       		.byte	0x35
 11118 1627 26       		.byte	0x26
 11119 1628 08       		.byte	0x8
 11120 1629 FF       		.byte	0xff
 11121 162a 1A       		.byte	0x1a
 11122 162b 21       		.byte	0x21
 11123 162c 7A       		.byte	0x7a
ARM GAS  C:\Users\haske\AppData\Local\Temp\ccoc8x2c.s 			page 212


 11124 162d 00       		.sleb128 0
 11125 162e 21       		.byte	0x21
 11126 162f 38       		.byte	0x38
 11127 1630 24       		.byte	0x24
 11128 1631 48       		.byte	0x48
 11129 1632 25       		.byte	0x25
 11130 1633 91       		.byte	0x91
 11131 1634 F67E     		.sleb128 -138
 11132 1636 94       		.byte	0x94
 11133 1637 02       		.byte	0x2
 11134 1638 0A       		.byte	0xa
 11135 1639 FFFF     		.2byte	0xffff
 11136 163b 1A       		.byte	0x1a
 11137 163c 3B       		.byte	0x3b
 11138 163d 25       		.byte	0x25
 11139 163e 35       		.byte	0x35
 11140 163f 24       		.byte	0x24
 11141 1640 91       		.byte	0x91
 11142 1641 F67E     		.sleb128 -138
 11143 1643 94       		.byte	0x94
 11144 1644 02       		.byte	0x2
 11145 1645 0A       		.byte	0xa
 11146 1646 FFFF     		.2byte	0xffff
 11147 1648 1A       		.byte	0x1a
 11148 1649 3B       		.byte	0x3b
 11149 164a 25       		.byte	0x25
 11150 164b 22       		.byte	0x22
 11151 164c 33       		.byte	0x33
 11152 164d 24       		.byte	0x24
 11153 164e 91       		.byte	0x91
 11154 164f F67E     		.sleb128 -138
 11155 1651 94       		.byte	0x94
 11156 1652 02       		.byte	0x2
 11157 1653 0A       		.byte	0xa
 11158 1654 FFFF     		.2byte	0xffff
 11159 1656 1A       		.byte	0x1a
 11160 1657 3B       		.byte	0x3b
 11161 1658 25       		.byte	0x25
 11162 1659 1C       		.byte	0x1c
 11163 165a 23       		.byte	0x23
 11164 165b 07       		.uleb128 0x7
 11165 165c 35       		.byte	0x35
 11166 165d 26       		.byte	0x26
 11167 165e 08       		.byte	0x8
 11168 165f FF       		.byte	0xff
 11169 1660 1A       		.byte	0x1a
 11170 1661 40       		.byte	0x40
 11171 1662 24       		.byte	0x24
 11172 1663 91       		.byte	0x91
 11173 1664 F67E     		.sleb128 -138
 11174 1666 94       		.byte	0x94
 11175 1667 02       		.byte	0x2
 11176 1668 0A       		.byte	0xa
 11177 1669 FFFF     		.2byte	0xffff
 11178 166b 1A       		.byte	0x1a
 11179 166c 45       		.byte	0x45
 11180 166d 24       		.byte	0x24
ARM GAS  C:\Users\haske\AppData\Local\Temp\ccoc8x2c.s 			page 213


 11181 166e 4A       		.byte	0x4a
 11182 166f 25       		.byte	0x25
 11183 1670 91       		.byte	0x91
 11184 1671 F67E     		.sleb128 -138
 11185 1673 94       		.byte	0x94
 11186 1674 02       		.byte	0x2
 11187 1675 0A       		.byte	0xa
 11188 1676 FFFF     		.2byte	0xffff
 11189 1678 1A       		.byte	0x1a
 11190 1679 45       		.byte	0x45
 11191 167a 24       		.byte	0x24
 11192 167b 4A       		.byte	0x4a
 11193 167c 25       		.byte	0x25
 11194 167d 37       		.byte	0x37
 11195 167e 24       		.byte	0x24
 11196 167f 91       		.byte	0x91
 11197 1680 F67E     		.sleb128 -138
 11198 1682 94       		.byte	0x94
 11199 1683 02       		.byte	0x2
 11200 1684 0A       		.byte	0xa
 11201 1685 FFFF     		.2byte	0xffff
 11202 1687 1A       		.byte	0x1a
 11203 1688 45       		.byte	0x45
 11204 1689 24       		.byte	0x24
 11205 168a 4A       		.byte	0x4a
 11206 168b 25       		.byte	0x25
 11207 168c 22       		.byte	0x22
 11208 168d 31       		.byte	0x31
 11209 168e 24       		.byte	0x24
 11210 168f 22       		.byte	0x22
 11211 1690 23       		.byte	0x23
 11212 1691 03       		.uleb128 0x3
 11213 1692 36       		.byte	0x36
 11214 1693 26       		.byte	0x26
 11215 1694 08       		.byte	0x8
 11216 1695 FF       		.byte	0xff
 11217 1696 1A       		.byte	0x1a
 11218 1697 38       		.byte	0x38
 11219 1698 24       		.byte	0x24
 11220 1699 21       		.byte	0x21
 11221 169a 91       		.byte	0x91
 11222 169b F67E     		.sleb128 -138
 11223 169d 94       		.byte	0x94
 11224 169e 02       		.byte	0x2
 11225 169f 0A       		.byte	0xa
 11226 16a0 FFFF     		.2byte	0xffff
 11227 16a2 1A       		.byte	0x1a
 11228 16a3 4B       		.byte	0x4b
 11229 16a4 24       		.byte	0x24
 11230 16a5 4B       		.byte	0x4b
 11231 16a6 25       		.byte	0x25
 11232 16a7 35       		.byte	0x35
 11233 16a8 24       		.byte	0x24
 11234 16a9 91       		.byte	0x91
 11235 16aa F67E     		.sleb128 -138
 11236 16ac 94       		.byte	0x94
 11237 16ad 02       		.byte	0x2
ARM GAS  C:\Users\haske\AppData\Local\Temp\ccoc8x2c.s 			page 214


 11238 16ae 0A       		.byte	0xa
 11239 16af FFFF     		.2byte	0xffff
 11240 16b1 1A       		.byte	0x1a
 11241 16b2 4B       		.byte	0x4b
 11242 16b3 24       		.byte	0x24
 11243 16b4 4B       		.byte	0x4b
 11244 16b5 25       		.byte	0x25
 11245 16b6 22       		.byte	0x22
 11246 16b7 33       		.byte	0x33
 11247 16b8 24       		.byte	0x24
 11248 16b9 91       		.byte	0x91
 11249 16ba F67E     		.sleb128 -138
 11250 16bc 94       		.byte	0x94
 11251 16bd 02       		.byte	0x2
 11252 16be 0A       		.byte	0xa
 11253 16bf FFFF     		.2byte	0xffff
 11254 16c1 1A       		.byte	0x1a
 11255 16c2 4B       		.byte	0x4b
 11256 16c3 24       		.byte	0x24
 11257 16c4 4B       		.byte	0x4b
 11258 16c5 25       		.byte	0x25
 11259 16c6 1C       		.byte	0x1c
 11260 16c7 23       		.byte	0x23
 11261 16c8 07       		.uleb128 0x7
 11262 16c9 35       		.byte	0x35
 11263 16ca 26       		.byte	0x26
 11264 16cb 08       		.byte	0x8
 11265 16cc FF       		.byte	0xff
 11266 16cd 1A       		.byte	0x1a
 11267 16ce 21       		.byte	0x21
 11268 16cf 7A       		.byte	0x7a
 11269 16d0 00       		.sleb128 0
 11270 16d1 21       		.byte	0x21
 11271 16d2 40       		.byte	0x40
 11272 16d3 24       		.byte	0x24
 11273 16d4 48       		.byte	0x48
 11274 16d5 25       		.byte	0x25
 11275 16d6 32       		.byte	0x32
 11276 16d7 24       		.byte	0x24
 11277 16d8 22       		.byte	0x22
 11278 16d9 78       		.byte	0x78
 11279 16da 00       		.sleb128 0
 11280 16db 22       		.byte	0x22
 11281 16dc 0A       		.byte	0xa
 11282 16dd FFFF     		.2byte	0xffff
 11283 16df 1A       		.byte	0x1a
 11284 16e0 91       		.byte	0x91
 11285 16e1 F67E     		.sleb128 -138
 11286 16e3 94       		.byte	0x94
 11287 16e4 02       		.byte	0x2
 11288 16e5 0A       		.byte	0xa
 11289 16e6 FFFF     		.2byte	0xffff
 11290 16e8 1A       		.byte	0x1a
 11291 16e9 3B       		.byte	0x3b
 11292 16ea 25       		.byte	0x25
 11293 16eb 35       		.byte	0x35
 11294 16ec 24       		.byte	0x24
ARM GAS  C:\Users\haske\AppData\Local\Temp\ccoc8x2c.s 			page 215


 11295 16ed 91       		.byte	0x91
 11296 16ee F67E     		.sleb128 -138
 11297 16f0 94       		.byte	0x94
 11298 16f1 02       		.byte	0x2
 11299 16f2 0A       		.byte	0xa
 11300 16f3 FFFF     		.2byte	0xffff
 11301 16f5 1A       		.byte	0x1a
 11302 16f6 3B       		.byte	0x3b
 11303 16f7 25       		.byte	0x25
 11304 16f8 22       		.byte	0x22
 11305 16f9 33       		.byte	0x33
 11306 16fa 24       		.byte	0x24
 11307 16fb 91       		.byte	0x91
 11308 16fc F67E     		.sleb128 -138
 11309 16fe 94       		.byte	0x94
 11310 16ff 02       		.byte	0x2
 11311 1700 0A       		.byte	0xa
 11312 1701 FFFF     		.2byte	0xffff
 11313 1703 1A       		.byte	0x1a
 11314 1704 3B       		.byte	0x3b
 11315 1705 25       		.byte	0x25
 11316 1706 1C       		.byte	0x1c
 11317 1707 23       		.byte	0x23
 11318 1708 07       		.uleb128 0x7
 11319 1709 35       		.byte	0x35
 11320 170a 26       		.byte	0x26
 11321 170b 08       		.byte	0x8
 11322 170c FF       		.byte	0xff
 11323 170d 1A       		.byte	0x1a
 11324 170e 40       		.byte	0x40
 11325 170f 24       		.byte	0x24
 11326 1710 91       		.byte	0x91
 11327 1711 F67E     		.sleb128 -138
 11328 1713 94       		.byte	0x94
 11329 1714 02       		.byte	0x2
 11330 1715 0A       		.byte	0xa
 11331 1716 FFFF     		.2byte	0xffff
 11332 1718 1A       		.byte	0x1a
 11333 1719 45       		.byte	0x45
 11334 171a 24       		.byte	0x24
 11335 171b 4A       		.byte	0x4a
 11336 171c 25       		.byte	0x25
 11337 171d 91       		.byte	0x91
 11338 171e F67E     		.sleb128 -138
 11339 1720 94       		.byte	0x94
 11340 1721 02       		.byte	0x2
 11341 1722 0A       		.byte	0xa
 11342 1723 FFFF     		.2byte	0xffff
 11343 1725 1A       		.byte	0x1a
 11344 1726 45       		.byte	0x45
 11345 1727 24       		.byte	0x24
 11346 1728 4A       		.byte	0x4a
 11347 1729 25       		.byte	0x25
 11348 172a 37       		.byte	0x37
 11349 172b 24       		.byte	0x24
 11350 172c 91       		.byte	0x91
 11351 172d F67E     		.sleb128 -138
ARM GAS  C:\Users\haske\AppData\Local\Temp\ccoc8x2c.s 			page 216


 11352 172f 94       		.byte	0x94
 11353 1730 02       		.byte	0x2
 11354 1731 0A       		.byte	0xa
 11355 1732 FFFF     		.2byte	0xffff
 11356 1734 1A       		.byte	0x1a
 11357 1735 45       		.byte	0x45
 11358 1736 24       		.byte	0x24
 11359 1737 4A       		.byte	0x4a
 11360 1738 25       		.byte	0x25
 11361 1739 22       		.byte	0x22
 11362 173a 31       		.byte	0x31
 11363 173b 24       		.byte	0x24
 11364 173c 22       		.byte	0x22
 11365 173d 23       		.byte	0x23
 11366 173e 03       		.uleb128 0x3
 11367 173f 36       		.byte	0x36
 11368 1740 26       		.byte	0x26
 11369 1741 08       		.byte	0x8
 11370 1742 FF       		.byte	0xff
 11371 1743 1A       		.byte	0x1a
 11372 1744 38       		.byte	0x38
 11373 1745 24       		.byte	0x24
 11374 1746 21       		.byte	0x21
 11375 1747 91       		.byte	0x91
 11376 1748 F67E     		.sleb128 -138
 11377 174a 94       		.byte	0x94
 11378 174b 02       		.byte	0x2
 11379 174c 0A       		.byte	0xa
 11380 174d FFFF     		.2byte	0xffff
 11381 174f 1A       		.byte	0x1a
 11382 1750 4B       		.byte	0x4b
 11383 1751 24       		.byte	0x24
 11384 1752 4B       		.byte	0x4b
 11385 1753 25       		.byte	0x25
 11386 1754 35       		.byte	0x35
 11387 1755 24       		.byte	0x24
 11388 1756 91       		.byte	0x91
 11389 1757 F67E     		.sleb128 -138
 11390 1759 94       		.byte	0x94
 11391 175a 02       		.byte	0x2
 11392 175b 0A       		.byte	0xa
 11393 175c FFFF     		.2byte	0xffff
 11394 175e 1A       		.byte	0x1a
 11395 175f 4B       		.byte	0x4b
 11396 1760 24       		.byte	0x24
 11397 1761 4B       		.byte	0x4b
 11398 1762 25       		.byte	0x25
 11399 1763 22       		.byte	0x22
 11400 1764 33       		.byte	0x33
 11401 1765 24       		.byte	0x24
 11402 1766 91       		.byte	0x91
 11403 1767 F67E     		.sleb128 -138
 11404 1769 94       		.byte	0x94
 11405 176a 02       		.byte	0x2
 11406 176b 0A       		.byte	0xa
 11407 176c FFFF     		.2byte	0xffff
 11408 176e 1A       		.byte	0x1a
ARM GAS  C:\Users\haske\AppData\Local\Temp\ccoc8x2c.s 			page 217


 11409 176f 4B       		.byte	0x4b
 11410 1770 24       		.byte	0x24
 11411 1771 4B       		.byte	0x4b
 11412 1772 25       		.byte	0x25
 11413 1773 1C       		.byte	0x1c
 11414 1774 23       		.byte	0x23
 11415 1775 07       		.uleb128 0x7
 11416 1776 35       		.byte	0x35
 11417 1777 26       		.byte	0x26
 11418 1778 08       		.byte	0x8
 11419 1779 FF       		.byte	0xff
 11420 177a 1A       		.byte	0x1a
 11421 177b 21       		.byte	0x21
 11422 177c 7A       		.byte	0x7a
 11423 177d 00       		.sleb128 0
 11424 177e 21       		.byte	0x21
 11425 177f 08       		.byte	0x8
 11426 1780 FF       		.byte	0xff
 11427 1781 1A       		.byte	0x1a
 11428 1782 22       		.byte	0x22
 11429 1783 0A       		.byte	0xa
 11430 1784 FFFF     		.2byte	0xffff
 11431 1786 1A       		.byte	0x1a
 11432 1787 33       		.byte	0x33
 11433 1788 25       		.byte	0x25
 11434 1789 08       		.byte	0x8
 11435 178a FF       		.byte	0xff
 11436 178b 1A       		.byte	0x1a
 11437 178c 23       		.byte	0x23
 11438 178d 04       		.uleb128 0x4
 11439 178e 33       		.byte	0x33
 11440 178f 25       		.byte	0x25
 11441 1790 70       		.byte	0x70
 11442 1791 00       		.sleb128 0
 11443 1792 1A       		.byte	0x1a
 11444 1793 1E       		.byte	0x1e
 11445 1794 35       		.byte	0x35
 11446 1795 25       		.byte	0x25
 11447 1796 72       		.byte	0x72
 11448 1797 00       		.sleb128 0
 11449 1798 1A       		.byte	0x1a
 11450 1799 9F       		.byte	0x9f
 11451 179a 00000000 		.4byte	0
 11452 179e 00000000 		.4byte	0
 11453              	.LLST40:
 11454 17a2 90030000 		.4byte	.LVL123
 11455 17a6 92030000 		.4byte	.LVL124
 11456 17aa 0100     		.2byte	0x1
 11457 17ac 53       		.byte	0x53
 11458 17ad 92030000 		.4byte	.LVL124
 11459 17b1 94030000 		.4byte	.LVL125
 11460 17b5 A900     		.2byte	0xa9
 11461 17b7 91       		.byte	0x91
 11462 17b8 FC7E     		.sleb128 -132
 11463 17ba 94       		.byte	0x94
 11464 17bb 02       		.byte	0x2
 11465 17bc 0A       		.byte	0xa
ARM GAS  C:\Users\haske\AppData\Local\Temp\ccoc8x2c.s 			page 218


 11466 17bd FFFF     		.2byte	0xffff
 11467 17bf 1A       		.byte	0x1a
 11468 17c0 3B       		.byte	0x3b
 11469 17c1 25       		.byte	0x25
 11470 17c2 35       		.byte	0x35
 11471 17c3 24       		.byte	0x24
 11472 17c4 91       		.byte	0x91
 11473 17c5 FC7E     		.sleb128 -132
 11474 17c7 94       		.byte	0x94
 11475 17c8 02       		.byte	0x2
 11476 17c9 0A       		.byte	0xa
 11477 17ca FFFF     		.2byte	0xffff
 11478 17cc 1A       		.byte	0x1a
 11479 17cd 3B       		.byte	0x3b
 11480 17ce 25       		.byte	0x25
 11481 17cf 22       		.byte	0x22
 11482 17d0 33       		.byte	0x33
 11483 17d1 24       		.byte	0x24
 11484 17d2 91       		.byte	0x91
 11485 17d3 FC7E     		.sleb128 -132
 11486 17d5 94       		.byte	0x94
 11487 17d6 02       		.byte	0x2
 11488 17d7 0A       		.byte	0xa
 11489 17d8 FFFF     		.2byte	0xffff
 11490 17da 1A       		.byte	0x1a
 11491 17db 3B       		.byte	0x3b
 11492 17dc 25       		.byte	0x25
 11493 17dd 1C       		.byte	0x1c
 11494 17de 23       		.byte	0x23
 11495 17df 07       		.uleb128 0x7
 11496 17e0 35       		.byte	0x35
 11497 17e1 26       		.byte	0x26
 11498 17e2 08       		.byte	0x8
 11499 17e3 FF       		.byte	0xff
 11500 17e4 1A       		.byte	0x1a
 11501 17e5 40       		.byte	0x40
 11502 17e6 24       		.byte	0x24
 11503 17e7 91       		.byte	0x91
 11504 17e8 FC7E     		.sleb128 -132
 11505 17ea 94       		.byte	0x94
 11506 17eb 02       		.byte	0x2
 11507 17ec 0A       		.byte	0xa
 11508 17ed FFFF     		.2byte	0xffff
 11509 17ef 1A       		.byte	0x1a
 11510 17f0 45       		.byte	0x45
 11511 17f1 24       		.byte	0x24
 11512 17f2 4A       		.byte	0x4a
 11513 17f3 25       		.byte	0x25
 11514 17f4 91       		.byte	0x91
 11515 17f5 FC7E     		.sleb128 -132
 11516 17f7 94       		.byte	0x94
 11517 17f8 02       		.byte	0x2
 11518 17f9 0A       		.byte	0xa
 11519 17fa FFFF     		.2byte	0xffff
 11520 17fc 1A       		.byte	0x1a
 11521 17fd 45       		.byte	0x45
 11522 17fe 24       		.byte	0x24
ARM GAS  C:\Users\haske\AppData\Local\Temp\ccoc8x2c.s 			page 219


 11523 17ff 4A       		.byte	0x4a
 11524 1800 25       		.byte	0x25
 11525 1801 37       		.byte	0x37
 11526 1802 24       		.byte	0x24
 11527 1803 91       		.byte	0x91
 11528 1804 FC7E     		.sleb128 -132
 11529 1806 94       		.byte	0x94
 11530 1807 02       		.byte	0x2
 11531 1808 0A       		.byte	0xa
 11532 1809 FFFF     		.2byte	0xffff
 11533 180b 1A       		.byte	0x1a
 11534 180c 45       		.byte	0x45
 11535 180d 24       		.byte	0x24
 11536 180e 4A       		.byte	0x4a
 11537 180f 25       		.byte	0x25
 11538 1810 22       		.byte	0x22
 11539 1811 31       		.byte	0x31
 11540 1812 24       		.byte	0x24
 11541 1813 22       		.byte	0x22
 11542 1814 7B       		.byte	0x7b
 11543 1815 00       		.sleb128 0
 11544 1816 22       		.byte	0x22
 11545 1817 36       		.byte	0x36
 11546 1818 26       		.byte	0x26
 11547 1819 08       		.byte	0x8
 11548 181a FF       		.byte	0xff
 11549 181b 1A       		.byte	0x1a
 11550 181c 38       		.byte	0x38
 11551 181d 24       		.byte	0x24
 11552 181e 21       		.byte	0x21
 11553 181f 79       		.byte	0x79
 11554 1820 00       		.sleb128 0
 11555 1821 48       		.byte	0x48
 11556 1822 24       		.byte	0x24
 11557 1823 21       		.byte	0x21
 11558 1824 91       		.byte	0x91
 11559 1825 FC7E     		.sleb128 -132
 11560 1827 94       		.byte	0x94
 11561 1828 02       		.byte	0x2
 11562 1829 0A       		.byte	0xa
 11563 182a FFFF     		.2byte	0xffff
 11564 182c 1A       		.byte	0x1a
 11565 182d 4B       		.byte	0x4b
 11566 182e 24       		.byte	0x24
 11567 182f 4B       		.byte	0x4b
 11568 1830 25       		.byte	0x25
 11569 1831 35       		.byte	0x35
 11570 1832 24       		.byte	0x24
 11571 1833 91       		.byte	0x91
 11572 1834 FC7E     		.sleb128 -132
 11573 1836 94       		.byte	0x94
 11574 1837 02       		.byte	0x2
 11575 1838 0A       		.byte	0xa
 11576 1839 FFFF     		.2byte	0xffff
 11577 183b 1A       		.byte	0x1a
 11578 183c 4B       		.byte	0x4b
 11579 183d 24       		.byte	0x24
ARM GAS  C:\Users\haske\AppData\Local\Temp\ccoc8x2c.s 			page 220


 11580 183e 4B       		.byte	0x4b
 11581 183f 25       		.byte	0x25
 11582 1840 22       		.byte	0x22
 11583 1841 33       		.byte	0x33
 11584 1842 24       		.byte	0x24
 11585 1843 91       		.byte	0x91
 11586 1844 FC7E     		.sleb128 -132
 11587 1846 94       		.byte	0x94
 11588 1847 02       		.byte	0x2
 11589 1848 0A       		.byte	0xa
 11590 1849 FFFF     		.2byte	0xffff
 11591 184b 1A       		.byte	0x1a
 11592 184c 4B       		.byte	0x4b
 11593 184d 24       		.byte	0x24
 11594 184e 4B       		.byte	0x4b
 11595 184f 25       		.byte	0x25
 11596 1850 1C       		.byte	0x1c
 11597 1851 23       		.byte	0x23
 11598 1852 07       		.uleb128 0x7
 11599 1853 35       		.byte	0x35
 11600 1854 26       		.byte	0x26
 11601 1855 08       		.byte	0x8
 11602 1856 FF       		.byte	0xff
 11603 1857 1A       		.byte	0x1a
 11604 1858 21       		.byte	0x21
 11605 1859 08       		.byte	0x8
 11606 185a FF       		.byte	0xff
 11607 185b 1A       		.byte	0x1a
 11608 185c 71       		.byte	0x71
 11609 185d 00       		.sleb128 0
 11610 185e 22       		.byte	0x22
 11611 185f 9F       		.byte	0x9f
 11612 1860 00000000 		.4byte	0
 11613 1864 00000000 		.4byte	0
 11614              	.LLST41:
 11615 1868 36030000 		.4byte	.LVL116
 11616 186c 38030000 		.4byte	.LVL117
 11617 1870 0100     		.2byte	0x1
 11618 1872 53       		.byte	0x53
 11619 1873 60030000 		.4byte	.LVL118
 11620 1877 62030000 		.4byte	.LVL119
 11621 187b 0100     		.2byte	0x1
 11622 187d 53       		.byte	0x53
 11623 187e 64030000 		.4byte	.LVL120
 11624 1882 8C030000 		.4byte	.LVL122
 11625 1886 0100     		.2byte	0x1
 11626 1888 53       		.byte	0x53
 11627 1889 00000000 		.4byte	0
 11628 188d 00000000 		.4byte	0
 11629              	.LLST42:
 11630 1891 9A030000 		.4byte	.LVL126
 11631 1895 BA030000 		.4byte	.LVL132
 11632 1899 0100     		.2byte	0x1
 11633 189b 5C       		.byte	0x5c
 11634 189c 00000000 		.4byte	0
 11635 18a0 00000000 		.4byte	0
 11636              	.LLST43:
ARM GAS  C:\Users\haske\AppData\Local\Temp\ccoc8x2c.s 			page 221


 11637 18a4 9A030000 		.4byte	.LVL126
 11638 18a8 BA030000 		.4byte	.LVL132
 11639 18ac 0200     		.2byte	0x2
 11640 18ae 30       		.byte	0x30
 11641 18af 9F       		.byte	0x9f
 11642 18b0 00000000 		.4byte	0
 11643 18b4 00000000 		.4byte	0
 11644              	.LLST44:
 11645 18b8 A0030000 		.4byte	.LVL127
 11646 18bc A2030000 		.4byte	.LVL128
 11647 18c0 0600     		.2byte	0x6
 11648 18c2 73       		.byte	0x73
 11649 18c3 00       		.sleb128 0
 11650 18c4 72       		.byte	0x72
 11651 18c5 00       		.sleb128 0
 11652 18c6 1A       		.byte	0x1a
 11653 18c7 9F       		.byte	0x9f
 11654 18c8 A2030000 		.4byte	.LVL128
 11655 18cc A6030000 		.4byte	.LVL129
 11656 18d0 0100     		.2byte	0x1
 11657 18d2 53       		.byte	0x53
 11658 18d3 A6030000 		.4byte	.LVL129
 11659 18d7 BA030000 		.4byte	.LVL132
 11660 18db 0100     		.2byte	0x1
 11661 18dd 58       		.byte	0x58
 11662 18de 00000000 		.4byte	0
 11663 18e2 00000000 		.4byte	0
 11664              	.LLST45:
 11665 18e6 B2030000 		.4byte	.LVL130
 11666 18ea B6030000 		.4byte	.LVL131
 11667 18ee 0100     		.2byte	0x1
 11668 18f0 53       		.byte	0x53
 11669 18f1 B6030000 		.4byte	.LVL131
 11670 18f5 BA030000 		.4byte	.LVL132
 11671 18f9 0E00     		.2byte	0xe
 11672 18fb 7C       		.byte	0x7c
 11673 18fc 00       		.sleb128 0
 11674 18fd 79       		.byte	0x79
 11675 18fe 00       		.sleb128 0
 11676 18ff 1A       		.byte	0x1a
 11677 1900 78       		.byte	0x78
 11678 1901 00       		.sleb128 0
 11679 1902 1E       		.byte	0x1e
 11680 1903 35       		.byte	0x35
 11681 1904 25       		.byte	0x25
 11682 1905 72       		.byte	0x72
 11683 1906 00       		.sleb128 0
 11684 1907 1A       		.byte	0x1a
 11685 1908 9F       		.byte	0x9f
 11686 1909 00000000 		.4byte	0
 11687 190d 00000000 		.4byte	0
 11688              	.LLST46:
 11689 1911 C4030000 		.4byte	.LVL133
 11690 1915 C6030000 		.4byte	.LVL134
 11691 1919 0100     		.2byte	0x1
 11692 191b 53       		.byte	0x53
 11693 191c C6030000 		.4byte	.LVL134
ARM GAS  C:\Users\haske\AppData\Local\Temp\ccoc8x2c.s 			page 222


 11694 1920 C8030000 		.4byte	.LVL135
 11695 1924 0300     		.2byte	0x3
 11696 1926 73       		.byte	0x73
 11697 1927 7C       		.sleb128 -4
 11698 1928 9F       		.byte	0x9f
 11699 1929 C8030000 		.4byte	.LVL135
 11700 192d D2030000 		.4byte	.LVL138
 11701 1931 0100     		.2byte	0x1
 11702 1933 53       		.byte	0x53
 11703 1934 D2030000 		.4byte	.LVL138
 11704 1938 DC030000 		.4byte	.LVL141
 11705 193c 0C00     		.2byte	0xc
 11706 193e 77       		.byte	0x77
 11707 193f 26       		.sleb128 38
 11708 1940 94       		.byte	0x94
 11709 1941 01       		.byte	0x1
 11710 1942 08       		.byte	0x8
 11711 1943 FF       		.byte	0xff
 11712 1944 1A       		.byte	0x1a
 11713 1945 23       		.byte	0x23
 11714 1946 04       		.uleb128 0x4
 11715 1947 33       		.byte	0x33
 11716 1948 25       		.byte	0x25
 11717 1949 9F       		.byte	0x9f
 11718 194a 00000000 		.4byte	0
 11719 194e 00000000 		.4byte	0
 11720              	.LLST47:
 11721 1952 C8030000 		.4byte	.LVL135
 11722 1956 DC030000 		.4byte	.LVL141
 11723 195a 0200     		.2byte	0x2
 11724 195c 30       		.byte	0x30
 11725 195d 9F       		.byte	0x9f
 11726 195e 00000000 		.4byte	0
 11727 1962 00000000 		.4byte	0
 11728              	.LLST48:
 11729 1966 CC030000 		.4byte	.LVL136
 11730 196a CE030000 		.4byte	.LVL137
 11731 196e 0600     		.2byte	0x6
 11732 1970 76       		.byte	0x76
 11733 1971 00       		.sleb128 0
 11734 1972 72       		.byte	0x72
 11735 1973 00       		.sleb128 0
 11736 1974 1A       		.byte	0x1a
 11737 1975 9F       		.byte	0x9f
 11738 1976 CE030000 		.4byte	.LVL137
 11739 197a D4030000 		.4byte	.LVL139
 11740 197e 0100     		.2byte	0x1
 11741 1980 56       		.byte	0x56
 11742 1981 00000000 		.4byte	0
 11743 1985 00000000 		.4byte	0
 11744              	.LLST49:
 11745 1989 D8030000 		.4byte	.LVL140
 11746 198d DC030000 		.4byte	.LVL141
 11747 1991 0100     		.2byte	0x1
 11748 1993 56       		.byte	0x56
 11749 1994 00000000 		.4byte	0
 11750 1998 00000000 		.4byte	0
ARM GAS  C:\Users\haske\AppData\Local\Temp\ccoc8x2c.s 			page 223


 11751              	.LLST50:
 11752 199c E0030000 		.4byte	.LVL142
 11753 19a0 F0030000 		.4byte	.LVL147
 11754 19a4 0200     		.2byte	0x2
 11755 19a6 30       		.byte	0x30
 11756 19a7 9F       		.byte	0x9f
 11757 19a8 00000000 		.4byte	0
 11758 19ac 00000000 		.4byte	0
 11759              	.LLST51:
 11760 19b0 E4030000 		.4byte	.LVL143
 11761 19b4 E6030000 		.4byte	.LVL144
 11762 19b8 0600     		.2byte	0x6
 11763 19ba 75       		.byte	0x75
 11764 19bb 00       		.sleb128 0
 11765 19bc 72       		.byte	0x72
 11766 19bd 00       		.sleb128 0
 11767 19be 1A       		.byte	0x1a
 11768 19bf 9F       		.byte	0x9f
 11769 19c0 E6030000 		.4byte	.LVL144
 11770 19c4 E8030000 		.4byte	.LVL145
 11771 19c8 0100     		.2byte	0x1
 11772 19ca 55       		.byte	0x55
 11773 19cb 00000000 		.4byte	0
 11774 19cf 00000000 		.4byte	0
 11775              	.LLST52:
 11776 19d3 EC030000 		.4byte	.LVL146
 11777 19d7 F0030000 		.4byte	.LVL147
 11778 19db 0100     		.2byte	0x1
 11779 19dd 55       		.byte	0x55
 11780 19de 00000000 		.4byte	0
 11781 19e2 00000000 		.4byte	0
 11782              	.LLST53:
 11783 19e6 F2030000 		.4byte	.LVL148
 11784 19ea 0E040000 		.4byte	.LVL154
 11785 19ee 0200     		.2byte	0x2
 11786 19f0 30       		.byte	0x30
 11787 19f1 9F       		.byte	0x9f
 11788 19f2 00000000 		.4byte	0
 11789 19f6 00000000 		.4byte	0
 11790              	.LLST54:
 11791 19fa F8030000 		.4byte	.LVL149
 11792 19fe FA030000 		.4byte	.LVL150
 11793 1a02 0600     		.2byte	0x6
 11794 1a04 70       		.byte	0x70
 11795 1a05 00       		.sleb128 0
 11796 1a06 72       		.byte	0x72
 11797 1a07 00       		.sleb128 0
 11798 1a08 1A       		.byte	0x1a
 11799 1a09 9F       		.byte	0x9f
 11800 1a0a FA030000 		.4byte	.LVL150
 11801 1a0e FC030000 		.4byte	.LVL151
 11802 1a12 0100     		.2byte	0x1
 11803 1a14 50       		.byte	0x50
 11804 1a15 FC030000 		.4byte	.LVL151
 11805 1a19 0C040000 		.4byte	.LVL153
 11806 1a1d 0B00     		.2byte	0xb
 11807 1a1f 91       		.byte	0x91
ARM GAS  C:\Users\haske\AppData\Local\Temp\ccoc8x2c.s 			page 224


 11808 1a20 D07E     		.sleb128 -176
 11809 1a22 06       		.byte	0x6
 11810 1a23 75       		.byte	0x75
 11811 1a24 00       		.sleb128 0
 11812 1a25 21       		.byte	0x21
 11813 1a26 72       		.byte	0x72
 11814 1a27 00       		.sleb128 0
 11815 1a28 1A       		.byte	0x1a
 11816 1a29 9F       		.byte	0x9f
 11817 1a2a 0C040000 		.4byte	.LVL153
 11818 1a2e 0E040000 		.4byte	.LVL154
 11819 1a32 0F00     		.2byte	0xf
 11820 1a34 91       		.byte	0x91
 11821 1a35 D07E     		.sleb128 -176
 11822 1a37 06       		.byte	0x6
 11823 1a38 40       		.byte	0x40
 11824 1a39 24       		.byte	0x24
 11825 1a3a 91       		.byte	0x91
 11826 1a3b D07E     		.sleb128 -176
 11827 1a3d 06       		.byte	0x6
 11828 1a3e 21       		.byte	0x21
 11829 1a3f 72       		.byte	0x72
 11830 1a40 00       		.sleb128 0
 11831 1a41 1A       		.byte	0x1a
 11832 1a42 9F       		.byte	0x9f
 11833 1a43 00000000 		.4byte	0
 11834 1a47 00000000 		.4byte	0
 11835              	.LLST55:
 11836 1a4b 0A040000 		.4byte	.LVL152
 11837 1a4f 0E040000 		.4byte	.LVL154
 11838 1a53 0100     		.2byte	0x1
 11839 1a55 50       		.byte	0x50
 11840 1a56 00000000 		.4byte	0
 11841 1a5a 00000000 		.4byte	0
 11842              	.LLST56:
 11843 1a5e 10040000 		.4byte	.LVL155
 11844 1a62 22040000 		.4byte	.LVL160
 11845 1a66 0200     		.2byte	0x2
 11846 1a68 30       		.byte	0x30
 11847 1a69 9F       		.byte	0x9f
 11848 1a6a 00000000 		.4byte	0
 11849 1a6e 00000000 		.4byte	0
 11850              	.LLST57:
 11851 1a72 16040000 		.4byte	.LVL156
 11852 1a76 18040000 		.4byte	.LVL157
 11853 1a7a 0600     		.2byte	0x6
 11854 1a7c 71       		.byte	0x71
 11855 1a7d 00       		.sleb128 0
 11856 1a7e 72       		.byte	0x72
 11857 1a7f 00       		.sleb128 0
 11858 1a80 1A       		.byte	0x1a
 11859 1a81 9F       		.byte	0x9f
 11860 1a82 18040000 		.4byte	.LVL157
 11861 1a86 1A040000 		.4byte	.LVL158
 11862 1a8a 0100     		.2byte	0x1
 11863 1a8c 51       		.byte	0x51
 11864 1a8d 1A040000 		.4byte	.LVL158
ARM GAS  C:\Users\haske\AppData\Local\Temp\ccoc8x2c.s 			page 225


 11865 1a91 1E040000 		.4byte	.LVL159
 11866 1a95 0B00     		.2byte	0xb
 11867 1a97 91       		.byte	0x91
 11868 1a98 CC7E     		.sleb128 -180
 11869 1a9a 06       		.byte	0x6
 11870 1a9b 70       		.byte	0x70
 11871 1a9c 00       		.sleb128 0
 11872 1a9d 21       		.byte	0x21
 11873 1a9e 72       		.byte	0x72
 11874 1a9f 00       		.sleb128 0
 11875 1aa0 1A       		.byte	0x1a
 11876 1aa1 9F       		.byte	0x9f
 11877 1aa2 1E040000 		.4byte	.LVL159
 11878 1aa6 22040000 		.4byte	.LVL160
 11879 1aaa 0E00     		.2byte	0xe
 11880 1aac 91       		.byte	0x91
 11881 1aad CC7E     		.sleb128 -180
 11882 1aaf 06       		.byte	0x6
 11883 1ab0 70       		.byte	0x70
 11884 1ab1 00       		.sleb128 0
 11885 1ab2 21       		.byte	0x21
 11886 1ab3 0C       		.byte	0xc
 11887 1ab4 1FF8E007 		.4byte	0x7e0f81f
 11888 1ab8 1A       		.byte	0x1a
 11889 1ab9 9F       		.byte	0x9f
 11890 1aba 00000000 		.4byte	0
 11891 1abe 00000000 		.4byte	0
 11892              	.LLST58:
 11893 1ac2 1E040000 		.4byte	.LVL159
 11894 1ac6 22040000 		.4byte	.LVL160
 11895 1aca 0100     		.2byte	0x1
 11896 1acc 52       		.byte	0x52
 11897 1acd 00000000 		.4byte	0
 11898 1ad1 00000000 		.4byte	0
 11899              	.LLST59:
 11900 1ad5 26040000 		.4byte	.LVL161
 11901 1ad9 38040000 		.4byte	.LVL166
 11902 1add 0200     		.2byte	0x2
 11903 1adf 30       		.byte	0x30
 11904 1ae0 9F       		.byte	0x9f
 11905 1ae1 00000000 		.4byte	0
 11906 1ae5 00000000 		.4byte	0
 11907              	.LLST60:
 11908 1ae9 2C040000 		.4byte	.LVL162
 11909 1aed 2E040000 		.4byte	.LVL163
 11910 1af1 0600     		.2byte	0x6
 11911 1af3 71       		.byte	0x71
 11912 1af4 00       		.sleb128 0
 11913 1af5 72       		.byte	0x72
 11914 1af6 00       		.sleb128 0
 11915 1af7 1A       		.byte	0x1a
 11916 1af8 9F       		.byte	0x9f
 11917 1af9 2E040000 		.4byte	.LVL163
 11918 1afd 36040000 		.4byte	.LVL165
 11919 1b01 0100     		.2byte	0x1
 11920 1b03 51       		.byte	0x51
 11921 1b04 36040000 		.4byte	.LVL165
ARM GAS  C:\Users\haske\AppData\Local\Temp\ccoc8x2c.s 			page 226


 11922 1b08 38040000 		.4byte	.LVL166
 11923 1b0c 0B00     		.2byte	0xb
 11924 1b0e 74       		.byte	0x74
 11925 1b0f 00       		.sleb128 0
 11926 1b10 40       		.byte	0x40
 11927 1b11 24       		.byte	0x24
 11928 1b12 74       		.byte	0x74
 11929 1b13 00       		.sleb128 0
 11930 1b14 21       		.byte	0x21
 11931 1b15 72       		.byte	0x72
 11932 1b16 00       		.sleb128 0
 11933 1b17 1A       		.byte	0x1a
 11934 1b18 9F       		.byte	0x9f
 11935 1b19 00000000 		.4byte	0
 11936 1b1d 00000000 		.4byte	0
 11937              	.LLST61:
 11938 1b21 34040000 		.4byte	.LVL164
 11939 1b25 38040000 		.4byte	.LVL166
 11940 1b29 0100     		.2byte	0x1
 11941 1b2b 53       		.byte	0x53
 11942 1b2c 00000000 		.4byte	0
 11943 1b30 00000000 		.4byte	0
 11944              	.LLST62:
 11945 1b34 40040000 		.4byte	.LVL167
 11946 1b38 44040000 		.4byte	.LVL168
 11947 1b3c 0100     		.2byte	0x1
 11948 1b3e 50       		.byte	0x50
 11949 1b3f 44040000 		.4byte	.LVL168
 11950 1b43 52040000 		.4byte	.LVL171
 11951 1b47 0100     		.2byte	0x1
 11952 1b49 53       		.byte	0x53
 11953 1b4a 52040000 		.4byte	.LVL171
 11954 1b4e 5C040000 		.4byte	.LVL173
 11955 1b52 0500     		.2byte	0x5
 11956 1b54 70       		.byte	0x70
 11957 1b55 04       		.sleb128 4
 11958 1b56 33       		.byte	0x33
 11959 1b57 25       		.byte	0x25
 11960 1b58 9F       		.byte	0x9f
 11961 1b59 00000000 		.4byte	0
 11962 1b5d 00000000 		.4byte	0
 11963              	.LLST63:
 11964 1b61 44040000 		.4byte	.LVL168
 11965 1b65 5C040000 		.4byte	.LVL173
 11966 1b69 0200     		.2byte	0x2
 11967 1b6b 30       		.byte	0x30
 11968 1b6c 9F       		.byte	0x9f
 11969 1b6d 00000000 		.4byte	0
 11970 1b71 00000000 		.4byte	0
 11971              	.LLST64:
 11972 1b75 4C040000 		.4byte	.LVL169
 11973 1b79 4E040000 		.4byte	.LVL170
 11974 1b7d 0600     		.2byte	0x6
 11975 1b7f 71       		.byte	0x71
 11976 1b80 00       		.sleb128 0
 11977 1b81 72       		.byte	0x72
 11978 1b82 00       		.sleb128 0
ARM GAS  C:\Users\haske\AppData\Local\Temp\ccoc8x2c.s 			page 227


 11979 1b83 1A       		.byte	0x1a
 11980 1b84 9F       		.byte	0x9f
 11981 1b85 4E040000 		.4byte	.LVL170
 11982 1b89 5C040000 		.4byte	.LVL173
 11983 1b8d 0100     		.2byte	0x1
 11984 1b8f 51       		.byte	0x51
 11985 1b90 00000000 		.4byte	0
 11986 1b94 00000000 		.4byte	0
 11987              	.LLST65:
 11988 1b98 58040000 		.4byte	.LVL172
 11989 1b9c 5C040000 		.4byte	.LVL173
 11990 1ba0 0100     		.2byte	0x1
 11991 1ba2 52       		.byte	0x52
 11992 1ba3 00000000 		.4byte	0
 11993 1ba7 00000000 		.4byte	0
 11994              	.LLST66:
 11995 1bab 00000000 		.4byte	.LVL184
 11996 1baf 06000000 		.4byte	.LVL185
 11997 1bb3 0100     		.2byte	0x1
 11998 1bb5 50       		.byte	0x50
 11999 1bb6 06000000 		.4byte	.LVL185
 12000 1bba 09000000 		.4byte	.LVL186-1
 12001 1bbe 0100     		.2byte	0x1
 12002 1bc0 51       		.byte	0x51
 12003 1bc1 09000000 		.4byte	.LVL186-1
 12004 1bc5 18000000 		.4byte	.LFE202
 12005 1bc9 0400     		.2byte	0x4
 12006 1bcb F3       		.byte	0xf3
 12007 1bcc 01       		.uleb128 0x1
 12008 1bcd 50       		.byte	0x50
 12009 1bce 9F       		.byte	0x9f
 12010 1bcf 00000000 		.4byte	0
 12011 1bd3 00000000 		.4byte	0
 12012              	.LLST67:
 12013 1bd7 0C000000 		.4byte	.LVL187
 12014 1bdb 0F000000 		.4byte	.LVL188-1
 12015 1bdf 0100     		.2byte	0x1
 12016 1be1 50       		.byte	0x50
 12017 1be2 0F000000 		.4byte	.LVL188-1
 12018 1be6 12000000 		.4byte	.LVL189
 12019 1bea 0100     		.2byte	0x1
 12020 1bec 54       		.byte	0x54
 12021 1bed 12000000 		.4byte	.LVL189
 12022 1bf1 18000000 		.4byte	.LFE202
 12023 1bf5 0100     		.2byte	0x1
 12024 1bf7 50       		.byte	0x50
 12025 1bf8 00000000 		.4byte	0
 12026 1bfc 00000000 		.4byte	0
 12027              	.LLST68:
 12028 1c00 00000000 		.4byte	.LVL190
 12029 1c04 07000000 		.4byte	.LVL192-1
 12030 1c08 0100     		.2byte	0x1
 12031 1c0a 50       		.byte	0x50
 12032 1c0b 07000000 		.4byte	.LVL192-1
 12033 1c0f 0A000000 		.4byte	.LFE203
 12034 1c13 0400     		.2byte	0x4
 12035 1c15 F3       		.byte	0xf3
ARM GAS  C:\Users\haske\AppData\Local\Temp\ccoc8x2c.s 			page 228


 12036 1c16 01       		.uleb128 0x1
 12037 1c17 50       		.byte	0x50
 12038 1c18 9F       		.byte	0x9f
 12039 1c19 00000000 		.4byte	0
 12040 1c1d 00000000 		.4byte	0
 12041              	.LLST69:
 12042 1c21 00000000 		.4byte	.LVL190
 12043 1c25 07000000 		.4byte	.LVL192-1
 12044 1c29 0100     		.2byte	0x1
 12045 1c2b 51       		.byte	0x51
 12046 1c2c 00000000 		.4byte	0
 12047 1c30 00000000 		.4byte	0
 12048              	.LLST70:
 12049 1c34 02000000 		.4byte	.LVL191
 12050 1c38 07000000 		.4byte	.LVL192-1
 12051 1c3c 0100     		.2byte	0x1
 12052 1c3e 50       		.byte	0x50
 12053 1c3f 07000000 		.4byte	.LVL192-1
 12054 1c43 0A000000 		.4byte	.LFE203
 12055 1c47 0400     		.2byte	0x4
 12056 1c49 F3       		.byte	0xf3
 12057 1c4a 01       		.uleb128 0x1
 12058 1c4b 50       		.byte	0x50
 12059 1c4c 9F       		.byte	0x9f
 12060 1c4d 00000000 		.4byte	0
 12061 1c51 00000000 		.4byte	0
 12062              	.LLST71:
 12063 1c55 00000000 		.4byte	.LVL193
 12064 1c59 1D000000 		.4byte	.LVL196-1
 12065 1c5d 0100     		.2byte	0x1
 12066 1c5f 50       		.byte	0x50
 12067 1c60 1D000000 		.4byte	.LVL196-1
 12068 1c64 20000000 		.4byte	.LFE204
 12069 1c68 0400     		.2byte	0x4
 12070 1c6a F3       		.byte	0xf3
 12071 1c6b 01       		.uleb128 0x1
 12072 1c6c 50       		.byte	0x50
 12073 1c6d 9F       		.byte	0x9f
 12074 1c6e 00000000 		.4byte	0
 12075 1c72 00000000 		.4byte	0
 12076              	.LLST72:
 12077 1c76 00000000 		.4byte	.LVL193
 12078 1c7a 16000000 		.4byte	.LVL195
 12079 1c7e 0100     		.2byte	0x1
 12080 1c80 51       		.byte	0x51
 12081 1c81 16000000 		.4byte	.LVL195
 12082 1c85 20000000 		.4byte	.LFE204
 12083 1c89 0400     		.2byte	0x4
 12084 1c8b F3       		.byte	0xf3
 12085 1c8c 01       		.uleb128 0x1
 12086 1c8d 51       		.byte	0x51
 12087 1c8e 9F       		.byte	0x9f
 12088 1c8f 00000000 		.4byte	0
 12089 1c93 00000000 		.4byte	0
 12090              	.LLST73:
 12091 1c97 02000000 		.4byte	.LVL194
 12092 1c9b 1D000000 		.4byte	.LVL196-1
ARM GAS  C:\Users\haske\AppData\Local\Temp\ccoc8x2c.s 			page 229


 12093 1c9f 0100     		.2byte	0x1
 12094 1ca1 50       		.byte	0x50
 12095 1ca2 1D000000 		.4byte	.LVL196-1
 12096 1ca6 20000000 		.4byte	.LFE204
 12097 1caa 0400     		.2byte	0x4
 12098 1cac F3       		.byte	0xf3
 12099 1cad 01       		.uleb128 0x1
 12100 1cae 50       		.byte	0x50
 12101 1caf 9F       		.byte	0x9f
 12102 1cb0 00000000 		.4byte	0
 12103 1cb4 00000000 		.4byte	0
 12104              	.LLST74:
 12105 1cb8 00000000 		.4byte	.LVL197
 12106 1cbc 07000000 		.4byte	.LVL198-1
 12107 1cc0 0100     		.2byte	0x1
 12108 1cc2 50       		.byte	0x50
 12109 1cc3 07000000 		.4byte	.LVL198-1
 12110 1cc7 0A000000 		.4byte	.LFE205
 12111 1ccb 0400     		.2byte	0x4
 12112 1ccd F3       		.byte	0xf3
 12113 1cce 01       		.uleb128 0x1
 12114 1ccf 50       		.byte	0x50
 12115 1cd0 9F       		.byte	0x9f
 12116 1cd1 00000000 		.4byte	0
 12117 1cd5 00000000 		.4byte	0
 12118              	.LLST75:
 12119 1cd9 00000000 		.4byte	.LVL199
 12120 1cdd 07000000 		.4byte	.LVL200-1
 12121 1ce1 0100     		.2byte	0x1
 12122 1ce3 50       		.byte	0x50
 12123 1ce4 07000000 		.4byte	.LVL200-1
 12124 1ce8 0A000000 		.4byte	.LFE206
 12125 1cec 0400     		.2byte	0x4
 12126 1cee F3       		.byte	0xf3
 12127 1cef 01       		.uleb128 0x1
 12128 1cf0 50       		.byte	0x50
 12129 1cf1 9F       		.byte	0x9f
 12130 1cf2 00000000 		.4byte	0
 12131 1cf6 00000000 		.4byte	0
 12132              	.LLST76:
 12133 1cfa 00000000 		.4byte	.LVL201
 12134 1cfe 04000000 		.4byte	.LVL202
 12135 1d02 0100     		.2byte	0x1
 12136 1d04 50       		.byte	0x50
 12137 1d05 04000000 		.4byte	.LVL202
 12138 1d09 06000000 		.4byte	.LFE208
 12139 1d0d 0400     		.2byte	0x4
 12140 1d0f F3       		.byte	0xf3
 12141 1d10 01       		.uleb128 0x1
 12142 1d11 50       		.byte	0x50
 12143 1d12 9F       		.byte	0x9f
 12144 1d13 00000000 		.4byte	0
 12145 1d17 00000000 		.4byte	0
 12146              	.LLST77:
 12147 1d1b 00000000 		.4byte	.LVL201
 12148 1d1f 04000000 		.4byte	.LVL202
 12149 1d23 0100     		.2byte	0x1
ARM GAS  C:\Users\haske\AppData\Local\Temp\ccoc8x2c.s 			page 230


 12150 1d25 50       		.byte	0x50
 12151 1d26 04000000 		.4byte	.LVL202
 12152 1d2a 06000000 		.4byte	.LFE208
 12153 1d2e 0400     		.2byte	0x4
 12154 1d30 F3       		.byte	0xf3
 12155 1d31 01       		.uleb128 0x1
 12156 1d32 50       		.byte	0x50
 12157 1d33 9F       		.byte	0x9f
 12158 1d34 00000000 		.4byte	0
 12159 1d38 00000000 		.4byte	0
 12160              	.LLST78:
 12161 1d3c 00000000 		.4byte	.LVL203
 12162 1d40 07000000 		.4byte	.LVL204-1
 12163 1d44 0100     		.2byte	0x1
 12164 1d46 50       		.byte	0x50
 12165 1d47 07000000 		.4byte	.LVL204-1
 12166 1d4b 1A000000 		.4byte	.LVL210
 12167 1d4f 0100     		.2byte	0x1
 12168 1d51 54       		.byte	0x54
 12169 1d52 1A000000 		.4byte	.LVL210
 12170 1d56 1C000000 		.4byte	.LFE207
 12171 1d5a 0400     		.2byte	0x4
 12172 1d5c F3       		.byte	0xf3
 12173 1d5d 01       		.uleb128 0x1
 12174 1d5e 50       		.byte	0x50
 12175 1d5f 9F       		.byte	0x9f
 12176 1d60 00000000 		.4byte	0
 12177 1d64 00000000 		.4byte	0
 12178              	.LLST79:
 12179 1d68 08000000 		.4byte	.LVL204
 12180 1d6c 0E000000 		.4byte	.LVL205
 12181 1d70 0100     		.2byte	0x1
 12182 1d72 50       		.byte	0x50
 12183 1d73 14000000 		.4byte	.LVL207
 12184 1d77 16000000 		.4byte	.LVL208
 12185 1d7b 0100     		.2byte	0x1
 12186 1d7d 50       		.byte	0x50
 12187 1d7e 00000000 		.4byte	0
 12188 1d82 00000000 		.4byte	0
 12189              		.section	.debug_aranges,"",%progbits
 12190 0000 5C000000 		.4byte	0x5c
 12191 0004 0200     		.2byte	0x2
 12192 0006 00000000 		.4byte	.Ldebug_info0
 12193 000a 04       		.byte	0x4
 12194 000b 00       		.byte	0
 12195 000c 0000     		.2byte	0
 12196 000e 0000     		.2byte	0
 12197 0010 00000000 		.4byte	.LFB209
 12198 0014 14000000 		.4byte	.LFE209-.LFB209
 12199 0018 00000000 		.4byte	.LFB210
 12200 001c E4040000 		.4byte	.LFE210-.LFB210
 12201 0020 00000000 		.4byte	.LFB202
 12202 0024 18000000 		.4byte	.LFE202-.LFB202
 12203 0028 00000000 		.4byte	.LFB203
 12204 002c 0A000000 		.4byte	.LFE203-.LFB203
 12205 0030 00000000 		.4byte	.LFB204
 12206 0034 20000000 		.4byte	.LFE204-.LFB204
ARM GAS  C:\Users\haske\AppData\Local\Temp\ccoc8x2c.s 			page 231


 12207 0038 00000000 		.4byte	.LFB205
 12208 003c 0A000000 		.4byte	.LFE205-.LFB205
 12209 0040 00000000 		.4byte	.LFB206
 12210 0044 0A000000 		.4byte	.LFE206-.LFB206
 12211 0048 00000000 		.4byte	.LFB208
 12212 004c 06000000 		.4byte	.LFE208-.LFB208
 12213 0050 00000000 		.4byte	.LFB207
 12214 0054 1C000000 		.4byte	.LFE207-.LFB207
 12215 0058 00000000 		.4byte	0
 12216 005c 00000000 		.4byte	0
 12217              		.section	.debug_ranges,"",%progbits
 12218              	.Ldebug_ranges0:
 12219 0000 00000000 		.4byte	.LFB209
 12220 0004 14000000 		.4byte	.LFE209
 12221 0008 00000000 		.4byte	.LFB210
 12222 000c E4040000 		.4byte	.LFE210
 12223 0010 00000000 		.4byte	.LFB202
 12224 0014 18000000 		.4byte	.LFE202
 12225 0018 00000000 		.4byte	.LFB203
 12226 001c 0A000000 		.4byte	.LFE203
 12227 0020 00000000 		.4byte	.LFB204
 12228 0024 20000000 		.4byte	.LFE204
 12229 0028 00000000 		.4byte	.LFB205
 12230 002c 0A000000 		.4byte	.LFE205
 12231 0030 00000000 		.4byte	.LFB206
 12232 0034 0A000000 		.4byte	.LFE206
 12233 0038 00000000 		.4byte	.LFB208
 12234 003c 06000000 		.4byte	.LFE208
 12235 0040 00000000 		.4byte	.LFB207
 12236 0044 1C000000 		.4byte	.LFE207
 12237 0048 00000000 		.4byte	0
 12238 004c 00000000 		.4byte	0
 12239              		.section	.debug_line,"",%progbits
 12240              	.Ldebug_line0:
 12241 0000 9D090000 		.section	.debug_str,"MS",%progbits,1
 12241      02001E06 
 12241      00000201 
 12241      FB0E0D00 
 12241      01010101 
 12242              	.LASF193:
 12243 0000 62675F6F 		.ascii	"bg_opa\000"
 12243      706100
 12244              	.LASF377:
 12245 0007 4C565F45 		.ascii	"LV_EVENT_VALUE_CHANGED\000"
 12245      56454E54 
 12245      5F56414C 
 12245      55455F43 
 12245      48414E47 
 12246              	.LASF189:
 12247 001e 685F6C61 		.ascii	"h_layout\000"
 12247      796F7574 
 12247      00
 12248              	.LASF443:
 12249 0027 6C765F6C 		.ascii	"lv_led_toggle\000"
 12249      65645F74 
 12249      6F67676C 
 12249      6500
ARM GAS  C:\Users\haske\AppData\Local\Temp\ccoc8x2c.s 			page 232


 12250              	.LASF252:
 12251 0035 4C565F44 		.ascii	"LV_DRAW_LAYER_FLAG_CAN_SUBDIVIDE\000"
 12251      5241575F 
 12251      4C415945 
 12251      525F464C 
 12251      41475F43 
 12252              	.LASF85:
 12253 0056 4C565F53 		.ascii	"LV_STYLE_LAYOUT\000"
 12253      54594C45 
 12253      5F4C4159 
 12253      4F555400 
 12254              	.LASF23:
 12255 0066 6C765F72 		.ascii	"lv_res_t\000"
 12255      65735F74 
 12255      00
 12256              	.LASF218:
 12257 006f 666F6E74 		.ascii	"font\000"
 12257      00
 12258              	.LASF223:
 12259 0074 6C696E65 		.ascii	"line_space\000"
 12259      5F737061 
 12259      636500
 12260              	.LASF60:
 12261 007f 6C765F74 		.ascii	"lv_text_align_t\000"
 12261      6578745F 
 12261      616C6967 
 12261      6E5F7400 
 12262              	.LASF31:
 12263 008f 6C765F64 		.ascii	"lv_dir_t\000"
 12263      69725F74 
 12263      00
 12264              	.LASF172:
 12265 0098 6861735F 		.ascii	"has_group\000"
 12265      67726F75 
 12265      7000
 12266              	.LASF1:
 12267 00a2 5F5F7569 		.ascii	"__uint8_t\000"
 12267      6E74385F 
 12267      7400
 12268              	.LASF288:
 12269 00ac 5F6C765F 		.ascii	"_lv_group_t\000"
 12269      67726F75 
 12269      705F7400 
 12270              	.LASF49:
 12271 00b8 5F426F6F 		.ascii	"_Bool\000"
 12271      6C00
 12272              	.LASF462:
 12273 00be 6C765F74 		.ascii	"lv_theme_get_color_primary\000"
 12273      68656D65 
 12273      5F676574 
 12273      5F636F6C 
 12273      6F725F70 
 12274              	.LASF318:
 12275 00d9 64726177 		.ascii	"draw_area\000"
 12275      5F617265 
 12275      6100
 12276              	.LASF417:
ARM GAS  C:\Users\haske\AppData\Local\Temp\ccoc8x2c.s 			page 233


 12277 00e3 4C565F42 		.ascii	"LV_BAR_MODE_SYMMETRICAL\000"
 12277      41525F4D 
 12277      4F44455F 
 12277      53594D4D 
 12277      45545249 
 12278              	.LASF306:
 12279 00fb 4C565F50 		.ascii	"LV_PART_CUSTOM_FIRST\000"
 12279      4152545F 
 12279      43555354 
 12279      4F4D5F46 
 12279      49525354 
 12280              	.LASF239:
 12281 0110 64617368 		.ascii	"dash_width\000"
 12281      5F776964 
 12281      746800
 12282              	.LASF45:
 12283 011b 756E6465 		.ascii	"underline_thickness\000"
 12283      726C696E 
 12283      655F7468 
 12283      69636B6E 
 12283      65737300 
 12284              	.LASF364:
 12285 012f 4C565F45 		.ascii	"LV_EVENT_DEFOCUSED\000"
 12285      56454E54 
 12285      5F444546 
 12285      4F435553 
 12285      454400
 12286              	.LASF99:
 12287 0142 4C565F53 		.ascii	"LV_STYLE_BG_MAIN_STOP\000"
 12287      54594C45 
 12287      5F42475F 
 12287      4D41494E 
 12287      5F53544F 
 12288              	.LASF278:
 12289 0158 6C617965 		.ascii	"layer_adjust\000"
 12289      725F6164 
 12289      6A757374 
 12289      00
 12290              	.LASF230:
 12291 0165 616E676C 		.ascii	"angle\000"
 12291      6500
 12292              	.LASF92:
 12293 016b 4C565F53 		.ascii	"LV_STYLE_PAD_COLUMN\000"
 12293      54594C45 
 12293      5F504144 
 12293      5F434F4C 
 12293      554D4E00 
 12294              	.LASF48:
 12295 017f 6C765F66 		.ascii	"lv_font_glyph_dsc_t\000"
 12295      6F6E745F 
 12295      676C7970 
 12295      685F6473 
 12295      635F7400 
 12296              	.LASF153:
 12297 0193 4C565F53 		.ascii	"LV_STYLE_TRANSFORM_HEIGHT\000"
 12297      54594C45 
 12297      5F545241 
ARM GAS  C:\Users\haske\AppData\Local\Temp\ccoc8x2c.s 			page 234


 12297      4E53464F 
 12297      524D5F48 
 12298              	.LASF467:
 12299 01ad 6C765F65 		.ascii	"lv_event_send\000"
 12299      76656E74 
 12299      5F73656E 
 12299      6400
 12300              	.LASF18:
 12301 01bb 75696E74 		.ascii	"uint16_t\000"
 12301      31365F74 
 12301      00
 12302              	.LASF185:
 12303 01c4 6C61796F 		.ascii	"layout_inv\000"
 12303      75745F69 
 12303      6E7600
 12304              	.LASF440:
 12305 01cf 6C765F6C 		.ascii	"lv_led_off\000"
 12305      65645F6F 
 12305      666600
 12306              	.LASF320:
 12307 01da 6C616265 		.ascii	"label_dsc\000"
 12307      6C5F6473 
 12307      6300
 12308              	.LASF104:
 12309 01e4 4C565F53 		.ascii	"LV_STYLE_BG_IMG_OPA\000"
 12309      54594C45 
 12309      5F42475F 
 12309      494D475F 
 12309      4F504100 
 12310              	.LASF386:
 12311 01f8 4C565F45 		.ascii	"LV_EVENT_SCREEN_UNLOAD_START\000"
 12311      56454E54 
 12311      5F534352 
 12311      45454E5F 
 12311      554E4C4F 
 12312              	.LASF454:
 12313 0215 4C565F53 		.ascii	"LV_STYLE_GRID_ROW_ALIGN\000"
 12313      54594C45 
 12313      5F475249 
 12313      445F524F 
 12313      575F414C 
 12314              	.LASF298:
 12315 022d 4C565F50 		.ascii	"LV_PART_MAIN\000"
 12315      4152545F 
 12315      4D41494E 
 12315      00
 12316              	.LASF319:
 12317 023a 72656374 		.ascii	"rect_dsc\000"
 12317      5F647363 
 12317      00
 12318              	.LASF453:
 12319 0243 4C565F53 		.ascii	"LV_STYLE_GRID_ROW_DSC_ARRAY\000"
 12319      54594C45 
 12319      5F475249 
 12319      445F524F 
 12319      575F4453 
 12320              	.LASF139:
ARM GAS  C:\Users\haske\AppData\Local\Temp\ccoc8x2c.s 			page 235


 12321 025f 4C565F53 		.ascii	"LV_STYLE_TEXT_FONT\000"
 12321      54594C45 
 12321      5F544558 
 12321      545F464F 
 12321      4E5400
 12322              	.LASF308:
 12323 0272 6C765F6F 		.ascii	"lv_obj_flag_t\000"
 12323      626A5F66 
 12323      6C61675F 
 12323      7400
 12324              	.LASF382:
 12325 0280 4C565F45 		.ascii	"LV_EVENT_DELETE\000"
 12325      56454E54 
 12325      5F44454C 
 12325      45544500 
 12326              	.LASF46:
 12327 0290 66616C6C 		.ascii	"fallback\000"
 12327      6261636B 
 12327      00
 12328              	.LASF68:
 12329 0299 66726163 		.ascii	"frac\000"
 12329      00
 12330              	.LASF181:
 12331 029e 7374796C 		.ascii	"styles\000"
 12331      657300
 12332              	.LASF43:
 12333 02a5 73756270 		.ascii	"subpx\000"
 12333      7800
 12334              	.LASF470:
 12335 02ab 6C765F6F 		.ascii	"lv_obj_event_base\000"
 12335      626A5F65 
 12335      76656E74 
 12335      5F626173 
 12335      6500
 12336              	.LASF152:
 12337 02bd 4C565F53 		.ascii	"LV_STYLE_TRANSFORM_WIDTH\000"
 12337      54594C45 
 12337      5F545241 
 12337      4E53464F 
 12337      524D5F57 
 12338              	.LASF126:
 12339 02d6 4C565F53 		.ascii	"LV_STYLE_LINE_WIDTH\000"
 12339      54594C45 
 12339      5F4C494E 
 12339      455F5749 
 12339      44544800 
 12340              	.LASF264:
 12341 02ea 5F6C765F 		.ascii	"_lv_draw_ctx_t\000"
 12341      64726177 
 12341      5F637478 
 12341      5F7400
 12342              	.LASF78:
 12343 02f9 4C565F53 		.ascii	"LV_STYLE_MAX_WIDTH\000"
 12343      54594C45 
 12343      5F4D4158 
 12343      5F574944 
 12343      544800
ARM GAS  C:\Users\haske\AppData\Local\Temp\ccoc8x2c.s 			page 236


 12344              	.LASF414:
 12345 030c 5F6C765F 		.ascii	"_lv_obj_spec_attr_t\000"
 12345      6F626A5F 
 12345      73706563 
 12345      5F617474 
 12345      725F7400 
 12346              	.LASF129:
 12347 0320 4C565F53 		.ascii	"LV_STYLE_LINE_ROUNDED\000"
 12347      54594C45 
 12347      5F4C494E 
 12347      455F524F 
 12347      554E4445 
 12348              	.LASF469:
 12349 0336 6C765F65 		.ascii	"lv_event_get_code\000"
 12349      76656E74 
 12349      5F676574 
 12349      5F636F64 
 12349      6500
 12350              	.LASF365:
 12351 0348 4C565F45 		.ascii	"LV_EVENT_LEAVE\000"
 12351      56454E54 
 12351      5F4C4541 
 12351      564500
 12352              	.LASF373:
 12353 0357 4C565F45 		.ascii	"LV_EVENT_DRAW_POST\000"
 12353      56454E54 
 12353      5F445241 
 12353      575F504F 
 12353      535400
 12354              	.LASF19:
 12355 036a 696E7433 		.ascii	"int32_t\000"
 12355      325F7400 
 12356              	.LASF168:
 12357 0372 76616C75 		.ascii	"value1\000"
 12357      653100
 12358              	.LASF163:
 12359 0379 5F4C565F 		.ascii	"_LV_STYLE_PROP_CONST\000"
 12359      5354594C 
 12359      455F5052 
 12359      4F505F43 
 12359      4F4E5354 
 12360              	.LASF349:
 12361 038e 4C565F45 		.ascii	"LV_EVENT_ALL\000"
 12361      56454E54 
 12361      5F414C4C 
 12361      00
 12362              	.LASF144:
 12363 039b 4C565F53 		.ascii	"LV_STYLE_OPA\000"
 12363      54594C45 
 12363      5F4F5041 
 12363      00
 12364              	.LASF256:
 12365 03a8 73637265 		.ascii	"screen_transp\000"
 12365      656E5F74 
 12365      72616E73 
 12365      7000
 12366              	.LASF32:
ARM GAS  C:\Users\haske\AppData\Local\Temp\ccoc8x2c.s 			page 237


 12367 03b6 7265736F 		.ascii	"resolved_font\000"
 12367      6C766564 
 12367      5F666F6E 
 12367      7400
 12368              	.LASF392:
 12369 03c4 4C565F45 		.ascii	"LV_EVENT_LAYOUT_CHANGED\000"
 12369      56454E54 
 12369      5F4C4159 
 12369      4F55545F 
 12369      4348414E 
 12370              	.LASF251:
 12371 03dc 4C565F44 		.ascii	"LV_DRAW_LAYER_FLAG_HAS_ALPHA\000"
 12371      5241575F 
 12371      4C415945 
 12371      525F464C 
 12371      41475F48 
 12372              	.LASF149:
 12373 03f9 4C565F53 		.ascii	"LV_STYLE_ANIM_SPEED\000"
 12373      54594C45 
 12373      5F414E49 
 12373      4D5F5350 
 12373      45454400 
 12374              	.LASF195:
 12375 040d 62675F67 		.ascii	"bg_grad\000"
 12375      72616400 
 12376              	.LASF165:
 12377 0415 70726F70 		.ascii	"prop\000"
 12377      00
 12378              	.LASF422:
 12379 041a 4C565F49 		.ascii	"LV_IMGBTN_STATE_CHECKED_RELEASED\000"
 12379      4D474254 
 12379      4E5F5354 
 12379      4154455F 
 12379      43484543 
 12380              	.LASF418:
 12381 043b 4C565F42 		.ascii	"LV_BAR_MODE_RANGE\000"
 12381      41525F4D 
 12381      4F44455F 
 12381      52414E47 
 12381      4500
 12382              	.LASF370:
 12383 044d 4C565F45 		.ascii	"LV_EVENT_DRAW_MAIN\000"
 12383      56454E54 
 12383      5F445241 
 12383      575F4D41 
 12383      494E00
 12384              	.LASF77:
 12385 0460 4C565F53 		.ascii	"LV_STYLE_MIN_WIDTH\000"
 12385      54594C45 
 12385      5F4D494E 
 12385      5F574944 
 12385      544800
 12386              	.LASF151:
 12387 0473 4C565F53 		.ascii	"LV_STYLE_BLEND_MODE\000"
 12387      54594C45 
 12387      5F424C45 
 12387      4E445F4D 
ARM GAS  C:\Users\haske\AppData\Local\Temp\ccoc8x2c.s 			page 238


 12387      4F444500 
 12388              	.LASF291:
 12389 0487 666F6375 		.ascii	"focus_cb\000"
 12389      735F6362 
 12389      00
 12390              	.LASF198:
 12391 0490 62675F69 		.ascii	"bg_img_recolor\000"
 12391      6D675F72 
 12391      65636F6C 
 12391      6F7200
 12392              	.LASF248:
 12393 049f 726F756E 		.ascii	"rounded\000"
 12393      64656400 
 12394              	.LASF355:
 12395 04a7 4C565F45 		.ascii	"LV_EVENT_LONG_PRESSED_REPEAT\000"
 12395      56454E54 
 12395      5F4C4F4E 
 12395      475F5052 
 12395      45535345 
 12396              	.LASF363:
 12397 04c4 4C565F45 		.ascii	"LV_EVENT_FOCUSED\000"
 12397      56454E54 
 12397      5F464F43 
 12397      55534544 
 12397      00
 12398              	.LASF82:
 12399 04d5 4C565F53 		.ascii	"LV_STYLE_X\000"
 12399      54594C45 
 12399      5F5800
 12400              	.LASF83:
 12401 04e0 4C565F53 		.ascii	"LV_STYLE_Y\000"
 12401      54594C45 
 12401      5F5900
 12402              	.LASF400:
 12403 04eb 6C765F67 		.ascii	"lv_group_t\000"
 12403      726F7570 
 12403      5F7400
 12404              	.LASF97:
 12405 04f6 4C565F53 		.ascii	"LV_STYLE_BG_GRAD_COLOR\000"
 12405      54594C45 
 12405      5F42475F 
 12405      47524144 
 12405      5F434F4C 
 12406              	.LASF162:
 12407 050d 4C565F53 		.ascii	"LV_STYLE_PROP_ANY\000"
 12407      54594C45 
 12407      5F50524F 
 12407      505F414E 
 12407      5900
 12408              	.LASF245:
 12409 051f 73746172 		.ascii	"start_angle\000"
 12409      745F616E 
 12409      676C6500 
 12410              	.LASF79:
 12411 052b 4C565F53 		.ascii	"LV_STYLE_HEIGHT\000"
 12411      54594C45 
 12411      5F484549 
ARM GAS  C:\Users\haske\AppData\Local\Temp\ccoc8x2c.s 			page 239


 12411      47485400 
 12412              	.LASF388:
 12413 053b 4C565F45 		.ascii	"LV_EVENT_SCREEN_LOADED\000"
 12413      56454E54 
 12413      5F534352 
 12413      45454E5F 
 12413      4C4F4144 
 12414              	.LASF98:
 12415 0552 4C565F53 		.ascii	"LV_STYLE_BG_GRAD_DIR\000"
 12415      54594C45 
 12415      5F42475F 
 12415      47524144 
 12415      5F444952 
 12416              	.LASF346:
 12417 0567 73746F70 		.ascii	"stop_processing\000"
 12417      5F70726F 
 12417      63657373 
 12417      696E6700 
 12418              	.LASF385:
 12419 0577 4C565F45 		.ascii	"LV_EVENT_CHILD_DELETED\000"
 12419      56454E54 
 12419      5F434849 
 12419      4C445F44 
 12419      454C4554 
 12420              	.LASF430:
 12421 058e 6C765F63 		.ascii	"lv_color_make\000"
 12421      6F6C6F72 
 12421      5F6D616B 
 12421      6500
 12422              	.LASF451:
 12423 059c 4C565F53 		.ascii	"LV_STYLE_GRID_COLUMN_DSC_ARRAY\000"
 12423      54594C45 
 12423      5F475249 
 12423      445F434F 
 12423      4C554D4E 
 12424              	.LASF474:
 12425 05bb 6C765F6F 		.ascii	"lv_obj_invalidate\000"
 12425      626A5F69 
 12425      6E76616C 
 12425      69646174 
 12425      6500
 12426              	.LASF65:
 12427 05cd 6C765F67 		.ascii	"lv_grad_dir_t\000"
 12427      7261645F 
 12427      6469725F 
 12427      7400
 12428              	.LASF368:
 12429 05db 4C565F45 		.ascii	"LV_EVENT_REFR_EXT_DRAW_SIZE\000"
 12429      56454E54 
 12429      5F524546 
 12429      525F4558 
 12429      545F4452 
 12430              	.LASF226:
 12431 05f7 616C6967 		.ascii	"align\000"
 12431      6E00
 12432              	.LASF465:
 12433 05fd 6C765F65 		.ascii	"lv_event_get_draw_ctx\000"
ARM GAS  C:\Users\haske\AppData\Local\Temp\ccoc8x2c.s 			page 240


 12433      76656E74 
 12433      5F676574 
 12433      5F647261 
 12433      775F6374 
 12434              	.LASF420:
 12435 0613 4C565F49 		.ascii	"LV_IMGBTN_STATE_PRESSED\000"
 12435      4D474254 
 12435      4E5F5354 
 12435      4154455F 
 12435      50524553 
 12436              	.LASF4:
 12437 062b 5F5F696E 		.ascii	"__int16_t\000"
 12437      7431365F 
 12437      7400
 12438              	.LASF6:
 12439 0635 5F5F7569 		.ascii	"__uint16_t\000"
 12439      6E743136 
 12439      5F7400
 12440              	.LASF304:
 12441 0640 4C565F50 		.ascii	"LV_PART_TICKS\000"
 12441      4152545F 
 12441      5449434B 
 12441      5300
 12442              	.LASF143:
 12443 064e 4C565F53 		.ascii	"LV_STYLE_TEXT_ALIGN\000"
 12443      54594C45 
 12443      5F544558 
 12443      545F414C 
 12443      49474E00 
 12444              	.LASF219:
 12445 0662 73656C5F 		.ascii	"sel_start\000"
 12445      73746172 
 12445      7400
 12446              	.LASF334:
 12447 066c 68656967 		.ascii	"height_def\000"
 12447      68745F64 
 12447      656600
 12448              	.LASF235:
 12449 0677 6672616D 		.ascii	"frame_id\000"
 12449      655F6964 
 12449      00
 12450              	.LASF281:
 12451 0680 6C617965 		.ascii	"layer_instance_size\000"
 12451      725F696E 
 12451      7374616E 
 12451      63655F73 
 12451      697A6500 
 12452              	.LASF402:
 12453 0694 6368696C 		.ascii	"child_cnt\000"
 12453      645F636E 
 12453      7400
 12454              	.LASF328:
 12455 069e 5F6C765F 		.ascii	"_lv_obj_class_t\000"
 12455      6F626A5F 
 12455      636C6173 
 12455      735F7400 
 12456              	.LASF468:
ARM GAS  C:\Users\haske\AppData\Local\Temp\ccoc8x2c.s 			page 241


 12457 06ae 6C765F64 		.ascii	"lv_draw_rect\000"
 12457      7261775F 
 12457      72656374 
 12457      00
 12458              	.LASF360:
 12459 06bb 4C565F45 		.ascii	"LV_EVENT_SCROLL\000"
 12459      56454E54 
 12459      5F534352 
 12459      4F4C4C00 
 12460              	.LASF413:
 12461 06cb 6C617965 		.ascii	"layer_type\000"
 12461      725F7479 
 12461      706500
 12462              	.LASF290:
 12463 06d6 6F626A5F 		.ascii	"obj_focus\000"
 12463      666F6375 
 12463      7300
 12464              	.LASF135:
 12465 06e0 4C565F53 		.ascii	"LV_STYLE_ARC_OPA\000"
 12465      54594C45 
 12465      5F415243 
 12465      5F4F5041 
 12465      00
 12466              	.LASF461:
 12467 06f1 6C765F6C 		.ascii	"lv_led_class\000"
 12467      65645F63 
 12467      6C617373 
 12467      00
 12468              	.LASF124:
 12469 06fe 4C565F53 		.ascii	"LV_STYLE_IMG_RECOLOR\000"
 12469      54594C45 
 12469      5F494D47 
 12469      5F524543 
 12469      4F4C4F52 
 12470              	.LASF3:
 12471 0713 756E7369 		.ascii	"unsigned char\000"
 12471      676E6564 
 12471      20636861 
 12471      7200
 12472              	.LASF64:
 12473 0721 6C765F62 		.ascii	"lv_border_side_t\000"
 12473      6F726465 
 12473      725F7369 
 12473      64655F74 
 12473      00
 12474              	.LASF44:
 12475 0732 756E6465 		.ascii	"underline_position\000"
 12475      726C696E 
 12475      655F706F 
 12475      73697469 
 12475      6F6E00
 12476              	.LASF321:
 12477 0745 6C696E65 		.ascii	"line_dsc\000"
 12477      5F647363 
 12477      00
 12478              	.LASF105:
 12479 074e 4C565F53 		.ascii	"LV_STYLE_BG_IMG_RECOLOR\000"
ARM GAS  C:\Users\haske\AppData\Local\Temp\ccoc8x2c.s 			page 242


 12479      54594C45 
 12479      5F42475F 
 12479      494D475F 
 12479      5245434F 
 12480              	.LASF63:
 12481 0766 6C765F74 		.ascii	"lv_text_decor_t\000"
 12481      6578745F 
 12481      6465636F 
 12481      725F7400 
 12482              	.LASF160:
 12483 0776 5F4C565F 		.ascii	"_LV_STYLE_LAST_BUILT_IN_PROP\000"
 12483      5354594C 
 12483      455F4C41 
 12483      53545F42 
 12483      55494C54 
 12484              	.LASF29:
 12485 0793 6C765F70 		.ascii	"lv_point_t\000"
 12485      6F696E74 
 12485      5F7400
 12486              	.LASF448:
 12487 079e 4C565F53 		.ascii	"LV_STYLE_FLEX_CROSS_PLACE\000"
 12487      54594C45 
 12487      5F464C45 
 12487      585F4352 
 12487      4F53535F 
 12488              	.LASF446:
 12489 07b8 4C565F53 		.ascii	"LV_STYLE_FLEX_FLOW\000"
 12489      54594C45 
 12489      5F464C45 
 12489      585F464C 
 12489      4F5700
 12490              	.LASF283:
 12491 07cb 6C765F6C 		.ascii	"lv_ll_node_t\000"
 12491      6C5F6E6F 
 12491      64655F74 
 12491      00
 12492              	.LASF340:
 12493 07d8 74617267 		.ascii	"target\000"
 12493      657400
 12494              	.LASF217:
 12495 07df 6C765F64 		.ascii	"lv_draw_rect_dsc_t\000"
 12495      7261775F 
 12495      72656374 
 12495      5F647363 
 12495      5F7400
 12496              	.LASF314:
 12497 07f2 69735F74 		.ascii	"is_trans\000"
 12497      72616E73 
 12497      00
 12498              	.LASF57:
 12499 07fb 6C765F63 		.ascii	"lv_color_t\000"
 12499      6F6C6F72 
 12499      5F7400
 12500              	.LASF35:
 12501 0806 626F785F 		.ascii	"box_h\000"
 12501      6800
 12502              	.LASF357:
ARM GAS  C:\Users\haske\AppData\Local\Temp\ccoc8x2c.s 			page 243


 12503 080c 4C565F45 		.ascii	"LV_EVENT_RELEASED\000"
 12503      56454E54 
 12503      5F52454C 
 12503      45415345 
 12503      4400
 12504              	.LASF34:
 12505 081e 626F785F 		.ascii	"box_w\000"
 12505      7700
 12506              	.LASF59:
 12507 0824 6C765F74 		.ascii	"lv_text_flag_t\000"
 12507      6578745F 
 12507      666C6167 
 12507      5F7400
 12508              	.LASF54:
 12509 0833 6C765F63 		.ascii	"lv_color16_t\000"
 12509      6F6C6F72 
 12509      31365F74 
 12509      00
 12510              	.LASF303:
 12511 0840 4C565F50 		.ascii	"LV_PART_ITEMS\000"
 12511      4152545F 
 12511      4954454D 
 12511      5300
 12512              	.LASF312:
 12513 084e 73656C65 		.ascii	"selector\000"
 12513      63746F72 
 12513      00
 12514              	.LASF313:
 12515 0857 69735F6C 		.ascii	"is_local\000"
 12515      6F63616C 
 12515      00
 12516              	.LASF134:
 12517 0860 4C565F53 		.ascii	"LV_STYLE_ARC_COLOR\000"
 12517      54594C45 
 12517      5F415243 
 12517      5F434F4C 
 12517      4F5200
 12518              	.LASF419:
 12519 0873 4C565F49 		.ascii	"LV_IMGBTN_STATE_RELEASED\000"
 12519      4D474254 
 12519      4E5F5354 
 12519      4154455F 
 12519      52454C45 
 12520              	.LASF395:
 12521 088c 4C565F45 		.ascii	"LV_EVENT_PREPROCESS\000"
 12521      56454E54 
 12521      5F505245 
 12521      50524F43 
 12521      45535300 
 12522              	.LASF196:
 12523 08a0 62675F69 		.ascii	"bg_img_src\000"
 12523      6D675F73 
 12523      726300
 12524              	.LASF280:
 12525 08ab 6C617965 		.ascii	"layer_destroy\000"
 12525      725F6465 
 12525      7374726F 
ARM GAS  C:\Users\haske\AppData\Local\Temp\ccoc8x2c.s 			page 244


 12525      7900
 12526              	.LASF138:
 12527 08b9 4C565F53 		.ascii	"LV_STYLE_TEXT_OPA\000"
 12527      54594C45 
 12527      5F544558 
 12527      545F4F50 
 12527      4100
 12528              	.LASF182:
 12529 08cb 636F6F72 		.ascii	"coords\000"
 12529      647300
 12530              	.LASF121:
 12531 08d2 4C565F53 		.ascii	"LV_STYLE_SHADOW_COLOR\000"
 12531      54594C45 
 12531      5F534841 
 12531      444F575F 
 12531      434F4C4F 
 12532              	.LASF28:
 12533 08e8 6C765F63 		.ascii	"lv_coord_t\000"
 12533      6F6F7264 
 12533      5F7400
 12534              	.LASF208:
 12535 08f3 6F75746C 		.ascii	"outline_width\000"
 12535      696E655F 
 12535      77696474 
 12535      6800
 12536              	.LASF279:
 12537 0901 6C617965 		.ascii	"layer_blend\000"
 12537      725F626C 
 12537      656E6400 
 12538              	.LASF332:
 12539 090d 6576656E 		.ascii	"event_cb\000"
 12539      745F6362 
 12539      00
 12540              	.LASF228:
 12541 0916 6465636F 		.ascii	"decor\000"
 12541      7200
 12542              	.LASF186:
 12543 091c 7363725F 		.ascii	"scr_layout_inv\000"
 12543      6C61796F 
 12543      75745F69 
 12543      6E7600
 12544              	.LASF399:
 12545 092b 6C765F67 		.ascii	"lv_group_edge_cb_t\000"
 12545      726F7570 
 12545      5F656467 
 12545      655F6362 
 12545      5F7400
 12546              	.LASF450:
 12547 093e 4C565F53 		.ascii	"LV_STYLE_FLEX_GROW\000"
 12547      54594C45 
 12547      5F464C45 
 12547      585F4752 
 12547      4F5700
 12548              	.LASF348:
 12549 0951 6C765F6F 		.ascii	"lv_obj_class_t\000"
 12549      626A5F63 
 12549      6C617373 
ARM GAS  C:\Users\haske\AppData\Local\Temp\ccoc8x2c.s 			page 245


 12549      5F7400
 12550              	.LASF111:
 12551 0960 4C565F53 		.ascii	"LV_STYLE_BORDER_SIDE\000"
 12551      54594C45 
 12551      5F424F52 
 12551      4445525F 
 12551      53494445 
 12552              	.LASF142:
 12553 0975 4C565F53 		.ascii	"LV_STYLE_TEXT_DECOR\000"
 12553      54594C45 
 12553      5F544558 
 12553      545F4445 
 12553      434F5200 
 12554              	.LASF403:
 12555 0989 67726F75 		.ascii	"group_p\000"
 12555      705F7000 
 12556              	.LASF471:
 12557 0991 6C765F65 		.ascii	"lv_event_get_target\000"
 12557      76656E74 
 12557      5F676574 
 12557      5F746172 
 12557      67657400 
 12558              	.LASF215:
 12559 09a5 73686164 		.ascii	"shadow_spread\000"
 12559      6F775F73 
 12559      70726561 
 12559      6400
 12560              	.LASF423:
 12561 09b3 4C565F49 		.ascii	"LV_IMGBTN_STATE_CHECKED_PRESSED\000"
 12561      4D474254 
 12561      4E5F5354 
 12561      4154455F 
 12561      43484543 
 12562              	.LASF300:
 12563 09d3 4C565F50 		.ascii	"LV_PART_INDICATOR\000"
 12563      4152545F 
 12563      494E4449 
 12563      4341544F 
 12563      5200
 12564              	.LASF24:
 12565 09e5 73697A65 		.ascii	"size_t\000"
 12565      5F7400
 12566              	.LASF16:
 12567 09ec 75696E74 		.ascii	"uint8_t\000"
 12567      385F7400 
 12568              	.LASF302:
 12569 09f4 4C565F50 		.ascii	"LV_PART_SELECTED\000"
 12569      4152545F 
 12569      53454C45 
 12569      43544544 
 12569      00
 12570              	.LASF127:
 12571 0a05 4C565F53 		.ascii	"LV_STYLE_LINE_DASH_WIDTH\000"
 12571      54594C45 
 12571      5F4C494E 
 12571      455F4441 
 12571      53485F57 
ARM GAS  C:\Users\haske\AppData\Local\Temp\ccoc8x2c.s 			page 246


 12572              	.LASF102:
 12573 0a1e 4C565F53 		.ascii	"LV_STYLE_BG_DITHER_MODE\000"
 12573      54594C45 
 12573      5F42475F 
 12573      44495448 
 12573      45525F4D 
 12574              	.LASF473:
 12575 0a36 6C765F6F 		.ascii	"lv_obj_class_init_obj\000"
 12575      626A5F63 
 12575      6C617373 
 12575      5F696E69 
 12575      745F6F62 
 12576              	.LASF268:
 12577 0a4c 64726177 		.ascii	"draw_img_decoded\000"
 12577      5F696D67 
 12577      5F646563 
 12577      6F646564 
 12577      00
 12578              	.LASF343:
 12579 0a5d 70617261 		.ascii	"param\000"
 12579      6D00
 12580              	.LASF426:
 12581 0a63 62726967 		.ascii	"bright\000"
 12581      687400
 12582              	.LASF381:
 12583 0a6a 4C565F45 		.ascii	"LV_EVENT_CANCEL\000"
 12583      56454E54 
 12583      5F43414E 
 12583      43454C00 
 12584              	.LASF257:
 12585 0a7a 5F6C765F 		.ascii	"_lv_draw_layer_ctx_t\000"
 12585      64726177 
 12585      5F6C6179 
 12585      65725F63 
 12585      74785F74 
 12586              	.LASF173:
 12587 0a8f 70726F70 		.ascii	"prop_cnt\000"
 12587      5F636E74 
 12587      00
 12588              	.LASF204:
 12589 0a98 626F7264 		.ascii	"border_opa\000"
 12589      65725F6F 
 12589      706100
 12590              	.LASF220:
 12591 0aa3 73656C5F 		.ascii	"sel_end\000"
 12591      656E6400 
 12592              	.LASF258:
 12593 0aab 61726561 		.ascii	"area_full\000"
 12593      5F66756C 
 12593      6C00
 12594              	.LASF154:
 12595 0ab5 4C565F53 		.ascii	"LV_STYLE_TRANSLATE_X\000"
 12595      54594C45 
 12595      5F545241 
 12595      4E534C41 
 12595      54455F58 
 12596              	.LASF155:
ARM GAS  C:\Users\haske\AppData\Local\Temp\ccoc8x2c.s 			page 247


 12597 0aca 4C565F53 		.ascii	"LV_STYLE_TRANSLATE_Y\000"
 12597      54594C45 
 12597      5F545241 
 12597      4E534C41 
 12597      54455F59 
 12598              	.LASF324:
 12599 0adf 74657874 		.ascii	"text\000"
 12599      00
 12600              	.LASF342:
 12601 0ae4 636F6465 		.ascii	"code\000"
 12601      00
 12602              	.LASF192:
 12603 0ae9 626C656E 		.ascii	"blend_mode\000"
 12603      645F6D6F 
 12603      646500
 12604              	.LASF140:
 12605 0af4 4C565F53 		.ascii	"LV_STYLE_TEXT_LETTER_SPACE\000"
 12605      54594C45 
 12605      5F544558 
 12605      545F4C45 
 12605      54544552 
 12606              	.LASF261:
 12607 0b0f 6D61785F 		.ascii	"max_row_with_no_alpha\000"
 12607      726F775F 
 12607      77697468 
 12607      5F6E6F5F 
 12607      616C7068 
 12608              	.LASF384:
 12609 0b25 4C565F45 		.ascii	"LV_EVENT_CHILD_CREATED\000"
 12609      56454E54 
 12609      5F434849 
 12609      4C445F43 
 12609      52454154 
 12610              	.LASF161:
 12611 0b3c 5F4C565F 		.ascii	"_LV_STYLE_NUM_BUILT_IN_PROPS\000"
 12611      5354594C 
 12611      455F4E55 
 12611      4D5F4255 
 12611      494C545F 
 12612              	.LASF148:
 12613 0b59 4C565F53 		.ascii	"LV_STYLE_ANIM_TIME\000"
 12613      54594C45 
 12613      5F414E49 
 12613      4D5F5449 
 12613      4D4500
 12614              	.LASF100:
 12615 0b6c 4C565F53 		.ascii	"LV_STYLE_BG_GRAD_STOP\000"
 12615      54594C45 
 12615      5F42475F 
 12615      47524144 
 12615      5F53544F 
 12616              	.LASF265:
 12617 0b82 696E6974 		.ascii	"init_buf\000"
 12617      5F627566 
 12617      00
 12618              	.LASF353:
 12619 0b8b 4C565F45 		.ascii	"LV_EVENT_SHORT_CLICKED\000"
ARM GAS  C:\Users\haske\AppData\Local\Temp\ccoc8x2c.s 			page 248


 12619      56454E54 
 12619      5F53484F 
 12619      52545F43 
 12619      4C49434B 
 12620              	.LASF130:
 12621 0ba2 4C565F53 		.ascii	"LV_STYLE_LINE_COLOR\000"
 12621      54594C45 
 12621      5F4C494E 
 12621      455F434F 
 12621      4C4F5200 
 12622              	.LASF166:
 12623 0bb6 76616C75 		.ascii	"value\000"
 12623      6500
 12624              	.LASF206:
 12625 0bbc 626F7264 		.ascii	"border_side\000"
 12625      65725F73 
 12625      69646500 
 12626              	.LASF293:
 12627 0bc8 66726F7A 		.ascii	"frozen\000"
 12627      656E00
 12628              	.LASF397:
 12629 0bcf 6C765F65 		.ascii	"lv_event_t\000"
 12629      76656E74 
 12629      5F7400
 12630              	.LASF387:
 12631 0bda 4C565F45 		.ascii	"LV_EVENT_SCREEN_LOAD_START\000"
 12631      56454E54 
 12631      5F534352 
 12631      45454E5F 
 12631      4C4F4144 
 12632              	.LASF322:
 12633 0bf5 696D675F 		.ascii	"img_dsc\000"
 12633      64736300 
 12634              	.LASF338:
 12635 0bfd 6C765F6F 		.ascii	"lv_obj_draw_part_dsc_t\000"
 12635      626A5F64 
 12635      7261775F 
 12635      70617274 
 12635      5F647363 
 12636              	.LASF405:
 12637 0c14 7363726F 		.ascii	"scroll\000"
 12637      6C6C00
 12638              	.LASF359:
 12639 0c1b 4C565F45 		.ascii	"LV_EVENT_SCROLL_END\000"
 12639      56454E54 
 12639      5F534352 
 12639      4F4C4C5F 
 12639      454E4400 
 12640              	.LASF71:
 12641 0c2f 73746F70 		.ascii	"stops_count\000"
 12641      735F636F 
 12641      756E7400 
 12642              	.LASF269:
 12643 0c3b 64726177 		.ascii	"draw_img\000"
 12643      5F696D67 
 12643      00
 12644              	.LASF242:
ARM GAS  C:\Users\haske\AppData\Local\Temp\ccoc8x2c.s 			page 249


 12645 0c44 726F756E 		.ascii	"round_end\000"
 12645      645F656E 
 12645      6400
 12646              	.LASF270:
 12647 0c4e 64726177 		.ascii	"draw_letter\000"
 12647      5F6C6574 
 12647      74657200 
 12648              	.LASF310:
 12649 0c5a 6C765F73 		.ascii	"lv_scroll_snap_t\000"
 12649      63726F6C 
 12649      6C5F736E 
 12649      61705F74 
 12649      00
 12650              	.LASF464:
 12651 0c6b 6C765F6F 		.ascii	"lv_obj_init_draw_rect_dsc\000"
 12651      626A5F69 
 12651      6E69745F 
 12651      64726177 
 12651      5F726563 
 12652              	.LASF113:
 12653 0c85 4C565F53 		.ascii	"LV_STYLE_OUTLINE_WIDTH\000"
 12653      54594C45 
 12653      5F4F5554 
 12653      4C494E45 
 12653      5F574944 
 12654              	.LASF262:
 12655 0c9c 6F726967 		.ascii	"original\000"
 12655      696E616C 
 12655      00
 12656              	.LASF445:
 12657 0ca5 6C765F6F 		.ascii	"lv_obj_class\000"
 12657      626A5F63 
 12657      6C617373 
 12657      00
 12658              	.LASF301:
 12659 0cb2 4C565F50 		.ascii	"LV_PART_KNOB\000"
 12659      4152545F 
 12659      4B4E4F42 
 12659      00
 12660              	.LASF472:
 12661 0cbf 6C765F6F 		.ascii	"lv_obj_class_create_obj\000"
 12661      626A5F63 
 12661      6C617373 
 12661      5F637265 
 12661      6174655F 
 12662              	.LASF212:
 12663 0cd7 73686164 		.ascii	"shadow_width\000"
 12663      6F775F77 
 12663      69647468 
 12663      00
 12664              	.LASF452:
 12665 0ce4 4C565F53 		.ascii	"LV_STYLE_GRID_COLUMN_ALIGN\000"
 12665      54594C45 
 12665      5F475249 
 12665      445F434F 
 12665      4C554D4E 
 12666              	.LASF200:
ARM GAS  C:\Users\haske\AppData\Local\Temp\ccoc8x2c.s 			page 250


 12667 0cff 62675F69 		.ascii	"bg_img_recolor_opa\000"
 12667      6D675F72 
 12667      65636F6C 
 12667      6F725F6F 
 12667      706100
 12668              	.LASF203:
 12669 0d12 626F7264 		.ascii	"border_width\000"
 12669      65725F77 
 12669      69647468 
 12669      00
 12670              	.LASF455:
 12671 0d1f 4C565F53 		.ascii	"LV_STYLE_GRID_CELL_COLUMN_POS\000"
 12671      54594C45 
 12671      5F475249 
 12671      445F4345 
 12671      4C4C5F43 
 12672              	.LASF216:
 12673 0d3d 73686164 		.ascii	"shadow_opa\000"
 12673      6F775F6F 
 12673      706100
 12674              	.LASF33:
 12675 0d48 6164765F 		.ascii	"adv_w\000"
 12675      7700
 12676              	.LASF287:
 12677 0d4e 6C765F6C 		.ascii	"lv_ll_t\000"
 12677      6C5F7400 
 12678              	.LASF250:
 12679 0d56 4C565F44 		.ascii	"LV_DRAW_LAYER_FLAG_NONE\000"
 12679      5241575F 
 12679      4C415945 
 12679      525F464C 
 12679      41475F4E 
 12680              	.LASF351:
 12681 0d6e 4C565F45 		.ascii	"LV_EVENT_PRESSING\000"
 12681      56454E54 
 12681      5F505245 
 12681      5353494E 
 12681      4700
 12682              	.LASF411:
 12683 0d80 7363726F 		.ascii	"scroll_dir\000"
 12683      6C6C5F64 
 12683      697200
 12684              	.LASF391:
 12685 0d8b 4C565F45 		.ascii	"LV_EVENT_STYLE_CHANGED\000"
 12685      56454E54 
 12685      5F535459 
 12685      4C455F43 
 12685      48414E47 
 12686              	.LASF263:
 12687 0da2 6C765F64 		.ascii	"lv_draw_layer_ctx_t\000"
 12687      7261775F 
 12687      6C617965 
 12687      725F6374 
 12687      785F7400 
 12688              	.LASF249:
 12689 0db6 6C765F64 		.ascii	"lv_draw_arc_dsc_t\000"
 12689      7261775F 
ARM GAS  C:\Users\haske\AppData\Local\Temp\ccoc8x2c.s 			page 251


 12689      6172635F 
 12689      6473635F 
 12689      7400
 12690              	.LASF107:
 12691 0dc8 4C565F53 		.ascii	"LV_STYLE_BG_IMG_TILED\000"
 12691      54594C45 
 12691      5F42475F 
 12691      494D475F 
 12691      54494C45 
 12692              	.LASF478:
 12693 0dde 5F6C765F 		.ascii	"_lv_event_dsc_t\000"
 12693      6576656E 
 12693      745F6473 
 12693      635F7400 
 12694              	.LASF103:
 12695 0dee 4C565F53 		.ascii	"LV_STYLE_BG_IMG_SRC\000"
 12695      54594C45 
 12695      5F42475F 
 12695      494D475F 
 12695      53524300 
 12696              	.LASF432:
 12697 0e02 72657375 		.ascii	"result\000"
 12697      6C7400
 12698              	.LASF150:
 12699 0e09 4C565F53 		.ascii	"LV_STYLE_TRANSITION\000"
 12699      54594C45 
 12699      5F545241 
 12699      4E534954 
 12699      494F4E00 
 12700              	.LASF93:
 12701 0e1d 4C565F53 		.ascii	"LV_STYLE_BASE_DIR\000"
 12701      54594C45 
 12701      5F424153 
 12701      455F4449 
 12701      5200
 12702              	.LASF90:
 12703 0e2f 4C565F53 		.ascii	"LV_STYLE_PAD_RIGHT\000"
 12703      54594C45 
 12703      5F504144 
 12703      5F524947 
 12703      485400
 12704              	.LASF15:
 12705 0e42 696E7438 		.ascii	"int8_t\000"
 12705      5F7400
 12706              	.LASF171:
 12707 0e49 70726F70 		.ascii	"prop1\000"
 12707      3100
 12708              	.LASF229:
 12709 0e4f 6C765F64 		.ascii	"lv_draw_label_dsc_t\000"
 12709      7261775F 
 12709      6C616265 
 12709      6C5F6473 
 12709      635F7400 
 12710              	.LASF329:
 12711 0e63 62617365 		.ascii	"base_class\000"
 12711      5F636C61 
 12711      737300
ARM GAS  C:\Users\haske\AppData\Local\Temp\ccoc8x2c.s 			page 252


 12712              	.LASF227:
 12713 0e6e 666C6167 		.ascii	"flag\000"
 12713      00
 12714              	.LASF439:
 12715 0e73 6C765F6C 		.ascii	"lv_led_on\000"
 12715      65645F6F 
 12715      6E00
 12716              	.LASF376:
 12717 0e7d 4C565F45 		.ascii	"LV_EVENT_DRAW_PART_END\000"
 12717      56454E54 
 12717      5F445241 
 12717      575F5041 
 12717      52545F45 
 12718              	.LASF167:
 12719 0e94 6C765F73 		.ascii	"lv_style_const_prop_t\000"
 12719      74796C65 
 12719      5F636F6E 
 12719      73745F70 
 12719      726F705F 
 12720              	.LASF337:
 12721 0eaa 696E7374 		.ascii	"instance_size\000"
 12721      616E6365 
 12721      5F73697A 
 12721      6500
 12722              	.LASF201:
 12723 0eb8 62675F69 		.ascii	"bg_img_tiled\000"
 12723      6D675F74 
 12723      696C6564 
 12723      00
 12724              	.LASF317:
 12725 0ec5 74797065 		.ascii	"type\000"
 12725      00
 12726              	.LASF361:
 12727 0eca 4C565F45 		.ascii	"LV_EVENT_GESTURE\000"
 12727      56454E54 
 12727      5F474553 
 12727      54555245 
 12727      00
 12728              	.LASF84:
 12729 0edb 4C565F53 		.ascii	"LV_STYLE_ALIGN\000"
 12729      54594C45 
 12729      5F414C49 
 12729      474E00
 12730              	.LASF209:
 12731 0eea 6F75746C 		.ascii	"outline_pad\000"
 12731      696E655F 
 12731      70616400 
 12732              	.LASF347:
 12733 0ef6 73746F70 		.ascii	"stop_bubbling\000"
 12733      5F627562 
 12733      626C696E 
 12733      6700
 12734              	.LASF91:
 12735 0f04 4C565F53 		.ascii	"LV_STYLE_PAD_ROW\000"
 12735      54594C45 
 12735      5F504144 
 12735      5F524F57 
ARM GAS  C:\Users\haske\AppData\Local\Temp\ccoc8x2c.s 			page 253


 12735      00
 12736              	.LASF26:
 12737 0f15 73697A65 		.ascii	"sizetype\000"
 12737      74797065 
 12737      00
 12738              	.LASF96:
 12739 0f1e 4C565F53 		.ascii	"LV_STYLE_BG_OPA\000"
 12739      54594C45 
 12739      5F42475F 
 12739      4F504100 
 12740              	.LASF36:
 12741 0f2e 6F66735F 		.ascii	"ofs_x\000"
 12741      7800
 12742              	.LASF37:
 12743 0f34 6F66735F 		.ascii	"ofs_y\000"
 12743      7900
 12744              	.LASF17:
 12745 0f3a 696E7431 		.ascii	"int16_t\000"
 12745      365F7400 
 12746              	.LASF367:
 12747 0f42 4C565F45 		.ascii	"LV_EVENT_COVER_CHECK\000"
 12747      56454E54 
 12747      5F434F56 
 12747      45525F43 
 12747      4845434B 
 12748              	.LASF7:
 12749 0f57 73686F72 		.ascii	"short unsigned int\000"
 12749      7420756E 
 12749      7369676E 
 12749      65642069 
 12749      6E7400
 12750              	.LASF177:
 12751 0f6a 5F6C765F 		.ascii	"_lv_obj_t\000"
 12751      6F626A5F 
 12751      7400
 12752              	.LASF2:
 12753 0f74 7369676E 		.ascii	"signed char\000"
 12753      65642063 
 12753      68617200 
 12754              	.LASF406:
 12755 0f80 6578745F 		.ascii	"ext_click_pad\000"
 12755      636C6963 
 12755      6B5F7061 
 12755      6400
 12756              	.LASF101:
 12757 0f8e 4C565F53 		.ascii	"LV_STYLE_BG_GRAD\000"
 12757      54594C45 
 12757      5F42475F 
 12757      47524144 
 12757      00
 12758              	.LASF109:
 12759 0f9f 4C565F53 		.ascii	"LV_STYLE_BORDER_OPA\000"
 12759      54594C45 
 12759      5F424F52 
 12759      4445525F 
 12759      4F504100 
 12760              	.LASF69:
ARM GAS  C:\Users\haske\AppData\Local\Temp\ccoc8x2c.s 			page 254


 12761 0fb3 6C765F67 		.ascii	"lv_gradient_stop_t\000"
 12761      72616469 
 12761      656E745F 
 12761      73746F70 
 12761      5F7400
 12762              	.LASF477:
 12763 0fc6 433A5C50 		.ascii	"C:\\Projects\\PainDrain\\firmware\\PainDrain\\PainD"
 12763      726F6A65 
 12763      6374735C 
 12763      5061696E 
 12763      44726169 
 12764 0ff4 7261696E 		.ascii	"rain.cydsn\000"
 12764      2E637964 
 12764      736E00
 12765              	.LASF231:
 12766 0fff 7A6F6F6D 		.ascii	"zoom\000"
 12766      00
 12767              	.LASF326:
 12768 1004 70617274 		.ascii	"part\000"
 12768      00
 12769              	.LASF398:
 12770 1009 6C765F67 		.ascii	"lv_group_focus_cb_t\000"
 12770      726F7570 
 12770      5F666F63 
 12770      75735F63 
 12770      625F7400 
 12771              	.LASF292:
 12772 101d 65646765 		.ascii	"edge_cb\000"
 12772      5F636200 
 12773              	.LASF110:
 12774 1025 4C565F53 		.ascii	"LV_STYLE_BORDER_WIDTH\000"
 12774      54594C45 
 12774      5F424F52 
 12774      4445525F 
 12774      57494454 
 12775              	.LASF52:
 12776 103b 67726565 		.ascii	"green\000"
 12776      6E00
 12777              	.LASF30:
 12778 1041 6C765F61 		.ascii	"lv_area_t\000"
 12778      7265615F 
 12778      7400
 12779              	.LASF457:
 12780 104b 4C565F53 		.ascii	"LV_STYLE_GRID_CELL_X_ALIGN\000"
 12780      54594C45 
 12780      5F475249 
 12780      445F4345 
 12780      4C4C5F58 
 12781              	.LASF294:
 12782 1066 65646974 		.ascii	"editing\000"
 12782      696E6700 
 12783              	.LASF169:
 12784 106e 76616C75 		.ascii	"values_and_props\000"
 12784      65735F61 
 12784      6E645F70 
 12784      726F7073 
 12784      00
ARM GAS  C:\Users\haske\AppData\Local\Temp\ccoc8x2c.s 			page 255


 12785              	.LASF53:
 12786 107f 66756C6C 		.ascii	"full\000"
 12786      00
 12787              	.LASF73:
 12788 1084 6C765F67 		.ascii	"lv_grad_dsc_t\000"
 12788      7261645F 
 12788      6473635F 
 12788      7400
 12789              	.LASF221:
 12790 1092 73656C5F 		.ascii	"sel_color\000"
 12790      636F6C6F 
 12790      7200
 12791              	.LASF188:
 12792 109c 7374796C 		.ascii	"style_cnt\000"
 12792      655F636E 
 12792      7400
 12793              	.LASF224:
 12794 10a6 6C657474 		.ascii	"letter_space\000"
 12794      65725F73 
 12794      70616365 
 12794      00
 12795              	.LASF383:
 12796 10b3 4C565F45 		.ascii	"LV_EVENT_CHILD_CHANGED\000"
 12796      56454E54 
 12796      5F434849 
 12796      4C445F43 
 12796      48414E47 
 12797              	.LASF424:
 12798 10ca 4C565F49 		.ascii	"LV_IMGBTN_STATE_CHECKED_DISABLED\000"
 12798      4D474254 
 12798      4E5F5354 
 12798      4154455F 
 12798      43484543 
 12799              	.LASF184:
 12800 10eb 73746174 		.ascii	"state\000"
 12800      6500
 12801              	.LASF459:
 12802 10f1 4C565F53 		.ascii	"LV_STYLE_GRID_CELL_ROW_SPAN\000"
 12802      54594C45 
 12802      5F475249 
 12802      445F4345 
 12802      4C4C5F52 
 12803              	.LASF197:
 12804 110d 62675F69 		.ascii	"bg_img_symbol_font\000"
 12804      6D675F73 
 12804      796D626F 
 12804      6C5F666F 
 12804      6E7400
 12805              	.LASF41:
 12806 1120 6C696E65 		.ascii	"line_height\000"
 12806      5F686569 
 12806      67687400 
 12807              	.LASF335:
 12808 112c 65646974 		.ascii	"editable\000"
 12808      61626C65 
 12808      00
 12809              	.LASF234:
ARM GAS  C:\Users\haske\AppData\Local\Temp\ccoc8x2c.s 			page 256


 12810 1135 7265636F 		.ascii	"recolor_opa\000"
 12810      6C6F725F 
 12810      6F706100 
 12811              	.LASF396:
 12812 1141 6C765F65 		.ascii	"lv_event_code_t\000"
 12812      76656E74 
 12812      5F636F64 
 12812      655F7400 
 12813              	.LASF466:
 12814 1151 6C765F6F 		.ascii	"lv_obj_draw_dsc_init\000"
 12814      626A5F64 
 12814      7261775F 
 12814      6473635F 
 12814      696E6974 
 12815              	.LASF276:
 12816 1166 62756666 		.ascii	"buffer_copy\000"
 12816      65725F63 
 12816      6F707900 
 12817              	.LASF444:
 12818 1172 6C765F66 		.ascii	"lv_font_montserrat_14\000"
 12818      6F6E745F 
 12818      6D6F6E74 
 12818      73657272 
 12818      61745F31 
 12819              	.LASF441:
 12820 1188 6C765F6C 		.ascii	"lv_led_create\000"
 12820      65645F63 
 12820      72656174 
 12820      6500
 12821              	.LASF255:
 12822 1196 6275665F 		.ascii	"buf_area\000"
 12822      61726561 
 12822      00
 12823              	.LASF425:
 12824 119f 5F4C565F 		.ascii	"_LV_IMGBTN_STATE_NUM\000"
 12824      494D4742 
 12824      544E5F53 
 12824      54415445 
 12824      5F4E554D 
 12825              	.LASF50:
 12826 11b4 6C765F66 		.ascii	"lv_font_t\000"
 12826      6F6E745F 
 12826      7400
 12827              	.LASF447:
 12828 11be 4C565F53 		.ascii	"LV_STYLE_FLEX_MAIN_PLACE\000"
 12828      54594C45 
 12828      5F464C45 
 12828      585F4D41 
 12828      494E5F50 
 12829              	.LASF299:
 12830 11d7 4C565F50 		.ascii	"LV_PART_SCROLLBAR\000"
 12830      4152545F 
 12830      5343524F 
 12830      4C4C4241 
 12830      5200
 12831              	.LASF9:
 12832 11e9 6C6F6E67 		.ascii	"long int\000"
ARM GAS  C:\Users\haske\AppData\Local\Temp\ccoc8x2c.s 			page 257


 12832      20696E74 
 12832      00
 12833              	.LASF330:
 12834 11f2 636F6E73 		.ascii	"constructor_cb\000"
 12834      74727563 
 12834      746F725F 
 12834      636200
 12835              	.LASF164:
 12836 1201 6C765F73 		.ascii	"lv_style_prop_t\000"
 12836      74796C65 
 12836      5F70726F 
 12836      705F7400 
 12837              	.LASF315:
 12838 1211 5F6C765F 		.ascii	"_lv_obj_style_t\000"
 12838      6F626A5F 
 12838      7374796C 
 12838      655F7400 
 12839              	.LASF378:
 12840 1221 4C565F45 		.ascii	"LV_EVENT_INSERT\000"
 12840      56454E54 
 12840      5F494E53 
 12840      45525400 
 12841              	.LASF271:
 12842 1231 64726177 		.ascii	"draw_line\000"
 12842      5F6C696E 
 12842      6500
 12843              	.LASF213:
 12844 123b 73686164 		.ascii	"shadow_ofs_x\000"
 12844      6F775F6F 
 12844      66735F78 
 12844      00
 12845              	.LASF214:
 12846 1248 73686164 		.ascii	"shadow_ofs_y\000"
 12846      6F775F6F 
 12846      66735F79 
 12846      00
 12847              	.LASF389:
 12848 1255 4C565F45 		.ascii	"LV_EVENT_SCREEN_UNLOADED\000"
 12848      56454E54 
 12848      5F534352 
 12848      45454E5F 
 12848      554E4C4F 
 12849              	.LASF81:
 12850 126e 4C565F53 		.ascii	"LV_STYLE_MAX_HEIGHT\000"
 12850      54594C45 
 12850      5F4D4158 
 12850      5F484549 
 12850      47485400 
 12851              	.LASF243:
 12852 1282 7261775F 		.ascii	"raw_end\000"
 12852      656E6400 
 12853              	.LASF122:
 12854 128a 4C565F53 		.ascii	"LV_STYLE_SHADOW_OPA\000"
 12854      54594C45 
 12854      5F534841 
 12854      444F575F 
 12854      4F504100 
ARM GAS  C:\Users\haske\AppData\Local\Temp\ccoc8x2c.s 			page 258


 12855              	.LASF40:
 12856 129e 6765745F 		.ascii	"get_glyph_bitmap\000"
 12856      676C7970 
 12856      685F6269 
 12856      746D6170 
 12856      00
 12857              	.LASF433:
 12858 12af 6C765F63 		.ascii	"lv_color_brightness\000"
 12858      6F6C6F72 
 12858      5F627269 
 12858      6768746E 
 12858      65737300 
 12859              	.LASF333:
 12860 12c3 77696474 		.ascii	"width_def\000"
 12860      685F6465 
 12860      6600
 12861              	.LASF178:
 12862 12cd 636C6173 		.ascii	"class_p\000"
 12862      735F7000 
 12863              	.LASF38:
 12864 12d5 69735F70 		.ascii	"is_placeholder\000"
 12864      6C616365 
 12864      686F6C64 
 12864      657200
 12865              	.LASF253:
 12866 12e4 6C765F64 		.ascii	"lv_draw_layer_flags_t\000"
 12866      7261775F 
 12866      6C617965 
 12866      725F666C 
 12866      6167735F 
 12867              	.LASF297:
 12868 12fa 6C765F73 		.ascii	"lv_state_t\000"
 12868      74617465 
 12868      5F7400
 12869              	.LASF207:
 12870 1305 6F75746C 		.ascii	"outline_color\000"
 12870      696E655F 
 12870      636F6C6F 
 12870      7200
 12871              	.LASF47:
 12872 1313 75736572 		.ascii	"user_data\000"
 12872      5F646174 
 12872      6100
 12873              	.LASF58:
 12874 131d 6C765F6F 		.ascii	"lv_opa_t\000"
 12874      70615F74 
 12874      00
 12875              	.LASF20:
 12876 1326 75696E74 		.ascii	"uint32_t\000"
 12876      33325F74 
 12876      00
 12877              	.LASF272:
 12878 132f 64726177 		.ascii	"draw_polygon\000"
 12878      5F706F6C 
 12878      79676F6E 
 12878      00
 12879              	.LASF456:
ARM GAS  C:\Users\haske\AppData\Local\Temp\ccoc8x2c.s 			page 259


 12880 133c 4C565F53 		.ascii	"LV_STYLE_GRID_CELL_COLUMN_SPAN\000"
 12880      54594C45 
 12880      5F475249 
 12880      445F4345 
 12880      4C4C5F43 
 12881              	.LASF336:
 12882 135b 67726F75 		.ascii	"group_def\000"
 12882      705F6465 
 12882      6600
 12883              	.LASF409:
 12884 1365 7363726F 		.ascii	"scroll_snap_x\000"
 12884      6C6C5F73 
 12884      6E61705F 
 12884      7800
 12885              	.LASF25:
 12886 1373 6C6F6E67 		.ascii	"long double\000"
 12886      20646F75 
 12886      626C6500 
 12887              	.LASF379:
 12888 137f 4C565F45 		.ascii	"LV_EVENT_REFRESH\000"
 12888      56454E54 
 12888      5F524546 
 12888      52455348 
 12888      00
 12889              	.LASF11:
 12890 1390 6C6F6E67 		.ascii	"long unsigned int\000"
 12890      20756E73 
 12890      69676E65 
 12890      6420696E 
 12890      7400
 12891              	.LASF412:
 12892 13a2 6576656E 		.ascii	"event_dsc_cnt\000"
 12892      745F6473 
 12892      635F636E 
 12892      7400
 12893              	.LASF240:
 12894 13b0 64617368 		.ascii	"dash_gap\000"
 12894      5F676170 
 12894      00
 12895              	.LASF133:
 12896 13b9 4C565F53 		.ascii	"LV_STYLE_ARC_ROUNDED\000"
 12896      54594C45 
 12896      5F415243 
 12896      5F524F55 
 12896      4E444544 
 12897              	.LASF118:
 12898 13ce 4C565F53 		.ascii	"LV_STYLE_SHADOW_OFS_X\000"
 12898      54594C45 
 12898      5F534841 
 12898      444F575F 
 12898      4F46535F 
 12899              	.LASF119:
 12900 13e4 4C565F53 		.ascii	"LV_STYLE_SHADOW_OFS_Y\000"
 12900      54594C45 
 12900      5F534841 
 12900      444F575F 
 12900      4F46535F 
ARM GAS  C:\Users\haske\AppData\Local\Temp\ccoc8x2c.s 			page 260


 12901              	.LASF210:
 12902 13fa 6F75746C 		.ascii	"outline_opa\000"
 12902      696E655F 
 12902      6F706100 
 12903              	.LASF358:
 12904 1406 4C565F45 		.ascii	"LV_EVENT_SCROLL_BEGIN\000"
 12904      56454E54 
 12904      5F534352 
 12904      4F4C4C5F 
 12904      42454749 
 12905              	.LASF274:
 12906 141c 64726177 		.ascii	"draw_bg\000"
 12906      5F626700 
 12907              	.LASF131:
 12908 1424 4C565F53 		.ascii	"LV_STYLE_LINE_OPA\000"
 12908      54594C45 
 12908      5F4C494E 
 12908      455F4F50 
 12908      4100
 12909              	.LASF27:
 12910 1436 63686172 		.ascii	"char\000"
 12910      00
 12911              	.LASF309:
 12912 143b 6C765F73 		.ascii	"lv_scrollbar_mode_t\000"
 12912      63726F6C 
 12912      6C626172 
 12912      5F6D6F64 
 12912      655F7400 
 12913              	.LASF352:
 12914 144f 4C565F45 		.ascii	"LV_EVENT_PRESS_LOST\000"
 12914      56454E54 
 12914      5F505245 
 12914      53535F4C 
 12914      4F535400 
 12915              	.LASF427:
 12916 1463 6C765F6C 		.ascii	"lv_led_t\000"
 12916      65645F74 
 12916      00
 12917              	.LASF244:
 12918 146c 6C765F64 		.ascii	"lv_draw_line_dsc_t\000"
 12918      7261775F 
 12918      6C696E65 
 12918      5F647363 
 12918      5F7400
 12919              	.LASF76:
 12920 147f 4C565F53 		.ascii	"LV_STYLE_WIDTH\000"
 12920      54594C45 
 12920      5F574944 
 12920      544800
 12921              	.LASF289:
 12922 148e 6F626A5F 		.ascii	"obj_ll\000"
 12922      6C6C00
 12923              	.LASF120:
 12924 1495 4C565F53 		.ascii	"LV_STYLE_SHADOW_SPREAD\000"
 12924      54594C45 
 12924      5F534841 
 12924      444F575F 
ARM GAS  C:\Users\haske\AppData\Local\Temp\ccoc8x2c.s 			page 261


 12924      53505245 
 12925              	.LASF67:
 12926 14ac 636F6C6F 		.ascii	"color\000"
 12926      7200
 12927              	.LASF174:
 12928 14b2 6C765F73 		.ascii	"lv_style_t\000"
 12928      74796C65 
 12928      5F7400
 12929              	.LASF380:
 12930 14bd 4C565F45 		.ascii	"LV_EVENT_READY\000"
 12930      56454E54 
 12930      5F524541 
 12930      445900
 12931              	.LASF42:
 12932 14cc 62617365 		.ascii	"base_line\000"
 12932      5F6C696E 
 12932      6500
 12933              	.LASF137:
 12934 14d6 4C565F53 		.ascii	"LV_STYLE_TEXT_COLOR\000"
 12934      54594C45 
 12934      5F544558 
 12934      545F434F 
 12934      4C4F5200 
 12935              	.LASF112:
 12936 14ea 4C565F53 		.ascii	"LV_STYLE_BORDER_POST\000"
 12936      54594C45 
 12936      5F424F52 
 12936      4445525F 
 12936      504F5354 
 12937              	.LASF476:
 12938 14ff 2E2E5C2E 		.ascii	"..\\..\\..\\arduinoLCD\\test\\Pain Drain\\libraries"
 12938      2E5C2E2E 
 12938      5C617264 
 12938      75696E6F 
 12938      4C43445C 
 12939 152c 5C6C7667 		.ascii	"\\lvgl\\src\\extra\\widgets\\led\\lv_led.c\000"
 12939      6C5C7372 
 12939      635C6578 
 12939      7472615C 
 12939      77696467 
 12940              	.LASF282:
 12941 1551 6C765F64 		.ascii	"lv_draw_ctx_t\000"
 12941      7261775F 
 12941      6374785F 
 12941      7400
 12942              	.LASF341:
 12943 155f 63757272 		.ascii	"current_target\000"
 12943      656E745F 
 12943      74617267 
 12943      657400
 12944              	.LASF156:
 12945 156e 4C565F53 		.ascii	"LV_STYLE_TRANSFORM_ZOOM\000"
 12945      54594C45 
 12945      5F545241 
 12945      4E53464F 
 12945      524D5F5A 
 12946              	.LASF87:
ARM GAS  C:\Users\haske\AppData\Local\Temp\ccoc8x2c.s 			page 262


 12947 1586 4C565F53 		.ascii	"LV_STYLE_PAD_TOP\000"
 12947      54594C45 
 12947      5F504144 
 12947      5F544F50 
 12947      00
 12948              	.LASF225:
 12949 1597 62696469 		.ascii	"bidi_dir\000"
 12949      5F646972 
 12949      00
 12950              	.LASF404:
 12951 15a0 6576656E 		.ascii	"event_dsc\000"
 12951      745F6473 
 12951      6300
 12952              	.LASF421:
 12953 15aa 4C565F49 		.ascii	"LV_IMGBTN_STATE_DISABLED\000"
 12953      4D474254 
 12953      4E5F5354 
 12953      4154455F 
 12953      44495341 
 12954              	.LASF296:
 12955 15c3 77726170 		.ascii	"wrap\000"
 12955      00
 12956              	.LASF158:
 12957 15c8 4C565F53 		.ascii	"LV_STYLE_TRANSFORM_PIVOT_X\000"
 12957      54594C45 
 12957      5F545241 
 12957      4E53464F 
 12957      524D5F50 
 12958              	.LASF159:
 12959 15e3 4C565F53 		.ascii	"LV_STYLE_TRANSFORM_PIVOT_Y\000"
 12959      54594C45 
 12959      5F545241 
 12959      4E53464F 
 12959      524D5F50 
 12960              	.LASF428:
 12961 15fe 4C565F4C 		.ascii	"LV_LED_DRAW_PART_RECTANGLE\000"
 12961      45445F44 
 12961      5241575F 
 12961      50415254 
 12961      5F524543 
 12962              	.LASF61:
 12963 1619 6C765F62 		.ascii	"lv_base_dir_t\000"
 12963      6173655F 
 12963      6469725F 
 12963      7400
 12964              	.LASF479:
 12965 1627 6C765F63 		.ascii	"lv_color_black\000"
 12965      6F6C6F72 
 12965      5F626C61 
 12965      636B00
 12966              	.LASF66:
 12967 1636 6C765F64 		.ascii	"lv_dither_mode_t\000"
 12967      69746865 
 12967      725F6D6F 
 12967      64655F74 
 12967      00
 12968              	.LASF410:
ARM GAS  C:\Users\haske\AppData\Local\Temp\ccoc8x2c.s 			page 263


 12969 1647 7363726F 		.ascii	"scroll_snap_y\000"
 12969      6C6C5F73 
 12969      6E61705F 
 12969      7900
 12970              	.LASF89:
 12971 1655 4C565F53 		.ascii	"LV_STYLE_PAD_LEFT\000"
 12971      54594C45 
 12971      5F504144 
 12971      5F4C4546 
 12971      5400
 12972              	.LASF128:
 12973 1667 4C565F53 		.ascii	"LV_STYLE_LINE_DASH_GAP\000"
 12973      54594C45 
 12973      5F4C494E 
 12973      455F4441 
 12973      53485F47 
 12974              	.LASF277:
 12975 167e 6C617965 		.ascii	"layer_init\000"
 12975      725F696E 
 12975      697400
 12976              	.LASF147:
 12977 1689 4C565F53 		.ascii	"LV_STYLE_ANIM\000"
 12977      54594C45 
 12977      5F414E49 
 12977      4D00
 12978              	.LASF458:
 12979 1697 4C565F53 		.ascii	"LV_STYLE_GRID_CELL_ROW_POS\000"
 12979      54594C45 
 12979      5F475249 
 12979      445F4345 
 12979      4C4C5F52 
 12980              	.LASF267:
 12981 16b2 64726177 		.ascii	"draw_arc\000"
 12981      5F617263 
 12981      00
 12982              	.LASF350:
 12983 16bb 4C565F45 		.ascii	"LV_EVENT_PRESSED\000"
 12983      56454E54 
 12983      5F505245 
 12983      53534544 
 12983      00
 12984              	.LASF39:
 12985 16cc 6765745F 		.ascii	"get_glyph_dsc\000"
 12985      676C7970 
 12985      685F6473 
 12985      6300
 12986              	.LASF415:
 12987 16da 6C765F6F 		.ascii	"lv_obj_t\000"
 12987      626A5F74 
 12987      00
 12988              	.LASF366:
 12989 16e3 4C565F45 		.ascii	"LV_EVENT_HIT_TEST\000"
 12989      56454E54 
 12989      5F484954 
 12989      5F544553 
 12989      5400
 12990              	.LASF401:
ARM GAS  C:\Users\haske\AppData\Local\Temp\ccoc8x2c.s 			page 264


 12991 16f5 6368696C 		.ascii	"children\000"
 12991      6472656E 
 12991      00
 12992              	.LASF311:
 12993 16fe 7374796C 		.ascii	"style\000"
 12993      6500
 12994              	.LASF86:
 12995 1704 4C565F53 		.ascii	"LV_STYLE_RADIUS\000"
 12995      54594C45 
 12995      5F524144 
 12995      49555300 
 12996              	.LASF286:
 12997 1714 7461696C 		.ascii	"tail\000"
 12997      00
 12998              	.LASF327:
 12999 1719 7375625F 		.ascii	"sub_part_ptr\000"
 12999      70617274 
 12999      5F707472 
 12999      00
 13000              	.LASF157:
 13001 1726 4C565F53 		.ascii	"LV_STYLE_TRANSFORM_ANGLE\000"
 13001      54594C45 
 13001      5F545241 
 13001      4E53464F 
 13001      524D5F41 
 13002              	.LASF460:
 13003 173f 4C565F53 		.ascii	"LV_STYLE_GRID_CELL_Y_ALIGN\000"
 13003      54594C45 
 13003      5F475249 
 13003      445F4345 
 13003      4C4C5F59 
 13004              	.LASF233:
 13005 175a 7265636F 		.ascii	"recolor\000"
 13005      6C6F7200 
 13006              	.LASF434:
 13007 1762 6C765F6C 		.ascii	"lv_led_constructor\000"
 13007      65645F63 
 13007      6F6E7374 
 13007      72756374 
 13007      6F7200
 13008              	.LASF190:
 13009 1775 775F6C61 		.ascii	"w_layout\000"
 13009      796F7574 
 13009      00
 13010              	.LASF114:
 13011 177e 4C565F53 		.ascii	"LV_STYLE_OUTLINE_COLOR\000"
 13011      54594C45 
 13011      5F4F5554 
 13011      4C494E45 
 13011      5F434F4C 
 13012              	.LASF8:
 13013 1795 5F5F696E 		.ascii	"__int32_t\000"
 13013      7433325F 
 13013      7400
 13014              	.LASF10:
 13015 179f 5F5F7569 		.ascii	"__uint32_t\000"
 13015      6E743332 
ARM GAS  C:\Users\haske\AppData\Local\Temp\ccoc8x2c.s 			page 265


 13015      5F7400
 13016              	.LASF211:
 13017 17aa 73686164 		.ascii	"shadow_color\000"
 13017      6F775F63 
 13017      6F6C6F72 
 13017      00
 13018              	.LASF369:
 13019 17b7 4C565F45 		.ascii	"LV_EVENT_DRAW_MAIN_BEGIN\000"
 13019      56454E54 
 13019      5F445241 
 13019      575F4D41 
 13019      494E5F42 
 13020              	.LASF475:
 13021 17d0 474E5520 		.ascii	"GNU C11 5.4.1 20160609 (release) [ARM/embedded-5-br"
 13021      43313120 
 13021      352E342E 
 13021      31203230 
 13021      31363036 
 13022 1803 616E6368 		.ascii	"anch revision 237715] -mcpu=cortex-m0plus -mthumb -"
 13022      20726576 
 13022      6973696F 
 13022      6E203233 
 13022      37373135 
 13023 1836 67202D4F 		.ascii	"g -Og -ffunction-sections -ffat-lto-objects\000"
 13023      67202D66 
 13023      66756E63 
 13023      74696F6E 
 13023      2D736563 
 13024              	.LASF22:
 13025 1862 4C565F52 		.ascii	"LV_RES_OK\000"
 13025      45535F4F 
 13025      4B00
 13026              	.LASF202:
 13027 186c 626F7264 		.ascii	"border_color\000"
 13027      65725F63 
 13027      6F6C6F72 
 13027      00
 13028              	.LASF176:
 13029 1879 5F6C765F 		.ascii	"_lv_font_t\000"
 13029      666F6E74 
 13029      5F7400
 13030              	.LASF285:
 13031 1884 68656164 		.ascii	"head\000"
 13031      00
 13032              	.LASF273:
 13033 1889 64726177 		.ascii	"draw_transform\000"
 13033      5F747261 
 13033      6E73666F 
 13033      726D00
 13034              	.LASF295:
 13035 1898 7265666F 		.ascii	"refocus_policy\000"
 13035      6375735F 
 13035      706F6C69 
 13035      637900
 13036              	.LASF94:
 13037 18a7 4C565F53 		.ascii	"LV_STYLE_CLIP_CORNER\000"
 13037      54594C45 
ARM GAS  C:\Users\haske\AppData\Local\Temp\ccoc8x2c.s 			page 266


 13037      5F434C49 
 13037      505F434F 
 13037      524E4552 
 13038              	.LASF21:
 13039 18bc 4C565F52 		.ascii	"LV_RES_INV\000"
 13039      45535F49 
 13039      4E5600
 13040              	.LASF237:
 13041 18c7 6C765F64 		.ascii	"lv_draw_img_dsc_t\000"
 13041      7261775F 
 13041      696D675F 
 13041      6473635F 
 13041      7400
 13042              	.LASF238:
 13043 18d9 77696474 		.ascii	"width\000"
 13043      6800
 13044              	.LASF205:
 13045 18df 626F7264 		.ascii	"border_post\000"
 13045      65725F70 
 13045      6F737400 
 13046              	.LASF136:
 13047 18eb 4C565F53 		.ascii	"LV_STYLE_ARC_IMG_SRC\000"
 13047      54594C45 
 13047      5F415243 
 13047      5F494D47 
 13047      5F535243 
 13048              	.LASF246:
 13049 1900 656E645F 		.ascii	"end_angle\000"
 13049      616E676C 
 13049      6500
 13050              	.LASF116:
 13051 190a 4C565F53 		.ascii	"LV_STYLE_OUTLINE_PAD\000"
 13051      54594C45 
 13051      5F4F5554 
 13051      4C494E45 
 13051      5F504144 
 13052              	.LASF254:
 13053 191f 636C6970 		.ascii	"clip_area\000"
 13053      5F617265 
 13053      6100
 13054              	.LASF123:
 13055 1929 4C565F53 		.ascii	"LV_STYLE_IMG_OPA\000"
 13055      54594C45 
 13055      5F494D47 
 13055      5F4F5041 
 13055      00
 13056              	.LASF13:
 13057 193a 6C6F6E67 		.ascii	"long long unsigned int\000"
 13057      206C6F6E 
 13057      6720756E 
 13057      7369676E 
 13057      65642069 
 13058              	.LASF179:
 13059 1951 70617265 		.ascii	"parent\000"
 13059      6E7400
 13060              	.LASF436:
 13061 1958 70617274 		.ascii	"part_draw_dsc\000"
ARM GAS  C:\Users\haske\AppData\Local\Temp\ccoc8x2c.s 			page 267


 13061      5F647261 
 13061      775F6473 
 13061      6300
 13062              	.LASF375:
 13063 1966 4C565F45 		.ascii	"LV_EVENT_DRAW_PART_BEGIN\000"
 13063      56454E54 
 13063      5F445241 
 13063      575F5041 
 13063      52545F42 
 13064              	.LASF232:
 13065 197f 7069766F 		.ascii	"pivot\000"
 13065      7400
 13066              	.LASF125:
 13067 1985 4C565F53 		.ascii	"LV_STYLE_IMG_RECOLOR_OPA\000"
 13067      54594C45 
 13067      5F494D47 
 13067      5F524543 
 13067      4F4C4F52 
 13068              	.LASF323:
 13069 199e 6172635F 		.ascii	"arc_dsc\000"
 13069      64736300 
 13070              	.LASF339:
 13071 19a6 5F6C765F 		.ascii	"_lv_event_t\000"
 13071      6576656E 
 13071      745F7400 
 13072              	.LASF88:
 13073 19b2 4C565F53 		.ascii	"LV_STYLE_PAD_BOTTOM\000"
 13073      54594C45 
 13073      5F504144 
 13073      5F424F54 
 13073      544F4D00 
 13074              	.LASF393:
 13075 19c6 4C565F45 		.ascii	"LV_EVENT_GET_SELF_SIZE\000"
 13075      56454E54 
 13075      5F474554 
 13075      5F53454C 
 13075      465F5349 
 13076              	.LASF70:
 13077 19dd 73746F70 		.ascii	"stops\000"
 13077      7300
 13078              	.LASF284:
 13079 19e3 6E5F7369 		.ascii	"n_size\000"
 13079      7A6500
 13080              	.LASF408:
 13081 19ea 7363726F 		.ascii	"scrollbar_mode\000"
 13081      6C6C6261 
 13081      725F6D6F 
 13081      646500
 13082              	.LASF56:
 13083 19f9 6C765F63 		.ascii	"lv_color32_t\000"
 13083      6F6C6F72 
 13083      33325F74 
 13083      00
 13084              	.LASF247:
 13085 1a06 696D675F 		.ascii	"img_src\000"
 13085      73726300 
 13086              	.LASF307:
ARM GAS  C:\Users\haske\AppData\Local\Temp\ccoc8x2c.s 			page 268


 13087 1a0e 4C565F50 		.ascii	"LV_PART_ANY\000"
 13087      4152545F 
 13087      414E5900 
 13088              	.LASF236:
 13089 1a1a 616E7469 		.ascii	"antialias\000"
 13089      616C6961 
 13089      7300
 13090              	.LASF438:
 13091 1a24 6C765F6C 		.ascii	"lv_led_set_brightness\000"
 13091      65645F73 
 13091      65745F62 
 13091      72696768 
 13091      746E6573 
 13092              	.LASF260:
 13093 1a3a 6D61785F 		.ascii	"max_row_with_alpha\000"
 13093      726F775F 
 13093      77697468 
 13093      5F616C70 
 13093      686100
 13094              	.LASF72:
 13095 1a4d 64697468 		.ascii	"dither\000"
 13095      657200
 13096              	.LASF108:
 13097 1a54 4C565F53 		.ascii	"LV_STYLE_BORDER_COLOR\000"
 13097      54594C45 
 13097      5F424F52 
 13097      4445525F 
 13097      434F4C4F 
 13098              	.LASF95:
 13099 1a6a 4C565F53 		.ascii	"LV_STYLE_BG_COLOR\000"
 13099      54594C45 
 13099      5F42475F 
 13099      434F4C4F 
 13099      5200
 13100              	.LASF199:
 13101 1a7c 62675F69 		.ascii	"bg_img_opa\000"
 13101      6D675F6F 
 13101      706100
 13102              	.LASF106:
 13103 1a87 4C565F53 		.ascii	"LV_STYLE_BG_IMG_RECOLOR_OPA\000"
 13103      54594C45 
 13103      5F42475F 
 13103      494D475F 
 13103      5245434F 
 13104              	.LASF55:
 13105 1aa3 616C7068 		.ascii	"alpha\000"
 13105      6100
 13106              	.LASF62:
 13107 1aa9 6C765F62 		.ascii	"lv_blend_mode_t\000"
 13107      6C656E64 
 13107      5F6D6F64 
 13107      655F7400 
 13108              	.LASF12:
 13109 1ab9 6C6F6E67 		.ascii	"long long int\000"
 13109      206C6F6E 
 13109      6720696E 
 13109      7400
ARM GAS  C:\Users\haske\AppData\Local\Temp\ccoc8x2c.s 			page 269


 13110              	.LASF372:
 13111 1ac7 4C565F45 		.ascii	"LV_EVENT_DRAW_POST_BEGIN\000"
 13111      56454E54 
 13111      5F445241 
 13111      575F504F 
 13111      53545F42 
 13112              	.LASF394:
 13113 1ae0 5F4C565F 		.ascii	"_LV_EVENT_LAST\000"
 13113      4556454E 
 13113      545F4C41 
 13113      535400
 13114              	.LASF51:
 13115 1aef 626C7565 		.ascii	"blue\000"
 13115      00
 13116              	.LASF374:
 13117 1af4 4C565F45 		.ascii	"LV_EVENT_DRAW_POST_END\000"
 13117      56454E54 
 13117      5F445241 
 13117      575F504F 
 13117      53545F45 
 13118              	.LASF275:
 13119 1b0b 77616974 		.ascii	"wait_for_finish\000"
 13119      5F666F72 
 13119      5F66696E 
 13119      69736800 
 13120              	.LASF74:
 13121 1b1b 6C765F73 		.ascii	"lv_style_value_t\000"
 13121      74796C65 
 13121      5F76616C 
 13121      75655F74 
 13121      00
 13122              	.LASF463:
 13123 1b2c 6C765F64 		.ascii	"lv_draw_rect_dsc_init\000"
 13123      7261775F 
 13123      72656374 
 13123      5F647363 
 13123      5F696E69 
 13124              	.LASF325:
 13125 1b42 74657874 		.ascii	"text_length\000"
 13125      5F6C656E 
 13125      67746800 
 13126              	.LASF416:
 13127 1b4e 4C565F42 		.ascii	"LV_BAR_MODE_NORMAL\000"
 13127      41525F4D 
 13127      4F44455F 
 13127      4E4F524D 
 13127      414C00
 13128              	.LASF407:
 13129 1b61 6578745F 		.ascii	"ext_draw_size\000"
 13129      64726177 
 13129      5F73697A 
 13129      6500
 13130              	.LASF141:
 13131 1b6f 4C565F53 		.ascii	"LV_STYLE_TEXT_LINE_SPACE\000"
 13131      54594C45 
 13131      5F544558 
 13131      545F4C49 
ARM GAS  C:\Users\haske\AppData\Local\Temp\ccoc8x2c.s 			page 270


 13131      4E455F53 
 13132              	.LASF259:
 13133 1b88 61726561 		.ascii	"area_act\000"
 13133      5F616374 
 13133      00
 13134              	.LASF316:
 13135 1b91 64726177 		.ascii	"draw_ctx\000"
 13135      5F637478 
 13135      00
 13136              	.LASF75:
 13137 1b9a 4C565F53 		.ascii	"LV_STYLE_PROP_INV\000"
 13137      54594C45 
 13137      5F50524F 
 13137      505F494E 
 13137      5600
 13138              	.LASF390:
 13139 1bac 4C565F45 		.ascii	"LV_EVENT_SIZE_CHANGED\000"
 13139      56454E54 
 13139      5F53495A 
 13139      455F4348 
 13139      414E4745 
 13140              	.LASF371:
 13141 1bc2 4C565F45 		.ascii	"LV_EVENT_DRAW_MAIN_END\000"
 13141      56454E54 
 13141      5F445241 
 13141      575F4D41 
 13141      494E5F45 
 13142              	.LASF266:
 13143 1bd9 64726177 		.ascii	"draw_rect\000"
 13143      5F726563 
 13143      7400
 13144              	.LASF175:
 13145 1be3 6C765F69 		.ascii	"lv_img_cf_t\000"
 13145      6D675F63 
 13145      665F7400 
 13146              	.LASF305:
 13147 1bef 4C565F50 		.ascii	"LV_PART_CURSOR\000"
 13147      4152545F 
 13147      43555253 
 13147      4F5200
 13148              	.LASF0:
 13149 1bfe 5F5F696E 		.ascii	"__int8_t\000"
 13149      74385F74 
 13149      00
 13150              	.LASF145:
 13151 1c07 4C565F53 		.ascii	"LV_STYLE_COLOR_FILTER_DSC\000"
 13151      54594C45 
 13151      5F434F4C 
 13151      4F525F46 
 13151      494C5445 
 13152              	.LASF331:
 13153 1c21 64657374 		.ascii	"destructor_cb\000"
 13153      72756374 
 13153      6F725F63 
 13153      6200
 13154              	.LASF345:
 13155 1c2f 64656C65 		.ascii	"deleted\000"
ARM GAS  C:\Users\haske\AppData\Local\Temp\ccoc8x2c.s 			page 271


 13155      74656400 
 13156              	.LASF356:
 13157 1c37 4C565F45 		.ascii	"LV_EVENT_CLICKED\000"
 13157      56454E54 
 13157      5F434C49 
 13157      434B4544 
 13157      00
 13158              	.LASF442:
 13159 1c48 6C765F6C 		.ascii	"lv_led_get_brightness\000"
 13159      65645F67 
 13159      65745F62 
 13159      72696768 
 13159      746E6573 
 13160              	.LASF354:
 13161 1c5e 4C565F45 		.ascii	"LV_EVENT_LONG_PRESSED\000"
 13161      56454E54 
 13161      5F4C4F4E 
 13161      475F5052 
 13161      45535345 
 13162              	.LASF431:
 13163 1c74 6C765F63 		.ascii	"lv_color_mix\000"
 13163      6F6C6F72 
 13163      5F6D6978 
 13163      00
 13164              	.LASF14:
 13165 1c81 756E7369 		.ascii	"unsigned int\000"
 13165      676E6564 
 13165      20696E74 
 13165      00
 13166              	.LASF146:
 13167 1c8e 4C565F53 		.ascii	"LV_STYLE_COLOR_FILTER_OPA\000"
 13167      54594C45 
 13167      5F434F4C 
 13167      4F525F46 
 13167      494C5445 
 13168              	.LASF132:
 13169 1ca8 4C565F53 		.ascii	"LV_STYLE_ARC_WIDTH\000"
 13169      54594C45 
 13169      5F415243 
 13169      5F574944 
 13169      544800
 13170              	.LASF362:
 13171 1cbb 4C565F45 		.ascii	"LV_EVENT_KEY\000"
 13171      56454E54 
 13171      5F4B4559 
 13171      00
 13172              	.LASF115:
 13173 1cc8 4C565F53 		.ascii	"LV_STYLE_OUTLINE_OPA\000"
 13173      54594C45 
 13173      5F4F5554 
 13173      4C494E45 
 13173      5F4F5041 
 13174              	.LASF449:
 13175 1cdd 4C565F53 		.ascii	"LV_STYLE_FLEX_TRACK_PLACE\000"
 13175      54594C45 
 13175      5F464C45 
 13175      585F5452 
ARM GAS  C:\Users\haske\AppData\Local\Temp\ccoc8x2c.s 			page 272


 13175      41434B5F 
 13176              	.LASF187:
 13177 1cf7 736B6970 		.ascii	"skip_trans\000"
 13177      5F747261 
 13177      6E7300
 13178              	.LASF5:
 13179 1d02 73686F72 		.ascii	"short int\000"
 13179      7420696E 
 13179      7400
 13180              	.LASF437:
 13181 1d0c 6C765F6C 		.ascii	"lv_led_set_color\000"
 13181      65645F73 
 13181      65745F63 
 13181      6F6C6F72 
 13181      00
 13182              	.LASF170:
 13183 1d1d 636F6E73 		.ascii	"const_props\000"
 13183      745F7072 
 13183      6F707300 
 13184              	.LASF222:
 13185 1d29 73656C5F 		.ascii	"sel_bg_color\000"
 13185      62675F63 
 13185      6F6C6F72 
 13185      00
 13186              	.LASF344:
 13187 1d36 70726576 		.ascii	"prev\000"
 13187      00
 13188              	.LASF80:
 13189 1d3b 4C565F53 		.ascii	"LV_STYLE_MIN_HEIGHT\000"
 13189      54594C45 
 13189      5F4D494E 
 13189      5F484549 
 13189      47485400 
 13190              	.LASF117:
 13191 1d4f 4C565F53 		.ascii	"LV_STYLE_SHADOW_WIDTH\000"
 13191      54594C45 
 13191      5F534841 
 13191      444F575F 
 13191      57494454 
 13192              	.LASF180:
 13193 1d65 73706563 		.ascii	"spec_attr\000"
 13193      5F617474 
 13193      7200
 13194              	.LASF429:
 13195 1d6f 6C765F63 		.ascii	"lv_color_to32\000"
 13195      6F6C6F72 
 13195      5F746F33 
 13195      3200
 13196              	.LASF194:
 13197 1d7d 62675F63 		.ascii	"bg_color\000"
 13197      6F6C6F72 
 13197      00
 13198              	.LASF183:
 13199 1d86 666C6167 		.ascii	"flags\000"
 13199      7300
 13200              	.LASF435:
 13201 1d8c 6C765F6C 		.ascii	"lv_led_event\000"
ARM GAS  C:\Users\haske\AppData\Local\Temp\ccoc8x2c.s 			page 273


 13201      65645F65 
 13201      76656E74 
 13201      00
 13202              	.LASF191:
 13203 1d99 72616469 		.ascii	"radius\000"
 13203      757300
 13204              	.LASF241:
 13205 1da0 726F756E 		.ascii	"round_start\000"
 13205      645F7374 
 13205      61727400 
 13206              		.ident	"GCC: (GNU Tools for ARM Embedded Processors) 5.4.1 20160609 (release) [ARM/embedded-5-bran
