ARM GAS  C:\Users\haske\AppData\Local\Temp\cczJLOTg.s 			page 1


   1              		.syntax unified
   2              		.cpu cortex-m0plus
   3              		.fpu softvfp
   4              		.eabi_attribute 20, 1
   5              		.eabi_attribute 21, 1
   6              		.eabi_attribute 23, 3
   7              		.eabi_attribute 24, 1
   8              		.eabi_attribute 25, 1
   9              		.eabi_attribute 26, 1
  10              		.eabi_attribute 30, 1
  11              		.eabi_attribute 34, 0
  12              		.eabi_attribute 18, 4
  13              		.thumb
  14              		.syntax unified
  15              		.file	"lv_list.c"
  16              		.text
  17              	.Ltext0:
  18              		.cfi_sections	.debug_frame
  19              		.section	.text.lv_list_create,"ax",%progbits
  20              		.align	2
  21              		.global	lv_list_create
  22              		.code	16
  23              		.thumb_func
  24              		.type	lv_list_create, %function
  25              	lv_list_create:
  26              	.LFB170:
  27              		.file 1 "..\\..\\..\\arduinoLCD\\test\\Pain Drain\\libraries\\lvgl\\src\\extra\\widgets\\list\\lv_
   1:..\..\..\arduinoLCD\test\Pain Drain\libraries\lvgl\src\extra\widgets\list/lv_list.c **** /**
   2:..\..\..\arduinoLCD\test\Pain Drain\libraries\lvgl\src\extra\widgets\list/lv_list.c ****  * @file lv_list.c
   3:..\..\..\arduinoLCD\test\Pain Drain\libraries\lvgl\src\extra\widgets\list/lv_list.c ****  *
   4:..\..\..\arduinoLCD\test\Pain Drain\libraries\lvgl\src\extra\widgets\list/lv_list.c ****  */
   5:..\..\..\arduinoLCD\test\Pain Drain\libraries\lvgl\src\extra\widgets\list/lv_list.c **** 
   6:..\..\..\arduinoLCD\test\Pain Drain\libraries\lvgl\src\extra\widgets\list/lv_list.c **** /*********************
   7:..\..\..\arduinoLCD\test\Pain Drain\libraries\lvgl\src\extra\widgets\list/lv_list.c ****  *      INCLUDES
   8:..\..\..\arduinoLCD\test\Pain Drain\libraries\lvgl\src\extra\widgets\list/lv_list.c ****  *********************/
   9:..\..\..\arduinoLCD\test\Pain Drain\libraries\lvgl\src\extra\widgets\list/lv_list.c **** #include "lv_list.h"
  10:..\..\..\arduinoLCD\test\Pain Drain\libraries\lvgl\src\extra\widgets\list/lv_list.c **** #include "../../../core/lv_disp.h"
  11:..\..\..\arduinoLCD\test\Pain Drain\libraries\lvgl\src\extra\widgets\list/lv_list.c **** #include "../../../widgets/lv_label.h"
  12:..\..\..\arduinoLCD\test\Pain Drain\libraries\lvgl\src\extra\widgets\list/lv_list.c **** #include "../../../widgets/lv_img.h"
  13:..\..\..\arduinoLCD\test\Pain Drain\libraries\lvgl\src\extra\widgets\list/lv_list.c **** #include "../../../widgets/lv_btn.h"
  14:..\..\..\arduinoLCD\test\Pain Drain\libraries\lvgl\src\extra\widgets\list/lv_list.c **** 
  15:..\..\..\arduinoLCD\test\Pain Drain\libraries\lvgl\src\extra\widgets\list/lv_list.c **** #if LV_USE_LIST
  16:..\..\..\arduinoLCD\test\Pain Drain\libraries\lvgl\src\extra\widgets\list/lv_list.c **** 
  17:..\..\..\arduinoLCD\test\Pain Drain\libraries\lvgl\src\extra\widgets\list/lv_list.c **** /*********************
  18:..\..\..\arduinoLCD\test\Pain Drain\libraries\lvgl\src\extra\widgets\list/lv_list.c ****  *      DEFINES
  19:..\..\..\arduinoLCD\test\Pain Drain\libraries\lvgl\src\extra\widgets\list/lv_list.c ****  *********************/
  20:..\..\..\arduinoLCD\test\Pain Drain\libraries\lvgl\src\extra\widgets\list/lv_list.c **** #define MV_CLASS &lv_list
  21:..\..\..\arduinoLCD\test\Pain Drain\libraries\lvgl\src\extra\widgets\list/lv_list.c **** 
  22:..\..\..\arduinoLCD\test\Pain Drain\libraries\lvgl\src\extra\widgets\list/lv_list.c **** /**********************
  23:..\..\..\arduinoLCD\test\Pain Drain\libraries\lvgl\src\extra\widgets\list/lv_list.c ****  *      TYPEDEFS
  24:..\..\..\arduinoLCD\test\Pain Drain\libraries\lvgl\src\extra\widgets\list/lv_list.c ****  **********************/
  25:..\..\..\arduinoLCD\test\Pain Drain\libraries\lvgl\src\extra\widgets\list/lv_list.c **** 
  26:..\..\..\arduinoLCD\test\Pain Drain\libraries\lvgl\src\extra\widgets\list/lv_list.c **** /**********************
  27:..\..\..\arduinoLCD\test\Pain Drain\libraries\lvgl\src\extra\widgets\list/lv_list.c ****  *  STATIC PROTOTYPES
  28:..\..\..\arduinoLCD\test\Pain Drain\libraries\lvgl\src\extra\widgets\list/lv_list.c ****  **********************/
  29:..\..\..\arduinoLCD\test\Pain Drain\libraries\lvgl\src\extra\widgets\list/lv_list.c **** 
  30:..\..\..\arduinoLCD\test\Pain Drain\libraries\lvgl\src\extra\widgets\list/lv_list.c **** const lv_obj_class_t lv_list_class = {
ARM GAS  C:\Users\haske\AppData\Local\Temp\cczJLOTg.s 			page 2


  31:..\..\..\arduinoLCD\test\Pain Drain\libraries\lvgl\src\extra\widgets\list/lv_list.c ****     .base_class = &lv_obj_class,
  32:..\..\..\arduinoLCD\test\Pain Drain\libraries\lvgl\src\extra\widgets\list/lv_list.c ****     .width_def = (LV_DPI_DEF * 3) / 2,
  33:..\..\..\arduinoLCD\test\Pain Drain\libraries\lvgl\src\extra\widgets\list/lv_list.c ****     .height_def = LV_DPI_DEF * 2
  34:..\..\..\arduinoLCD\test\Pain Drain\libraries\lvgl\src\extra\widgets\list/lv_list.c **** };
  35:..\..\..\arduinoLCD\test\Pain Drain\libraries\lvgl\src\extra\widgets\list/lv_list.c **** 
  36:..\..\..\arduinoLCD\test\Pain Drain\libraries\lvgl\src\extra\widgets\list/lv_list.c **** const lv_obj_class_t lv_list_btn_class = {
  37:..\..\..\arduinoLCD\test\Pain Drain\libraries\lvgl\src\extra\widgets\list/lv_list.c ****     .base_class = &lv_btn_class,
  38:..\..\..\arduinoLCD\test\Pain Drain\libraries\lvgl\src\extra\widgets\list/lv_list.c **** };
  39:..\..\..\arduinoLCD\test\Pain Drain\libraries\lvgl\src\extra\widgets\list/lv_list.c **** 
  40:..\..\..\arduinoLCD\test\Pain Drain\libraries\lvgl\src\extra\widgets\list/lv_list.c **** const lv_obj_class_t lv_list_text_class = {
  41:..\..\..\arduinoLCD\test\Pain Drain\libraries\lvgl\src\extra\widgets\list/lv_list.c ****     .base_class = &lv_label_class,
  42:..\..\..\arduinoLCD\test\Pain Drain\libraries\lvgl\src\extra\widgets\list/lv_list.c **** };
  43:..\..\..\arduinoLCD\test\Pain Drain\libraries\lvgl\src\extra\widgets\list/lv_list.c **** 
  44:..\..\..\arduinoLCD\test\Pain Drain\libraries\lvgl\src\extra\widgets\list/lv_list.c **** /**********************
  45:..\..\..\arduinoLCD\test\Pain Drain\libraries\lvgl\src\extra\widgets\list/lv_list.c ****  *  STATIC VARIABLES
  46:..\..\..\arduinoLCD\test\Pain Drain\libraries\lvgl\src\extra\widgets\list/lv_list.c ****  **********************/
  47:..\..\..\arduinoLCD\test\Pain Drain\libraries\lvgl\src\extra\widgets\list/lv_list.c **** 
  48:..\..\..\arduinoLCD\test\Pain Drain\libraries\lvgl\src\extra\widgets\list/lv_list.c **** /**********************
  49:..\..\..\arduinoLCD\test\Pain Drain\libraries\lvgl\src\extra\widgets\list/lv_list.c ****  *      MACROS
  50:..\..\..\arduinoLCD\test\Pain Drain\libraries\lvgl\src\extra\widgets\list/lv_list.c ****  **********************/
  51:..\..\..\arduinoLCD\test\Pain Drain\libraries\lvgl\src\extra\widgets\list/lv_list.c **** 
  52:..\..\..\arduinoLCD\test\Pain Drain\libraries\lvgl\src\extra\widgets\list/lv_list.c **** /**********************
  53:..\..\..\arduinoLCD\test\Pain Drain\libraries\lvgl\src\extra\widgets\list/lv_list.c ****  *   GLOBAL FUNCTIONS
  54:..\..\..\arduinoLCD\test\Pain Drain\libraries\lvgl\src\extra\widgets\list/lv_list.c ****  **********************/
  55:..\..\..\arduinoLCD\test\Pain Drain\libraries\lvgl\src\extra\widgets\list/lv_list.c **** 
  56:..\..\..\arduinoLCD\test\Pain Drain\libraries\lvgl\src\extra\widgets\list/lv_list.c **** lv_obj_t * lv_list_create(lv_obj_t * parent)
  57:..\..\..\arduinoLCD\test\Pain Drain\libraries\lvgl\src\extra\widgets\list/lv_list.c **** {
  28              		.loc 1 57 0
  29              		.cfi_startproc
  30              		@ args = 0, pretend = 0, frame = 0
  31              		@ frame_needed = 0, uses_anonymous_args = 0
  32              	.LVL0:
  33 0000 10B5     		push	{r4, lr}
  34              		.cfi_def_cfa_offset 8
  35              		.cfi_offset 4, -8
  36              		.cfi_offset 14, -4
  37 0002 0100     		movs	r1, r0
  58:..\..\..\arduinoLCD\test\Pain Drain\libraries\lvgl\src\extra\widgets\list/lv_list.c ****     LV_LOG_INFO("begin");
  59:..\..\..\arduinoLCD\test\Pain Drain\libraries\lvgl\src\extra\widgets\list/lv_list.c ****     lv_obj_t * obj = lv_obj_class_create_obj(&lv_list_class, parent);
  38              		.loc 1 59 0
  39 0004 0548     		ldr	r0, .L2
  40              	.LVL1:
  41 0006 FFF7FEFF 		bl	lv_obj_class_create_obj
  42              	.LVL2:
  43 000a 0400     		movs	r4, r0
  44              	.LVL3:
  60:..\..\..\arduinoLCD\test\Pain Drain\libraries\lvgl\src\extra\widgets\list/lv_list.c ****     lv_obj_class_init_obj(obj);
  45              		.loc 1 60 0
  46 000c FFF7FEFF 		bl	lv_obj_class_init_obj
  47              	.LVL4:
  61:..\..\..\arduinoLCD\test\Pain Drain\libraries\lvgl\src\extra\widgets\list/lv_list.c ****     lv_obj_set_flex_flow(obj, LV_FLEX_FLOW_COLUMN);
  48              		.loc 1 61 0
  49 0010 0121     		movs	r1, #1
  50 0012 2000     		movs	r0, r4
  51 0014 FFF7FEFF 		bl	lv_obj_set_flex_flow
  52              	.LVL5:
  62:..\..\..\arduinoLCD\test\Pain Drain\libraries\lvgl\src\extra\widgets\list/lv_list.c ****     return obj;
ARM GAS  C:\Users\haske\AppData\Local\Temp\cczJLOTg.s 			page 3


  63:..\..\..\arduinoLCD\test\Pain Drain\libraries\lvgl\src\extra\widgets\list/lv_list.c **** }
  53              		.loc 1 63 0
  54 0018 2000     		movs	r0, r4
  55              		@ sp needed
  56              	.LVL6:
  57 001a 10BD     		pop	{r4, pc}
  58              	.L3:
  59              		.align	2
  60              	.L2:
  61 001c 00000000 		.word	.LANCHOR0
  62              		.cfi_endproc
  63              	.LFE170:
  64              		.size	lv_list_create, .-lv_list_create
  65              		.section	.text.lv_list_add_text,"ax",%progbits
  66              		.align	2
  67              		.global	lv_list_add_text
  68              		.code	16
  69              		.thumb_func
  70              		.type	lv_list_add_text, %function
  71              	lv_list_add_text:
  72              	.LFB171:
  64:..\..\..\arduinoLCD\test\Pain Drain\libraries\lvgl\src\extra\widgets\list/lv_list.c **** 
  65:..\..\..\arduinoLCD\test\Pain Drain\libraries\lvgl\src\extra\widgets\list/lv_list.c **** lv_obj_t * lv_list_add_text(lv_obj_t * list, const char * txt)
  66:..\..\..\arduinoLCD\test\Pain Drain\libraries\lvgl\src\extra\widgets\list/lv_list.c **** {
  73              		.loc 1 66 0
  74              		.cfi_startproc
  75              		@ args = 0, pretend = 0, frame = 0
  76              		@ frame_needed = 0, uses_anonymous_args = 0
  77              	.LVL7:
  78 0000 70B5     		push	{r4, r5, r6, lr}
  79              		.cfi_def_cfa_offset 16
  80              		.cfi_offset 4, -16
  81              		.cfi_offset 5, -12
  82              		.cfi_offset 6, -8
  83              		.cfi_offset 14, -4
  84 0002 0D00     		movs	r5, r1
  67:..\..\..\arduinoLCD\test\Pain Drain\libraries\lvgl\src\extra\widgets\list/lv_list.c ****     LV_LOG_INFO("begin");
  68:..\..\..\arduinoLCD\test\Pain Drain\libraries\lvgl\src\extra\widgets\list/lv_list.c ****     lv_obj_t * obj = lv_obj_class_create_obj(&lv_list_text_class, list);
  85              		.loc 1 68 0
  86 0004 0100     		movs	r1, r0
  87              	.LVL8:
  88 0006 0A48     		ldr	r0, .L5
  89              	.LVL9:
  90 0008 1C30     		adds	r0, r0, #28
  91 000a FFF7FEFF 		bl	lv_obj_class_create_obj
  92              	.LVL10:
  93 000e 0400     		movs	r4, r0
  94              	.LVL11:
  69:..\..\..\arduinoLCD\test\Pain Drain\libraries\lvgl\src\extra\widgets\list/lv_list.c ****     lv_obj_class_init_obj(obj);
  95              		.loc 1 69 0
  96 0010 FFF7FEFF 		bl	lv_obj_class_init_obj
  97              	.LVL12:
  70:..\..\..\arduinoLCD\test\Pain Drain\libraries\lvgl\src\extra\widgets\list/lv_list.c ****     lv_label_set_text(obj, txt);
  98              		.loc 1 70 0
  99 0014 2900     		movs	r1, r5
 100 0016 2000     		movs	r0, r4
 101 0018 FFF7FEFF 		bl	lv_label_set_text
ARM GAS  C:\Users\haske\AppData\Local\Temp\cczJLOTg.s 			page 4


 102              	.LVL13:
  71:..\..\..\arduinoLCD\test\Pain Drain\libraries\lvgl\src\extra\widgets\list/lv_list.c ****     lv_label_set_long_mode(obj, LV_LABEL_LONG_SCROLL_CIRCULAR);
 103              		.loc 1 71 0
 104 001c 0321     		movs	r1, #3
 105 001e 2000     		movs	r0, r4
 106 0020 FFF7FEFF 		bl	lv_label_set_long_mode
 107              	.LVL14:
  72:..\..\..\arduinoLCD\test\Pain Drain\libraries\lvgl\src\extra\widgets\list/lv_list.c ****     lv_obj_set_width(obj, LV_PCT(100));
 108              		.loc 1 72 0
 109 0024 0349     		ldr	r1, .L5+4
 110 0026 2000     		movs	r0, r4
 111 0028 FFF7FEFF 		bl	lv_obj_set_width
 112              	.LVL15:
  73:..\..\..\arduinoLCD\test\Pain Drain\libraries\lvgl\src\extra\widgets\list/lv_list.c ****     return obj;
  74:..\..\..\arduinoLCD\test\Pain Drain\libraries\lvgl\src\extra\widgets\list/lv_list.c **** }
 113              		.loc 1 74 0
 114 002c 2000     		movs	r0, r4
 115              		@ sp needed
 116              	.LVL16:
 117              	.LVL17:
 118 002e 70BD     		pop	{r4, r5, r6, pc}
 119              	.L6:
 120              		.align	2
 121              	.L5:
 122 0030 00000000 		.word	.LANCHOR0
 123 0034 64200000 		.word	8292
 124              		.cfi_endproc
 125              	.LFE171:
 126              		.size	lv_list_add_text, .-lv_list_add_text
 127              		.section	.text.lv_list_add_btn,"ax",%progbits
 128              		.align	2
 129              		.global	lv_list_add_btn
 130              		.code	16
 131              		.thumb_func
 132              		.type	lv_list_add_btn, %function
 133              	lv_list_add_btn:
 134              	.LFB172:
  75:..\..\..\arduinoLCD\test\Pain Drain\libraries\lvgl\src\extra\widgets\list/lv_list.c **** 
  76:..\..\..\arduinoLCD\test\Pain Drain\libraries\lvgl\src\extra\widgets\list/lv_list.c **** lv_obj_t * lv_list_add_btn(lv_obj_t * list, const void * icon, const char * txt)
  77:..\..\..\arduinoLCD\test\Pain Drain\libraries\lvgl\src\extra\widgets\list/lv_list.c **** {
 135              		.loc 1 77 0
 136              		.cfi_startproc
 137              		@ args = 0, pretend = 0, frame = 0
 138              		@ frame_needed = 0, uses_anonymous_args = 0
 139              	.LVL18:
 140 0000 70B5     		push	{r4, r5, r6, lr}
 141              		.cfi_def_cfa_offset 16
 142              		.cfi_offset 4, -16
 143              		.cfi_offset 5, -12
 144              		.cfi_offset 6, -8
 145              		.cfi_offset 14, -4
 146 0002 0D00     		movs	r5, r1
 147 0004 1600     		movs	r6, r2
  78:..\..\..\arduinoLCD\test\Pain Drain\libraries\lvgl\src\extra\widgets\list/lv_list.c ****     LV_LOG_INFO("begin");
  79:..\..\..\arduinoLCD\test\Pain Drain\libraries\lvgl\src\extra\widgets\list/lv_list.c ****     lv_obj_t * obj = lv_obj_class_create_obj(&lv_list_btn_class, list);
 148              		.loc 1 79 0
 149 0006 0100     		movs	r1, r0
ARM GAS  C:\Users\haske\AppData\Local\Temp\cczJLOTg.s 			page 5


 150              	.LVL19:
 151 0008 1548     		ldr	r0, .L10
 152              	.LVL20:
 153 000a 3830     		adds	r0, r0, #56
 154 000c FFF7FEFF 		bl	lv_obj_class_create_obj
 155              	.LVL21:
 156 0010 0400     		movs	r4, r0
 157              	.LVL22:
  80:..\..\..\arduinoLCD\test\Pain Drain\libraries\lvgl\src\extra\widgets\list/lv_list.c ****     lv_obj_class_init_obj(obj);
 158              		.loc 1 80 0
 159 0012 FFF7FEFF 		bl	lv_obj_class_init_obj
 160              	.LVL23:
  81:..\..\..\arduinoLCD\test\Pain Drain\libraries\lvgl\src\extra\widgets\list/lv_list.c ****     lv_obj_set_size(obj, LV_PCT(100), LV_SIZE_CONTENT);
 161              		.loc 1 81 0
 162 0016 134A     		ldr	r2, .L10+4
 163 0018 1349     		ldr	r1, .L10+8
 164 001a 2000     		movs	r0, r4
 165 001c FFF7FEFF 		bl	lv_obj_set_size
 166              	.LVL24:
  82:..\..\..\arduinoLCD\test\Pain Drain\libraries\lvgl\src\extra\widgets\list/lv_list.c ****     lv_obj_set_flex_flow(obj, LV_FLEX_FLOW_ROW);
 167              		.loc 1 82 0
 168 0020 0021     		movs	r1, #0
 169 0022 2000     		movs	r0, r4
 170 0024 FFF7FEFF 		bl	lv_obj_set_flex_flow
 171              	.LVL25:
  83:..\..\..\arduinoLCD\test\Pain Drain\libraries\lvgl\src\extra\widgets\list/lv_list.c **** 
  84:..\..\..\arduinoLCD\test\Pain Drain\libraries\lvgl\src\extra\widgets\list/lv_list.c **** #if LV_USE_IMG == 1
  85:..\..\..\arduinoLCD\test\Pain Drain\libraries\lvgl\src\extra\widgets\list/lv_list.c ****     if(icon) {
 172              		.loc 1 85 0
 173 0028 002D     		cmp	r5, #0
 174 002a 05D0     		beq	.L8
 175              	.LBB2:
  86:..\..\..\arduinoLCD\test\Pain Drain\libraries\lvgl\src\extra\widgets\list/lv_list.c ****         lv_obj_t * img = lv_img_create(obj);
 176              		.loc 1 86 0
 177 002c 2000     		movs	r0, r4
 178 002e FFF7FEFF 		bl	lv_img_create
 179              	.LVL26:
  87:..\..\..\arduinoLCD\test\Pain Drain\libraries\lvgl\src\extra\widgets\list/lv_list.c ****         lv_img_set_src(img, icon);
 180              		.loc 1 87 0
 181 0032 2900     		movs	r1, r5
 182 0034 FFF7FEFF 		bl	lv_img_set_src
 183              	.LVL27:
 184              	.L8:
 185              	.LBE2:
  88:..\..\..\arduinoLCD\test\Pain Drain\libraries\lvgl\src\extra\widgets\list/lv_list.c ****     }
  89:..\..\..\arduinoLCD\test\Pain Drain\libraries\lvgl\src\extra\widgets\list/lv_list.c **** #endif
  90:..\..\..\arduinoLCD\test\Pain Drain\libraries\lvgl\src\extra\widgets\list/lv_list.c **** 
  91:..\..\..\arduinoLCD\test\Pain Drain\libraries\lvgl\src\extra\widgets\list/lv_list.c ****     if(txt) {
 186              		.loc 1 91 0
 187 0038 002E     		cmp	r6, #0
 188 003a 0ED0     		beq	.L9
 189              	.LBB3:
  92:..\..\..\arduinoLCD\test\Pain Drain\libraries\lvgl\src\extra\widgets\list/lv_list.c ****         lv_obj_t * label = lv_label_create(obj);
 190              		.loc 1 92 0
 191 003c 2000     		movs	r0, r4
 192 003e FFF7FEFF 		bl	lv_label_create
 193              	.LVL28:
ARM GAS  C:\Users\haske\AppData\Local\Temp\cczJLOTg.s 			page 6


 194 0042 0500     		movs	r5, r0
 195              	.LVL29:
  93:..\..\..\arduinoLCD\test\Pain Drain\libraries\lvgl\src\extra\widgets\list/lv_list.c ****         lv_label_set_text(label, txt);
 196              		.loc 1 93 0
 197 0044 3100     		movs	r1, r6
 198 0046 FFF7FEFF 		bl	lv_label_set_text
 199              	.LVL30:
  94:..\..\..\arduinoLCD\test\Pain Drain\libraries\lvgl\src\extra\widgets\list/lv_list.c ****         lv_label_set_long_mode(label, LV_LABEL_LONG_SCROLL_CIRCULAR);
 200              		.loc 1 94 0
 201 004a 0321     		movs	r1, #3
 202 004c 2800     		movs	r0, r5
 203 004e FFF7FEFF 		bl	lv_label_set_long_mode
 204              	.LVL31:
  95:..\..\..\arduinoLCD\test\Pain Drain\libraries\lvgl\src\extra\widgets\list/lv_list.c ****         lv_obj_set_flex_grow(label, 1);
 205              		.loc 1 95 0
 206 0052 0121     		movs	r1, #1
 207 0054 2800     		movs	r0, r5
 208 0056 FFF7FEFF 		bl	lv_obj_set_flex_grow
 209              	.LVL32:
 210              	.L9:
 211              	.LBE3:
  96:..\..\..\arduinoLCD\test\Pain Drain\libraries\lvgl\src\extra\widgets\list/lv_list.c ****     }
  97:..\..\..\arduinoLCD\test\Pain Drain\libraries\lvgl\src\extra\widgets\list/lv_list.c **** 
  98:..\..\..\arduinoLCD\test\Pain Drain\libraries\lvgl\src\extra\widgets\list/lv_list.c ****     return obj;
  99:..\..\..\arduinoLCD\test\Pain Drain\libraries\lvgl\src\extra\widgets\list/lv_list.c **** }
 212              		.loc 1 99 0
 213 005a 2000     		movs	r0, r4
 214              		@ sp needed
 215              	.LVL33:
 216              	.LVL34:
 217 005c 70BD     		pop	{r4, r5, r6, pc}
 218              	.L11:
 219 005e C046     		.align	2
 220              	.L10:
 221 0060 00000000 		.word	.LANCHOR0
 222 0064 D1270000 		.word	10193
 223 0068 64200000 		.word	8292
 224              		.cfi_endproc
 225              	.LFE172:
 226              		.size	lv_list_add_btn, .-lv_list_add_btn
 227              		.section	.text.lv_list_get_btn_text,"ax",%progbits
 228              		.align	2
 229              		.global	lv_list_get_btn_text
 230              		.code	16
 231              		.thumb_func
 232              		.type	lv_list_get_btn_text, %function
 233              	lv_list_get_btn_text:
 234              	.LFB173:
 100:..\..\..\arduinoLCD\test\Pain Drain\libraries\lvgl\src\extra\widgets\list/lv_list.c **** 
 101:..\..\..\arduinoLCD\test\Pain Drain\libraries\lvgl\src\extra\widgets\list/lv_list.c **** const char * lv_list_get_btn_text(lv_obj_t * list, lv_obj_t * btn)
 102:..\..\..\arduinoLCD\test\Pain Drain\libraries\lvgl\src\extra\widgets\list/lv_list.c **** {
 235              		.loc 1 102 0
 236              		.cfi_startproc
 237              		@ args = 0, pretend = 0, frame = 0
 238              		@ frame_needed = 0, uses_anonymous_args = 0
 239              	.LVL35:
 240 0000 70B5     		push	{r4, r5, r6, lr}
ARM GAS  C:\Users\haske\AppData\Local\Temp\cczJLOTg.s 			page 7


 241              		.cfi_def_cfa_offset 16
 242              		.cfi_offset 4, -16
 243              		.cfi_offset 5, -12
 244              		.cfi_offset 6, -8
 245              		.cfi_offset 14, -4
 246 0002 0D00     		movs	r5, r1
 247              	.LVL36:
 103:..\..\..\arduinoLCD\test\Pain Drain\libraries\lvgl\src\extra\widgets\list/lv_list.c ****     LV_UNUSED(list);
 104:..\..\..\arduinoLCD\test\Pain Drain\libraries\lvgl\src\extra\widgets\list/lv_list.c ****     uint32_t i;
 105:..\..\..\arduinoLCD\test\Pain Drain\libraries\lvgl\src\extra\widgets\list/lv_list.c ****     for(i = 0; i < lv_obj_get_child_cnt(btn); i++) {
 248              		.loc 1 105 0
 249 0004 0024     		movs	r4, #0
 250 0006 0EE0     		b	.L13
 251              	.LVL37:
 252              	.L16:
 253              	.LBB4:
 106:..\..\..\arduinoLCD\test\Pain Drain\libraries\lvgl\src\extra\widgets\list/lv_list.c ****         lv_obj_t * child = lv_obj_get_child(btn, i);
 254              		.loc 1 106 0
 255 0008 2100     		movs	r1, r4
 256 000a 2800     		movs	r0, r5
 257 000c FFF7FEFF 		bl	lv_obj_get_child
 258              	.LVL38:
 259 0010 0600     		movs	r6, r0
 260              	.LVL39:
 107:..\..\..\arduinoLCD\test\Pain Drain\libraries\lvgl\src\extra\widgets\list/lv_list.c ****         if(lv_obj_check_type(child, &lv_label_class)) {
 261              		.loc 1 107 0
 262 0012 0849     		ldr	r1, .L17
 263 0014 FFF7FEFF 		bl	lv_obj_check_type
 264              	.LVL40:
 265 0018 0028     		cmp	r0, #0
 266 001a 03D0     		beq	.L14
 108:..\..\..\arduinoLCD\test\Pain Drain\libraries\lvgl\src\extra\widgets\list/lv_list.c ****             return lv_label_get_text(child);
 267              		.loc 1 108 0
 268 001c 3000     		movs	r0, r6
 269 001e FFF7FEFF 		bl	lv_label_get_text
 270              	.LVL41:
 271 0022 06E0     		b	.L15
 272              	.L14:
 273              	.LBE4:
 105:..\..\..\arduinoLCD\test\Pain Drain\libraries\lvgl\src\extra\widgets\list/lv_list.c ****         lv_obj_t * child = lv_obj_get_child(btn, i);
 274              		.loc 1 105 0 discriminator 2
 275 0024 0134     		adds	r4, r4, #1
 276              	.LVL42:
 277              	.L13:
 105:..\..\..\arduinoLCD\test\Pain Drain\libraries\lvgl\src\extra\widgets\list/lv_list.c ****         lv_obj_t * child = lv_obj_get_child(btn, i);
 278              		.loc 1 105 0 is_stmt 0 discriminator 1
 279 0026 2800     		movs	r0, r5
 280 0028 FFF7FEFF 		bl	lv_obj_get_child_cnt
 281              	.LVL43:
 282 002c 8442     		cmp	r4, r0
 283 002e EBD3     		bcc	.L16
 109:..\..\..\arduinoLCD\test\Pain Drain\libraries\lvgl\src\extra\widgets\list/lv_list.c ****         }
 110:..\..\..\arduinoLCD\test\Pain Drain\libraries\lvgl\src\extra\widgets\list/lv_list.c **** 
 111:..\..\..\arduinoLCD\test\Pain Drain\libraries\lvgl\src\extra\widgets\list/lv_list.c ****     }
 112:..\..\..\arduinoLCD\test\Pain Drain\libraries\lvgl\src\extra\widgets\list/lv_list.c **** 
 113:..\..\..\arduinoLCD\test\Pain Drain\libraries\lvgl\src\extra\widgets\list/lv_list.c ****     return "";
 284              		.loc 1 113 0 is_stmt 1
ARM GAS  C:\Users\haske\AppData\Local\Temp\cczJLOTg.s 			page 8


 285 0030 0148     		ldr	r0, .L17+4
 286              	.L15:
 114:..\..\..\arduinoLCD\test\Pain Drain\libraries\lvgl\src\extra\widgets\list/lv_list.c **** }
 287              		.loc 1 114 0
 288              		@ sp needed
 289              	.LVL44:
 290              	.LVL45:
 291 0032 70BD     		pop	{r4, r5, r6, pc}
 292              	.L18:
 293              		.align	2
 294              	.L17:
 295 0034 00000000 		.word	lv_label_class
 296 0038 00000000 		.word	.LC3
 297              		.cfi_endproc
 298              	.LFE173:
 299              		.size	lv_list_get_btn_text, .-lv_list_get_btn_text
 300              		.global	lv_list_text_class
 301              		.global	lv_list_btn_class
 302              		.global	lv_list_class
 303              		.section	.rodata
 304              		.align	2
 305              		.set	.LANCHOR0,. + 0
 306              		.type	lv_list_class, %object
 307              		.size	lv_list_class, 28
 308              	lv_list_class:
 309 0000 00000000 		.word	lv_obj_class
 310 0004 00000000 		.space	16
 310      00000000 
 310      00000000 
 310      00000000 
 311 0014 C300     		.short	195
 312 0016 0401     		.short	260
 313 0018 00000000 		.space	4
 314              		.type	lv_list_text_class, %object
 315              		.size	lv_list_text_class, 28
 316              	lv_list_text_class:
 317 001c 00000000 		.word	lv_label_class
 318 0020 00000000 		.space	24
 318      00000000 
 318      00000000 
 318      00000000 
 318      00000000 
 319              		.type	lv_list_btn_class, %object
 320              		.size	lv_list_btn_class, 28
 321              	lv_list_btn_class:
 322 0038 00000000 		.word	lv_btn_class
 323 003c 00000000 		.space	24
 323      00000000 
 323      00000000 
 323      00000000 
 323      00000000 
 324              		.section	.rodata.str1.4,"aMS",%progbits,1
 325              		.align	2
 326              	.LC3:
 327 0000 00       		.ascii	"\000"
 328              		.text
 329              	.Letext0:
ARM GAS  C:\Users\haske\AppData\Local\Temp\cczJLOTg.s 			page 9


 330              		.file 2 "c:\\program files (x86)\\cypress\\psoc creator\\4.4\\psoc creator\\import\\gnu\\arm\\5.4.
 331              		.file 3 "c:\\program files (x86)\\cypress\\psoc creator\\4.4\\psoc creator\\import\\gnu\\arm\\5.4.
 332              		.file 4 "c:\\projects\\paindrain\\arduinolcd\\test\\pain drain\\libraries\\lvgl\\src\\misc\\lv_are
 333              		.file 5 "c:\\projects\\paindrain\\arduinolcd\\test\\pain drain\\libraries\\lvgl\\src\\font\\lv_fon
 334              		.file 6 "c:\\projects\\paindrain\\arduinolcd\\test\\pain drain\\libraries\\lvgl\\src\\misc\\lv_col
 335              		.file 7 "c:\\projects\\paindrain\\arduinolcd\\test\\pain drain\\libraries\\lvgl\\src\\misc\\lv_sty
 336              		.file 8 "c:\\projects\\paindrain\\arduinolcd\\test\\pain drain\\libraries\\lvgl\\src\\core\\lv_obj
 337              		.file 9 "c:\\projects\\paindrain\\arduinolcd\\test\\pain drain\\libraries\\lvgl\\src\\misc\\lv_ll.
 338              		.file 10 "c:\\projects\\paindrain\\arduinolcd\\test\\pain drain\\libraries\\lvgl\\src\\core\\lv_gr
 339              		.file 11 "c:\\projects\\paindrain\\arduinolcd\\test\\pain drain\\libraries\\lvgl\\src\\core\\lv_ob
 340              		.file 12 "c:\\projects\\paindrain\\arduinolcd\\test\\pain drain\\libraries\\lvgl\\src\\core\\lv_ob
 341              		.file 13 "c:\\projects\\paindrain\\arduinolcd\\test\\pain drain\\libraries\\lvgl\\src\\core\\lv_ob
 342              		.file 14 "c:\\projects\\paindrain\\arduinolcd\\test\\pain drain\\libraries\\lvgl\\src\\core\\lv_ev
 343              		.file 15 "c:\\projects\\paindrain\\arduinolcd\\test\\pain drain\\libraries\\lvgl\\src\\extra\\layo
 344              		.file 16 "c:\\projects\\paindrain\\arduinolcd\\test\\pain drain\\libraries\\lvgl\\src\\widgets\\lv
 345              		.file 17 "c:\\projects\\paindrain\\arduinolcd\\test\\pain drain\\libraries\\lvgl\\src\\widgets\\lv
 346              		.file 18 "c:\\projects\\paindrain\\arduinolcd\\test\\pain drain\\libraries\\lvgl\\src\\core\\lv_ob
 347              		.file 19 "c:\\projects\\paindrain\\arduinolcd\\test\\pain drain\\libraries\\lvgl\\src\\widgets\\lv
 348              		.file 20 "c:\\projects\\paindrain\\arduinolcd\\test\\pain drain\\libraries\\lvgl\\src\\core\\lv_ob