ARM GAS  C:\Users\haske\AppData\Local\Temp\ccoc8x2c.s 			page 1


   1              		.syntax unified
   2              		.cpu cortex-m0plus
   3              		.fpu softvfp
   4              		.eabi_attribute 20, 1
   5              		.eabi_attribute 21, 1
   6              		.eabi_attribute 23, 3
   7              		.eabi_attribute 24, 1
   8              		.eabi_attribute 25, 1
   9              		.eabi_attribute 26, 1
  10              		.eabi_attribute 30, 1
  11              		.eabi_attribute 34, 0
  12              		.eabi_attribute 18, 4
  13              		.thumb
  14              		.syntax unified
  15              		.file	"lv_led.c"
  16              		.text
  17              	.Ltext0:
  18              		.cfi_sections	.debug_frame
  19              		.section	.text.lv_led_constructor,"ax",%progbits
  20              		.align	2
  21              		.code	16
  22              		.thumb_func
  23              		.type	lv_led_constructor, %function
  24              	lv_led_constructor:
  25              	.LFB209:
  26              		.file 1 "..\\..\\..\\arduinoLCD\\test\\Pain Drain\\libraries\\lvgl\\src\\extra\\widgets\\led\\lv_l
   1:..\..\..\arduinoLCD\test\Pain Drain\libraries\lvgl\src\extra\widgets\led/lv_led.c **** /**
   2:..\..\..\arduinoLCD\test\Pain Drain\libraries\lvgl\src\extra\widgets\led/lv_led.c ****  * @file lv_led.c
   3:..\..\..\arduinoLCD\test\Pain Drain\libraries\lvgl\src\extra\widgets\led/lv_led.c ****  *
   4:..\..\..\arduinoLCD\test\Pain Drain\libraries\lvgl\src\extra\widgets\led/lv_led.c ****  */
   5:..\..\..\arduinoLCD\test\Pain Drain\libraries\lvgl\src\extra\widgets\led/lv_led.c **** 
   6:..\..\..\arduinoLCD\test\Pain Drain\libraries\lvgl\src\extra\widgets\led/lv_led.c **** /*********************
   7:..\..\..\arduinoLCD\test\Pain Drain\libraries\lvgl\src\extra\widgets\led/lv_led.c ****  *      INCLUDES
   8:..\..\..\arduinoLCD\test\Pain Drain\libraries\lvgl\src\extra\widgets\led/lv_led.c ****  *********************/
   9:..\..\..\arduinoLCD\test\Pain Drain\libraries\lvgl\src\extra\widgets\led/lv_led.c **** #include "lv_led.h"
  10:..\..\..\arduinoLCD\test\Pain Drain\libraries\lvgl\src\extra\widgets\led/lv_led.c **** #if LV_USE_LED
  11:..\..\..\arduinoLCD\test\Pain Drain\libraries\lvgl\src\extra\widgets\led/lv_led.c **** 
  12:..\..\..\arduinoLCD\test\Pain Drain\libraries\lvgl\src\extra\widgets\led/lv_led.c **** #include "../../../misc/lv_assert.h"
  13:..\..\..\arduinoLCD\test\Pain Drain\libraries\lvgl\src\extra\widgets\led/lv_led.c **** 
  14:..\..\..\arduinoLCD\test\Pain Drain\libraries\lvgl\src\extra\widgets\led/lv_led.c **** /*********************
  15:..\..\..\arduinoLCD\test\Pain Drain\libraries\lvgl\src\extra\widgets\led/lv_led.c ****  *      DEFINES
  16:..\..\..\arduinoLCD\test\Pain Drain\libraries\lvgl\src\extra\widgets\led/lv_led.c ****  *********************/
  17:..\..\..\arduinoLCD\test\Pain Drain\libraries\lvgl\src\extra\widgets\led/lv_led.c **** #define MY_CLASS &lv_led_class
  18:..\..\..\arduinoLCD\test\Pain Drain\libraries\lvgl\src\extra\widgets\led/lv_led.c **** 
  19:..\..\..\arduinoLCD\test\Pain Drain\libraries\lvgl\src\extra\widgets\led/lv_led.c **** /**********************
  20:..\..\..\arduinoLCD\test\Pain Drain\libraries\lvgl\src\extra\widgets\led/lv_led.c ****  *      TYPEDEFS
  21:..\..\..\arduinoLCD\test\Pain Drain\libraries\lvgl\src\extra\widgets\led/lv_led.c ****  **********************/
  22:..\..\..\arduinoLCD\test\Pain Drain\libraries\lvgl\src\extra\widgets\led/lv_led.c **** 
  23:..\..\..\arduinoLCD\test\Pain Drain\libraries\lvgl\src\extra\widgets\led/lv_led.c **** /**********************
  24:..\..\..\arduinoLCD\test\Pain Drain\libraries\lvgl\src\extra\widgets\led/lv_led.c ****  *  STATIC PROTOTYPES
  25:..\..\..\arduinoLCD\test\Pain Drain\libraries\lvgl\src\extra\widgets\led/lv_led.c ****  **********************/
  26:..\..\..\arduinoLCD\test\Pain Drain\libraries\lvgl\src\extra\widgets\led/lv_led.c **** static void lv_led_constructor(const lv_obj_class_t * class_p, lv_obj_t * obj);
  27:..\..\..\arduinoLCD\test\Pain Drain\libraries\lvgl\src\extra\widgets\led/lv_led.c **** static void lv_led_event(const lv_obj_class_t * class_p, lv_event_t * e);
  28:..\..\..\arduinoLCD\test\Pain Drain\libraries\lvgl\src\extra\widgets\led/lv_led.c **** 
  29:..\..\..\arduinoLCD\test\Pain Drain\libraries\lvgl\src\extra\widgets\led/lv_led.c **** /**********************
  30:..\..\..\arduinoLCD\test\Pain Drain\libraries\lvgl\src\extra\widgets\led/lv_led.c ****  *  STATIC VARIABLES
  31:..\..\..\arduinoLCD\test\Pain Drain\libraries\lvgl\src\extra\widgets\led/lv_led.c ****  **********************/
ARM GAS  C:\Users\haske\AppData\Local\Temp\ccoc8x2c.s 			page 2


  32:..\..\..\arduinoLCD\test\Pain Drain\libraries\lvgl\src\extra\widgets\led/lv_led.c **** const lv_obj_class_t lv_led_class  = {
  33:..\..\..\arduinoLCD\test\Pain Drain\libraries\lvgl\src\extra\widgets\led/lv_led.c ****     .base_class = &lv_obj_class,
  34:..\..\..\arduinoLCD\test\Pain Drain\libraries\lvgl\src\extra\widgets\led/lv_led.c ****     .constructor_cb = lv_led_constructor,
  35:..\..\..\arduinoLCD\test\Pain Drain\libraries\lvgl\src\extra\widgets\led/lv_led.c ****     .width_def = LV_DPI_DEF / 5,
  36:..\..\..\arduinoLCD\test\Pain Drain\libraries\lvgl\src\extra\widgets\led/lv_led.c ****     .height_def = LV_DPI_DEF / 5,
  37:..\..\..\arduinoLCD\test\Pain Drain\libraries\lvgl\src\extra\widgets\led/lv_led.c ****     .event_cb = lv_led_event,
  38:..\..\..\arduinoLCD\test\Pain Drain\libraries\lvgl\src\extra\widgets\led/lv_led.c ****     .instance_size = sizeof(lv_led_t),
  39:..\..\..\arduinoLCD\test\Pain Drain\libraries\lvgl\src\extra\widgets\led/lv_led.c **** };
  40:..\..\..\arduinoLCD\test\Pain Drain\libraries\lvgl\src\extra\widgets\led/lv_led.c **** 
  41:..\..\..\arduinoLCD\test\Pain Drain\libraries\lvgl\src\extra\widgets\led/lv_led.c **** /**********************
  42:..\..\..\arduinoLCD\test\Pain Drain\libraries\lvgl\src\extra\widgets\led/lv_led.c ****  *      MACROS
  43:..\..\..\arduinoLCD\test\Pain Drain\libraries\lvgl\src\extra\widgets\led/lv_led.c ****  **********************/
  44:..\..\..\arduinoLCD\test\Pain Drain\libraries\lvgl\src\extra\widgets\led/lv_led.c **** 
  45:..\..\..\arduinoLCD\test\Pain Drain\libraries\lvgl\src\extra\widgets\led/lv_led.c **** /**********************
  46:..\..\..\arduinoLCD\test\Pain Drain\libraries\lvgl\src\extra\widgets\led/lv_led.c ****  *   GLOBAL FUNCTIONS
  47:..\..\..\arduinoLCD\test\Pain Drain\libraries\lvgl\src\extra\widgets\led/lv_led.c ****  **********************/
  48:..\..\..\arduinoLCD\test\Pain Drain\libraries\lvgl\src\extra\widgets\led/lv_led.c **** 
  49:..\..\..\arduinoLCD\test\Pain Drain\libraries\lvgl\src\extra\widgets\led/lv_led.c **** /**
  50:..\..\..\arduinoLCD\test\Pain Drain\libraries\lvgl\src\extra\widgets\led/lv_led.c ****  * Create a led object
  51:..\..\..\arduinoLCD\test\Pain Drain\libraries\lvgl\src\extra\widgets\led/lv_led.c ****  * @param parent pointer to an object, it will be the parent of the new led
  52:..\..\..\arduinoLCD\test\Pain Drain\libraries\lvgl\src\extra\widgets\led/lv_led.c ****  * @return pointer to the created led
  53:..\..\..\arduinoLCD\test\Pain Drain\libraries\lvgl\src\extra\widgets\led/lv_led.c ****  */
  54:..\..\..\arduinoLCD\test\Pain Drain\libraries\lvgl\src\extra\widgets\led/lv_led.c **** lv_obj_t * lv_led_create(lv_obj_t * parent)
  55:..\..\..\arduinoLCD\test\Pain Drain\libraries\lvgl\src\extra\widgets\led/lv_led.c **** {
  56:..\..\..\arduinoLCD\test\Pain Drain\libraries\lvgl\src\extra\widgets\led/lv_led.c ****     LV_LOG_INFO("begin");
  57:..\..\..\arduinoLCD\test\Pain Drain\libraries\lvgl\src\extra\widgets\led/lv_led.c ****     lv_obj_t * obj = lv_obj_class_create_obj(MY_CLASS, parent);
  58:..\..\..\arduinoLCD\test\Pain Drain\libraries\lvgl\src\extra\widgets\led/lv_led.c ****     lv_obj_class_init_obj(obj);
  59:..\..\..\arduinoLCD\test\Pain Drain\libraries\lvgl\src\extra\widgets\led/lv_led.c ****     return obj;
  60:..\..\..\arduinoLCD\test\Pain Drain\libraries\lvgl\src\extra\widgets\led/lv_led.c **** }
  61:..\..\..\arduinoLCD\test\Pain Drain\libraries\lvgl\src\extra\widgets\led/lv_led.c **** 
  62:..\..\..\arduinoLCD\test\Pain Drain\libraries\lvgl\src\extra\widgets\led/lv_led.c **** /*=====================
  63:..\..\..\arduinoLCD\test\Pain Drain\libraries\lvgl\src\extra\widgets\led/lv_led.c ****  * Setter functions
  64:..\..\..\arduinoLCD\test\Pain Drain\libraries\lvgl\src\extra\widgets\led/lv_led.c ****  *====================*/
  65:..\..\..\arduinoLCD\test\Pain Drain\libraries\lvgl\src\extra\widgets\led/lv_led.c **** 
  66:..\..\..\arduinoLCD\test\Pain Drain\libraries\lvgl\src\extra\widgets\led/lv_led.c **** /**
  67:..\..\..\arduinoLCD\test\Pain Drain\libraries\lvgl\src\extra\widgets\led/lv_led.c ****  * Set the color of the LED
  68:..\..\..\arduinoLCD\test\Pain Drain\libraries\lvgl\src\extra\widgets\led/lv_led.c ****  * @param led       pointer to a LED object
  69:..\..\..\arduinoLCD\test\Pain Drain\libraries\lvgl\src\extra\widgets\led/lv_led.c ****  * @param color     the color of the LED
  70:..\..\..\arduinoLCD\test\Pain Drain\libraries\lvgl\src\extra\widgets\led/lv_led.c ****  */
  71:..\..\..\arduinoLCD\test\Pain Drain\libraries\lvgl\src\extra\widgets\led/lv_led.c **** void lv_led_set_color(lv_obj_t * obj, lv_color_t color)
  72:..\..\..\arduinoLCD\test\Pain Drain\libraries\lvgl\src\extra\widgets\led/lv_led.c **** {
  73:..\..\..\arduinoLCD\test\Pain Drain\libraries\lvgl\src\extra\widgets\led/lv_led.c ****     LV_ASSERT_OBJ(obj, MY_CLASS);
  74:..\..\..\arduinoLCD\test\Pain Drain\libraries\lvgl\src\extra\widgets\led/lv_led.c **** 
  75:..\..\..\arduinoLCD\test\Pain Drain\libraries\lvgl\src\extra\widgets\led/lv_led.c ****     lv_led_t * led = (lv_led_t *)obj;
  76:..\..\..\arduinoLCD\test\Pain Drain\libraries\lvgl\src\extra\widgets\led/lv_led.c ****     led->color = color;
  77:..\..\..\arduinoLCD\test\Pain Drain\libraries\lvgl\src\extra\widgets\led/lv_led.c ****     lv_obj_invalidate(obj);
  78:..\..\..\arduinoLCD\test\Pain Drain\libraries\lvgl\src\extra\widgets\led/lv_led.c **** }
  79:..\..\..\arduinoLCD\test\Pain Drain\libraries\lvgl\src\extra\widgets\led/lv_led.c **** 
  80:..\..\..\arduinoLCD\test\Pain Drain\libraries\lvgl\src\extra\widgets\led/lv_led.c **** /**
  81:..\..\..\arduinoLCD\test\Pain Drain\libraries\lvgl\src\extra\widgets\led/lv_led.c ****  * Set the brightness of a LED object
  82:..\..\..\arduinoLCD\test\Pain Drain\libraries\lvgl\src\extra\widgets\led/lv_led.c ****  * @param led pointer to a LED object
  83:..\..\..\arduinoLCD\test\Pain Drain\libraries\lvgl\src\extra\widgets\led/lv_led.c ****  * @param bright LV_LED_BRIGHT_MIN (max. dark) ... LV_LED_BRIGHT_MAX (max. light)
  84:..\..\..\arduinoLCD\test\Pain Drain\libraries\lvgl\src\extra\widgets\led/lv_led.c ****  */
  85:..\..\..\arduinoLCD\test\Pain Drain\libraries\lvgl\src\extra\widgets\led/lv_led.c **** void lv_led_set_brightness(lv_obj_t * obj, uint8_t bright)
  86:..\..\..\arduinoLCD\test\Pain Drain\libraries\lvgl\src\extra\widgets\led/lv_led.c **** {
  87:..\..\..\arduinoLCD\test\Pain Drain\libraries\lvgl\src\extra\widgets\led/lv_led.c ****     LV_ASSERT_OBJ(obj, MY_CLASS);
  88:..\..\..\arduinoLCD\test\Pain Drain\libraries\lvgl\src\extra\widgets\led/lv_led.c **** 
ARM GAS  C:\Users\haske\AppData\Local\Temp\ccoc8x2c.s 			page 3


  89:..\..\..\arduinoLCD\test\Pain Drain\libraries\lvgl\src\extra\widgets\led/lv_led.c ****     lv_led_t * led = (lv_led_t *)obj;
  90:..\..\..\arduinoLCD\test\Pain Drain\libraries\lvgl\src\extra\widgets\led/lv_led.c ****     if(led->bright == bright) return;
  91:..\..\..\arduinoLCD\test\Pain Drain\libraries\lvgl\src\extra\widgets\led/lv_led.c **** 
  92:..\..\..\arduinoLCD\test\Pain Drain\libraries\lvgl\src\extra\widgets\led/lv_led.c ****     led->bright = LV_CLAMP(LV_LED_BRIGHT_MIN, bright, LV_LED_BRIGHT_MAX);
  93:..\..\..\arduinoLCD\test\Pain Drain\libraries\lvgl\src\extra\widgets\led/lv_led.c **** 
  94:..\..\..\arduinoLCD\test\Pain Drain\libraries\lvgl\src\extra\widgets\led/lv_led.c ****     /*Invalidate the object there fore it will be redrawn*/
  95:..\..\..\arduinoLCD\test\Pain Drain\libraries\lvgl\src\extra\widgets\led/lv_led.c ****     lv_obj_invalidate(obj);
  96:..\..\..\arduinoLCD\test\Pain Drain\libraries\lvgl\src\extra\widgets\led/lv_led.c **** }
  97:..\..\..\arduinoLCD\test\Pain Drain\libraries\lvgl\src\extra\widgets\led/lv_led.c **** 
  98:..\..\..\arduinoLCD\test\Pain Drain\libraries\lvgl\src\extra\widgets\led/lv_led.c **** /**
  99:..\..\..\arduinoLCD\test\Pain Drain\libraries\lvgl\src\extra\widgets\led/lv_led.c ****  * Light on a LED
 100:..\..\..\arduinoLCD\test\Pain Drain\libraries\lvgl\src\extra\widgets\led/lv_led.c ****  * @param led pointer to a LED object
 101:..\..\..\arduinoLCD\test\Pain Drain\libraries\lvgl\src\extra\widgets\led/lv_led.c ****  */
 102:..\..\..\arduinoLCD\test\Pain Drain\libraries\lvgl\src\extra\widgets\led/lv_led.c **** void lv_led_on(lv_obj_t * led)
 103:..\..\..\arduinoLCD\test\Pain Drain\libraries\lvgl\src\extra\widgets\led/lv_led.c **** {
 104:..\..\..\arduinoLCD\test\Pain Drain\libraries\lvgl\src\extra\widgets\led/lv_led.c ****     lv_led_set_brightness(led, LV_LED_BRIGHT_MAX);
 105:..\..\..\arduinoLCD\test\Pain Drain\libraries\lvgl\src\extra\widgets\led/lv_led.c **** }
 106:..\..\..\arduinoLCD\test\Pain Drain\libraries\lvgl\src\extra\widgets\led/lv_led.c **** 
 107:..\..\..\arduinoLCD\test\Pain Drain\libraries\lvgl\src\extra\widgets\led/lv_led.c **** /**
 108:..\..\..\arduinoLCD\test\Pain Drain\libraries\lvgl\src\extra\widgets\led/lv_led.c ****  * Light off a LED
 109:..\..\..\arduinoLCD\test\Pain Drain\libraries\lvgl\src\extra\widgets\led/lv_led.c ****  * @param led pointer to a LED object
 110:..\..\..\arduinoLCD\test\Pain Drain\libraries\lvgl\src\extra\widgets\led/lv_led.c ****  */
 111:..\..\..\arduinoLCD\test\Pain Drain\libraries\lvgl\src\extra\widgets\led/lv_led.c **** void lv_led_off(lv_obj_t * led)
 112:..\..\..\arduinoLCD\test\Pain Drain\libraries\lvgl\src\extra\widgets\led/lv_led.c **** {
 113:..\..\..\arduinoLCD\test\Pain Drain\libraries\lvgl\src\extra\widgets\led/lv_led.c ****     lv_led_set_brightness(led, LV_LED_BRIGHT_MIN);
 114:..\..\..\arduinoLCD\test\Pain Drain\libraries\lvgl\src\extra\widgets\led/lv_led.c **** }
 115:..\..\..\arduinoLCD\test\Pain Drain\libraries\lvgl\src\extra\widgets\led/lv_led.c **** 
 116:..\..\..\arduinoLCD\test\Pain Drain\libraries\lvgl\src\extra\widgets\led/lv_led.c **** /**
 117:..\..\..\arduinoLCD\test\Pain Drain\libraries\lvgl\src\extra\widgets\led/lv_led.c ****  * Toggle the state of a LED
 118:..\..\..\arduinoLCD\test\Pain Drain\libraries\lvgl\src\extra\widgets\led/lv_led.c ****  * @param led pointer to a LED object
 119:..\..\..\arduinoLCD\test\Pain Drain\libraries\lvgl\src\extra\widgets\led/lv_led.c ****  */
 120:..\..\..\arduinoLCD\test\Pain Drain\libraries\lvgl\src\extra\widgets\led/lv_led.c **** void lv_led_toggle(lv_obj_t * obj)
 121:..\..\..\arduinoLCD\test\Pain Drain\libraries\lvgl\src\extra\widgets\led/lv_led.c **** {
 122:..\..\..\arduinoLCD\test\Pain Drain\libraries\lvgl\src\extra\widgets\led/lv_led.c ****     uint8_t bright = lv_led_get_brightness(obj);
 123:..\..\..\arduinoLCD\test\Pain Drain\libraries\lvgl\src\extra\widgets\led/lv_led.c ****     if(bright > (LV_LED_BRIGHT_MIN + LV_LED_BRIGHT_MAX) >> 1)
 124:..\..\..\arduinoLCD\test\Pain Drain\libraries\lvgl\src\extra\widgets\led/lv_led.c ****         lv_led_off(obj);
 125:..\..\..\arduinoLCD\test\Pain Drain\libraries\lvgl\src\extra\widgets\led/lv_led.c ****     else
 126:..\..\..\arduinoLCD\test\Pain Drain\libraries\lvgl\src\extra\widgets\led/lv_led.c ****         lv_led_on(obj);
 127:..\..\..\arduinoLCD\test\Pain Drain\libraries\lvgl\src\extra\widgets\led/lv_led.c **** }
 128:..\..\..\arduinoLCD\test\Pain Drain\libraries\lvgl\src\extra\widgets\led/lv_led.c **** 
 129:..\..\..\arduinoLCD\test\Pain Drain\libraries\lvgl\src\extra\widgets\led/lv_led.c **** /*=====================
 130:..\..\..\arduinoLCD\test\Pain Drain\libraries\lvgl\src\extra\widgets\led/lv_led.c ****  * Getter functions
 131:..\..\..\arduinoLCD\test\Pain Drain\libraries\lvgl\src\extra\widgets\led/lv_led.c ****  *====================*/
 132:..\..\..\arduinoLCD\test\Pain Drain\libraries\lvgl\src\extra\widgets\led/lv_led.c **** 
 133:..\..\..\arduinoLCD\test\Pain Drain\libraries\lvgl\src\extra\widgets\led/lv_led.c **** /**
 134:..\..\..\arduinoLCD\test\Pain Drain\libraries\lvgl\src\extra\widgets\led/lv_led.c ****  * Get the brightness of a LEd object
 135:..\..\..\arduinoLCD\test\Pain Drain\libraries\lvgl\src\extra\widgets\led/lv_led.c ****  * @param led pointer to LED object
 136:..\..\..\arduinoLCD\test\Pain Drain\libraries\lvgl\src\extra\widgets\led/lv_led.c ****  * @return bright 0 (max. dark) ... 255 (max. light)
 137:..\..\..\arduinoLCD\test\Pain Drain\libraries\lvgl\src\extra\widgets\led/lv_led.c ****  */
 138:..\..\..\arduinoLCD\test\Pain Drain\libraries\lvgl\src\extra\widgets\led/lv_led.c **** uint8_t lv_led_get_brightness(const lv_obj_t * obj)
 139:..\..\..\arduinoLCD\test\Pain Drain\libraries\lvgl\src\extra\widgets\led/lv_led.c **** {
 140:..\..\..\arduinoLCD\test\Pain Drain\libraries\lvgl\src\extra\widgets\led/lv_led.c ****     LV_ASSERT_OBJ(obj, MY_CLASS);
 141:..\..\..\arduinoLCD\test\Pain Drain\libraries\lvgl\src\extra\widgets\led/lv_led.c **** 
 142:..\..\..\arduinoLCD\test\Pain Drain\libraries\lvgl\src\extra\widgets\led/lv_led.c ****     lv_led_t * led = (lv_led_t *)obj;
 143:..\..\..\arduinoLCD\test\Pain Drain\libraries\lvgl\src\extra\widgets\led/lv_led.c ****     return led->bright;
 144:..\..\..\arduinoLCD\test\Pain Drain\libraries\lvgl\src\extra\widgets\led/lv_led.c **** }
 145:..\..\..\arduinoLCD\test\Pain Drain\libraries\lvgl\src\extra\widgets\led/lv_led.c **** 
ARM GAS  C:\Users\haske\AppData\Local\Temp\ccoc8x2c.s 			page 4


 146:..\..\..\arduinoLCD\test\Pain Drain\libraries\lvgl\src\extra\widgets\led/lv_led.c **** /**********************
 147:..\..\..\arduinoLCD\test\Pain Drain\libraries\lvgl\src\extra\widgets\led/lv_led.c ****  *   STATIC FUNCTIONS
 148:..\..\..\arduinoLCD\test\Pain Drain\libraries\lvgl\src\extra\widgets\led/lv_led.c ****  **********************/
 149:..\..\..\arduinoLCD\test\Pain Drain\libraries\lvgl\src\extra\widgets\led/lv_led.c **** 
 150:..\..\..\arduinoLCD\test\Pain Drain\libraries\lvgl\src\extra\widgets\led/lv_led.c **** static void lv_led_constructor(const lv_obj_class_t * class_p, lv_obj_t * obj)
 151:..\..\..\arduinoLCD\test\Pain Drain\libraries\lvgl\src\extra\widgets\led/lv_led.c **** {
  27              		.loc 1 151 0
  28              		.cfi_startproc
  29              		@ args = 0, pretend = 0, frame = 0
  30              		@ frame_needed = 0, uses_anonymous_args = 0
  31              	.LVL0:
  32 0000 10B5     		push	{r4, lr}
  33              		.cfi_def_cfa_offset 8
  34              		.cfi_offset 4, -8
  35              		.cfi_offset 14, -4
  36 0002 0C00     		movs	r4, r1
  37              	.LVL1:
 152:..\..\..\arduinoLCD\test\Pain Drain\libraries\lvgl\src\extra\widgets\led/lv_led.c ****     LV_UNUSED(class_p);
 153:..\..\..\arduinoLCD\test\Pain Drain\libraries\lvgl\src\extra\widgets\led/lv_led.c ****     lv_led_t * led = (lv_led_t *)obj;
 154:..\..\..\arduinoLCD\test\Pain Drain\libraries\lvgl\src\extra\widgets\led/lv_led.c ****     led->color = lv_theme_get_color_primary(obj);
  38              		.loc 1 154 0
  39 0004 0800     		movs	r0, r1
  40              	.LVL2:
  41 0006 FFF7FEFF 		bl	lv_theme_get_color_primary
  42              	.LVL3:
  43 000a A084     		strh	r0, [r4, #36]
 155:..\..\..\arduinoLCD\test\Pain Drain\libraries\lvgl\src\extra\widgets\led/lv_led.c ****     led->bright = LV_LED_BRIGHT_MAX;
  44              		.loc 1 155 0
  45 000c FF22     		movs	r2, #255
  46 000e 2623     		movs	r3, #38
  47 0010 E254     		strb	r2, [r4, r3]
 156:..\..\..\arduinoLCD\test\Pain Drain\libraries\lvgl\src\extra\widgets\led/lv_led.c **** }
  48              		.loc 1 156 0
  49              		@ sp needed
  50              	.LVL4:
  51 0012 10BD     		pop	{r4, pc}
  52              		.cfi_endproc
  53              	.LFE209:
  54              		.size	lv_led_constructor, .-lv_led_constructor
  55              		.global	__aeabi_idiv
  56              		.section	.text.lv_led_event,"ax",%progbits
  57              		.align	2
  58              		.code	16
  59              		.thumb_func
  60              		.type	lv_led_event, %function
  61              	lv_led_event:
  62              	.LFB210:
 157:..\..\..\arduinoLCD\test\Pain Drain\libraries\lvgl\src\extra\widgets\led/lv_led.c **** 
 158:..\..\..\arduinoLCD\test\Pain Drain\libraries\lvgl\src\extra\widgets\led/lv_led.c **** static void lv_led_event(const lv_obj_class_t * class_p, lv_event_t * e)
 159:..\..\..\arduinoLCD\test\Pain Drain\libraries\lvgl\src\extra\widgets\led/lv_led.c **** {
  63              		.loc 1 159 0
  64              		.cfi_startproc
  65              		@ args = 0, pretend = 0, frame = 144
  66              		@ frame_needed = 0, uses_anonymous_args = 0
  67              	.LVL5:
  68 0000 F0B5     		push	{r4, r5, r6, r7, lr}
  69              		.cfi_def_cfa_offset 20
ARM GAS  C:\Users\haske\AppData\Local\Temp\ccoc8x2c.s 			page 5


  70              		.cfi_offset 4, -20
  71              		.cfi_offset 5, -16
  72              		.cfi_offset 6, -12
  73              		.cfi_offset 7, -8
  74              		.cfi_offset 14, -4
  75 0002 5F46     		mov	r7, fp
  76 0004 5646     		mov	r6, r10
  77 0006 4D46     		mov	r5, r9
  78 0008 4446     		mov	r4, r8
  79 000a F0B4     		push	{r4, r5, r6, r7}
  80              		.cfi_def_cfa_offset 36
  81              		.cfi_offset 8, -36
  82              		.cfi_offset 9, -32
  83              		.cfi_offset 10, -28
  84              		.cfi_offset 11, -24
  85 000c A5B0     		sub	sp, sp, #148
  86              		.cfi_def_cfa_offset 184
  87 000e 0C00     		movs	r4, r1
  88 0010 0091     		str	r1, [sp]
 160:..\..\..\arduinoLCD\test\Pain Drain\libraries\lvgl\src\extra\widgets\led/lv_led.c ****     LV_UNUSED(class_p);
 161:..\..\..\arduinoLCD\test\Pain Drain\libraries\lvgl\src\extra\widgets\led/lv_led.c **** 
 162:..\..\..\arduinoLCD\test\Pain Drain\libraries\lvgl\src\extra\widgets\led/lv_led.c ****     lv_res_t res;
 163:..\..\..\arduinoLCD\test\Pain Drain\libraries\lvgl\src\extra\widgets\led/lv_led.c **** 
 164:..\..\..\arduinoLCD\test\Pain Drain\libraries\lvgl\src\extra\widgets\led/lv_led.c ****     /* Call the ancestor's event handler */
 165:..\..\..\arduinoLCD\test\Pain Drain\libraries\lvgl\src\extra\widgets\led/lv_led.c ****     lv_event_code_t code = lv_event_get_code(e);
  89              		.loc 1 165 0
  90 0012 0800     		movs	r0, r1
  91              	.LVL6:
  92 0014 FFF7FEFF 		bl	lv_event_get_code
  93              	.LVL7:
  94 0018 0500     		movs	r5, r0
  95              	.LVL8:
 166:..\..\..\arduinoLCD\test\Pain Drain\libraries\lvgl\src\extra\widgets\led/lv_led.c ****     if(code != LV_EVENT_DRAW_MAIN && code != LV_EVENT_DRAW_MAIN_END) {
  96              		.loc 1 166 0
  97 001a 1538     		subs	r0, r0, #21
  98              	.LVL9:
  99 001c C0B2     		uxtb	r0, r0
 100 001e 0128     		cmp	r0, #1
 101 0020 06D9     		bls	.L3
 167:..\..\..\arduinoLCD\test\Pain Drain\libraries\lvgl\src\extra\widgets\led/lv_led.c ****         res = lv_obj_event_base(MY_CLASS, e);
 102              		.loc 1 167 0
 103 0022 2100     		movs	r1, r4
 104 0024 F648     		ldr	r0, .L5
 105 0026 FFF7FEFF 		bl	lv_obj_event_base
 106              	.LVL10:
 168:..\..\..\arduinoLCD\test\Pain Drain\libraries\lvgl\src\extra\widgets\led/lv_led.c ****         if(res != LV_RES_OK) return;
 107              		.loc 1 168 0
 108 002a 0128     		cmp	r0, #1
 109 002c 00D0     		beq	.LCB75
 110 002e 4DE2     		b	.L2	@long jump
 111              	.LCB75:
 112              	.LVL11:
 113              	.L3:
 169:..\..\..\arduinoLCD\test\Pain Drain\libraries\lvgl\src\extra\widgets\led/lv_led.c ****     }
 170:..\..\..\arduinoLCD\test\Pain Drain\libraries\lvgl\src\extra\widgets\led/lv_led.c **** 
 171:..\..\..\arduinoLCD\test\Pain Drain\libraries\lvgl\src\extra\widgets\led/lv_led.c ****     lv_obj_t * obj = lv_event_get_target(e);
 114              		.loc 1 171 0
ARM GAS  C:\Users\haske\AppData\Local\Temp\ccoc8x2c.s 			page 6


 115 0030 0098     		ldr	r0, [sp]
 116 0032 FFF7FEFF 		bl	lv_event_get_target
 117              	.LVL12:
 118 0036 0700     		movs	r7, r0
 119              	.LVL13:
 172:..\..\..\arduinoLCD\test\Pain Drain\libraries\lvgl\src\extra\widgets\led/lv_led.c ****     if(code == LV_EVENT_DRAW_MAIN) {
 120              		.loc 1 172 0
 121 0038 152D     		cmp	r5, #21
 122 003a 00D0     		beq	.LCB84
 123 003c 46E2     		b	.L2	@long jump
 124              	.LCB84:
 125              	.LVL14:
 126              	.LBB164:
 173:..\..\..\arduinoLCD\test\Pain Drain\libraries\lvgl\src\extra\widgets\led/lv_led.c ****         /*Make darker colors in a temporary style according to the brightness*/
 174:..\..\..\arduinoLCD\test\Pain Drain\libraries\lvgl\src\extra\widgets\led/lv_led.c ****         lv_led_t * led = (lv_led_t *)obj;
 175:..\..\..\arduinoLCD\test\Pain Drain\libraries\lvgl\src\extra\widgets\led/lv_led.c **** 
 176:..\..\..\arduinoLCD\test\Pain Drain\libraries\lvgl\src\extra\widgets\led/lv_led.c ****         lv_draw_rect_dsc_t rect_dsc;
 177:..\..\..\arduinoLCD\test\Pain Drain\libraries\lvgl\src\extra\widgets\led/lv_led.c ****         lv_draw_rect_dsc_init(&rect_dsc);
 127              		.loc 1 177 0 discriminator 2
 128 003e 04A8     		add	r0, sp, #16
 129              	.LVL15:
 130 0040 FFF7FEFF 		bl	lv_draw_rect_dsc_init
 131              	.LVL16:
 178:..\..\..\arduinoLCD\test\Pain Drain\libraries\lvgl\src\extra\widgets\led/lv_led.c ****         lv_obj_init_draw_rect_dsc(obj, LV_PART_MAIN, &rect_dsc);
 132              		.loc 1 178 0 discriminator 2
 133 0044 04AA     		add	r2, sp, #16
 134 0046 0021     		movs	r1, #0
 135 0048 3800     		movs	r0, r7
 136 004a FFF7FEFF 		bl	lv_obj_init_draw_rect_dsc
 137              	.LVL17:
 138 004e 04AB     		add	r3, sp, #16
 139 0050 9988     		ldrh	r1, [r3, #4]
 140              	.LBB165:
 141              	.LBB166:
 142              	.LBB167:
 143              	.LBB168:
 144              		.file 2 "c:\\projects\\paindrain\\arduinolcd\\test\\pain drain\\libraries\\lvgl\\src\\misc\\lv_col
   1:c:\projects\paindrain\arduinolcd\test\pain drain\libraries\lvgl\src\misc\lv_color.h **** /**
   2:c:\projects\paindrain\arduinolcd\test\pain drain\libraries\lvgl\src\misc\lv_color.h ****  * @file lv_color.h
   3:c:\projects\paindrain\arduinolcd\test\pain drain\libraries\lvgl\src\misc\lv_color.h ****  *
   4:c:\projects\paindrain\arduinolcd\test\pain drain\libraries\lvgl\src\misc\lv_color.h ****  */
   5:c:\projects\paindrain\arduinolcd\test\pain drain\libraries\lvgl\src\misc\lv_color.h **** 
   6:c:\projects\paindrain\arduinolcd\test\pain drain\libraries\lvgl\src\misc\lv_color.h **** #ifndef LV_COLOR_H
   7:c:\projects\paindrain\arduinolcd\test\pain drain\libraries\lvgl\src\misc\lv_color.h **** #define LV_COLOR_H
   8:c:\projects\paindrain\arduinolcd\test\pain drain\libraries\lvgl\src\misc\lv_color.h **** 
   9:c:\projects\paindrain\arduinolcd\test\pain drain\libraries\lvgl\src\misc\lv_color.h **** #ifdef __cplusplus
  10:c:\projects\paindrain\arduinolcd\test\pain drain\libraries\lvgl\src\misc\lv_color.h **** extern "C" {
  11:c:\projects\paindrain\arduinolcd\test\pain drain\libraries\lvgl\src\misc\lv_color.h **** #endif
  12:c:\projects\paindrain\arduinolcd\test\pain drain\libraries\lvgl\src\misc\lv_color.h **** 
  13:c:\projects\paindrain\arduinolcd\test\pain drain\libraries\lvgl\src\misc\lv_color.h **** /*********************
  14:c:\projects\paindrain\arduinolcd\test\pain drain\libraries\lvgl\src\misc\lv_color.h ****  *      INCLUDES
  15:c:\projects\paindrain\arduinolcd\test\pain drain\libraries\lvgl\src\misc\lv_color.h ****  *********************/
  16:c:\projects\paindrain\arduinolcd\test\pain drain\libraries\lvgl\src\misc\lv_color.h **** #include "../lv_conf_internal.h"
  17:c:\projects\paindrain\arduinolcd\test\pain drain\libraries\lvgl\src\misc\lv_color.h **** #include "lv_assert.h"
  18:c:\projects\paindrain\arduinolcd\test\pain drain\libraries\lvgl\src\misc\lv_color.h **** #include "lv_math.h"
  19:c:\projects\paindrain\arduinolcd\test\pain drain\libraries\lvgl\src\misc\lv_color.h **** #include "lv_types.h"
  20:c:\projects\paindrain\arduinolcd\test\pain drain\libraries\lvgl\src\misc\lv_color.h **** 
ARM GAS  C:\Users\haske\AppData\Local\Temp\ccoc8x2c.s 			page 7


  21:c:\projects\paindrain\arduinolcd\test\pain drain\libraries\lvgl\src\misc\lv_color.h **** /*Error checking*/
  22:c:\projects\paindrain\arduinolcd\test\pain drain\libraries\lvgl\src\misc\lv_color.h **** #if LV_COLOR_DEPTH == 24
  23:c:\projects\paindrain\arduinolcd\test\pain drain\libraries\lvgl\src\misc\lv_color.h **** #error "LV_COLOR_DEPTH 24 is deprecated. Use LV_COLOR_DEPTH 32 instead (lv_conf.h)"
  24:c:\projects\paindrain\arduinolcd\test\pain drain\libraries\lvgl\src\misc\lv_color.h **** #endif
  25:c:\projects\paindrain\arduinolcd\test\pain drain\libraries\lvgl\src\misc\lv_color.h **** 
  26:c:\projects\paindrain\arduinolcd\test\pain drain\libraries\lvgl\src\misc\lv_color.h **** #if LV_COLOR_DEPTH != 16 && LV_COLOR_16_SWAP != 0
  27:c:\projects\paindrain\arduinolcd\test\pain drain\libraries\lvgl\src\misc\lv_color.h **** #error "LV_COLOR_16_SWAP requires LV_COLOR_DEPTH == 16. Set it in lv_conf.h"
  28:c:\projects\paindrain\arduinolcd\test\pain drain\libraries\lvgl\src\misc\lv_color.h **** #endif
  29:c:\projects\paindrain\arduinolcd\test\pain drain\libraries\lvgl\src\misc\lv_color.h **** 
  30:c:\projects\paindrain\arduinolcd\test\pain drain\libraries\lvgl\src\misc\lv_color.h **** #include <stdint.h>
  31:c:\projects\paindrain\arduinolcd\test\pain drain\libraries\lvgl\src\misc\lv_color.h **** 
  32:c:\projects\paindrain\arduinolcd\test\pain drain\libraries\lvgl\src\misc\lv_color.h **** /*********************
  33:c:\projects\paindrain\arduinolcd\test\pain drain\libraries\lvgl\src\misc\lv_color.h ****  *      DEFINES
  34:c:\projects\paindrain\arduinolcd\test\pain drain\libraries\lvgl\src\misc\lv_color.h ****  *********************/
  35:c:\projects\paindrain\arduinolcd\test\pain drain\libraries\lvgl\src\misc\lv_color.h **** LV_EXPORT_CONST_INT(LV_COLOR_DEPTH);
  36:c:\projects\paindrain\arduinolcd\test\pain drain\libraries\lvgl\src\misc\lv_color.h **** LV_EXPORT_CONST_INT(LV_COLOR_16_SWAP);
  37:c:\projects\paindrain\arduinolcd\test\pain drain\libraries\lvgl\src\misc\lv_color.h **** 
  38:c:\projects\paindrain\arduinolcd\test\pain drain\libraries\lvgl\src\misc\lv_color.h **** /**
  39:c:\projects\paindrain\arduinolcd\test\pain drain\libraries\lvgl\src\misc\lv_color.h ****  * Opacity percentages.
  40:c:\projects\paindrain\arduinolcd\test\pain drain\libraries\lvgl\src\misc\lv_color.h ****  */
  41:c:\projects\paindrain\arduinolcd\test\pain drain\libraries\lvgl\src\misc\lv_color.h **** enum {
  42:c:\projects\paindrain\arduinolcd\test\pain drain\libraries\lvgl\src\misc\lv_color.h ****     LV_OPA_TRANSP = 0,
  43:c:\projects\paindrain\arduinolcd\test\pain drain\libraries\lvgl\src\misc\lv_color.h ****     LV_OPA_0      = 0,
  44:c:\projects\paindrain\arduinolcd\test\pain drain\libraries\lvgl\src\misc\lv_color.h ****     LV_OPA_10     = 25,
  45:c:\projects\paindrain\arduinolcd\test\pain drain\libraries\lvgl\src\misc\lv_color.h ****     LV_OPA_20     = 51,
  46:c:\projects\paindrain\arduinolcd\test\pain drain\libraries\lvgl\src\misc\lv_color.h ****     LV_OPA_30     = 76,
  47:c:\projects\paindrain\arduinolcd\test\pain drain\libraries\lvgl\src\misc\lv_color.h ****     LV_OPA_40     = 102,
  48:c:\projects\paindrain\arduinolcd\test\pain drain\libraries\lvgl\src\misc\lv_color.h ****     LV_OPA_50     = 127,
  49:c:\projects\paindrain\arduinolcd\test\pain drain\libraries\lvgl\src\misc\lv_color.h ****     LV_OPA_60     = 153,
  50:c:\projects\paindrain\arduinolcd\test\pain drain\libraries\lvgl\src\misc\lv_color.h ****     LV_OPA_70     = 178,
  51:c:\projects\paindrain\arduinolcd\test\pain drain\libraries\lvgl\src\misc\lv_color.h ****     LV_OPA_80     = 204,
  52:c:\projects\paindrain\arduinolcd\test\pain drain\libraries\lvgl\src\misc\lv_color.h ****     LV_OPA_90     = 229,
  53:c:\projects\paindrain\arduinolcd\test\pain drain\libraries\lvgl\src\misc\lv_color.h ****     LV_OPA_100    = 255,
  54:c:\projects\paindrain\arduinolcd\test\pain drain\libraries\lvgl\src\misc\lv_color.h ****     LV_OPA_COVER  = 255,
  55:c:\projects\paindrain\arduinolcd\test\pain drain\libraries\lvgl\src\misc\lv_color.h **** };
  56:c:\projects\paindrain\arduinolcd\test\pain drain\libraries\lvgl\src\misc\lv_color.h **** 
  57:c:\projects\paindrain\arduinolcd\test\pain drain\libraries\lvgl\src\misc\lv_color.h **** #define LV_OPA_MIN 2    /*Opacities below this will be transparent*/
  58:c:\projects\paindrain\arduinolcd\test\pain drain\libraries\lvgl\src\misc\lv_color.h **** #define LV_OPA_MAX 253  /*Opacities above this will fully cover*/
  59:c:\projects\paindrain\arduinolcd\test\pain drain\libraries\lvgl\src\misc\lv_color.h **** 
  60:c:\projects\paindrain\arduinolcd\test\pain drain\libraries\lvgl\src\misc\lv_color.h **** #if LV_COLOR_DEPTH == 1
  61:c:\projects\paindrain\arduinolcd\test\pain drain\libraries\lvgl\src\misc\lv_color.h **** #define LV_COLOR_SIZE 8
  62:c:\projects\paindrain\arduinolcd\test\pain drain\libraries\lvgl\src\misc\lv_color.h **** #elif LV_COLOR_DEPTH == 8
  63:c:\projects\paindrain\arduinolcd\test\pain drain\libraries\lvgl\src\misc\lv_color.h **** #define LV_COLOR_SIZE 8
  64:c:\projects\paindrain\arduinolcd\test\pain drain\libraries\lvgl\src\misc\lv_color.h **** #elif LV_COLOR_DEPTH == 16
  65:c:\projects\paindrain\arduinolcd\test\pain drain\libraries\lvgl\src\misc\lv_color.h **** #define LV_COLOR_SIZE 16
  66:c:\projects\paindrain\arduinolcd\test\pain drain\libraries\lvgl\src\misc\lv_color.h **** #elif LV_COLOR_DEPTH == 32
  67:c:\projects\paindrain\arduinolcd\test\pain drain\libraries\lvgl\src\misc\lv_color.h **** #define LV_COLOR_SIZE 32
  68:c:\projects\paindrain\arduinolcd\test\pain drain\libraries\lvgl\src\misc\lv_color.h **** #else
  69:c:\projects\paindrain\arduinolcd\test\pain drain\libraries\lvgl\src\misc\lv_color.h **** #error "Invalid LV_COLOR_DEPTH in lv_conf.h! Set it to 1, 8, 16 or 32!"
  70:c:\projects\paindrain\arduinolcd\test\pain drain\libraries\lvgl\src\misc\lv_color.h **** #endif
  71:c:\projects\paindrain\arduinolcd\test\pain drain\libraries\lvgl\src\misc\lv_color.h **** 
  72:c:\projects\paindrain\arduinolcd\test\pain drain\libraries\lvgl\src\misc\lv_color.h **** #if defined(__cplusplus) && !defined(_LV_COLOR_HAS_MODERN_CPP)
  73:c:\projects\paindrain\arduinolcd\test\pain drain\libraries\lvgl\src\misc\lv_color.h **** /**
  74:c:\projects\paindrain\arduinolcd\test\pain drain\libraries\lvgl\src\misc\lv_color.h **** * MSVC compiler's definition of the __cplusplus indicating 199711L regardless to C++ standard versi
  75:c:\projects\paindrain\arduinolcd\test\pain drain\libraries\lvgl\src\misc\lv_color.h **** * see https://devblogs.microsoft.com/cppblog/msvc-now-correctly-reports-cplusplus
  76:c:\projects\paindrain\arduinolcd\test\pain drain\libraries\lvgl\src\misc\lv_color.h **** * so we use _MSC_VER macro instead of __cplusplus
  77:c:\projects\paindrain\arduinolcd\test\pain drain\libraries\lvgl\src\misc\lv_color.h **** */
ARM GAS  C:\Users\haske\AppData\Local\Temp\ccoc8x2c.s 			page 8


  78:c:\projects\paindrain\arduinolcd\test\pain drain\libraries\lvgl\src\misc\lv_color.h **** #ifdef _MSC_VER
  79:c:\projects\paindrain\arduinolcd\test\pain drain\libraries\lvgl\src\misc\lv_color.h **** #if _MSC_VER >= 1900 /*Visual Studio 2015*/
  80:c:\projects\paindrain\arduinolcd\test\pain drain\libraries\lvgl\src\misc\lv_color.h **** #define _LV_COLOR_HAS_MODERN_CPP 1
  81:c:\projects\paindrain\arduinolcd\test\pain drain\libraries\lvgl\src\misc\lv_color.h **** #endif
  82:c:\projects\paindrain\arduinolcd\test\pain drain\libraries\lvgl\src\misc\lv_color.h **** #else
  83:c:\projects\paindrain\arduinolcd\test\pain drain\libraries\lvgl\src\misc\lv_color.h **** #if __cplusplus >= 201103L
  84:c:\projects\paindrain\arduinolcd\test\pain drain\libraries\lvgl\src\misc\lv_color.h **** #define _LV_COLOR_HAS_MODERN_CPP 1
  85:c:\projects\paindrain\arduinolcd\test\pain drain\libraries\lvgl\src\misc\lv_color.h **** #endif
  86:c:\projects\paindrain\arduinolcd\test\pain drain\libraries\lvgl\src\misc\lv_color.h **** #endif
  87:c:\projects\paindrain\arduinolcd\test\pain drain\libraries\lvgl\src\misc\lv_color.h **** #endif /*__cplusplus*/
  88:c:\projects\paindrain\arduinolcd\test\pain drain\libraries\lvgl\src\misc\lv_color.h **** 
  89:c:\projects\paindrain\arduinolcd\test\pain drain\libraries\lvgl\src\misc\lv_color.h **** #ifndef _LV_COLOR_HAS_MODERN_CPP
  90:c:\projects\paindrain\arduinolcd\test\pain drain\libraries\lvgl\src\misc\lv_color.h **** #define _LV_COLOR_HAS_MODERN_CPP 0
  91:c:\projects\paindrain\arduinolcd\test\pain drain\libraries\lvgl\src\misc\lv_color.h **** #endif
  92:c:\projects\paindrain\arduinolcd\test\pain drain\libraries\lvgl\src\misc\lv_color.h **** 
  93:c:\projects\paindrain\arduinolcd\test\pain drain\libraries\lvgl\src\misc\lv_color.h **** #if _LV_COLOR_HAS_MODERN_CPP
  94:c:\projects\paindrain\arduinolcd\test\pain drain\libraries\lvgl\src\misc\lv_color.h **** /*Fix msvc compiler error C4576 inside C++ code*/
  95:c:\projects\paindrain\arduinolcd\test\pain drain\libraries\lvgl\src\misc\lv_color.h **** #define _LV_COLOR_MAKE_TYPE_HELPER lv_color_t
  96:c:\projects\paindrain\arduinolcd\test\pain drain\libraries\lvgl\src\misc\lv_color.h **** #else
  97:c:\projects\paindrain\arduinolcd\test\pain drain\libraries\lvgl\src\misc\lv_color.h **** #define _LV_COLOR_MAKE_TYPE_HELPER (lv_color_t)
  98:c:\projects\paindrain\arduinolcd\test\pain drain\libraries\lvgl\src\misc\lv_color.h **** #endif
  99:c:\projects\paindrain\arduinolcd\test\pain drain\libraries\lvgl\src\misc\lv_color.h **** 
 100:c:\projects\paindrain\arduinolcd\test\pain drain\libraries\lvgl\src\misc\lv_color.h **** /*---------------------------------------
 101:c:\projects\paindrain\arduinolcd\test\pain drain\libraries\lvgl\src\misc\lv_color.h ****  * Macros for all existing color depths
 102:c:\projects\paindrain\arduinolcd\test\pain drain\libraries\lvgl\src\misc\lv_color.h ****  * to set/get values of the color channels
 103:c:\projects\paindrain\arduinolcd\test\pain drain\libraries\lvgl\src\misc\lv_color.h ****  *------------------------------------------*/
 104:c:\projects\paindrain\arduinolcd\test\pain drain\libraries\lvgl\src\misc\lv_color.h **** # define LV_COLOR_SET_R1(c, v) (c).ch.red = (uint8_t)((v) & 0x1)
 105:c:\projects\paindrain\arduinolcd\test\pain drain\libraries\lvgl\src\misc\lv_color.h **** # define LV_COLOR_SET_G1(c, v) (c).ch.green = (uint8_t)((v) & 0x1)
 106:c:\projects\paindrain\arduinolcd\test\pain drain\libraries\lvgl\src\misc\lv_color.h **** # define LV_COLOR_SET_B1(c, v) (c).ch.blue = (uint8_t)((v) & 0x1)
 107:c:\projects\paindrain\arduinolcd\test\pain drain\libraries\lvgl\src\misc\lv_color.h **** # define LV_COLOR_SET_A1(c, v) do {} while(0)
 108:c:\projects\paindrain\arduinolcd\test\pain drain\libraries\lvgl\src\misc\lv_color.h **** 
 109:c:\projects\paindrain\arduinolcd\test\pain drain\libraries\lvgl\src\misc\lv_color.h **** # define LV_COLOR_GET_R1(c) (c).ch.red
 110:c:\projects\paindrain\arduinolcd\test\pain drain\libraries\lvgl\src\misc\lv_color.h **** # define LV_COLOR_GET_G1(c) (c).ch.green
 111:c:\projects\paindrain\arduinolcd\test\pain drain\libraries\lvgl\src\misc\lv_color.h **** # define LV_COLOR_GET_B1(c) (c).ch.blue
 112:c:\projects\paindrain\arduinolcd\test\pain drain\libraries\lvgl\src\misc\lv_color.h **** # define LV_COLOR_GET_A1(c) 0xFF
 113:c:\projects\paindrain\arduinolcd\test\pain drain\libraries\lvgl\src\misc\lv_color.h **** 
 114:c:\projects\paindrain\arduinolcd\test\pain drain\libraries\lvgl\src\misc\lv_color.h **** # define _LV_COLOR_ZERO_INITIALIZER1 {0x00}
 115:c:\projects\paindrain\arduinolcd\test\pain drain\libraries\lvgl\src\misc\lv_color.h **** # define LV_COLOR_MAKE1(r8, g8, b8)  {(uint8_t)((b8 >> 7) | (g8 >> 7) | (r8 >> 7))}
 116:c:\projects\paindrain\arduinolcd\test\pain drain\libraries\lvgl\src\misc\lv_color.h **** 
 117:c:\projects\paindrain\arduinolcd\test\pain drain\libraries\lvgl\src\misc\lv_color.h **** # define LV_COLOR_SET_R8(c, v) (c).ch.red = (uint8_t)((v) & 0x7U)
 118:c:\projects\paindrain\arduinolcd\test\pain drain\libraries\lvgl\src\misc\lv_color.h **** # define LV_COLOR_SET_G8(c, v) (c).ch.green = (uint8_t)((v) & 0x7U)
 119:c:\projects\paindrain\arduinolcd\test\pain drain\libraries\lvgl\src\misc\lv_color.h **** # define LV_COLOR_SET_B8(c, v) (c).ch.blue = (uint8_t)((v) & 0x3U)
 120:c:\projects\paindrain\arduinolcd\test\pain drain\libraries\lvgl\src\misc\lv_color.h **** # define LV_COLOR_SET_A8(c, v) do {} while(0)
 121:c:\projects\paindrain\arduinolcd\test\pain drain\libraries\lvgl\src\misc\lv_color.h **** 
 122:c:\projects\paindrain\arduinolcd\test\pain drain\libraries\lvgl\src\misc\lv_color.h **** # define LV_COLOR_GET_R8(c) (c).ch.red
 123:c:\projects\paindrain\arduinolcd\test\pain drain\libraries\lvgl\src\misc\lv_color.h **** # define LV_COLOR_GET_G8(c) (c).ch.green
 124:c:\projects\paindrain\arduinolcd\test\pain drain\libraries\lvgl\src\misc\lv_color.h **** # define LV_COLOR_GET_B8(c) (c).ch.blue
 125:c:\projects\paindrain\arduinolcd\test\pain drain\libraries\lvgl\src\misc\lv_color.h **** # define LV_COLOR_GET_A8(c) 0xFF
 126:c:\projects\paindrain\arduinolcd\test\pain drain\libraries\lvgl\src\misc\lv_color.h **** 
 127:c:\projects\paindrain\arduinolcd\test\pain drain\libraries\lvgl\src\misc\lv_color.h **** # define _LV_COLOR_ZERO_INITIALIZER8 {{0x00, 0x00, 0x00}}
 128:c:\projects\paindrain\arduinolcd\test\pain drain\libraries\lvgl\src\misc\lv_color.h **** # define LV_COLOR_MAKE8(r8, g8, b8) {{(uint8_t)((b8 >> 6) & 0x3U), (uint8_t)((g8 >> 5) & 0x7U), (ui
 129:c:\projects\paindrain\arduinolcd\test\pain drain\libraries\lvgl\src\misc\lv_color.h **** 
 130:c:\projects\paindrain\arduinolcd\test\pain drain\libraries\lvgl\src\misc\lv_color.h **** # define LV_COLOR_SET_R16(c, v) (c).ch.red = (uint8_t)((v) & 0x1FU)
 131:c:\projects\paindrain\arduinolcd\test\pain drain\libraries\lvgl\src\misc\lv_color.h **** #if LV_COLOR_16_SWAP == 0
 132:c:\projects\paindrain\arduinolcd\test\pain drain\libraries\lvgl\src\misc\lv_color.h **** # define LV_COLOR_SET_G16(c, v) (c).ch.green = (uint8_t)((v) & 0x3FU)
 133:c:\projects\paindrain\arduinolcd\test\pain drain\libraries\lvgl\src\misc\lv_color.h **** #else
 134:c:\projects\paindrain\arduinolcd\test\pain drain\libraries\lvgl\src\misc\lv_color.h **** # define LV_COLOR_SET_G16(c, v) {(c).ch.green_h = (uint8_t)(((v) >> 3) & 0x7); (c).ch.green_l = (ui
ARM GAS  C:\Users\haske\AppData\Local\Temp\ccoc8x2c.s 			page 9


 135:c:\projects\paindrain\arduinolcd\test\pain drain\libraries\lvgl\src\misc\lv_color.h **** #endif
 136:c:\projects\paindrain\arduinolcd\test\pain drain\libraries\lvgl\src\misc\lv_color.h **** # define LV_COLOR_SET_B16(c, v) (c).ch.blue = (uint8_t)((v) & 0x1FU)
 137:c:\projects\paindrain\arduinolcd\test\pain drain\libraries\lvgl\src\misc\lv_color.h **** # define LV_COLOR_SET_A16(c, v) do {} while(0)
 138:c:\projects\paindrain\arduinolcd\test\pain drain\libraries\lvgl\src\misc\lv_color.h **** 
 139:c:\projects\paindrain\arduinolcd\test\pain drain\libraries\lvgl\src\misc\lv_color.h **** # define LV_COLOR_GET_R16(c) (c).ch.red
 140:c:\projects\paindrain\arduinolcd\test\pain drain\libraries\lvgl\src\misc\lv_color.h **** #if LV_COLOR_16_SWAP == 0
 141:c:\projects\paindrain\arduinolcd\test\pain drain\libraries\lvgl\src\misc\lv_color.h **** # define LV_COLOR_GET_G16(c) (c).ch.green
 142:c:\projects\paindrain\arduinolcd\test\pain drain\libraries\lvgl\src\misc\lv_color.h **** #else
 143:c:\projects\paindrain\arduinolcd\test\pain drain\libraries\lvgl\src\misc\lv_color.h **** # define LV_COLOR_GET_G16(c) (((c).ch.green_h << 3) + (c).ch.green_l)
 144:c:\projects\paindrain\arduinolcd\test\pain drain\libraries\lvgl\src\misc\lv_color.h **** #endif
 145:c:\projects\paindrain\arduinolcd\test\pain drain\libraries\lvgl\src\misc\lv_color.h **** # define LV_COLOR_GET_B16(c) (c).ch.blue
 146:c:\projects\paindrain\arduinolcd\test\pain drain\libraries\lvgl\src\misc\lv_color.h **** # define LV_COLOR_GET_A16(c) 0xFF
 147:c:\projects\paindrain\arduinolcd\test\pain drain\libraries\lvgl\src\misc\lv_color.h **** 
 148:c:\projects\paindrain\arduinolcd\test\pain drain\libraries\lvgl\src\misc\lv_color.h **** #if LV_COLOR_16_SWAP == 0
 149:c:\projects\paindrain\arduinolcd\test\pain drain\libraries\lvgl\src\misc\lv_color.h **** # define _LV_COLOR_ZERO_INITIALIZER16  {{0x00, 0x00, 0x00}}
 150:c:\projects\paindrain\arduinolcd\test\pain drain\libraries\lvgl\src\misc\lv_color.h **** # define LV_COLOR_MAKE16(r8, g8, b8) {{(uint8_t)((b8 >> 3) & 0x1FU), (uint8_t)((g8 >> 2) & 0x3FU), 
 151:c:\projects\paindrain\arduinolcd\test\pain drain\libraries\lvgl\src\misc\lv_color.h **** #else
 152:c:\projects\paindrain\arduinolcd\test\pain drain\libraries\lvgl\src\misc\lv_color.h **** # define _LV_COLOR_ZERO_INITIALIZER16 {{0x00, 0x00, 0x00, 0x00}}
 153:c:\projects\paindrain\arduinolcd\test\pain drain\libraries\lvgl\src\misc\lv_color.h **** # define LV_COLOR_MAKE16(r8, g8, b8) {{(uint8_t)((g8 >> 5) & 0x7U), (uint8_t)((r8 >> 3) & 0x1FU), (
 154:c:\projects\paindrain\arduinolcd\test\pain drain\libraries\lvgl\src\misc\lv_color.h **** #endif
 155:c:\projects\paindrain\arduinolcd\test\pain drain\libraries\lvgl\src\misc\lv_color.h **** 
 156:c:\projects\paindrain\arduinolcd\test\pain drain\libraries\lvgl\src\misc\lv_color.h **** # define LV_COLOR_SET_R32(c, v) (c).ch.red = (uint8_t)((v) & 0xFF)
 157:c:\projects\paindrain\arduinolcd\test\pain drain\libraries\lvgl\src\misc\lv_color.h **** # define LV_COLOR_SET_G32(c, v) (c).ch.green = (uint8_t)((v) & 0xFF)
 158:c:\projects\paindrain\arduinolcd\test\pain drain\libraries\lvgl\src\misc\lv_color.h **** # define LV_COLOR_SET_B32(c, v) (c).ch.blue = (uint8_t)((v) & 0xFF)
 159:c:\projects\paindrain\arduinolcd\test\pain drain\libraries\lvgl\src\misc\lv_color.h **** # define LV_COLOR_SET_A32(c, v) (c).ch.alpha = (uint8_t)((v) & 0xFF)
 160:c:\projects\paindrain\arduinolcd\test\pain drain\libraries\lvgl\src\misc\lv_color.h **** 
 161:c:\projects\paindrain\arduinolcd\test\pain drain\libraries\lvgl\src\misc\lv_color.h **** # define LV_COLOR_GET_R32(c) (c).ch.red
 162:c:\projects\paindrain\arduinolcd\test\pain drain\libraries\lvgl\src\misc\lv_color.h **** # define LV_COLOR_GET_G32(c) (c).ch.green
 163:c:\projects\paindrain\arduinolcd\test\pain drain\libraries\lvgl\src\misc\lv_color.h **** # define LV_COLOR_GET_B32(c) (c).ch.blue
 164:c:\projects\paindrain\arduinolcd\test\pain drain\libraries\lvgl\src\misc\lv_color.h **** # define LV_COLOR_GET_A32(c) (c).ch.alpha
 165:c:\projects\paindrain\arduinolcd\test\pain drain\libraries\lvgl\src\misc\lv_color.h **** 
 166:c:\projects\paindrain\arduinolcd\test\pain drain\libraries\lvgl\src\misc\lv_color.h **** # define _LV_COLOR_ZERO_INITIALIZER32  {{0x00, 0x00, 0x00, 0x00}}
 167:c:\projects\paindrain\arduinolcd\test\pain drain\libraries\lvgl\src\misc\lv_color.h **** # define LV_COLOR_MAKE32(r8, g8, b8) {{b8, g8, r8, 0xff}} /*Fix 0xff alpha*/
 168:c:\projects\paindrain\arduinolcd\test\pain drain\libraries\lvgl\src\misc\lv_color.h **** 
 169:c:\projects\paindrain\arduinolcd\test\pain drain\libraries\lvgl\src\misc\lv_color.h **** /*---------------------------------------
 170:c:\projects\paindrain\arduinolcd\test\pain drain\libraries\lvgl\src\misc\lv_color.h ****  * Macros for the current color depth
 171:c:\projects\paindrain\arduinolcd\test\pain drain\libraries\lvgl\src\misc\lv_color.h ****  * to set/get values of the color channels
 172:c:\projects\paindrain\arduinolcd\test\pain drain\libraries\lvgl\src\misc\lv_color.h ****  *------------------------------------------*/
 173:c:\projects\paindrain\arduinolcd\test\pain drain\libraries\lvgl\src\misc\lv_color.h **** #define LV_COLOR_SET_R(c, v) LV_CONCAT(LV_COLOR_SET_R, LV_COLOR_DEPTH)(c, v)
 174:c:\projects\paindrain\arduinolcd\test\pain drain\libraries\lvgl\src\misc\lv_color.h **** #define LV_COLOR_SET_G(c, v) LV_CONCAT(LV_COLOR_SET_G, LV_COLOR_DEPTH)(c, v)
 175:c:\projects\paindrain\arduinolcd\test\pain drain\libraries\lvgl\src\misc\lv_color.h **** #define LV_COLOR_SET_B(c, v) LV_CONCAT(LV_COLOR_SET_B, LV_COLOR_DEPTH)(c, v)
 176:c:\projects\paindrain\arduinolcd\test\pain drain\libraries\lvgl\src\misc\lv_color.h **** #define LV_COLOR_SET_A(c, v) LV_CONCAT(LV_COLOR_SET_A, LV_COLOR_DEPTH)(c, v)
 177:c:\projects\paindrain\arduinolcd\test\pain drain\libraries\lvgl\src\misc\lv_color.h **** 
 178:c:\projects\paindrain\arduinolcd\test\pain drain\libraries\lvgl\src\misc\lv_color.h **** #define LV_COLOR_GET_R(c) LV_CONCAT(LV_COLOR_GET_R, LV_COLOR_DEPTH)(c)
 179:c:\projects\paindrain\arduinolcd\test\pain drain\libraries\lvgl\src\misc\lv_color.h **** #define LV_COLOR_GET_G(c) LV_CONCAT(LV_COLOR_GET_G, LV_COLOR_DEPTH)(c)
 180:c:\projects\paindrain\arduinolcd\test\pain drain\libraries\lvgl\src\misc\lv_color.h **** #define LV_COLOR_GET_B(c) LV_CONCAT(LV_COLOR_GET_B, LV_COLOR_DEPTH)(c)
 181:c:\projects\paindrain\arduinolcd\test\pain drain\libraries\lvgl\src\misc\lv_color.h **** #define LV_COLOR_GET_A(c) LV_CONCAT(LV_COLOR_GET_A, LV_COLOR_DEPTH)(c)
 182:c:\projects\paindrain\arduinolcd\test\pain drain\libraries\lvgl\src\misc\lv_color.h **** 
 183:c:\projects\paindrain\arduinolcd\test\pain drain\libraries\lvgl\src\misc\lv_color.h **** #define _LV_COLOR_ZERO_INITIALIZER LV_CONCAT(_LV_COLOR_ZERO_INITIALIZER, LV_COLOR_DEPTH)
 184:c:\projects\paindrain\arduinolcd\test\pain drain\libraries\lvgl\src\misc\lv_color.h **** #define LV_COLOR_MAKE(r8, g8, b8) LV_CONCAT(LV_COLOR_MAKE, LV_COLOR_DEPTH)(r8, g8, b8)
 185:c:\projects\paindrain\arduinolcd\test\pain drain\libraries\lvgl\src\misc\lv_color.h **** 
 186:c:\projects\paindrain\arduinolcd\test\pain drain\libraries\lvgl\src\misc\lv_color.h **** /**********************
 187:c:\projects\paindrain\arduinolcd\test\pain drain\libraries\lvgl\src\misc\lv_color.h ****  *      TYPEDEFS
 188:c:\projects\paindrain\arduinolcd\test\pain drain\libraries\lvgl\src\misc\lv_color.h ****  **********************/
 189:c:\projects\paindrain\arduinolcd\test\pain drain\libraries\lvgl\src\misc\lv_color.h **** 
 190:c:\projects\paindrain\arduinolcd\test\pain drain\libraries\lvgl\src\misc\lv_color.h **** typedef union {
 191:c:\projects\paindrain\arduinolcd\test\pain drain\libraries\lvgl\src\misc\lv_color.h ****     uint8_t full; /*must be declared first to set all bits of byte via initializer list*/
ARM GAS  C:\Users\haske\AppData\Local\Temp\ccoc8x2c.s 			page 10


 192:c:\projects\paindrain\arduinolcd\test\pain drain\libraries\lvgl\src\misc\lv_color.h ****     union {
 193:c:\projects\paindrain\arduinolcd\test\pain drain\libraries\lvgl\src\misc\lv_color.h ****         uint8_t blue : 1;
 194:c:\projects\paindrain\arduinolcd\test\pain drain\libraries\lvgl\src\misc\lv_color.h ****         uint8_t green : 1;
 195:c:\projects\paindrain\arduinolcd\test\pain drain\libraries\lvgl\src\misc\lv_color.h ****         uint8_t red : 1;
 196:c:\projects\paindrain\arduinolcd\test\pain drain\libraries\lvgl\src\misc\lv_color.h ****     } ch;
 197:c:\projects\paindrain\arduinolcd\test\pain drain\libraries\lvgl\src\misc\lv_color.h **** } lv_color1_t;
 198:c:\projects\paindrain\arduinolcd\test\pain drain\libraries\lvgl\src\misc\lv_color.h **** 
 199:c:\projects\paindrain\arduinolcd\test\pain drain\libraries\lvgl\src\misc\lv_color.h **** typedef union {
 200:c:\projects\paindrain\arduinolcd\test\pain drain\libraries\lvgl\src\misc\lv_color.h ****     struct {
 201:c:\projects\paindrain\arduinolcd\test\pain drain\libraries\lvgl\src\misc\lv_color.h ****         uint8_t blue : 2;
 202:c:\projects\paindrain\arduinolcd\test\pain drain\libraries\lvgl\src\misc\lv_color.h ****         uint8_t green : 3;
 203:c:\projects\paindrain\arduinolcd\test\pain drain\libraries\lvgl\src\misc\lv_color.h ****         uint8_t red : 3;
 204:c:\projects\paindrain\arduinolcd\test\pain drain\libraries\lvgl\src\misc\lv_color.h ****     } ch;
 205:c:\projects\paindrain\arduinolcd\test\pain drain\libraries\lvgl\src\misc\lv_color.h ****     uint8_t full;
 206:c:\projects\paindrain\arduinolcd\test\pain drain\libraries\lvgl\src\misc\lv_color.h **** } lv_color8_t;
 207:c:\projects\paindrain\arduinolcd\test\pain drain\libraries\lvgl\src\misc\lv_color.h **** 
 208:c:\projects\paindrain\arduinolcd\test\pain drain\libraries\lvgl\src\misc\lv_color.h **** typedef union {
 209:c:\projects\paindrain\arduinolcd\test\pain drain\libraries\lvgl\src\misc\lv_color.h ****     struct {
 210:c:\projects\paindrain\arduinolcd\test\pain drain\libraries\lvgl\src\misc\lv_color.h **** #if LV_COLOR_16_SWAP == 0
 211:c:\projects\paindrain\arduinolcd\test\pain drain\libraries\lvgl\src\misc\lv_color.h ****         uint16_t blue : 5;
 212:c:\projects\paindrain\arduinolcd\test\pain drain\libraries\lvgl\src\misc\lv_color.h ****         uint16_t green : 6;
 213:c:\projects\paindrain\arduinolcd\test\pain drain\libraries\lvgl\src\misc\lv_color.h ****         uint16_t red : 5;
 214:c:\projects\paindrain\arduinolcd\test\pain drain\libraries\lvgl\src\misc\lv_color.h **** #else
 215:c:\projects\paindrain\arduinolcd\test\pain drain\libraries\lvgl\src\misc\lv_color.h ****         uint16_t green_h : 3;
 216:c:\projects\paindrain\arduinolcd\test\pain drain\libraries\lvgl\src\misc\lv_color.h ****         uint16_t red : 5;
 217:c:\projects\paindrain\arduinolcd\test\pain drain\libraries\lvgl\src\misc\lv_color.h ****         uint16_t blue : 5;
 218:c:\projects\paindrain\arduinolcd\test\pain drain\libraries\lvgl\src\misc\lv_color.h ****         uint16_t green_l : 3;
 219:c:\projects\paindrain\arduinolcd\test\pain drain\libraries\lvgl\src\misc\lv_color.h **** #endif
 220:c:\projects\paindrain\arduinolcd\test\pain drain\libraries\lvgl\src\misc\lv_color.h ****     } ch;
 221:c:\projects\paindrain\arduinolcd\test\pain drain\libraries\lvgl\src\misc\lv_color.h ****     uint16_t full;
 222:c:\projects\paindrain\arduinolcd\test\pain drain\libraries\lvgl\src\misc\lv_color.h **** } lv_color16_t;
 223:c:\projects\paindrain\arduinolcd\test\pain drain\libraries\lvgl\src\misc\lv_color.h **** 
 224:c:\projects\paindrain\arduinolcd\test\pain drain\libraries\lvgl\src\misc\lv_color.h **** typedef union {
 225:c:\projects\paindrain\arduinolcd\test\pain drain\libraries\lvgl\src\misc\lv_color.h ****     struct {
 226:c:\projects\paindrain\arduinolcd\test\pain drain\libraries\lvgl\src\misc\lv_color.h ****         uint8_t blue;
 227:c:\projects\paindrain\arduinolcd\test\pain drain\libraries\lvgl\src\misc\lv_color.h ****         uint8_t green;
 228:c:\projects\paindrain\arduinolcd\test\pain drain\libraries\lvgl\src\misc\lv_color.h ****         uint8_t red;
 229:c:\projects\paindrain\arduinolcd\test\pain drain\libraries\lvgl\src\misc\lv_color.h ****         uint8_t alpha;
 230:c:\projects\paindrain\arduinolcd\test\pain drain\libraries\lvgl\src\misc\lv_color.h ****     } ch;
 231:c:\projects\paindrain\arduinolcd\test\pain drain\libraries\lvgl\src\misc\lv_color.h ****     uint32_t full;
 232:c:\projects\paindrain\arduinolcd\test\pain drain\libraries\lvgl\src\misc\lv_color.h **** } lv_color32_t;
 233:c:\projects\paindrain\arduinolcd\test\pain drain\libraries\lvgl\src\misc\lv_color.h **** 
 234:c:\projects\paindrain\arduinolcd\test\pain drain\libraries\lvgl\src\misc\lv_color.h **** typedef LV_CONCAT3(uint, LV_COLOR_SIZE, _t) lv_color_int_t;
 235:c:\projects\paindrain\arduinolcd\test\pain drain\libraries\lvgl\src\misc\lv_color.h **** typedef LV_CONCAT3(lv_color, LV_COLOR_DEPTH, _t) lv_color_t;
 236:c:\projects\paindrain\arduinolcd\test\pain drain\libraries\lvgl\src\misc\lv_color.h **** 
 237:c:\projects\paindrain\arduinolcd\test\pain drain\libraries\lvgl\src\misc\lv_color.h **** typedef struct {
 238:c:\projects\paindrain\arduinolcd\test\pain drain\libraries\lvgl\src\misc\lv_color.h ****     uint16_t h;
 239:c:\projects\paindrain\arduinolcd\test\pain drain\libraries\lvgl\src\misc\lv_color.h ****     uint8_t s;
 240:c:\projects\paindrain\arduinolcd\test\pain drain\libraries\lvgl\src\misc\lv_color.h ****     uint8_t v;
 241:c:\projects\paindrain\arduinolcd\test\pain drain\libraries\lvgl\src\misc\lv_color.h **** } lv_color_hsv_t;
 242:c:\projects\paindrain\arduinolcd\test\pain drain\libraries\lvgl\src\misc\lv_color.h **** 
 243:c:\projects\paindrain\arduinolcd\test\pain drain\libraries\lvgl\src\misc\lv_color.h **** //! @cond Doxygen_Suppress
 244:c:\projects\paindrain\arduinolcd\test\pain drain\libraries\lvgl\src\misc\lv_color.h **** /*No idea where the guard is required but else throws warnings in the docs*/
 245:c:\projects\paindrain\arduinolcd\test\pain drain\libraries\lvgl\src\misc\lv_color.h **** typedef uint8_t lv_opa_t;
 246:c:\projects\paindrain\arduinolcd\test\pain drain\libraries\lvgl\src\misc\lv_color.h **** //! @endcond
 247:c:\projects\paindrain\arduinolcd\test\pain drain\libraries\lvgl\src\misc\lv_color.h **** 
 248:c:\projects\paindrain\arduinolcd\test\pain drain\libraries\lvgl\src\misc\lv_color.h **** struct _lv_color_filter_dsc_t;
ARM GAS  C:\Users\haske\AppData\Local\Temp\ccoc8x2c.s 			page 11


 249:c:\projects\paindrain\arduinolcd\test\pain drain\libraries\lvgl\src\misc\lv_color.h **** 
 250:c:\projects\paindrain\arduinolcd\test\pain drain\libraries\lvgl\src\misc\lv_color.h **** typedef lv_color_t (*lv_color_filter_cb_t)(const struct _lv_color_filter_dsc_t *, lv_color_t, lv_op
 251:c:\projects\paindrain\arduinolcd\test\pain drain\libraries\lvgl\src\misc\lv_color.h **** 
 252:c:\projects\paindrain\arduinolcd\test\pain drain\libraries\lvgl\src\misc\lv_color.h **** typedef struct _lv_color_filter_dsc_t {
 253:c:\projects\paindrain\arduinolcd\test\pain drain\libraries\lvgl\src\misc\lv_color.h ****     lv_color_filter_cb_t filter_cb;
 254:c:\projects\paindrain\arduinolcd\test\pain drain\libraries\lvgl\src\misc\lv_color.h ****     void * user_data;
 255:c:\projects\paindrain\arduinolcd\test\pain drain\libraries\lvgl\src\misc\lv_color.h **** } lv_color_filter_dsc_t;
 256:c:\projects\paindrain\arduinolcd\test\pain drain\libraries\lvgl\src\misc\lv_color.h **** 
 257:c:\projects\paindrain\arduinolcd\test\pain drain\libraries\lvgl\src\misc\lv_color.h **** 
 258:c:\projects\paindrain\arduinolcd\test\pain drain\libraries\lvgl\src\misc\lv_color.h **** typedef enum {
 259:c:\projects\paindrain\arduinolcd\test\pain drain\libraries\lvgl\src\misc\lv_color.h ****     LV_PALETTE_RED,
 260:c:\projects\paindrain\arduinolcd\test\pain drain\libraries\lvgl\src\misc\lv_color.h ****     LV_PALETTE_PINK,
 261:c:\projects\paindrain\arduinolcd\test\pain drain\libraries\lvgl\src\misc\lv_color.h ****     LV_PALETTE_PURPLE,
 262:c:\projects\paindrain\arduinolcd\test\pain drain\libraries\lvgl\src\misc\lv_color.h ****     LV_PALETTE_DEEP_PURPLE,
 263:c:\projects\paindrain\arduinolcd\test\pain drain\libraries\lvgl\src\misc\lv_color.h ****     LV_PALETTE_INDIGO,
 264:c:\projects\paindrain\arduinolcd\test\pain drain\libraries\lvgl\src\misc\lv_color.h ****     LV_PALETTE_BLUE,
 265:c:\projects\paindrain\arduinolcd\test\pain drain\libraries\lvgl\src\misc\lv_color.h ****     LV_PALETTE_LIGHT_BLUE,
 266:c:\projects\paindrain\arduinolcd\test\pain drain\libraries\lvgl\src\misc\lv_color.h ****     LV_PALETTE_CYAN,
 267:c:\projects\paindrain\arduinolcd\test\pain drain\libraries\lvgl\src\misc\lv_color.h ****     LV_PALETTE_TEAL,
 268:c:\projects\paindrain\arduinolcd\test\pain drain\libraries\lvgl\src\misc\lv_color.h ****     LV_PALETTE_GREEN,
 269:c:\projects\paindrain\arduinolcd\test\pain drain\libraries\lvgl\src\misc\lv_color.h ****     LV_PALETTE_LIGHT_GREEN,
 270:c:\projects\paindrain\arduinolcd\test\pain drain\libraries\lvgl\src\misc\lv_color.h ****     LV_PALETTE_LIME,
 271:c:\projects\paindrain\arduinolcd\test\pain drain\libraries\lvgl\src\misc\lv_color.h ****     LV_PALETTE_YELLOW,
 272:c:\projects\paindrain\arduinolcd\test\pain drain\libraries\lvgl\src\misc\lv_color.h ****     LV_PALETTE_AMBER,
 273:c:\projects\paindrain\arduinolcd\test\pain drain\libraries\lvgl\src\misc\lv_color.h ****     LV_PALETTE_ORANGE,
 274:c:\projects\paindrain\arduinolcd\test\pain drain\libraries\lvgl\src\misc\lv_color.h ****     LV_PALETTE_DEEP_ORANGE,
 275:c:\projects\paindrain\arduinolcd\test\pain drain\libraries\lvgl\src\misc\lv_color.h ****     LV_PALETTE_BROWN,
 276:c:\projects\paindrain\arduinolcd\test\pain drain\libraries\lvgl\src\misc\lv_color.h ****     LV_PALETTE_BLUE_GREY,
 277:c:\projects\paindrain\arduinolcd\test\pain drain\libraries\lvgl\src\misc\lv_color.h ****     LV_PALETTE_GREY,
 278:c:\projects\paindrain\arduinolcd\test\pain drain\libraries\lvgl\src\misc\lv_color.h ****     _LV_PALETTE_LAST,
 279:c:\projects\paindrain\arduinolcd\test\pain drain\libraries\lvgl\src\misc\lv_color.h ****     LV_PALETTE_NONE = 0xff,
 280:c:\projects\paindrain\arduinolcd\test\pain drain\libraries\lvgl\src\misc\lv_color.h **** } lv_palette_t;
 281:c:\projects\paindrain\arduinolcd\test\pain drain\libraries\lvgl\src\misc\lv_color.h **** 
 282:c:\projects\paindrain\arduinolcd\test\pain drain\libraries\lvgl\src\misc\lv_color.h **** /**********************
 283:c:\projects\paindrain\arduinolcd\test\pain drain\libraries\lvgl\src\misc\lv_color.h ****  * GLOBAL PROTOTYPES
 284:c:\projects\paindrain\arduinolcd\test\pain drain\libraries\lvgl\src\misc\lv_color.h ****  **********************/
 285:c:\projects\paindrain\arduinolcd\test\pain drain\libraries\lvgl\src\misc\lv_color.h **** 
 286:c:\projects\paindrain\arduinolcd\test\pain drain\libraries\lvgl\src\misc\lv_color.h **** /*In color conversations:
 287:c:\projects\paindrain\arduinolcd\test\pain drain\libraries\lvgl\src\misc\lv_color.h ****  * - When converting to bigger color type the LSB weight of 1 LSB is calculated
 288:c:\projects\paindrain\arduinolcd\test\pain drain\libraries\lvgl\src\misc\lv_color.h ****  *   E.g. 16 bit Red has 5 bits
 289:c:\projects\paindrain\arduinolcd\test\pain drain\libraries\lvgl\src\misc\lv_color.h ****  *         8 bit Red has 3 bits
 290:c:\projects\paindrain\arduinolcd\test\pain drain\libraries\lvgl\src\misc\lv_color.h ****  *        ----------------------
 291:c:\projects\paindrain\arduinolcd\test\pain drain\libraries\lvgl\src\misc\lv_color.h ****  *        8 bit red LSB = (2^5 - 1) / (2^3 - 1) = 31 / 7 = 4
 292:c:\projects\paindrain\arduinolcd\test\pain drain\libraries\lvgl\src\misc\lv_color.h ****  *
 293:c:\projects\paindrain\arduinolcd\test\pain drain\libraries\lvgl\src\misc\lv_color.h ****  * - When calculating to smaller color type simply shift out the LSBs
 294:c:\projects\paindrain\arduinolcd\test\pain drain\libraries\lvgl\src\misc\lv_color.h ****  *   E.g.  8 bit Red has 3 bits
 295:c:\projects\paindrain\arduinolcd\test\pain drain\libraries\lvgl\src\misc\lv_color.h ****  *        16 bit Red has 5 bits
 296:c:\projects\paindrain\arduinolcd\test\pain drain\libraries\lvgl\src\misc\lv_color.h ****  *        ----------------------
 297:c:\projects\paindrain\arduinolcd\test\pain drain\libraries\lvgl\src\misc\lv_color.h ****  *         Shift right with 5 - 3 = 2
 298:c:\projects\paindrain\arduinolcd\test\pain drain\libraries\lvgl\src\misc\lv_color.h ****  */
 299:c:\projects\paindrain\arduinolcd\test\pain drain\libraries\lvgl\src\misc\lv_color.h **** static inline uint8_t lv_color_to1(lv_color_t color)
 300:c:\projects\paindrain\arduinolcd\test\pain drain\libraries\lvgl\src\misc\lv_color.h **** {
 301:c:\projects\paindrain\arduinolcd\test\pain drain\libraries\lvgl\src\misc\lv_color.h **** #if LV_COLOR_DEPTH == 1
 302:c:\projects\paindrain\arduinolcd\test\pain drain\libraries\lvgl\src\misc\lv_color.h ****     return color.full;
 303:c:\projects\paindrain\arduinolcd\test\pain drain\libraries\lvgl\src\misc\lv_color.h **** #elif LV_COLOR_DEPTH == 8
 304:c:\projects\paindrain\arduinolcd\test\pain drain\libraries\lvgl\src\misc\lv_color.h ****     if((LV_COLOR_GET_R(color) & 0x4) || (LV_COLOR_GET_G(color) & 0x4) || (LV_COLOR_GET_B(color) & 0
 305:c:\projects\paindrain\arduinolcd\test\pain drain\libraries\lvgl\src\misc\lv_color.h ****         return 1;
ARM GAS  C:\Users\haske\AppData\Local\Temp\ccoc8x2c.s 			page 12


 306:c:\projects\paindrain\arduinolcd\test\pain drain\libraries\lvgl\src\misc\lv_color.h ****     }
 307:c:\projects\paindrain\arduinolcd\test\pain drain\libraries\lvgl\src\misc\lv_color.h ****     else {
 308:c:\projects\paindrain\arduinolcd\test\pain drain\libraries\lvgl\src\misc\lv_color.h ****         return 0;
 309:c:\projects\paindrain\arduinolcd\test\pain drain\libraries\lvgl\src\misc\lv_color.h ****     }
 310:c:\projects\paindrain\arduinolcd\test\pain drain\libraries\lvgl\src\misc\lv_color.h **** #elif LV_COLOR_DEPTH == 16
 311:c:\projects\paindrain\arduinolcd\test\pain drain\libraries\lvgl\src\misc\lv_color.h ****     if((LV_COLOR_GET_R(color) & 0x10) || (LV_COLOR_GET_G(color) & 0x20) || (LV_COLOR_GET_B(color) &
 312:c:\projects\paindrain\arduinolcd\test\pain drain\libraries\lvgl\src\misc\lv_color.h ****         return 1;
 313:c:\projects\paindrain\arduinolcd\test\pain drain\libraries\lvgl\src\misc\lv_color.h ****     }
 314:c:\projects\paindrain\arduinolcd\test\pain drain\libraries\lvgl\src\misc\lv_color.h ****     else {
 315:c:\projects\paindrain\arduinolcd\test\pain drain\libraries\lvgl\src\misc\lv_color.h ****         return 0;
 316:c:\projects\paindrain\arduinolcd\test\pain drain\libraries\lvgl\src\misc\lv_color.h ****     }
 317:c:\projects\paindrain\arduinolcd\test\pain drain\libraries\lvgl\src\misc\lv_color.h **** #elif LV_COLOR_DEPTH == 32
 318:c:\projects\paindrain\arduinolcd\test\pain drain\libraries\lvgl\src\misc\lv_color.h ****     if((LV_COLOR_GET_R(color) & 0x80) || (LV_COLOR_GET_G(color) & 0x80) || (LV_COLOR_GET_B(color) &
 319:c:\projects\paindrain\arduinolcd\test\pain drain\libraries\lvgl\src\misc\lv_color.h ****         return 1;
 320:c:\projects\paindrain\arduinolcd\test\pain drain\libraries\lvgl\src\misc\lv_color.h ****     }
 321:c:\projects\paindrain\arduinolcd\test\pain drain\libraries\lvgl\src\misc\lv_color.h ****     else {
 322:c:\projects\paindrain\arduinolcd\test\pain drain\libraries\lvgl\src\misc\lv_color.h ****         return 0;
 323:c:\projects\paindrain\arduinolcd\test\pain drain\libraries\lvgl\src\misc\lv_color.h ****     }
 324:c:\projects\paindrain\arduinolcd\test\pain drain\libraries\lvgl\src\misc\lv_color.h **** #endif
 325:c:\projects\paindrain\arduinolcd\test\pain drain\libraries\lvgl\src\misc\lv_color.h **** }
 326:c:\projects\paindrain\arduinolcd\test\pain drain\libraries\lvgl\src\misc\lv_color.h **** 
 327:c:\projects\paindrain\arduinolcd\test\pain drain\libraries\lvgl\src\misc\lv_color.h **** static inline uint8_t lv_color_to8(lv_color_t color)
 328:c:\projects\paindrain\arduinolcd\test\pain drain\libraries\lvgl\src\misc\lv_color.h **** {
 329:c:\projects\paindrain\arduinolcd\test\pain drain\libraries\lvgl\src\misc\lv_color.h **** #if LV_COLOR_DEPTH == 1
 330:c:\projects\paindrain\arduinolcd\test\pain drain\libraries\lvgl\src\misc\lv_color.h ****     if(color.full == 0)
 331:c:\projects\paindrain\arduinolcd\test\pain drain\libraries\lvgl\src\misc\lv_color.h ****         return 0;
 332:c:\projects\paindrain\arduinolcd\test\pain drain\libraries\lvgl\src\misc\lv_color.h ****     else
 333:c:\projects\paindrain\arduinolcd\test\pain drain\libraries\lvgl\src\misc\lv_color.h ****         return 0xFF;
 334:c:\projects\paindrain\arduinolcd\test\pain drain\libraries\lvgl\src\misc\lv_color.h **** #elif LV_COLOR_DEPTH == 8
 335:c:\projects\paindrain\arduinolcd\test\pain drain\libraries\lvgl\src\misc\lv_color.h ****     return color.full;
 336:c:\projects\paindrain\arduinolcd\test\pain drain\libraries\lvgl\src\misc\lv_color.h **** #elif LV_COLOR_DEPTH == 16
 337:c:\projects\paindrain\arduinolcd\test\pain drain\libraries\lvgl\src\misc\lv_color.h ****     lv_color8_t ret;
 338:c:\projects\paindrain\arduinolcd\test\pain drain\libraries\lvgl\src\misc\lv_color.h ****     LV_COLOR_SET_R8(ret, LV_COLOR_GET_R(color) >> 2); /*5 - 3  = 2*/
 339:c:\projects\paindrain\arduinolcd\test\pain drain\libraries\lvgl\src\misc\lv_color.h ****     LV_COLOR_SET_G8(ret, LV_COLOR_GET_G(color) >> 3); /*6 - 3  = 3*/
 340:c:\projects\paindrain\arduinolcd\test\pain drain\libraries\lvgl\src\misc\lv_color.h ****     LV_COLOR_SET_B8(ret, LV_COLOR_GET_B(color) >> 3); /*5 - 2  = 3*/
 341:c:\projects\paindrain\arduinolcd\test\pain drain\libraries\lvgl\src\misc\lv_color.h ****     return ret.full;
 342:c:\projects\paindrain\arduinolcd\test\pain drain\libraries\lvgl\src\misc\lv_color.h **** #elif LV_COLOR_DEPTH == 32
 343:c:\projects\paindrain\arduinolcd\test\pain drain\libraries\lvgl\src\misc\lv_color.h ****     lv_color8_t ret;
 344:c:\projects\paindrain\arduinolcd\test\pain drain\libraries\lvgl\src\misc\lv_color.h ****     LV_COLOR_SET_R8(ret, LV_COLOR_GET_R(color) >> 5); /*8 - 3  = 5*/
 345:c:\projects\paindrain\arduinolcd\test\pain drain\libraries\lvgl\src\misc\lv_color.h ****     LV_COLOR_SET_G8(ret, LV_COLOR_GET_G(color) >> 5); /*8 - 3  = 5*/
 346:c:\projects\paindrain\arduinolcd\test\pain drain\libraries\lvgl\src\misc\lv_color.h ****     LV_COLOR_SET_B8(ret, LV_COLOR_GET_B(color) >> 6); /*8 - 2  = 6*/
 347:c:\projects\paindrain\arduinolcd\test\pain drain\libraries\lvgl\src\misc\lv_color.h ****     return ret.full;
 348:c:\projects\paindrain\arduinolcd\test\pain drain\libraries\lvgl\src\misc\lv_color.h **** #endif
 349:c:\projects\paindrain\arduinolcd\test\pain drain\libraries\lvgl\src\misc\lv_color.h **** }
 350:c:\projects\paindrain\arduinolcd\test\pain drain\libraries\lvgl\src\misc\lv_color.h **** 
 351:c:\projects\paindrain\arduinolcd\test\pain drain\libraries\lvgl\src\misc\lv_color.h **** static inline uint16_t lv_color_to16(lv_color_t color)
 352:c:\projects\paindrain\arduinolcd\test\pain drain\libraries\lvgl\src\misc\lv_color.h **** {
 353:c:\projects\paindrain\arduinolcd\test\pain drain\libraries\lvgl\src\misc\lv_color.h **** #if LV_COLOR_DEPTH == 1
 354:c:\projects\paindrain\arduinolcd\test\pain drain\libraries\lvgl\src\misc\lv_color.h ****     if(color.full == 0)
 355:c:\projects\paindrain\arduinolcd\test\pain drain\libraries\lvgl\src\misc\lv_color.h ****         return 0;
 356:c:\projects\paindrain\arduinolcd\test\pain drain\libraries\lvgl\src\misc\lv_color.h ****     else
 357:c:\projects\paindrain\arduinolcd\test\pain drain\libraries\lvgl\src\misc\lv_color.h ****         return 0xFFFF;
 358:c:\projects\paindrain\arduinolcd\test\pain drain\libraries\lvgl\src\misc\lv_color.h **** #elif LV_COLOR_DEPTH == 8
 359:c:\projects\paindrain\arduinolcd\test\pain drain\libraries\lvgl\src\misc\lv_color.h ****     lv_color16_t ret;
 360:c:\projects\paindrain\arduinolcd\test\pain drain\libraries\lvgl\src\misc\lv_color.h ****     LV_COLOR_SET_R16(ret, LV_COLOR_GET_R(color) * 4);  /*(2^5 - 1)/(2^3 - 1) = 31/7 = 4*/
 361:c:\projects\paindrain\arduinolcd\test\pain drain\libraries\lvgl\src\misc\lv_color.h ****     LV_COLOR_SET_G16(ret, LV_COLOR_GET_G(color) * 9);  /*(2^6 - 1)/(2^3 - 1) = 63/7 = 9*/
 362:c:\projects\paindrain\arduinolcd\test\pain drain\libraries\lvgl\src\misc\lv_color.h ****     LV_COLOR_SET_B16(ret, LV_COLOR_GET_B(color) * 10); /*(2^5 - 1)/(2^2 - 1) = 31/3 = 10*/
ARM GAS  C:\Users\haske\AppData\Local\Temp\ccoc8x2c.s 			page 13


 363:c:\projects\paindrain\arduinolcd\test\pain drain\libraries\lvgl\src\misc\lv_color.h ****     return ret.full;
 364:c:\projects\paindrain\arduinolcd\test\pain drain\libraries\lvgl\src\misc\lv_color.h **** #elif LV_COLOR_DEPTH == 16
 365:c:\projects\paindrain\arduinolcd\test\pain drain\libraries\lvgl\src\misc\lv_color.h ****     return color.full;
 366:c:\projects\paindrain\arduinolcd\test\pain drain\libraries\lvgl\src\misc\lv_color.h **** #elif LV_COLOR_DEPTH == 32
 367:c:\projects\paindrain\arduinolcd\test\pain drain\libraries\lvgl\src\misc\lv_color.h ****     lv_color16_t ret;
 368:c:\projects\paindrain\arduinolcd\test\pain drain\libraries\lvgl\src\misc\lv_color.h ****     LV_COLOR_SET_R16(ret, LV_COLOR_GET_R(color) >> 3); /*8 - 5  = 3*/
 369:c:\projects\paindrain\arduinolcd\test\pain drain\libraries\lvgl\src\misc\lv_color.h ****     LV_COLOR_SET_G16(ret, LV_COLOR_GET_G(color) >> 2); /*8 - 6  = 2*/
 370:c:\projects\paindrain\arduinolcd\test\pain drain\libraries\lvgl\src\misc\lv_color.h ****     LV_COLOR_SET_B16(ret, LV_COLOR_GET_B(color) >> 3); /*8 - 5  = 3*/
 371:c:\projects\paindrain\arduinolcd\test\pain drain\libraries\lvgl\src\misc\lv_color.h ****     return ret.full;
 372:c:\projects\paindrain\arduinolcd\test\pain drain\libraries\lvgl\src\misc\lv_color.h **** #endif
 373:c:\projects\paindrain\arduinolcd\test\pain drain\libraries\lvgl\src\misc\lv_color.h **** }
 374:c:\projects\paindrain\arduinolcd\test\pain drain\libraries\lvgl\src\misc\lv_color.h **** 
 375:c:\projects\paindrain\arduinolcd\test\pain drain\libraries\lvgl\src\misc\lv_color.h **** static inline uint32_t lv_color_to32(lv_color_t color)
 376:c:\projects\paindrain\arduinolcd\test\pain drain\libraries\lvgl\src\misc\lv_color.h **** {
 377:c:\projects\paindrain\arduinolcd\test\pain drain\libraries\lvgl\src\misc\lv_color.h **** #if LV_COLOR_DEPTH == 1
 378:c:\projects\paindrain\arduinolcd\test\pain drain\libraries\lvgl\src\misc\lv_color.h ****     if(color.full == 0)
 379:c:\projects\paindrain\arduinolcd\test\pain drain\libraries\lvgl\src\misc\lv_color.h ****         return 0xFF000000;
 380:c:\projects\paindrain\arduinolcd\test\pain drain\libraries\lvgl\src\misc\lv_color.h ****     else
 381:c:\projects\paindrain\arduinolcd\test\pain drain\libraries\lvgl\src\misc\lv_color.h ****         return 0xFFFFFFFF;
 382:c:\projects\paindrain\arduinolcd\test\pain drain\libraries\lvgl\src\misc\lv_color.h **** #elif LV_COLOR_DEPTH == 8
 383:c:\projects\paindrain\arduinolcd\test\pain drain\libraries\lvgl\src\misc\lv_color.h ****     lv_color32_t ret;
 384:c:\projects\paindrain\arduinolcd\test\pain drain\libraries\lvgl\src\misc\lv_color.h ****     LV_COLOR_SET_R32(ret, LV_COLOR_GET_R(color) * 36); /*(2^8 - 1)/(2^3 - 1) = 255/7 = 36*/
 385:c:\projects\paindrain\arduinolcd\test\pain drain\libraries\lvgl\src\misc\lv_color.h ****     LV_COLOR_SET_G32(ret, LV_COLOR_GET_G(color) * 36); /*(2^8 - 1)/(2^3 - 1) = 255/7 = 36*/
 386:c:\projects\paindrain\arduinolcd\test\pain drain\libraries\lvgl\src\misc\lv_color.h ****     LV_COLOR_SET_B32(ret, LV_COLOR_GET_B(color) * 85); /*(2^8 - 1)/(2^2 - 1) = 255/3 = 85*/
 387:c:\projects\paindrain\arduinolcd\test\pain drain\libraries\lvgl\src\misc\lv_color.h ****     LV_COLOR_SET_A32(ret, 0xFF);
 388:c:\projects\paindrain\arduinolcd\test\pain drain\libraries\lvgl\src\misc\lv_color.h ****     return ret.full;
 389:c:\projects\paindrain\arduinolcd\test\pain drain\libraries\lvgl\src\misc\lv_color.h **** #elif LV_COLOR_DEPTH == 16
 390:c:\projects\paindrain\arduinolcd\test\pain drain\libraries\lvgl\src\misc\lv_color.h ****     /**
 391:c:\projects\paindrain\arduinolcd\test\pain drain\libraries\lvgl\src\misc\lv_color.h ****      * The floating point math for conversion is:
 392:c:\projects\paindrain\arduinolcd\test\pain drain\libraries\lvgl\src\misc\lv_color.h ****      *  valueto = valuefrom * ( (2^bitsto - 1) / (float)(2^bitsfrom - 1) )
 393:c:\projects\paindrain\arduinolcd\test\pain drain\libraries\lvgl\src\misc\lv_color.h ****      * The faster integer math for conversion is:
 394:c:\projects\paindrain\arduinolcd\test\pain drain\libraries\lvgl\src\misc\lv_color.h ****      *  valueto = ( valuefrom * multiplier + adder ) >> divisor
 395:c:\projects\paindrain\arduinolcd\test\pain drain\libraries\lvgl\src\misc\lv_color.h ****      *   multiplier = FLOOR( ( (2^bitsto - 1) << divisor ) / (float)(2^bitsfrom - 1) )
 396:c:\projects\paindrain\arduinolcd\test\pain drain\libraries\lvgl\src\misc\lv_color.h ****      *
 397:c:\projects\paindrain\arduinolcd\test\pain drain\libraries\lvgl\src\misc\lv_color.h ****      * Find the first divisor where ( adder >> divisor ) <= 0
 398:c:\projects\paindrain\arduinolcd\test\pain drain\libraries\lvgl\src\misc\lv_color.h ****      *
 399:c:\projects\paindrain\arduinolcd\test\pain drain\libraries\lvgl\src\misc\lv_color.h ****      * 5-bit to 8-bit: ( 31 * multiplier + adder ) >> divisor = 255
 400:c:\projects\paindrain\arduinolcd\test\pain drain\libraries\lvgl\src\misc\lv_color.h ****      * divisor  multiplier  adder  min (0)  max (31)
 401:c:\projects\paindrain\arduinolcd\test\pain drain\libraries\lvgl\src\misc\lv_color.h ****      *       0           8      7        7       255
 402:c:\projects\paindrain\arduinolcd\test\pain drain\libraries\lvgl\src\misc\lv_color.h ****      *       1          16     14        7       255
 403:c:\projects\paindrain\arduinolcd\test\pain drain\libraries\lvgl\src\misc\lv_color.h ****      *       2          32     28        7       255
 404:c:\projects\paindrain\arduinolcd\test\pain drain\libraries\lvgl\src\misc\lv_color.h ****      *       3          65     25        3       255
 405:c:\projects\paindrain\arduinolcd\test\pain drain\libraries\lvgl\src\misc\lv_color.h ****      *       4         131     19        1       255
 406:c:\projects\paindrain\arduinolcd\test\pain drain\libraries\lvgl\src\misc\lv_color.h ****      *       5         263      7        0       255
 407:c:\projects\paindrain\arduinolcd\test\pain drain\libraries\lvgl\src\misc\lv_color.h ****      *
 408:c:\projects\paindrain\arduinolcd\test\pain drain\libraries\lvgl\src\misc\lv_color.h ****      * 6-bit to 8-bit: 255 = ( 63 * multiplier + adder ) >> divisor
 409:c:\projects\paindrain\arduinolcd\test\pain drain\libraries\lvgl\src\misc\lv_color.h ****      * divisor  multiplier  adder  min (0)  max (63)
 410:c:\projects\paindrain\arduinolcd\test\pain drain\libraries\lvgl\src\misc\lv_color.h ****      *       0           4      3        3       255
 411:c:\projects\paindrain\arduinolcd\test\pain drain\libraries\lvgl\src\misc\lv_color.h ****      *       1           8      6        3       255
 412:c:\projects\paindrain\arduinolcd\test\pain drain\libraries\lvgl\src\misc\lv_color.h ****      *       2          16     12        3       255
 413:c:\projects\paindrain\arduinolcd\test\pain drain\libraries\lvgl\src\misc\lv_color.h ****      *       3          32     24        3       255
 414:c:\projects\paindrain\arduinolcd\test\pain drain\libraries\lvgl\src\misc\lv_color.h ****      *       4          64     48        3       255
 415:c:\projects\paindrain\arduinolcd\test\pain drain\libraries\lvgl\src\misc\lv_color.h ****      *       5         129     33        1       255
 416:c:\projects\paindrain\arduinolcd\test\pain drain\libraries\lvgl\src\misc\lv_color.h ****      *       6         259      3        0       255
 417:c:\projects\paindrain\arduinolcd\test\pain drain\libraries\lvgl\src\misc\lv_color.h ****      */
 418:c:\projects\paindrain\arduinolcd\test\pain drain\libraries\lvgl\src\misc\lv_color.h **** 
 419:c:\projects\paindrain\arduinolcd\test\pain drain\libraries\lvgl\src\misc\lv_color.h ****     lv_color32_t ret;
ARM GAS  C:\Users\haske\AppData\Local\Temp\ccoc8x2c.s 			page 14


 420:c:\projects\paindrain\arduinolcd\test\pain drain\libraries\lvgl\src\misc\lv_color.h ****     LV_COLOR_SET_R32(ret, (LV_COLOR_GET_R(color) * 263 + 7) >> 5);
 145              		.loc 2 420 0 discriminator 2
 146 0052 CA0A     		lsrs	r2, r1, #11
 147 0054 5301     		lsls	r3, r2, #5
 148 0056 9B18     		adds	r3, r3, r2
 149 0058 DB00     		lsls	r3, r3, #3
 150 005a 9B1A     		subs	r3, r3, r2
 151 005c 0733     		adds	r3, r3, #7
 152 005e 5B11     		asrs	r3, r3, #5
 153 0060 DBB2     		uxtb	r3, r3
 154 0062 1B04     		lsls	r3, r3, #16
 155              	.LVL18:
 421:c:\projects\paindrain\arduinolcd\test\pain drain\libraries\lvgl\src\misc\lv_color.h ****     LV_COLOR_SET_G32(ret, (LV_COLOR_GET_G(color) * 259 + 3) >> 6);
 156              		.loc 2 421 0 discriminator 2
 157 0064 4A05     		lsls	r2, r1, #21
 158 0066 920E     		lsrs	r2, r2, #26
 159 0068 D001     		lsls	r0, r2, #7
 160 006a 8018     		adds	r0, r0, r2
 161 006c 4000     		lsls	r0, r0, #1
 162 006e 8218     		adds	r2, r0, r2
 163 0070 0332     		adds	r2, r2, #3
 164 0072 9211     		asrs	r2, r2, #6
 165 0074 D2B2     		uxtb	r2, r2
 166 0076 1202     		lsls	r2, r2, #8
 167              	.LVL19:
 168 0078 1343     		orrs	r3, r2
 169              	.LVL20:
 422:c:\projects\paindrain\arduinolcd\test\pain drain\libraries\lvgl\src\misc\lv_color.h ****     LV_COLOR_SET_B32(ret, (LV_COLOR_GET_B(color) * 263 + 7) >> 5);
 170              		.loc 2 422 0 discriminator 2
 171 007a C906     		lsls	r1, r1, #27
 172 007c C90E     		lsrs	r1, r1, #27
 173 007e 4A01     		lsls	r2, r1, #5
 174 0080 5218     		adds	r2, r2, r1
 175 0082 D200     		lsls	r2, r2, #3
 176 0084 521A     		subs	r2, r2, r1
 177 0086 0732     		adds	r2, r2, #7
 178 0088 5211     		asrs	r2, r2, #5
 179 008a D2B2     		uxtb	r2, r2
 180 008c FF21     		movs	r1, #255
 181 008e 8946     		mov	r9, r1
 182              	.LVL21:
 183 0090 1343     		orrs	r3, r2
 184              	.LVL22:
 423:c:\projects\paindrain\arduinolcd\test\pain drain\libraries\lvgl\src\misc\lv_color.h ****     LV_COLOR_SET_A32(ret, 0xFF);
 185              		.loc 2 423 0 discriminator 2
 186 0092 FF22     		movs	r2, #255
 187 0094 1206     		lsls	r2, r2, #24
 188 0096 9246     		mov	r10, r2
 189              	.LVL23:
 190 0098 1343     		orrs	r3, r2
 191              	.LVL24:
 192              	.LBE168:
 193              	.LBE167:
 424:c:\projects\paindrain\arduinolcd\test\pain drain\libraries\lvgl\src\misc\lv_color.h ****     return ret.full;
 425:c:\projects\paindrain\arduinolcd\test\pain drain\libraries\lvgl\src\misc\lv_color.h **** #elif LV_COLOR_DEPTH == 32
 426:c:\projects\paindrain\arduinolcd\test\pain drain\libraries\lvgl\src\misc\lv_color.h ****     return color.full;
 427:c:\projects\paindrain\arduinolcd\test\pain drain\libraries\lvgl\src\misc\lv_color.h **** #endif
ARM GAS  C:\Users\haske\AppData\Local\Temp\ccoc8x2c.s 			page 15


 428:c:\projects\paindrain\arduinolcd\test\pain drain\libraries\lvgl\src\misc\lv_color.h **** }
 429:c:\projects\paindrain\arduinolcd\test\pain drain\libraries\lvgl\src\misc\lv_color.h **** 
 430:c:\projects\paindrain\arduinolcd\test\pain drain\libraries\lvgl\src\misc\lv_color.h **** //! @cond Doxygen_Suppress
 431:c:\projects\paindrain\arduinolcd\test\pain drain\libraries\lvgl\src\misc\lv_color.h **** 
 432:c:\projects\paindrain\arduinolcd\test\pain drain\libraries\lvgl\src\misc\lv_color.h **** /**
 433:c:\projects\paindrain\arduinolcd\test\pain drain\libraries\lvgl\src\misc\lv_color.h ****  * Mix two colors with a given ratio.
 434:c:\projects\paindrain\arduinolcd\test\pain drain\libraries\lvgl\src\misc\lv_color.h ****  * @param c1 the first color to mix (usually the foreground)
 435:c:\projects\paindrain\arduinolcd\test\pain drain\libraries\lvgl\src\misc\lv_color.h ****  * @param c2 the second color to mix (usually the background)
 436:c:\projects\paindrain\arduinolcd\test\pain drain\libraries\lvgl\src\misc\lv_color.h ****  * @param mix The ratio of the colors. 0: full `c2`, 255: full `c1`, 127: half `c1` and half`c2`
 437:c:\projects\paindrain\arduinolcd\test\pain drain\libraries\lvgl\src\misc\lv_color.h ****  * @return the mixed color
 438:c:\projects\paindrain\arduinolcd\test\pain drain\libraries\lvgl\src\misc\lv_color.h ****  */
 439:c:\projects\paindrain\arduinolcd\test\pain drain\libraries\lvgl\src\misc\lv_color.h **** LV_ATTRIBUTE_FAST_MEM static inline lv_color_t lv_color_mix(lv_color_t c1, lv_color_t c2, uint8_t m
 440:c:\projects\paindrain\arduinolcd\test\pain drain\libraries\lvgl\src\misc\lv_color.h **** {
 441:c:\projects\paindrain\arduinolcd\test\pain drain\libraries\lvgl\src\misc\lv_color.h ****     lv_color_t ret;
 442:c:\projects\paindrain\arduinolcd\test\pain drain\libraries\lvgl\src\misc\lv_color.h **** 
 443:c:\projects\paindrain\arduinolcd\test\pain drain\libraries\lvgl\src\misc\lv_color.h **** #if LV_COLOR_DEPTH == 16 && LV_COLOR_16_SWAP == 0 && LV_COLOR_MIX_ROUND_OFS == 0
 444:c:\projects\paindrain\arduinolcd\test\pain drain\libraries\lvgl\src\misc\lv_color.h ****     /*Source: https://stackoverflow.com/a/50012418/1999969*/
 445:c:\projects\paindrain\arduinolcd\test\pain drain\libraries\lvgl\src\misc\lv_color.h ****     mix = (uint32_t)((uint32_t)mix + 4) >> 3;
 446:c:\projects\paindrain\arduinolcd\test\pain drain\libraries\lvgl\src\misc\lv_color.h ****     uint32_t bg = (uint32_t)((uint32_t)c2.full | ((uint32_t)c2.full << 16)) &
 447:c:\projects\paindrain\arduinolcd\test\pain drain\libraries\lvgl\src\misc\lv_color.h ****                   0x7E0F81F; /*0b00000111111000001111100000011111*/
 448:c:\projects\paindrain\arduinolcd\test\pain drain\libraries\lvgl\src\misc\lv_color.h ****     uint32_t fg = (uint32_t)((uint32_t)c1.full | ((uint32_t)c1.full << 16)) & 0x7E0F81F;
 449:c:\projects\paindrain\arduinolcd\test\pain drain\libraries\lvgl\src\misc\lv_color.h ****     uint32_t result = ((((fg - bg) * mix) >> 5) + bg) & 0x7E0F81F;
 450:c:\projects\paindrain\arduinolcd\test\pain drain\libraries\lvgl\src\misc\lv_color.h ****     ret.full = (uint16_t)((result >> 16) | result);
 451:c:\projects\paindrain\arduinolcd\test\pain drain\libraries\lvgl\src\misc\lv_color.h **** #elif LV_COLOR_DEPTH != 1
 452:c:\projects\paindrain\arduinolcd\test\pain drain\libraries\lvgl\src\misc\lv_color.h ****     /*LV_COLOR_DEPTH == 8, 16 or 32*/
 453:c:\projects\paindrain\arduinolcd\test\pain drain\libraries\lvgl\src\misc\lv_color.h ****     LV_COLOR_SET_R(ret, LV_UDIV255((uint16_t)LV_COLOR_GET_R(c1) * mix + LV_COLOR_GET_R(c2) *
 454:c:\projects\paindrain\arduinolcd\test\pain drain\libraries\lvgl\src\misc\lv_color.h ****                                    (255 - mix) + LV_COLOR_MIX_ROUND_OFS));
 455:c:\projects\paindrain\arduinolcd\test\pain drain\libraries\lvgl\src\misc\lv_color.h ****     LV_COLOR_SET_G(ret, LV_UDIV255((uint16_t)LV_COLOR_GET_G(c1) * mix + LV_COLOR_GET_G(c2) *
 456:c:\projects\paindrain\arduinolcd\test\pain drain\libraries\lvgl\src\misc\lv_color.h ****                                    (255 - mix) + LV_COLOR_MIX_ROUND_OFS));
 457:c:\projects\paindrain\arduinolcd\test\pain drain\libraries\lvgl\src\misc\lv_color.h ****     LV_COLOR_SET_B(ret, LV_UDIV255((uint16_t)LV_COLOR_GET_B(c1) * mix + LV_COLOR_GET_B(c2) *
 458:c:\projects\paindrain\arduinolcd\test\pain drain\libraries\lvgl\src\misc\lv_color.h ****                                    (255 - mix) + LV_COLOR_MIX_ROUND_OFS));
 459:c:\projects\paindrain\arduinolcd\test\pain drain\libraries\lvgl\src\misc\lv_color.h ****     LV_COLOR_SET_A(ret, 0xFF);
 460:c:\projects\paindrain\arduinolcd\test\pain drain\libraries\lvgl\src\misc\lv_color.h **** #else
 461:c:\projects\paindrain\arduinolcd\test\pain drain\libraries\lvgl\src\misc\lv_color.h ****     /*LV_COLOR_DEPTH == 1*/
 462:c:\projects\paindrain\arduinolcd\test\pain drain\libraries\lvgl\src\misc\lv_color.h ****     ret.full = mix > LV_OPA_50 ? c1.full : c2.full;
 463:c:\projects\paindrain\arduinolcd\test\pain drain\libraries\lvgl\src\misc\lv_color.h **** #endif
 464:c:\projects\paindrain\arduinolcd\test\pain drain\libraries\lvgl\src\misc\lv_color.h **** 
 465:c:\projects\paindrain\arduinolcd\test\pain drain\libraries\lvgl\src\misc\lv_color.h ****     return ret;
 466:c:\projects\paindrain\arduinolcd\test\pain drain\libraries\lvgl\src\misc\lv_color.h **** }
 467:c:\projects\paindrain\arduinolcd\test\pain drain\libraries\lvgl\src\misc\lv_color.h **** 
 468:c:\projects\paindrain\arduinolcd\test\pain drain\libraries\lvgl\src\misc\lv_color.h **** LV_ATTRIBUTE_FAST_MEM static inline void lv_color_premult(lv_color_t c, uint8_t mix, uint16_t * out
 469:c:\projects\paindrain\arduinolcd\test\pain drain\libraries\lvgl\src\misc\lv_color.h **** {
 470:c:\projects\paindrain\arduinolcd\test\pain drain\libraries\lvgl\src\misc\lv_color.h **** #if LV_COLOR_DEPTH != 1
 471:c:\projects\paindrain\arduinolcd\test\pain drain\libraries\lvgl\src\misc\lv_color.h ****     out[0] = (uint16_t)LV_COLOR_GET_R(c) * mix;
 472:c:\projects\paindrain\arduinolcd\test\pain drain\libraries\lvgl\src\misc\lv_color.h ****     out[1] = (uint16_t)LV_COLOR_GET_G(c) * mix;
 473:c:\projects\paindrain\arduinolcd\test\pain drain\libraries\lvgl\src\misc\lv_color.h ****     out[2] = (uint16_t)LV_COLOR_GET_B(c) * mix;
 474:c:\projects\paindrain\arduinolcd\test\pain drain\libraries\lvgl\src\misc\lv_color.h **** #else
 475:c:\projects\paindrain\arduinolcd\test\pain drain\libraries\lvgl\src\misc\lv_color.h ****     (void) mix;
 476:c:\projects\paindrain\arduinolcd\test\pain drain\libraries\lvgl\src\misc\lv_color.h ****     /*Pre-multiplication can't be used with 1 bpp*/
 477:c:\projects\paindrain\arduinolcd\test\pain drain\libraries\lvgl\src\misc\lv_color.h ****     out[0] = LV_COLOR_GET_R(c);
 478:c:\projects\paindrain\arduinolcd\test\pain drain\libraries\lvgl\src\misc\lv_color.h ****     out[1] = LV_COLOR_GET_G(c);
 479:c:\projects\paindrain\arduinolcd\test\pain drain\libraries\lvgl\src\misc\lv_color.h ****     out[2] = LV_COLOR_GET_B(c);
 480:c:\projects\paindrain\arduinolcd\test\pain drain\libraries\lvgl\src\misc\lv_color.h **** #endif
 481:c:\projects\paindrain\arduinolcd\test\pain drain\libraries\lvgl\src\misc\lv_color.h **** 
 482:c:\projects\paindrain\arduinolcd\test\pain drain\libraries\lvgl\src\misc\lv_color.h **** }
 483:c:\projects\paindrain\arduinolcd\test\pain drain\libraries\lvgl\src\misc\lv_color.h **** 
 484:c:\projects\paindrain\arduinolcd\test\pain drain\libraries\lvgl\src\misc\lv_color.h **** /**
ARM GAS  C:\Users\haske\AppData\Local\Temp\ccoc8x2c.s 			page 16


 485:c:\projects\paindrain\arduinolcd\test\pain drain\libraries\lvgl\src\misc\lv_color.h ****  * Mix two colors with a given ratio. It runs faster then `lv_color_mix` but requires some pre comp
 486:c:\projects\paindrain\arduinolcd\test\pain drain\libraries\lvgl\src\misc\lv_color.h ****  * @param premult_c1 The first color. Should be preprocessed with `lv_color_premult(c1)`
 487:c:\projects\paindrain\arduinolcd\test\pain drain\libraries\lvgl\src\misc\lv_color.h ****  * @param c2 The second color. As it is no pre computation required on it
 488:c:\projects\paindrain\arduinolcd\test\pain drain\libraries\lvgl\src\misc\lv_color.h ****  * @param mix The ratio of the colors. 0: full `c1`, 255: full `c2`, 127: half `c1` and half `c2`.
 489:c:\projects\paindrain\arduinolcd\test\pain drain\libraries\lvgl\src\misc\lv_color.h ****  *            Should be modified like mix = `255 - mix`
 490:c:\projects\paindrain\arduinolcd\test\pain drain\libraries\lvgl\src\misc\lv_color.h ****  * @return the mixed color
 491:c:\projects\paindrain\arduinolcd\test\pain drain\libraries\lvgl\src\misc\lv_color.h ****  * @note 255 won't give clearly `c1`.
 492:c:\projects\paindrain\arduinolcd\test\pain drain\libraries\lvgl\src\misc\lv_color.h ****  */
 493:c:\projects\paindrain\arduinolcd\test\pain drain\libraries\lvgl\src\misc\lv_color.h **** LV_ATTRIBUTE_FAST_MEM static inline lv_color_t lv_color_mix_premult(uint16_t * premult_c1, lv_color
 494:c:\projects\paindrain\arduinolcd\test\pain drain\libraries\lvgl\src\misc\lv_color.h **** {
 495:c:\projects\paindrain\arduinolcd\test\pain drain\libraries\lvgl\src\misc\lv_color.h ****     lv_color_t ret;
 496:c:\projects\paindrain\arduinolcd\test\pain drain\libraries\lvgl\src\misc\lv_color.h **** #if LV_COLOR_DEPTH != 1
 497:c:\projects\paindrain\arduinolcd\test\pain drain\libraries\lvgl\src\misc\lv_color.h ****     /*LV_COLOR_DEPTH == 8 or 32*/
 498:c:\projects\paindrain\arduinolcd\test\pain drain\libraries\lvgl\src\misc\lv_color.h ****     LV_COLOR_SET_R(ret, LV_UDIV255(premult_c1[0] + LV_COLOR_GET_R(c2) * mix + LV_COLOR_MIX_ROUND_OF
 499:c:\projects\paindrain\arduinolcd\test\pain drain\libraries\lvgl\src\misc\lv_color.h ****     LV_COLOR_SET_G(ret, LV_UDIV255(premult_c1[1] + LV_COLOR_GET_G(c2) * mix + LV_COLOR_MIX_ROUND_OF
 500:c:\projects\paindrain\arduinolcd\test\pain drain\libraries\lvgl\src\misc\lv_color.h ****     LV_COLOR_SET_B(ret, LV_UDIV255(premult_c1[2] + LV_COLOR_GET_B(c2) * mix + LV_COLOR_MIX_ROUND_OF
 501:c:\projects\paindrain\arduinolcd\test\pain drain\libraries\lvgl\src\misc\lv_color.h ****     LV_COLOR_SET_A(ret, 0xFF);
 502:c:\projects\paindrain\arduinolcd\test\pain drain\libraries\lvgl\src\misc\lv_color.h **** #else
 503:c:\projects\paindrain\arduinolcd\test\pain drain\libraries\lvgl\src\misc\lv_color.h ****     /*LV_COLOR_DEPTH == 1*/
 504:c:\projects\paindrain\arduinolcd\test\pain drain\libraries\lvgl\src\misc\lv_color.h ****     /*Restore color1*/
 505:c:\projects\paindrain\arduinolcd\test\pain drain\libraries\lvgl\src\misc\lv_color.h ****     lv_color_t c1;
 506:c:\projects\paindrain\arduinolcd\test\pain drain\libraries\lvgl\src\misc\lv_color.h ****     LV_COLOR_SET_R(c1, premult_c1[0]);
 507:c:\projects\paindrain\arduinolcd\test\pain drain\libraries\lvgl\src\misc\lv_color.h ****     LV_COLOR_SET_G(c1, premult_c1[1]);
 508:c:\projects\paindrain\arduinolcd\test\pain drain\libraries\lvgl\src\misc\lv_color.h ****     LV_COLOR_SET_B(c1, premult_c1[2]);
 509:c:\projects\paindrain\arduinolcd\test\pain drain\libraries\lvgl\src\misc\lv_color.h ****     ret.full = mix > LV_OPA_50 ? c2.full : c1.full;
 510:c:\projects\paindrain\arduinolcd\test\pain drain\libraries\lvgl\src\misc\lv_color.h **** #endif
 511:c:\projects\paindrain\arduinolcd\test\pain drain\libraries\lvgl\src\misc\lv_color.h **** 
 512:c:\projects\paindrain\arduinolcd\test\pain drain\libraries\lvgl\src\misc\lv_color.h ****     return ret;
 513:c:\projects\paindrain\arduinolcd\test\pain drain\libraries\lvgl\src\misc\lv_color.h **** }
 514:c:\projects\paindrain\arduinolcd\test\pain drain\libraries\lvgl\src\misc\lv_color.h **** 
 515:c:\projects\paindrain\arduinolcd\test\pain drain\libraries\lvgl\src\misc\lv_color.h **** /**
 516:c:\projects\paindrain\arduinolcd\test\pain drain\libraries\lvgl\src\misc\lv_color.h ****  * Mix two colors. Both color can have alpha value.
 517:c:\projects\paindrain\arduinolcd\test\pain drain\libraries\lvgl\src\misc\lv_color.h ****  * @param bg_color background color
 518:c:\projects\paindrain\arduinolcd\test\pain drain\libraries\lvgl\src\misc\lv_color.h ****  * @param bg_opa alpha of the background color
 519:c:\projects\paindrain\arduinolcd\test\pain drain\libraries\lvgl\src\misc\lv_color.h ****  * @param fg_color foreground color
 520:c:\projects\paindrain\arduinolcd\test\pain drain\libraries\lvgl\src\misc\lv_color.h ****  * @param fg_opa alpha of the foreground color
 521:c:\projects\paindrain\arduinolcd\test\pain drain\libraries\lvgl\src\misc\lv_color.h ****  * @param res_color the result color
 522:c:\projects\paindrain\arduinolcd\test\pain drain\libraries\lvgl\src\misc\lv_color.h ****  * @param res_opa the result opacity
 523:c:\projects\paindrain\arduinolcd\test\pain drain\libraries\lvgl\src\misc\lv_color.h ****  */
 524:c:\projects\paindrain\arduinolcd\test\pain drain\libraries\lvgl\src\misc\lv_color.h **** LV_ATTRIBUTE_FAST_MEM static inline void lv_color_mix_with_alpha(lv_color_t bg_color, lv_opa_t bg_o
 525:c:\projects\paindrain\arduinolcd\test\pain drain\libraries\lvgl\src\misc\lv_color.h ****                                                                  lv_color_t fg_color, lv_opa_t fg_o
 526:c:\projects\paindrain\arduinolcd\test\pain drain\libraries\lvgl\src\misc\lv_color.h ****                                                                  lv_color_t * res_color, lv_opa_t *
 527:c:\projects\paindrain\arduinolcd\test\pain drain\libraries\lvgl\src\misc\lv_color.h **** {
 528:c:\projects\paindrain\arduinolcd\test\pain drain\libraries\lvgl\src\misc\lv_color.h ****     /*Pick the foreground if it's fully opaque or the Background is fully transparent*/
 529:c:\projects\paindrain\arduinolcd\test\pain drain\libraries\lvgl\src\misc\lv_color.h ****     if(fg_opa >= LV_OPA_MAX || bg_opa <= LV_OPA_MIN) {
 530:c:\projects\paindrain\arduinolcd\test\pain drain\libraries\lvgl\src\misc\lv_color.h ****         res_color->full = fg_color.full;
 531:c:\projects\paindrain\arduinolcd\test\pain drain\libraries\lvgl\src\misc\lv_color.h ****         *res_opa = fg_opa;
 532:c:\projects\paindrain\arduinolcd\test\pain drain\libraries\lvgl\src\misc\lv_color.h ****     }
 533:c:\projects\paindrain\arduinolcd\test\pain drain\libraries\lvgl\src\misc\lv_color.h ****     /*Transparent foreground: use the Background*/
 534:c:\projects\paindrain\arduinolcd\test\pain drain\libraries\lvgl\src\misc\lv_color.h ****     else if(fg_opa <= LV_OPA_MIN) {
 535:c:\projects\paindrain\arduinolcd\test\pain drain\libraries\lvgl\src\misc\lv_color.h ****         res_color->full = bg_color.full;
 536:c:\projects\paindrain\arduinolcd\test\pain drain\libraries\lvgl\src\misc\lv_color.h ****         *res_opa = bg_opa;
 537:c:\projects\paindrain\arduinolcd\test\pain drain\libraries\lvgl\src\misc\lv_color.h ****     }
 538:c:\projects\paindrain\arduinolcd\test\pain drain\libraries\lvgl\src\misc\lv_color.h ****     /*Opaque background: use simple mix*/
 539:c:\projects\paindrain\arduinolcd\test\pain drain\libraries\lvgl\src\misc\lv_color.h ****     else if(bg_opa >= LV_OPA_MAX) {
 540:c:\projects\paindrain\arduinolcd\test\pain drain\libraries\lvgl\src\misc\lv_color.h ****         *res_color = lv_color_mix(fg_color, bg_color, fg_opa);
 541:c:\projects\paindrain\arduinolcd\test\pain drain\libraries\lvgl\src\misc\lv_color.h ****         *res_opa = LV_OPA_COVER;
ARM GAS  C:\Users\haske\AppData\Local\Temp\ccoc8x2c.s 			page 17


 542:c:\projects\paindrain\arduinolcd\test\pain drain\libraries\lvgl\src\misc\lv_color.h ****     }
 543:c:\projects\paindrain\arduinolcd\test\pain drain\libraries\lvgl\src\misc\lv_color.h ****     /*Both colors have alpha. Expensive calculation need to be applied*/
 544:c:\projects\paindrain\arduinolcd\test\pain drain\libraries\lvgl\src\misc\lv_color.h ****     else {
 545:c:\projects\paindrain\arduinolcd\test\pain drain\libraries\lvgl\src\misc\lv_color.h ****         /*Save the parameters and the result. If they will be asked again don't compute again*/
 546:c:\projects\paindrain\arduinolcd\test\pain drain\libraries\lvgl\src\misc\lv_color.h ****         static lv_opa_t fg_opa_save     = 0;
 547:c:\projects\paindrain\arduinolcd\test\pain drain\libraries\lvgl\src\misc\lv_color.h ****         static lv_opa_t bg_opa_save     = 0;
 548:c:\projects\paindrain\arduinolcd\test\pain drain\libraries\lvgl\src\misc\lv_color.h ****         static lv_color_t fg_color_save = _LV_COLOR_ZERO_INITIALIZER;
 549:c:\projects\paindrain\arduinolcd\test\pain drain\libraries\lvgl\src\misc\lv_color.h ****         static lv_color_t bg_color_save = _LV_COLOR_ZERO_INITIALIZER;
 550:c:\projects\paindrain\arduinolcd\test\pain drain\libraries\lvgl\src\misc\lv_color.h ****         static lv_color_t res_color_saved = _LV_COLOR_ZERO_INITIALIZER;
 551:c:\projects\paindrain\arduinolcd\test\pain drain\libraries\lvgl\src\misc\lv_color.h ****         static lv_opa_t res_opa_saved = 0;
 552:c:\projects\paindrain\arduinolcd\test\pain drain\libraries\lvgl\src\misc\lv_color.h **** 
 553:c:\projects\paindrain\arduinolcd\test\pain drain\libraries\lvgl\src\misc\lv_color.h ****         if(fg_opa != fg_opa_save || bg_opa != bg_opa_save || fg_color.full != fg_color_save.full ||
 554:c:\projects\paindrain\arduinolcd\test\pain drain\libraries\lvgl\src\misc\lv_color.h ****            bg_color.full != bg_color_save.full) {
 555:c:\projects\paindrain\arduinolcd\test\pain drain\libraries\lvgl\src\misc\lv_color.h ****             fg_opa_save        = fg_opa;
 556:c:\projects\paindrain\arduinolcd\test\pain drain\libraries\lvgl\src\misc\lv_color.h ****             bg_opa_save        = bg_opa;
 557:c:\projects\paindrain\arduinolcd\test\pain drain\libraries\lvgl\src\misc\lv_color.h ****             fg_color_save.full = fg_color.full;
 558:c:\projects\paindrain\arduinolcd\test\pain drain\libraries\lvgl\src\misc\lv_color.h ****             bg_color_save.full = bg_color.full;
 559:c:\projects\paindrain\arduinolcd\test\pain drain\libraries\lvgl\src\misc\lv_color.h ****             /*Info:
 560:c:\projects\paindrain\arduinolcd\test\pain drain\libraries\lvgl\src\misc\lv_color.h ****              * https://en.wikipedia.org/wiki/Alpha_compositing#Analytical_derivation_of_the_over_op
 561:c:\projects\paindrain\arduinolcd\test\pain drain\libraries\lvgl\src\misc\lv_color.h ****             res_opa_saved = 255 - ((uint16_t)((uint16_t)(255 - fg_opa) * (255 - bg_opa)) >> 8);
 562:c:\projects\paindrain\arduinolcd\test\pain drain\libraries\lvgl\src\misc\lv_color.h ****             LV_ASSERT(res_opa_saved != 0);
 563:c:\projects\paindrain\arduinolcd\test\pain drain\libraries\lvgl\src\misc\lv_color.h ****             lv_opa_t ratio = (uint16_t)((uint16_t)fg_opa * 255) / res_opa_saved;
 564:c:\projects\paindrain\arduinolcd\test\pain drain\libraries\lvgl\src\misc\lv_color.h ****             res_color_saved = lv_color_mix(fg_color, bg_color, ratio);
 565:c:\projects\paindrain\arduinolcd\test\pain drain\libraries\lvgl\src\misc\lv_color.h **** 
 566:c:\projects\paindrain\arduinolcd\test\pain drain\libraries\lvgl\src\misc\lv_color.h ****         }
 567:c:\projects\paindrain\arduinolcd\test\pain drain\libraries\lvgl\src\misc\lv_color.h **** 
 568:c:\projects\paindrain\arduinolcd\test\pain drain\libraries\lvgl\src\misc\lv_color.h ****         res_color->full = res_color_saved.full;
 569:c:\projects\paindrain\arduinolcd\test\pain drain\libraries\lvgl\src\misc\lv_color.h ****         *res_opa = res_opa_saved;
 570:c:\projects\paindrain\arduinolcd\test\pain drain\libraries\lvgl\src\misc\lv_color.h ****     }
 571:c:\projects\paindrain\arduinolcd\test\pain drain\libraries\lvgl\src\misc\lv_color.h **** }
 572:c:\projects\paindrain\arduinolcd\test\pain drain\libraries\lvgl\src\misc\lv_color.h **** 
 573:c:\projects\paindrain\arduinolcd\test\pain drain\libraries\lvgl\src\misc\lv_color.h **** //! @endcond
 574:c:\projects\paindrain\arduinolcd\test\pain drain\libraries\lvgl\src\misc\lv_color.h **** 
 575:c:\projects\paindrain\arduinolcd\test\pain drain\libraries\lvgl\src\misc\lv_color.h **** /**
 576:c:\projects\paindrain\arduinolcd\test\pain drain\libraries\lvgl\src\misc\lv_color.h ****  * Get the brightness of a color
 577:c:\projects\paindrain\arduinolcd\test\pain drain\libraries\lvgl\src\misc\lv_color.h ****  * @param color a color
 578:c:\projects\paindrain\arduinolcd\test\pain drain\libraries\lvgl\src\misc\lv_color.h ****  * @return the brightness [0..255]
 579:c:\projects\paindrain\arduinolcd\test\pain drain\libraries\lvgl\src\misc\lv_color.h ****  */
 580:c:\projects\paindrain\arduinolcd\test\pain drain\libraries\lvgl\src\misc\lv_color.h **** static inline uint8_t lv_color_brightness(lv_color_t color)
 581:c:\projects\paindrain\arduinolcd\test\pain drain\libraries\lvgl\src\misc\lv_color.h **** {
 582:c:\projects\paindrain\arduinolcd\test\pain drain\libraries\lvgl\src\misc\lv_color.h ****     lv_color32_t c32;
 583:c:\projects\paindrain\arduinolcd\test\pain drain\libraries\lvgl\src\misc\lv_color.h ****     c32.full        = lv_color_to32(color);
 584:c:\projects\paindrain\arduinolcd\test\pain drain\libraries\lvgl\src\misc\lv_color.h ****     uint16_t bright = (uint16_t)(3u * LV_COLOR_GET_R32(c32) + LV_COLOR_GET_B32(c32) + 4u * LV_COLOR
 194              		.loc 2 584 0 discriminator 2
 195 009a 1A02     		lsls	r2, r3, #8
 196 009c 120E     		lsrs	r2, r2, #24
 197 009e 1904     		lsls	r1, r3, #16
 198 00a0 090E     		lsrs	r1, r1, #24
 199 00a2 5000     		lsls	r0, r2, #1
 200 00a4 1218     		adds	r2, r2, r0
 201 00a6 8900     		lsls	r1, r1, #2
 202 00a8 5218     		adds	r2, r2, r1
 203 00aa 92B2     		uxth	r2, r2
 204 00ac DBB2     		uxtb	r3, r3
 205              	.LVL25:
 206 00ae D318     		adds	r3, r2, r3
 207 00b0 9BB2     		uxth	r3, r3
ARM GAS  C:\Users\haske\AppData\Local\Temp\ccoc8x2c.s 			page 18


 208              	.LVL26:
 585:c:\projects\paindrain\arduinolcd\test\pain drain\libraries\lvgl\src\misc\lv_color.h ****     return (uint8_t)(bright >> 3);
 209              		.loc 2 585 0 discriminator 2
 210 00b2 DB08     		lsrs	r3, r3, #3
 211              	.LVL27:
 212 00b4 DBB2     		uxtb	r3, r3
 213              	.LVL28:
 214              	.LBE166:
 215              	.LBE165:
 216              	.LBB169:
 217              	.LBB170:
 445:c:\projects\paindrain\arduinolcd\test\pain drain\libraries\lvgl\src\misc\lv_color.h ****     uint32_t bg = (uint32_t)((uint32_t)c2.full | ((uint32_t)c2.full << 16)) &
 218              		.loc 2 445 0 discriminator 2
 219 00b6 0433     		adds	r3, r3, #4
 220 00b8 DB08     		lsrs	r3, r3, #3
 221              	.LVL29:
 446:c:\projects\paindrain\arduinolcd\test\pain drain\libraries\lvgl\src\misc\lv_color.h ****                   0x7E0F81F; /*0b00000111111000001111100000011111*/
 222              		.loc 2 446 0 discriminator 2
 223 00ba D24A     		ldr	r2, .L5+4
 224              	.LVL30:
 448:c:\projects\paindrain\arduinolcd\test\pain drain\libraries\lvgl\src\misc\lv_color.h ****     uint32_t result = ((((fg - bg) * mix) >> 5) + bg) & 0x7E0F81F;
 225              		.loc 2 448 0 discriminator 2
 226 00bc BE8C     		ldrh	r6, [r7, #36]
 227 00be 3104     		lsls	r1, r6, #16
 228 00c0 0E43     		orrs	r6, r1
 229              	.LVL31:
 449:c:\projects\paindrain\arduinolcd\test\pain drain\libraries\lvgl\src\misc\lv_color.h ****     ret.full = (uint16_t)((result >> 16) | result);
 230              		.loc 2 449 0 discriminator 2
 231 00c2 1640     		ands	r6, r2
 232              	.LVL32:
 233 00c4 4946     		mov	r1, r9
 234 00c6 0B40     		ands	r3, r1
 235              	.LVL33:
 236 00c8 7343     		muls	r3, r6
 237 00ca 5B09     		lsrs	r3, r3, #5
 238 00cc 1340     		ands	r3, r2
 239              	.LVL34:
 450:c:\projects\paindrain\arduinolcd\test\pain drain\libraries\lvgl\src\misc\lv_color.h **** #elif LV_COLOR_DEPTH != 1
 240              		.loc 2 450 0 discriminator 2
 241 00ce 1E0C     		lsrs	r6, r3, #16
 242              	.LVL35:
 243 00d0 3343     		orrs	r3, r6
 244              	.LVL36:
 245 00d2 9EB2     		uxth	r6, r3
 246              	.LVL37:
 247              	.LBE170:
 248              	.LBE169:
 179:..\..\..\arduinoLCD\test\Pain Drain\libraries\lvgl\src\extra\widgets\led/lv_led.c **** 
 180:..\..\..\arduinoLCD\test\Pain Drain\libraries\lvgl\src\extra\widgets\led/lv_led.c ****         /*Use the original colors brightness to modify color->led*/
 181:..\..\..\arduinoLCD\test\Pain Drain\libraries\lvgl\src\extra\widgets\led/lv_led.c ****         rect_dsc.bg_color = lv_color_mix(led->color, lv_color_black(), lv_color_brightness(rect_dsc
 249              		.loc 1 181 0 discriminator 2
 250 00d4 04AB     		add	r3, sp, #16
 251 00d6 9E80     		strh	r6, [r3, #4]
 252 00d8 D888     		ldrh	r0, [r3, #6]
 253              	.LBB171:
 254              	.LBB172:
 255              	.LBB173:
ARM GAS  C:\Users\haske\AppData\Local\Temp\ccoc8x2c.s 			page 19


 256              	.LBB174:
 420:c:\projects\paindrain\arduinolcd\test\pain drain\libraries\lvgl\src\misc\lv_color.h ****     LV_COLOR_SET_G32(ret, (LV_COLOR_GET_G(color) * 259 + 3) >> 6);
 257              		.loc 2 420 0 discriminator 2
 258 00da C10A     		lsrs	r1, r0, #11
 259 00dc 4B01     		lsls	r3, r1, #5
 260 00de 5B18     		adds	r3, r3, r1
 261 00e0 DB00     		lsls	r3, r3, #3
 262 00e2 5B1A     		subs	r3, r3, r1
 263 00e4 0733     		adds	r3, r3, #7
 264 00e6 5B11     		asrs	r3, r3, #5
 265 00e8 DBB2     		uxtb	r3, r3
 266 00ea 1904     		lsls	r1, r3, #16
 267              	.LVL38:
 421:c:\projects\paindrain\arduinolcd\test\pain drain\libraries\lvgl\src\misc\lv_color.h ****     LV_COLOR_SET_B32(ret, (LV_COLOR_GET_B(color) * 263 + 7) >> 5);
 268              		.loc 2 421 0 discriminator 2
 269 00ec 4305     		lsls	r3, r0, #21
 270 00ee 9B0E     		lsrs	r3, r3, #26
 271 00f0 DD01     		lsls	r5, r3, #7
 272 00f2 ED18     		adds	r5, r5, r3
 273 00f4 6D00     		lsls	r5, r5, #1
 274 00f6 EB18     		adds	r3, r5, r3
 275 00f8 0333     		adds	r3, r3, #3
 276 00fa 9B11     		asrs	r3, r3, #6
 277 00fc DBB2     		uxtb	r3, r3
 278 00fe 1B02     		lsls	r3, r3, #8
 279              	.LVL39:
 280 0100 1943     		orrs	r1, r3
 281              	.LVL40:
 422:c:\projects\paindrain\arduinolcd\test\pain drain\libraries\lvgl\src\misc\lv_color.h ****     LV_COLOR_SET_A32(ret, 0xFF);
 282              		.loc 2 422 0 discriminator 2
 283 0102 C006     		lsls	r0, r0, #27
 284 0104 C00E     		lsrs	r0, r0, #27
 285 0106 4301     		lsls	r3, r0, #5
 286 0108 1B18     		adds	r3, r3, r0
 287 010a DB00     		lsls	r3, r3, #3
 288 010c 1B1A     		subs	r3, r3, r0
 289 010e 0733     		adds	r3, r3, #7
 290 0110 5B11     		asrs	r3, r3, #5
 291 0112 DBB2     		uxtb	r3, r3
 292              	.LVL41:
 293 0114 1943     		orrs	r1, r3
 294              	.LVL42:
 423:c:\projects\paindrain\arduinolcd\test\pain drain\libraries\lvgl\src\misc\lv_color.h ****     return ret.full;
 295              		.loc 2 423 0 discriminator 2
 296 0116 5346     		mov	r3, r10
 297              	.LVL43:
 298 0118 1943     		orrs	r1, r3
 299              	.LVL44:
 300              	.LBE174:
 301              	.LBE173:
 584:c:\projects\paindrain\arduinolcd\test\pain drain\libraries\lvgl\src\misc\lv_color.h ****     return (uint8_t)(bright >> 3);
 302              		.loc 2 584 0 discriminator 2
 303 011a 0802     		lsls	r0, r1, #8
 304 011c 000E     		lsrs	r0, r0, #24
 305 011e 0D04     		lsls	r5, r1, #16
 306 0120 2D0E     		lsrs	r5, r5, #24
 307 0122 4300     		lsls	r3, r0, #1
ARM GAS  C:\Users\haske\AppData\Local\Temp\ccoc8x2c.s 			page 20


 308 0124 C018     		adds	r0, r0, r3
 309 0126 AD00     		lsls	r5, r5, #2
 310 0128 4319     		adds	r3, r0, r5
 311 012a 98B2     		uxth	r0, r3
 312 012c CBB2     		uxtb	r3, r1
 313 012e C318     		adds	r3, r0, r3
 314 0130 9BB2     		uxth	r3, r3
 315              	.LVL45:
 316              		.loc 2 585 0 discriminator 2
 317 0132 DB08     		lsrs	r3, r3, #3
 318              	.LVL46:
 319 0134 DBB2     		uxtb	r3, r3
 320              	.LVL47:
 321              	.LBE172:
 322              	.LBE171:
 323              	.LBB175:
 324              	.LBB176:
 445:c:\projects\paindrain\arduinolcd\test\pain drain\libraries\lvgl\src\misc\lv_color.h ****     uint32_t bg = (uint32_t)((uint32_t)c2.full | ((uint32_t)c2.full << 16)) &
 325              		.loc 2 445 0 discriminator 2
 326 0136 0433     		adds	r3, r3, #4
 327 0138 DB08     		lsrs	r3, r3, #3
 328              	.LVL48:
 448:c:\projects\paindrain\arduinolcd\test\pain drain\libraries\lvgl\src\misc\lv_color.h ****     uint32_t result = ((((fg - bg) * mix) >> 5) + bg) & 0x7E0F81F;
 329              		.loc 2 448 0 discriminator 2
 330 013a BD8C     		ldrh	r5, [r7, #36]
 331 013c 2904     		lsls	r1, r5, #16
 332              	.LVL49:
 333 013e 0D43     		orrs	r5, r1
 334              	.LVL50:
 449:c:\projects\paindrain\arduinolcd\test\pain drain\libraries\lvgl\src\misc\lv_color.h ****     ret.full = (uint16_t)((result >> 16) | result);
 335              		.loc 2 449 0 discriminator 2
 336 0140 1540     		ands	r5, r2
 337              	.LVL51:
 338 0142 4946     		mov	r1, r9
 339 0144 0B40     		ands	r3, r1
 340              	.LVL52:
 341 0146 6B43     		muls	r3, r5
 342 0148 5B09     		lsrs	r3, r3, #5
 343 014a 1340     		ands	r3, r2
 344              	.LVL53:
 450:c:\projects\paindrain\arduinolcd\test\pain drain\libraries\lvgl\src\misc\lv_color.h **** #elif LV_COLOR_DEPTH != 1
 345              		.loc 2 450 0 discriminator 2
 346 014c 1D0C     		lsrs	r5, r3, #16
 347              	.LVL54:
 348 014e 2B43     		orrs	r3, r5
 349              	.LVL55:
 350 0150 9DB2     		uxth	r5, r3
 351              	.LVL56:
 352              	.LBE176:
 353              	.LBE175:
 182:..\..\..\arduinoLCD\test\Pain Drain\libraries\lvgl\src\extra\widgets\led/lv_led.c ****         rect_dsc.bg_grad.stops[0].color = lv_color_mix(led->color, lv_color_black(),
 354              		.loc 1 182 0 discriminator 2
 355 0152 04AB     		add	r3, sp, #16
 356 0154 DD80     		strh	r5, [r3, #6]
 357 0156 5889     		ldrh	r0, [r3, #10]
 358              	.LBB177:
 359              	.LBB178:
ARM GAS  C:\Users\haske\AppData\Local\Temp\ccoc8x2c.s 			page 21


 360              	.LBB179:
 361              	.LBB180:
 420:c:\projects\paindrain\arduinolcd\test\pain drain\libraries\lvgl\src\misc\lv_color.h ****     LV_COLOR_SET_G32(ret, (LV_COLOR_GET_G(color) * 259 + 3) >> 6);
 362              		.loc 2 420 0 discriminator 2
 363 0158 C10A     		lsrs	r1, r0, #11
 364 015a 4B01     		lsls	r3, r1, #5
 365 015c 5B18     		adds	r3, r3, r1
 366 015e DB00     		lsls	r3, r3, #3
 367 0160 5B1A     		subs	r3, r3, r1
 368 0162 0733     		adds	r3, r3, #7
 369 0164 5B11     		asrs	r3, r3, #5
 370 0166 DBB2     		uxtb	r3, r3
 371 0168 1904     		lsls	r1, r3, #16
 372              	.LVL57:
 421:c:\projects\paindrain\arduinolcd\test\pain drain\libraries\lvgl\src\misc\lv_color.h ****     LV_COLOR_SET_B32(ret, (LV_COLOR_GET_B(color) * 263 + 7) >> 5);
 373              		.loc 2 421 0 discriminator 2
 374 016a 4305     		lsls	r3, r0, #21
 375 016c 9B0E     		lsrs	r3, r3, #26
 376 016e DC01     		lsls	r4, r3, #7
 377              	.LVL58:
 378 0170 E418     		adds	r4, r4, r3
 379 0172 6400     		lsls	r4, r4, #1
 380 0174 E318     		adds	r3, r4, r3
 381 0176 0333     		adds	r3, r3, #3
 382 0178 9B11     		asrs	r3, r3, #6
 383 017a DBB2     		uxtb	r3, r3
 384 017c 1B02     		lsls	r3, r3, #8
 385              	.LVL59:
 386 017e 1943     		orrs	r1, r3
 387              	.LVL60:
 422:c:\projects\paindrain\arduinolcd\test\pain drain\libraries\lvgl\src\misc\lv_color.h ****     LV_COLOR_SET_A32(ret, 0xFF);
 388              		.loc 2 422 0 discriminator 2
 389 0180 C006     		lsls	r0, r0, #27
 390 0182 C00E     		lsrs	r0, r0, #27
 391 0184 4301     		lsls	r3, r0, #5
 392 0186 1B18     		adds	r3, r3, r0
 393 0188 DB00     		lsls	r3, r3, #3
 394 018a 1B1A     		subs	r3, r3, r0
 395 018c 0733     		adds	r3, r3, #7
 396 018e 5B11     		asrs	r3, r3, #5
 397 0190 DBB2     		uxtb	r3, r3
 398              	.LVL61:
 399 0192 1943     		orrs	r1, r3
 400              	.LVL62:
 423:c:\projects\paindrain\arduinolcd\test\pain drain\libraries\lvgl\src\misc\lv_color.h ****     return ret.full;
 401              		.loc 2 423 0 discriminator 2
 402 0194 5346     		mov	r3, r10
 403              	.LVL63:
 404 0196 1943     		orrs	r1, r3
 405              	.LVL64:
 406              	.LBE180:
 407              	.LBE179:
 584:c:\projects\paindrain\arduinolcd\test\pain drain\libraries\lvgl\src\misc\lv_color.h ****     return (uint8_t)(bright >> 3);
 408              		.loc 2 584 0 discriminator 2
 409 0198 0B02     		lsls	r3, r1, #8
 410 019a 1B0E     		lsrs	r3, r3, #24
 411 019c 0804     		lsls	r0, r1, #16
ARM GAS  C:\Users\haske\AppData\Local\Temp\ccoc8x2c.s 			page 22


 412 019e 000E     		lsrs	r0, r0, #24
 413 01a0 5C00     		lsls	r4, r3, #1
 414 01a2 1B19     		adds	r3, r3, r4
 415 01a4 8000     		lsls	r0, r0, #2
 416 01a6 1B18     		adds	r3, r3, r0
 417 01a8 98B2     		uxth	r0, r3
 418 01aa CBB2     		uxtb	r3, r1
 419 01ac C318     		adds	r3, r0, r3
 420 01ae 9BB2     		uxth	r3, r3
 421              	.LVL65:
 422              		.loc 2 585 0 discriminator 2
 423 01b0 DB08     		lsrs	r3, r3, #3
 424              	.LVL66:
 425 01b2 DBB2     		uxtb	r3, r3
 426              	.LVL67:
 427              	.LBE178:
 428              	.LBE177:
 429              	.LBB181:
 430              	.LBB182:
 445:c:\projects\paindrain\arduinolcd\test\pain drain\libraries\lvgl\src\misc\lv_color.h ****     uint32_t bg = (uint32_t)((uint32_t)c2.full | ((uint32_t)c2.full << 16)) &
 431              		.loc 2 445 0 discriminator 2
 432 01b4 0433     		adds	r3, r3, #4
 433 01b6 DB08     		lsrs	r3, r3, #3
 434              	.LVL68:
 448:c:\projects\paindrain\arduinolcd\test\pain drain\libraries\lvgl\src\misc\lv_color.h ****     uint32_t result = ((((fg - bg) * mix) >> 5) + bg) & 0x7E0F81F;
 435              		.loc 2 448 0 discriminator 2
 436 01b8 B88C     		ldrh	r0, [r7, #36]
 437 01ba 0104     		lsls	r1, r0, #16
 438              	.LVL69:
 439 01bc 0843     		orrs	r0, r1
 440              	.LVL70:
 449:c:\projects\paindrain\arduinolcd\test\pain drain\libraries\lvgl\src\misc\lv_color.h ****     ret.full = (uint16_t)((result >> 16) | result);
 441              		.loc 2 449 0 discriminator 2
 442 01be 1040     		ands	r0, r2
 443              	.LVL71:
 444 01c0 4946     		mov	r1, r9
 445 01c2 0B40     		ands	r3, r1
 446              	.LVL72:
 447 01c4 4343     		muls	r3, r0
 448 01c6 5B09     		lsrs	r3, r3, #5
 449 01c8 1340     		ands	r3, r2
 450              	.LVL73:
 450:c:\projects\paindrain\arduinolcd\test\pain drain\libraries\lvgl\src\misc\lv_color.h **** #elif LV_COLOR_DEPTH != 1
 451              		.loc 2 450 0 discriminator 2
 452 01ca 180C     		lsrs	r0, r3, #16
 453              	.LVL74:
 454 01cc 0343     		orrs	r3, r0
 455              	.LVL75:
 456 01ce 98B2     		uxth	r0, r3
 457              	.LVL76:
 458              	.LBE182:
 459              	.LBE181:
 183:..\..\..\arduinoLCD\test\Pain Drain\libraries\lvgl\src\extra\widgets\led/lv_led.c ****                                                        lv_color_brightness(rect_dsc.bg_grad.stops[0
 184:..\..\..\arduinoLCD\test\Pain Drain\libraries\lvgl\src\extra\widgets\led/lv_led.c ****         rect_dsc.bg_grad.stops[1].color = lv_color_mix(led->color, lv_color_black(),
 460              		.loc 1 184 0 discriminator 2
 461 01d0 04AB     		add	r3, sp, #16
 462 01d2 0290     		str	r0, [sp, #8]
ARM GAS  C:\Users\haske\AppData\Local\Temp\ccoc8x2c.s 			page 23


 463 01d4 5881     		strh	r0, [r3, #10]
 464 01d6 9C8D     		ldrh	r4, [r3, #44]
 465              	.LBB183:
 466              	.LBB184:
 467              	.LBB185:
 468              	.LBB186:
 420:c:\projects\paindrain\arduinolcd\test\pain drain\libraries\lvgl\src\misc\lv_color.h ****     LV_COLOR_SET_G32(ret, (LV_COLOR_GET_G(color) * 259 + 3) >> 6);
 469              		.loc 2 420 0 discriminator 2
 470 01d8 E10A     		lsrs	r1, r4, #11
 471 01da 4B01     		lsls	r3, r1, #5
 472 01dc 5B18     		adds	r3, r3, r1
 473 01de DB00     		lsls	r3, r3, #3
 474 01e0 5B1A     		subs	r3, r3, r1
 475 01e2 0733     		adds	r3, r3, #7
 476 01e4 5B11     		asrs	r3, r3, #5
 477 01e6 DBB2     		uxtb	r3, r3
 478 01e8 1B04     		lsls	r3, r3, #16
 479              	.LVL77:
 421:c:\projects\paindrain\arduinolcd\test\pain drain\libraries\lvgl\src\misc\lv_color.h ****     LV_COLOR_SET_B32(ret, (LV_COLOR_GET_B(color) * 263 + 7) >> 5);
 480              		.loc 2 421 0 discriminator 2
 481 01ea 6105     		lsls	r1, r4, #21
 482 01ec 890E     		lsrs	r1, r1, #26
 483 01ee C801     		lsls	r0, r1, #7
 484 01f0 8046     		mov	r8, r0
 485 01f2 8844     		add	r8, r8, r1
 486 01f4 4046     		mov	r0, r8
 487 01f6 4000     		lsls	r0, r0, #1
 488 01f8 8046     		mov	r8, r0
 489 01fa 4144     		add	r1, r1, r8
 490 01fc 0331     		adds	r1, r1, #3
 491 01fe 8911     		asrs	r1, r1, #6
 492 0200 C9B2     		uxtb	r1, r1
 493 0202 0902     		lsls	r1, r1, #8
 494              	.LVL78:
 495 0204 0B43     		orrs	r3, r1
 496              	.LVL79:
 422:c:\projects\paindrain\arduinolcd\test\pain drain\libraries\lvgl\src\misc\lv_color.h ****     LV_COLOR_SET_A32(ret, 0xFF);
 497              		.loc 2 422 0 discriminator 2
 498 0206 E106     		lsls	r1, r4, #27
 499 0208 CC0E     		lsrs	r4, r1, #27
 500 020a 6101     		lsls	r1, r4, #5
 501 020c 0919     		adds	r1, r1, r4
 502 020e C900     		lsls	r1, r1, #3
 503 0210 091B     		subs	r1, r1, r4
 504 0212 0731     		adds	r1, r1, #7
 505 0214 4911     		asrs	r1, r1, #5
 506 0216 C9B2     		uxtb	r1, r1
 507              	.LVL80:
 508 0218 0B43     		orrs	r3, r1
 509              	.LVL81:
 423:c:\projects\paindrain\arduinolcd\test\pain drain\libraries\lvgl\src\misc\lv_color.h ****     return ret.full;
 510              		.loc 2 423 0 discriminator 2
 511 021a 5146     		mov	r1, r10
 512              	.LVL82:
 513 021c 0B43     		orrs	r3, r1
 514              	.LVL83:
 515              	.LBE186:
ARM GAS  C:\Users\haske\AppData\Local\Temp\ccoc8x2c.s 			page 24


 516              	.LBE185:
 584:c:\projects\paindrain\arduinolcd\test\pain drain\libraries\lvgl\src\misc\lv_color.h ****     return (uint8_t)(bright >> 3);
 517              		.loc 2 584 0 discriminator 2
 518 021e 1902     		lsls	r1, r3, #8
 519 0220 090E     		lsrs	r1, r1, #24
 520 0222 8C46     		mov	ip, r1
 521 0224 1904     		lsls	r1, r3, #16
 522 0226 090E     		lsrs	r1, r1, #24
 523 0228 6046     		mov	r0, ip
 524 022a 4400     		lsls	r4, r0, #1
 525 022c 6444     		add	r4, r4, ip
 526 022e 8900     		lsls	r1, r1, #2
 527 0230 6118     		adds	r1, r4, r1
 528 0232 89B2     		uxth	r1, r1
 529 0234 DBB2     		uxtb	r3, r3
 530              	.LVL84:
 531 0236 CB18     		adds	r3, r1, r3
 532 0238 9BB2     		uxth	r3, r3
 533              	.LVL85:
 534              		.loc 2 585 0 discriminator 2
 535 023a DB08     		lsrs	r3, r3, #3
 536              	.LVL86:
 537 023c DBB2     		uxtb	r3, r3
 538              	.LVL87:
 539              	.LBE184:
 540              	.LBE183:
 541              	.LBB187:
 542              	.LBB188:
 445:c:\projects\paindrain\arduinolcd\test\pain drain\libraries\lvgl\src\misc\lv_color.h ****     uint32_t bg = (uint32_t)((uint32_t)c2.full | ((uint32_t)c2.full << 16)) &
 543              		.loc 2 445 0 discriminator 2
 544 023e 0433     		adds	r3, r3, #4
 545 0240 DB08     		lsrs	r3, r3, #3
 546              	.LVL88:
 448:c:\projects\paindrain\arduinolcd\test\pain drain\libraries\lvgl\src\misc\lv_color.h ****     uint32_t result = ((((fg - bg) * mix) >> 5) + bg) & 0x7E0F81F;
 547              		.loc 2 448 0 discriminator 2
 548 0242 BC8C     		ldrh	r4, [r7, #36]
 549 0244 2104     		lsls	r1, r4, #16
 550 0246 2143     		orrs	r1, r4
 551              	.LVL89:
 449:c:\projects\paindrain\arduinolcd\test\pain drain\libraries\lvgl\src\misc\lv_color.h ****     ret.full = (uint16_t)((result >> 16) | result);
 552              		.loc 2 449 0 discriminator 2
 553 0248 1140     		ands	r1, r2
 554              	.LVL90:
 555 024a 4846     		mov	r0, r9
 556 024c 0340     		ands	r3, r0
 557              	.LVL91:
 558 024e 4B43     		muls	r3, r1
 559 0250 5B09     		lsrs	r3, r3, #5
 560 0252 1340     		ands	r3, r2
 561              	.LVL92:
 450:c:\projects\paindrain\arduinolcd\test\pain drain\libraries\lvgl\src\misc\lv_color.h **** #elif LV_COLOR_DEPTH != 1
 562              		.loc 2 450 0 discriminator 2
 563 0254 190C     		lsrs	r1, r3, #16
 564              	.LVL93:
 565 0256 0B43     		orrs	r3, r1
 566              	.LVL94:
 567 0258 9CB2     		uxth	r4, r3
ARM GAS  C:\Users\haske\AppData\Local\Temp\ccoc8x2c.s 			page 25


 568              	.LVL95:
 569              	.LBE188:
 570              	.LBE187:
 185:..\..\..\arduinoLCD\test\Pain Drain\libraries\lvgl\src\extra\widgets\led/lv_led.c ****                                                        lv_color_brightness(rect_dsc.bg_grad.stops[1
 186:..\..\..\arduinoLCD\test\Pain Drain\libraries\lvgl\src\extra\widgets\led/lv_led.c ****         rect_dsc.shadow_color = lv_color_mix(led->color, lv_color_black(), lv_color_brightness(rect
 571              		.loc 1 186 0 discriminator 2
 572 025a 04AB     		add	r3, sp, #16
 573 025c 9C85     		strh	r4, [r3, #44]
 574 025e DB8B     		ldrh	r3, [r3, #30]
 575 0260 9C46     		mov	ip, r3
 576              	.LBB189:
 577              	.LBB190:
 578              	.LBB191:
 579              	.LBB192:
 420:c:\projects\paindrain\arduinolcd\test\pain drain\libraries\lvgl\src\misc\lv_color.h ****     LV_COLOR_SET_G32(ret, (LV_COLOR_GET_G(color) * 259 + 3) >> 6);
 580              		.loc 2 420 0 discriminator 2
 581 0262 D90A     		lsrs	r1, r3, #11
 582 0264 4B01     		lsls	r3, r1, #5
 583 0266 5B18     		adds	r3, r3, r1
 584 0268 DB00     		lsls	r3, r3, #3
 585 026a 5B1A     		subs	r3, r3, r1
 586 026c 0733     		adds	r3, r3, #7
 587 026e 5B11     		asrs	r3, r3, #5
 588 0270 DBB2     		uxtb	r3, r3
 589 0272 1B04     		lsls	r3, r3, #16
 590              	.LVL96:
 421:c:\projects\paindrain\arduinolcd\test\pain drain\libraries\lvgl\src\misc\lv_color.h ****     LV_COLOR_SET_B32(ret, (LV_COLOR_GET_B(color) * 263 + 7) >> 5);
 591              		.loc 2 421 0 discriminator 2
 592 0274 6146     		mov	r1, ip
 593 0276 4905     		lsls	r1, r1, #21
 594 0278 890E     		lsrs	r1, r1, #26
 595 027a C801     		lsls	r0, r1, #7
 596 027c 8046     		mov	r8, r0
 597 027e 8844     		add	r8, r8, r1
 598 0280 4046     		mov	r0, r8
 599 0282 4000     		lsls	r0, r0, #1
 600 0284 8046     		mov	r8, r0
 601 0286 4144     		add	r1, r1, r8
 602 0288 0331     		adds	r1, r1, #3
 603 028a 8911     		asrs	r1, r1, #6
 604 028c C9B2     		uxtb	r1, r1
 605 028e 0902     		lsls	r1, r1, #8
 606              	.LVL97:
 607 0290 0B43     		orrs	r3, r1
 608              	.LVL98:
 422:c:\projects\paindrain\arduinolcd\test\pain drain\libraries\lvgl\src\misc\lv_color.h ****     LV_COLOR_SET_A32(ret, 0xFF);
 609              		.loc 2 422 0 discriminator 2
 610 0292 6146     		mov	r1, ip
 611 0294 C906     		lsls	r1, r1, #27
 612 0296 C90E     		lsrs	r1, r1, #27
 613 0298 8C46     		mov	ip, r1
 614 029a 4901     		lsls	r1, r1, #5
 615 029c 6144     		add	r1, r1, ip
 616 029e C900     		lsls	r1, r1, #3
 617 02a0 6046     		mov	r0, ip
 618 02a2 091A     		subs	r1, r1, r0
 619 02a4 0731     		adds	r1, r1, #7
ARM GAS  C:\Users\haske\AppData\Local\Temp\ccoc8x2c.s 			page 26


 620 02a6 4911     		asrs	r1, r1, #5
 621 02a8 C9B2     		uxtb	r1, r1
 622              	.LVL99:
 623 02aa 0B43     		orrs	r3, r1
 624              	.LVL100:
 423:c:\projects\paindrain\arduinolcd\test\pain drain\libraries\lvgl\src\misc\lv_color.h ****     return ret.full;
 625              		.loc 2 423 0 discriminator 2
 626 02ac 5146     		mov	r1, r10
 627              	.LVL101:
 628 02ae 0B43     		orrs	r3, r1
 629              	.LVL102:
 630              	.LBE192:
 631              	.LBE191:
 584:c:\projects\paindrain\arduinolcd\test\pain drain\libraries\lvgl\src\misc\lv_color.h ****     return (uint8_t)(bright >> 3);
 632              		.loc 2 584 0 discriminator 2
 633 02b0 1902     		lsls	r1, r3, #8
 634 02b2 090E     		lsrs	r1, r1, #24
 635 02b4 8C46     		mov	ip, r1
 636 02b6 1904     		lsls	r1, r3, #16
 637 02b8 090E     		lsrs	r1, r1, #24
 638 02ba 6046     		mov	r0, ip
 639 02bc 4000     		lsls	r0, r0, #1
 640 02be 8046     		mov	r8, r0
 641 02c0 C444     		add	ip, ip, r8
 642 02c2 8900     		lsls	r1, r1, #2
 643 02c4 6144     		add	r1, r1, ip
 644 02c6 89B2     		uxth	r1, r1
 645 02c8 DBB2     		uxtb	r3, r3
 646              	.LVL103:
 647 02ca CB18     		adds	r3, r1, r3
 648 02cc 9BB2     		uxth	r3, r3
 649              	.LVL104:
 650              		.loc 2 585 0 discriminator 2
 651 02ce DB08     		lsrs	r3, r3, #3
 652              	.LVL105:
 653 02d0 DBB2     		uxtb	r3, r3
 654              	.LVL106:
 655              	.LBE190:
 656              	.LBE189:
 657              	.LBB193:
 658              	.LBB194:
 445:c:\projects\paindrain\arduinolcd\test\pain drain\libraries\lvgl\src\misc\lv_color.h ****     uint32_t bg = (uint32_t)((uint32_t)c2.full | ((uint32_t)c2.full << 16)) &
 659              		.loc 2 445 0 discriminator 2
 660 02d2 0433     		adds	r3, r3, #4
 661 02d4 DB08     		lsrs	r3, r3, #3
 662              	.LVL107:
 448:c:\projects\paindrain\arduinolcd\test\pain drain\libraries\lvgl\src\misc\lv_color.h ****     uint32_t result = ((((fg - bg) * mix) >> 5) + bg) & 0x7E0F81F;
 663              		.loc 2 448 0 discriminator 2
 664 02d6 B98C     		ldrh	r1, [r7, #36]
 665 02d8 8C46     		mov	ip, r1
 666 02da 0904     		lsls	r1, r1, #16
 667 02dc 6046     		mov	r0, ip
 668 02de 0143     		orrs	r1, r0
 669              	.LVL108:
 449:c:\projects\paindrain\arduinolcd\test\pain drain\libraries\lvgl\src\misc\lv_color.h ****     ret.full = (uint16_t)((result >> 16) | result);
 670              		.loc 2 449 0 discriminator 2
 671 02e0 1140     		ands	r1, r2
ARM GAS  C:\Users\haske\AppData\Local\Temp\ccoc8x2c.s 			page 27


 672              	.LVL109:
 673 02e2 4846     		mov	r0, r9
 674 02e4 0340     		ands	r3, r0
 675              	.LVL110:
 676 02e6 5943     		muls	r1, r3
 677              	.LVL111:
 678 02e8 4909     		lsrs	r1, r1, #5
 679 02ea 1140     		ands	r1, r2
 680              	.LVL112:
 450:c:\projects\paindrain\arduinolcd\test\pain drain\libraries\lvgl\src\misc\lv_color.h **** #elif LV_COLOR_DEPTH != 1
 681              		.loc 2 450 0 discriminator 2
 682 02ec 0B0C     		lsrs	r3, r1, #16
 683 02ee 1943     		orrs	r1, r3
 684              	.LVL113:
 685 02f0 89B2     		uxth	r1, r1
 686              	.LVL114:
 687              	.LBE194:
 688              	.LBE193:
 187:..\..\..\arduinoLCD\test\Pain Drain\libraries\lvgl\src\extra\widgets\led/lv_led.c ****         rect_dsc.border_color = lv_color_mix(led->color, lv_color_black(), lv_color_brightness(rect
 689              		.loc 1 187 0 discriminator 2
 690 02f2 04AB     		add	r3, sp, #16
 691 02f4 0191     		str	r1, [sp, #4]
 692 02f6 D983     		strh	r1, [r3, #30]
 693 02f8 9B8C     		ldrh	r3, [r3, #36]
 694 02fa 9846     		mov	r8, r3
 695              	.LBB195:
 696              	.LBB196:
 697              	.LBB197:
 698              	.LBB198:
 420:c:\projects\paindrain\arduinolcd\test\pain drain\libraries\lvgl\src\misc\lv_color.h ****     LV_COLOR_SET_G32(ret, (LV_COLOR_GET_G(color) * 259 + 3) >> 6);
 699              		.loc 2 420 0 discriminator 2
 700 02fc DB0A     		lsrs	r3, r3, #11
 701 02fe 9C46     		mov	ip, r3
 702 0300 5B01     		lsls	r3, r3, #5
 703 0302 6344     		add	r3, r3, ip
 704 0304 DB00     		lsls	r3, r3, #3
 705 0306 6046     		mov	r0, ip
 706 0308 1B1A     		subs	r3, r3, r0
 707 030a 0733     		adds	r3, r3, #7
 708 030c 5B11     		asrs	r3, r3, #5
 709 030e DBB2     		uxtb	r3, r3
 710 0310 1B04     		lsls	r3, r3, #16
 711              	.LVL115:
 421:c:\projects\paindrain\arduinolcd\test\pain drain\libraries\lvgl\src\misc\lv_color.h ****     LV_COLOR_SET_B32(ret, (LV_COLOR_GET_B(color) * 263 + 7) >> 5);
 712              		.loc 2 421 0 discriminator 2
 713 0312 4046     		mov	r0, r8
 714 0314 4005     		lsls	r0, r0, #21
 715 0316 800E     		lsrs	r0, r0, #26
 716 0318 8446     		mov	ip, r0
 717 031a C001     		lsls	r0, r0, #7
 718 031c 8346     		mov	fp, r0
 719 031e E344     		add	fp, fp, ip
 720 0320 5846     		mov	r0, fp
 721 0322 4000     		lsls	r0, r0, #1
 722 0324 8346     		mov	fp, r0
 723 0326 DC44     		add	ip, ip, fp
 724 0328 0320     		movs	r0, #3
ARM GAS  C:\Users\haske\AppData\Local\Temp\ccoc8x2c.s 			page 28


 725 032a 8346     		mov	fp, r0
 726 032c DC44     		add	ip, ip, fp
 727 032e 6046     		mov	r0, ip
 728 0330 8011     		asrs	r0, r0, #6
 729 0332 C0B2     		uxtb	r0, r0
 730 0334 0002     		lsls	r0, r0, #8
 731              	.LVL116:
 732 0336 0343     		orrs	r3, r0
 733              	.LVL117:
 422:c:\projects\paindrain\arduinolcd\test\pain drain\libraries\lvgl\src\misc\lv_color.h ****     LV_COLOR_SET_A32(ret, 0xFF);
 734              		.loc 2 422 0 discriminator 2
 735 0338 4046     		mov	r0, r8
 736 033a C006     		lsls	r0, r0, #27
 737 033c C00E     		lsrs	r0, r0, #27
 738 033e 8046     		mov	r8, r0
 739 0340 4001     		lsls	r0, r0, #5
 740 0342 8446     		mov	ip, r0
 741 0344 C444     		add	ip, ip, r8
 742 0346 6046     		mov	r0, ip
 743 0348 C000     		lsls	r0, r0, #3
 744 034a 4146     		mov	r1, r8
 745 034c 401A     		subs	r0, r0, r1
 746 034e 8446     		mov	ip, r0
 747 0350 0721     		movs	r1, #7
 748 0352 8846     		mov	r8, r1
 749 0354 C444     		add	ip, ip, r8
 750 0356 6146     		mov	r1, ip
 751 0358 4911     		asrs	r1, r1, #5
 752 035a 6846     		mov	r0, sp
 753 035c 8173     		strb	r1, [r0, #14]
 754 035e 817B     		ldrb	r1, [r0, #14]
 755              	.LVL118:
 756 0360 0B43     		orrs	r3, r1
 757              	.LVL119:
 423:c:\projects\paindrain\arduinolcd\test\pain drain\libraries\lvgl\src\misc\lv_color.h ****     return ret.full;
 758              		.loc 2 423 0 discriminator 2
 759 0362 5146     		mov	r1, r10
 760              	.LVL120:
 761 0364 0B43     		orrs	r3, r1
 762              	.LVL121:
 763              	.LBE198:
 764              	.LBE197:
 584:c:\projects\paindrain\arduinolcd\test\pain drain\libraries\lvgl\src\misc\lv_color.h ****     return (uint8_t)(bright >> 3);
 765              		.loc 2 584 0 discriminator 2
 766 0366 1902     		lsls	r1, r3, #8
 767 0368 090E     		lsrs	r1, r1, #24
 768 036a 8A46     		mov	r10, r1
 769 036c 1904     		lsls	r1, r3, #16
 770 036e 090E     		lsrs	r1, r1, #24
 771 0370 8846     		mov	r8, r1
 772 0372 5146     		mov	r1, r10
 773 0374 4900     		lsls	r1, r1, #1
 774 0376 8C46     		mov	ip, r1
 775 0378 D444     		add	ip, ip, r10
 776 037a 4146     		mov	r1, r8
 777 037c 8900     		lsls	r1, r1, #2
 778 037e 8846     		mov	r8, r1
ARM GAS  C:\Users\haske\AppData\Local\Temp\ccoc8x2c.s 			page 29


 779 0380 C444     		add	ip, ip, r8
 780 0382 6146     		mov	r1, ip
 781 0384 C181     		strh	r1, [r0, #14]
 782 0386 C189     		ldrh	r1, [r0, #14]
 783 0388 8C46     		mov	ip, r1
 784 038a DBB2     		uxtb	r3, r3
 785              	.LVL122:
 786 038c 6344     		add	r3, r3, ip
 787 038e 9BB2     		uxth	r3, r3
 788              	.LVL123:
 789              		.loc 2 585 0 discriminator 2
 790 0390 DB08     		lsrs	r3, r3, #3
 791              	.LVL124:
 792 0392 DBB2     		uxtb	r3, r3
 793              	.LVL125:
 794              	.LBE196:
 795              	.LBE195:
 796              	.LBB199:
 797              	.LBB200:
 445:c:\projects\paindrain\arduinolcd\test\pain drain\libraries\lvgl\src\misc\lv_color.h ****     uint32_t bg = (uint32_t)((uint32_t)c2.full | ((uint32_t)c2.full << 16)) &
 798              		.loc 2 445 0 discriminator 2
 799 0394 0433     		adds	r3, r3, #4
 800 0396 DB08     		lsrs	r3, r3, #3
 801 0398 9C46     		mov	ip, r3
 802              	.LVL126:
 448:c:\projects\paindrain\arduinolcd\test\pain drain\libraries\lvgl\src\misc\lv_color.h ****     uint32_t result = ((((fg - bg) * mix) >> 5) + bg) & 0x7E0F81F;
 803              		.loc 2 448 0 discriminator 2
 804 039a BB8C     		ldrh	r3, [r7, #36]
 805 039c 1904     		lsls	r1, r3, #16
 806 039e 0B43     		orrs	r3, r1
 807              	.LVL127:
 449:c:\projects\paindrain\arduinolcd\test\pain drain\libraries\lvgl\src\misc\lv_color.h ****     ret.full = (uint16_t)((result >> 16) | result);
 808              		.loc 2 449 0 discriminator 2
 809 03a0 1340     		ands	r3, r2
 810              	.LVL128:
 811 03a2 9846     		mov	r8, r3
 812 03a4 6346     		mov	r3, ip
 813              	.LVL129:
 814 03a6 4946     		mov	r1, r9
 815 03a8 0B40     		ands	r3, r1
 816 03aa 4146     		mov	r1, r8
 817 03ac 4B43     		muls	r3, r1
 818 03ae 5B09     		lsrs	r3, r3, #5
 819 03b0 1340     		ands	r3, r2
 820              	.LVL130:
 450:c:\projects\paindrain\arduinolcd\test\pain drain\libraries\lvgl\src\misc\lv_color.h **** #elif LV_COLOR_DEPTH != 1
 821              		.loc 2 450 0 discriminator 2
 822 03b2 190C     		lsrs	r1, r3, #16
 823 03b4 0B43     		orrs	r3, r1
 824              	.LVL131:
 825 03b6 9BB2     		uxth	r3, r3
 826 03b8 9C46     		mov	ip, r3
 827              	.LVL132:
 828              	.LBE200:
 829              	.LBE199:
 188:..\..\..\arduinoLCD\test\Pain Drain\libraries\lvgl\src\extra\widgets\led/lv_led.c ****         rect_dsc.outline_color = lv_color_mix(led->color, lv_color_black(), lv_color_brightness(rec
 830              		.loc 1 188 0 discriminator 2
ARM GAS  C:\Users\haske\AppData\Local\Temp\ccoc8x2c.s 			page 30


 831 03ba 04AB     		add	r3, sp, #16
 832 03bc 6146     		mov	r1, ip
 833 03be 9984     		strh	r1, [r3, #36]
 189:..\..\..\arduinoLCD\test\Pain Drain\libraries\lvgl\src\extra\widgets\led/lv_led.c **** 
 190:..\..\..\arduinoLCD\test\Pain Drain\libraries\lvgl\src\extra\widgets\led/lv_led.c ****         /*Mix. the color with black proportionally with brightness*/
 191:..\..\..\arduinoLCD\test\Pain Drain\libraries\lvgl\src\extra\widgets\led/lv_led.c ****         rect_dsc.bg_color = lv_color_mix(rect_dsc.bg_color, lv_color_black(), led->bright);
 834              		.loc 1 191 0 discriminator 2
 835 03c0 2623     		movs	r3, #38
 836 03c2 FB5C     		ldrb	r3, [r7, r3]
 837              	.LVL133:
 838              	.LBB201:
 839              	.LBB202:
 445:c:\projects\paindrain\arduinolcd\test\pain drain\libraries\lvgl\src\misc\lv_color.h ****     uint32_t bg = (uint32_t)((uint32_t)c2.full | ((uint32_t)c2.full << 16)) &
 840              		.loc 2 445 0 discriminator 2
 841 03c4 0433     		adds	r3, r3, #4
 842              	.LVL134:
 843 03c6 DB08     		lsrs	r3, r3, #3
 844              	.LVL135:
 448:c:\projects\paindrain\arduinolcd\test\pain drain\libraries\lvgl\src\misc\lv_color.h ****     uint32_t result = ((((fg - bg) * mix) >> 5) + bg) & 0x7E0F81F;
 845              		.loc 2 448 0 discriminator 2
 846 03c8 3104     		lsls	r1, r6, #16
 847 03ca 0E43     		orrs	r6, r1
 848              	.LVL136:
 449:c:\projects\paindrain\arduinolcd\test\pain drain\libraries\lvgl\src\misc\lv_color.h ****     ret.full = (uint16_t)((result >> 16) | result);
 849              		.loc 2 449 0 discriminator 2
 850 03cc 1640     		ands	r6, r2
 851              	.LVL137:
 852 03ce 4946     		mov	r1, r9
 853 03d0 0B40     		ands	r3, r1
 854              	.LVL138:
 855 03d2 5E43     		muls	r6, r3
 856              	.LVL139:
 857 03d4 7609     		lsrs	r6, r6, #5
 858 03d6 1640     		ands	r6, r2
 859              	.LVL140:
 450:c:\projects\paindrain\arduinolcd\test\pain drain\libraries\lvgl\src\misc\lv_color.h **** #elif LV_COLOR_DEPTH != 1
 860              		.loc 2 450 0 discriminator 2
 861 03d8 310C     		lsrs	r1, r6, #16
 862 03da 0E43     		orrs	r6, r1
 863              	.LVL141:
 864              	.LBE202:
 865              	.LBE201:
 866              		.loc 1 191 0 discriminator 2
 867 03dc 04A9     		add	r1, sp, #16
 868 03de 8E80     		strh	r6, [r1, #4]
 869              	.LVL142:
 870              	.LBB203:
 871              	.LBB204:
 448:c:\projects\paindrain\arduinolcd\test\pain drain\libraries\lvgl\src\misc\lv_color.h ****     uint32_t result = ((((fg - bg) * mix) >> 5) + bg) & 0x7E0F81F;
 872              		.loc 2 448 0 discriminator 2
 873 03e0 2E04     		lsls	r6, r5, #16
 874 03e2 3543     		orrs	r5, r6
 875              	.LVL143:
 449:c:\projects\paindrain\arduinolcd\test\pain drain\libraries\lvgl\src\misc\lv_color.h ****     ret.full = (uint16_t)((result >> 16) | result);
 876              		.loc 2 449 0 discriminator 2
 877 03e4 1540     		ands	r5, r2
 878              	.LVL144:
ARM GAS  C:\Users\haske\AppData\Local\Temp\ccoc8x2c.s 			page 31


 879 03e6 5D43     		muls	r5, r3
 880              	.LVL145:
 881 03e8 6D09     		lsrs	r5, r5, #5
 882 03ea 1540     		ands	r5, r2
 883              	.LVL146:
 450:c:\projects\paindrain\arduinolcd\test\pain drain\libraries\lvgl\src\misc\lv_color.h **** #elif LV_COLOR_DEPTH != 1
 884              		.loc 2 450 0 discriminator 2
 885 03ec 2E0C     		lsrs	r6, r5, #16
 886 03ee 3543     		orrs	r5, r6
 887              	.LVL147:
 888              	.LBE204:
 889              	.LBE203:
 192:..\..\..\arduinoLCD\test\Pain Drain\libraries\lvgl\src\extra\widgets\led/lv_led.c ****         rect_dsc.bg_grad.stops[0].color   = lv_color_mix(rect_dsc.bg_grad.stops[0].color, lv_color_
 890              		.loc 1 192 0 discriminator 2
 891 03f0 CD80     		strh	r5, [r1, #6]
 892              	.LVL148:
 893              	.LBB205:
 894              	.LBB206:
 448:c:\projects\paindrain\arduinolcd\test\pain drain\libraries\lvgl\src\misc\lv_color.h ****     uint32_t result = ((((fg - bg) * mix) >> 5) + bg) & 0x7E0F81F;
 895              		.loc 2 448 0 discriminator 2
 896 03f2 0298     		ldr	r0, [sp, #8]
 897 03f4 0504     		lsls	r5, r0, #16
 898 03f6 2843     		orrs	r0, r5
 899              	.LVL149:
 449:c:\projects\paindrain\arduinolcd\test\pain drain\libraries\lvgl\src\misc\lv_color.h ****     ret.full = (uint16_t)((result >> 16) | result);
 900              		.loc 2 449 0 discriminator 2
 901 03f8 1040     		ands	r0, r2
 902              	.LVL150:
 903 03fa 5843     		muls	r0, r3
 904              	.LVL151:
 905 03fc 4009     		lsrs	r0, r0, #5
 906 03fe 03E0     		b	.L6
 907              	.L7:
 908              		.align	2
 909              	.L5:
 910 0400 00000000 		.word	.LANCHOR0
 911 0404 1FF8E007 		.word	132184095
 912              	.L6:
 913 0408 1040     		ands	r0, r2
 914              	.LVL152:
 450:c:\projects\paindrain\arduinolcd\test\pain drain\libraries\lvgl\src\misc\lv_color.h **** #elif LV_COLOR_DEPTH != 1
 915              		.loc 2 450 0 discriminator 2
 916 040a 050C     		lsrs	r5, r0, #16
 917              	.LVL153:
 918 040c 2843     		orrs	r0, r5
 919              	.LVL154:
 920              	.LBE206:
 921              	.LBE205:
 193:..\..\..\arduinoLCD\test\Pain Drain\libraries\lvgl\src\extra\widgets\led/lv_led.c ****         rect_dsc.bg_grad.stops[1].color   = lv_color_mix(rect_dsc.bg_grad.stops[1].color, lv_color_
 922              		.loc 1 193 0 discriminator 2
 923 040e 4881     		strh	r0, [r1, #10]
 924              	.LVL155:
 925              	.LBB207:
 926              	.LBB208:
 448:c:\projects\paindrain\arduinolcd\test\pain drain\libraries\lvgl\src\misc\lv_color.h ****     uint32_t result = ((((fg - bg) * mix) >> 5) + bg) & 0x7E0F81F;
 927              		.loc 2 448 0 discriminator 2
 928 0410 0199     		ldr	r1, [sp, #4]
ARM GAS  C:\Users\haske\AppData\Local\Temp\ccoc8x2c.s 			page 32


 929 0412 0804     		lsls	r0, r1, #16
 930 0414 0143     		orrs	r1, r0
 931              	.LVL156:
 449:c:\projects\paindrain\arduinolcd\test\pain drain\libraries\lvgl\src\misc\lv_color.h ****     ret.full = (uint16_t)((result >> 16) | result);
 932              		.loc 2 449 0 discriminator 2
 933 0416 1140     		ands	r1, r2
 934              	.LVL157:
 935 0418 5943     		muls	r1, r3
 936              	.LVL158:
 937 041a 4909     		lsrs	r1, r1, #5
 938 041c 0A40     		ands	r2, r1
 939              	.LVL159:
 450:c:\projects\paindrain\arduinolcd\test\pain drain\libraries\lvgl\src\misc\lv_color.h **** #elif LV_COLOR_DEPTH != 1
 940              		.loc 2 450 0 discriminator 2
 941 041e 110C     		lsrs	r1, r2, #16
 942 0420 0A43     		orrs	r2, r1
 943              	.LVL160:
 944              	.LBE208:
 945              	.LBE207:
 194:..\..\..\arduinoLCD\test\Pain Drain\libraries\lvgl\src\extra\widgets\led/lv_led.c ****         rect_dsc.border_color = lv_color_mix(rect_dsc.border_color, lv_color_black(), led->bright);
 946              		.loc 1 194 0 discriminator 2
 947 0422 04A9     		add	r1, sp, #16
 948 0424 CA83     		strh	r2, [r1, #30]
 949              	.LVL161:
 950              	.LBB209:
 951              	.LBB210:
 448:c:\projects\paindrain\arduinolcd\test\pain drain\libraries\lvgl\src\misc\lv_color.h ****     uint32_t result = ((((fg - bg) * mix) >> 5) + bg) & 0x7E0F81F;
 952              		.loc 2 448 0 discriminator 2
 953 0426 2104     		lsls	r1, r4, #16
 954 0428 2143     		orrs	r1, r4
 955 042a 2C4A     		ldr	r2, .L8
 956              	.LVL162:
 449:c:\projects\paindrain\arduinolcd\test\pain drain\libraries\lvgl\src\misc\lv_color.h ****     ret.full = (uint16_t)((result >> 16) | result);
 957              		.loc 2 449 0 discriminator 2
 958 042c 1140     		ands	r1, r2
 959              	.LVL163:
 960 042e 4B43     		muls	r3, r1
 961 0430 5B09     		lsrs	r3, r3, #5
 962 0432 1340     		ands	r3, r2
 963              	.LVL164:
 450:c:\projects\paindrain\arduinolcd\test\pain drain\libraries\lvgl\src\misc\lv_color.h **** #elif LV_COLOR_DEPTH != 1
 964              		.loc 2 450 0 discriminator 2
 965 0434 190C     		lsrs	r1, r3, #16
 966              	.LVL165:
 967 0436 0B43     		orrs	r3, r1
 968              	.LVL166:
 969              	.LBE210:
 970              	.LBE209:
 195:..\..\..\arduinoLCD\test\Pain Drain\libraries\lvgl\src\extra\widgets\led/lv_led.c ****         rect_dsc.shadow_color = lv_color_mix(rect_dsc.shadow_color, lv_color_black(), led->bright);
 971              		.loc 1 195 0 discriminator 2
 972 0438 04A9     		add	r1, sp, #16
 973 043a 8B85     		strh	r3, [r1, #44]
 196:..\..\..\arduinoLCD\test\Pain Drain\libraries\lvgl\src\extra\widgets\led/lv_led.c ****         rect_dsc.outline_color = lv_color_mix(rect_dsc.outline_color, lv_color_black(), led->bright
 974              		.loc 1 196 0 discriminator 2
 975 043c 2625     		movs	r5, #38
 976 043e 785D     		ldrb	r0, [r7, r5]
 977              	.LVL167:
ARM GAS  C:\Users\haske\AppData\Local\Temp\ccoc8x2c.s 			page 33


 978              	.LBB211:
 979              	.LBB212:
 445:c:\projects\paindrain\arduinolcd\test\pain drain\libraries\lvgl\src\misc\lv_color.h ****     uint32_t bg = (uint32_t)((uint32_t)c2.full | ((uint32_t)c2.full << 16)) &
 980              		.loc 2 445 0 discriminator 2
 981 0440 031D     		adds	r3, r0, #4
 982 0442 DB08     		lsrs	r3, r3, #3
 983              	.LVL168:
 448:c:\projects\paindrain\arduinolcd\test\pain drain\libraries\lvgl\src\misc\lv_color.h ****     uint32_t result = ((((fg - bg) * mix) >> 5) + bg) & 0x7E0F81F;
 984              		.loc 2 448 0 discriminator 2
 985 0444 6146     		mov	r1, ip
 986 0446 0904     		lsls	r1, r1, #16
 987 0448 6446     		mov	r4, ip
 988 044a 2143     		orrs	r1, r4
 989              	.LVL169:
 449:c:\projects\paindrain\arduinolcd\test\pain drain\libraries\lvgl\src\misc\lv_color.h ****     ret.full = (uint16_t)((result >> 16) | result);
 990              		.loc 2 449 0 discriminator 2
 991 044c 1140     		ands	r1, r2
 992              	.LVL170:
 993 044e FF26     		movs	r6, #255
 994 0450 3340     		ands	r3, r6
 995              	.LVL171:
 996 0452 4B43     		muls	r3, r1
 997 0454 5B09     		lsrs	r3, r3, #5
 998 0456 1A40     		ands	r2, r3
 999              	.LVL172:
 450:c:\projects\paindrain\arduinolcd\test\pain drain\libraries\lvgl\src\misc\lv_color.h **** #elif LV_COLOR_DEPTH != 1
 1000              		.loc 2 450 0 discriminator 2
 1001 0458 130C     		lsrs	r3, r2, #16
 1002 045a 1A43     		orrs	r2, r3
 1003              	.LVL173:
 1004              	.LBE212:
 1005              	.LBE211:
 1006              		.loc 1 196 0 discriminator 2
 1007 045c 04AB     		add	r3, sp, #16
 1008 045e 9A84     		strh	r2, [r3, #36]
 197:..\..\..\arduinoLCD\test\Pain Drain\libraries\lvgl\src\extra\widgets\led/lv_led.c **** 
 198:..\..\..\arduinoLCD\test\Pain Drain\libraries\lvgl\src\extra\widgets\led/lv_led.c ****         /*Set the current shadow width according to brightness proportionally between LV_LED_BRIGHT
 199:..\..\..\arduinoLCD\test\Pain Drain\libraries\lvgl\src\extra\widgets\led/lv_led.c ****          * and LV_LED_BRIGHT_ON*/
 200:..\..\..\arduinoLCD\test\Pain Drain\libraries\lvgl\src\extra\widgets\led/lv_led.c ****         rect_dsc.shadow_width = ((led->bright - LV_LED_BRIGHT_MIN) * rect_dsc.shadow_width) /
 1009              		.loc 1 200 0 discriminator 2
 1010 0460 5038     		subs	r0, r0, #80
 1011 0462 2E22     		movs	r2, #46
 1012 0464 9B5E     		ldrsh	r3, [r3, r2]
 1013 0466 5843     		muls	r0, r3
 1014 0468 AF21     		movs	r1, #175
 1015 046a FFF7FEFF 		bl	__aeabi_idiv
 1016              	.LVL174:
 1017 046e 04AB     		add	r3, sp, #16
 1018 0470 D885     		strh	r0, [r3, #46]
 201:..\..\..\arduinoLCD\test\Pain Drain\libraries\lvgl\src\extra\widgets\led/lv_led.c ****                                 (LV_LED_BRIGHT_MAX - LV_LED_BRIGHT_MIN);
 202:..\..\..\arduinoLCD\test\Pain Drain\libraries\lvgl\src\extra\widgets\led/lv_led.c ****         rect_dsc.shadow_spread = ((led->bright - LV_LED_BRIGHT_MIN) * rect_dsc.shadow_spread) /
 1019              		.loc 1 202 0 discriminator 2
 1020 0472 785D     		ldrb	r0, [r7, r5]
 1021 0474 0300     		movs	r3, r0
 1022 0476 503B     		subs	r3, r3, #80
 1023 0478 04AA     		add	r2, sp, #16
 1024 047a 3420     		movs	r0, #52
ARM GAS  C:\Users\haske\AppData\Local\Temp\ccoc8x2c.s 			page 34


 1025 047c 105E     		ldrsh	r0, [r2, r0]
 1026 047e 5843     		muls	r0, r3
 1027 0480 AF21     		movs	r1, #175
 1028 0482 FFF7FEFF 		bl	__aeabi_idiv
 1029              	.LVL175:
 1030 0486 04AB     		add	r3, sp, #16
 1031 0488 9886     		strh	r0, [r3, #52]
 203:..\..\..\arduinoLCD\test\Pain Drain\libraries\lvgl\src\extra\widgets\led/lv_led.c ****                                  (LV_LED_BRIGHT_MAX - LV_LED_BRIGHT_MIN);
 204:..\..\..\arduinoLCD\test\Pain Drain\libraries\lvgl\src\extra\widgets\led/lv_led.c **** 
 205:..\..\..\arduinoLCD\test\Pain Drain\libraries\lvgl\src\extra\widgets\led/lv_led.c ****         lv_draw_ctx_t * draw_ctx = lv_event_get_draw_ctx(e);
 1032              		.loc 1 205 0 discriminator 2
 1033 048a 0098     		ldr	r0, [sp]
 1034 048c FFF7FEFF 		bl	lv_event_get_draw_ctx
 1035              	.LVL176:
 1036 0490 0400     		movs	r4, r0
 1037              	.LVL177:
 206:..\..\..\arduinoLCD\test\Pain Drain\libraries\lvgl\src\extra\widgets\led/lv_led.c **** 
 207:..\..\..\arduinoLCD\test\Pain Drain\libraries\lvgl\src\extra\widgets\led/lv_led.c ****         lv_obj_draw_part_dsc_t  part_draw_dsc;
 208:..\..\..\arduinoLCD\test\Pain Drain\libraries\lvgl\src\extra\widgets\led/lv_led.c ****         lv_obj_draw_dsc_init(&part_draw_dsc, draw_ctx);
 1038              		.loc 1 208 0 discriminator 2
 1039 0492 0100     		movs	r1, r0
 1040 0494 12A8     		add	r0, sp, #72
 1041              	.LVL178:
 1042 0496 FFF7FEFF 		bl	lv_obj_draw_dsc_init
 1043              	.LVL179:
 209:..\..\..\arduinoLCD\test\Pain Drain\libraries\lvgl\src\extra\widgets\led/lv_led.c ****         part_draw_dsc.draw_area = &obj->coords;
 1044              		.loc 1 209 0 discriminator 2
 1045 049a 3D00     		movs	r5, r7
 1046 049c 1435     		adds	r5, r5, #20
 1047 049e 1595     		str	r5, [sp, #84]
 210:..\..\..\arduinoLCD\test\Pain Drain\libraries\lvgl\src\extra\widgets\led/lv_led.c ****         part_draw_dsc.class_p = MY_CLASS;
 1048              		.loc 1 210 0 discriminator 2
 1049 04a0 0F4B     		ldr	r3, .L8+4
 1050 04a2 1393     		str	r3, [sp, #76]
 211:..\..\..\arduinoLCD\test\Pain Drain\libraries\lvgl\src\extra\widgets\led/lv_led.c ****         part_draw_dsc.type = LV_LED_DRAW_PART_RECTANGLE;
 1051              		.loc 1 211 0 discriminator 2
 1052 04a4 0023     		movs	r3, #0
 1053 04a6 1493     		str	r3, [sp, #80]
 212:..\..\..\arduinoLCD\test\Pain Drain\libraries\lvgl\src\extra\widgets\led/lv_led.c ****         part_draw_dsc.rect_dsc = &rect_dsc;
 1054              		.loc 1 212 0 discriminator 2
 1055 04a8 04AA     		add	r2, sp, #16
 1056 04aa 1692     		str	r2, [sp, #88]
 213:..\..\..\arduinoLCD\test\Pain Drain\libraries\lvgl\src\extra\widgets\led/lv_led.c ****         part_draw_dsc.part = LV_PART_MAIN;
 1057              		.loc 1 213 0 discriminator 2
 1058 04ac 1F93     		str	r3, [sp, #124]
 214:..\..\..\arduinoLCD\test\Pain Drain\libraries\lvgl\src\extra\widgets\led/lv_led.c **** 
 215:..\..\..\arduinoLCD\test\Pain Drain\libraries\lvgl\src\extra\widgets\led/lv_led.c ****         lv_event_send(obj, LV_EVENT_DRAW_PART_BEGIN, &part_draw_dsc);
 1059              		.loc 1 215 0 discriminator 2
 1060 04ae 12AA     		add	r2, sp, #72
 1061 04b0 1A21     		movs	r1, #26
 1062 04b2 3800     		movs	r0, r7
 1063 04b4 FFF7FEFF 		bl	lv_event_send
 1064              	.LVL180:
 216:..\..\..\arduinoLCD\test\Pain Drain\libraries\lvgl\src\extra\widgets\led/lv_led.c ****         lv_draw_rect(draw_ctx, &rect_dsc, &obj->coords);
 1065              		.loc 1 216 0 discriminator 2
 1066 04b8 2A00     		movs	r2, r5
 1067 04ba 04A9     		add	r1, sp, #16
ARM GAS  C:\Users\haske\AppData\Local\Temp\ccoc8x2c.s 			page 35


 1068 04bc 2000     		movs	r0, r4
 1069 04be FFF7FEFF 		bl	lv_draw_rect
 1070              	.LVL181:
 217:..\..\..\arduinoLCD\test\Pain Drain\libraries\lvgl\src\extra\widgets\led/lv_led.c ****         lv_event_send(obj, LV_EVENT_DRAW_PART_END, &part_draw_dsc);
 1071              		.loc 1 217 0 discriminator 2
 1072 04c2 12AA     		add	r2, sp, #72
 1073 04c4 1B21     		movs	r1, #27
 1074 04c6 3800     		movs	r0, r7
 1075 04c8 FFF7FEFF 		bl	lv_event_send
 1076              	.LVL182:
 1077              	.L2:
 1078              	.LBE164:
 218:..\..\..\arduinoLCD\test\Pain Drain\libraries\lvgl\src\extra\widgets\led/lv_led.c ****     }
 219:..\..\..\arduinoLCD\test\Pain Drain\libraries\lvgl\src\extra\widgets\led/lv_led.c **** }
 1079              		.loc 1 219 0
 1080 04cc 25B0     		add	sp, sp, #148
 1081              	.LVL183:
 1082              		@ sp needed
 1083 04ce 3CBC     		pop	{r2, r3, r4, r5}
 1084 04d0 9046     		mov	r8, r2
 1085 04d2 9946     		mov	r9, r3
 1086 04d4 A246     		mov	r10, r4
 1087 04d6 AB46     		mov	fp, r5
 1088 04d8 F0BD     		pop	{r4, r5, r6, r7, pc}
 1089              	.L9:
 1090 04da C046     		.align	2
 1091              	.L8:
 1092 04dc 1FF8E007 		.word	132184095
 1093 04e0 00000000 		.word	.LANCHOR0
 1094              		.cfi_endproc
 1095              	.LFE210:
 1096              		.size	lv_led_event, .-lv_led_event
 1097              		.section	.text.lv_led_create,"ax",%progbits
 1098              		.align	2
 1099              		.global	lv_led_create
 1100              		.code	16
 1101              		.thumb_func
 1102              		.type	lv_led_create, %function
 1103              	lv_led_create:
 1104              	.LFB202:
  55:..\..\..\arduinoLCD\test\Pain Drain\libraries\lvgl\src\extra\widgets\led/lv_led.c ****     LV_LOG_INFO("begin");
 1105              		.loc 1 55 0
 1106              		.cfi_startproc
 1107              		@ args = 0, pretend = 0, frame = 0
 1108              		@ frame_needed = 0, uses_anonymous_args = 0
 1109              	.LVL184:
 1110 0000 10B5     		push	{r4, lr}
 1111              		.cfi_def_cfa_offset 8
 1112              		.cfi_offset 4, -8
 1113              		.cfi_offset 14, -4
 1114 0002 0100     		movs	r1, r0
  57:..\..\..\arduinoLCD\test\Pain Drain\libraries\lvgl\src\extra\widgets\led/lv_led.c ****     lv_obj_class_init_obj(obj);
 1115              		.loc 1 57 0
 1116 0004 0348     		ldr	r0, .L11
 1117              	.LVL185:
 1118 0006 FFF7FEFF 		bl	lv_obj_class_create_obj
 1119              	.LVL186:
ARM GAS  C:\Users\haske\AppData\Local\Temp\ccoc8x2c.s 			page 36


 1120 000a 0400     		movs	r4, r0
 1121              	.LVL187:
  58:..\..\..\arduinoLCD\test\Pain Drain\libraries\lvgl\src\extra\widgets\led/lv_led.c ****     return obj;
 1122              		.loc 1 58 0
 1123 000c FFF7FEFF 		bl	lv_obj_class_init_obj
 1124              	.LVL188:
  60:..\..\..\arduinoLCD\test\Pain Drain\libraries\lvgl\src\extra\widgets\led/lv_led.c **** 
 1125              		.loc 1 60 0
 1126 0010 2000     		movs	r0, r4
 1127              		@ sp needed
 1128              	.LVL189:
 1129 0012 10BD     		pop	{r4, pc}
 1130              	.L12:
 1131              		.align	2
 1132              	.L11:
 1133 0014 00000000 		.word	.LANCHOR0
 1134              		.cfi_endproc
 1135              	.LFE202:
 1136              		.size	lv_led_create, .-lv_led_create
 1137              		.section	.text.lv_led_set_color,"ax",%progbits
 1138              		.align	2
 1139              		.global	lv_led_set_color
 1140              		.code	16
 1141              		.thumb_func
 1142              		.type	lv_led_set_color, %function
 1143              	lv_led_set_color:
 1144              	.LFB203:
  72:..\..\..\arduinoLCD\test\Pain Drain\libraries\lvgl\src\extra\widgets\led/lv_led.c ****     LV_ASSERT_OBJ(obj, MY_CLASS);
 1145              		.loc 1 72 0
 1146              		.cfi_startproc
 1147              		@ args = 0, pretend = 0, frame = 0
 1148              		@ frame_needed = 0, uses_anonymous_args = 0
 1149              	.LVL190:
 1150 0000 10B5     		push	{r4, lr}
 1151              		.cfi_def_cfa_offset 8
 1152              		.cfi_offset 4, -8
 1153              		.cfi_offset 14, -4
 1154              	.LVL191:
  76:..\..\..\arduinoLCD\test\Pain Drain\libraries\lvgl\src\extra\widgets\led/lv_led.c ****     lv_obj_invalidate(obj);
 1155              		.loc 1 76 0
 1156 0002 8184     		strh	r1, [r0, #36]
  77:..\..\..\arduinoLCD\test\Pain Drain\libraries\lvgl\src\extra\widgets\led/lv_led.c **** }
 1157              		.loc 1 77 0
 1158 0004 FFF7FEFF 		bl	lv_obj_invalidate
 1159              	.LVL192:
  78:..\..\..\arduinoLCD\test\Pain Drain\libraries\lvgl\src\extra\widgets\led/lv_led.c **** 
 1160              		.loc 1 78 0
 1161              		@ sp needed
 1162 0008 10BD     		pop	{r4, pc}
 1163              		.cfi_endproc
 1164              	.LFE203:
 1165              		.size	lv_led_set_color, .-lv_led_set_color
 1166 000a C046     		.section	.text.lv_led_set_brightness,"ax",%progbits
 1167              		.align	2
 1168              		.global	lv_led_set_brightness
 1169              		.code	16
 1170              		.thumb_func
ARM GAS  C:\Users\haske\AppData\Local\Temp\ccoc8x2c.s 			page 37


 1171              		.type	lv_led_set_brightness, %function
 1172              	lv_led_set_brightness:
 1173              	.LFB204:
  86:..\..\..\arduinoLCD\test\Pain Drain\libraries\lvgl\src\extra\widgets\led/lv_led.c ****     LV_ASSERT_OBJ(obj, MY_CLASS);
 1174              		.loc 1 86 0
 1175              		.cfi_startproc
 1176              		@ args = 0, pretend = 0, frame = 0
 1177              		@ frame_needed = 0, uses_anonymous_args = 0
 1178              	.LVL193:
 1179 0000 10B5     		push	{r4, lr}
 1180              		.cfi_def_cfa_offset 8
 1181              		.cfi_offset 4, -8
 1182              		.cfi_offset 14, -4
 1183              	.LVL194:
  90:..\..\..\arduinoLCD\test\Pain Drain\libraries\lvgl\src\extra\widgets\led/lv_led.c **** 
 1184              		.loc 1 90 0
 1185 0002 2623     		movs	r3, #38
 1186 0004 C35C     		ldrb	r3, [r0, r3]
 1187 0006 8B42     		cmp	r3, r1
 1188 0008 09D0     		beq	.L14
  92:..\..\..\arduinoLCD\test\Pain Drain\libraries\lvgl\src\extra\widgets\led/lv_led.c **** 
 1189              		.loc 1 92 0
 1190 000a 0B00     		movs	r3, r1
 1191 000c 503B     		subs	r3, r3, #80
 1192 000e DBB2     		uxtb	r3, r3
 1193 0010 AF2B     		cmp	r3, #175
 1194 0012 00D9     		bls	.L16
 1195 0014 5021     		movs	r1, #80
 1196              	.LVL195:
 1197              	.L16:
  92:..\..\..\arduinoLCD\test\Pain Drain\libraries\lvgl\src\extra\widgets\led/lv_led.c **** 
 1198              		.loc 1 92 0 is_stmt 0 discriminator 4
 1199 0016 2623     		movs	r3, #38
 1200 0018 C154     		strb	r1, [r0, r3]
  95:..\..\..\arduinoLCD\test\Pain Drain\libraries\lvgl\src\extra\widgets\led/lv_led.c **** }
 1201              		.loc 1 95 0 is_stmt 1 discriminator 4
 1202 001a FFF7FEFF 		bl	lv_obj_invalidate
 1203              	.LVL196:
 1204              	.L14:
  96:..\..\..\arduinoLCD\test\Pain Drain\libraries\lvgl\src\extra\widgets\led/lv_led.c **** 
 1205              		.loc 1 96 0
 1206              		@ sp needed
 1207 001e 10BD     		pop	{r4, pc}
 1208              		.cfi_endproc
 1209              	.LFE204:
 1210              		.size	lv_led_set_brightness, .-lv_led_set_brightness
 1211              		.section	.text.lv_led_on,"ax",%progbits
 1212              		.align	2
 1213              		.global	lv_led_on
 1214              		.code	16
 1215              		.thumb_func
 1216              		.type	lv_led_on, %function
 1217              	lv_led_on:
 1218              	.LFB205:
 103:..\..\..\arduinoLCD\test\Pain Drain\libraries\lvgl\src\extra\widgets\led/lv_led.c ****     lv_led_set_brightness(led, LV_LED_BRIGHT_MAX);
 1219              		.loc 1 103 0
 1220              		.cfi_startproc
ARM GAS  C:\Users\haske\AppData\Local\Temp\ccoc8x2c.s 			page 38


 1221              		@ args = 0, pretend = 0, frame = 0
 1222              		@ frame_needed = 0, uses_anonymous_args = 0
 1223              	.LVL197:
 1224 0000 10B5     		push	{r4, lr}
 1225              		.cfi_def_cfa_offset 8
 1226              		.cfi_offset 4, -8
 1227              		.cfi_offset 14, -4
 104:..\..\..\arduinoLCD\test\Pain Drain\libraries\lvgl\src\extra\widgets\led/lv_led.c **** }
 1228              		.loc 1 104 0
 1229 0002 FF21     		movs	r1, #255
 1230 0004 FFF7FEFF 		bl	lv_led_set_brightness
 1231              	.LVL198:
 105:..\..\..\arduinoLCD\test\Pain Drain\libraries\lvgl\src\extra\widgets\led/lv_led.c **** 
 1232              		.loc 1 105 0
 1233              		@ sp needed
 1234 0008 10BD     		pop	{r4, pc}
 1235              		.cfi_endproc
 1236              	.LFE205:
 1237              		.size	lv_led_on, .-lv_led_on
 1238 000a C046     		.section	.text.lv_led_off,"ax",%progbits
 1239              		.align	2
 1240              		.global	lv_led_off
 1241              		.code	16
 1242              		.thumb_func
 1243              		.type	lv_led_off, %function
 1244              	lv_led_off:
 1245              	.LFB206:
 112:..\..\..\arduinoLCD\test\Pain Drain\libraries\lvgl\src\extra\widgets\led/lv_led.c ****     lv_led_set_brightness(led, LV_LED_BRIGHT_MIN);
 1246              		.loc 1 112 0
 1247              		.cfi_startproc
 1248              		@ args = 0, pretend = 0, frame = 0
 1249              		@ frame_needed = 0, uses_anonymous_args = 0
 1250              	.LVL199:
 1251 0000 10B5     		push	{r4, lr}
 1252              		.cfi_def_cfa_offset 8
 1253              		.cfi_offset 4, -8
 1254              		.cfi_offset 14, -4
 113:..\..\..\arduinoLCD\test\Pain Drain\libraries\lvgl\src\extra\widgets\led/lv_led.c **** }
 1255              		.loc 1 113 0
 1256 0002 5021     		movs	r1, #80
 1257 0004 FFF7FEFF 		bl	lv_led_set_brightness
 1258              	.LVL200:
 114:..\..\..\arduinoLCD\test\Pain Drain\libraries\lvgl\src\extra\widgets\led/lv_led.c **** 
 1259              		.loc 1 114 0
 1260              		@ sp needed
 1261 0008 10BD     		pop	{r4, pc}
 1262              		.cfi_endproc
 1263              	.LFE206:
 1264              		.size	lv_led_off, .-lv_led_off
 1265 000a C046     		.section	.text.lv_led_get_brightness,"ax",%progbits
 1266              		.align	2
 1267              		.global	lv_led_get_brightness
 1268              		.code	16
 1269              		.thumb_func
 1270              		.type	lv_led_get_brightness, %function
 1271              	lv_led_get_brightness:
 1272              	.LFB208:
ARM GAS  C:\Users\haske\AppData\Local\Temp\ccoc8x2c.s 			page 39


 139:..\..\..\arduinoLCD\test\Pain Drain\libraries\lvgl\src\extra\widgets\led/lv_led.c ****     LV_ASSERT_OBJ(obj, MY_CLASS);
 1273              		.loc 1 139 0
 1274              		.cfi_startproc
 1275              		@ args = 0, pretend = 0, frame = 0
 1276              		@ frame_needed = 0, uses_anonymous_args = 0
 1277              		@ link register save eliminated.
 1278              	.LVL201:
 143:..\..\..\arduinoLCD\test\Pain Drain\libraries\lvgl\src\extra\widgets\led/lv_led.c **** }
 1279              		.loc 1 143 0
 1280 0000 2623     		movs	r3, #38
 1281 0002 C05C     		ldrb	r0, [r0, r3]
 1282              	.LVL202:
 144:..\..\..\arduinoLCD\test\Pain Drain\libraries\lvgl\src\extra\widgets\led/lv_led.c **** 
 1283              		.loc 1 144 0
 1284              		@ sp needed
 1285 0004 7047     		bx	lr
 1286              		.cfi_endproc
 1287              	.LFE208:
 1288              		.size	lv_led_get_brightness, .-lv_led_get_brightness
 1289 0006 C046     		.section	.text.lv_led_toggle,"ax",%progbits
 1290              		.align	2
 1291              		.global	lv_led_toggle
 1292              		.code	16
 1293              		.thumb_func
 1294              		.type	lv_led_toggle, %function
 1295              	lv_led_toggle:
 1296              	.LFB207:
 121:..\..\..\arduinoLCD\test\Pain Drain\libraries\lvgl\src\extra\widgets\led/lv_led.c ****     uint8_t bright = lv_led_get_brightness(obj);
 1297              		.loc 1 121 0
 1298              		.cfi_startproc
 1299              		@ args = 0, pretend = 0, frame = 0
 1300              		@ frame_needed = 0, uses_anonymous_args = 0
 1301              	.LVL203:
 1302 0000 10B5     		push	{r4, lr}
 1303              		.cfi_def_cfa_offset 8
 1304              		.cfi_offset 4, -8
 1305              		.cfi_offset 14, -4
 1306 0002 0400     		movs	r4, r0
 122:..\..\..\arduinoLCD\test\Pain Drain\libraries\lvgl\src\extra\widgets\led/lv_led.c ****     if(bright > (LV_LED_BRIGHT_MIN + LV_LED_BRIGHT_MAX) >> 1)
 1307              		.loc 1 122 0
 1308 0004 FFF7FEFF 		bl	lv_led_get_brightness
 1309              	.LVL204:
 123:..\..\..\arduinoLCD\test\Pain Drain\libraries\lvgl\src\extra\widgets\led/lv_led.c ****         lv_led_off(obj);
 1310              		.loc 1 123 0
 1311 0008 A728     		cmp	r0, #167
 1312 000a 03D9     		bls	.L22
 124:..\..\..\arduinoLCD\test\Pain Drain\libraries\lvgl\src\extra\widgets\led/lv_led.c ****     else
 1313              		.loc 1 124 0
 1314 000c 2000     		movs	r0, r4
 1315              	.LVL205:
 1316 000e FFF7FEFF 		bl	lv_led_off
 1317              	.LVL206:
 1318 0012 02E0     		b	.L21
 1319              	.LVL207:
 1320              	.L22:
 126:..\..\..\arduinoLCD\test\Pain Drain\libraries\lvgl\src\extra\widgets\led/lv_led.c **** }
 1321              		.loc 1 126 0
ARM GAS  C:\Users\haske\AppData\Local\Temp\ccoc8x2c.s 			page 40


 1322 0014 2000     		movs	r0, r4
 1323              	.LVL208:
 1324 0016 FFF7FEFF 		bl	lv_led_on
 1325              	.LVL209:
 1326              	.L21:
 127:..\..\..\arduinoLCD\test\Pain Drain\libraries\lvgl\src\extra\widgets\led/lv_led.c **** 
 1327              		.loc 1 127 0
 1328              		@ sp needed
 1329              	.LVL210:
 1330 001a 10BD     		pop	{r4, pc}
 1331              		.cfi_endproc
 1332              	.LFE207:
 1333              		.size	lv_led_toggle, .-lv_led_toggle
 1334              		.global	lv_led_class
 1335              		.section	.rodata
 1336              		.align	2
 1337              		.set	.LANCHOR0,. + 0
 1338              		.type	lv_led_class, %object
 1339              		.size	lv_led_class, 28
 1340              	lv_led_class:
 1341 0000 00000000 		.word	lv_obj_class
 1342 0004 00000000 		.word	lv_led_constructor
 1343 0008 00000000 		.space	8
 1343      00000000 
 1344 0010 00000000 		.word	lv_led_event
 1345 0014 1A00     		.short	26
 1346 0016 1A00     		.short	26
 1347 0018 80       		.byte	128
 1348 0019 02       		.byte	2
 1349 001a 00       		.byte	0
 1350 001b 00       		.space	1
 1351              		.text
 1352              	.Letext0:
 1353              		.file 3 "c:\\program files (x86)\\cypress\\psoc creator\\4.4\\psoc creator\\import\\gnu\\arm\\5.4.
 1354              		.file 4 "c:\\program files (x86)\\cypress\\psoc creator\\4.4\\psoc creator\\import\\gnu\\arm\\5.4.
 1355              		.file 5 "c:\\projects\\paindrain\\arduinolcd\\test\\pain drain\\libraries\\lvgl\\src/misc/lv_types
 1356              		.file 6 "c:\\program files (x86)\\cypress\\psoc creator\\4.4\\psoc creator\\import\\gnu\\arm\\5.4.
 1357              		.file 7 "c:\\projects\\paindrain\\arduinolcd\\test\\pain drain\\libraries\\lvgl\\src\\misc\\lv_are
 1358              		.file 8 "c:\\projects\\paindrain\\arduinolcd\\test\\pain drain\\libraries\\lvgl\\src\\font\\lv_fon
 1359              		.file 9 "c:\\projects\\paindrain\\arduinolcd\\test\\pain drain\\libraries\\lvgl\\src\\misc\\lv_txt
 1360              		.file 10 "c:\\projects\\paindrain\\arduinolcd\\test\\pain drain\\libraries\\lvgl\\src\\misc\\lv_bi
 1361              		.file 11 "c:\\projects\\paindrain\\arduinolcd\\test\\pain drain\\libraries\\lvgl\\src\\misc\\lv_st
 1362              		.file 12 "c:\\projects\\paindrain\\arduinolcd\\test\\pain drain\\libraries\\lvgl\\src\\draw\\lv_im
 1363              		.file 13 "c:\\projects\\paindrain\\arduinolcd\\test\\pain drain\\libraries\\lvgl\\src/core/lv_obj.
 1364              		.file 14 "c:\\projects\\paindrain\\arduinolcd\\test\\pain drain\\libraries\\lvgl\\src\\draw\\lv_dr
 1365              		.file 15 "c:\\projects\\paindrain\\arduinolcd\\test\\pain drain\\libraries\\lvgl\\src\\draw\\lv_dr
 1366              		.file 16 "c:\\projects\\paindrain\\arduinolcd\\test\\pain drain\\libraries\\lvgl\\src\\draw\\lv_dr
 1367              		.file 17 "c:\\projects\\paindrain\\arduinolcd\\test\\pain drain\\libraries\\lvgl\\src\\draw\\lv_dr
 1368              		.file 18 "c:\\projects\\paindrain\\arduinolcd\\test\\pain drain\\libraries\\lvgl\\src\\draw\\lv_dr
 1369              		.file 19 "c:\\projects\\paindrain\\arduinolcd\\test\\pain drain\\libraries\\lvgl\\src\\draw\\lv_dr
 1370              		.file 20 "c:\\projects\\paindrain\\arduinolcd\\test\\pain drain\\libraries\\lvgl\\src\\draw\\lv_dr
 1371              		.file 21 "c:\\projects\\paindrain\\arduinolcd\\test\\pain drain\\libraries\\lvgl\\src\\misc\\lv_ll
 1372              		.file 22 "c:\\projects\\paindrain\\arduinolcd\\test\\pain drain\\libraries\\lvgl\\src/core/lv_grou
 1373              		.file 23 "c:\\projects\\paindrain\\arduinolcd\\test\\pain drain\\libraries\\lvgl\\src/core/lv_obj_
 1374              		.file 24 "c:\\projects\\paindrain\\arduinolcd\\test\\pain drain\\libraries\\lvgl\\src/core/lv_obj_
 1375              		.file 25 "c:\\projects\\paindrain\\arduinolcd\\test\\pain drain\\libraries\\lvgl\\src/core/lv_obj_
 1376              		.file 26 "c:\\projects\\paindrain\\arduinolcd\\test\\pain drain\\libraries\\lvgl\\src/core/lv_obj_
ARM GAS  C:\Users\haske\AppData\Local\Temp\ccoc8x2c.s 			page 41


 1377              		.file 27 "c:\\projects\\paindrain\\arduinolcd\\test\\pain drain\\libraries\\lvgl\\src/core/lv_even
 1378              		.file 28 "c:\\projects\\paindrain\\arduinolcd\\test\\pain drain\\libraries\\lvgl\\src/widgets/lv_b
 1379              		.file 29 "c:\\projects\\paindrain\\arduinolcd\\test\\pain drain\\libraries\\lvgl\\src/extra/widget
 1380              		.file 30 "..\\..\\..\\arduinoLCD\\test\\Pain Drain\\libraries\\lvgl\\src\\extra\\widgets\\led\\lv_
 1381              		.file 31 "c:\\projects\\paindrain\\arduinolcd\\test\\pain drain\\libraries\\lvgl\\src/extra/layout
 1382              		.file 32 "c:\\projects\\paindrain\\arduinolcd\\test\\pain drain\\libraries\\lvgl\\src/extra/layout
 1383              		.file 33 "c:\\projects\\paindrain\\arduinolcd\\test\\pain drain\\libraries\\lvgl\\src/core/lv_them
 1384              		.file 34 "c:\\projects\\paindrain\\arduinolcd\\test\\pain drain\\libraries\\lvgl\\src\\core\\lv_ob