ARM GAS  C:\Users\haske\AppData\Local\Temp\ccR7totD.s 			page 1


   1              		.syntax unified
   2              		.cpu cortex-m0plus
   3              		.fpu softvfp
   4              		.eabi_attribute 20, 1
   5              		.eabi_attribute 21, 1
   6              		.eabi_attribute 23, 3
   7              		.eabi_attribute 24, 1
   8              		.eabi_attribute 25, 1
   9              		.eabi_attribute 26, 1
  10              		.eabi_attribute 30, 1
  11              		.eabi_attribute 34, 0
  12              		.eabi_attribute 18, 4
  13              		.thumb
  14              		.syntax unified
  15              		.file	"lv_line.c"
  16              		.text
  17              	.Ltext0:
  18              		.cfi_sections	.debug_frame
  19              		.section	.text.lv_line_event,"ax",%progbits
  20              		.align	2
  21              		.code	16
  22              		.thumb_func
  23              		.type	lv_line_event, %function
  24              	lv_line_event:
  25              	.LFB164:
  26              		.file 1 "..\\..\\..\\arduinoLCD\\test\\Pain Drain\\libraries\\lvgl\\src\\widgets\\lv_line.c"
   1:..\..\..\arduinoLCD\test\Pain Drain\libraries\lvgl\src\widgets/lv_line.c **** /**
   2:..\..\..\arduinoLCD\test\Pain Drain\libraries\lvgl\src\widgets/lv_line.c ****  * @file lv_line.c
   3:..\..\..\arduinoLCD\test\Pain Drain\libraries\lvgl\src\widgets/lv_line.c ****  *
   4:..\..\..\arduinoLCD\test\Pain Drain\libraries\lvgl\src\widgets/lv_line.c ****  */
   5:..\..\..\arduinoLCD\test\Pain Drain\libraries\lvgl\src\widgets/lv_line.c **** 
   6:..\..\..\arduinoLCD\test\Pain Drain\libraries\lvgl\src\widgets/lv_line.c **** /*********************
   7:..\..\..\arduinoLCD\test\Pain Drain\libraries\lvgl\src\widgets/lv_line.c ****  *      INCLUDES
   8:..\..\..\arduinoLCD\test\Pain Drain\libraries\lvgl\src\widgets/lv_line.c ****  *********************/
   9:..\..\..\arduinoLCD\test\Pain Drain\libraries\lvgl\src\widgets/lv_line.c **** #include "lv_line.h"
  10:..\..\..\arduinoLCD\test\Pain Drain\libraries\lvgl\src\widgets/lv_line.c **** 
  11:..\..\..\arduinoLCD\test\Pain Drain\libraries\lvgl\src\widgets/lv_line.c **** #if LV_USE_LINE != 0
  12:..\..\..\arduinoLCD\test\Pain Drain\libraries\lvgl\src\widgets/lv_line.c **** #include "../misc/lv_assert.h"
  13:..\..\..\arduinoLCD\test\Pain Drain\libraries\lvgl\src\widgets/lv_line.c **** #include "../draw/lv_draw.h"
  14:..\..\..\arduinoLCD\test\Pain Drain\libraries\lvgl\src\widgets/lv_line.c **** #include "../misc/lv_math.h"
  15:..\..\..\arduinoLCD\test\Pain Drain\libraries\lvgl\src\widgets/lv_line.c **** #include <stdbool.h>
  16:..\..\..\arduinoLCD\test\Pain Drain\libraries\lvgl\src\widgets/lv_line.c **** #include <stdint.h>
  17:..\..\..\arduinoLCD\test\Pain Drain\libraries\lvgl\src\widgets/lv_line.c **** #include <string.h>
  18:..\..\..\arduinoLCD\test\Pain Drain\libraries\lvgl\src\widgets/lv_line.c **** 
  19:..\..\..\arduinoLCD\test\Pain Drain\libraries\lvgl\src\widgets/lv_line.c **** /*********************
  20:..\..\..\arduinoLCD\test\Pain Drain\libraries\lvgl\src\widgets/lv_line.c ****  *      DEFINES
  21:..\..\..\arduinoLCD\test\Pain Drain\libraries\lvgl\src\widgets/lv_line.c ****  *********************/
  22:..\..\..\arduinoLCD\test\Pain Drain\libraries\lvgl\src\widgets/lv_line.c **** #define MY_CLASS &lv_line_class
  23:..\..\..\arduinoLCD\test\Pain Drain\libraries\lvgl\src\widgets/lv_line.c **** 
  24:..\..\..\arduinoLCD\test\Pain Drain\libraries\lvgl\src\widgets/lv_line.c **** /**********************
  25:..\..\..\arduinoLCD\test\Pain Drain\libraries\lvgl\src\widgets/lv_line.c ****  *      TYPEDEFS
  26:..\..\..\arduinoLCD\test\Pain Drain\libraries\lvgl\src\widgets/lv_line.c ****  **********************/
  27:..\..\..\arduinoLCD\test\Pain Drain\libraries\lvgl\src\widgets/lv_line.c **** 
  28:..\..\..\arduinoLCD\test\Pain Drain\libraries\lvgl\src\widgets/lv_line.c **** /**********************
  29:..\..\..\arduinoLCD\test\Pain Drain\libraries\lvgl\src\widgets/lv_line.c ****  *  STATIC PROTOTYPES
  30:..\..\..\arduinoLCD\test\Pain Drain\libraries\lvgl\src\widgets/lv_line.c ****  **********************/
  31:..\..\..\arduinoLCD\test\Pain Drain\libraries\lvgl\src\widgets/lv_line.c **** static void lv_line_constructor(const lv_obj_class_t * class_p, lv_obj_t * obj);
ARM GAS  C:\Users\haske\AppData\Local\Temp\ccR7totD.s 			page 2


  32:..\..\..\arduinoLCD\test\Pain Drain\libraries\lvgl\src\widgets/lv_line.c **** static void lv_line_event(const lv_obj_class_t * class_p, lv_event_t * e);
  33:..\..\..\arduinoLCD\test\Pain Drain\libraries\lvgl\src\widgets/lv_line.c **** 
  34:..\..\..\arduinoLCD\test\Pain Drain\libraries\lvgl\src\widgets/lv_line.c **** /**********************
  35:..\..\..\arduinoLCD\test\Pain Drain\libraries\lvgl\src\widgets/lv_line.c ****  *  STATIC VARIABLES
  36:..\..\..\arduinoLCD\test\Pain Drain\libraries\lvgl\src\widgets/lv_line.c ****  **********************/
  37:..\..\..\arduinoLCD\test\Pain Drain\libraries\lvgl\src\widgets/lv_line.c **** const lv_obj_class_t lv_line_class = {
  38:..\..\..\arduinoLCD\test\Pain Drain\libraries\lvgl\src\widgets/lv_line.c ****     .constructor_cb = lv_line_constructor,
  39:..\..\..\arduinoLCD\test\Pain Drain\libraries\lvgl\src\widgets/lv_line.c ****     .event_cb = lv_line_event,
  40:..\..\..\arduinoLCD\test\Pain Drain\libraries\lvgl\src\widgets/lv_line.c ****     .width_def = LV_SIZE_CONTENT,
  41:..\..\..\arduinoLCD\test\Pain Drain\libraries\lvgl\src\widgets/lv_line.c ****     .height_def = LV_SIZE_CONTENT,
  42:..\..\..\arduinoLCD\test\Pain Drain\libraries\lvgl\src\widgets/lv_line.c ****     .instance_size = sizeof(lv_line_t),
  43:..\..\..\arduinoLCD\test\Pain Drain\libraries\lvgl\src\widgets/lv_line.c ****     .base_class = &lv_obj_class
  44:..\..\..\arduinoLCD\test\Pain Drain\libraries\lvgl\src\widgets/lv_line.c **** };
  45:..\..\..\arduinoLCD\test\Pain Drain\libraries\lvgl\src\widgets/lv_line.c **** 
  46:..\..\..\arduinoLCD\test\Pain Drain\libraries\lvgl\src\widgets/lv_line.c **** /**********************
  47:..\..\..\arduinoLCD\test\Pain Drain\libraries\lvgl\src\widgets/lv_line.c ****  *      MACROS
  48:..\..\..\arduinoLCD\test\Pain Drain\libraries\lvgl\src\widgets/lv_line.c ****  **********************/
  49:..\..\..\arduinoLCD\test\Pain Drain\libraries\lvgl\src\widgets/lv_line.c **** 
  50:..\..\..\arduinoLCD\test\Pain Drain\libraries\lvgl\src\widgets/lv_line.c **** /**********************
  51:..\..\..\arduinoLCD\test\Pain Drain\libraries\lvgl\src\widgets/lv_line.c ****  *   GLOBAL FUNCTIONS
  52:..\..\..\arduinoLCD\test\Pain Drain\libraries\lvgl\src\widgets/lv_line.c ****  **********************/
  53:..\..\..\arduinoLCD\test\Pain Drain\libraries\lvgl\src\widgets/lv_line.c **** 
  54:..\..\..\arduinoLCD\test\Pain Drain\libraries\lvgl\src\widgets/lv_line.c **** lv_obj_t * lv_line_create(lv_obj_t * parent)
  55:..\..\..\arduinoLCD\test\Pain Drain\libraries\lvgl\src\widgets/lv_line.c **** {
  56:..\..\..\arduinoLCD\test\Pain Drain\libraries\lvgl\src\widgets/lv_line.c ****     LV_LOG_INFO("begin");
  57:..\..\..\arduinoLCD\test\Pain Drain\libraries\lvgl\src\widgets/lv_line.c ****     lv_obj_t * obj = lv_obj_class_create_obj(MY_CLASS, parent);
  58:..\..\..\arduinoLCD\test\Pain Drain\libraries\lvgl\src\widgets/lv_line.c ****     lv_obj_class_init_obj(obj);
  59:..\..\..\arduinoLCD\test\Pain Drain\libraries\lvgl\src\widgets/lv_line.c ****     return obj;
  60:..\..\..\arduinoLCD\test\Pain Drain\libraries\lvgl\src\widgets/lv_line.c **** }
  61:..\..\..\arduinoLCD\test\Pain Drain\libraries\lvgl\src\widgets/lv_line.c **** 
  62:..\..\..\arduinoLCD\test\Pain Drain\libraries\lvgl\src\widgets/lv_line.c **** /*=====================
  63:..\..\..\arduinoLCD\test\Pain Drain\libraries\lvgl\src\widgets/lv_line.c ****  * Setter functions
  64:..\..\..\arduinoLCD\test\Pain Drain\libraries\lvgl\src\widgets/lv_line.c ****  *====================*/
  65:..\..\..\arduinoLCD\test\Pain Drain\libraries\lvgl\src\widgets/lv_line.c **** 
  66:..\..\..\arduinoLCD\test\Pain Drain\libraries\lvgl\src\widgets/lv_line.c **** void lv_line_set_points(lv_obj_t * obj, const lv_point_t points[], uint16_t point_num)
  67:..\..\..\arduinoLCD\test\Pain Drain\libraries\lvgl\src\widgets/lv_line.c **** {
  68:..\..\..\arduinoLCD\test\Pain Drain\libraries\lvgl\src\widgets/lv_line.c ****     LV_ASSERT_OBJ(obj, MY_CLASS);
  69:..\..\..\arduinoLCD\test\Pain Drain\libraries\lvgl\src\widgets/lv_line.c **** 
  70:..\..\..\arduinoLCD\test\Pain Drain\libraries\lvgl\src\widgets/lv_line.c ****     lv_line_t * line = (lv_line_t *)obj;
  71:..\..\..\arduinoLCD\test\Pain Drain\libraries\lvgl\src\widgets/lv_line.c ****     line->point_array    = points;
  72:..\..\..\arduinoLCD\test\Pain Drain\libraries\lvgl\src\widgets/lv_line.c ****     line->point_num      = point_num;
  73:..\..\..\arduinoLCD\test\Pain Drain\libraries\lvgl\src\widgets/lv_line.c **** 
  74:..\..\..\arduinoLCD\test\Pain Drain\libraries\lvgl\src\widgets/lv_line.c ****     lv_obj_refresh_self_size(obj);
  75:..\..\..\arduinoLCD\test\Pain Drain\libraries\lvgl\src\widgets/lv_line.c **** 
  76:..\..\..\arduinoLCD\test\Pain Drain\libraries\lvgl\src\widgets/lv_line.c ****     lv_obj_invalidate(obj);
  77:..\..\..\arduinoLCD\test\Pain Drain\libraries\lvgl\src\widgets/lv_line.c **** }
  78:..\..\..\arduinoLCD\test\Pain Drain\libraries\lvgl\src\widgets/lv_line.c **** 
  79:..\..\..\arduinoLCD\test\Pain Drain\libraries\lvgl\src\widgets/lv_line.c **** void lv_line_set_y_invert(lv_obj_t * obj, bool en)
  80:..\..\..\arduinoLCD\test\Pain Drain\libraries\lvgl\src\widgets/lv_line.c **** {
  81:..\..\..\arduinoLCD\test\Pain Drain\libraries\lvgl\src\widgets/lv_line.c ****     LV_ASSERT_OBJ(obj, MY_CLASS);
  82:..\..\..\arduinoLCD\test\Pain Drain\libraries\lvgl\src\widgets/lv_line.c **** 
  83:..\..\..\arduinoLCD\test\Pain Drain\libraries\lvgl\src\widgets/lv_line.c ****     lv_line_t * line = (lv_line_t *)obj;
  84:..\..\..\arduinoLCD\test\Pain Drain\libraries\lvgl\src\widgets/lv_line.c ****     if(line->y_inv == en) return;
  85:..\..\..\arduinoLCD\test\Pain Drain\libraries\lvgl\src\widgets/lv_line.c **** 
  86:..\..\..\arduinoLCD\test\Pain Drain\libraries\lvgl\src\widgets/lv_line.c ****     line->y_inv = en ? 1U : 0U;
  87:..\..\..\arduinoLCD\test\Pain Drain\libraries\lvgl\src\widgets/lv_line.c **** 
  88:..\..\..\arduinoLCD\test\Pain Drain\libraries\lvgl\src\widgets/lv_line.c ****     lv_obj_invalidate(obj);
ARM GAS  C:\Users\haske\AppData\Local\Temp\ccR7totD.s 			page 3


  89:..\..\..\arduinoLCD\test\Pain Drain\libraries\lvgl\src\widgets/lv_line.c **** }
  90:..\..\..\arduinoLCD\test\Pain Drain\libraries\lvgl\src\widgets/lv_line.c **** 
  91:..\..\..\arduinoLCD\test\Pain Drain\libraries\lvgl\src\widgets/lv_line.c **** /*=====================
  92:..\..\..\arduinoLCD\test\Pain Drain\libraries\lvgl\src\widgets/lv_line.c ****  * Getter functions
  93:..\..\..\arduinoLCD\test\Pain Drain\libraries\lvgl\src\widgets/lv_line.c ****  *====================*/
  94:..\..\..\arduinoLCD\test\Pain Drain\libraries\lvgl\src\widgets/lv_line.c **** 
  95:..\..\..\arduinoLCD\test\Pain Drain\libraries\lvgl\src\widgets/lv_line.c **** bool lv_line_get_y_invert(const lv_obj_t * obj)
  96:..\..\..\arduinoLCD\test\Pain Drain\libraries\lvgl\src\widgets/lv_line.c **** {
  97:..\..\..\arduinoLCD\test\Pain Drain\libraries\lvgl\src\widgets/lv_line.c ****     LV_ASSERT_OBJ(obj, MY_CLASS);
  98:..\..\..\arduinoLCD\test\Pain Drain\libraries\lvgl\src\widgets/lv_line.c **** 
  99:..\..\..\arduinoLCD\test\Pain Drain\libraries\lvgl\src\widgets/lv_line.c ****     lv_line_t * line = (lv_line_t *)obj;
 100:..\..\..\arduinoLCD\test\Pain Drain\libraries\lvgl\src\widgets/lv_line.c **** 
 101:..\..\..\arduinoLCD\test\Pain Drain\libraries\lvgl\src\widgets/lv_line.c ****     return line->y_inv == 1U;
 102:..\..\..\arduinoLCD\test\Pain Drain\libraries\lvgl\src\widgets/lv_line.c **** }
 103:..\..\..\arduinoLCD\test\Pain Drain\libraries\lvgl\src\widgets/lv_line.c **** 
 104:..\..\..\arduinoLCD\test\Pain Drain\libraries\lvgl\src\widgets/lv_line.c **** /**********************
 105:..\..\..\arduinoLCD\test\Pain Drain\libraries\lvgl\src\widgets/lv_line.c ****  *   STATIC FUNCTIONS
 106:..\..\..\arduinoLCD\test\Pain Drain\libraries\lvgl\src\widgets/lv_line.c ****  **********************/
 107:..\..\..\arduinoLCD\test\Pain Drain\libraries\lvgl\src\widgets/lv_line.c **** 
 108:..\..\..\arduinoLCD\test\Pain Drain\libraries\lvgl\src\widgets/lv_line.c **** static void lv_line_constructor(const lv_obj_class_t * class_p, lv_obj_t * obj)
 109:..\..\..\arduinoLCD\test\Pain Drain\libraries\lvgl\src\widgets/lv_line.c **** {
 110:..\..\..\arduinoLCD\test\Pain Drain\libraries\lvgl\src\widgets/lv_line.c ****     LV_UNUSED(class_p);
 111:..\..\..\arduinoLCD\test\Pain Drain\libraries\lvgl\src\widgets/lv_line.c ****     LV_TRACE_OBJ_CREATE("begin");
 112:..\..\..\arduinoLCD\test\Pain Drain\libraries\lvgl\src\widgets/lv_line.c **** 
 113:..\..\..\arduinoLCD\test\Pain Drain\libraries\lvgl\src\widgets/lv_line.c ****     lv_line_t * line = (lv_line_t *)obj;
 114:..\..\..\arduinoLCD\test\Pain Drain\libraries\lvgl\src\widgets/lv_line.c **** 
 115:..\..\..\arduinoLCD\test\Pain Drain\libraries\lvgl\src\widgets/lv_line.c ****     line->point_num   = 0;
 116:..\..\..\arduinoLCD\test\Pain Drain\libraries\lvgl\src\widgets/lv_line.c ****     line->point_array = NULL;
 117:..\..\..\arduinoLCD\test\Pain Drain\libraries\lvgl\src\widgets/lv_line.c ****     line->y_inv       = 0;
 118:..\..\..\arduinoLCD\test\Pain Drain\libraries\lvgl\src\widgets/lv_line.c **** 
 119:..\..\..\arduinoLCD\test\Pain Drain\libraries\lvgl\src\widgets/lv_line.c ****     lv_obj_clear_flag(obj, LV_OBJ_FLAG_CLICKABLE);
 120:..\..\..\arduinoLCD\test\Pain Drain\libraries\lvgl\src\widgets/lv_line.c **** 
 121:..\..\..\arduinoLCD\test\Pain Drain\libraries\lvgl\src\widgets/lv_line.c ****     LV_TRACE_OBJ_CREATE("finished");
 122:..\..\..\arduinoLCD\test\Pain Drain\libraries\lvgl\src\widgets/lv_line.c **** }
 123:..\..\..\arduinoLCD\test\Pain Drain\libraries\lvgl\src\widgets/lv_line.c **** 
 124:..\..\..\arduinoLCD\test\Pain Drain\libraries\lvgl\src\widgets/lv_line.c **** static void lv_line_event(const lv_obj_class_t * class_p, lv_event_t * e)
 125:..\..\..\arduinoLCD\test\Pain Drain\libraries\lvgl\src\widgets/lv_line.c **** {
  27              		.loc 1 125 0
  28              		.cfi_startproc
  29              		@ args = 0, pretend = 0, frame = 40
  30              		@ frame_needed = 0, uses_anonymous_args = 0
  31              	.LVL0:
  32 0000 F0B5     		push	{r4, r5, r6, r7, lr}
  33              		.cfi_def_cfa_offset 20
  34              		.cfi_offset 4, -20
  35              		.cfi_offset 5, -16
  36              		.cfi_offset 6, -12
  37              		.cfi_offset 7, -8
  38              		.cfi_offset 14, -4
  39 0002 5746     		mov	r7, r10
  40 0004 80B4     		push	{r7}
  41              		.cfi_def_cfa_offset 24
  42              		.cfi_offset 10, -24
  43 0006 8AB0     		sub	sp, sp, #40
  44              		.cfi_def_cfa_offset 64
  45 0008 0C00     		movs	r4, r1
 126:..\..\..\arduinoLCD\test\Pain Drain\libraries\lvgl\src\widgets/lv_line.c ****     LV_UNUSED(class_p);
ARM GAS  C:\Users\haske\AppData\Local\Temp\ccR7totD.s 			page 4


 127:..\..\..\arduinoLCD\test\Pain Drain\libraries\lvgl\src\widgets/lv_line.c **** 
 128:..\..\..\arduinoLCD\test\Pain Drain\libraries\lvgl\src\widgets/lv_line.c ****     lv_res_t res;
 129:..\..\..\arduinoLCD\test\Pain Drain\libraries\lvgl\src\widgets/lv_line.c **** 
 130:..\..\..\arduinoLCD\test\Pain Drain\libraries\lvgl\src\widgets/lv_line.c ****     /*Call the ancestor's event handler*/
 131:..\..\..\arduinoLCD\test\Pain Drain\libraries\lvgl\src\widgets/lv_line.c ****     res = lv_obj_event_base(MY_CLASS, e);
  46              		.loc 1 131 0
  47 000a 6148     		ldr	r0, .L14
  48              	.LVL1:
  49 000c FFF7FEFF 		bl	lv_obj_event_base
  50              	.LVL2:
 132:..\..\..\arduinoLCD\test\Pain Drain\libraries\lvgl\src\widgets/lv_line.c ****     if(res != LV_RES_OK) return;
  51              		.loc 1 132 0
  52 0010 0128     		cmp	r0, #1
  53 0012 00D0     		beq	.LCB27
  54 0014 B7E0     		b	.L1	@long jump
  55              	.LCB27:
 133:..\..\..\arduinoLCD\test\Pain Drain\libraries\lvgl\src\widgets/lv_line.c **** 
 134:..\..\..\arduinoLCD\test\Pain Drain\libraries\lvgl\src\widgets/lv_line.c ****     lv_event_code_t code = lv_event_get_code(e);
  56              		.loc 1 134 0
  57 0016 2000     		movs	r0, r4
  58              	.LVL3:
  59 0018 FFF7FEFF 		bl	lv_event_get_code
  60              	.LVL4:
  61 001c 0600     		movs	r6, r0
  62              	.LVL5:
 135:..\..\..\arduinoLCD\test\Pain Drain\libraries\lvgl\src\widgets/lv_line.c ****     lv_obj_t * obj = lv_event_get_target(e);
  63              		.loc 1 135 0
  64 001e 2000     		movs	r0, r4
  65              	.LVL6:
  66 0020 FFF7FEFF 		bl	lv_event_get_target
  67              	.LVL7:
  68 0024 0500     		movs	r5, r0
  69              	.LVL8:
 136:..\..\..\arduinoLCD\test\Pain Drain\libraries\lvgl\src\widgets/lv_line.c **** 
 137:..\..\..\arduinoLCD\test\Pain Drain\libraries\lvgl\src\widgets/lv_line.c ****     if(code == LV_EVENT_REFR_EXT_DRAW_SIZE) {
  70              		.loc 1 137 0
  71 0026 132E     		cmp	r6, #19
  72 0028 0ED1     		bne	.L3
  73              	.LVL9:
  74              	.LBB10:
  75              	.LBB11:
  76              	.LBB12:
  77              		.file 2 "..\\..\\..\\arduinoLCD\\test\\Pain Drain\\libraries\\lvgl\\src\\widgets\\../core/lv_obj_s
   1:..\..\..\arduinoLCD\test\Pain Drain\libraries\lvgl\src\widgets\../core/lv_obj_style_gen.h **** static inline lv_coord_t lv_obj_get_style_width(const struct _lv_obj_t * obj, uint32_t part)
   2:..\..\..\arduinoLCD\test\Pain Drain\libraries\lvgl\src\widgets\../core/lv_obj_style_gen.h **** {
   3:..\..\..\arduinoLCD\test\Pain Drain\libraries\lvgl\src\widgets\../core/lv_obj_style_gen.h ****     lv_style_value_t v = lv_obj_get_style_prop(obj, part, LV_STYLE_WIDTH);
   4:..\..\..\arduinoLCD\test\Pain Drain\libraries\lvgl\src\widgets\../core/lv_obj_style_gen.h ****     return (lv_coord_t)v.num;
   5:..\..\..\arduinoLCD\test\Pain Drain\libraries\lvgl\src\widgets\../core/lv_obj_style_gen.h **** }
   6:..\..\..\arduinoLCD\test\Pain Drain\libraries\lvgl\src\widgets\../core/lv_obj_style_gen.h **** 
   7:..\..\..\arduinoLCD\test\Pain Drain\libraries\lvgl\src\widgets\../core/lv_obj_style_gen.h **** static inline lv_coord_t lv_obj_get_style_min_width(const struct _lv_obj_t * obj, uint32_t part)
   8:..\..\..\arduinoLCD\test\Pain Drain\libraries\lvgl\src\widgets\../core/lv_obj_style_gen.h **** {
   9:..\..\..\arduinoLCD\test\Pain Drain\libraries\lvgl\src\widgets\../core/lv_obj_style_gen.h ****     lv_style_value_t v = lv_obj_get_style_prop(obj, part, LV_STYLE_MIN_WIDTH);
  10:..\..\..\arduinoLCD\test\Pain Drain\libraries\lvgl\src\widgets\../core/lv_obj_style_gen.h ****     return (lv_coord_t)v.num;
  11:..\..\..\arduinoLCD\test\Pain Drain\libraries\lvgl\src\widgets\../core/lv_obj_style_gen.h **** }
  12:..\..\..\arduinoLCD\test\Pain Drain\libraries\lvgl\src\widgets\../core/lv_obj_style_gen.h **** 
  13:..\..\..\arduinoLCD\test\Pain Drain\libraries\lvgl\src\widgets\../core/lv_obj_style_gen.h **** static inline lv_coord_t lv_obj_get_style_max_width(const struct _lv_obj_t * obj, uint32_t part)
  14:..\..\..\arduinoLCD\test\Pain Drain\libraries\lvgl\src\widgets\../core/lv_obj_style_gen.h **** {
ARM GAS  C:\Users\haske\AppData\Local\Temp\ccR7totD.s 			page 5


  15:..\..\..\arduinoLCD\test\Pain Drain\libraries\lvgl\src\widgets\../core/lv_obj_style_gen.h ****     lv_style_value_t v = lv_obj_get_style_prop(obj, part, LV_STYLE_MAX_WIDTH);
  16:..\..\..\arduinoLCD\test\Pain Drain\libraries\lvgl\src\widgets\../core/lv_obj_style_gen.h ****     return (lv_coord_t)v.num;
  17:..\..\..\arduinoLCD\test\Pain Drain\libraries\lvgl\src\widgets\../core/lv_obj_style_gen.h **** }
  18:..\..\..\arduinoLCD\test\Pain Drain\libraries\lvgl\src\widgets\../core/lv_obj_style_gen.h **** 
  19:..\..\..\arduinoLCD\test\Pain Drain\libraries\lvgl\src\widgets\../core/lv_obj_style_gen.h **** static inline lv_coord_t lv_obj_get_style_height(const struct _lv_obj_t * obj, uint32_t part)
  20:..\..\..\arduinoLCD\test\Pain Drain\libraries\lvgl\src\widgets\../core/lv_obj_style_gen.h **** {
  21:..\..\..\arduinoLCD\test\Pain Drain\libraries\lvgl\src\widgets\../core/lv_obj_style_gen.h ****     lv_style_value_t v = lv_obj_get_style_prop(obj, part, LV_STYLE_HEIGHT);
  22:..\..\..\arduinoLCD\test\Pain Drain\libraries\lvgl\src\widgets\../core/lv_obj_style_gen.h ****     return (lv_coord_t)v.num;
  23:..\..\..\arduinoLCD\test\Pain Drain\libraries\lvgl\src\widgets\../core/lv_obj_style_gen.h **** }
  24:..\..\..\arduinoLCD\test\Pain Drain\libraries\lvgl\src\widgets\../core/lv_obj_style_gen.h **** 
  25:..\..\..\arduinoLCD\test\Pain Drain\libraries\lvgl\src\widgets\../core/lv_obj_style_gen.h **** static inline lv_coord_t lv_obj_get_style_min_height(const struct _lv_obj_t * obj, uint32_t part)
  26:..\..\..\arduinoLCD\test\Pain Drain\libraries\lvgl\src\widgets\../core/lv_obj_style_gen.h **** {
  27:..\..\..\arduinoLCD\test\Pain Drain\libraries\lvgl\src\widgets\../core/lv_obj_style_gen.h ****     lv_style_value_t v = lv_obj_get_style_prop(obj, part, LV_STYLE_MIN_HEIGHT);
  28:..\..\..\arduinoLCD\test\Pain Drain\libraries\lvgl\src\widgets\../core/lv_obj_style_gen.h ****     return (lv_coord_t)v.num;
  29:..\..\..\arduinoLCD\test\Pain Drain\libraries\lvgl\src\widgets\../core/lv_obj_style_gen.h **** }
  30:..\..\..\arduinoLCD\test\Pain Drain\libraries\lvgl\src\widgets\../core/lv_obj_style_gen.h **** 
  31:..\..\..\arduinoLCD\test\Pain Drain\libraries\lvgl\src\widgets\../core/lv_obj_style_gen.h **** static inline lv_coord_t lv_obj_get_style_max_height(const struct _lv_obj_t * obj, uint32_t part)
  32:..\..\..\arduinoLCD\test\Pain Drain\libraries\lvgl\src\widgets\../core/lv_obj_style_gen.h **** {
  33:..\..\..\arduinoLCD\test\Pain Drain\libraries\lvgl\src\widgets\../core/lv_obj_style_gen.h ****     lv_style_value_t v = lv_obj_get_style_prop(obj, part, LV_STYLE_MAX_HEIGHT);
  34:..\..\..\arduinoLCD\test\Pain Drain\libraries\lvgl\src\widgets\../core/lv_obj_style_gen.h ****     return (lv_coord_t)v.num;
  35:..\..\..\arduinoLCD\test\Pain Drain\libraries\lvgl\src\widgets\../core/lv_obj_style_gen.h **** }
  36:..\..\..\arduinoLCD\test\Pain Drain\libraries\lvgl\src\widgets\../core/lv_obj_style_gen.h **** 
  37:..\..\..\arduinoLCD\test\Pain Drain\libraries\lvgl\src\widgets\../core/lv_obj_style_gen.h **** static inline lv_coord_t lv_obj_get_style_x(const struct _lv_obj_t * obj, uint32_t part)
  38:..\..\..\arduinoLCD\test\Pain Drain\libraries\lvgl\src\widgets\../core/lv_obj_style_gen.h **** {
  39:..\..\..\arduinoLCD\test\Pain Drain\libraries\lvgl\src\widgets\../core/lv_obj_style_gen.h ****     lv_style_value_t v = lv_obj_get_style_prop(obj, part, LV_STYLE_X);
  40:..\..\..\arduinoLCD\test\Pain Drain\libraries\lvgl\src\widgets\../core/lv_obj_style_gen.h ****     return (lv_coord_t)v.num;
  41:..\..\..\arduinoLCD\test\Pain Drain\libraries\lvgl\src\widgets\../core/lv_obj_style_gen.h **** }
  42:..\..\..\arduinoLCD\test\Pain Drain\libraries\lvgl\src\widgets\../core/lv_obj_style_gen.h **** 
  43:..\..\..\arduinoLCD\test\Pain Drain\libraries\lvgl\src\widgets\../core/lv_obj_style_gen.h **** static inline lv_coord_t lv_obj_get_style_y(const struct _lv_obj_t * obj, uint32_t part)
  44:..\..\..\arduinoLCD\test\Pain Drain\libraries\lvgl\src\widgets\../core/lv_obj_style_gen.h **** {
  45:..\..\..\arduinoLCD\test\Pain Drain\libraries\lvgl\src\widgets\../core/lv_obj_style_gen.h ****     lv_style_value_t v = lv_obj_get_style_prop(obj, part, LV_STYLE_Y);
  46:..\..\..\arduinoLCD\test\Pain Drain\libraries\lvgl\src\widgets\../core/lv_obj_style_gen.h ****     return (lv_coord_t)v.num;
  47:..\..\..\arduinoLCD\test\Pain Drain\libraries\lvgl\src\widgets\../core/lv_obj_style_gen.h **** }
  48:..\..\..\arduinoLCD\test\Pain Drain\libraries\lvgl\src\widgets\../core/lv_obj_style_gen.h **** 
  49:..\..\..\arduinoLCD\test\Pain Drain\libraries\lvgl\src\widgets\../core/lv_obj_style_gen.h **** static inline lv_align_t lv_obj_get_style_align(const struct _lv_obj_t * obj, uint32_t part)
  50:..\..\..\arduinoLCD\test\Pain Drain\libraries\lvgl\src\widgets\../core/lv_obj_style_gen.h **** {
  51:..\..\..\arduinoLCD\test\Pain Drain\libraries\lvgl\src\widgets\../core/lv_obj_style_gen.h ****     lv_style_value_t v = lv_obj_get_style_prop(obj, part, LV_STYLE_ALIGN);
  52:..\..\..\arduinoLCD\test\Pain Drain\libraries\lvgl\src\widgets\../core/lv_obj_style_gen.h ****     return (lv_align_t)v.num;
  53:..\..\..\arduinoLCD\test\Pain Drain\libraries\lvgl\src\widgets\../core/lv_obj_style_gen.h **** }
  54:..\..\..\arduinoLCD\test\Pain Drain\libraries\lvgl\src\widgets\../core/lv_obj_style_gen.h **** 
  55:..\..\..\arduinoLCD\test\Pain Drain\libraries\lvgl\src\widgets\../core/lv_obj_style_gen.h **** static inline lv_coord_t lv_obj_get_style_transform_width(const struct _lv_obj_t * obj, uint32_t pa
  56:..\..\..\arduinoLCD\test\Pain Drain\libraries\lvgl\src\widgets\../core/lv_obj_style_gen.h **** {
  57:..\..\..\arduinoLCD\test\Pain Drain\libraries\lvgl\src\widgets\../core/lv_obj_style_gen.h ****     lv_style_value_t v = lv_obj_get_style_prop(obj, part, LV_STYLE_TRANSFORM_WIDTH);
  58:..\..\..\arduinoLCD\test\Pain Drain\libraries\lvgl\src\widgets\../core/lv_obj_style_gen.h ****     return (lv_coord_t)v.num;
  59:..\..\..\arduinoLCD\test\Pain Drain\libraries\lvgl\src\widgets\../core/lv_obj_style_gen.h **** }
  60:..\..\..\arduinoLCD\test\Pain Drain\libraries\lvgl\src\widgets\../core/lv_obj_style_gen.h **** 
  61:..\..\..\arduinoLCD\test\Pain Drain\libraries\lvgl\src\widgets\../core/lv_obj_style_gen.h **** static inline lv_coord_t lv_obj_get_style_transform_height(const struct _lv_obj_t * obj, uint32_t p
  62:..\..\..\arduinoLCD\test\Pain Drain\libraries\lvgl\src\widgets\../core/lv_obj_style_gen.h **** {
  63:..\..\..\arduinoLCD\test\Pain Drain\libraries\lvgl\src\widgets\../core/lv_obj_style_gen.h ****     lv_style_value_t v = lv_obj_get_style_prop(obj, part, LV_STYLE_TRANSFORM_HEIGHT);
  64:..\..\..\arduinoLCD\test\Pain Drain\libraries\lvgl\src\widgets\../core/lv_obj_style_gen.h ****     return (lv_coord_t)v.num;
  65:..\..\..\arduinoLCD\test\Pain Drain\libraries\lvgl\src\widgets\../core/lv_obj_style_gen.h **** }
  66:..\..\..\arduinoLCD\test\Pain Drain\libraries\lvgl\src\widgets\../core/lv_obj_style_gen.h **** 
  67:..\..\..\arduinoLCD\test\Pain Drain\libraries\lvgl\src\widgets\../core/lv_obj_style_gen.h **** static inline lv_coord_t lv_obj_get_style_translate_x(const struct _lv_obj_t * obj, uint32_t part)
  68:..\..\..\arduinoLCD\test\Pain Drain\libraries\lvgl\src\widgets\../core/lv_obj_style_gen.h **** {
  69:..\..\..\arduinoLCD\test\Pain Drain\libraries\lvgl\src\widgets\../core/lv_obj_style_gen.h ****     lv_style_value_t v = lv_obj_get_style_prop(obj, part, LV_STYLE_TRANSLATE_X);
  70:..\..\..\arduinoLCD\test\Pain Drain\libraries\lvgl\src\widgets\../core/lv_obj_style_gen.h ****     return (lv_coord_t)v.num;
  71:..\..\..\arduinoLCD\test\Pain Drain\libraries\lvgl\src\widgets\../core/lv_obj_style_gen.h **** }
ARM GAS  C:\Users\haske\AppData\Local\Temp\ccR7totD.s 			page 6


  72:..\..\..\arduinoLCD\test\Pain Drain\libraries\lvgl\src\widgets\../core/lv_obj_style_gen.h **** 
  73:..\..\..\arduinoLCD\test\Pain Drain\libraries\lvgl\src\widgets\../core/lv_obj_style_gen.h **** static inline lv_coord_t lv_obj_get_style_translate_y(const struct _lv_obj_t * obj, uint32_t part)
  74:..\..\..\arduinoLCD\test\Pain Drain\libraries\lvgl\src\widgets\../core/lv_obj_style_gen.h **** {
  75:..\..\..\arduinoLCD\test\Pain Drain\libraries\lvgl\src\widgets\../core/lv_obj_style_gen.h ****     lv_style_value_t v = lv_obj_get_style_prop(obj, part, LV_STYLE_TRANSLATE_Y);
  76:..\..\..\arduinoLCD\test\Pain Drain\libraries\lvgl\src\widgets\../core/lv_obj_style_gen.h ****     return (lv_coord_t)v.num;
  77:..\..\..\arduinoLCD\test\Pain Drain\libraries\lvgl\src\widgets\../core/lv_obj_style_gen.h **** }
  78:..\..\..\arduinoLCD\test\Pain Drain\libraries\lvgl\src\widgets\../core/lv_obj_style_gen.h **** 
  79:..\..\..\arduinoLCD\test\Pain Drain\libraries\lvgl\src\widgets\../core/lv_obj_style_gen.h **** static inline lv_coord_t lv_obj_get_style_transform_zoom(const struct _lv_obj_t * obj, uint32_t par
  80:..\..\..\arduinoLCD\test\Pain Drain\libraries\lvgl\src\widgets\../core/lv_obj_style_gen.h **** {
  81:..\..\..\arduinoLCD\test\Pain Drain\libraries\lvgl\src\widgets\../core/lv_obj_style_gen.h ****     lv_style_value_t v = lv_obj_get_style_prop(obj, part, LV_STYLE_TRANSFORM_ZOOM);
  82:..\..\..\arduinoLCD\test\Pain Drain\libraries\lvgl\src\widgets\../core/lv_obj_style_gen.h ****     return (lv_coord_t)v.num;
  83:..\..\..\arduinoLCD\test\Pain Drain\libraries\lvgl\src\widgets\../core/lv_obj_style_gen.h **** }
  84:..\..\..\arduinoLCD\test\Pain Drain\libraries\lvgl\src\widgets\../core/lv_obj_style_gen.h **** 
  85:..\..\..\arduinoLCD\test\Pain Drain\libraries\lvgl\src\widgets\../core/lv_obj_style_gen.h **** static inline lv_coord_t lv_obj_get_style_transform_angle(const struct _lv_obj_t * obj, uint32_t pa
  86:..\..\..\arduinoLCD\test\Pain Drain\libraries\lvgl\src\widgets\../core/lv_obj_style_gen.h **** {
  87:..\..\..\arduinoLCD\test\Pain Drain\libraries\lvgl\src\widgets\../core/lv_obj_style_gen.h ****     lv_style_value_t v = lv_obj_get_style_prop(obj, part, LV_STYLE_TRANSFORM_ANGLE);
  88:..\..\..\arduinoLCD\test\Pain Drain\libraries\lvgl\src\widgets\../core/lv_obj_style_gen.h ****     return (lv_coord_t)v.num;
  89:..\..\..\arduinoLCD\test\Pain Drain\libraries\lvgl\src\widgets\../core/lv_obj_style_gen.h **** }
  90:..\..\..\arduinoLCD\test\Pain Drain\libraries\lvgl\src\widgets\../core/lv_obj_style_gen.h **** 
  91:..\..\..\arduinoLCD\test\Pain Drain\libraries\lvgl\src\widgets\../core/lv_obj_style_gen.h **** static inline lv_coord_t lv_obj_get_style_transform_pivot_x(const struct _lv_obj_t * obj, uint32_t 
  92:..\..\..\arduinoLCD\test\Pain Drain\libraries\lvgl\src\widgets\../core/lv_obj_style_gen.h **** {
  93:..\..\..\arduinoLCD\test\Pain Drain\libraries\lvgl\src\widgets\../core/lv_obj_style_gen.h ****     lv_style_value_t v = lv_obj_get_style_prop(obj, part, LV_STYLE_TRANSFORM_PIVOT_X);
  94:..\..\..\arduinoLCD\test\Pain Drain\libraries\lvgl\src\widgets\../core/lv_obj_style_gen.h ****     return (lv_coord_t)v.num;
  95:..\..\..\arduinoLCD\test\Pain Drain\libraries\lvgl\src\widgets\../core/lv_obj_style_gen.h **** }
  96:..\..\..\arduinoLCD\test\Pain Drain\libraries\lvgl\src\widgets\../core/lv_obj_style_gen.h **** 
  97:..\..\..\arduinoLCD\test\Pain Drain\libraries\lvgl\src\widgets\../core/lv_obj_style_gen.h **** static inline lv_coord_t lv_obj_get_style_transform_pivot_y(const struct _lv_obj_t * obj, uint32_t 
  98:..\..\..\arduinoLCD\test\Pain Drain\libraries\lvgl\src\widgets\../core/lv_obj_style_gen.h **** {
  99:..\..\..\arduinoLCD\test\Pain Drain\libraries\lvgl\src\widgets\../core/lv_obj_style_gen.h ****     lv_style_value_t v = lv_obj_get_style_prop(obj, part, LV_STYLE_TRANSFORM_PIVOT_Y);
 100:..\..\..\arduinoLCD\test\Pain Drain\libraries\lvgl\src\widgets\../core/lv_obj_style_gen.h ****     return (lv_coord_t)v.num;
 101:..\..\..\arduinoLCD\test\Pain Drain\libraries\lvgl\src\widgets\../core/lv_obj_style_gen.h **** }
 102:..\..\..\arduinoLCD\test\Pain Drain\libraries\lvgl\src\widgets\../core/lv_obj_style_gen.h **** 
 103:..\..\..\arduinoLCD\test\Pain Drain\libraries\lvgl\src\widgets\../core/lv_obj_style_gen.h **** static inline lv_coord_t lv_obj_get_style_pad_top(const struct _lv_obj_t * obj, uint32_t part)
 104:..\..\..\arduinoLCD\test\Pain Drain\libraries\lvgl\src\widgets\../core/lv_obj_style_gen.h **** {
 105:..\..\..\arduinoLCD\test\Pain Drain\libraries\lvgl\src\widgets\../core/lv_obj_style_gen.h ****     lv_style_value_t v = lv_obj_get_style_prop(obj, part, LV_STYLE_PAD_TOP);
 106:..\..\..\arduinoLCD\test\Pain Drain\libraries\lvgl\src\widgets\../core/lv_obj_style_gen.h ****     return (lv_coord_t)v.num;
 107:..\..\..\arduinoLCD\test\Pain Drain\libraries\lvgl\src\widgets\../core/lv_obj_style_gen.h **** }
 108:..\..\..\arduinoLCD\test\Pain Drain\libraries\lvgl\src\widgets\../core/lv_obj_style_gen.h **** 
 109:..\..\..\arduinoLCD\test\Pain Drain\libraries\lvgl\src\widgets\../core/lv_obj_style_gen.h **** static inline lv_coord_t lv_obj_get_style_pad_bottom(const struct _lv_obj_t * obj, uint32_t part)
 110:..\..\..\arduinoLCD\test\Pain Drain\libraries\lvgl\src\widgets\../core/lv_obj_style_gen.h **** {
 111:..\..\..\arduinoLCD\test\Pain Drain\libraries\lvgl\src\widgets\../core/lv_obj_style_gen.h ****     lv_style_value_t v = lv_obj_get_style_prop(obj, part, LV_STYLE_PAD_BOTTOM);
 112:..\..\..\arduinoLCD\test\Pain Drain\libraries\lvgl\src\widgets\../core/lv_obj_style_gen.h ****     return (lv_coord_t)v.num;
 113:..\..\..\arduinoLCD\test\Pain Drain\libraries\lvgl\src\widgets\../core/lv_obj_style_gen.h **** }
 114:..\..\..\arduinoLCD\test\Pain Drain\libraries\lvgl\src\widgets\../core/lv_obj_style_gen.h **** 
 115:..\..\..\arduinoLCD\test\Pain Drain\libraries\lvgl\src\widgets\../core/lv_obj_style_gen.h **** static inline lv_coord_t lv_obj_get_style_pad_left(const struct _lv_obj_t * obj, uint32_t part)
 116:..\..\..\arduinoLCD\test\Pain Drain\libraries\lvgl\src\widgets\../core/lv_obj_style_gen.h **** {
 117:..\..\..\arduinoLCD\test\Pain Drain\libraries\lvgl\src\widgets\../core/lv_obj_style_gen.h ****     lv_style_value_t v = lv_obj_get_style_prop(obj, part, LV_STYLE_PAD_LEFT);
 118:..\..\..\arduinoLCD\test\Pain Drain\libraries\lvgl\src\widgets\../core/lv_obj_style_gen.h ****     return (lv_coord_t)v.num;
 119:..\..\..\arduinoLCD\test\Pain Drain\libraries\lvgl\src\widgets\../core/lv_obj_style_gen.h **** }
 120:..\..\..\arduinoLCD\test\Pain Drain\libraries\lvgl\src\widgets\../core/lv_obj_style_gen.h **** 
 121:..\..\..\arduinoLCD\test\Pain Drain\libraries\lvgl\src\widgets\../core/lv_obj_style_gen.h **** static inline lv_coord_t lv_obj_get_style_pad_right(const struct _lv_obj_t * obj, uint32_t part)
 122:..\..\..\arduinoLCD\test\Pain Drain\libraries\lvgl\src\widgets\../core/lv_obj_style_gen.h **** {
 123:..\..\..\arduinoLCD\test\Pain Drain\libraries\lvgl\src\widgets\../core/lv_obj_style_gen.h ****     lv_style_value_t v = lv_obj_get_style_prop(obj, part, LV_STYLE_PAD_RIGHT);
 124:..\..\..\arduinoLCD\test\Pain Drain\libraries\lvgl\src\widgets\../core/lv_obj_style_gen.h ****     return (lv_coord_t)v.num;
 125:..\..\..\arduinoLCD\test\Pain Drain\libraries\lvgl\src\widgets\../core/lv_obj_style_gen.h **** }
 126:..\..\..\arduinoLCD\test\Pain Drain\libraries\lvgl\src\widgets\../core/lv_obj_style_gen.h **** 
 127:..\..\..\arduinoLCD\test\Pain Drain\libraries\lvgl\src\widgets\../core/lv_obj_style_gen.h **** static inline lv_coord_t lv_obj_get_style_pad_row(const struct _lv_obj_t * obj, uint32_t part)
 128:..\..\..\arduinoLCD\test\Pain Drain\libraries\lvgl\src\widgets\../core/lv_obj_style_gen.h **** {
ARM GAS  C:\Users\haske\AppData\Local\Temp\ccR7totD.s 			page 7


 129:..\..\..\arduinoLCD\test\Pain Drain\libraries\lvgl\src\widgets\../core/lv_obj_style_gen.h ****     lv_style_value_t v = lv_obj_get_style_prop(obj, part, LV_STYLE_PAD_ROW);
 130:..\..\..\arduinoLCD\test\Pain Drain\libraries\lvgl\src\widgets\../core/lv_obj_style_gen.h ****     return (lv_coord_t)v.num;
 131:..\..\..\arduinoLCD\test\Pain Drain\libraries\lvgl\src\widgets\../core/lv_obj_style_gen.h **** }
 132:..\..\..\arduinoLCD\test\Pain Drain\libraries\lvgl\src\widgets\../core/lv_obj_style_gen.h **** 
 133:..\..\..\arduinoLCD\test\Pain Drain\libraries\lvgl\src\widgets\../core/lv_obj_style_gen.h **** static inline lv_coord_t lv_obj_get_style_pad_column(const struct _lv_obj_t * obj, uint32_t part)
 134:..\..\..\arduinoLCD\test\Pain Drain\libraries\lvgl\src\widgets\../core/lv_obj_style_gen.h **** {
 135:..\..\..\arduinoLCD\test\Pain Drain\libraries\lvgl\src\widgets\../core/lv_obj_style_gen.h ****     lv_style_value_t v = lv_obj_get_style_prop(obj, part, LV_STYLE_PAD_COLUMN);
 136:..\..\..\arduinoLCD\test\Pain Drain\libraries\lvgl\src\widgets\../core/lv_obj_style_gen.h ****     return (lv_coord_t)v.num;
 137:..\..\..\arduinoLCD\test\Pain Drain\libraries\lvgl\src\widgets\../core/lv_obj_style_gen.h **** }
 138:..\..\..\arduinoLCD\test\Pain Drain\libraries\lvgl\src\widgets\../core/lv_obj_style_gen.h **** 
 139:..\..\..\arduinoLCD\test\Pain Drain\libraries\lvgl\src\widgets\../core/lv_obj_style_gen.h **** static inline lv_color_t lv_obj_get_style_bg_color(const struct _lv_obj_t * obj, uint32_t part)
 140:..\..\..\arduinoLCD\test\Pain Drain\libraries\lvgl\src\widgets\../core/lv_obj_style_gen.h **** {
 141:..\..\..\arduinoLCD\test\Pain Drain\libraries\lvgl\src\widgets\../core/lv_obj_style_gen.h ****     lv_style_value_t v = lv_obj_get_style_prop(obj, part, LV_STYLE_BG_COLOR);
 142:..\..\..\arduinoLCD\test\Pain Drain\libraries\lvgl\src\widgets\../core/lv_obj_style_gen.h ****     return v.color;
 143:..\..\..\arduinoLCD\test\Pain Drain\libraries\lvgl\src\widgets\../core/lv_obj_style_gen.h **** }
 144:..\..\..\arduinoLCD\test\Pain Drain\libraries\lvgl\src\widgets\../core/lv_obj_style_gen.h **** 
 145:..\..\..\arduinoLCD\test\Pain Drain\libraries\lvgl\src\widgets\../core/lv_obj_style_gen.h **** static inline lv_color_t lv_obj_get_style_bg_color_filtered(const struct _lv_obj_t * obj, uint32_t 
 146:..\..\..\arduinoLCD\test\Pain Drain\libraries\lvgl\src\widgets\../core/lv_obj_style_gen.h **** {
 147:..\..\..\arduinoLCD\test\Pain Drain\libraries\lvgl\src\widgets\../core/lv_obj_style_gen.h ****     lv_style_value_t v = _lv_obj_style_apply_color_filter(obj, part, lv_obj_get_style_prop(obj, par
 148:..\..\..\arduinoLCD\test\Pain Drain\libraries\lvgl\src\widgets\../core/lv_obj_style_gen.h ****     return v.color;
 149:..\..\..\arduinoLCD\test\Pain Drain\libraries\lvgl\src\widgets\../core/lv_obj_style_gen.h **** }
 150:..\..\..\arduinoLCD\test\Pain Drain\libraries\lvgl\src\widgets\../core/lv_obj_style_gen.h **** 
 151:..\..\..\arduinoLCD\test\Pain Drain\libraries\lvgl\src\widgets\../core/lv_obj_style_gen.h **** static inline lv_opa_t lv_obj_get_style_bg_opa(const struct _lv_obj_t * obj, uint32_t part)
 152:..\..\..\arduinoLCD\test\Pain Drain\libraries\lvgl\src\widgets\../core/lv_obj_style_gen.h **** {
 153:..\..\..\arduinoLCD\test\Pain Drain\libraries\lvgl\src\widgets\../core/lv_obj_style_gen.h ****     lv_style_value_t v = lv_obj_get_style_prop(obj, part, LV_STYLE_BG_OPA);
 154:..\..\..\arduinoLCD\test\Pain Drain\libraries\lvgl\src\widgets\../core/lv_obj_style_gen.h ****     return (lv_opa_t)v.num;
 155:..\..\..\arduinoLCD\test\Pain Drain\libraries\lvgl\src\widgets\../core/lv_obj_style_gen.h **** }
 156:..\..\..\arduinoLCD\test\Pain Drain\libraries\lvgl\src\widgets\../core/lv_obj_style_gen.h **** 
 157:..\..\..\arduinoLCD\test\Pain Drain\libraries\lvgl\src\widgets\../core/lv_obj_style_gen.h **** static inline lv_color_t lv_obj_get_style_bg_grad_color(const struct _lv_obj_t * obj, uint32_t part
 158:..\..\..\arduinoLCD\test\Pain Drain\libraries\lvgl\src\widgets\../core/lv_obj_style_gen.h **** {
 159:..\..\..\arduinoLCD\test\Pain Drain\libraries\lvgl\src\widgets\../core/lv_obj_style_gen.h ****     lv_style_value_t v = lv_obj_get_style_prop(obj, part, LV_STYLE_BG_GRAD_COLOR);
 160:..\..\..\arduinoLCD\test\Pain Drain\libraries\lvgl\src\widgets\../core/lv_obj_style_gen.h ****     return v.color;
 161:..\..\..\arduinoLCD\test\Pain Drain\libraries\lvgl\src\widgets\../core/lv_obj_style_gen.h **** }
 162:..\..\..\arduinoLCD\test\Pain Drain\libraries\lvgl\src\widgets\../core/lv_obj_style_gen.h **** 
 163:..\..\..\arduinoLCD\test\Pain Drain\libraries\lvgl\src\widgets\../core/lv_obj_style_gen.h **** static inline lv_color_t lv_obj_get_style_bg_grad_color_filtered(const struct _lv_obj_t * obj, uint
 164:..\..\..\arduinoLCD\test\Pain Drain\libraries\lvgl\src\widgets\../core/lv_obj_style_gen.h **** {
 165:..\..\..\arduinoLCD\test\Pain Drain\libraries\lvgl\src\widgets\../core/lv_obj_style_gen.h ****     lv_style_value_t v = _lv_obj_style_apply_color_filter(obj, part, lv_obj_get_style_prop(obj, par
 166:..\..\..\arduinoLCD\test\Pain Drain\libraries\lvgl\src\widgets\../core/lv_obj_style_gen.h ****     return v.color;
 167:..\..\..\arduinoLCD\test\Pain Drain\libraries\lvgl\src\widgets\../core/lv_obj_style_gen.h **** }
 168:..\..\..\arduinoLCD\test\Pain Drain\libraries\lvgl\src\widgets\../core/lv_obj_style_gen.h **** 
 169:..\..\..\arduinoLCD\test\Pain Drain\libraries\lvgl\src\widgets\../core/lv_obj_style_gen.h **** static inline lv_grad_dir_t lv_obj_get_style_bg_grad_dir(const struct _lv_obj_t * obj, uint32_t par
 170:..\..\..\arduinoLCD\test\Pain Drain\libraries\lvgl\src\widgets\../core/lv_obj_style_gen.h **** {
 171:..\..\..\arduinoLCD\test\Pain Drain\libraries\lvgl\src\widgets\../core/lv_obj_style_gen.h ****     lv_style_value_t v = lv_obj_get_style_prop(obj, part, LV_STYLE_BG_GRAD_DIR);
 172:..\..\..\arduinoLCD\test\Pain Drain\libraries\lvgl\src\widgets\../core/lv_obj_style_gen.h ****     return (lv_grad_dir_t)v.num;
 173:..\..\..\arduinoLCD\test\Pain Drain\libraries\lvgl\src\widgets\../core/lv_obj_style_gen.h **** }
 174:..\..\..\arduinoLCD\test\Pain Drain\libraries\lvgl\src\widgets\../core/lv_obj_style_gen.h **** 
 175:..\..\..\arduinoLCD\test\Pain Drain\libraries\lvgl\src\widgets\../core/lv_obj_style_gen.h **** static inline lv_coord_t lv_obj_get_style_bg_main_stop(const struct _lv_obj_t * obj, uint32_t part)
 176:..\..\..\arduinoLCD\test\Pain Drain\libraries\lvgl\src\widgets\../core/lv_obj_style_gen.h **** {
 177:..\..\..\arduinoLCD\test\Pain Drain\libraries\lvgl\src\widgets\../core/lv_obj_style_gen.h ****     lv_style_value_t v = lv_obj_get_style_prop(obj, part, LV_STYLE_BG_MAIN_STOP);
 178:..\..\..\arduinoLCD\test\Pain Drain\libraries\lvgl\src\widgets\../core/lv_obj_style_gen.h ****     return (lv_coord_t)v.num;
 179:..\..\..\arduinoLCD\test\Pain Drain\libraries\lvgl\src\widgets\../core/lv_obj_style_gen.h **** }
 180:..\..\..\arduinoLCD\test\Pain Drain\libraries\lvgl\src\widgets\../core/lv_obj_style_gen.h **** 
 181:..\..\..\arduinoLCD\test\Pain Drain\libraries\lvgl\src\widgets\../core/lv_obj_style_gen.h **** static inline lv_coord_t lv_obj_get_style_bg_grad_stop(const struct _lv_obj_t * obj, uint32_t part)
 182:..\..\..\arduinoLCD\test\Pain Drain\libraries\lvgl\src\widgets\../core/lv_obj_style_gen.h **** {
 183:..\..\..\arduinoLCD\test\Pain Drain\libraries\lvgl\src\widgets\../core/lv_obj_style_gen.h ****     lv_style_value_t v = lv_obj_get_style_prop(obj, part, LV_STYLE_BG_GRAD_STOP);
 184:..\..\..\arduinoLCD\test\Pain Drain\libraries\lvgl\src\widgets\../core/lv_obj_style_gen.h ****     return (lv_coord_t)v.num;
 185:..\..\..\arduinoLCD\test\Pain Drain\libraries\lvgl\src\widgets\../core/lv_obj_style_gen.h **** }
ARM GAS  C:\Users\haske\AppData\Local\Temp\ccR7totD.s 			page 8


 186:..\..\..\arduinoLCD\test\Pain Drain\libraries\lvgl\src\widgets\../core/lv_obj_style_gen.h **** 
 187:..\..\..\arduinoLCD\test\Pain Drain\libraries\lvgl\src\widgets\../core/lv_obj_style_gen.h **** static inline const lv_grad_dsc_t * lv_obj_get_style_bg_grad(const struct _lv_obj_t * obj, uint32_t
 188:..\..\..\arduinoLCD\test\Pain Drain\libraries\lvgl\src\widgets\../core/lv_obj_style_gen.h **** {
 189:..\..\..\arduinoLCD\test\Pain Drain\libraries\lvgl\src\widgets\../core/lv_obj_style_gen.h ****     lv_style_value_t v = lv_obj_get_style_prop(obj, part, LV_STYLE_BG_GRAD);
 190:..\..\..\arduinoLCD\test\Pain Drain\libraries\lvgl\src\widgets\../core/lv_obj_style_gen.h ****     return (const lv_grad_dsc_t *)v.ptr;
 191:..\..\..\arduinoLCD\test\Pain Drain\libraries\lvgl\src\widgets\../core/lv_obj_style_gen.h **** }
 192:..\..\..\arduinoLCD\test\Pain Drain\libraries\lvgl\src\widgets\../core/lv_obj_style_gen.h **** 
 193:..\..\..\arduinoLCD\test\Pain Drain\libraries\lvgl\src\widgets\../core/lv_obj_style_gen.h **** static inline lv_dither_mode_t lv_obj_get_style_bg_dither_mode(const struct _lv_obj_t * obj, uint32
 194:..\..\..\arduinoLCD\test\Pain Drain\libraries\lvgl\src\widgets\../core/lv_obj_style_gen.h **** {
 195:..\..\..\arduinoLCD\test\Pain Drain\libraries\lvgl\src\widgets\../core/lv_obj_style_gen.h ****     lv_style_value_t v = lv_obj_get_style_prop(obj, part, LV_STYLE_BG_DITHER_MODE);
 196:..\..\..\arduinoLCD\test\Pain Drain\libraries\lvgl\src\widgets\../core/lv_obj_style_gen.h ****     return (lv_dither_mode_t)v.num;
 197:..\..\..\arduinoLCD\test\Pain Drain\libraries\lvgl\src\widgets\../core/lv_obj_style_gen.h **** }
 198:..\..\..\arduinoLCD\test\Pain Drain\libraries\lvgl\src\widgets\../core/lv_obj_style_gen.h **** 
 199:..\..\..\arduinoLCD\test\Pain Drain\libraries\lvgl\src\widgets\../core/lv_obj_style_gen.h **** static inline const void * lv_obj_get_style_bg_img_src(const struct _lv_obj_t * obj, uint32_t part)
 200:..\..\..\arduinoLCD\test\Pain Drain\libraries\lvgl\src\widgets\../core/lv_obj_style_gen.h **** {
 201:..\..\..\arduinoLCD\test\Pain Drain\libraries\lvgl\src\widgets\../core/lv_obj_style_gen.h ****     lv_style_value_t v = lv_obj_get_style_prop(obj, part, LV_STYLE_BG_IMG_SRC);
 202:..\..\..\arduinoLCD\test\Pain Drain\libraries\lvgl\src\widgets\../core/lv_obj_style_gen.h ****     return (const void *)v.ptr;
 203:..\..\..\arduinoLCD\test\Pain Drain\libraries\lvgl\src\widgets\../core/lv_obj_style_gen.h **** }
 204:..\..\..\arduinoLCD\test\Pain Drain\libraries\lvgl\src\widgets\../core/lv_obj_style_gen.h **** 
 205:..\..\..\arduinoLCD\test\Pain Drain\libraries\lvgl\src\widgets\../core/lv_obj_style_gen.h **** static inline lv_opa_t lv_obj_get_style_bg_img_opa(const struct _lv_obj_t * obj, uint32_t part)
 206:..\..\..\arduinoLCD\test\Pain Drain\libraries\lvgl\src\widgets\../core/lv_obj_style_gen.h **** {
 207:..\..\..\arduinoLCD\test\Pain Drain\libraries\lvgl\src\widgets\../core/lv_obj_style_gen.h ****     lv_style_value_t v = lv_obj_get_style_prop(obj, part, LV_STYLE_BG_IMG_OPA);
 208:..\..\..\arduinoLCD\test\Pain Drain\libraries\lvgl\src\widgets\../core/lv_obj_style_gen.h ****     return (lv_opa_t)v.num;
 209:..\..\..\arduinoLCD\test\Pain Drain\libraries\lvgl\src\widgets\../core/lv_obj_style_gen.h **** }
 210:..\..\..\arduinoLCD\test\Pain Drain\libraries\lvgl\src\widgets\../core/lv_obj_style_gen.h **** 
 211:..\..\..\arduinoLCD\test\Pain Drain\libraries\lvgl\src\widgets\../core/lv_obj_style_gen.h **** static inline lv_color_t lv_obj_get_style_bg_img_recolor(const struct _lv_obj_t * obj, uint32_t par
 212:..\..\..\arduinoLCD\test\Pain Drain\libraries\lvgl\src\widgets\../core/lv_obj_style_gen.h **** {
 213:..\..\..\arduinoLCD\test\Pain Drain\libraries\lvgl\src\widgets\../core/lv_obj_style_gen.h ****     lv_style_value_t v = lv_obj_get_style_prop(obj, part, LV_STYLE_BG_IMG_RECOLOR);
 214:..\..\..\arduinoLCD\test\Pain Drain\libraries\lvgl\src\widgets\../core/lv_obj_style_gen.h ****     return v.color;
 215:..\..\..\arduinoLCD\test\Pain Drain\libraries\lvgl\src\widgets\../core/lv_obj_style_gen.h **** }
 216:..\..\..\arduinoLCD\test\Pain Drain\libraries\lvgl\src\widgets\../core/lv_obj_style_gen.h **** 
 217:..\..\..\arduinoLCD\test\Pain Drain\libraries\lvgl\src\widgets\../core/lv_obj_style_gen.h **** static inline lv_color_t lv_obj_get_style_bg_img_recolor_filtered(const struct _lv_obj_t * obj, uin
 218:..\..\..\arduinoLCD\test\Pain Drain\libraries\lvgl\src\widgets\../core/lv_obj_style_gen.h **** {
 219:..\..\..\arduinoLCD\test\Pain Drain\libraries\lvgl\src\widgets\../core/lv_obj_style_gen.h ****     lv_style_value_t v = _lv_obj_style_apply_color_filter(obj, part, lv_obj_get_style_prop(obj, par
 220:..\..\..\arduinoLCD\test\Pain Drain\libraries\lvgl\src\widgets\../core/lv_obj_style_gen.h ****     return v.color;
 221:..\..\..\arduinoLCD\test\Pain Drain\libraries\lvgl\src\widgets\../core/lv_obj_style_gen.h **** }
 222:..\..\..\arduinoLCD\test\Pain Drain\libraries\lvgl\src\widgets\../core/lv_obj_style_gen.h **** 
 223:..\..\..\arduinoLCD\test\Pain Drain\libraries\lvgl\src\widgets\../core/lv_obj_style_gen.h **** static inline lv_opa_t lv_obj_get_style_bg_img_recolor_opa(const struct _lv_obj_t * obj, uint32_t p
 224:..\..\..\arduinoLCD\test\Pain Drain\libraries\lvgl\src\widgets\../core/lv_obj_style_gen.h **** {
 225:..\..\..\arduinoLCD\test\Pain Drain\libraries\lvgl\src\widgets\../core/lv_obj_style_gen.h ****     lv_style_value_t v = lv_obj_get_style_prop(obj, part, LV_STYLE_BG_IMG_RECOLOR_OPA);
 226:..\..\..\arduinoLCD\test\Pain Drain\libraries\lvgl\src\widgets\../core/lv_obj_style_gen.h ****     return (lv_opa_t)v.num;
 227:..\..\..\arduinoLCD\test\Pain Drain\libraries\lvgl\src\widgets\../core/lv_obj_style_gen.h **** }
 228:..\..\..\arduinoLCD\test\Pain Drain\libraries\lvgl\src\widgets\../core/lv_obj_style_gen.h **** 
 229:..\..\..\arduinoLCD\test\Pain Drain\libraries\lvgl\src\widgets\../core/lv_obj_style_gen.h **** static inline bool lv_obj_get_style_bg_img_tiled(const struct _lv_obj_t * obj, uint32_t part)
 230:..\..\..\arduinoLCD\test\Pain Drain\libraries\lvgl\src\widgets\../core/lv_obj_style_gen.h **** {
 231:..\..\..\arduinoLCD\test\Pain Drain\libraries\lvgl\src\widgets\../core/lv_obj_style_gen.h ****     lv_style_value_t v = lv_obj_get_style_prop(obj, part, LV_STYLE_BG_IMG_TILED);
 232:..\..\..\arduinoLCD\test\Pain Drain\libraries\lvgl\src\widgets\../core/lv_obj_style_gen.h ****     return (bool)v.num;
 233:..\..\..\arduinoLCD\test\Pain Drain\libraries\lvgl\src\widgets\../core/lv_obj_style_gen.h **** }
 234:..\..\..\arduinoLCD\test\Pain Drain\libraries\lvgl\src\widgets\../core/lv_obj_style_gen.h **** 
 235:..\..\..\arduinoLCD\test\Pain Drain\libraries\lvgl\src\widgets\../core/lv_obj_style_gen.h **** static inline lv_color_t lv_obj_get_style_border_color(const struct _lv_obj_t * obj, uint32_t part)
 236:..\..\..\arduinoLCD\test\Pain Drain\libraries\lvgl\src\widgets\../core/lv_obj_style_gen.h **** {
 237:..\..\..\arduinoLCD\test\Pain Drain\libraries\lvgl\src\widgets\../core/lv_obj_style_gen.h ****     lv_style_value_t v = lv_obj_get_style_prop(obj, part, LV_STYLE_BORDER_COLOR);
 238:..\..\..\arduinoLCD\test\Pain Drain\libraries\lvgl\src\widgets\../core/lv_obj_style_gen.h ****     return v.color;
 239:..\..\..\arduinoLCD\test\Pain Drain\libraries\lvgl\src\widgets\../core/lv_obj_style_gen.h **** }
 240:..\..\..\arduinoLCD\test\Pain Drain\libraries\lvgl\src\widgets\../core/lv_obj_style_gen.h **** 
 241:..\..\..\arduinoLCD\test\Pain Drain\libraries\lvgl\src\widgets\../core/lv_obj_style_gen.h **** static inline lv_color_t lv_obj_get_style_border_color_filtered(const struct _lv_obj_t * obj, uint3
 242:..\..\..\arduinoLCD\test\Pain Drain\libraries\lvgl\src\widgets\../core/lv_obj_style_gen.h **** {
ARM GAS  C:\Users\haske\AppData\Local\Temp\ccR7totD.s 			page 9


 243:..\..\..\arduinoLCD\test\Pain Drain\libraries\lvgl\src\widgets\../core/lv_obj_style_gen.h ****     lv_style_value_t v = _lv_obj_style_apply_color_filter(obj, part, lv_obj_get_style_prop(obj, par
 244:..\..\..\arduinoLCD\test\Pain Drain\libraries\lvgl\src\widgets\../core/lv_obj_style_gen.h ****     return v.color;
 245:..\..\..\arduinoLCD\test\Pain Drain\libraries\lvgl\src\widgets\../core/lv_obj_style_gen.h **** }
 246:..\..\..\arduinoLCD\test\Pain Drain\libraries\lvgl\src\widgets\../core/lv_obj_style_gen.h **** 
 247:..\..\..\arduinoLCD\test\Pain Drain\libraries\lvgl\src\widgets\../core/lv_obj_style_gen.h **** static inline lv_opa_t lv_obj_get_style_border_opa(const struct _lv_obj_t * obj, uint32_t part)
 248:..\..\..\arduinoLCD\test\Pain Drain\libraries\lvgl\src\widgets\../core/lv_obj_style_gen.h **** {
 249:..\..\..\arduinoLCD\test\Pain Drain\libraries\lvgl\src\widgets\../core/lv_obj_style_gen.h ****     lv_style_value_t v = lv_obj_get_style_prop(obj, part, LV_STYLE_BORDER_OPA);
 250:..\..\..\arduinoLCD\test\Pain Drain\libraries\lvgl\src\widgets\../core/lv_obj_style_gen.h ****     return (lv_opa_t)v.num;
 251:..\..\..\arduinoLCD\test\Pain Drain\libraries\lvgl\src\widgets\../core/lv_obj_style_gen.h **** }
 252:..\..\..\arduinoLCD\test\Pain Drain\libraries\lvgl\src\widgets\../core/lv_obj_style_gen.h **** 
 253:..\..\..\arduinoLCD\test\Pain Drain\libraries\lvgl\src\widgets\../core/lv_obj_style_gen.h **** static inline lv_coord_t lv_obj_get_style_border_width(const struct _lv_obj_t * obj, uint32_t part)
 254:..\..\..\arduinoLCD\test\Pain Drain\libraries\lvgl\src\widgets\../core/lv_obj_style_gen.h **** {
 255:..\..\..\arduinoLCD\test\Pain Drain\libraries\lvgl\src\widgets\../core/lv_obj_style_gen.h ****     lv_style_value_t v = lv_obj_get_style_prop(obj, part, LV_STYLE_BORDER_WIDTH);
 256:..\..\..\arduinoLCD\test\Pain Drain\libraries\lvgl\src\widgets\../core/lv_obj_style_gen.h ****     return (lv_coord_t)v.num;
 257:..\..\..\arduinoLCD\test\Pain Drain\libraries\lvgl\src\widgets\../core/lv_obj_style_gen.h **** }
 258:..\..\..\arduinoLCD\test\Pain Drain\libraries\lvgl\src\widgets\../core/lv_obj_style_gen.h **** 
 259:..\..\..\arduinoLCD\test\Pain Drain\libraries\lvgl\src\widgets\../core/lv_obj_style_gen.h **** static inline lv_border_side_t lv_obj_get_style_border_side(const struct _lv_obj_t * obj, uint32_t 
 260:..\..\..\arduinoLCD\test\Pain Drain\libraries\lvgl\src\widgets\../core/lv_obj_style_gen.h **** {
 261:..\..\..\arduinoLCD\test\Pain Drain\libraries\lvgl\src\widgets\../core/lv_obj_style_gen.h ****     lv_style_value_t v = lv_obj_get_style_prop(obj, part, LV_STYLE_BORDER_SIDE);
 262:..\..\..\arduinoLCD\test\Pain Drain\libraries\lvgl\src\widgets\../core/lv_obj_style_gen.h ****     return (lv_border_side_t)v.num;
 263:..\..\..\arduinoLCD\test\Pain Drain\libraries\lvgl\src\widgets\../core/lv_obj_style_gen.h **** }
 264:..\..\..\arduinoLCD\test\Pain Drain\libraries\lvgl\src\widgets\../core/lv_obj_style_gen.h **** 
 265:..\..\..\arduinoLCD\test\Pain Drain\libraries\lvgl\src\widgets\../core/lv_obj_style_gen.h **** static inline bool lv_obj_get_style_border_post(const struct _lv_obj_t * obj, uint32_t part)
 266:..\..\..\arduinoLCD\test\Pain Drain\libraries\lvgl\src\widgets\../core/lv_obj_style_gen.h **** {
 267:..\..\..\arduinoLCD\test\Pain Drain\libraries\lvgl\src\widgets\../core/lv_obj_style_gen.h ****     lv_style_value_t v = lv_obj_get_style_prop(obj, part, LV_STYLE_BORDER_POST);
 268:..\..\..\arduinoLCD\test\Pain Drain\libraries\lvgl\src\widgets\../core/lv_obj_style_gen.h ****     return (bool)v.num;
 269:..\..\..\arduinoLCD\test\Pain Drain\libraries\lvgl\src\widgets\../core/lv_obj_style_gen.h **** }
 270:..\..\..\arduinoLCD\test\Pain Drain\libraries\lvgl\src\widgets\../core/lv_obj_style_gen.h **** 
 271:..\..\..\arduinoLCD\test\Pain Drain\libraries\lvgl\src\widgets\../core/lv_obj_style_gen.h **** static inline lv_coord_t lv_obj_get_style_outline_width(const struct _lv_obj_t * obj, uint32_t part
 272:..\..\..\arduinoLCD\test\Pain Drain\libraries\lvgl\src\widgets\../core/lv_obj_style_gen.h **** {
 273:..\..\..\arduinoLCD\test\Pain Drain\libraries\lvgl\src\widgets\../core/lv_obj_style_gen.h ****     lv_style_value_t v = lv_obj_get_style_prop(obj, part, LV_STYLE_OUTLINE_WIDTH);
 274:..\..\..\arduinoLCD\test\Pain Drain\libraries\lvgl\src\widgets\../core/lv_obj_style_gen.h ****     return (lv_coord_t)v.num;
 275:..\..\..\arduinoLCD\test\Pain Drain\libraries\lvgl\src\widgets\../core/lv_obj_style_gen.h **** }
 276:..\..\..\arduinoLCD\test\Pain Drain\libraries\lvgl\src\widgets\../core/lv_obj_style_gen.h **** 
 277:..\..\..\arduinoLCD\test\Pain Drain\libraries\lvgl\src\widgets\../core/lv_obj_style_gen.h **** static inline lv_color_t lv_obj_get_style_outline_color(const struct _lv_obj_t * obj, uint32_t part
 278:..\..\..\arduinoLCD\test\Pain Drain\libraries\lvgl\src\widgets\../core/lv_obj_style_gen.h **** {
 279:..\..\..\arduinoLCD\test\Pain Drain\libraries\lvgl\src\widgets\../core/lv_obj_style_gen.h ****     lv_style_value_t v = lv_obj_get_style_prop(obj, part, LV_STYLE_OUTLINE_COLOR);
 280:..\..\..\arduinoLCD\test\Pain Drain\libraries\lvgl\src\widgets\../core/lv_obj_style_gen.h ****     return v.color;
 281:..\..\..\arduinoLCD\test\Pain Drain\libraries\lvgl\src\widgets\../core/lv_obj_style_gen.h **** }
 282:..\..\..\arduinoLCD\test\Pain Drain\libraries\lvgl\src\widgets\../core/lv_obj_style_gen.h **** 
 283:..\..\..\arduinoLCD\test\Pain Drain\libraries\lvgl\src\widgets\../core/lv_obj_style_gen.h **** static inline lv_color_t lv_obj_get_style_outline_color_filtered(const struct _lv_obj_t * obj, uint
 284:..\..\..\arduinoLCD\test\Pain Drain\libraries\lvgl\src\widgets\../core/lv_obj_style_gen.h **** {
 285:..\..\..\arduinoLCD\test\Pain Drain\libraries\lvgl\src\widgets\../core/lv_obj_style_gen.h ****     lv_style_value_t v = _lv_obj_style_apply_color_filter(obj, part, lv_obj_get_style_prop(obj, par
 286:..\..\..\arduinoLCD\test\Pain Drain\libraries\lvgl\src\widgets\../core/lv_obj_style_gen.h ****     return v.color;
 287:..\..\..\arduinoLCD\test\Pain Drain\libraries\lvgl\src\widgets\../core/lv_obj_style_gen.h **** }
 288:..\..\..\arduinoLCD\test\Pain Drain\libraries\lvgl\src\widgets\../core/lv_obj_style_gen.h **** 
 289:..\..\..\arduinoLCD\test\Pain Drain\libraries\lvgl\src\widgets\../core/lv_obj_style_gen.h **** static inline lv_opa_t lv_obj_get_style_outline_opa(const struct _lv_obj_t * obj, uint32_t part)
 290:..\..\..\arduinoLCD\test\Pain Drain\libraries\lvgl\src\widgets\../core/lv_obj_style_gen.h **** {
 291:..\..\..\arduinoLCD\test\Pain Drain\libraries\lvgl\src\widgets\../core/lv_obj_style_gen.h ****     lv_style_value_t v = lv_obj_get_style_prop(obj, part, LV_STYLE_OUTLINE_OPA);
 292:..\..\..\arduinoLCD\test\Pain Drain\libraries\lvgl\src\widgets\../core/lv_obj_style_gen.h ****     return (lv_opa_t)v.num;
 293:..\..\..\arduinoLCD\test\Pain Drain\libraries\lvgl\src\widgets\../core/lv_obj_style_gen.h **** }
 294:..\..\..\arduinoLCD\test\Pain Drain\libraries\lvgl\src\widgets\../core/lv_obj_style_gen.h **** 
 295:..\..\..\arduinoLCD\test\Pain Drain\libraries\lvgl\src\widgets\../core/lv_obj_style_gen.h **** static inline lv_coord_t lv_obj_get_style_outline_pad(const struct _lv_obj_t * obj, uint32_t part)
 296:..\..\..\arduinoLCD\test\Pain Drain\libraries\lvgl\src\widgets\../core/lv_obj_style_gen.h **** {
 297:..\..\..\arduinoLCD\test\Pain Drain\libraries\lvgl\src\widgets\../core/lv_obj_style_gen.h ****     lv_style_value_t v = lv_obj_get_style_prop(obj, part, LV_STYLE_OUTLINE_PAD);
 298:..\..\..\arduinoLCD\test\Pain Drain\libraries\lvgl\src\widgets\../core/lv_obj_style_gen.h ****     return (lv_coord_t)v.num;
 299:..\..\..\arduinoLCD\test\Pain Drain\libraries\lvgl\src\widgets\../core/lv_obj_style_gen.h **** }
ARM GAS  C:\Users\haske\AppData\Local\Temp\ccR7totD.s 			page 10


 300:..\..\..\arduinoLCD\test\Pain Drain\libraries\lvgl\src\widgets\../core/lv_obj_style_gen.h **** 
 301:..\..\..\arduinoLCD\test\Pain Drain\libraries\lvgl\src\widgets\../core/lv_obj_style_gen.h **** static inline lv_coord_t lv_obj_get_style_shadow_width(const struct _lv_obj_t * obj, uint32_t part)
 302:..\..\..\arduinoLCD\test\Pain Drain\libraries\lvgl\src\widgets\../core/lv_obj_style_gen.h **** {
 303:..\..\..\arduinoLCD\test\Pain Drain\libraries\lvgl\src\widgets\../core/lv_obj_style_gen.h ****     lv_style_value_t v = lv_obj_get_style_prop(obj, part, LV_STYLE_SHADOW_WIDTH);
 304:..\..\..\arduinoLCD\test\Pain Drain\libraries\lvgl\src\widgets\../core/lv_obj_style_gen.h ****     return (lv_coord_t)v.num;
 305:..\..\..\arduinoLCD\test\Pain Drain\libraries\lvgl\src\widgets\../core/lv_obj_style_gen.h **** }
 306:..\..\..\arduinoLCD\test\Pain Drain\libraries\lvgl\src\widgets\../core/lv_obj_style_gen.h **** 
 307:..\..\..\arduinoLCD\test\Pain Drain\libraries\lvgl\src\widgets\../core/lv_obj_style_gen.h **** static inline lv_coord_t lv_obj_get_style_shadow_ofs_x(const struct _lv_obj_t * obj, uint32_t part)
 308:..\..\..\arduinoLCD\test\Pain Drain\libraries\lvgl\src\widgets\../core/lv_obj_style_gen.h **** {
 309:..\..\..\arduinoLCD\test\Pain Drain\libraries\lvgl\src\widgets\../core/lv_obj_style_gen.h ****     lv_style_value_t v = lv_obj_get_style_prop(obj, part, LV_STYLE_SHADOW_OFS_X);
 310:..\..\..\arduinoLCD\test\Pain Drain\libraries\lvgl\src\widgets\../core/lv_obj_style_gen.h ****     return (lv_coord_t)v.num;
 311:..\..\..\arduinoLCD\test\Pain Drain\libraries\lvgl\src\widgets\../core/lv_obj_style_gen.h **** }
 312:..\..\..\arduinoLCD\test\Pain Drain\libraries\lvgl\src\widgets\../core/lv_obj_style_gen.h **** 
 313:..\..\..\arduinoLCD\test\Pain Drain\libraries\lvgl\src\widgets\../core/lv_obj_style_gen.h **** static inline lv_coord_t lv_obj_get_style_shadow_ofs_y(const struct _lv_obj_t * obj, uint32_t part)
 314:..\..\..\arduinoLCD\test\Pain Drain\libraries\lvgl\src\widgets\../core/lv_obj_style_gen.h **** {
 315:..\..\..\arduinoLCD\test\Pain Drain\libraries\lvgl\src\widgets\../core/lv_obj_style_gen.h ****     lv_style_value_t v = lv_obj_get_style_prop(obj, part, LV_STYLE_SHADOW_OFS_Y);
 316:..\..\..\arduinoLCD\test\Pain Drain\libraries\lvgl\src\widgets\../core/lv_obj_style_gen.h ****     return (lv_coord_t)v.num;
 317:..\..\..\arduinoLCD\test\Pain Drain\libraries\lvgl\src\widgets\../core/lv_obj_style_gen.h **** }
 318:..\..\..\arduinoLCD\test\Pain Drain\libraries\lvgl\src\widgets\../core/lv_obj_style_gen.h **** 
 319:..\..\..\arduinoLCD\test\Pain Drain\libraries\lvgl\src\widgets\../core/lv_obj_style_gen.h **** static inline lv_coord_t lv_obj_get_style_shadow_spread(const struct _lv_obj_t * obj, uint32_t part
 320:..\..\..\arduinoLCD\test\Pain Drain\libraries\lvgl\src\widgets\../core/lv_obj_style_gen.h **** {
 321:..\..\..\arduinoLCD\test\Pain Drain\libraries\lvgl\src\widgets\../core/lv_obj_style_gen.h ****     lv_style_value_t v = lv_obj_get_style_prop(obj, part, LV_STYLE_SHADOW_SPREAD);
 322:..\..\..\arduinoLCD\test\Pain Drain\libraries\lvgl\src\widgets\../core/lv_obj_style_gen.h ****     return (lv_coord_t)v.num;
 323:..\..\..\arduinoLCD\test\Pain Drain\libraries\lvgl\src\widgets\../core/lv_obj_style_gen.h **** }
 324:..\..\..\arduinoLCD\test\Pain Drain\libraries\lvgl\src\widgets\../core/lv_obj_style_gen.h **** 
 325:..\..\..\arduinoLCD\test\Pain Drain\libraries\lvgl\src\widgets\../core/lv_obj_style_gen.h **** static inline lv_color_t lv_obj_get_style_shadow_color(const struct _lv_obj_t * obj, uint32_t part)
 326:..\..\..\arduinoLCD\test\Pain Drain\libraries\lvgl\src\widgets\../core/lv_obj_style_gen.h **** {
 327:..\..\..\arduinoLCD\test\Pain Drain\libraries\lvgl\src\widgets\../core/lv_obj_style_gen.h ****     lv_style_value_t v = lv_obj_get_style_prop(obj, part, LV_STYLE_SHADOW_COLOR);
 328:..\..\..\arduinoLCD\test\Pain Drain\libraries\lvgl\src\widgets\../core/lv_obj_style_gen.h ****     return v.color;
 329:..\..\..\arduinoLCD\test\Pain Drain\libraries\lvgl\src\widgets\../core/lv_obj_style_gen.h **** }
 330:..\..\..\arduinoLCD\test\Pain Drain\libraries\lvgl\src\widgets\../core/lv_obj_style_gen.h **** 
 331:..\..\..\arduinoLCD\test\Pain Drain\libraries\lvgl\src\widgets\../core/lv_obj_style_gen.h **** static inline lv_color_t lv_obj_get_style_shadow_color_filtered(const struct _lv_obj_t * obj, uint3
 332:..\..\..\arduinoLCD\test\Pain Drain\libraries\lvgl\src\widgets\../core/lv_obj_style_gen.h **** {
 333:..\..\..\arduinoLCD\test\Pain Drain\libraries\lvgl\src\widgets\../core/lv_obj_style_gen.h ****     lv_style_value_t v = _lv_obj_style_apply_color_filter(obj, part, lv_obj_get_style_prop(obj, par
 334:..\..\..\arduinoLCD\test\Pain Drain\libraries\lvgl\src\widgets\../core/lv_obj_style_gen.h ****     return v.color;
 335:..\..\..\arduinoLCD\test\Pain Drain\libraries\lvgl\src\widgets\../core/lv_obj_style_gen.h **** }
 336:..\..\..\arduinoLCD\test\Pain Drain\libraries\lvgl\src\widgets\../core/lv_obj_style_gen.h **** 
 337:..\..\..\arduinoLCD\test\Pain Drain\libraries\lvgl\src\widgets\../core/lv_obj_style_gen.h **** static inline lv_opa_t lv_obj_get_style_shadow_opa(const struct _lv_obj_t * obj, uint32_t part)
 338:..\..\..\arduinoLCD\test\Pain Drain\libraries\lvgl\src\widgets\../core/lv_obj_style_gen.h **** {
 339:..\..\..\arduinoLCD\test\Pain Drain\libraries\lvgl\src\widgets\../core/lv_obj_style_gen.h ****     lv_style_value_t v = lv_obj_get_style_prop(obj, part, LV_STYLE_SHADOW_OPA);
 340:..\..\..\arduinoLCD\test\Pain Drain\libraries\lvgl\src\widgets\../core/lv_obj_style_gen.h ****     return (lv_opa_t)v.num;
 341:..\..\..\arduinoLCD\test\Pain Drain\libraries\lvgl\src\widgets\../core/lv_obj_style_gen.h **** }
 342:..\..\..\arduinoLCD\test\Pain Drain\libraries\lvgl\src\widgets\../core/lv_obj_style_gen.h **** 
 343:..\..\..\arduinoLCD\test\Pain Drain\libraries\lvgl\src\widgets\../core/lv_obj_style_gen.h **** static inline lv_opa_t lv_obj_get_style_img_opa(const struct _lv_obj_t * obj, uint32_t part)
 344:..\..\..\arduinoLCD\test\Pain Drain\libraries\lvgl\src\widgets\../core/lv_obj_style_gen.h **** {
 345:..\..\..\arduinoLCD\test\Pain Drain\libraries\lvgl\src\widgets\../core/lv_obj_style_gen.h ****     lv_style_value_t v = lv_obj_get_style_prop(obj, part, LV_STYLE_IMG_OPA);
 346:..\..\..\arduinoLCD\test\Pain Drain\libraries\lvgl\src\widgets\../core/lv_obj_style_gen.h ****     return (lv_opa_t)v.num;
 347:..\..\..\arduinoLCD\test\Pain Drain\libraries\lvgl\src\widgets\../core/lv_obj_style_gen.h **** }
 348:..\..\..\arduinoLCD\test\Pain Drain\libraries\lvgl\src\widgets\../core/lv_obj_style_gen.h **** 
 349:..\..\..\arduinoLCD\test\Pain Drain\libraries\lvgl\src\widgets\../core/lv_obj_style_gen.h **** static inline lv_color_t lv_obj_get_style_img_recolor(const struct _lv_obj_t * obj, uint32_t part)
 350:..\..\..\arduinoLCD\test\Pain Drain\libraries\lvgl\src\widgets\../core/lv_obj_style_gen.h **** {
 351:..\..\..\arduinoLCD\test\Pain Drain\libraries\lvgl\src\widgets\../core/lv_obj_style_gen.h ****     lv_style_value_t v = lv_obj_get_style_prop(obj, part, LV_STYLE_IMG_RECOLOR);
 352:..\..\..\arduinoLCD\test\Pain Drain\libraries\lvgl\src\widgets\../core/lv_obj_style_gen.h ****     return v.color;
 353:..\..\..\arduinoLCD\test\Pain Drain\libraries\lvgl\src\widgets\../core/lv_obj_style_gen.h **** }
 354:..\..\..\arduinoLCD\test\Pain Drain\libraries\lvgl\src\widgets\../core/lv_obj_style_gen.h **** 
 355:..\..\..\arduinoLCD\test\Pain Drain\libraries\lvgl\src\widgets\../core/lv_obj_style_gen.h **** static inline lv_color_t lv_obj_get_style_img_recolor_filtered(const struct _lv_obj_t * obj, uint32
 356:..\..\..\arduinoLCD\test\Pain Drain\libraries\lvgl\src\widgets\../core/lv_obj_style_gen.h **** {
ARM GAS  C:\Users\haske\AppData\Local\Temp\ccR7totD.s 			page 11


 357:..\..\..\arduinoLCD\test\Pain Drain\libraries\lvgl\src\widgets\../core/lv_obj_style_gen.h ****     lv_style_value_t v = _lv_obj_style_apply_color_filter(obj, part, lv_obj_get_style_prop(obj, par
 358:..\..\..\arduinoLCD\test\Pain Drain\libraries\lvgl\src\widgets\../core/lv_obj_style_gen.h ****     return v.color;
 359:..\..\..\arduinoLCD\test\Pain Drain\libraries\lvgl\src\widgets\../core/lv_obj_style_gen.h **** }
 360:..\..\..\arduinoLCD\test\Pain Drain\libraries\lvgl\src\widgets\../core/lv_obj_style_gen.h **** 
 361:..\..\..\arduinoLCD\test\Pain Drain\libraries\lvgl\src\widgets\../core/lv_obj_style_gen.h **** static inline lv_opa_t lv_obj_get_style_img_recolor_opa(const struct _lv_obj_t * obj, uint32_t part
 362:..\..\..\arduinoLCD\test\Pain Drain\libraries\lvgl\src\widgets\../core/lv_obj_style_gen.h **** {
 363:..\..\..\arduinoLCD\test\Pain Drain\libraries\lvgl\src\widgets\../core/lv_obj_style_gen.h ****     lv_style_value_t v = lv_obj_get_style_prop(obj, part, LV_STYLE_IMG_RECOLOR_OPA);
 364:..\..\..\arduinoLCD\test\Pain Drain\libraries\lvgl\src\widgets\../core/lv_obj_style_gen.h ****     return (lv_opa_t)v.num;
 365:..\..\..\arduinoLCD\test\Pain Drain\libraries\lvgl\src\widgets\../core/lv_obj_style_gen.h **** }
 366:..\..\..\arduinoLCD\test\Pain Drain\libraries\lvgl\src\widgets\../core/lv_obj_style_gen.h **** 
 367:..\..\..\arduinoLCD\test\Pain Drain\libraries\lvgl\src\widgets\../core/lv_obj_style_gen.h **** static inline lv_coord_t lv_obj_get_style_line_width(const struct _lv_obj_t * obj, uint32_t part)
 368:..\..\..\arduinoLCD\test\Pain Drain\libraries\lvgl\src\widgets\../core/lv_obj_style_gen.h **** {
 369:..\..\..\arduinoLCD\test\Pain Drain\libraries\lvgl\src\widgets\../core/lv_obj_style_gen.h ****     lv_style_value_t v = lv_obj_get_style_prop(obj, part, LV_STYLE_LINE_WIDTH);
  78              		.loc 2 369 0
  79 002a 4922     		movs	r2, #73
  80 002c 0021     		movs	r1, #0
  81 002e FFF7FEFF 		bl	lv_obj_get_style_prop
  82              	.LVL10:
 370:..\..\..\arduinoLCD\test\Pain Drain\libraries\lvgl\src\widgets\../core/lv_obj_style_gen.h ****     return (lv_coord_t)v.num;
  83              		.loc 2 370 0
  84 0032 05B2     		sxth	r5, r0
  85              	.LVL11:
  86              	.LBE12:
  87              	.LBE11:
 138:..\..\..\arduinoLCD\test\Pain Drain\libraries\lvgl\src\widgets/lv_line.c ****         /*The corner of the skew lines is out of the intended area*/
 139:..\..\..\arduinoLCD\test\Pain Drain\libraries\lvgl\src\widgets/lv_line.c ****         lv_coord_t line_width = lv_obj_get_style_line_width(obj, LV_PART_MAIN);
 140:..\..\..\arduinoLCD\test\Pain Drain\libraries\lvgl\src\widgets/lv_line.c ****         lv_coord_t * s = lv_event_get_param(e);
  88              		.loc 1 140 0
  89 0034 2000     		movs	r0, r4
  90 0036 FFF7FEFF 		bl	lv_event_get_param
  91              	.LVL12:
 141:..\..\..\arduinoLCD\test\Pain Drain\libraries\lvgl\src\widgets/lv_line.c ****         if(*s < line_width) *s = line_width;
  92              		.loc 1 141 0
  93 003a 0022     		movs	r2, #0
  94 003c 835E     		ldrsh	r3, [r0, r2]
  95 003e AB42     		cmp	r3, r5
  96 0040 00DB     		blt	.LCB68
  97 0042 A0E0     		b	.L1	@long jump
  98              	.LCB68:
  99              		.loc 1 141 0 is_stmt 0 discriminator 1
 100 0044 0580     		strh	r5, [r0]
 101 0046 9EE0     		b	.L1
 102              	.LVL13:
 103              	.L3:
 104              	.LBE10:
 142:..\..\..\arduinoLCD\test\Pain Drain\libraries\lvgl\src\widgets/lv_line.c ****     }
 143:..\..\..\arduinoLCD\test\Pain Drain\libraries\lvgl\src\widgets/lv_line.c ****     else if(code == LV_EVENT_GET_SELF_SIZE) {
 105              		.loc 1 143 0 is_stmt 1
 106 0048 2C2E     		cmp	r6, #44
 107 004a 31D1     		bne	.L4
 108              	.LVL14:
 109              	.LBB13:
 144:..\..\..\arduinoLCD\test\Pain Drain\libraries\lvgl\src\widgets/lv_line.c ****         lv_line_t * line = (lv_line_t *)obj;
 145:..\..\..\arduinoLCD\test\Pain Drain\libraries\lvgl\src\widgets/lv_line.c **** 
 146:..\..\..\arduinoLCD\test\Pain Drain\libraries\lvgl\src\widgets/lv_line.c ****         if(line->point_num == 0 || line->point_array == NULL) return;
 110              		.loc 1 146 0
 111 004c 038D     		ldrh	r3, [r0, #40]
ARM GAS  C:\Users\haske\AppData\Local\Temp\ccR7totD.s 			page 12


 112 004e 002B     		cmp	r3, #0
 113 0050 00D1     		bne	.LCB83
 114 0052 98E0     		b	.L1	@long jump
 115              	.LCB83:
 116              		.loc 1 146 0 is_stmt 0 discriminator 1
 117 0054 436A     		ldr	r3, [r0, #36]
 118 0056 002B     		cmp	r3, #0
 119 0058 00D1     		bne	.LCB87
 120 005a 94E0     		b	.L1	@long jump
 121              	.LCB87:
 147:..\..\..\arduinoLCD\test\Pain Drain\libraries\lvgl\src\widgets/lv_line.c **** 
 148:..\..\..\arduinoLCD\test\Pain Drain\libraries\lvgl\src\widgets/lv_line.c ****         lv_point_t * p = lv_event_get_param(e);
 122              		.loc 1 148 0 is_stmt 1
 123 005c 2000     		movs	r0, r4
 124              	.LVL15:
 125 005e FFF7FEFF 		bl	lv_event_get_param
 126              	.LVL16:
 127 0062 0600     		movs	r6, r0
 128              	.LVL17:
 149:..\..\..\arduinoLCD\test\Pain Drain\libraries\lvgl\src\widgets/lv_line.c ****         lv_coord_t w = 0;
 150:..\..\..\arduinoLCD\test\Pain Drain\libraries\lvgl\src\widgets/lv_line.c ****         lv_coord_t h = 0;
 151:..\..\..\arduinoLCD\test\Pain Drain\libraries\lvgl\src\widgets/lv_line.c **** 
 152:..\..\..\arduinoLCD\test\Pain Drain\libraries\lvgl\src\widgets/lv_line.c ****         uint16_t i;
 153:..\..\..\arduinoLCD\test\Pain Drain\libraries\lvgl\src\widgets/lv_line.c ****         for(i = 0; i < line->point_num; i++) {
 129              		.loc 1 153 0
 130 0064 0023     		movs	r3, #0
 150:..\..\..\arduinoLCD\test\Pain Drain\libraries\lvgl\src\widgets/lv_line.c **** 
 131              		.loc 1 150 0
 132 0066 0024     		movs	r4, #0
 133              	.LVL18:
 149:..\..\..\arduinoLCD\test\Pain Drain\libraries\lvgl\src\widgets/lv_line.c ****         lv_coord_t w = 0;
 134              		.loc 1 149 0
 135 0068 0027     		movs	r7, #0
 136              		.loc 1 153 0
 137 006a 13E0     		b	.L5
 138              	.LVL19:
 139              	.L8:
 154:..\..\..\arduinoLCD\test\Pain Drain\libraries\lvgl\src\widgets/lv_line.c ****             w = LV_MAX(line->point_array[i].x, w);
 140              		.loc 1 154 0 discriminator 3
 141 006c 9A00     		lsls	r2, r3, #2
 142 006e 696A     		ldr	r1, [r5, #36]
 143 0070 8C46     		mov	ip, r1
 144 0072 6244     		add	r2, r2, ip
 145 0074 0021     		movs	r1, #0
 146 0076 505E     		ldrsh	r0, [r2, r1]
 147 0078 391C     		adds	r1, r7, #0
 148 007a 8742     		cmp	r7, r0
 149 007c 00DA     		bge	.L6
 150              	.LVL20:
 151 007e 011C     		adds	r1, r0, #0
 152              	.LVL21:
 153              	.L6:
 154 0080 0FB2     		sxth	r7, r1
 155              	.LVL22:
 155:..\..\..\arduinoLCD\test\Pain Drain\libraries\lvgl\src\widgets/lv_line.c ****             h = LV_MAX(line->point_array[i].y, h);
 156              		.loc 1 155 0 discriminator 3
 157 0082 0221     		movs	r1, #2
ARM GAS  C:\Users\haske\AppData\Local\Temp\ccR7totD.s 			page 13


 158 0084 515E     		ldrsh	r1, [r2, r1]
 159              	.LVL23:
 160 0086 221C     		adds	r2, r4, #0
 161 0088 8C42     		cmp	r4, r1
 162 008a 00DA     		bge	.L7
 163              	.LVL24:
 164 008c 0A1C     		adds	r2, r1, #0
 165              	.LVL25:
 166              	.L7:
 167 008e 14B2     		sxth	r4, r2
 168              	.LVL26:
 153:..\..\..\arduinoLCD\test\Pain Drain\libraries\lvgl\src\widgets/lv_line.c ****             w = LV_MAX(line->point_array[i].x, w);
 169              		.loc 1 153 0 discriminator 3
 170 0090 0133     		adds	r3, r3, #1
 171              	.LVL27:
 172 0092 9BB2     		uxth	r3, r3
 173              	.LVL28:
 174              	.L5:
 153:..\..\..\arduinoLCD\test\Pain Drain\libraries\lvgl\src\widgets/lv_line.c ****             w = LV_MAX(line->point_array[i].x, w);
 175              		.loc 1 153 0 is_stmt 0 discriminator 1
 176 0094 2A8D     		ldrh	r2, [r5, #40]
 177 0096 9342     		cmp	r3, r2
 178 0098 E8D3     		bcc	.L8
 179              	.LVL29:
 180              	.LBB14:
 181              	.LBB15:
 369:..\..\..\arduinoLCD\test\Pain Drain\libraries\lvgl\src\widgets\../core/lv_obj_style_gen.h ****     return (lv_coord_t)v.num;
 182              		.loc 2 369 0 is_stmt 1
 183 009a 4922     		movs	r2, #73
 184 009c 0021     		movs	r1, #0
 185 009e 2800     		movs	r0, r5
 186 00a0 FFF7FEFF 		bl	lv_obj_get_style_prop
 187              	.LVL30:
 188              	.LBE15:
 189              	.LBE14:
 156:..\..\..\arduinoLCD\test\Pain Drain\libraries\lvgl\src\widgets/lv_line.c ****         }
 157:..\..\..\arduinoLCD\test\Pain Drain\libraries\lvgl\src\widgets/lv_line.c **** 
 158:..\..\..\arduinoLCD\test\Pain Drain\libraries\lvgl\src\widgets/lv_line.c ****         lv_coord_t line_width = lv_obj_get_style_line_width(obj, LV_PART_MAIN);
 159:..\..\..\arduinoLCD\test\Pain Drain\libraries\lvgl\src\widgets/lv_line.c ****         w += line_width;
 190              		.loc 1 159 0
 191 00a4 80B2     		uxth	r0, r0
 192 00a6 C719     		adds	r7, r0, r7
 193              	.LVL31:
 160:..\..\..\arduinoLCD\test\Pain Drain\libraries\lvgl\src\widgets/lv_line.c ****         h += line_width;
 194              		.loc 1 160 0
 195 00a8 0419     		adds	r4, r0, r4
 196              	.LVL32:
 161:..\..\..\arduinoLCD\test\Pain Drain\libraries\lvgl\src\widgets/lv_line.c ****         p->x = w;
 197              		.loc 1 161 0
 198 00aa 3780     		strh	r7, [r6]
 162:..\..\..\arduinoLCD\test\Pain Drain\libraries\lvgl\src\widgets/lv_line.c ****         p->y = h;
 199              		.loc 1 162 0
 200 00ac 7480     		strh	r4, [r6, #2]
 201              	.LBE13:
 202 00ae 6AE0     		b	.L1
 203              	.LVL33:
 204              	.L4:
ARM GAS  C:\Users\haske\AppData\Local\Temp\ccR7totD.s 			page 14


 163:..\..\..\arduinoLCD\test\Pain Drain\libraries\lvgl\src\widgets/lv_line.c ****     }
 164:..\..\..\arduinoLCD\test\Pain Drain\libraries\lvgl\src\widgets/lv_line.c ****     else if(code == LV_EVENT_DRAW_MAIN) {
 205              		.loc 1 164 0
 206 00b0 152E     		cmp	r6, #21
 207 00b2 68D1     		bne	.L1
 208              	.LVL34:
 209              	.LBB16:
 165:..\..\..\arduinoLCD\test\Pain Drain\libraries\lvgl\src\widgets/lv_line.c ****         lv_line_t * line = (lv_line_t *)obj;
 166:..\..\..\arduinoLCD\test\Pain Drain\libraries\lvgl\src\widgets/lv_line.c ****         lv_draw_ctx_t * draw_ctx = lv_event_get_draw_ctx(e);
 210              		.loc 1 166 0
 211 00b4 2000     		movs	r0, r4
 212              	.LVL35:
 213 00b6 FFF7FEFF 		bl	lv_event_get_draw_ctx
 214              	.LVL36:
 215 00ba 0090     		str	r0, [sp]
 216              	.LVL37:
 167:..\..\..\arduinoLCD\test\Pain Drain\libraries\lvgl\src\widgets/lv_line.c **** 
 168:..\..\..\arduinoLCD\test\Pain Drain\libraries\lvgl\src\widgets/lv_line.c ****         if(line->point_num == 0 || line->point_array == NULL) return;
 217              		.loc 1 168 0
 218 00bc 2B8D     		ldrh	r3, [r5, #40]
 219 00be 002B     		cmp	r3, #0
 220 00c0 61D0     		beq	.L1
 221              		.loc 1 168 0 is_stmt 0 discriminator 1
 222 00c2 6B6A     		ldr	r3, [r5, #36]
 223 00c4 002B     		cmp	r3, #0
 224 00c6 5ED0     		beq	.L1
 169:..\..\..\arduinoLCD\test\Pain Drain\libraries\lvgl\src\widgets/lv_line.c **** 
 170:..\..\..\arduinoLCD\test\Pain Drain\libraries\lvgl\src\widgets/lv_line.c ****         lv_area_t area;
 171:..\..\..\arduinoLCD\test\Pain Drain\libraries\lvgl\src\widgets/lv_line.c ****         lv_obj_get_coords(obj, &area);
 225              		.loc 1 171 0 is_stmt 1
 226 00c8 05AC     		add	r4, sp, #20
 227              	.LVL38:
 228 00ca 2100     		movs	r1, r4
 229 00cc 2800     		movs	r0, r5
 230              	.LVL39:
 231 00ce FFF7FEFF 		bl	lv_obj_get_coords
 232              	.LVL40:
 172:..\..\..\arduinoLCD\test\Pain Drain\libraries\lvgl\src\widgets/lv_line.c ****         lv_coord_t x_ofs = area.x1 - lv_obj_get_scroll_x(obj);
 233              		.loc 1 172 0
 234 00d2 0023     		movs	r3, #0
 235 00d4 E75E     		ldrsh	r7, [r4, r3]
 236 00d6 2800     		movs	r0, r5
 237 00d8 FFF7FEFF 		bl	lv_obj_get_scroll_x
 238              	.LVL41:
 239 00dc 3F1A     		subs	r7, r7, r0
 240 00de BBB2     		uxth	r3, r7
 241 00e0 9A46     		mov	r10, r3
 242              	.LVL42:
 173:..\..\..\arduinoLCD\test\Pain Drain\libraries\lvgl\src\widgets/lv_line.c ****         lv_coord_t y_ofs = area.y1 - lv_obj_get_scroll_y(obj);
 243              		.loc 1 173 0
 244 00e2 0223     		movs	r3, #2
 245 00e4 E45E     		ldrsh	r4, [r4, r3]
 246 00e6 2800     		movs	r0, r5
 247 00e8 FFF7FEFF 		bl	lv_obj_get_scroll_y
 248              	.LVL43:
 249 00ec 241A     		subs	r4, r4, r0
 250 00ee A6B2     		uxth	r6, r4
ARM GAS  C:\Users\haske\AppData\Local\Temp\ccR7totD.s 			page 15


 251              	.LVL44:
 174:..\..\..\arduinoLCD\test\Pain Drain\libraries\lvgl\src\widgets/lv_line.c ****         lv_coord_t h = lv_obj_get_height(obj);
 252              		.loc 1 174 0
 253 00f0 2800     		movs	r0, r5
 254 00f2 FFF7FEFF 		bl	lv_obj_get_height
 255              	.LVL45:
 256 00f6 0190     		str	r0, [sp, #4]
 257              	.LVL46:
 175:..\..\..\arduinoLCD\test\Pain Drain\libraries\lvgl\src\widgets/lv_line.c **** 
 176:..\..\..\arduinoLCD\test\Pain Drain\libraries\lvgl\src\widgets/lv_line.c ****         lv_draw_line_dsc_t line_dsc;
 177:..\..\..\arduinoLCD\test\Pain Drain\libraries\lvgl\src\widgets/lv_line.c ****         lv_draw_line_dsc_init(&line_dsc);
 258              		.loc 1 177 0
 259 00f8 07A8     		add	r0, sp, #28
 260              	.LVL47:
 261 00fa FFF7FEFF 		bl	lv_draw_line_dsc_init
 262              	.LVL48:
 178:..\..\..\arduinoLCD\test\Pain Drain\libraries\lvgl\src\widgets/lv_line.c ****         lv_obj_init_draw_line_dsc(obj, LV_PART_MAIN, &line_dsc);
 263              		.loc 1 178 0
 264 00fe 07AA     		add	r2, sp, #28
 265 0100 0021     		movs	r1, #0
 266 0102 2800     		movs	r0, r5
 267 0104 FFF7FEFF 		bl	lv_obj_init_draw_line_dsc
 268              	.LVL49:
 179:..\..\..\arduinoLCD\test\Pain Drain\libraries\lvgl\src\widgets/lv_line.c **** 
 180:..\..\..\arduinoLCD\test\Pain Drain\libraries\lvgl\src\widgets/lv_line.c ****         /*Read all points and draw the lines*/
 181:..\..\..\arduinoLCD\test\Pain Drain\libraries\lvgl\src\widgets/lv_line.c ****         uint16_t i;
 182:..\..\..\arduinoLCD\test\Pain Drain\libraries\lvgl\src\widgets/lv_line.c ****         for(i = 0; i < line->point_num - 1; i++) {
 269              		.loc 1 182 0
 270 0108 0027     		movs	r7, #0
 271 010a 38E0     		b	.L10
 272              	.LVL50:
 273              	.L13:
 274              	.LBB17:
 183:..\..\..\arduinoLCD\test\Pain Drain\libraries\lvgl\src\widgets/lv_line.c ****             lv_point_t p1;
 184:..\..\..\arduinoLCD\test\Pain Drain\libraries\lvgl\src\widgets/lv_line.c ****             lv_point_t p2;
 185:..\..\..\arduinoLCD\test\Pain Drain\libraries\lvgl\src\widgets/lv_line.c ****             p1.x = line->point_array[i].x + x_ofs;
 275              		.loc 1 185 0
 276 010c 6A6A     		ldr	r2, [r5, #36]
 277 010e B900     		lsls	r1, r7, #2
 278 0110 5118     		adds	r1, r2, r1
 279 0112 0020     		movs	r0, #0
 280 0114 0B5E     		ldrsh	r3, [r1, r0]
 281 0116 5344     		add	r3, r3, r10
 282 0118 03A8     		add	r0, sp, #12
 283 011a 0380     		strh	r3, [r0]
 186:..\..\..\arduinoLCD\test\Pain Drain\libraries\lvgl\src\widgets/lv_line.c ****             p2.x = line->point_array[i + 1].x + x_ofs;
 284              		.loc 1 186 0
 285 011c 7B1C     		adds	r3, r7, #1
 286 011e 9B00     		lsls	r3, r3, #2
 287 0120 D318     		adds	r3, r2, r3
 288 0122 0020     		movs	r0, #0
 289 0124 1A5E     		ldrsh	r2, [r3, r0]
 290 0126 5244     		add	r2, r2, r10
 291 0128 04A8     		add	r0, sp, #16
 292 012a 0280     		strh	r2, [r0]
 187:..\..\..\arduinoLCD\test\Pain Drain\libraries\lvgl\src\widgets/lv_line.c **** 
 188:..\..\..\arduinoLCD\test\Pain Drain\libraries\lvgl\src\widgets/lv_line.c ****             if(line->y_inv == 0) {
ARM GAS  C:\Users\haske\AppData\Local\Temp\ccR7totD.s 			page 16


 293              		.loc 1 188 0
 294 012c 2A22     		movs	r2, #42
 295 012e AA5C     		ldrb	r2, [r5, r2]
 296 0130 D207     		lsls	r2, r2, #31
 297 0132 09D4     		bmi	.L11
 189:..\..\..\arduinoLCD\test\Pain Drain\libraries\lvgl\src\widgets/lv_line.c ****                 p1.y = line->point_array[i].y + y_ofs;
 298              		.loc 1 189 0
 299 0134 0222     		movs	r2, #2
 300 0136 8A5E     		ldrsh	r2, [r1, r2]
 301 0138 B218     		adds	r2, r6, r2
 302 013a 03A9     		add	r1, sp, #12
 303 013c 4A80     		strh	r2, [r1, #2]
 190:..\..\..\arduinoLCD\test\Pain Drain\libraries\lvgl\src\widgets/lv_line.c ****                 p2.y = line->point_array[i + 1].y + y_ofs;
 304              		.loc 1 190 0
 305 013e 0222     		movs	r2, #2
 306 0140 9B5E     		ldrsh	r3, [r3, r2]
 307 0142 F318     		adds	r3, r6, r3
 308 0144 4380     		strh	r3, [r0, #2]
 309 0146 0DE0     		b	.L12
 310              	.L11:
 191:..\..\..\arduinoLCD\test\Pain Drain\libraries\lvgl\src\widgets/lv_line.c ****             }
 192:..\..\..\arduinoLCD\test\Pain Drain\libraries\lvgl\src\widgets/lv_line.c ****             else {
 193:..\..\..\arduinoLCD\test\Pain Drain\libraries\lvgl\src\widgets/lv_line.c ****                 p1.y = h - line->point_array[i].y + y_ofs;
 311              		.loc 1 193 0
 312 0148 6A46     		mov	r2, sp
 313 014a 9288     		ldrh	r2, [r2, #4]
 314 014c 0220     		movs	r0, #2
 315 014e 095E     		ldrsh	r1, [r1, r0]
 316 0150 511A     		subs	r1, r2, r1
 317 0152 7118     		adds	r1, r6, r1
 318 0154 03A8     		add	r0, sp, #12
 319 0156 4180     		strh	r1, [r0, #2]
 194:..\..\..\arduinoLCD\test\Pain Drain\libraries\lvgl\src\widgets/lv_line.c ****                 p2.y = h - line->point_array[i + 1].y + y_ofs;
 320              		.loc 1 194 0
 321 0158 0221     		movs	r1, #2
 322 015a 5B5E     		ldrsh	r3, [r3, r1]
 323 015c D21A     		subs	r2, r2, r3
 324 015e B218     		adds	r2, r6, r2
 325 0160 04AB     		add	r3, sp, #16
 326 0162 5A80     		strh	r2, [r3, #2]
 327              	.L12:
 195:..\..\..\arduinoLCD\test\Pain Drain\libraries\lvgl\src\widgets/lv_line.c ****             }
 196:..\..\..\arduinoLCD\test\Pain Drain\libraries\lvgl\src\widgets/lv_line.c ****             lv_draw_line(draw_ctx, &line_dsc, &p1, &p2);
 328              		.loc 1 196 0 discriminator 2
 329 0164 07AC     		add	r4, sp, #28
 330 0166 04AB     		add	r3, sp, #16
 331 0168 03AA     		add	r2, sp, #12
 332 016a 2100     		movs	r1, r4
 333 016c 0098     		ldr	r0, [sp]
 334 016e FFF7FEFF 		bl	lv_draw_line
 335              	.LVL51:
 197:..\..\..\arduinoLCD\test\Pain Drain\libraries\lvgl\src\widgets/lv_line.c ****             line_dsc.round_start = 0;   /*Draw the rounding only on the end points after the first 
 336              		.loc 1 197 0 discriminator 2
 337 0172 637A     		ldrb	r3, [r4, #9]
 338 0174 0422     		movs	r2, #4
 339 0176 9343     		bics	r3, r2
 340 0178 6372     		strb	r3, [r4, #9]
ARM GAS  C:\Users\haske\AppData\Local\Temp\ccR7totD.s 			page 17


 341              	.LBE17:
 182:..\..\..\arduinoLCD\test\Pain Drain\libraries\lvgl\src\widgets/lv_line.c ****             lv_point_t p1;
 342              		.loc 1 182 0 discriminator 2
 343 017a 7B1C     		adds	r3, r7, #1
 344 017c 9FB2     		uxth	r7, r3
 345              	.LVL52:
 346              	.L10:
 182:..\..\..\arduinoLCD\test\Pain Drain\libraries\lvgl\src\widgets/lv_line.c ****             lv_point_t p1;
 347              		.loc 1 182 0 is_stmt 0 discriminator 1
 348 017e 2B8D     		ldrh	r3, [r5, #40]
 349 0180 013B     		subs	r3, r3, #1
 350 0182 9F42     		cmp	r7, r3
 351 0184 C2DB     		blt	.L13
 352              	.LVL53:
 353              	.L1:
 354              	.LBE16:
 198:..\..\..\arduinoLCD\test\Pain Drain\libraries\lvgl\src\widgets/lv_line.c ****         }
 199:..\..\..\arduinoLCD\test\Pain Drain\libraries\lvgl\src\widgets/lv_line.c ****     }
 200:..\..\..\arduinoLCD\test\Pain Drain\libraries\lvgl\src\widgets/lv_line.c **** }
 355              		.loc 1 200 0 is_stmt 1
 356 0186 0AB0     		add	sp, sp, #40
 357              		@ sp needed
 358 0188 04BC     		pop	{r2}
 359 018a 9246     		mov	r10, r2
 360 018c F0BD     		pop	{r4, r5, r6, r7, pc}
 361              	.L15:
 362 018e C046     		.align	2
 363              	.L14:
 364 0190 00000000 		.word	.LANCHOR0
 365              		.cfi_endproc
 366              	.LFE164:
 367              		.size	lv_line_event, .-lv_line_event
 368              		.section	.text.lv_line_constructor,"ax",%progbits
 369              		.align	2
 370              		.code	16
 371              		.thumb_func
 372              		.type	lv_line_constructor, %function
 373              	lv_line_constructor:
 374              	.LFB163:
 109:..\..\..\arduinoLCD\test\Pain Drain\libraries\lvgl\src\widgets/lv_line.c ****     LV_UNUSED(class_p);
 375              		.loc 1 109 0
 376              		.cfi_startproc
 377              		@ args = 0, pretend = 0, frame = 0
 378              		@ frame_needed = 0, uses_anonymous_args = 0
 379              	.LVL54:
 380 0000 10B5     		push	{r4, lr}
 381              		.cfi_def_cfa_offset 8
 382              		.cfi_offset 4, -8
 383              		.cfi_offset 14, -4
 384 0002 0800     		movs	r0, r1
 385              	.LVL55:
 115:..\..\..\arduinoLCD\test\Pain Drain\libraries\lvgl\src\widgets/lv_line.c ****     line->point_array = NULL;
 386              		.loc 1 115 0
 387 0004 0023     		movs	r3, #0
 388 0006 0B85     		strh	r3, [r1, #40]
 116:..\..\..\arduinoLCD\test\Pain Drain\libraries\lvgl\src\widgets/lv_line.c ****     line->y_inv       = 0;
 389              		.loc 1 116 0
ARM GAS  C:\Users\haske\AppData\Local\Temp\ccR7totD.s 			page 18


 390 0008 4B62     		str	r3, [r1, #36]
 117:..\..\..\arduinoLCD\test\Pain Drain\libraries\lvgl\src\widgets/lv_line.c **** 
 391              		.loc 1 117 0
 392 000a 2A22     		movs	r2, #42
 393 000c 8B5C     		ldrb	r3, [r1, r2]
 394 000e 0121     		movs	r1, #1
 395              	.LVL56:
 396 0010 8B43     		bics	r3, r1
 397 0012 8354     		strb	r3, [r0, r2]
 119:..\..\..\arduinoLCD\test\Pain Drain\libraries\lvgl\src\widgets/lv_line.c **** 
 398              		.loc 1 119 0
 399 0014 0131     		adds	r1, r1, #1
 400 0016 FFF7FEFF 		bl	lv_obj_clear_flag
 401              	.LVL57:
 122:..\..\..\arduinoLCD\test\Pain Drain\libraries\lvgl\src\widgets/lv_line.c **** 
 402              		.loc 1 122 0
 403              		@ sp needed
 404 001a 10BD     		pop	{r4, pc}
 405              		.cfi_endproc
 406              	.LFE163:
 407              		.size	lv_line_constructor, .-lv_line_constructor
 408              		.section	.text.lv_line_create,"ax",%progbits
 409              		.align	2
 410              		.global	lv_line_create
 411              		.code	16
 412              		.thumb_func
 413              		.type	lv_line_create, %function
 414              	lv_line_create:
 415              	.LFB159:
  55:..\..\..\arduinoLCD\test\Pain Drain\libraries\lvgl\src\widgets/lv_line.c ****     LV_LOG_INFO("begin");
 416              		.loc 1 55 0
 417              		.cfi_startproc
 418              		@ args = 0, pretend = 0, frame = 0
 419              		@ frame_needed = 0, uses_anonymous_args = 0
 420              	.LVL58:
 421 0000 10B5     		push	{r4, lr}
 422              		.cfi_def_cfa_offset 8
 423              		.cfi_offset 4, -8
 424              		.cfi_offset 14, -4
 425 0002 0100     		movs	r1, r0
  57:..\..\..\arduinoLCD\test\Pain Drain\libraries\lvgl\src\widgets/lv_line.c ****     lv_obj_class_init_obj(obj);
 426              		.loc 1 57 0
 427 0004 0348     		ldr	r0, .L18
 428              	.LVL59:
 429 0006 FFF7FEFF 		bl	lv_obj_class_create_obj
 430              	.LVL60:
 431 000a 0400     		movs	r4, r0
 432              	.LVL61:
  58:..\..\..\arduinoLCD\test\Pain Drain\libraries\lvgl\src\widgets/lv_line.c ****     return obj;
 433              		.loc 1 58 0
 434 000c FFF7FEFF 		bl	lv_obj_class_init_obj
 435              	.LVL62:
  60:..\..\..\arduinoLCD\test\Pain Drain\libraries\lvgl\src\widgets/lv_line.c **** 
 436              		.loc 1 60 0
 437 0010 2000     		movs	r0, r4
 438              		@ sp needed
 439              	.LVL63:
ARM GAS  C:\Users\haske\AppData\Local\Temp\ccR7totD.s 			page 19


 440 0012 10BD     		pop	{r4, pc}
 441              	.L19:
 442              		.align	2
 443              	.L18:
 444 0014 00000000 		.word	.LANCHOR0
 445              		.cfi_endproc
 446              	.LFE159:
 447              		.size	lv_line_create, .-lv_line_create
 448              		.section	.text.lv_line_set_points,"ax",%progbits
 449              		.align	2
 450              		.global	lv_line_set_points
 451              		.code	16
 452              		.thumb_func
 453              		.type	lv_line_set_points, %function
 454              	lv_line_set_points:
 455              	.LFB160:
  67:..\..\..\arduinoLCD\test\Pain Drain\libraries\lvgl\src\widgets/lv_line.c ****     LV_ASSERT_OBJ(obj, MY_CLASS);
 456              		.loc 1 67 0
 457              		.cfi_startproc
 458              		@ args = 0, pretend = 0, frame = 0
 459              		@ frame_needed = 0, uses_anonymous_args = 0
 460              	.LVL64:
 461 0000 10B5     		push	{r4, lr}
 462              		.cfi_def_cfa_offset 8
 463              		.cfi_offset 4, -8
 464              		.cfi_offset 14, -4
 465 0002 0400     		movs	r4, r0
 466              	.LVL65:
  71:..\..\..\arduinoLCD\test\Pain Drain\libraries\lvgl\src\widgets/lv_line.c ****     line->point_num      = point_num;
 467              		.loc 1 71 0
 468 0004 4162     		str	r1, [r0, #36]
  72:..\..\..\arduinoLCD\test\Pain Drain\libraries\lvgl\src\widgets/lv_line.c **** 
 469              		.loc 1 72 0
 470 0006 0285     		strh	r2, [r0, #40]
  74:..\..\..\arduinoLCD\test\Pain Drain\libraries\lvgl\src\widgets/lv_line.c **** 
 471              		.loc 1 74 0
 472 0008 FFF7FEFF 		bl	lv_obj_refresh_self_size
 473              	.LVL66:
  76:..\..\..\arduinoLCD\test\Pain Drain\libraries\lvgl\src\widgets/lv_line.c **** }
 474              		.loc 1 76 0
 475 000c 2000     		movs	r0, r4
 476 000e FFF7FEFF 		bl	lv_obj_invalidate
 477              	.LVL67:
  77:..\..\..\arduinoLCD\test\Pain Drain\libraries\lvgl\src\widgets/lv_line.c **** 
 478              		.loc 1 77 0
 479              		@ sp needed
 480              	.LVL68:
 481 0012 10BD     		pop	{r4, pc}
 482              		.cfi_endproc
 483              	.LFE160:
 484              		.size	lv_line_set_points, .-lv_line_set_points
 485              		.section	.text.lv_line_set_y_invert,"ax",%progbits
 486              		.align	2
 487              		.global	lv_line_set_y_invert
 488              		.code	16
 489              		.thumb_func
 490              		.type	lv_line_set_y_invert, %function
ARM GAS  C:\Users\haske\AppData\Local\Temp\ccR7totD.s 			page 20


 491              	lv_line_set_y_invert:
 492              	.LFB161:
  80:..\..\..\arduinoLCD\test\Pain Drain\libraries\lvgl\src\widgets/lv_line.c ****     LV_ASSERT_OBJ(obj, MY_CLASS);
 493              		.loc 1 80 0
 494              		.cfi_startproc
 495              		@ args = 0, pretend = 0, frame = 0
 496              		@ frame_needed = 0, uses_anonymous_args = 0
 497              	.LVL69:
 498 0000 10B5     		push	{r4, lr}
 499              		.cfi_def_cfa_offset 8
 500              		.cfi_offset 4, -8
 501              		.cfi_offset 14, -4
 502              	.LVL70:
  84:..\..\..\arduinoLCD\test\Pain Drain\libraries\lvgl\src\widgets/lv_line.c **** 
 503              		.loc 1 84 0
 504 0002 2A23     		movs	r3, #42
 505 0004 C35C     		ldrb	r3, [r0, r3]
 506 0006 DB07     		lsls	r3, r3, #31
 507 0008 DB0F     		lsrs	r3, r3, #31
 508 000a DBB2     		uxtb	r3, r3
 509 000c 8B42     		cmp	r3, r1
 510 000e 0CD0     		beq	.L21
  86:..\..\..\arduinoLCD\test\Pain Drain\libraries\lvgl\src\widgets/lv_line.c **** 
 511              		.loc 1 86 0
 512 0010 0029     		cmp	r1, #0
 513 0012 01D0     		beq	.L24
 514 0014 0122     		movs	r2, #1
 515 0016 00E0     		b	.L23
 516              	.L24:
 517 0018 0022     		movs	r2, #0
 518              	.L23:
  86:..\..\..\arduinoLCD\test\Pain Drain\libraries\lvgl\src\widgets/lv_line.c **** 
 519              		.loc 1 86 0 is_stmt 0 discriminator 4
 520 001a 2A21     		movs	r1, #42
 521              	.LVL71:
 522 001c 435C     		ldrb	r3, [r0, r1]
 523 001e 0124     		movs	r4, #1
 524 0020 A343     		bics	r3, r4
 525 0022 1343     		orrs	r3, r2
 526 0024 4354     		strb	r3, [r0, r1]
  88:..\..\..\arduinoLCD\test\Pain Drain\libraries\lvgl\src\widgets/lv_line.c **** }
 527              		.loc 1 88 0 is_stmt 1 discriminator 4
 528 0026 FFF7FEFF 		bl	lv_obj_invalidate
 529              	.LVL72:
 530              	.L21:
  89:..\..\..\arduinoLCD\test\Pain Drain\libraries\lvgl\src\widgets/lv_line.c **** 
 531              		.loc 1 89 0
 532              		@ sp needed
 533 002a 10BD     		pop	{r4, pc}
 534              		.cfi_endproc
 535              	.LFE161:
 536              		.size	lv_line_set_y_invert, .-lv_line_set_y_invert
 537              		.section	.text.lv_line_get_y_invert,"ax",%progbits
 538              		.align	2
 539              		.global	lv_line_get_y_invert
 540              		.code	16
 541              		.thumb_func
ARM GAS  C:\Users\haske\AppData\Local\Temp\ccR7totD.s 			page 21


 542              		.type	lv_line_get_y_invert, %function
 543              	lv_line_get_y_invert:
 544              	.LFB162:
  96:..\..\..\arduinoLCD\test\Pain Drain\libraries\lvgl\src\widgets/lv_line.c ****     LV_ASSERT_OBJ(obj, MY_CLASS);
 545              		.loc 1 96 0
 546              		.cfi_startproc
 547              		@ args = 0, pretend = 0, frame = 0
 548              		@ frame_needed = 0, uses_anonymous_args = 0
 549              		@ link register save eliminated.
 550              	.LVL73:
 101:..\..\..\arduinoLCD\test\Pain Drain\libraries\lvgl\src\widgets/lv_line.c **** }
 551              		.loc 1 101 0
 552 0000 2A23     		movs	r3, #42
 553 0002 C35C     		ldrb	r3, [r0, r3]
 554 0004 0120     		movs	r0, #1
 555              	.LVL74:
 556 0006 1840     		ands	r0, r3
 102:..\..\..\arduinoLCD\test\Pain Drain\libraries\lvgl\src\widgets/lv_line.c **** 
 557              		.loc 1 102 0
 558              		@ sp needed
 559 0008 7047     		bx	lr
 560              		.cfi_endproc
 561              	.LFE162:
 562              		.size	lv_line_get_y_invert, .-lv_line_get_y_invert
 563              		.global	lv_line_class
 564 000a C046     		.section	.rodata
 565              		.align	2
 566              		.set	.LANCHOR0,. + 0
 567              		.type	lv_line_class, %object
 568              		.size	lv_line_class, 28
 569              	lv_line_class:
 570 0000 00000000 		.word	lv_obj_class
 571 0004 00000000 		.word	lv_line_constructor
 572 0008 00000000 		.space	8
 572      00000000 
 573 0010 00000000 		.word	lv_line_event
 574 0014 D127     		.short	10193
 575 0016 D127     		.short	10193
 576 0018 C0       		.byte	192
 577 0019 02       		.byte	2
 578 001a 00       		.byte	0
 579 001b 00       		.space	1
 580              		.text
 581              	.Letext0:
 582              		.file 3 "c:\\program files (x86)\\cypress\\psoc creator\\4.4\\psoc creator\\import\\gnu\\arm\\5.4.
 583              		.file 4 "c:\\program files (x86)\\cypress\\psoc creator\\4.4\\psoc creator\\import\\gnu\\arm\\5.4.
 584              		.file 5 "c:\\program files (x86)\\cypress\\psoc creator\\4.4\\psoc creator\\import\\gnu\\arm\\5.4.
 585              		.file 6 "c:\\projects\\paindrain\\arduinolcd\\test\\pain drain\\libraries\\lvgl\\src\\misc\\lv_are
 586              		.file 7 "c:\\projects\\paindrain\\arduinolcd\\test\\pain drain\\libraries\\lvgl\\src\\font\\lv_fon
 587              		.file 8 "c:\\projects\\paindrain\\arduinolcd\\test\\pain drain\\libraries\\lvgl\\src\\misc\\lv_typ
 588              		.file 9 "c:\\projects\\paindrain\\arduinolcd\\test\\pain drain\\libraries\\lvgl\\src\\misc\\lv_col
 589              		.file 10 "c:\\projects\\paindrain\\arduinolcd\\test\\pain drain\\libraries\\lvgl\\src\\misc\\lv_tx
 590              		.file 11 "c:\\projects\\paindrain\\arduinolcd\\test\\pain drain\\libraries\\lvgl\\src\\misc\\lv_bi
 591              		.file 12 "c:\\projects\\paindrain\\arduinolcd\\test\\pain drain\\libraries\\lvgl\\src\\misc\\lv_st
 592              		.file 13 "c:\\projects\\paindrain\\arduinolcd\\test\\pain drain\\libraries\\lvgl\\src\\draw\\lv_im
 593              		.file 14 "..\\..\\..\\arduinoLCD\\test\\Pain Drain\\libraries\\lvgl\\src\\widgets\\../core/lv_obj.
 594              		.file 15 "c:\\projects\\paindrain\\arduinolcd\\test\\pain drain\\libraries\\lvgl\\src\\draw\\lv_dr
ARM GAS  C:\Users\haske\AppData\Local\Temp\ccR7totD.s 			page 22


 595              		.file 16 "c:\\projects\\paindrain\\arduinolcd\\test\\pain drain\\libraries\\lvgl\\src\\draw\\lv_dr
 596              		.file 17 "c:\\projects\\paindrain\\arduinolcd\\test\\pain drain\\libraries\\lvgl\\src\\draw\\lv_dr
 597              		.file 18 "c:\\projects\\paindrain\\arduinolcd\\test\\pain drain\\libraries\\lvgl\\src\\draw\\lv_dr
 598              		.file 19 "c:\\projects\\paindrain\\arduinolcd\\test\\pain drain\\libraries\\lvgl\\src\\draw\\lv_dr
 599              		.file 20 "c:\\projects\\paindrain\\arduinolcd\\test\\pain drain\\libraries\\lvgl\\src\\draw\\lv_dr
 600              		.file 21 "c:\\projects\\paindrain\\arduinolcd\\test\\pain drain\\libraries\\lvgl\\src\\draw\\lv_dr
 601              		.file 22 "c:\\projects\\paindrain\\arduinolcd\\test\\pain drain\\libraries\\lvgl\\src\\misc\\lv_ll
 602              		.file 23 "..\\..\\..\\arduinoLCD\\test\\Pain Drain\\libraries\\lvgl\\src\\widgets\\../core/lv_grou
 603              		.file 24 "..\\..\\..\\arduinoLCD\\test\\Pain Drain\\libraries\\lvgl\\src\\widgets\\../core/lv_obj_
 604              		.file 25 "..\\..\\..\\arduinoLCD\\test\\Pain Drain\\libraries\\lvgl\\src\\widgets\\../core/lv_obj_
 605              		.file 26 "..\\..\\..\\arduinoLCD\\test\\Pain Drain\\libraries\\lvgl\\src\\widgets\\../core/lv_obj_
 606              		.file 27 "..\\..\\..\\arduinoLCD\\test\\Pain Drain\\libraries\\lvgl\\src\\widgets\\../core/lv_even
 607              		.file 28 "..\\..\\..\\arduinoLCD\\test\\Pain Drain\\libraries\\lvgl\\src\\widgets\\lv_line.h"
 608              		.file 29 "c:\\projects\\paindrain\\arduinolcd\\test\\pain drain\\libraries\\lvgl\\src\\core\\lv_ob
 609              		.file 30 "..\\..\\..\\arduinoLCD\\test\\Pain Drain\\libraries\\lvgl\\src\\widgets\\../core/lv_obj_