ARM GAS  C:\Users\haske\AppData\Local\Temp\ccXBxzcA.s 			page 1


   1              		.syntax unified
   2              		.cpu cortex-m0plus
   3              		.fpu softvfp
   4              		.eabi_attribute 20, 1
   5              		.eabi_attribute 21, 1
   6              		.eabi_attribute 23, 3
   7              		.eabi_attribute 24, 1
   8              		.eabi_attribute 25, 1
   9              		.eabi_attribute 26, 1
  10              		.eabi_attribute 30, 1
  11              		.eabi_attribute 34, 0
  12              		.eabi_attribute 18, 4
  13              		.thumb
  14              		.syntax unified
  15              		.file	"lv_meter.c"
  16              		.text
  17              	.Ltext0:
  18              		.cfi_sections	.debug_frame
  19              		.section	.text.draw_arcs,"ax",%progbits
  20              		.align	2
  21              		.code	16
  22              		.thumb_func
  23              		.type	draw_arcs, %function
  24              	draw_arcs:
  25              	.LFB217:
  26              		.file 1 "..\\..\\..\\arduinoLCD\\test\\Pain Drain\\libraries\\lvgl\\src\\extra\\widgets\\meter\\lv
   1:..\..\..\arduinoLCD\test\Pain Drain\libraries\lvgl\src\extra\widgets\meter/lv_meter.c **** /**
   2:..\..\..\arduinoLCD\test\Pain Drain\libraries\lvgl\src\extra\widgets\meter/lv_meter.c ****  * @file lv_meter.c
   3:..\..\..\arduinoLCD\test\Pain Drain\libraries\lvgl\src\extra\widgets\meter/lv_meter.c ****  *
   4:..\..\..\arduinoLCD\test\Pain Drain\libraries\lvgl\src\extra\widgets\meter/lv_meter.c ****  */
   5:..\..\..\arduinoLCD\test\Pain Drain\libraries\lvgl\src\extra\widgets\meter/lv_meter.c **** 
   6:..\..\..\arduinoLCD\test\Pain Drain\libraries\lvgl\src\extra\widgets\meter/lv_meter.c **** /*********************
   7:..\..\..\arduinoLCD\test\Pain Drain\libraries\lvgl\src\extra\widgets\meter/lv_meter.c ****  *      INCLUDES
   8:..\..\..\arduinoLCD\test\Pain Drain\libraries\lvgl\src\extra\widgets\meter/lv_meter.c ****  *********************/
   9:..\..\..\arduinoLCD\test\Pain Drain\libraries\lvgl\src\extra\widgets\meter/lv_meter.c **** #include "lv_meter.h"
  10:..\..\..\arduinoLCD\test\Pain Drain\libraries\lvgl\src\extra\widgets\meter/lv_meter.c **** #if LV_USE_METER != 0
  11:..\..\..\arduinoLCD\test\Pain Drain\libraries\lvgl\src\extra\widgets\meter/lv_meter.c **** 
  12:..\..\..\arduinoLCD\test\Pain Drain\libraries\lvgl\src\extra\widgets\meter/lv_meter.c **** #include "../../../misc/lv_assert.h"
  13:..\..\..\arduinoLCD\test\Pain Drain\libraries\lvgl\src\extra\widgets\meter/lv_meter.c **** 
  14:..\..\..\arduinoLCD\test\Pain Drain\libraries\lvgl\src\extra\widgets\meter/lv_meter.c **** /*********************
  15:..\..\..\arduinoLCD\test\Pain Drain\libraries\lvgl\src\extra\widgets\meter/lv_meter.c ****  *      DEFINES
  16:..\..\..\arduinoLCD\test\Pain Drain\libraries\lvgl\src\extra\widgets\meter/lv_meter.c ****  *********************/
  17:..\..\..\arduinoLCD\test\Pain Drain\libraries\lvgl\src\extra\widgets\meter/lv_meter.c **** #define MY_CLASS &lv_meter_class
  18:..\..\..\arduinoLCD\test\Pain Drain\libraries\lvgl\src\extra\widgets\meter/lv_meter.c **** 
  19:..\..\..\arduinoLCD\test\Pain Drain\libraries\lvgl\src\extra\widgets\meter/lv_meter.c **** /**********************
  20:..\..\..\arduinoLCD\test\Pain Drain\libraries\lvgl\src\extra\widgets\meter/lv_meter.c ****  *      TYPEDEFS
  21:..\..\..\arduinoLCD\test\Pain Drain\libraries\lvgl\src\extra\widgets\meter/lv_meter.c ****  **********************/
  22:..\..\..\arduinoLCD\test\Pain Drain\libraries\lvgl\src\extra\widgets\meter/lv_meter.c **** 
  23:..\..\..\arduinoLCD\test\Pain Drain\libraries\lvgl\src\extra\widgets\meter/lv_meter.c **** /**********************
  24:..\..\..\arduinoLCD\test\Pain Drain\libraries\lvgl\src\extra\widgets\meter/lv_meter.c ****  *  STATIC PROTOTYPES
  25:..\..\..\arduinoLCD\test\Pain Drain\libraries\lvgl\src\extra\widgets\meter/lv_meter.c ****  **********************/
  26:..\..\..\arduinoLCD\test\Pain Drain\libraries\lvgl\src\extra\widgets\meter/lv_meter.c **** static void lv_meter_constructor(const lv_obj_class_t * class_p, lv_obj_t * obj);
  27:..\..\..\arduinoLCD\test\Pain Drain\libraries\lvgl\src\extra\widgets\meter/lv_meter.c **** static void lv_meter_destructor(const lv_obj_class_t * class_p, lv_obj_t * obj);
  28:..\..\..\arduinoLCD\test\Pain Drain\libraries\lvgl\src\extra\widgets\meter/lv_meter.c **** static void lv_meter_event(const lv_obj_class_t * class_p, lv_event_t * e);
  29:..\..\..\arduinoLCD\test\Pain Drain\libraries\lvgl\src\extra\widgets\meter/lv_meter.c **** static void draw_arcs(lv_obj_t * obj, lv_draw_ctx_t * draw_ctx, const lv_area_t * scale_area);
  30:..\..\..\arduinoLCD\test\Pain Drain\libraries\lvgl\src\extra\widgets\meter/lv_meter.c **** static void draw_ticks_and_labels(lv_obj_t * obj, lv_draw_ctx_t * draw_ctx, const lv_area_t * scale
  31:..\..\..\arduinoLCD\test\Pain Drain\libraries\lvgl\src\extra\widgets\meter/lv_meter.c **** static void draw_needles(lv_obj_t * obj, lv_draw_ctx_t * draw_ctx, const lv_area_t * scale_area);
ARM GAS  C:\Users\haske\AppData\Local\Temp\ccXBxzcA.s 			page 2


  32:..\..\..\arduinoLCD\test\Pain Drain\libraries\lvgl\src\extra\widgets\meter/lv_meter.c **** static void inv_arc(lv_obj_t * obj, lv_meter_indicator_t * indic, int32_t old_value, int32_t new_va
  33:..\..\..\arduinoLCD\test\Pain Drain\libraries\lvgl\src\extra\widgets\meter/lv_meter.c **** static void inv_line(lv_obj_t * obj, lv_meter_indicator_t * indic, int32_t value);
  34:..\..\..\arduinoLCD\test\Pain Drain\libraries\lvgl\src\extra\widgets\meter/lv_meter.c **** 
  35:..\..\..\arduinoLCD\test\Pain Drain\libraries\lvgl\src\extra\widgets\meter/lv_meter.c **** /**********************
  36:..\..\..\arduinoLCD\test\Pain Drain\libraries\lvgl\src\extra\widgets\meter/lv_meter.c ****  *  STATIC VARIABLES
  37:..\..\..\arduinoLCD\test\Pain Drain\libraries\lvgl\src\extra\widgets\meter/lv_meter.c ****  **********************/
  38:..\..\..\arduinoLCD\test\Pain Drain\libraries\lvgl\src\extra\widgets\meter/lv_meter.c **** const lv_obj_class_t lv_meter_class = {
  39:..\..\..\arduinoLCD\test\Pain Drain\libraries\lvgl\src\extra\widgets\meter/lv_meter.c ****     .constructor_cb = lv_meter_constructor,
  40:..\..\..\arduinoLCD\test\Pain Drain\libraries\lvgl\src\extra\widgets\meter/lv_meter.c ****     .destructor_cb = lv_meter_destructor,
  41:..\..\..\arduinoLCD\test\Pain Drain\libraries\lvgl\src\extra\widgets\meter/lv_meter.c ****     .event_cb = lv_meter_event,
  42:..\..\..\arduinoLCD\test\Pain Drain\libraries\lvgl\src\extra\widgets\meter/lv_meter.c ****     .instance_size = sizeof(lv_meter_t),
  43:..\..\..\arduinoLCD\test\Pain Drain\libraries\lvgl\src\extra\widgets\meter/lv_meter.c ****     .base_class = &lv_obj_class
  44:..\..\..\arduinoLCD\test\Pain Drain\libraries\lvgl\src\extra\widgets\meter/lv_meter.c **** };
  45:..\..\..\arduinoLCD\test\Pain Drain\libraries\lvgl\src\extra\widgets\meter/lv_meter.c **** 
  46:..\..\..\arduinoLCD\test\Pain Drain\libraries\lvgl\src\extra\widgets\meter/lv_meter.c **** /**********************
  47:..\..\..\arduinoLCD\test\Pain Drain\libraries\lvgl\src\extra\widgets\meter/lv_meter.c ****  *      MACROS
  48:..\..\..\arduinoLCD\test\Pain Drain\libraries\lvgl\src\extra\widgets\meter/lv_meter.c ****  **********************/
  49:..\..\..\arduinoLCD\test\Pain Drain\libraries\lvgl\src\extra\widgets\meter/lv_meter.c **** 
  50:..\..\..\arduinoLCD\test\Pain Drain\libraries\lvgl\src\extra\widgets\meter/lv_meter.c **** /**********************
  51:..\..\..\arduinoLCD\test\Pain Drain\libraries\lvgl\src\extra\widgets\meter/lv_meter.c ****  *   GLOBAL FUNCTIONS
  52:..\..\..\arduinoLCD\test\Pain Drain\libraries\lvgl\src\extra\widgets\meter/lv_meter.c ****  **********************/
  53:..\..\..\arduinoLCD\test\Pain Drain\libraries\lvgl\src\extra\widgets\meter/lv_meter.c **** 
  54:..\..\..\arduinoLCD\test\Pain Drain\libraries\lvgl\src\extra\widgets\meter/lv_meter.c **** lv_obj_t * lv_meter_create(lv_obj_t * parent)
  55:..\..\..\arduinoLCD\test\Pain Drain\libraries\lvgl\src\extra\widgets\meter/lv_meter.c **** {
  56:..\..\..\arduinoLCD\test\Pain Drain\libraries\lvgl\src\extra\widgets\meter/lv_meter.c ****     LV_LOG_INFO("begin");
  57:..\..\..\arduinoLCD\test\Pain Drain\libraries\lvgl\src\extra\widgets\meter/lv_meter.c ****     lv_obj_t * obj = lv_obj_class_create_obj(MY_CLASS, parent);
  58:..\..\..\arduinoLCD\test\Pain Drain\libraries\lvgl\src\extra\widgets\meter/lv_meter.c ****     lv_obj_class_init_obj(obj);
  59:..\..\..\arduinoLCD\test\Pain Drain\libraries\lvgl\src\extra\widgets\meter/lv_meter.c ****     return obj;
  60:..\..\..\arduinoLCD\test\Pain Drain\libraries\lvgl\src\extra\widgets\meter/lv_meter.c **** }
  61:..\..\..\arduinoLCD\test\Pain Drain\libraries\lvgl\src\extra\widgets\meter/lv_meter.c **** 
  62:..\..\..\arduinoLCD\test\Pain Drain\libraries\lvgl\src\extra\widgets\meter/lv_meter.c **** /*=====================
  63:..\..\..\arduinoLCD\test\Pain Drain\libraries\lvgl\src\extra\widgets\meter/lv_meter.c ****  * Add scale
  64:..\..\..\arduinoLCD\test\Pain Drain\libraries\lvgl\src\extra\widgets\meter/lv_meter.c ****  *====================*/
  65:..\..\..\arduinoLCD\test\Pain Drain\libraries\lvgl\src\extra\widgets\meter/lv_meter.c **** 
  66:..\..\..\arduinoLCD\test\Pain Drain\libraries\lvgl\src\extra\widgets\meter/lv_meter.c **** lv_meter_scale_t * lv_meter_add_scale(lv_obj_t * obj)
  67:..\..\..\arduinoLCD\test\Pain Drain\libraries\lvgl\src\extra\widgets\meter/lv_meter.c **** {
  68:..\..\..\arduinoLCD\test\Pain Drain\libraries\lvgl\src\extra\widgets\meter/lv_meter.c ****     LV_ASSERT_OBJ(obj, MY_CLASS);
  69:..\..\..\arduinoLCD\test\Pain Drain\libraries\lvgl\src\extra\widgets\meter/lv_meter.c ****     lv_meter_t * meter = (lv_meter_t *)obj;
  70:..\..\..\arduinoLCD\test\Pain Drain\libraries\lvgl\src\extra\widgets\meter/lv_meter.c **** 
  71:..\..\..\arduinoLCD\test\Pain Drain\libraries\lvgl\src\extra\widgets\meter/lv_meter.c ****     lv_meter_scale_t * scale = _lv_ll_ins_head(&meter->scale_ll);
  72:..\..\..\arduinoLCD\test\Pain Drain\libraries\lvgl\src\extra\widgets\meter/lv_meter.c ****     LV_ASSERT_MALLOC(scale);
  73:..\..\..\arduinoLCD\test\Pain Drain\libraries\lvgl\src\extra\widgets\meter/lv_meter.c ****     lv_memset_00(scale, sizeof(lv_meter_scale_t));
  74:..\..\..\arduinoLCD\test\Pain Drain\libraries\lvgl\src\extra\widgets\meter/lv_meter.c **** 
  75:..\..\..\arduinoLCD\test\Pain Drain\libraries\lvgl\src\extra\widgets\meter/lv_meter.c ****     scale->angle_range = 270;
  76:..\..\..\arduinoLCD\test\Pain Drain\libraries\lvgl\src\extra\widgets\meter/lv_meter.c ****     scale->rotation = 90 + (360 - scale->angle_range) / 2;
  77:..\..\..\arduinoLCD\test\Pain Drain\libraries\lvgl\src\extra\widgets\meter/lv_meter.c ****     scale->min = 0;
  78:..\..\..\arduinoLCD\test\Pain Drain\libraries\lvgl\src\extra\widgets\meter/lv_meter.c ****     scale->max = 100;
  79:..\..\..\arduinoLCD\test\Pain Drain\libraries\lvgl\src\extra\widgets\meter/lv_meter.c ****     scale->tick_cnt = 6;
  80:..\..\..\arduinoLCD\test\Pain Drain\libraries\lvgl\src\extra\widgets\meter/lv_meter.c ****     scale->tick_length = 8;
  81:..\..\..\arduinoLCD\test\Pain Drain\libraries\lvgl\src\extra\widgets\meter/lv_meter.c ****     scale->tick_width = 2;
  82:..\..\..\arduinoLCD\test\Pain Drain\libraries\lvgl\src\extra\widgets\meter/lv_meter.c ****     scale->label_gap = 2;
  83:..\..\..\arduinoLCD\test\Pain Drain\libraries\lvgl\src\extra\widgets\meter/lv_meter.c **** 
  84:..\..\..\arduinoLCD\test\Pain Drain\libraries\lvgl\src\extra\widgets\meter/lv_meter.c ****     return scale;
  85:..\..\..\arduinoLCD\test\Pain Drain\libraries\lvgl\src\extra\widgets\meter/lv_meter.c **** }
  86:..\..\..\arduinoLCD\test\Pain Drain\libraries\lvgl\src\extra\widgets\meter/lv_meter.c **** 
  87:..\..\..\arduinoLCD\test\Pain Drain\libraries\lvgl\src\extra\widgets\meter/lv_meter.c **** void lv_meter_set_scale_ticks(lv_obj_t * obj, lv_meter_scale_t * scale, uint16_t cnt, uint16_t widt
  88:..\..\..\arduinoLCD\test\Pain Drain\libraries\lvgl\src\extra\widgets\meter/lv_meter.c ****                               lv_color_t color)
ARM GAS  C:\Users\haske\AppData\Local\Temp\ccXBxzcA.s 			page 3


  89:..\..\..\arduinoLCD\test\Pain Drain\libraries\lvgl\src\extra\widgets\meter/lv_meter.c **** {
  90:..\..\..\arduinoLCD\test\Pain Drain\libraries\lvgl\src\extra\widgets\meter/lv_meter.c ****     scale->tick_cnt = cnt;
  91:..\..\..\arduinoLCD\test\Pain Drain\libraries\lvgl\src\extra\widgets\meter/lv_meter.c ****     scale->tick_width = width;
  92:..\..\..\arduinoLCD\test\Pain Drain\libraries\lvgl\src\extra\widgets\meter/lv_meter.c ****     scale->tick_length = len;
  93:..\..\..\arduinoLCD\test\Pain Drain\libraries\lvgl\src\extra\widgets\meter/lv_meter.c ****     scale->tick_color = color;
  94:..\..\..\arduinoLCD\test\Pain Drain\libraries\lvgl\src\extra\widgets\meter/lv_meter.c ****     lv_obj_invalidate(obj);
  95:..\..\..\arduinoLCD\test\Pain Drain\libraries\lvgl\src\extra\widgets\meter/lv_meter.c **** }
  96:..\..\..\arduinoLCD\test\Pain Drain\libraries\lvgl\src\extra\widgets\meter/lv_meter.c **** 
  97:..\..\..\arduinoLCD\test\Pain Drain\libraries\lvgl\src\extra\widgets\meter/lv_meter.c **** void lv_meter_set_scale_major_ticks(lv_obj_t * obj, lv_meter_scale_t * scale, uint16_t nth, uint16_
  98:..\..\..\arduinoLCD\test\Pain Drain\libraries\lvgl\src\extra\widgets\meter/lv_meter.c ****                                     uint16_t len, lv_color_t color, int16_t label_gap)
  99:..\..\..\arduinoLCD\test\Pain Drain\libraries\lvgl\src\extra\widgets\meter/lv_meter.c **** {
 100:..\..\..\arduinoLCD\test\Pain Drain\libraries\lvgl\src\extra\widgets\meter/lv_meter.c ****     scale->tick_major_nth = nth;
 101:..\..\..\arduinoLCD\test\Pain Drain\libraries\lvgl\src\extra\widgets\meter/lv_meter.c ****     scale->tick_major_width = width;
 102:..\..\..\arduinoLCD\test\Pain Drain\libraries\lvgl\src\extra\widgets\meter/lv_meter.c ****     scale->tick_major_length = len;
 103:..\..\..\arduinoLCD\test\Pain Drain\libraries\lvgl\src\extra\widgets\meter/lv_meter.c ****     scale->tick_major_color = color;
 104:..\..\..\arduinoLCD\test\Pain Drain\libraries\lvgl\src\extra\widgets\meter/lv_meter.c ****     scale->label_gap = label_gap;
 105:..\..\..\arduinoLCD\test\Pain Drain\libraries\lvgl\src\extra\widgets\meter/lv_meter.c ****     lv_obj_invalidate(obj);
 106:..\..\..\arduinoLCD\test\Pain Drain\libraries\lvgl\src\extra\widgets\meter/lv_meter.c **** }
 107:..\..\..\arduinoLCD\test\Pain Drain\libraries\lvgl\src\extra\widgets\meter/lv_meter.c **** 
 108:..\..\..\arduinoLCD\test\Pain Drain\libraries\lvgl\src\extra\widgets\meter/lv_meter.c **** void lv_meter_set_scale_range(lv_obj_t * obj, lv_meter_scale_t * scale, int32_t min, int32_t max, u
 109:..\..\..\arduinoLCD\test\Pain Drain\libraries\lvgl\src\extra\widgets\meter/lv_meter.c ****                               uint32_t rotation)
 110:..\..\..\arduinoLCD\test\Pain Drain\libraries\lvgl\src\extra\widgets\meter/lv_meter.c **** {
 111:..\..\..\arduinoLCD\test\Pain Drain\libraries\lvgl\src\extra\widgets\meter/lv_meter.c ****     scale->min = min;
 112:..\..\..\arduinoLCD\test\Pain Drain\libraries\lvgl\src\extra\widgets\meter/lv_meter.c ****     scale->max = max;
 113:..\..\..\arduinoLCD\test\Pain Drain\libraries\lvgl\src\extra\widgets\meter/lv_meter.c ****     scale->angle_range = angle_range;
 114:..\..\..\arduinoLCD\test\Pain Drain\libraries\lvgl\src\extra\widgets\meter/lv_meter.c ****     scale->rotation = rotation;
 115:..\..\..\arduinoLCD\test\Pain Drain\libraries\lvgl\src\extra\widgets\meter/lv_meter.c ****     lv_obj_invalidate(obj);
 116:..\..\..\arduinoLCD\test\Pain Drain\libraries\lvgl\src\extra\widgets\meter/lv_meter.c **** }
 117:..\..\..\arduinoLCD\test\Pain Drain\libraries\lvgl\src\extra\widgets\meter/lv_meter.c **** 
 118:..\..\..\arduinoLCD\test\Pain Drain\libraries\lvgl\src\extra\widgets\meter/lv_meter.c **** /*=====================
 119:..\..\..\arduinoLCD\test\Pain Drain\libraries\lvgl\src\extra\widgets\meter/lv_meter.c ****  * Add indicator
 120:..\..\..\arduinoLCD\test\Pain Drain\libraries\lvgl\src\extra\widgets\meter/lv_meter.c ****  *====================*/
 121:..\..\..\arduinoLCD\test\Pain Drain\libraries\lvgl\src\extra\widgets\meter/lv_meter.c **** 
 122:..\..\..\arduinoLCD\test\Pain Drain\libraries\lvgl\src\extra\widgets\meter/lv_meter.c **** lv_meter_indicator_t * lv_meter_add_needle_line(lv_obj_t * obj, lv_meter_scale_t * scale, uint16_t 
 123:..\..\..\arduinoLCD\test\Pain Drain\libraries\lvgl\src\extra\widgets\meter/lv_meter.c ****                                                 lv_color_t color, int16_t r_mod)
 124:..\..\..\arduinoLCD\test\Pain Drain\libraries\lvgl\src\extra\widgets\meter/lv_meter.c **** {
 125:..\..\..\arduinoLCD\test\Pain Drain\libraries\lvgl\src\extra\widgets\meter/lv_meter.c ****     LV_ASSERT_OBJ(obj, MY_CLASS);
 126:..\..\..\arduinoLCD\test\Pain Drain\libraries\lvgl\src\extra\widgets\meter/lv_meter.c ****     lv_meter_t * meter = (lv_meter_t *)obj;
 127:..\..\..\arduinoLCD\test\Pain Drain\libraries\lvgl\src\extra\widgets\meter/lv_meter.c ****     lv_meter_indicator_t * indic = _lv_ll_ins_head(&meter->indicator_ll);
 128:..\..\..\arduinoLCD\test\Pain Drain\libraries\lvgl\src\extra\widgets\meter/lv_meter.c ****     LV_ASSERT_MALLOC(indic);
 129:..\..\..\arduinoLCD\test\Pain Drain\libraries\lvgl\src\extra\widgets\meter/lv_meter.c ****     lv_memset_00(indic, sizeof(lv_meter_indicator_t));
 130:..\..\..\arduinoLCD\test\Pain Drain\libraries\lvgl\src\extra\widgets\meter/lv_meter.c ****     indic->scale = scale;
 131:..\..\..\arduinoLCD\test\Pain Drain\libraries\lvgl\src\extra\widgets\meter/lv_meter.c ****     indic->opa = LV_OPA_COVER;
 132:..\..\..\arduinoLCD\test\Pain Drain\libraries\lvgl\src\extra\widgets\meter/lv_meter.c **** 
 133:..\..\..\arduinoLCD\test\Pain Drain\libraries\lvgl\src\extra\widgets\meter/lv_meter.c ****     indic->type = LV_METER_INDICATOR_TYPE_NEEDLE_LINE;
 134:..\..\..\arduinoLCD\test\Pain Drain\libraries\lvgl\src\extra\widgets\meter/lv_meter.c ****     indic->type_data.needle_line.width = width;
 135:..\..\..\arduinoLCD\test\Pain Drain\libraries\lvgl\src\extra\widgets\meter/lv_meter.c ****     indic->type_data.needle_line.color = color;
 136:..\..\..\arduinoLCD\test\Pain Drain\libraries\lvgl\src\extra\widgets\meter/lv_meter.c ****     indic->type_data.needle_line.r_mod = r_mod;
 137:..\..\..\arduinoLCD\test\Pain Drain\libraries\lvgl\src\extra\widgets\meter/lv_meter.c ****     lv_obj_invalidate(obj);
 138:..\..\..\arduinoLCD\test\Pain Drain\libraries\lvgl\src\extra\widgets\meter/lv_meter.c **** 
 139:..\..\..\arduinoLCD\test\Pain Drain\libraries\lvgl\src\extra\widgets\meter/lv_meter.c ****     return indic;
 140:..\..\..\arduinoLCD\test\Pain Drain\libraries\lvgl\src\extra\widgets\meter/lv_meter.c **** }
 141:..\..\..\arduinoLCD\test\Pain Drain\libraries\lvgl\src\extra\widgets\meter/lv_meter.c **** 
 142:..\..\..\arduinoLCD\test\Pain Drain\libraries\lvgl\src\extra\widgets\meter/lv_meter.c **** lv_meter_indicator_t * lv_meter_add_needle_img(lv_obj_t * obj, lv_meter_scale_t * scale, const void
 143:..\..\..\arduinoLCD\test\Pain Drain\libraries\lvgl\src\extra\widgets\meter/lv_meter.c ****                                                lv_coord_t pivot_x, lv_coord_t pivot_y)
 144:..\..\..\arduinoLCD\test\Pain Drain\libraries\lvgl\src\extra\widgets\meter/lv_meter.c **** {
 145:..\..\..\arduinoLCD\test\Pain Drain\libraries\lvgl\src\extra\widgets\meter/lv_meter.c ****     LV_ASSERT_OBJ(obj, MY_CLASS);
ARM GAS  C:\Users\haske\AppData\Local\Temp\ccXBxzcA.s 			page 4


 146:..\..\..\arduinoLCD\test\Pain Drain\libraries\lvgl\src\extra\widgets\meter/lv_meter.c ****     lv_meter_t * meter = (lv_meter_t *)obj;
 147:..\..\..\arduinoLCD\test\Pain Drain\libraries\lvgl\src\extra\widgets\meter/lv_meter.c ****     lv_meter_indicator_t * indic = _lv_ll_ins_head(&meter->indicator_ll);
 148:..\..\..\arduinoLCD\test\Pain Drain\libraries\lvgl\src\extra\widgets\meter/lv_meter.c ****     LV_ASSERT_MALLOC(indic);
 149:..\..\..\arduinoLCD\test\Pain Drain\libraries\lvgl\src\extra\widgets\meter/lv_meter.c ****     lv_memset_00(indic, sizeof(lv_meter_indicator_t));
 150:..\..\..\arduinoLCD\test\Pain Drain\libraries\lvgl\src\extra\widgets\meter/lv_meter.c ****     indic->scale = scale;
 151:..\..\..\arduinoLCD\test\Pain Drain\libraries\lvgl\src\extra\widgets\meter/lv_meter.c ****     indic->opa = LV_OPA_COVER;
 152:..\..\..\arduinoLCD\test\Pain Drain\libraries\lvgl\src\extra\widgets\meter/lv_meter.c **** 
 153:..\..\..\arduinoLCD\test\Pain Drain\libraries\lvgl\src\extra\widgets\meter/lv_meter.c ****     indic->type = LV_METER_INDICATOR_TYPE_NEEDLE_IMG;
 154:..\..\..\arduinoLCD\test\Pain Drain\libraries\lvgl\src\extra\widgets\meter/lv_meter.c ****     indic->type_data.needle_img.src = src;
 155:..\..\..\arduinoLCD\test\Pain Drain\libraries\lvgl\src\extra\widgets\meter/lv_meter.c ****     indic->type_data.needle_img.pivot.x = pivot_x;
 156:..\..\..\arduinoLCD\test\Pain Drain\libraries\lvgl\src\extra\widgets\meter/lv_meter.c ****     indic->type_data.needle_img.pivot.y = pivot_y;
 157:..\..\..\arduinoLCD\test\Pain Drain\libraries\lvgl\src\extra\widgets\meter/lv_meter.c ****     lv_obj_invalidate(obj);
 158:..\..\..\arduinoLCD\test\Pain Drain\libraries\lvgl\src\extra\widgets\meter/lv_meter.c **** 
 159:..\..\..\arduinoLCD\test\Pain Drain\libraries\lvgl\src\extra\widgets\meter/lv_meter.c ****     return indic;
 160:..\..\..\arduinoLCD\test\Pain Drain\libraries\lvgl\src\extra\widgets\meter/lv_meter.c **** }
 161:..\..\..\arduinoLCD\test\Pain Drain\libraries\lvgl\src\extra\widgets\meter/lv_meter.c **** 
 162:..\..\..\arduinoLCD\test\Pain Drain\libraries\lvgl\src\extra\widgets\meter/lv_meter.c **** lv_meter_indicator_t * lv_meter_add_arc(lv_obj_t * obj, lv_meter_scale_t * scale, uint16_t width, l
 163:..\..\..\arduinoLCD\test\Pain Drain\libraries\lvgl\src\extra\widgets\meter/lv_meter.c ****                                         int16_t r_mod)
 164:..\..\..\arduinoLCD\test\Pain Drain\libraries\lvgl\src\extra\widgets\meter/lv_meter.c **** {
 165:..\..\..\arduinoLCD\test\Pain Drain\libraries\lvgl\src\extra\widgets\meter/lv_meter.c ****     LV_ASSERT_OBJ(obj, MY_CLASS);
 166:..\..\..\arduinoLCD\test\Pain Drain\libraries\lvgl\src\extra\widgets\meter/lv_meter.c ****     lv_meter_t * meter = (lv_meter_t *)obj;
 167:..\..\..\arduinoLCD\test\Pain Drain\libraries\lvgl\src\extra\widgets\meter/lv_meter.c ****     lv_meter_indicator_t * indic = _lv_ll_ins_head(&meter->indicator_ll);
 168:..\..\..\arduinoLCD\test\Pain Drain\libraries\lvgl\src\extra\widgets\meter/lv_meter.c ****     LV_ASSERT_MALLOC(indic);
 169:..\..\..\arduinoLCD\test\Pain Drain\libraries\lvgl\src\extra\widgets\meter/lv_meter.c ****     lv_memset_00(indic, sizeof(lv_meter_indicator_t));
 170:..\..\..\arduinoLCD\test\Pain Drain\libraries\lvgl\src\extra\widgets\meter/lv_meter.c ****     indic->scale = scale;
 171:..\..\..\arduinoLCD\test\Pain Drain\libraries\lvgl\src\extra\widgets\meter/lv_meter.c ****     indic->opa = LV_OPA_COVER;
 172:..\..\..\arduinoLCD\test\Pain Drain\libraries\lvgl\src\extra\widgets\meter/lv_meter.c **** 
 173:..\..\..\arduinoLCD\test\Pain Drain\libraries\lvgl\src\extra\widgets\meter/lv_meter.c ****     indic->type = LV_METER_INDICATOR_TYPE_ARC;
 174:..\..\..\arduinoLCD\test\Pain Drain\libraries\lvgl\src\extra\widgets\meter/lv_meter.c ****     indic->type_data.arc.width = width;
 175:..\..\..\arduinoLCD\test\Pain Drain\libraries\lvgl\src\extra\widgets\meter/lv_meter.c ****     indic->type_data.arc.color = color;
 176:..\..\..\arduinoLCD\test\Pain Drain\libraries\lvgl\src\extra\widgets\meter/lv_meter.c ****     indic->type_data.arc.r_mod = r_mod;
 177:..\..\..\arduinoLCD\test\Pain Drain\libraries\lvgl\src\extra\widgets\meter/lv_meter.c **** 
 178:..\..\..\arduinoLCD\test\Pain Drain\libraries\lvgl\src\extra\widgets\meter/lv_meter.c ****     lv_obj_invalidate(obj);
 179:..\..\..\arduinoLCD\test\Pain Drain\libraries\lvgl\src\extra\widgets\meter/lv_meter.c ****     return indic;
 180:..\..\..\arduinoLCD\test\Pain Drain\libraries\lvgl\src\extra\widgets\meter/lv_meter.c **** }
 181:..\..\..\arduinoLCD\test\Pain Drain\libraries\lvgl\src\extra\widgets\meter/lv_meter.c **** 
 182:..\..\..\arduinoLCD\test\Pain Drain\libraries\lvgl\src\extra\widgets\meter/lv_meter.c **** lv_meter_indicator_t * lv_meter_add_scale_lines(lv_obj_t * obj, lv_meter_scale_t * scale, lv_color_
 183:..\..\..\arduinoLCD\test\Pain Drain\libraries\lvgl\src\extra\widgets\meter/lv_meter.c ****                                                 lv_color_t color_end, bool local, int16_t width_mod
 184:..\..\..\arduinoLCD\test\Pain Drain\libraries\lvgl\src\extra\widgets\meter/lv_meter.c **** {
 185:..\..\..\arduinoLCD\test\Pain Drain\libraries\lvgl\src\extra\widgets\meter/lv_meter.c ****     LV_ASSERT_OBJ(obj, MY_CLASS);
 186:..\..\..\arduinoLCD\test\Pain Drain\libraries\lvgl\src\extra\widgets\meter/lv_meter.c ****     lv_meter_t * meter = (lv_meter_t *)obj;
 187:..\..\..\arduinoLCD\test\Pain Drain\libraries\lvgl\src\extra\widgets\meter/lv_meter.c ****     lv_meter_indicator_t * indic = _lv_ll_ins_head(&meter->indicator_ll);
 188:..\..\..\arduinoLCD\test\Pain Drain\libraries\lvgl\src\extra\widgets\meter/lv_meter.c ****     LV_ASSERT_MALLOC(indic);
 189:..\..\..\arduinoLCD\test\Pain Drain\libraries\lvgl\src\extra\widgets\meter/lv_meter.c ****     lv_memset_00(indic, sizeof(lv_meter_indicator_t));
 190:..\..\..\arduinoLCD\test\Pain Drain\libraries\lvgl\src\extra\widgets\meter/lv_meter.c ****     indic->scale = scale;
 191:..\..\..\arduinoLCD\test\Pain Drain\libraries\lvgl\src\extra\widgets\meter/lv_meter.c ****     indic->opa = LV_OPA_COVER;
 192:..\..\..\arduinoLCD\test\Pain Drain\libraries\lvgl\src\extra\widgets\meter/lv_meter.c **** 
 193:..\..\..\arduinoLCD\test\Pain Drain\libraries\lvgl\src\extra\widgets\meter/lv_meter.c ****     indic->type = LV_METER_INDICATOR_TYPE_SCALE_LINES;
 194:..\..\..\arduinoLCD\test\Pain Drain\libraries\lvgl\src\extra\widgets\meter/lv_meter.c ****     indic->type_data.scale_lines.color_start = color_start;
 195:..\..\..\arduinoLCD\test\Pain Drain\libraries\lvgl\src\extra\widgets\meter/lv_meter.c ****     indic->type_data.scale_lines.color_end = color_end;
 196:..\..\..\arduinoLCD\test\Pain Drain\libraries\lvgl\src\extra\widgets\meter/lv_meter.c ****     indic->type_data.scale_lines.local_grad = local;
 197:..\..\..\arduinoLCD\test\Pain Drain\libraries\lvgl\src\extra\widgets\meter/lv_meter.c ****     indic->type_data.scale_lines.width_mod = width_mod;
 198:..\..\..\arduinoLCD\test\Pain Drain\libraries\lvgl\src\extra\widgets\meter/lv_meter.c **** 
 199:..\..\..\arduinoLCD\test\Pain Drain\libraries\lvgl\src\extra\widgets\meter/lv_meter.c ****     lv_obj_invalidate(obj);
 200:..\..\..\arduinoLCD\test\Pain Drain\libraries\lvgl\src\extra\widgets\meter/lv_meter.c ****     return indic;
 201:..\..\..\arduinoLCD\test\Pain Drain\libraries\lvgl\src\extra\widgets\meter/lv_meter.c **** }
 202:..\..\..\arduinoLCD\test\Pain Drain\libraries\lvgl\src\extra\widgets\meter/lv_meter.c **** 
ARM GAS  C:\Users\haske\AppData\Local\Temp\ccXBxzcA.s 			page 5


 203:..\..\..\arduinoLCD\test\Pain Drain\libraries\lvgl\src\extra\widgets\meter/lv_meter.c **** /*=====================
 204:..\..\..\arduinoLCD\test\Pain Drain\libraries\lvgl\src\extra\widgets\meter/lv_meter.c ****  * Set indicator value
 205:..\..\..\arduinoLCD\test\Pain Drain\libraries\lvgl\src\extra\widgets\meter/lv_meter.c ****  *====================*/
 206:..\..\..\arduinoLCD\test\Pain Drain\libraries\lvgl\src\extra\widgets\meter/lv_meter.c **** 
 207:..\..\..\arduinoLCD\test\Pain Drain\libraries\lvgl\src\extra\widgets\meter/lv_meter.c **** void lv_meter_set_indicator_value(lv_obj_t * obj, lv_meter_indicator_t * indic, int32_t value)
 208:..\..\..\arduinoLCD\test\Pain Drain\libraries\lvgl\src\extra\widgets\meter/lv_meter.c **** {
 209:..\..\..\arduinoLCD\test\Pain Drain\libraries\lvgl\src\extra\widgets\meter/lv_meter.c ****     int32_t old_start = indic->start_value;
 210:..\..\..\arduinoLCD\test\Pain Drain\libraries\lvgl\src\extra\widgets\meter/lv_meter.c ****     int32_t old_end = indic->end_value;
 211:..\..\..\arduinoLCD\test\Pain Drain\libraries\lvgl\src\extra\widgets\meter/lv_meter.c ****     indic->start_value = value;
 212:..\..\..\arduinoLCD\test\Pain Drain\libraries\lvgl\src\extra\widgets\meter/lv_meter.c ****     indic->end_value = value;
 213:..\..\..\arduinoLCD\test\Pain Drain\libraries\lvgl\src\extra\widgets\meter/lv_meter.c **** 
 214:..\..\..\arduinoLCD\test\Pain Drain\libraries\lvgl\src\extra\widgets\meter/lv_meter.c ****     if(indic->type == LV_METER_INDICATOR_TYPE_ARC) {
 215:..\..\..\arduinoLCD\test\Pain Drain\libraries\lvgl\src\extra\widgets\meter/lv_meter.c ****         inv_arc(obj, indic, old_start, value);
 216:..\..\..\arduinoLCD\test\Pain Drain\libraries\lvgl\src\extra\widgets\meter/lv_meter.c ****         inv_arc(obj, indic, old_end, value);
 217:..\..\..\arduinoLCD\test\Pain Drain\libraries\lvgl\src\extra\widgets\meter/lv_meter.c ****     }
 218:..\..\..\arduinoLCD\test\Pain Drain\libraries\lvgl\src\extra\widgets\meter/lv_meter.c ****     else if(indic->type == LV_METER_INDICATOR_TYPE_NEEDLE_IMG || indic->type == LV_METER_INDICATOR_
 219:..\..\..\arduinoLCD\test\Pain Drain\libraries\lvgl\src\extra\widgets\meter/lv_meter.c ****         inv_line(obj, indic, old_start);
 220:..\..\..\arduinoLCD\test\Pain Drain\libraries\lvgl\src\extra\widgets\meter/lv_meter.c ****         inv_line(obj, indic, old_end);
 221:..\..\..\arduinoLCD\test\Pain Drain\libraries\lvgl\src\extra\widgets\meter/lv_meter.c ****         inv_line(obj, indic, value);
 222:..\..\..\arduinoLCD\test\Pain Drain\libraries\lvgl\src\extra\widgets\meter/lv_meter.c ****     }
 223:..\..\..\arduinoLCD\test\Pain Drain\libraries\lvgl\src\extra\widgets\meter/lv_meter.c ****     else {
 224:..\..\..\arduinoLCD\test\Pain Drain\libraries\lvgl\src\extra\widgets\meter/lv_meter.c ****         lv_obj_invalidate(obj);
 225:..\..\..\arduinoLCD\test\Pain Drain\libraries\lvgl\src\extra\widgets\meter/lv_meter.c ****     }
 226:..\..\..\arduinoLCD\test\Pain Drain\libraries\lvgl\src\extra\widgets\meter/lv_meter.c **** }
 227:..\..\..\arduinoLCD\test\Pain Drain\libraries\lvgl\src\extra\widgets\meter/lv_meter.c **** 
 228:..\..\..\arduinoLCD\test\Pain Drain\libraries\lvgl\src\extra\widgets\meter/lv_meter.c **** void lv_meter_set_indicator_start_value(lv_obj_t * obj, lv_meter_indicator_t * indic, int32_t value
 229:..\..\..\arduinoLCD\test\Pain Drain\libraries\lvgl\src\extra\widgets\meter/lv_meter.c **** {
 230:..\..\..\arduinoLCD\test\Pain Drain\libraries\lvgl\src\extra\widgets\meter/lv_meter.c ****     int32_t old_value = indic->start_value;
 231:..\..\..\arduinoLCD\test\Pain Drain\libraries\lvgl\src\extra\widgets\meter/lv_meter.c ****     indic->start_value = value;
 232:..\..\..\arduinoLCD\test\Pain Drain\libraries\lvgl\src\extra\widgets\meter/lv_meter.c **** 
 233:..\..\..\arduinoLCD\test\Pain Drain\libraries\lvgl\src\extra\widgets\meter/lv_meter.c ****     if(indic->type == LV_METER_INDICATOR_TYPE_ARC) {
 234:..\..\..\arduinoLCD\test\Pain Drain\libraries\lvgl\src\extra\widgets\meter/lv_meter.c ****         inv_arc(obj, indic, old_value, value);
 235:..\..\..\arduinoLCD\test\Pain Drain\libraries\lvgl\src\extra\widgets\meter/lv_meter.c ****     }
 236:..\..\..\arduinoLCD\test\Pain Drain\libraries\lvgl\src\extra\widgets\meter/lv_meter.c ****     else if(indic->type == LV_METER_INDICATOR_TYPE_NEEDLE_IMG || indic->type == LV_METER_INDICATOR_
 237:..\..\..\arduinoLCD\test\Pain Drain\libraries\lvgl\src\extra\widgets\meter/lv_meter.c ****         inv_line(obj, indic, old_value);
 238:..\..\..\arduinoLCD\test\Pain Drain\libraries\lvgl\src\extra\widgets\meter/lv_meter.c ****         inv_line(obj, indic, value);
 239:..\..\..\arduinoLCD\test\Pain Drain\libraries\lvgl\src\extra\widgets\meter/lv_meter.c ****     }
 240:..\..\..\arduinoLCD\test\Pain Drain\libraries\lvgl\src\extra\widgets\meter/lv_meter.c ****     else {
 241:..\..\..\arduinoLCD\test\Pain Drain\libraries\lvgl\src\extra\widgets\meter/lv_meter.c ****         lv_obj_invalidate(obj);
 242:..\..\..\arduinoLCD\test\Pain Drain\libraries\lvgl\src\extra\widgets\meter/lv_meter.c ****     }
 243:..\..\..\arduinoLCD\test\Pain Drain\libraries\lvgl\src\extra\widgets\meter/lv_meter.c **** }
 244:..\..\..\arduinoLCD\test\Pain Drain\libraries\lvgl\src\extra\widgets\meter/lv_meter.c **** 
 245:..\..\..\arduinoLCD\test\Pain Drain\libraries\lvgl\src\extra\widgets\meter/lv_meter.c **** void lv_meter_set_indicator_end_value(lv_obj_t * obj, lv_meter_indicator_t * indic, int32_t value)
 246:..\..\..\arduinoLCD\test\Pain Drain\libraries\lvgl\src\extra\widgets\meter/lv_meter.c **** {
 247:..\..\..\arduinoLCD\test\Pain Drain\libraries\lvgl\src\extra\widgets\meter/lv_meter.c ****     int32_t old_value = indic->end_value;
 248:..\..\..\arduinoLCD\test\Pain Drain\libraries\lvgl\src\extra\widgets\meter/lv_meter.c ****     indic->end_value = value;
 249:..\..\..\arduinoLCD\test\Pain Drain\libraries\lvgl\src\extra\widgets\meter/lv_meter.c **** 
 250:..\..\..\arduinoLCD\test\Pain Drain\libraries\lvgl\src\extra\widgets\meter/lv_meter.c ****     if(indic->type == LV_METER_INDICATOR_TYPE_ARC) {
 251:..\..\..\arduinoLCD\test\Pain Drain\libraries\lvgl\src\extra\widgets\meter/lv_meter.c ****         inv_arc(obj, indic, old_value, value);
 252:..\..\..\arduinoLCD\test\Pain Drain\libraries\lvgl\src\extra\widgets\meter/lv_meter.c ****     }
 253:..\..\..\arduinoLCD\test\Pain Drain\libraries\lvgl\src\extra\widgets\meter/lv_meter.c ****     else if(indic->type == LV_METER_INDICATOR_TYPE_NEEDLE_IMG || indic->type == LV_METER_INDICATOR_
 254:..\..\..\arduinoLCD\test\Pain Drain\libraries\lvgl\src\extra\widgets\meter/lv_meter.c ****         inv_line(obj, indic, old_value);
 255:..\..\..\arduinoLCD\test\Pain Drain\libraries\lvgl\src\extra\widgets\meter/lv_meter.c ****         inv_line(obj, indic, value);
 256:..\..\..\arduinoLCD\test\Pain Drain\libraries\lvgl\src\extra\widgets\meter/lv_meter.c ****     }
 257:..\..\..\arduinoLCD\test\Pain Drain\libraries\lvgl\src\extra\widgets\meter/lv_meter.c ****     else {
 258:..\..\..\arduinoLCD\test\Pain Drain\libraries\lvgl\src\extra\widgets\meter/lv_meter.c ****         lv_obj_invalidate(obj);
 259:..\..\..\arduinoLCD\test\Pain Drain\libraries\lvgl\src\extra\widgets\meter/lv_meter.c ****     }
ARM GAS  C:\Users\haske\AppData\Local\Temp\ccXBxzcA.s 			page 6


 260:..\..\..\arduinoLCD\test\Pain Drain\libraries\lvgl\src\extra\widgets\meter/lv_meter.c **** }
 261:..\..\..\arduinoLCD\test\Pain Drain\libraries\lvgl\src\extra\widgets\meter/lv_meter.c **** 
 262:..\..\..\arduinoLCD\test\Pain Drain\libraries\lvgl\src\extra\widgets\meter/lv_meter.c **** /**********************
 263:..\..\..\arduinoLCD\test\Pain Drain\libraries\lvgl\src\extra\widgets\meter/lv_meter.c ****  *   STATIC FUNCTIONS
 264:..\..\..\arduinoLCD\test\Pain Drain\libraries\lvgl\src\extra\widgets\meter/lv_meter.c ****  **********************/
 265:..\..\..\arduinoLCD\test\Pain Drain\libraries\lvgl\src\extra\widgets\meter/lv_meter.c **** 
 266:..\..\..\arduinoLCD\test\Pain Drain\libraries\lvgl\src\extra\widgets\meter/lv_meter.c **** static void lv_meter_constructor(const lv_obj_class_t * class_p, lv_obj_t * obj)
 267:..\..\..\arduinoLCD\test\Pain Drain\libraries\lvgl\src\extra\widgets\meter/lv_meter.c **** {
 268:..\..\..\arduinoLCD\test\Pain Drain\libraries\lvgl\src\extra\widgets\meter/lv_meter.c ****     LV_UNUSED(class_p);
 269:..\..\..\arduinoLCD\test\Pain Drain\libraries\lvgl\src\extra\widgets\meter/lv_meter.c ****     LV_TRACE_OBJ_CREATE("begin");
 270:..\..\..\arduinoLCD\test\Pain Drain\libraries\lvgl\src\extra\widgets\meter/lv_meter.c **** 
 271:..\..\..\arduinoLCD\test\Pain Drain\libraries\lvgl\src\extra\widgets\meter/lv_meter.c ****     lv_meter_t * meter = (lv_meter_t *)obj;
 272:..\..\..\arduinoLCD\test\Pain Drain\libraries\lvgl\src\extra\widgets\meter/lv_meter.c **** 
 273:..\..\..\arduinoLCD\test\Pain Drain\libraries\lvgl\src\extra\widgets\meter/lv_meter.c ****     _lv_ll_init(&meter->scale_ll, sizeof(lv_meter_scale_t));
 274:..\..\..\arduinoLCD\test\Pain Drain\libraries\lvgl\src\extra\widgets\meter/lv_meter.c ****     _lv_ll_init(&meter->indicator_ll, sizeof(lv_meter_indicator_t));
 275:..\..\..\arduinoLCD\test\Pain Drain\libraries\lvgl\src\extra\widgets\meter/lv_meter.c **** 
 276:..\..\..\arduinoLCD\test\Pain Drain\libraries\lvgl\src\extra\widgets\meter/lv_meter.c ****     LV_TRACE_OBJ_CREATE("finished");
 277:..\..\..\arduinoLCD\test\Pain Drain\libraries\lvgl\src\extra\widgets\meter/lv_meter.c **** }
 278:..\..\..\arduinoLCD\test\Pain Drain\libraries\lvgl\src\extra\widgets\meter/lv_meter.c **** 
 279:..\..\..\arduinoLCD\test\Pain Drain\libraries\lvgl\src\extra\widgets\meter/lv_meter.c **** static void lv_meter_destructor(const lv_obj_class_t * class_p, lv_obj_t * obj)
 280:..\..\..\arduinoLCD\test\Pain Drain\libraries\lvgl\src\extra\widgets\meter/lv_meter.c **** {
 281:..\..\..\arduinoLCD\test\Pain Drain\libraries\lvgl\src\extra\widgets\meter/lv_meter.c ****     LV_UNUSED(class_p);
 282:..\..\..\arduinoLCD\test\Pain Drain\libraries\lvgl\src\extra\widgets\meter/lv_meter.c ****     LV_ASSERT_OBJ(obj, MY_CLASS);
 283:..\..\..\arduinoLCD\test\Pain Drain\libraries\lvgl\src\extra\widgets\meter/lv_meter.c ****     lv_meter_t * meter = (lv_meter_t *)obj;
 284:..\..\..\arduinoLCD\test\Pain Drain\libraries\lvgl\src\extra\widgets\meter/lv_meter.c ****     _lv_ll_clear(&meter->indicator_ll);
 285:..\..\..\arduinoLCD\test\Pain Drain\libraries\lvgl\src\extra\widgets\meter/lv_meter.c ****     _lv_ll_clear(&meter->scale_ll);
 286:..\..\..\arduinoLCD\test\Pain Drain\libraries\lvgl\src\extra\widgets\meter/lv_meter.c **** 
 287:..\..\..\arduinoLCD\test\Pain Drain\libraries\lvgl\src\extra\widgets\meter/lv_meter.c **** }
 288:..\..\..\arduinoLCD\test\Pain Drain\libraries\lvgl\src\extra\widgets\meter/lv_meter.c **** 
 289:..\..\..\arduinoLCD\test\Pain Drain\libraries\lvgl\src\extra\widgets\meter/lv_meter.c **** static void lv_meter_event(const lv_obj_class_t * class_p, lv_event_t * e)
 290:..\..\..\arduinoLCD\test\Pain Drain\libraries\lvgl\src\extra\widgets\meter/lv_meter.c **** {
 291:..\..\..\arduinoLCD\test\Pain Drain\libraries\lvgl\src\extra\widgets\meter/lv_meter.c ****     LV_UNUSED(class_p);
 292:..\..\..\arduinoLCD\test\Pain Drain\libraries\lvgl\src\extra\widgets\meter/lv_meter.c **** 
 293:..\..\..\arduinoLCD\test\Pain Drain\libraries\lvgl\src\extra\widgets\meter/lv_meter.c ****     lv_res_t res = lv_obj_event_base(MY_CLASS, e);
 294:..\..\..\arduinoLCD\test\Pain Drain\libraries\lvgl\src\extra\widgets\meter/lv_meter.c ****     if(res != LV_RES_OK) return;
 295:..\..\..\arduinoLCD\test\Pain Drain\libraries\lvgl\src\extra\widgets\meter/lv_meter.c **** 
 296:..\..\..\arduinoLCD\test\Pain Drain\libraries\lvgl\src\extra\widgets\meter/lv_meter.c ****     lv_event_code_t code = lv_event_get_code(e);
 297:..\..\..\arduinoLCD\test\Pain Drain\libraries\lvgl\src\extra\widgets\meter/lv_meter.c ****     lv_obj_t * obj = lv_event_get_target(e);
 298:..\..\..\arduinoLCD\test\Pain Drain\libraries\lvgl\src\extra\widgets\meter/lv_meter.c ****     if(code == LV_EVENT_DRAW_MAIN) {
 299:..\..\..\arduinoLCD\test\Pain Drain\libraries\lvgl\src\extra\widgets\meter/lv_meter.c ****         lv_draw_ctx_t * draw_ctx = lv_event_get_draw_ctx(e);
 300:..\..\..\arduinoLCD\test\Pain Drain\libraries\lvgl\src\extra\widgets\meter/lv_meter.c ****         lv_area_t scale_area;
 301:..\..\..\arduinoLCD\test\Pain Drain\libraries\lvgl\src\extra\widgets\meter/lv_meter.c ****         lv_obj_get_content_coords(obj, &scale_area);
 302:..\..\..\arduinoLCD\test\Pain Drain\libraries\lvgl\src\extra\widgets\meter/lv_meter.c **** 
 303:..\..\..\arduinoLCD\test\Pain Drain\libraries\lvgl\src\extra\widgets\meter/lv_meter.c ****         draw_arcs(obj, draw_ctx, &scale_area);
 304:..\..\..\arduinoLCD\test\Pain Drain\libraries\lvgl\src\extra\widgets\meter/lv_meter.c ****         draw_ticks_and_labels(obj, draw_ctx, &scale_area);
 305:..\..\..\arduinoLCD\test\Pain Drain\libraries\lvgl\src\extra\widgets\meter/lv_meter.c ****         draw_needles(obj, draw_ctx, &scale_area);
 306:..\..\..\arduinoLCD\test\Pain Drain\libraries\lvgl\src\extra\widgets\meter/lv_meter.c **** 
 307:..\..\..\arduinoLCD\test\Pain Drain\libraries\lvgl\src\extra\widgets\meter/lv_meter.c ****         lv_coord_t r_edge = lv_area_get_width(&scale_area) / 2;
 308:..\..\..\arduinoLCD\test\Pain Drain\libraries\lvgl\src\extra\widgets\meter/lv_meter.c ****         lv_point_t scale_center;
 309:..\..\..\arduinoLCD\test\Pain Drain\libraries\lvgl\src\extra\widgets\meter/lv_meter.c ****         scale_center.x = scale_area.x1 + r_edge;
 310:..\..\..\arduinoLCD\test\Pain Drain\libraries\lvgl\src\extra\widgets\meter/lv_meter.c ****         scale_center.y = scale_area.y1 + r_edge;
 311:..\..\..\arduinoLCD\test\Pain Drain\libraries\lvgl\src\extra\widgets\meter/lv_meter.c **** 
 312:..\..\..\arduinoLCD\test\Pain Drain\libraries\lvgl\src\extra\widgets\meter/lv_meter.c ****         lv_draw_rect_dsc_t mid_dsc;
 313:..\..\..\arduinoLCD\test\Pain Drain\libraries\lvgl\src\extra\widgets\meter/lv_meter.c ****         lv_draw_rect_dsc_init(&mid_dsc);
 314:..\..\..\arduinoLCD\test\Pain Drain\libraries\lvgl\src\extra\widgets\meter/lv_meter.c ****         lv_obj_init_draw_rect_dsc(obj, LV_PART_INDICATOR, &mid_dsc);
 315:..\..\..\arduinoLCD\test\Pain Drain\libraries\lvgl\src\extra\widgets\meter/lv_meter.c ****         lv_coord_t w = lv_obj_get_style_width(obj, LV_PART_INDICATOR) / 2;
 316:..\..\..\arduinoLCD\test\Pain Drain\libraries\lvgl\src\extra\widgets\meter/lv_meter.c ****         lv_coord_t h = lv_obj_get_style_height(obj, LV_PART_INDICATOR) / 2;
ARM GAS  C:\Users\haske\AppData\Local\Temp\ccXBxzcA.s 			page 7


 317:..\..\..\arduinoLCD\test\Pain Drain\libraries\lvgl\src\extra\widgets\meter/lv_meter.c ****         lv_area_t nm_cord;
 318:..\..\..\arduinoLCD\test\Pain Drain\libraries\lvgl\src\extra\widgets\meter/lv_meter.c ****         nm_cord.x1 = scale_center.x - w;
 319:..\..\..\arduinoLCD\test\Pain Drain\libraries\lvgl\src\extra\widgets\meter/lv_meter.c ****         nm_cord.y1 = scale_center.y - h;
 320:..\..\..\arduinoLCD\test\Pain Drain\libraries\lvgl\src\extra\widgets\meter/lv_meter.c ****         nm_cord.x2 = scale_center.x + w;
 321:..\..\..\arduinoLCD\test\Pain Drain\libraries\lvgl\src\extra\widgets\meter/lv_meter.c ****         nm_cord.y2 = scale_center.y + h;
 322:..\..\..\arduinoLCD\test\Pain Drain\libraries\lvgl\src\extra\widgets\meter/lv_meter.c ****         lv_draw_rect(draw_ctx, &mid_dsc, &nm_cord);
 323:..\..\..\arduinoLCD\test\Pain Drain\libraries\lvgl\src\extra\widgets\meter/lv_meter.c ****     }
 324:..\..\..\arduinoLCD\test\Pain Drain\libraries\lvgl\src\extra\widgets\meter/lv_meter.c **** }
 325:..\..\..\arduinoLCD\test\Pain Drain\libraries\lvgl\src\extra\widgets\meter/lv_meter.c **** 
 326:..\..\..\arduinoLCD\test\Pain Drain\libraries\lvgl\src\extra\widgets\meter/lv_meter.c **** static void draw_arcs(lv_obj_t * obj, lv_draw_ctx_t * draw_ctx, const lv_area_t * scale_area)
 327:..\..\..\arduinoLCD\test\Pain Drain\libraries\lvgl\src\extra\widgets\meter/lv_meter.c **** {
  27              		.loc 1 327 0
  28              		.cfi_startproc
  29              		@ args = 0, pretend = 0, frame = 120
  30              		@ frame_needed = 0, uses_anonymous_args = 0
  31              	.LVL0:
  32 0000 F0B5     		push	{r4, r5, r6, r7, lr}
  33              		.cfi_def_cfa_offset 20
  34              		.cfi_offset 4, -20
  35              		.cfi_offset 5, -16
  36              		.cfi_offset 6, -12
  37              		.cfi_offset 7, -8
  38              		.cfi_offset 14, -4
  39 0002 5746     		mov	r7, r10
  40 0004 4E46     		mov	r6, r9
  41 0006 4546     		mov	r5, r8
  42 0008 E0B4     		push	{r5, r6, r7}
  43              		.cfi_def_cfa_offset 32
  44              		.cfi_offset 8, -32
  45              		.cfi_offset 9, -28
  46              		.cfi_offset 10, -24
  47 000a A0B0     		sub	sp, sp, #128
  48              		.cfi_def_cfa_offset 160
  49 000c 0600     		movs	r6, r0
  50 000e 0490     		str	r0, [sp, #16]
  51 0010 0F00     		movs	r7, r1
  52 0012 0591     		str	r1, [sp, #20]
  53 0014 1500     		movs	r5, r2
  54              	.LVL1:
 328:..\..\..\arduinoLCD\test\Pain Drain\libraries\lvgl\src\extra\widgets\meter/lv_meter.c ****     lv_meter_t * meter = (lv_meter_t *)obj;
 329:..\..\..\arduinoLCD\test\Pain Drain\libraries\lvgl\src\extra\widgets\meter/lv_meter.c **** 
 330:..\..\..\arduinoLCD\test\Pain Drain\libraries\lvgl\src\extra\widgets\meter/lv_meter.c ****     lv_draw_arc_dsc_t arc_dsc;
 331:..\..\..\arduinoLCD\test\Pain Drain\libraries\lvgl\src\extra\widgets\meter/lv_meter.c ****     lv_draw_arc_dsc_init(&arc_dsc);
  55              		.loc 1 331 0
  56 0016 1CAC     		add	r4, sp, #112
  57 0018 2000     		movs	r0, r4
  58              	.LVL2:
  59 001a FFF7FEFF 		bl	lv_draw_arc_dsc_init
  60              	.LVL3:
  61              	.LBB49:
  62              	.LBB50:
  63              		.file 2 "c:\\projects\\paindrain\\arduinolcd\\test\\pain drain\\libraries\\lvgl\\src/core/lv_obj_s
   1:c:\projects\paindrain\arduinolcd\test\pain drain\libraries\lvgl\src/core\lv_obj_style_gen.h **** static inline lv_coord_t lv_obj_get_style_width(const struct _lv_obj_t * obj, uint32_t part)
   2:c:\projects\paindrain\arduinolcd\test\pain drain\libraries\lvgl\src/core\lv_obj_style_gen.h **** {
   3:c:\projects\paindrain\arduinolcd\test\pain drain\libraries\lvgl\src/core\lv_obj_style_gen.h ****     lv_style_value_t v = lv_obj_get_style_prop(obj, part, LV_STYLE_WIDTH);
   4:c:\projects\paindrain\arduinolcd\test\pain drain\libraries\lvgl\src/core\lv_obj_style_gen.h ****     return (lv_coord_t)v.num;
   5:c:\projects\paindrain\arduinolcd\test\pain drain\libraries\lvgl\src/core\lv_obj_style_gen.h **** }
ARM GAS  C:\Users\haske\AppData\Local\Temp\ccXBxzcA.s 			page 8


   6:c:\projects\paindrain\arduinolcd\test\pain drain\libraries\lvgl\src/core\lv_obj_style_gen.h **** 
   7:c:\projects\paindrain\arduinolcd\test\pain drain\libraries\lvgl\src/core\lv_obj_style_gen.h **** static inline lv_coord_t lv_obj_get_style_min_width(const struct _lv_obj_t * obj, uint32_t part)
   8:c:\projects\paindrain\arduinolcd\test\pain drain\libraries\lvgl\src/core\lv_obj_style_gen.h **** {
   9:c:\projects\paindrain\arduinolcd\test\pain drain\libraries\lvgl\src/core\lv_obj_style_gen.h ****     lv_style_value_t v = lv_obj_get_style_prop(obj, part, LV_STYLE_MIN_WIDTH);
  10:c:\projects\paindrain\arduinolcd\test\pain drain\libraries\lvgl\src/core\lv_obj_style_gen.h ****     return (lv_coord_t)v.num;
  11:c:\projects\paindrain\arduinolcd\test\pain drain\libraries\lvgl\src/core\lv_obj_style_gen.h **** }
  12:c:\projects\paindrain\arduinolcd\test\pain drain\libraries\lvgl\src/core\lv_obj_style_gen.h **** 
  13:c:\projects\paindrain\arduinolcd\test\pain drain\libraries\lvgl\src/core\lv_obj_style_gen.h **** static inline lv_coord_t lv_obj_get_style_max_width(const struct _lv_obj_t * obj, uint32_t part)
  14:c:\projects\paindrain\arduinolcd\test\pain drain\libraries\lvgl\src/core\lv_obj_style_gen.h **** {
  15:c:\projects\paindrain\arduinolcd\test\pain drain\libraries\lvgl\src/core\lv_obj_style_gen.h ****     lv_style_value_t v = lv_obj_get_style_prop(obj, part, LV_STYLE_MAX_WIDTH);
  16:c:\projects\paindrain\arduinolcd\test\pain drain\libraries\lvgl\src/core\lv_obj_style_gen.h ****     return (lv_coord_t)v.num;
  17:c:\projects\paindrain\arduinolcd\test\pain drain\libraries\lvgl\src/core\lv_obj_style_gen.h **** }
  18:c:\projects\paindrain\arduinolcd\test\pain drain\libraries\lvgl\src/core\lv_obj_style_gen.h **** 
  19:c:\projects\paindrain\arduinolcd\test\pain drain\libraries\lvgl\src/core\lv_obj_style_gen.h **** static inline lv_coord_t lv_obj_get_style_height(const struct _lv_obj_t * obj, uint32_t part)
  20:c:\projects\paindrain\arduinolcd\test\pain drain\libraries\lvgl\src/core\lv_obj_style_gen.h **** {
  21:c:\projects\paindrain\arduinolcd\test\pain drain\libraries\lvgl\src/core\lv_obj_style_gen.h ****     lv_style_value_t v = lv_obj_get_style_prop(obj, part, LV_STYLE_HEIGHT);
  22:c:\projects\paindrain\arduinolcd\test\pain drain\libraries\lvgl\src/core\lv_obj_style_gen.h ****     return (lv_coord_t)v.num;
  23:c:\projects\paindrain\arduinolcd\test\pain drain\libraries\lvgl\src/core\lv_obj_style_gen.h **** }
  24:c:\projects\paindrain\arduinolcd\test\pain drain\libraries\lvgl\src/core\lv_obj_style_gen.h **** 
  25:c:\projects\paindrain\arduinolcd\test\pain drain\libraries\lvgl\src/core\lv_obj_style_gen.h **** static inline lv_coord_t lv_obj_get_style_min_height(const struct _lv_obj_t * obj, uint32_t part)
  26:c:\projects\paindrain\arduinolcd\test\pain drain\libraries\lvgl\src/core\lv_obj_style_gen.h **** {
  27:c:\projects\paindrain\arduinolcd\test\pain drain\libraries\lvgl\src/core\lv_obj_style_gen.h ****     lv_style_value_t v = lv_obj_get_style_prop(obj, part, LV_STYLE_MIN_HEIGHT);
  28:c:\projects\paindrain\arduinolcd\test\pain drain\libraries\lvgl\src/core\lv_obj_style_gen.h ****     return (lv_coord_t)v.num;
  29:c:\projects\paindrain\arduinolcd\test\pain drain\libraries\lvgl\src/core\lv_obj_style_gen.h **** }
  30:c:\projects\paindrain\arduinolcd\test\pain drain\libraries\lvgl\src/core\lv_obj_style_gen.h **** 
  31:c:\projects\paindrain\arduinolcd\test\pain drain\libraries\lvgl\src/core\lv_obj_style_gen.h **** static inline lv_coord_t lv_obj_get_style_max_height(const struct _lv_obj_t * obj, uint32_t part)
  32:c:\projects\paindrain\arduinolcd\test\pain drain\libraries\lvgl\src/core\lv_obj_style_gen.h **** {
  33:c:\projects\paindrain\arduinolcd\test\pain drain\libraries\lvgl\src/core\lv_obj_style_gen.h ****     lv_style_value_t v = lv_obj_get_style_prop(obj, part, LV_STYLE_MAX_HEIGHT);
  34:c:\projects\paindrain\arduinolcd\test\pain drain\libraries\lvgl\src/core\lv_obj_style_gen.h ****     return (lv_coord_t)v.num;
  35:c:\projects\paindrain\arduinolcd\test\pain drain\libraries\lvgl\src/core\lv_obj_style_gen.h **** }
  36:c:\projects\paindrain\arduinolcd\test\pain drain\libraries\lvgl\src/core\lv_obj_style_gen.h **** 
  37:c:\projects\paindrain\arduinolcd\test\pain drain\libraries\lvgl\src/core\lv_obj_style_gen.h **** static inline lv_coord_t lv_obj_get_style_x(const struct _lv_obj_t * obj, uint32_t part)
  38:c:\projects\paindrain\arduinolcd\test\pain drain\libraries\lvgl\src/core\lv_obj_style_gen.h **** {
  39:c:\projects\paindrain\arduinolcd\test\pain drain\libraries\lvgl\src/core\lv_obj_style_gen.h ****     lv_style_value_t v = lv_obj_get_style_prop(obj, part, LV_STYLE_X);
  40:c:\projects\paindrain\arduinolcd\test\pain drain\libraries\lvgl\src/core\lv_obj_style_gen.h ****     return (lv_coord_t)v.num;
  41:c:\projects\paindrain\arduinolcd\test\pain drain\libraries\lvgl\src/core\lv_obj_style_gen.h **** }
  42:c:\projects\paindrain\arduinolcd\test\pain drain\libraries\lvgl\src/core\lv_obj_style_gen.h **** 
  43:c:\projects\paindrain\arduinolcd\test\pain drain\libraries\lvgl\src/core\lv_obj_style_gen.h **** static inline lv_coord_t lv_obj_get_style_y(const struct _lv_obj_t * obj, uint32_t part)
  44:c:\projects\paindrain\arduinolcd\test\pain drain\libraries\lvgl\src/core\lv_obj_style_gen.h **** {
  45:c:\projects\paindrain\arduinolcd\test\pain drain\libraries\lvgl\src/core\lv_obj_style_gen.h ****     lv_style_value_t v = lv_obj_get_style_prop(obj, part, LV_STYLE_Y);
  46:c:\projects\paindrain\arduinolcd\test\pain drain\libraries\lvgl\src/core\lv_obj_style_gen.h ****     return (lv_coord_t)v.num;
  47:c:\projects\paindrain\arduinolcd\test\pain drain\libraries\lvgl\src/core\lv_obj_style_gen.h **** }
  48:c:\projects\paindrain\arduinolcd\test\pain drain\libraries\lvgl\src/core\lv_obj_style_gen.h **** 
  49:c:\projects\paindrain\arduinolcd\test\pain drain\libraries\lvgl\src/core\lv_obj_style_gen.h **** static inline lv_align_t lv_obj_get_style_align(const struct _lv_obj_t * obj, uint32_t part)
  50:c:\projects\paindrain\arduinolcd\test\pain drain\libraries\lvgl\src/core\lv_obj_style_gen.h **** {
  51:c:\projects\paindrain\arduinolcd\test\pain drain\libraries\lvgl\src/core\lv_obj_style_gen.h ****     lv_style_value_t v = lv_obj_get_style_prop(obj, part, LV_STYLE_ALIGN);
  52:c:\projects\paindrain\arduinolcd\test\pain drain\libraries\lvgl\src/core\lv_obj_style_gen.h ****     return (lv_align_t)v.num;
  53:c:\projects\paindrain\arduinolcd\test\pain drain\libraries\lvgl\src/core\lv_obj_style_gen.h **** }
  54:c:\projects\paindrain\arduinolcd\test\pain drain\libraries\lvgl\src/core\lv_obj_style_gen.h **** 
  55:c:\projects\paindrain\arduinolcd\test\pain drain\libraries\lvgl\src/core\lv_obj_style_gen.h **** static inline lv_coord_t lv_obj_get_style_transform_width(const struct _lv_obj_t * obj, uint32_t pa
  56:c:\projects\paindrain\arduinolcd\test\pain drain\libraries\lvgl\src/core\lv_obj_style_gen.h **** {
  57:c:\projects\paindrain\arduinolcd\test\pain drain\libraries\lvgl\src/core\lv_obj_style_gen.h ****     lv_style_value_t v = lv_obj_get_style_prop(obj, part, LV_STYLE_TRANSFORM_WIDTH);
  58:c:\projects\paindrain\arduinolcd\test\pain drain\libraries\lvgl\src/core\lv_obj_style_gen.h ****     return (lv_coord_t)v.num;
  59:c:\projects\paindrain\arduinolcd\test\pain drain\libraries\lvgl\src/core\lv_obj_style_gen.h **** }
  60:c:\projects\paindrain\arduinolcd\test\pain drain\libraries\lvgl\src/core\lv_obj_style_gen.h **** 
  61:c:\projects\paindrain\arduinolcd\test\pain drain\libraries\lvgl\src/core\lv_obj_style_gen.h **** static inline lv_coord_t lv_obj_get_style_transform_height(const struct _lv_obj_t * obj, uint32_t p
  62:c:\projects\paindrain\arduinolcd\test\pain drain\libraries\lvgl\src/core\lv_obj_style_gen.h **** {
ARM GAS  C:\Users\haske\AppData\Local\Temp\ccXBxzcA.s 			page 9


  63:c:\projects\paindrain\arduinolcd\test\pain drain\libraries\lvgl\src/core\lv_obj_style_gen.h ****     lv_style_value_t v = lv_obj_get_style_prop(obj, part, LV_STYLE_TRANSFORM_HEIGHT);
  64:c:\projects\paindrain\arduinolcd\test\pain drain\libraries\lvgl\src/core\lv_obj_style_gen.h ****     return (lv_coord_t)v.num;
  65:c:\projects\paindrain\arduinolcd\test\pain drain\libraries\lvgl\src/core\lv_obj_style_gen.h **** }
  66:c:\projects\paindrain\arduinolcd\test\pain drain\libraries\lvgl\src/core\lv_obj_style_gen.h **** 
  67:c:\projects\paindrain\arduinolcd\test\pain drain\libraries\lvgl\src/core\lv_obj_style_gen.h **** static inline lv_coord_t lv_obj_get_style_translate_x(const struct _lv_obj_t * obj, uint32_t part)
  68:c:\projects\paindrain\arduinolcd\test\pain drain\libraries\lvgl\src/core\lv_obj_style_gen.h **** {
  69:c:\projects\paindrain\arduinolcd\test\pain drain\libraries\lvgl\src/core\lv_obj_style_gen.h ****     lv_style_value_t v = lv_obj_get_style_prop(obj, part, LV_STYLE_TRANSLATE_X);
  70:c:\projects\paindrain\arduinolcd\test\pain drain\libraries\lvgl\src/core\lv_obj_style_gen.h ****     return (lv_coord_t)v.num;
  71:c:\projects\paindrain\arduinolcd\test\pain drain\libraries\lvgl\src/core\lv_obj_style_gen.h **** }
  72:c:\projects\paindrain\arduinolcd\test\pain drain\libraries\lvgl\src/core\lv_obj_style_gen.h **** 
  73:c:\projects\paindrain\arduinolcd\test\pain drain\libraries\lvgl\src/core\lv_obj_style_gen.h **** static inline lv_coord_t lv_obj_get_style_translate_y(const struct _lv_obj_t * obj, uint32_t part)
  74:c:\projects\paindrain\arduinolcd\test\pain drain\libraries\lvgl\src/core\lv_obj_style_gen.h **** {
  75:c:\projects\paindrain\arduinolcd\test\pain drain\libraries\lvgl\src/core\lv_obj_style_gen.h ****     lv_style_value_t v = lv_obj_get_style_prop(obj, part, LV_STYLE_TRANSLATE_Y);
  76:c:\projects\paindrain\arduinolcd\test\pain drain\libraries\lvgl\src/core\lv_obj_style_gen.h ****     return (lv_coord_t)v.num;
  77:c:\projects\paindrain\arduinolcd\test\pain drain\libraries\lvgl\src/core\lv_obj_style_gen.h **** }
  78:c:\projects\paindrain\arduinolcd\test\pain drain\libraries\lvgl\src/core\lv_obj_style_gen.h **** 
  79:c:\projects\paindrain\arduinolcd\test\pain drain\libraries\lvgl\src/core\lv_obj_style_gen.h **** static inline lv_coord_t lv_obj_get_style_transform_zoom(const struct _lv_obj_t * obj, uint32_t par
  80:c:\projects\paindrain\arduinolcd\test\pain drain\libraries\lvgl\src/core\lv_obj_style_gen.h **** {
  81:c:\projects\paindrain\arduinolcd\test\pain drain\libraries\lvgl\src/core\lv_obj_style_gen.h ****     lv_style_value_t v = lv_obj_get_style_prop(obj, part, LV_STYLE_TRANSFORM_ZOOM);
  82:c:\projects\paindrain\arduinolcd\test\pain drain\libraries\lvgl\src/core\lv_obj_style_gen.h ****     return (lv_coord_t)v.num;
  83:c:\projects\paindrain\arduinolcd\test\pain drain\libraries\lvgl\src/core\lv_obj_style_gen.h **** }
  84:c:\projects\paindrain\arduinolcd\test\pain drain\libraries\lvgl\src/core\lv_obj_style_gen.h **** 
  85:c:\projects\paindrain\arduinolcd\test\pain drain\libraries\lvgl\src/core\lv_obj_style_gen.h **** static inline lv_coord_t lv_obj_get_style_transform_angle(const struct _lv_obj_t * obj, uint32_t pa
  86:c:\projects\paindrain\arduinolcd\test\pain drain\libraries\lvgl\src/core\lv_obj_style_gen.h **** {
  87:c:\projects\paindrain\arduinolcd\test\pain drain\libraries\lvgl\src/core\lv_obj_style_gen.h ****     lv_style_value_t v = lv_obj_get_style_prop(obj, part, LV_STYLE_TRANSFORM_ANGLE);
  88:c:\projects\paindrain\arduinolcd\test\pain drain\libraries\lvgl\src/core\lv_obj_style_gen.h ****     return (lv_coord_t)v.num;
  89:c:\projects\paindrain\arduinolcd\test\pain drain\libraries\lvgl\src/core\lv_obj_style_gen.h **** }
  90:c:\projects\paindrain\arduinolcd\test\pain drain\libraries\lvgl\src/core\lv_obj_style_gen.h **** 
  91:c:\projects\paindrain\arduinolcd\test\pain drain\libraries\lvgl\src/core\lv_obj_style_gen.h **** static inline lv_coord_t lv_obj_get_style_transform_pivot_x(const struct _lv_obj_t * obj, uint32_t 
  92:c:\projects\paindrain\arduinolcd\test\pain drain\libraries\lvgl\src/core\lv_obj_style_gen.h **** {
  93:c:\projects\paindrain\arduinolcd\test\pain drain\libraries\lvgl\src/core\lv_obj_style_gen.h ****     lv_style_value_t v = lv_obj_get_style_prop(obj, part, LV_STYLE_TRANSFORM_PIVOT_X);
  94:c:\projects\paindrain\arduinolcd\test\pain drain\libraries\lvgl\src/core\lv_obj_style_gen.h ****     return (lv_coord_t)v.num;
  95:c:\projects\paindrain\arduinolcd\test\pain drain\libraries\lvgl\src/core\lv_obj_style_gen.h **** }
  96:c:\projects\paindrain\arduinolcd\test\pain drain\libraries\lvgl\src/core\lv_obj_style_gen.h **** 
  97:c:\projects\paindrain\arduinolcd\test\pain drain\libraries\lvgl\src/core\lv_obj_style_gen.h **** static inline lv_coord_t lv_obj_get_style_transform_pivot_y(const struct _lv_obj_t * obj, uint32_t 
  98:c:\projects\paindrain\arduinolcd\test\pain drain\libraries\lvgl\src/core\lv_obj_style_gen.h **** {
  99:c:\projects\paindrain\arduinolcd\test\pain drain\libraries\lvgl\src/core\lv_obj_style_gen.h ****     lv_style_value_t v = lv_obj_get_style_prop(obj, part, LV_STYLE_TRANSFORM_PIVOT_Y);
 100:c:\projects\paindrain\arduinolcd\test\pain drain\libraries\lvgl\src/core\lv_obj_style_gen.h ****     return (lv_coord_t)v.num;
 101:c:\projects\paindrain\arduinolcd\test\pain drain\libraries\lvgl\src/core\lv_obj_style_gen.h **** }
 102:c:\projects\paindrain\arduinolcd\test\pain drain\libraries\lvgl\src/core\lv_obj_style_gen.h **** 
 103:c:\projects\paindrain\arduinolcd\test\pain drain\libraries\lvgl\src/core\lv_obj_style_gen.h **** static inline lv_coord_t lv_obj_get_style_pad_top(const struct _lv_obj_t * obj, uint32_t part)
 104:c:\projects\paindrain\arduinolcd\test\pain drain\libraries\lvgl\src/core\lv_obj_style_gen.h **** {
 105:c:\projects\paindrain\arduinolcd\test\pain drain\libraries\lvgl\src/core\lv_obj_style_gen.h ****     lv_style_value_t v = lv_obj_get_style_prop(obj, part, LV_STYLE_PAD_TOP);
 106:c:\projects\paindrain\arduinolcd\test\pain drain\libraries\lvgl\src/core\lv_obj_style_gen.h ****     return (lv_coord_t)v.num;
 107:c:\projects\paindrain\arduinolcd\test\pain drain\libraries\lvgl\src/core\lv_obj_style_gen.h **** }
 108:c:\projects\paindrain\arduinolcd\test\pain drain\libraries\lvgl\src/core\lv_obj_style_gen.h **** 
 109:c:\projects\paindrain\arduinolcd\test\pain drain\libraries\lvgl\src/core\lv_obj_style_gen.h **** static inline lv_coord_t lv_obj_get_style_pad_bottom(const struct _lv_obj_t * obj, uint32_t part)
 110:c:\projects\paindrain\arduinolcd\test\pain drain\libraries\lvgl\src/core\lv_obj_style_gen.h **** {
 111:c:\projects\paindrain\arduinolcd\test\pain drain\libraries\lvgl\src/core\lv_obj_style_gen.h ****     lv_style_value_t v = lv_obj_get_style_prop(obj, part, LV_STYLE_PAD_BOTTOM);
 112:c:\projects\paindrain\arduinolcd\test\pain drain\libraries\lvgl\src/core\lv_obj_style_gen.h ****     return (lv_coord_t)v.num;
 113:c:\projects\paindrain\arduinolcd\test\pain drain\libraries\lvgl\src/core\lv_obj_style_gen.h **** }
 114:c:\projects\paindrain\arduinolcd\test\pain drain\libraries\lvgl\src/core\lv_obj_style_gen.h **** 
 115:c:\projects\paindrain\arduinolcd\test\pain drain\libraries\lvgl\src/core\lv_obj_style_gen.h **** static inline lv_coord_t lv_obj_get_style_pad_left(const struct _lv_obj_t * obj, uint32_t part)
 116:c:\projects\paindrain\arduinolcd\test\pain drain\libraries\lvgl\src/core\lv_obj_style_gen.h **** {
 117:c:\projects\paindrain\arduinolcd\test\pain drain\libraries\lvgl\src/core\lv_obj_style_gen.h ****     lv_style_value_t v = lv_obj_get_style_prop(obj, part, LV_STYLE_PAD_LEFT);
 118:c:\projects\paindrain\arduinolcd\test\pain drain\libraries\lvgl\src/core\lv_obj_style_gen.h ****     return (lv_coord_t)v.num;
 119:c:\projects\paindrain\arduinolcd\test\pain drain\libraries\lvgl\src/core\lv_obj_style_gen.h **** }
ARM GAS  C:\Users\haske\AppData\Local\Temp\ccXBxzcA.s 			page 10


 120:c:\projects\paindrain\arduinolcd\test\pain drain\libraries\lvgl\src/core\lv_obj_style_gen.h **** 
 121:c:\projects\paindrain\arduinolcd\test\pain drain\libraries\lvgl\src/core\lv_obj_style_gen.h **** static inline lv_coord_t lv_obj_get_style_pad_right(const struct _lv_obj_t * obj, uint32_t part)
 122:c:\projects\paindrain\arduinolcd\test\pain drain\libraries\lvgl\src/core\lv_obj_style_gen.h **** {
 123:c:\projects\paindrain\arduinolcd\test\pain drain\libraries\lvgl\src/core\lv_obj_style_gen.h ****     lv_style_value_t v = lv_obj_get_style_prop(obj, part, LV_STYLE_PAD_RIGHT);
 124:c:\projects\paindrain\arduinolcd\test\pain drain\libraries\lvgl\src/core\lv_obj_style_gen.h ****     return (lv_coord_t)v.num;
 125:c:\projects\paindrain\arduinolcd\test\pain drain\libraries\lvgl\src/core\lv_obj_style_gen.h **** }
 126:c:\projects\paindrain\arduinolcd\test\pain drain\libraries\lvgl\src/core\lv_obj_style_gen.h **** 
 127:c:\projects\paindrain\arduinolcd\test\pain drain\libraries\lvgl\src/core\lv_obj_style_gen.h **** static inline lv_coord_t lv_obj_get_style_pad_row(const struct _lv_obj_t * obj, uint32_t part)
 128:c:\projects\paindrain\arduinolcd\test\pain drain\libraries\lvgl\src/core\lv_obj_style_gen.h **** {
 129:c:\projects\paindrain\arduinolcd\test\pain drain\libraries\lvgl\src/core\lv_obj_style_gen.h ****     lv_style_value_t v = lv_obj_get_style_prop(obj, part, LV_STYLE_PAD_ROW);
 130:c:\projects\paindrain\arduinolcd\test\pain drain\libraries\lvgl\src/core\lv_obj_style_gen.h ****     return (lv_coord_t)v.num;
 131:c:\projects\paindrain\arduinolcd\test\pain drain\libraries\lvgl\src/core\lv_obj_style_gen.h **** }
 132:c:\projects\paindrain\arduinolcd\test\pain drain\libraries\lvgl\src/core\lv_obj_style_gen.h **** 
 133:c:\projects\paindrain\arduinolcd\test\pain drain\libraries\lvgl\src/core\lv_obj_style_gen.h **** static inline lv_coord_t lv_obj_get_style_pad_column(const struct _lv_obj_t * obj, uint32_t part)
 134:c:\projects\paindrain\arduinolcd\test\pain drain\libraries\lvgl\src/core\lv_obj_style_gen.h **** {
 135:c:\projects\paindrain\arduinolcd\test\pain drain\libraries\lvgl\src/core\lv_obj_style_gen.h ****     lv_style_value_t v = lv_obj_get_style_prop(obj, part, LV_STYLE_PAD_COLUMN);
 136:c:\projects\paindrain\arduinolcd\test\pain drain\libraries\lvgl\src/core\lv_obj_style_gen.h ****     return (lv_coord_t)v.num;
 137:c:\projects\paindrain\arduinolcd\test\pain drain\libraries\lvgl\src/core\lv_obj_style_gen.h **** }
 138:c:\projects\paindrain\arduinolcd\test\pain drain\libraries\lvgl\src/core\lv_obj_style_gen.h **** 
 139:c:\projects\paindrain\arduinolcd\test\pain drain\libraries\lvgl\src/core\lv_obj_style_gen.h **** static inline lv_color_t lv_obj_get_style_bg_color(const struct _lv_obj_t * obj, uint32_t part)
 140:c:\projects\paindrain\arduinolcd\test\pain drain\libraries\lvgl\src/core\lv_obj_style_gen.h **** {
 141:c:\projects\paindrain\arduinolcd\test\pain drain\libraries\lvgl\src/core\lv_obj_style_gen.h ****     lv_style_value_t v = lv_obj_get_style_prop(obj, part, LV_STYLE_BG_COLOR);
 142:c:\projects\paindrain\arduinolcd\test\pain drain\libraries\lvgl\src/core\lv_obj_style_gen.h ****     return v.color;
 143:c:\projects\paindrain\arduinolcd\test\pain drain\libraries\lvgl\src/core\lv_obj_style_gen.h **** }
 144:c:\projects\paindrain\arduinolcd\test\pain drain\libraries\lvgl\src/core\lv_obj_style_gen.h **** 
 145:c:\projects\paindrain\arduinolcd\test\pain drain\libraries\lvgl\src/core\lv_obj_style_gen.h **** static inline lv_color_t lv_obj_get_style_bg_color_filtered(const struct _lv_obj_t * obj, uint32_t 
 146:c:\projects\paindrain\arduinolcd\test\pain drain\libraries\lvgl\src/core\lv_obj_style_gen.h **** {
 147:c:\projects\paindrain\arduinolcd\test\pain drain\libraries\lvgl\src/core\lv_obj_style_gen.h ****     lv_style_value_t v = _lv_obj_style_apply_color_filter(obj, part, lv_obj_get_style_prop(obj, par
 148:c:\projects\paindrain\arduinolcd\test\pain drain\libraries\lvgl\src/core\lv_obj_style_gen.h ****     return v.color;
 149:c:\projects\paindrain\arduinolcd\test\pain drain\libraries\lvgl\src/core\lv_obj_style_gen.h **** }
 150:c:\projects\paindrain\arduinolcd\test\pain drain\libraries\lvgl\src/core\lv_obj_style_gen.h **** 
 151:c:\projects\paindrain\arduinolcd\test\pain drain\libraries\lvgl\src/core\lv_obj_style_gen.h **** static inline lv_opa_t lv_obj_get_style_bg_opa(const struct _lv_obj_t * obj, uint32_t part)
 152:c:\projects\paindrain\arduinolcd\test\pain drain\libraries\lvgl\src/core\lv_obj_style_gen.h **** {
 153:c:\projects\paindrain\arduinolcd\test\pain drain\libraries\lvgl\src/core\lv_obj_style_gen.h ****     lv_style_value_t v = lv_obj_get_style_prop(obj, part, LV_STYLE_BG_OPA);
 154:c:\projects\paindrain\arduinolcd\test\pain drain\libraries\lvgl\src/core\lv_obj_style_gen.h ****     return (lv_opa_t)v.num;
 155:c:\projects\paindrain\arduinolcd\test\pain drain\libraries\lvgl\src/core\lv_obj_style_gen.h **** }
 156:c:\projects\paindrain\arduinolcd\test\pain drain\libraries\lvgl\src/core\lv_obj_style_gen.h **** 
 157:c:\projects\paindrain\arduinolcd\test\pain drain\libraries\lvgl\src/core\lv_obj_style_gen.h **** static inline lv_color_t lv_obj_get_style_bg_grad_color(const struct _lv_obj_t * obj, uint32_t part
 158:c:\projects\paindrain\arduinolcd\test\pain drain\libraries\lvgl\src/core\lv_obj_style_gen.h **** {
 159:c:\projects\paindrain\arduinolcd\test\pain drain\libraries\lvgl\src/core\lv_obj_style_gen.h ****     lv_style_value_t v = lv_obj_get_style_prop(obj, part, LV_STYLE_BG_GRAD_COLOR);
 160:c:\projects\paindrain\arduinolcd\test\pain drain\libraries\lvgl\src/core\lv_obj_style_gen.h ****     return v.color;
 161:c:\projects\paindrain\arduinolcd\test\pain drain\libraries\lvgl\src/core\lv_obj_style_gen.h **** }
 162:c:\projects\paindrain\arduinolcd\test\pain drain\libraries\lvgl\src/core\lv_obj_style_gen.h **** 
 163:c:\projects\paindrain\arduinolcd\test\pain drain\libraries\lvgl\src/core\lv_obj_style_gen.h **** static inline lv_color_t lv_obj_get_style_bg_grad_color_filtered(const struct _lv_obj_t * obj, uint
 164:c:\projects\paindrain\arduinolcd\test\pain drain\libraries\lvgl\src/core\lv_obj_style_gen.h **** {
 165:c:\projects\paindrain\arduinolcd\test\pain drain\libraries\lvgl\src/core\lv_obj_style_gen.h ****     lv_style_value_t v = _lv_obj_style_apply_color_filter(obj, part, lv_obj_get_style_prop(obj, par
 166:c:\projects\paindrain\arduinolcd\test\pain drain\libraries\lvgl\src/core\lv_obj_style_gen.h ****     return v.color;
 167:c:\projects\paindrain\arduinolcd\test\pain drain\libraries\lvgl\src/core\lv_obj_style_gen.h **** }
 168:c:\projects\paindrain\arduinolcd\test\pain drain\libraries\lvgl\src/core\lv_obj_style_gen.h **** 
 169:c:\projects\paindrain\arduinolcd\test\pain drain\libraries\lvgl\src/core\lv_obj_style_gen.h **** static inline lv_grad_dir_t lv_obj_get_style_bg_grad_dir(const struct _lv_obj_t * obj, uint32_t par
 170:c:\projects\paindrain\arduinolcd\test\pain drain\libraries\lvgl\src/core\lv_obj_style_gen.h **** {
 171:c:\projects\paindrain\arduinolcd\test\pain drain\libraries\lvgl\src/core\lv_obj_style_gen.h ****     lv_style_value_t v = lv_obj_get_style_prop(obj, part, LV_STYLE_BG_GRAD_DIR);
 172:c:\projects\paindrain\arduinolcd\test\pain drain\libraries\lvgl\src/core\lv_obj_style_gen.h ****     return (lv_grad_dir_t)v.num;
 173:c:\projects\paindrain\arduinolcd\test\pain drain\libraries\lvgl\src/core\lv_obj_style_gen.h **** }
 174:c:\projects\paindrain\arduinolcd\test\pain drain\libraries\lvgl\src/core\lv_obj_style_gen.h **** 
 175:c:\projects\paindrain\arduinolcd\test\pain drain\libraries\lvgl\src/core\lv_obj_style_gen.h **** static inline lv_coord_t lv_obj_get_style_bg_main_stop(const struct _lv_obj_t * obj, uint32_t part)
 176:c:\projects\paindrain\arduinolcd\test\pain drain\libraries\lvgl\src/core\lv_obj_style_gen.h **** {
ARM GAS  C:\Users\haske\AppData\Local\Temp\ccXBxzcA.s 			page 11


 177:c:\projects\paindrain\arduinolcd\test\pain drain\libraries\lvgl\src/core\lv_obj_style_gen.h ****     lv_style_value_t v = lv_obj_get_style_prop(obj, part, LV_STYLE_BG_MAIN_STOP);
 178:c:\projects\paindrain\arduinolcd\test\pain drain\libraries\lvgl\src/core\lv_obj_style_gen.h ****     return (lv_coord_t)v.num;
 179:c:\projects\paindrain\arduinolcd\test\pain drain\libraries\lvgl\src/core\lv_obj_style_gen.h **** }
 180:c:\projects\paindrain\arduinolcd\test\pain drain\libraries\lvgl\src/core\lv_obj_style_gen.h **** 
 181:c:\projects\paindrain\arduinolcd\test\pain drain\libraries\lvgl\src/core\lv_obj_style_gen.h **** static inline lv_coord_t lv_obj_get_style_bg_grad_stop(const struct _lv_obj_t * obj, uint32_t part)
 182:c:\projects\paindrain\arduinolcd\test\pain drain\libraries\lvgl\src/core\lv_obj_style_gen.h **** {
 183:c:\projects\paindrain\arduinolcd\test\pain drain\libraries\lvgl\src/core\lv_obj_style_gen.h ****     lv_style_value_t v = lv_obj_get_style_prop(obj, part, LV_STYLE_BG_GRAD_STOP);
 184:c:\projects\paindrain\arduinolcd\test\pain drain\libraries\lvgl\src/core\lv_obj_style_gen.h ****     return (lv_coord_t)v.num;
 185:c:\projects\paindrain\arduinolcd\test\pain drain\libraries\lvgl\src/core\lv_obj_style_gen.h **** }
 186:c:\projects\paindrain\arduinolcd\test\pain drain\libraries\lvgl\src/core\lv_obj_style_gen.h **** 
 187:c:\projects\paindrain\arduinolcd\test\pain drain\libraries\lvgl\src/core\lv_obj_style_gen.h **** static inline const lv_grad_dsc_t * lv_obj_get_style_bg_grad(const struct _lv_obj_t * obj, uint32_t
 188:c:\projects\paindrain\arduinolcd\test\pain drain\libraries\lvgl\src/core\lv_obj_style_gen.h **** {
 189:c:\projects\paindrain\arduinolcd\test\pain drain\libraries\lvgl\src/core\lv_obj_style_gen.h ****     lv_style_value_t v = lv_obj_get_style_prop(obj, part, LV_STYLE_BG_GRAD);
 190:c:\projects\paindrain\arduinolcd\test\pain drain\libraries\lvgl\src/core\lv_obj_style_gen.h ****     return (const lv_grad_dsc_t *)v.ptr;
 191:c:\projects\paindrain\arduinolcd\test\pain drain\libraries\lvgl\src/core\lv_obj_style_gen.h **** }
 192:c:\projects\paindrain\arduinolcd\test\pain drain\libraries\lvgl\src/core\lv_obj_style_gen.h **** 
 193:c:\projects\paindrain\arduinolcd\test\pain drain\libraries\lvgl\src/core\lv_obj_style_gen.h **** static inline lv_dither_mode_t lv_obj_get_style_bg_dither_mode(const struct _lv_obj_t * obj, uint32
 194:c:\projects\paindrain\arduinolcd\test\pain drain\libraries\lvgl\src/core\lv_obj_style_gen.h **** {
 195:c:\projects\paindrain\arduinolcd\test\pain drain\libraries\lvgl\src/core\lv_obj_style_gen.h ****     lv_style_value_t v = lv_obj_get_style_prop(obj, part, LV_STYLE_BG_DITHER_MODE);
 196:c:\projects\paindrain\arduinolcd\test\pain drain\libraries\lvgl\src/core\lv_obj_style_gen.h ****     return (lv_dither_mode_t)v.num;
 197:c:\projects\paindrain\arduinolcd\test\pain drain\libraries\lvgl\src/core\lv_obj_style_gen.h **** }
 198:c:\projects\paindrain\arduinolcd\test\pain drain\libraries\lvgl\src/core\lv_obj_style_gen.h **** 
 199:c:\projects\paindrain\arduinolcd\test\pain drain\libraries\lvgl\src/core\lv_obj_style_gen.h **** static inline const void * lv_obj_get_style_bg_img_src(const struct _lv_obj_t * obj, uint32_t part)
 200:c:\projects\paindrain\arduinolcd\test\pain drain\libraries\lvgl\src/core\lv_obj_style_gen.h **** {
 201:c:\projects\paindrain\arduinolcd\test\pain drain\libraries\lvgl\src/core\lv_obj_style_gen.h ****     lv_style_value_t v = lv_obj_get_style_prop(obj, part, LV_STYLE_BG_IMG_SRC);
 202:c:\projects\paindrain\arduinolcd\test\pain drain\libraries\lvgl\src/core\lv_obj_style_gen.h ****     return (const void *)v.ptr;
 203:c:\projects\paindrain\arduinolcd\test\pain drain\libraries\lvgl\src/core\lv_obj_style_gen.h **** }
 204:c:\projects\paindrain\arduinolcd\test\pain drain\libraries\lvgl\src/core\lv_obj_style_gen.h **** 
 205:c:\projects\paindrain\arduinolcd\test\pain drain\libraries\lvgl\src/core\lv_obj_style_gen.h **** static inline lv_opa_t lv_obj_get_style_bg_img_opa(const struct _lv_obj_t * obj, uint32_t part)
 206:c:\projects\paindrain\arduinolcd\test\pain drain\libraries\lvgl\src/core\lv_obj_style_gen.h **** {
 207:c:\projects\paindrain\arduinolcd\test\pain drain\libraries\lvgl\src/core\lv_obj_style_gen.h ****     lv_style_value_t v = lv_obj_get_style_prop(obj, part, LV_STYLE_BG_IMG_OPA);
 208:c:\projects\paindrain\arduinolcd\test\pain drain\libraries\lvgl\src/core\lv_obj_style_gen.h ****     return (lv_opa_t)v.num;
 209:c:\projects\paindrain\arduinolcd\test\pain drain\libraries\lvgl\src/core\lv_obj_style_gen.h **** }
 210:c:\projects\paindrain\arduinolcd\test\pain drain\libraries\lvgl\src/core\lv_obj_style_gen.h **** 
 211:c:\projects\paindrain\arduinolcd\test\pain drain\libraries\lvgl\src/core\lv_obj_style_gen.h **** static inline lv_color_t lv_obj_get_style_bg_img_recolor(const struct _lv_obj_t * obj, uint32_t par
 212:c:\projects\paindrain\arduinolcd\test\pain drain\libraries\lvgl\src/core\lv_obj_style_gen.h **** {
 213:c:\projects\paindrain\arduinolcd\test\pain drain\libraries\lvgl\src/core\lv_obj_style_gen.h ****     lv_style_value_t v = lv_obj_get_style_prop(obj, part, LV_STYLE_BG_IMG_RECOLOR);
 214:c:\projects\paindrain\arduinolcd\test\pain drain\libraries\lvgl\src/core\lv_obj_style_gen.h ****     return v.color;
 215:c:\projects\paindrain\arduinolcd\test\pain drain\libraries\lvgl\src/core\lv_obj_style_gen.h **** }
 216:c:\projects\paindrain\arduinolcd\test\pain drain\libraries\lvgl\src/core\lv_obj_style_gen.h **** 
 217:c:\projects\paindrain\arduinolcd\test\pain drain\libraries\lvgl\src/core\lv_obj_style_gen.h **** static inline lv_color_t lv_obj_get_style_bg_img_recolor_filtered(const struct _lv_obj_t * obj, uin
 218:c:\projects\paindrain\arduinolcd\test\pain drain\libraries\lvgl\src/core\lv_obj_style_gen.h **** {
 219:c:\projects\paindrain\arduinolcd\test\pain drain\libraries\lvgl\src/core\lv_obj_style_gen.h ****     lv_style_value_t v = _lv_obj_style_apply_color_filter(obj, part, lv_obj_get_style_prop(obj, par
 220:c:\projects\paindrain\arduinolcd\test\pain drain\libraries\lvgl\src/core\lv_obj_style_gen.h ****     return v.color;
 221:c:\projects\paindrain\arduinolcd\test\pain drain\libraries\lvgl\src/core\lv_obj_style_gen.h **** }
 222:c:\projects\paindrain\arduinolcd\test\pain drain\libraries\lvgl\src/core\lv_obj_style_gen.h **** 
 223:c:\projects\paindrain\arduinolcd\test\pain drain\libraries\lvgl\src/core\lv_obj_style_gen.h **** static inline lv_opa_t lv_obj_get_style_bg_img_recolor_opa(const struct _lv_obj_t * obj, uint32_t p
 224:c:\projects\paindrain\arduinolcd\test\pain drain\libraries\lvgl\src/core\lv_obj_style_gen.h **** {
 225:c:\projects\paindrain\arduinolcd\test\pain drain\libraries\lvgl\src/core\lv_obj_style_gen.h ****     lv_style_value_t v = lv_obj_get_style_prop(obj, part, LV_STYLE_BG_IMG_RECOLOR_OPA);
 226:c:\projects\paindrain\arduinolcd\test\pain drain\libraries\lvgl\src/core\lv_obj_style_gen.h ****     return (lv_opa_t)v.num;
 227:c:\projects\paindrain\arduinolcd\test\pain drain\libraries\lvgl\src/core\lv_obj_style_gen.h **** }
 228:c:\projects\paindrain\arduinolcd\test\pain drain\libraries\lvgl\src/core\lv_obj_style_gen.h **** 
 229:c:\projects\paindrain\arduinolcd\test\pain drain\libraries\lvgl\src/core\lv_obj_style_gen.h **** static inline bool lv_obj_get_style_bg_img_tiled(const struct _lv_obj_t * obj, uint32_t part)
 230:c:\projects\paindrain\arduinolcd\test\pain drain\libraries\lvgl\src/core\lv_obj_style_gen.h **** {
 231:c:\projects\paindrain\arduinolcd\test\pain drain\libraries\lvgl\src/core\lv_obj_style_gen.h ****     lv_style_value_t v = lv_obj_get_style_prop(obj, part, LV_STYLE_BG_IMG_TILED);
 232:c:\projects\paindrain\arduinolcd\test\pain drain\libraries\lvgl\src/core\lv_obj_style_gen.h ****     return (bool)v.num;
 233:c:\projects\paindrain\arduinolcd\test\pain drain\libraries\lvgl\src/core\lv_obj_style_gen.h **** }
ARM GAS  C:\Users\haske\AppData\Local\Temp\ccXBxzcA.s 			page 12


 234:c:\projects\paindrain\arduinolcd\test\pain drain\libraries\lvgl\src/core\lv_obj_style_gen.h **** 
 235:c:\projects\paindrain\arduinolcd\test\pain drain\libraries\lvgl\src/core\lv_obj_style_gen.h **** static inline lv_color_t lv_obj_get_style_border_color(const struct _lv_obj_t * obj, uint32_t part)
 236:c:\projects\paindrain\arduinolcd\test\pain drain\libraries\lvgl\src/core\lv_obj_style_gen.h **** {
 237:c:\projects\paindrain\arduinolcd\test\pain drain\libraries\lvgl\src/core\lv_obj_style_gen.h ****     lv_style_value_t v = lv_obj_get_style_prop(obj, part, LV_STYLE_BORDER_COLOR);
 238:c:\projects\paindrain\arduinolcd\test\pain drain\libraries\lvgl\src/core\lv_obj_style_gen.h ****     return v.color;
 239:c:\projects\paindrain\arduinolcd\test\pain drain\libraries\lvgl\src/core\lv_obj_style_gen.h **** }
 240:c:\projects\paindrain\arduinolcd\test\pain drain\libraries\lvgl\src/core\lv_obj_style_gen.h **** 
 241:c:\projects\paindrain\arduinolcd\test\pain drain\libraries\lvgl\src/core\lv_obj_style_gen.h **** static inline lv_color_t lv_obj_get_style_border_color_filtered(const struct _lv_obj_t * obj, uint3
 242:c:\projects\paindrain\arduinolcd\test\pain drain\libraries\lvgl\src/core\lv_obj_style_gen.h **** {
 243:c:\projects\paindrain\arduinolcd\test\pain drain\libraries\lvgl\src/core\lv_obj_style_gen.h ****     lv_style_value_t v = _lv_obj_style_apply_color_filter(obj, part, lv_obj_get_style_prop(obj, par
 244:c:\projects\paindrain\arduinolcd\test\pain drain\libraries\lvgl\src/core\lv_obj_style_gen.h ****     return v.color;
 245:c:\projects\paindrain\arduinolcd\test\pain drain\libraries\lvgl\src/core\lv_obj_style_gen.h **** }
 246:c:\projects\paindrain\arduinolcd\test\pain drain\libraries\lvgl\src/core\lv_obj_style_gen.h **** 
 247:c:\projects\paindrain\arduinolcd\test\pain drain\libraries\lvgl\src/core\lv_obj_style_gen.h **** static inline lv_opa_t lv_obj_get_style_border_opa(const struct _lv_obj_t * obj, uint32_t part)
 248:c:\projects\paindrain\arduinolcd\test\pain drain\libraries\lvgl\src/core\lv_obj_style_gen.h **** {
 249:c:\projects\paindrain\arduinolcd\test\pain drain\libraries\lvgl\src/core\lv_obj_style_gen.h ****     lv_style_value_t v = lv_obj_get_style_prop(obj, part, LV_STYLE_BORDER_OPA);
 250:c:\projects\paindrain\arduinolcd\test\pain drain\libraries\lvgl\src/core\lv_obj_style_gen.h ****     return (lv_opa_t)v.num;
 251:c:\projects\paindrain\arduinolcd\test\pain drain\libraries\lvgl\src/core\lv_obj_style_gen.h **** }
 252:c:\projects\paindrain\arduinolcd\test\pain drain\libraries\lvgl\src/core\lv_obj_style_gen.h **** 
 253:c:\projects\paindrain\arduinolcd\test\pain drain\libraries\lvgl\src/core\lv_obj_style_gen.h **** static inline lv_coord_t lv_obj_get_style_border_width(const struct _lv_obj_t * obj, uint32_t part)
 254:c:\projects\paindrain\arduinolcd\test\pain drain\libraries\lvgl\src/core\lv_obj_style_gen.h **** {
 255:c:\projects\paindrain\arduinolcd\test\pain drain\libraries\lvgl\src/core\lv_obj_style_gen.h ****     lv_style_value_t v = lv_obj_get_style_prop(obj, part, LV_STYLE_BORDER_WIDTH);
 256:c:\projects\paindrain\arduinolcd\test\pain drain\libraries\lvgl\src/core\lv_obj_style_gen.h ****     return (lv_coord_t)v.num;
 257:c:\projects\paindrain\arduinolcd\test\pain drain\libraries\lvgl\src/core\lv_obj_style_gen.h **** }
 258:c:\projects\paindrain\arduinolcd\test\pain drain\libraries\lvgl\src/core\lv_obj_style_gen.h **** 
 259:c:\projects\paindrain\arduinolcd\test\pain drain\libraries\lvgl\src/core\lv_obj_style_gen.h **** static inline lv_border_side_t lv_obj_get_style_border_side(const struct _lv_obj_t * obj, uint32_t 
 260:c:\projects\paindrain\arduinolcd\test\pain drain\libraries\lvgl\src/core\lv_obj_style_gen.h **** {
 261:c:\projects\paindrain\arduinolcd\test\pain drain\libraries\lvgl\src/core\lv_obj_style_gen.h ****     lv_style_value_t v = lv_obj_get_style_prop(obj, part, LV_STYLE_BORDER_SIDE);
 262:c:\projects\paindrain\arduinolcd\test\pain drain\libraries\lvgl\src/core\lv_obj_style_gen.h ****     return (lv_border_side_t)v.num;
 263:c:\projects\paindrain\arduinolcd\test\pain drain\libraries\lvgl\src/core\lv_obj_style_gen.h **** }
 264:c:\projects\paindrain\arduinolcd\test\pain drain\libraries\lvgl\src/core\lv_obj_style_gen.h **** 
 265:c:\projects\paindrain\arduinolcd\test\pain drain\libraries\lvgl\src/core\lv_obj_style_gen.h **** static inline bool lv_obj_get_style_border_post(const struct _lv_obj_t * obj, uint32_t part)
 266:c:\projects\paindrain\arduinolcd\test\pain drain\libraries\lvgl\src/core\lv_obj_style_gen.h **** {
 267:c:\projects\paindrain\arduinolcd\test\pain drain\libraries\lvgl\src/core\lv_obj_style_gen.h ****     lv_style_value_t v = lv_obj_get_style_prop(obj, part, LV_STYLE_BORDER_POST);
 268:c:\projects\paindrain\arduinolcd\test\pain drain\libraries\lvgl\src/core\lv_obj_style_gen.h ****     return (bool)v.num;
 269:c:\projects\paindrain\arduinolcd\test\pain drain\libraries\lvgl\src/core\lv_obj_style_gen.h **** }
 270:c:\projects\paindrain\arduinolcd\test\pain drain\libraries\lvgl\src/core\lv_obj_style_gen.h **** 
 271:c:\projects\paindrain\arduinolcd\test\pain drain\libraries\lvgl\src/core\lv_obj_style_gen.h **** static inline lv_coord_t lv_obj_get_style_outline_width(const struct _lv_obj_t * obj, uint32_t part
 272:c:\projects\paindrain\arduinolcd\test\pain drain\libraries\lvgl\src/core\lv_obj_style_gen.h **** {
 273:c:\projects\paindrain\arduinolcd\test\pain drain\libraries\lvgl\src/core\lv_obj_style_gen.h ****     lv_style_value_t v = lv_obj_get_style_prop(obj, part, LV_STYLE_OUTLINE_WIDTH);
 274:c:\projects\paindrain\arduinolcd\test\pain drain\libraries\lvgl\src/core\lv_obj_style_gen.h ****     return (lv_coord_t)v.num;
 275:c:\projects\paindrain\arduinolcd\test\pain drain\libraries\lvgl\src/core\lv_obj_style_gen.h **** }
 276:c:\projects\paindrain\arduinolcd\test\pain drain\libraries\lvgl\src/core\lv_obj_style_gen.h **** 
 277:c:\projects\paindrain\arduinolcd\test\pain drain\libraries\lvgl\src/core\lv_obj_style_gen.h **** static inline lv_color_t lv_obj_get_style_outline_color(const struct _lv_obj_t * obj, uint32_t part
 278:c:\projects\paindrain\arduinolcd\test\pain drain\libraries\lvgl\src/core\lv_obj_style_gen.h **** {
 279:c:\projects\paindrain\arduinolcd\test\pain drain\libraries\lvgl\src/core\lv_obj_style_gen.h ****     lv_style_value_t v = lv_obj_get_style_prop(obj, part, LV_STYLE_OUTLINE_COLOR);
 280:c:\projects\paindrain\arduinolcd\test\pain drain\libraries\lvgl\src/core\lv_obj_style_gen.h ****     return v.color;
 281:c:\projects\paindrain\arduinolcd\test\pain drain\libraries\lvgl\src/core\lv_obj_style_gen.h **** }
 282:c:\projects\paindrain\arduinolcd\test\pain drain\libraries\lvgl\src/core\lv_obj_style_gen.h **** 
 283:c:\projects\paindrain\arduinolcd\test\pain drain\libraries\lvgl\src/core\lv_obj_style_gen.h **** static inline lv_color_t lv_obj_get_style_outline_color_filtered(const struct _lv_obj_t * obj, uint
 284:c:\projects\paindrain\arduinolcd\test\pain drain\libraries\lvgl\src/core\lv_obj_style_gen.h **** {
 285:c:\projects\paindrain\arduinolcd\test\pain drain\libraries\lvgl\src/core\lv_obj_style_gen.h ****     lv_style_value_t v = _lv_obj_style_apply_color_filter(obj, part, lv_obj_get_style_prop(obj, par
 286:c:\projects\paindrain\arduinolcd\test\pain drain\libraries\lvgl\src/core\lv_obj_style_gen.h ****     return v.color;
 287:c:\projects\paindrain\arduinolcd\test\pain drain\libraries\lvgl\src/core\lv_obj_style_gen.h **** }
 288:c:\projects\paindrain\arduinolcd\test\pain drain\libraries\lvgl\src/core\lv_obj_style_gen.h **** 
 289:c:\projects\paindrain\arduinolcd\test\pain drain\libraries\lvgl\src/core\lv_obj_style_gen.h **** static inline lv_opa_t lv_obj_get_style_outline_opa(const struct _lv_obj_t * obj, uint32_t part)
 290:c:\projects\paindrain\arduinolcd\test\pain drain\libraries\lvgl\src/core\lv_obj_style_gen.h **** {
ARM GAS  C:\Users\haske\AppData\Local\Temp\ccXBxzcA.s 			page 13


 291:c:\projects\paindrain\arduinolcd\test\pain drain\libraries\lvgl\src/core\lv_obj_style_gen.h ****     lv_style_value_t v = lv_obj_get_style_prop(obj, part, LV_STYLE_OUTLINE_OPA);
 292:c:\projects\paindrain\arduinolcd\test\pain drain\libraries\lvgl\src/core\lv_obj_style_gen.h ****     return (lv_opa_t)v.num;
 293:c:\projects\paindrain\arduinolcd\test\pain drain\libraries\lvgl\src/core\lv_obj_style_gen.h **** }
 294:c:\projects\paindrain\arduinolcd\test\pain drain\libraries\lvgl\src/core\lv_obj_style_gen.h **** 
 295:c:\projects\paindrain\arduinolcd\test\pain drain\libraries\lvgl\src/core\lv_obj_style_gen.h **** static inline lv_coord_t lv_obj_get_style_outline_pad(const struct _lv_obj_t * obj, uint32_t part)
 296:c:\projects\paindrain\arduinolcd\test\pain drain\libraries\lvgl\src/core\lv_obj_style_gen.h **** {
 297:c:\projects\paindrain\arduinolcd\test\pain drain\libraries\lvgl\src/core\lv_obj_style_gen.h ****     lv_style_value_t v = lv_obj_get_style_prop(obj, part, LV_STYLE_OUTLINE_PAD);
 298:c:\projects\paindrain\arduinolcd\test\pain drain\libraries\lvgl\src/core\lv_obj_style_gen.h ****     return (lv_coord_t)v.num;
 299:c:\projects\paindrain\arduinolcd\test\pain drain\libraries\lvgl\src/core\lv_obj_style_gen.h **** }
 300:c:\projects\paindrain\arduinolcd\test\pain drain\libraries\lvgl\src/core\lv_obj_style_gen.h **** 
 301:c:\projects\paindrain\arduinolcd\test\pain drain\libraries\lvgl\src/core\lv_obj_style_gen.h **** static inline lv_coord_t lv_obj_get_style_shadow_width(const struct _lv_obj_t * obj, uint32_t part)
 302:c:\projects\paindrain\arduinolcd\test\pain drain\libraries\lvgl\src/core\lv_obj_style_gen.h **** {
 303:c:\projects\paindrain\arduinolcd\test\pain drain\libraries\lvgl\src/core\lv_obj_style_gen.h ****     lv_style_value_t v = lv_obj_get_style_prop(obj, part, LV_STYLE_SHADOW_WIDTH);
 304:c:\projects\paindrain\arduinolcd\test\pain drain\libraries\lvgl\src/core\lv_obj_style_gen.h ****     return (lv_coord_t)v.num;
 305:c:\projects\paindrain\arduinolcd\test\pain drain\libraries\lvgl\src/core\lv_obj_style_gen.h **** }
 306:c:\projects\paindrain\arduinolcd\test\pain drain\libraries\lvgl\src/core\lv_obj_style_gen.h **** 
 307:c:\projects\paindrain\arduinolcd\test\pain drain\libraries\lvgl\src/core\lv_obj_style_gen.h **** static inline lv_coord_t lv_obj_get_style_shadow_ofs_x(const struct _lv_obj_t * obj, uint32_t part)
 308:c:\projects\paindrain\arduinolcd\test\pain drain\libraries\lvgl\src/core\lv_obj_style_gen.h **** {
 309:c:\projects\paindrain\arduinolcd\test\pain drain\libraries\lvgl\src/core\lv_obj_style_gen.h ****     lv_style_value_t v = lv_obj_get_style_prop(obj, part, LV_STYLE_SHADOW_OFS_X);
 310:c:\projects\paindrain\arduinolcd\test\pain drain\libraries\lvgl\src/core\lv_obj_style_gen.h ****     return (lv_coord_t)v.num;
 311:c:\projects\paindrain\arduinolcd\test\pain drain\libraries\lvgl\src/core\lv_obj_style_gen.h **** }
 312:c:\projects\paindrain\arduinolcd\test\pain drain\libraries\lvgl\src/core\lv_obj_style_gen.h **** 
 313:c:\projects\paindrain\arduinolcd\test\pain drain\libraries\lvgl\src/core\lv_obj_style_gen.h **** static inline lv_coord_t lv_obj_get_style_shadow_ofs_y(const struct _lv_obj_t * obj, uint32_t part)
 314:c:\projects\paindrain\arduinolcd\test\pain drain\libraries\lvgl\src/core\lv_obj_style_gen.h **** {
 315:c:\projects\paindrain\arduinolcd\test\pain drain\libraries\lvgl\src/core\lv_obj_style_gen.h ****     lv_style_value_t v = lv_obj_get_style_prop(obj, part, LV_STYLE_SHADOW_OFS_Y);
 316:c:\projects\paindrain\arduinolcd\test\pain drain\libraries\lvgl\src/core\lv_obj_style_gen.h ****     return (lv_coord_t)v.num;
 317:c:\projects\paindrain\arduinolcd\test\pain drain\libraries\lvgl\src/core\lv_obj_style_gen.h **** }
 318:c:\projects\paindrain\arduinolcd\test\pain drain\libraries\lvgl\src/core\lv_obj_style_gen.h **** 
 319:c:\projects\paindrain\arduinolcd\test\pain drain\libraries\lvgl\src/core\lv_obj_style_gen.h **** static inline lv_coord_t lv_obj_get_style_shadow_spread(const struct _lv_obj_t * obj, uint32_t part
 320:c:\projects\paindrain\arduinolcd\test\pain drain\libraries\lvgl\src/core\lv_obj_style_gen.h **** {
 321:c:\projects\paindrain\arduinolcd\test\pain drain\libraries\lvgl\src/core\lv_obj_style_gen.h ****     lv_style_value_t v = lv_obj_get_style_prop(obj, part, LV_STYLE_SHADOW_SPREAD);
 322:c:\projects\paindrain\arduinolcd\test\pain drain\libraries\lvgl\src/core\lv_obj_style_gen.h ****     return (lv_coord_t)v.num;
 323:c:\projects\paindrain\arduinolcd\test\pain drain\libraries\lvgl\src/core\lv_obj_style_gen.h **** }
 324:c:\projects\paindrain\arduinolcd\test\pain drain\libraries\lvgl\src/core\lv_obj_style_gen.h **** 
 325:c:\projects\paindrain\arduinolcd\test\pain drain\libraries\lvgl\src/core\lv_obj_style_gen.h **** static inline lv_color_t lv_obj_get_style_shadow_color(const struct _lv_obj_t * obj, uint32_t part)
 326:c:\projects\paindrain\arduinolcd\test\pain drain\libraries\lvgl\src/core\lv_obj_style_gen.h **** {
 327:c:\projects\paindrain\arduinolcd\test\pain drain\libraries\lvgl\src/core\lv_obj_style_gen.h ****     lv_style_value_t v = lv_obj_get_style_prop(obj, part, LV_STYLE_SHADOW_COLOR);
 328:c:\projects\paindrain\arduinolcd\test\pain drain\libraries\lvgl\src/core\lv_obj_style_gen.h ****     return v.color;
 329:c:\projects\paindrain\arduinolcd\test\pain drain\libraries\lvgl\src/core\lv_obj_style_gen.h **** }
 330:c:\projects\paindrain\arduinolcd\test\pain drain\libraries\lvgl\src/core\lv_obj_style_gen.h **** 
 331:c:\projects\paindrain\arduinolcd\test\pain drain\libraries\lvgl\src/core\lv_obj_style_gen.h **** static inline lv_color_t lv_obj_get_style_shadow_color_filtered(const struct _lv_obj_t * obj, uint3
 332:c:\projects\paindrain\arduinolcd\test\pain drain\libraries\lvgl\src/core\lv_obj_style_gen.h **** {
 333:c:\projects\paindrain\arduinolcd\test\pain drain\libraries\lvgl\src/core\lv_obj_style_gen.h ****     lv_style_value_t v = _lv_obj_style_apply_color_filter(obj, part, lv_obj_get_style_prop(obj, par
 334:c:\projects\paindrain\arduinolcd\test\pain drain\libraries\lvgl\src/core\lv_obj_style_gen.h ****     return v.color;
 335:c:\projects\paindrain\arduinolcd\test\pain drain\libraries\lvgl\src/core\lv_obj_style_gen.h **** }
 336:c:\projects\paindrain\arduinolcd\test\pain drain\libraries\lvgl\src/core\lv_obj_style_gen.h **** 
 337:c:\projects\paindrain\arduinolcd\test\pain drain\libraries\lvgl\src/core\lv_obj_style_gen.h **** static inline lv_opa_t lv_obj_get_style_shadow_opa(const struct _lv_obj_t * obj, uint32_t part)
 338:c:\projects\paindrain\arduinolcd\test\pain drain\libraries\lvgl\src/core\lv_obj_style_gen.h **** {
 339:c:\projects\paindrain\arduinolcd\test\pain drain\libraries\lvgl\src/core\lv_obj_style_gen.h ****     lv_style_value_t v = lv_obj_get_style_prop(obj, part, LV_STYLE_SHADOW_OPA);
 340:c:\projects\paindrain\arduinolcd\test\pain drain\libraries\lvgl\src/core\lv_obj_style_gen.h ****     return (lv_opa_t)v.num;
 341:c:\projects\paindrain\arduinolcd\test\pain drain\libraries\lvgl\src/core\lv_obj_style_gen.h **** }
 342:c:\projects\paindrain\arduinolcd\test\pain drain\libraries\lvgl\src/core\lv_obj_style_gen.h **** 
 343:c:\projects\paindrain\arduinolcd\test\pain drain\libraries\lvgl\src/core\lv_obj_style_gen.h **** static inline lv_opa_t lv_obj_get_style_img_opa(const struct _lv_obj_t * obj, uint32_t part)
 344:c:\projects\paindrain\arduinolcd\test\pain drain\libraries\lvgl\src/core\lv_obj_style_gen.h **** {
 345:c:\projects\paindrain\arduinolcd\test\pain drain\libraries\lvgl\src/core\lv_obj_style_gen.h ****     lv_style_value_t v = lv_obj_get_style_prop(obj, part, LV_STYLE_IMG_OPA);
 346:c:\projects\paindrain\arduinolcd\test\pain drain\libraries\lvgl\src/core\lv_obj_style_gen.h ****     return (lv_opa_t)v.num;
 347:c:\projects\paindrain\arduinolcd\test\pain drain\libraries\lvgl\src/core\lv_obj_style_gen.h **** }
ARM GAS  C:\Users\haske\AppData\Local\Temp\ccXBxzcA.s 			page 14


 348:c:\projects\paindrain\arduinolcd\test\pain drain\libraries\lvgl\src/core\lv_obj_style_gen.h **** 
 349:c:\projects\paindrain\arduinolcd\test\pain drain\libraries\lvgl\src/core\lv_obj_style_gen.h **** static inline lv_color_t lv_obj_get_style_img_recolor(const struct _lv_obj_t * obj, uint32_t part)
 350:c:\projects\paindrain\arduinolcd\test\pain drain\libraries\lvgl\src/core\lv_obj_style_gen.h **** {
 351:c:\projects\paindrain\arduinolcd\test\pain drain\libraries\lvgl\src/core\lv_obj_style_gen.h ****     lv_style_value_t v = lv_obj_get_style_prop(obj, part, LV_STYLE_IMG_RECOLOR);
 352:c:\projects\paindrain\arduinolcd\test\pain drain\libraries\lvgl\src/core\lv_obj_style_gen.h ****     return v.color;
 353:c:\projects\paindrain\arduinolcd\test\pain drain\libraries\lvgl\src/core\lv_obj_style_gen.h **** }
 354:c:\projects\paindrain\arduinolcd\test\pain drain\libraries\lvgl\src/core\lv_obj_style_gen.h **** 
 355:c:\projects\paindrain\arduinolcd\test\pain drain\libraries\lvgl\src/core\lv_obj_style_gen.h **** static inline lv_color_t lv_obj_get_style_img_recolor_filtered(const struct _lv_obj_t * obj, uint32
 356:c:\projects\paindrain\arduinolcd\test\pain drain\libraries\lvgl\src/core\lv_obj_style_gen.h **** {
 357:c:\projects\paindrain\arduinolcd\test\pain drain\libraries\lvgl\src/core\lv_obj_style_gen.h ****     lv_style_value_t v = _lv_obj_style_apply_color_filter(obj, part, lv_obj_get_style_prop(obj, par
 358:c:\projects\paindrain\arduinolcd\test\pain drain\libraries\lvgl\src/core\lv_obj_style_gen.h ****     return v.color;
 359:c:\projects\paindrain\arduinolcd\test\pain drain\libraries\lvgl\src/core\lv_obj_style_gen.h **** }
 360:c:\projects\paindrain\arduinolcd\test\pain drain\libraries\lvgl\src/core\lv_obj_style_gen.h **** 
 361:c:\projects\paindrain\arduinolcd\test\pain drain\libraries\lvgl\src/core\lv_obj_style_gen.h **** static inline lv_opa_t lv_obj_get_style_img_recolor_opa(const struct _lv_obj_t * obj, uint32_t part
 362:c:\projects\paindrain\arduinolcd\test\pain drain\libraries\lvgl\src/core\lv_obj_style_gen.h **** {
 363:c:\projects\paindrain\arduinolcd\test\pain drain\libraries\lvgl\src/core\lv_obj_style_gen.h ****     lv_style_value_t v = lv_obj_get_style_prop(obj, part, LV_STYLE_IMG_RECOLOR_OPA);
 364:c:\projects\paindrain\arduinolcd\test\pain drain\libraries\lvgl\src/core\lv_obj_style_gen.h ****     return (lv_opa_t)v.num;
 365:c:\projects\paindrain\arduinolcd\test\pain drain\libraries\lvgl\src/core\lv_obj_style_gen.h **** }
 366:c:\projects\paindrain\arduinolcd\test\pain drain\libraries\lvgl\src/core\lv_obj_style_gen.h **** 
 367:c:\projects\paindrain\arduinolcd\test\pain drain\libraries\lvgl\src/core\lv_obj_style_gen.h **** static inline lv_coord_t lv_obj_get_style_line_width(const struct _lv_obj_t * obj, uint32_t part)
 368:c:\projects\paindrain\arduinolcd\test\pain drain\libraries\lvgl\src/core\lv_obj_style_gen.h **** {
 369:c:\projects\paindrain\arduinolcd\test\pain drain\libraries\lvgl\src/core\lv_obj_style_gen.h ****     lv_style_value_t v = lv_obj_get_style_prop(obj, part, LV_STYLE_LINE_WIDTH);
 370:c:\projects\paindrain\arduinolcd\test\pain drain\libraries\lvgl\src/core\lv_obj_style_gen.h ****     return (lv_coord_t)v.num;
 371:c:\projects\paindrain\arduinolcd\test\pain drain\libraries\lvgl\src/core\lv_obj_style_gen.h **** }
 372:c:\projects\paindrain\arduinolcd\test\pain drain\libraries\lvgl\src/core\lv_obj_style_gen.h **** 
 373:c:\projects\paindrain\arduinolcd\test\pain drain\libraries\lvgl\src/core\lv_obj_style_gen.h **** static inline lv_coord_t lv_obj_get_style_line_dash_width(const struct _lv_obj_t * obj, uint32_t pa
 374:c:\projects\paindrain\arduinolcd\test\pain drain\libraries\lvgl\src/core\lv_obj_style_gen.h **** {
 375:c:\projects\paindrain\arduinolcd\test\pain drain\libraries\lvgl\src/core\lv_obj_style_gen.h ****     lv_style_value_t v = lv_obj_get_style_prop(obj, part, LV_STYLE_LINE_DASH_WIDTH);
 376:c:\projects\paindrain\arduinolcd\test\pain drain\libraries\lvgl\src/core\lv_obj_style_gen.h ****     return (lv_coord_t)v.num;
 377:c:\projects\paindrain\arduinolcd\test\pain drain\libraries\lvgl\src/core\lv_obj_style_gen.h **** }
 378:c:\projects\paindrain\arduinolcd\test\pain drain\libraries\lvgl\src/core\lv_obj_style_gen.h **** 
 379:c:\projects\paindrain\arduinolcd\test\pain drain\libraries\lvgl\src/core\lv_obj_style_gen.h **** static inline lv_coord_t lv_obj_get_style_line_dash_gap(const struct _lv_obj_t * obj, uint32_t part
 380:c:\projects\paindrain\arduinolcd\test\pain drain\libraries\lvgl\src/core\lv_obj_style_gen.h **** {
 381:c:\projects\paindrain\arduinolcd\test\pain drain\libraries\lvgl\src/core\lv_obj_style_gen.h ****     lv_style_value_t v = lv_obj_get_style_prop(obj, part, LV_STYLE_LINE_DASH_GAP);
 382:c:\projects\paindrain\arduinolcd\test\pain drain\libraries\lvgl\src/core\lv_obj_style_gen.h ****     return (lv_coord_t)v.num;
 383:c:\projects\paindrain\arduinolcd\test\pain drain\libraries\lvgl\src/core\lv_obj_style_gen.h **** }
 384:c:\projects\paindrain\arduinolcd\test\pain drain\libraries\lvgl\src/core\lv_obj_style_gen.h **** 
 385:c:\projects\paindrain\arduinolcd\test\pain drain\libraries\lvgl\src/core\lv_obj_style_gen.h **** static inline bool lv_obj_get_style_line_rounded(const struct _lv_obj_t * obj, uint32_t part)
 386:c:\projects\paindrain\arduinolcd\test\pain drain\libraries\lvgl\src/core\lv_obj_style_gen.h **** {
 387:c:\projects\paindrain\arduinolcd\test\pain drain\libraries\lvgl\src/core\lv_obj_style_gen.h ****     lv_style_value_t v = lv_obj_get_style_prop(obj, part, LV_STYLE_LINE_ROUNDED);
 388:c:\projects\paindrain\arduinolcd\test\pain drain\libraries\lvgl\src/core\lv_obj_style_gen.h ****     return (bool)v.num;
 389:c:\projects\paindrain\arduinolcd\test\pain drain\libraries\lvgl\src/core\lv_obj_style_gen.h **** }
 390:c:\projects\paindrain\arduinolcd\test\pain drain\libraries\lvgl\src/core\lv_obj_style_gen.h **** 
 391:c:\projects\paindrain\arduinolcd\test\pain drain\libraries\lvgl\src/core\lv_obj_style_gen.h **** static inline lv_color_t lv_obj_get_style_line_color(const struct _lv_obj_t * obj, uint32_t part)
 392:c:\projects\paindrain\arduinolcd\test\pain drain\libraries\lvgl\src/core\lv_obj_style_gen.h **** {
 393:c:\projects\paindrain\arduinolcd\test\pain drain\libraries\lvgl\src/core\lv_obj_style_gen.h ****     lv_style_value_t v = lv_obj_get_style_prop(obj, part, LV_STYLE_LINE_COLOR);
 394:c:\projects\paindrain\arduinolcd\test\pain drain\libraries\lvgl\src/core\lv_obj_style_gen.h ****     return v.color;
 395:c:\projects\paindrain\arduinolcd\test\pain drain\libraries\lvgl\src/core\lv_obj_style_gen.h **** }
 396:c:\projects\paindrain\arduinolcd\test\pain drain\libraries\lvgl\src/core\lv_obj_style_gen.h **** 
 397:c:\projects\paindrain\arduinolcd\test\pain drain\libraries\lvgl\src/core\lv_obj_style_gen.h **** static inline lv_color_t lv_obj_get_style_line_color_filtered(const struct _lv_obj_t * obj, uint32_
 398:c:\projects\paindrain\arduinolcd\test\pain drain\libraries\lvgl\src/core\lv_obj_style_gen.h **** {
 399:c:\projects\paindrain\arduinolcd\test\pain drain\libraries\lvgl\src/core\lv_obj_style_gen.h ****     lv_style_value_t v = _lv_obj_style_apply_color_filter(obj, part, lv_obj_get_style_prop(obj, par
 400:c:\projects\paindrain\arduinolcd\test\pain drain\libraries\lvgl\src/core\lv_obj_style_gen.h ****     return v.color;
 401:c:\projects\paindrain\arduinolcd\test\pain drain\libraries\lvgl\src/core\lv_obj_style_gen.h **** }
 402:c:\projects\paindrain\arduinolcd\test\pain drain\libraries\lvgl\src/core\lv_obj_style_gen.h **** 
 403:c:\projects\paindrain\arduinolcd\test\pain drain\libraries\lvgl\src/core\lv_obj_style_gen.h **** static inline lv_opa_t lv_obj_get_style_line_opa(const struct _lv_obj_t * obj, uint32_t part)
 404:c:\projects\paindrain\arduinolcd\test\pain drain\libraries\lvgl\src/core\lv_obj_style_gen.h **** {
ARM GAS  C:\Users\haske\AppData\Local\Temp\ccXBxzcA.s 			page 15


 405:c:\projects\paindrain\arduinolcd\test\pain drain\libraries\lvgl\src/core\lv_obj_style_gen.h ****     lv_style_value_t v = lv_obj_get_style_prop(obj, part, LV_STYLE_LINE_OPA);
 406:c:\projects\paindrain\arduinolcd\test\pain drain\libraries\lvgl\src/core\lv_obj_style_gen.h ****     return (lv_opa_t)v.num;
 407:c:\projects\paindrain\arduinolcd\test\pain drain\libraries\lvgl\src/core\lv_obj_style_gen.h **** }
 408:c:\projects\paindrain\arduinolcd\test\pain drain\libraries\lvgl\src/core\lv_obj_style_gen.h **** 
 409:c:\projects\paindrain\arduinolcd\test\pain drain\libraries\lvgl\src/core\lv_obj_style_gen.h **** static inline lv_coord_t lv_obj_get_style_arc_width(const struct _lv_obj_t * obj, uint32_t part)
 410:c:\projects\paindrain\arduinolcd\test\pain drain\libraries\lvgl\src/core\lv_obj_style_gen.h **** {
 411:c:\projects\paindrain\arduinolcd\test\pain drain\libraries\lvgl\src/core\lv_obj_style_gen.h ****     lv_style_value_t v = lv_obj_get_style_prop(obj, part, LV_STYLE_ARC_WIDTH);
 412:c:\projects\paindrain\arduinolcd\test\pain drain\libraries\lvgl\src/core\lv_obj_style_gen.h ****     return (lv_coord_t)v.num;
 413:c:\projects\paindrain\arduinolcd\test\pain drain\libraries\lvgl\src/core\lv_obj_style_gen.h **** }
 414:c:\projects\paindrain\arduinolcd\test\pain drain\libraries\lvgl\src/core\lv_obj_style_gen.h **** 
 415:c:\projects\paindrain\arduinolcd\test\pain drain\libraries\lvgl\src/core\lv_obj_style_gen.h **** static inline bool lv_obj_get_style_arc_rounded(const struct _lv_obj_t * obj, uint32_t part)
 416:c:\projects\paindrain\arduinolcd\test\pain drain\libraries\lvgl\src/core\lv_obj_style_gen.h **** {
 417:c:\projects\paindrain\arduinolcd\test\pain drain\libraries\lvgl\src/core\lv_obj_style_gen.h ****     lv_style_value_t v = lv_obj_get_style_prop(obj, part, LV_STYLE_ARC_ROUNDED);
  64              		.loc 2 417 0
  65 001e 5122     		movs	r2, #81
  66 0020 A021     		movs	r1, #160
  67 0022 C902     		lsls	r1, r1, #11
  68 0024 3000     		movs	r0, r6
  69 0026 FFF7FEFF 		bl	lv_obj_get_style_prop
  70              	.LVL4:
  71              	.LBE50:
  72              	.LBE49:
 332:..\..\..\arduinoLCD\test\Pain Drain\libraries\lvgl\src\extra\widgets\meter/lv_meter.c ****     arc_dsc.rounded = lv_obj_get_style_arc_rounded(obj, LV_PART_ITEMS);
  73              		.loc 1 332 0
  74 002a 431E     		subs	r3, r0, #1
  75 002c 9841     		sbcs	r0, r0, r3
  76              	.LVL5:
  77 002e 8300     		lsls	r3, r0, #2
  78 0030 607B     		ldrb	r0, [r4, #13]
  79 0032 0422     		movs	r2, #4
  80 0034 9043     		bics	r0, r2
  81 0036 1843     		orrs	r0, r3
  82 0038 6073     		strb	r0, [r4, #13]
  83              	.LVL6:
  84              	.LBB51:
  85              	.LBB52:
  86              		.file 3 "c:\\projects\\paindrain\\arduinolcd\\test\\pain drain\\libraries\\lvgl\\src\\misc\\lv_are
   1:c:\projects\paindrain\arduinolcd\test\pain drain\libraries\lvgl\src\misc\lv_area.h **** /**
   2:c:\projects\paindrain\arduinolcd\test\pain drain\libraries\lvgl\src\misc\lv_area.h ****  * @file lv_area.h
   3:c:\projects\paindrain\arduinolcd\test\pain drain\libraries\lvgl\src\misc\lv_area.h ****  *
   4:c:\projects\paindrain\arduinolcd\test\pain drain\libraries\lvgl\src\misc\lv_area.h ****  */
   5:c:\projects\paindrain\arduinolcd\test\pain drain\libraries\lvgl\src\misc\lv_area.h **** 
   6:c:\projects\paindrain\arduinolcd\test\pain drain\libraries\lvgl\src\misc\lv_area.h **** #ifndef LV_AREA_H
   7:c:\projects\paindrain\arduinolcd\test\pain drain\libraries\lvgl\src\misc\lv_area.h **** #define LV_AREA_H
   8:c:\projects\paindrain\arduinolcd\test\pain drain\libraries\lvgl\src\misc\lv_area.h **** 
   9:c:\projects\paindrain\arduinolcd\test\pain drain\libraries\lvgl\src\misc\lv_area.h **** #ifdef __cplusplus
  10:c:\projects\paindrain\arduinolcd\test\pain drain\libraries\lvgl\src\misc\lv_area.h **** extern "C" {
  11:c:\projects\paindrain\arduinolcd\test\pain drain\libraries\lvgl\src\misc\lv_area.h **** #endif
  12:c:\projects\paindrain\arduinolcd\test\pain drain\libraries\lvgl\src\misc\lv_area.h **** 
  13:c:\projects\paindrain\arduinolcd\test\pain drain\libraries\lvgl\src\misc\lv_area.h **** /*********************
  14:c:\projects\paindrain\arduinolcd\test\pain drain\libraries\lvgl\src\misc\lv_area.h ****  *      INCLUDES
  15:c:\projects\paindrain\arduinolcd\test\pain drain\libraries\lvgl\src\misc\lv_area.h ****  *********************/
  16:c:\projects\paindrain\arduinolcd\test\pain drain\libraries\lvgl\src\misc\lv_area.h **** #include "../lv_conf_internal.h"
  17:c:\projects\paindrain\arduinolcd\test\pain drain\libraries\lvgl\src\misc\lv_area.h **** #include <stdbool.h>
  18:c:\projects\paindrain\arduinolcd\test\pain drain\libraries\lvgl\src\misc\lv_area.h **** #include <stdint.h>
  19:c:\projects\paindrain\arduinolcd\test\pain drain\libraries\lvgl\src\misc\lv_area.h **** 
  20:c:\projects\paindrain\arduinolcd\test\pain drain\libraries\lvgl\src\misc\lv_area.h **** /*********************
ARM GAS  C:\Users\haske\AppData\Local\Temp\ccXBxzcA.s 			page 16


  21:c:\projects\paindrain\arduinolcd\test\pain drain\libraries\lvgl\src\misc\lv_area.h ****  *      DEFINES
  22:c:\projects\paindrain\arduinolcd\test\pain drain\libraries\lvgl\src\misc\lv_area.h ****  *********************/
  23:c:\projects\paindrain\arduinolcd\test\pain drain\libraries\lvgl\src\misc\lv_area.h **** 
  24:c:\projects\paindrain\arduinolcd\test\pain drain\libraries\lvgl\src\misc\lv_area.h **** #if LV_USE_LARGE_COORD
  25:c:\projects\paindrain\arduinolcd\test\pain drain\libraries\lvgl\src\misc\lv_area.h **** typedef int32_t lv_coord_t;
  26:c:\projects\paindrain\arduinolcd\test\pain drain\libraries\lvgl\src\misc\lv_area.h **** #else
  27:c:\projects\paindrain\arduinolcd\test\pain drain\libraries\lvgl\src\misc\lv_area.h **** typedef int16_t lv_coord_t;
  28:c:\projects\paindrain\arduinolcd\test\pain drain\libraries\lvgl\src\misc\lv_area.h **** #endif
  29:c:\projects\paindrain\arduinolcd\test\pain drain\libraries\lvgl\src\misc\lv_area.h **** 
  30:c:\projects\paindrain\arduinolcd\test\pain drain\libraries\lvgl\src\misc\lv_area.h **** /**********************
  31:c:\projects\paindrain\arduinolcd\test\pain drain\libraries\lvgl\src\misc\lv_area.h ****  *      TYPEDEFS
  32:c:\projects\paindrain\arduinolcd\test\pain drain\libraries\lvgl\src\misc\lv_area.h ****  **********************/
  33:c:\projects\paindrain\arduinolcd\test\pain drain\libraries\lvgl\src\misc\lv_area.h **** 
  34:c:\projects\paindrain\arduinolcd\test\pain drain\libraries\lvgl\src\misc\lv_area.h **** /**
  35:c:\projects\paindrain\arduinolcd\test\pain drain\libraries\lvgl\src\misc\lv_area.h ****  * Represents a point on the screen.
  36:c:\projects\paindrain\arduinolcd\test\pain drain\libraries\lvgl\src\misc\lv_area.h ****  */
  37:c:\projects\paindrain\arduinolcd\test\pain drain\libraries\lvgl\src\misc\lv_area.h **** typedef struct {
  38:c:\projects\paindrain\arduinolcd\test\pain drain\libraries\lvgl\src\misc\lv_area.h ****     lv_coord_t x;
  39:c:\projects\paindrain\arduinolcd\test\pain drain\libraries\lvgl\src\misc\lv_area.h ****     lv_coord_t y;
  40:c:\projects\paindrain\arduinolcd\test\pain drain\libraries\lvgl\src\misc\lv_area.h **** } lv_point_t;
  41:c:\projects\paindrain\arduinolcd\test\pain drain\libraries\lvgl\src\misc\lv_area.h **** 
  42:c:\projects\paindrain\arduinolcd\test\pain drain\libraries\lvgl\src\misc\lv_area.h **** /** Represents an area of the screen.*/
  43:c:\projects\paindrain\arduinolcd\test\pain drain\libraries\lvgl\src\misc\lv_area.h **** typedef struct {
  44:c:\projects\paindrain\arduinolcd\test\pain drain\libraries\lvgl\src\misc\lv_area.h ****     lv_coord_t x1;
  45:c:\projects\paindrain\arduinolcd\test\pain drain\libraries\lvgl\src\misc\lv_area.h ****     lv_coord_t y1;
  46:c:\projects\paindrain\arduinolcd\test\pain drain\libraries\lvgl\src\misc\lv_area.h ****     lv_coord_t x2;
  47:c:\projects\paindrain\arduinolcd\test\pain drain\libraries\lvgl\src\misc\lv_area.h ****     lv_coord_t y2;
  48:c:\projects\paindrain\arduinolcd\test\pain drain\libraries\lvgl\src\misc\lv_area.h **** } lv_area_t;
  49:c:\projects\paindrain\arduinolcd\test\pain drain\libraries\lvgl\src\misc\lv_area.h **** 
  50:c:\projects\paindrain\arduinolcd\test\pain drain\libraries\lvgl\src\misc\lv_area.h **** /** Alignments*/
  51:c:\projects\paindrain\arduinolcd\test\pain drain\libraries\lvgl\src\misc\lv_area.h **** enum {
  52:c:\projects\paindrain\arduinolcd\test\pain drain\libraries\lvgl\src\misc\lv_area.h ****     LV_ALIGN_DEFAULT = 0,
  53:c:\projects\paindrain\arduinolcd\test\pain drain\libraries\lvgl\src\misc\lv_area.h ****     LV_ALIGN_TOP_LEFT,
  54:c:\projects\paindrain\arduinolcd\test\pain drain\libraries\lvgl\src\misc\lv_area.h ****     LV_ALIGN_TOP_MID,
  55:c:\projects\paindrain\arduinolcd\test\pain drain\libraries\lvgl\src\misc\lv_area.h ****     LV_ALIGN_TOP_RIGHT,
  56:c:\projects\paindrain\arduinolcd\test\pain drain\libraries\lvgl\src\misc\lv_area.h ****     LV_ALIGN_BOTTOM_LEFT,
  57:c:\projects\paindrain\arduinolcd\test\pain drain\libraries\lvgl\src\misc\lv_area.h ****     LV_ALIGN_BOTTOM_MID,
  58:c:\projects\paindrain\arduinolcd\test\pain drain\libraries\lvgl\src\misc\lv_area.h ****     LV_ALIGN_BOTTOM_RIGHT,
  59:c:\projects\paindrain\arduinolcd\test\pain drain\libraries\lvgl\src\misc\lv_area.h ****     LV_ALIGN_LEFT_MID,
  60:c:\projects\paindrain\arduinolcd\test\pain drain\libraries\lvgl\src\misc\lv_area.h ****     LV_ALIGN_RIGHT_MID,
  61:c:\projects\paindrain\arduinolcd\test\pain drain\libraries\lvgl\src\misc\lv_area.h ****     LV_ALIGN_CENTER,
  62:c:\projects\paindrain\arduinolcd\test\pain drain\libraries\lvgl\src\misc\lv_area.h **** 
  63:c:\projects\paindrain\arduinolcd\test\pain drain\libraries\lvgl\src\misc\lv_area.h ****     LV_ALIGN_OUT_TOP_LEFT,
  64:c:\projects\paindrain\arduinolcd\test\pain drain\libraries\lvgl\src\misc\lv_area.h ****     LV_ALIGN_OUT_TOP_MID,
  65:c:\projects\paindrain\arduinolcd\test\pain drain\libraries\lvgl\src\misc\lv_area.h ****     LV_ALIGN_OUT_TOP_RIGHT,
  66:c:\projects\paindrain\arduinolcd\test\pain drain\libraries\lvgl\src\misc\lv_area.h ****     LV_ALIGN_OUT_BOTTOM_LEFT,
  67:c:\projects\paindrain\arduinolcd\test\pain drain\libraries\lvgl\src\misc\lv_area.h ****     LV_ALIGN_OUT_BOTTOM_MID,
  68:c:\projects\paindrain\arduinolcd\test\pain drain\libraries\lvgl\src\misc\lv_area.h ****     LV_ALIGN_OUT_BOTTOM_RIGHT,
  69:c:\projects\paindrain\arduinolcd\test\pain drain\libraries\lvgl\src\misc\lv_area.h ****     LV_ALIGN_OUT_LEFT_TOP,
  70:c:\projects\paindrain\arduinolcd\test\pain drain\libraries\lvgl\src\misc\lv_area.h ****     LV_ALIGN_OUT_LEFT_MID,
  71:c:\projects\paindrain\arduinolcd\test\pain drain\libraries\lvgl\src\misc\lv_area.h ****     LV_ALIGN_OUT_LEFT_BOTTOM,
  72:c:\projects\paindrain\arduinolcd\test\pain drain\libraries\lvgl\src\misc\lv_area.h ****     LV_ALIGN_OUT_RIGHT_TOP,
  73:c:\projects\paindrain\arduinolcd\test\pain drain\libraries\lvgl\src\misc\lv_area.h ****     LV_ALIGN_OUT_RIGHT_MID,
  74:c:\projects\paindrain\arduinolcd\test\pain drain\libraries\lvgl\src\misc\lv_area.h ****     LV_ALIGN_OUT_RIGHT_BOTTOM,
  75:c:\projects\paindrain\arduinolcd\test\pain drain\libraries\lvgl\src\misc\lv_area.h **** };
  76:c:\projects\paindrain\arduinolcd\test\pain drain\libraries\lvgl\src\misc\lv_area.h **** typedef uint8_t lv_align_t;
  77:c:\projects\paindrain\arduinolcd\test\pain drain\libraries\lvgl\src\misc\lv_area.h **** 
ARM GAS  C:\Users\haske\AppData\Local\Temp\ccXBxzcA.s 			page 17


  78:c:\projects\paindrain\arduinolcd\test\pain drain\libraries\lvgl\src\misc\lv_area.h **** enum {
  79:c:\projects\paindrain\arduinolcd\test\pain drain\libraries\lvgl\src\misc\lv_area.h ****     LV_DIR_NONE     = 0x00,
  80:c:\projects\paindrain\arduinolcd\test\pain drain\libraries\lvgl\src\misc\lv_area.h ****     LV_DIR_LEFT     = (1 << 0),
  81:c:\projects\paindrain\arduinolcd\test\pain drain\libraries\lvgl\src\misc\lv_area.h ****     LV_DIR_RIGHT    = (1 << 1),
  82:c:\projects\paindrain\arduinolcd\test\pain drain\libraries\lvgl\src\misc\lv_area.h ****     LV_DIR_TOP      = (1 << 2),
  83:c:\projects\paindrain\arduinolcd\test\pain drain\libraries\lvgl\src\misc\lv_area.h ****     LV_DIR_BOTTOM   = (1 << 3),
  84:c:\projects\paindrain\arduinolcd\test\pain drain\libraries\lvgl\src\misc\lv_area.h ****     LV_DIR_HOR      = LV_DIR_LEFT | LV_DIR_RIGHT,
  85:c:\projects\paindrain\arduinolcd\test\pain drain\libraries\lvgl\src\misc\lv_area.h ****     LV_DIR_VER      = LV_DIR_TOP | LV_DIR_BOTTOM,
  86:c:\projects\paindrain\arduinolcd\test\pain drain\libraries\lvgl\src\misc\lv_area.h ****     LV_DIR_ALL      = LV_DIR_HOR | LV_DIR_VER,
  87:c:\projects\paindrain\arduinolcd\test\pain drain\libraries\lvgl\src\misc\lv_area.h **** };
  88:c:\projects\paindrain\arduinolcd\test\pain drain\libraries\lvgl\src\misc\lv_area.h **** 
  89:c:\projects\paindrain\arduinolcd\test\pain drain\libraries\lvgl\src\misc\lv_area.h **** typedef uint8_t lv_dir_t;
  90:c:\projects\paindrain\arduinolcd\test\pain drain\libraries\lvgl\src\misc\lv_area.h **** 
  91:c:\projects\paindrain\arduinolcd\test\pain drain\libraries\lvgl\src\misc\lv_area.h **** /**********************
  92:c:\projects\paindrain\arduinolcd\test\pain drain\libraries\lvgl\src\misc\lv_area.h ****  * GLOBAL PROTOTYPES
  93:c:\projects\paindrain\arduinolcd\test\pain drain\libraries\lvgl\src\misc\lv_area.h ****  **********************/
  94:c:\projects\paindrain\arduinolcd\test\pain drain\libraries\lvgl\src\misc\lv_area.h **** 
  95:c:\projects\paindrain\arduinolcd\test\pain drain\libraries\lvgl\src\misc\lv_area.h **** /**
  96:c:\projects\paindrain\arduinolcd\test\pain drain\libraries\lvgl\src\misc\lv_area.h ****  * Initialize an area
  97:c:\projects\paindrain\arduinolcd\test\pain drain\libraries\lvgl\src\misc\lv_area.h ****  * @param area_p pointer to an area
  98:c:\projects\paindrain\arduinolcd\test\pain drain\libraries\lvgl\src\misc\lv_area.h ****  * @param x1 left coordinate of the area
  99:c:\projects\paindrain\arduinolcd\test\pain drain\libraries\lvgl\src\misc\lv_area.h ****  * @param y1 top coordinate of the area
 100:c:\projects\paindrain\arduinolcd\test\pain drain\libraries\lvgl\src\misc\lv_area.h ****  * @param x2 right coordinate of the area
 101:c:\projects\paindrain\arduinolcd\test\pain drain\libraries\lvgl\src\misc\lv_area.h ****  * @param y2 bottom coordinate of the area
 102:c:\projects\paindrain\arduinolcd\test\pain drain\libraries\lvgl\src\misc\lv_area.h ****  */
 103:c:\projects\paindrain\arduinolcd\test\pain drain\libraries\lvgl\src\misc\lv_area.h **** void lv_area_set(lv_area_t * area_p, lv_coord_t x1, lv_coord_t y1, lv_coord_t x2, lv_coord_t y2);
 104:c:\projects\paindrain\arduinolcd\test\pain drain\libraries\lvgl\src\misc\lv_area.h **** 
 105:c:\projects\paindrain\arduinolcd\test\pain drain\libraries\lvgl\src\misc\lv_area.h **** /**
 106:c:\projects\paindrain\arduinolcd\test\pain drain\libraries\lvgl\src\misc\lv_area.h ****  * Copy an area
 107:c:\projects\paindrain\arduinolcd\test\pain drain\libraries\lvgl\src\misc\lv_area.h ****  * @param dest pointer to the destination area
 108:c:\projects\paindrain\arduinolcd\test\pain drain\libraries\lvgl\src\misc\lv_area.h ****  * @param src pointer to the source area
 109:c:\projects\paindrain\arduinolcd\test\pain drain\libraries\lvgl\src\misc\lv_area.h ****  */
 110:c:\projects\paindrain\arduinolcd\test\pain drain\libraries\lvgl\src\misc\lv_area.h **** inline static void lv_area_copy(lv_area_t * dest, const lv_area_t * src)
 111:c:\projects\paindrain\arduinolcd\test\pain drain\libraries\lvgl\src\misc\lv_area.h **** {
 112:c:\projects\paindrain\arduinolcd\test\pain drain\libraries\lvgl\src\misc\lv_area.h ****     dest->x1 = src->x1;
 113:c:\projects\paindrain\arduinolcd\test\pain drain\libraries\lvgl\src\misc\lv_area.h ****     dest->y1 = src->y1;
 114:c:\projects\paindrain\arduinolcd\test\pain drain\libraries\lvgl\src\misc\lv_area.h ****     dest->x2 = src->x2;
 115:c:\projects\paindrain\arduinolcd\test\pain drain\libraries\lvgl\src\misc\lv_area.h ****     dest->y2 = src->y2;
 116:c:\projects\paindrain\arduinolcd\test\pain drain\libraries\lvgl\src\misc\lv_area.h **** }
 117:c:\projects\paindrain\arduinolcd\test\pain drain\libraries\lvgl\src\misc\lv_area.h **** 
 118:c:\projects\paindrain\arduinolcd\test\pain drain\libraries\lvgl\src\misc\lv_area.h **** /**
 119:c:\projects\paindrain\arduinolcd\test\pain drain\libraries\lvgl\src\misc\lv_area.h ****  * Get the width of an area
 120:c:\projects\paindrain\arduinolcd\test\pain drain\libraries\lvgl\src\misc\lv_area.h ****  * @param area_p pointer to an area
 121:c:\projects\paindrain\arduinolcd\test\pain drain\libraries\lvgl\src\misc\lv_area.h ****  * @return the width of the area (if x1 == x2 -> width = 1)
 122:c:\projects\paindrain\arduinolcd\test\pain drain\libraries\lvgl\src\misc\lv_area.h ****  */
 123:c:\projects\paindrain\arduinolcd\test\pain drain\libraries\lvgl\src\misc\lv_area.h **** static inline lv_coord_t lv_area_get_width(const lv_area_t * area_p)
 124:c:\projects\paindrain\arduinolcd\test\pain drain\libraries\lvgl\src\misc\lv_area.h **** {
 125:c:\projects\paindrain\arduinolcd\test\pain drain\libraries\lvgl\src\misc\lv_area.h ****     return (lv_coord_t)(area_p->x2 - area_p->x1 + 1);
  87              		.loc 3 125 0
  88 003a 0422     		movs	r2, #4
  89 003c AB5E     		ldrsh	r3, [r5, r2]
  90 003e 2A88     		ldrh	r2, [r5]
  91 0040 9B1A     		subs	r3, r3, r2
  92 0042 0133     		adds	r3, r3, #1
  93 0044 1BB2     		sxth	r3, r3
  94              	.LVL7:
  95              	.LBE52:
ARM GAS  C:\Users\haske\AppData\Local\Temp\ccXBxzcA.s 			page 18


  96              	.LBE51:
 333:..\..\..\arduinoLCD\test\Pain Drain\libraries\lvgl\src\extra\widgets\meter/lv_meter.c **** 
 334:..\..\..\arduinoLCD\test\Pain Drain\libraries\lvgl\src\extra\widgets\meter/lv_meter.c ****     lv_coord_t r_out = lv_area_get_width(scale_area) / 2 ;
  97              		.loc 1 334 0
  98 0046 D90F     		lsrs	r1, r3, #31
  99 0048 CB18     		adds	r3, r1, r3
 100 004a 5B10     		asrs	r3, r3, #1
 101              	.LVL8:
 335:..\..\..\arduinoLCD\test\Pain Drain\libraries\lvgl\src\extra\widgets\meter/lv_meter.c ****     lv_point_t scale_center;
 336:..\..\..\arduinoLCD\test\Pain Drain\libraries\lvgl\src\extra\widgets\meter/lv_meter.c ****     scale_center.x = scale_area->x1 + r_out;
 102              		.loc 1 336 0
 103 004c 9BB2     		uxth	r3, r3
 104 004e 9946     		mov	r9, r3
 105 0050 1BA9     		add	r1, sp, #108
 106 0052 4A44     		add	r2, r2, r9
 107 0054 0A80     		strh	r2, [r1]
 337:..\..\..\arduinoLCD\test\Pain Drain\libraries\lvgl\src\extra\widgets\meter/lv_meter.c ****     scale_center.y = scale_area->y1 + r_out;
 108              		.loc 1 337 0
 109 0056 0222     		movs	r2, #2
 110 0058 AB5E     		ldrsh	r3, [r5, r2]
 111              	.LVL9:
 112 005a 4B44     		add	r3, r3, r9
 113 005c 4B80     		strh	r3, [r1, #2]
 114              	.LVL10:
 115              	.LBB53:
 116              	.LBB54:
 418:c:\projects\paindrain\arduinolcd\test\pain drain\libraries\lvgl\src/core\lv_obj_style_gen.h ****     return (bool)v.num;
 419:c:\projects\paindrain\arduinolcd\test\pain drain\libraries\lvgl\src/core\lv_obj_style_gen.h **** }
 420:c:\projects\paindrain\arduinolcd\test\pain drain\libraries\lvgl\src/core\lv_obj_style_gen.h **** 
 421:c:\projects\paindrain\arduinolcd\test\pain drain\libraries\lvgl\src/core\lv_obj_style_gen.h **** static inline lv_color_t lv_obj_get_style_arc_color(const struct _lv_obj_t * obj, uint32_t part)
 422:c:\projects\paindrain\arduinolcd\test\pain drain\libraries\lvgl\src/core\lv_obj_style_gen.h **** {
 423:c:\projects\paindrain\arduinolcd\test\pain drain\libraries\lvgl\src/core\lv_obj_style_gen.h ****     lv_style_value_t v = lv_obj_get_style_prop(obj, part, LV_STYLE_ARC_COLOR);
 424:c:\projects\paindrain\arduinolcd\test\pain drain\libraries\lvgl\src/core\lv_obj_style_gen.h ****     return v.color;
 425:c:\projects\paindrain\arduinolcd\test\pain drain\libraries\lvgl\src/core\lv_obj_style_gen.h **** }
 426:c:\projects\paindrain\arduinolcd\test\pain drain\libraries\lvgl\src/core\lv_obj_style_gen.h **** 
 427:c:\projects\paindrain\arduinolcd\test\pain drain\libraries\lvgl\src/core\lv_obj_style_gen.h **** static inline lv_color_t lv_obj_get_style_arc_color_filtered(const struct _lv_obj_t * obj, uint32_t
 428:c:\projects\paindrain\arduinolcd\test\pain drain\libraries\lvgl\src/core\lv_obj_style_gen.h **** {
 429:c:\projects\paindrain\arduinolcd\test\pain drain\libraries\lvgl\src/core\lv_obj_style_gen.h ****     lv_style_value_t v = _lv_obj_style_apply_color_filter(obj, part, lv_obj_get_style_prop(obj, par
 430:c:\projects\paindrain\arduinolcd\test\pain drain\libraries\lvgl\src/core\lv_obj_style_gen.h ****     return v.color;
 431:c:\projects\paindrain\arduinolcd\test\pain drain\libraries\lvgl\src/core\lv_obj_style_gen.h **** }
 432:c:\projects\paindrain\arduinolcd\test\pain drain\libraries\lvgl\src/core\lv_obj_style_gen.h **** 
 433:c:\projects\paindrain\arduinolcd\test\pain drain\libraries\lvgl\src/core\lv_obj_style_gen.h **** static inline lv_opa_t lv_obj_get_style_arc_opa(const struct _lv_obj_t * obj, uint32_t part)
 434:c:\projects\paindrain\arduinolcd\test\pain drain\libraries\lvgl\src/core\lv_obj_style_gen.h **** {
 435:c:\projects\paindrain\arduinolcd\test\pain drain\libraries\lvgl\src/core\lv_obj_style_gen.h ****     lv_style_value_t v = lv_obj_get_style_prop(obj, part, LV_STYLE_ARC_OPA);
 436:c:\projects\paindrain\arduinolcd\test\pain drain\libraries\lvgl\src/core\lv_obj_style_gen.h ****     return (lv_opa_t)v.num;
 437:c:\projects\paindrain\arduinolcd\test\pain drain\libraries\lvgl\src/core\lv_obj_style_gen.h **** }
 438:c:\projects\paindrain\arduinolcd\test\pain drain\libraries\lvgl\src/core\lv_obj_style_gen.h **** 
 439:c:\projects\paindrain\arduinolcd\test\pain drain\libraries\lvgl\src/core\lv_obj_style_gen.h **** static inline const void * lv_obj_get_style_arc_img_src(const struct _lv_obj_t * obj, uint32_t part
 440:c:\projects\paindrain\arduinolcd\test\pain drain\libraries\lvgl\src/core\lv_obj_style_gen.h **** {
 441:c:\projects\paindrain\arduinolcd\test\pain drain\libraries\lvgl\src/core\lv_obj_style_gen.h ****     lv_style_value_t v = lv_obj_get_style_prop(obj, part, LV_STYLE_ARC_IMG_SRC);
 442:c:\projects\paindrain\arduinolcd\test\pain drain\libraries\lvgl\src/core\lv_obj_style_gen.h ****     return (const void *)v.ptr;
 443:c:\projects\paindrain\arduinolcd\test\pain drain\libraries\lvgl\src/core\lv_obj_style_gen.h **** }
 444:c:\projects\paindrain\arduinolcd\test\pain drain\libraries\lvgl\src/core\lv_obj_style_gen.h **** 
 445:c:\projects\paindrain\arduinolcd\test\pain drain\libraries\lvgl\src/core\lv_obj_style_gen.h **** static inline lv_color_t lv_obj_get_style_text_color(const struct _lv_obj_t * obj, uint32_t part)
 446:c:\projects\paindrain\arduinolcd\test\pain drain\libraries\lvgl\src/core\lv_obj_style_gen.h **** {
 447:c:\projects\paindrain\arduinolcd\test\pain drain\libraries\lvgl\src/core\lv_obj_style_gen.h ****     lv_style_value_t v = lv_obj_get_style_prop(obj, part, LV_STYLE_TEXT_COLOR);
 448:c:\projects\paindrain\arduinolcd\test\pain drain\libraries\lvgl\src/core\lv_obj_style_gen.h ****     return v.color;
ARM GAS  C:\Users\haske\AppData\Local\Temp\ccXBxzcA.s 			page 19


 449:c:\projects\paindrain\arduinolcd\test\pain drain\libraries\lvgl\src/core\lv_obj_style_gen.h **** }
 450:c:\projects\paindrain\arduinolcd\test\pain drain\libraries\lvgl\src/core\lv_obj_style_gen.h **** 
 451:c:\projects\paindrain\arduinolcd\test\pain drain\libraries\lvgl\src/core\lv_obj_style_gen.h **** static inline lv_color_t lv_obj_get_style_text_color_filtered(const struct _lv_obj_t * obj, uint32_
 452:c:\projects\paindrain\arduinolcd\test\pain drain\libraries\lvgl\src/core\lv_obj_style_gen.h **** {
 453:c:\projects\paindrain\arduinolcd\test\pain drain\libraries\lvgl\src/core\lv_obj_style_gen.h ****     lv_style_value_t v = _lv_obj_style_apply_color_filter(obj, part, lv_obj_get_style_prop(obj, par
 454:c:\projects\paindrain\arduinolcd\test\pain drain\libraries\lvgl\src/core\lv_obj_style_gen.h ****     return v.color;
 455:c:\projects\paindrain\arduinolcd\test\pain drain\libraries\lvgl\src/core\lv_obj_style_gen.h **** }
 456:c:\projects\paindrain\arduinolcd\test\pain drain\libraries\lvgl\src/core\lv_obj_style_gen.h **** 
 457:c:\projects\paindrain\arduinolcd\test\pain drain\libraries\lvgl\src/core\lv_obj_style_gen.h **** static inline lv_opa_t lv_obj_get_style_text_opa(const struct _lv_obj_t * obj, uint32_t part)
 458:c:\projects\paindrain\arduinolcd\test\pain drain\libraries\lvgl\src/core\lv_obj_style_gen.h **** {
 459:c:\projects\paindrain\arduinolcd\test\pain drain\libraries\lvgl\src/core\lv_obj_style_gen.h ****     lv_style_value_t v = lv_obj_get_style_prop(obj, part, LV_STYLE_TEXT_OPA);
 460:c:\projects\paindrain\arduinolcd\test\pain drain\libraries\lvgl\src/core\lv_obj_style_gen.h ****     return (lv_opa_t)v.num;
 461:c:\projects\paindrain\arduinolcd\test\pain drain\libraries\lvgl\src/core\lv_obj_style_gen.h **** }
 462:c:\projects\paindrain\arduinolcd\test\pain drain\libraries\lvgl\src/core\lv_obj_style_gen.h **** 
 463:c:\projects\paindrain\arduinolcd\test\pain drain\libraries\lvgl\src/core\lv_obj_style_gen.h **** static inline const lv_font_t * lv_obj_get_style_text_font(const struct _lv_obj_t * obj, uint32_t p
 464:c:\projects\paindrain\arduinolcd\test\pain drain\libraries\lvgl\src/core\lv_obj_style_gen.h **** {
 465:c:\projects\paindrain\arduinolcd\test\pain drain\libraries\lvgl\src/core\lv_obj_style_gen.h ****     lv_style_value_t v = lv_obj_get_style_prop(obj, part, LV_STYLE_TEXT_FONT);
 466:c:\projects\paindrain\arduinolcd\test\pain drain\libraries\lvgl\src/core\lv_obj_style_gen.h ****     return (const lv_font_t *)v.ptr;
 467:c:\projects\paindrain\arduinolcd\test\pain drain\libraries\lvgl\src/core\lv_obj_style_gen.h **** }
 468:c:\projects\paindrain\arduinolcd\test\pain drain\libraries\lvgl\src/core\lv_obj_style_gen.h **** 
 469:c:\projects\paindrain\arduinolcd\test\pain drain\libraries\lvgl\src/core\lv_obj_style_gen.h **** static inline lv_coord_t lv_obj_get_style_text_letter_space(const struct _lv_obj_t * obj, uint32_t 
 470:c:\projects\paindrain\arduinolcd\test\pain drain\libraries\lvgl\src/core\lv_obj_style_gen.h **** {
 471:c:\projects\paindrain\arduinolcd\test\pain drain\libraries\lvgl\src/core\lv_obj_style_gen.h ****     lv_style_value_t v = lv_obj_get_style_prop(obj, part, LV_STYLE_TEXT_LETTER_SPACE);
 472:c:\projects\paindrain\arduinolcd\test\pain drain\libraries\lvgl\src/core\lv_obj_style_gen.h ****     return (lv_coord_t)v.num;
 473:c:\projects\paindrain\arduinolcd\test\pain drain\libraries\lvgl\src/core\lv_obj_style_gen.h **** }
 474:c:\projects\paindrain\arduinolcd\test\pain drain\libraries\lvgl\src/core\lv_obj_style_gen.h **** 
 475:c:\projects\paindrain\arduinolcd\test\pain drain\libraries\lvgl\src/core\lv_obj_style_gen.h **** static inline lv_coord_t lv_obj_get_style_text_line_space(const struct _lv_obj_t * obj, uint32_t pa
 476:c:\projects\paindrain\arduinolcd\test\pain drain\libraries\lvgl\src/core\lv_obj_style_gen.h **** {
 477:c:\projects\paindrain\arduinolcd\test\pain drain\libraries\lvgl\src/core\lv_obj_style_gen.h ****     lv_style_value_t v = lv_obj_get_style_prop(obj, part, LV_STYLE_TEXT_LINE_SPACE);
 478:c:\projects\paindrain\arduinolcd\test\pain drain\libraries\lvgl\src/core\lv_obj_style_gen.h ****     return (lv_coord_t)v.num;
 479:c:\projects\paindrain\arduinolcd\test\pain drain\libraries\lvgl\src/core\lv_obj_style_gen.h **** }
 480:c:\projects\paindrain\arduinolcd\test\pain drain\libraries\lvgl\src/core\lv_obj_style_gen.h **** 
 481:c:\projects\paindrain\arduinolcd\test\pain drain\libraries\lvgl\src/core\lv_obj_style_gen.h **** static inline lv_text_decor_t lv_obj_get_style_text_decor(const struct _lv_obj_t * obj, uint32_t pa
 482:c:\projects\paindrain\arduinolcd\test\pain drain\libraries\lvgl\src/core\lv_obj_style_gen.h **** {
 483:c:\projects\paindrain\arduinolcd\test\pain drain\libraries\lvgl\src/core\lv_obj_style_gen.h ****     lv_style_value_t v = lv_obj_get_style_prop(obj, part, LV_STYLE_TEXT_DECOR);
 484:c:\projects\paindrain\arduinolcd\test\pain drain\libraries\lvgl\src/core\lv_obj_style_gen.h ****     return (lv_text_decor_t)v.num;
 485:c:\projects\paindrain\arduinolcd\test\pain drain\libraries\lvgl\src/core\lv_obj_style_gen.h **** }
 486:c:\projects\paindrain\arduinolcd\test\pain drain\libraries\lvgl\src/core\lv_obj_style_gen.h **** 
 487:c:\projects\paindrain\arduinolcd\test\pain drain\libraries\lvgl\src/core\lv_obj_style_gen.h **** static inline lv_text_align_t lv_obj_get_style_text_align(const struct _lv_obj_t * obj, uint32_t pa
 488:c:\projects\paindrain\arduinolcd\test\pain drain\libraries\lvgl\src/core\lv_obj_style_gen.h **** {
 489:c:\projects\paindrain\arduinolcd\test\pain drain\libraries\lvgl\src/core\lv_obj_style_gen.h ****     lv_style_value_t v = lv_obj_get_style_prop(obj, part, LV_STYLE_TEXT_ALIGN);
 490:c:\projects\paindrain\arduinolcd\test\pain drain\libraries\lvgl\src/core\lv_obj_style_gen.h ****     return (lv_text_align_t)v.num;
 491:c:\projects\paindrain\arduinolcd\test\pain drain\libraries\lvgl\src/core\lv_obj_style_gen.h **** }
 492:c:\projects\paindrain\arduinolcd\test\pain drain\libraries\lvgl\src/core\lv_obj_style_gen.h **** 
 493:c:\projects\paindrain\arduinolcd\test\pain drain\libraries\lvgl\src/core\lv_obj_style_gen.h **** static inline lv_coord_t lv_obj_get_style_radius(const struct _lv_obj_t * obj, uint32_t part)
 494:c:\projects\paindrain\arduinolcd\test\pain drain\libraries\lvgl\src/core\lv_obj_style_gen.h **** {
 495:c:\projects\paindrain\arduinolcd\test\pain drain\libraries\lvgl\src/core\lv_obj_style_gen.h ****     lv_style_value_t v = lv_obj_get_style_prop(obj, part, LV_STYLE_RADIUS);
 496:c:\projects\paindrain\arduinolcd\test\pain drain\libraries\lvgl\src/core\lv_obj_style_gen.h ****     return (lv_coord_t)v.num;
 497:c:\projects\paindrain\arduinolcd\test\pain drain\libraries\lvgl\src/core\lv_obj_style_gen.h **** }
 498:c:\projects\paindrain\arduinolcd\test\pain drain\libraries\lvgl\src/core\lv_obj_style_gen.h **** 
 499:c:\projects\paindrain\arduinolcd\test\pain drain\libraries\lvgl\src/core\lv_obj_style_gen.h **** static inline bool lv_obj_get_style_clip_corner(const struct _lv_obj_t * obj, uint32_t part)
 500:c:\projects\paindrain\arduinolcd\test\pain drain\libraries\lvgl\src/core\lv_obj_style_gen.h **** {
 501:c:\projects\paindrain\arduinolcd\test\pain drain\libraries\lvgl\src/core\lv_obj_style_gen.h ****     lv_style_value_t v = lv_obj_get_style_prop(obj, part, LV_STYLE_CLIP_CORNER);
 502:c:\projects\paindrain\arduinolcd\test\pain drain\libraries\lvgl\src/core\lv_obj_style_gen.h ****     return (bool)v.num;
 503:c:\projects\paindrain\arduinolcd\test\pain drain\libraries\lvgl\src/core\lv_obj_style_gen.h **** }
 504:c:\projects\paindrain\arduinolcd\test\pain drain\libraries\lvgl\src/core\lv_obj_style_gen.h **** 
 505:c:\projects\paindrain\arduinolcd\test\pain drain\libraries\lvgl\src/core\lv_obj_style_gen.h **** static inline lv_opa_t lv_obj_get_style_opa(const struct _lv_obj_t * obj, uint32_t part)
ARM GAS  C:\Users\haske\AppData\Local\Temp\ccXBxzcA.s 			page 20


 506:c:\projects\paindrain\arduinolcd\test\pain drain\libraries\lvgl\src/core\lv_obj_style_gen.h **** {
 507:c:\projects\paindrain\arduinolcd\test\pain drain\libraries\lvgl\src/core\lv_obj_style_gen.h ****     lv_style_value_t v = lv_obj_get_style_prop(obj, part, LV_STYLE_OPA);
 117              		.loc 2 507 0
 118 005e 6022     		movs	r2, #96
 119 0060 0021     		movs	r1, #0
 120 0062 3000     		movs	r0, r6
 121 0064 FFF7FEFF 		bl	lv_obj_get_style_prop
 122              	.LVL11:
 123 0068 0690     		str	r0, [sp, #24]
 508:c:\projects\paindrain\arduinolcd\test\pain drain\libraries\lvgl\src/core\lv_obj_style_gen.h ****     return (lv_opa_t)v.num;
 124              		.loc 2 508 0
 125 006a C3B2     		uxtb	r3, r0
 126 006c 0793     		str	r3, [sp, #28]
 127              	.LVL12:
 128              	.LBE54:
 129              	.LBE53:
 338:..\..\..\arduinoLCD\test\Pain Drain\libraries\lvgl\src\extra\widgets\meter/lv_meter.c **** 
 339:..\..\..\arduinoLCD\test\Pain Drain\libraries\lvgl\src\extra\widgets\meter/lv_meter.c ****     lv_opa_t opa_main = lv_obj_get_style_opa(obj, LV_PART_MAIN);
 340:..\..\..\arduinoLCD\test\Pain Drain\libraries\lvgl\src\extra\widgets\meter/lv_meter.c ****     lv_meter_indicator_t * indic;
 341:..\..\..\arduinoLCD\test\Pain Drain\libraries\lvgl\src\extra\widgets\meter/lv_meter.c **** 
 342:..\..\..\arduinoLCD\test\Pain Drain\libraries\lvgl\src\extra\widgets\meter/lv_meter.c ****     lv_obj_draw_part_dsc_t part_draw_dsc;
 343:..\..\..\arduinoLCD\test\Pain Drain\libraries\lvgl\src\extra\widgets\meter/lv_meter.c ****     lv_obj_draw_dsc_init(&part_draw_dsc, draw_ctx);
 130              		.loc 1 343 0
 131 006e 3900     		movs	r1, r7
 132 0070 09A8     		add	r0, sp, #36
 133 0072 FFF7FEFF 		bl	lv_obj_draw_dsc_init
 134              	.LVL13:
 344:..\..\..\arduinoLCD\test\Pain Drain\libraries\lvgl\src\extra\widgets\meter/lv_meter.c ****     part_draw_dsc.arc_dsc = &arc_dsc;
 135              		.loc 1 344 0
 136 0076 1194     		str	r4, [sp, #68]
 345:..\..\..\arduinoLCD\test\Pain Drain\libraries\lvgl\src\extra\widgets\meter/lv_meter.c ****     part_draw_dsc.part = LV_PART_INDICATOR;
 137              		.loc 1 345 0
 138 0078 8023     		movs	r3, #128
 139 007a 9B02     		lsls	r3, r3, #10
 140 007c 1693     		str	r3, [sp, #88]
 346:..\..\..\arduinoLCD\test\Pain Drain\libraries\lvgl\src\extra\widgets\meter/lv_meter.c ****     part_draw_dsc.class_p = MY_CLASS;
 141              		.loc 1 346 0
 142 007e 314B     		ldr	r3, .L7
 143 0080 0A93     		str	r3, [sp, #40]
 347:..\..\..\arduinoLCD\test\Pain Drain\libraries\lvgl\src\extra\widgets\meter/lv_meter.c ****     part_draw_dsc.type = LV_METER_DRAW_PART_ARC;
 144              		.loc 1 347 0
 145 0082 0023     		movs	r3, #0
 146 0084 0B93     		str	r3, [sp, #44]
 348:..\..\..\arduinoLCD\test\Pain Drain\libraries\lvgl\src\extra\widgets\meter/lv_meter.c **** 
 349:..\..\..\arduinoLCD\test\Pain Drain\libraries\lvgl\src\extra\widgets\meter/lv_meter.c ****     _LV_LL_READ_BACK(&meter->indicator_ll, indic) {
 147              		.loc 1 349 0
 148 0086 3300     		movs	r3, r6
 149 0088 3033     		adds	r3, r3, #48
 150 008a 0393     		str	r3, [sp, #12]
 151 008c 1800     		movs	r0, r3
 152 008e FFF7FEFF 		bl	_lv_ll_get_tail
 153              	.LVL14:
 154 0092 0700     		movs	r7, r0
 155              	.LVL15:
 156 0094 4EE0     		b	.L2
 157              	.LVL16:
 158              	.L5:
ARM GAS  C:\Users\haske\AppData\Local\Temp\ccXBxzcA.s 			page 21


 159              	.LBB55:
 350:..\..\..\arduinoLCD\test\Pain Drain\libraries\lvgl\src\extra\widgets\meter/lv_meter.c ****         if(indic->type != LV_METER_INDICATOR_TYPE_ARC) continue;
 160              		.loc 1 350 0
 161 0096 3B79     		ldrb	r3, [r7, #4]
 162 0098 032B     		cmp	r3, #3
 163 009a 46D1     		bne	.L3
 351:..\..\..\arduinoLCD\test\Pain Drain\libraries\lvgl\src\extra\widgets\meter/lv_meter.c **** 
 352:..\..\..\arduinoLCD\test\Pain Drain\libraries\lvgl\src\extra\widgets\meter/lv_meter.c ****         arc_dsc.color = indic->type_data.arc.color;
 164              		.loc 1 352 0
 165 009c 1CAB     		add	r3, sp, #112
 166 009e 3A8B     		ldrh	r2, [r7, #24]
 167 00a0 1A80     		strh	r2, [r3]
 353:..\..\..\arduinoLCD\test\Pain Drain\libraries\lvgl\src\extra\widgets\meter/lv_meter.c ****         arc_dsc.width = indic->type_data.arc.width;
 168              		.loc 1 353 0
 169 00a2 3A8A     		ldrh	r2, [r7, #16]
 170 00a4 5A80     		strh	r2, [r3, #2]
 354:..\..\..\arduinoLCD\test\Pain Drain\libraries\lvgl\src\extra\widgets\meter/lv_meter.c ****         arc_dsc.opa = indic->opa > LV_OPA_MAX ? opa_main : (opa_main * indic->opa) >> 8;
 171              		.loc 1 354 0
 172 00a6 7B79     		ldrb	r3, [r7, #5]
 173 00a8 FD2B     		cmp	r3, #253
 174 00aa 06D8     		bhi	.L6
 175              		.loc 1 354 0 is_stmt 0 discriminator 1
 176 00ac FF22     		movs	r2, #255
 177 00ae 0699     		ldr	r1, [sp, #24]
 178 00b0 0A40     		ands	r2, r1
 179 00b2 5343     		muls	r3, r2
 180 00b4 1B12     		asrs	r3, r3, #8
 181 00b6 DBB2     		uxtb	r3, r3
 182 00b8 00E0     		b	.L4
 183              	.L6:
 184              		.loc 1 354 0
 185 00ba 079B     		ldr	r3, [sp, #28]
 186              	.L4:
 187              		.loc 1 354 0 discriminator 4
 188 00bc 1CAA     		add	r2, sp, #112
 189 00be 9046     		mov	r8, r2
 190 00c0 1373     		strb	r3, [r2, #12]
 355:..\..\..\arduinoLCD\test\Pain Drain\libraries\lvgl\src\extra\widgets\meter/lv_meter.c **** 
 356:..\..\..\arduinoLCD\test\Pain Drain\libraries\lvgl\src\extra\widgets\meter/lv_meter.c ****         lv_meter_scale_t * scale = indic->scale;
 191              		.loc 1 356 0 is_stmt 1 discriminator 4
 192 00c2 3C68     		ldr	r4, [r7]
 193              	.LVL17:
 357:..\..\..\arduinoLCD\test\Pain Drain\libraries\lvgl\src\extra\widgets\meter/lv_meter.c **** 
 358:..\..\..\arduinoLCD\test\Pain Drain\libraries\lvgl\src\extra\widgets\meter/lv_meter.c ****         int32_t start_angle = lv_map(indic->start_value, scale->min, scale->max, scale->rotation,
 194              		.loc 1 358 0 discriminator 4
 195 00c4 B868     		ldr	r0, [r7, #8]
 196              	.LVL18:
 197 00c6 6169     		ldr	r1, [r4, #20]
 198 00c8 A269     		ldr	r2, [r4, #24]
 199 00ca 2025     		movs	r5, #32
 200 00cc 635F     		ldrsh	r3, [r4, r5]
 359:..\..\..\arduinoLCD\test\Pain Drain\libraries\lvgl\src\extra\widgets\meter/lv_meter.c ****                                      scale->rotation + scale->angle_range);
 201              		.loc 1 359 0 discriminator 4
 202 00ce E58B     		ldrh	r5, [r4, #30]
 203 00d0 5D19     		adds	r5, r3, r5
 358:..\..\..\arduinoLCD\test\Pain Drain\libraries\lvgl\src\extra\widgets\meter/lv_meter.c ****                                      scale->rotation + scale->angle_range);
 204              		.loc 1 358 0 discriminator 4
ARM GAS  C:\Users\haske\AppData\Local\Temp\ccXBxzcA.s 			page 22


 205 00d2 0095     		str	r5, [sp]
 206 00d4 FFF7FEFF 		bl	lv_map
 207              	.LVL19:
 208 00d8 0500     		movs	r5, r0
 209              	.LVL20:
 360:..\..\..\arduinoLCD\test\Pain Drain\libraries\lvgl\src\extra\widgets\meter/lv_meter.c ****         int32_t end_angle = lv_map(indic->end_value, scale->min, scale->max, scale->rotation,
 210              		.loc 1 360 0 discriminator 4
 211 00da F868     		ldr	r0, [r7, #12]
 212              	.LVL21:
 213 00dc 6169     		ldr	r1, [r4, #20]
 214 00de A269     		ldr	r2, [r4, #24]
 215 00e0 2026     		movs	r6, #32
 216 00e2 A35F     		ldrsh	r3, [r4, r6]
 361:..\..\..\arduinoLCD\test\Pain Drain\libraries\lvgl\src\extra\widgets\meter/lv_meter.c ****                                    scale->rotation + scale->angle_range);
 217              		.loc 1 361 0 discriminator 4
 218 00e4 E48B     		ldrh	r4, [r4, #30]
 219              	.LVL22:
 220 00e6 1C19     		adds	r4, r3, r4
 360:..\..\..\arduinoLCD\test\Pain Drain\libraries\lvgl\src\extra\widgets\meter/lv_meter.c ****         int32_t end_angle = lv_map(indic->end_value, scale->min, scale->max, scale->rotation,
 221              		.loc 1 360 0 discriminator 4
 222 00e8 0094     		str	r4, [sp]
 223 00ea FFF7FEFF 		bl	lv_map
 224              	.LVL23:
 225 00ee 0600     		movs	r6, r0
 226              	.LVL24:
 362:..\..\..\arduinoLCD\test\Pain Drain\libraries\lvgl\src\extra\widgets\meter/lv_meter.c **** 
 363:..\..\..\arduinoLCD\test\Pain Drain\libraries\lvgl\src\extra\widgets\meter/lv_meter.c ****         part_draw_dsc.radius = r_out + indic->type_data.arc.r_mod;
 227              		.loc 1 363 0 discriminator 4
 228 00f0 1A22     		movs	r2, #26
 229 00f2 BB5E     		ldrsh	r3, [r7, r2]
 230 00f4 09AC     		add	r4, sp, #36
 231 00f6 4B44     		add	r3, r3, r9
 232 00f8 A387     		strh	r3, [r4, #60]
 364:..\..\..\arduinoLCD\test\Pain Drain\libraries\lvgl\src\extra\widgets\meter/lv_meter.c ****         part_draw_dsc.sub_part_ptr = indic;
 233              		.loc 1 364 0 discriminator 4
 234 00fa 1A97     		str	r7, [sp, #104]
 365:..\..\..\arduinoLCD\test\Pain Drain\libraries\lvgl\src\extra\widgets\meter/lv_meter.c ****         part_draw_dsc.p1 = &scale_center;
 235              		.loc 1 365 0 discriminator 4
 236 00fc 1BAB     		add	r3, sp, #108
 237 00fe 9A46     		mov	r10, r3
 238 0100 1293     		str	r3, [sp, #72]
 366:..\..\..\arduinoLCD\test\Pain Drain\libraries\lvgl\src\extra\widgets\meter/lv_meter.c **** 
 367:..\..\..\arduinoLCD\test\Pain Drain\libraries\lvgl\src\extra\widgets\meter/lv_meter.c ****         lv_event_send(obj, LV_EVENT_DRAW_PART_BEGIN, &part_draw_dsc);
 239              		.loc 1 367 0 discriminator 4
 240 0102 2200     		movs	r2, r4
 241 0104 1A21     		movs	r1, #26
 242 0106 0498     		ldr	r0, [sp, #16]
 243              	.LVL25:
 244 0108 FFF7FEFF 		bl	lv_event_send
 245              	.LVL26:
 368:..\..\..\arduinoLCD\test\Pain Drain\libraries\lvgl\src\extra\widgets\meter/lv_meter.c ****         lv_draw_arc(draw_ctx, &arc_dsc, &scale_center, part_draw_dsc.radius, start_angle, end_angle
 246              		.loc 1 368 0 discriminator 4
 247 010c A38F     		ldrh	r3, [r4, #60]
 248 010e B6B2     		uxth	r6, r6
 249              	.LVL27:
 250 0110 0196     		str	r6, [sp, #4]
 251 0112 ADB2     		uxth	r5, r5
ARM GAS  C:\Users\haske\AppData\Local\Temp\ccXBxzcA.s 			page 23


 252              	.LVL28:
 253 0114 0095     		str	r5, [sp]
 254 0116 5246     		mov	r2, r10
 255 0118 4146     		mov	r1, r8
 256 011a 0598     		ldr	r0, [sp, #20]
 257 011c FFF7FEFF 		bl	lv_draw_arc
 258              	.LVL29:
 369:..\..\..\arduinoLCD\test\Pain Drain\libraries\lvgl\src\extra\widgets\meter/lv_meter.c ****         lv_event_send(obj, LV_EVENT_DRAW_PART_END, &part_draw_dsc);
 259              		.loc 1 369 0 discriminator 4
 260 0120 2200     		movs	r2, r4
 261 0122 1B21     		movs	r1, #27
 262 0124 0498     		ldr	r0, [sp, #16]
 263 0126 FFF7FEFF 		bl	lv_event_send
 264              	.LVL30:
 265              	.L3:
 266              	.LBE55:
 349:..\..\..\arduinoLCD\test\Pain Drain\libraries\lvgl\src\extra\widgets\meter/lv_meter.c ****         if(indic->type != LV_METER_INDICATOR_TYPE_ARC) continue;
 267              		.loc 1 349 0 discriminator 2
 268 012a 3900     		movs	r1, r7
 269 012c 0398     		ldr	r0, [sp, #12]
 270 012e FFF7FEFF 		bl	_lv_ll_get_prev
 271              	.LVL31:
 272 0132 0700     		movs	r7, r0
 273              	.LVL32:
 274              	.L2:
 349:..\..\..\arduinoLCD\test\Pain Drain\libraries\lvgl\src\extra\widgets\meter/lv_meter.c ****         if(indic->type != LV_METER_INDICATOR_TYPE_ARC) continue;
 275              		.loc 1 349 0 is_stmt 0 discriminator 1
 276 0134 002F     		cmp	r7, #0
 277 0136 AED1     		bne	.L5
 370:..\..\..\arduinoLCD\test\Pain Drain\libraries\lvgl\src\extra\widgets\meter/lv_meter.c ****     }
 371:..\..\..\arduinoLCD\test\Pain Drain\libraries\lvgl\src\extra\widgets\meter/lv_meter.c **** }
 278              		.loc 1 371 0 is_stmt 1
 279 0138 20B0     		add	sp, sp, #128
 280              		@ sp needed
 281              	.LVL33:
 282 013a 1CBC     		pop	{r2, r3, r4}
 283 013c 9046     		mov	r8, r2
 284 013e 9946     		mov	r9, r3
 285 0140 A246     		mov	r10, r4
 286 0142 F0BD     		pop	{r4, r5, r6, r7, pc}
 287              	.L8:
 288              		.align	2
 289              	.L7:
 290 0144 00000000 		.word	.LANCHOR0
 291              		.cfi_endproc
 292              	.LFE217:
 293              		.size	draw_arcs, .-draw_arcs
 294              		.global	__aeabi_idiv
 295              		.section	.text.draw_ticks_and_labels,"ax",%progbits
 296              		.align	2
 297              		.code	16
 298              		.thumb_func
 299              		.type	draw_ticks_and_labels, %function
 300              	draw_ticks_and_labels:
 301              	.LFB218:
 372:..\..\..\arduinoLCD\test\Pain Drain\libraries\lvgl\src\extra\widgets\meter/lv_meter.c **** 
 373:..\..\..\arduinoLCD\test\Pain Drain\libraries\lvgl\src\extra\widgets\meter/lv_meter.c **** static void draw_ticks_and_labels(lv_obj_t * obj, lv_draw_ctx_t * draw_ctx, const lv_area_t * scale
ARM GAS  C:\Users\haske\AppData\Local\Temp\ccXBxzcA.s 			page 24


 374:..\..\..\arduinoLCD\test\Pain Drain\libraries\lvgl\src\extra\widgets\meter/lv_meter.c **** {
 302              		.loc 1 374 0
 303              		.cfi_startproc
 304              		@ args = 0, pretend = 0, frame = 336
 305              		@ frame_needed = 0, uses_anonymous_args = 0
 306              	.LVL34:
 307 0000 F0B5     		push	{r4, r5, r6, r7, lr}
 308              		.cfi_def_cfa_offset 20
 309              		.cfi_offset 4, -20
 310              		.cfi_offset 5, -16
 311              		.cfi_offset 6, -12
 312              		.cfi_offset 7, -8
 313              		.cfi_offset 14, -4
 314 0002 5F46     		mov	r7, fp
 315 0004 5646     		mov	r6, r10
 316 0006 4D46     		mov	r5, r9
 317 0008 4446     		mov	r4, r8
 318 000a F0B4     		push	{r4, r5, r6, r7}
 319              		.cfi_def_cfa_offset 36
 320              		.cfi_offset 8, -36
 321              		.cfi_offset 9, -32
 322              		.cfi_offset 10, -28
 323              		.cfi_offset 11, -24
 324 000c D9B0     		sub	sp, sp, #356
 325              		.cfi_def_cfa_offset 392
 326 000e 0690     		str	r0, [sp, #24]
 327 0010 0A91     		str	r1, [sp, #40]
 328 0012 1000     		movs	r0, r2
 329              	.LVL35:
 330              	.LBB56:
 331              	.LBB57:
 332              		.loc 3 125 0
 333 0014 0422     		movs	r2, #4
 334 0016 835E     		ldrsh	r3, [r0, r2]
 335              	.LVL36:
 336 0018 0188     		ldrh	r1, [r0]
 337              	.LVL37:
 338 001a 5B1A     		subs	r3, r3, r1
 339 001c 0133     		adds	r3, r3, #1
 340 001e 1BB2     		sxth	r3, r3
 341              	.LVL38:
 342              	.LBE57:
 343              	.LBE56:
 375:..\..\..\arduinoLCD\test\Pain Drain\libraries\lvgl\src\extra\widgets\meter/lv_meter.c ****     lv_meter_t * meter    = (lv_meter_t *)obj;
 376:..\..\..\arduinoLCD\test\Pain Drain\libraries\lvgl\src\extra\widgets\meter/lv_meter.c **** 
 377:..\..\..\arduinoLCD\test\Pain Drain\libraries\lvgl\src\extra\widgets\meter/lv_meter.c ****     lv_point_t p_center;
 378:..\..\..\arduinoLCD\test\Pain Drain\libraries\lvgl\src\extra\widgets\meter/lv_meter.c ****     lv_coord_t r_edge = LV_MIN(lv_area_get_width(scale_area) / 2, lv_area_get_height(scale_area) / 
 344              		.loc 1 378 0
 345 0020 DA0F     		lsrs	r2, r3, #31
 346 0022 D318     		adds	r3, r2, r3
 347 0024 5B10     		asrs	r3, r3, #1
 348              	.LVL39:
 349              	.LBB58:
 350              	.LBB59:
 126:c:\projects\paindrain\arduinolcd\test\pain drain\libraries\lvgl\src\misc\lv_area.h **** }
 127:c:\projects\paindrain\arduinolcd\test\pain drain\libraries\lvgl\src\misc\lv_area.h **** 
 128:c:\projects\paindrain\arduinolcd\test\pain drain\libraries\lvgl\src\misc\lv_area.h **** /**
ARM GAS  C:\Users\haske\AppData\Local\Temp\ccXBxzcA.s 			page 25


 129:c:\projects\paindrain\arduinolcd\test\pain drain\libraries\lvgl\src\misc\lv_area.h ****  * Get the height of an area
 130:c:\projects\paindrain\arduinolcd\test\pain drain\libraries\lvgl\src\misc\lv_area.h ****  * @param area_p pointer to an area
 131:c:\projects\paindrain\arduinolcd\test\pain drain\libraries\lvgl\src\misc\lv_area.h ****  * @return the height of the area (if y1 == y2 -> height = 1)
 132:c:\projects\paindrain\arduinolcd\test\pain drain\libraries\lvgl\src\misc\lv_area.h ****  */
 133:c:\projects\paindrain\arduinolcd\test\pain drain\libraries\lvgl\src\misc\lv_area.h **** static inline lv_coord_t lv_area_get_height(const lv_area_t * area_p)
 134:c:\projects\paindrain\arduinolcd\test\pain drain\libraries\lvgl\src\misc\lv_area.h **** {
 135:c:\projects\paindrain\arduinolcd\test\pain drain\libraries\lvgl\src\misc\lv_area.h ****     return (lv_coord_t)(area_p->y2 - area_p->y1 + 1);
 351              		.loc 3 135 0
 352 0026 0624     		movs	r4, #6
 353 0028 025F     		ldrsh	r2, [r0, r4]
 354 002a 4088     		ldrh	r0, [r0, #2]
 355              	.LVL40:
 356 002c 121A     		subs	r2, r2, r0
 357 002e 0132     		adds	r2, r2, #1
 358 0030 12B2     		sxth	r2, r2
 359              	.LVL41:
 360              	.LBE59:
 361              	.LBE58:
 362              		.loc 1 378 0
 363 0032 D40F     		lsrs	r4, r2, #31
 364 0034 A218     		adds	r2, r4, r2
 365 0036 5210     		asrs	r2, r2, #1
 366 0038 0D92     		str	r2, [sp, #52]
 367 003a 9342     		cmp	r3, r2
 368 003c 00DA     		bge	.L10
 369 003e 0D93     		str	r3, [sp, #52]
 370              	.L10:
 371              	.LVL42:
 379:..\..\..\arduinoLCD\test\Pain Drain\libraries\lvgl\src\extra\widgets\meter/lv_meter.c ****     p_center.x = scale_area->x1 + r_edge;
 372              		.loc 1 379 0 discriminator 4
 373 0040 6B46     		mov	r3, sp
 374 0042 9B8E     		ldrh	r3, [r3, #52]
 375 0044 1C00     		movs	r4, r3
 376 0046 0B93     		str	r3, [sp, #44]
 377 0048 57AB     		add	r3, sp, #348
 378 004a A446     		mov	ip, r4
 379 004c 6144     		add	r1, r1, ip
 380 004e 1980     		strh	r1, [r3]
 380:..\..\..\arduinoLCD\test\Pain Drain\libraries\lvgl\src\extra\widgets\meter/lv_meter.c ****     p_center.y = scale_area->y1 + r_edge;
 381              		.loc 1 380 0 discriminator 4
 382 0050 6044     		add	r0, r0, ip
 383 0052 5880     		strh	r0, [r3, #2]
 381:..\..\..\arduinoLCD\test\Pain Drain\libraries\lvgl\src\extra\widgets\meter/lv_meter.c **** 
 382:..\..\..\arduinoLCD\test\Pain Drain\libraries\lvgl\src\extra\widgets\meter/lv_meter.c ****     lv_draw_line_dsc_t line_dsc;
 383:..\..\..\arduinoLCD\test\Pain Drain\libraries\lvgl\src\extra\widgets\meter/lv_meter.c ****     lv_draw_line_dsc_init(&line_dsc);
 384              		.loc 1 383 0 discriminator 4
 385 0054 54AC     		add	r4, sp, #336
 386 0056 2000     		movs	r0, r4
 387 0058 FFF7FEFF 		bl	lv_draw_line_dsc_init
 388              	.LVL43:
 384:..\..\..\arduinoLCD\test\Pain Drain\libraries\lvgl\src\extra\widgets\meter/lv_meter.c ****     lv_obj_init_draw_line_dsc(obj, LV_PART_TICKS, &line_dsc);
 389              		.loc 1 384 0 discriminator 4
 390 005c C025     		movs	r5, #192
 391 005e ED02     		lsls	r5, r5, #11
 392 0060 2200     		movs	r2, r4
 393 0062 2900     		movs	r1, r5
 394 0064 069E     		ldr	r6, [sp, #24]
ARM GAS  C:\Users\haske\AppData\Local\Temp\ccXBxzcA.s 			page 26


 395 0066 3000     		movs	r0, r6
 396 0068 FFF7FEFF 		bl	lv_obj_init_draw_line_dsc
 397              	.LVL44:
 385:..\..\..\arduinoLCD\test\Pain Drain\libraries\lvgl\src\extra\widgets\meter/lv_meter.c ****     line_dsc.raw_end = 1;
 398              		.loc 1 385 0 discriminator 4
 399 006c 627A     		ldrb	r2, [r4, #9]
 400 006e 1023     		movs	r3, #16
 401 0070 1343     		orrs	r3, r2
 402 0072 6372     		strb	r3, [r4, #9]
 386:..\..\..\arduinoLCD\test\Pain Drain\libraries\lvgl\src\extra\widgets\meter/lv_meter.c **** 
 387:..\..\..\arduinoLCD\test\Pain Drain\libraries\lvgl\src\extra\widgets\meter/lv_meter.c ****     lv_draw_label_dsc_t label_dsc;
 388:..\..\..\arduinoLCD\test\Pain Drain\libraries\lvgl\src\extra\widgets\meter/lv_meter.c ****     lv_draw_label_dsc_init(&label_dsc);
 403              		.loc 1 388 0 discriminator 4
 404 0074 4CA8     		add	r0, sp, #304
 405 0076 FFF7FEFF 		bl	lv_draw_label_dsc_init
 406              	.LVL45:
 389:..\..\..\arduinoLCD\test\Pain Drain\libraries\lvgl\src\extra\widgets\meter/lv_meter.c ****     lv_obj_init_draw_label_dsc(obj, LV_PART_TICKS, &label_dsc);
 407              		.loc 1 389 0 discriminator 4
 408 007a 4CAA     		add	r2, sp, #304
 409 007c 2900     		movs	r1, r5
 410 007e 3000     		movs	r0, r6
 411 0080 FFF7FEFF 		bl	lv_obj_init_draw_label_dsc
 412              	.LVL46:
 390:..\..\..\arduinoLCD\test\Pain Drain\libraries\lvgl\src\extra\widgets\meter/lv_meter.c **** 
 391:..\..\..\arduinoLCD\test\Pain Drain\libraries\lvgl\src\extra\widgets\meter/lv_meter.c ****     lv_meter_scale_t * scale;
 392:..\..\..\arduinoLCD\test\Pain Drain\libraries\lvgl\src\extra\widgets\meter/lv_meter.c **** 
 393:..\..\..\arduinoLCD\test\Pain Drain\libraries\lvgl\src\extra\widgets\meter/lv_meter.c ****     lv_draw_mask_radius_param_t inner_minor_mask;
 394:..\..\..\arduinoLCD\test\Pain Drain\libraries\lvgl\src\extra\widgets\meter/lv_meter.c ****     lv_draw_mask_radius_param_t inner_major_mask;
 395:..\..\..\arduinoLCD\test\Pain Drain\libraries\lvgl\src\extra\widgets\meter/lv_meter.c ****     lv_draw_mask_radius_param_t outer_mask;
 396:..\..\..\arduinoLCD\test\Pain Drain\libraries\lvgl\src\extra\widgets\meter/lv_meter.c **** 
 397:..\..\..\arduinoLCD\test\Pain Drain\libraries\lvgl\src\extra\widgets\meter/lv_meter.c ****     lv_obj_draw_part_dsc_t part_draw_dsc;
 398:..\..\..\arduinoLCD\test\Pain Drain\libraries\lvgl\src\extra\widgets\meter/lv_meter.c ****     lv_obj_draw_dsc_init(&part_draw_dsc, draw_ctx);
 413              		.loc 1 398 0 discriminator 4
 414 0084 0A99     		ldr	r1, [sp, #40]
 415 0086 28A8     		add	r0, sp, #160
 416 0088 FFF7FEFF 		bl	lv_obj_draw_dsc_init
 417              	.LVL47:
 399:..\..\..\arduinoLCD\test\Pain Drain\libraries\lvgl\src\extra\widgets\meter/lv_meter.c ****     part_draw_dsc.class_p = MY_CLASS;
 418              		.loc 1 399 0 discriminator 4
 419 008c C84B     		ldr	r3, .L34
 420 008e 2993     		str	r3, [sp, #164]
 400:..\..\..\arduinoLCD\test\Pain Drain\libraries\lvgl\src\extra\widgets\meter/lv_meter.c ****     part_draw_dsc.part = LV_PART_TICKS;
 421              		.loc 1 400 0 discriminator 4
 422 0090 3595     		str	r5, [sp, #212]
 401:..\..\..\arduinoLCD\test\Pain Drain\libraries\lvgl\src\extra\widgets\meter/lv_meter.c ****     part_draw_dsc.type = LV_METER_DRAW_PART_TICK;
 423              		.loc 1 401 0 discriminator 4
 424 0092 0323     		movs	r3, #3
 425 0094 2A93     		str	r3, [sp, #168]
 402:..\..\..\arduinoLCD\test\Pain Drain\libraries\lvgl\src\extra\widgets\meter/lv_meter.c ****     part_draw_dsc.line_dsc = &line_dsc;
 426              		.loc 1 402 0 discriminator 4
 427 0096 2E94     		str	r4, [sp, #184]
 403:..\..\..\arduinoLCD\test\Pain Drain\libraries\lvgl\src\extra\widgets\meter/lv_meter.c **** 
 404:..\..\..\arduinoLCD\test\Pain Drain\libraries\lvgl\src\extra\widgets\meter/lv_meter.c ****     _LV_LL_READ_BACK(&meter->scale_ll, scale) {
 428              		.loc 1 404 0 discriminator 4
 429 0098 3300     		movs	r3, r6
 430 009a 2433     		adds	r3, r3, #36
 431 009c 0F93     		str	r3, [sp, #60]
ARM GAS  C:\Users\haske\AppData\Local\Temp\ccXBxzcA.s 			page 27


 432 009e 1800     		movs	r0, r3
 433 00a0 FFF7FEFF 		bl	_lv_ll_get_tail
 434              	.LVL48:
 435 00a4 0700     		movs	r7, r0
 436 00a6 BFE1     		b	.L11
 437              	.L30:
 438              	.LBB60:
 405:..\..\..\arduinoLCD\test\Pain Drain\libraries\lvgl\src\extra\widgets\meter/lv_meter.c ****         part_draw_dsc.sub_part_ptr = scale;
 439              		.loc 1 405 0
 440 00a8 3997     		str	r7, [sp, #228]
 441              	.LVL49:
 406:..\..\..\arduinoLCD\test\Pain Drain\libraries\lvgl\src\extra\widgets\meter/lv_meter.c **** 
 407:..\..\..\arduinoLCD\test\Pain Drain\libraries\lvgl\src\extra\widgets\meter/lv_meter.c ****         lv_coord_t r_out = r_edge;
 408:..\..\..\arduinoLCD\test\Pain Drain\libraries\lvgl\src\extra\widgets\meter/lv_meter.c ****         lv_coord_t r_in_minor = r_out - scale->tick_length;
 442              		.loc 1 408 0
 443 00aa BB88     		ldrh	r3, [r7, #4]
 444 00ac 0B9A     		ldr	r2, [sp, #44]
 445 00ae D31A     		subs	r3, r2, r3
 446 00b0 9BB2     		uxth	r3, r3
 447              	.LVL50:
 409:..\..\..\arduinoLCD\test\Pain Drain\libraries\lvgl\src\extra\widgets\meter/lv_meter.c ****         lv_coord_t r_in_major = r_out - scale->tick_major_length;
 448              		.loc 1 409 0
 449 00b2 BE89     		ldrh	r6, [r7, #12]
 450 00b4 961B     		subs	r6, r2, r6
 451 00b6 B6B2     		uxth	r6, r6
 452 00b8 31B2     		sxth	r1, r6
 453 00ba 0E91     		str	r1, [sp, #56]
 454              	.LVL51:
 410:..\..\..\arduinoLCD\test\Pain Drain\libraries\lvgl\src\extra\widgets\meter/lv_meter.c **** 
 411:..\..\..\arduinoLCD\test\Pain Drain\libraries\lvgl\src\extra\widgets\meter/lv_meter.c ****         lv_area_t area_inner_minor;
 412:..\..\..\arduinoLCD\test\Pain Drain\libraries\lvgl\src\extra\widgets\meter/lv_meter.c ****         area_inner_minor.x1 = p_center.x - r_in_minor;
 455              		.loc 1 412 0
 456 00bc 57AC     		add	r4, sp, #348
 457 00be 2088     		ldrh	r0, [r4]
 458              	.LVL52:
 459 00c0 14AA     		add	r2, sp, #80
 460 00c2 C11A     		subs	r1, r0, r3
 461 00c4 1180     		strh	r1, [r2]
 413:..\..\..\arduinoLCD\test\Pain Drain\libraries\lvgl\src\extra\widgets\meter/lv_meter.c ****         area_inner_minor.y1 = p_center.y - r_in_minor;
 462              		.loc 1 413 0
 463 00c6 6188     		ldrh	r1, [r4, #2]
 464 00c8 CD1A     		subs	r5, r1, r3
 465 00ca 5580     		strh	r5, [r2, #2]
 414:..\..\..\arduinoLCD\test\Pain Drain\libraries\lvgl\src\extra\widgets\meter/lv_meter.c ****         area_inner_minor.x2 = p_center.x + r_in_minor;
 466              		.loc 1 414 0
 467 00cc 1818     		adds	r0, r3, r0
 468 00ce 9080     		strh	r0, [r2, #4]
 415:..\..\..\arduinoLCD\test\Pain Drain\libraries\lvgl\src\extra\widgets\meter/lv_meter.c ****         area_inner_minor.y2 = p_center.y + r_in_minor;
 469              		.loc 1 415 0
 470 00d0 5B18     		adds	r3, r3, r1
 471              	.LVL53:
 472 00d2 D380     		strh	r3, [r2, #6]
 416:..\..\..\arduinoLCD\test\Pain Drain\libraries\lvgl\src\extra\widgets\meter/lv_meter.c ****         lv_draw_mask_radius_init(&inner_minor_mask, &area_inner_minor, LV_RADIUS_CIRCLE, true);
 473              		.loc 1 416 0
 474 00d4 B74D     		ldr	r5, .L34+4
 475 00d6 0123     		movs	r3, #1
 476 00d8 2A00     		movs	r2, r5
ARM GAS  C:\Users\haske\AppData\Local\Temp\ccXBxzcA.s 			page 28


 477 00da 14A9     		add	r1, sp, #80
 478 00dc 46A8     		add	r0, sp, #280
 479 00de FFF7FEFF 		bl	lv_draw_mask_radius_init
 480              	.LVL54:
 417:..\..\..\arduinoLCD\test\Pain Drain\libraries\lvgl\src\extra\widgets\meter/lv_meter.c **** 
 418:..\..\..\arduinoLCD\test\Pain Drain\libraries\lvgl\src\extra\widgets\meter/lv_meter.c ****         lv_area_t area_inner_major;
 419:..\..\..\arduinoLCD\test\Pain Drain\libraries\lvgl\src\extra\widgets\meter/lv_meter.c ****         area_inner_major.x1 = p_center.x - r_in_major;
 481              		.loc 1 419 0
 482 00e2 2188     		ldrh	r1, [r4]
 483 00e4 16AA     		add	r2, sp, #88
 484 00e6 8B1B     		subs	r3, r1, r6
 485 00e8 1380     		strh	r3, [r2]
 420:..\..\..\arduinoLCD\test\Pain Drain\libraries\lvgl\src\extra\widgets\meter/lv_meter.c ****         area_inner_major.y1 = p_center.y - r_in_major;
 486              		.loc 1 420 0
 487 00ea 6388     		ldrh	r3, [r4, #2]
 488 00ec 981B     		subs	r0, r3, r6
 489 00ee 5080     		strh	r0, [r2, #2]
 421:..\..\..\arduinoLCD\test\Pain Drain\libraries\lvgl\src\extra\widgets\meter/lv_meter.c ****         area_inner_major.x2 = p_center.x + r_in_major - 1;
 490              		.loc 1 421 0
 491 00f0 7118     		adds	r1, r6, r1
 492 00f2 0139     		subs	r1, r1, #1
 493 00f4 9180     		strh	r1, [r2, #4]
 422:..\..\..\arduinoLCD\test\Pain Drain\libraries\lvgl\src\extra\widgets\meter/lv_meter.c ****         area_inner_major.y2 = p_center.y + r_in_major - 1;
 494              		.loc 1 422 0
 495 00f6 F618     		adds	r6, r6, r3
 496 00f8 013E     		subs	r6, r6, #1
 497 00fa D680     		strh	r6, [r2, #6]
 423:..\..\..\arduinoLCD\test\Pain Drain\libraries\lvgl\src\extra\widgets\meter/lv_meter.c ****         lv_draw_mask_radius_init(&inner_major_mask, &area_inner_major, LV_RADIUS_CIRCLE, true);
 498              		.loc 1 423 0
 499 00fc 0123     		movs	r3, #1
 500 00fe 2A00     		movs	r2, r5
 501 0100 16A9     		add	r1, sp, #88
 502 0102 40A8     		add	r0, sp, #256
 503 0104 FFF7FEFF 		bl	lv_draw_mask_radius_init
 504              	.LVL55:
 424:..\..\..\arduinoLCD\test\Pain Drain\libraries\lvgl\src\extra\widgets\meter/lv_meter.c **** 
 425:..\..\..\arduinoLCD\test\Pain Drain\libraries\lvgl\src\extra\widgets\meter/lv_meter.c ****         lv_area_t area_outer;
 426:..\..\..\arduinoLCD\test\Pain Drain\libraries\lvgl\src\extra\widgets\meter/lv_meter.c ****         area_outer.x1 = p_center.x - r_out;
 505              		.loc 1 426 0
 506 0108 2188     		ldrh	r1, [r4]
 507 010a 18AA     		add	r2, sp, #96
 508 010c 0B98     		ldr	r0, [sp, #44]
 509 010e 0B1A     		subs	r3, r1, r0
 510 0110 1380     		strh	r3, [r2]
 427:..\..\..\arduinoLCD\test\Pain Drain\libraries\lvgl\src\extra\widgets\meter/lv_meter.c ****         area_outer.y1 = p_center.y - r_out;
 511              		.loc 1 427 0
 512 0112 6388     		ldrh	r3, [r4, #2]
 513 0114 0400     		movs	r4, r0
 514 0116 181A     		subs	r0, r3, r0
 515 0118 5080     		strh	r0, [r2, #2]
 428:..\..\..\arduinoLCD\test\Pain Drain\libraries\lvgl\src\extra\widgets\meter/lv_meter.c ****         area_outer.x2 = p_center.x + r_out - 1;
 516              		.loc 1 428 0
 517 011a A446     		mov	ip, r4
 518 011c 6144     		add	r1, r1, ip
 519 011e 0139     		subs	r1, r1, #1
 520 0120 9180     		strh	r1, [r2, #4]
 429:..\..\..\arduinoLCD\test\Pain Drain\libraries\lvgl\src\extra\widgets\meter/lv_meter.c ****         area_outer.y2 = p_center.y + r_out - 1;
ARM GAS  C:\Users\haske\AppData\Local\Temp\ccXBxzcA.s 			page 29


 521              		.loc 1 429 0
 522 0122 6344     		add	r3, r3, ip
 523 0124 013B     		subs	r3, r3, #1
 524 0126 D380     		strh	r3, [r2, #6]
 430:..\..\..\arduinoLCD\test\Pain Drain\libraries\lvgl\src\extra\widgets\meter/lv_meter.c ****         lv_draw_mask_radius_init(&outer_mask, &area_outer, LV_RADIUS_CIRCLE, false);
 525              		.loc 1 430 0
 526 0128 0023     		movs	r3, #0
 527 012a 2A00     		movs	r2, r5
 528 012c 18A9     		add	r1, sp, #96
 529 012e 3AA8     		add	r0, sp, #232
 530 0130 FFF7FEFF 		bl	lv_draw_mask_radius_init
 531              	.LVL56:
 431:..\..\..\arduinoLCD\test\Pain Drain\libraries\lvgl\src\extra\widgets\meter/lv_meter.c ****         int16_t outer_mask_id = lv_draw_mask_add(&outer_mask, NULL);
 532              		.loc 1 431 0
 533 0134 0021     		movs	r1, #0
 534 0136 3AA8     		add	r0, sp, #232
 535 0138 FFF7FEFF 		bl	lv_draw_mask_add
 536              	.LVL57:
 537 013c 0C90     		str	r0, [sp, #48]
 538              	.LVL58:
 432:..\..\..\arduinoLCD\test\Pain Drain\libraries\lvgl\src\extra\widgets\meter/lv_meter.c **** 
 433:..\..\..\arduinoLCD\test\Pain Drain\libraries\lvgl\src\extra\widgets\meter/lv_meter.c ****         int16_t inner_act_mask_id = LV_MASK_ID_INV; /*Will be added later*/
 434:..\..\..\arduinoLCD\test\Pain Drain\libraries\lvgl\src\extra\widgets\meter/lv_meter.c **** 
 435:..\..\..\arduinoLCD\test\Pain Drain\libraries\lvgl\src\extra\widgets\meter/lv_meter.c ****         uint32_t minor_cnt = scale->tick_major_nth ? scale->tick_major_nth - 1 : 0xFFFF;
 539              		.loc 1 435 0
 540 013e 7B89     		ldrh	r3, [r7, #10]
 541 0140 002B     		cmp	r3, #0
 542 0142 02D0     		beq	.L31
 543              		.loc 1 435 0 is_stmt 0 discriminator 1
 544 0144 013B     		subs	r3, r3, #1
 545 0146 9B46     		mov	fp, r3
 546 0148 01E0     		b	.L12
 547              	.L31:
 548              		.loc 1 435 0
 549 014a 9B4B     		ldr	r3, .L34+8
 550 014c 9B46     		mov	fp, r3
 551              	.L12:
 552              	.LBB61:
 436:..\..\..\arduinoLCD\test\Pain Drain\libraries\lvgl\src\extra\widgets\meter/lv_meter.c ****         uint16_t i;
 437:..\..\..\arduinoLCD\test\Pain Drain\libraries\lvgl\src\extra\widgets\meter/lv_meter.c ****         for(i = 0; i < scale->tick_cnt; i++) {
 438:..\..\..\arduinoLCD\test\Pain Drain\libraries\lvgl\src\extra\widgets\meter/lv_meter.c ****             minor_cnt++;
 439:..\..\..\arduinoLCD\test\Pain Drain\libraries\lvgl\src\extra\widgets\meter/lv_meter.c ****             bool major = false;
 440:..\..\..\arduinoLCD\test\Pain Drain\libraries\lvgl\src\extra\widgets\meter/lv_meter.c ****             if(minor_cnt == scale->tick_major_nth) {
 441:..\..\..\arduinoLCD\test\Pain Drain\libraries\lvgl\src\extra\widgets\meter/lv_meter.c ****                 minor_cnt = 0;
 442:..\..\..\arduinoLCD\test\Pain Drain\libraries\lvgl\src\extra\widgets\meter/lv_meter.c ****                 major = true;
 443:..\..\..\arduinoLCD\test\Pain Drain\libraries\lvgl\src\extra\widgets\meter/lv_meter.c ****             }
 444:..\..\..\arduinoLCD\test\Pain Drain\libraries\lvgl\src\extra\widgets\meter/lv_meter.c **** 
 445:..\..\..\arduinoLCD\test\Pain Drain\libraries\lvgl\src\extra\widgets\meter/lv_meter.c ****             int32_t value_of_line = lv_map(i, 0, scale->tick_cnt - 1, scale->min, scale->max);
 446:..\..\..\arduinoLCD\test\Pain Drain\libraries\lvgl\src\extra\widgets\meter/lv_meter.c ****             part_draw_dsc.value = value_of_line;
 447:..\..\..\arduinoLCD\test\Pain Drain\libraries\lvgl\src\extra\widgets\meter/lv_meter.c **** 
 448:..\..\..\arduinoLCD\test\Pain Drain\libraries\lvgl\src\extra\widgets\meter/lv_meter.c ****             lv_color_t line_color = major ? scale->tick_major_color : scale->tick_color;
 449:..\..\..\arduinoLCD\test\Pain Drain\libraries\lvgl\src\extra\widgets\meter/lv_meter.c ****             lv_color_t line_color_ori = line_color;
 450:..\..\..\arduinoLCD\test\Pain Drain\libraries\lvgl\src\extra\widgets\meter/lv_meter.c **** 
 451:..\..\..\arduinoLCD\test\Pain Drain\libraries\lvgl\src\extra\widgets\meter/lv_meter.c ****             lv_coord_t line_width_ori = major ? scale->tick_major_width : scale->tick_width;
 452:..\..\..\arduinoLCD\test\Pain Drain\libraries\lvgl\src\extra\widgets\meter/lv_meter.c ****             lv_coord_t line_width = line_width_ori;
 453:..\..\..\arduinoLCD\test\Pain Drain\libraries\lvgl\src\extra\widgets\meter/lv_meter.c **** 
 454:..\..\..\arduinoLCD\test\Pain Drain\libraries\lvgl\src\extra\widgets\meter/lv_meter.c ****             lv_meter_indicator_t * indic;
ARM GAS  C:\Users\haske\AppData\Local\Temp\ccXBxzcA.s 			page 30


 455:..\..\..\arduinoLCD\test\Pain Drain\libraries\lvgl\src\extra\widgets\meter/lv_meter.c ****             _LV_LL_READ_BACK(&meter->indicator_ll, indic) {
 456:..\..\..\arduinoLCD\test\Pain Drain\libraries\lvgl\src\extra\widgets\meter/lv_meter.c ****                 if(indic->type != LV_METER_INDICATOR_TYPE_SCALE_LINES) continue;
 457:..\..\..\arduinoLCD\test\Pain Drain\libraries\lvgl\src\extra\widgets\meter/lv_meter.c ****                 if(value_of_line >= indic->start_value && value_of_line <= indic->end_value) {
 458:..\..\..\arduinoLCD\test\Pain Drain\libraries\lvgl\src\extra\widgets\meter/lv_meter.c ****                     line_width += indic->type_data.scale_lines.width_mod;
 459:..\..\..\arduinoLCD\test\Pain Drain\libraries\lvgl\src\extra\widgets\meter/lv_meter.c **** 
 460:..\..\..\arduinoLCD\test\Pain Drain\libraries\lvgl\src\extra\widgets\meter/lv_meter.c ****                     if(indic->type_data.scale_lines.color_start.full == indic->type_data.scale_line
 461:..\..\..\arduinoLCD\test\Pain Drain\libraries\lvgl\src\extra\widgets\meter/lv_meter.c ****                         line_color = indic->type_data.scale_lines.color_start;
 462:..\..\..\arduinoLCD\test\Pain Drain\libraries\lvgl\src\extra\widgets\meter/lv_meter.c ****                     }
 463:..\..\..\arduinoLCD\test\Pain Drain\libraries\lvgl\src\extra\widgets\meter/lv_meter.c ****                     else {
 464:..\..\..\arduinoLCD\test\Pain Drain\libraries\lvgl\src\extra\widgets\meter/lv_meter.c ****                         lv_opa_t ratio;
 465:..\..\..\arduinoLCD\test\Pain Drain\libraries\lvgl\src\extra\widgets\meter/lv_meter.c ****                         if(indic->type_data.scale_lines.local_grad) {
 466:..\..\..\arduinoLCD\test\Pain Drain\libraries\lvgl\src\extra\widgets\meter/lv_meter.c ****                             ratio = lv_map(value_of_line, indic->start_value, indic->end_value, LV_
 467:..\..\..\arduinoLCD\test\Pain Drain\libraries\lvgl\src\extra\widgets\meter/lv_meter.c ****                         }
 468:..\..\..\arduinoLCD\test\Pain Drain\libraries\lvgl\src\extra\widgets\meter/lv_meter.c ****                         else {
 469:..\..\..\arduinoLCD\test\Pain Drain\libraries\lvgl\src\extra\widgets\meter/lv_meter.c ****                             ratio = lv_map(value_of_line, scale->min, scale->max, LV_OPA_TRANSP, LV
 470:..\..\..\arduinoLCD\test\Pain Drain\libraries\lvgl\src\extra\widgets\meter/lv_meter.c ****                         }
 471:..\..\..\arduinoLCD\test\Pain Drain\libraries\lvgl\src\extra\widgets\meter/lv_meter.c ****                         line_color = lv_color_mix(indic->type_data.scale_lines.color_end, indic->ty
 472:..\..\..\arduinoLCD\test\Pain Drain\libraries\lvgl\src\extra\widgets\meter/lv_meter.c ****                     }
 473:..\..\..\arduinoLCD\test\Pain Drain\libraries\lvgl\src\extra\widgets\meter/lv_meter.c ****                 }
 474:..\..\..\arduinoLCD\test\Pain Drain\libraries\lvgl\src\extra\widgets\meter/lv_meter.c ****             }
 475:..\..\..\arduinoLCD\test\Pain Drain\libraries\lvgl\src\extra\widgets\meter/lv_meter.c **** 
 476:..\..\..\arduinoLCD\test\Pain Drain\libraries\lvgl\src\extra\widgets\meter/lv_meter.c ****             int32_t angle_upscale = ((i * scale->angle_range) * 10) / (scale->tick_cnt - 1) +  + sc
 477:..\..\..\arduinoLCD\test\Pain Drain\libraries\lvgl\src\extra\widgets\meter/lv_meter.c **** 
 478:..\..\..\arduinoLCD\test\Pain Drain\libraries\lvgl\src\extra\widgets\meter/lv_meter.c ****             line_dsc.color = line_color;
 479:..\..\..\arduinoLCD\test\Pain Drain\libraries\lvgl\src\extra\widgets\meter/lv_meter.c ****             line_dsc.width = line_width;
 480:..\..\..\arduinoLCD\test\Pain Drain\libraries\lvgl\src\extra\widgets\meter/lv_meter.c **** 
 481:..\..\..\arduinoLCD\test\Pain Drain\libraries\lvgl\src\extra\widgets\meter/lv_meter.c ****             /*Draw a little bit longer lines to be sure the mask will clip them correctly
 482:..\..\..\arduinoLCD\test\Pain Drain\libraries\lvgl\src\extra\widgets\meter/lv_meter.c ****              *and to get a better precision*/
 483:..\..\..\arduinoLCD\test\Pain Drain\libraries\lvgl\src\extra\widgets\meter/lv_meter.c ****             lv_point_t p_outer;
 484:..\..\..\arduinoLCD\test\Pain Drain\libraries\lvgl\src\extra\widgets\meter/lv_meter.c ****             p_outer.x = p_center.x + r_out + LV_MAX(LV_DPI_DEF, r_out);
 485:..\..\..\arduinoLCD\test\Pain Drain\libraries\lvgl\src\extra\widgets\meter/lv_meter.c ****             p_outer.y = p_center.y;
 486:..\..\..\arduinoLCD\test\Pain Drain\libraries\lvgl\src\extra\widgets\meter/lv_meter.c ****             lv_point_transform(&p_outer, angle_upscale, 256, &p_center);
 487:..\..\..\arduinoLCD\test\Pain Drain\libraries\lvgl\src\extra\widgets\meter/lv_meter.c **** 
 488:..\..\..\arduinoLCD\test\Pain Drain\libraries\lvgl\src\extra\widgets\meter/lv_meter.c ****             part_draw_dsc.p1 = &p_center;
 489:..\..\..\arduinoLCD\test\Pain Drain\libraries\lvgl\src\extra\widgets\meter/lv_meter.c ****             part_draw_dsc.p2 = &p_outer;
 490:..\..\..\arduinoLCD\test\Pain Drain\libraries\lvgl\src\extra\widgets\meter/lv_meter.c ****             part_draw_dsc.id = i;
 491:..\..\..\arduinoLCD\test\Pain Drain\libraries\lvgl\src\extra\widgets\meter/lv_meter.c ****             part_draw_dsc.label_dsc = &label_dsc;
 492:..\..\..\arduinoLCD\test\Pain Drain\libraries\lvgl\src\extra\widgets\meter/lv_meter.c **** 
 493:..\..\..\arduinoLCD\test\Pain Drain\libraries\lvgl\src\extra\widgets\meter/lv_meter.c ****             /*Draw the text*/
 494:..\..\..\arduinoLCD\test\Pain Drain\libraries\lvgl\src\extra\widgets\meter/lv_meter.c ****             if(major) {
 495:..\..\..\arduinoLCD\test\Pain Drain\libraries\lvgl\src\extra\widgets\meter/lv_meter.c ****                 lv_draw_mask_remove_id(outer_mask_id);
 496:..\..\..\arduinoLCD\test\Pain Drain\libraries\lvgl\src\extra\widgets\meter/lv_meter.c ****                 uint32_t r_text = r_in_major - scale->label_gap;
 497:..\..\..\arduinoLCD\test\Pain Drain\libraries\lvgl\src\extra\widgets\meter/lv_meter.c ****                 lv_point_t p;
 498:..\..\..\arduinoLCD\test\Pain Drain\libraries\lvgl\src\extra\widgets\meter/lv_meter.c ****                 p.x = p_center.x + r_text;
 499:..\..\..\arduinoLCD\test\Pain Drain\libraries\lvgl\src\extra\widgets\meter/lv_meter.c ****                 p.y = p_center.y;
 500:..\..\..\arduinoLCD\test\Pain Drain\libraries\lvgl\src\extra\widgets\meter/lv_meter.c ****                 lv_point_transform(&p, angle_upscale, 256, &p_center);
 501:..\..\..\arduinoLCD\test\Pain Drain\libraries\lvgl\src\extra\widgets\meter/lv_meter.c **** 
 502:..\..\..\arduinoLCD\test\Pain Drain\libraries\lvgl\src\extra\widgets\meter/lv_meter.c ****                 lv_draw_label_dsc_t label_dsc_tmp;
 503:..\..\..\arduinoLCD\test\Pain Drain\libraries\lvgl\src\extra\widgets\meter/lv_meter.c ****                 lv_memcpy(&label_dsc_tmp, &label_dsc, sizeof(label_dsc_tmp));
 504:..\..\..\arduinoLCD\test\Pain Drain\libraries\lvgl\src\extra\widgets\meter/lv_meter.c **** 
 505:..\..\..\arduinoLCD\test\Pain Drain\libraries\lvgl\src\extra\widgets\meter/lv_meter.c ****                 part_draw_dsc.label_dsc = &label_dsc_tmp;
 506:..\..\..\arduinoLCD\test\Pain Drain\libraries\lvgl\src\extra\widgets\meter/lv_meter.c ****                 char buf[16];
 507:..\..\..\arduinoLCD\test\Pain Drain\libraries\lvgl\src\extra\widgets\meter/lv_meter.c **** 
 508:..\..\..\arduinoLCD\test\Pain Drain\libraries\lvgl\src\extra\widgets\meter/lv_meter.c ****                 lv_snprintf(buf, sizeof(buf), "%" LV_PRId32, value_of_line);
 509:..\..\..\arduinoLCD\test\Pain Drain\libraries\lvgl\src\extra\widgets\meter/lv_meter.c ****                 part_draw_dsc.text = buf;
 510:..\..\..\arduinoLCD\test\Pain Drain\libraries\lvgl\src\extra\widgets\meter/lv_meter.c **** 
 511:..\..\..\arduinoLCD\test\Pain Drain\libraries\lvgl\src\extra\widgets\meter/lv_meter.c ****                 lv_event_send(obj, LV_EVENT_DRAW_PART_BEGIN, &part_draw_dsc);
ARM GAS  C:\Users\haske\AppData\Local\Temp\ccXBxzcA.s 			page 31


 512:..\..\..\arduinoLCD\test\Pain Drain\libraries\lvgl\src\extra\widgets\meter/lv_meter.c **** 
 513:..\..\..\arduinoLCD\test\Pain Drain\libraries\lvgl\src\extra\widgets\meter/lv_meter.c ****                 lv_point_t label_size;
 514:..\..\..\arduinoLCD\test\Pain Drain\libraries\lvgl\src\extra\widgets\meter/lv_meter.c ****                 lv_txt_get_size(&label_size, part_draw_dsc.text, label_dsc.font, label_dsc.letter_s
 515:..\..\..\arduinoLCD\test\Pain Drain\libraries\lvgl\src\extra\widgets\meter/lv_meter.c ****                                 LV_COORD_MAX, LV_TEXT_FLAG_NONE);
 516:..\..\..\arduinoLCD\test\Pain Drain\libraries\lvgl\src\extra\widgets\meter/lv_meter.c **** 
 517:..\..\..\arduinoLCD\test\Pain Drain\libraries\lvgl\src\extra\widgets\meter/lv_meter.c ****                 lv_area_t label_cord;
 518:..\..\..\arduinoLCD\test\Pain Drain\libraries\lvgl\src\extra\widgets\meter/lv_meter.c ****                 label_cord.x1 = p.x - label_size.x / 2;
 519:..\..\..\arduinoLCD\test\Pain Drain\libraries\lvgl\src\extra\widgets\meter/lv_meter.c ****                 label_cord.y1 = p.y - label_size.y / 2;
 520:..\..\..\arduinoLCD\test\Pain Drain\libraries\lvgl\src\extra\widgets\meter/lv_meter.c ****                 label_cord.x2 = label_cord.x1 + label_size.x;
 521:..\..\..\arduinoLCD\test\Pain Drain\libraries\lvgl\src\extra\widgets\meter/lv_meter.c ****                 label_cord.y2 = label_cord.y1 + label_size.y;
 522:..\..\..\arduinoLCD\test\Pain Drain\libraries\lvgl\src\extra\widgets\meter/lv_meter.c **** 
 523:..\..\..\arduinoLCD\test\Pain Drain\libraries\lvgl\src\extra\widgets\meter/lv_meter.c ****                 lv_draw_label(draw_ctx, part_draw_dsc.label_dsc, &label_cord, part_draw_dsc.text, N
 524:..\..\..\arduinoLCD\test\Pain Drain\libraries\lvgl\src\extra\widgets\meter/lv_meter.c **** 
 525:..\..\..\arduinoLCD\test\Pain Drain\libraries\lvgl\src\extra\widgets\meter/lv_meter.c ****                 outer_mask_id = lv_draw_mask_add(&outer_mask, NULL);
 526:..\..\..\arduinoLCD\test\Pain Drain\libraries\lvgl\src\extra\widgets\meter/lv_meter.c ****             }
 527:..\..\..\arduinoLCD\test\Pain Drain\libraries\lvgl\src\extra\widgets\meter/lv_meter.c ****             else {
 528:..\..\..\arduinoLCD\test\Pain Drain\libraries\lvgl\src\extra\widgets\meter/lv_meter.c ****                 part_draw_dsc.label_dsc = NULL;
 529:..\..\..\arduinoLCD\test\Pain Drain\libraries\lvgl\src\extra\widgets\meter/lv_meter.c ****                 part_draw_dsc.text = NULL;
 530:..\..\..\arduinoLCD\test\Pain Drain\libraries\lvgl\src\extra\widgets\meter/lv_meter.c ****                 lv_event_send(obj, LV_EVENT_DRAW_PART_BEGIN, &part_draw_dsc);
 531:..\..\..\arduinoLCD\test\Pain Drain\libraries\lvgl\src\extra\widgets\meter/lv_meter.c ****             }
 532:..\..\..\arduinoLCD\test\Pain Drain\libraries\lvgl\src\extra\widgets\meter/lv_meter.c **** 
 533:..\..\..\arduinoLCD\test\Pain Drain\libraries\lvgl\src\extra\widgets\meter/lv_meter.c ****             inner_act_mask_id = lv_draw_mask_add(major ? &inner_major_mask : &inner_minor_mask, NUL
 553              		.loc 1 533 0 is_stmt 1 discriminator 2
 554 014e 0023     		movs	r3, #0
 555 0150 9846     		mov	r8, r3
 556 0152 5B46     		mov	r3, fp
 557 0154 0793     		str	r3, [sp, #28]
 558 0156 4546     		mov	r5, r8
 559 0158 51E1     		b	.L13
 560              	.LVL59:
 561              	.L29:
 438:..\..\..\arduinoLCD\test\Pain Drain\libraries\lvgl\src\extra\widgets\meter/lv_meter.c ****             bool major = false;
 562              		.loc 1 438 0
 563 015a 079B     		ldr	r3, [sp, #28]
 564 015c 0133     		adds	r3, r3, #1
 565 015e 1900     		movs	r1, r3
 566 0160 0793     		str	r3, [sp, #28]
 567              	.LVL60:
 440:..\..\..\arduinoLCD\test\Pain Drain\libraries\lvgl\src\extra\widgets\meter/lv_meter.c ****                 minor_cnt = 0;
 568              		.loc 1 440 0
 569 0162 7B89     		ldrh	r3, [r7, #10]
 570 0164 9942     		cmp	r1, r3
 571 0166 02D0     		beq	.L32
 439:..\..\..\arduinoLCD\test\Pain Drain\libraries\lvgl\src\extra\widgets\meter/lv_meter.c ****             if(minor_cnt == scale->tick_major_nth) {
 572              		.loc 1 439 0
 573 0168 0023     		movs	r3, #0
 574 016a 9946     		mov	r9, r3
 575 016c 03E0     		b	.L14
 576              	.L32:
 442:..\..\..\arduinoLCD\test\Pain Drain\libraries\lvgl\src\extra\widgets\meter/lv_meter.c ****             }
 577              		.loc 1 442 0
 578 016e 0123     		movs	r3, #1
 579 0170 9946     		mov	r9, r3
 441:..\..\..\arduinoLCD\test\Pain Drain\libraries\lvgl\src\extra\widgets\meter/lv_meter.c ****                 major = true;
 580              		.loc 1 441 0
 581 0172 0023     		movs	r3, #0
 582 0174 0793     		str	r3, [sp, #28]
ARM GAS  C:\Users\haske\AppData\Local\Temp\ccXBxzcA.s 			page 32


 583              	.L14:
 584              	.LVL61:
 445:..\..\..\arduinoLCD\test\Pain Drain\libraries\lvgl\src\extra\widgets\meter/lv_meter.c ****             part_draw_dsc.value = value_of_line;
 585              		.loc 1 445 0
 586 0176 0895     		str	r5, [sp, #32]
 587 0178 013A     		subs	r2, r2, #1
 588 017a 7B69     		ldr	r3, [r7, #20]
 589 017c B969     		ldr	r1, [r7, #24]
 590 017e 0091     		str	r1, [sp]
 591 0180 0021     		movs	r1, #0
 592 0182 2800     		movs	r0, r5
 593 0184 FFF7FEFF 		bl	lv_map
 594              	.LVL62:
 595 0188 8046     		mov	r8, r0
 596              	.LVL63:
 446:..\..\..\arduinoLCD\test\Pain Drain\libraries\lvgl\src\extra\widgets\meter/lv_meter.c **** 
 597              		.loc 1 446 0
 598 018a 3890     		str	r0, [sp, #224]
 448:..\..\..\arduinoLCD\test\Pain Drain\libraries\lvgl\src\extra\widgets\meter/lv_meter.c ****             lv_color_t line_color_ori = line_color;
 599              		.loc 1 448 0
 600 018c 4B46     		mov	r3, r9
 601 018e 002B     		cmp	r3, #0
 602 0190 01D0     		beq	.L15
 448:..\..\..\arduinoLCD\test\Pain Drain\libraries\lvgl\src\extra\widgets\meter/lv_meter.c ****             lv_color_t line_color_ori = line_color;
 603              		.loc 1 448 0 is_stmt 0 discriminator 1
 604 0192 3E89     		ldrh	r6, [r7, #8]
 605 0194 00E0     		b	.L16
 606              	.L15:
 448:..\..\..\arduinoLCD\test\Pain Drain\libraries\lvgl\src\extra\widgets\meter/lv_meter.c ****             lv_color_t line_color_ori = line_color;
 607              		.loc 1 448 0 discriminator 2
 608 0196 3E88     		ldrh	r6, [r7]
 609              	.L16:
 449:..\..\..\arduinoLCD\test\Pain Drain\libraries\lvgl\src\extra\widgets\meter/lv_meter.c **** 
 610              		.loc 1 449 0 is_stmt 1
 611 0198 6B46     		mov	r3, sp
 612              	.LVL64:
 613 019a DE84     		strh	r6, [r3, #38]
 451:..\..\..\arduinoLCD\test\Pain Drain\libraries\lvgl\src\extra\widgets\meter/lv_meter.c ****             lv_coord_t line_width = line_width_ori;
 614              		.loc 1 451 0
 615 019c 4B46     		mov	r3, r9
 616 019e 002B     		cmp	r3, #0
 617 01a0 03D0     		beq	.L17
 451:..\..\..\arduinoLCD\test\Pain Drain\libraries\lvgl\src\extra\widgets\meter/lv_meter.c ****             lv_coord_t line_width = line_width_ori;
 618              		.loc 1 451 0 is_stmt 0 discriminator 1
 619 01a2 0E22     		movs	r2, #14
 620 01a4 BB5E     		ldrsh	r3, [r7, r2]
 621 01a6 9B46     		mov	fp, r3
 622 01a8 02E0     		b	.L18
 623              	.L17:
 451:..\..\..\arduinoLCD\test\Pain Drain\libraries\lvgl\src\extra\widgets\meter/lv_meter.c ****             lv_coord_t line_width = line_width_ori;
 624              		.loc 1 451 0 discriminator 2
 625 01aa 0622     		movs	r2, #6
 626 01ac BB5E     		ldrsh	r3, [r7, r2]
 627 01ae 9B46     		mov	fp, r3
 628              	.L18:
 629              	.LVL65:
 455:..\..\..\arduinoLCD\test\Pain Drain\libraries\lvgl\src\extra\widgets\meter/lv_meter.c ****                 if(indic->type != LV_METER_INDICATOR_TYPE_SCALE_LINES) continue;
ARM GAS  C:\Users\haske\AppData\Local\Temp\ccXBxzcA.s 			page 33


 630              		.loc 1 455 0 is_stmt 1 discriminator 4
 631 01b0 069B     		ldr	r3, [sp, #24]
 632 01b2 3033     		adds	r3, r3, #48
 633 01b4 0593     		str	r3, [sp, #20]
 634 01b6 1800     		movs	r0, r3
 635              	.LVL66:
 636 01b8 FFF7FEFF 		bl	_lv_ll_get_tail
 637              	.LVL67:
 638 01bc 0400     		movs	r4, r0
 639              	.LVL68:
 452:..\..\..\arduinoLCD\test\Pain Drain\libraries\lvgl\src\extra\widgets\meter/lv_meter.c **** 
 640              		.loc 1 452 0 discriminator 4
 641 01be DA46     		mov	r10, fp
 642 01c0 4346     		mov	r3, r8
 643 01c2 A846     		mov	r8, r5
 644              	.LVL69:
 645 01c4 1D00     		movs	r5, r3
 646              	.LVL70:
 455:..\..\..\arduinoLCD\test\Pain Drain\libraries\lvgl\src\extra\widgets\meter/lv_meter.c ****                 if(indic->type != LV_METER_INDICATOR_TYPE_SCALE_LINES) continue;
 647              		.loc 1 455 0 discriminator 4
 648 01c6 41E0     		b	.L19
 649              	.LVL71:
 650              	.L24:
 456:..\..\..\arduinoLCD\test\Pain Drain\libraries\lvgl\src\extra\widgets\meter/lv_meter.c ****                 if(value_of_line >= indic->start_value && value_of_line <= indic->end_value) {
 651              		.loc 1 456 0
 652 01c8 2379     		ldrb	r3, [r4, #4]
 653 01ca 022B     		cmp	r3, #2
 654 01cc 39D1     		bne	.L20
 457:..\..\..\arduinoLCD\test\Pain Drain\libraries\lvgl\src\extra\widgets\meter/lv_meter.c ****                     line_width += indic->type_data.scale_lines.width_mod;
 655              		.loc 1 457 0
 656 01ce A168     		ldr	r1, [r4, #8]
 657 01d0 8D42     		cmp	r5, r1
 658 01d2 36DB     		blt	.L20
 457:..\..\..\arduinoLCD\test\Pain Drain\libraries\lvgl\src\extra\widgets\meter/lv_meter.c ****                     line_width += indic->type_data.scale_lines.width_mod;
 659              		.loc 1 457 0 is_stmt 0 discriminator 1
 660 01d4 E268     		ldr	r2, [r4, #12]
 661 01d6 9542     		cmp	r5, r2
 662 01d8 33DC     		bgt	.L20
 458:..\..\..\arduinoLCD\test\Pain Drain\libraries\lvgl\src\extra\widgets\meter/lv_meter.c **** 
 663              		.loc 1 458 0 is_stmt 1
 664 01da 1020     		movs	r0, #16
 665 01dc 235E     		ldrsh	r3, [r4, r0]
 666              	.LVL72:
 667 01de 5344     		add	r3, r3, r10
 668 01e0 1BB2     		sxth	r3, r3
 669 01e2 9A46     		mov	r10, r3
 670              	.LVL73:
 460:..\..\..\arduinoLCD\test\Pain Drain\libraries\lvgl\src\extra\widgets\meter/lv_meter.c ****                         line_color = indic->type_data.scale_lines.color_start;
 671              		.loc 1 460 0
 672 01e4 608A     		ldrh	r0, [r4, #18]
 673 01e6 A38A     		ldrh	r3, [r4, #20]
 674 01e8 9842     		cmp	r0, r3
 675 01ea 01D1     		bne	.L21
 461:..\..\..\arduinoLCD\test\Pain Drain\libraries\lvgl\src\extra\widgets\meter/lv_meter.c ****                     }
 676              		.loc 1 461 0
 677 01ec 668A     		ldrh	r6, [r4, #18]
 678              	.LVL74:
ARM GAS  C:\Users\haske\AppData\Local\Temp\ccXBxzcA.s 			page 34


 679 01ee 28E0     		b	.L20
 680              	.LVL75:
 681              	.L21:
 682              	.LBB62:
 465:..\..\..\arduinoLCD\test\Pain Drain\libraries\lvgl\src\extra\widgets\meter/lv_meter.c ****                             ratio = lv_map(value_of_line, indic->start_value, indic->end_value, LV_
 683              		.loc 1 465 0
 684 01f0 A37D     		ldrb	r3, [r4, #22]
 685 01f2 DB07     		lsls	r3, r3, #31
 686 01f4 07D5     		bpl	.L22
 466:..\..\..\arduinoLCD\test\Pain Drain\libraries\lvgl\src\extra\widgets\meter/lv_meter.c ****                         }
 687              		.loc 1 466 0
 688 01f6 FF23     		movs	r3, #255
 689 01f8 0093     		str	r3, [sp]
 690 01fa 0023     		movs	r3, #0
 691 01fc 2800     		movs	r0, r5
 692 01fe FFF7FEFF 		bl	lv_map
 693              	.LVL76:
 694 0202 C2B2     		uxtb	r2, r0
 695              	.LVL77:
 696 0204 08E0     		b	.L23
 697              	.LVL78:
 698              	.L22:
 469:..\..\..\arduinoLCD\test\Pain Drain\libraries\lvgl\src\extra\widgets\meter/lv_meter.c ****                         }
 699              		.loc 1 469 0
 700 0206 BA69     		ldr	r2, [r7, #24]
 701 0208 7969     		ldr	r1, [r7, #20]
 702 020a FF23     		movs	r3, #255
 703 020c 0093     		str	r3, [sp]
 704 020e 0023     		movs	r3, #0
 705 0210 2800     		movs	r0, r5
 706 0212 FFF7FEFF 		bl	lv_map
 707              	.LVL79:
 708 0216 C2B2     		uxtb	r2, r0
 709              	.LVL80:
 710              	.L23:
 711              	.LBB63:
 712              	.LBB64:
 713              		.file 4 "c:\\projects\\paindrain\\arduinolcd\\test\\pain drain\\libraries\\lvgl\\src\\misc\\lv_col
   1:c:\projects\paindrain\arduinolcd\test\pain drain\libraries\lvgl\src\misc\lv_color.h **** /**
   2:c:\projects\paindrain\arduinolcd\test\pain drain\libraries\lvgl\src\misc\lv_color.h ****  * @file lv_color.h
   3:c:\projects\paindrain\arduinolcd\test\pain drain\libraries\lvgl\src\misc\lv_color.h ****  *
   4:c:\projects\paindrain\arduinolcd\test\pain drain\libraries\lvgl\src\misc\lv_color.h ****  */
   5:c:\projects\paindrain\arduinolcd\test\pain drain\libraries\lvgl\src\misc\lv_color.h **** 
   6:c:\projects\paindrain\arduinolcd\test\pain drain\libraries\lvgl\src\misc\lv_color.h **** #ifndef LV_COLOR_H
   7:c:\projects\paindrain\arduinolcd\test\pain drain\libraries\lvgl\src\misc\lv_color.h **** #define LV_COLOR_H
   8:c:\projects\paindrain\arduinolcd\test\pain drain\libraries\lvgl\src\misc\lv_color.h **** 
   9:c:\projects\paindrain\arduinolcd\test\pain drain\libraries\lvgl\src\misc\lv_color.h **** #ifdef __cplusplus
  10:c:\projects\paindrain\arduinolcd\test\pain drain\libraries\lvgl\src\misc\lv_color.h **** extern "C" {
  11:c:\projects\paindrain\arduinolcd\test\pain drain\libraries\lvgl\src\misc\lv_color.h **** #endif
  12:c:\projects\paindrain\arduinolcd\test\pain drain\libraries\lvgl\src\misc\lv_color.h **** 
  13:c:\projects\paindrain\arduinolcd\test\pain drain\libraries\lvgl\src\misc\lv_color.h **** /*********************
  14:c:\projects\paindrain\arduinolcd\test\pain drain\libraries\lvgl\src\misc\lv_color.h ****  *      INCLUDES
  15:c:\projects\paindrain\arduinolcd\test\pain drain\libraries\lvgl\src\misc\lv_color.h ****  *********************/
  16:c:\projects\paindrain\arduinolcd\test\pain drain\libraries\lvgl\src\misc\lv_color.h **** #include "../lv_conf_internal.h"
  17:c:\projects\paindrain\arduinolcd\test\pain drain\libraries\lvgl\src\misc\lv_color.h **** #include "lv_assert.h"
  18:c:\projects\paindrain\arduinolcd\test\pain drain\libraries\lvgl\src\misc\lv_color.h **** #include "lv_math.h"
  19:c:\projects\paindrain\arduinolcd\test\pain drain\libraries\lvgl\src\misc\lv_color.h **** #include "lv_types.h"
ARM GAS  C:\Users\haske\AppData\Local\Temp\ccXBxzcA.s 			page 35


  20:c:\projects\paindrain\arduinolcd\test\pain drain\libraries\lvgl\src\misc\lv_color.h **** 
  21:c:\projects\paindrain\arduinolcd\test\pain drain\libraries\lvgl\src\misc\lv_color.h **** /*Error checking*/
  22:c:\projects\paindrain\arduinolcd\test\pain drain\libraries\lvgl\src\misc\lv_color.h **** #if LV_COLOR_DEPTH == 24
  23:c:\projects\paindrain\arduinolcd\test\pain drain\libraries\lvgl\src\misc\lv_color.h **** #error "LV_COLOR_DEPTH 24 is deprecated. Use LV_COLOR_DEPTH 32 instead (lv_conf.h)"
  24:c:\projects\paindrain\arduinolcd\test\pain drain\libraries\lvgl\src\misc\lv_color.h **** #endif
  25:c:\projects\paindrain\arduinolcd\test\pain drain\libraries\lvgl\src\misc\lv_color.h **** 
  26:c:\projects\paindrain\arduinolcd\test\pain drain\libraries\lvgl\src\misc\lv_color.h **** #if LV_COLOR_DEPTH != 16 && LV_COLOR_16_SWAP != 0
  27:c:\projects\paindrain\arduinolcd\test\pain drain\libraries\lvgl\src\misc\lv_color.h **** #error "LV_COLOR_16_SWAP requires LV_COLOR_DEPTH == 16. Set it in lv_conf.h"
  28:c:\projects\paindrain\arduinolcd\test\pain drain\libraries\lvgl\src\misc\lv_color.h **** #endif
  29:c:\projects\paindrain\arduinolcd\test\pain drain\libraries\lvgl\src\misc\lv_color.h **** 
  30:c:\projects\paindrain\arduinolcd\test\pain drain\libraries\lvgl\src\misc\lv_color.h **** #include <stdint.h>
  31:c:\projects\paindrain\arduinolcd\test\pain drain\libraries\lvgl\src\misc\lv_color.h **** 
  32:c:\projects\paindrain\arduinolcd\test\pain drain\libraries\lvgl\src\misc\lv_color.h **** /*********************
  33:c:\projects\paindrain\arduinolcd\test\pain drain\libraries\lvgl\src\misc\lv_color.h ****  *      DEFINES
  34:c:\projects\paindrain\arduinolcd\test\pain drain\libraries\lvgl\src\misc\lv_color.h ****  *********************/
  35:c:\projects\paindrain\arduinolcd\test\pain drain\libraries\lvgl\src\misc\lv_color.h **** LV_EXPORT_CONST_INT(LV_COLOR_DEPTH);
  36:c:\projects\paindrain\arduinolcd\test\pain drain\libraries\lvgl\src\misc\lv_color.h **** LV_EXPORT_CONST_INT(LV_COLOR_16_SWAP);
  37:c:\projects\paindrain\arduinolcd\test\pain drain\libraries\lvgl\src\misc\lv_color.h **** 
  38:c:\projects\paindrain\arduinolcd\test\pain drain\libraries\lvgl\src\misc\lv_color.h **** /**
  39:c:\projects\paindrain\arduinolcd\test\pain drain\libraries\lvgl\src\misc\lv_color.h ****  * Opacity percentages.
  40:c:\projects\paindrain\arduinolcd\test\pain drain\libraries\lvgl\src\misc\lv_color.h ****  */
  41:c:\projects\paindrain\arduinolcd\test\pain drain\libraries\lvgl\src\misc\lv_color.h **** enum {
  42:c:\projects\paindrain\arduinolcd\test\pain drain\libraries\lvgl\src\misc\lv_color.h ****     LV_OPA_TRANSP = 0,
  43:c:\projects\paindrain\arduinolcd\test\pain drain\libraries\lvgl\src\misc\lv_color.h ****     LV_OPA_0      = 0,
  44:c:\projects\paindrain\arduinolcd\test\pain drain\libraries\lvgl\src\misc\lv_color.h ****     LV_OPA_10     = 25,
  45:c:\projects\paindrain\arduinolcd\test\pain drain\libraries\lvgl\src\misc\lv_color.h ****     LV_OPA_20     = 51,
  46:c:\projects\paindrain\arduinolcd\test\pain drain\libraries\lvgl\src\misc\lv_color.h ****     LV_OPA_30     = 76,
  47:c:\projects\paindrain\arduinolcd\test\pain drain\libraries\lvgl\src\misc\lv_color.h ****     LV_OPA_40     = 102,
  48:c:\projects\paindrain\arduinolcd\test\pain drain\libraries\lvgl\src\misc\lv_color.h ****     LV_OPA_50     = 127,
  49:c:\projects\paindrain\arduinolcd\test\pain drain\libraries\lvgl\src\misc\lv_color.h ****     LV_OPA_60     = 153,
  50:c:\projects\paindrain\arduinolcd\test\pain drain\libraries\lvgl\src\misc\lv_color.h ****     LV_OPA_70     = 178,
  51:c:\projects\paindrain\arduinolcd\test\pain drain\libraries\lvgl\src\misc\lv_color.h ****     LV_OPA_80     = 204,
  52:c:\projects\paindrain\arduinolcd\test\pain drain\libraries\lvgl\src\misc\lv_color.h ****     LV_OPA_90     = 229,
  53:c:\projects\paindrain\arduinolcd\test\pain drain\libraries\lvgl\src\misc\lv_color.h ****     LV_OPA_100    = 255,
  54:c:\projects\paindrain\arduinolcd\test\pain drain\libraries\lvgl\src\misc\lv_color.h ****     LV_OPA_COVER  = 255,
  55:c:\projects\paindrain\arduinolcd\test\pain drain\libraries\lvgl\src\misc\lv_color.h **** };
  56:c:\projects\paindrain\arduinolcd\test\pain drain\libraries\lvgl\src\misc\lv_color.h **** 
  57:c:\projects\paindrain\arduinolcd\test\pain drain\libraries\lvgl\src\misc\lv_color.h **** #define LV_OPA_MIN 2    /*Opacities below this will be transparent*/
  58:c:\projects\paindrain\arduinolcd\test\pain drain\libraries\lvgl\src\misc\lv_color.h **** #define LV_OPA_MAX 253  /*Opacities above this will fully cover*/
  59:c:\projects\paindrain\arduinolcd\test\pain drain\libraries\lvgl\src\misc\lv_color.h **** 
  60:c:\projects\paindrain\arduinolcd\test\pain drain\libraries\lvgl\src\misc\lv_color.h **** #if LV_COLOR_DEPTH == 1
  61:c:\projects\paindrain\arduinolcd\test\pain drain\libraries\lvgl\src\misc\lv_color.h **** #define LV_COLOR_SIZE 8
  62:c:\projects\paindrain\arduinolcd\test\pain drain\libraries\lvgl\src\misc\lv_color.h **** #elif LV_COLOR_DEPTH == 8
  63:c:\projects\paindrain\arduinolcd\test\pain drain\libraries\lvgl\src\misc\lv_color.h **** #define LV_COLOR_SIZE 8
  64:c:\projects\paindrain\arduinolcd\test\pain drain\libraries\lvgl\src\misc\lv_color.h **** #elif LV_COLOR_DEPTH == 16
  65:c:\projects\paindrain\arduinolcd\test\pain drain\libraries\lvgl\src\misc\lv_color.h **** #define LV_COLOR_SIZE 16
  66:c:\projects\paindrain\arduinolcd\test\pain drain\libraries\lvgl\src\misc\lv_color.h **** #elif LV_COLOR_DEPTH == 32
  67:c:\projects\paindrain\arduinolcd\test\pain drain\libraries\lvgl\src\misc\lv_color.h **** #define LV_COLOR_SIZE 32
  68:c:\projects\paindrain\arduinolcd\test\pain drain\libraries\lvgl\src\misc\lv_color.h **** #else
  69:c:\projects\paindrain\arduinolcd\test\pain drain\libraries\lvgl\src\misc\lv_color.h **** #error "Invalid LV_COLOR_DEPTH in lv_conf.h! Set it to 1, 8, 16 or 32!"
  70:c:\projects\paindrain\arduinolcd\test\pain drain\libraries\lvgl\src\misc\lv_color.h **** #endif
  71:c:\projects\paindrain\arduinolcd\test\pain drain\libraries\lvgl\src\misc\lv_color.h **** 
  72:c:\projects\paindrain\arduinolcd\test\pain drain\libraries\lvgl\src\misc\lv_color.h **** #if defined(__cplusplus) && !defined(_LV_COLOR_HAS_MODERN_CPP)
  73:c:\projects\paindrain\arduinolcd\test\pain drain\libraries\lvgl\src\misc\lv_color.h **** /**
  74:c:\projects\paindrain\arduinolcd\test\pain drain\libraries\lvgl\src\misc\lv_color.h **** * MSVC compiler's definition of the __cplusplus indicating 199711L regardless to C++ standard versi
  75:c:\projects\paindrain\arduinolcd\test\pain drain\libraries\lvgl\src\misc\lv_color.h **** * see https://devblogs.microsoft.com/cppblog/msvc-now-correctly-reports-cplusplus
  76:c:\projects\paindrain\arduinolcd\test\pain drain\libraries\lvgl\src\misc\lv_color.h **** * so we use _MSC_VER macro instead of __cplusplus
ARM GAS  C:\Users\haske\AppData\Local\Temp\ccXBxzcA.s 			page 36


  77:c:\projects\paindrain\arduinolcd\test\pain drain\libraries\lvgl\src\misc\lv_color.h **** */
  78:c:\projects\paindrain\arduinolcd\test\pain drain\libraries\lvgl\src\misc\lv_color.h **** #ifdef _MSC_VER
  79:c:\projects\paindrain\arduinolcd\test\pain drain\libraries\lvgl\src\misc\lv_color.h **** #if _MSC_VER >= 1900 /*Visual Studio 2015*/
  80:c:\projects\paindrain\arduinolcd\test\pain drain\libraries\lvgl\src\misc\lv_color.h **** #define _LV_COLOR_HAS_MODERN_CPP 1
  81:c:\projects\paindrain\arduinolcd\test\pain drain\libraries\lvgl\src\misc\lv_color.h **** #endif
  82:c:\projects\paindrain\arduinolcd\test\pain drain\libraries\lvgl\src\misc\lv_color.h **** #else
  83:c:\projects\paindrain\arduinolcd\test\pain drain\libraries\lvgl\src\misc\lv_color.h **** #if __cplusplus >= 201103L
  84:c:\projects\paindrain\arduinolcd\test\pain drain\libraries\lvgl\src\misc\lv_color.h **** #define _LV_COLOR_HAS_MODERN_CPP 1
  85:c:\projects\paindrain\arduinolcd\test\pain drain\libraries\lvgl\src\misc\lv_color.h **** #endif
  86:c:\projects\paindrain\arduinolcd\test\pain drain\libraries\lvgl\src\misc\lv_color.h **** #endif
  87:c:\projects\paindrain\arduinolcd\test\pain drain\libraries\lvgl\src\misc\lv_color.h **** #endif /*__cplusplus*/
  88:c:\projects\paindrain\arduinolcd\test\pain drain\libraries\lvgl\src\misc\lv_color.h **** 
  89:c:\projects\paindrain\arduinolcd\test\pain drain\libraries\lvgl\src\misc\lv_color.h **** #ifndef _LV_COLOR_HAS_MODERN_CPP
  90:c:\projects\paindrain\arduinolcd\test\pain drain\libraries\lvgl\src\misc\lv_color.h **** #define _LV_COLOR_HAS_MODERN_CPP 0
  91:c:\projects\paindrain\arduinolcd\test\pain drain\libraries\lvgl\src\misc\lv_color.h **** #endif
  92:c:\projects\paindrain\arduinolcd\test\pain drain\libraries\lvgl\src\misc\lv_color.h **** 
  93:c:\projects\paindrain\arduinolcd\test\pain drain\libraries\lvgl\src\misc\lv_color.h **** #if _LV_COLOR_HAS_MODERN_CPP
  94:c:\projects\paindrain\arduinolcd\test\pain drain\libraries\lvgl\src\misc\lv_color.h **** /*Fix msvc compiler error C4576 inside C++ code*/
  95:c:\projects\paindrain\arduinolcd\test\pain drain\libraries\lvgl\src\misc\lv_color.h **** #define _LV_COLOR_MAKE_TYPE_HELPER lv_color_t
  96:c:\projects\paindrain\arduinolcd\test\pain drain\libraries\lvgl\src\misc\lv_color.h **** #else
  97:c:\projects\paindrain\arduinolcd\test\pain drain\libraries\lvgl\src\misc\lv_color.h **** #define _LV_COLOR_MAKE_TYPE_HELPER (lv_color_t)
  98:c:\projects\paindrain\arduinolcd\test\pain drain\libraries\lvgl\src\misc\lv_color.h **** #endif
  99:c:\projects\paindrain\arduinolcd\test\pain drain\libraries\lvgl\src\misc\lv_color.h **** 
 100:c:\projects\paindrain\arduinolcd\test\pain drain\libraries\lvgl\src\misc\lv_color.h **** /*---------------------------------------
 101:c:\projects\paindrain\arduinolcd\test\pain drain\libraries\lvgl\src\misc\lv_color.h ****  * Macros for all existing color depths
 102:c:\projects\paindrain\arduinolcd\test\pain drain\libraries\lvgl\src\misc\lv_color.h ****  * to set/get values of the color channels
 103:c:\projects\paindrain\arduinolcd\test\pain drain\libraries\lvgl\src\misc\lv_color.h ****  *------------------------------------------*/
 104:c:\projects\paindrain\arduinolcd\test\pain drain\libraries\lvgl\src\misc\lv_color.h **** # define LV_COLOR_SET_R1(c, v) (c).ch.red = (uint8_t)((v) & 0x1)
 105:c:\projects\paindrain\arduinolcd\test\pain drain\libraries\lvgl\src\misc\lv_color.h **** # define LV_COLOR_SET_G1(c, v) (c).ch.green = (uint8_t)((v) & 0x1)
 106:c:\projects\paindrain\arduinolcd\test\pain drain\libraries\lvgl\src\misc\lv_color.h **** # define LV_COLOR_SET_B1(c, v) (c).ch.blue = (uint8_t)((v) & 0x1)
 107:c:\projects\paindrain\arduinolcd\test\pain drain\libraries\lvgl\src\misc\lv_color.h **** # define LV_COLOR_SET_A1(c, v) do {} while(0)
 108:c:\projects\paindrain\arduinolcd\test\pain drain\libraries\lvgl\src\misc\lv_color.h **** 
 109:c:\projects\paindrain\arduinolcd\test\pain drain\libraries\lvgl\src\misc\lv_color.h **** # define LV_COLOR_GET_R1(c) (c).ch.red
 110:c:\projects\paindrain\arduinolcd\test\pain drain\libraries\lvgl\src\misc\lv_color.h **** # define LV_COLOR_GET_G1(c) (c).ch.green
 111:c:\projects\paindrain\arduinolcd\test\pain drain\libraries\lvgl\src\misc\lv_color.h **** # define LV_COLOR_GET_B1(c) (c).ch.blue
 112:c:\projects\paindrain\arduinolcd\test\pain drain\libraries\lvgl\src\misc\lv_color.h **** # define LV_COLOR_GET_A1(c) 0xFF
 113:c:\projects\paindrain\arduinolcd\test\pain drain\libraries\lvgl\src\misc\lv_color.h **** 
 114:c:\projects\paindrain\arduinolcd\test\pain drain\libraries\lvgl\src\misc\lv_color.h **** # define _LV_COLOR_ZERO_INITIALIZER1 {0x00}
 115:c:\projects\paindrain\arduinolcd\test\pain drain\libraries\lvgl\src\misc\lv_color.h **** # define LV_COLOR_MAKE1(r8, g8, b8)  {(uint8_t)((b8 >> 7) | (g8 >> 7) | (r8 >> 7))}
 116:c:\projects\paindrain\arduinolcd\test\pain drain\libraries\lvgl\src\misc\lv_color.h **** 
 117:c:\projects\paindrain\arduinolcd\test\pain drain\libraries\lvgl\src\misc\lv_color.h **** # define LV_COLOR_SET_R8(c, v) (c).ch.red = (uint8_t)((v) & 0x7U)
 118:c:\projects\paindrain\arduinolcd\test\pain drain\libraries\lvgl\src\misc\lv_color.h **** # define LV_COLOR_SET_G8(c, v) (c).ch.green = (uint8_t)((v) & 0x7U)
 119:c:\projects\paindrain\arduinolcd\test\pain drain\libraries\lvgl\src\misc\lv_color.h **** # define LV_COLOR_SET_B8(c, v) (c).ch.blue = (uint8_t)((v) & 0x3U)
 120:c:\projects\paindrain\arduinolcd\test\pain drain\libraries\lvgl\src\misc\lv_color.h **** # define LV_COLOR_SET_A8(c, v) do {} while(0)
 121:c:\projects\paindrain\arduinolcd\test\pain drain\libraries\lvgl\src\misc\lv_color.h **** 
 122:c:\projects\paindrain\arduinolcd\test\pain drain\libraries\lvgl\src\misc\lv_color.h **** # define LV_COLOR_GET_R8(c) (c).ch.red
 123:c:\projects\paindrain\arduinolcd\test\pain drain\libraries\lvgl\src\misc\lv_color.h **** # define LV_COLOR_GET_G8(c) (c).ch.green
 124:c:\projects\paindrain\arduinolcd\test\pain drain\libraries\lvgl\src\misc\lv_color.h **** # define LV_COLOR_GET_B8(c) (c).ch.blue
 125:c:\projects\paindrain\arduinolcd\test\pain drain\libraries\lvgl\src\misc\lv_color.h **** # define LV_COLOR_GET_A8(c) 0xFF
 126:c:\projects\paindrain\arduinolcd\test\pain drain\libraries\lvgl\src\misc\lv_color.h **** 
 127:c:\projects\paindrain\arduinolcd\test\pain drain\libraries\lvgl\src\misc\lv_color.h **** # define _LV_COLOR_ZERO_INITIALIZER8 {{0x00, 0x00, 0x00}}
 128:c:\projects\paindrain\arduinolcd\test\pain drain\libraries\lvgl\src\misc\lv_color.h **** # define LV_COLOR_MAKE8(r8, g8, b8) {{(uint8_t)((b8 >> 6) & 0x3U), (uint8_t)((g8 >> 5) & 0x7U), (ui
 129:c:\projects\paindrain\arduinolcd\test\pain drain\libraries\lvgl\src\misc\lv_color.h **** 
 130:c:\projects\paindrain\arduinolcd\test\pain drain\libraries\lvgl\src\misc\lv_color.h **** # define LV_COLOR_SET_R16(c, v) (c).ch.red = (uint8_t)((v) & 0x1FU)
 131:c:\projects\paindrain\arduinolcd\test\pain drain\libraries\lvgl\src\misc\lv_color.h **** #if LV_COLOR_16_SWAP == 0
 132:c:\projects\paindrain\arduinolcd\test\pain drain\libraries\lvgl\src\misc\lv_color.h **** # define LV_COLOR_SET_G16(c, v) (c).ch.green = (uint8_t)((v) & 0x3FU)
 133:c:\projects\paindrain\arduinolcd\test\pain drain\libraries\lvgl\src\misc\lv_color.h **** #else
ARM GAS  C:\Users\haske\AppData\Local\Temp\ccXBxzcA.s 			page 37


 134:c:\projects\paindrain\arduinolcd\test\pain drain\libraries\lvgl\src\misc\lv_color.h **** # define LV_COLOR_SET_G16(c, v) {(c).ch.green_h = (uint8_t)(((v) >> 3) & 0x7); (c).ch.green_l = (ui
 135:c:\projects\paindrain\arduinolcd\test\pain drain\libraries\lvgl\src\misc\lv_color.h **** #endif
 136:c:\projects\paindrain\arduinolcd\test\pain drain\libraries\lvgl\src\misc\lv_color.h **** # define LV_COLOR_SET_B16(c, v) (c).ch.blue = (uint8_t)((v) & 0x1FU)
 137:c:\projects\paindrain\arduinolcd\test\pain drain\libraries\lvgl\src\misc\lv_color.h **** # define LV_COLOR_SET_A16(c, v) do {} while(0)
 138:c:\projects\paindrain\arduinolcd\test\pain drain\libraries\lvgl\src\misc\lv_color.h **** 
 139:c:\projects\paindrain\arduinolcd\test\pain drain\libraries\lvgl\src\misc\lv_color.h **** # define LV_COLOR_GET_R16(c) (c).ch.red
 140:c:\projects\paindrain\arduinolcd\test\pain drain\libraries\lvgl\src\misc\lv_color.h **** #if LV_COLOR_16_SWAP == 0
 141:c:\projects\paindrain\arduinolcd\test\pain drain\libraries\lvgl\src\misc\lv_color.h **** # define LV_COLOR_GET_G16(c) (c).ch.green
 142:c:\projects\paindrain\arduinolcd\test\pain drain\libraries\lvgl\src\misc\lv_color.h **** #else
 143:c:\projects\paindrain\arduinolcd\test\pain drain\libraries\lvgl\src\misc\lv_color.h **** # define LV_COLOR_GET_G16(c) (((c).ch.green_h << 3) + (c).ch.green_l)
 144:c:\projects\paindrain\arduinolcd\test\pain drain\libraries\lvgl\src\misc\lv_color.h **** #endif
 145:c:\projects\paindrain\arduinolcd\test\pain drain\libraries\lvgl\src\misc\lv_color.h **** # define LV_COLOR_GET_B16(c) (c).ch.blue
 146:c:\projects\paindrain\arduinolcd\test\pain drain\libraries\lvgl\src\misc\lv_color.h **** # define LV_COLOR_GET_A16(c) 0xFF
 147:c:\projects\paindrain\arduinolcd\test\pain drain\libraries\lvgl\src\misc\lv_color.h **** 
 148:c:\projects\paindrain\arduinolcd\test\pain drain\libraries\lvgl\src\misc\lv_color.h **** #if LV_COLOR_16_SWAP == 0
 149:c:\projects\paindrain\arduinolcd\test\pain drain\libraries\lvgl\src\misc\lv_color.h **** # define _LV_COLOR_ZERO_INITIALIZER16  {{0x00, 0x00, 0x00}}
 150:c:\projects\paindrain\arduinolcd\test\pain drain\libraries\lvgl\src\misc\lv_color.h **** # define LV_COLOR_MAKE16(r8, g8, b8) {{(uint8_t)((b8 >> 3) & 0x1FU), (uint8_t)((g8 >> 2) & 0x3FU), 
 151:c:\projects\paindrain\arduinolcd\test\pain drain\libraries\lvgl\src\misc\lv_color.h **** #else
 152:c:\projects\paindrain\arduinolcd\test\pain drain\libraries\lvgl\src\misc\lv_color.h **** # define _LV_COLOR_ZERO_INITIALIZER16 {{0x00, 0x00, 0x00, 0x00}}
 153:c:\projects\paindrain\arduinolcd\test\pain drain\libraries\lvgl\src\misc\lv_color.h **** # define LV_COLOR_MAKE16(r8, g8, b8) {{(uint8_t)((g8 >> 5) & 0x7U), (uint8_t)((r8 >> 3) & 0x1FU), (
 154:c:\projects\paindrain\arduinolcd\test\pain drain\libraries\lvgl\src\misc\lv_color.h **** #endif
 155:c:\projects\paindrain\arduinolcd\test\pain drain\libraries\lvgl\src\misc\lv_color.h **** 
 156:c:\projects\paindrain\arduinolcd\test\pain drain\libraries\lvgl\src\misc\lv_color.h **** # define LV_COLOR_SET_R32(c, v) (c).ch.red = (uint8_t)((v) & 0xFF)
 157:c:\projects\paindrain\arduinolcd\test\pain drain\libraries\lvgl\src\misc\lv_color.h **** # define LV_COLOR_SET_G32(c, v) (c).ch.green = (uint8_t)((v) & 0xFF)
 158:c:\projects\paindrain\arduinolcd\test\pain drain\libraries\lvgl\src\misc\lv_color.h **** # define LV_COLOR_SET_B32(c, v) (c).ch.blue = (uint8_t)((v) & 0xFF)
 159:c:\projects\paindrain\arduinolcd\test\pain drain\libraries\lvgl\src\misc\lv_color.h **** # define LV_COLOR_SET_A32(c, v) (c).ch.alpha = (uint8_t)((v) & 0xFF)
 160:c:\projects\paindrain\arduinolcd\test\pain drain\libraries\lvgl\src\misc\lv_color.h **** 
 161:c:\projects\paindrain\arduinolcd\test\pain drain\libraries\lvgl\src\misc\lv_color.h **** # define LV_COLOR_GET_R32(c) (c).ch.red
 162:c:\projects\paindrain\arduinolcd\test\pain drain\libraries\lvgl\src\misc\lv_color.h **** # define LV_COLOR_GET_G32(c) (c).ch.green
 163:c:\projects\paindrain\arduinolcd\test\pain drain\libraries\lvgl\src\misc\lv_color.h **** # define LV_COLOR_GET_B32(c) (c).ch.blue
 164:c:\projects\paindrain\arduinolcd\test\pain drain\libraries\lvgl\src\misc\lv_color.h **** # define LV_COLOR_GET_A32(c) (c).ch.alpha
 165:c:\projects\paindrain\arduinolcd\test\pain drain\libraries\lvgl\src\misc\lv_color.h **** 
 166:c:\projects\paindrain\arduinolcd\test\pain drain\libraries\lvgl\src\misc\lv_color.h **** # define _LV_COLOR_ZERO_INITIALIZER32  {{0x00, 0x00, 0x00, 0x00}}
 167:c:\projects\paindrain\arduinolcd\test\pain drain\libraries\lvgl\src\misc\lv_color.h **** # define LV_COLOR_MAKE32(r8, g8, b8) {{b8, g8, r8, 0xff}} /*Fix 0xff alpha*/
 168:c:\projects\paindrain\arduinolcd\test\pain drain\libraries\lvgl\src\misc\lv_color.h **** 
 169:c:\projects\paindrain\arduinolcd\test\pain drain\libraries\lvgl\src\misc\lv_color.h **** /*---------------------------------------
 170:c:\projects\paindrain\arduinolcd\test\pain drain\libraries\lvgl\src\misc\lv_color.h ****  * Macros for the current color depth
 171:c:\projects\paindrain\arduinolcd\test\pain drain\libraries\lvgl\src\misc\lv_color.h ****  * to set/get values of the color channels
 172:c:\projects\paindrain\arduinolcd\test\pain drain\libraries\lvgl\src\misc\lv_color.h ****  *------------------------------------------*/
 173:c:\projects\paindrain\arduinolcd\test\pain drain\libraries\lvgl\src\misc\lv_color.h **** #define LV_COLOR_SET_R(c, v) LV_CONCAT(LV_COLOR_SET_R, LV_COLOR_DEPTH)(c, v)
 174:c:\projects\paindrain\arduinolcd\test\pain drain\libraries\lvgl\src\misc\lv_color.h **** #define LV_COLOR_SET_G(c, v) LV_CONCAT(LV_COLOR_SET_G, LV_COLOR_DEPTH)(c, v)
 175:c:\projects\paindrain\arduinolcd\test\pain drain\libraries\lvgl\src\misc\lv_color.h **** #define LV_COLOR_SET_B(c, v) LV_CONCAT(LV_COLOR_SET_B, LV_COLOR_DEPTH)(c, v)
 176:c:\projects\paindrain\arduinolcd\test\pain drain\libraries\lvgl\src\misc\lv_color.h **** #define LV_COLOR_SET_A(c, v) LV_CONCAT(LV_COLOR_SET_A, LV_COLOR_DEPTH)(c, v)
 177:c:\projects\paindrain\arduinolcd\test\pain drain\libraries\lvgl\src\misc\lv_color.h **** 
 178:c:\projects\paindrain\arduinolcd\test\pain drain\libraries\lvgl\src\misc\lv_color.h **** #define LV_COLOR_GET_R(c) LV_CONCAT(LV_COLOR_GET_R, LV_COLOR_DEPTH)(c)
 179:c:\projects\paindrain\arduinolcd\test\pain drain\libraries\lvgl\src\misc\lv_color.h **** #define LV_COLOR_GET_G(c) LV_CONCAT(LV_COLOR_GET_G, LV_COLOR_DEPTH)(c)
 180:c:\projects\paindrain\arduinolcd\test\pain drain\libraries\lvgl\src\misc\lv_color.h **** #define LV_COLOR_GET_B(c) LV_CONCAT(LV_COLOR_GET_B, LV_COLOR_DEPTH)(c)
 181:c:\projects\paindrain\arduinolcd\test\pain drain\libraries\lvgl\src\misc\lv_color.h **** #define LV_COLOR_GET_A(c) LV_CONCAT(LV_COLOR_GET_A, LV_COLOR_DEPTH)(c)
 182:c:\projects\paindrain\arduinolcd\test\pain drain\libraries\lvgl\src\misc\lv_color.h **** 
 183:c:\projects\paindrain\arduinolcd\test\pain drain\libraries\lvgl\src\misc\lv_color.h **** #define _LV_COLOR_ZERO_INITIALIZER LV_CONCAT(_LV_COLOR_ZERO_INITIALIZER, LV_COLOR_DEPTH)
 184:c:\projects\paindrain\arduinolcd\test\pain drain\libraries\lvgl\src\misc\lv_color.h **** #define LV_COLOR_MAKE(r8, g8, b8) LV_CONCAT(LV_COLOR_MAKE, LV_COLOR_DEPTH)(r8, g8, b8)
 185:c:\projects\paindrain\arduinolcd\test\pain drain\libraries\lvgl\src\misc\lv_color.h **** 
 186:c:\projects\paindrain\arduinolcd\test\pain drain\libraries\lvgl\src\misc\lv_color.h **** /**********************
 187:c:\projects\paindrain\arduinolcd\test\pain drain\libraries\lvgl\src\misc\lv_color.h ****  *      TYPEDEFS
 188:c:\projects\paindrain\arduinolcd\test\pain drain\libraries\lvgl\src\misc\lv_color.h ****  **********************/
 189:c:\projects\paindrain\arduinolcd\test\pain drain\libraries\lvgl\src\misc\lv_color.h **** 
 190:c:\projects\paindrain\arduinolcd\test\pain drain\libraries\lvgl\src\misc\lv_color.h **** typedef union {
ARM GAS  C:\Users\haske\AppData\Local\Temp\ccXBxzcA.s 			page 38


 191:c:\projects\paindrain\arduinolcd\test\pain drain\libraries\lvgl\src\misc\lv_color.h ****     uint8_t full; /*must be declared first to set all bits of byte via initializer list*/
 192:c:\projects\paindrain\arduinolcd\test\pain drain\libraries\lvgl\src\misc\lv_color.h ****     union {
 193:c:\projects\paindrain\arduinolcd\test\pain drain\libraries\lvgl\src\misc\lv_color.h ****         uint8_t blue : 1;
 194:c:\projects\paindrain\arduinolcd\test\pain drain\libraries\lvgl\src\misc\lv_color.h ****         uint8_t green : 1;
 195:c:\projects\paindrain\arduinolcd\test\pain drain\libraries\lvgl\src\misc\lv_color.h ****         uint8_t red : 1;
 196:c:\projects\paindrain\arduinolcd\test\pain drain\libraries\lvgl\src\misc\lv_color.h ****     } ch;
 197:c:\projects\paindrain\arduinolcd\test\pain drain\libraries\lvgl\src\misc\lv_color.h **** } lv_color1_t;
 198:c:\projects\paindrain\arduinolcd\test\pain drain\libraries\lvgl\src\misc\lv_color.h **** 
 199:c:\projects\paindrain\arduinolcd\test\pain drain\libraries\lvgl\src\misc\lv_color.h **** typedef union {
 200:c:\projects\paindrain\arduinolcd\test\pain drain\libraries\lvgl\src\misc\lv_color.h ****     struct {
 201:c:\projects\paindrain\arduinolcd\test\pain drain\libraries\lvgl\src\misc\lv_color.h ****         uint8_t blue : 2;
 202:c:\projects\paindrain\arduinolcd\test\pain drain\libraries\lvgl\src\misc\lv_color.h ****         uint8_t green : 3;
 203:c:\projects\paindrain\arduinolcd\test\pain drain\libraries\lvgl\src\misc\lv_color.h ****         uint8_t red : 3;
 204:c:\projects\paindrain\arduinolcd\test\pain drain\libraries\lvgl\src\misc\lv_color.h ****     } ch;
 205:c:\projects\paindrain\arduinolcd\test\pain drain\libraries\lvgl\src\misc\lv_color.h ****     uint8_t full;
 206:c:\projects\paindrain\arduinolcd\test\pain drain\libraries\lvgl\src\misc\lv_color.h **** } lv_color8_t;
 207:c:\projects\paindrain\arduinolcd\test\pain drain\libraries\lvgl\src\misc\lv_color.h **** 
 208:c:\projects\paindrain\arduinolcd\test\pain drain\libraries\lvgl\src\misc\lv_color.h **** typedef union {
 209:c:\projects\paindrain\arduinolcd\test\pain drain\libraries\lvgl\src\misc\lv_color.h ****     struct {
 210:c:\projects\paindrain\arduinolcd\test\pain drain\libraries\lvgl\src\misc\lv_color.h **** #if LV_COLOR_16_SWAP == 0
 211:c:\projects\paindrain\arduinolcd\test\pain drain\libraries\lvgl\src\misc\lv_color.h ****         uint16_t blue : 5;
 212:c:\projects\paindrain\arduinolcd\test\pain drain\libraries\lvgl\src\misc\lv_color.h ****         uint16_t green : 6;
 213:c:\projects\paindrain\arduinolcd\test\pain drain\libraries\lvgl\src\misc\lv_color.h ****         uint16_t red : 5;
 214:c:\projects\paindrain\arduinolcd\test\pain drain\libraries\lvgl\src\misc\lv_color.h **** #else
 215:c:\projects\paindrain\arduinolcd\test\pain drain\libraries\lvgl\src\misc\lv_color.h ****         uint16_t green_h : 3;
 216:c:\projects\paindrain\arduinolcd\test\pain drain\libraries\lvgl\src\misc\lv_color.h ****         uint16_t red : 5;
 217:c:\projects\paindrain\arduinolcd\test\pain drain\libraries\lvgl\src\misc\lv_color.h ****         uint16_t blue : 5;
 218:c:\projects\paindrain\arduinolcd\test\pain drain\libraries\lvgl\src\misc\lv_color.h ****         uint16_t green_l : 3;
 219:c:\projects\paindrain\arduinolcd\test\pain drain\libraries\lvgl\src\misc\lv_color.h **** #endif
 220:c:\projects\paindrain\arduinolcd\test\pain drain\libraries\lvgl\src\misc\lv_color.h ****     } ch;
 221:c:\projects\paindrain\arduinolcd\test\pain drain\libraries\lvgl\src\misc\lv_color.h ****     uint16_t full;
 222:c:\projects\paindrain\arduinolcd\test\pain drain\libraries\lvgl\src\misc\lv_color.h **** } lv_color16_t;
 223:c:\projects\paindrain\arduinolcd\test\pain drain\libraries\lvgl\src\misc\lv_color.h **** 
 224:c:\projects\paindrain\arduinolcd\test\pain drain\libraries\lvgl\src\misc\lv_color.h **** typedef union {
 225:c:\projects\paindrain\arduinolcd\test\pain drain\libraries\lvgl\src\misc\lv_color.h ****     struct {
 226:c:\projects\paindrain\arduinolcd\test\pain drain\libraries\lvgl\src\misc\lv_color.h ****         uint8_t blue;
 227:c:\projects\paindrain\arduinolcd\test\pain drain\libraries\lvgl\src\misc\lv_color.h ****         uint8_t green;
 228:c:\projects\paindrain\arduinolcd\test\pain drain\libraries\lvgl\src\misc\lv_color.h ****         uint8_t red;
 229:c:\projects\paindrain\arduinolcd\test\pain drain\libraries\lvgl\src\misc\lv_color.h ****         uint8_t alpha;
 230:c:\projects\paindrain\arduinolcd\test\pain drain\libraries\lvgl\src\misc\lv_color.h ****     } ch;
 231:c:\projects\paindrain\arduinolcd\test\pain drain\libraries\lvgl\src\misc\lv_color.h ****     uint32_t full;
 232:c:\projects\paindrain\arduinolcd\test\pain drain\libraries\lvgl\src\misc\lv_color.h **** } lv_color32_t;
 233:c:\projects\paindrain\arduinolcd\test\pain drain\libraries\lvgl\src\misc\lv_color.h **** 
 234:c:\projects\paindrain\arduinolcd\test\pain drain\libraries\lvgl\src\misc\lv_color.h **** typedef LV_CONCAT3(uint, LV_COLOR_SIZE, _t) lv_color_int_t;
 235:c:\projects\paindrain\arduinolcd\test\pain drain\libraries\lvgl\src\misc\lv_color.h **** typedef LV_CONCAT3(lv_color, LV_COLOR_DEPTH, _t) lv_color_t;
 236:c:\projects\paindrain\arduinolcd\test\pain drain\libraries\lvgl\src\misc\lv_color.h **** 
 237:c:\projects\paindrain\arduinolcd\test\pain drain\libraries\lvgl\src\misc\lv_color.h **** typedef struct {
 238:c:\projects\paindrain\arduinolcd\test\pain drain\libraries\lvgl\src\misc\lv_color.h ****     uint16_t h;
 239:c:\projects\paindrain\arduinolcd\test\pain drain\libraries\lvgl\src\misc\lv_color.h ****     uint8_t s;
 240:c:\projects\paindrain\arduinolcd\test\pain drain\libraries\lvgl\src\misc\lv_color.h ****     uint8_t v;
 241:c:\projects\paindrain\arduinolcd\test\pain drain\libraries\lvgl\src\misc\lv_color.h **** } lv_color_hsv_t;
 242:c:\projects\paindrain\arduinolcd\test\pain drain\libraries\lvgl\src\misc\lv_color.h **** 
 243:c:\projects\paindrain\arduinolcd\test\pain drain\libraries\lvgl\src\misc\lv_color.h **** //! @cond Doxygen_Suppress
 244:c:\projects\paindrain\arduinolcd\test\pain drain\libraries\lvgl\src\misc\lv_color.h **** /*No idea where the guard is required but else throws warnings in the docs*/
 245:c:\projects\paindrain\arduinolcd\test\pain drain\libraries\lvgl\src\misc\lv_color.h **** typedef uint8_t lv_opa_t;
 246:c:\projects\paindrain\arduinolcd\test\pain drain\libraries\lvgl\src\misc\lv_color.h **** //! @endcond
 247:c:\projects\paindrain\arduinolcd\test\pain drain\libraries\lvgl\src\misc\lv_color.h **** 
ARM GAS  C:\Users\haske\AppData\Local\Temp\ccXBxzcA.s 			page 39


 248:c:\projects\paindrain\arduinolcd\test\pain drain\libraries\lvgl\src\misc\lv_color.h **** struct _lv_color_filter_dsc_t;
 249:c:\projects\paindrain\arduinolcd\test\pain drain\libraries\lvgl\src\misc\lv_color.h **** 
 250:c:\projects\paindrain\arduinolcd\test\pain drain\libraries\lvgl\src\misc\lv_color.h **** typedef lv_color_t (*lv_color_filter_cb_t)(const struct _lv_color_filter_dsc_t *, lv_color_t, lv_op
 251:c:\projects\paindrain\arduinolcd\test\pain drain\libraries\lvgl\src\misc\lv_color.h **** 
 252:c:\projects\paindrain\arduinolcd\test\pain drain\libraries\lvgl\src\misc\lv_color.h **** typedef struct _lv_color_filter_dsc_t {
 253:c:\projects\paindrain\arduinolcd\test\pain drain\libraries\lvgl\src\misc\lv_color.h ****     lv_color_filter_cb_t filter_cb;
 254:c:\projects\paindrain\arduinolcd\test\pain drain\libraries\lvgl\src\misc\lv_color.h ****     void * user_data;
 255:c:\projects\paindrain\arduinolcd\test\pain drain\libraries\lvgl\src\misc\lv_color.h **** } lv_color_filter_dsc_t;
 256:c:\projects\paindrain\arduinolcd\test\pain drain\libraries\lvgl\src\misc\lv_color.h **** 
 257:c:\projects\paindrain\arduinolcd\test\pain drain\libraries\lvgl\src\misc\lv_color.h **** 
 258:c:\projects\paindrain\arduinolcd\test\pain drain\libraries\lvgl\src\misc\lv_color.h **** typedef enum {
 259:c:\projects\paindrain\arduinolcd\test\pain drain\libraries\lvgl\src\misc\lv_color.h ****     LV_PALETTE_RED,
 260:c:\projects\paindrain\arduinolcd\test\pain drain\libraries\lvgl\src\misc\lv_color.h ****     LV_PALETTE_PINK,
 261:c:\projects\paindrain\arduinolcd\test\pain drain\libraries\lvgl\src\misc\lv_color.h ****     LV_PALETTE_PURPLE,
 262:c:\projects\paindrain\arduinolcd\test\pain drain\libraries\lvgl\src\misc\lv_color.h ****     LV_PALETTE_DEEP_PURPLE,
 263:c:\projects\paindrain\arduinolcd\test\pain drain\libraries\lvgl\src\misc\lv_color.h ****     LV_PALETTE_INDIGO,
 264:c:\projects\paindrain\arduinolcd\test\pain drain\libraries\lvgl\src\misc\lv_color.h ****     LV_PALETTE_BLUE,
 265:c:\projects\paindrain\arduinolcd\test\pain drain\libraries\lvgl\src\misc\lv_color.h ****     LV_PALETTE_LIGHT_BLUE,
 266:c:\projects\paindrain\arduinolcd\test\pain drain\libraries\lvgl\src\misc\lv_color.h ****     LV_PALETTE_CYAN,
 267:c:\projects\paindrain\arduinolcd\test\pain drain\libraries\lvgl\src\misc\lv_color.h ****     LV_PALETTE_TEAL,
 268:c:\projects\paindrain\arduinolcd\test\pain drain\libraries\lvgl\src\misc\lv_color.h ****     LV_PALETTE_GREEN,
 269:c:\projects\paindrain\arduinolcd\test\pain drain\libraries\lvgl\src\misc\lv_color.h ****     LV_PALETTE_LIGHT_GREEN,
 270:c:\projects\paindrain\arduinolcd\test\pain drain\libraries\lvgl\src\misc\lv_color.h ****     LV_PALETTE_LIME,
 271:c:\projects\paindrain\arduinolcd\test\pain drain\libraries\lvgl\src\misc\lv_color.h ****     LV_PALETTE_YELLOW,
 272:c:\projects\paindrain\arduinolcd\test\pain drain\libraries\lvgl\src\misc\lv_color.h ****     LV_PALETTE_AMBER,
 273:c:\projects\paindrain\arduinolcd\test\pain drain\libraries\lvgl\src\misc\lv_color.h ****     LV_PALETTE_ORANGE,
 274:c:\projects\paindrain\arduinolcd\test\pain drain\libraries\lvgl\src\misc\lv_color.h ****     LV_PALETTE_DEEP_ORANGE,
 275:c:\projects\paindrain\arduinolcd\test\pain drain\libraries\lvgl\src\misc\lv_color.h ****     LV_PALETTE_BROWN,
 276:c:\projects\paindrain\arduinolcd\test\pain drain\libraries\lvgl\src\misc\lv_color.h ****     LV_PALETTE_BLUE_GREY,
 277:c:\projects\paindrain\arduinolcd\test\pain drain\libraries\lvgl\src\misc\lv_color.h ****     LV_PALETTE_GREY,
 278:c:\projects\paindrain\arduinolcd\test\pain drain\libraries\lvgl\src\misc\lv_color.h ****     _LV_PALETTE_LAST,
 279:c:\projects\paindrain\arduinolcd\test\pain drain\libraries\lvgl\src\misc\lv_color.h ****     LV_PALETTE_NONE = 0xff,
 280:c:\projects\paindrain\arduinolcd\test\pain drain\libraries\lvgl\src\misc\lv_color.h **** } lv_palette_t;
 281:c:\projects\paindrain\arduinolcd\test\pain drain\libraries\lvgl\src\misc\lv_color.h **** 
 282:c:\projects\paindrain\arduinolcd\test\pain drain\libraries\lvgl\src\misc\lv_color.h **** /**********************
 283:c:\projects\paindrain\arduinolcd\test\pain drain\libraries\lvgl\src\misc\lv_color.h ****  * GLOBAL PROTOTYPES
 284:c:\projects\paindrain\arduinolcd\test\pain drain\libraries\lvgl\src\misc\lv_color.h ****  **********************/
 285:c:\projects\paindrain\arduinolcd\test\pain drain\libraries\lvgl\src\misc\lv_color.h **** 
 286:c:\projects\paindrain\arduinolcd\test\pain drain\libraries\lvgl\src\misc\lv_color.h **** /*In color conversations:
 287:c:\projects\paindrain\arduinolcd\test\pain drain\libraries\lvgl\src\misc\lv_color.h ****  * - When converting to bigger color type the LSB weight of 1 LSB is calculated
 288:c:\projects\paindrain\arduinolcd\test\pain drain\libraries\lvgl\src\misc\lv_color.h ****  *   E.g. 16 bit Red has 5 bits
 289:c:\projects\paindrain\arduinolcd\test\pain drain\libraries\lvgl\src\misc\lv_color.h ****  *         8 bit Red has 3 bits
 290:c:\projects\paindrain\arduinolcd\test\pain drain\libraries\lvgl\src\misc\lv_color.h ****  *        ----------------------
 291:c:\projects\paindrain\arduinolcd\test\pain drain\libraries\lvgl\src\misc\lv_color.h ****  *        8 bit red LSB = (2^5 - 1) / (2^3 - 1) = 31 / 7 = 4
 292:c:\projects\paindrain\arduinolcd\test\pain drain\libraries\lvgl\src\misc\lv_color.h ****  *
 293:c:\projects\paindrain\arduinolcd\test\pain drain\libraries\lvgl\src\misc\lv_color.h ****  * - When calculating to smaller color type simply shift out the LSBs
 294:c:\projects\paindrain\arduinolcd\test\pain drain\libraries\lvgl\src\misc\lv_color.h ****  *   E.g.  8 bit Red has 3 bits
 295:c:\projects\paindrain\arduinolcd\test\pain drain\libraries\lvgl\src\misc\lv_color.h ****  *        16 bit Red has 5 bits
 296:c:\projects\paindrain\arduinolcd\test\pain drain\libraries\lvgl\src\misc\lv_color.h ****  *        ----------------------
 297:c:\projects\paindrain\arduinolcd\test\pain drain\libraries\lvgl\src\misc\lv_color.h ****  *         Shift right with 5 - 3 = 2
 298:c:\projects\paindrain\arduinolcd\test\pain drain\libraries\lvgl\src\misc\lv_color.h ****  */
 299:c:\projects\paindrain\arduinolcd\test\pain drain\libraries\lvgl\src\misc\lv_color.h **** static inline uint8_t lv_color_to1(lv_color_t color)
 300:c:\projects\paindrain\arduinolcd\test\pain drain\libraries\lvgl\src\misc\lv_color.h **** {
 301:c:\projects\paindrain\arduinolcd\test\pain drain\libraries\lvgl\src\misc\lv_color.h **** #if LV_COLOR_DEPTH == 1
 302:c:\projects\paindrain\arduinolcd\test\pain drain\libraries\lvgl\src\misc\lv_color.h ****     return color.full;
 303:c:\projects\paindrain\arduinolcd\test\pain drain\libraries\lvgl\src\misc\lv_color.h **** #elif LV_COLOR_DEPTH == 8
 304:c:\projects\paindrain\arduinolcd\test\pain drain\libraries\lvgl\src\misc\lv_color.h ****     if((LV_COLOR_GET_R(color) & 0x4) || (LV_COLOR_GET_G(color) & 0x4) || (LV_COLOR_GET_B(color) & 0
ARM GAS  C:\Users\haske\AppData\Local\Temp\ccXBxzcA.s 			page 40


 305:c:\projects\paindrain\arduinolcd\test\pain drain\libraries\lvgl\src\misc\lv_color.h ****         return 1;
 306:c:\projects\paindrain\arduinolcd\test\pain drain\libraries\lvgl\src\misc\lv_color.h ****     }
 307:c:\projects\paindrain\arduinolcd\test\pain drain\libraries\lvgl\src\misc\lv_color.h ****     else {
 308:c:\projects\paindrain\arduinolcd\test\pain drain\libraries\lvgl\src\misc\lv_color.h ****         return 0;
 309:c:\projects\paindrain\arduinolcd\test\pain drain\libraries\lvgl\src\misc\lv_color.h ****     }
 310:c:\projects\paindrain\arduinolcd\test\pain drain\libraries\lvgl\src\misc\lv_color.h **** #elif LV_COLOR_DEPTH == 16
 311:c:\projects\paindrain\arduinolcd\test\pain drain\libraries\lvgl\src\misc\lv_color.h ****     if((LV_COLOR_GET_R(color) & 0x10) || (LV_COLOR_GET_G(color) & 0x20) || (LV_COLOR_GET_B(color) &
 312:c:\projects\paindrain\arduinolcd\test\pain drain\libraries\lvgl\src\misc\lv_color.h ****         return 1;
 313:c:\projects\paindrain\arduinolcd\test\pain drain\libraries\lvgl\src\misc\lv_color.h ****     }
 314:c:\projects\paindrain\arduinolcd\test\pain drain\libraries\lvgl\src\misc\lv_color.h ****     else {
 315:c:\projects\paindrain\arduinolcd\test\pain drain\libraries\lvgl\src\misc\lv_color.h ****         return 0;
 316:c:\projects\paindrain\arduinolcd\test\pain drain\libraries\lvgl\src\misc\lv_color.h ****     }
 317:c:\projects\paindrain\arduinolcd\test\pain drain\libraries\lvgl\src\misc\lv_color.h **** #elif LV_COLOR_DEPTH == 32
 318:c:\projects\paindrain\arduinolcd\test\pain drain\libraries\lvgl\src\misc\lv_color.h ****     if((LV_COLOR_GET_R(color) & 0x80) || (LV_COLOR_GET_G(color) & 0x80) || (LV_COLOR_GET_B(color) &
 319:c:\projects\paindrain\arduinolcd\test\pain drain\libraries\lvgl\src\misc\lv_color.h ****         return 1;
 320:c:\projects\paindrain\arduinolcd\test\pain drain\libraries\lvgl\src\misc\lv_color.h ****     }
 321:c:\projects\paindrain\arduinolcd\test\pain drain\libraries\lvgl\src\misc\lv_color.h ****     else {
 322:c:\projects\paindrain\arduinolcd\test\pain drain\libraries\lvgl\src\misc\lv_color.h ****         return 0;
 323:c:\projects\paindrain\arduinolcd\test\pain drain\libraries\lvgl\src\misc\lv_color.h ****     }
 324:c:\projects\paindrain\arduinolcd\test\pain drain\libraries\lvgl\src\misc\lv_color.h **** #endif
 325:c:\projects\paindrain\arduinolcd\test\pain drain\libraries\lvgl\src\misc\lv_color.h **** }
 326:c:\projects\paindrain\arduinolcd\test\pain drain\libraries\lvgl\src\misc\lv_color.h **** 
 327:c:\projects\paindrain\arduinolcd\test\pain drain\libraries\lvgl\src\misc\lv_color.h **** static inline uint8_t lv_color_to8(lv_color_t color)
 328:c:\projects\paindrain\arduinolcd\test\pain drain\libraries\lvgl\src\misc\lv_color.h **** {
 329:c:\projects\paindrain\arduinolcd\test\pain drain\libraries\lvgl\src\misc\lv_color.h **** #if LV_COLOR_DEPTH == 1
 330:c:\projects\paindrain\arduinolcd\test\pain drain\libraries\lvgl\src\misc\lv_color.h ****     if(color.full == 0)
 331:c:\projects\paindrain\arduinolcd\test\pain drain\libraries\lvgl\src\misc\lv_color.h ****         return 0;
 332:c:\projects\paindrain\arduinolcd\test\pain drain\libraries\lvgl\src\misc\lv_color.h ****     else
 333:c:\projects\paindrain\arduinolcd\test\pain drain\libraries\lvgl\src\misc\lv_color.h ****         return 0xFF;
 334:c:\projects\paindrain\arduinolcd\test\pain drain\libraries\lvgl\src\misc\lv_color.h **** #elif LV_COLOR_DEPTH == 8
 335:c:\projects\paindrain\arduinolcd\test\pain drain\libraries\lvgl\src\misc\lv_color.h ****     return color.full;
 336:c:\projects\paindrain\arduinolcd\test\pain drain\libraries\lvgl\src\misc\lv_color.h **** #elif LV_COLOR_DEPTH == 16
 337:c:\projects\paindrain\arduinolcd\test\pain drain\libraries\lvgl\src\misc\lv_color.h ****     lv_color8_t ret;
 338:c:\projects\paindrain\arduinolcd\test\pain drain\libraries\lvgl\src\misc\lv_color.h ****     LV_COLOR_SET_R8(ret, LV_COLOR_GET_R(color) >> 2); /*5 - 3  = 2*/
 339:c:\projects\paindrain\arduinolcd\test\pain drain\libraries\lvgl\src\misc\lv_color.h ****     LV_COLOR_SET_G8(ret, LV_COLOR_GET_G(color) >> 3); /*6 - 3  = 3*/
 340:c:\projects\paindrain\arduinolcd\test\pain drain\libraries\lvgl\src\misc\lv_color.h ****     LV_COLOR_SET_B8(ret, LV_COLOR_GET_B(color) >> 3); /*5 - 2  = 3*/
 341:c:\projects\paindrain\arduinolcd\test\pain drain\libraries\lvgl\src\misc\lv_color.h ****     return ret.full;
 342:c:\projects\paindrain\arduinolcd\test\pain drain\libraries\lvgl\src\misc\lv_color.h **** #elif LV_COLOR_DEPTH == 32
 343:c:\projects\paindrain\arduinolcd\test\pain drain\libraries\lvgl\src\misc\lv_color.h ****     lv_color8_t ret;
 344:c:\projects\paindrain\arduinolcd\test\pain drain\libraries\lvgl\src\misc\lv_color.h ****     LV_COLOR_SET_R8(ret, LV_COLOR_GET_R(color) >> 5); /*8 - 3  = 5*/
 345:c:\projects\paindrain\arduinolcd\test\pain drain\libraries\lvgl\src\misc\lv_color.h ****     LV_COLOR_SET_G8(ret, LV_COLOR_GET_G(color) >> 5); /*8 - 3  = 5*/
 346:c:\projects\paindrain\arduinolcd\test\pain drain\libraries\lvgl\src\misc\lv_color.h ****     LV_COLOR_SET_B8(ret, LV_COLOR_GET_B(color) >> 6); /*8 - 2  = 6*/
 347:c:\projects\paindrain\arduinolcd\test\pain drain\libraries\lvgl\src\misc\lv_color.h ****     return ret.full;
 348:c:\projects\paindrain\arduinolcd\test\pain drain\libraries\lvgl\src\misc\lv_color.h **** #endif
 349:c:\projects\paindrain\arduinolcd\test\pain drain\libraries\lvgl\src\misc\lv_color.h **** }
 350:c:\projects\paindrain\arduinolcd\test\pain drain\libraries\lvgl\src\misc\lv_color.h **** 
 351:c:\projects\paindrain\arduinolcd\test\pain drain\libraries\lvgl\src\misc\lv_color.h **** static inline uint16_t lv_color_to16(lv_color_t color)
 352:c:\projects\paindrain\arduinolcd\test\pain drain\libraries\lvgl\src\misc\lv_color.h **** {
 353:c:\projects\paindrain\arduinolcd\test\pain drain\libraries\lvgl\src\misc\lv_color.h **** #if LV_COLOR_DEPTH == 1
 354:c:\projects\paindrain\arduinolcd\test\pain drain\libraries\lvgl\src\misc\lv_color.h ****     if(color.full == 0)
 355:c:\projects\paindrain\arduinolcd\test\pain drain\libraries\lvgl\src\misc\lv_color.h ****         return 0;
 356:c:\projects\paindrain\arduinolcd\test\pain drain\libraries\lvgl\src\misc\lv_color.h ****     else
 357:c:\projects\paindrain\arduinolcd\test\pain drain\libraries\lvgl\src\misc\lv_color.h ****         return 0xFFFF;
 358:c:\projects\paindrain\arduinolcd\test\pain drain\libraries\lvgl\src\misc\lv_color.h **** #elif LV_COLOR_DEPTH == 8
 359:c:\projects\paindrain\arduinolcd\test\pain drain\libraries\lvgl\src\misc\lv_color.h ****     lv_color16_t ret;
 360:c:\projects\paindrain\arduinolcd\test\pain drain\libraries\lvgl\src\misc\lv_color.h ****     LV_COLOR_SET_R16(ret, LV_COLOR_GET_R(color) * 4);  /*(2^5 - 1)/(2^3 - 1) = 31/7 = 4*/
 361:c:\projects\paindrain\arduinolcd\test\pain drain\libraries\lvgl\src\misc\lv_color.h ****     LV_COLOR_SET_G16(ret, LV_COLOR_GET_G(color) * 9);  /*(2^6 - 1)/(2^3 - 1) = 63/7 = 9*/
ARM GAS  C:\Users\haske\AppData\Local\Temp\ccXBxzcA.s 			page 41


 362:c:\projects\paindrain\arduinolcd\test\pain drain\libraries\lvgl\src\misc\lv_color.h ****     LV_COLOR_SET_B16(ret, LV_COLOR_GET_B(color) * 10); /*(2^5 - 1)/(2^2 - 1) = 31/3 = 10*/
 363:c:\projects\paindrain\arduinolcd\test\pain drain\libraries\lvgl\src\misc\lv_color.h ****     return ret.full;
 364:c:\projects\paindrain\arduinolcd\test\pain drain\libraries\lvgl\src\misc\lv_color.h **** #elif LV_COLOR_DEPTH == 16
 365:c:\projects\paindrain\arduinolcd\test\pain drain\libraries\lvgl\src\misc\lv_color.h ****     return color.full;
 366:c:\projects\paindrain\arduinolcd\test\pain drain\libraries\lvgl\src\misc\lv_color.h **** #elif LV_COLOR_DEPTH == 32
 367:c:\projects\paindrain\arduinolcd\test\pain drain\libraries\lvgl\src\misc\lv_color.h ****     lv_color16_t ret;
 368:c:\projects\paindrain\arduinolcd\test\pain drain\libraries\lvgl\src\misc\lv_color.h ****     LV_COLOR_SET_R16(ret, LV_COLOR_GET_R(color) >> 3); /*8 - 5  = 3*/
 369:c:\projects\paindrain\arduinolcd\test\pain drain\libraries\lvgl\src\misc\lv_color.h ****     LV_COLOR_SET_G16(ret, LV_COLOR_GET_G(color) >> 2); /*8 - 6  = 2*/
 370:c:\projects\paindrain\arduinolcd\test\pain drain\libraries\lvgl\src\misc\lv_color.h ****     LV_COLOR_SET_B16(ret, LV_COLOR_GET_B(color) >> 3); /*8 - 5  = 3*/
 371:c:\projects\paindrain\arduinolcd\test\pain drain\libraries\lvgl\src\misc\lv_color.h ****     return ret.full;
 372:c:\projects\paindrain\arduinolcd\test\pain drain\libraries\lvgl\src\misc\lv_color.h **** #endif
 373:c:\projects\paindrain\arduinolcd\test\pain drain\libraries\lvgl\src\misc\lv_color.h **** }
 374:c:\projects\paindrain\arduinolcd\test\pain drain\libraries\lvgl\src\misc\lv_color.h **** 
 375:c:\projects\paindrain\arduinolcd\test\pain drain\libraries\lvgl\src\misc\lv_color.h **** static inline uint32_t lv_color_to32(lv_color_t color)
 376:c:\projects\paindrain\arduinolcd\test\pain drain\libraries\lvgl\src\misc\lv_color.h **** {
 377:c:\projects\paindrain\arduinolcd\test\pain drain\libraries\lvgl\src\misc\lv_color.h **** #if LV_COLOR_DEPTH == 1
 378:c:\projects\paindrain\arduinolcd\test\pain drain\libraries\lvgl\src\misc\lv_color.h ****     if(color.full == 0)
 379:c:\projects\paindrain\arduinolcd\test\pain drain\libraries\lvgl\src\misc\lv_color.h ****         return 0xFF000000;
 380:c:\projects\paindrain\arduinolcd\test\pain drain\libraries\lvgl\src\misc\lv_color.h ****     else
 381:c:\projects\paindrain\arduinolcd\test\pain drain\libraries\lvgl\src\misc\lv_color.h ****         return 0xFFFFFFFF;
 382:c:\projects\paindrain\arduinolcd\test\pain drain\libraries\lvgl\src\misc\lv_color.h **** #elif LV_COLOR_DEPTH == 8
 383:c:\projects\paindrain\arduinolcd\test\pain drain\libraries\lvgl\src\misc\lv_color.h ****     lv_color32_t ret;
 384:c:\projects\paindrain\arduinolcd\test\pain drain\libraries\lvgl\src\misc\lv_color.h ****     LV_COLOR_SET_R32(ret, LV_COLOR_GET_R(color) * 36); /*(2^8 - 1)/(2^3 - 1) = 255/7 = 36*/
 385:c:\projects\paindrain\arduinolcd\test\pain drain\libraries\lvgl\src\misc\lv_color.h ****     LV_COLOR_SET_G32(ret, LV_COLOR_GET_G(color) * 36); /*(2^8 - 1)/(2^3 - 1) = 255/7 = 36*/
 386:c:\projects\paindrain\arduinolcd\test\pain drain\libraries\lvgl\src\misc\lv_color.h ****     LV_COLOR_SET_B32(ret, LV_COLOR_GET_B(color) * 85); /*(2^8 - 1)/(2^2 - 1) = 255/3 = 85*/
 387:c:\projects\paindrain\arduinolcd\test\pain drain\libraries\lvgl\src\misc\lv_color.h ****     LV_COLOR_SET_A32(ret, 0xFF);
 388:c:\projects\paindrain\arduinolcd\test\pain drain\libraries\lvgl\src\misc\lv_color.h ****     return ret.full;
 389:c:\projects\paindrain\arduinolcd\test\pain drain\libraries\lvgl\src\misc\lv_color.h **** #elif LV_COLOR_DEPTH == 16
 390:c:\projects\paindrain\arduinolcd\test\pain drain\libraries\lvgl\src\misc\lv_color.h ****     /**
 391:c:\projects\paindrain\arduinolcd\test\pain drain\libraries\lvgl\src\misc\lv_color.h ****      * The floating point math for conversion is:
 392:c:\projects\paindrain\arduinolcd\test\pain drain\libraries\lvgl\src\misc\lv_color.h ****      *  valueto = valuefrom * ( (2^bitsto - 1) / (float)(2^bitsfrom - 1) )
 393:c:\projects\paindrain\arduinolcd\test\pain drain\libraries\lvgl\src\misc\lv_color.h ****      * The faster integer math for conversion is:
 394:c:\projects\paindrain\arduinolcd\test\pain drain\libraries\lvgl\src\misc\lv_color.h ****      *  valueto = ( valuefrom * multiplier + adder ) >> divisor
 395:c:\projects\paindrain\arduinolcd\test\pain drain\libraries\lvgl\src\misc\lv_color.h ****      *   multiplier = FLOOR( ( (2^bitsto - 1) << divisor ) / (float)(2^bitsfrom - 1) )
 396:c:\projects\paindrain\arduinolcd\test\pain drain\libraries\lvgl\src\misc\lv_color.h ****      *
 397:c:\projects\paindrain\arduinolcd\test\pain drain\libraries\lvgl\src\misc\lv_color.h ****      * Find the first divisor where ( adder >> divisor ) <= 0
 398:c:\projects\paindrain\arduinolcd\test\pain drain\libraries\lvgl\src\misc\lv_color.h ****      *
 399:c:\projects\paindrain\arduinolcd\test\pain drain\libraries\lvgl\src\misc\lv_color.h ****      * 5-bit to 8-bit: ( 31 * multiplier + adder ) >> divisor = 255
 400:c:\projects\paindrain\arduinolcd\test\pain drain\libraries\lvgl\src\misc\lv_color.h ****      * divisor  multiplier  adder  min (0)  max (31)
 401:c:\projects\paindrain\arduinolcd\test\pain drain\libraries\lvgl\src\misc\lv_color.h ****      *       0           8      7        7       255
 402:c:\projects\paindrain\arduinolcd\test\pain drain\libraries\lvgl\src\misc\lv_color.h ****      *       1          16     14        7       255
 403:c:\projects\paindrain\arduinolcd\test\pain drain\libraries\lvgl\src\misc\lv_color.h ****      *       2          32     28        7       255
 404:c:\projects\paindrain\arduinolcd\test\pain drain\libraries\lvgl\src\misc\lv_color.h ****      *       3          65     25        3       255
 405:c:\projects\paindrain\arduinolcd\test\pain drain\libraries\lvgl\src\misc\lv_color.h ****      *       4         131     19        1       255
 406:c:\projects\paindrain\arduinolcd\test\pain drain\libraries\lvgl\src\misc\lv_color.h ****      *       5         263      7        0       255
 407:c:\projects\paindrain\arduinolcd\test\pain drain\libraries\lvgl\src\misc\lv_color.h ****      *
 408:c:\projects\paindrain\arduinolcd\test\pain drain\libraries\lvgl\src\misc\lv_color.h ****      * 6-bit to 8-bit: 255 = ( 63 * multiplier + adder ) >> divisor
 409:c:\projects\paindrain\arduinolcd\test\pain drain\libraries\lvgl\src\misc\lv_color.h ****      * divisor  multiplier  adder  min (0)  max (63)
 410:c:\projects\paindrain\arduinolcd\test\pain drain\libraries\lvgl\src\misc\lv_color.h ****      *       0           4      3        3       255
 411:c:\projects\paindrain\arduinolcd\test\pain drain\libraries\lvgl\src\misc\lv_color.h ****      *       1           8      6        3       255
 412:c:\projects\paindrain\arduinolcd\test\pain drain\libraries\lvgl\src\misc\lv_color.h ****      *       2          16     12        3       255
 413:c:\projects\paindrain\arduinolcd\test\pain drain\libraries\lvgl\src\misc\lv_color.h ****      *       3          32     24        3       255
 414:c:\projects\paindrain\arduinolcd\test\pain drain\libraries\lvgl\src\misc\lv_color.h ****      *       4          64     48        3       255
 415:c:\projects\paindrain\arduinolcd\test\pain drain\libraries\lvgl\src\misc\lv_color.h ****      *       5         129     33        1       255
 416:c:\projects\paindrain\arduinolcd\test\pain drain\libraries\lvgl\src\misc\lv_color.h ****      *       6         259      3        0       255
 417:c:\projects\paindrain\arduinolcd\test\pain drain\libraries\lvgl\src\misc\lv_color.h ****      */
 418:c:\projects\paindrain\arduinolcd\test\pain drain\libraries\lvgl\src\misc\lv_color.h **** 
ARM GAS  C:\Users\haske\AppData\Local\Temp\ccXBxzcA.s 			page 42


 419:c:\projects\paindrain\arduinolcd\test\pain drain\libraries\lvgl\src\misc\lv_color.h ****     lv_color32_t ret;
 420:c:\projects\paindrain\arduinolcd\test\pain drain\libraries\lvgl\src\misc\lv_color.h ****     LV_COLOR_SET_R32(ret, (LV_COLOR_GET_R(color) * 263 + 7) >> 5);
 421:c:\projects\paindrain\arduinolcd\test\pain drain\libraries\lvgl\src\misc\lv_color.h ****     LV_COLOR_SET_G32(ret, (LV_COLOR_GET_G(color) * 259 + 3) >> 6);
 422:c:\projects\paindrain\arduinolcd\test\pain drain\libraries\lvgl\src\misc\lv_color.h ****     LV_COLOR_SET_B32(ret, (LV_COLOR_GET_B(color) * 263 + 7) >> 5);
 423:c:\projects\paindrain\arduinolcd\test\pain drain\libraries\lvgl\src\misc\lv_color.h ****     LV_COLOR_SET_A32(ret, 0xFF);
 424:c:\projects\paindrain\arduinolcd\test\pain drain\libraries\lvgl\src\misc\lv_color.h ****     return ret.full;
 425:c:\projects\paindrain\arduinolcd\test\pain drain\libraries\lvgl\src\misc\lv_color.h **** #elif LV_COLOR_DEPTH == 32
 426:c:\projects\paindrain\arduinolcd\test\pain drain\libraries\lvgl\src\misc\lv_color.h ****     return color.full;
 427:c:\projects\paindrain\arduinolcd\test\pain drain\libraries\lvgl\src\misc\lv_color.h **** #endif
 428:c:\projects\paindrain\arduinolcd\test\pain drain\libraries\lvgl\src\misc\lv_color.h **** }
 429:c:\projects\paindrain\arduinolcd\test\pain drain\libraries\lvgl\src\misc\lv_color.h **** 
 430:c:\projects\paindrain\arduinolcd\test\pain drain\libraries\lvgl\src\misc\lv_color.h **** //! @cond Doxygen_Suppress
 431:c:\projects\paindrain\arduinolcd\test\pain drain\libraries\lvgl\src\misc\lv_color.h **** 
 432:c:\projects\paindrain\arduinolcd\test\pain drain\libraries\lvgl\src\misc\lv_color.h **** /**
 433:c:\projects\paindrain\arduinolcd\test\pain drain\libraries\lvgl\src\misc\lv_color.h ****  * Mix two colors with a given ratio.
 434:c:\projects\paindrain\arduinolcd\test\pain drain\libraries\lvgl\src\misc\lv_color.h ****  * @param c1 the first color to mix (usually the foreground)
 435:c:\projects\paindrain\arduinolcd\test\pain drain\libraries\lvgl\src\misc\lv_color.h ****  * @param c2 the second color to mix (usually the background)
 436:c:\projects\paindrain\arduinolcd\test\pain drain\libraries\lvgl\src\misc\lv_color.h ****  * @param mix The ratio of the colors. 0: full `c2`, 255: full `c1`, 127: half `c1` and half`c2`
 437:c:\projects\paindrain\arduinolcd\test\pain drain\libraries\lvgl\src\misc\lv_color.h ****  * @return the mixed color
 438:c:\projects\paindrain\arduinolcd\test\pain drain\libraries\lvgl\src\misc\lv_color.h ****  */
 439:c:\projects\paindrain\arduinolcd\test\pain drain\libraries\lvgl\src\misc\lv_color.h **** LV_ATTRIBUTE_FAST_MEM static inline lv_color_t lv_color_mix(lv_color_t c1, lv_color_t c2, uint8_t m
 440:c:\projects\paindrain\arduinolcd\test\pain drain\libraries\lvgl\src\misc\lv_color.h **** {
 441:c:\projects\paindrain\arduinolcd\test\pain drain\libraries\lvgl\src\misc\lv_color.h ****     lv_color_t ret;
 442:c:\projects\paindrain\arduinolcd\test\pain drain\libraries\lvgl\src\misc\lv_color.h **** 
 443:c:\projects\paindrain\arduinolcd\test\pain drain\libraries\lvgl\src\misc\lv_color.h **** #if LV_COLOR_DEPTH == 16 && LV_COLOR_16_SWAP == 0 && LV_COLOR_MIX_ROUND_OFS == 0
 444:c:\projects\paindrain\arduinolcd\test\pain drain\libraries\lvgl\src\misc\lv_color.h ****     /*Source: https://stackoverflow.com/a/50012418/1999969*/
 445:c:\projects\paindrain\arduinolcd\test\pain drain\libraries\lvgl\src\misc\lv_color.h ****     mix = (uint32_t)((uint32_t)mix + 4) >> 3;
 714              		.loc 4 445 0
 715 0218 0432     		adds	r2, r2, #4
 716              	.LVL81:
 717 021a D208     		lsrs	r2, r2, #3
 718              	.LVL82:
 446:c:\projects\paindrain\arduinolcd\test\pain drain\libraries\lvgl\src\misc\lv_color.h ****     uint32_t bg = (uint32_t)((uint32_t)c2.full | ((uint32_t)c2.full << 16)) &
 719              		.loc 4 446 0
 720 021c 668A     		ldrh	r6, [r4, #18]
 721              	.LVL83:
 722 021e 3304     		lsls	r3, r6, #16
 723 0220 3343     		orrs	r3, r6
 724 0222 6648     		ldr	r0, .L34+12
 725 0224 0340     		ands	r3, r0
 726 0226 1E00     		movs	r6, r3
 727              	.LVL84:
 447:c:\projects\paindrain\arduinolcd\test\pain drain\libraries\lvgl\src\misc\lv_color.h ****                   0x7E0F81F; /*0b00000111111000001111100000011111*/
 448:c:\projects\paindrain\arduinolcd\test\pain drain\libraries\lvgl\src\misc\lv_color.h ****     uint32_t fg = (uint32_t)((uint32_t)c1.full | ((uint32_t)c1.full << 16)) & 0x7E0F81F;
 728              		.loc 4 448 0
 729 0228 A18A     		ldrh	r1, [r4, #20]
 730 022a 0B04     		lsls	r3, r1, #16
 731              	.LVL85:
 732 022c 1943     		orrs	r1, r3
 733 022e 0140     		ands	r1, r0
 734              	.LVL86:
 449:c:\projects\paindrain\arduinolcd\test\pain drain\libraries\lvgl\src\misc\lv_color.h ****     uint32_t result = ((((fg - bg) * mix) >> 5) + bg) & 0x7E0F81F;
 735              		.loc 4 449 0
 736 0230 891B     		subs	r1, r1, r6
 737              	.LVL87:
 738 0232 FF23     		movs	r3, #255
 739              	.LVL88:
ARM GAS  C:\Users\haske\AppData\Local\Temp\ccXBxzcA.s 			page 43


 740 0234 1A40     		ands	r2, r3
 741              	.LVL89:
 742 0236 4A43     		muls	r2, r1
 743 0238 5209     		lsrs	r2, r2, #5
 744 023a B318     		adds	r3, r6, r2
 745 023c 0340     		ands	r3, r0
 746              	.LVL90:
 450:c:\projects\paindrain\arduinolcd\test\pain drain\libraries\lvgl\src\misc\lv_color.h ****     ret.full = (uint16_t)((result >> 16) | result);
 747              		.loc 4 450 0
 748 023e 1E0C     		lsrs	r6, r3, #16
 749              	.LVL91:
 750 0240 1E43     		orrs	r6, r3
 751              	.LVL92:
 752              	.L20:
 753              	.LBE64:
 754              	.LBE63:
 755              	.LBE62:
 455:..\..\..\arduinoLCD\test\Pain Drain\libraries\lvgl\src\extra\widgets\meter/lv_meter.c ****                 if(indic->type != LV_METER_INDICATOR_TYPE_SCALE_LINES) continue;
 756              		.loc 1 455 0 discriminator 2
 757 0242 2100     		movs	r1, r4
 758 0244 0598     		ldr	r0, [sp, #20]
 759 0246 FFF7FEFF 		bl	_lv_ll_get_prev
 760              	.LVL93:
 761 024a 0400     		movs	r4, r0
 762              	.LVL94:
 763              	.L19:
 455:..\..\..\arduinoLCD\test\Pain Drain\libraries\lvgl\src\extra\widgets\meter/lv_meter.c ****                 if(indic->type != LV_METER_INDICATOR_TYPE_SCALE_LINES) continue;
 764              		.loc 1 455 0 is_stmt 0 discriminator 1
 765 024c 002C     		cmp	r4, #0
 766 024e BBD1     		bne	.L24
 767 0250 2B00     		movs	r3, r5
 768 0252 4546     		mov	r5, r8
 769              	.LVL95:
 770 0254 9846     		mov	r8, r3
 476:..\..\..\arduinoLCD\test\Pain Drain\libraries\lvgl\src\extra\widgets\meter/lv_meter.c **** 
 771              		.loc 1 476 0 is_stmt 1
 772 0256 FB8B     		ldrh	r3, [r7, #30]
 773              	.LVL96:
 774 0258 089A     		ldr	r2, [sp, #32]
 775 025a 5A43     		muls	r2, r3
 776 025c 1300     		movs	r3, r2
 777 025e 9200     		lsls	r2, r2, #2
 778 0260 D318     		adds	r3, r2, r3
 779 0262 5800     		lsls	r0, r3, #1
 780              	.LVL97:
 781 0264 7988     		ldrh	r1, [r7, #2]
 782 0266 0139     		subs	r1, r1, #1
 783 0268 FFF7FEFF 		bl	__aeabi_idiv
 784              	.LVL98:
 785 026c 2022     		movs	r2, #32
 786 026e BB5E     		ldrsh	r3, [r7, r2]
 787 0270 9A00     		lsls	r2, r3, #2
 788 0272 D318     		adds	r3, r2, r3
 789 0274 5A00     		lsls	r2, r3, #1
 790 0276 8318     		adds	r3, r0, r2
 791 0278 0593     		str	r3, [sp, #20]
 792              	.LVL99:
ARM GAS  C:\Users\haske\AppData\Local\Temp\ccXBxzcA.s 			page 44


 478:..\..\..\arduinoLCD\test\Pain Drain\libraries\lvgl\src\extra\widgets\meter/lv_meter.c ****             line_dsc.width = line_width;
 793              		.loc 1 478 0
 794 027a 54AB     		add	r3, sp, #336
 795              	.LVL100:
 796 027c 1E80     		strh	r6, [r3]
 479:..\..\..\arduinoLCD\test\Pain Drain\libraries\lvgl\src\extra\widgets\meter/lv_meter.c **** 
 797              		.loc 1 479 0
 798 027e 5246     		mov	r2, r10
 799 0280 5A80     		strh	r2, [r3, #2]
 484:..\..\..\arduinoLCD\test\Pain Drain\libraries\lvgl\src\extra\widgets\meter/lv_meter.c ****             p_outer.y = p_center.y;
 800              		.loc 1 484 0
 801 0282 57AB     		add	r3, sp, #348
 802 0284 0022     		movs	r2, #0
 803 0286 9A5E     		ldrsh	r2, [r3, r2]
 804 0288 0D99     		ldr	r1, [sp, #52]
 805 028a 0B1C     		adds	r3, r1, #0
 806 028c 8129     		cmp	r1, #129
 807 028e 00DC     		bgt	.L25
 808 0290 8223     		movs	r3, #130
 809              	.L25:
 810 0292 11A9     		add	r1, sp, #68
 811 0294 0B98     		ldr	r0, [sp, #44]
 812 0296 8446     		mov	ip, r0
 813 0298 6244     		add	r2, r2, ip
 814 029a D318     		adds	r3, r2, r3
 815 029c 0B80     		strh	r3, [r1]
 485:..\..\..\arduinoLCD\test\Pain Drain\libraries\lvgl\src\extra\widgets\meter/lv_meter.c ****             lv_point_transform(&p_outer, angle_upscale, 256, &p_center);
 816              		.loc 1 485 0
 817 029e 57AE     		add	r6, sp, #348
 818              	.LVL101:
 819 02a0 0222     		movs	r2, #2
 820 02a2 B35E     		ldrsh	r3, [r6, r2]
 821 02a4 4B80     		strh	r3, [r1, #2]
 486:..\..\..\arduinoLCD\test\Pain Drain\libraries\lvgl\src\extra\widgets\meter/lv_meter.c **** 
 822              		.loc 1 486 0
 823 02a6 0C00     		movs	r4, r1
 824              	.LVL102:
 825 02a8 3300     		movs	r3, r6
 826 02aa 8022     		movs	r2, #128
 827 02ac 5200     		lsls	r2, r2, #1
 828 02ae 0599     		ldr	r1, [sp, #20]
 829 02b0 2000     		movs	r0, r4
 830 02b2 FFF7FEFF 		bl	lv_point_transform
 831              	.LVL103:
 488:..\..\..\arduinoLCD\test\Pain Drain\libraries\lvgl\src\extra\widgets\meter/lv_meter.c ****             part_draw_dsc.p2 = &p_outer;
 832              		.loc 1 488 0
 833 02b6 3196     		str	r6, [sp, #196]
 489:..\..\..\arduinoLCD\test\Pain Drain\libraries\lvgl\src\extra\widgets\meter/lv_meter.c ****             part_draw_dsc.id = i;
 834              		.loc 1 489 0
 835 02b8 3294     		str	r4, [sp, #200]
 490:..\..\..\arduinoLCD\test\Pain Drain\libraries\lvgl\src\extra\widgets\meter/lv_meter.c ****             part_draw_dsc.label_dsc = &label_dsc;
 836              		.loc 1 490 0
 837 02ba 3695     		str	r5, [sp, #216]
 491:..\..\..\arduinoLCD\test\Pain Drain\libraries\lvgl\src\extra\widgets\meter/lv_meter.c **** 
 838              		.loc 1 491 0
 839 02bc 4CAB     		add	r3, sp, #304
 840 02be 2D93     		str	r3, [sp, #180]
ARM GAS  C:\Users\haske\AppData\Local\Temp\ccXBxzcA.s 			page 45


 494:..\..\..\arduinoLCD\test\Pain Drain\libraries\lvgl\src\extra\widgets\meter/lv_meter.c ****                 lv_draw_mask_remove_id(outer_mask_id);
 841              		.loc 1 494 0
 842 02c0 4B46     		mov	r3, r9
 843 02c2 002B     		cmp	r3, #0
 844 02c4 66D0     		beq	.L26
 845              	.LBB65:
 495:..\..\..\arduinoLCD\test\Pain Drain\libraries\lvgl\src\extra\widgets\meter/lv_meter.c ****                 uint32_t r_text = r_in_major - scale->label_gap;
 846              		.loc 1 495 0
 847 02c6 0C98     		ldr	r0, [sp, #48]
 848 02c8 FFF7FEFF 		bl	lv_draw_mask_remove_id
 849              	.LVL104:
 496:..\..\..\arduinoLCD\test\Pain Drain\libraries\lvgl\src\extra\widgets\meter/lv_meter.c ****                 lv_point_t p;
 850              		.loc 1 496 0
 851 02cc 1023     		movs	r3, #16
 852 02ce FA5E     		ldrsh	r2, [r7, r3]
 853 02d0 0E9B     		ldr	r3, [sp, #56]
 854 02d2 9A1A     		subs	r2, r3, r2
 855              	.LVL105:
 498:..\..\..\arduinoLCD\test\Pain Drain\libraries\lvgl\src\extra\widgets\meter/lv_meter.c ****                 p.y = p_center.y;
 856              		.loc 1 498 0
 857 02d4 57AB     		add	r3, sp, #348
 858 02d6 0020     		movs	r0, #0
 859 02d8 195E     		ldrsh	r1, [r3, r0]
 860 02da 12AE     		add	r6, sp, #72
 861 02dc 8A18     		adds	r2, r1, r2
 862              	.LVL106:
 863 02de 3280     		strh	r2, [r6]
 864              	.LVL107:
 499:..\..\..\arduinoLCD\test\Pain Drain\libraries\lvgl\src\extra\widgets\meter/lv_meter.c ****                 lv_point_transform(&p, angle_upscale, 256, &p_center);
 865              		.loc 1 499 0
 866 02e0 0220     		movs	r0, #2
 867 02e2 1A5E     		ldrsh	r2, [r3, r0]
 868 02e4 7280     		strh	r2, [r6, #2]
 500:..\..\..\arduinoLCD\test\Pain Drain\libraries\lvgl\src\extra\widgets\meter/lv_meter.c **** 
 869              		.loc 1 500 0
 870 02e6 8022     		movs	r2, #128
 871 02e8 5200     		lsls	r2, r2, #1
 872 02ea 0599     		ldr	r1, [sp, #20]
 873 02ec 3000     		movs	r0, r6
 874 02ee FFF7FEFF 		bl	lv_point_transform
 875              	.LVL108:
 503:..\..\..\arduinoLCD\test\Pain Drain\libraries\lvgl\src\extra\widgets\meter/lv_meter.c **** 
 876              		.loc 1 503 0
 877 02f2 4CAC     		add	r4, sp, #304
 878 02f4 20AB     		add	r3, sp, #128
 879 02f6 9A46     		mov	r10, r3
 880              	.LVL109:
 881 02f8 2022     		movs	r2, #32
 882 02fa 2100     		movs	r1, r4
 883 02fc 1800     		movs	r0, r3
 884 02fe FFF7FEFF 		bl	lv_memcpy
 885              	.LVL110:
 505:..\..\..\arduinoLCD\test\Pain Drain\libraries\lvgl\src\extra\widgets\meter/lv_meter.c ****                 char buf[16];
 886              		.loc 1 505 0
 887 0302 5346     		mov	r3, r10
 888 0304 2D93     		str	r3, [sp, #180]
 508:..\..\..\arduinoLCD\test\Pain Drain\libraries\lvgl\src\extra\widgets\meter/lv_meter.c ****                 part_draw_dsc.text = buf;
ARM GAS  C:\Users\haske\AppData\Local\Temp\ccXBxzcA.s 			page 46


 889              		.loc 1 508 0
 890 0306 1CAB     		add	r3, sp, #112
 891 0308 9A46     		mov	r10, r3
 892 030a 4346     		mov	r3, r8
 893 030c 2C4A     		ldr	r2, .L34+16
 894 030e 1021     		movs	r1, #16
 895 0310 5046     		mov	r0, r10
 896 0312 FFF7FEFF 		bl	lv_snprintf
 897              	.LVL111:
 509:..\..\..\arduinoLCD\test\Pain Drain\libraries\lvgl\src\extra\widgets\meter/lv_meter.c **** 
 898              		.loc 1 509 0
 899 0316 5346     		mov	r3, r10
 900 0318 3393     		str	r3, [sp, #204]
 511:..\..\..\arduinoLCD\test\Pain Drain\libraries\lvgl\src\extra\widgets\meter/lv_meter.c **** 
 901              		.loc 1 511 0
 902 031a 28AA     		add	r2, sp, #160
 903 031c 1A21     		movs	r1, #26
 904 031e 0698     		ldr	r0, [sp, #24]
 905 0320 FFF7FEFF 		bl	lv_event_send
 906              	.LVL112:
 514:..\..\..\arduinoLCD\test\Pain Drain\libraries\lvgl\src\extra\widgets\meter/lv_meter.c ****                                 LV_COORD_MAX, LV_TEXT_FLAG_NONE);
 907              		.loc 1 514 0
 908 0324 339B     		ldr	r3, [sp, #204]
 909 0326 0593     		str	r3, [sp, #20]
 910              	.LVL113:
 911 0328 1422     		movs	r2, #20
 912 032a A35E     		ldrsh	r3, [r4, r2]
 913 032c 0022     		movs	r2, #0
 914 032e 9046     		mov	r8, r2
 915              	.LVL114:
 916 0330 0292     		str	r2, [sp, #8]
 917 0332 244A     		ldr	r2, .L34+20
 918 0334 0192     		str	r2, [sp, #4]
 919 0336 1221     		movs	r1, #18
 920 0338 625E     		ldrsh	r2, [r4, r1]
 921 033a 0092     		str	r2, [sp]
 922 033c 4C9A     		ldr	r2, [sp, #304]
 923 033e 0599     		ldr	r1, [sp, #20]
 924 0340 13A8     		add	r0, sp, #76
 925 0342 FFF7FEFF 		bl	lv_txt_get_size
 926              	.LVL115:
 518:..\..\..\arduinoLCD\test\Pain Drain\libraries\lvgl\src\extra\widgets\meter/lv_meter.c ****                 label_cord.y1 = p.y - label_size.y / 2;
 927              		.loc 1 518 0
 928 0346 0022     		movs	r2, #0
 929 0348 B35E     		ldrsh	r3, [r6, r2]
 930 034a 13A8     		add	r0, sp, #76
 931 034c 0022     		movs	r2, #0
 932 034e 845E     		ldrsh	r4, [r0, r2]
 933 0350 E10F     		lsrs	r1, r4, #31
 934 0352 0919     		adds	r1, r1, r4
 935 0354 4910     		asrs	r1, r1, #1
 936 0356 591A     		subs	r1, r3, r1
 937 0358 89B2     		uxth	r1, r1
 938 035a 1AAA     		add	r2, sp, #104
 939 035c 1180     		strh	r1, [r2]
 519:..\..\..\arduinoLCD\test\Pain Drain\libraries\lvgl\src\extra\widgets\meter/lv_meter.c ****                 label_cord.x2 = label_cord.x1 + label_size.x;
 940              		.loc 1 519 0
ARM GAS  C:\Users\haske\AppData\Local\Temp\ccXBxzcA.s 			page 47


 941 035e 0223     		movs	r3, #2
 942 0360 F35E     		ldrsh	r3, [r6, r3]
 943 0362 0226     		movs	r6, #2
 944 0364 805F     		ldrsh	r0, [r0, r6]
 945 0366 C60F     		lsrs	r6, r0, #31
 946 0368 3618     		adds	r6, r6, r0
 947 036a 7610     		asrs	r6, r6, #1
 948 036c 9B1B     		subs	r3, r3, r6
 949 036e 9BB2     		uxth	r3, r3
 950 0370 5380     		strh	r3, [r2, #2]
 520:..\..\..\arduinoLCD\test\Pain Drain\libraries\lvgl\src\extra\widgets\meter/lv_meter.c ****                 label_cord.y2 = label_cord.y1 + label_size.y;
 951              		.loc 1 520 0
 952 0372 0919     		adds	r1, r1, r4
 953 0374 9180     		strh	r1, [r2, #4]
 521:..\..\..\arduinoLCD\test\Pain Drain\libraries\lvgl\src\extra\widgets\meter/lv_meter.c **** 
 954              		.loc 1 521 0
 955 0376 1B18     		adds	r3, r3, r0
 956 0378 D380     		strh	r3, [r2, #6]
 523:..\..\..\arduinoLCD\test\Pain Drain\libraries\lvgl\src\extra\widgets\meter/lv_meter.c **** 
 957              		.loc 1 523 0
 958 037a 2D99     		ldr	r1, [sp, #180]
 959 037c 339B     		ldr	r3, [sp, #204]
 960 037e 4046     		mov	r0, r8
 961 0380 0090     		str	r0, [sp]
 962 0382 0A98     		ldr	r0, [sp, #40]
 963 0384 FFF7FEFF 		bl	lv_draw_label
 964              	.LVL116:
 525:..\..\..\arduinoLCD\test\Pain Drain\libraries\lvgl\src\extra\widgets\meter/lv_meter.c ****             }
 965              		.loc 1 525 0
 966 0388 0021     		movs	r1, #0
 967 038a 3AA8     		add	r0, sp, #232
 968 038c FFF7FEFF 		bl	lv_draw_mask_add
 969              	.LVL117:
 970 0390 0C90     		str	r0, [sp, #48]
 971              	.LVL118:
 972              	.LBE65:
 973 0392 07E0     		b	.L27
 974              	.LVL119:
 975              	.L26:
 528:..\..\..\arduinoLCD\test\Pain Drain\libraries\lvgl\src\extra\widgets\meter/lv_meter.c ****                 part_draw_dsc.text = NULL;
 976              		.loc 1 528 0
 977 0394 0023     		movs	r3, #0
 978 0396 2D93     		str	r3, [sp, #180]
 529:..\..\..\arduinoLCD\test\Pain Drain\libraries\lvgl\src\extra\widgets\meter/lv_meter.c ****                 lv_event_send(obj, LV_EVENT_DRAW_PART_BEGIN, &part_draw_dsc);
 979              		.loc 1 529 0
 980 0398 3393     		str	r3, [sp, #204]
 530:..\..\..\arduinoLCD\test\Pain Drain\libraries\lvgl\src\extra\widgets\meter/lv_meter.c ****             }
 981              		.loc 1 530 0
 982 039a 28AA     		add	r2, sp, #160
 983 039c 1A21     		movs	r1, #26
 984 039e 0698     		ldr	r0, [sp, #24]
 985 03a0 FFF7FEFF 		bl	lv_event_send
 986              	.LVL120:
 987              	.L27:
 988              		.loc 1 533 0
 989 03a4 4B46     		mov	r3, r9
 990 03a6 002B     		cmp	r3, #0
ARM GAS  C:\Users\haske\AppData\Local\Temp\ccXBxzcA.s 			page 48


 991 03a8 0ED0     		beq	.L33
 992 03aa 40A8     		add	r0, sp, #256
 993 03ac 0DE0     		b	.L28
 994              	.L35:
 995 03ae C046     		.align	2
 996              	.L34:
 997 03b0 00000000 		.word	.LANCHOR0
 998 03b4 FF7F0000 		.word	32767
 999 03b8 FFFF0000 		.word	65535
 1000 03bc 1FF8E007 		.word	132184095
 1001 03c0 00000000 		.word	.LC2
 1002 03c4 FF1F0000 		.word	8191
 1003              	.L33:
 1004 03c8 46A8     		add	r0, sp, #280
 1005              	.L28:
 1006              		.loc 1 533 0 is_stmt 0 discriminator 4
 1007 03ca 0021     		movs	r1, #0
 1008 03cc FFF7FEFF 		bl	lv_draw_mask_add
 1009              	.LVL121:
 1010 03d0 0600     		movs	r6, r0
 1011              	.LVL122:
 534:..\..\..\arduinoLCD\test\Pain Drain\libraries\lvgl\src\extra\widgets\meter/lv_meter.c ****             lv_draw_line(draw_ctx, &line_dsc, &p_outer, &p_center);
 1012              		.loc 1 534 0 is_stmt 1 discriminator 4
 1013 03d2 54AC     		add	r4, sp, #336
 1014 03d4 57AB     		add	r3, sp, #348
 1015 03d6 11AA     		add	r2, sp, #68
 1016 03d8 2100     		movs	r1, r4
 1017 03da 0A98     		ldr	r0, [sp, #40]
 1018 03dc FFF7FEFF 		bl	lv_draw_line
 1019              	.LVL123:
 535:..\..\..\arduinoLCD\test\Pain Drain\libraries\lvgl\src\extra\widgets\meter/lv_meter.c ****             lv_draw_mask_remove_id(inner_act_mask_id);
 1020              		.loc 1 535 0 discriminator 4
 1021 03e0 3000     		movs	r0, r6
 1022 03e2 FFF7FEFF 		bl	lv_draw_mask_remove_id
 1023              	.LVL124:
 536:..\..\..\arduinoLCD\test\Pain Drain\libraries\lvgl\src\extra\widgets\meter/lv_meter.c ****             lv_event_send(obj, LV_EVENT_DRAW_MAIN_END, &part_draw_dsc);
 1024              		.loc 1 536 0 discriminator 4
 1025 03e6 28AA     		add	r2, sp, #160
 1026 03e8 1621     		movs	r1, #22
 1027 03ea 0698     		ldr	r0, [sp, #24]
 1028 03ec FFF7FEFF 		bl	lv_event_send
 1029              	.LVL125:
 537:..\..\..\arduinoLCD\test\Pain Drain\libraries\lvgl\src\extra\widgets\meter/lv_meter.c **** 
 538:..\..\..\arduinoLCD\test\Pain Drain\libraries\lvgl\src\extra\widgets\meter/lv_meter.c ****             line_dsc.color = line_color_ori;
 1030              		.loc 1 538 0 discriminator 4
 1031 03f0 6B46     		mov	r3, sp
 1032 03f2 DB8C     		ldrh	r3, [r3, #38]
 1033              	.LVL126:
 1034 03f4 2380     		strh	r3, [r4]
 539:..\..\..\arduinoLCD\test\Pain Drain\libraries\lvgl\src\extra\widgets\meter/lv_meter.c ****             line_dsc.width = line_width_ori;
 1035              		.loc 1 539 0 discriminator 4
 1036 03f6 5B46     		mov	r3, fp
 1037              	.LVL127:
 1038 03f8 6380     		strh	r3, [r4, #2]
 1039              	.LBE61:
 437:..\..\..\arduinoLCD\test\Pain Drain\libraries\lvgl\src\extra\widgets\meter/lv_meter.c ****             minor_cnt++;
 1040              		.loc 1 437 0 discriminator 4
ARM GAS  C:\Users\haske\AppData\Local\Temp\ccXBxzcA.s 			page 49


 1041 03fa 0135     		adds	r5, r5, #1
 1042 03fc ADB2     		uxth	r5, r5
 1043              	.LVL128:
 1044              	.L13:
 437:..\..\..\arduinoLCD\test\Pain Drain\libraries\lvgl\src\extra\widgets\meter/lv_meter.c ****             minor_cnt++;
 1045              		.loc 1 437 0 is_stmt 0 discriminator 2
 1046 03fe 7A88     		ldrh	r2, [r7, #2]
 1047 0400 9542     		cmp	r5, r2
 1048 0402 00D2     		bcs	.LCB1034
 1049 0404 A9E6     		b	.L29	@long jump
 1050              	.LCB1034:
 540:..\..\..\arduinoLCD\test\Pain Drain\libraries\lvgl\src\extra\widgets\meter/lv_meter.c **** 
 541:..\..\..\arduinoLCD\test\Pain Drain\libraries\lvgl\src\extra\widgets\meter/lv_meter.c ****         }
 542:..\..\..\arduinoLCD\test\Pain Drain\libraries\lvgl\src\extra\widgets\meter/lv_meter.c ****         lv_draw_mask_free_param(&inner_minor_mask);
 1051              		.loc 1 542 0 is_stmt 1 discriminator 2
 1052 0406 46A8     		add	r0, sp, #280
 1053 0408 FFF7FEFF 		bl	lv_draw_mask_free_param
 1054              	.LVL129:
 543:..\..\..\arduinoLCD\test\Pain Drain\libraries\lvgl\src\extra\widgets\meter/lv_meter.c ****         lv_draw_mask_free_param(&inner_major_mask);
 1055              		.loc 1 543 0 discriminator 2
 1056 040c 40A8     		add	r0, sp, #256
 1057 040e FFF7FEFF 		bl	lv_draw_mask_free_param
 1058              	.LVL130:
 544:..\..\..\arduinoLCD\test\Pain Drain\libraries\lvgl\src\extra\widgets\meter/lv_meter.c ****         lv_draw_mask_free_param(&outer_mask);
 1059              		.loc 1 544 0 discriminator 2
 1060 0412 3AA8     		add	r0, sp, #232
 1061 0414 FFF7FEFF 		bl	lv_draw_mask_free_param
 1062              	.LVL131:
 545:..\..\..\arduinoLCD\test\Pain Drain\libraries\lvgl\src\extra\widgets\meter/lv_meter.c ****         lv_draw_mask_remove_id(outer_mask_id);
 1063              		.loc 1 545 0 discriminator 2
 1064 0418 0C98     		ldr	r0, [sp, #48]
 1065 041a FFF7FEFF 		bl	lv_draw_mask_remove_id
 1066              	.LVL132:
 1067              	.LBE60:
 404:..\..\..\arduinoLCD\test\Pain Drain\libraries\lvgl\src\extra\widgets\meter/lv_meter.c ****         part_draw_dsc.sub_part_ptr = scale;
 1068              		.loc 1 404 0 discriminator 2
 1069 041e 3900     		movs	r1, r7
 1070 0420 0F98     		ldr	r0, [sp, #60]
 1071 0422 FFF7FEFF 		bl	_lv_ll_get_prev
 1072              	.LVL133:
 1073 0426 0700     		movs	r7, r0
 1074              	.LVL134:
 1075              	.L11:
 404:..\..\..\arduinoLCD\test\Pain Drain\libraries\lvgl\src\extra\widgets\meter/lv_meter.c ****         part_draw_dsc.sub_part_ptr = scale;
 1076              		.loc 1 404 0 is_stmt 0 discriminator 1
 1077 0428 002F     		cmp	r7, #0
 1078 042a 00D0     		beq	.LCB1066
 1079 042c 3CE6     		b	.L30	@long jump
 1080              	.LCB1066:
 546:..\..\..\arduinoLCD\test\Pain Drain\libraries\lvgl\src\extra\widgets\meter/lv_meter.c ****     }
 547:..\..\..\arduinoLCD\test\Pain Drain\libraries\lvgl\src\extra\widgets\meter/lv_meter.c **** }
 1081              		.loc 1 547 0 is_stmt 1
 1082 042e 59B0     		add	sp, sp, #356
 1083              		@ sp needed
 1084 0430 3CBC     		pop	{r2, r3, r4, r5}
 1085 0432 9046     		mov	r8, r2
 1086 0434 9946     		mov	r9, r3
ARM GAS  C:\Users\haske\AppData\Local\Temp\ccXBxzcA.s 			page 50


 1087 0436 A246     		mov	r10, r4
 1088 0438 AB46     		mov	fp, r5
 1089 043a F0BD     		pop	{r4, r5, r6, r7, pc}
 1090              		.cfi_endproc
 1091              	.LFE218:
 1092              		.size	draw_ticks_and_labels, .-draw_ticks_and_labels
 1093              		.section	.text.draw_needles,"ax",%progbits
 1094              		.align	2
 1095              		.code	16
 1096              		.thumb_func
 1097              		.type	draw_needles, %function
 1098              	draw_needles:
 1099              	.LFB219:
 548:..\..\..\arduinoLCD\test\Pain Drain\libraries\lvgl\src\extra\widgets\meter/lv_meter.c **** 
 549:..\..\..\arduinoLCD\test\Pain Drain\libraries\lvgl\src\extra\widgets\meter/lv_meter.c **** 
 550:..\..\..\arduinoLCD\test\Pain Drain\libraries\lvgl\src\extra\widgets\meter/lv_meter.c **** static void draw_needles(lv_obj_t * obj, lv_draw_ctx_t * draw_ctx, const lv_area_t * scale_area)
 551:..\..\..\arduinoLCD\test\Pain Drain\libraries\lvgl\src\extra\widgets\meter/lv_meter.c **** {
 1100              		.loc 1 551 0
 1101              		.cfi_startproc
 1102              		@ args = 0, pretend = 0, frame = 144
 1103              		@ frame_needed = 0, uses_anonymous_args = 0
 1104              	.LVL135:
 1105 0000 F0B5     		push	{r4, r5, r6, r7, lr}
 1106              		.cfi_def_cfa_offset 20
 1107              		.cfi_offset 4, -20
 1108              		.cfi_offset 5, -16
 1109              		.cfi_offset 6, -12
 1110              		.cfi_offset 7, -8
 1111              		.cfi_offset 14, -4
 1112 0002 5F46     		mov	r7, fp
 1113 0004 5646     		mov	r6, r10
 1114 0006 4D46     		mov	r5, r9
 1115 0008 E0B4     		push	{r5, r6, r7}
 1116              		.cfi_def_cfa_offset 32
 1117              		.cfi_offset 9, -32
 1118              		.cfi_offset 10, -28
 1119              		.cfi_offset 11, -24
 1120 000a A6B0     		sub	sp, sp, #152
 1121              		.cfi_def_cfa_offset 184
 1122 000c 0400     		movs	r4, r0
 1123 000e 0390     		str	r0, [sp, #12]
 1124 0010 0F00     		movs	r7, r1
 1125 0012 0491     		str	r1, [sp, #16]
 1126              	.LVL136:
 1127              	.LBB66:
 1128              	.LBB67:
 125:c:\projects\paindrain\arduinolcd\test\pain drain\libraries\lvgl\src\misc\lv_area.h **** }
 1129              		.loc 3 125 0
 1130 0014 0421     		movs	r1, #4
 1131 0016 535E     		ldrsh	r3, [r2, r1]
 1132              	.LVL137:
 1133 0018 1188     		ldrh	r1, [r2]
 1134 001a 5B1A     		subs	r3, r3, r1
 1135 001c 0133     		adds	r3, r3, #1
 1136 001e 1BB2     		sxth	r3, r3
 1137              	.LVL138:
 1138              	.LBE67:
ARM GAS  C:\Users\haske\AppData\Local\Temp\ccXBxzcA.s 			page 51


 1139              	.LBE66:
 552:..\..\..\arduinoLCD\test\Pain Drain\libraries\lvgl\src\extra\widgets\meter/lv_meter.c ****     lv_meter_t * meter = (lv_meter_t *)obj;
 553:..\..\..\arduinoLCD\test\Pain Drain\libraries\lvgl\src\extra\widgets\meter/lv_meter.c **** 
 554:..\..\..\arduinoLCD\test\Pain Drain\libraries\lvgl\src\extra\widgets\meter/lv_meter.c ****     lv_coord_t r_edge = lv_area_get_width(scale_area) / 2;
 1140              		.loc 1 554 0
 1141 0020 D80F     		lsrs	r0, r3, #31
 1142              	.LVL139:
 1143 0022 C318     		adds	r3, r0, r3
 1144 0024 5B10     		asrs	r3, r3, #1
 1145              	.LVL140:
 555:..\..\..\arduinoLCD\test\Pain Drain\libraries\lvgl\src\extra\widgets\meter/lv_meter.c ****     lv_point_t scale_center;
 556:..\..\..\arduinoLCD\test\Pain Drain\libraries\lvgl\src\extra\widgets\meter/lv_meter.c ****     scale_center.x = scale_area->x1 + r_edge;
 1146              		.loc 1 556 0
 1147 0026 9BB2     		uxth	r3, r3
 1148 0028 9946     		mov	r9, r3
 1149 002a 25AD     		add	r5, sp, #148
 1150 002c 4944     		add	r1, r1, r9
 1151 002e 2980     		strh	r1, [r5]
 557:..\..\..\arduinoLCD\test\Pain Drain\libraries\lvgl\src\extra\widgets\meter/lv_meter.c ****     scale_center.y = scale_area->y1 + r_edge;
 1152              		.loc 1 557 0
 1153 0030 0223     		movs	r3, #2
 1154 0032 D35E     		ldrsh	r3, [r2, r3]
 1155              	.LVL141:
 1156 0034 4B44     		add	r3, r3, r9
 1157 0036 6B80     		strh	r3, [r5, #2]
 558:..\..\..\arduinoLCD\test\Pain Drain\libraries\lvgl\src\extra\widgets\meter/lv_meter.c **** 
 559:..\..\..\arduinoLCD\test\Pain Drain\libraries\lvgl\src\extra\widgets\meter/lv_meter.c ****     lv_draw_line_dsc_t line_dsc;
 560:..\..\..\arduinoLCD\test\Pain Drain\libraries\lvgl\src\extra\widgets\meter/lv_meter.c ****     lv_draw_line_dsc_init(&line_dsc);
 1158              		.loc 1 560 0
 1159 0038 22A8     		add	r0, sp, #136
 1160 003a FFF7FEFF 		bl	lv_draw_line_dsc_init
 1161              	.LVL142:
 561:..\..\..\arduinoLCD\test\Pain Drain\libraries\lvgl\src\extra\widgets\meter/lv_meter.c ****     lv_obj_init_draw_line_dsc(obj, LV_PART_ITEMS, &line_dsc);
 1162              		.loc 1 561 0
 1163 003e A026     		movs	r6, #160
 1164 0040 F602     		lsls	r6, r6, #11
 1165 0042 22AA     		add	r2, sp, #136
 1166 0044 3100     		movs	r1, r6
 1167 0046 2000     		movs	r0, r4
 1168 0048 FFF7FEFF 		bl	lv_obj_init_draw_line_dsc
 1169              	.LVL143:
 562:..\..\..\arduinoLCD\test\Pain Drain\libraries\lvgl\src\extra\widgets\meter/lv_meter.c **** 
 563:..\..\..\arduinoLCD\test\Pain Drain\libraries\lvgl\src\extra\widgets\meter/lv_meter.c ****     lv_draw_img_dsc_t img_dsc;
 564:..\..\..\arduinoLCD\test\Pain Drain\libraries\lvgl\src\extra\widgets\meter/lv_meter.c ****     lv_draw_img_dsc_init(&img_dsc);
 1170              		.loc 1 564 0
 1171 004c 1CA8     		add	r0, sp, #112
 1172 004e FFF7FEFF 		bl	lv_draw_img_dsc_init
 1173              	.LVL144:
 565:..\..\..\arduinoLCD\test\Pain Drain\libraries\lvgl\src\extra\widgets\meter/lv_meter.c ****     lv_obj_init_draw_img_dsc(obj, LV_PART_ITEMS, &img_dsc);
 1174              		.loc 1 565 0
 1175 0052 1CAA     		add	r2, sp, #112
 1176 0054 3100     		movs	r1, r6
 1177 0056 2000     		movs	r0, r4
 1178 0058 FFF7FEFF 		bl	lv_obj_init_draw_img_dsc
 1179              	.LVL145:
 1180              	.LBB68:
 1181              	.LBB69:
ARM GAS  C:\Users\haske\AppData\Local\Temp\ccXBxzcA.s 			page 52


 507:c:\projects\paindrain\arduinolcd\test\pain drain\libraries\lvgl\src/core\lv_obj_style_gen.h ****     return (lv_opa_t)v.num;
 1182              		.loc 2 507 0
 1183 005c 6022     		movs	r2, #96
 1184 005e 0021     		movs	r1, #0
 1185 0060 2000     		movs	r0, r4
 1186 0062 FFF7FEFF 		bl	lv_obj_get_style_prop
 1187              	.LVL146:
 1188 0066 8246     		mov	r10, r0
 1189              		.loc 2 508 0
 1190 0068 6A46     		mov	r2, sp
 1191 006a 1072     		strb	r0, [r2, #8]
 1192 006c 137A     		ldrb	r3, [r2, #8]
 1193 006e 0593     		str	r3, [sp, #20]
 1194              	.LVL147:
 1195              	.LBE69:
 1196              	.LBE68:
 566:..\..\..\arduinoLCD\test\Pain Drain\libraries\lvgl\src\extra\widgets\meter/lv_meter.c ****     lv_opa_t opa_main = lv_obj_get_style_opa(obj, LV_PART_MAIN);
 567:..\..\..\arduinoLCD\test\Pain Drain\libraries\lvgl\src\extra\widgets\meter/lv_meter.c **** 
 568:..\..\..\arduinoLCD\test\Pain Drain\libraries\lvgl\src\extra\widgets\meter/lv_meter.c ****     lv_obj_draw_part_dsc_t part_draw_dsc;
 569:..\..\..\arduinoLCD\test\Pain Drain\libraries\lvgl\src\extra\widgets\meter/lv_meter.c ****     lv_obj_draw_dsc_init(&part_draw_dsc, draw_ctx);
 1197              		.loc 1 569 0
 1198 0070 3900     		movs	r1, r7
 1199 0072 0AA8     		add	r0, sp, #40
 1200 0074 FFF7FEFF 		bl	lv_obj_draw_dsc_init
 1201              	.LVL148:
 570:..\..\..\arduinoLCD\test\Pain Drain\libraries\lvgl\src\extra\widgets\meter/lv_meter.c ****     part_draw_dsc.class_p = MY_CLASS;
 1202              		.loc 1 570 0
 1203 0078 6B4B     		ldr	r3, .L47
 1204 007a 0B93     		str	r3, [sp, #44]
 571:..\..\..\arduinoLCD\test\Pain Drain\libraries\lvgl\src\extra\widgets\meter/lv_meter.c ****     part_draw_dsc.p1 = &scale_center;
 1205              		.loc 1 571 0
 1206 007c 1395     		str	r5, [sp, #76]
 572:..\..\..\arduinoLCD\test\Pain Drain\libraries\lvgl\src\extra\widgets\meter/lv_meter.c **** 
 573:..\..\..\arduinoLCD\test\Pain Drain\libraries\lvgl\src\extra\widgets\meter/lv_meter.c ****     lv_meter_indicator_t * indic;
 574:..\..\..\arduinoLCD\test\Pain Drain\libraries\lvgl\src\extra\widgets\meter/lv_meter.c ****     _LV_LL_READ_BACK(&meter->indicator_ll, indic) {
 1207              		.loc 1 574 0
 1208 007e 2300     		movs	r3, r4
 1209 0080 3033     		adds	r3, r3, #48
 1210 0082 0293     		str	r3, [sp, #8]
 1211 0084 1800     		movs	r0, r3
 1212 0086 FFF7FEFF 		bl	_lv_ll_get_tail
 1213              	.LVL149:
 1214 008a 0500     		movs	r5, r0
 1215 008c C2E0     		b	.L37
 1216              	.LVL150:
 1217              	.L44:
 1218              	.LBB70:
 575:..\..\..\arduinoLCD\test\Pain Drain\libraries\lvgl\src\extra\widgets\meter/lv_meter.c ****         lv_meter_scale_t * scale = indic->scale;
 1219              		.loc 1 575 0
 1220 008e 2C68     		ldr	r4, [r5]
 1221              	.LVL151:
 576:..\..\..\arduinoLCD\test\Pain Drain\libraries\lvgl\src\extra\widgets\meter/lv_meter.c ****         part_draw_dsc.sub_part_ptr = indic;
 1222              		.loc 1 576 0
 1223 0090 1B95     		str	r5, [sp, #108]
 577:..\..\..\arduinoLCD\test\Pain Drain\libraries\lvgl\src\extra\widgets\meter/lv_meter.c **** 
 578:..\..\..\arduinoLCD\test\Pain Drain\libraries\lvgl\src\extra\widgets\meter/lv_meter.c ****         if(indic->type == LV_METER_INDICATOR_TYPE_NEEDLE_LINE) {
 1224              		.loc 1 578 0
ARM GAS  C:\Users\haske\AppData\Local\Temp\ccXBxzcA.s 			page 53


 1225 0092 2B79     		ldrb	r3, [r5, #4]
 1226 0094 012B     		cmp	r3, #1
 1227 0096 56D1     		bne	.L38
 1228              	.LBB71:
 579:..\..\..\arduinoLCD\test\Pain Drain\libraries\lvgl\src\extra\widgets\meter/lv_meter.c ****             int32_t angle = lv_map(indic->end_value, scale->min, scale->max, scale->rotation, scale
 1229              		.loc 1 579 0
 1230 0098 E868     		ldr	r0, [r5, #12]
 1231              	.LVL152:
 1232 009a 6169     		ldr	r1, [r4, #20]
 1233 009c A269     		ldr	r2, [r4, #24]
 1234 009e 2026     		movs	r6, #32
 1235 00a0 A35F     		ldrsh	r3, [r4, r6]
 1236 00a2 E68B     		ldrh	r6, [r4, #30]
 1237 00a4 9E19     		adds	r6, r3, r6
 1238 00a6 0096     		str	r6, [sp]
 1239 00a8 FFF7FEFF 		bl	lv_map
 1240              	.LVL153:
 1241 00ac 0600     		movs	r6, r0
 1242              	.LVL154:
 580:..\..\..\arduinoLCD\test\Pain Drain\libraries\lvgl\src\extra\widgets\meter/lv_meter.c ****             lv_coord_t r_out = r_edge + scale->r_mod + indic->type_data.needle_line.r_mod;
 1243              		.loc 1 580 0
 1244 00ae 1C23     		movs	r3, #28
 1245 00b0 E05E     		ldrsh	r0, [r4, r3]
 1246              	.LVL155:
 1247 00b2 1222     		movs	r2, #18
 1248 00b4 AB5E     		ldrsh	r3, [r5, r2]
 1249 00b6 4844     		add	r0, r0, r9
 1250 00b8 C018     		adds	r0, r0, r3
 1251 00ba 03B2     		sxth	r3, r0
 1252 00bc 9B46     		mov	fp, r3
 1253              	.LVL156:
 581:..\..\..\arduinoLCD\test\Pain Drain\libraries\lvgl\src\extra\widgets\meter/lv_meter.c ****             lv_point_t p_end;
 582:..\..\..\arduinoLCD\test\Pain Drain\libraries\lvgl\src\extra\widgets\meter/lv_meter.c ****             p_end.y = (lv_trigo_sin(angle) * (r_out)) / LV_TRIGO_SIN_MAX + scale_center.y;
 1254              		.loc 1 582 0
 1255 00be 30B2     		sxth	r0, r6
 1256 00c0 FFF7FEFF 		bl	lv_trigo_sin
 1257              	.LVL157:
 1258 00c4 5B46     		mov	r3, fp
 1259 00c6 5843     		muls	r0, r3
 1260 00c8 5849     		ldr	r1, .L47+4
 1261 00ca FFF7FEFF 		bl	__aeabi_idiv
 1262              	.LVL158:
 1263 00ce 25AC     		add	r4, sp, #148
 1264              	.LVL159:
 1265 00d0 0222     		movs	r2, #2
 1266 00d2 A35E     		ldrsh	r3, [r4, r2]
 1267 00d4 08AF     		add	r7, sp, #32
 1268 00d6 C018     		adds	r0, r0, r3
 1269 00d8 7880     		strh	r0, [r7, #2]
 1270              	.LVL160:
 1271              	.LBB72:
 1272              	.LBB73:
 1273              		.file 5 "c:\\projects\\paindrain\\arduinolcd\\test\\pain drain\\libraries\\lvgl\\src/misc/lv_math.
   1:c:\projects\paindrain\arduinolcd\test\pain drain\libraries\lvgl\src\misc\lv_math.h **** /**
   2:c:\projects\paindrain\arduinolcd\test\pain drain\libraries\lvgl\src\misc\lv_math.h ****  * @file lv_math.h
   3:c:\projects\paindrain\arduinolcd\test\pain drain\libraries\lvgl\src\misc\lv_math.h ****  *
   4:c:\projects\paindrain\arduinolcd\test\pain drain\libraries\lvgl\src\misc\lv_math.h ****  */
ARM GAS  C:\Users\haske\AppData\Local\Temp\ccXBxzcA.s 			page 54


   5:c:\projects\paindrain\arduinolcd\test\pain drain\libraries\lvgl\src\misc\lv_math.h **** 
   6:c:\projects\paindrain\arduinolcd\test\pain drain\libraries\lvgl\src\misc\lv_math.h **** #ifndef LV_MATH_H
   7:c:\projects\paindrain\arduinolcd\test\pain drain\libraries\lvgl\src\misc\lv_math.h **** #define LV_MATH_H
   8:c:\projects\paindrain\arduinolcd\test\pain drain\libraries\lvgl\src\misc\lv_math.h **** 
   9:c:\projects\paindrain\arduinolcd\test\pain drain\libraries\lvgl\src\misc\lv_math.h **** #ifdef __cplusplus
  10:c:\projects\paindrain\arduinolcd\test\pain drain\libraries\lvgl\src\misc\lv_math.h **** extern "C" {
  11:c:\projects\paindrain\arduinolcd\test\pain drain\libraries\lvgl\src\misc\lv_math.h **** #endif
  12:c:\projects\paindrain\arduinolcd\test\pain drain\libraries\lvgl\src\misc\lv_math.h **** 
  13:c:\projects\paindrain\arduinolcd\test\pain drain\libraries\lvgl\src\misc\lv_math.h **** /*********************
  14:c:\projects\paindrain\arduinolcd\test\pain drain\libraries\lvgl\src\misc\lv_math.h ****  *      INCLUDES
  15:c:\projects\paindrain\arduinolcd\test\pain drain\libraries\lvgl\src\misc\lv_math.h ****  *********************/
  16:c:\projects\paindrain\arduinolcd\test\pain drain\libraries\lvgl\src\misc\lv_math.h **** #include "../lv_conf_internal.h"
  17:c:\projects\paindrain\arduinolcd\test\pain drain\libraries\lvgl\src\misc\lv_math.h **** #include <stdint.h>
  18:c:\projects\paindrain\arduinolcd\test\pain drain\libraries\lvgl\src\misc\lv_math.h **** 
  19:c:\projects\paindrain\arduinolcd\test\pain drain\libraries\lvgl\src\misc\lv_math.h **** /*********************
  20:c:\projects\paindrain\arduinolcd\test\pain drain\libraries\lvgl\src\misc\lv_math.h ****  *      DEFINES
  21:c:\projects\paindrain\arduinolcd\test\pain drain\libraries\lvgl\src\misc\lv_math.h ****  *********************/
  22:c:\projects\paindrain\arduinolcd\test\pain drain\libraries\lvgl\src\misc\lv_math.h **** #define LV_TRIGO_SIN_MAX 32767
  23:c:\projects\paindrain\arduinolcd\test\pain drain\libraries\lvgl\src\misc\lv_math.h **** #define LV_TRIGO_SHIFT 15 /**<  >> LV_TRIGO_SHIFT to normalize*/
  24:c:\projects\paindrain\arduinolcd\test\pain drain\libraries\lvgl\src\misc\lv_math.h **** 
  25:c:\projects\paindrain\arduinolcd\test\pain drain\libraries\lvgl\src\misc\lv_math.h **** #define LV_BEZIER_VAL_MAX 1024 /**< Max time in Bezier functions (not [0..1] to use integers)*/
  26:c:\projects\paindrain\arduinolcd\test\pain drain\libraries\lvgl\src\misc\lv_math.h **** #define LV_BEZIER_VAL_SHIFT 10 /**< log2(LV_BEZIER_VAL_MAX): used to normalize up scaled values*/
  27:c:\projects\paindrain\arduinolcd\test\pain drain\libraries\lvgl\src\misc\lv_math.h **** 
  28:c:\projects\paindrain\arduinolcd\test\pain drain\libraries\lvgl\src\misc\lv_math.h **** /**********************
  29:c:\projects\paindrain\arduinolcd\test\pain drain\libraries\lvgl\src\misc\lv_math.h ****  *      TYPEDEFS
  30:c:\projects\paindrain\arduinolcd\test\pain drain\libraries\lvgl\src\misc\lv_math.h ****  **********************/
  31:c:\projects\paindrain\arduinolcd\test\pain drain\libraries\lvgl\src\misc\lv_math.h **** 
  32:c:\projects\paindrain\arduinolcd\test\pain drain\libraries\lvgl\src\misc\lv_math.h **** typedef struct {
  33:c:\projects\paindrain\arduinolcd\test\pain drain\libraries\lvgl\src\misc\lv_math.h ****     uint16_t i;
  34:c:\projects\paindrain\arduinolcd\test\pain drain\libraries\lvgl\src\misc\lv_math.h ****     uint16_t f;
  35:c:\projects\paindrain\arduinolcd\test\pain drain\libraries\lvgl\src\misc\lv_math.h **** } lv_sqrt_res_t;
  36:c:\projects\paindrain\arduinolcd\test\pain drain\libraries\lvgl\src\misc\lv_math.h **** 
  37:c:\projects\paindrain\arduinolcd\test\pain drain\libraries\lvgl\src\misc\lv_math.h **** /**********************
  38:c:\projects\paindrain\arduinolcd\test\pain drain\libraries\lvgl\src\misc\lv_math.h ****  * GLOBAL PROTOTYPES
  39:c:\projects\paindrain\arduinolcd\test\pain drain\libraries\lvgl\src\misc\lv_math.h ****  **********************/
  40:c:\projects\paindrain\arduinolcd\test\pain drain\libraries\lvgl\src\misc\lv_math.h **** 
  41:c:\projects\paindrain\arduinolcd\test\pain drain\libraries\lvgl\src\misc\lv_math.h **** //! @cond Doxygen_Suppress
  42:c:\projects\paindrain\arduinolcd\test\pain drain\libraries\lvgl\src\misc\lv_math.h **** /**
  43:c:\projects\paindrain\arduinolcd\test\pain drain\libraries\lvgl\src\misc\lv_math.h ****  * Return with sinus of an angle
  44:c:\projects\paindrain\arduinolcd\test\pain drain\libraries\lvgl\src\misc\lv_math.h ****  * @param angle
  45:c:\projects\paindrain\arduinolcd\test\pain drain\libraries\lvgl\src\misc\lv_math.h ****  * @return sinus of 'angle'. sin(-90) = -32767, sin(90) = 32767
  46:c:\projects\paindrain\arduinolcd\test\pain drain\libraries\lvgl\src\misc\lv_math.h ****  */
  47:c:\projects\paindrain\arduinolcd\test\pain drain\libraries\lvgl\src\misc\lv_math.h **** LV_ATTRIBUTE_FAST_MEM int16_t lv_trigo_sin(int16_t angle);
  48:c:\projects\paindrain\arduinolcd\test\pain drain\libraries\lvgl\src\misc\lv_math.h **** 
  49:c:\projects\paindrain\arduinolcd\test\pain drain\libraries\lvgl\src\misc\lv_math.h **** static inline LV_ATTRIBUTE_FAST_MEM int16_t lv_trigo_cos(int16_t angle)
  50:c:\projects\paindrain\arduinolcd\test\pain drain\libraries\lvgl\src\misc\lv_math.h **** {
  51:c:\projects\paindrain\arduinolcd\test\pain drain\libraries\lvgl\src\misc\lv_math.h ****     return lv_trigo_sin(angle + 90);
 1274              		.loc 5 51 0
 1275 00da 5A36     		adds	r6, r6, #90
 1276              	.LVL161:
 1277 00dc 30B2     		sxth	r0, r6
 1278 00de FFF7FEFF 		bl	lv_trigo_sin
 1279              	.LVL162:
 1280              	.LBE73:
 1281              	.LBE72:
 583:..\..\..\arduinoLCD\test\Pain Drain\libraries\lvgl\src\extra\widgets\meter/lv_meter.c ****             p_end.x = (lv_trigo_cos(angle) * (r_out)) / LV_TRIGO_SIN_MAX + scale_center.x;
 1282              		.loc 1 583 0
ARM GAS  C:\Users\haske\AppData\Local\Temp\ccXBxzcA.s 			page 55


 1283 00e2 5B46     		mov	r3, fp
 1284 00e4 5843     		muls	r0, r3
 1285 00e6 5149     		ldr	r1, .L47+4
 1286 00e8 FFF7FEFF 		bl	__aeabi_idiv
 1287              	.LVL163:
 1288 00ec 0022     		movs	r2, #0
 1289 00ee A35E     		ldrsh	r3, [r4, r2]
 1290 00f0 C018     		adds	r0, r0, r3
 1291 00f2 3880     		strh	r0, [r7]
 584:..\..\..\arduinoLCD\test\Pain Drain\libraries\lvgl\src\extra\widgets\meter/lv_meter.c ****             line_dsc.color = indic->type_data.needle_line.color;
 1292              		.loc 1 584 0
 1293 00f4 22AB     		add	r3, sp, #136
 1294 00f6 AA8A     		ldrh	r2, [r5, #20]
 1295 00f8 1A80     		strh	r2, [r3]
 585:..\..\..\arduinoLCD\test\Pain Drain\libraries\lvgl\src\extra\widgets\meter/lv_meter.c ****             line_dsc.width = indic->type_data.needle_line.width;
 1296              		.loc 1 585 0
 1297 00fa 2A8A     		ldrh	r2, [r5, #16]
 1298 00fc 5A80     		strh	r2, [r3, #2]
 586:..\..\..\arduinoLCD\test\Pain Drain\libraries\lvgl\src\extra\widgets\meter/lv_meter.c ****             line_dsc.opa = indic->opa > LV_OPA_MAX ? opa_main : (opa_main * indic->opa) >> 8;
 1299              		.loc 1 586 0
 1300 00fe 6B79     		ldrb	r3, [r5, #5]
 1301 0100 FD2B     		cmp	r3, #253
 1302 0102 06D8     		bhi	.L45
 1303              		.loc 1 586 0 is_stmt 0 discriminator 1
 1304 0104 FF22     		movs	r2, #255
 1305 0106 5146     		mov	r1, r10
 1306 0108 0A40     		ands	r2, r1
 1307 010a 5343     		muls	r3, r2
 1308 010c 1B12     		asrs	r3, r3, #8
 1309 010e DBB2     		uxtb	r3, r3
 1310 0110 00E0     		b	.L39
 1311              	.L45:
 1312              		.loc 1 586 0
 1313 0112 059B     		ldr	r3, [sp, #20]
 1314              	.L39:
 1315              		.loc 1 586 0 discriminator 4
 1316 0114 22AC     		add	r4, sp, #136
 1317 0116 2372     		strb	r3, [r4, #8]
 587:..\..\..\arduinoLCD\test\Pain Drain\libraries\lvgl\src\extra\widgets\meter/lv_meter.c **** 
 588:..\..\..\arduinoLCD\test\Pain Drain\libraries\lvgl\src\extra\widgets\meter/lv_meter.c ****             part_draw_dsc.id = LV_METER_DRAW_PART_NEEDLE_LINE;
 1318              		.loc 1 588 0 is_stmt 1 discriminator 4
 1319 0118 0123     		movs	r3, #1
 1320 011a 1893     		str	r3, [sp, #96]
 589:..\..\..\arduinoLCD\test\Pain Drain\libraries\lvgl\src\extra\widgets\meter/lv_meter.c ****             part_draw_dsc.line_dsc = &line_dsc;
 1321              		.loc 1 589 0 discriminator 4
 1322 011c 1094     		str	r4, [sp, #64]
 590:..\..\..\arduinoLCD\test\Pain Drain\libraries\lvgl\src\extra\widgets\meter/lv_meter.c ****             part_draw_dsc.p2 = &p_end;
 1323              		.loc 1 590 0 discriminator 4
 1324 011e 08AE     		add	r6, sp, #32
 1325              	.LVL164:
 1326 0120 1496     		str	r6, [sp, #80]
 591:..\..\..\arduinoLCD\test\Pain Drain\libraries\lvgl\src\extra\widgets\meter/lv_meter.c **** 
 592:..\..\..\arduinoLCD\test\Pain Drain\libraries\lvgl\src\extra\widgets\meter/lv_meter.c ****             lv_event_send(obj, LV_EVENT_DRAW_PART_BEGIN, &part_draw_dsc);
 1327              		.loc 1 592 0 discriminator 4
 1328 0122 0AAA     		add	r2, sp, #40
 1329 0124 1A21     		movs	r1, #26
 1330 0126 039F     		ldr	r7, [sp, #12]
ARM GAS  C:\Users\haske\AppData\Local\Temp\ccXBxzcA.s 			page 56


 1331 0128 3800     		movs	r0, r7
 1332 012a FFF7FEFF 		bl	lv_event_send
 1333              	.LVL165:
 593:..\..\..\arduinoLCD\test\Pain Drain\libraries\lvgl\src\extra\widgets\meter/lv_meter.c ****             lv_draw_line(draw_ctx, &line_dsc, &scale_center, &p_end);
 1334              		.loc 1 593 0 discriminator 4
 1335 012e 3300     		movs	r3, r6
 1336 0130 25AA     		add	r2, sp, #148
 1337 0132 2100     		movs	r1, r4
 1338 0134 0498     		ldr	r0, [sp, #16]
 1339 0136 FFF7FEFF 		bl	lv_draw_line
 1340              	.LVL166:
 594:..\..\..\arduinoLCD\test\Pain Drain\libraries\lvgl\src\extra\widgets\meter/lv_meter.c ****             lv_event_send(obj, LV_EVENT_DRAW_PART_END, &part_draw_dsc);
 1341              		.loc 1 594 0 discriminator 4
 1342 013a 0AAA     		add	r2, sp, #40
 1343 013c 1B21     		movs	r1, #27
 1344 013e 3800     		movs	r0, r7
 1345 0140 FFF7FEFF 		bl	lv_event_send
 1346              	.LVL167:
 1347              	.LBE71:
 1348 0144 61E0     		b	.L40
 1349              	.LVL168:
 1350              	.L38:
 595:..\..\..\arduinoLCD\test\Pain Drain\libraries\lvgl\src\extra\widgets\meter/lv_meter.c ****         }
 596:..\..\..\arduinoLCD\test\Pain Drain\libraries\lvgl\src\extra\widgets\meter/lv_meter.c ****         else if(indic->type == LV_METER_INDICATOR_TYPE_NEEDLE_IMG) {
 1351              		.loc 1 596 0
 1352 0146 002B     		cmp	r3, #0
 1353 0148 5FD1     		bne	.L40
 1354              	.LBB74:
 597:..\..\..\arduinoLCD\test\Pain Drain\libraries\lvgl\src\extra\widgets\meter/lv_meter.c ****             if(indic->type_data.needle_img.src == NULL) continue;
 1355              		.loc 1 597 0
 1356 014a 2B69     		ldr	r3, [r5, #16]
 1357 014c 002B     		cmp	r3, #0
 1358 014e 5CD0     		beq	.L40
 598:..\..\..\arduinoLCD\test\Pain Drain\libraries\lvgl\src\extra\widgets\meter/lv_meter.c **** 
 599:..\..\..\arduinoLCD\test\Pain Drain\libraries\lvgl\src\extra\widgets\meter/lv_meter.c ****             int32_t angle = lv_map(indic->end_value, scale->min, scale->max, scale->rotation, scale
 1359              		.loc 1 599 0
 1360 0150 E868     		ldr	r0, [r5, #12]
 1361              	.LVL169:
 1362 0152 6169     		ldr	r1, [r4, #20]
 1363 0154 A269     		ldr	r2, [r4, #24]
 1364 0156 2026     		movs	r6, #32
 1365 0158 A35F     		ldrsh	r3, [r4, r6]
 1366 015a E48B     		ldrh	r4, [r4, #30]
 1367              	.LVL170:
 1368 015c 1C19     		adds	r4, r3, r4
 1369 015e 0094     		str	r4, [sp]
 1370 0160 FFF7FEFF 		bl	lv_map
 1371              	.LVL171:
 1372 0164 0400     		movs	r4, r0
 1373              	.LVL172:
 600:..\..\..\arduinoLCD\test\Pain Drain\libraries\lvgl\src\extra\widgets\meter/lv_meter.c ****             lv_img_header_t info;
 601:..\..\..\arduinoLCD\test\Pain Drain\libraries\lvgl\src\extra\widgets\meter/lv_meter.c ****             lv_img_decoder_get_info(indic->type_data.needle_img.src, &info);
 1374              		.loc 1 601 0
 1375 0166 07A9     		add	r1, sp, #28
 1376 0168 2869     		ldr	r0, [r5, #16]
 1377              	.LVL173:
 1378 016a FFF7FEFF 		bl	lv_img_decoder_get_info
ARM GAS  C:\Users\haske\AppData\Local\Temp\ccXBxzcA.s 			page 57


 1379              	.LVL174:
 602:..\..\..\arduinoLCD\test\Pain Drain\libraries\lvgl\src\extra\widgets\meter/lv_meter.c ****             lv_area_t a;
 603:..\..\..\arduinoLCD\test\Pain Drain\libraries\lvgl\src\extra\widgets\meter/lv_meter.c ****             a.x1 = scale_center.x - indic->type_data.needle_img.pivot.x;
 1380              		.loc 1 603 0
 1381 016e 25AB     		add	r3, sp, #148
 1382 0170 0021     		movs	r1, #0
 1383 0172 5A5E     		ldrsh	r2, [r3, r1]
 1384 0174 1421     		movs	r1, #20
 1385 0176 6E5E     		ldrsh	r6, [r5, r1]
 1386 0178 921B     		subs	r2, r2, r6
 1387 017a 92B2     		uxth	r2, r2
 1388 017c 08A9     		add	r1, sp, #32
 1389 017e 0A80     		strh	r2, [r1]
 604:..\..\..\arduinoLCD\test\Pain Drain\libraries\lvgl\src\extra\widgets\meter/lv_meter.c ****             a.y1 = scale_center.y - indic->type_data.needle_img.pivot.y;
 1390              		.loc 1 604 0
 1391 0180 0220     		movs	r0, #2
 1392 0182 1B5E     		ldrsh	r3, [r3, r0]
 1393 0184 1627     		movs	r7, #22
 1394 0186 E85F     		ldrsh	r0, [r5, r7]
 1395 0188 1B1A     		subs	r3, r3, r0
 1396 018a 9BB2     		uxth	r3, r3
 1397 018c 4B80     		strh	r3, [r1, #2]
 605:..\..\..\arduinoLCD\test\Pain Drain\libraries\lvgl\src\extra\widgets\meter/lv_meter.c ****             a.x2 = a.x1 + info.w - 1;
 1398              		.loc 1 605 0
 1399 018e 079F     		ldr	r7, [sp, #28]
 1400 0190 FF02     		lsls	r7, r7, #11
 1401 0192 7F0D     		lsrs	r7, r7, #21
 1402 0194 BA18     		adds	r2, r7, r2
 1403 0196 013A     		subs	r2, r2, #1
 1404 0198 8A80     		strh	r2, [r1, #4]
 606:..\..\..\arduinoLCD\test\Pain Drain\libraries\lvgl\src\extra\widgets\meter/lv_meter.c ****             a.y2 = a.y1 + info.h - 1;
 1405              		.loc 1 606 0
 1406 019a 0E22     		movs	r2, #14
 1407 019c 04AF     		add	r7, sp, #16
 1408              	.LVL175:
 1409 019e BC46     		mov	ip, r7
 1410 01a0 6244     		add	r2, r2, ip
 1411 01a2 1288     		ldrh	r2, [r2]
 1412 01a4 5209     		lsrs	r2, r2, #5
 1413 01a6 D318     		adds	r3, r2, r3
 1414 01a8 013B     		subs	r3, r3, #1
 1415 01aa CB80     		strh	r3, [r1, #6]
 607:..\..\..\arduinoLCD\test\Pain Drain\libraries\lvgl\src\extra\widgets\meter/lv_meter.c **** 
 608:..\..\..\arduinoLCD\test\Pain Drain\libraries\lvgl\src\extra\widgets\meter/lv_meter.c ****             img_dsc.opa = indic->opa > LV_OPA_MAX ? opa_main : (opa_main * indic->opa) >> 8;
 1416              		.loc 1 608 0
 1417 01ac 6B79     		ldrb	r3, [r5, #5]
 1418 01ae FD2B     		cmp	r3, #253
 1419 01b0 06D8     		bhi	.L46
 1420              		.loc 1 608 0 is_stmt 0 discriminator 1
 1421 01b2 FF22     		movs	r2, #255
 1422 01b4 5146     		mov	r1, r10
 1423 01b6 0A40     		ands	r2, r1
 1424 01b8 5343     		muls	r3, r2
 1425 01ba 1B12     		asrs	r3, r3, #8
 1426 01bc DBB2     		uxtb	r3, r3
 1427 01be 00E0     		b	.L42
 1428              	.L46:
ARM GAS  C:\Users\haske\AppData\Local\Temp\ccXBxzcA.s 			page 58


 1429              		.loc 1 608 0
 1430 01c0 059B     		ldr	r3, [sp, #20]
 1431              	.L42:
 1432              		.loc 1 608 0 discriminator 4
 1433 01c2 1CAA     		add	r2, sp, #112
 1434 01c4 D372     		strb	r3, [r2, #11]
 609:..\..\..\arduinoLCD\test\Pain Drain\libraries\lvgl\src\extra\widgets\meter/lv_meter.c ****             img_dsc.pivot.x = indic->type_data.needle_img.pivot.x;
 1435              		.loc 1 609 0 is_stmt 1 discriminator 4
 1436 01c6 9680     		strh	r6, [r2, #4]
 610:..\..\..\arduinoLCD\test\Pain Drain\libraries\lvgl\src\extra\widgets\meter/lv_meter.c ****             img_dsc.pivot.y = indic->type_data.needle_img.pivot.y;
 1437              		.loc 1 610 0 discriminator 4
 1438 01c8 D080     		strh	r0, [r2, #6]
 611:..\..\..\arduinoLCD\test\Pain Drain\libraries\lvgl\src\extra\widgets\meter/lv_meter.c ****             angle = angle * 10;
 1439              		.loc 1 611 0 discriminator 4
 1440 01ca A300     		lsls	r3, r4, #2
 1441 01cc 1C19     		adds	r4, r3, r4
 1442              	.LVL176:
 1443 01ce 6200     		lsls	r2, r4, #1
 1444 01d0 1300     		movs	r3, r2
 1445              	.LVL177:
 612:..\..\..\arduinoLCD\test\Pain Drain\libraries\lvgl\src\extra\widgets\meter/lv_meter.c ****             if(angle > 3600) angle -= 3600;
 1446              		.loc 1 612 0 discriminator 4
 1447 01d2 E121     		movs	r1, #225
 1448 01d4 0901     		lsls	r1, r1, #4
 1449 01d6 8A42     		cmp	r2, r1
 1450 01d8 01DD     		ble	.L43
 1451              		.loc 1 612 0 is_stmt 0 discriminator 1
 1452 01da 154B     		ldr	r3, .L47+8
 1453 01dc D318     		adds	r3, r2, r3
 1454              	.LVL178:
 1455              	.L43:
 613:..\..\..\arduinoLCD\test\Pain Drain\libraries\lvgl\src\extra\widgets\meter/lv_meter.c ****             img_dsc.angle = angle;
 1456              		.loc 1 613 0 is_stmt 1
 1457 01de 1CAC     		add	r4, sp, #112
 1458 01e0 2380     		strh	r3, [r4]
 614:..\..\..\arduinoLCD\test\Pain Drain\libraries\lvgl\src\extra\widgets\meter/lv_meter.c **** 
 615:..\..\..\arduinoLCD\test\Pain Drain\libraries\lvgl\src\extra\widgets\meter/lv_meter.c ****             part_draw_dsc.id = LV_METER_DRAW_PART_NEEDLE_IMG;
 1459              		.loc 1 615 0
 1460 01e2 0223     		movs	r3, #2
 1461              	.LVL179:
 1462 01e4 1893     		str	r3, [sp, #96]
 616:..\..\..\arduinoLCD\test\Pain Drain\libraries\lvgl\src\extra\widgets\meter/lv_meter.c ****             part_draw_dsc.img_dsc = &img_dsc;
 1463              		.loc 1 616 0
 1464 01e6 1194     		str	r4, [sp, #68]
 617:..\..\..\arduinoLCD\test\Pain Drain\libraries\lvgl\src\extra\widgets\meter/lv_meter.c **** 
 618:..\..\..\arduinoLCD\test\Pain Drain\libraries\lvgl\src\extra\widgets\meter/lv_meter.c ****             lv_event_send(obj, LV_EVENT_DRAW_PART_BEGIN, &part_draw_dsc);
 1465              		.loc 1 618 0
 1466 01e8 0AAA     		add	r2, sp, #40
 1467 01ea 1A21     		movs	r1, #26
 1468 01ec 039E     		ldr	r6, [sp, #12]
 1469 01ee 3000     		movs	r0, r6
 1470 01f0 FFF7FEFF 		bl	lv_event_send
 1471              	.LVL180:
 619:..\..\..\arduinoLCD\test\Pain Drain\libraries\lvgl\src\extra\widgets\meter/lv_meter.c ****             lv_draw_img(draw_ctx, &img_dsc, &a, indic->type_data.needle_img.src);
 1472              		.loc 1 619 0
 1473 01f4 2B69     		ldr	r3, [r5, #16]
 1474 01f6 08AA     		add	r2, sp, #32
ARM GAS  C:\Users\haske\AppData\Local\Temp\ccXBxzcA.s 			page 59


 1475 01f8 2100     		movs	r1, r4
 1476 01fa 0498     		ldr	r0, [sp, #16]
 1477 01fc FFF7FEFF 		bl	lv_draw_img
 1478              	.LVL181:
 620:..\..\..\arduinoLCD\test\Pain Drain\libraries\lvgl\src\extra\widgets\meter/lv_meter.c ****             lv_event_send(obj, LV_EVENT_DRAW_PART_END, &part_draw_dsc);
 1479              		.loc 1 620 0
 1480 0200 0AAA     		add	r2, sp, #40
 1481 0202 1B21     		movs	r1, #27
 1482 0204 3000     		movs	r0, r6
 1483 0206 FFF7FEFF 		bl	lv_event_send
 1484              	.LVL182:
 1485              	.L40:
 1486              	.LBE74:
 1487              	.LBE70:
 574:..\..\..\arduinoLCD\test\Pain Drain\libraries\lvgl\src\extra\widgets\meter/lv_meter.c ****         lv_meter_scale_t * scale = indic->scale;
 1488              		.loc 1 574 0 discriminator 2
 1489 020a 2900     		movs	r1, r5
 1490 020c 0298     		ldr	r0, [sp, #8]
 1491 020e FFF7FEFF 		bl	_lv_ll_get_prev
 1492              	.LVL183:
 1493 0212 0500     		movs	r5, r0
 1494              	.LVL184:
 1495              	.L37:
 574:..\..\..\arduinoLCD\test\Pain Drain\libraries\lvgl\src\extra\widgets\meter/lv_meter.c ****         lv_meter_scale_t * scale = indic->scale;
 1496              		.loc 1 574 0 is_stmt 0 discriminator 1
 1497 0214 002D     		cmp	r5, #0
 1498 0216 00D0     		beq	.LCB1469
 1499 0218 39E7     		b	.L44	@long jump
 1500              	.LCB1469:
 621:..\..\..\arduinoLCD\test\Pain Drain\libraries\lvgl\src\extra\widgets\meter/lv_meter.c ****         }
 622:..\..\..\arduinoLCD\test\Pain Drain\libraries\lvgl\src\extra\widgets\meter/lv_meter.c ****     }
 623:..\..\..\arduinoLCD\test\Pain Drain\libraries\lvgl\src\extra\widgets\meter/lv_meter.c **** }
 1501              		.loc 1 623 0 is_stmt 1
 1502 021a 26B0     		add	sp, sp, #152
 1503              		@ sp needed
 1504              	.LVL185:
 1505 021c 1CBC     		pop	{r2, r3, r4}
 1506 021e 9146     		mov	r9, r2
 1507 0220 9A46     		mov	r10, r3
 1508 0222 A346     		mov	fp, r4
 1509 0224 F0BD     		pop	{r4, r5, r6, r7, pc}
 1510              	.L48:
 1511 0226 C046     		.align	2
 1512              	.L47:
 1513 0228 00000000 		.word	.LANCHOR0
 1514 022c FF7F0000 		.word	32767
 1515 0230 F0F1FFFF 		.word	-3600
 1516              		.cfi_endproc
 1517              	.LFE219:
 1518              		.size	draw_needles, .-draw_needles
 1519              		.section	.text.lv_meter_event,"ax",%progbits
 1520              		.align	2
 1521              		.code	16
 1522              		.thumb_func
 1523              		.type	lv_meter_event, %function
 1524              	lv_meter_event:
 1525              	.LFB216:
ARM GAS  C:\Users\haske\AppData\Local\Temp\ccXBxzcA.s 			page 60


 290:..\..\..\arduinoLCD\test\Pain Drain\libraries\lvgl\src\extra\widgets\meter/lv_meter.c ****     LV_UNUSED(class_p);
 1526              		.loc 1 290 0
 1527              		.cfi_startproc
 1528              		@ args = 0, pretend = 0, frame = 80
 1529              		@ frame_needed = 0, uses_anonymous_args = 0
 1530              	.LVL186:
 1531 0000 F0B5     		push	{r4, r5, r6, r7, lr}
 1532              		.cfi_def_cfa_offset 20
 1533              		.cfi_offset 4, -20
 1534              		.cfi_offset 5, -16
 1535              		.cfi_offset 6, -12
 1536              		.cfi_offset 7, -8
 1537              		.cfi_offset 14, -4
 1538 0002 4F46     		mov	r7, r9
 1539 0004 80B4     		push	{r7}
 1540              		.cfi_def_cfa_offset 24
 1541              		.cfi_offset 9, -24
 1542 0006 94B0     		sub	sp, sp, #80
 1543              		.cfi_def_cfa_offset 104
 1544 0008 0C00     		movs	r4, r1
 293:..\..\..\arduinoLCD\test\Pain Drain\libraries\lvgl\src\extra\widgets\meter/lv_meter.c ****     if(res != LV_RES_OK) return;
 1545              		.loc 1 293 0
 1546 000a 3748     		ldr	r0, .L51
 1547              	.LVL187:
 1548 000c FFF7FEFF 		bl	lv_obj_event_base
 1549              	.LVL188:
 294:..\..\..\arduinoLCD\test\Pain Drain\libraries\lvgl\src\extra\widgets\meter/lv_meter.c **** 
 1550              		.loc 1 294 0
 1551 0010 0128     		cmp	r0, #1
 1552 0012 64D1     		bne	.L49
 296:..\..\..\arduinoLCD\test\Pain Drain\libraries\lvgl\src\extra\widgets\meter/lv_meter.c ****     lv_obj_t * obj = lv_event_get_target(e);
 1553              		.loc 1 296 0
 1554 0014 2000     		movs	r0, r4
 1555              	.LVL189:
 1556 0016 FFF7FEFF 		bl	lv_event_get_code
 1557              	.LVL190:
 1558 001a 0600     		movs	r6, r0
 1559              	.LVL191:
 297:..\..\..\arduinoLCD\test\Pain Drain\libraries\lvgl\src\extra\widgets\meter/lv_meter.c ****     if(code == LV_EVENT_DRAW_MAIN) {
 1560              		.loc 1 297 0
 1561 001c 2000     		movs	r0, r4
 1562 001e FFF7FEFF 		bl	lv_event_get_target
 1563              	.LVL192:
 1564 0022 0500     		movs	r5, r0
 1565              	.LVL193:
 298:..\..\..\arduinoLCD\test\Pain Drain\libraries\lvgl\src\extra\widgets\meter/lv_meter.c ****         lv_draw_ctx_t * draw_ctx = lv_event_get_draw_ctx(e);
 1566              		.loc 1 298 0
 1567 0024 152E     		cmp	r6, #21
 1568 0026 5AD1     		bne	.L49
 1569              	.LBB75:
 299:..\..\..\arduinoLCD\test\Pain Drain\libraries\lvgl\src\extra\widgets\meter/lv_meter.c ****         lv_area_t scale_area;
 1570              		.loc 1 299 0 discriminator 2
 1571 0028 2000     		movs	r0, r4
 1572              	.LVL194:
 1573 002a FFF7FEFF 		bl	lv_event_get_draw_ctx
 1574              	.LVL195:
 1575 002e 0400     		movs	r4, r0
ARM GAS  C:\Users\haske\AppData\Local\Temp\ccXBxzcA.s 			page 61


 1576              	.LVL196:
 301:..\..\..\arduinoLCD\test\Pain Drain\libraries\lvgl\src\extra\widgets\meter/lv_meter.c **** 
 1577              		.loc 1 301 0 discriminator 2
 1578 0030 02A9     		add	r1, sp, #8
 1579 0032 2800     		movs	r0, r5
 1580              	.LVL197:
 1581 0034 FFF7FEFF 		bl	lv_obj_get_content_coords
 1582              	.LVL198:
 303:..\..\..\arduinoLCD\test\Pain Drain\libraries\lvgl\src\extra\widgets\meter/lv_meter.c ****         draw_ticks_and_labels(obj, draw_ctx, &scale_area);
 1583              		.loc 1 303 0 discriminator 2
 1584 0038 02AA     		add	r2, sp, #8
 1585 003a 2100     		movs	r1, r4
 1586 003c 2800     		movs	r0, r5
 1587 003e FFF7FEFF 		bl	draw_arcs
 1588              	.LVL199:
 304:..\..\..\arduinoLCD\test\Pain Drain\libraries\lvgl\src\extra\widgets\meter/lv_meter.c ****         draw_needles(obj, draw_ctx, &scale_area);
 1589              		.loc 1 304 0 discriminator 2
 1590 0042 02AA     		add	r2, sp, #8
 1591 0044 2100     		movs	r1, r4
 1592 0046 2800     		movs	r0, r5
 1593 0048 FFF7FEFF 		bl	draw_ticks_and_labels
 1594              	.LVL200:
 305:..\..\..\arduinoLCD\test\Pain Drain\libraries\lvgl\src\extra\widgets\meter/lv_meter.c **** 
 1595              		.loc 1 305 0 discriminator 2
 1596 004c 02AA     		add	r2, sp, #8
 1597 004e 0094     		str	r4, [sp]
 1598 0050 2100     		movs	r1, r4
 1599 0052 2800     		movs	r0, r5
 1600 0054 FFF7FEFF 		bl	draw_needles
 1601              	.LVL201:
 1602              	.LBB76:
 1603              	.LBB77:
 125:c:\projects\paindrain\arduinolcd\test\pain drain\libraries\lvgl\src\misc\lv_area.h **** }
 1604              		.loc 3 125 0 discriminator 2
 1605 0058 02AB     		add	r3, sp, #8
 1606              	.LVL202:
 1607 005a 0422     		movs	r2, #4
 1608 005c 9B5E     		ldrsh	r3, [r3, r2]
 1609              	.LVL203:
 1610 005e 02AA     		add	r2, sp, #8
 1611              	.LVL204:
 1612 0060 1688     		ldrh	r6, [r2]
 1613              	.LVL205:
 1614 0062 9B1B     		subs	r3, r3, r6
 1615 0064 0133     		adds	r3, r3, #1
 1616 0066 1BB2     		sxth	r3, r3
 1617              	.LVL206:
 1618              	.LBE77:
 1619              	.LBE76:
 307:..\..\..\arduinoLCD\test\Pain Drain\libraries\lvgl\src\extra\widgets\meter/lv_meter.c ****         lv_point_t scale_center;
 1620              		.loc 1 307 0 discriminator 2
 1621 0068 DA0F     		lsrs	r2, r3, #31
 1622 006a D318     		adds	r3, r2, r3
 1623 006c 5B10     		asrs	r3, r3, #1
 1624              	.LVL207:
 309:..\..\..\arduinoLCD\test\Pain Drain\libraries\lvgl\src\extra\widgets\meter/lv_meter.c ****         scale_center.y = scale_area.y1 + r_edge;
 1625              		.loc 1 309 0 discriminator 2
ARM GAS  C:\Users\haske\AppData\Local\Temp\ccXBxzcA.s 			page 62


 1626 006e 9BB2     		uxth	r3, r3
 1627 0070 9E19     		adds	r6, r3, r6
 1628 0072 B6B2     		uxth	r6, r6
 310:..\..\..\arduinoLCD\test\Pain Drain\libraries\lvgl\src\extra\widgets\meter/lv_meter.c **** 
 1629              		.loc 1 310 0 discriminator 2
 1630 0074 02AA     		add	r2, sp, #8
 1631 0076 0221     		movs	r1, #2
 1632 0078 515E     		ldrsh	r1, [r2, r1]
 1633 007a 5B18     		adds	r3, r3, r1
 1634              	.LVL208:
 1635 007c 9CB2     		uxth	r4, r3
 1636              	.LVL209:
 313:..\..\..\arduinoLCD\test\Pain Drain\libraries\lvgl\src\extra\widgets\meter/lv_meter.c ****         lv_obj_init_draw_rect_dsc(obj, LV_PART_INDICATOR, &mid_dsc);
 1637              		.loc 1 313 0 discriminator 2
 1638 007e 06AB     		add	r3, sp, #24
 1639 0080 1800     		movs	r0, r3
 1640 0082 FFF7FEFF 		bl	lv_draw_rect_dsc_init
 1641              	.LVL210:
 314:..\..\..\arduinoLCD\test\Pain Drain\libraries\lvgl\src\extra\widgets\meter/lv_meter.c ****         lv_coord_t w = lv_obj_get_style_width(obj, LV_PART_INDICATOR) / 2;
 1642              		.loc 1 314 0 discriminator 2
 1643 0086 8027     		movs	r7, #128
 1644 0088 BF02     		lsls	r7, r7, #10
 1645 008a 06AA     		add	r2, sp, #24
 1646 008c 3900     		movs	r1, r7
 1647 008e 2800     		movs	r0, r5
 1648 0090 FFF7FEFF 		bl	lv_obj_init_draw_rect_dsc
 1649              	.LVL211:
 1650              	.LBB78:
 1651              	.LBB79:
   3:c:\projects\paindrain\arduinolcd\test\pain drain\libraries\lvgl\src/core\lv_obj_style_gen.h ****     return (lv_coord_t)v.num;
 1652              		.loc 2 3 0 discriminator 2
 1653 0094 0122     		movs	r2, #1
 1654 0096 3900     		movs	r1, r7
 1655 0098 2800     		movs	r0, r5
 1656 009a FFF7FEFF 		bl	lv_obj_get_style_prop
 1657              	.LVL212:
   4:c:\projects\paindrain\arduinolcd\test\pain drain\libraries\lvgl\src/core\lv_obj_style_gen.h **** }
 1658              		.loc 2 4 0 discriminator 2
 1659 009e 00B2     		sxth	r0, r0
 1660              	.LVL213:
 1661              	.LBE79:
 1662              	.LBE78:
 315:..\..\..\arduinoLCD\test\Pain Drain\libraries\lvgl\src\extra\widgets\meter/lv_meter.c ****         lv_coord_t h = lv_obj_get_style_height(obj, LV_PART_INDICATOR) / 2;
 1663              		.loc 1 315 0 discriminator 2
 1664 00a0 C30F     		lsrs	r3, r0, #31
 1665 00a2 1818     		adds	r0, r3, r0
 1666 00a4 4310     		asrs	r3, r0, #1
 1667 00a6 9946     		mov	r9, r3
 1668              	.LVL214:
 1669              	.LBB80:
 1670              	.LBB81:
  21:c:\projects\paindrain\arduinolcd\test\pain drain\libraries\lvgl\src/core\lv_obj_style_gen.h ****     return (lv_coord_t)v.num;
 1671              		.loc 2 21 0 discriminator 2
 1672 00a8 0422     		movs	r2, #4
 1673 00aa 3900     		movs	r1, r7
 1674 00ac 2800     		movs	r0, r5
 1675 00ae FFF7FEFF 		bl	lv_obj_get_style_prop
ARM GAS  C:\Users\haske\AppData\Local\Temp\ccXBxzcA.s 			page 63


 1676              	.LVL215:
  22:c:\projects\paindrain\arduinolcd\test\pain drain\libraries\lvgl\src/core\lv_obj_style_gen.h **** }
 1677              		.loc 2 22 0 discriminator 2
 1678 00b2 00B2     		sxth	r0, r0
 1679              	.LVL216:
 1680              	.LBE81:
 1681              	.LBE80:
 316:..\..\..\arduinoLCD\test\Pain Drain\libraries\lvgl\src\extra\widgets\meter/lv_meter.c ****         lv_area_t nm_cord;
 1682              		.loc 1 316 0 discriminator 2
 1683 00b4 C10F     		lsrs	r1, r0, #31
 1684 00b6 0818     		adds	r0, r1, r0
 1685 00b8 4010     		asrs	r0, r0, #1
 1686              	.LVL217:
 318:..\..\..\arduinoLCD\test\Pain Drain\libraries\lvgl\src\extra\widgets\meter/lv_meter.c ****         nm_cord.y1 = scale_center.y - h;
 1687              		.loc 1 318 0 discriminator 2
 1688 00ba 4B46     		mov	r3, r9
 1689 00bc 6A46     		mov	r2, sp
 1690 00be D380     		strh	r3, [r2, #6]
 1691 00c0 D388     		ldrh	r3, [r2, #6]
 1692 00c2 04AA     		add	r2, sp, #16
 1693 00c4 F11A     		subs	r1, r6, r3
 1694 00c6 1180     		strh	r1, [r2]
 319:..\..\..\arduinoLCD\test\Pain Drain\libraries\lvgl\src\extra\widgets\meter/lv_meter.c ****         nm_cord.x2 = scale_center.x + w;
 1695              		.loc 1 319 0 discriminator 2
 1696 00c8 81B2     		uxth	r1, r0
 1697 00ca 601A     		subs	r0, r4, r1
 1698              	.LVL218:
 1699 00cc 5080     		strh	r0, [r2, #2]
 320:..\..\..\arduinoLCD\test\Pain Drain\libraries\lvgl\src\extra\widgets\meter/lv_meter.c ****         nm_cord.y2 = scale_center.y + h;
 1700              		.loc 1 320 0 discriminator 2
 1701 00ce F618     		adds	r6, r6, r3
 1702 00d0 9680     		strh	r6, [r2, #4]
 321:..\..\..\arduinoLCD\test\Pain Drain\libraries\lvgl\src\extra\widgets\meter/lv_meter.c ****         lv_draw_rect(draw_ctx, &mid_dsc, &nm_cord);
 1703              		.loc 1 321 0 discriminator 2
 1704 00d2 6118     		adds	r1, r4, r1
 1705              	.LVL219:
 1706 00d4 D180     		strh	r1, [r2, #6]
 322:..\..\..\arduinoLCD\test\Pain Drain\libraries\lvgl\src\extra\widgets\meter/lv_meter.c ****     }
 1707              		.loc 1 322 0 discriminator 2
 1708 00d6 06A9     		add	r1, sp, #24
 1709 00d8 0098     		ldr	r0, [sp]
 1710 00da FFF7FEFF 		bl	lv_draw_rect
 1711              	.LVL220:
 1712              	.L49:
 1713              	.LBE75:
 324:..\..\..\arduinoLCD\test\Pain Drain\libraries\lvgl\src\extra\widgets\meter/lv_meter.c **** 
 1714              		.loc 1 324 0
 1715 00de 14B0     		add	sp, sp, #80
 1716              		@ sp needed
 1717 00e0 04BC     		pop	{r2}
 1718 00e2 9146     		mov	r9, r2
 1719 00e4 F0BD     		pop	{r4, r5, r6, r7, pc}
 1720              	.L52:
 1721 00e6 C046     		.align	2
 1722              	.L51:
 1723 00e8 00000000 		.word	.LANCHOR0
 1724              		.cfi_endproc
ARM GAS  C:\Users\haske\AppData\Local\Temp\ccXBxzcA.s 			page 64


 1725              	.LFE216:
 1726              		.size	lv_meter_event, .-lv_meter_event
 1727              		.section	.text.lv_meter_destructor,"ax",%progbits
 1728              		.align	2
 1729              		.code	16
 1730              		.thumb_func
 1731              		.type	lv_meter_destructor, %function
 1732              	lv_meter_destructor:
 1733              	.LFB215:
 280:..\..\..\arduinoLCD\test\Pain Drain\libraries\lvgl\src\extra\widgets\meter/lv_meter.c ****     LV_UNUSED(class_p);
 1734              		.loc 1 280 0
 1735              		.cfi_startproc
 1736              		@ args = 0, pretend = 0, frame = 0
 1737              		@ frame_needed = 0, uses_anonymous_args = 0
 1738              	.LVL221:
 1739 0000 10B5     		push	{r4, lr}
 1740              		.cfi_def_cfa_offset 8
 1741              		.cfi_offset 4, -8
 1742              		.cfi_offset 14, -4
 1743 0002 0C00     		movs	r4, r1
 1744              	.LVL222:
 284:..\..\..\arduinoLCD\test\Pain Drain\libraries\lvgl\src\extra\widgets\meter/lv_meter.c ****     _lv_ll_clear(&meter->scale_ll);
 1745              		.loc 1 284 0
 1746 0004 0800     		movs	r0, r1
 1747              	.LVL223:
 1748 0006 3030     		adds	r0, r0, #48
 1749 0008 FFF7FEFF 		bl	_lv_ll_clear
 1750              	.LVL224:
 285:..\..\..\arduinoLCD\test\Pain Drain\libraries\lvgl\src\extra\widgets\meter/lv_meter.c **** 
 1751              		.loc 1 285 0
 1752 000c 2000     		movs	r0, r4
 1753 000e 2430     		adds	r0, r0, #36
 1754 0010 FFF7FEFF 		bl	_lv_ll_clear
 1755              	.LVL225:
 287:..\..\..\arduinoLCD\test\Pain Drain\libraries\lvgl\src\extra\widgets\meter/lv_meter.c **** 
 1756              		.loc 1 287 0
 1757              		@ sp needed
 1758              	.LVL226:
 1759 0014 10BD     		pop	{r4, pc}
 1760              		.cfi_endproc
 1761              	.LFE215:
 1762              		.size	lv_meter_destructor, .-lv_meter_destructor
 1763 0016 C046     		.section	.text.lv_meter_constructor,"ax",%progbits
 1764              		.align	2
 1765              		.code	16
 1766              		.thumb_func
 1767              		.type	lv_meter_constructor, %function
 1768              	lv_meter_constructor:
 1769              	.LFB214:
 267:..\..\..\arduinoLCD\test\Pain Drain\libraries\lvgl\src\extra\widgets\meter/lv_meter.c ****     LV_UNUSED(class_p);
 1770              		.loc 1 267 0
 1771              		.cfi_startproc
 1772              		@ args = 0, pretend = 0, frame = 0
 1773              		@ frame_needed = 0, uses_anonymous_args = 0
 1774              	.LVL227:
 1775 0000 10B5     		push	{r4, lr}
 1776              		.cfi_def_cfa_offset 8
ARM GAS  C:\Users\haske\AppData\Local\Temp\ccXBxzcA.s 			page 65


 1777              		.cfi_offset 4, -8
 1778              		.cfi_offset 14, -4
 1779 0002 0C00     		movs	r4, r1
 1780              	.LVL228:
 273:..\..\..\arduinoLCD\test\Pain Drain\libraries\lvgl\src\extra\widgets\meter/lv_meter.c ****     _lv_ll_init(&meter->indicator_ll, sizeof(lv_meter_indicator_t));
 1781              		.loc 1 273 0
 1782 0004 0800     		movs	r0, r1
 1783              	.LVL229:
 1784 0006 2430     		adds	r0, r0, #36
 1785 0008 2421     		movs	r1, #36
 1786              	.LVL230:
 1787 000a FFF7FEFF 		bl	_lv_ll_init
 1788              	.LVL231:
 274:..\..\..\arduinoLCD\test\Pain Drain\libraries\lvgl\src\extra\widgets\meter/lv_meter.c **** 
 1789              		.loc 1 274 0
 1790 000e 2000     		movs	r0, r4
 1791 0010 3030     		adds	r0, r0, #48
 1792 0012 1C21     		movs	r1, #28
 1793 0014 FFF7FEFF 		bl	_lv_ll_init
 1794              	.LVL232:
 277:..\..\..\arduinoLCD\test\Pain Drain\libraries\lvgl\src\extra\widgets\meter/lv_meter.c **** 
 1795              		.loc 1 277 0
 1796              		@ sp needed
 1797              	.LVL233:
 1798 0018 10BD     		pop	{r4, pc}
 1799              		.cfi_endproc
 1800              	.LFE214:
 1801              		.size	lv_meter_constructor, .-lv_meter_constructor
 1802 001a C046     		.section	.text.inv_arc,"ax",%progbits
 1803              		.align	2
 1804              		.code	16
 1805              		.thumb_func
 1806              		.type	inv_arc, %function
 1807              	inv_arc:
 1808              	.LFB220:
 624:..\..\..\arduinoLCD\test\Pain Drain\libraries\lvgl\src\extra\widgets\meter/lv_meter.c **** 
 625:..\..\..\arduinoLCD\test\Pain Drain\libraries\lvgl\src\extra\widgets\meter/lv_meter.c **** static void inv_arc(lv_obj_t * obj, lv_meter_indicator_t * indic, int32_t old_value, int32_t new_va
 626:..\..\..\arduinoLCD\test\Pain Drain\libraries\lvgl\src\extra\widgets\meter/lv_meter.c **** {
 1809              		.loc 1 626 0
 1810              		.cfi_startproc
 1811              		@ args = 0, pretend = 0, frame = 32
 1812              		@ frame_needed = 0, uses_anonymous_args = 0
 1813              	.LVL234:
 1814 0000 F0B5     		push	{r4, r5, r6, r7, lr}
 1815              		.cfi_def_cfa_offset 20
 1816              		.cfi_offset 4, -20
 1817              		.cfi_offset 5, -16
 1818              		.cfi_offset 6, -12
 1819              		.cfi_offset 7, -8
 1820              		.cfi_offset 14, -4
 1821 0002 5F46     		mov	r7, fp
 1822 0004 4E46     		mov	r6, r9
 1823 0006 4546     		mov	r5, r8
 1824 0008 E0B4     		push	{r5, r6, r7}
 1825              		.cfi_def_cfa_offset 32
 1826              		.cfi_offset 8, -32
 1827              		.cfi_offset 9, -28
ARM GAS  C:\Users\haske\AppData\Local\Temp\ccXBxzcA.s 			page 66


 1828              		.cfi_offset 11, -24
 1829 000a 8CB0     		sub	sp, sp, #48
 1830              		.cfi_def_cfa_offset 80
 1831 000c 0500     		movs	r5, r0
 1832 000e 0590     		str	r0, [sp, #20]
 1833 0010 0F00     		movs	r7, r1
 1834 0012 0692     		str	r2, [sp, #24]
 1835 0014 0793     		str	r3, [sp, #28]
 1836              	.LVL235:
 1837              	.LBB82:
 1838              	.LBB83:
 417:c:\projects\paindrain\arduinolcd\test\pain drain\libraries\lvgl\src/core\lv_obj_style_gen.h ****     return (bool)v.num;
 1839              		.loc 2 417 0
 1840 0016 5122     		movs	r2, #81
 1841              	.LVL236:
 1842 0018 A021     		movs	r1, #160
 1843              	.LVL237:
 1844 001a C902     		lsls	r1, r1, #11
 1845 001c FFF7FEFF 		bl	lv_obj_get_style_prop
 1846              	.LVL238:
 418:c:\projects\paindrain\arduinolcd\test\pain drain\libraries\lvgl\src/core\lv_obj_style_gen.h **** }
 1847              		.loc 2 418 0
 1848 0020 431E     		subs	r3, r0, #1
 1849 0022 9841     		sbcs	r0, r0, r3
 1850              	.LVL239:
 1851 0024 C1B2     		uxtb	r1, r0
 1852 0026 8946     		mov	r9, r1
 1853              	.LVL240:
 1854              	.LBE83:
 1855              	.LBE82:
 627:..\..\..\arduinoLCD\test\Pain Drain\libraries\lvgl\src\extra\widgets\meter/lv_meter.c ****     bool rounded = lv_obj_get_style_arc_rounded(obj, LV_PART_ITEMS);
 628:..\..\..\arduinoLCD\test\Pain Drain\libraries\lvgl\src\extra\widgets\meter/lv_meter.c **** 
 629:..\..\..\arduinoLCD\test\Pain Drain\libraries\lvgl\src\extra\widgets\meter/lv_meter.c ****     lv_area_t scale_area;
 630:..\..\..\arduinoLCD\test\Pain Drain\libraries\lvgl\src\extra\widgets\meter/lv_meter.c ****     lv_obj_get_content_coords(obj, &scale_area);
 1856              		.loc 1 630 0
 1857 0028 0AAC     		add	r4, sp, #40
 1858 002a 2100     		movs	r1, r4
 1859 002c 2800     		movs	r0, r5
 1860 002e FFF7FEFF 		bl	lv_obj_get_content_coords
 1861              	.LVL241:
 1862              	.LBB84:
 1863              	.LBB85:
 125:c:\projects\paindrain\arduinolcd\test\pain drain\libraries\lvgl\src\misc\lv_area.h **** }
 1864              		.loc 3 125 0
 1865 0032 0421     		movs	r1, #4
 1866 0034 635E     		ldrsh	r3, [r4, r1]
 1867 0036 2688     		ldrh	r6, [r4]
 1868 0038 9B1B     		subs	r3, r3, r6
 1869 003a 0133     		adds	r3, r3, #1
 1870 003c 1BB2     		sxth	r3, r3
 1871              	.LVL242:
 1872              	.LBE85:
 1873              	.LBE84:
 631:..\..\..\arduinoLCD\test\Pain Drain\libraries\lvgl\src\extra\widgets\meter/lv_meter.c **** 
 632:..\..\..\arduinoLCD\test\Pain Drain\libraries\lvgl\src\extra\widgets\meter/lv_meter.c ****     lv_coord_t r_out = lv_area_get_width(&scale_area) / 2;
 1874              		.loc 1 632 0
 1875 003e DA0F     		lsrs	r2, r3, #31
ARM GAS  C:\Users\haske\AppData\Local\Temp\ccXBxzcA.s 			page 67


 1876 0040 D318     		adds	r3, r2, r3
 1877 0042 5B10     		asrs	r3, r3, #1
 1878              	.LVL243:
 633:..\..\..\arduinoLCD\test\Pain Drain\libraries\lvgl\src\extra\widgets\meter/lv_meter.c ****     lv_point_t scale_center;
 634:..\..\..\arduinoLCD\test\Pain Drain\libraries\lvgl\src\extra\widgets\meter/lv_meter.c ****     scale_center.x = scale_area.x1 + r_out;
 1879              		.loc 1 634 0
 1880 0044 9BB2     		uxth	r3, r3
 1881 0046 9E19     		adds	r6, r3, r6
 1882 0048 36B2     		sxth	r6, r6
 635:..\..\..\arduinoLCD\test\Pain Drain\libraries\lvgl\src\extra\widgets\meter/lv_meter.c ****     scale_center.y = scale_area.y1 + r_out;
 1883              		.loc 1 635 0
 1884 004a 0221     		movs	r1, #2
 1885 004c 625E     		ldrsh	r2, [r4, r1]
 1886 004e 9A18     		adds	r2, r3, r2
 1887 0050 11B2     		sxth	r1, r2
 1888 0052 8846     		mov	r8, r1
 636:..\..\..\arduinoLCD\test\Pain Drain\libraries\lvgl\src\extra\widgets\meter/lv_meter.c **** 
 637:..\..\..\arduinoLCD\test\Pain Drain\libraries\lvgl\src\extra\widgets\meter/lv_meter.c ****     r_out += indic->type_data.arc.r_mod;
 1889              		.loc 1 637 0
 1890 0054 1A21     		movs	r1, #26
 1891 0056 7A5E     		ldrsh	r2, [r7, r1]
 1892 0058 9B18     		adds	r3, r3, r2
 1893              	.LVL244:
 1894 005a 99B2     		uxth	r1, r3
 1895 005c 8B46     		mov	fp, r1
 1896              	.LVL245:
 638:..\..\..\arduinoLCD\test\Pain Drain\libraries\lvgl\src\extra\widgets\meter/lv_meter.c **** 
 639:..\..\..\arduinoLCD\test\Pain Drain\libraries\lvgl\src\extra\widgets\meter/lv_meter.c ****     lv_meter_scale_t * scale = indic->scale;
 1897              		.loc 1 639 0
 1898 005e 3D68     		ldr	r5, [r7]
 1899              	.LVL246:
 640:..\..\..\arduinoLCD\test\Pain Drain\libraries\lvgl\src\extra\widgets\meter/lv_meter.c **** 
 641:..\..\..\arduinoLCD\test\Pain Drain\libraries\lvgl\src\extra\widgets\meter/lv_meter.c ****     int32_t start_angle = lv_map(old_value, scale->min, scale->max, scale->rotation, scale->angle_r
 1900              		.loc 1 641 0
 1901 0060 6969     		ldr	r1, [r5, #20]
 1902 0062 AA69     		ldr	r2, [r5, #24]
 1903 0064 2024     		movs	r4, #32
 1904 0066 2B5F     		ldrsh	r3, [r5, r4]
 1905 0068 E88B     		ldrh	r0, [r5, #30]
 1906 006a 1818     		adds	r0, r3, r0
 1907 006c 0090     		str	r0, [sp]
 1908 006e 0698     		ldr	r0, [sp, #24]
 1909 0070 FFF7FEFF 		bl	lv_map
 1910              	.LVL247:
 1911 0074 0400     		movs	r4, r0
 1912              	.LVL248:
 642:..\..\..\arduinoLCD\test\Pain Drain\libraries\lvgl\src\extra\widgets\meter/lv_meter.c ****     int32_t end_angle = lv_map(new_value, scale->min, scale->max, scale->rotation, scale->angle_ran
 1913              		.loc 1 642 0
 1914 0076 6969     		ldr	r1, [r5, #20]
 1915 0078 AA69     		ldr	r2, [r5, #24]
 1916 007a 2020     		movs	r0, #32
 1917 007c 2B5E     		ldrsh	r3, [r5, r0]
 1918              	.LVL249:
 1919 007e E88B     		ldrh	r0, [r5, #30]
 1920 0080 1818     		adds	r0, r3, r0
 1921 0082 0090     		str	r0, [sp]
 1922 0084 0798     		ldr	r0, [sp, #28]
ARM GAS  C:\Users\haske\AppData\Local\Temp\ccXBxzcA.s 			page 68


 1923 0086 FFF7FEFF 		bl	lv_map
 1924              	.LVL250:
 643:..\..\..\arduinoLCD\test\Pain Drain\libraries\lvgl\src\extra\widgets\meter/lv_meter.c **** 
 644:..\..\..\arduinoLCD\test\Pain Drain\libraries\lvgl\src\extra\widgets\meter/lv_meter.c ****     lv_area_t a;
 645:..\..\..\arduinoLCD\test\Pain Drain\libraries\lvgl\src\extra\widgets\meter/lv_meter.c ****     lv_draw_arc_get_area(scale_center.x, scale_center.y, r_out, LV_MIN(start_angle, end_angle), LV_
 1925              		.loc 1 645 0
 1926 008a 2300     		movs	r3, r4
 1927 008c 8442     		cmp	r4, r0
 1928 008e 00DD     		ble	.L56
 1929 0090 0300     		movs	r3, r0
 1930              	.L56:
 1931 0092 8442     		cmp	r4, r0
 1932 0094 00DA     		bge	.L57
 1933 0096 0400     		movs	r4, r0
 1934              	.LVL251:
 1935              	.L57:
 646:..\..\..\arduinoLCD\test\Pain Drain\libraries\lvgl\src\extra\widgets\meter/lv_meter.c ****                                                                                                    
 1936              		.loc 1 646 0
 1937 0098 3A8A     		ldrh	r2, [r7, #16]
 645:..\..\..\arduinoLCD\test\Pain Drain\libraries\lvgl\src\extra\widgets\meter/lv_meter.c ****                                                                                                    
 1938              		.loc 1 645 0
 1939 009a 9BB2     		uxth	r3, r3
 1940 009c 08AD     		add	r5, sp, #32
 1941              	.LVL252:
 1942 009e 0395     		str	r5, [sp, #12]
 1943 00a0 4946     		mov	r1, r9
 1944 00a2 0291     		str	r1, [sp, #8]
 1945 00a4 12B2     		sxth	r2, r2
 1946 00a6 0192     		str	r2, [sp, #4]
 1947 00a8 A4B2     		uxth	r4, r4
 1948 00aa 0094     		str	r4, [sp]
 1949 00ac 5A46     		mov	r2, fp
 1950 00ae 4146     		mov	r1, r8
 1951 00b0 3000     		movs	r0, r6
 1952              	.LVL253:
 1953 00b2 FFF7FEFF 		bl	lv_draw_arc_get_area
 1954              	.LVL254:
 647:..\..\..\arduinoLCD\test\Pain Drain\libraries\lvgl\src\extra\widgets\meter/lv_meter.c ****     lv_obj_invalidate_area(obj, &a);
 1955              		.loc 1 647 0
 1956 00b6 2900     		movs	r1, r5
 1957 00b8 0598     		ldr	r0, [sp, #20]
 1958 00ba FFF7FEFF 		bl	lv_obj_invalidate_area
 1959              	.LVL255:
 648:..\..\..\arduinoLCD\test\Pain Drain\libraries\lvgl\src\extra\widgets\meter/lv_meter.c **** }
 1960              		.loc 1 648 0
 1961 00be 0CB0     		add	sp, sp, #48
 1962              		@ sp needed
 1963              	.LVL256:
 1964              	.LVL257:
 1965 00c0 1CBC     		pop	{r2, r3, r4}
 1966 00c2 9046     		mov	r8, r2
 1967 00c4 9946     		mov	r9, r3
 1968 00c6 A346     		mov	fp, r4
 1969 00c8 F0BD     		pop	{r4, r5, r6, r7, pc}
 1970              		.cfi_endproc
 1971              	.LFE220:
 1972              		.size	inv_arc, .-inv_arc
ARM GAS  C:\Users\haske\AppData\Local\Temp\ccXBxzcA.s 			page 69


 1973 00ca C046     		.section	.text.inv_line,"ax",%progbits
 1974              		.align	2
 1975              		.code	16
 1976              		.thumb_func
 1977              		.type	inv_line, %function
 1978              	inv_line:
 1979              	.LFB221:
 649:..\..\..\arduinoLCD\test\Pain Drain\libraries\lvgl\src\extra\widgets\meter/lv_meter.c **** 
 650:..\..\..\arduinoLCD\test\Pain Drain\libraries\lvgl\src\extra\widgets\meter/lv_meter.c **** 
 651:..\..\..\arduinoLCD\test\Pain Drain\libraries\lvgl\src\extra\widgets\meter/lv_meter.c **** static void inv_line(lv_obj_t * obj, lv_meter_indicator_t * indic, int32_t value)
 652:..\..\..\arduinoLCD\test\Pain Drain\libraries\lvgl\src\extra\widgets\meter/lv_meter.c **** {
 1980              		.loc 1 652 0
 1981              		.cfi_startproc
 1982              		@ args = 0, pretend = 0, frame = 32
 1983              		@ frame_needed = 0, uses_anonymous_args = 0
 1984              	.LVL258:
 1985 0000 F0B5     		push	{r4, r5, r6, r7, lr}
 1986              		.cfi_def_cfa_offset 20
 1987              		.cfi_offset 4, -20
 1988              		.cfi_offset 5, -16
 1989              		.cfi_offset 6, -12
 1990              		.cfi_offset 7, -8
 1991              		.cfi_offset 14, -4
 1992 0002 5F46     		mov	r7, fp
 1993 0004 5646     		mov	r6, r10
 1994 0006 4546     		mov	r5, r8
 1995 0008 E0B4     		push	{r5, r6, r7}
 1996              		.cfi_def_cfa_offset 32
 1997              		.cfi_offset 8, -32
 1998              		.cfi_offset 10, -28
 1999              		.cfi_offset 11, -24
 2000 000a 8AB0     		sub	sp, sp, #40
 2001              		.cfi_def_cfa_offset 72
 2002 000c 0290     		str	r0, [sp, #8]
 2003 000e 0E00     		movs	r6, r1
 2004 0010 0392     		str	r2, [sp, #12]
 653:..\..\..\arduinoLCD\test\Pain Drain\libraries\lvgl\src\extra\widgets\meter/lv_meter.c ****     lv_area_t scale_area;
 654:..\..\..\arduinoLCD\test\Pain Drain\libraries\lvgl\src\extra\widgets\meter/lv_meter.c ****     lv_obj_get_content_coords(obj, &scale_area);
 2005              		.loc 1 654 0
 2006 0012 08AF     		add	r7, sp, #32
 2007 0014 3900     		movs	r1, r7
 2008              	.LVL259:
 2009 0016 FFF7FEFF 		bl	lv_obj_get_content_coords
 2010              	.LVL260:
 2011              	.LBB86:
 2012              	.LBB87:
 125:c:\projects\paindrain\arduinolcd\test\pain drain\libraries\lvgl\src\misc\lv_area.h **** }
 2013              		.loc 3 125 0
 2014 001a 0423     		movs	r3, #4
 2015 001c FC5E     		ldrsh	r4, [r7, r3]
 2016 001e 3D88     		ldrh	r5, [r7]
 2017 0020 641B     		subs	r4, r4, r5
 2018 0022 0134     		adds	r4, r4, #1
 2019 0024 24B2     		sxth	r4, r4
 2020              	.LVL261:
 2021              	.LBE87:
 2022              	.LBE86:
ARM GAS  C:\Users\haske\AppData\Local\Temp\ccXBxzcA.s 			page 70


 655:..\..\..\arduinoLCD\test\Pain Drain\libraries\lvgl\src\extra\widgets\meter/lv_meter.c **** 
 656:..\..\..\arduinoLCD\test\Pain Drain\libraries\lvgl\src\extra\widgets\meter/lv_meter.c ****     lv_coord_t r_out = lv_area_get_width(&scale_area) / 2;
 2023              		.loc 1 656 0
 2024 0026 E00F     		lsrs	r0, r4, #31
 2025 0028 0419     		adds	r4, r0, r4
 2026 002a 6410     		asrs	r4, r4, #1
 2027              	.LVL262:
 657:..\..\..\arduinoLCD\test\Pain Drain\libraries\lvgl\src\extra\widgets\meter/lv_meter.c ****     lv_point_t scale_center;
 658:..\..\..\arduinoLCD\test\Pain Drain\libraries\lvgl\src\extra\widgets\meter/lv_meter.c ****     scale_center.x = scale_area.x1 + r_out;
 2028              		.loc 1 658 0
 2029 002c A4B2     		uxth	r4, r4
 2030 002e 6519     		adds	r5, r4, r5
 2031 0030 ADB2     		uxth	r5, r5
 2032 0032 2BB2     		sxth	r3, r5
 2033 0034 9A46     		mov	r10, r3
 659:..\..\..\arduinoLCD\test\Pain Drain\libraries\lvgl\src\extra\widgets\meter/lv_meter.c ****     scale_center.y = scale_area.y1 + r_out;
 2034              		.loc 1 659 0
 2035 0036 0223     		movs	r3, #2
 2036 0038 F85E     		ldrsh	r0, [r7, r3]
 2037 003a 2018     		adds	r0, r4, r0
 2038 003c 87B2     		uxth	r7, r0
 2039 003e 3BB2     		sxth	r3, r7
 2040 0040 9846     		mov	r8, r3
 660:..\..\..\arduinoLCD\test\Pain Drain\libraries\lvgl\src\extra\widgets\meter/lv_meter.c **** 
 661:..\..\..\arduinoLCD\test\Pain Drain\libraries\lvgl\src\extra\widgets\meter/lv_meter.c ****     lv_meter_scale_t * scale = indic->scale;
 2041              		.loc 1 661 0
 2042 0042 3368     		ldr	r3, [r6]
 2043 0044 9B46     		mov	fp, r3
 2044              	.LVL263:
 662:..\..\..\arduinoLCD\test\Pain Drain\libraries\lvgl\src\extra\widgets\meter/lv_meter.c **** 
 663:..\..\..\arduinoLCD\test\Pain Drain\libraries\lvgl\src\extra\widgets\meter/lv_meter.c ****     if(indic->type == LV_METER_INDICATOR_TYPE_NEEDLE_LINE) {
 2045              		.loc 1 663 0
 2046 0046 3379     		ldrb	r3, [r6, #4]
 2047              	.LVL264:
 2048 0048 012B     		cmp	r3, #1
 2049 004a 50D1     		bne	.L59
 2050              	.LBB88:
 664:..\..\..\arduinoLCD\test\Pain Drain\libraries\lvgl\src\extra\widgets\meter/lv_meter.c ****         int32_t angle = lv_map(value, scale->min, scale->max, scale->rotation, scale->rotation + sc
 2051              		.loc 1 664 0
 2052 004c 5B46     		mov	r3, fp
 2053 004e 5969     		ldr	r1, [r3, #20]
 2054 0050 9A69     		ldr	r2, [r3, #24]
 2055 0052 2020     		movs	r0, #32
 2056 0054 1B5E     		ldrsh	r3, [r3, r0]
 2057 0056 5846     		mov	r0, fp
 2058 0058 C08B     		ldrh	r0, [r0, #30]
 2059 005a 1818     		adds	r0, r3, r0
 2060 005c 0090     		str	r0, [sp]
 2061 005e 0398     		ldr	r0, [sp, #12]
 2062 0060 FFF7FEFF 		bl	lv_map
 2063              	.LVL265:
 2064 0064 0200     		movs	r2, r0
 2065              	.LVL266:
 665:..\..\..\arduinoLCD\test\Pain Drain\libraries\lvgl\src\extra\widgets\meter/lv_meter.c ****         r_out += scale->r_mod + indic->type_data.needle_line.r_mod;
 2066              		.loc 1 665 0
 2067 0066 5B46     		mov	r3, fp
 2068 0068 1C20     		movs	r0, #28
ARM GAS  C:\Users\haske\AppData\Local\Temp\ccXBxzcA.s 			page 71


 2069 006a 185E     		ldrsh	r0, [r3, r0]
 2070              	.LVL267:
 2071 006c 1221     		movs	r1, #18
 2072 006e 735E     		ldrsh	r3, [r6, r1]
 2073 0070 C018     		adds	r0, r0, r3
 2074 0072 2418     		adds	r4, r4, r0
 2075              	.LVL268:
 2076 0074 24B2     		sxth	r4, r4
 2077              	.LVL269:
 666:..\..\..\arduinoLCD\test\Pain Drain\libraries\lvgl\src\extra\widgets\meter/lv_meter.c ****         lv_point_t p_end;
 667:..\..\..\arduinoLCD\test\Pain Drain\libraries\lvgl\src\extra\widgets\meter/lv_meter.c ****         p_end.y = (lv_trigo_sin(angle) * (r_out)) / LV_TRIGO_SIN_MAX + scale_center.y;
 2078              		.loc 1 667 0
 2079 0076 0392     		str	r2, [sp, #12]
 2080              	.LVL270:
 2081 0078 6B46     		mov	r3, sp
 2082 007a 0C21     		movs	r1, #12
 2083 007c 585E     		ldrsh	r0, [r3, r1]
 2084 007e FFF7FEFF 		bl	lv_trigo_sin
 2085              	.LVL271:
 2086 0082 6043     		muls	r0, r4
 2087 0084 4349     		ldr	r1, .L66
 2088 0086 FFF7FEFF 		bl	__aeabi_idiv
 2089              	.LVL272:
 2090 008a 3818     		adds	r0, r7, r0
 2091 008c 07B2     		sxth	r7, r0
 2092              	.LVL273:
 2093              	.LBB89:
 2094              	.LBB90:
 2095              		.loc 5 51 0
 2096 008e 039B     		ldr	r3, [sp, #12]
 2097 0090 5A33     		adds	r3, r3, #90
 2098 0092 18B2     		sxth	r0, r3
 2099 0094 FFF7FEFF 		bl	lv_trigo_sin
 2100              	.LVL274:
 2101              	.LBE90:
 2102              	.LBE89:
 668:..\..\..\arduinoLCD\test\Pain Drain\libraries\lvgl\src\extra\widgets\meter/lv_meter.c ****         p_end.x = (lv_trigo_cos(angle) * (r_out)) / LV_TRIGO_SIN_MAX + scale_center.x;
 2103              		.loc 1 668 0
 2104 0098 6043     		muls	r0, r4
 2105 009a 3E49     		ldr	r1, .L66
 2106 009c FFF7FEFF 		bl	__aeabi_idiv
 2107              	.LVL275:
 2108 00a0 2D18     		adds	r5, r5, r0
 2109 00a2 28B2     		sxth	r0, r5
 669:..\..\..\arduinoLCD\test\Pain Drain\libraries\lvgl\src\extra\widgets\meter/lv_meter.c **** 
 670:..\..\..\arduinoLCD\test\Pain Drain\libraries\lvgl\src\extra\widgets\meter/lv_meter.c ****         lv_area_t a;
 671:..\..\..\arduinoLCD\test\Pain Drain\libraries\lvgl\src\extra\widgets\meter/lv_meter.c ****         a.x1 = LV_MIN(scale_center.x, p_end.x) - indic->type_data.needle_line.width - 2;
 2110              		.loc 1 671 0
 2111 00a4 5346     		mov	r3, r10
 2112 00a6 8245     		cmp	r10, r0
 2113 00a8 00DD     		ble	.L60
 2114 00aa 031C     		adds	r3, r0, #0
 2115              	.L60:
 2116 00ac 348A     		ldrh	r4, [r6, #16]
 2117              	.LVL276:
 2118 00ae 1B1B     		subs	r3, r3, r4
 2119 00b0 023B     		subs	r3, r3, #2
ARM GAS  C:\Users\haske\AppData\Local\Temp\ccXBxzcA.s 			page 72


 2120 00b2 06AA     		add	r2, sp, #24
 2121 00b4 1380     		strh	r3, [r2]
 672:..\..\..\arduinoLCD\test\Pain Drain\libraries\lvgl\src\extra\widgets\meter/lv_meter.c ****         a.y1 = LV_MIN(scale_center.y, p_end.y) - indic->type_data.needle_line.width - 2;
 2122              		.loc 1 672 0
 2123 00b6 4246     		mov	r2, r8
 2124 00b8 B845     		cmp	r8, r7
 2125 00ba 00DD     		ble	.L61
 2126 00bc 3A1C     		adds	r2, r7, #0
 2127              	.L61:
 2128 00be 121B     		subs	r2, r2, r4
 2129 00c0 023A     		subs	r2, r2, #2
 2130 00c2 06AB     		add	r3, sp, #24
 2131 00c4 5A80     		strh	r2, [r3, #2]
 673:..\..\..\arduinoLCD\test\Pain Drain\libraries\lvgl\src\extra\widgets\meter/lv_meter.c ****         a.x2 = LV_MAX(scale_center.x, p_end.x) + indic->type_data.needle_line.width + 2;
 2132              		.loc 1 673 0
 2133 00c6 5246     		mov	r2, r10
 2134 00c8 8245     		cmp	r10, r0
 2135 00ca 00DA     		bge	.L62
 2136 00cc 021C     		adds	r2, r0, #0
 2137              	.L62:
 2138 00ce A218     		adds	r2, r4, r2
 2139 00d0 0232     		adds	r2, r2, #2
 2140 00d2 06AB     		add	r3, sp, #24
 2141 00d4 9A80     		strh	r2, [r3, #4]
 674:..\..\..\arduinoLCD\test\Pain Drain\libraries\lvgl\src\extra\widgets\meter/lv_meter.c ****         a.y2 = LV_MAX(scale_center.y, p_end.y) + indic->type_data.needle_line.width + 2;
 2142              		.loc 1 674 0
 2143 00d6 4346     		mov	r3, r8
 2144 00d8 B845     		cmp	r8, r7
 2145 00da 00DA     		bge	.L63
 2146 00dc 3B1C     		adds	r3, r7, #0
 2147              	.L63:
 2148 00de 06A9     		add	r1, sp, #24
 2149 00e0 E318     		adds	r3, r4, r3
 2150 00e2 0233     		adds	r3, r3, #2
 2151 00e4 CB80     		strh	r3, [r1, #6]
 675:..\..\..\arduinoLCD\test\Pain Drain\libraries\lvgl\src\extra\widgets\meter/lv_meter.c **** 
 676:..\..\..\arduinoLCD\test\Pain Drain\libraries\lvgl\src\extra\widgets\meter/lv_meter.c ****         lv_obj_invalidate_area(obj, &a);
 2152              		.loc 1 676 0
 2153 00e6 0298     		ldr	r0, [sp, #8]
 2154 00e8 FFF7FEFF 		bl	lv_obj_invalidate_area
 2155              	.LVL277:
 2156              	.LBE88:
 2157 00ec 4CE0     		b	.L58
 2158              	.LVL278:
 2159              	.L59:
 677:..\..\..\arduinoLCD\test\Pain Drain\libraries\lvgl\src\extra\widgets\meter/lv_meter.c ****     }
 678:..\..\..\arduinoLCD\test\Pain Drain\libraries\lvgl\src\extra\widgets\meter/lv_meter.c ****     else if(indic->type == LV_METER_INDICATOR_TYPE_NEEDLE_IMG) {
 2160              		.loc 1 678 0
 2161 00ee 002B     		cmp	r3, #0
 2162 00f0 4AD1     		bne	.L58
 2163              	.LBB91:
 679:..\..\..\arduinoLCD\test\Pain Drain\libraries\lvgl\src\extra\widgets\meter/lv_meter.c ****         int32_t angle = lv_map(value, scale->min, scale->max, scale->rotation, scale->rotation + sc
 2164              		.loc 1 679 0
 2165 00f2 5B46     		mov	r3, fp
 2166 00f4 5969     		ldr	r1, [r3, #20]
 2167 00f6 9A69     		ldr	r2, [r3, #24]
 2168 00f8 2020     		movs	r0, #32
ARM GAS  C:\Users\haske\AppData\Local\Temp\ccXBxzcA.s 			page 73


 2169 00fa 1B5E     		ldrsh	r3, [r3, r0]
 2170 00fc 5846     		mov	r0, fp
 2171 00fe C08B     		ldrh	r0, [r0, #30]
 2172 0100 1818     		adds	r0, r3, r0
 2173 0102 0090     		str	r0, [sp]
 2174 0104 0398     		ldr	r0, [sp, #12]
 2175 0106 FFF7FEFF 		bl	lv_map
 2176              	.LVL279:
 2177 010a 0400     		movs	r4, r0
 2178              	.LVL280:
 680:..\..\..\arduinoLCD\test\Pain Drain\libraries\lvgl\src\extra\widgets\meter/lv_meter.c ****         lv_img_header_t info;
 681:..\..\..\arduinoLCD\test\Pain Drain\libraries\lvgl\src\extra\widgets\meter/lv_meter.c ****         lv_img_decoder_get_info(indic->type_data.needle_img.src, &info);
 2179              		.loc 1 681 0
 2180 010c 05A9     		add	r1, sp, #20
 2181 010e 3069     		ldr	r0, [r6, #16]
 2182              	.LVL281:
 2183 0110 FFF7FEFF 		bl	lv_img_decoder_get_info
 2184              	.LVL282:
 682:..\..\..\arduinoLCD\test\Pain Drain\libraries\lvgl\src\extra\widgets\meter/lv_meter.c **** 
 683:..\..\..\arduinoLCD\test\Pain Drain\libraries\lvgl\src\extra\widgets\meter/lv_meter.c ****         angle = angle * 10;
 2185              		.loc 1 683 0
 2186 0114 A300     		lsls	r3, r4, #2
 2187 0116 1C19     		adds	r4, r3, r4
 2188              	.LVL283:
 2189 0118 6200     		lsls	r2, r4, #1
 2190 011a 1300     		movs	r3, r2
 2191              	.LVL284:
 684:..\..\..\arduinoLCD\test\Pain Drain\libraries\lvgl\src\extra\widgets\meter/lv_meter.c ****         if(angle > 3600) angle -= 3600;
 2192              		.loc 1 684 0
 2193 011c E121     		movs	r1, #225
 2194 011e 0901     		lsls	r1, r1, #4
 2195 0120 8A42     		cmp	r2, r1
 2196 0122 01DD     		ble	.L65
 2197              		.loc 1 684 0 is_stmt 0 discriminator 1
 2198 0124 1C4B     		ldr	r3, .L66+4
 2199 0126 D318     		adds	r3, r2, r3
 2200              	.LVL285:
 2201              	.L65:
 685:..\..\..\arduinoLCD\test\Pain Drain\libraries\lvgl\src\extra\widgets\meter/lv_meter.c **** 
 686:..\..\..\arduinoLCD\test\Pain Drain\libraries\lvgl\src\extra\widgets\meter/lv_meter.c ****         scale_center.x -= indic->type_data.needle_img.pivot.x;
 2202              		.loc 1 686 0 is_stmt 1 discriminator 2
 2203 0128 1422     		movs	r2, #20
 2204 012a B05E     		ldrsh	r0, [r6, r2]
 2205 012c 2D1A     		subs	r5, r5, r0
 2206 012e ADB2     		uxth	r5, r5
 687:..\..\..\arduinoLCD\test\Pain Drain\libraries\lvgl\src\extra\widgets\meter/lv_meter.c ****         scale_center.y -= indic->type_data.needle_img.pivot.y;
 2207              		.loc 1 687 0 discriminator 2
 2208 0130 1622     		movs	r2, #22
 2209 0132 B45E     		ldrsh	r4, [r6, r2]
 2210 0134 3C1B     		subs	r4, r7, r4
 2211 0136 A4B2     		uxth	r4, r4
 688:..\..\..\arduinoLCD\test\Pain Drain\libraries\lvgl\src\extra\widgets\meter/lv_meter.c ****         lv_area_t a;
 689:..\..\..\arduinoLCD\test\Pain Drain\libraries\lvgl\src\extra\widgets\meter/lv_meter.c ****         _lv_img_buf_get_transformed_area(&a, info.w, info.h, angle, LV_IMG_ZOOM_NONE, &indic->type_
 2212              		.loc 1 689 0 discriminator 2
 2213 0138 059A     		ldr	r2, [sp, #20]
 2214 013a D102     		lsls	r1, r2, #11
 2215 013c 0E22     		movs	r2, #14
ARM GAS  C:\Users\haske\AppData\Local\Temp\ccXBxzcA.s 			page 74


 2216 013e 02A8     		add	r0, sp, #8
 2217              	.LVL286:
 2218 0140 8446     		mov	ip, r0
 2219 0142 6244     		add	r2, r2, ip
 2220 0144 1288     		ldrh	r2, [r2]
 2221 0146 3000     		movs	r0, r6
 2222              	.LVL287:
 2223 0148 1430     		adds	r0, r0, #20
 2224 014a 1BB2     		sxth	r3, r3
 2225              	.LVL288:
 2226 014c 5209     		lsrs	r2, r2, #5
 2227 014e 490D     		lsrs	r1, r1, #21
 2228 0150 06AF     		add	r7, sp, #24
 2229 0152 0190     		str	r0, [sp, #4]
 2230 0154 8020     		movs	r0, #128
 2231 0156 4000     		lsls	r0, r0, #1
 2232 0158 0090     		str	r0, [sp]
 2233 015a 3800     		movs	r0, r7
 2234 015c FFF7FEFF 		bl	_lv_img_buf_get_transformed_area
 2235              	.LVL289:
 690:..\..\..\arduinoLCD\test\Pain Drain\libraries\lvgl\src\extra\widgets\meter/lv_meter.c ****         a.x1 += scale_center.x - 2;
 2236              		.loc 1 690 0 discriminator 2
 2237 0160 3B88     		ldrh	r3, [r7]
 2238 0162 EB18     		adds	r3, r5, r3
 2239 0164 023B     		subs	r3, r3, #2
 2240 0166 3B80     		strh	r3, [r7]
 691:..\..\..\arduinoLCD\test\Pain Drain\libraries\lvgl\src\extra\widgets\meter/lv_meter.c ****         a.y1 += scale_center.y - 2;
 2241              		.loc 1 691 0 discriminator 2
 2242 0168 7B88     		ldrh	r3, [r7, #2]
 2243 016a E318     		adds	r3, r4, r3
 2244 016c 023B     		subs	r3, r3, #2
 2245 016e 7B80     		strh	r3, [r7, #2]
 692:..\..\..\arduinoLCD\test\Pain Drain\libraries\lvgl\src\extra\widgets\meter/lv_meter.c ****         a.x2 += scale_center.x + 2;
 2246              		.loc 1 692 0 discriminator 2
 2247 0170 B888     		ldrh	r0, [r7, #4]
 2248 0172 2D18     		adds	r5, r5, r0
 2249 0174 0235     		adds	r5, r5, #2
 2250 0176 BD80     		strh	r5, [r7, #4]
 693:..\..\..\arduinoLCD\test\Pain Drain\libraries\lvgl\src\extra\widgets\meter/lv_meter.c ****         a.y2 += scale_center.y + 2;
 2251              		.loc 1 693 0 discriminator 2
 2252 0178 F888     		ldrh	r0, [r7, #6]
 2253 017a 2418     		adds	r4, r4, r0
 2254 017c 0234     		adds	r4, r4, #2
 2255 017e FC80     		strh	r4, [r7, #6]
 694:..\..\..\arduinoLCD\test\Pain Drain\libraries\lvgl\src\extra\widgets\meter/lv_meter.c **** 
 695:..\..\..\arduinoLCD\test\Pain Drain\libraries\lvgl\src\extra\widgets\meter/lv_meter.c ****         lv_obj_invalidate_area(obj, &a);
 2256              		.loc 1 695 0 discriminator 2
 2257 0180 3900     		movs	r1, r7
 2258 0182 0298     		ldr	r0, [sp, #8]
 2259 0184 FFF7FEFF 		bl	lv_obj_invalidate_area
 2260              	.LVL290:
 2261              	.L58:
 2262              	.LBE91:
 696:..\..\..\arduinoLCD\test\Pain Drain\libraries\lvgl\src\extra\widgets\meter/lv_meter.c ****     }
 697:..\..\..\arduinoLCD\test\Pain Drain\libraries\lvgl\src\extra\widgets\meter/lv_meter.c **** }
 2263              		.loc 1 697 0
 2264 0188 0AB0     		add	sp, sp, #40
ARM GAS  C:\Users\haske\AppData\Local\Temp\ccXBxzcA.s 			page 75


 2265              		@ sp needed
 2266              	.LVL291:
 2267              	.LVL292:
 2268 018a 1CBC     		pop	{r2, r3, r4}
 2269 018c 9046     		mov	r8, r2
 2270 018e 9A46     		mov	r10, r3
 2271 0190 A346     		mov	fp, r4
 2272 0192 F0BD     		pop	{r4, r5, r6, r7, pc}
 2273              	.L67:
 2274              		.align	2
 2275              	.L66:
 2276 0194 FF7F0000 		.word	32767
 2277 0198 F0F1FFFF 		.word	-3600
 2278              		.cfi_endproc
 2279              	.LFE221:
 2280              		.size	inv_line, .-inv_line
 2281              		.section	.text.lv_meter_create,"ax",%progbits
 2282              		.align	2
 2283              		.global	lv_meter_create
 2284              		.code	16
 2285              		.thumb_func
 2286              		.type	lv_meter_create, %function
 2287              	lv_meter_create:
 2288              	.LFB202:
  55:..\..\..\arduinoLCD\test\Pain Drain\libraries\lvgl\src\extra\widgets\meter/lv_meter.c ****     LV_LOG_INFO("begin");
 2289              		.loc 1 55 0
 2290              		.cfi_startproc
 2291              		@ args = 0, pretend = 0, frame = 0
 2292              		@ frame_needed = 0, uses_anonymous_args = 0
 2293              	.LVL293:
 2294 0000 10B5     		push	{r4, lr}
 2295              		.cfi_def_cfa_offset 8
 2296              		.cfi_offset 4, -8
 2297              		.cfi_offset 14, -4
 2298 0002 0100     		movs	r1, r0
  57:..\..\..\arduinoLCD\test\Pain Drain\libraries\lvgl\src\extra\widgets\meter/lv_meter.c ****     lv_obj_class_init_obj(obj);
 2299              		.loc 1 57 0
 2300 0004 0348     		ldr	r0, .L69
 2301              	.LVL294:
 2302 0006 FFF7FEFF 		bl	lv_obj_class_create_obj
 2303              	.LVL295:
 2304 000a 0400     		movs	r4, r0
 2305              	.LVL296:
  58:..\..\..\arduinoLCD\test\Pain Drain\libraries\lvgl\src\extra\widgets\meter/lv_meter.c ****     return obj;
 2306              		.loc 1 58 0
 2307 000c FFF7FEFF 		bl	lv_obj_class_init_obj
 2308              	.LVL297:
  60:..\..\..\arduinoLCD\test\Pain Drain\libraries\lvgl\src\extra\widgets\meter/lv_meter.c **** 
 2309              		.loc 1 60 0
 2310 0010 2000     		movs	r0, r4
 2311              		@ sp needed
 2312              	.LVL298:
 2313 0012 10BD     		pop	{r4, pc}
 2314              	.L70:
 2315              		.align	2
 2316              	.L69:
 2317 0014 00000000 		.word	.LANCHOR0
ARM GAS  C:\Users\haske\AppData\Local\Temp\ccXBxzcA.s 			page 76


 2318              		.cfi_endproc
 2319              	.LFE202:
 2320              		.size	lv_meter_create, .-lv_meter_create
 2321              		.section	.text.lv_meter_add_scale,"ax",%progbits
 2322              		.align	2
 2323              		.global	lv_meter_add_scale
 2324              		.code	16
 2325              		.thumb_func
 2326              		.type	lv_meter_add_scale, %function
 2327              	lv_meter_add_scale:
 2328              	.LFB203:
  67:..\..\..\arduinoLCD\test\Pain Drain\libraries\lvgl\src\extra\widgets\meter/lv_meter.c ****     LV_ASSERT_OBJ(obj, MY_CLASS);
 2329              		.loc 1 67 0
 2330              		.cfi_startproc
 2331              		@ args = 0, pretend = 0, frame = 0
 2332              		@ frame_needed = 0, uses_anonymous_args = 0
 2333              	.LVL299:
 2334 0000 10B5     		push	{r4, lr}
 2335              		.cfi_def_cfa_offset 8
 2336              		.cfi_offset 4, -8
 2337              		.cfi_offset 14, -4
 2338              	.LVL300:
  71:..\..\..\arduinoLCD\test\Pain Drain\libraries\lvgl\src\extra\widgets\meter/lv_meter.c ****     LV_ASSERT_MALLOC(scale);
 2339              		.loc 1 71 0
 2340 0002 2430     		adds	r0, r0, #36
 2341              	.LVL301:
 2342 0004 FFF7FEFF 		bl	_lv_ll_ins_head
 2343              	.LVL302:
 2344 0008 041E     		subs	r4, r0, #0
 2345              	.LVL303:
  72:..\..\..\arduinoLCD\test\Pain Drain\libraries\lvgl\src\extra\widgets\meter/lv_meter.c ****     lv_memset_00(scale, sizeof(lv_meter_scale_t));
 2346              		.loc 1 72 0
 2347 000a 00D1     		bne	.L72
 2348              	.L73:
 2349 000c FEE7     		b	.L73
 2350              	.L72:
  73:..\..\..\arduinoLCD\test\Pain Drain\libraries\lvgl\src\extra\widgets\meter/lv_meter.c **** 
 2351              		.loc 1 73 0
 2352 000e 2421     		movs	r1, #36
 2353 0010 FFF7FEFF 		bl	lv_memset_00
 2354              	.LVL304:
  75:..\..\..\arduinoLCD\test\Pain Drain\libraries\lvgl\src\extra\widgets\meter/lv_meter.c ****     scale->rotation = 90 + (360 - scale->angle_range) / 2;
 2355              		.loc 1 75 0
 2356 0014 8723     		movs	r3, #135
 2357 0016 5B00     		lsls	r3, r3, #1
 2358 0018 E383     		strh	r3, [r4, #30]
  76:..\..\..\arduinoLCD\test\Pain Drain\libraries\lvgl\src\extra\widgets\meter/lv_meter.c ****     scale->min = 0;
 2359              		.loc 1 76 0
 2360 001a 873B     		subs	r3, r3, #135
 2361 001c 2384     		strh	r3, [r4, #32]
  77:..\..\..\arduinoLCD\test\Pain Drain\libraries\lvgl\src\extra\widgets\meter/lv_meter.c ****     scale->max = 100;
 2362              		.loc 1 77 0
 2363 001e 0023     		movs	r3, #0
 2364 0020 6361     		str	r3, [r4, #20]
  78:..\..\..\arduinoLCD\test\Pain Drain\libraries\lvgl\src\extra\widgets\meter/lv_meter.c ****     scale->tick_cnt = 6;
 2365              		.loc 1 78 0
 2366 0022 6433     		adds	r3, r3, #100
ARM GAS  C:\Users\haske\AppData\Local\Temp\ccXBxzcA.s 			page 77


 2367 0024 A361     		str	r3, [r4, #24]
  79:..\..\..\arduinoLCD\test\Pain Drain\libraries\lvgl\src\extra\widgets\meter/lv_meter.c ****     scale->tick_length = 8;
 2368              		.loc 1 79 0
 2369 0026 5E3B     		subs	r3, r3, #94
 2370 0028 6380     		strh	r3, [r4, #2]
  80:..\..\..\arduinoLCD\test\Pain Drain\libraries\lvgl\src\extra\widgets\meter/lv_meter.c ****     scale->tick_width = 2;
 2371              		.loc 1 80 0
 2372 002a 0233     		adds	r3, r3, #2
 2373 002c A380     		strh	r3, [r4, #4]
  81:..\..\..\arduinoLCD\test\Pain Drain\libraries\lvgl\src\extra\widgets\meter/lv_meter.c ****     scale->label_gap = 2;
 2374              		.loc 1 81 0
 2375 002e 063B     		subs	r3, r3, #6
 2376 0030 E380     		strh	r3, [r4, #6]
  82:..\..\..\arduinoLCD\test\Pain Drain\libraries\lvgl\src\extra\widgets\meter/lv_meter.c **** 
 2377              		.loc 1 82 0
 2378 0032 2382     		strh	r3, [r4, #16]
  85:..\..\..\arduinoLCD\test\Pain Drain\libraries\lvgl\src\extra\widgets\meter/lv_meter.c **** 
 2379              		.loc 1 85 0
 2380 0034 2000     		movs	r0, r4
 2381              		@ sp needed
 2382              	.LVL305:
 2383 0036 10BD     		pop	{r4, pc}
 2384              		.cfi_endproc
 2385              	.LFE203:
 2386              		.size	lv_meter_add_scale, .-lv_meter_add_scale
 2387              		.section	.text.lv_meter_set_scale_ticks,"ax",%progbits
 2388              		.align	2
 2389              		.global	lv_meter_set_scale_ticks
 2390              		.code	16
 2391              		.thumb_func
 2392              		.type	lv_meter_set_scale_ticks, %function
 2393              	lv_meter_set_scale_ticks:
 2394              	.LFB204:
  89:..\..\..\arduinoLCD\test\Pain Drain\libraries\lvgl\src\extra\widgets\meter/lv_meter.c ****     scale->tick_cnt = cnt;
 2395              		.loc 1 89 0
 2396              		.cfi_startproc
 2397              		@ args = 8, pretend = 0, frame = 0
 2398              		@ frame_needed = 0, uses_anonymous_args = 0
 2399              	.LVL306:
 2400 0000 70B5     		push	{r4, r5, r6, lr}
 2401              		.cfi_def_cfa_offset 16
 2402              		.cfi_offset 4, -16
 2403              		.cfi_offset 5, -12
 2404              		.cfi_offset 6, -8
 2405              		.cfi_offset 14, -4
 2406 0002 04AC     		add	r4, sp, #16
 2407              	.LVL307:
 2408 0004 2588     		ldrh	r5, [r4]
 2409 0006 05AC     		add	r4, sp, #20
 2410              	.LVL308:
 2411 0008 2488     		ldrh	r4, [r4]
 2412              	.LVL309:
  90:..\..\..\arduinoLCD\test\Pain Drain\libraries\lvgl\src\extra\widgets\meter/lv_meter.c ****     scale->tick_width = width;
 2413              		.loc 1 90 0
 2414 000a 4A80     		strh	r2, [r1, #2]
  91:..\..\..\arduinoLCD\test\Pain Drain\libraries\lvgl\src\extra\widgets\meter/lv_meter.c ****     scale->tick_length = len;
 2415              		.loc 1 91 0
ARM GAS  C:\Users\haske\AppData\Local\Temp\ccXBxzcA.s 			page 78


 2416 000c CB80     		strh	r3, [r1, #6]
  92:..\..\..\arduinoLCD\test\Pain Drain\libraries\lvgl\src\extra\widgets\meter/lv_meter.c ****     scale->tick_color = color;
 2417              		.loc 1 92 0
 2418 000e 8D80     		strh	r5, [r1, #4]
 2419              	.LVL310:
  93:..\..\..\arduinoLCD\test\Pain Drain\libraries\lvgl\src\extra\widgets\meter/lv_meter.c ****     lv_obj_invalidate(obj);
 2420              		.loc 1 93 0
 2421 0010 0C80     		strh	r4, [r1]
  94:..\..\..\arduinoLCD\test\Pain Drain\libraries\lvgl\src\extra\widgets\meter/lv_meter.c **** }
 2422              		.loc 1 94 0
 2423 0012 FFF7FEFF 		bl	lv_obj_invalidate
 2424              	.LVL311:
  95:..\..\..\arduinoLCD\test\Pain Drain\libraries\lvgl\src\extra\widgets\meter/lv_meter.c **** 
 2425              		.loc 1 95 0
 2426              		@ sp needed
 2427              	.LVL312:
 2428 0016 70BD     		pop	{r4, r5, r6, pc}
 2429              		.cfi_endproc
 2430              	.LFE204:
 2431              		.size	lv_meter_set_scale_ticks, .-lv_meter_set_scale_ticks
 2432              		.section	.text.lv_meter_set_scale_major_ticks,"ax",%progbits
 2433              		.align	2
 2434              		.global	lv_meter_set_scale_major_ticks
 2435              		.code	16
 2436              		.thumb_func
 2437              		.type	lv_meter_set_scale_major_ticks, %function
 2438              	lv_meter_set_scale_major_ticks:
 2439              	.LFB205:
  99:..\..\..\arduinoLCD\test\Pain Drain\libraries\lvgl\src\extra\widgets\meter/lv_meter.c ****     scale->tick_major_nth = nth;
 2440              		.loc 1 99 0
 2441              		.cfi_startproc
 2442              		@ args = 12, pretend = 0, frame = 0
 2443              		@ frame_needed = 0, uses_anonymous_args = 0
 2444              	.LVL313:
 2445 0000 F8B5     		push	{r3, r4, r5, r6, r7, lr}
 2446              		.cfi_def_cfa_offset 24
 2447              		.cfi_offset 3, -24
 2448              		.cfi_offset 4, -20
 2449              		.cfi_offset 5, -16
 2450              		.cfi_offset 6, -12
 2451              		.cfi_offset 7, -8
 2452              		.cfi_offset 14, -4
 2453 0002 06AC     		add	r4, sp, #24
 2454              	.LVL314:
 2455 0004 2688     		ldrh	r6, [r4]
 2456 0006 07AC     		add	r4, sp, #28
 2457              	.LVL315:
 2458 0008 2588     		ldrh	r5, [r4]
 2459              	.LVL316:
 2460 000a 08AC     		add	r4, sp, #32
 2461              	.LVL317:
 2462 000c 0027     		movs	r7, #0
 2463 000e E45F     		ldrsh	r4, [r4, r7]
 2464              	.LVL318:
 100:..\..\..\arduinoLCD\test\Pain Drain\libraries\lvgl\src\extra\widgets\meter/lv_meter.c ****     scale->tick_major_width = width;
 2465              		.loc 1 100 0
 2466 0010 4A81     		strh	r2, [r1, #10]
ARM GAS  C:\Users\haske\AppData\Local\Temp\ccXBxzcA.s 			page 79


 101:..\..\..\arduinoLCD\test\Pain Drain\libraries\lvgl\src\extra\widgets\meter/lv_meter.c ****     scale->tick_major_length = len;
 2467              		.loc 1 101 0
 2468 0012 CB81     		strh	r3, [r1, #14]
 102:..\..\..\arduinoLCD\test\Pain Drain\libraries\lvgl\src\extra\widgets\meter/lv_meter.c ****     scale->tick_major_color = color;
 2469              		.loc 1 102 0
 2470 0014 8E81     		strh	r6, [r1, #12]
 2471              	.LVL319:
 103:..\..\..\arduinoLCD\test\Pain Drain\libraries\lvgl\src\extra\widgets\meter/lv_meter.c ****     scale->label_gap = label_gap;
 2472              		.loc 1 103 0
 2473 0016 0D81     		strh	r5, [r1, #8]
 104:..\..\..\arduinoLCD\test\Pain Drain\libraries\lvgl\src\extra\widgets\meter/lv_meter.c ****     lv_obj_invalidate(obj);
 2474              		.loc 1 104 0
 2475 0018 0C82     		strh	r4, [r1, #16]
 105:..\..\..\arduinoLCD\test\Pain Drain\libraries\lvgl\src\extra\widgets\meter/lv_meter.c **** }
 2476              		.loc 1 105 0
 2477 001a FFF7FEFF 		bl	lv_obj_invalidate
 2478              	.LVL320:
 106:..\..\..\arduinoLCD\test\Pain Drain\libraries\lvgl\src\extra\widgets\meter/lv_meter.c **** 
 2479              		.loc 1 106 0
 2480              		@ sp needed
 2481              	.LVL321:
 2482 001e F8BD     		pop	{r3, r4, r5, r6, r7, pc}
 2483              		.cfi_endproc
 2484              	.LFE205:
 2485              		.size	lv_meter_set_scale_major_ticks, .-lv_meter_set_scale_major_ticks
 2486              		.section	.text.lv_meter_set_scale_range,"ax",%progbits
 2487              		.align	2
 2488              		.global	lv_meter_set_scale_range
 2489              		.code	16
 2490              		.thumb_func
 2491              		.type	lv_meter_set_scale_range, %function
 2492              	lv_meter_set_scale_range:
 2493              	.LFB206:
 110:..\..\..\arduinoLCD\test\Pain Drain\libraries\lvgl\src\extra\widgets\meter/lv_meter.c ****     scale->min = min;
 2494              		.loc 1 110 0
 2495              		.cfi_startproc
 2496              		@ args = 8, pretend = 0, frame = 0
 2497              		@ frame_needed = 0, uses_anonymous_args = 0
 2498              	.LVL322:
 2499 0000 10B5     		push	{r4, lr}
 2500              		.cfi_def_cfa_offset 8
 2501              		.cfi_offset 4, -8
 2502              		.cfi_offset 14, -4
 111:..\..\..\arduinoLCD\test\Pain Drain\libraries\lvgl\src\extra\widgets\meter/lv_meter.c ****     scale->max = max;
 2503              		.loc 1 111 0
 2504 0002 4A61     		str	r2, [r1, #20]
 112:..\..\..\arduinoLCD\test\Pain Drain\libraries\lvgl\src\extra\widgets\meter/lv_meter.c ****     scale->angle_range = angle_range;
 2505              		.loc 1 112 0
 2506 0004 8B61     		str	r3, [r1, #24]
 113:..\..\..\arduinoLCD\test\Pain Drain\libraries\lvgl\src\extra\widgets\meter/lv_meter.c ****     scale->rotation = rotation;
 2507              		.loc 1 113 0
 2508 0006 029B     		ldr	r3, [sp, #8]
 2509              	.LVL323:
 2510 0008 CB83     		strh	r3, [r1, #30]
 114:..\..\..\arduinoLCD\test\Pain Drain\libraries\lvgl\src\extra\widgets\meter/lv_meter.c ****     lv_obj_invalidate(obj);
 2511              		.loc 1 114 0
 2512 000a 039B     		ldr	r3, [sp, #12]
ARM GAS  C:\Users\haske\AppData\Local\Temp\ccXBxzcA.s 			page 80


 2513 000c 0B84     		strh	r3, [r1, #32]
 115:..\..\..\arduinoLCD\test\Pain Drain\libraries\lvgl\src\extra\widgets\meter/lv_meter.c **** }
 2514              		.loc 1 115 0
 2515 000e FFF7FEFF 		bl	lv_obj_invalidate
 2516              	.LVL324:
 116:..\..\..\arduinoLCD\test\Pain Drain\libraries\lvgl\src\extra\widgets\meter/lv_meter.c **** 
 2517              		.loc 1 116 0
 2518              		@ sp needed
 2519 0012 10BD     		pop	{r4, pc}
 2520              		.cfi_endproc
 2521              	.LFE206:
 2522              		.size	lv_meter_set_scale_range, .-lv_meter_set_scale_range
 2523              		.section	.text.lv_meter_add_needle_line,"ax",%progbits
 2524              		.align	2
 2525              		.global	lv_meter_add_needle_line
 2526              		.code	16
 2527              		.thumb_func
 2528              		.type	lv_meter_add_needle_line, %function
 2529              	lv_meter_add_needle_line:
 2530              	.LFB207:
 124:..\..\..\arduinoLCD\test\Pain Drain\libraries\lvgl\src\extra\widgets\meter/lv_meter.c ****     LV_ASSERT_OBJ(obj, MY_CLASS);
 2531              		.loc 1 124 0
 2532              		.cfi_startproc
 2533              		@ args = 4, pretend = 0, frame = 0
 2534              		@ frame_needed = 0, uses_anonymous_args = 0
 2535              	.LVL325:
 2536 0000 F8B5     		push	{r3, r4, r5, r6, r7, lr}
 2537              		.cfi_def_cfa_offset 24
 2538              		.cfi_offset 3, -24
 2539              		.cfi_offset 4, -20
 2540              		.cfi_offset 5, -16
 2541              		.cfi_offset 6, -12
 2542              		.cfi_offset 7, -8
 2543              		.cfi_offset 14, -4
 2544 0002 4F46     		mov	r7, r9
 2545 0004 4646     		mov	r6, r8
 2546 0006 C0B4     		push	{r6, r7}
 2547              		.cfi_def_cfa_offset 32
 2548              		.cfi_offset 8, -32
 2549              		.cfi_offset 9, -28
 2550 0008 0500     		movs	r5, r0
 2551 000a 8946     		mov	r9, r1
 2552 000c 9046     		mov	r8, r2
 2553 000e 1F1C     		adds	r7, r3, #0
 2554 0010 08AB     		add	r3, sp, #32
 2555              	.LVL326:
 2556 0012 0026     		movs	r6, #0
 2557 0014 9E5F     		ldrsh	r6, [r3, r6]
 2558              	.LVL327:
 127:..\..\..\arduinoLCD\test\Pain Drain\libraries\lvgl\src\extra\widgets\meter/lv_meter.c ****     LV_ASSERT_MALLOC(indic);
 2559              		.loc 1 127 0
 2560 0016 3030     		adds	r0, r0, #48
 2561              	.LVL328:
 2562 0018 FFF7FEFF 		bl	_lv_ll_ins_head
 2563              	.LVL329:
 2564 001c 041E     		subs	r4, r0, #0
 2565              	.LVL330:
ARM GAS  C:\Users\haske\AppData\Local\Temp\ccXBxzcA.s 			page 81


 128:..\..\..\arduinoLCD\test\Pain Drain\libraries\lvgl\src\extra\widgets\meter/lv_meter.c ****     lv_memset_00(indic, sizeof(lv_meter_indicator_t));
 2566              		.loc 1 128 0
 2567 001e 00D1     		bne	.L78
 2568              	.L79:
 2569 0020 FEE7     		b	.L79
 2570              	.L78:
 129:..\..\..\arduinoLCD\test\Pain Drain\libraries\lvgl\src\extra\widgets\meter/lv_meter.c ****     indic->scale = scale;
 2571              		.loc 1 129 0
 2572 0022 1C21     		movs	r1, #28
 2573 0024 FFF7FEFF 		bl	lv_memset_00
 2574              	.LVL331:
 130:..\..\..\arduinoLCD\test\Pain Drain\libraries\lvgl\src\extra\widgets\meter/lv_meter.c ****     indic->opa = LV_OPA_COVER;
 2575              		.loc 1 130 0
 2576 0028 4B46     		mov	r3, r9
 2577 002a 2360     		str	r3, [r4]
 131:..\..\..\arduinoLCD\test\Pain Drain\libraries\lvgl\src\extra\widgets\meter/lv_meter.c **** 
 2578              		.loc 1 131 0
 2579 002c FF23     		movs	r3, #255
 2580 002e 6371     		strb	r3, [r4, #5]
 133:..\..\..\arduinoLCD\test\Pain Drain\libraries\lvgl\src\extra\widgets\meter/lv_meter.c ****     indic->type_data.needle_line.width = width;
 2581              		.loc 1 133 0
 2582 0030 FE3B     		subs	r3, r3, #254
 2583 0032 2371     		strb	r3, [r4, #4]
 134:..\..\..\arduinoLCD\test\Pain Drain\libraries\lvgl\src\extra\widgets\meter/lv_meter.c ****     indic->type_data.needle_line.color = color;
 2584              		.loc 1 134 0
 2585 0034 4346     		mov	r3, r8
 2586 0036 2382     		strh	r3, [r4, #16]
 2587              	.LVL332:
 135:..\..\..\arduinoLCD\test\Pain Drain\libraries\lvgl\src\extra\widgets\meter/lv_meter.c ****     indic->type_data.needle_line.r_mod = r_mod;
 2588              		.loc 1 135 0
 2589 0038 A782     		strh	r7, [r4, #20]
 136:..\..\..\arduinoLCD\test\Pain Drain\libraries\lvgl\src\extra\widgets\meter/lv_meter.c ****     lv_obj_invalidate(obj);
 2590              		.loc 1 136 0
 2591 003a 6682     		strh	r6, [r4, #18]
 137:..\..\..\arduinoLCD\test\Pain Drain\libraries\lvgl\src\extra\widgets\meter/lv_meter.c **** 
 2592              		.loc 1 137 0
 2593 003c 2800     		movs	r0, r5
 2594 003e FFF7FEFF 		bl	lv_obj_invalidate
 2595              	.LVL333:
 140:..\..\..\arduinoLCD\test\Pain Drain\libraries\lvgl\src\extra\widgets\meter/lv_meter.c **** 
 2596              		.loc 1 140 0
 2597 0042 2000     		movs	r0, r4
 2598              		@ sp needed
 2599              	.LVL334:
 2600              	.LVL335:
 2601              	.LVL336:
 2602              	.LVL337:
 2603 0044 0CBC     		pop	{r2, r3}
 2604 0046 9046     		mov	r8, r2
 2605 0048 9946     		mov	r9, r3
 2606 004a F8BD     		pop	{r3, r4, r5, r6, r7, pc}
 2607              		.cfi_endproc
 2608              	.LFE207:
 2609              		.size	lv_meter_add_needle_line, .-lv_meter_add_needle_line
 2610              		.section	.text.lv_meter_add_needle_img,"ax",%progbits
 2611              		.align	2
 2612              		.global	lv_meter_add_needle_img
ARM GAS  C:\Users\haske\AppData\Local\Temp\ccXBxzcA.s 			page 82


 2613              		.code	16
 2614              		.thumb_func
 2615              		.type	lv_meter_add_needle_img, %function
 2616              	lv_meter_add_needle_img:
 2617              	.LFB208:
 144:..\..\..\arduinoLCD\test\Pain Drain\libraries\lvgl\src\extra\widgets\meter/lv_meter.c ****     LV_ASSERT_OBJ(obj, MY_CLASS);
 2618              		.loc 1 144 0
 2619              		.cfi_startproc
 2620              		@ args = 4, pretend = 0, frame = 0
 2621              		@ frame_needed = 0, uses_anonymous_args = 0
 2622              	.LVL338:
 2623 0000 F8B5     		push	{r3, r4, r5, r6, r7, lr}
 2624              		.cfi_def_cfa_offset 24
 2625              		.cfi_offset 3, -24
 2626              		.cfi_offset 4, -20
 2627              		.cfi_offset 5, -16
 2628              		.cfi_offset 6, -12
 2629              		.cfi_offset 7, -8
 2630              		.cfi_offset 14, -4
 2631 0002 4F46     		mov	r7, r9
 2632 0004 4646     		mov	r6, r8
 2633 0006 C0B4     		push	{r6, r7}
 2634              		.cfi_def_cfa_offset 32
 2635              		.cfi_offset 8, -32
 2636              		.cfi_offset 9, -28
 2637 0008 0500     		movs	r5, r0
 2638 000a 8946     		mov	r9, r1
 2639 000c 9046     		mov	r8, r2
 2640 000e 1F00     		movs	r7, r3
 2641 0010 08AB     		add	r3, sp, #32
 2642              	.LVL339:
 2643 0012 0026     		movs	r6, #0
 2644 0014 9E5F     		ldrsh	r6, [r3, r6]
 2645              	.LVL340:
 147:..\..\..\arduinoLCD\test\Pain Drain\libraries\lvgl\src\extra\widgets\meter/lv_meter.c ****     LV_ASSERT_MALLOC(indic);
 2646              		.loc 1 147 0
 2647 0016 3030     		adds	r0, r0, #48
 2648              	.LVL341:
 2649 0018 FFF7FEFF 		bl	_lv_ll_ins_head
 2650              	.LVL342:
 2651 001c 041E     		subs	r4, r0, #0
 2652              	.LVL343:
 148:..\..\..\arduinoLCD\test\Pain Drain\libraries\lvgl\src\extra\widgets\meter/lv_meter.c ****     lv_memset_00(indic, sizeof(lv_meter_indicator_t));
 2653              		.loc 1 148 0
 2654 001e 00D1     		bne	.L81
 2655              	.L82:
 2656 0020 FEE7     		b	.L82
 2657              	.L81:
 149:..\..\..\arduinoLCD\test\Pain Drain\libraries\lvgl\src\extra\widgets\meter/lv_meter.c ****     indic->scale = scale;
 2658              		.loc 1 149 0
 2659 0022 1C21     		movs	r1, #28
 2660 0024 FFF7FEFF 		bl	lv_memset_00
 2661              	.LVL344:
 150:..\..\..\arduinoLCD\test\Pain Drain\libraries\lvgl\src\extra\widgets\meter/lv_meter.c ****     indic->opa = LV_OPA_COVER;
 2662              		.loc 1 150 0
 2663 0028 4B46     		mov	r3, r9
 2664 002a 2360     		str	r3, [r4]
ARM GAS  C:\Users\haske\AppData\Local\Temp\ccXBxzcA.s 			page 83


 151:..\..\..\arduinoLCD\test\Pain Drain\libraries\lvgl\src\extra\widgets\meter/lv_meter.c **** 
 2665              		.loc 1 151 0
 2666 002c FF23     		movs	r3, #255
 2667 002e 6371     		strb	r3, [r4, #5]
 153:..\..\..\arduinoLCD\test\Pain Drain\libraries\lvgl\src\extra\widgets\meter/lv_meter.c ****     indic->type_data.needle_img.src = src;
 2668              		.loc 1 153 0
 2669 0030 0023     		movs	r3, #0
 2670 0032 2371     		strb	r3, [r4, #4]
 154:..\..\..\arduinoLCD\test\Pain Drain\libraries\lvgl\src\extra\widgets\meter/lv_meter.c ****     indic->type_data.needle_img.pivot.x = pivot_x;
 2671              		.loc 1 154 0
 2672 0034 4346     		mov	r3, r8
 2673 0036 2361     		str	r3, [r4, #16]
 155:..\..\..\arduinoLCD\test\Pain Drain\libraries\lvgl\src\extra\widgets\meter/lv_meter.c ****     indic->type_data.needle_img.pivot.y = pivot_y;
 2674              		.loc 1 155 0
 2675 0038 A782     		strh	r7, [r4, #20]
 156:..\..\..\arduinoLCD\test\Pain Drain\libraries\lvgl\src\extra\widgets\meter/lv_meter.c ****     lv_obj_invalidate(obj);
 2676              		.loc 1 156 0
 2677 003a E682     		strh	r6, [r4, #22]
 157:..\..\..\arduinoLCD\test\Pain Drain\libraries\lvgl\src\extra\widgets\meter/lv_meter.c **** 
 2678              		.loc 1 157 0
 2679 003c 2800     		movs	r0, r5
 2680 003e FFF7FEFF 		bl	lv_obj_invalidate
 2681              	.LVL345:
 160:..\..\..\arduinoLCD\test\Pain Drain\libraries\lvgl\src\extra\widgets\meter/lv_meter.c **** 
 2682              		.loc 1 160 0
 2683 0042 2000     		movs	r0, r4
 2684              		@ sp needed
 2685              	.LVL346:
 2686              	.LVL347:
 2687              	.LVL348:
 2688              	.LVL349:
 2689 0044 0CBC     		pop	{r2, r3}
 2690 0046 9046     		mov	r8, r2
 2691 0048 9946     		mov	r9, r3
 2692 004a F8BD     		pop	{r3, r4, r5, r6, r7, pc}
 2693              		.cfi_endproc
 2694              	.LFE208:
 2695              		.size	lv_meter_add_needle_img, .-lv_meter_add_needle_img
 2696              		.section	.text.lv_meter_add_arc,"ax",%progbits
 2697              		.align	2
 2698              		.global	lv_meter_add_arc
 2699              		.code	16
 2700              		.thumb_func
 2701              		.type	lv_meter_add_arc, %function
 2702              	lv_meter_add_arc:
 2703              	.LFB209:
 164:..\..\..\arduinoLCD\test\Pain Drain\libraries\lvgl\src\extra\widgets\meter/lv_meter.c ****     LV_ASSERT_OBJ(obj, MY_CLASS);
 2704              		.loc 1 164 0
 2705              		.cfi_startproc
 2706              		@ args = 4, pretend = 0, frame = 0
 2707              		@ frame_needed = 0, uses_anonymous_args = 0
 2708              	.LVL350:
 2709 0000 F8B5     		push	{r3, r4, r5, r6, r7, lr}
 2710              		.cfi_def_cfa_offset 24
 2711              		.cfi_offset 3, -24
 2712              		.cfi_offset 4, -20
 2713              		.cfi_offset 5, -16
ARM GAS  C:\Users\haske\AppData\Local\Temp\ccXBxzcA.s 			page 84


 2714              		.cfi_offset 6, -12
 2715              		.cfi_offset 7, -8
 2716              		.cfi_offset 14, -4
 2717 0002 4F46     		mov	r7, r9
 2718 0004 4646     		mov	r6, r8
 2719 0006 C0B4     		push	{r6, r7}
 2720              		.cfi_def_cfa_offset 32
 2721              		.cfi_offset 8, -32
 2722              		.cfi_offset 9, -28
 2723 0008 0500     		movs	r5, r0
 2724 000a 8946     		mov	r9, r1
 2725 000c 9046     		mov	r8, r2
 2726 000e 1F1C     		adds	r7, r3, #0
 2727 0010 08AB     		add	r3, sp, #32
 2728              	.LVL351:
 2729 0012 0026     		movs	r6, #0
 2730 0014 9E5F     		ldrsh	r6, [r3, r6]
 2731              	.LVL352:
 167:..\..\..\arduinoLCD\test\Pain Drain\libraries\lvgl\src\extra\widgets\meter/lv_meter.c ****     LV_ASSERT_MALLOC(indic);
 2732              		.loc 1 167 0
 2733 0016 3030     		adds	r0, r0, #48
 2734              	.LVL353:
 2735 0018 FFF7FEFF 		bl	_lv_ll_ins_head
 2736              	.LVL354:
 2737 001c 041E     		subs	r4, r0, #0
 2738              	.LVL355:
 168:..\..\..\arduinoLCD\test\Pain Drain\libraries\lvgl\src\extra\widgets\meter/lv_meter.c ****     lv_memset_00(indic, sizeof(lv_meter_indicator_t));
 2739              		.loc 1 168 0
 2740 001e 00D1     		bne	.L84
 2741              	.L85:
 2742 0020 FEE7     		b	.L85
 2743              	.L84:
 169:..\..\..\arduinoLCD\test\Pain Drain\libraries\lvgl\src\extra\widgets\meter/lv_meter.c ****     indic->scale = scale;
 2744              		.loc 1 169 0
 2745 0022 1C21     		movs	r1, #28
 2746 0024 FFF7FEFF 		bl	lv_memset_00
 2747              	.LVL356:
 170:..\..\..\arduinoLCD\test\Pain Drain\libraries\lvgl\src\extra\widgets\meter/lv_meter.c ****     indic->opa = LV_OPA_COVER;
 2748              		.loc 1 170 0
 2749 0028 4B46     		mov	r3, r9
 2750 002a 2360     		str	r3, [r4]
 171:..\..\..\arduinoLCD\test\Pain Drain\libraries\lvgl\src\extra\widgets\meter/lv_meter.c **** 
 2751              		.loc 1 171 0
 2752 002c FF23     		movs	r3, #255
 2753 002e 6371     		strb	r3, [r4, #5]
 173:..\..\..\arduinoLCD\test\Pain Drain\libraries\lvgl\src\extra\widgets\meter/lv_meter.c ****     indic->type_data.arc.width = width;
 2754              		.loc 1 173 0
 2755 0030 FC3B     		subs	r3, r3, #252
 2756 0032 2371     		strb	r3, [r4, #4]
 174:..\..\..\arduinoLCD\test\Pain Drain\libraries\lvgl\src\extra\widgets\meter/lv_meter.c ****     indic->type_data.arc.color = color;
 2757              		.loc 1 174 0
 2758 0034 4346     		mov	r3, r8
 2759 0036 2382     		strh	r3, [r4, #16]
 2760              	.LVL357:
 175:..\..\..\arduinoLCD\test\Pain Drain\libraries\lvgl\src\extra\widgets\meter/lv_meter.c ****     indic->type_data.arc.r_mod = r_mod;
 2761              		.loc 1 175 0
 2762 0038 2783     		strh	r7, [r4, #24]
ARM GAS  C:\Users\haske\AppData\Local\Temp\ccXBxzcA.s 			page 85


 176:..\..\..\arduinoLCD\test\Pain Drain\libraries\lvgl\src\extra\widgets\meter/lv_meter.c **** 
 2763              		.loc 1 176 0
 2764 003a 6683     		strh	r6, [r4, #26]
 178:..\..\..\arduinoLCD\test\Pain Drain\libraries\lvgl\src\extra\widgets\meter/lv_meter.c ****     return indic;
 2765              		.loc 1 178 0
 2766 003c 2800     		movs	r0, r5
 2767 003e FFF7FEFF 		bl	lv_obj_invalidate
 2768              	.LVL358:
 180:..\..\..\arduinoLCD\test\Pain Drain\libraries\lvgl\src\extra\widgets\meter/lv_meter.c **** 
 2769              		.loc 1 180 0
 2770 0042 2000     		movs	r0, r4
 2771              		@ sp needed
 2772              	.LVL359:
 2773              	.LVL360:
 2774              	.LVL361:
 2775              	.LVL362:
 2776 0044 0CBC     		pop	{r2, r3}
 2777 0046 9046     		mov	r8, r2
 2778 0048 9946     		mov	r9, r3
 2779 004a F8BD     		pop	{r3, r4, r5, r6, r7, pc}
 2780              		.cfi_endproc
 2781              	.LFE209:
 2782              		.size	lv_meter_add_arc, .-lv_meter_add_arc
 2783              		.section	.text.lv_meter_add_scale_lines,"ax",%progbits
 2784              		.align	2
 2785              		.global	lv_meter_add_scale_lines
 2786              		.code	16
 2787              		.thumb_func
 2788              		.type	lv_meter_add_scale_lines, %function
 2789              	lv_meter_add_scale_lines:
 2790              	.LFB210:
 184:..\..\..\arduinoLCD\test\Pain Drain\libraries\lvgl\src\extra\widgets\meter/lv_meter.c ****     LV_ASSERT_OBJ(obj, MY_CLASS);
 2791              		.loc 1 184 0
 2792              		.cfi_startproc
 2793              		@ args = 8, pretend = 0, frame = 0
 2794              		@ frame_needed = 0, uses_anonymous_args = 0
 2795              	.LVL363:
 2796 0000 F0B5     		push	{r4, r5, r6, r7, lr}
 2797              		.cfi_def_cfa_offset 20
 2798              		.cfi_offset 4, -20
 2799              		.cfi_offset 5, -16
 2800              		.cfi_offset 6, -12
 2801              		.cfi_offset 7, -8
 2802              		.cfi_offset 14, -4
 2803 0002 5746     		mov	r7, r10
 2804 0004 4E46     		mov	r6, r9
 2805 0006 4546     		mov	r5, r8
 2806 0008 E0B4     		push	{r5, r6, r7}
 2807              		.cfi_def_cfa_offset 32
 2808              		.cfi_offset 8, -32
 2809              		.cfi_offset 9, -28
 2810              		.cfi_offset 10, -24
 2811 000a 0600     		movs	r6, r0
 2812 000c 8A46     		mov	r10, r1
 2813 000e 9146     		mov	r9, r2
 2814 0010 9846     		mov	r8, r3
 2815 0012 08AB     		add	r3, sp, #32
ARM GAS  C:\Users\haske\AppData\Local\Temp\ccXBxzcA.s 			page 86


 2816              	.LVL364:
 2817 0014 1D78     		ldrb	r5, [r3]
 2818 0016 09AB     		add	r3, sp, #36
 2819              	.LVL365:
 2820 0018 0027     		movs	r7, #0
 2821 001a DF5F     		ldrsh	r7, [r3, r7]
 2822              	.LVL366:
 187:..\..\..\arduinoLCD\test\Pain Drain\libraries\lvgl\src\extra\widgets\meter/lv_meter.c ****     LV_ASSERT_MALLOC(indic);
 2823              		.loc 1 187 0
 2824 001c 3030     		adds	r0, r0, #48
 2825              	.LVL367:
 2826 001e FFF7FEFF 		bl	_lv_ll_ins_head
 2827              	.LVL368:
 2828 0022 041E     		subs	r4, r0, #0
 2829              	.LVL369:
 188:..\..\..\arduinoLCD\test\Pain Drain\libraries\lvgl\src\extra\widgets\meter/lv_meter.c ****     lv_memset_00(indic, sizeof(lv_meter_indicator_t));
 2830              		.loc 1 188 0
 2831 0024 00D1     		bne	.L87
 2832              	.L88:
 2833 0026 FEE7     		b	.L88
 2834              	.L87:
 189:..\..\..\arduinoLCD\test\Pain Drain\libraries\lvgl\src\extra\widgets\meter/lv_meter.c ****     indic->scale = scale;
 2835              		.loc 1 189 0
 2836 0028 1C21     		movs	r1, #28
 2837 002a FFF7FEFF 		bl	lv_memset_00
 2838              	.LVL370:
 190:..\..\..\arduinoLCD\test\Pain Drain\libraries\lvgl\src\extra\widgets\meter/lv_meter.c ****     indic->opa = LV_OPA_COVER;
 2839              		.loc 1 190 0
 2840 002e 5346     		mov	r3, r10
 2841 0030 2360     		str	r3, [r4]
 191:..\..\..\arduinoLCD\test\Pain Drain\libraries\lvgl\src\extra\widgets\meter/lv_meter.c **** 
 2842              		.loc 1 191 0
 2843 0032 FF23     		movs	r3, #255
 2844 0034 6371     		strb	r3, [r4, #5]
 193:..\..\..\arduinoLCD\test\Pain Drain\libraries\lvgl\src\extra\widgets\meter/lv_meter.c ****     indic->type_data.scale_lines.color_start = color_start;
 2845              		.loc 1 193 0
 2846 0036 FD3B     		subs	r3, r3, #253
 2847 0038 2371     		strb	r3, [r4, #4]
 2848              	.LVL371:
 194:..\..\..\arduinoLCD\test\Pain Drain\libraries\lvgl\src\extra\widgets\meter/lv_meter.c ****     indic->type_data.scale_lines.color_end = color_end;
 2849              		.loc 1 194 0
 2850 003a 4B46     		mov	r3, r9
 2851 003c 6382     		strh	r3, [r4, #18]
 2852              	.LVL372:
 195:..\..\..\arduinoLCD\test\Pain Drain\libraries\lvgl\src\extra\widgets\meter/lv_meter.c ****     indic->type_data.scale_lines.local_grad = local;
 2853              		.loc 1 195 0
 2854 003e 4346     		mov	r3, r8
 2855 0040 A382     		strh	r3, [r4, #20]
 196:..\..\..\arduinoLCD\test\Pain Drain\libraries\lvgl\src\extra\widgets\meter/lv_meter.c ****     indic->type_data.scale_lines.width_mod = width_mod;
 2856              		.loc 1 196 0
 2857 0042 0123     		movs	r3, #1
 2858 0044 1D40     		ands	r5, r3
 2859 0046 A37D     		ldrb	r3, [r4, #22]
 2860 0048 0122     		movs	r2, #1
 2861 004a 9343     		bics	r3, r2
 2862 004c 1D43     		orrs	r5, r3
 2863 004e A575     		strb	r5, [r4, #22]
ARM GAS  C:\Users\haske\AppData\Local\Temp\ccXBxzcA.s 			page 87


 197:..\..\..\arduinoLCD\test\Pain Drain\libraries\lvgl\src\extra\widgets\meter/lv_meter.c **** 
 2864              		.loc 1 197 0
 2865 0050 2782     		strh	r7, [r4, #16]
 199:..\..\..\arduinoLCD\test\Pain Drain\libraries\lvgl\src\extra\widgets\meter/lv_meter.c ****     return indic;
 2866              		.loc 1 199 0
 2867 0052 3000     		movs	r0, r6
 2868 0054 FFF7FEFF 		bl	lv_obj_invalidate
 2869              	.LVL373:
 201:..\..\..\arduinoLCD\test\Pain Drain\libraries\lvgl\src\extra\widgets\meter/lv_meter.c **** 
 2870              		.loc 1 201 0
 2871 0058 2000     		movs	r0, r4
 2872              		@ sp needed
 2873              	.LVL374:
 2874              	.LVL375:
 2875              	.LVL376:
 2876              	.LVL377:
 2877              	.LVL378:
 2878 005a 1CBC     		pop	{r2, r3, r4}
 2879 005c 9046     		mov	r8, r2
 2880 005e 9946     		mov	r9, r3
 2881 0060 A246     		mov	r10, r4
 2882 0062 F0BD     		pop	{r4, r5, r6, r7, pc}
 2883              		.cfi_endproc
 2884              	.LFE210:
 2885              		.size	lv_meter_add_scale_lines, .-lv_meter_add_scale_lines
 2886              		.section	.text.lv_meter_set_indicator_value,"ax",%progbits
 2887              		.align	2
 2888              		.global	lv_meter_set_indicator_value
 2889              		.code	16
 2890              		.thumb_func
 2891              		.type	lv_meter_set_indicator_value, %function
 2892              	lv_meter_set_indicator_value:
 2893              	.LFB211:
 208:..\..\..\arduinoLCD\test\Pain Drain\libraries\lvgl\src\extra\widgets\meter/lv_meter.c ****     int32_t old_start = indic->start_value;
 2894              		.loc 1 208 0
 2895              		.cfi_startproc
 2896              		@ args = 0, pretend = 0, frame = 0
 2897              		@ frame_needed = 0, uses_anonymous_args = 0
 2898              	.LVL379:
 2899 0000 F8B5     		push	{r3, r4, r5, r6, r7, lr}
 2900              		.cfi_def_cfa_offset 24
 2901              		.cfi_offset 3, -24
 2902              		.cfi_offset 4, -20
 2903              		.cfi_offset 5, -16
 2904              		.cfi_offset 6, -12
 2905              		.cfi_offset 7, -8
 2906              		.cfi_offset 14, -4
 2907 0002 0600     		movs	r6, r0
 2908 0004 0C00     		movs	r4, r1
 2909 0006 1500     		movs	r5, r2
 209:..\..\..\arduinoLCD\test\Pain Drain\libraries\lvgl\src\extra\widgets\meter/lv_meter.c ****     int32_t old_end = indic->end_value;
 2910              		.loc 1 209 0
 2911 0008 8A68     		ldr	r2, [r1, #8]
 2912              	.LVL380:
 210:..\..\..\arduinoLCD\test\Pain Drain\libraries\lvgl\src\extra\widgets\meter/lv_meter.c ****     indic->start_value = value;
 2913              		.loc 1 210 0
 2914 000a CF68     		ldr	r7, [r1, #12]
ARM GAS  C:\Users\haske\AppData\Local\Temp\ccXBxzcA.s 			page 88


 2915              	.LVL381:
 211:..\..\..\arduinoLCD\test\Pain Drain\libraries\lvgl\src\extra\widgets\meter/lv_meter.c ****     indic->end_value = value;
 2916              		.loc 1 211 0
 2917 000c 8D60     		str	r5, [r1, #8]
 212:..\..\..\arduinoLCD\test\Pain Drain\libraries\lvgl\src\extra\widgets\meter/lv_meter.c **** 
 2918              		.loc 1 212 0
 2919 000e CD60     		str	r5, [r1, #12]
 214:..\..\..\arduinoLCD\test\Pain Drain\libraries\lvgl\src\extra\widgets\meter/lv_meter.c ****         inv_arc(obj, indic, old_start, value);
 2920              		.loc 1 214 0
 2921 0010 0B79     		ldrb	r3, [r1, #4]
 2922 0012 032B     		cmp	r3, #3
 2923 0014 09D1     		bne	.L90
 215:..\..\..\arduinoLCD\test\Pain Drain\libraries\lvgl\src\extra\widgets\meter/lv_meter.c ****         inv_arc(obj, indic, old_end, value);
 2924              		.loc 1 215 0
 2925 0016 2B00     		movs	r3, r5
 2926 0018 FFF7FEFF 		bl	inv_arc
 2927              	.LVL382:
 216:..\..\..\arduinoLCD\test\Pain Drain\libraries\lvgl\src\extra\widgets\meter/lv_meter.c ****     }
 2928              		.loc 1 216 0
 2929 001c 2B00     		movs	r3, r5
 2930 001e 3A00     		movs	r2, r7
 2931 0020 2100     		movs	r1, r4
 2932 0022 3000     		movs	r0, r6
 2933 0024 FFF7FEFF 		bl	inv_arc
 2934              	.LVL383:
 2935 0028 10E0     		b	.L89
 2936              	.LVL384:
 2937              	.L90:
 218:..\..\..\arduinoLCD\test\Pain Drain\libraries\lvgl\src\extra\widgets\meter/lv_meter.c ****         inv_line(obj, indic, old_start);
 2938              		.loc 1 218 0
 2939 002a 012B     		cmp	r3, #1
 2940 002c 0CD8     		bhi	.L92
 219:..\..\..\arduinoLCD\test\Pain Drain\libraries\lvgl\src\extra\widgets\meter/lv_meter.c ****         inv_line(obj, indic, old_end);
 2941              		.loc 1 219 0
 2942 002e FFF7FEFF 		bl	inv_line
 2943              	.LVL385:
 220:..\..\..\arduinoLCD\test\Pain Drain\libraries\lvgl\src\extra\widgets\meter/lv_meter.c ****         inv_line(obj, indic, value);
 2944              		.loc 1 220 0
 2945 0032 3A00     		movs	r2, r7
 2946 0034 2100     		movs	r1, r4
 2947 0036 3000     		movs	r0, r6
 2948 0038 FFF7FEFF 		bl	inv_line
 2949              	.LVL386:
 221:..\..\..\arduinoLCD\test\Pain Drain\libraries\lvgl\src\extra\widgets\meter/lv_meter.c ****     }
 2950              		.loc 1 221 0
 2951 003c 2A00     		movs	r2, r5
 2952 003e 2100     		movs	r1, r4
 2953 0040 3000     		movs	r0, r6
 2954 0042 FFF7FEFF 		bl	inv_line
 2955              	.LVL387:
 2956 0046 01E0     		b	.L89
 2957              	.LVL388:
 2958              	.L92:
 224:..\..\..\arduinoLCD\test\Pain Drain\libraries\lvgl\src\extra\widgets\meter/lv_meter.c ****     }
 2959              		.loc 1 224 0
 2960 0048 FFF7FEFF 		bl	lv_obj_invalidate
 2961              	.LVL389:
ARM GAS  C:\Users\haske\AppData\Local\Temp\ccXBxzcA.s 			page 89


 2962              	.L89:
 226:..\..\..\arduinoLCD\test\Pain Drain\libraries\lvgl\src\extra\widgets\meter/lv_meter.c **** 
 2963              		.loc 1 226 0
 2964              		@ sp needed
 2965              	.LVL390:
 2966              	.LVL391:
 2967              	.LVL392:
 2968              	.LVL393:
 2969 004c F8BD     		pop	{r3, r4, r5, r6, r7, pc}
 2970              		.cfi_endproc
 2971              	.LFE211:
 2972              		.size	lv_meter_set_indicator_value, .-lv_meter_set_indicator_value
 2973 004e C046     		.section	.text.lv_meter_set_indicator_start_value,"ax",%progbits
 2974              		.align	2
 2975              		.global	lv_meter_set_indicator_start_value
 2976              		.code	16
 2977              		.thumb_func
 2978              		.type	lv_meter_set_indicator_start_value, %function
 2979              	lv_meter_set_indicator_start_value:
 2980              	.LFB212:
 229:..\..\..\arduinoLCD\test\Pain Drain\libraries\lvgl\src\extra\widgets\meter/lv_meter.c ****     int32_t old_value = indic->start_value;
 2981              		.loc 1 229 0
 2982              		.cfi_startproc
 2983              		@ args = 0, pretend = 0, frame = 0
 2984              		@ frame_needed = 0, uses_anonymous_args = 0
 2985              	.LVL394:
 2986 0000 70B5     		push	{r4, r5, r6, lr}
 2987              		.cfi_def_cfa_offset 16
 2988              		.cfi_offset 4, -16
 2989              		.cfi_offset 5, -12
 2990              		.cfi_offset 6, -8
 2991              		.cfi_offset 14, -4
 2992 0002 0600     		movs	r6, r0
 2993 0004 0C00     		movs	r4, r1
 2994 0006 1500     		movs	r5, r2
 230:..\..\..\arduinoLCD\test\Pain Drain\libraries\lvgl\src\extra\widgets\meter/lv_meter.c ****     indic->start_value = value;
 2995              		.loc 1 230 0
 2996 0008 8A68     		ldr	r2, [r1, #8]
 2997              	.LVL395:
 231:..\..\..\arduinoLCD\test\Pain Drain\libraries\lvgl\src\extra\widgets\meter/lv_meter.c **** 
 2998              		.loc 1 231 0
 2999 000a 8D60     		str	r5, [r1, #8]
 233:..\..\..\arduinoLCD\test\Pain Drain\libraries\lvgl\src\extra\widgets\meter/lv_meter.c ****         inv_arc(obj, indic, old_value, value);
 3000              		.loc 1 233 0
 3001 000c 0B79     		ldrb	r3, [r1, #4]
 3002 000e 032B     		cmp	r3, #3
 3003 0010 03D1     		bne	.L94
 234:..\..\..\arduinoLCD\test\Pain Drain\libraries\lvgl\src\extra\widgets\meter/lv_meter.c ****     }
 3004              		.loc 1 234 0
 3005 0012 2B00     		movs	r3, r5
 3006 0014 FFF7FEFF 		bl	inv_arc
 3007              	.LVL396:
 3008 0018 0BE0     		b	.L93
 3009              	.LVL397:
 3010              	.L94:
 236:..\..\..\arduinoLCD\test\Pain Drain\libraries\lvgl\src\extra\widgets\meter/lv_meter.c ****         inv_line(obj, indic, old_value);
 3011              		.loc 1 236 0
ARM GAS  C:\Users\haske\AppData\Local\Temp\ccXBxzcA.s 			page 90


 3012 001a 012B     		cmp	r3, #1
 3013 001c 07D8     		bhi	.L96
 237:..\..\..\arduinoLCD\test\Pain Drain\libraries\lvgl\src\extra\widgets\meter/lv_meter.c ****         inv_line(obj, indic, value);
 3014              		.loc 1 237 0
 3015 001e FFF7FEFF 		bl	inv_line
 3016              	.LVL398:
 238:..\..\..\arduinoLCD\test\Pain Drain\libraries\lvgl\src\extra\widgets\meter/lv_meter.c ****     }
 3017              		.loc 1 238 0
 3018 0022 2A00     		movs	r2, r5
 3019 0024 2100     		movs	r1, r4
 3020 0026 3000     		movs	r0, r6
 3021 0028 FFF7FEFF 		bl	inv_line
 3022              	.LVL399:
 3023 002c 01E0     		b	.L93
 3024              	.LVL400:
 3025              	.L96:
 241:..\..\..\arduinoLCD\test\Pain Drain\libraries\lvgl\src\extra\widgets\meter/lv_meter.c ****     }
 3026              		.loc 1 241 0
 3027 002e FFF7FEFF 		bl	lv_obj_invalidate
 3028              	.LVL401:
 3029              	.L93:
 243:..\..\..\arduinoLCD\test\Pain Drain\libraries\lvgl\src\extra\widgets\meter/lv_meter.c **** 
 3030              		.loc 1 243 0
 3031              		@ sp needed
 3032              	.LVL402:
 3033              	.LVL403:
 3034              	.LVL404:
 3035 0032 70BD     		pop	{r4, r5, r6, pc}
 3036              		.cfi_endproc
 3037              	.LFE212:
 3038              		.size	lv_meter_set_indicator_start_value, .-lv_meter_set_indicator_start_value
 3039              		.section	.text.lv_meter_set_indicator_end_value,"ax",%progbits
 3040              		.align	2
 3041              		.global	lv_meter_set_indicator_end_value
 3042              		.code	16
 3043              		.thumb_func
 3044              		.type	lv_meter_set_indicator_end_value, %function
 3045              	lv_meter_set_indicator_end_value:
 3046              	.LFB213:
 246:..\..\..\arduinoLCD\test\Pain Drain\libraries\lvgl\src\extra\widgets\meter/lv_meter.c ****     int32_t old_value = indic->end_value;
 3047              		.loc 1 246 0
 3048              		.cfi_startproc
 3049              		@ args = 0, pretend = 0, frame = 0
 3050              		@ frame_needed = 0, uses_anonymous_args = 0
 3051              	.LVL405:
 3052 0000 70B5     		push	{r4, r5, r6, lr}
 3053              		.cfi_def_cfa_offset 16
 3054              		.cfi_offset 4, -16
 3055              		.cfi_offset 5, -12
 3056              		.cfi_offset 6, -8
 3057              		.cfi_offset 14, -4
 3058 0002 0600     		movs	r6, r0
 3059 0004 0C00     		movs	r4, r1
 3060 0006 1500     		movs	r5, r2
 247:..\..\..\arduinoLCD\test\Pain Drain\libraries\lvgl\src\extra\widgets\meter/lv_meter.c ****     indic->end_value = value;
 3061              		.loc 1 247 0
 3062 0008 CA68     		ldr	r2, [r1, #12]
ARM GAS  C:\Users\haske\AppData\Local\Temp\ccXBxzcA.s 			page 91


 3063              	.LVL406:
 248:..\..\..\arduinoLCD\test\Pain Drain\libraries\lvgl\src\extra\widgets\meter/lv_meter.c **** 
 3064              		.loc 1 248 0
 3065 000a CD60     		str	r5, [r1, #12]
 250:..\..\..\arduinoLCD\test\Pain Drain\libraries\lvgl\src\extra\widgets\meter/lv_meter.c ****         inv_arc(obj, indic, old_value, value);
 3066              		.loc 1 250 0
 3067 000c 0B79     		ldrb	r3, [r1, #4]
 3068 000e 032B     		cmp	r3, #3
 3069 0010 03D1     		bne	.L98
 251:..\..\..\arduinoLCD\test\Pain Drain\libraries\lvgl\src\extra\widgets\meter/lv_meter.c ****     }
 3070              		.loc 1 251 0
 3071 0012 2B00     		movs	r3, r5
 3072 0014 FFF7FEFF 		bl	inv_arc
 3073              	.LVL407:
 3074 0018 0BE0     		b	.L97
 3075              	.LVL408:
 3076              	.L98:
 253:..\..\..\arduinoLCD\test\Pain Drain\libraries\lvgl\src\extra\widgets\meter/lv_meter.c ****         inv_line(obj, indic, old_value);
 3077              		.loc 1 253 0
 3078 001a 012B     		cmp	r3, #1
 3079 001c 07D8     		bhi	.L100
 254:..\..\..\arduinoLCD\test\Pain Drain\libraries\lvgl\src\extra\widgets\meter/lv_meter.c ****         inv_line(obj, indic, value);
 3080              		.loc 1 254 0
 3081 001e FFF7FEFF 		bl	inv_line
 3082              	.LVL409:
 255:..\..\..\arduinoLCD\test\Pain Drain\libraries\lvgl\src\extra\widgets\meter/lv_meter.c ****     }
 3083              		.loc 1 255 0
 3084 0022 2A00     		movs	r2, r5
 3085 0024 2100     		movs	r1, r4
 3086 0026 3000     		movs	r0, r6
 3087 0028 FFF7FEFF 		bl	inv_line
 3088              	.LVL410:
 3089 002c 01E0     		b	.L97
 3090              	.LVL411:
 3091              	.L100:
 258:..\..\..\arduinoLCD\test\Pain Drain\libraries\lvgl\src\extra\widgets\meter/lv_meter.c ****     }
 3092              		.loc 1 258 0
 3093 002e FFF7FEFF 		bl	lv_obj_invalidate
 3094              	.LVL412:
 3095              	.L97:
 260:..\..\..\arduinoLCD\test\Pain Drain\libraries\lvgl\src\extra\widgets\meter/lv_meter.c **** 
 3096              		.loc 1 260 0
 3097              		@ sp needed
 3098              	.LVL413:
 3099              	.LVL414:
 3100              	.LVL415:
 3101 0032 70BD     		pop	{r4, r5, r6, pc}
 3102              		.cfi_endproc
 3103              	.LFE213:
 3104              		.size	lv_meter_set_indicator_end_value, .-lv_meter_set_indicator_end_value
 3105              		.global	lv_meter_class
 3106              		.section	.rodata
 3107              		.align	2
 3108              		.set	.LANCHOR0,. + 0
 3109              		.type	lv_meter_class, %object
 3110              		.size	lv_meter_class, 28
 3111              	lv_meter_class:
ARM GAS  C:\Users\haske\AppData\Local\Temp\ccXBxzcA.s 			page 92


 3112 0000 00000000 		.word	lv_obj_class
 3113 0004 00000000 		.word	lv_meter_constructor
 3114 0008 00000000 		.word	lv_meter_destructor
 3115 000c 00000000 		.space	4
 3116 0010 00000000 		.word	lv_meter_event
 3117 0014 00000000 		.space	4
 3118 0018 C0       		.byte	192
 3119 0019 03       		.byte	3
 3120 001a 00       		.byte	0
 3121 001b 00       		.space	1
 3122              		.section	.rodata.str1.4,"aMS",%progbits,1
 3123              		.align	2
 3124              	.LC2:
 3125 0000 256C6400 		.ascii	"%ld\000"
 3126              		.text
 3127              	.Letext0:
 3128              		.file 6 "c:\\program files (x86)\\cypress\\psoc creator\\4.4\\psoc creator\\import\\gnu\\arm\\5.4.
 3129              		.file 7 "c:\\program files (x86)\\cypress\\psoc creator\\4.4\\psoc creator\\import\\gnu\\arm\\5.4.
 3130              		.file 8 "c:\\projects\\paindrain\\arduinolcd\\test\\pain drain\\libraries\\lvgl\\src/misc/lv_types
 3131              		.file 9 "c:\\program files (x86)\\cypress\\psoc creator\\4.4\\psoc creator\\import\\gnu\\arm\\5.4.
 3132              		.file 10 "c:\\projects\\paindrain\\arduinolcd\\test\\pain drain\\libraries\\lvgl\\src\\font\\lv_fo
 3133              		.file 11 "c:\\projects\\paindrain\\arduinolcd\\test\\pain drain\\libraries\\lvgl\\src\\misc\\lv_tx
 3134              		.file 12 "c:\\projects\\paindrain\\arduinolcd\\test\\pain drain\\libraries\\lvgl\\src\\misc\\lv_bi
 3135              		.file 13 "c:\\projects\\paindrain\\arduinolcd\\test\\pain drain\\libraries\\lvgl\\src\\misc\\lv_st
 3136              		.file 14 "c:\\projects\\paindrain\\arduinolcd\\test\\pain drain\\libraries\\lvgl\\src\\draw\\lv_im
 3137              		.file 15 "c:\\projects\\paindrain\\arduinolcd\\test\\pain drain\\libraries\\lvgl\\src/core/lv_obj.
 3138              		.file 16 "c:\\projects\\paindrain\\arduinolcd\\test\\pain drain\\libraries\\lvgl\\src\\draw\\lv_dr
 3139              		.file 17 "c:\\projects\\paindrain\\arduinolcd\\test\\pain drain\\libraries\\lvgl\\src\\draw\\lv_dr
 3140              		.file 18 "c:\\projects\\paindrain\\arduinolcd\\test\\pain drain\\libraries\\lvgl\\src\\draw\\lv_dr
 3141              		.file 19 "c:\\projects\\paindrain\\arduinolcd\\test\\pain drain\\libraries\\lvgl\\src\\draw\\lv_dr
 3142              		.file 20 "c:\\projects\\paindrain\\arduinolcd\\test\\pain drain\\libraries\\lvgl\\src\\draw\\lv_dr
 3143              		.file 21 "c:\\projects\\paindrain\\arduinolcd\\test\\pain drain\\libraries\\lvgl\\src\\draw\\lv_dr
 3144              		.file 22 "c:\\projects\\paindrain\\arduinolcd\\test\\pain drain\\libraries\\lvgl\\src\\draw\\lv_dr
 3145              		.file 23 "c:\\projects\\paindrain\\arduinolcd\\test\\pain drain\\libraries\\lvgl\\src\\draw\\lv_dr
 3146              		.file 24 "c:\\projects\\paindrain\\arduinolcd\\test\\pain drain\\libraries\\lvgl\\src\\misc\\lv_ll
 3147              		.file 25 "c:\\projects\\paindrain\\arduinolcd\\test\\pain drain\\libraries\\lvgl\\src/core/lv_grou
 3148              		.file 26 "c:\\projects\\paindrain\\arduinolcd\\test\\pain drain\\libraries\\lvgl\\src/core/lv_obj_
 3149              		.file 27 "c:\\projects\\paindrain\\arduinolcd\\test\\pain drain\\libraries\\lvgl\\src/core/lv_obj_
 3150              		.file 28 "c:\\projects\\paindrain\\arduinolcd\\test\\pain drain\\libraries\\lvgl\\src/core/lv_obj_
 3151              		.file 29 "c:\\projects\\paindrain\\arduinolcd\\test\\pain drain\\libraries\\lvgl\\src/core/lv_obj_
 3152              		.file 30 "c:\\projects\\paindrain\\arduinolcd\\test\\pain drain\\libraries\\lvgl\\src/core/lv_even
 3153              		.file 31 "c:\\projects\\paindrain\\arduinolcd\\test\\pain drain\\libraries\\lvgl\\src/widgets/lv_b
 3154              		.file 32 "c:\\projects\\paindrain\\arduinolcd\\test\\pain drain\\libraries\\lvgl\\src/extra/widget
 3155              		.file 33 "..\\..\\..\\arduinoLCD\\test\\Pain Drain\\libraries\\lvgl\\src\\extra\\widgets\\meter\\l
 3156              		.file 34 "c:\\projects\\paindrain\\arduinolcd\\test\\pain drain\\libraries\\lvgl\\src/extra/layout
 3157              		.file 35 "c:\\projects\\paindrain\\arduinolcd\\test\\pain drain\\libraries\\lvgl\\src/extra/layout
 3158              		.file 36 "c:\\projects\\paindrain\\arduinolcd\\test\\pain drain\\libraries\\lvgl\\src/misc/lv_mem.
 3159              		.file 37 "c:\\projects\\paindrain\\arduinolcd\\test\\pain drain\\libraries\\lvgl\\src/misc/lv_prin
 3160              		.file 38 "c:\\projects\\paindrain\\arduinolcd\\test\\pain drain\\libraries\\lvgl\\src\\draw\\lv_im
 3161              		.file 39 "c:\\projects\\paindrain\\arduinolcd\\test\\pain drain\\libraries\\lvgl\\src\\core\\lv_ob
 3162              		.section	.debug_info,"",%progbits
 3163              	.Ldebug_info0:
 3164 0000 463D0000 		.4byte	0x3d46
 3165 0004 0400     		.2byte	0x4
 3166 0006 00000000 		.4byte	.Ldebug_abbrev0
 3167 000a 04       		.byte	0x4
 3168 000b 01       		.uleb128 0x1
ARM GAS  C:\Users\haske\AppData\Local\Temp\ccXBxzcA.s 			page 93


 3169 000c F71E0000 		.4byte	.LASF633
 3170 0010 0C       		.byte	0xc
 3171 0011 5D0D0000 		.4byte	.LASF634
 3172 0015 2C150000 		.4byte	.LASF635
 3173 0019 00000000 		.4byte	.Ldebug_ranges0+0
 3174 001d 00000000 		.4byte	0
 3175 0021 00000000 		.4byte	.Ldebug_line0
 3176 0025 02       		.uleb128 0x2
 3177 0026 83250000 		.4byte	.LASF0
 3178 002a 06       		.byte	0x6
 3179 002b 1B       		.byte	0x1b
 3180 002c 30000000 		.4byte	0x30
 3181 0030 03       		.uleb128 0x3
 3182 0031 01       		.byte	0x1
 3183 0032 06       		.byte	0x6
 3184 0033 CE140000 		.4byte	.LASF2
 3185 0037 02       		.uleb128 0x2
 3186 0038 D8000000 		.4byte	.LASF1
 3187 003c 06       		.byte	0x6
 3188 003d 1D       		.byte	0x1d
 3189 003e 42000000 		.4byte	0x42
 3190 0042 03       		.uleb128 0x3
 3191 0043 01       		.byte	0x1
 3192 0044 08       		.byte	0x8
 3193 0045 05090000 		.4byte	.LASF3
 3194 0049 02       		.uleb128 0x2
 3195 004a D9070000 		.4byte	.LASF4
 3196 004e 06       		.byte	0x6
 3197 004f 29       		.byte	0x29
 3198 0050 54000000 		.4byte	0x54
 3199 0054 03       		.uleb128 0x3
 3200 0055 02       		.byte	0x2
 3201 0056 05       		.byte	0x5
 3202 0057 98260000 		.4byte	.LASF5
 3203 005b 02       		.uleb128 0x2
 3204 005c E9070000 		.4byte	.LASF6
 3205 0060 06       		.byte	0x6
 3206 0061 2B       		.byte	0x2b
 3207 0062 66000000 		.4byte	0x66
 3208 0066 03       		.uleb128 0x3
 3209 0067 02       		.byte	0x2
 3210 0068 07       		.byte	0x7
 3211 0069 B1140000 		.4byte	.LASF7
 3212 006d 02       		.uleb128 0x2
 3213 006e BC1E0000 		.4byte	.LASF8
 3214 0072 06       		.byte	0x6
 3215 0073 3F       		.byte	0x3f
 3216 0074 78000000 		.4byte	0x78
 3217 0078 03       		.uleb128 0x3
 3218 0079 04       		.byte	0x4
 3219 007a 05       		.byte	0x5
 3220 007b 09180000 		.4byte	.LASF9
 3221 007f 02       		.uleb128 0x2
 3222 0080 C61E0000 		.4byte	.LASF10
 3223 0084 06       		.byte	0x6
 3224 0085 41       		.byte	0x41
 3225 0086 8A000000 		.4byte	0x8a
ARM GAS  C:\Users\haske\AppData\Local\Temp\ccXBxzcA.s 			page 94


 3226 008a 03       		.uleb128 0x3
 3227 008b 04       		.byte	0x4
 3228 008c 07       		.byte	0x7
 3229 008d F3190000 		.4byte	.LASF11
 3230 0091 03       		.uleb128 0x3
 3231 0092 08       		.byte	0x8
 3232 0093 05       		.byte	0x5
 3233 0094 B3230000 		.4byte	.LASF12
 3234 0098 03       		.uleb128 0x3
 3235 0099 08       		.byte	0x8
 3236 009a 07       		.byte	0x7
 3237 009b 56210000 		.4byte	.LASF13
 3238 009f 04       		.uleb128 0x4
 3239 00a0 04       		.byte	0x4
 3240 00a1 05       		.byte	0x5
 3241 00a2 696E7400 		.ascii	"int\000"
 3242 00a6 03       		.uleb128 0x3
 3243 00a7 04       		.byte	0x4
 3244 00a8 07       		.byte	0x7
 3245 00a9 0F260000 		.4byte	.LASF14
 3246 00ad 02       		.uleb128 0x2
 3247 00ae 51130000 		.4byte	.LASF15
 3248 00b2 07       		.byte	0x7
 3249 00b3 14       		.byte	0x14
 3250 00b4 25000000 		.4byte	0x25
 3251 00b8 02       		.uleb128 0x2
 3252 00b9 C70C0000 		.4byte	.LASF16
 3253 00bd 07       		.byte	0x7
 3254 00be 18       		.byte	0x18
 3255 00bf 37000000 		.4byte	0x37
 3256 00c3 02       		.uleb128 0x2
 3257 00c4 7D140000 		.4byte	.LASF17
 3258 00c8 07       		.byte	0x7
 3259 00c9 20       		.byte	0x20
 3260 00ca 49000000 		.4byte	0x49
 3261 00ce 02       		.uleb128 0x2
 3262 00cf 31020000 		.4byte	.LASF18
 3263 00d3 07       		.byte	0x7
 3264 00d4 24       		.byte	0x24
 3265 00d5 5B000000 		.4byte	0x5b
 3266 00d9 02       		.uleb128 0x2
 3267 00da 46040000 		.4byte	.LASF19
 3268 00de 07       		.byte	0x7
 3269 00df 2C       		.byte	0x2c
 3270 00e0 6D000000 		.4byte	0x6d
 3271 00e4 02       		.uleb128 0x2
 3272 00e5 50190000 		.4byte	.LASF20
 3273 00e9 07       		.byte	0x7
 3274 00ea 30       		.byte	0x30
 3275 00eb 7F000000 		.4byte	0x7f
 3276 00ef 05       		.uleb128 0x5
 3277 00f0 01       		.byte	0x1
 3278 00f1 42000000 		.4byte	0x42
 3279 00f5 08       		.byte	0x8
 3280 00f6 2A       		.byte	0x2a
 3281 00f7 08010000 		.4byte	0x108
 3282 00fb 06       		.uleb128 0x6
ARM GAS  C:\Users\haske\AppData\Local\Temp\ccXBxzcA.s 			page 95


 3283 00fc 70200000 		.4byte	.LASF21
 3284 0100 00       		.byte	0
 3285 0101 06       		.uleb128 0x6
 3286 0102 9E1F0000 		.4byte	.LASF22
 3287 0106 01       		.byte	0x1
 3288 0107 00       		.byte	0
 3289 0108 02       		.uleb128 0x2
 3290 0109 87000000 		.4byte	.LASF23
 3291 010d 08       		.byte	0x8
 3292 010e 2F       		.byte	0x2f
 3293 010f B8000000 		.4byte	0xb8
 3294 0113 07       		.uleb128 0x7
 3295 0114 04       		.byte	0x4
 3296 0115 02       		.uleb128 0x2
 3297 0116 C00C0000 		.4byte	.LASF24
 3298 011a 09       		.byte	0x9
 3299 011b D8       		.byte	0xd8
 3300 011c A6000000 		.4byte	0xa6
 3301 0120 03       		.uleb128 0x3
 3302 0121 08       		.byte	0x8
 3303 0122 04       		.byte	0x4
 3304 0123 AA190000 		.4byte	.LASF25
 3305 0127 03       		.uleb128 0x3
 3306 0128 04       		.byte	0x4
 3307 0129 07       		.byte	0x7
 3308 012a 4B140000 		.4byte	.LASF26
 3309 012e 08       		.uleb128 0x8
 3310 012f 04       		.byte	0x4
 3311 0130 34010000 		.4byte	0x134
 3312 0134 03       		.uleb128 0x3
 3313 0135 01       		.byte	0x1
 3314 0136 08       		.byte	0x8
 3315 0137 BA1A0000 		.4byte	.LASF27
 3316 013b 02       		.uleb128 0x2
 3317 013c A30B0000 		.4byte	.LASF28
 3318 0140 03       		.byte	0x3
 3319 0141 1B       		.byte	0x1b
 3320 0142 C3000000 		.4byte	0xc3
 3321 0146 09       		.uleb128 0x9
 3322 0147 04       		.byte	0x4
 3323 0148 03       		.byte	0x3
 3324 0149 25       		.byte	0x25
 3325 014a 63010000 		.4byte	0x163
 3326 014e 0A       		.uleb128 0xa
 3327 014f 7800     		.ascii	"x\000"
 3328 0151 03       		.byte	0x3
 3329 0152 26       		.byte	0x26
 3330 0153 3B010000 		.4byte	0x13b
 3331 0157 00       		.byte	0
 3332 0158 0A       		.uleb128 0xa
 3333 0159 7900     		.ascii	"y\000"
 3334 015b 03       		.byte	0x3
 3335 015c 27       		.byte	0x27
 3336 015d 3B010000 		.4byte	0x13b
 3337 0161 02       		.byte	0x2
 3338 0162 00       		.byte	0
 3339 0163 02       		.uleb128 0x2
ARM GAS  C:\Users\haske\AppData\Local\Temp\ccXBxzcA.s 			page 96


 3340 0164 D5090000 		.4byte	.LASF29
 3341 0168 03       		.byte	0x3
 3342 0169 28       		.byte	0x28
 3343 016a 46010000 		.4byte	0x146
 3344 016e 09       		.uleb128 0x9
 3345 016f 08       		.byte	0x8
 3346 0170 03       		.byte	0x3
 3347 0171 2B       		.byte	0x2b
 3348 0172 A3010000 		.4byte	0x1a3
 3349 0176 0A       		.uleb128 0xa
 3350 0177 783100   		.ascii	"x1\000"
 3351 017a 03       		.byte	0x3
 3352 017b 2C       		.byte	0x2c
 3353 017c 3B010000 		.4byte	0x13b
 3354 0180 00       		.byte	0
 3355 0181 0A       		.uleb128 0xa
 3356 0182 793100   		.ascii	"y1\000"
 3357 0185 03       		.byte	0x3
 3358 0186 2D       		.byte	0x2d
 3359 0187 3B010000 		.4byte	0x13b
 3360 018b 02       		.byte	0x2
 3361 018c 0A       		.uleb128 0xa
 3362 018d 783200   		.ascii	"x2\000"
 3363 0190 03       		.byte	0x3
 3364 0191 2E       		.byte	0x2e
 3365 0192 3B010000 		.4byte	0x13b
 3366 0196 04       		.byte	0x4
 3367 0197 0A       		.uleb128 0xa
 3368 0198 793200   		.ascii	"y2\000"
 3369 019b 03       		.byte	0x3
 3370 019c 2F       		.byte	0x2f
 3371 019d 3B010000 		.4byte	0x13b
 3372 01a1 06       		.byte	0x6
 3373 01a2 00       		.byte	0
 3374 01a3 02       		.uleb128 0x2
 3375 01a4 CA150000 		.4byte	.LASF30
 3376 01a8 03       		.byte	0x3
 3377 01a9 30       		.byte	0x30
 3378 01aa 6E010000 		.4byte	0x16e
 3379 01ae 02       		.uleb128 0x2
 3380 01af C5000000 		.4byte	.LASF31
 3381 01b3 03       		.byte	0x3
 3382 01b4 59       		.byte	0x59
 3383 01b5 B8000000 		.4byte	0xb8
 3384 01b9 09       		.uleb128 0x9
 3385 01ba 10       		.byte	0x10
 3386 01bb 0A       		.byte	0xa
 3387 01bc 29       		.byte	0x29
 3388 01bd 28020000 		.4byte	0x228
 3389 01c1 0B       		.uleb128 0xb
 3390 01c2 B0040000 		.4byte	.LASF32
 3391 01c6 0A       		.byte	0xa
 3392 01c7 2B       		.byte	0x2b
 3393 01c8 B0020000 		.4byte	0x2b0
 3394 01cc 00       		.byte	0
 3395 01cd 0B       		.uleb128 0xb
 3396 01ce EE110000 		.4byte	.LASF33
ARM GAS  C:\Users\haske\AppData\Local\Temp\ccXBxzcA.s 			page 97


 3397 01d2 0A       		.byte	0xa
 3398 01d3 2C       		.byte	0x2c
 3399 01d4 CE000000 		.4byte	0xce
 3400 01d8 04       		.byte	0x4
 3401 01d9 0B       		.uleb128 0xb
 3402 01da 600A0000 		.4byte	.LASF34
 3403 01de 0A       		.byte	0xa
 3404 01df 2D       		.byte	0x2d
 3405 01e0 CE000000 		.4byte	0xce
 3406 01e4 06       		.byte	0x6
 3407 01e5 0B       		.uleb128 0xb
 3408 01e6 480A0000 		.4byte	.LASF35
 3409 01ea 0A       		.byte	0xa
 3410 01eb 2E       		.byte	0x2e
 3411 01ec CE000000 		.4byte	0xce
 3412 01f0 08       		.byte	0x8
 3413 01f1 0B       		.uleb128 0xb
 3414 01f2 71140000 		.4byte	.LASF36
 3415 01f6 0A       		.byte	0xa
 3416 01f7 2F       		.byte	0x2f
 3417 01f8 C3000000 		.4byte	0xc3
 3418 01fc 0A       		.byte	0xa
 3419 01fd 0B       		.uleb128 0xb
 3420 01fe 77140000 		.4byte	.LASF37
 3421 0202 0A       		.byte	0xa
 3422 0203 30       		.byte	0x30
 3423 0204 C3000000 		.4byte	0xc3
 3424 0208 0C       		.byte	0xc
 3425 0209 0C       		.uleb128 0xc
 3426 020a 62707000 		.ascii	"bpp\000"
 3427 020e 0A       		.byte	0xa
 3428 020f 31       		.byte	0x31
 3429 0210 B8000000 		.4byte	0xb8
 3430 0214 01       		.byte	0x1
 3431 0215 04       		.byte	0x4
 3432 0216 04       		.byte	0x4
 3433 0217 0E       		.byte	0xe
 3434 0218 0D       		.uleb128 0xd
 3435 0219 F1180000 		.4byte	.LASF38
 3436 021d 0A       		.byte	0xa
 3437 021e 32       		.byte	0x32
 3438 021f B8000000 		.4byte	0xb8
 3439 0223 01       		.byte	0x1
 3440 0224 01       		.byte	0x1
 3441 0225 03       		.byte	0x3
 3442 0226 0E       		.byte	0xe
 3443 0227 00       		.byte	0
 3444 0228 0E       		.uleb128 0xe
 3445 0229 D91F0000 		.4byte	.LASF194
 3446 022d 1C       		.byte	0x1c
 3447 022e 0A       		.byte	0xa
 3448 022f 40       		.byte	0x40
 3449 0230 B0020000 		.4byte	0x2b0
 3450 0234 0B       		.uleb128 0xb
 3451 0235 841D0000 		.4byte	.LASF39
 3452 0239 0A       		.byte	0xa
 3453 023a 42       		.byte	0x42
ARM GAS  C:\Users\haske\AppData\Local\Temp\ccXBxzcA.s 			page 98


 3454 023b F1020000 		.4byte	0x2f1
 3455 023f 00       		.byte	0
 3456 0240 0B       		.uleb128 0xb
 3457 0241 C4180000 		.4byte	.LASF40
 3458 0245 0A       		.byte	0xa
 3459 0246 45       		.byte	0x45
 3460 0247 16030000 		.4byte	0x316
 3461 024b 04       		.byte	0x4
 3462 024c 0B       		.uleb128 0xb
 3463 024d FD160000 		.4byte	.LASF41
 3464 0251 0A       		.byte	0xa
 3465 0252 48       		.byte	0x48
 3466 0253 3B010000 		.4byte	0x13b
 3467 0257 08       		.byte	0x8
 3468 0258 0B       		.uleb128 0xb
 3469 0259 6C1B0000 		.4byte	.LASF42
 3470 025d 0A       		.byte	0xa
 3471 025e 49       		.byte	0x49
 3472 025f 3B010000 		.4byte	0x13b
 3473 0263 0A       		.byte	0xa
 3474 0264 0D       		.uleb128 0xd
 3475 0265 61030000 		.4byte	.LASF43
 3476 0269 0A       		.byte	0xa
 3477 026a 4A       		.byte	0x4a
 3478 026b B8000000 		.4byte	0xb8
 3479 026f 01       		.byte	0x1
 3480 0270 02       		.byte	0x2
 3481 0271 06       		.byte	0x6
 3482 0272 0C       		.byte	0xc
 3483 0273 0B       		.uleb128 0xb
 3484 0274 24090000 		.4byte	.LASF44
 3485 0278 0A       		.byte	0xa
 3486 0279 4C       		.byte	0x4c
 3487 027a AD000000 		.4byte	0xad
 3488 027e 0D       		.byte	0xd
 3489 027f 0B       		.uleb128 0xb
 3490 0280 69010000 		.4byte	.LASF45
 3491 0284 0A       		.byte	0xa
 3492 0285 4D       		.byte	0x4d
 3493 0286 AD000000 		.4byte	0xad
 3494 028a 0E       		.byte	0xe
 3495 028b 0A       		.uleb128 0xa
 3496 028c 64736300 		.ascii	"dsc\000"
 3497 0290 0A       		.byte	0xa
 3498 0291 4F       		.byte	0x4f
 3499 0292 1C030000 		.4byte	0x31c
 3500 0296 10       		.byte	0x10
 3501 0297 0B       		.uleb128 0xb
 3502 0298 4C030000 		.4byte	.LASF46
 3503 029c 0A       		.byte	0xa
 3504 029d 50       		.byte	0x50
 3505 029e B0020000 		.4byte	0x2b0
 3506 02a2 14       		.byte	0x14
 3507 02a3 0B       		.uleb128 0xb
 3508 02a4 3D190000 		.4byte	.LASF47
 3509 02a8 0A       		.byte	0xa
 3510 02a9 52       		.byte	0x52
ARM GAS  C:\Users\haske\AppData\Local\Temp\ccXBxzcA.s 			page 99


 3511 02aa 13010000 		.4byte	0x113
 3512 02ae 18       		.byte	0x18
 3513 02af 00       		.byte	0
 3514 02b0 08       		.uleb128 0x8
 3515 02b1 04       		.byte	0x4
 3516 02b2 B6020000 		.4byte	0x2b6
 3517 02b6 0F       		.uleb128 0xf
 3518 02b7 28020000 		.4byte	0x228
 3519 02bb 02       		.uleb128 0x2
 3520 02bc E4010000 		.4byte	.LASF48
 3521 02c0 0A       		.byte	0xa
 3522 02c1 33       		.byte	0x33
 3523 02c2 B9010000 		.4byte	0x1b9
 3524 02c6 10       		.uleb128 0x10
 3525 02c7 E4020000 		.4byte	0x2e4
 3526 02cb E4020000 		.4byte	0x2e4
 3527 02cf 11       		.uleb128 0x11
 3528 02d0 B0020000 		.4byte	0x2b0
 3529 02d4 11       		.uleb128 0x11
 3530 02d5 EB020000 		.4byte	0x2eb
 3531 02d9 11       		.uleb128 0x11
 3532 02da E4000000 		.4byte	0xe4
 3533 02de 11       		.uleb128 0x11
 3534 02df E4000000 		.4byte	0xe4
 3535 02e3 00       		.byte	0
 3536 02e4 03       		.uleb128 0x3
 3537 02e5 01       		.byte	0x1
 3538 02e6 02       		.byte	0x2
 3539 02e7 EE000000 		.4byte	.LASF49
 3540 02eb 08       		.uleb128 0x8
 3541 02ec 04       		.byte	0x4
 3542 02ed BB020000 		.4byte	0x2bb
 3543 02f1 08       		.uleb128 0x8
 3544 02f2 04       		.byte	0x4
 3545 02f3 C6020000 		.4byte	0x2c6
 3546 02f7 10       		.uleb128 0x10
 3547 02f8 0B030000 		.4byte	0x30b
 3548 02fc 0B030000 		.4byte	0x30b
 3549 0300 11       		.uleb128 0x11
 3550 0301 B0020000 		.4byte	0x2b0
 3551 0305 11       		.uleb128 0x11
 3552 0306 E4000000 		.4byte	0xe4
 3553 030a 00       		.byte	0
 3554 030b 08       		.uleb128 0x8
 3555 030c 04       		.byte	0x4
 3556 030d 11030000 		.4byte	0x311
 3557 0311 0F       		.uleb128 0xf
 3558 0312 B8000000 		.4byte	0xb8
 3559 0316 08       		.uleb128 0x8
 3560 0317 04       		.byte	0x4
 3561 0318 F7020000 		.4byte	0x2f7
 3562 031c 08       		.uleb128 0x8
 3563 031d 04       		.byte	0x4
 3564 031e 22030000 		.4byte	0x322
 3565 0322 12       		.uleb128 0x12
 3566 0323 02       		.uleb128 0x2
 3567 0324 BA170000 		.4byte	.LASF50
ARM GAS  C:\Users\haske\AppData\Local\Temp\ccXBxzcA.s 			page 100


 3568 0328 0A       		.byte	0xa
 3569 0329 54       		.byte	0x54
 3570 032a 28020000 		.4byte	0x228
 3571 032e 05       		.uleb128 0x5
 3572 032f 01       		.byte	0x1
 3573 0330 42000000 		.4byte	0x42
 3574 0334 04       		.byte	0x4
 3575 0335 29       		.byte	0x29
 3576 0336 89030000 		.4byte	0x389
 3577 033a 06       		.uleb128 0x6
 3578 033b 081C0000 		.4byte	.LASF51
 3579 033f 00       		.byte	0
 3580 0340 06       		.uleb128 0x6
 3581 0341 EE230000 		.4byte	.LASF52
 3582 0345 00       		.byte	0
 3583 0346 06       		.uleb128 0x6
 3584 0347 0F1A0000 		.4byte	.LASF53
 3585 034b 19       		.byte	0x19
 3586 034c 06       		.uleb128 0x6
 3587 034d D01A0000 		.4byte	.LASF54
 3588 0351 33       		.byte	0x33
 3589 0352 06       		.uleb128 0x6
 3590 0353 481B0000 		.4byte	.LASF55
 3591 0357 4C       		.byte	0x4c
 3592 0358 06       		.uleb128 0x6
 3593 0359 E61B0000 		.4byte	.LASF56
 3594 035d 66       		.byte	0x66
 3595 035e 06       		.uleb128 0x6
 3596 035f 8E1C0000 		.4byte	.LASF57
 3597 0363 7F       		.byte	0x7f
 3598 0364 06       		.uleb128 0x6
 3599 0365 FF1C0000 		.4byte	.LASF58
 3600 0369 99       		.byte	0x99
 3601 036a 06       		.uleb128 0x6
 3602 036b DD1D0000 		.4byte	.LASF59
 3603 036f B2       		.byte	0xb2
 3604 0370 06       		.uleb128 0x6
 3605 0371 731E0000 		.4byte	.LASF60
 3606 0375 CC       		.byte	0xcc
 3607 0376 06       		.uleb128 0x6
 3608 0377 E41F0000 		.4byte	.LASF61
 3609 037b E5       		.byte	0xe5
 3610 037c 06       		.uleb128 0x6
 3611 037d F0210000 		.4byte	.LASF62
 3612 0381 FF       		.byte	0xff
 3613 0382 06       		.uleb128 0x6
 3614 0383 4A250000 		.4byte	.LASF63
 3615 0387 FF       		.byte	0xff
 3616 0388 00       		.byte	0
 3617 0389 09       		.uleb128 0x9
 3618 038a 02       		.byte	0x2
 3619 038b 04       		.byte	0x4
 3620 038c D1       		.byte	0xd1
 3621 038d BF030000 		.4byte	0x3bf
 3622 0391 0D       		.uleb128 0xd
 3623 0392 E9230000 		.4byte	.LASF64
 3624 0396 04       		.byte	0x4
ARM GAS  C:\Users\haske\AppData\Local\Temp\ccXBxzcA.s 			page 101


 3625 0397 D3       		.byte	0xd3
 3626 0398 CE000000 		.4byte	0xce
 3627 039c 02       		.byte	0x2
 3628 039d 05       		.byte	0x5
 3629 039e 0B       		.byte	0xb
 3630 039f 00       		.byte	0
 3631 03a0 0D       		.uleb128 0xd
 3632 03a1 C4150000 		.4byte	.LASF65
 3633 03a5 04       		.byte	0x4
 3634 03a6 D4       		.byte	0xd4
 3635 03a7 CE000000 		.4byte	0xce
 3636 03ab 02       		.byte	0x2
 3637 03ac 06       		.byte	0x6
 3638 03ad 05       		.byte	0x5
 3639 03ae 00       		.byte	0
 3640 03af 0C       		.uleb128 0xc
 3641 03b0 72656400 		.ascii	"red\000"
 3642 03b4 04       		.byte	0x4
 3643 03b5 D5       		.byte	0xd5
 3644 03b6 CE000000 		.4byte	0xce
 3645 03ba 02       		.byte	0x2
 3646 03bb 05       		.byte	0x5
 3647 03bc 00       		.byte	0
 3648 03bd 00       		.byte	0
 3649 03be 00       		.byte	0
 3650 03bf 13       		.uleb128 0x13
 3651 03c0 02       		.byte	0x2
 3652 03c1 04       		.byte	0x4
 3653 03c2 D0       		.byte	0xd0
 3654 03c3 DD030000 		.4byte	0x3dd
 3655 03c7 14       		.uleb128 0x14
 3656 03c8 636800   		.ascii	"ch\000"
 3657 03cb 04       		.byte	0x4
 3658 03cc DC       		.byte	0xdc
 3659 03cd 89030000 		.4byte	0x389
 3660 03d1 15       		.uleb128 0x15
 3661 03d2 1F160000 		.4byte	.LASF66
 3662 03d6 04       		.byte	0x4
 3663 03d7 DD       		.byte	0xdd
 3664 03d8 CE000000 		.4byte	0xce
 3665 03dc 00       		.byte	0
 3666 03dd 02       		.uleb128 0x2
 3667 03de AB0A0000 		.4byte	.LASF67
 3668 03e2 04       		.byte	0x4
 3669 03e3 DE       		.byte	0xde
 3670 03e4 BF030000 		.4byte	0x3bf
 3671 03e8 02       		.uleb128 0x2
 3672 03e9 3D0A0000 		.4byte	.LASF68
 3673 03ed 04       		.byte	0x4
 3674 03ee EB       		.byte	0xeb
 3675 03ef DD030000 		.4byte	0x3dd
 3676 03f3 02       		.uleb128 0x2
 3677 03f4 47190000 		.4byte	.LASF69
 3678 03f8 04       		.byte	0x4
 3679 03f9 F5       		.byte	0xf5
 3680 03fa B8000000 		.4byte	0xb8
 3681 03fe 05       		.uleb128 0x5
ARM GAS  C:\Users\haske\AppData\Local\Temp\ccXBxzcA.s 			page 102


 3682 03ff 01       		.byte	0x1
 3683 0400 42000000 		.4byte	0x42
 3684 0404 0B       		.byte	0xb
 3685 0405 2A       		.byte	0x2a
 3686 0406 23040000 		.4byte	0x423
 3687 040a 06       		.uleb128 0x6
 3688 040b 9C0C0000 		.4byte	.LASF70
 3689 040f 00       		.byte	0
 3690 0410 06       		.uleb128 0x6
 3691 0411 891F0000 		.4byte	.LASF71
 3692 0415 01       		.byte	0x1
 3693 0416 06       		.uleb128 0x6
 3694 0417 E60E0000 		.4byte	.LASF72
 3695 041b 02       		.byte	0x2
 3696 041c 06       		.uleb128 0x6
 3697 041d 8B170000 		.4byte	.LASF73
 3698 0421 04       		.byte	0x4
 3699 0422 00       		.byte	0
 3700 0423 02       		.uleb128 0x2
 3701 0424 660A0000 		.4byte	.LASF74
 3702 0428 0B       		.byte	0xb
 3703 0429 30       		.byte	0x30
 3704 042a B8000000 		.4byte	0xb8
 3705 042e 02       		.uleb128 0x2
 3706 042f B5000000 		.4byte	.LASF75
 3707 0433 0B       		.byte	0xb
 3708 0434 42       		.byte	0x42
 3709 0435 B8000000 		.4byte	0xb8
 3710 0439 02       		.uleb128 0x2
 3711 043a C01C0000 		.4byte	.LASF76
 3712 043e 0C       		.byte	0xc
 3713 043f 2A       		.byte	0x2a
 3714 0440 B8000000 		.4byte	0xb8
 3715 0444 02       		.uleb128 0x2
 3716 0445 8A230000 		.4byte	.LASF77
 3717 0449 0D       		.byte	0xd
 3718 044a 5E       		.byte	0x5e
 3719 044b B8000000 		.4byte	0xb8
 3720 044f 02       		.uleb128 0x2
 3721 0450 A8090000 		.4byte	.LASF78
 3722 0454 0D       		.byte	0xd
 3723 0455 6A       		.byte	0x6a
 3724 0456 B8000000 		.4byte	0xb8
 3725 045a 02       		.uleb128 0x2
 3726 045b 13090000 		.4byte	.LASF79
 3727 045f 0D       		.byte	0xd
 3728 0460 79       		.byte	0x79
 3729 0461 B8000000 		.4byte	0xb8
 3730 0465 02       		.uleb128 0x2
 3731 0466 49070000 		.4byte	.LASF80
 3732 046a 0D       		.byte	0xd
 3733 046b 84       		.byte	0x84
 3734 046c B8000000 		.4byte	0xb8
 3735 0470 02       		.uleb128 0x2
 3736 0471 CE1C0000 		.4byte	.LASF81
 3737 0475 0D       		.byte	0xd
 3738 0476 90       		.byte	0x90
ARM GAS  C:\Users\haske\AppData\Local\Temp\ccXBxzcA.s 			page 103


 3739 0477 B8000000 		.4byte	0xb8
 3740 047b 09       		.uleb128 0x9
 3741 047c 04       		.byte	0x4
 3742 047d 0D       		.byte	0xd
 3743 047e 95       		.byte	0x95
 3744 047f 9C040000 		.4byte	0x49c
 3745 0483 0B       		.uleb128 0xb
 3746 0484 421B0000 		.4byte	.LASF82
 3747 0488 0D       		.byte	0xd
 3748 0489 96       		.byte	0x96
 3749 048a E8030000 		.4byte	0x3e8
 3750 048e 00       		.byte	0
 3751 048f 0B       		.uleb128 0xb
 3752 0490 55030000 		.4byte	.LASF83
 3753 0494 0D       		.byte	0xd
 3754 0495 97       		.byte	0x97
 3755 0496 B8000000 		.4byte	0xb8
 3756 049a 02       		.byte	0x2
 3757 049b 00       		.byte	0
 3758 049c 02       		.uleb128 0x2
 3759 049d 19150000 		.4byte	.LASF84
 3760 04a1 0D       		.byte	0xd
 3761 04a2 98       		.byte	0x98
 3762 04a3 7B040000 		.4byte	0x47b
 3763 04a7 09       		.uleb128 0x9
 3764 04a8 0A       		.byte	0xa
 3765 04a9 0D       		.byte	0xd
 3766 04aa 9B       		.byte	0x9b
 3767 04ab E6040000 		.4byte	0x4e6
 3768 04af 0B       		.uleb128 0xb
 3769 04b0 26220000 		.4byte	.LASF85
 3770 04b4 0D       		.byte	0xd
 3771 04b5 9C       		.byte	0x9c
 3772 04b6 E6040000 		.4byte	0x4e6
 3773 04ba 00       		.byte	0
 3774 04bb 0B       		.uleb128 0xb
 3775 04bc 83100000 		.4byte	.LASF86
 3776 04c0 0D       		.byte	0xd
 3777 04c1 9D       		.byte	0x9d
 3778 04c2 B8000000 		.4byte	0xb8
 3779 04c6 08       		.byte	0x8
 3780 04c7 0C       		.uleb128 0xc
 3781 04c8 64697200 		.ascii	"dir\000"
 3782 04cc 0D       		.byte	0xd
 3783 04cd 9E       		.byte	0x9e
 3784 04ce 65040000 		.4byte	0x465
 3785 04d2 01       		.byte	0x1
 3786 04d3 03       		.byte	0x3
 3787 04d4 05       		.byte	0x5
 3788 04d5 09       		.byte	0x9
 3789 04d6 0D       		.uleb128 0xd
 3790 04d7 A4220000 		.4byte	.LASF87
 3791 04db 0D       		.byte	0xd
 3792 04dc A0       		.byte	0xa0
 3793 04dd 70040000 		.4byte	0x470
 3794 04e1 01       		.byte	0x1
 3795 04e2 03       		.byte	0x3
ARM GAS  C:\Users\haske\AppData\Local\Temp\ccXBxzcA.s 			page 104


 3796 04e3 02       		.byte	0x2
 3797 04e4 09       		.byte	0x9
 3798 04e5 00       		.byte	0
 3799 04e6 16       		.uleb128 0x16
 3800 04e7 9C040000 		.4byte	0x49c
 3801 04eb F6040000 		.4byte	0x4f6
 3802 04ef 17       		.uleb128 0x17
 3803 04f0 27010000 		.4byte	0x127
 3804 04f4 01       		.byte	0x1
 3805 04f5 00       		.byte	0
 3806 04f6 02       		.uleb128 0x2
 3807 04f7 24160000 		.4byte	.LASF88
 3808 04fb 0D       		.byte	0xd
 3809 04fc A2       		.byte	0xa2
 3810 04fd A7040000 		.4byte	0x4a7
 3811 0501 13       		.uleb128 0x13
 3812 0502 04       		.byte	0x4
 3813 0503 0D       		.byte	0xd
 3814 0504 A7       		.byte	0xa7
 3815 0505 2B050000 		.4byte	0x52b
 3816 0509 14       		.uleb128 0x14
 3817 050a 6E756D00 		.ascii	"num\000"
 3818 050e 0D       		.byte	0xd
 3819 050f A8       		.byte	0xa8
 3820 0510 D9000000 		.4byte	0xd9
 3821 0514 14       		.uleb128 0x14
 3822 0515 70747200 		.ascii	"ptr\000"
 3823 0519 0D       		.byte	0xd
 3824 051a A9       		.byte	0xa9
 3825 051b 1C030000 		.4byte	0x31c
 3826 051f 15       		.uleb128 0x15
 3827 0520 421B0000 		.4byte	.LASF82
 3828 0524 0D       		.byte	0xd
 3829 0525 AA       		.byte	0xaa
 3830 0526 E8030000 		.4byte	0x3e8
 3831 052a 00       		.byte	0
 3832 052b 02       		.uleb128 0x2
 3833 052c 3E240000 		.4byte	.LASF89
 3834 0530 0D       		.byte	0xd
 3835 0531 AB       		.byte	0xab
 3836 0532 01050000 		.4byte	0x501
 3837 0536 05       		.uleb128 0x5
 3838 0537 02       		.byte	0x2
 3839 0538 66000000 		.4byte	0x66
 3840 053c 0D       		.byte	0xd
 3841 053d B2       		.byte	0xb2
 3842 053e 5B070000 		.4byte	0x75b
 3843 0542 06       		.uleb128 0x6
 3844 0543 EE240000 		.4byte	.LASF90
 3845 0547 00       		.byte	0
 3846 0548 06       		.uleb128 0x6
 3847 0549 151B0000 		.4byte	.LASF91
 3848 054d 01       		.byte	0x1
 3849 054e 06       		.uleb128 0x6
 3850 054f 74050000 		.4byte	.LASF92
 3851 0553 02       		.byte	0x2
 3852 0554 06       		.uleb128 0x6
ARM GAS  C:\Users\haske\AppData\Local\Temp\ccXBxzcA.s 			page 105


 3853 0555 CC030000 		.4byte	.LASF93
 3854 0559 03       		.byte	0x3
 3855 055a 06       		.uleb128 0x6
 3856 055b 9C060000 		.4byte	.LASF94
 3857 055f 04       		.byte	0x4
 3858 0560 06       		.uleb128 0x6
 3859 0561 C0260000 		.4byte	.LASF95
 3860 0565 05       		.byte	0x5
 3861 0566 06       		.uleb128 0x6
 3862 0567 94180000 		.4byte	.LASF96
 3863 056b 06       		.byte	0x6
 3864 056c 06       		.uleb128 0x6
 3865 056d 2D060000 		.4byte	.LASF97
 3866 0571 07       		.byte	0x7
 3867 0572 06       		.uleb128 0x6
 3868 0573 38060000 		.4byte	.LASF98
 3869 0577 08       		.byte	0x8
 3870 0578 06       		.uleb128 0x6
 3871 0579 F5130000 		.4byte	.LASF99
 3872 057d 09       		.byte	0x9
 3873 057e 06       		.uleb128 0x6
 3874 057f 77000000 		.4byte	.LASF100
 3875 0583 0A       		.byte	0xa
 3876 0584 06       		.uleb128 0x6
 3877 0585 FC1D0000 		.4byte	.LASF101
 3878 0589 0B       		.byte	0xb
 3879 058a 06       		.uleb128 0x6
 3880 058b 161C0000 		.4byte	.LASF102
 3881 058f 10       		.byte	0x10
 3882 0590 06       		.uleb128 0x6
 3883 0591 FB210000 		.4byte	.LASF103
 3884 0595 11       		.byte	0x11
 3885 0596 06       		.uleb128 0x6
 3886 0597 ED1C0000 		.4byte	.LASF104
 3887 059b 12       		.byte	0x12
 3888 059c 06       		.uleb128 0x6
 3889 059d 3E130000 		.4byte	.LASF105
 3890 05a1 13       		.byte	0x13
 3891 05a2 06       		.uleb128 0x6
 3892 05a3 2A140000 		.4byte	.LASF106
 3893 05a7 14       		.byte	0x14
 3894 05a8 06       		.uleb128 0x6
 3895 05a9 B9010000 		.4byte	.LASF107
 3896 05ad 15       		.byte	0x15
 3897 05ae 06       		.uleb128 0x6
 3898 05af 14130000 		.4byte	.LASF108
 3899 05b3 16       		.byte	0x16
 3900 05b4 06       		.uleb128 0x6
 3901 05b5 4B200000 		.4byte	.LASF109
 3902 05b9 17       		.byte	0x17
 3903 05ba 06       		.uleb128 0x6
 3904 05bb D2220000 		.4byte	.LASF110
 3905 05bf 20       		.byte	0x20
 3906 05c0 06       		.uleb128 0x6
 3907 05c1 54140000 		.4byte	.LASF111
 3908 05c5 21       		.byte	0x21
 3909 05c6 06       		.uleb128 0x6
ARM GAS  C:\Users\haske\AppData\Local\Temp\ccXBxzcA.s 			page 106


 3910 05c7 67060000 		.4byte	.LASF112
 3911 05cb 22       		.byte	0x22
 3912 05cc 06       		.uleb128 0x6
 3913 05cd CC060000 		.4byte	.LASF113
 3914 05d1 23       		.byte	0x23
 3915 05d2 06       		.uleb128 0x6
 3916 05d3 90010000 		.4byte	.LASF114
 3917 05d7 24       		.byte	0x24
 3918 05d8 06       		.uleb128 0x6
 3919 05d9 660F0000 		.4byte	.LASF115
 3920 05dd 25       		.byte	0x25
 3921 05de 06       		.uleb128 0x6
 3922 05df E8140000 		.4byte	.LASF116
 3923 05e3 26       		.byte	0x26
 3924 05e4 06       		.uleb128 0x6
 3925 05e5 1A0D0000 		.4byte	.LASF117
 3926 05e9 27       		.byte	0x27
 3927 05ea 06       		.uleb128 0x6
 3928 05eb C4120000 		.4byte	.LASF118
 3929 05ef 28       		.byte	0x28
 3930 05f0 06       		.uleb128 0x6
 3931 05f1 82020000 		.4byte	.LASF119
 3932 05f5 29       		.byte	0x29
 3933 05f6 06       		.uleb128 0x6
 3934 05f7 90090000 		.4byte	.LASF120
 3935 05fb 2A       		.byte	0x2a
 3936 05fc 06       		.uleb128 0x6
 3937 05fd 0B230000 		.4byte	.LASF121
 3938 0601 2B       		.byte	0x2b
 3939 0602 06       		.uleb128 0x6
 3940 0603 8F120000 		.4byte	.LASF122
 3941 0607 2C       		.byte	0x2c
 3942 0608 06       		.uleb128 0x6
 3943 0609 AB220000 		.4byte	.LASF123
 3944 060d 30       		.byte	0x30
 3945 060e 06       		.uleb128 0x6
 3946 060f 05150000 		.4byte	.LASF124
 3947 0613 31       		.byte	0x31
 3948 0614 06       		.uleb128 0x6
 3949 0615 96150000 		.4byte	.LASF125
 3950 0619 32       		.byte	0x32
 3951 061a 06       		.uleb128 0x6
 3952 061b 1B0C0000 		.4byte	.LASF126
 3953 061f 33       		.byte	0x33
 3954 0620 06       		.uleb128 0x6
 3955 0621 B41B0000 		.4byte	.LASF127
 3956 0625 34       		.byte	0x34
 3957 0626 06       		.uleb128 0x6
 3958 0627 FA100000 		.4byte	.LASF128
 3959 062b 35       		.byte	0x35
 3960 062c 06       		.uleb128 0x6
 3961 062d 961E0000 		.4byte	.LASF129
 3962 0631 36       		.byte	0x36
 3963 0632 06       		.uleb128 0x6
 3964 0633 5E260000 		.4byte	.LASF130
 3965 0637 37       		.byte	0x37
 3966 0638 06       		.uleb128 0x6
ARM GAS  C:\Users\haske\AppData\Local\Temp\ccXBxzcA.s 			page 107


 3967 0639 03210000 		.4byte	.LASF131
 3968 063d 38       		.byte	0x38
 3969 063e 06       		.uleb128 0x6
 3970 063f D4260000 		.4byte	.LASF132
 3971 0643 40       		.byte	0x40
 3972 0644 06       		.uleb128 0x6
 3973 0645 451A0000 		.4byte	.LASF133
 3974 0649 41       		.byte	0x41
 3975 064a 06       		.uleb128 0x6
 3976 064b 5B1A0000 		.4byte	.LASF134
 3977 064f 42       		.byte	0x42
 3978 0650 06       		.uleb128 0x6
 3979 0651 2B1B0000 		.4byte	.LASF135
 3980 0655 43       		.byte	0x43
 3981 0656 06       		.uleb128 0x6
 3982 0657 8D0B0000 		.4byte	.LASF136
 3983 065b 44       		.byte	0x44
 3984 065c 06       		.uleb128 0x6
 3985 065d B0180000 		.4byte	.LASF137
 3986 0661 45       		.byte	0x45
 3987 0662 06       		.uleb128 0x6
 3988 0663 3A210000 		.4byte	.LASF138
 3989 0667 46       		.byte	0x46
 3990 0668 06       		.uleb128 0x6
 3991 0669 F0080000 		.4byte	.LASF139
 3992 066d 47       		.byte	0x47
 3993 066e 06       		.uleb128 0x6
 3994 066f A1210000 		.4byte	.LASF140
 3995 0673 48       		.byte	0x48
 3996 0674 06       		.uleb128 0x6
 3997 0675 A9030000 		.4byte	.LASF141
 3998 0679 49       		.byte	0x49
 3999 067a 06       		.uleb128 0x6
 4000 067b 010D0000 		.4byte	.LASF142
 4001 067f 4A       		.byte	0x4a
 4002 0680 06       		.uleb128 0x6
 4003 0681 091D0000 		.4byte	.LASF143
 4004 0685 4B       		.byte	0x4b
 4005 0686 06       		.uleb128 0x6
 4006 0687 F3030000 		.4byte	.LASF144
 4007 068b 4C       		.byte	0x4c
 4008 068c 06       		.uleb128 0x6
 4009 068d A60F0000 		.4byte	.LASF145
 4010 0691 4D       		.byte	0x4d
 4011 0692 06       		.uleb128 0x6
 4012 0693 A81A0000 		.4byte	.LASF146
 4013 0697 4E       		.byte	0x4e
 4014 0698 06       		.uleb128 0x6
 4015 0699 3E260000 		.4byte	.LASF147
 4016 069d 50       		.byte	0x50
 4017 069e 06       		.uleb128 0x6
 4018 069f 301A0000 		.4byte	.LASF148
 4019 06a3 51       		.byte	0x51
 4020 06a4 06       		.uleb128 0x6
 4021 06a5 D80A0000 		.4byte	.LASF149
 4022 06a9 52       		.byte	0x52
 4023 06aa 06       		.uleb128 0x6
ARM GAS  C:\Users\haske\AppData\Local\Temp\ccXBxzcA.s 			page 108


 4024 06ab CA080000 		.4byte	.LASF150
 4025 06af 53       		.byte	0x53
 4026 06b0 06       		.uleb128 0x6
 4027 06b1 C5200000 		.4byte	.LASF151
 4028 06b5 54       		.byte	0x54
 4029 06b6 06       		.uleb128 0x6
 4030 06b7 891B0000 		.4byte	.LASF152
 4031 06bb 55       		.byte	0x55
 4032 06bc 06       		.uleb128 0x6
 4033 06bd 660B0000 		.4byte	.LASF153
 4034 06c1 56       		.byte	0x56
 4035 06c2 06       		.uleb128 0x6
 4036 06c3 08030000 		.4byte	.LASF154
 4037 06c7 57       		.byte	0x57
 4038 06c8 06       		.uleb128 0x6
 4039 06c9 CB0E0000 		.4byte	.LASF155
 4040 06cd 58       		.byte	0x58
 4041 06ce 06       		.uleb128 0x6
 4042 06cf 92240000 		.4byte	.LASF156
 4043 06d3 59       		.byte	0x59
 4044 06d4 06       		.uleb128 0x6
 4045 06d5 300C0000 		.4byte	.LASF157
 4046 06d9 5A       		.byte	0x5a
 4047 06da 06       		.uleb128 0x6
 4048 06db 02080000 		.4byte	.LASF158
 4049 06df 5B       		.byte	0x5b
 4050 06e0 06       		.uleb128 0x6
 4051 06e1 84040000 		.4byte	.LASF159
 4052 06e5 60       		.byte	0x60
 4053 06e6 06       		.uleb128 0x6
 4054 06e7 8C250000 		.4byte	.LASF160
 4055 06eb 61       		.byte	0x61
 4056 06ec 06       		.uleb128 0x6
 4057 06ed 1C260000 		.4byte	.LASF161
 4058 06f1 62       		.byte	0x62
 4059 06f2 06       		.uleb128 0x6
 4060 06f3 2B1D0000 		.4byte	.LASF162
 4061 06f7 63       		.byte	0x63
 4062 06f8 06       		.uleb128 0x6
 4063 06f9 4A0F0000 		.4byte	.LASF163
 4064 06fd 64       		.byte	0x64
 4065 06fe 06       		.uleb128 0x6
 4066 06ff 06050000 		.4byte	.LASF164
 4067 0703 65       		.byte	0x65
 4068 0704 06       		.uleb128 0x6
 4069 0705 00130000 		.4byte	.LASF165
 4070 0709 66       		.byte	0x66
 4071 070a 06       		.uleb128 0x6
 4072 070b 87050000 		.4byte	.LASF166
 4073 070f 67       		.byte	0x67
 4074 0710 06       		.uleb128 0x6
 4075 0711 79030000 		.4byte	.LASF167
 4076 0715 68       		.byte	0x68
 4077 0716 06       		.uleb128 0x6
 4078 0717 F8010000 		.4byte	.LASF168
 4079 071b 69       		.byte	0x69
 4080 071c 06       		.uleb128 0x6
ARM GAS  C:\Users\haske\AppData\Local\Temp\ccXBxzcA.s 			page 109


 4081 071d 8C0E0000 		.4byte	.LASF169
 4082 0721 6A       		.byte	0x6a
 4083 0722 06       		.uleb128 0x6
 4084 0723 A10E0000 		.4byte	.LASF170
 4085 0727 6B       		.byte	0x6b
 4086 0728 06       		.uleb128 0x6
 4087 0729 F01B0000 		.4byte	.LASF171
 4088 072d 6C       		.byte	0x6c
 4089 072e 06       		.uleb128 0x6
 4090 072f 1E1E0000 		.4byte	.LASF172
 4091 0733 6D       		.byte	0x6d
 4092 0734 06       		.uleb128 0x6
 4093 0735 581C0000 		.4byte	.LASF173
 4094 0739 6E       		.byte	0x6e
 4095 073a 06       		.uleb128 0x6
 4096 073b 731C0000 		.4byte	.LASF174
 4097 073f 6F       		.byte	0x6f
 4098 0740 06       		.uleb128 0x6
 4099 0741 B8090000 		.4byte	.LASF175
 4100 0745 6F       		.byte	0x6f
 4101 0746 06       		.uleb128 0x6
 4102 0747 2D0F0000 		.4byte	.LASF176
 4103 074b 70       		.byte	0x70
 4104 074c 18       		.uleb128 0x18
 4105 074d 7E060000 		.4byte	.LASF177
 4106 0751 FFFF     		.2byte	0xffff
 4107 0753 18       		.uleb128 0x18
 4108 0754 62040000 		.4byte	.LASF178
 4109 0758 FFFF     		.2byte	0xffff
 4110 075a 00       		.byte	0
 4111 075b 19       		.uleb128 0x19
 4112 075c 21180000 		.4byte	.LASF179
 4113 0760 0D       		.byte	0xd
 4114 0761 1C01     		.2byte	0x11c
 4115 0763 36050000 		.4byte	0x536
 4116 0767 1A       		.uleb128 0x1a
 4117 0768 08       		.byte	0x8
 4118 0769 0D       		.byte	0xd
 4119 076a 3601     		.2byte	0x136
 4120 076c 8B070000 		.4byte	0x78b
 4121 0770 1B       		.uleb128 0x1b
 4122 0771 29050000 		.4byte	.LASF180
 4123 0775 0D       		.byte	0xd
 4124 0776 3701     		.2byte	0x137
 4125 0778 5B070000 		.4byte	0x75b
 4126 077c 00       		.byte	0
 4127 077d 1B       		.uleb128 0x1b
 4128 077e DF0F0000 		.4byte	.LASF181
 4129 0782 0D       		.byte	0xd
 4130 0783 3801     		.2byte	0x138
 4131 0785 2B050000 		.4byte	0x52b
 4132 0789 04       		.byte	0x4
 4133 078a 00       		.byte	0
 4134 078b 19       		.uleb128 0x19
 4135 078c 9F130000 		.4byte	.LASF182
 4136 0790 0D       		.byte	0xd
 4137 0791 3901     		.2byte	0x139
ARM GAS  C:\Users\haske\AppData\Local\Temp\ccXBxzcA.s 			page 110


 4138 0793 67070000 		.4byte	0x767
 4139 0797 1C       		.uleb128 0x1c
 4140 0798 04       		.byte	0x4
 4141 0799 0D       		.byte	0xd
 4142 079a 4601     		.2byte	0x146
 4143 079c C5070000 		.4byte	0x7c5
 4144 07a0 1D       		.uleb128 0x1d
 4145 07a1 5B040000 		.4byte	.LASF183
 4146 07a5 0D       		.byte	0xd
 4147 07a6 4701     		.2byte	0x147
 4148 07a8 2B050000 		.4byte	0x52b
 4149 07ac 1D       		.uleb128 0x1d
 4150 07ad 0E160000 		.4byte	.LASF184
 4151 07b1 0D       		.byte	0xd
 4152 07b2 4801     		.2byte	0x148
 4153 07b4 C5070000 		.4byte	0x7c5
 4154 07b8 1D       		.uleb128 0x1d
 4155 07b9 A2260000 		.4byte	.LASF185
 4156 07bd 0D       		.byte	0xd
 4157 07be 4901     		.2byte	0x149
 4158 07c0 CB070000 		.4byte	0x7cb
 4159 07c4 00       		.byte	0
 4160 07c5 08       		.uleb128 0x8
 4161 07c6 04       		.byte	0x4
 4162 07c7 B8000000 		.4byte	0xb8
 4163 07cb 08       		.uleb128 0x8
 4164 07cc 04       		.byte	0x4
 4165 07cd D1070000 		.4byte	0x7d1
 4166 07d1 0F       		.uleb128 0xf
 4167 07d2 8B070000 		.4byte	0x78b
 4168 07d6 1A       		.uleb128 0x1a
 4169 07d7 08       		.byte	0x8
 4170 07d8 0D       		.byte	0xd
 4171 07d9 3E01     		.2byte	0x13e
 4172 07db 14080000 		.4byte	0x814
 4173 07df 1E       		.uleb128 0x1e
 4174 07e0 765F7000 		.ascii	"v_p\000"
 4175 07e4 0D       		.byte	0xd
 4176 07e5 4A01     		.2byte	0x14a
 4177 07e7 97070000 		.4byte	0x797
 4178 07eb 00       		.byte	0
 4179 07ec 1B       		.uleb128 0x1b
 4180 07ed 5E130000 		.4byte	.LASF186
 4181 07f1 0D       		.byte	0xd
 4182 07f2 4C01     		.2byte	0x14c
 4183 07f4 CE000000 		.4byte	0xce
 4184 07f8 04       		.byte	0x4
 4185 07f9 1B       		.uleb128 0x1b
 4186 07fa CE000000 		.4byte	.LASF187
 4187 07fe 0D       		.byte	0xd
 4188 07ff 4D01     		.2byte	0x14d
 4189 0801 B8000000 		.4byte	0xb8
 4190 0805 06       		.byte	0x6
 4191 0806 1B       		.uleb128 0x1b
 4192 0807 3F0E0000 		.4byte	.LASF188
 4193 080b 0D       		.byte	0xd
 4194 080c 4E01     		.2byte	0x14e
ARM GAS  C:\Users\haske\AppData\Local\Temp\ccXBxzcA.s 			page 111


 4195 080e B8000000 		.4byte	0xb8
 4196 0812 07       		.byte	0x7
 4197 0813 00       		.byte	0
 4198 0814 19       		.uleb128 0x19
 4199 0815 521B0000 		.4byte	.LASF189
 4200 0819 0D       		.byte	0xd
 4201 081a 4F01     		.2byte	0x14f
 4202 081c D6070000 		.4byte	0x7d6
 4203 0820 02       		.uleb128 0x2
 4204 0821 3E250000 		.4byte	.LASF190
 4205 0825 0E       		.byte	0xe
 4206 0826 69       		.byte	0x69
 4207 0827 B8000000 		.4byte	0xb8
 4208 082b 09       		.uleb128 0x9
 4209 082c 04       		.byte	0x4
 4210 082d 0E       		.byte	0xe
 4211 082e 7E       		.byte	0x7e
 4212 082f 7A080000 		.4byte	0x87a
 4213 0833 0C       		.uleb128 0xc
 4214 0834 636600   		.ascii	"cf\000"
 4215 0837 0E       		.byte	0xe
 4216 0838 80       		.byte	0x80
 4217 0839 E4000000 		.4byte	0xe4
 4218 083d 04       		.byte	0x4
 4219 083e 05       		.byte	0x5
 4220 083f 1B       		.byte	0x1b
 4221 0840 00       		.byte	0
 4222 0841 0D       		.uleb128 0xd
 4223 0842 040B0000 		.4byte	.LASF191
 4224 0846 0E       		.byte	0xe
 4225 0847 81       		.byte	0x81
 4226 0848 E4000000 		.4byte	0xe4
 4227 084c 04       		.byte	0x4
 4228 084d 03       		.byte	0x3
 4229 084e 18       		.byte	0x18
 4230 084f 00       		.byte	0
 4231 0850 0D       		.uleb128 0xd
 4232 0851 4D000000 		.4byte	.LASF192
 4233 0855 0E       		.byte	0xe
 4234 0856 84       		.byte	0x84
 4235 0857 E4000000 		.4byte	0xe4
 4236 085b 04       		.byte	0x4
 4237 085c 02       		.byte	0x2
 4238 085d 16       		.byte	0x16
 4239 085e 00       		.byte	0
 4240 085f 0C       		.uleb128 0xc
 4241 0860 7700     		.ascii	"w\000"
 4242 0862 0E       		.byte	0xe
 4243 0863 86       		.byte	0x86
 4244 0864 E4000000 		.4byte	0xe4
 4245 0868 04       		.byte	0x4
 4246 0869 0B       		.byte	0xb
 4247 086a 0B       		.byte	0xb
 4248 086b 00       		.byte	0
 4249 086c 0C       		.uleb128 0xc
 4250 086d 6800     		.ascii	"h\000"
 4251 086f 0E       		.byte	0xe
ARM GAS  C:\Users\haske\AppData\Local\Temp\ccXBxzcA.s 			page 112


 4252 0870 87       		.byte	0x87
 4253 0871 E4000000 		.4byte	0xe4
 4254 0875 04       		.byte	0x4
 4255 0876 0B       		.byte	0xb
 4256 0877 00       		.byte	0
 4257 0878 00       		.byte	0
 4258 0879 00       		.byte	0
 4259 087a 02       		.uleb128 0x2
 4260 087b 981C0000 		.4byte	.LASF193
 4261 087f 0E       		.byte	0xe
 4262 0880 88       		.byte	0x88
 4263 0881 2B080000 		.4byte	0x82b
 4264 0885 08       		.uleb128 0x8
 4265 0886 04       		.byte	0x4
 4266 0887 8B080000 		.4byte	0x88b
 4267 088b 0E       		.uleb128 0xe
 4268 088c C4140000 		.4byte	.LASF195
 4269 0890 24       		.byte	0x24
 4270 0891 0F       		.byte	0xf
 4271 0892 AE       		.byte	0xae
 4272 0893 52090000 		.4byte	0x952
 4273 0897 0B       		.uleb128 0xb
 4274 0898 E9180000 		.4byte	.LASF196
 4275 089c 0F       		.byte	0xf
 4276 089d AF       		.byte	0xaf
 4277 089e 05190000 		.4byte	0x1905
 4278 08a2 00       		.byte	0
 4279 08a3 0B       		.uleb128 0xb
 4280 08a4 6D210000 		.4byte	.LASF197
 4281 08a8 0F       		.byte	0xf
 4282 08a9 B0       		.byte	0xb0
 4283 08aa 85080000 		.4byte	0x885
 4284 08ae 04       		.byte	0x4
 4285 08af 0B       		.uleb128 0xb
 4286 08b0 EA260000 		.4byte	.LASF198
 4287 08b4 0F       		.byte	0xf
 4288 08b5 B1       		.byte	0xb1
 4289 08b6 10190000 		.4byte	0x1910
 4290 08ba 08       		.byte	0x8
 4291 08bb 0B       		.uleb128 0xb
 4292 08bc 5A030000 		.4byte	.LASF199
 4293 08c0 0F       		.byte	0xf
 4294 08c1 B2       		.byte	0xb2
 4295 08c2 16190000 		.4byte	0x1916
 4296 08c6 0C       		.byte	0xc
 4297 08c7 0B       		.uleb128 0xb
 4298 08c8 3D190000 		.4byte	.LASF47
 4299 08cc 0F       		.byte	0xf
 4300 08cd B4       		.byte	0xb4
 4301 08ce 13010000 		.4byte	0x113
 4302 08d2 10       		.byte	0x10
 4303 08d3 0B       		.uleb128 0xb
 4304 08d4 860B0000 		.4byte	.LASF200
 4305 08d8 0F       		.byte	0xf
 4306 08d9 B6       		.byte	0xb6
 4307 08da A3010000 		.4byte	0x1a3
 4308 08de 14       		.byte	0x14
ARM GAS  C:\Users\haske\AppData\Local\Temp\ccXBxzcA.s 			page 113


 4309 08df 0B       		.uleb128 0xb
 4310 08e0 17270000 		.4byte	.LASF201
 4311 08e4 0F       		.byte	0xf
 4312 08e5 B7       		.byte	0xb7
 4313 08e6 D4130000 		.4byte	0x13d4
 4314 08ea 1C       		.byte	0x1c
 4315 08eb 0B       		.uleb128 0xb
 4316 08ec C8160000 		.4byte	.LASF202
 4317 08f0 0F       		.byte	0xf
 4318 08f1 B8       		.byte	0xb8
 4319 08f2 65130000 		.4byte	0x1365
 4320 08f6 20       		.byte	0x20
 4321 08f7 0D       		.uleb128 0xd
 4322 08f8 45020000 		.4byte	.LASF203
 4323 08fc 0F       		.byte	0xf
 4324 08fd B9       		.byte	0xb9
 4325 08fe CE000000 		.4byte	0xce
 4326 0902 02       		.byte	0x2
 4327 0903 01       		.byte	0x1
 4328 0904 0F       		.byte	0xf
 4329 0905 22       		.byte	0x22
 4330 0906 0D       		.uleb128 0xd
 4331 0907 D70B0000 		.4byte	.LASF204
 4332 090b 0F       		.byte	0xf
 4333 090c BA       		.byte	0xba
 4334 090d CE000000 		.4byte	0xce
 4335 0911 02       		.byte	0x2
 4336 0912 01       		.byte	0x1
 4337 0913 0E       		.byte	0xe
 4338 0914 22       		.byte	0x22
 4339 0915 0D       		.uleb128 0xd
 4340 0916 8D260000 		.4byte	.LASF205
 4341 091a 0F       		.byte	0xf
 4342 091b BB       		.byte	0xbb
 4343 091c CE000000 		.4byte	0xce
 4344 0920 02       		.byte	0x2
 4345 0921 01       		.byte	0x1
 4346 0922 0D       		.byte	0xd
 4347 0923 22       		.byte	0x22
 4348 0924 0D       		.uleb128 0xd
 4349 0925 79160000 		.4byte	.LASF206
 4350 0929 0F       		.byte	0xf
 4351 092a BC       		.byte	0xbc
 4352 092b CE000000 		.4byte	0xce
 4353 092f 02       		.byte	0x2
 4354 0930 06       		.byte	0x6
 4355 0931 07       		.byte	0x7
 4356 0932 22       		.byte	0x22
 4357 0933 0D       		.uleb128 0xd
 4358 0934 28000000 		.4byte	.LASF207
 4359 0938 0F       		.byte	0xf
 4360 0939 BD       		.byte	0xbd
 4361 093a CE000000 		.4byte	0xce
 4362 093e 02       		.byte	0x2
 4363 093f 01       		.byte	0x1
 4364 0940 06       		.byte	0x6
 4365 0941 22       		.byte	0x22
ARM GAS  C:\Users\haske\AppData\Local\Temp\ccXBxzcA.s 			page 114


 4366 0942 0D       		.uleb128 0xd
 4367 0943 7D1E0000 		.4byte	.LASF208
 4368 0947 0F       		.byte	0xf
 4369 0948 BE       		.byte	0xbe
 4370 0949 CE000000 		.4byte	0xce
 4371 094d 02       		.byte	0x2
 4372 094e 01       		.byte	0x1
 4373 094f 05       		.byte	0x5
 4374 0950 22       		.byte	0x22
 4375 0951 00       		.byte	0
 4376 0952 08       		.uleb128 0x8
 4377 0953 04       		.byte	0x4
 4378 0954 E8030000 		.4byte	0x3e8
 4379 0958 09       		.uleb128 0x9
 4380 0959 38       		.byte	0x38
 4381 095a 10       		.byte	0x10
 4382 095b 20       		.byte	0x20
 4383 095c 9F0A0000 		.4byte	0xa9f
 4384 0960 0B       		.uleb128 0xb
 4385 0961 1D270000 		.4byte	.LASF209
 4386 0965 10       		.byte	0x10
 4387 0966 21       		.byte	0x21
 4388 0967 3B010000 		.4byte	0x13b
 4389 096b 00       		.byte	0
 4390 096c 0B       		.uleb128 0xb
 4391 096d C00E0000 		.4byte	.LASF210
 4392 0971 10       		.byte	0x10
 4393 0972 22       		.byte	0x22
 4394 0973 44040000 		.4byte	0x444
 4395 0977 02       		.byte	0x2
 4396 0978 0B       		.uleb128 0xb
 4397 0979 00000000 		.4byte	.LASF211
 4398 097d 10       		.byte	0x10
 4399 097e 25       		.byte	0x25
 4400 097f F3030000 		.4byte	0x3f3
 4401 0983 03       		.byte	0x3
 4402 0984 0B       		.uleb128 0xb
 4403 0985 F4260000 		.4byte	.LASF212
 4404 0989 10       		.byte	0x10
 4405 098a 26       		.byte	0x26
 4406 098b E8030000 		.4byte	0x3e8
 4407 098f 04       		.byte	0x4
 4408 0990 0B       		.uleb128 0xb
 4409 0991 1A050000 		.4byte	.LASF213
 4410 0995 10       		.byte	0x10
 4411 0996 27       		.byte	0x27
 4412 0997 F6040000 		.4byte	0x4f6
 4413 099b 06       		.byte	0x6
 4414 099c 0B       		.uleb128 0xb
 4415 099d 2E0B0000 		.4byte	.LASF214
 4416 09a1 10       		.byte	0x10
 4417 09a2 2A       		.byte	0x2a
 4418 09a3 1C030000 		.4byte	0x31c
 4419 09a7 10       		.byte	0x10
 4420 09a8 0B       		.uleb128 0xb
 4421 09a9 EA160000 		.4byte	.LASF215
 4422 09ad 10       		.byte	0x10
ARM GAS  C:\Users\haske\AppData\Local\Temp\ccXBxzcA.s 			page 115


 4423 09ae 2B       		.byte	0x2b
 4424 09af 1C030000 		.4byte	0x31c
 4425 09b3 14       		.byte	0x14
 4426 09b4 0B       		.uleb128 0xb
 4427 09b5 A4050000 		.4byte	.LASF216
 4428 09b9 10       		.byte	0x10
 4429 09ba 2C       		.byte	0x2c
 4430 09bb E8030000 		.4byte	0x3e8
 4431 09bf 18       		.byte	0x18
 4432 09c0 0B       		.uleb128 0xb
 4433 09c1 FA220000 		.4byte	.LASF217
 4434 09c5 10       		.byte	0x10
 4435 09c6 2D       		.byte	0x2d
 4436 09c7 F3030000 		.4byte	0x3f3
 4437 09cb 1A       		.byte	0x1a
 4438 09cc 0B       		.uleb128 0xb
 4439 09cd 82110000 		.4byte	.LASF218
 4440 09d1 10       		.byte	0x10
 4441 09d2 2E       		.byte	0x2e
 4442 09d3 F3030000 		.4byte	0x3f3
 4443 09d7 1B       		.byte	0x1b
 4444 09d8 0B       		.uleb128 0xb
 4445 09d9 C3130000 		.4byte	.LASF219
 4446 09dd 10       		.byte	0x10
 4447 09de 2F       		.byte	0x2f
 4448 09df B8000000 		.4byte	0xb8
 4449 09e3 1C       		.byte	0x1c
 4450 09e4 0B       		.uleb128 0xb
 4451 09e5 A81F0000 		.4byte	.LASF220
 4452 09e9 10       		.byte	0x10
 4453 09ea 32       		.byte	0x32
 4454 09eb E8030000 		.4byte	0x3e8
 4455 09ef 1E       		.byte	0x1e
 4456 09f0 0B       		.uleb128 0xb
 4457 09f1 B8110000 		.4byte	.LASF221
 4458 09f5 10       		.byte	0x10
 4459 09f6 33       		.byte	0x33
 4460 09f7 3B010000 		.4byte	0x13b
 4461 09fb 20       		.byte	0x20
 4462 09fc 0B       		.uleb128 0xb
 4463 09fd 650E0000 		.4byte	.LASF222
 4464 0a01 10       		.byte	0x10
 4465 0a02 34       		.byte	0x34
 4466 0a03 F3030000 		.4byte	0x3f3
 4467 0a07 22       		.byte	0x22
 4468 0a08 0D       		.uleb128 0xd
 4469 0a09 93200000 		.4byte	.LASF223
 4470 0a0d 10       		.byte	0x10
 4471 0a0e 35       		.byte	0x35
 4472 0a0f B8000000 		.4byte	0xb8
 4473 0a13 01       		.byte	0x1
 4474 0a14 01       		.byte	0x1
 4475 0a15 07       		.byte	0x7
 4476 0a16 23       		.byte	0x23
 4477 0a17 0D       		.uleb128 0xd
 4478 0a18 F00F0000 		.4byte	.LASF224
 4479 0a1c 10       		.byte	0x10
ARM GAS  C:\Users\haske\AppData\Local\Temp\ccXBxzcA.s 			page 116


 4480 0a1d 36       		.byte	0x36
 4481 0a1e 5A040000 		.4byte	0x45a
 4482 0a22 01       		.byte	0x1
 4483 0a23 05       		.byte	0x5
 4484 0a24 02       		.byte	0x2
 4485 0a25 23       		.byte	0x23
 4486 0a26 0B       		.uleb128 0xb
 4487 0a27 2F190000 		.4byte	.LASF225
 4488 0a2b 10       		.byte	0x10
 4489 0a2c 39       		.byte	0x39
 4490 0a2d E8030000 		.4byte	0x3e8
 4491 0a31 24       		.byte	0x24
 4492 0a32 0B       		.uleb128 0xb
 4493 0a33 AE0B0000 		.4byte	.LASF226
 4494 0a37 10       		.byte	0x10
 4495 0a38 3A       		.byte	0x3a
 4496 0a39 3B010000 		.4byte	0x13b
 4497 0a3d 26       		.byte	0x26
 4498 0a3e 0B       		.uleb128 0xb
 4499 0a3f 04140000 		.4byte	.LASF227
 4500 0a43 10       		.byte	0x10
 4501 0a44 3B       		.byte	0x3b
 4502 0a45 3B010000 		.4byte	0x13b
 4503 0a49 28       		.byte	0x28
 4504 0a4a 0B       		.uleb128 0xb
 4505 0a4b 711A0000 		.4byte	.LASF228
 4506 0a4f 10       		.byte	0x10
 4507 0a50 3C       		.byte	0x3c
 4508 0a51 F3030000 		.4byte	0x3f3
 4509 0a55 2A       		.byte	0x2a
 4510 0a56 0B       		.uleb128 0xb
 4511 0a57 D11E0000 		.4byte	.LASF229
 4512 0a5b 10       		.byte	0x10
 4513 0a5c 3F       		.byte	0x3f
 4514 0a5d E8030000 		.4byte	0x3e8
 4515 0a61 2C       		.byte	0x2c
 4516 0a62 0B       		.uleb128 0xb
 4517 0a63 5A110000 		.4byte	.LASF230
 4518 0a67 10       		.byte	0x10
 4519 0a68 40       		.byte	0x40
 4520 0a69 3B010000 		.4byte	0x13b
 4521 0a6d 2E       		.byte	0x2e
 4522 0a6e 0B       		.uleb128 0xb
 4523 0a6f 61180000 		.4byte	.LASF231
 4524 0a73 10       		.byte	0x10
 4525 0a74 41       		.byte	0x41
 4526 0a75 3B010000 		.4byte	0x13b
 4527 0a79 30       		.byte	0x30
 4528 0a7a 0B       		.uleb128 0xb
 4529 0a7b 6E180000 		.4byte	.LASF232
 4530 0a7f 10       		.byte	0x10
 4531 0a80 42       		.byte	0x42
 4532 0a81 3B010000 		.4byte	0x13b
 4533 0a85 32       		.byte	0x32
 4534 0a86 0B       		.uleb128 0xb
 4535 0a87 600C0000 		.4byte	.LASF233
 4536 0a8b 10       		.byte	0x10
ARM GAS  C:\Users\haske\AppData\Local\Temp\ccXBxzcA.s 			page 117


 4537 0a8c 43       		.byte	0x43
 4538 0a8d 3B010000 		.4byte	0x13b
 4539 0a91 34       		.byte	0x34
 4540 0a92 0B       		.uleb128 0xb
 4541 0a93 E3110000 		.4byte	.LASF234
 4542 0a97 10       		.byte	0x10
 4543 0a98 44       		.byte	0x44
 4544 0a99 F3030000 		.4byte	0x3f3
 4545 0a9d 36       		.byte	0x36
 4546 0a9e 00       		.byte	0
 4547 0a9f 02       		.uleb128 0x2
 4548 0aa0 210A0000 		.4byte	.LASF235
 4549 0aa4 10       		.byte	0x10
 4550 0aa5 45       		.byte	0x45
 4551 0aa6 58090000 		.4byte	0x958
 4552 0aaa 09       		.uleb128 0x9
 4553 0aab 20       		.byte	0x20
 4554 0aac 11       		.byte	0x11
 4555 0aad 1E       		.byte	0x1e
 4556 0aae 790B0000 		.4byte	0xb79
 4557 0ab2 0B       		.uleb128 0xb
 4558 0ab3 90000000 		.4byte	.LASF236
 4559 0ab7 11       		.byte	0x11
 4560 0ab8 1F       		.byte	0x1f
 4561 0ab9 790B0000 		.4byte	0xb79
 4562 0abd 00       		.byte	0
 4563 0abe 0B       		.uleb128 0xb
 4564 0abf 28080000 		.4byte	.LASF237
 4565 0ac3 11       		.byte	0x11
 4566 0ac4 20       		.byte	0x20
 4567 0ac5 E4000000 		.4byte	0xe4
 4568 0ac9 04       		.byte	0x4
 4569 0aca 0B       		.uleb128 0xb
 4570 0acb 700E0000 		.4byte	.LASF238
 4571 0acf 11       		.byte	0x11
 4572 0ad0 21       		.byte	0x21
 4573 0ad1 E4000000 		.4byte	0xe4
 4574 0ad5 08       		.byte	0x8
 4575 0ad6 0B       		.uleb128 0xb
 4576 0ad7 421B0000 		.4byte	.LASF82
 4577 0adb 11       		.byte	0x11
 4578 0adc 22       		.byte	0x22
 4579 0add E8030000 		.4byte	0x3e8
 4580 0ae1 0C       		.byte	0xc
 4581 0ae2 0B       		.uleb128 0xb
 4582 0ae3 4D160000 		.4byte	.LASF239
 4583 0ae7 11       		.byte	0x11
 4584 0ae8 23       		.byte	0x23
 4585 0ae9 E8030000 		.4byte	0x3e8
 4586 0aed 0E       		.byte	0xe
 4587 0aee 0B       		.uleb128 0xb
 4588 0aef AE260000 		.4byte	.LASF240
 4589 0af3 11       		.byte	0x11
 4590 0af4 24       		.byte	0x24
 4591 0af5 E8030000 		.4byte	0x3e8
 4592 0af9 10       		.byte	0x10
 4593 0afa 0B       		.uleb128 0xb
ARM GAS  C:\Users\haske\AppData\Local\Temp\ccXBxzcA.s 			page 118


 4594 0afb AA000000 		.4byte	.LASF241
 4595 0aff 11       		.byte	0x11
 4596 0b00 25       		.byte	0x25
 4597 0b01 3B010000 		.4byte	0x13b
 4598 0b05 12       		.byte	0x12
 4599 0b06 0B       		.uleb128 0xb
 4600 0b07 83160000 		.4byte	.LASF242
 4601 0b0b 11       		.byte	0x11
 4602 0b0c 26       		.byte	0x26
 4603 0b0d 3B010000 		.4byte	0x13b
 4604 0b11 14       		.byte	0x14
 4605 0b12 0B       		.uleb128 0xb
 4606 0b13 71140000 		.4byte	.LASF36
 4607 0b17 11       		.byte	0x11
 4608 0b18 27       		.byte	0x27
 4609 0b19 3B010000 		.4byte	0x13b
 4610 0b1d 16       		.byte	0x16
 4611 0b1e 0B       		.uleb128 0xb
 4612 0b1f 77140000 		.4byte	.LASF37
 4613 0b23 11       		.byte	0x11
 4614 0b24 28       		.byte	0x28
 4615 0b25 3B010000 		.4byte	0x13b
 4616 0b29 18       		.byte	0x18
 4617 0b2a 0A       		.uleb128 0xa
 4618 0b2b 6F706100 		.ascii	"opa\000"
 4619 0b2f 11       		.byte	0x11
 4620 0b30 29       		.byte	0x29
 4621 0b31 F3030000 		.4byte	0x3f3
 4622 0b35 1A       		.byte	0x1a
 4623 0b36 0B       		.uleb128 0xb
 4624 0b37 271C0000 		.4byte	.LASF243
 4625 0b3b 11       		.byte	0x11
 4626 0b3c 2A       		.byte	0x2a
 4627 0b3d 39040000 		.4byte	0x439
 4628 0b41 1B       		.byte	0x1b
 4629 0b42 0B       		.uleb128 0xb
 4630 0b43 86070000 		.4byte	.LASF244
 4631 0b47 11       		.byte	0x11
 4632 0b48 2B       		.byte	0x2b
 4633 0b49 2E040000 		.4byte	0x42e
 4634 0b4d 1C       		.byte	0x1c
 4635 0b4e 0B       		.uleb128 0xb
 4636 0b4f 83130000 		.4byte	.LASF245
 4637 0b53 11       		.byte	0x11
 4638 0b54 2C       		.byte	0x2c
 4639 0b55 23040000 		.4byte	0x423
 4640 0b59 1D       		.byte	0x1d
 4641 0b5a 0D       		.uleb128 0xd
 4642 0b5b D10B0000 		.4byte	.LASF246
 4643 0b5f 11       		.byte	0x11
 4644 0b60 2D       		.byte	0x2d
 4645 0b61 4F040000 		.4byte	0x44f
 4646 0b65 01       		.byte	0x1
 4647 0b66 03       		.byte	0x3
 4648 0b67 05       		.byte	0x5
 4649 0b68 1E       		.byte	0x1e
 4650 0b69 0D       		.uleb128 0xd
ARM GAS  C:\Users\haske\AppData\Local\Temp\ccXBxzcA.s 			page 119


 4651 0b6a C00E0000 		.4byte	.LASF210
 4652 0b6e 11       		.byte	0x11
 4653 0b6f 2E       		.byte	0x2e
 4654 0b70 44040000 		.4byte	0x444
 4655 0b74 01       		.byte	0x1
 4656 0b75 03       		.byte	0x3
 4657 0b76 02       		.byte	0x2
 4658 0b77 1E       		.byte	0x1e
 4659 0b78 00       		.byte	0
 4660 0b79 08       		.uleb128 0x8
 4661 0b7a 04       		.byte	0x4
 4662 0b7b 7F0B0000 		.4byte	0xb7f
 4663 0b7f 0F       		.uleb128 0xf
 4664 0b80 23030000 		.4byte	0x323
 4665 0b84 02       		.uleb128 0x2
 4666 0b85 64130000 		.4byte	.LASF247
 4667 0b89 11       		.byte	0x11
 4668 0b8a 2F       		.byte	0x2f
 4669 0b8b AA0A0000 		.4byte	0xaaa
 4670 0b8f 09       		.uleb128 0x9
 4671 0b90 18       		.byte	0x18
 4672 0b91 12       		.byte	0x12
 4673 0b92 20       		.byte	0x20
 4674 0b93 0A0C0000 		.4byte	0xc0a
 4675 0b97 0B       		.uleb128 0xb
 4676 0b98 B3010000 		.4byte	.LASF248
 4677 0b9c 12       		.byte	0x12
 4678 0b9d 22       		.byte	0x22
 4679 0b9e C3000000 		.4byte	0xc3
 4680 0ba2 00       		.byte	0
 4681 0ba3 0B       		.uleb128 0xb
 4682 0ba4 65150000 		.4byte	.LASF249
 4683 0ba8 12       		.byte	0x12
 4684 0ba9 23       		.byte	0x23
 4685 0baa CE000000 		.4byte	0xce
 4686 0bae 02       		.byte	0x2
 4687 0baf 0B       		.uleb128 0xb
 4688 0bb0 9B210000 		.4byte	.LASF250
 4689 0bb4 12       		.byte	0x12
 4690 0bb5 24       		.byte	0x24
 4691 0bb6 63010000 		.4byte	0x163
 4692 0bba 04       		.byte	0x4
 4693 0bbb 0B       		.uleb128 0xb
 4694 0bbc 521E0000 		.4byte	.LASF251
 4695 0bc0 12       		.byte	0x12
 4696 0bc1 26       		.byte	0x26
 4697 0bc2 E8030000 		.4byte	0x3e8
 4698 0bc6 08       		.byte	0x8
 4699 0bc7 0B       		.uleb128 0xb
 4700 0bc8 12170000 		.4byte	.LASF252
 4701 0bcc 12       		.byte	0x12
 4702 0bcd 27       		.byte	0x27
 4703 0bce F3030000 		.4byte	0x3f3
 4704 0bd2 0A       		.byte	0xa
 4705 0bd3 0A       		.uleb128 0xa
 4706 0bd4 6F706100 		.ascii	"opa\000"
 4707 0bd8 12       		.byte	0x12
ARM GAS  C:\Users\haske\AppData\Local\Temp\ccXBxzcA.s 			page 120


 4708 0bd9 29       		.byte	0x29
 4709 0bda F3030000 		.4byte	0x3f3
 4710 0bde 0B       		.byte	0xb
 4711 0bdf 0D       		.uleb128 0xd
 4712 0be0 C00E0000 		.4byte	.LASF210
 4713 0be4 12       		.byte	0x12
 4714 0be5 2A       		.byte	0x2a
 4715 0be6 44040000 		.4byte	0x444
 4716 0bea 01       		.byte	0x1
 4717 0beb 04       		.byte	0x4
 4718 0bec 04       		.byte	0x4
 4719 0bed 0C       		.byte	0xc
 4720 0bee 0B       		.uleb128 0xb
 4721 0bef 3D080000 		.4byte	.LASF253
 4722 0bf3 12       		.byte	0x12
 4723 0bf4 2C       		.byte	0x2c
 4724 0bf5 D9000000 		.4byte	0xd9
 4725 0bf9 10       		.byte	0x10
 4726 0bfa 0D       		.uleb128 0xd
 4727 0bfb 87220000 		.4byte	.LASF254
 4728 0bff 12       		.byte	0x12
 4729 0c00 2D       		.byte	0x2d
 4730 0c01 B8000000 		.4byte	0xb8
 4731 0c05 01       		.byte	0x1
 4732 0c06 01       		.byte	0x1
 4733 0c07 07       		.byte	0x7
 4734 0c08 14       		.byte	0x14
 4735 0c09 00       		.byte	0
 4736 0c0a 02       		.uleb128 0x2
 4737 0c0b 7B200000 		.4byte	.LASF255
 4738 0c0f 12       		.byte	0x12
 4739 0c10 2E       		.byte	0x2e
 4740 0c11 8F0B0000 		.4byte	0xb8f
 4741 0c15 09       		.uleb128 0x9
 4742 0c16 0A       		.byte	0xa
 4743 0c17 13       		.byte	0x13
 4744 0c18 1C       		.byte	0x1c
 4745 0c19 960C0000 		.4byte	0xc96
 4746 0c1d 0B       		.uleb128 0xb
 4747 0c1e 421B0000 		.4byte	.LASF82
 4748 0c22 13       		.byte	0x13
 4749 0c23 1D       		.byte	0x1d
 4750 0c24 E8030000 		.4byte	0x3e8
 4751 0c28 00       		.byte	0
 4752 0c29 0B       		.uleb128 0xb
 4753 0c2a 8D200000 		.4byte	.LASF256
 4754 0c2e 13       		.byte	0x13
 4755 0c2f 1E       		.byte	0x1e
 4756 0c30 3B010000 		.4byte	0x13b
 4757 0c34 02       		.byte	0x2
 4758 0c35 0B       		.uleb128 0xb
 4759 0c36 5E010000 		.4byte	.LASF257
 4760 0c3a 13       		.byte	0x13
 4761 0c3b 1F       		.byte	0x1f
 4762 0c3c 3B010000 		.4byte	0x13b
 4763 0c40 04       		.byte	0x4
 4764 0c41 0B       		.uleb128 0xb
ARM GAS  C:\Users\haske\AppData\Local\Temp\ccXBxzcA.s 			page 121


 4765 0c42 271A0000 		.4byte	.LASF258
 4766 0c46 13       		.byte	0x13
 4767 0c47 20       		.byte	0x20
 4768 0c48 3B010000 		.4byte	0x13b
 4769 0c4c 06       		.byte	0x6
 4770 0c4d 0A       		.uleb128 0xa
 4771 0c4e 6F706100 		.ascii	"opa\000"
 4772 0c52 13       		.byte	0x13
 4773 0c53 21       		.byte	0x21
 4774 0c54 F3030000 		.4byte	0x3f3
 4775 0c58 08       		.byte	0x8
 4776 0c59 0D       		.uleb128 0xd
 4777 0c5a C00E0000 		.4byte	.LASF210
 4778 0c5e 13       		.byte	0x13
 4779 0c5f 22       		.byte	0x22
 4780 0c60 44040000 		.4byte	0x444
 4781 0c64 01       		.byte	0x1
 4782 0c65 02       		.byte	0x2
 4783 0c66 06       		.byte	0x6
 4784 0c67 09       		.byte	0x9
 4785 0c68 0D       		.uleb128 0xd
 4786 0c69 24270000 		.4byte	.LASF259
 4787 0c6d 13       		.byte	0x13
 4788 0c6e 23       		.byte	0x23
 4789 0c6f B8000000 		.4byte	0xb8
 4790 0c73 01       		.byte	0x1
 4791 0c74 01       		.byte	0x1
 4792 0c75 05       		.byte	0x5
 4793 0c76 09       		.byte	0x9
 4794 0c77 0D       		.uleb128 0xd
 4795 0c78 B1100000 		.4byte	.LASF260
 4796 0c7c 13       		.byte	0x13
 4797 0c7d 24       		.byte	0x24
 4798 0c7e B8000000 		.4byte	0xb8
 4799 0c82 01       		.byte	0x1
 4800 0c83 01       		.byte	0x1
 4801 0c84 04       		.byte	0x4
 4802 0c85 09       		.byte	0x9
 4803 0c86 0D       		.uleb128 0xd
 4804 0c87 A8180000 		.4byte	.LASF261
 4805 0c8b 13       		.byte	0x13
 4806 0c8c 25       		.byte	0x25
 4807 0c8d B8000000 		.4byte	0xb8
 4808 0c91 01       		.byte	0x1
 4809 0c92 01       		.byte	0x1
 4810 0c93 03       		.byte	0x3
 4811 0c94 09       		.byte	0x9
 4812 0c95 00       		.byte	0
 4813 0c96 02       		.uleb128 0x2
 4814 0c97 021B0000 		.4byte	.LASF262
 4815 0c9b 13       		.byte	0x13
 4816 0c9c 26       		.byte	0x26
 4817 0c9d 150C0000 		.4byte	0xc15
 4818 0ca1 09       		.uleb128 0x9
 4819 0ca2 10       		.byte	0x10
 4820 0ca3 14       		.byte	0x14
 4821 0ca4 1C       		.byte	0x1c
ARM GAS  C:\Users\haske\AppData\Local\Temp\ccXBxzcA.s 			page 122


 4822 0ca5 100D0000 		.4byte	0xd10
 4823 0ca9 0B       		.uleb128 0xb
 4824 0caa 421B0000 		.4byte	.LASF82
 4825 0cae 14       		.byte	0x14
 4826 0caf 1D       		.byte	0x1d
 4827 0cb0 E8030000 		.4byte	0x3e8
 4828 0cb4 00       		.byte	0
 4829 0cb5 0B       		.uleb128 0xb
 4830 0cb6 8D200000 		.4byte	.LASF256
 4831 0cba 14       		.byte	0x14
 4832 0cbb 1E       		.byte	0x1e
 4833 0cbc 3B010000 		.4byte	0x13b
 4834 0cc0 02       		.byte	0x2
 4835 0cc1 0B       		.uleb128 0xb
 4836 0cc2 90060000 		.4byte	.LASF263
 4837 0cc6 14       		.byte	0x14
 4838 0cc7 1F       		.byte	0x1f
 4839 0cc8 CE000000 		.4byte	0xce
 4840 0ccc 04       		.byte	0x4
 4841 0ccd 0B       		.uleb128 0xb
 4842 0cce DA200000 		.4byte	.LASF264
 4843 0cd2 14       		.byte	0x14
 4844 0cd3 20       		.byte	0x20
 4845 0cd4 CE000000 		.4byte	0xce
 4846 0cd8 06       		.byte	0x6
 4847 0cd9 0B       		.uleb128 0xb
 4848 0cda 63220000 		.4byte	.LASF265
 4849 0cde 14       		.byte	0x14
 4850 0cdf 21       		.byte	0x21
 4851 0ce0 1C030000 		.4byte	0x31c
 4852 0ce4 08       		.byte	0x8
 4853 0ce5 0A       		.uleb128 0xa
 4854 0ce6 6F706100 		.ascii	"opa\000"
 4855 0cea 14       		.byte	0x14
 4856 0ceb 22       		.byte	0x22
 4857 0cec F3030000 		.4byte	0x3f3
 4858 0cf0 0C       		.byte	0xc
 4859 0cf1 0D       		.uleb128 0xd
 4860 0cf2 C00E0000 		.4byte	.LASF210
 4861 0cf6 14       		.byte	0x14
 4862 0cf7 23       		.byte	0x23
 4863 0cf8 44040000 		.4byte	0x444
 4864 0cfc 01       		.byte	0x1
 4865 0cfd 02       		.byte	0x2
 4866 0cfe 06       		.byte	0x6
 4867 0cff 0D       		.byte	0xd
 4868 0d00 0D       		.uleb128 0xd
 4869 0d01 D4050000 		.4byte	.LASF266
 4870 0d05 14       		.byte	0x14
 4871 0d06 24       		.byte	0x24
 4872 0d07 B8000000 		.4byte	0xb8
 4873 0d0b 01       		.byte	0x1
 4874 0d0c 01       		.byte	0x1
 4875 0d0d 05       		.byte	0x5
 4876 0d0e 0D       		.byte	0xd
 4877 0d0f 00       		.byte	0
 4878 0d10 02       		.uleb128 0x2
ARM GAS  C:\Users\haske\AppData\Local\Temp\ccXBxzcA.s 			page 123


 4879 0d11 7D120000 		.4byte	.LASF267
 4880 0d15 14       		.byte	0x14
 4881 0d16 25       		.byte	0x25
 4882 0d17 A10C0000 		.4byte	0xca1
 4883 0d1b 02       		.uleb128 0x2
 4884 0d1c DD210000 		.4byte	.LASF268
 4885 0d20 15       		.byte	0x15
 4886 0d21 2B       		.byte	0x2b
 4887 0d22 B8000000 		.4byte	0xb8
 4888 0d26 02       		.uleb128 0x2
 4889 0d27 3D100000 		.4byte	.LASF269
 4890 0d2b 15       		.byte	0x15
 4891 0d2c 4F       		.byte	0x4f
 4892 0d2d B8000000 		.4byte	0xb8
 4893 0d31 02       		.uleb128 0x2
 4894 0d32 D6040000 		.4byte	.LASF270
 4895 0d36 15       		.byte	0x15
 4896 0d37 5C       		.byte	0x5c
 4897 0d38 3C0D0000 		.4byte	0xd3c
 4898 0d3c 08       		.uleb128 0x8
 4899 0d3d 04       		.byte	0x4
 4900 0d3e 420D0000 		.4byte	0xd42
 4901 0d42 10       		.uleb128 0x10
 4902 0d43 1B0D0000 		.4byte	0xd1b
 4903 0d47 650D0000 		.4byte	0xd65
 4904 0d4b 11       		.uleb128 0x11
 4905 0d4c 650D0000 		.4byte	0xd65
 4906 0d50 11       		.uleb128 0x11
 4907 0d51 3B010000 		.4byte	0x13b
 4908 0d55 11       		.uleb128 0x11
 4909 0d56 3B010000 		.4byte	0x13b
 4910 0d5a 11       		.uleb128 0x11
 4911 0d5b 3B010000 		.4byte	0x13b
 4912 0d5f 11       		.uleb128 0x11
 4913 0d60 13010000 		.4byte	0x113
 4914 0d64 00       		.byte	0
 4915 0d65 08       		.uleb128 0x8
 4916 0d66 04       		.byte	0x4
 4917 0d67 F3030000 		.4byte	0x3f3
 4918 0d6b 09       		.uleb128 0x9
 4919 0d6c 08       		.byte	0x8
 4920 0d6d 15       		.byte	0x15
 4921 0d6e 62       		.byte	0x62
 4922 0d6f 8B0D0000 		.4byte	0xd8b
 4923 0d73 0A       		.uleb128 0xa
 4924 0d74 636200   		.ascii	"cb\000"
 4925 0d77 15       		.byte	0x15
 4926 0d78 63       		.byte	0x63
 4927 0d79 310D0000 		.4byte	0xd31
 4928 0d7d 00       		.byte	0
 4929 0d7e 0B       		.uleb128 0xb
 4930 0d7f DF130000 		.4byte	.LASF271
 4931 0d83 15       		.byte	0x15
 4932 0d84 64       		.byte	0x64
 4933 0d85 260D0000 		.4byte	0xd26
 4934 0d89 04       		.byte	0x4
 4935 0d8a 00       		.byte	0
ARM GAS  C:\Users\haske\AppData\Local\Temp\ccXBxzcA.s 			page 124


 4936 0d8b 02       		.uleb128 0x2
 4937 0d8c D50C0000 		.4byte	.LASF272
 4938 0d90 15       		.byte	0x15
 4939 0d91 65       		.byte	0x65
 4940 0d92 6B0D0000 		.4byte	0xd6b
 4941 0d96 09       		.uleb128 0x9
 4942 0d97 1C       		.byte	0x1c
 4943 0d98 15       		.byte	0x15
 4944 0d99 9C       		.byte	0x9c
 4945 0d9a F30D0000 		.4byte	0xdf3
 4946 0d9e 0A       		.uleb128 0xa
 4947 0d9f 62756600 		.ascii	"buf\000"
 4948 0da3 15       		.byte	0x15
 4949 0da4 9D       		.byte	0x9d
 4950 0da5 C5070000 		.4byte	0x7c5
 4951 0da9 00       		.byte	0
 4952 0daa 0B       		.uleb128 0xb
 4953 0dab 60200000 		.4byte	.LASF273
 4954 0daf 15       		.byte	0x15
 4955 0db0 9E       		.byte	0x9e
 4956 0db1 650D0000 		.4byte	0xd65
 4957 0db5 04       		.byte	0x4
 4958 0db6 0B       		.uleb128 0xb
 4959 0db7 64140000 		.4byte	.LASF274
 4960 0dbb 15       		.byte	0x15
 4961 0dbc 9F       		.byte	0x9f
 4962 0dbd F30D0000 		.4byte	0xdf3
 4963 0dc1 08       		.byte	0x8
 4964 0dc2 0B       		.uleb128 0xb
 4965 0dc3 D0130000 		.4byte	.LASF275
 4966 0dc7 15       		.byte	0x15
 4967 0dc8 A0       		.byte	0xa0
 4968 0dc9 F30D0000 		.4byte	0xdf3
 4969 0dcd 0C       		.byte	0xc
 4970 0dce 0B       		.uleb128 0xb
 4971 0dcf 57070000 		.4byte	.LASF276
 4972 0dd3 15       		.byte	0x15
 4973 0dd4 A1       		.byte	0xa1
 4974 0dd5 D9000000 		.4byte	0xd9
 4975 0dd9 10       		.byte	0x10
 4976 0dda 0B       		.uleb128 0xb
 4977 0ddb AD1E0000 		.4byte	.LASF277
 4978 0ddf 15       		.byte	0x15
 4979 0de0 A2       		.byte	0xa2
 4980 0de1 E4000000 		.4byte	0xe4
 4981 0de5 14       		.byte	0x14
 4982 0de6 0B       		.uleb128 0xb
 4983 0de7 1D270000 		.4byte	.LASF209
 4984 0deb 15       		.byte	0x15
 4985 0dec A3       		.byte	0xa3
 4986 0ded 3B010000 		.4byte	0x13b
 4987 0df1 18       		.byte	0x18
 4988 0df2 00       		.byte	0
 4989 0df3 08       		.uleb128 0x8
 4990 0df4 04       		.byte	0x4
 4991 0df5 CE000000 		.4byte	0xce
 4992 0df9 02       		.uleb128 0x2
ARM GAS  C:\Users\haske\AppData\Local\Temp\ccXBxzcA.s 			page 125


 4993 0dfa 57160000 		.4byte	.LASF278
 4994 0dfe 15       		.byte	0x15
 4995 0dff A4       		.byte	0xa4
 4996 0e00 960D0000 		.4byte	0xd96
 4997 0e04 09       		.uleb128 0x9
 4998 0e05 0C       		.byte	0xc
 4999 0e06 15       		.byte	0x15
 5000 0e07 AC       		.byte	0xac
 5001 0e08 340E0000 		.4byte	0xe34
 5002 0e0c 0B       		.uleb128 0xb
 5003 0e0d 92030000 		.4byte	.LASF279
 5004 0e11 15       		.byte	0x15
 5005 0e12 AD       		.byte	0xad
 5006 0e13 A3010000 		.4byte	0x1a3
 5007 0e17 00       		.byte	0
 5008 0e18 0B       		.uleb128 0xb
 5009 0e19 1D270000 		.4byte	.LASF209
 5010 0e1d 15       		.byte	0x15
 5011 0e1e AE       		.byte	0xae
 5012 0e1f 3B010000 		.4byte	0x13b
 5013 0e23 08       		.byte	0x8
 5014 0e24 0D       		.uleb128 0xd
 5015 0e25 D5250000 		.4byte	.LASF280
 5016 0e29 15       		.byte	0x15
 5017 0e2a B0       		.byte	0xb0
 5018 0e2b B8000000 		.4byte	0xb8
 5019 0e2f 01       		.byte	0x1
 5020 0e30 01       		.byte	0x1
 5021 0e31 07       		.byte	0x7
 5022 0e32 0A       		.byte	0xa
 5023 0e33 00       		.byte	0
 5024 0e34 09       		.uleb128 0x9
 5025 0e35 18       		.byte	0x18
 5026 0e36 15       		.byte	0x15
 5027 0e37 A8       		.byte	0xa8
 5028 0e38 610E0000 		.4byte	0xe61
 5029 0e3c 0A       		.uleb128 0xa
 5030 0e3d 64736300 		.ascii	"dsc\000"
 5031 0e41 15       		.byte	0x15
 5032 0e42 AA       		.byte	0xaa
 5033 0e43 8B0D0000 		.4byte	0xd8b
 5034 0e47 00       		.byte	0
 5035 0e48 0A       		.uleb128 0xa
 5036 0e49 63666700 		.ascii	"cfg\000"
 5037 0e4d 15       		.byte	0x15
 5038 0e4e B1       		.byte	0xb1
 5039 0e4f 040E0000 		.4byte	0xe04
 5040 0e53 08       		.byte	0x8
 5041 0e54 0B       		.uleb128 0xb
 5042 0e55 AC150000 		.4byte	.LASF281
 5043 0e59 15       		.byte	0x15
 5044 0e5a B3       		.byte	0xb3
 5045 0e5b 610E0000 		.4byte	0xe61
 5046 0e5f 14       		.byte	0x14
 5047 0e60 00       		.byte	0
 5048 0e61 08       		.uleb128 0x8
 5049 0e62 04       		.byte	0x4
ARM GAS  C:\Users\haske\AppData\Local\Temp\ccXBxzcA.s 			page 126


 5050 0e63 F90D0000 		.4byte	0xdf9
 5051 0e67 02       		.uleb128 0x2
 5052 0e68 3D230000 		.4byte	.LASF282
 5053 0e6c 15       		.byte	0x15
 5054 0e6d B4       		.byte	0xb4
 5055 0e6e 340E0000 		.4byte	0xe34
 5056 0e72 05       		.uleb128 0x5
 5057 0e73 01       		.byte	0x1
 5058 0e74 42000000 		.4byte	0x42
 5059 0e78 16       		.byte	0x16
 5060 0e79 1C       		.byte	0x1c
 5061 0e7a 910E0000 		.4byte	0xe91
 5062 0e7e 06       		.uleb128 0x6
 5063 0e7f 08120000 		.4byte	.LASF283
 5064 0e83 00       		.byte	0
 5065 0e84 06       		.uleb128 0x6
 5066 0e85 E9040000 		.4byte	.LASF284
 5067 0e89 01       		.byte	0x1
 5068 0e8a 06       		.uleb128 0x6
 5069 0e8b 56000000 		.4byte	.LASF285
 5070 0e8f 02       		.byte	0x2
 5071 0e90 00       		.byte	0
 5072 0e91 02       		.uleb128 0x2
 5073 0e92 00190000 		.4byte	.LASF286
 5074 0e96 16       		.byte	0x16
 5075 0e97 20       		.byte	0x20
 5076 0e98 720E0000 		.4byte	0xe72
 5077 0e9c 09       		.uleb128 0x9
 5078 0e9d 10       		.byte	0x10
 5079 0e9e 17       		.byte	0x17
 5080 0e9f 33       		.byte	0x33
 5081 0ea0 D50E0000 		.4byte	0xed5
 5082 0ea4 0B       		.uleb128 0xb
 5083 0ea5 18210000 		.4byte	.LASF287
 5084 0ea9 17       		.byte	0x17
 5085 0eaa 34       		.byte	0x34
 5086 0eab D50E0000 		.4byte	0xed5
 5087 0eaf 00       		.byte	0
 5088 0eb0 0B       		.uleb128 0xb
 5089 0eb1 9C170000 		.4byte	.LASF288
 5090 0eb5 17       		.byte	0x17
 5091 0eb6 35       		.byte	0x35
 5092 0eb7 E00E0000 		.4byte	0xee0
 5093 0ebb 04       		.byte	0x4
 5094 0ebc 0A       		.uleb128 0xa
 5095 0ebd 62756600 		.ascii	"buf\000"
 5096 0ec1 17       		.byte	0x17
 5097 0ec2 36       		.byte	0x36
 5098 0ec3 13010000 		.4byte	0x113
 5099 0ec7 08       		.byte	0x8
 5100 0ec8 0B       		.uleb128 0xb
 5101 0ec9 91040000 		.4byte	.LASF289
 5102 0ecd 17       		.byte	0x17
 5103 0ece 37       		.byte	0x37
 5104 0ecf E4020000 		.4byte	0x2e4
 5105 0ed3 0C       		.byte	0xc
 5106 0ed4 00       		.byte	0
ARM GAS  C:\Users\haske\AppData\Local\Temp\ccXBxzcA.s 			page 127


 5107 0ed5 08       		.uleb128 0x8
 5108 0ed6 04       		.byte	0x4
 5109 0ed7 DB0E0000 		.4byte	0xedb
 5110 0edb 0F       		.uleb128 0xf
 5111 0edc A3010000 		.4byte	0x1a3
 5112 0ee0 08       		.uleb128 0x8
 5113 0ee1 04       		.byte	0x4
 5114 0ee2 A3010000 		.4byte	0x1a3
 5115 0ee6 0E       		.uleb128 0xe
 5116 0ee7 050E0000 		.4byte	.LASF290
 5117 0eeb 28       		.byte	0x28
 5118 0eec 17       		.byte	0x17
 5119 0eed 2D       		.byte	0x2d
 5120 0eee 3B0F0000 		.4byte	0xf3b
 5121 0ef2 0B       		.uleb128 0xb
 5122 0ef3 820E0000 		.4byte	.LASF291
 5123 0ef7 17       		.byte	0x17
 5124 0ef8 2E       		.byte	0x2e
 5125 0ef9 A3010000 		.4byte	0x1a3
 5126 0efd 00       		.byte	0
 5127 0efe 0B       		.uleb128 0xb
 5128 0eff C3240000 		.4byte	.LASF292
 5129 0f03 17       		.byte	0x17
 5130 0f04 2F       		.byte	0x2f
 5131 0f05 A3010000 		.4byte	0x1a3
 5132 0f09 08       		.byte	0x8
 5133 0f0a 0B       		.uleb128 0xb
 5134 0f0b 91220000 		.4byte	.LASF293
 5135 0f0f 17       		.byte	0x17
 5136 0f10 30       		.byte	0x30
 5137 0f11 3B010000 		.4byte	0x13b
 5138 0f15 10       		.byte	0x10
 5139 0f16 0B       		.uleb128 0xb
 5140 0f17 FA0E0000 		.4byte	.LASF294
 5141 0f1b 17       		.byte	0x17
 5142 0f1c 31       		.byte	0x31
 5143 0f1d 3B010000 		.4byte	0x13b
 5144 0f21 12       		.byte	0x12
 5145 0f22 0A       		.uleb128 0xa
 5146 0f23 62756600 		.ascii	"buf\000"
 5147 0f27 17       		.byte	0x17
 5148 0f28 32       		.byte	0x32
 5149 0f29 13010000 		.4byte	0x113
 5150 0f2d 14       		.byte	0x14
 5151 0f2e 0B       		.uleb128 0xb
 5152 0f2f 11110000 		.4byte	.LASF295
 5153 0f33 17       		.byte	0x17
 5154 0f34 38       		.byte	0x38
 5155 0f35 9C0E0000 		.4byte	0xe9c
 5156 0f39 18       		.byte	0x18
 5157 0f3a 00       		.byte	0
 5158 0f3b 02       		.uleb128 0x2
 5159 0f3c 69120000 		.4byte	.LASF296
 5160 0f40 17       		.byte	0x17
 5161 0f41 39       		.byte	0x39
 5162 0f42 E60E0000 		.4byte	0xee6
 5163 0f46 0E       		.uleb128 0xe
ARM GAS  C:\Users\haske\AppData\Local\Temp\ccXBxzcA.s 			page 128


 5164 0f47 BD030000 		.4byte	.LASF297
 5165 0f4b 54       		.byte	0x54
 5166 0f4c 17       		.byte	0x17
 5167 0f4d 3B       		.byte	0x3b
 5168 0f4e 4F100000 		.4byte	0x104f
 5169 0f52 0A       		.uleb128 0xa
 5170 0f53 62756600 		.ascii	"buf\000"
 5171 0f57 17       		.byte	0x17
 5172 0f58 3F       		.byte	0x3f
 5173 0f59 13010000 		.4byte	0x113
 5174 0f5d 00       		.byte	0
 5175 0f5e 0B       		.uleb128 0xb
 5176 0f5f 9C170000 		.4byte	.LASF288
 5177 0f63 17       		.byte	0x17
 5178 0f64 44       		.byte	0x44
 5179 0f65 E00E0000 		.4byte	0xee0
 5180 0f69 04       		.byte	0x4
 5181 0f6a 0B       		.uleb128 0xb
 5182 0f6b 18210000 		.4byte	.LASF287
 5183 0f6f 17       		.byte	0x17
 5184 0f70 49       		.byte	0x49
 5185 0f71 D50E0000 		.4byte	0xed5
 5186 0f75 08       		.byte	0x8
 5187 0f76 0B       		.uleb128 0xb
 5188 0f77 860F0000 		.4byte	.LASF298
 5189 0f7b 17       		.byte	0x17
 5190 0f7c 4B       		.byte	0x4b
 5191 0f7d 60100000 		.4byte	0x1060
 5192 0f81 0C       		.byte	0xc
 5193 0f82 0B       		.uleb128 0xb
 5194 0f83 34250000 		.4byte	.LASF299
 5195 0f87 17       		.byte	0x17
 5196 0f88 4D       		.byte	0x4d
 5197 0f89 86100000 		.4byte	0x1086
 5198 0f8d 10       		.byte	0x10
 5199 0f8e 0B       		.uleb128 0xb
 5200 0f8f 641D0000 		.4byte	.LASF300
 5201 0f93 17       		.byte	0x17
 5202 0f94 4F       		.byte	0x4f
 5203 0f95 C6100000 		.4byte	0x10c6
 5204 0f99 14       		.byte	0x14
 5205 0f9a 0B       		.uleb128 0xb
 5206 0f9b B30D0000 		.4byte	.LASF301
 5207 0f9f 17       		.byte	0x17
 5208 0fa0 52       		.byte	0x52
 5209 0fa1 F6100000 		.4byte	0x10f6
 5210 0fa5 18       		.byte	0x18
 5211 0fa6 0B       		.uleb128 0xb
 5212 0fa7 8F100000 		.4byte	.LASF302
 5213 0fab 17       		.byte	0x17
 5214 0fac 55       		.byte	0x55
 5215 0fad 1A110000 		.4byte	0x111a
 5216 0fb1 1C       		.byte	0x1c
 5217 0fb2 0B       		.uleb128 0xb
 5218 0fb3 C3100000 		.4byte	.LASF303
 5219 0fb7 17       		.byte	0x17
 5220 0fb8 58       		.byte	0x58
ARM GAS  C:\Users\haske\AppData\Local\Temp\ccXBxzcA.s 			page 129


 5221 0fb9 45110000 		.4byte	0x1145
 5222 0fbd 20       		.byte	0x20
 5223 0fbe 0B       		.uleb128 0xb
 5224 0fbf 57180000 		.4byte	.LASF304
 5225 0fc3 17       		.byte	0x17
 5226 0fc4 5C       		.byte	0x5c
 5227 0fc5 70110000 		.4byte	0x1170
 5228 0fc9 24       		.byte	0x24
 5229 0fca 0B       		.uleb128 0xb
 5230 0fcb 59190000 		.4byte	.LASF305
 5231 0fcf 17       		.byte	0x17
 5232 0fd0 60       		.byte	0x60
 5233 0fd1 90110000 		.4byte	0x1190
 5234 0fd5 28       		.byte	0x28
 5235 0fd6 0B       		.uleb128 0xb
 5236 0fd7 02200000 		.4byte	.LASF306
 5237 0fdb 17       		.byte	0x17
 5238 0fdc 71       		.byte	0x71
 5239 0fdd CE110000 		.4byte	0x11ce
 5240 0fe1 2C       		.byte	0x2c
 5241 0fe2 0B       		.uleb128 0xb
 5242 0fe3 931A0000 		.4byte	.LASF307
 5243 0fe7 17       		.byte	0x17
 5244 0fe8 78       		.byte	0x78
 5245 0fe9 86100000 		.4byte	0x1086
 5246 0fed 30       		.byte	0x30
 5247 0fee 0B       		.uleb128 0xb
 5248 0fef 2E240000 		.4byte	.LASF308
 5249 0ff3 17       		.byte	0x17
 5250 0ff4 7D       		.byte	0x7d
 5251 0ff5 60100000 		.4byte	0x1060
 5252 0ff9 34       		.byte	0x34
 5253 0ffa 0B       		.uleb128 0xb
 5254 0ffb 69170000 		.4byte	.LASF309
 5255 0fff 17       		.byte	0x17
 5256 1000 8D       		.byte	0x8d
 5257 1001 FD110000 		.4byte	0x11fd
 5258 1005 38       		.byte	0x38
 5259 1006 0B       		.uleb128 0xb
 5260 1007 201D0000 		.4byte	.LASF310
 5261 100b 17       		.byte	0x17
 5262 100c 99       		.byte	0x99
 5263 100d 22120000 		.4byte	0x1222
 5264 1011 3C       		.byte	0x3c
 5265 1012 0B       		.uleb128 0xb
 5266 1013 A6010000 		.4byte	.LASF311
 5267 1017 17       		.byte	0x17
 5268 1018 A3       		.byte	0xa3
 5269 1019 3D120000 		.4byte	0x123d
 5270 101d 40       		.byte	0x40
 5271 101e 0B       		.uleb128 0xb
 5272 101f BC0B0000 		.4byte	.LASF312
 5273 1023 17       		.byte	0x17
 5274 1024 AC       		.byte	0xac
 5275 1025 58120000 		.4byte	0x1258
 5276 1029 44       		.byte	0x44
 5277 102a 0B       		.uleb128 0xb
ARM GAS  C:\Users\haske\AppData\Local\Temp\ccXBxzcA.s 			page 130


 5278 102b 390B0000 		.4byte	.LASF313
 5279 102f 17       		.byte	0x17
 5280 1030 B5       		.byte	0xb5
 5281 1031 74120000 		.4byte	0x1274
 5282 1035 48       		.byte	0x48
 5283 1036 0B       		.uleb128 0xb
 5284 1037 46080000 		.4byte	.LASF314
 5285 103b 17       		.byte	0x17
 5286 103c BA       		.byte	0xba
 5287 103d 15010000 		.4byte	0x115
 5288 1041 4C       		.byte	0x4c
 5289 1042 0B       		.uleb128 0xb
 5290 1043 3D190000 		.4byte	.LASF47
 5291 1047 17       		.byte	0x17
 5292 1048 BD       		.byte	0xbd
 5293 1049 13010000 		.4byte	0x113
 5294 104d 50       		.byte	0x50
 5295 104e 00       		.byte	0
 5296 104f 1F       		.uleb128 0x1f
 5297 1050 5A100000 		.4byte	0x105a
 5298 1054 11       		.uleb128 0x11
 5299 1055 5A100000 		.4byte	0x105a
 5300 1059 00       		.byte	0
 5301 105a 08       		.uleb128 0x8
 5302 105b 04       		.byte	0x4
 5303 105c 460F0000 		.4byte	0xf46
 5304 1060 08       		.uleb128 0x8
 5305 1061 04       		.byte	0x4
 5306 1062 4F100000 		.4byte	0x104f
 5307 1066 1F       		.uleb128 0x1f
 5308 1067 7B100000 		.4byte	0x107b
 5309 106b 11       		.uleb128 0x11
 5310 106c 5A100000 		.4byte	0x105a
 5311 1070 11       		.uleb128 0x11
 5312 1071 7B100000 		.4byte	0x107b
 5313 1075 11       		.uleb128 0x11
 5314 1076 D50E0000 		.4byte	0xed5
 5315 107a 00       		.byte	0
 5316 107b 08       		.uleb128 0x8
 5317 107c 04       		.byte	0x4
 5318 107d 81100000 		.4byte	0x1081
 5319 1081 0F       		.uleb128 0xf
 5320 1082 9F0A0000 		.4byte	0xa9f
 5321 1086 08       		.uleb128 0x8
 5322 1087 04       		.byte	0x4
 5323 1088 66100000 		.4byte	0x1066
 5324 108c 1F       		.uleb128 0x1f
 5325 108d B0100000 		.4byte	0x10b0
 5326 1091 11       		.uleb128 0x11
 5327 1092 5A100000 		.4byte	0x105a
 5328 1096 11       		.uleb128 0x11
 5329 1097 B0100000 		.4byte	0x10b0
 5330 109b 11       		.uleb128 0x11
 5331 109c BB100000 		.4byte	0x10bb
 5332 10a0 11       		.uleb128 0x11
 5333 10a1 CE000000 		.4byte	0xce
 5334 10a5 11       		.uleb128 0x11
ARM GAS  C:\Users\haske\AppData\Local\Temp\ccXBxzcA.s 			page 131


 5335 10a6 CE000000 		.4byte	0xce
 5336 10aa 11       		.uleb128 0x11
 5337 10ab CE000000 		.4byte	0xce
 5338 10af 00       		.byte	0
 5339 10b0 08       		.uleb128 0x8
 5340 10b1 04       		.byte	0x4
 5341 10b2 B6100000 		.4byte	0x10b6
 5342 10b6 0F       		.uleb128 0xf
 5343 10b7 100D0000 		.4byte	0xd10
 5344 10bb 08       		.uleb128 0x8
 5345 10bc 04       		.byte	0x4
 5346 10bd C1100000 		.4byte	0x10c1
 5347 10c1 0F       		.uleb128 0xf
 5348 10c2 63010000 		.4byte	0x163
 5349 10c6 08       		.uleb128 0x8
 5350 10c7 04       		.byte	0x4
 5351 10c8 8C100000 		.4byte	0x108c
 5352 10cc 1F       		.uleb128 0x1f
 5353 10cd EB100000 		.4byte	0x10eb
 5354 10d1 11       		.uleb128 0x11
 5355 10d2 5A100000 		.4byte	0x105a
 5356 10d6 11       		.uleb128 0x11
 5357 10d7 EB100000 		.4byte	0x10eb
 5358 10db 11       		.uleb128 0x11
 5359 10dc D50E0000 		.4byte	0xed5
 5360 10e0 11       		.uleb128 0x11
 5361 10e1 0B030000 		.4byte	0x30b
 5362 10e5 11       		.uleb128 0x11
 5363 10e6 20080000 		.4byte	0x820
 5364 10ea 00       		.byte	0
 5365 10eb 08       		.uleb128 0x8
 5366 10ec 04       		.byte	0x4
 5367 10ed F1100000 		.4byte	0x10f1
 5368 10f1 0F       		.uleb128 0xf
 5369 10f2 0A0C0000 		.4byte	0xc0a
 5370 10f6 08       		.uleb128 0x8
 5371 10f7 04       		.byte	0x4
 5372 10f8 CC100000 		.4byte	0x10cc
 5373 10fc 10       		.uleb128 0x10
 5374 10fd 08010000 		.4byte	0x108
 5375 1101 1A110000 		.4byte	0x111a
 5376 1105 11       		.uleb128 0x11
 5377 1106 5A100000 		.4byte	0x105a
 5378 110a 11       		.uleb128 0x11
 5379 110b EB100000 		.4byte	0x10eb
 5380 110f 11       		.uleb128 0x11
 5381 1110 D50E0000 		.4byte	0xed5
 5382 1114 11       		.uleb128 0x11
 5383 1115 1C030000 		.4byte	0x31c
 5384 1119 00       		.byte	0
 5385 111a 08       		.uleb128 0x8
 5386 111b 04       		.byte	0x4
 5387 111c FC100000 		.4byte	0x10fc
 5388 1120 1F       		.uleb128 0x1f
 5389 1121 3A110000 		.4byte	0x113a
 5390 1125 11       		.uleb128 0x11
 5391 1126 5A100000 		.4byte	0x105a
ARM GAS  C:\Users\haske\AppData\Local\Temp\ccXBxzcA.s 			page 132


 5392 112a 11       		.uleb128 0x11
 5393 112b 3A110000 		.4byte	0x113a
 5394 112f 11       		.uleb128 0x11
 5395 1130 BB100000 		.4byte	0x10bb
 5396 1134 11       		.uleb128 0x11
 5397 1135 E4000000 		.4byte	0xe4
 5398 1139 00       		.byte	0
 5399 113a 08       		.uleb128 0x8
 5400 113b 04       		.byte	0x4
 5401 113c 40110000 		.4byte	0x1140
 5402 1140 0F       		.uleb128 0xf
 5403 1141 840B0000 		.4byte	0xb84
 5404 1145 08       		.uleb128 0x8
 5405 1146 04       		.byte	0x4
 5406 1147 20110000 		.4byte	0x1120
 5407 114b 1F       		.uleb128 0x1f
 5408 114c 65110000 		.4byte	0x1165
 5409 1150 11       		.uleb128 0x11
 5410 1151 5A100000 		.4byte	0x105a
 5411 1155 11       		.uleb128 0x11
 5412 1156 65110000 		.4byte	0x1165
 5413 115a 11       		.uleb128 0x11
 5414 115b BB100000 		.4byte	0x10bb
 5415 115f 11       		.uleb128 0x11
 5416 1160 BB100000 		.4byte	0x10bb
 5417 1164 00       		.byte	0
 5418 1165 08       		.uleb128 0x8
 5419 1166 04       		.byte	0x4
 5420 1167 6B110000 		.4byte	0x116b
 5421 116b 0F       		.uleb128 0xf
 5422 116c 960C0000 		.4byte	0xc96
 5423 1170 08       		.uleb128 0x8
 5424 1171 04       		.byte	0x4
 5425 1172 4B110000 		.4byte	0x114b
 5426 1176 1F       		.uleb128 0x1f
 5427 1177 90110000 		.4byte	0x1190
 5428 117b 11       		.uleb128 0x11
 5429 117c 5A100000 		.4byte	0x105a
 5430 1180 11       		.uleb128 0x11
 5431 1181 7B100000 		.4byte	0x107b
 5432 1185 11       		.uleb128 0x11
 5433 1186 BB100000 		.4byte	0x10bb
 5434 118a 11       		.uleb128 0x11
 5435 118b CE000000 		.4byte	0xce
 5436 118f 00       		.byte	0
 5437 1190 08       		.uleb128 0x8
 5438 1191 04       		.byte	0x4
 5439 1192 76110000 		.4byte	0x1176
 5440 1196 1F       		.uleb128 0x1f
 5441 1197 CE110000 		.4byte	0x11ce
 5442 119b 11       		.uleb128 0x11
 5443 119c 5A100000 		.4byte	0x105a
 5444 11a0 11       		.uleb128 0x11
 5445 11a1 D50E0000 		.4byte	0xed5
 5446 11a5 11       		.uleb128 0x11
 5447 11a6 1C030000 		.4byte	0x31c
 5448 11aa 11       		.uleb128 0x11
ARM GAS  C:\Users\haske\AppData\Local\Temp\ccXBxzcA.s 			page 133


 5449 11ab 3B010000 		.4byte	0x13b
 5450 11af 11       		.uleb128 0x11
 5451 11b0 3B010000 		.4byte	0x13b
 5452 11b4 11       		.uleb128 0x11
 5453 11b5 3B010000 		.4byte	0x13b
 5454 11b9 11       		.uleb128 0x11
 5455 11ba EB100000 		.4byte	0x10eb
 5456 11be 11       		.uleb128 0x11
 5457 11bf 20080000 		.4byte	0x820
 5458 11c3 11       		.uleb128 0x11
 5459 11c4 52090000 		.4byte	0x952
 5460 11c8 11       		.uleb128 0x11
 5461 11c9 650D0000 		.4byte	0xd65
 5462 11cd 00       		.byte	0
 5463 11ce 08       		.uleb128 0x8
 5464 11cf 04       		.byte	0x4
 5465 11d0 96110000 		.4byte	0x1196
 5466 11d4 1F       		.uleb128 0x1f
 5467 11d5 FD110000 		.4byte	0x11fd
 5468 11d9 11       		.uleb128 0x11
 5469 11da 5A100000 		.4byte	0x105a
 5470 11de 11       		.uleb128 0x11
 5471 11df 13010000 		.4byte	0x113
 5472 11e3 11       		.uleb128 0x11
 5473 11e4 3B010000 		.4byte	0x13b
 5474 11e8 11       		.uleb128 0x11
 5475 11e9 D50E0000 		.4byte	0xed5
 5476 11ed 11       		.uleb128 0x11
 5477 11ee 13010000 		.4byte	0x113
 5478 11f2 11       		.uleb128 0x11
 5479 11f3 3B010000 		.4byte	0x13b
 5480 11f7 11       		.uleb128 0x11
 5481 11f8 D50E0000 		.4byte	0xed5
 5482 11fc 00       		.byte	0
 5483 11fd 08       		.uleb128 0x8
 5484 11fe 04       		.byte	0x4
 5485 11ff D4110000 		.4byte	0x11d4
 5486 1203 10       		.uleb128 0x10
 5487 1204 1C120000 		.4byte	0x121c
 5488 1208 1C120000 		.4byte	0x121c
 5489 120c 11       		.uleb128 0x11
 5490 120d 5A100000 		.4byte	0x105a
 5491 1211 11       		.uleb128 0x11
 5492 1212 1C120000 		.4byte	0x121c
 5493 1216 11       		.uleb128 0x11
 5494 1217 910E0000 		.4byte	0xe91
 5495 121b 00       		.byte	0
 5496 121c 08       		.uleb128 0x8
 5497 121d 04       		.byte	0x4
 5498 121e E60E0000 		.4byte	0xee6
 5499 1222 08       		.uleb128 0x8
 5500 1223 04       		.byte	0x4
 5501 1224 03120000 		.4byte	0x1203
 5502 1228 1F       		.uleb128 0x1f
 5503 1229 3D120000 		.4byte	0x123d
 5504 122d 11       		.uleb128 0x11
 5505 122e 5A100000 		.4byte	0x105a
ARM GAS  C:\Users\haske\AppData\Local\Temp\ccXBxzcA.s 			page 134


 5506 1232 11       		.uleb128 0x11
 5507 1233 1C120000 		.4byte	0x121c
 5508 1237 11       		.uleb128 0x11
 5509 1238 910E0000 		.4byte	0xe91
 5510 123c 00       		.byte	0
 5511 123d 08       		.uleb128 0x8
 5512 123e 04       		.byte	0x4
 5513 123f 28120000 		.4byte	0x1228
 5514 1243 1F       		.uleb128 0x1f
 5515 1244 58120000 		.4byte	0x1258
 5516 1248 11       		.uleb128 0x11
 5517 1249 5A100000 		.4byte	0x105a
 5518 124d 11       		.uleb128 0x11
 5519 124e 1C120000 		.4byte	0x121c
 5520 1252 11       		.uleb128 0x11
 5521 1253 EB100000 		.4byte	0x10eb
 5522 1257 00       		.byte	0
 5523 1258 08       		.uleb128 0x8
 5524 1259 04       		.byte	0x4
 5525 125a 43120000 		.4byte	0x1243
 5526 125e 1F       		.uleb128 0x1f
 5527 125f 6E120000 		.4byte	0x126e
 5528 1263 11       		.uleb128 0x11
 5529 1264 5A100000 		.4byte	0x105a
 5530 1268 11       		.uleb128 0x11
 5531 1269 6E120000 		.4byte	0x126e
 5532 126d 00       		.byte	0
 5533 126e 08       		.uleb128 0x8
 5534 126f 04       		.byte	0x4
 5535 1270 3B0F0000 		.4byte	0xf3b
 5536 1274 08       		.uleb128 0x8
 5537 1275 04       		.byte	0x4
 5538 1276 5E120000 		.4byte	0x125e
 5539 127a 02       		.uleb128 0x2
 5540 127b C91B0000 		.4byte	.LASF315
 5541 127f 17       		.byte	0x17
 5542 1280 C0       		.byte	0xc0
 5543 1281 460F0000 		.4byte	0xf46
 5544 1285 02       		.uleb128 0x2
 5545 1286 0D0A0000 		.4byte	.LASF316
 5546 128a 18       		.byte	0x18
 5547 128b 1D       		.byte	0x1d
 5548 128c B8000000 		.4byte	0xb8
 5549 1290 09       		.uleb128 0x9
 5550 1291 0C       		.byte	0xc
 5551 1292 18       		.byte	0x18
 5552 1293 20       		.byte	0x20
 5553 1294 BD120000 		.4byte	0x12bd
 5554 1298 0B       		.uleb128 0xb
 5555 1299 2C220000 		.4byte	.LASF317
 5556 129d 18       		.byte	0x18
 5557 129e 21       		.byte	0x21
 5558 129f E4000000 		.4byte	0xe4
 5559 12a3 00       		.byte	0
 5560 12a4 0B       		.uleb128 0xb
 5561 12a5 FD1F0000 		.4byte	.LASF318
 5562 12a9 18       		.byte	0x18
ARM GAS  C:\Users\haske\AppData\Local\Temp\ccXBxzcA.s 			page 135


 5563 12aa 22       		.byte	0x22
 5564 12ab BD120000 		.4byte	0x12bd
 5565 12af 04       		.byte	0x4
 5566 12b0 0B       		.uleb128 0xb
 5567 12b1 0C1E0000 		.4byte	.LASF319
 5568 12b5 18       		.byte	0x18
 5569 12b6 23       		.byte	0x23
 5570 12b7 BD120000 		.4byte	0x12bd
 5571 12bb 08       		.byte	0x8
 5572 12bc 00       		.byte	0
 5573 12bd 08       		.uleb128 0x8
 5574 12be 04       		.byte	0x4
 5575 12bf 85120000 		.4byte	0x1285
 5576 12c3 02       		.uleb128 0x2
 5577 12c4 F4110000 		.4byte	.LASF320
 5578 12c8 18       		.byte	0x18
 5579 12c9 24       		.byte	0x24
 5580 12ca 90120000 		.4byte	0x1290
 5581 12ce 08       		.uleb128 0x8
 5582 12cf 04       		.byte	0x4
 5583 12d0 7A120000 		.4byte	0x127a
 5584 12d4 08       		.uleb128 0x8
 5585 12d5 04       		.byte	0x4
 5586 12d6 85080000 		.4byte	0x885
 5587 12da 0E       		.uleb128 0xe
 5588 12db E2000000 		.4byte	.LASF321
 5589 12df 20       		.byte	0x20
 5590 12e0 19       		.byte	0x19
 5591 12e1 3B       		.byte	0x3b
 5592 12e2 5F130000 		.4byte	0x135f
 5593 12e6 0B       		.uleb128 0xb
 5594 12e7 241B0000 		.4byte	.LASF322
 5595 12eb 19       		.byte	0x19
 5596 12ec 3C       		.byte	0x3c
 5597 12ed C3120000 		.4byte	0x12c3
 5598 12f1 00       		.byte	0
 5599 12f2 0B       		.uleb128 0xb
 5600 12f3 B2080000 		.4byte	.LASF323
 5601 12f7 19       		.byte	0x19
 5602 12f8 3D       		.byte	0x3d
 5603 12f9 D4120000 		.4byte	0x12d4
 5604 12fd 0C       		.byte	0xc
 5605 12fe 0B       		.uleb128 0xb
 5606 12ff 9B050000 		.4byte	.LASF324
 5607 1303 19       		.byte	0x19
 5608 1304 3F       		.byte	0x3f
 5609 1305 EA170000 		.4byte	0x17ea
 5610 1309 10       		.byte	0x10
 5611 130a 0B       		.uleb128 0xb
 5612 130b 83150000 		.4byte	.LASF325
 5613 130f 19       		.byte	0x19
 5614 1310 40       		.byte	0x40
 5615 1311 06180000 		.4byte	0x1806
 5616 1315 14       		.byte	0x14
 5617 1316 0B       		.uleb128 0xb
 5618 1317 3D190000 		.4byte	.LASF47
 5619 131b 19       		.byte	0x19
ARM GAS  C:\Users\haske\AppData\Local\Temp\ccXBxzcA.s 			page 136


 5620 131c 45       		.byte	0x45
 5621 131d 13010000 		.4byte	0x113
 5622 1321 18       		.byte	0x18
 5623 1322 0D       		.uleb128 0xd
 5624 1323 08100000 		.4byte	.LASF326
 5625 1327 19       		.byte	0x19
 5626 1328 48       		.byte	0x48
 5627 1329 B8000000 		.4byte	0xb8
 5628 132d 01       		.byte	0x1
 5629 132e 01       		.byte	0x1
 5630 132f 07       		.byte	0x7
 5631 1330 1C       		.byte	0x1c
 5632 1331 0D       		.uleb128 0xd
 5633 1332 06160000 		.4byte	.LASF327
 5634 1336 19       		.byte	0x19
 5635 1337 49       		.byte	0x49
 5636 1338 B8000000 		.4byte	0xb8
 5637 133c 01       		.byte	0x1
 5638 133d 01       		.byte	0x1
 5639 133e 06       		.byte	0x6
 5640 133f 1C       		.byte	0x1c
 5641 1340 0D       		.uleb128 0xd
 5642 1341 11200000 		.4byte	.LASF328
 5643 1345 19       		.byte	0x19
 5644 1346 4A       		.byte	0x4a
 5645 1347 B8000000 		.4byte	0xb8
 5646 134b 01       		.byte	0x1
 5647 134c 01       		.byte	0x1
 5648 134d 05       		.byte	0x5
 5649 134e 1C       		.byte	0x1c
 5650 134f 0D       		.uleb128 0xd
 5651 1350 531C0000 		.4byte	.LASF329
 5652 1354 19       		.byte	0x19
 5653 1355 4C       		.byte	0x4c
 5654 1356 B8000000 		.4byte	0xb8
 5655 135a 01       		.byte	0x1
 5656 135b 01       		.byte	0x1
 5657 135c 04       		.byte	0x4
 5658 135d 1C       		.byte	0x1c
 5659 135e 00       		.byte	0
 5660 135f 08       		.uleb128 0x8
 5661 1360 04       		.byte	0x4
 5662 1361 DA120000 		.4byte	0x12da
 5663 1365 02       		.uleb128 0x2
 5664 1366 24190000 		.4byte	.LASF330
 5665 136a 0F       		.byte	0xf
 5666 136b 3C       		.byte	0x3c
 5667 136c CE000000 		.4byte	0xce
 5668 1370 05       		.uleb128 0x5
 5669 1371 04       		.byte	0x4
 5670 1372 A6000000 		.4byte	0xa6
 5671 1376 0F       		.byte	0xf
 5672 1377 44       		.byte	0x44
 5673 1378 D4130000 		.4byte	0x13d4
 5674 137c 06       		.uleb128 0x6
 5675 137d CB020000 		.4byte	.LASF331
 5676 1381 00       		.byte	0
ARM GAS  C:\Users\haske\AppData\Local\Temp\ccXBxzcA.s 			page 137


 5677 1382 20       		.uleb128 0x20
 5678 1383 F7170000 		.4byte	.LASF332
 5679 1387 00000100 		.4byte	0x10000
 5680 138b 20       		.uleb128 0x20
 5681 138c AE0C0000 		.4byte	.LASF333
 5682 1390 00000200 		.4byte	0x20000
 5683 1394 20       		.uleb128 0x20
 5684 1395 35110000 		.4byte	.LASF334
 5685 1399 00000300 		.4byte	0x30000
 5686 139d 20       		.uleb128 0x20
 5687 139e F00C0000 		.4byte	.LASF335
 5688 13a2 00000400 		.4byte	0x40000
 5689 13a6 20       		.uleb128 0x20
 5690 13a7 B80A0000 		.4byte	.LASF336
 5691 13ab 00000500 		.4byte	0x50000
 5692 13af 20       		.uleb128 0x20
 5693 13b0 F4070000 		.4byte	.LASF337
 5694 13b4 00000600 		.4byte	0x60000
 5695 13b8 20       		.uleb128 0x20
 5696 13b9 74250000 		.4byte	.LASF338
 5697 13bd 00000700 		.4byte	0x70000
 5698 13c1 20       		.uleb128 0x20
 5699 13c2 32010000 		.4byte	.LASF339
 5700 13c6 00000800 		.4byte	0x80000
 5701 13ca 20       		.uleb128 0x20
 5702 13cb 6B220000 		.4byte	.LASF340
 5703 13cf 00000F00 		.4byte	0xf0000
 5704 13d3 00       		.byte	0
 5705 13d4 02       		.uleb128 0x2
 5706 13d5 1B030000 		.4byte	.LASF341
 5707 13d9 0F       		.byte	0xf
 5708 13da 7D       		.byte	0x7d
 5709 13db E4000000 		.4byte	0xe4
 5710 13df 02       		.uleb128 0x2
 5711 13e0 DA1A0000 		.4byte	.LASF342
 5712 13e4 1A       		.byte	0x1a
 5713 13e5 26       		.byte	0x26
 5714 13e6 B8000000 		.4byte	0xb8
 5715 13ea 02       		.uleb128 0x2
 5716 13eb CF100000 		.4byte	.LASF343
 5717 13ef 1A       		.byte	0x1a
 5718 13f0 30       		.byte	0x30
 5719 13f1 B8000000 		.4byte	0xb8
 5720 13f5 09       		.uleb128 0x9
 5721 13f6 08       		.byte	0x8
 5722 13f7 1B       		.byte	0x1b
 5723 13f8 27       		.byte	0x27
 5724 13f9 37140000 		.4byte	0x1437
 5725 13fd 0B       		.uleb128 0xb
 5726 13fe D71D0000 		.4byte	.LASF344
 5727 1402 1B       		.byte	0x1b
 5728 1403 28       		.byte	0x28
 5729 1404 37140000 		.4byte	0x1437
 5730 1408 00       		.byte	0
 5731 1409 0D       		.uleb128 0xd
 5732 140a C60A0000 		.4byte	.LASF345
 5733 140e 1B       		.byte	0x1b
ARM GAS  C:\Users\haske\AppData\Local\Temp\ccXBxzcA.s 			page 138


 5734 140f 29       		.byte	0x29
 5735 1410 E4000000 		.4byte	0xe4
 5736 1414 04       		.byte	0x4
 5737 1415 18       		.byte	0x18
 5738 1416 08       		.byte	0x8
 5739 1417 04       		.byte	0x4
 5740 1418 0D       		.uleb128 0xd
 5741 1419 CF0A0000 		.4byte	.LASF346
 5742 141d 1B       		.byte	0x1b
 5743 141e 2A       		.byte	0x2a
 5744 141f E4000000 		.4byte	0xe4
 5745 1423 04       		.byte	0x4
 5746 1424 01       		.byte	0x1
 5747 1425 07       		.byte	0x7
 5748 1426 04       		.byte	0x4
 5749 1427 0D       		.uleb128 0xd
 5750 1428 340A0000 		.4byte	.LASF347
 5751 142c 1B       		.byte	0x1b
 5752 142d 2B       		.byte	0x2b
 5753 142e E4000000 		.4byte	0xe4
 5754 1432 04       		.byte	0x4
 5755 1433 01       		.byte	0x1
 5756 1434 06       		.byte	0x6
 5757 1435 04       		.byte	0x4
 5758 1436 00       		.byte	0
 5759 1437 08       		.uleb128 0x8
 5760 1438 04       		.byte	0x4
 5761 1439 14080000 		.4byte	0x814
 5762 143d 02       		.uleb128 0x2
 5763 143e 31180000 		.4byte	.LASF348
 5764 1442 1B       		.byte	0x1b
 5765 1443 2C       		.byte	0x2c
 5766 1444 F5130000 		.4byte	0x13f5
 5767 1448 09       		.uleb128 0x9
 5768 1449 48       		.byte	0x48
 5769 144a 1C       		.byte	0x1c
 5770 144b 2A       		.byte	0x2a
 5771 144c 26150000 		.4byte	0x1526
 5772 1450 0B       		.uleb128 0xb
 5773 1451 E5240000 		.4byte	.LASF349
 5774 1455 1C       		.byte	0x1c
 5775 1456 2B       		.byte	0x2b
 5776 1457 CE120000 		.4byte	0x12ce
 5777 145b 00       		.byte	0
 5778 145c 0B       		.uleb128 0xb
 5779 145d E9180000 		.4byte	.LASF196
 5780 1461 1C       		.byte	0x1c
 5781 1462 2C       		.byte	0x2c
 5782 1463 B4150000 		.4byte	0x15b4
 5783 1467 04       		.byte	0x4
 5784 1468 0B       		.uleb128 0xb
 5785 1469 DF130000 		.4byte	.LASF271
 5786 146d 1C       		.byte	0x1c
 5787 146e 2D       		.byte	0x2d
 5788 146f E4000000 		.4byte	0xe4
 5789 1473 08       		.byte	0x8
 5790 1474 0B       		.uleb128 0xb
ARM GAS  C:\Users\haske\AppData\Local\Temp\ccXBxzcA.s 			page 139


 5791 1475 10010000 		.4byte	.LASF350
 5792 1479 1C       		.byte	0x1c
 5793 147a 2E       		.byte	0x2e
 5794 147b E00E0000 		.4byte	0xee0
 5795 147f 0C       		.byte	0xc
 5796 1480 0B       		.uleb128 0xb
 5797 1481 D8020000 		.4byte	.LASF351
 5798 1485 1C       		.byte	0x1c
 5799 1486 30       		.byte	0x30
 5800 1487 BF150000 		.4byte	0x15bf
 5801 148b 10       		.byte	0x10
 5802 148c 0B       		.uleb128 0xb
 5803 148d 78020000 		.4byte	.LASF352
 5804 1491 1C       		.byte	0x1c
 5805 1492 32       		.byte	0x32
 5806 1493 C5150000 		.4byte	0x15c5
 5807 1497 14       		.byte	0x14
 5808 1498 0B       		.uleb128 0xb
 5809 1499 62090000 		.4byte	.LASF353
 5810 149d 1C       		.byte	0x1c
 5811 149e 34       		.byte	0x34
 5812 149f CB150000 		.4byte	0x15cb
 5813 14a3 18       		.byte	0x18
 5814 14a4 0B       		.uleb128 0xb
 5815 14a5 35100000 		.4byte	.LASF354
 5816 14a9 1C       		.byte	0x1c
 5817 14aa 36       		.byte	0x36
 5818 14ab D1150000 		.4byte	0x15d1
 5819 14af 1C       		.byte	0x1c
 5820 14b0 0B       		.uleb128 0xb
 5821 14b1 BA210000 		.4byte	.LASF355
 5822 14b5 1C       		.byte	0x1c
 5823 14b6 38       		.byte	0x38
 5824 14b7 D7150000 		.4byte	0x15d7
 5825 14bb 20       		.byte	0x20
 5826 14bc 0A       		.uleb128 0xa
 5827 14bd 703100   		.ascii	"p1\000"
 5828 14c0 1C       		.byte	0x1c
 5829 14c1 3A       		.byte	0x3a
 5830 14c2 BB100000 		.4byte	0x10bb
 5831 14c6 24       		.byte	0x24
 5832 14c7 0A       		.uleb128 0xa
 5833 14c8 703200   		.ascii	"p2\000"
 5834 14cb 1C       		.byte	0x1c
 5835 14cc 3B       		.byte	0x3b
 5836 14cd BB100000 		.4byte	0x10bb
 5837 14d1 28       		.byte	0x28
 5838 14d2 0B       		.uleb128 0xb
 5839 14d3 B60E0000 		.4byte	.LASF356
 5840 14d7 1C       		.byte	0x1c
 5841 14d8 3C       		.byte	0x3c
 5842 14d9 2E010000 		.4byte	0x12e
 5843 14dd 2C       		.byte	0x2c
 5844 14de 0B       		.uleb128 0xb
 5845 14df 65240000 		.4byte	.LASF357
 5846 14e3 1C       		.byte	0x1c
 5847 14e4 3D       		.byte	0x3d
ARM GAS  C:\Users\haske\AppData\Local\Temp\ccXBxzcA.s 			page 140


 5848 14e5 E4000000 		.4byte	0xe4
 5849 14e9 30       		.byte	0x30
 5850 14ea 0B       		.uleb128 0xb
 5851 14eb 6A150000 		.4byte	.LASF358
 5852 14ef 1C       		.byte	0x1c
 5853 14f0 3E       		.byte	0x3e
 5854 14f1 E4000000 		.4byte	0xe4
 5855 14f5 34       		.byte	0x34
 5856 14f6 0A       		.uleb128 0xa
 5857 14f7 696400   		.ascii	"id\000"
 5858 14fa 1C       		.byte	0x1c
 5859 14fb 3F       		.byte	0x3f
 5860 14fc E4000000 		.4byte	0xe4
 5861 1500 38       		.byte	0x38
 5862 1501 0B       		.uleb128 0xb
 5863 1502 1D270000 		.4byte	.LASF209
 5864 1506 1C       		.byte	0x1c
 5865 1507 40       		.byte	0x40
 5866 1508 3B010000 		.4byte	0x13b
 5867 150c 3C       		.byte	0x3c
 5868 150d 0B       		.uleb128 0xb
 5869 150e DF0F0000 		.4byte	.LASF181
 5870 1512 1C       		.byte	0x1c
 5871 1513 41       		.byte	0x41
 5872 1514 D9000000 		.4byte	0xd9
 5873 1518 40       		.byte	0x40
 5874 1519 0B       		.uleb128 0xb
 5875 151a 111E0000 		.4byte	.LASF359
 5876 151e 1C       		.byte	0x1c
 5877 151f 42       		.byte	0x42
 5878 1520 1C030000 		.4byte	0x31c
 5879 1524 44       		.byte	0x44
 5880 1525 00       		.byte	0
 5881 1526 0E       		.uleb128 0xe
 5882 1527 64080000 		.4byte	.LASF360
 5883 152b 1C       		.byte	0x1c
 5884 152c 1D       		.byte	0x1d
 5885 152d 31       		.byte	0x31
 5886 152e B4150000 		.4byte	0x15b4
 5887 1532 0B       		.uleb128 0xb
 5888 1533 78130000 		.4byte	.LASF361
 5889 1537 1D       		.byte	0x1d
 5890 1538 32       		.byte	0x32
 5891 1539 B4150000 		.4byte	0x15b4
 5892 153d 00       		.byte	0
 5893 153e 0B       		.uleb128 0xb
 5894 153f 12180000 		.4byte	.LASF362
 5895 1543 1D       		.byte	0x1d
 5896 1544 33       		.byte	0x33
 5897 1545 80160000 		.4byte	0x1680
 5898 1549 04       		.byte	0x4
 5899 154a 0B       		.uleb128 0xb
 5900 154b BF250000 		.4byte	.LASF363
 5901 154f 1D       		.byte	0x1d
 5902 1550 34       		.byte	0x34
 5903 1551 80160000 		.4byte	0x1680
 5904 1555 08       		.byte	0x8
ARM GAS  C:\Users\haske\AppData\Local\Temp\ccXBxzcA.s 			page 141


 5905 1556 0B       		.uleb128 0xb
 5906 1557 3D190000 		.4byte	.LASF47
 5907 155b 1D       		.byte	0x1d
 5908 155c 36       		.byte	0x36
 5909 155d 13010000 		.4byte	0x113
 5910 1561 0C       		.byte	0xc
 5911 1562 0B       		.uleb128 0xb
 5912 1563 C80B0000 		.4byte	.LASF364
 5913 1567 1D       		.byte	0x1d
 5914 1568 38       		.byte	0x38
 5915 1569 96160000 		.4byte	0x1696
 5916 156d 10       		.byte	0x10
 5917 156e 0B       		.uleb128 0xb
 5918 156f DF180000 		.4byte	.LASF365
 5919 1573 1D       		.byte	0x1d
 5920 1574 3A       		.byte	0x3a
 5921 1575 3B010000 		.4byte	0x13b
 5922 1579 14       		.byte	0x14
 5923 157a 0B       		.uleb128 0xb
 5924 157b 32080000 		.4byte	.LASF366
 5925 157f 1D       		.byte	0x1d
 5926 1580 3B       		.byte	0x3b
 5927 1581 3B010000 		.4byte	0x13b
 5928 1585 16       		.byte	0x16
 5929 1586 0D       		.uleb128 0xd
 5930 1587 09170000 		.4byte	.LASF367
 5931 158b 1D       		.byte	0x1d
 5932 158c 3C       		.byte	0x3c
 5933 158d E4000000 		.4byte	0xe4
 5934 1591 04       		.byte	0x4
 5935 1592 02       		.byte	0x2
 5936 1593 1E       		.byte	0x1e
 5937 1594 18       		.byte	0x18
 5938 1595 0D       		.uleb128 0xd
 5939 1596 85190000 		.4byte	.LASF368
 5940 159a 1D       		.byte	0x1d
 5941 159b 3D       		.byte	0x3d
 5942 159c E4000000 		.4byte	0xe4
 5943 15a0 04       		.byte	0x4
 5944 15a1 02       		.byte	0x2
 5945 15a2 1C       		.byte	0x1c
 5946 15a3 18       		.byte	0x18
 5947 15a4 0D       		.uleb128 0xd
 5948 15a5 B5130000 		.4byte	.LASF369
 5949 15a9 1D       		.byte	0x1d
 5950 15aa 3E       		.byte	0x3e
 5951 15ab E4000000 		.4byte	0xe4
 5952 15af 04       		.byte	0x4
 5953 15b0 10       		.byte	0x10
 5954 15b1 0C       		.byte	0xc
 5955 15b2 18       		.byte	0x18
 5956 15b3 00       		.byte	0
 5957 15b4 08       		.uleb128 0x8
 5958 15b5 04       		.byte	0x4
 5959 15b6 BA150000 		.4byte	0x15ba
 5960 15ba 0F       		.uleb128 0xf
 5961 15bb 26150000 		.4byte	0x1526
ARM GAS  C:\Users\haske\AppData\Local\Temp\ccXBxzcA.s 			page 142


 5962 15bf 08       		.uleb128 0x8
 5963 15c0 04       		.byte	0x4
 5964 15c1 9F0A0000 		.4byte	0xa9f
 5965 15c5 08       		.uleb128 0x8
 5966 15c6 04       		.byte	0x4
 5967 15c7 840B0000 		.4byte	0xb84
 5968 15cb 08       		.uleb128 0x8
 5969 15cc 04       		.byte	0x4
 5970 15cd 960C0000 		.4byte	0xc96
 5971 15d1 08       		.uleb128 0x8
 5972 15d2 04       		.byte	0x4
 5973 15d3 0A0C0000 		.4byte	0xc0a
 5974 15d7 08       		.uleb128 0x8
 5975 15d8 04       		.byte	0x4
 5976 15d9 100D0000 		.4byte	0xd10
 5977 15dd 02       		.uleb128 0x2
 5978 15de 51100000 		.4byte	.LASF370
 5979 15e2 1C       		.byte	0x1c
 5980 15e3 43       		.byte	0x43
 5981 15e4 48140000 		.4byte	0x1448
 5982 15e8 08       		.uleb128 0x8
 5983 15e9 04       		.byte	0x4
 5984 15ea EE150000 		.4byte	0x15ee
 5985 15ee 0E       		.uleb128 0xe
 5986 15ef 56090000 		.4byte	.LASF371
 5987 15f3 1C       		.byte	0x1c
 5988 15f4 1E       		.byte	0x1e
 5989 15f5 5E       		.byte	0x5e
 5990 15f6 70160000 		.4byte	0x1670
 5991 15fa 0B       		.uleb128 0xb
 5992 15fb 1A0A0000 		.4byte	.LASF372
 5993 15ff 1E       		.byte	0x1e
 5994 1600 5F       		.byte	0x5f
 5995 1601 85080000 		.4byte	0x885
 5996 1605 00       		.byte	0
 5997 1606 0B       		.uleb128 0xb
 5998 1607 D71B0000 		.4byte	.LASF373
 5999 160b 1E       		.byte	0x1e
 6000 160c 60       		.byte	0x60
 6001 160d 85080000 		.4byte	0x885
 6002 1611 04       		.byte	0x4
 6003 1612 0B       		.uleb128 0xb
 6004 1613 BB0E0000 		.4byte	.LASF374
 6005 1617 1E       		.byte	0x1e
 6006 1618 61       		.byte	0x61
 6007 1619 CE170000 		.4byte	0x17ce
 6008 161d 08       		.byte	0x8
 6009 161e 0B       		.uleb128 0xb
 6010 161f 3D190000 		.4byte	.LASF47
 6011 1623 1E       		.byte	0x1e
 6012 1624 62       		.byte	0x62
 6013 1625 13010000 		.4byte	0x113
 6014 1629 0C       		.byte	0xc
 6015 162a 0B       		.uleb128 0xb
 6016 162b D50D0000 		.4byte	.LASF375
 6017 162f 1E       		.byte	0x1e
 6018 1630 63       		.byte	0x63
ARM GAS  C:\Users\haske\AppData\Local\Temp\ccXBxzcA.s 			page 143


 6019 1631 13010000 		.4byte	0x113
 6020 1635 10       		.byte	0x10
 6021 1636 0B       		.uleb128 0xb
 6022 1637 BB260000 		.4byte	.LASF376
 6023 163b 1E       		.byte	0x1e
 6024 163c 64       		.byte	0x64
 6025 163d E8150000 		.4byte	0x15e8
 6026 1641 14       		.byte	0x14
 6027 1642 0D       		.uleb128 0xd
 6028 1643 CD250000 		.4byte	.LASF377
 6029 1647 1E       		.byte	0x1e
 6030 1648 65       		.byte	0x65
 6031 1649 B8000000 		.4byte	0xb8
 6032 164d 01       		.byte	0x1
 6033 164e 01       		.byte	0x1
 6034 164f 07       		.byte	0x7
 6035 1650 18       		.byte	0x18
 6036 1651 0D       		.uleb128 0xd
 6037 1652 E1060000 		.4byte	.LASF378
 6038 1656 1E       		.byte	0x1e
 6039 1657 66       		.byte	0x66
 6040 1658 B8000000 		.4byte	0xb8
 6041 165c 01       		.byte	0x1
 6042 165d 01       		.byte	0x1
 6043 165e 06       		.byte	0x6
 6044 165f 18       		.byte	0x18
 6045 1660 0D       		.uleb128 0xd
 6046 1661 1C140000 		.4byte	.LASF379
 6047 1665 1E       		.byte	0x1e
 6048 1666 67       		.byte	0x67
 6049 1667 B8000000 		.4byte	0xb8
 6050 166b 01       		.byte	0x1
 6051 166c 01       		.byte	0x1
 6052 166d 05       		.byte	0x5
 6053 166e 18       		.byte	0x18
 6054 166f 00       		.byte	0
 6055 1670 1F       		.uleb128 0x1f
 6056 1671 80160000 		.4byte	0x1680
 6057 1675 11       		.uleb128 0x11
 6058 1676 B4150000 		.4byte	0x15b4
 6059 167a 11       		.uleb128 0x11
 6060 167b 85080000 		.4byte	0x885
 6061 167f 00       		.byte	0
 6062 1680 08       		.uleb128 0x8
 6063 1681 04       		.byte	0x4
 6064 1682 70160000 		.4byte	0x1670
 6065 1686 1F       		.uleb128 0x1f
 6066 1687 96160000 		.4byte	0x1696
 6067 168b 11       		.uleb128 0x11
 6068 168c B4150000 		.4byte	0x15b4
 6069 1690 11       		.uleb128 0x11
 6070 1691 E8150000 		.4byte	0x15e8
 6071 1695 00       		.byte	0
 6072 1696 08       		.uleb128 0x8
 6073 1697 04       		.byte	0x4
 6074 1698 86160000 		.4byte	0x1686
 6075 169c 02       		.uleb128 0x2
ARM GAS  C:\Users\haske\AppData\Local\Temp\ccXBxzcA.s 			page 144


 6076 169d 0C0C0000 		.4byte	.LASF380
 6077 16a1 1D       		.byte	0x1d
 6078 16a2 3F       		.byte	0x3f
 6079 16a3 26150000 		.4byte	0x1526
 6080 16a7 05       		.uleb128 0x5
 6081 16a8 01       		.byte	0x1
 6082 16a9 42000000 		.4byte	0x42
 6083 16ad 1E       		.byte	0x1e
 6084 16ae 20       		.byte	0x20
 6085 16af CE170000 		.4byte	0x17ce
 6086 16b3 06       		.uleb128 0x6
 6087 16b4 77040000 		.4byte	.LASF381
 6088 16b8 00       		.byte	0
 6089 16b9 06       		.uleb128 0x6
 6090 16ba 731D0000 		.4byte	.LASF382
 6091 16be 01       		.byte	0x1
 6092 16bf 06       		.uleb128 0x6
 6093 16c0 20120000 		.4byte	.LASF383
 6094 16c4 02       		.byte	0x2
 6095 16c5 06       		.uleb128 0x6
 6096 16c6 EE1A0000 		.4byte	.LASF384
 6097 16ca 03       		.byte	0x3
 6098 16cb 06       		.uleb128 0x6
 6099 16cc 8F0F0000 		.4byte	.LASF385
 6100 16d0 04       		.byte	0x4
 6101 16d1 06       		.uleb128 0x6
 6102 16d2 EC250000 		.4byte	.LASF386
 6103 16d6 05       		.byte	0x5
 6104 16d7 06       		.uleb128 0x6
 6105 16d8 DC050000 		.4byte	.LASF387
 6106 16dc 06       		.byte	0x6
 6107 16dd 06       		.uleb128 0x6
 6108 16de DB250000 		.4byte	.LASF388
 6109 16e2 07       		.byte	0x7
 6110 16e3 06       		.uleb128 0x6
 6111 16e4 4E0A0000 		.4byte	.LASF389
 6112 16e8 08       		.byte	0x8
 6113 16e9 06       		.uleb128 0x6
 6114 16ea 7D1A0000 		.4byte	.LASF390
 6115 16ee 09       		.byte	0x9
 6116 16ef 06       		.uleb128 0x6
 6117 16f0 6F100000 		.4byte	.LASF391
 6118 16f4 0A       		.byte	0xa
 6119 16f5 06       		.uleb128 0x6
 6120 16f6 97080000 		.4byte	.LASF392
 6121 16fa 0B       		.byte	0xb
 6122 16fb 06       		.uleb128 0x6
 6123 16fc E4130000 		.4byte	.LASF393
 6124 1700 0C       		.byte	0xc
 6125 1701 06       		.uleb128 0x6
 6126 1702 51260000 		.4byte	.LASF394
 6127 1706 0D       		.byte	0xd
 6128 1707 06       		.uleb128 0x6
 6129 1708 F9050000 		.4byte	.LASF395
 6130 170c 0E       		.byte	0xe
 6131 170d 06       		.uleb128 0x6
 6132 170e 7D010000 		.4byte	.LASF396
ARM GAS  C:\Users\haske\AppData\Local\Temp\ccXBxzcA.s 			page 145


 6133 1712 0F       		.byte	0xf
 6134 1713 06       		.uleb128 0x6
 6135 1714 24040000 		.4byte	.LASF397
 6136 1718 10       		.byte	0x10
 6137 1719 06       		.uleb128 0x6
 6138 171a 9B1D0000 		.4byte	.LASF398
 6139 171e 11       		.byte	0x11
 6140 171f 06       		.uleb128 0x6
 6141 1720 9C140000 		.4byte	.LASF399
 6142 1724 12       		.byte	0x12
 6143 1725 06       		.uleb128 0x6
 6144 1726 F4000000 		.4byte	.LASF400
 6145 172a 13       		.byte	0x13
 6146 172b 06       		.uleb128 0x6
 6147 172c DE1E0000 		.4byte	.LASF401
 6148 1730 14       		.byte	0x14
 6149 1731 06       		.uleb128 0x6
 6150 1732 61050000 		.4byte	.LASF402
 6151 1736 15       		.byte	0x15
 6152 1737 06       		.uleb128 0x6
 6153 1738 1D250000 		.4byte	.LASF403
 6154 173c 16       		.byte	0x16
 6155 173d 06       		.uleb128 0x6
 6156 173e C1230000 		.4byte	.LASF404
 6157 1742 17       		.byte	0x17
 6158 1743 06       		.uleb128 0x6
 6159 1744 33040000 		.4byte	.LASF405
 6160 1748 18       		.byte	0x18
 6161 1749 06       		.uleb128 0x6
 6162 174a 0C240000 		.4byte	.LASF406
 6163 174e 19       		.byte	0x19
 6164 174f 06       		.uleb128 0x6
 6165 1750 82210000 		.4byte	.LASF407
 6166 1754 1A       		.byte	0x1a
 6167 1755 06       		.uleb128 0x6
 6168 1756 88130000 		.4byte	.LASF408
 6169 175a 1B       		.byte	0x1b
 6170 175b 06       		.uleb128 0x6
 6171 175c 07000000 		.4byte	.LASF409
 6172 1760 1C       		.byte	0x1c
 6173 1761 06       		.uleb128 0x6
 6174 1762 41180000 		.4byte	.LASF410
 6175 1766 1D       		.byte	0x1d
 6176 1767 06       		.uleb128 0x6
 6177 1768 B6190000 		.4byte	.LASF411
 6178 176c 1E       		.byte	0x1e
 6179 176d 06       		.uleb128 0x6
 6180 176e 5D1B0000 		.4byte	.LASF412
 6181 1772 1F       		.byte	0x1f
 6182 1773 06       		.uleb128 0x6
 6183 1774 F50D0000 		.4byte	.LASF413
 6184 1778 20       		.byte	0x20
 6185 1779 06       		.uleb128 0x6
 6186 177a 29030000 		.4byte	.LASF414
 6187 177e 21       		.byte	0x21
 6188 177f 06       		.uleb128 0x6
 6189 1780 90160000 		.4byte	.LASF415
ARM GAS  C:\Users\haske\AppData\Local\Temp\ccXBxzcA.s 			page 146


 6190 1784 22       		.byte	0x22
 6191 1785 06       		.uleb128 0x6
 6192 1786 160F0000 		.4byte	.LASF416
 6193 178a 23       		.byte	0x23
 6194 178b 06       		.uleb128 0x6
 6195 178c F1060000 		.4byte	.LASF417
 6196 1790 24       		.byte	0x24
 6197 1791 06       		.uleb128 0x6
 6198 1792 96020000 		.4byte	.LASF418
 6199 1796 25       		.byte	0x25
 6200 1797 06       		.uleb128 0x6
 6201 1798 1A100000 		.4byte	.LASF419
 6202 179c 26       		.byte	0x26
 6203 179d 06       		.uleb128 0x6
 6204 179e B5060000 		.4byte	.LASF420
 6205 17a2 27       		.byte	0x27
 6206 17a3 06       		.uleb128 0x6
 6207 17a4 7B180000 		.4byte	.LASF421
 6208 17a8 28       		.byte	0x28
 6209 17a9 06       		.uleb128 0x6
 6210 17aa 00250000 		.4byte	.LASF422
 6211 17ae 29       		.byte	0x29
 6212 17af 06       		.uleb128 0x6
 6213 17b0 52120000 		.4byte	.LASF423
 6214 17b4 2A       		.byte	0x2a
 6215 17b5 06       		.uleb128 0x6
 6216 17b6 BE040000 		.4byte	.LASF424
 6217 17ba 2B       		.byte	0x2b
 6218 17bb 06       		.uleb128 0x6
 6219 17bc 0F220000 		.4byte	.LASF425
 6220 17c0 2C       		.byte	0x2c
 6221 17c1 06       		.uleb128 0x6
 6222 17c2 DA230000 		.4byte	.LASF426
 6223 17c6 2D       		.byte	0x2d
 6224 17c7 06       		.uleb128 0x6
 6225 17c8 1A0B0000 		.4byte	.LASF427
 6226 17cc 80       		.byte	0x80
 6227 17cd 00       		.byte	0
 6228 17ce 02       		.uleb128 0x2
 6229 17cf 1E170000 		.4byte	.LASF428
 6230 17d3 1E       		.byte	0x1e
 6231 17d4 5C       		.byte	0x5c
 6232 17d5 A7160000 		.4byte	0x16a7
 6233 17d9 02       		.uleb128 0x2
 6234 17da 0F100000 		.4byte	.LASF429
 6235 17de 1E       		.byte	0x1e
 6236 17df 68       		.byte	0x68
 6237 17e0 EE150000 		.4byte	0x15ee
 6238 17e4 08       		.uleb128 0x8
 6239 17e5 04       		.byte	0x4
 6240 17e6 D9170000 		.4byte	0x17d9
 6241 17ea 02       		.uleb128 0x2
 6242 17eb 6F150000 		.4byte	.LASF430
 6243 17ef 19       		.byte	0x19
 6244 17f0 34       		.byte	0x34
 6245 17f1 F5170000 		.4byte	0x17f5
 6246 17f5 08       		.uleb128 0x8
ARM GAS  C:\Users\haske\AppData\Local\Temp\ccXBxzcA.s 			page 147


 6247 17f6 04       		.byte	0x4
 6248 17f7 FB170000 		.4byte	0x17fb
 6249 17fb 1F       		.uleb128 0x1f
 6250 17fc 06180000 		.4byte	0x1806
 6251 1800 11       		.uleb128 0x11
 6252 1801 5F130000 		.4byte	0x135f
 6253 1805 00       		.byte	0
 6254 1806 02       		.uleb128 0x2
 6255 1807 E60B0000 		.4byte	.LASF431
 6256 180b 19       		.byte	0x19
 6257 180c 35       		.byte	0x35
 6258 180d 11180000 		.4byte	0x1811
 6259 1811 08       		.uleb128 0x8
 6260 1812 04       		.byte	0x4
 6261 1813 17180000 		.4byte	0x1817
 6262 1817 1F       		.uleb128 0x1f
 6263 1818 27180000 		.4byte	0x1827
 6264 181c 11       		.uleb128 0x11
 6265 181d 5F130000 		.4byte	0x135f
 6266 1821 11       		.uleb128 0x11
 6267 1822 E4020000 		.4byte	0x2e4
 6268 1826 00       		.byte	0
 6269 1827 02       		.uleb128 0x2
 6270 1828 4E060000 		.4byte	.LASF432
 6271 182c 19       		.byte	0x19
 6272 182d 4E       		.byte	0x4e
 6273 182e DA120000 		.4byte	0x12da
 6274 1832 09       		.uleb128 0x9
 6275 1833 1C       		.byte	0x1c
 6276 1834 0F       		.byte	0xf
 6277 1835 9B       		.byte	0x9b
 6278 1836 E9180000 		.4byte	0x18e9
 6279 183a 0B       		.uleb128 0xb
 6280 183b CE1D0000 		.4byte	.LASF433
 6281 183f 0F       		.byte	0xf
 6282 1840 9C       		.byte	0x9c
 6283 1841 D4120000 		.4byte	0x12d4
 6284 1845 00       		.byte	0
 6285 1846 0B       		.uleb128 0xb
 6286 1847 5A080000 		.4byte	.LASF434
 6287 184b 0F       		.byte	0xf
 6288 184c 9D       		.byte	0x9d
 6289 184d E4000000 		.4byte	0xe4
 6290 1851 04       		.byte	0x4
 6291 1852 0B       		.uleb128 0xb
 6292 1853 440C0000 		.4byte	.LASF435
 6293 1857 0F       		.byte	0xf
 6294 1858 9E       		.byte	0x9e
 6295 1859 E9180000 		.4byte	0x18e9
 6296 185d 08       		.byte	0x8
 6297 185e 0B       		.uleb128 0xb
 6298 185f 301C0000 		.4byte	.LASF436
 6299 1863 0F       		.byte	0xf
 6300 1864 A0       		.byte	0xa0
 6301 1865 F4180000 		.4byte	0x18f4
 6302 1869 0C       		.byte	0xc
 6303 186a 0B       		.uleb128 0xb
ARM GAS  C:\Users\haske\AppData\Local\Temp\ccXBxzcA.s 			page 148


 6304 186b 68100000 		.4byte	.LASF437
 6305 186f 0F       		.byte	0xf
 6306 1870 A1       		.byte	0xa1
 6307 1871 63010000 		.4byte	0x163
 6308 1875 10       		.byte	0x10
 6309 1876 0B       		.uleb128 0xb
 6310 1877 DA140000 		.4byte	.LASF438
 6311 187b 0F       		.byte	0xf
 6312 187c A3       		.byte	0xa3
 6313 187d 3B010000 		.4byte	0x13b
 6314 1881 14       		.byte	0x14
 6315 1882 0B       		.uleb128 0xb
 6316 1883 84240000 		.4byte	.LASF439
 6317 1887 0F       		.byte	0xf
 6318 1888 A4       		.byte	0xa4
 6319 1889 3B010000 		.4byte	0x13b
 6320 188d 16       		.byte	0x16
 6321 188e 0D       		.uleb128 0xd
 6322 188f 47220000 		.4byte	.LASF440
 6323 1893 0F       		.byte	0xf
 6324 1894 A6       		.byte	0xa6
 6325 1895 DF130000 		.4byte	0x13df
 6326 1899 01       		.byte	0x1
 6327 189a 02       		.byte	0x2
 6328 189b 06       		.byte	0x6
 6329 189c 18       		.byte	0x18
 6330 189d 0D       		.uleb128 0xd
 6331 189e 9C190000 		.4byte	.LASF441
 6332 18a2 0F       		.byte	0xf
 6333 18a3 A7       		.byte	0xa7
 6334 18a4 EA130000 		.4byte	0x13ea
 6335 18a8 01       		.byte	0x1
 6336 18a9 02       		.byte	0x2
 6337 18aa 04       		.byte	0x4
 6338 18ab 18       		.byte	0x18
 6339 18ac 0D       		.uleb128 0xd
 6340 18ad DF1C0000 		.4byte	.LASF442
 6341 18b1 0F       		.byte	0xf
 6342 18b2 A8       		.byte	0xa8
 6343 18b3 EA130000 		.4byte	0x13ea
 6344 18b7 01       		.byte	0x1
 6345 18b8 02       		.byte	0x2
 6346 18b9 02       		.byte	0x2
 6347 18ba 18       		.byte	0x18
 6348 18bb 0D       		.uleb128 0xd
 6349 18bc 47120000 		.4byte	.LASF443
 6350 18c0 0F       		.byte	0xf
 6351 18c1 A9       		.byte	0xa9
 6352 18c2 AE010000 		.4byte	0x1ae
 6353 18c6 01       		.byte	0x1
 6354 18c7 04       		.byte	0x4
 6355 18c8 04       		.byte	0x4
 6356 18c9 19       		.byte	0x19
 6357 18ca 0D       		.uleb128 0xd
 6358 18cb 191A0000 		.4byte	.LASF444
 6359 18cf 0F       		.byte	0xf
 6360 18d0 AA       		.byte	0xaa
ARM GAS  C:\Users\haske\AppData\Local\Temp\ccXBxzcA.s 			page 149


 6361 18d1 B8000000 		.4byte	0xb8
 6362 18d5 01       		.byte	0x1
 6363 18d6 06       		.byte	0x6
 6364 18d7 02       		.byte	0x2
 6365 18d8 1A       		.byte	0x1a
 6366 18d9 0D       		.uleb128 0xd
 6367 18da A7080000 		.4byte	.LASF445
 6368 18de 0F       		.byte	0xf
 6369 18df AB       		.byte	0xab
 6370 18e0 B8000000 		.4byte	0xb8
 6371 18e4 01       		.byte	0x1
 6372 18e5 02       		.byte	0x2
 6373 18e6 00       		.byte	0
 6374 18e7 1A       		.byte	0x1a
 6375 18e8 00       		.byte	0
 6376 18e9 08       		.uleb128 0x8
 6377 18ea 04       		.byte	0x4
 6378 18eb 27180000 		.4byte	0x1827
 6379 18ef 21       		.uleb128 0x21
 6380 18f0 B4120000 		.4byte	.LASF636
 6381 18f4 08       		.uleb128 0x8
 6382 18f5 04       		.byte	0x4
 6383 18f6 EF180000 		.4byte	0x18ef
 6384 18fa 02       		.uleb128 0x2
 6385 18fb DF030000 		.4byte	.LASF446
 6386 18ff 0F       		.byte	0xf
 6387 1900 AC       		.byte	0xac
 6388 1901 32180000 		.4byte	0x1832
 6389 1905 08       		.uleb128 0x8
 6390 1906 04       		.byte	0x4
 6391 1907 0B190000 		.4byte	0x190b
 6392 190b 0F       		.uleb128 0xf
 6393 190c 9C160000 		.4byte	0x169c
 6394 1910 08       		.uleb128 0x8
 6395 1911 04       		.byte	0x4
 6396 1912 FA180000 		.4byte	0x18fa
 6397 1916 08       		.uleb128 0x8
 6398 1917 04       		.byte	0x4
 6399 1918 3D140000 		.4byte	0x143d
 6400 191c 02       		.uleb128 0x2
 6401 191d 921D0000 		.4byte	.LASF447
 6402 1921 0F       		.byte	0xf
 6403 1922 BF       		.byte	0xbf
 6404 1923 8B080000 		.4byte	0x88b
 6405 1927 08       		.uleb128 0x8
 6406 1928 04       		.byte	0x4
 6407 1929 1C190000 		.4byte	0x191c
 6408 192d 05       		.uleb128 0x5
 6409 192e 01       		.byte	0x1
 6410 192f 42000000 		.4byte	0x42
 6411 1933 1F       		.byte	0x1f
 6412 1934 21       		.byte	0x21
 6413 1935 4C190000 		.4byte	0x194c
 6414 1939 06       		.uleb128 0x6
 6415 193a 71240000 		.4byte	.LASF448
 6416 193e 00       		.byte	0
 6417 193f 06       		.uleb128 0x6
ARM GAS  C:\Users\haske\AppData\Local\Temp\ccXBxzcA.s 			page 150


 6418 1940 1A010000 		.4byte	.LASF449
 6419 1944 01       		.byte	0x1
 6420 1945 06       		.uleb128 0x6
 6421 1946 4F050000 		.4byte	.LASF450
 6422 194a 02       		.byte	0x2
 6423 194b 00       		.byte	0
 6424 194c 05       		.uleb128 0x5
 6425 194d 01       		.byte	0x1
 6426 194e 42000000 		.4byte	0x42
 6427 1952 20       		.byte	0x20
 6428 1953 17       		.byte	0x17
 6429 1954 83190000 		.4byte	0x1983
 6430 1958 06       		.uleb128 0x6
 6431 1959 EB0A0000 		.4byte	.LASF451
 6432 195d 00       		.byte	0
 6433 195e 06       		.uleb128 0x6
 6434 195f C1070000 		.4byte	.LASF452
 6435 1963 01       		.byte	0x1
 6436 1964 06       		.uleb128 0x6
 6437 1965 3A1C0000 		.4byte	.LASF453
 6438 1969 02       		.byte	0x2
 6439 196a 06       		.uleb128 0x6
 6440 196b 2E050000 		.4byte	.LASF454
 6441 196f 03       		.byte	0x3
 6442 1970 06       		.uleb128 0x6
 6443 1971 6E0C0000 		.4byte	.LASF455
 6444 1975 04       		.byte	0x4
 6445 1976 06       		.uleb128 0x6
 6446 1977 A7160000 		.4byte	.LASF456
 6447 197b 05       		.byte	0x5
 6448 197c 06       		.uleb128 0x6
 6449 197d A5170000 		.4byte	.LASF457
 6450 1981 06       		.byte	0x6
 6451 1982 00       		.byte	0
 6452 1983 09       		.uleb128 0x9
 6453 1984 24       		.byte	0x24
 6454 1985 21       		.byte	0x21
 6455 1986 21       		.byte	0x21
 6456 1987 401A0000 		.4byte	0x1a40
 6457 198b 0B       		.uleb128 0xb
 6458 198c 480E0000 		.4byte	.LASF458
 6459 1990 21       		.byte	0x21
 6460 1991 22       		.byte	0x22
 6461 1992 E8030000 		.4byte	0x3e8
 6462 1996 00       		.byte	0
 6463 1997 0B       		.uleb128 0xb
 6464 1998 5D0F0000 		.4byte	.LASF459
 6465 199c 21       		.byte	0x21
 6466 199d 23       		.byte	0x23
 6467 199e CE000000 		.4byte	0xce
 6468 19a2 02       		.byte	0x2
 6469 19a3 0B       		.uleb128 0xb
 6470 19a4 57250000 		.4byte	.LASF460
 6471 19a8 21       		.byte	0x21
 6472 19a9 24       		.byte	0x24
 6473 19aa CE000000 		.4byte	0xce
 6474 19ae 04       		.byte	0x4
ARM GAS  C:\Users\haske\AppData\Local\Temp\ccXBxzcA.s 			page 151


 6475 19af 0B       		.uleb128 0xb
 6476 19b0 33130000 		.4byte	.LASF461
 6477 19b4 21       		.byte	0x21
 6478 19b5 25       		.byte	0x25
 6479 19b6 CE000000 		.4byte	0xce
 6480 19ba 06       		.byte	0x6
 6481 19bb 0B       		.uleb128 0xb
 6482 19bc C1220000 		.4byte	.LASF462
 6483 19c0 21       		.byte	0x21
 6484 19c1 27       		.byte	0x27
 6485 19c2 E8030000 		.4byte	0x3e8
 6486 19c6 08       		.byte	0x8
 6487 19c7 0B       		.uleb128 0xb
 6488 19c8 C7190000 		.4byte	.LASF463
 6489 19cc 21       		.byte	0x21
 6490 19cd 28       		.byte	0x28
 6491 19ce CE000000 		.4byte	0xce
 6492 19d2 0A       		.byte	0xa
 6493 19d3 0B       		.uleb128 0xb
 6494 19d4 AF070000 		.4byte	.LASF464
 6495 19d8 21       		.byte	0x21
 6496 19d9 29       		.byte	0x29
 6497 19da CE000000 		.4byte	0xce
 6498 19de 0C       		.byte	0xc
 6499 19df 0B       		.uleb128 0xb
 6500 19e0 B3150000 		.4byte	.LASF465
 6501 19e4 21       		.byte	0x21
 6502 19e5 2A       		.byte	0x2a
 6503 19e6 CE000000 		.4byte	0xce
 6504 19ea 0E       		.byte	0xe
 6505 19eb 0B       		.uleb128 0xb
 6506 19ec 6E020000 		.4byte	.LASF466
 6507 19f0 21       		.byte	0x21
 6508 19f1 2C       		.byte	0x2c
 6509 19f2 C3000000 		.4byte	0xc3
 6510 19f6 10       		.byte	0x10
 6511 19f7 0B       		.uleb128 0xb
 6512 19f8 FC0F0000 		.4byte	.LASF467
 6513 19fc 21       		.byte	0x21
 6514 19fd 2D       		.byte	0x2d
 6515 19fe C3000000 		.4byte	0xc3
 6516 1a02 12       		.byte	0x12
 6517 1a03 0A       		.uleb128 0xa
 6518 1a04 6D696E00 		.ascii	"min\000"
 6519 1a08 21       		.byte	0x21
 6520 1a09 2F       		.byte	0x2f
 6521 1a0a D9000000 		.4byte	0xd9
 6522 1a0e 14       		.byte	0x14
 6523 1a0f 0A       		.uleb128 0xa
 6524 1a10 6D617800 		.ascii	"max\000"
 6525 1a14 21       		.byte	0x21
 6526 1a15 30       		.byte	0x30
 6527 1a16 D9000000 		.4byte	0xd9
 6528 1a1a 18       		.byte	0x18
 6529 1a1b 0B       		.uleb128 0xb
 6530 1a1c E3070000 		.4byte	.LASF468
 6531 1a20 21       		.byte	0x21
ARM GAS  C:\Users\haske\AppData\Local\Temp\ccXBxzcA.s 			page 152


 6532 1a21 31       		.byte	0x31
 6533 1a22 C3000000 		.4byte	0xc3
 6534 1a26 1C       		.byte	0x1c
 6535 1a27 0B       		.uleb128 0xb
 6536 1a28 D1210000 		.4byte	.LASF469
 6537 1a2c 21       		.byte	0x21
 6538 1a2d 32       		.byte	0x32
 6539 1a2e CE000000 		.4byte	0xce
 6540 1a32 1E       		.byte	0x1e
 6541 1a33 0B       		.uleb128 0xb
 6542 1a34 AC060000 		.4byte	.LASF470
 6543 1a38 21       		.byte	0x21
 6544 1a39 33       		.byte	0x33
 6545 1a3a C3000000 		.4byte	0xc3
 6546 1a3e 20       		.byte	0x20
 6547 1a3f 00       		.byte	0
 6548 1a40 02       		.uleb128 0x2
 6549 1a41 BF1A0000 		.4byte	.LASF471
 6550 1a45 21       		.byte	0x21
 6551 1a46 34       		.byte	0x34
 6552 1a47 83190000 		.4byte	0x1983
 6553 1a4b 05       		.uleb128 0x5
 6554 1a4c 01       		.byte	0x1
 6555 1a4d 42000000 		.4byte	0x42
 6556 1a51 21       		.byte	0x21
 6557 1a52 36       		.byte	0x36
 6558 1a53 701A0000 		.4byte	0x1a70
 6559 1a57 06       		.uleb128 0x6
 6560 1a58 0A060000 		.4byte	.LASF472
 6561 1a5c 00       		.byte	0
 6562 1a5d 06       		.uleb128 0x6
 6563 1a5e 59230000 		.4byte	.LASF473
 6564 1a62 01       		.byte	0x1
 6565 1a63 06       		.uleb128 0x6
 6566 1a64 B51F0000 		.4byte	.LASF474
 6567 1a68 02       		.byte	0x2
 6568 1a69 06       		.uleb128 0x6
 6569 1a6a 31000000 		.4byte	.LASF475
 6570 1a6e 03       		.byte	0x3
 6571 1a6f 00       		.byte	0
 6572 1a70 02       		.uleb128 0x2
 6573 1a71 76090000 		.4byte	.LASF476
 6574 1a75 21       		.byte	0x21
 6575 1a76 3C       		.byte	0x3c
 6576 1a77 B8000000 		.4byte	0xb8
 6577 1a7b 09       		.uleb128 0x9
 6578 1a7c 08       		.byte	0x8
 6579 1a7d 21       		.byte	0x21
 6580 1a7e 45       		.byte	0x45
 6581 1a7f 9C1A0000 		.4byte	0x1a9c
 6582 1a83 0A       		.uleb128 0xa
 6583 1a84 73726300 		.ascii	"src\000"
 6584 1a88 21       		.byte	0x21
 6585 1a89 46       		.byte	0x46
 6586 1a8a 1C030000 		.4byte	0x31c
 6587 1a8e 00       		.byte	0
 6588 1a8f 0B       		.uleb128 0xb
ARM GAS  C:\Users\haske\AppData\Local\Temp\ccXBxzcA.s 			page 153


 6589 1a90 9B210000 		.4byte	.LASF250
 6590 1a94 21       		.byte	0x21
 6591 1a95 47       		.byte	0x47
 6592 1a96 63010000 		.4byte	0x163
 6593 1a9a 04       		.byte	0x4
 6594 1a9b 00       		.byte	0
 6595 1a9c 09       		.uleb128 0x9
 6596 1a9d 06       		.byte	0x6
 6597 1a9e 21       		.byte	0x21
 6598 1a9f 49       		.byte	0x49
 6599 1aa0 C91A0000 		.4byte	0x1ac9
 6600 1aa4 0B       		.uleb128 0xb
 6601 1aa5 8D200000 		.4byte	.LASF256
 6602 1aa9 21       		.byte	0x21
 6603 1aaa 4A       		.byte	0x4a
 6604 1aab CE000000 		.4byte	0xce
 6605 1aaf 00       		.byte	0
 6606 1ab0 0B       		.uleb128 0xb
 6607 1ab1 E3070000 		.4byte	.LASF468
 6608 1ab5 21       		.byte	0x21
 6609 1ab6 4B       		.byte	0x4b
 6610 1ab7 C3000000 		.4byte	0xc3
 6611 1abb 02       		.byte	0x2
 6612 1abc 0B       		.uleb128 0xb
 6613 1abd 421B0000 		.4byte	.LASF82
 6614 1ac1 21       		.byte	0x21
 6615 1ac2 4C       		.byte	0x4c
 6616 1ac3 E8030000 		.4byte	0x3e8
 6617 1ac7 04       		.byte	0x4
 6618 1ac8 00       		.byte	0
 6619 1ac9 09       		.uleb128 0x9
 6620 1aca 0C       		.byte	0xc
 6621 1acb 21       		.byte	0x21
 6622 1acc 4E       		.byte	0x4e
 6623 1acd 021B0000 		.4byte	0x1b02
 6624 1ad1 0B       		.uleb128 0xb
 6625 1ad2 8D200000 		.4byte	.LASF256
 6626 1ad6 21       		.byte	0x21
 6627 1ad7 4F       		.byte	0x4f
 6628 1ad8 CE000000 		.4byte	0xce
 6629 1adc 00       		.byte	0
 6630 1add 0A       		.uleb128 0xa
 6631 1ade 73726300 		.ascii	"src\000"
 6632 1ae2 21       		.byte	0x21
 6633 1ae3 50       		.byte	0x50
 6634 1ae4 1C030000 		.4byte	0x31c
 6635 1ae8 04       		.byte	0x4
 6636 1ae9 0B       		.uleb128 0xb
 6637 1aea 421B0000 		.4byte	.LASF82
 6638 1aee 21       		.byte	0x21
 6639 1aef 51       		.byte	0x51
 6640 1af0 E8030000 		.4byte	0x3e8
 6641 1af4 08       		.byte	0x8
 6642 1af5 0B       		.uleb128 0xb
 6643 1af6 E3070000 		.4byte	.LASF468
 6644 1afa 21       		.byte	0x21
 6645 1afb 52       		.byte	0x52
ARM GAS  C:\Users\haske\AppData\Local\Temp\ccXBxzcA.s 			page 154


 6646 1afc C3000000 		.4byte	0xc3
 6647 1b00 0A       		.byte	0xa
 6648 1b01 00       		.byte	0
 6649 1b02 09       		.uleb128 0x9
 6650 1b03 08       		.byte	0x8
 6651 1b04 21       		.byte	0x21
 6652 1b05 54       		.byte	0x54
 6653 1b06 3E1B0000 		.4byte	0x1b3e
 6654 1b0a 0B       		.uleb128 0xb
 6655 1b0b 051A0000 		.4byte	.LASF477
 6656 1b0f 21       		.byte	0x21
 6657 1b10 55       		.byte	0x55
 6658 1b11 C3000000 		.4byte	0xc3
 6659 1b15 00       		.byte	0
 6660 1b16 0B       		.uleb128 0xb
 6661 1b17 52010000 		.4byte	.LASF478
 6662 1b1b 21       		.byte	0x21
 6663 1b1c 56       		.byte	0x56
 6664 1b1d E8030000 		.4byte	0x3e8
 6665 1b21 02       		.byte	0x2
 6666 1b22 0B       		.uleb128 0xb
 6667 1b23 CB0F0000 		.4byte	.LASF479
 6668 1b27 21       		.byte	0x21
 6669 1b28 57       		.byte	0x57
 6670 1b29 E8030000 		.4byte	0x3e8
 6671 1b2d 04       		.byte	0x4
 6672 1b2e 0D       		.uleb128 0xd
 6673 1b2f 50020000 		.4byte	.LASF480
 6674 1b33 21       		.byte	0x21
 6675 1b34 58       		.byte	0x58
 6676 1b35 B8000000 		.4byte	0xb8
 6677 1b39 01       		.byte	0x1
 6678 1b3a 01       		.byte	0x1
 6679 1b3b 07       		.byte	0x7
 6680 1b3c 06       		.byte	0x6
 6681 1b3d 00       		.byte	0
 6682 1b3e 13       		.uleb128 0x13
 6683 1b3f 0C       		.byte	0xc
 6684 1b40 21       		.byte	0x21
 6685 1b41 44       		.byte	0x44
 6686 1b42 731B0000 		.4byte	0x1b73
 6687 1b46 15       		.uleb128 0x15
 6688 1b47 E50F0000 		.4byte	.LASF481
 6689 1b4b 21       		.byte	0x21
 6690 1b4c 48       		.byte	0x48
 6691 1b4d 7B1A0000 		.4byte	0x1a7b
 6692 1b51 15       		.uleb128 0x15
 6693 1b52 20200000 		.4byte	.LASF482
 6694 1b56 21       		.byte	0x21
 6695 1b57 4D       		.byte	0x4d
 6696 1b58 9C1A0000 		.4byte	0x1a9c
 6697 1b5c 14       		.uleb128 0x14
 6698 1b5d 61726300 		.ascii	"arc\000"
 6699 1b61 21       		.byte	0x21
 6700 1b62 53       		.byte	0x53
 6701 1b63 C91A0000 		.4byte	0x1ac9
 6702 1b67 15       		.uleb128 0x15
ARM GAS  C:\Users\haske\AppData\Local\Temp\ccXBxzcA.s 			page 155


 6703 1b68 260E0000 		.4byte	.LASF483
 6704 1b6c 21       		.byte	0x21
 6705 1b6d 59       		.byte	0x59
 6706 1b6e 021B0000 		.4byte	0x1b02
 6707 1b72 00       		.byte	0
 6708 1b73 09       		.uleb128 0x9
 6709 1b74 1C       		.byte	0x1c
 6710 1b75 21       		.byte	0x21
 6711 1b76 3E       		.byte	0x3e
 6712 1b77 C41B0000 		.4byte	0x1bc4
 6713 1b7b 0B       		.uleb128 0xb
 6714 1b7c B61E0000 		.4byte	.LASF484
 6715 1b80 21       		.byte	0x21
 6716 1b81 3F       		.byte	0x3f
 6717 1b82 C41B0000 		.4byte	0x1bc4
 6718 1b86 00       		.byte	0
 6719 1b87 0B       		.uleb128 0xb
 6720 1b88 DF130000 		.4byte	.LASF271
 6721 1b8c 21       		.byte	0x21
 6722 1b8d 40       		.byte	0x40
 6723 1b8e 701A0000 		.4byte	0x1a70
 6724 1b92 04       		.byte	0x4
 6725 1b93 0A       		.uleb128 0xa
 6726 1b94 6F706100 		.ascii	"opa\000"
 6727 1b98 21       		.byte	0x21
 6728 1b99 41       		.byte	0x41
 6729 1b9a F3030000 		.4byte	0x3f3
 6730 1b9e 05       		.byte	0x5
 6731 1b9f 0B       		.uleb128 0xb
 6732 1ba0 F9140000 		.4byte	.LASF485
 6733 1ba4 21       		.byte	0x21
 6734 1ba5 42       		.byte	0x42
 6735 1ba6 D9000000 		.4byte	0xd9
 6736 1baa 08       		.byte	0x8
 6737 1bab 0B       		.uleb128 0xb
 6738 1bac 100B0000 		.4byte	.LASF486
 6739 1bb0 21       		.byte	0x21
 6740 1bb1 43       		.byte	0x43
 6741 1bb2 D9000000 		.4byte	0xd9
 6742 1bb6 0C       		.byte	0xc
 6743 1bb7 0B       		.uleb128 0xb
 6744 1bb8 D50F0000 		.4byte	.LASF487
 6745 1bbc 21       		.byte	0x21
 6746 1bbd 5A       		.byte	0x5a
 6747 1bbe 3E1B0000 		.4byte	0x1b3e
 6748 1bc2 10       		.byte	0x10
 6749 1bc3 00       		.byte	0
 6750 1bc4 08       		.uleb128 0x8
 6751 1bc5 04       		.byte	0x4
 6752 1bc6 401A0000 		.4byte	0x1a40
 6753 1bca 02       		.uleb128 0x2
 6754 1bcb 32120000 		.4byte	.LASF488
 6755 1bcf 21       		.byte	0x21
 6756 1bd0 5B       		.byte	0x5b
 6757 1bd1 731B0000 		.4byte	0x1b73
 6758 1bd5 09       		.uleb128 0x9
 6759 1bd6 3C       		.byte	0x3c
ARM GAS  C:\Users\haske\AppData\Local\Temp\ccXBxzcA.s 			page 156


 6760 1bd7 21       		.byte	0x21
 6761 1bd8 5E       		.byte	0x5e
 6762 1bd9 021C0000 		.4byte	0x1c02
 6763 1bdd 0A       		.uleb128 0xa
 6764 1bde 6F626A00 		.ascii	"obj\000"
 6765 1be2 21       		.byte	0x21
 6766 1be3 5F       		.byte	0x5f
 6767 1be4 1C190000 		.4byte	0x191c
 6768 1be8 00       		.byte	0
 6769 1be9 0B       		.uleb128 0xb
 6770 1bea F0120000 		.4byte	.LASF489
 6771 1bee 21       		.byte	0x21
 6772 1bef 60       		.byte	0x60
 6773 1bf0 C3120000 		.4byte	0x12c3
 6774 1bf4 24       		.byte	0x24
 6775 1bf5 0B       		.uleb128 0xb
 6776 1bf6 320E0000 		.4byte	.LASF490
 6777 1bfa 21       		.byte	0x21
 6778 1bfb 61       		.byte	0x61
 6779 1bfc C3120000 		.4byte	0x12c3
 6780 1c00 30       		.byte	0x30
 6781 1c01 00       		.byte	0
 6782 1c02 02       		.uleb128 0x2
 6783 1c03 320D0000 		.4byte	.LASF491
 6784 1c07 21       		.byte	0x21
 6785 1c08 62       		.byte	0x62
 6786 1c09 D51B0000 		.4byte	0x1bd5
 6787 1c0d 05       		.uleb128 0x5
 6788 1c0e 01       		.byte	0x1
 6789 1c0f 42000000 		.4byte	0x42
 6790 1c13 21       		.byte	0x21
 6791 1c14 6A       		.byte	0x6a
 6792 1c15 321C0000 		.4byte	0x1c32
 6793 1c19 06       		.uleb128 0x6
 6794 1c1a D4150000 		.4byte	.LASF492
 6795 1c1e 00       		.byte	0
 6796 1c1f 06       		.uleb128 0x6
 6797 1c20 2C200000 		.4byte	.LASF493
 6798 1c24 01       		.byte	0x1
 6799 1c25 06       		.uleb128 0x6
 6800 1c26 A7200000 		.4byte	.LASF494
 6801 1c2a 02       		.byte	0x2
 6802 1c2b 06       		.uleb128 0x6
 6803 1c2c A81C0000 		.4byte	.LASF495
 6804 1c30 03       		.byte	0x3
 6805 1c31 00       		.byte	0
 6806 1c32 22       		.uleb128 0x22
 6807 1c33 F7230000 		.4byte	.LASF496
 6808 1c37 02       		.byte	0x2
 6809 1c38 F901     		.2byte	0x1f9
 6810 1c3a F3030000 		.4byte	0x3f3
 6811 1c3e 03       		.byte	0x3
 6812 1c3f 661C0000 		.4byte	0x1c66
 6813 1c43 23       		.uleb128 0x23
 6814 1c44 6F626A00 		.ascii	"obj\000"
 6815 1c48 02       		.byte	0x2
 6816 1c49 F901     		.2byte	0x1f9
ARM GAS  C:\Users\haske\AppData\Local\Temp\ccXBxzcA.s 			page 157


 6817 1c4b 661C0000 		.4byte	0x1c66
 6818 1c4f 24       		.uleb128 0x24
 6819 1c50 6A150000 		.4byte	.LASF358
 6820 1c54 02       		.byte	0x2
 6821 1c55 F901     		.2byte	0x1f9
 6822 1c57 E4000000 		.4byte	0xe4
 6823 1c5b 25       		.uleb128 0x25
 6824 1c5c 7600     		.ascii	"v\000"
 6825 1c5e 02       		.byte	0x2
 6826 1c5f FB01     		.2byte	0x1fb
 6827 1c61 2B050000 		.4byte	0x52b
 6828 1c65 00       		.byte	0
 6829 1c66 08       		.uleb128 0x8
 6830 1c67 04       		.byte	0x4
 6831 1c68 6C1C0000 		.4byte	0x1c6c
 6832 1c6c 0F       		.uleb128 0xf
 6833 1c6d 8B080000 		.4byte	0x88b
 6834 1c71 26       		.uleb128 0x26
 6835 1c72 530E0000 		.4byte	.LASF497
 6836 1c76 03       		.byte	0x3
 6837 1c77 7B       		.byte	0x7b
 6838 1c78 3B010000 		.4byte	0x13b
 6839 1c7c 03       		.byte	0x3
 6840 1c7d 8D1C0000 		.4byte	0x1c8d
 6841 1c81 27       		.uleb128 0x27
 6842 1c82 8D0A0000 		.4byte	.LASF498
 6843 1c86 03       		.byte	0x3
 6844 1c87 7B       		.byte	0x7b
 6845 1c88 D50E0000 		.4byte	0xed5
 6846 1c8c 00       		.byte	0
 6847 1c8d 22       		.uleb128 0x22
 6848 1c8e 4C170000 		.4byte	.LASF499
 6849 1c92 02       		.byte	0x2
 6850 1c93 9F01     		.2byte	0x19f
 6851 1c95 E4020000 		.4byte	0x2e4
 6852 1c99 03       		.byte	0x3
 6853 1c9a C11C0000 		.4byte	0x1cc1
 6854 1c9e 23       		.uleb128 0x23
 6855 1c9f 6F626A00 		.ascii	"obj\000"
 6856 1ca3 02       		.byte	0x2
 6857 1ca4 9F01     		.2byte	0x19f
 6858 1ca6 661C0000 		.4byte	0x1c66
 6859 1caa 24       		.uleb128 0x24
 6860 1cab 6A150000 		.4byte	.LASF358
 6861 1caf 02       		.byte	0x2
 6862 1cb0 9F01     		.2byte	0x19f
 6863 1cb2 E4000000 		.4byte	0xe4
 6864 1cb6 25       		.uleb128 0x25
 6865 1cb7 7600     		.ascii	"v\000"
 6866 1cb9 02       		.byte	0x2
 6867 1cba A101     		.2byte	0x1a1
 6868 1cbc 2B050000 		.4byte	0x52b
 6869 1cc0 00       		.byte	0
 6870 1cc1 26       		.uleb128 0x26
 6871 1cc2 5B020000 		.4byte	.LASF500
 6872 1cc6 03       		.byte	0x3
 6873 1cc7 85       		.byte	0x85
ARM GAS  C:\Users\haske\AppData\Local\Temp\ccXBxzcA.s 			page 158


 6874 1cc8 3B010000 		.4byte	0x13b
 6875 1ccc 03       		.byte	0x3
 6876 1ccd DD1C0000 		.4byte	0x1cdd
 6877 1cd1 27       		.uleb128 0x27
 6878 1cd2 8D0A0000 		.4byte	.LASF498
 6879 1cd6 03       		.byte	0x3
 6880 1cd7 85       		.byte	0x85
 6881 1cd8 D50E0000 		.4byte	0xed5
 6882 1cdc 00       		.byte	0
 6883 1cdd 22       		.uleb128 0x22
 6884 1cde 02260000 		.4byte	.LASF501
 6885 1ce2 04       		.byte	0x4
 6886 1ce3 B701     		.2byte	0x1b7
 6887 1ce5 E8030000 		.4byte	0x3e8
 6888 1ce9 03       		.byte	0x3
 6889 1cea 3F1D0000 		.4byte	0x1d3f
 6890 1cee 23       		.uleb128 0x23
 6891 1cef 633100   		.ascii	"c1\000"
 6892 1cf2 04       		.byte	0x4
 6893 1cf3 B701     		.2byte	0x1b7
 6894 1cf5 E8030000 		.4byte	0x3e8
 6895 1cf9 23       		.uleb128 0x23
 6896 1cfa 633200   		.ascii	"c2\000"
 6897 1cfd 04       		.byte	0x4
 6898 1cfe B701     		.2byte	0x1b7
 6899 1d00 E8030000 		.4byte	0x3e8
 6900 1d04 23       		.uleb128 0x23
 6901 1d05 6D697800 		.ascii	"mix\000"
 6902 1d09 04       		.byte	0x4
 6903 1d0a B701     		.2byte	0x1b7
 6904 1d0c B8000000 		.4byte	0xb8
 6905 1d10 25       		.uleb128 0x25
 6906 1d11 72657400 		.ascii	"ret\000"
 6907 1d15 04       		.byte	0x4
 6908 1d16 B901     		.2byte	0x1b9
 6909 1d18 E8030000 		.4byte	0x3e8
 6910 1d1c 25       		.uleb128 0x25
 6911 1d1d 626700   		.ascii	"bg\000"
 6912 1d20 04       		.byte	0x4
 6913 1d21 BE01     		.2byte	0x1be
 6914 1d23 E4000000 		.4byte	0xe4
 6915 1d27 25       		.uleb128 0x25
 6916 1d28 666700   		.ascii	"fg\000"
 6917 1d2b 04       		.byte	0x4
 6918 1d2c C001     		.2byte	0x1c0
 6919 1d2e E4000000 		.4byte	0xe4
 6920 1d32 28       		.uleb128 0x28
 6921 1d33 F9120000 		.4byte	.LASF502
 6922 1d37 04       		.byte	0x4
 6923 1d38 C101     		.2byte	0x1c1
 6924 1d3a E4000000 		.4byte	0xe4
 6925 1d3e 00       		.byte	0
 6926 1d3f 26       		.uleb128 0x26
 6927 1d40 56220000 		.4byte	.LASF503
 6928 1d44 05       		.byte	0x5
 6929 1d45 31       		.byte	0x31
 6930 1d46 C3000000 		.4byte	0xc3
ARM GAS  C:\Users\haske\AppData\Local\Temp\ccXBxzcA.s 			page 159


 6931 1d4a 03       		.byte	0x3
 6932 1d4b 5B1D0000 		.4byte	0x1d5b
 6933 1d4f 27       		.uleb128 0x27
 6934 1d50 B3010000 		.4byte	.LASF248
 6935 1d54 05       		.byte	0x5
 6936 1d55 31       		.byte	0x31
 6937 1d56 C3000000 		.4byte	0xc3
 6938 1d5a 00       		.byte	0
 6939 1d5b 26       		.uleb128 0x26
 6940 1d5c 22210000 		.4byte	.LASF504
 6941 1d60 02       		.byte	0x2
 6942 1d61 13       		.byte	0x13
 6943 1d62 3B010000 		.4byte	0x13b
 6944 1d66 03       		.byte	0x3
 6945 1d67 8B1D0000 		.4byte	0x1d8b
 6946 1d6b 29       		.uleb128 0x29
 6947 1d6c 6F626A00 		.ascii	"obj\000"
 6948 1d70 02       		.byte	0x2
 6949 1d71 13       		.byte	0x13
 6950 1d72 661C0000 		.4byte	0x1c66
 6951 1d76 27       		.uleb128 0x27
 6952 1d77 6A150000 		.4byte	.LASF358
 6953 1d7b 02       		.byte	0x2
 6954 1d7c 13       		.byte	0x13
 6955 1d7d E4000000 		.4byte	0xe4
 6956 1d81 2A       		.uleb128 0x2a
 6957 1d82 7600     		.ascii	"v\000"
 6958 1d84 02       		.byte	0x2
 6959 1d85 15       		.byte	0x15
 6960 1d86 2B050000 		.4byte	0x52b
 6961 1d8a 00       		.byte	0
 6962 1d8b 26       		.uleb128 0x26
 6963 1d8c CD010000 		.4byte	.LASF505
 6964 1d90 02       		.byte	0x2
 6965 1d91 01       		.byte	0x1
 6966 1d92 3B010000 		.4byte	0x13b
 6967 1d96 03       		.byte	0x3
 6968 1d97 BB1D0000 		.4byte	0x1dbb
 6969 1d9b 29       		.uleb128 0x29
 6970 1d9c 6F626A00 		.ascii	"obj\000"
 6971 1da0 02       		.byte	0x2
 6972 1da1 01       		.byte	0x1
 6973 1da2 661C0000 		.4byte	0x1c66
 6974 1da6 27       		.uleb128 0x27
 6975 1da7 6A150000 		.4byte	.LASF358
 6976 1dab 02       		.byte	0x2
 6977 1dac 01       		.byte	0x1
 6978 1dad E4000000 		.4byte	0xe4
 6979 1db1 2A       		.uleb128 0x2a
 6980 1db2 7600     		.ascii	"v\000"
 6981 1db4 02       		.byte	0x2
 6982 1db5 03       		.byte	0x3
 6983 1db6 2B050000 		.4byte	0x52b
 6984 1dba 00       		.byte	0
 6985 1dbb 2B       		.uleb128 0x2b
 6986 1dbc 1E000000 		.4byte	.LASF513
 6987 1dc0 01       		.byte	0x1
ARM GAS  C:\Users\haske\AppData\Local\Temp\ccXBxzcA.s 			page 160


 6988 1dc1 4601     		.2byte	0x146
 6989 1dc3 00000000 		.4byte	.LFB217
 6990 1dc7 48010000 		.4byte	.LFE217-.LFB217
 6991 1dcb 01       		.uleb128 0x1
 6992 1dcc 9C       		.byte	0x9c
 6993 1dcd 65200000 		.4byte	0x2065
 6994 1dd1 2C       		.uleb128 0x2c
 6995 1dd2 6F626A00 		.ascii	"obj\000"
 6996 1dd6 01       		.byte	0x1
 6997 1dd7 4601     		.2byte	0x146
 6998 1dd9 27190000 		.4byte	0x1927
 6999 1ddd 00000000 		.4byte	.LLST0
 7000 1de1 2D       		.uleb128 0x2d
 7001 1de2 E5240000 		.4byte	.LASF349
 7002 1de6 01       		.byte	0x1
 7003 1de7 4601     		.2byte	0x146
 7004 1de9 CE120000 		.4byte	0x12ce
 7005 1ded 2B000000 		.4byte	.LLST1
 7006 1df1 2D       		.uleb128 0x2d
 7007 1df2 8B150000 		.4byte	.LASF506
 7008 1df6 01       		.byte	0x1
 7009 1df7 4601     		.2byte	0x146
 7010 1df9 D50E0000 		.4byte	0xed5
 7011 1dfd 56000000 		.4byte	.LLST2
 7012 1e01 2E       		.uleb128 0x2e
 7013 1e02 51180000 		.4byte	.LASF507
 7014 1e06 01       		.byte	0x1
 7015 1e07 4801     		.2byte	0x148
 7016 1e09 65200000 		.4byte	0x2065
 7017 1e0d 82000000 		.4byte	.LLST3
 7018 1e11 2F       		.uleb128 0x2f
 7019 1e12 BA210000 		.4byte	.LASF355
 7020 1e16 01       		.byte	0x1
 7021 1e17 4A01     		.2byte	0x14a
 7022 1e19 100D0000 		.4byte	0xd10
 7023 1e1d 02       		.uleb128 0x2
 7024 1e1e 91       		.byte	0x91
 7025 1e1f 50       		.sleb128 -48
 7026 1e20 2E       		.uleb128 0x2e
 7027 1e21 58130000 		.4byte	.LASF508
 7028 1e25 01       		.byte	0x1
 7029 1e26 4E01     		.2byte	0x14e
 7030 1e28 3B010000 		.4byte	0x13b
 7031 1e2c AD000000 		.4byte	.LLST4
 7032 1e30 2F       		.uleb128 0x2f
 7033 1e31 8F190000 		.4byte	.LASF509
 7034 1e35 01       		.byte	0x1
 7035 1e36 4F01     		.2byte	0x14f
 7036 1e38 63010000 		.4byte	0x163
 7037 1e3c 02       		.uleb128 0x2
 7038 1e3d 91       		.byte	0x91
 7039 1e3e 4C       		.sleb128 -52
 7040 1e3f 28       		.uleb128 0x28
 7041 1e40 09040000 		.4byte	.LASF510
 7042 1e44 01       		.byte	0x1
 7043 1e45 5301     		.2byte	0x153
 7044 1e47 F3030000 		.4byte	0x3f3
ARM GAS  C:\Users\haske\AppData\Local\Temp\ccXBxzcA.s 			page 161


 7045 1e4b 2E       		.uleb128 0x2e
 7046 1e4c 22080000 		.4byte	.LASF511
 7047 1e50 01       		.byte	0x1
 7048 1e51 5401     		.2byte	0x154
 7049 1e53 6B200000 		.4byte	0x206b
 7050 1e57 CB000000 		.4byte	.LLST5
 7051 1e5b 2F       		.uleb128 0x2f
 7052 1e5c 74210000 		.4byte	.LASF512
 7053 1e60 01       		.byte	0x1
 7054 1e61 5601     		.2byte	0x156
 7055 1e63 DD150000 		.4byte	0x15dd
 7056 1e67 03       		.uleb128 0x3
 7057 1e68 91       		.byte	0x91
 7058 1e69 847F     		.sleb128 -124
 7059 1e6b 30       		.uleb128 0x30
 7060 1e6c 8D1C0000 		.4byte	0x1c8d
 7061 1e70 1E000000 		.4byte	.LBB49
 7062 1e74 0C000000 		.4byte	.LBE49-.LBB49
 7063 1e78 01       		.byte	0x1
 7064 1e79 4C01     		.2byte	0x14c
 7065 1e7b C21E0000 		.4byte	0x1ec2
 7066 1e7f 31       		.uleb128 0x31
 7067 1e80 AA1C0000 		.4byte	0x1caa
 7068 1e84 F4000000 		.4byte	.LLST6
 7069 1e88 31       		.uleb128 0x31
 7070 1e89 9E1C0000 		.4byte	0x1c9e
 7071 1e8d 0A010000 		.4byte	.LLST7
 7072 1e91 32       		.uleb128 0x32
 7073 1e92 1E000000 		.4byte	.LBB50
 7074 1e96 0C000000 		.4byte	.LBE50-.LBB50
 7075 1e9a 33       		.uleb128 0x33
 7076 1e9b B61C0000 		.4byte	0x1cb6
 7077 1e9f 1D010000 		.4byte	.LLST8
 7078 1ea3 34       		.uleb128 0x34
 7079 1ea4 2A000000 		.4byte	.LVL4
 7080 1ea8 533B0000 		.4byte	0x3b53
 7081 1eac 35       		.uleb128 0x35
 7082 1ead 01       		.uleb128 0x1
 7083 1eae 50       		.byte	0x50
 7084 1eaf 02       		.uleb128 0x2
 7085 1eb0 76       		.byte	0x76
 7086 1eb1 00       		.sleb128 0
 7087 1eb2 35       		.uleb128 0x35
 7088 1eb3 01       		.uleb128 0x1
 7089 1eb4 51       		.byte	0x51
 7090 1eb5 03       		.uleb128 0x3
 7091 1eb6 44       		.byte	0x44
 7092 1eb7 3E       		.byte	0x3e
 7093 1eb8 24       		.byte	0x24
 7094 1eb9 35       		.uleb128 0x35
 7095 1eba 01       		.uleb128 0x1
 7096 1ebb 52       		.byte	0x52
 7097 1ebc 02       		.uleb128 0x2
 7098 1ebd 08       		.byte	0x8
 7099 1ebe 51       		.byte	0x51
 7100 1ebf 00       		.byte	0
 7101 1ec0 00       		.byte	0
ARM GAS  C:\Users\haske\AppData\Local\Temp\ccXBxzcA.s 			page 162


 7102 1ec1 00       		.byte	0
 7103 1ec2 30       		.uleb128 0x30
 7104 1ec3 711C0000 		.4byte	0x1c71
 7105 1ec7 3A000000 		.4byte	.LBB51
 7106 1ecb 0C000000 		.4byte	.LBE51-.LBB51
 7107 1ecf 01       		.byte	0x1
 7108 1ed0 4E01     		.2byte	0x14e
 7109 1ed2 E01E0000 		.4byte	0x1ee0
 7110 1ed6 31       		.uleb128 0x31
 7111 1ed7 811C0000 		.4byte	0x1c81
 7112 1edb 30010000 		.4byte	.LLST9
 7113 1edf 00       		.byte	0
 7114 1ee0 30       		.uleb128 0x30
 7115 1ee1 321C0000 		.4byte	0x1c32
 7116 1ee5 5E000000 		.4byte	.LBB53
 7117 1ee9 10000000 		.4byte	.LBE53-.LBB53
 7118 1eed 01       		.byte	0x1
 7119 1eee 5301     		.2byte	0x153
 7120 1ef0 311F0000 		.4byte	0x1f31
 7121 1ef4 31       		.uleb128 0x31
 7122 1ef5 4F1C0000 		.4byte	0x1c4f
 7123 1ef9 43010000 		.4byte	.LLST10
 7124 1efd 31       		.uleb128 0x31
 7125 1efe 431C0000 		.4byte	0x1c43
 7126 1f02 57010000 		.4byte	.LLST11
 7127 1f06 32       		.uleb128 0x32
 7128 1f07 5E000000 		.4byte	.LBB54
 7129 1f0b 10000000 		.4byte	.LBE54-.LBB54
 7130 1f0f 36       		.uleb128 0x36
 7131 1f10 5B1C0000 		.4byte	0x1c5b
 7132 1f14 34       		.uleb128 0x34
 7133 1f15 68000000 		.4byte	.LVL11
 7134 1f19 533B0000 		.4byte	0x3b53
 7135 1f1d 35       		.uleb128 0x35
 7136 1f1e 01       		.uleb128 0x1
 7137 1f1f 50       		.byte	0x50
 7138 1f20 02       		.uleb128 0x2
 7139 1f21 76       		.byte	0x76
 7140 1f22 00       		.sleb128 0
 7141 1f23 35       		.uleb128 0x35
 7142 1f24 01       		.uleb128 0x1
 7143 1f25 51       		.byte	0x51
 7144 1f26 01       		.uleb128 0x1
 7145 1f27 30       		.byte	0x30
 7146 1f28 35       		.uleb128 0x35
 7147 1f29 01       		.uleb128 0x1
 7148 1f2a 52       		.byte	0x52
 7149 1f2b 02       		.uleb128 0x2
 7150 1f2c 08       		.byte	0x8
 7151 1f2d 60       		.byte	0x60
 7152 1f2e 00       		.byte	0
 7153 1f2f 00       		.byte	0
 7154 1f30 00       		.byte	0
 7155 1f31 37       		.uleb128 0x37
 7156 1f32 96000000 		.4byte	.LBB55
 7157 1f36 94000000 		.4byte	.LBE55-.LBB55
 7158 1f3a 07200000 		.4byte	0x2007
ARM GAS  C:\Users\haske\AppData\Local\Temp\ccXBxzcA.s 			page 163


 7159 1f3e 2E       		.uleb128 0x2e
 7160 1f3f B61E0000 		.4byte	.LASF484
 7161 1f43 01       		.byte	0x1
 7162 1f44 6401     		.2byte	0x164
 7163 1f46 C41B0000 		.4byte	0x1bc4
 7164 1f4a 6A010000 		.4byte	.LLST12
 7165 1f4e 2E       		.uleb128 0x2e
 7166 1f4f 90060000 		.4byte	.LASF263
 7167 1f53 01       		.byte	0x1
 7168 1f54 6601     		.2byte	0x166
 7169 1f56 D9000000 		.4byte	0xd9
 7170 1f5a 7D010000 		.4byte	.LLST13
 7171 1f5e 2E       		.uleb128 0x2e
 7172 1f5f DA200000 		.4byte	.LASF264
 7173 1f63 01       		.byte	0x1
 7174 1f64 6801     		.2byte	0x168
 7175 1f66 D9000000 		.4byte	0xd9
 7176 1f6a 9B010000 		.4byte	.LLST14
 7177 1f6e 38       		.uleb128 0x38
 7178 1f6f D8000000 		.4byte	.LVL19
 7179 1f73 5E3B0000 		.4byte	0x3b5e
 7180 1f77 831F0000 		.4byte	0x1f83
 7181 1f7b 35       		.uleb128 0x35
 7182 1f7c 02       		.uleb128 0x2
 7183 1f7d 7D       		.byte	0x7d
 7184 1f7e 00       		.sleb128 0
 7185 1f7f 02       		.uleb128 0x2
 7186 1f80 75       		.byte	0x75
 7187 1f81 00       		.sleb128 0
 7188 1f82 00       		.byte	0
 7189 1f83 38       		.uleb128 0x38
 7190 1f84 EE000000 		.4byte	.LVL23
 7191 1f88 5E3B0000 		.4byte	0x3b5e
 7192 1f8c 981F0000 		.4byte	0x1f98
 7193 1f90 35       		.uleb128 0x35
 7194 1f91 02       		.uleb128 0x2
 7195 1f92 7D       		.byte	0x7d
 7196 1f93 00       		.sleb128 0
 7197 1f94 02       		.uleb128 0x2
 7198 1f95 74       		.byte	0x74
 7199 1f96 00       		.sleb128 0
 7200 1f97 00       		.byte	0
 7201 1f98 38       		.uleb128 0x38
 7202 1f99 0C010000 		.4byte	.LVL26
 7203 1f9d 693B0000 		.4byte	0x3b69
 7204 1fa1 B91F0000 		.4byte	0x1fb9
 7205 1fa5 35       		.uleb128 0x35
 7206 1fa6 01       		.uleb128 0x1
 7207 1fa7 50       		.byte	0x50
 7208 1fa8 04       		.uleb128 0x4
 7209 1fa9 91       		.byte	0x91
 7210 1faa F07E     		.sleb128 -144
 7211 1fac 06       		.byte	0x6
 7212 1fad 35       		.uleb128 0x35
 7213 1fae 01       		.uleb128 0x1
 7214 1faf 51       		.byte	0x51
 7215 1fb0 01       		.uleb128 0x1
ARM GAS  C:\Users\haske\AppData\Local\Temp\ccXBxzcA.s 			page 164


 7216 1fb1 4A       		.byte	0x4a
 7217 1fb2 35       		.uleb128 0x35
 7218 1fb3 01       		.uleb128 0x1
 7219 1fb4 52       		.byte	0x52
 7220 1fb5 02       		.uleb128 0x2
 7221 1fb6 74       		.byte	0x74
 7222 1fb7 00       		.sleb128 0
 7223 1fb8 00       		.byte	0
 7224 1fb9 38       		.uleb128 0x38
 7225 1fba 20010000 		.4byte	.LVL29
 7226 1fbe 743B0000 		.4byte	0x3b74
 7227 1fc2 E91F0000 		.4byte	0x1fe9
 7228 1fc6 35       		.uleb128 0x35
 7229 1fc7 01       		.uleb128 0x1
 7230 1fc8 50       		.byte	0x50
 7231 1fc9 04       		.uleb128 0x4
 7232 1fca 91       		.byte	0x91
 7233 1fcb F47E     		.sleb128 -140
 7234 1fcd 06       		.byte	0x6
 7235 1fce 35       		.uleb128 0x35
 7236 1fcf 01       		.uleb128 0x1
 7237 1fd0 51       		.byte	0x51
 7238 1fd1 02       		.uleb128 0x2
 7239 1fd2 78       		.byte	0x78
 7240 1fd3 00       		.sleb128 0
 7241 1fd4 35       		.uleb128 0x35
 7242 1fd5 01       		.uleb128 0x1
 7243 1fd6 52       		.byte	0x52
 7244 1fd7 02       		.uleb128 0x2
 7245 1fd8 7A       		.byte	0x7a
 7246 1fd9 00       		.sleb128 0
 7247 1fda 35       		.uleb128 0x35
 7248 1fdb 02       		.uleb128 0x2
 7249 1fdc 7D       		.byte	0x7d
 7250 1fdd 00       		.sleb128 0
 7251 1fde 02       		.uleb128 0x2
 7252 1fdf 75       		.byte	0x75
 7253 1fe0 00       		.sleb128 0
 7254 1fe1 35       		.uleb128 0x35
 7255 1fe2 02       		.uleb128 0x2
 7256 1fe3 7D       		.byte	0x7d
 7257 1fe4 04       		.sleb128 4
 7258 1fe5 02       		.uleb128 0x2
 7259 1fe6 76       		.byte	0x76
 7260 1fe7 00       		.sleb128 0
 7261 1fe8 00       		.byte	0
 7262 1fe9 34       		.uleb128 0x34
 7263 1fea 2A010000 		.4byte	.LVL30
 7264 1fee 693B0000 		.4byte	0x3b69
 7265 1ff2 35       		.uleb128 0x35
 7266 1ff3 01       		.uleb128 0x1
 7267 1ff4 50       		.byte	0x50
 7268 1ff5 04       		.uleb128 0x4
 7269 1ff6 91       		.byte	0x91
 7270 1ff7 F07E     		.sleb128 -144
 7271 1ff9 06       		.byte	0x6
 7272 1ffa 35       		.uleb128 0x35
ARM GAS  C:\Users\haske\AppData\Local\Temp\ccXBxzcA.s 			page 165


 7273 1ffb 01       		.uleb128 0x1
 7274 1ffc 51       		.byte	0x51
 7275 1ffd 01       		.uleb128 0x1
 7276 1ffe 4B       		.byte	0x4b
 7277 1fff 35       		.uleb128 0x35
 7278 2000 01       		.uleb128 0x1
 7279 2001 52       		.byte	0x52
 7280 2002 02       		.uleb128 0x2
 7281 2003 74       		.byte	0x74
 7282 2004 00       		.sleb128 0
 7283 2005 00       		.byte	0
 7284 2006 00       		.byte	0
 7285 2007 38       		.uleb128 0x38
 7286 2008 1E000000 		.4byte	.LVL3
 7287 200c 7F3B0000 		.4byte	0x3b7f
 7288 2010 1B200000 		.4byte	0x201b
 7289 2014 35       		.uleb128 0x35
 7290 2015 01       		.uleb128 0x1
 7291 2016 50       		.byte	0x50
 7292 2017 02       		.uleb128 0x2
 7293 2018 74       		.byte	0x74
 7294 2019 00       		.sleb128 0
 7295 201a 00       		.byte	0
 7296 201b 38       		.uleb128 0x38
 7297 201c 76000000 		.4byte	.LVL13
 7298 2020 8A3B0000 		.4byte	0x3b8a
 7299 2024 36200000 		.4byte	0x2036
 7300 2028 35       		.uleb128 0x35
 7301 2029 01       		.uleb128 0x1
 7302 202a 50       		.byte	0x50
 7303 202b 03       		.uleb128 0x3
 7304 202c 91       		.byte	0x91
 7305 202d 847F     		.sleb128 -124
 7306 202f 35       		.uleb128 0x35
 7307 2030 01       		.uleb128 0x1
 7308 2031 51       		.byte	0x51
 7309 2032 02       		.uleb128 0x2
 7310 2033 77       		.byte	0x77
 7311 2034 00       		.sleb128 0
 7312 2035 00       		.byte	0
 7313 2036 38       		.uleb128 0x38
 7314 2037 92000000 		.4byte	.LVL14
 7315 203b 953B0000 		.4byte	0x3b95
 7316 203f 4C200000 		.4byte	0x204c
 7317 2043 35       		.uleb128 0x35
 7318 2044 01       		.uleb128 0x1
 7319 2045 50       		.byte	0x50
 7320 2046 04       		.uleb128 0x4
 7321 2047 91       		.byte	0x91
 7322 2048 EC7E     		.sleb128 -148
 7323 204a 06       		.byte	0x6
 7324 204b 00       		.byte	0
 7325 204c 34       		.uleb128 0x34
 7326 204d 32010000 		.4byte	.LVL31
 7327 2051 A03B0000 		.4byte	0x3ba0
 7328 2055 35       		.uleb128 0x35
 7329 2056 01       		.uleb128 0x1
ARM GAS  C:\Users\haske\AppData\Local\Temp\ccXBxzcA.s 			page 166


 7330 2057 50       		.byte	0x50
 7331 2058 04       		.uleb128 0x4
 7332 2059 91       		.byte	0x91
 7333 205a EC7E     		.sleb128 -148
 7334 205c 06       		.byte	0x6
 7335 205d 35       		.uleb128 0x35
 7336 205e 01       		.uleb128 0x1
 7337 205f 51       		.byte	0x51
 7338 2060 02       		.uleb128 0x2
 7339 2061 77       		.byte	0x77
 7340 2062 00       		.sleb128 0
 7341 2063 00       		.byte	0
 7342 2064 00       		.byte	0
 7343 2065 08       		.uleb128 0x8
 7344 2066 04       		.byte	0x4
 7345 2067 021C0000 		.4byte	0x1c02
 7346 206b 08       		.uleb128 0x8
 7347 206c 04       		.byte	0x4
 7348 206d CA1B0000 		.4byte	0x1bca
 7349 2071 39       		.uleb128 0x39
 7350 2072 E4220000 		.4byte	.LASF514
 7351 2076 01       		.byte	0x1
 7352 2077 7501     		.2byte	0x175
 7353 2079 00000000 		.4byte	.LFB218
 7354 207d 3C040000 		.4byte	.LFE218-.LFB218
 7355 2081 01       		.uleb128 0x1
 7356 2082 9C       		.byte	0x9c
 7357 2083 9F270000 		.4byte	0x279f
 7358 2087 2C       		.uleb128 0x2c
 7359 2088 6F626A00 		.ascii	"obj\000"
 7360 208c 01       		.byte	0x1
 7361 208d 7501     		.2byte	0x175
 7362 208f 27190000 		.4byte	0x1927
 7363 2093 B9010000 		.4byte	.LLST15
 7364 2097 2D       		.uleb128 0x2d
 7365 2098 E5240000 		.4byte	.LASF349
 7366 209c 01       		.byte	0x1
 7367 209d 7501     		.2byte	0x175
 7368 209f CE120000 		.4byte	0x12ce
 7369 20a3 D9010000 		.4byte	.LLST16
 7370 20a7 2D       		.uleb128 0x2d
 7371 20a8 8B150000 		.4byte	.LASF506
 7372 20ac 01       		.byte	0x1
 7373 20ad 7501     		.2byte	0x175
 7374 20af D50E0000 		.4byte	0xed5
 7375 20b3 F9010000 		.4byte	.LLST17
 7376 20b7 2F       		.uleb128 0x2f
 7377 20b8 51180000 		.4byte	.LASF507
 7378 20bc 01       		.byte	0x1
 7379 20bd 7701     		.2byte	0x177
 7380 20bf 65200000 		.4byte	0x2065
 7381 20c3 03       		.uleb128 0x3
 7382 20c4 91       		.byte	0x91
 7383 20c5 907D     		.sleb128 -368
 7384 20c7 2F       		.uleb128 0x2f
 7385 20c8 43170000 		.4byte	.LASF515
 7386 20cc 01       		.byte	0x1
ARM GAS  C:\Users\haske\AppData\Local\Temp\ccXBxzcA.s 			page 167


 7387 20cd 7901     		.2byte	0x179
 7388 20cf 63010000 		.4byte	0x163
 7389 20d3 02       		.uleb128 0x2
 7390 20d4 91       		.byte	0x91
 7391 20d5 54       		.sleb128 -44
 7392 20d6 2F       		.uleb128 0x2f
 7393 20d7 22050000 		.4byte	.LASF516
 7394 20db 01       		.byte	0x1
 7395 20dc 7A01     		.2byte	0x17a
 7396 20de 3B010000 		.4byte	0x13b
 7397 20e2 03       		.uleb128 0x3
 7398 20e3 91       		.byte	0x91
 7399 20e4 AC7D     		.sleb128 -340
 7400 20e6 2F       		.uleb128 0x2f
 7401 20e7 62090000 		.4byte	.LASF353
 7402 20eb 01       		.byte	0x1
 7403 20ec 7E01     		.2byte	0x17e
 7404 20ee 960C0000 		.4byte	0xc96
 7405 20f2 02       		.uleb128 0x2
 7406 20f3 91       		.byte	0x91
 7407 20f4 48       		.sleb128 -56
 7408 20f5 2F       		.uleb128 0x2f
 7409 20f6 78020000 		.4byte	.LASF352
 7410 20fa 01       		.byte	0x1
 7411 20fb 8301     		.2byte	0x183
 7412 20fd 840B0000 		.4byte	0xb84
 7413 2101 03       		.uleb128 0x3
 7414 2102 91       		.byte	0x91
 7415 2103 A87F     		.sleb128 -88
 7416 2105 2E       		.uleb128 0x2e
 7417 2106 B61E0000 		.4byte	.LASF484
 7418 210a 01       		.byte	0x1
 7419 210b 8701     		.2byte	0x187
 7420 210d C41B0000 		.4byte	0x1bc4
 7421 2111 25020000 		.4byte	.LLST18
 7422 2115 2F       		.uleb128 0x2f
 7423 2116 12020000 		.4byte	.LASF517
 7424 211a 01       		.byte	0x1
 7425 211b 8901     		.2byte	0x189
 7426 211d 670E0000 		.4byte	0xe67
 7427 2121 03       		.uleb128 0x3
 7428 2122 91       		.byte	0x91
 7429 2123 907F     		.sleb128 -112
 7430 2125 2F       		.uleb128 0x2f
 7431 2126 63250000 		.4byte	.LASF518
 7432 212a 01       		.byte	0x1
 7433 212b 8A01     		.2byte	0x18a
 7434 212d 670E0000 		.4byte	0xe67
 7435 2131 03       		.uleb128 0x3
 7436 2132 91       		.byte	0x91
 7437 2133 F87E     		.sleb128 -136
 7438 2135 2F       		.uleb128 0x2f
 7439 2136 3A020000 		.4byte	.LASF519
 7440 213a 01       		.byte	0x1
 7441 213b 8B01     		.2byte	0x18b
 7442 213d 670E0000 		.4byte	0xe67
 7443 2141 03       		.uleb128 0x3
ARM GAS  C:\Users\haske\AppData\Local\Temp\ccXBxzcA.s 			page 168


 7444 2142 91       		.byte	0x91
 7445 2143 E07E     		.sleb128 -160
 7446 2145 2F       		.uleb128 0x2f
 7447 2146 74210000 		.4byte	.LASF512
 7448 214a 01       		.byte	0x1
 7449 214b 8D01     		.2byte	0x18d
 7450 214d DD150000 		.4byte	0x15dd
 7451 2151 03       		.uleb128 0x3
 7452 2152 91       		.byte	0x91
 7453 2153 987E     		.sleb128 -232
 7454 2155 30       		.uleb128 0x30
 7455 2156 711C0000 		.4byte	0x1c71
 7456 215a 14000000 		.4byte	.LBB56
 7457 215e 0C000000 		.4byte	.LBE56-.LBB56
 7458 2162 01       		.byte	0x1
 7459 2163 7A01     		.2byte	0x17a
 7460 2165 73210000 		.4byte	0x2173
 7461 2169 31       		.uleb128 0x31
 7462 216a 811C0000 		.4byte	0x1c81
 7463 216e 4E020000 		.4byte	.LLST19
 7464 2172 00       		.byte	0
 7465 2173 30       		.uleb128 0x30
 7466 2174 C11C0000 		.4byte	0x1cc1
 7467 2178 26000000 		.4byte	.LBB58
 7468 217c 0C000000 		.4byte	.LBE58-.LBB58
 7469 2180 01       		.byte	0x1
 7470 2181 7A01     		.2byte	0x17a
 7471 2183 91210000 		.4byte	0x2191
 7472 2187 31       		.uleb128 0x31
 7473 2188 D11C0000 		.4byte	0x1cd1
 7474 218c 6C020000 		.4byte	.LLST20
 7475 2190 00       		.byte	0
 7476 2191 37       		.uleb128 0x37
 7477 2192 A8000000 		.4byte	.LBB60
 7478 2196 76030000 		.4byte	.LBE60-.LBB60
 7479 219a E9260000 		.4byte	0x26e9
 7480 219e 2E       		.uleb128 0x2e
 7481 219f 58130000 		.4byte	.LASF508
 7482 21a3 01       		.byte	0x1
 7483 21a4 9701     		.2byte	0x197
 7484 21a6 3B010000 		.4byte	0x13b
 7485 21aa 8D020000 		.4byte	.LLST21
 7486 21ae 2E       		.uleb128 0x2e
 7487 21af FD020000 		.4byte	.LASF520
 7488 21b3 01       		.byte	0x1
 7489 21b4 9801     		.2byte	0x198
 7490 21b6 3B010000 		.4byte	0x13b
 7491 21ba A2020000 		.4byte	.LLST22
 7492 21be 2E       		.uleb128 0x2e
 7493 21bf 4B210000 		.4byte	.LASF521
 7494 21c3 01       		.byte	0x1
 7495 21c4 9901     		.2byte	0x199
 7496 21c6 3B010000 		.4byte	0x13b
 7497 21ca B5020000 		.4byte	.LLST23
 7498 21ce 2F       		.uleb128 0x2f
 7499 21cf C40D0000 		.4byte	.LASF522
 7500 21d3 01       		.byte	0x1
ARM GAS  C:\Users\haske\AppData\Local\Temp\ccXBxzcA.s 			page 169


 7501 21d4 9B01     		.2byte	0x19b
 7502 21d6 A3010000 		.4byte	0x1a3
 7503 21da 03       		.uleb128 0x3
 7504 21db 91       		.byte	0x91
 7505 21dc C87D     		.sleb128 -312
 7506 21de 2F       		.uleb128 0x2f
 7507 21df 9F040000 		.4byte	.LASF523
 7508 21e3 01       		.byte	0x1
 7509 21e4 A201     		.2byte	0x1a2
 7510 21e6 A3010000 		.4byte	0x1a3
 7511 21ea 03       		.uleb128 0x3
 7512 21eb 91       		.byte	0x91
 7513 21ec D07D     		.sleb128 -304
 7514 21ee 2F       		.uleb128 0x2f
 7515 21ef 47010000 		.4byte	.LASF524
 7516 21f3 01       		.byte	0x1
 7517 21f4 A901     		.2byte	0x1a9
 7518 21f6 A3010000 		.4byte	0x1a3
 7519 21fa 03       		.uleb128 0x3
 7520 21fb 91       		.byte	0x91
 7521 21fc D87D     		.sleb128 -296
 7522 21fe 2E       		.uleb128 0x2e
 7523 21ff 27110000 		.4byte	.LASF525
 7524 2203 01       		.byte	0x1
 7525 2204 AF01     		.2byte	0x1af
 7526 2206 C3000000 		.4byte	0xc3
 7527 220a CA020000 		.4byte	.LLST24
 7528 220e 2E       		.uleb128 0x2e
 7529 220f 97030000 		.4byte	.LASF526
 7530 2213 01       		.byte	0x1
 7531 2214 B101     		.2byte	0x1b1
 7532 2216 C3000000 		.4byte	0xc3
 7533 221a 02030000 		.4byte	.LLST25
 7534 221e 2E       		.uleb128 0x2e
 7535 221f 3D0D0000 		.4byte	.LASF527
 7536 2223 01       		.byte	0x1
 7537 2224 B301     		.2byte	0x1b3
 7538 2226 E4000000 		.4byte	0xe4
 7539 222a 22030000 		.4byte	.LLST26
 7540 222e 3A       		.uleb128 0x3a
 7541 222f 6900     		.ascii	"i\000"
 7542 2231 01       		.byte	0x1
 7543 2232 B401     		.2byte	0x1b4
 7544 2234 CE000000 		.4byte	0xce
 7545 2238 4F030000 		.4byte	.LLST27
 7546 223c 37       		.uleb128 0x37
 7547 223d 4E010000 		.4byte	.LBB61
 7548 2241 AC020000 		.4byte	.LBE61-.LBB61
 7549 2245 07260000 		.4byte	0x2607
 7550 2249 2E       		.uleb128 0x2e
 7551 224a 05230000 		.4byte	.LASF528
 7552 224e 01       		.byte	0x1
 7553 224f B701     		.2byte	0x1b7
 7554 2251 E4020000 		.4byte	0x2e4
 7555 2255 6D030000 		.4byte	.LLST28
 7556 2259 2E       		.uleb128 0x2e
 7557 225a 59060000 		.4byte	.LASF529
ARM GAS  C:\Users\haske\AppData\Local\Temp\ccXBxzcA.s 			page 170


 7558 225e 01       		.byte	0x1
 7559 225f BD01     		.2byte	0x1bd
 7560 2261 D9000000 		.4byte	0xd9
 7561 2265 8C030000 		.4byte	.LLST29
 7562 2269 2E       		.uleb128 0x2e
 7563 226a FD260000 		.4byte	.LASF530
 7564 226e 01       		.byte	0x1
 7565 226f C001     		.2byte	0x1c0
 7566 2271 E8030000 		.4byte	0x3e8
 7567 2275 E1030000 		.4byte	.LLST30
 7568 2279 2E       		.uleb128 0x2e
 7569 227a A5120000 		.4byte	.LASF531
 7570 227e 01       		.byte	0x1
 7571 227f C101     		.2byte	0x1c1
 7572 2281 E8030000 		.4byte	0x3e8
 7573 2285 0A040000 		.4byte	.LLST31
 7574 2289 2E       		.uleb128 0x2e
 7575 228a 08270000 		.4byte	.LASF532
 7576 228e 01       		.byte	0x1
 7577 228f C301     		.2byte	0x1c3
 7578 2291 3B010000 		.4byte	0x13b
 7579 2295 1D040000 		.4byte	.LLST32
 7580 2299 2E       		.uleb128 0x2e
 7581 229a 43060000 		.4byte	.LASF533
 7582 229e 01       		.byte	0x1
 7583 229f C401     		.2byte	0x1c4
 7584 22a1 3B010000 		.4byte	0x13b
 7585 22a5 30040000 		.4byte	.LLST33
 7586 22a9 2E       		.uleb128 0x2e
 7587 22aa 22080000 		.4byte	.LASF511
 7588 22ae 01       		.byte	0x1
 7589 22af C601     		.2byte	0x1c6
 7590 22b1 6B200000 		.4byte	0x206b
 7591 22b5 59040000 		.4byte	.LLST34
 7592 22b9 2E       		.uleb128 0x2e
 7593 22ba 780B0000 		.4byte	.LASF534
 7594 22be 01       		.byte	0x1
 7595 22bf DC01     		.2byte	0x1dc
 7596 22c1 D9000000 		.4byte	0xd9
 7597 22c5 8D040000 		.4byte	.LLST35
 7598 22c9 2F       		.uleb128 0x2f
 7599 22ca E4200000 		.4byte	.LASF535
 7600 22ce 01       		.byte	0x1
 7601 22cf E301     		.2byte	0x1e3
 7602 22d1 63010000 		.4byte	0x163
 7603 22d5 03       		.uleb128 0x3
 7604 22d6 91       		.byte	0x91
 7605 22d7 BC7D     		.sleb128 -324
 7606 22d9 37       		.uleb128 0x37
 7607 22da F0010000 		.4byte	.LBB62
 7608 22de 52000000 		.4byte	.LBE62-.LBB62
 7609 22e2 85230000 		.4byte	0x2385
 7610 22e6 2E       		.uleb128 0x2e
 7611 22e7 6D1D0000 		.4byte	.LASF536
 7612 22eb 01       		.byte	0x1
 7613 22ec D001     		.2byte	0x1d0
 7614 22ee F3030000 		.4byte	0x3f3
ARM GAS  C:\Users\haske\AppData\Local\Temp\ccXBxzcA.s 			page 171


 7615 22f2 BA040000 		.4byte	.LLST36
 7616 22f6 30       		.uleb128 0x30
 7617 22f7 DD1C0000 		.4byte	0x1cdd
 7618 22fb 18020000 		.4byte	.LBB63
 7619 22ff 2A000000 		.4byte	.LBE63-.LBB63
 7620 2303 01       		.byte	0x1
 7621 2304 D701     		.2byte	0x1d7
 7622 2306 48230000 		.4byte	0x2348
 7623 230a 31       		.uleb128 0x31
 7624 230b 041D0000 		.4byte	0x1d04
 7625 230f D8040000 		.4byte	.LLST37
 7626 2313 3B       		.uleb128 0x3b
 7627 2314 F91C0000 		.4byte	0x1cf9
 7628 2318 3B       		.uleb128 0x3b
 7629 2319 EE1C0000 		.4byte	0x1cee
 7630 231d 32       		.uleb128 0x32
 7631 231e 18020000 		.4byte	.LBB64
 7632 2322 2A000000 		.4byte	.LBE64-.LBB64
 7633 2326 36       		.uleb128 0x36
 7634 2327 101D0000 		.4byte	0x1d10
 7635 232b 33       		.uleb128 0x33
 7636 232c 1C1D0000 		.4byte	0x1d1c
 7637 2330 F6040000 		.4byte	.LLST38
 7638 2334 33       		.uleb128 0x33
 7639 2335 271D0000 		.4byte	0x1d27
 7640 2339 35050000 		.4byte	.LLST39
 7641 233d 33       		.uleb128 0x33
 7642 233e 321D0000 		.4byte	0x1d32
 7643 2342 82050000 		.4byte	.LLST40
 7644 2346 00       		.byte	0
 7645 2347 00       		.byte	0
 7646 2348 38       		.uleb128 0x38
 7647 2349 02020000 		.4byte	.LVL76
 7648 234d 5E3B0000 		.4byte	0x3b5e
 7649 2351 68230000 		.4byte	0x2368
 7650 2355 35       		.uleb128 0x35
 7651 2356 01       		.uleb128 0x1
 7652 2357 50       		.byte	0x50
 7653 2358 02       		.uleb128 0x2
 7654 2359 75       		.byte	0x75
 7655 235a 00       		.sleb128 0
 7656 235b 35       		.uleb128 0x35
 7657 235c 01       		.uleb128 0x1
 7658 235d 53       		.byte	0x53
 7659 235e 01       		.uleb128 0x1
 7660 235f 30       		.byte	0x30
 7661 2360 35       		.uleb128 0x35
 7662 2361 02       		.uleb128 0x2
 7663 2362 7D       		.byte	0x7d
 7664 2363 00       		.sleb128 0
 7665 2364 02       		.uleb128 0x2
 7666 2365 08       		.byte	0x8
 7667 2366 FF       		.byte	0xff
 7668 2367 00       		.byte	0
 7669 2368 34       		.uleb128 0x34
 7670 2369 16020000 		.4byte	.LVL79
 7671 236d 5E3B0000 		.4byte	0x3b5e
ARM GAS  C:\Users\haske\AppData\Local\Temp\ccXBxzcA.s 			page 172


 7672 2371 35       		.uleb128 0x35
 7673 2372 01       		.uleb128 0x1
 7674 2373 50       		.byte	0x50
 7675 2374 02       		.uleb128 0x2
 7676 2375 75       		.byte	0x75
 7677 2376 00       		.sleb128 0
 7678 2377 35       		.uleb128 0x35
 7679 2378 01       		.uleb128 0x1
 7680 2379 53       		.byte	0x53
 7681 237a 01       		.uleb128 0x1
 7682 237b 30       		.byte	0x30
 7683 237c 35       		.uleb128 0x35
 7684 237d 02       		.uleb128 0x2
 7685 237e 7D       		.byte	0x7d
 7686 237f 00       		.sleb128 0
 7687 2380 02       		.uleb128 0x2
 7688 2381 08       		.byte	0x8
 7689 2382 FF       		.byte	0xff
 7690 2383 00       		.byte	0
 7691 2384 00       		.byte	0
 7692 2385 37       		.uleb128 0x37
 7693 2386 C6020000 		.4byte	.LBB65
 7694 238a CC000000 		.4byte	.LBE65-.LBB65
 7695 238e 02250000 		.4byte	0x2502
 7696 2392 2E       		.uleb128 0x2e
 7697 2393 95140000 		.4byte	.LASF537
 7698 2397 01       		.byte	0x1
 7699 2398 F001     		.2byte	0x1f0
 7700 239a E4000000 		.4byte	0xe4
 7701 239e 95050000 		.4byte	.LLST41
 7702 23a2 3C       		.uleb128 0x3c
 7703 23a3 7000     		.ascii	"p\000"
 7704 23a5 01       		.byte	0x1
 7705 23a6 F101     		.2byte	0x1f1
 7706 23a8 63010000 		.4byte	0x163
 7707 23ac 03       		.uleb128 0x3
 7708 23ad 91       		.byte	0x91
 7709 23ae C07D     		.sleb128 -320
 7710 23b0 2F       		.uleb128 0x2f
 7711 23b1 16190000 		.4byte	.LASF538
 7712 23b5 01       		.byte	0x1
 7713 23b6 F601     		.2byte	0x1f6
 7714 23b8 840B0000 		.4byte	0xb84
 7715 23bc 03       		.uleb128 0x3
 7716 23bd 91       		.byte	0x91
 7717 23be F87D     		.sleb128 -264
 7718 23c0 3C       		.uleb128 0x3c
 7719 23c1 62756600 		.ascii	"buf\000"
 7720 23c5 01       		.byte	0x1
 7721 23c6 FA01     		.2byte	0x1fa
 7722 23c8 9F270000 		.4byte	0x279f
 7723 23cc 03       		.uleb128 0x3
 7724 23cd 91       		.byte	0x91
 7725 23ce E87D     		.sleb128 -280
 7726 23d0 2F       		.uleb128 0x2f
 7727 23d1 6B090000 		.4byte	.LASF539
 7728 23d5 01       		.byte	0x1
ARM GAS  C:\Users\haske\AppData\Local\Temp\ccXBxzcA.s 			page 173


 7729 23d6 0102     		.2byte	0x201
 7730 23d8 63010000 		.4byte	0x163
 7731 23dc 03       		.uleb128 0x3
 7732 23dd 91       		.byte	0x91
 7733 23de C47D     		.sleb128 -316
 7734 23e0 2F       		.uleb128 0x2f
 7735 23e1 23240000 		.4byte	.LASF540
 7736 23e5 01       		.byte	0x1
 7737 23e6 0502     		.2byte	0x205
 7738 23e8 A3010000 		.4byte	0x1a3
 7739 23ec 03       		.uleb128 0x3
 7740 23ed 91       		.byte	0x91
 7741 23ee E07D     		.sleb128 -288
 7742 23f0 38       		.uleb128 0x38
 7743 23f1 CC020000 		.4byte	.LVL104
 7744 23f5 AB3B0000 		.4byte	0x3bab
 7745 23f9 07240000 		.4byte	0x2407
 7746 23fd 35       		.uleb128 0x35
 7747 23fe 01       		.uleb128 0x1
 7748 23ff 50       		.byte	0x50
 7749 2400 05       		.uleb128 0x5
 7750 2401 91       		.byte	0x91
 7751 2402 A87D     		.sleb128 -344
 7752 2404 94       		.byte	0x94
 7753 2405 02       		.byte	0x2
 7754 2406 00       		.byte	0
 7755 2407 38       		.uleb128 0x38
 7756 2408 F2020000 		.4byte	.LVL108
 7757 240c B73B0000 		.4byte	0x3bb7
 7758 2410 30240000 		.4byte	0x2430
 7759 2414 35       		.uleb128 0x35
 7760 2415 01       		.uleb128 0x1
 7761 2416 50       		.byte	0x50
 7762 2417 02       		.uleb128 0x2
 7763 2418 76       		.byte	0x76
 7764 2419 00       		.sleb128 0
 7765 241a 35       		.uleb128 0x35
 7766 241b 01       		.uleb128 0x1
 7767 241c 51       		.byte	0x51
 7768 241d 04       		.uleb128 0x4
 7769 241e 91       		.byte	0x91
 7770 241f 8C7D     		.sleb128 -372
 7771 2421 06       		.byte	0x6
 7772 2422 35       		.uleb128 0x35
 7773 2423 01       		.uleb128 0x1
 7774 2424 52       		.byte	0x52
 7775 2425 03       		.uleb128 0x3
 7776 2426 0A       		.byte	0xa
 7777 2427 0001     		.2byte	0x100
 7778 2429 35       		.uleb128 0x35
 7779 242a 01       		.uleb128 0x1
 7780 242b 53       		.byte	0x53
 7781 242c 02       		.uleb128 0x2
 7782 242d 91       		.byte	0x91
 7783 242e 54       		.sleb128 -44
 7784 242f 00       		.byte	0
 7785 2430 38       		.uleb128 0x38
ARM GAS  C:\Users\haske\AppData\Local\Temp\ccXBxzcA.s 			page 174


 7786 2431 02030000 		.4byte	.LVL110
 7787 2435 C23B0000 		.4byte	0x3bc2
 7788 2439 50240000 		.4byte	0x2450
 7789 243d 35       		.uleb128 0x35
 7790 243e 01       		.uleb128 0x1
 7791 243f 50       		.byte	0x50
 7792 2440 02       		.uleb128 0x2
 7793 2441 7A       		.byte	0x7a
 7794 2442 00       		.sleb128 0
 7795 2443 35       		.uleb128 0x35
 7796 2444 01       		.uleb128 0x1
 7797 2445 51       		.byte	0x51
 7798 2446 02       		.uleb128 0x2
 7799 2447 74       		.byte	0x74
 7800 2448 00       		.sleb128 0
 7801 2449 35       		.uleb128 0x35
 7802 244a 01       		.uleb128 0x1
 7803 244b 52       		.byte	0x52
 7804 244c 02       		.uleb128 0x2
 7805 244d 08       		.byte	0x8
 7806 244e 20       		.byte	0x20
 7807 244f 00       		.byte	0
 7808 2450 38       		.uleb128 0x38
 7809 2451 16030000 		.4byte	.LVL111
 7810 2455 CD3B0000 		.4byte	0x3bcd
 7811 2459 78240000 		.4byte	0x2478
 7812 245d 35       		.uleb128 0x35
 7813 245e 01       		.uleb128 0x1
 7814 245f 50       		.byte	0x50
 7815 2460 02       		.uleb128 0x2
 7816 2461 7A       		.byte	0x7a
 7817 2462 00       		.sleb128 0
 7818 2463 35       		.uleb128 0x35
 7819 2464 01       		.uleb128 0x1
 7820 2465 51       		.byte	0x51
 7821 2466 01       		.uleb128 0x1
 7822 2467 40       		.byte	0x40
 7823 2468 35       		.uleb128 0x35
 7824 2469 01       		.uleb128 0x1
 7825 246a 52       		.byte	0x52
 7826 246b 05       		.uleb128 0x5
 7827 246c 03       		.byte	0x3
 7828 246d 00000000 		.4byte	.LC2
 7829 2471 35       		.uleb128 0x35
 7830 2472 01       		.uleb128 0x1
 7831 2473 53       		.byte	0x53
 7832 2474 02       		.uleb128 0x2
 7833 2475 78       		.byte	0x78
 7834 2476 00       		.sleb128 0
 7835 2477 00       		.byte	0
 7836 2478 38       		.uleb128 0x38
 7837 2479 24030000 		.4byte	.LVL112
 7838 247d 693B0000 		.4byte	0x3b69
 7839 2481 9A240000 		.4byte	0x249a
 7840 2485 35       		.uleb128 0x35
 7841 2486 01       		.uleb128 0x1
 7842 2487 50       		.byte	0x50
ARM GAS  C:\Users\haske\AppData\Local\Temp\ccXBxzcA.s 			page 175


 7843 2488 04       		.uleb128 0x4
 7844 2489 91       		.byte	0x91
 7845 248a 907D     		.sleb128 -368
 7846 248c 06       		.byte	0x6
 7847 248d 35       		.uleb128 0x35
 7848 248e 01       		.uleb128 0x1
 7849 248f 51       		.byte	0x51
 7850 2490 01       		.uleb128 0x1
 7851 2491 4A       		.byte	0x4a
 7852 2492 35       		.uleb128 0x35
 7853 2493 01       		.uleb128 0x1
 7854 2494 52       		.byte	0x52
 7855 2495 03       		.uleb128 0x3
 7856 2496 91       		.byte	0x91
 7857 2497 987E     		.sleb128 -232
 7858 2499 00       		.byte	0
 7859 249a 38       		.uleb128 0x38
 7860 249b 46030000 		.4byte	.LVL115
 7861 249f D83B0000 		.4byte	0x3bd8
 7862 24a3 C6240000 		.4byte	0x24c6
 7863 24a7 35       		.uleb128 0x35
 7864 24a8 01       		.uleb128 0x1
 7865 24a9 50       		.byte	0x50
 7866 24aa 03       		.uleb128 0x3
 7867 24ab 91       		.byte	0x91
 7868 24ac C47D     		.sleb128 -316
 7869 24ae 35       		.uleb128 0x35
 7870 24af 01       		.uleb128 0x1
 7871 24b0 51       		.byte	0x51
 7872 24b1 04       		.uleb128 0x4
 7873 24b2 91       		.byte	0x91
 7874 24b3 8C7D     		.sleb128 -372
 7875 24b5 06       		.byte	0x6
 7876 24b6 35       		.uleb128 0x35
 7877 24b7 02       		.uleb128 0x2
 7878 24b8 7D       		.byte	0x7d
 7879 24b9 04       		.sleb128 4
 7880 24ba 03       		.uleb128 0x3
 7881 24bb 0A       		.byte	0xa
 7882 24bc FF1F     		.2byte	0x1fff
 7883 24be 35       		.uleb128 0x35
 7884 24bf 02       		.uleb128 0x2
 7885 24c0 7D       		.byte	0x7d
 7886 24c1 08       		.sleb128 8
 7887 24c2 02       		.uleb128 0x2
 7888 24c3 78       		.byte	0x78
 7889 24c4 00       		.sleb128 0
 7890 24c5 00       		.byte	0
 7891 24c6 38       		.uleb128 0x38
 7892 24c7 88030000 		.4byte	.LVL116
 7893 24cb E33B0000 		.4byte	0x3be3
 7894 24cf EA240000 		.4byte	0x24ea
 7895 24d3 35       		.uleb128 0x35
 7896 24d4 01       		.uleb128 0x1
 7897 24d5 50       		.byte	0x50
 7898 24d6 04       		.uleb128 0x4
 7899 24d7 91       		.byte	0x91
ARM GAS  C:\Users\haske\AppData\Local\Temp\ccXBxzcA.s 			page 176


 7900 24d8 A07D     		.sleb128 -352
 7901 24da 06       		.byte	0x6
 7902 24db 35       		.uleb128 0x35
 7903 24dc 01       		.uleb128 0x1
 7904 24dd 52       		.byte	0x52
 7905 24de 03       		.uleb128 0x3
 7906 24df 91       		.byte	0x91
 7907 24e0 E07D     		.sleb128 -288
 7908 24e2 35       		.uleb128 0x35
 7909 24e3 02       		.uleb128 0x2
 7910 24e4 7D       		.byte	0x7d
 7911 24e5 00       		.sleb128 0
 7912 24e6 02       		.uleb128 0x2
 7913 24e7 78       		.byte	0x78
 7914 24e8 00       		.sleb128 0
 7915 24e9 00       		.byte	0
 7916 24ea 34       		.uleb128 0x34
 7917 24eb 90030000 		.4byte	.LVL117
 7918 24ef EE3B0000 		.4byte	0x3bee
 7919 24f3 35       		.uleb128 0x35
 7920 24f4 01       		.uleb128 0x1
 7921 24f5 50       		.byte	0x50
 7922 24f6 03       		.uleb128 0x3
 7923 24f7 91       		.byte	0x91
 7924 24f8 E07E     		.sleb128 -160
 7925 24fa 35       		.uleb128 0x35
 7926 24fb 01       		.uleb128 0x1
 7927 24fc 51       		.byte	0x51
 7928 24fd 02       		.uleb128 0x2
 7929 24fe 78       		.byte	0x78
 7930 24ff 00       		.sleb128 0
 7931 2500 00       		.byte	0
 7932 2501 00       		.byte	0
 7933 2502 38       		.uleb128 0x38
 7934 2503 88010000 		.4byte	.LVL62
 7935 2507 5E3B0000 		.4byte	0x3b5e
 7936 250b 1B250000 		.4byte	0x251b
 7937 250f 35       		.uleb128 0x35
 7938 2510 01       		.uleb128 0x1
 7939 2511 50       		.byte	0x50
 7940 2512 02       		.uleb128 0x2
 7941 2513 75       		.byte	0x75
 7942 2514 00       		.sleb128 0
 7943 2515 35       		.uleb128 0x35
 7944 2516 01       		.uleb128 0x1
 7945 2517 51       		.byte	0x51
 7946 2518 01       		.uleb128 0x1
 7947 2519 30       		.byte	0x30
 7948 251a 00       		.byte	0
 7949 251b 38       		.uleb128 0x38
 7950 251c BC010000 		.4byte	.LVL67
 7951 2520 953B0000 		.4byte	0x3b95
 7952 2524 31250000 		.4byte	0x2531
 7953 2528 35       		.uleb128 0x35
 7954 2529 01       		.uleb128 0x1
 7955 252a 50       		.byte	0x50
 7956 252b 04       		.uleb128 0x4
ARM GAS  C:\Users\haske\AppData\Local\Temp\ccXBxzcA.s 			page 177


 7957 252c 91       		.byte	0x91
 7958 252d 8C7D     		.sleb128 -372
 7959 252f 06       		.byte	0x6
 7960 2530 00       		.byte	0
 7961 2531 38       		.uleb128 0x38
 7962 2532 4A020000 		.4byte	.LVL93
 7963 2536 A03B0000 		.4byte	0x3ba0
 7964 253a 4D250000 		.4byte	0x254d
 7965 253e 35       		.uleb128 0x35
 7966 253f 01       		.uleb128 0x1
 7967 2540 50       		.byte	0x50
 7968 2541 04       		.uleb128 0x4
 7969 2542 91       		.byte	0x91
 7970 2543 8C7D     		.sleb128 -372
 7971 2545 06       		.byte	0x6
 7972 2546 35       		.uleb128 0x35
 7973 2547 01       		.uleb128 0x1
 7974 2548 51       		.byte	0x51
 7975 2549 02       		.uleb128 0x2
 7976 254a 74       		.byte	0x74
 7977 254b 00       		.sleb128 0
 7978 254c 00       		.byte	0
 7979 254d 38       		.uleb128 0x38
 7980 254e B6020000 		.4byte	.LVL103
 7981 2552 B73B0000 		.4byte	0x3bb7
 7982 2556 76250000 		.4byte	0x2576
 7983 255a 35       		.uleb128 0x35
 7984 255b 01       		.uleb128 0x1
 7985 255c 50       		.byte	0x50
 7986 255d 02       		.uleb128 0x2
 7987 255e 74       		.byte	0x74
 7988 255f 00       		.sleb128 0
 7989 2560 35       		.uleb128 0x35
 7990 2561 01       		.uleb128 0x1
 7991 2562 51       		.byte	0x51
 7992 2563 04       		.uleb128 0x4
 7993 2564 91       		.byte	0x91
 7994 2565 8C7D     		.sleb128 -372
 7995 2567 06       		.byte	0x6
 7996 2568 35       		.uleb128 0x35
 7997 2569 01       		.uleb128 0x1
 7998 256a 52       		.byte	0x52
 7999 256b 03       		.uleb128 0x3
 8000 256c 0A       		.byte	0xa
 8001 256d 0001     		.2byte	0x100
 8002 256f 35       		.uleb128 0x35
 8003 2570 01       		.uleb128 0x1
 8004 2571 53       		.byte	0x53
 8005 2572 02       		.uleb128 0x2
 8006 2573 76       		.byte	0x76
 8007 2574 00       		.sleb128 0
 8008 2575 00       		.byte	0
 8009 2576 38       		.uleb128 0x38
 8010 2577 A4030000 		.4byte	.LVL120
 8011 257b 693B0000 		.4byte	0x3b69
 8012 257f 98250000 		.4byte	0x2598
 8013 2583 35       		.uleb128 0x35
ARM GAS  C:\Users\haske\AppData\Local\Temp\ccXBxzcA.s 			page 178


 8014 2584 01       		.uleb128 0x1
 8015 2585 50       		.byte	0x50
 8016 2586 04       		.uleb128 0x4
 8017 2587 91       		.byte	0x91
 8018 2588 907D     		.sleb128 -368
 8019 258a 06       		.byte	0x6
 8020 258b 35       		.uleb128 0x35
 8021 258c 01       		.uleb128 0x1
 8022 258d 51       		.byte	0x51
 8023 258e 01       		.uleb128 0x1
 8024 258f 4A       		.byte	0x4a
 8025 2590 35       		.uleb128 0x35
 8026 2591 01       		.uleb128 0x1
 8027 2592 52       		.byte	0x52
 8028 2593 03       		.uleb128 0x3
 8029 2594 91       		.byte	0x91
 8030 2595 987E     		.sleb128 -232
 8031 2597 00       		.byte	0
 8032 2598 38       		.uleb128 0x38
 8033 2599 D0030000 		.4byte	.LVL121
 8034 259d EE3B0000 		.4byte	0x3bee
 8035 25a1 AB250000 		.4byte	0x25ab
 8036 25a5 35       		.uleb128 0x35
 8037 25a6 01       		.uleb128 0x1
 8038 25a7 51       		.byte	0x51
 8039 25a8 01       		.uleb128 0x1
 8040 25a9 30       		.byte	0x30
 8041 25aa 00       		.byte	0
 8042 25ab 38       		.uleb128 0x38
 8043 25ac E0030000 		.4byte	.LVL123
 8044 25b0 F93B0000 		.4byte	0x3bf9
 8045 25b4 D4250000 		.4byte	0x25d4
 8046 25b8 35       		.uleb128 0x35
 8047 25b9 01       		.uleb128 0x1
 8048 25ba 50       		.byte	0x50
 8049 25bb 04       		.uleb128 0x4
 8050 25bc 91       		.byte	0x91
 8051 25bd A07D     		.sleb128 -352
 8052 25bf 06       		.byte	0x6
 8053 25c0 35       		.uleb128 0x35
 8054 25c1 01       		.uleb128 0x1
 8055 25c2 51       		.byte	0x51
 8056 25c3 02       		.uleb128 0x2
 8057 25c4 74       		.byte	0x74
 8058 25c5 00       		.sleb128 0
 8059 25c6 35       		.uleb128 0x35
 8060 25c7 01       		.uleb128 0x1
 8061 25c8 52       		.byte	0x52
 8062 25c9 03       		.uleb128 0x3
 8063 25ca 91       		.byte	0x91
 8064 25cb BC7D     		.sleb128 -324
 8065 25cd 35       		.uleb128 0x35
 8066 25ce 01       		.uleb128 0x1
 8067 25cf 53       		.byte	0x53
 8068 25d0 02       		.uleb128 0x2
 8069 25d1 91       		.byte	0x91
 8070 25d2 54       		.sleb128 -44
ARM GAS  C:\Users\haske\AppData\Local\Temp\ccXBxzcA.s 			page 179


 8071 25d3 00       		.byte	0
 8072 25d4 38       		.uleb128 0x38
 8073 25d5 E6030000 		.4byte	.LVL124
 8074 25d9 AB3B0000 		.4byte	0x3bab
 8075 25dd E8250000 		.4byte	0x25e8
 8076 25e1 35       		.uleb128 0x35
 8077 25e2 01       		.uleb128 0x1
 8078 25e3 50       		.byte	0x50
 8079 25e4 02       		.uleb128 0x2
 8080 25e5 76       		.byte	0x76
 8081 25e6 00       		.sleb128 0
 8082 25e7 00       		.byte	0
 8083 25e8 34       		.uleb128 0x34
 8084 25e9 F0030000 		.4byte	.LVL125
 8085 25ed 693B0000 		.4byte	0x3b69
 8086 25f1 35       		.uleb128 0x35
 8087 25f2 01       		.uleb128 0x1
 8088 25f3 50       		.byte	0x50
 8089 25f4 04       		.uleb128 0x4
 8090 25f5 91       		.byte	0x91
 8091 25f6 907D     		.sleb128 -368
 8092 25f8 06       		.byte	0x6
 8093 25f9 35       		.uleb128 0x35
 8094 25fa 01       		.uleb128 0x1
 8095 25fb 51       		.byte	0x51
 8096 25fc 01       		.uleb128 0x1
 8097 25fd 46       		.byte	0x46
 8098 25fe 35       		.uleb128 0x35
 8099 25ff 01       		.uleb128 0x1
 8100 2600 52       		.byte	0x52
 8101 2601 03       		.uleb128 0x3
 8102 2602 91       		.byte	0x91
 8103 2603 987E     		.sleb128 -232
 8104 2605 00       		.byte	0
 8105 2606 00       		.byte	0
 8106 2607 38       		.uleb128 0x38
 8107 2608 E2000000 		.4byte	.LVL54
 8108 260c 043C0000 		.4byte	0x3c04
 8109 2610 2E260000 		.4byte	0x262e
 8110 2614 35       		.uleb128 0x35
 8111 2615 01       		.uleb128 0x1
 8112 2616 50       		.byte	0x50
 8113 2617 03       		.uleb128 0x3
 8114 2618 91       		.byte	0x91
 8115 2619 907F     		.sleb128 -112
 8116 261b 35       		.uleb128 0x35
 8117 261c 01       		.uleb128 0x1
 8118 261d 51       		.byte	0x51
 8119 261e 03       		.uleb128 0x3
 8120 261f 91       		.byte	0x91
 8121 2620 C87D     		.sleb128 -312
 8122 2622 35       		.uleb128 0x35
 8123 2623 01       		.uleb128 0x1
 8124 2624 52       		.byte	0x52
 8125 2625 02       		.uleb128 0x2
 8126 2626 75       		.byte	0x75
 8127 2627 00       		.sleb128 0
ARM GAS  C:\Users\haske\AppData\Local\Temp\ccXBxzcA.s 			page 180


 8128 2628 35       		.uleb128 0x35
 8129 2629 01       		.uleb128 0x1
 8130 262a 53       		.byte	0x53
 8131 262b 01       		.uleb128 0x1
 8132 262c 31       		.byte	0x31
 8133 262d 00       		.byte	0
 8134 262e 38       		.uleb128 0x38
 8135 262f 08010000 		.4byte	.LVL55
 8136 2633 043C0000 		.4byte	0x3c04
 8137 2637 55260000 		.4byte	0x2655
 8138 263b 35       		.uleb128 0x35
 8139 263c 01       		.uleb128 0x1
 8140 263d 50       		.byte	0x50
 8141 263e 03       		.uleb128 0x3
 8142 263f 91       		.byte	0x91
 8143 2640 F87E     		.sleb128 -136
 8144 2642 35       		.uleb128 0x35
 8145 2643 01       		.uleb128 0x1
 8146 2644 51       		.byte	0x51
 8147 2645 03       		.uleb128 0x3
 8148 2646 91       		.byte	0x91
 8149 2647 D07D     		.sleb128 -304
 8150 2649 35       		.uleb128 0x35
 8151 264a 01       		.uleb128 0x1
 8152 264b 52       		.byte	0x52
 8153 264c 02       		.uleb128 0x2
 8154 264d 75       		.byte	0x75
 8155 264e 00       		.sleb128 0
 8156 264f 35       		.uleb128 0x35
 8157 2650 01       		.uleb128 0x1
 8158 2651 53       		.byte	0x53
 8159 2652 01       		.uleb128 0x1
 8160 2653 31       		.byte	0x31
 8161 2654 00       		.byte	0
 8162 2655 38       		.uleb128 0x38
 8163 2656 34010000 		.4byte	.LVL56
 8164 265a 043C0000 		.4byte	0x3c04
 8165 265e 7C260000 		.4byte	0x267c
 8166 2662 35       		.uleb128 0x35
 8167 2663 01       		.uleb128 0x1
 8168 2664 50       		.byte	0x50
 8169 2665 03       		.uleb128 0x3
 8170 2666 91       		.byte	0x91
 8171 2667 E07E     		.sleb128 -160
 8172 2669 35       		.uleb128 0x35
 8173 266a 01       		.uleb128 0x1
 8174 266b 51       		.byte	0x51
 8175 266c 03       		.uleb128 0x3
 8176 266d 91       		.byte	0x91
 8177 266e D87D     		.sleb128 -296
 8178 2670 35       		.uleb128 0x35
 8179 2671 01       		.uleb128 0x1
 8180 2672 52       		.byte	0x52
 8181 2673 02       		.uleb128 0x2
 8182 2674 75       		.byte	0x75
 8183 2675 00       		.sleb128 0
 8184 2676 35       		.uleb128 0x35
ARM GAS  C:\Users\haske\AppData\Local\Temp\ccXBxzcA.s 			page 181


 8185 2677 01       		.uleb128 0x1
 8186 2678 53       		.byte	0x53
 8187 2679 01       		.uleb128 0x1
 8188 267a 30       		.byte	0x30
 8189 267b 00       		.byte	0
 8190 267c 38       		.uleb128 0x38
 8191 267d 3C010000 		.4byte	.LVL57
 8192 2681 EE3B0000 		.4byte	0x3bee
 8193 2685 96260000 		.4byte	0x2696
 8194 2689 35       		.uleb128 0x35
 8195 268a 01       		.uleb128 0x1
 8196 268b 50       		.byte	0x50
 8197 268c 03       		.uleb128 0x3
 8198 268d 91       		.byte	0x91
 8199 268e E07E     		.sleb128 -160
 8200 2690 35       		.uleb128 0x35
 8201 2691 01       		.uleb128 0x1
 8202 2692 51       		.byte	0x51
 8203 2693 01       		.uleb128 0x1
 8204 2694 30       		.byte	0x30
 8205 2695 00       		.byte	0
 8206 2696 38       		.uleb128 0x38
 8207 2697 0C040000 		.4byte	.LVL129
 8208 269b 103C0000 		.4byte	0x3c10
 8209 269f AB260000 		.4byte	0x26ab
 8210 26a3 35       		.uleb128 0x35
 8211 26a4 01       		.uleb128 0x1
 8212 26a5 50       		.byte	0x50
 8213 26a6 03       		.uleb128 0x3
 8214 26a7 91       		.byte	0x91
 8215 26a8 907F     		.sleb128 -112
 8216 26aa 00       		.byte	0
 8217 26ab 38       		.uleb128 0x38
 8218 26ac 12040000 		.4byte	.LVL130
 8219 26b0 103C0000 		.4byte	0x3c10
 8220 26b4 C0260000 		.4byte	0x26c0
 8221 26b8 35       		.uleb128 0x35
 8222 26b9 01       		.uleb128 0x1
 8223 26ba 50       		.byte	0x50
 8224 26bb 03       		.uleb128 0x3
 8225 26bc 91       		.byte	0x91
 8226 26bd F87E     		.sleb128 -136
 8227 26bf 00       		.byte	0
 8228 26c0 38       		.uleb128 0x38
 8229 26c1 18040000 		.4byte	.LVL131
 8230 26c5 103C0000 		.4byte	0x3c10
 8231 26c9 D5260000 		.4byte	0x26d5
 8232 26cd 35       		.uleb128 0x35
 8233 26ce 01       		.uleb128 0x1
 8234 26cf 50       		.byte	0x50
 8235 26d0 03       		.uleb128 0x3
 8236 26d1 91       		.byte	0x91
 8237 26d2 E07E     		.sleb128 -160
 8238 26d4 00       		.byte	0
 8239 26d5 34       		.uleb128 0x34
 8240 26d6 1E040000 		.4byte	.LVL132
 8241 26da AB3B0000 		.4byte	0x3bab
ARM GAS  C:\Users\haske\AppData\Local\Temp\ccXBxzcA.s 			page 182


 8242 26de 35       		.uleb128 0x35
 8243 26df 01       		.uleb128 0x1
 8244 26e0 50       		.byte	0x50
 8245 26e1 05       		.uleb128 0x5
 8246 26e2 91       		.byte	0x91
 8247 26e3 A87D     		.sleb128 -344
 8248 26e5 94       		.byte	0x94
 8249 26e6 02       		.byte	0x2
 8250 26e7 00       		.byte	0
 8251 26e8 00       		.byte	0
 8252 26e9 38       		.uleb128 0x38
 8253 26ea 5C000000 		.4byte	.LVL43
 8254 26ee 1C3C0000 		.4byte	0x3c1c
 8255 26f2 FD260000 		.4byte	0x26fd
 8256 26f6 35       		.uleb128 0x35
 8257 26f7 01       		.uleb128 0x1
 8258 26f8 50       		.byte	0x50
 8259 26f9 02       		.uleb128 0x2
 8260 26fa 74       		.byte	0x74
 8261 26fb 00       		.sleb128 0
 8262 26fc 00       		.byte	0
 8263 26fd 38       		.uleb128 0x38
 8264 26fe 6C000000 		.4byte	.LVL44
 8265 2702 273C0000 		.4byte	0x3c27
 8266 2706 1D270000 		.4byte	0x271d
 8267 270a 35       		.uleb128 0x35
 8268 270b 01       		.uleb128 0x1
 8269 270c 50       		.byte	0x50
 8270 270d 02       		.uleb128 0x2
 8271 270e 76       		.byte	0x76
 8272 270f 00       		.sleb128 0
 8273 2710 35       		.uleb128 0x35
 8274 2711 01       		.uleb128 0x1
 8275 2712 51       		.byte	0x51
 8276 2713 02       		.uleb128 0x2
 8277 2714 75       		.byte	0x75
 8278 2715 00       		.sleb128 0
 8279 2716 35       		.uleb128 0x35
 8280 2717 01       		.uleb128 0x1
 8281 2718 52       		.byte	0x52
 8282 2719 02       		.uleb128 0x2
 8283 271a 74       		.byte	0x74
 8284 271b 00       		.sleb128 0
 8285 271c 00       		.byte	0
 8286 271d 38       		.uleb128 0x38
 8287 271e 7A000000 		.4byte	.LVL45
 8288 2722 323C0000 		.4byte	0x3c32
 8289 2726 32270000 		.4byte	0x2732
 8290 272a 35       		.uleb128 0x35
 8291 272b 01       		.uleb128 0x1
 8292 272c 50       		.byte	0x50
 8293 272d 03       		.uleb128 0x3
 8294 272e 91       		.byte	0x91
 8295 272f A87F     		.sleb128 -88
 8296 2731 00       		.byte	0
 8297 2732 38       		.uleb128 0x38
 8298 2733 84000000 		.4byte	.LVL46
ARM GAS  C:\Users\haske\AppData\Local\Temp\ccXBxzcA.s 			page 183


 8299 2737 3D3C0000 		.4byte	0x3c3d
 8300 273b 53270000 		.4byte	0x2753
 8301 273f 35       		.uleb128 0x35
 8302 2740 01       		.uleb128 0x1
 8303 2741 50       		.byte	0x50
 8304 2742 02       		.uleb128 0x2
 8305 2743 76       		.byte	0x76
 8306 2744 00       		.sleb128 0
 8307 2745 35       		.uleb128 0x35
 8308 2746 01       		.uleb128 0x1
 8309 2747 51       		.byte	0x51
 8310 2748 02       		.uleb128 0x2
 8311 2749 75       		.byte	0x75
 8312 274a 00       		.sleb128 0
 8313 274b 35       		.uleb128 0x35
 8314 274c 01       		.uleb128 0x1
 8315 274d 52       		.byte	0x52
 8316 274e 03       		.uleb128 0x3
 8317 274f 91       		.byte	0x91
 8318 2750 A87F     		.sleb128 -88
 8319 2752 00       		.byte	0
 8320 2753 38       		.uleb128 0x38
 8321 2754 8C000000 		.4byte	.LVL47
 8322 2758 8A3B0000 		.4byte	0x3b8a
 8323 275c 70270000 		.4byte	0x2770
 8324 2760 35       		.uleb128 0x35
 8325 2761 01       		.uleb128 0x1
 8326 2762 50       		.byte	0x50
 8327 2763 03       		.uleb128 0x3
 8328 2764 91       		.byte	0x91
 8329 2765 987E     		.sleb128 -232
 8330 2767 35       		.uleb128 0x35
 8331 2768 01       		.uleb128 0x1
 8332 2769 51       		.byte	0x51
 8333 276a 04       		.uleb128 0x4
 8334 276b 91       		.byte	0x91
 8335 276c A07D     		.sleb128 -352
 8336 276e 06       		.byte	0x6
 8337 276f 00       		.byte	0
 8338 2770 38       		.uleb128 0x38
 8339 2771 A4000000 		.4byte	.LVL48
 8340 2775 953B0000 		.4byte	0x3b95
 8341 2779 86270000 		.4byte	0x2786
 8342 277d 35       		.uleb128 0x35
 8343 277e 01       		.uleb128 0x1
 8344 277f 50       		.byte	0x50
 8345 2780 04       		.uleb128 0x4
 8346 2781 91       		.byte	0x91
 8347 2782 B47D     		.sleb128 -332
 8348 2784 06       		.byte	0x6
 8349 2785 00       		.byte	0
 8350 2786 34       		.uleb128 0x34
 8351 2787 26040000 		.4byte	.LVL133
 8352 278b A03B0000 		.4byte	0x3ba0
 8353 278f 35       		.uleb128 0x35
 8354 2790 01       		.uleb128 0x1
 8355 2791 50       		.byte	0x50
ARM GAS  C:\Users\haske\AppData\Local\Temp\ccXBxzcA.s 			page 184


 8356 2792 04       		.uleb128 0x4
 8357 2793 91       		.byte	0x91
 8358 2794 B47D     		.sleb128 -332
 8359 2796 06       		.byte	0x6
 8360 2797 35       		.uleb128 0x35
 8361 2798 01       		.uleb128 0x1
 8362 2799 51       		.byte	0x51
 8363 279a 02       		.uleb128 0x2
 8364 279b 77       		.byte	0x77
 8365 279c 00       		.sleb128 0
 8366 279d 00       		.byte	0
 8367 279e 00       		.byte	0
 8368 279f 16       		.uleb128 0x16
 8369 27a0 34010000 		.4byte	0x134
 8370 27a4 AF270000 		.4byte	0x27af
 8371 27a8 17       		.uleb128 0x17
 8372 27a9 27010000 		.4byte	0x127
 8373 27ad 0F       		.byte	0xf
 8374 27ae 00       		.byte	0
 8375 27af 39       		.uleb128 0x39
 8376 27b0 4E040000 		.4byte	.LASF541
 8377 27b4 01       		.byte	0x1
 8378 27b5 2602     		.2byte	0x226
 8379 27b7 00000000 		.4byte	.LFB219
 8380 27bb 34020000 		.4byte	.LFE219-.LFB219
 8381 27bf 01       		.uleb128 0x1
 8382 27c0 9C       		.byte	0x9c
 8383 27c1 692B0000 		.4byte	0x2b69
 8384 27c5 2C       		.uleb128 0x2c
 8385 27c6 6F626A00 		.ascii	"obj\000"
 8386 27ca 01       		.byte	0x1
 8387 27cb 2602     		.2byte	0x226
 8388 27cd 27190000 		.4byte	0x1927
 8389 27d1 C0050000 		.4byte	.LLST42
 8390 27d5 2D       		.uleb128 0x2d
 8391 27d6 E5240000 		.4byte	.LASF349
 8392 27da 01       		.byte	0x1
 8393 27db 2602     		.2byte	0x226
 8394 27dd CE120000 		.4byte	0x12ce
 8395 27e1 EB050000 		.4byte	.LLST43
 8396 27e5 2D       		.uleb128 0x2d
 8397 27e6 8B150000 		.4byte	.LASF506
 8398 27ea 01       		.byte	0x1
 8399 27eb 2602     		.2byte	0x226
 8400 27ed D50E0000 		.4byte	0xed5
 8401 27f1 2F060000 		.4byte	.LLST44
 8402 27f5 2E       		.uleb128 0x2e
 8403 27f6 51180000 		.4byte	.LASF507
 8404 27fa 01       		.byte	0x1
 8405 27fb 2802     		.2byte	0x228
 8406 27fd 65200000 		.4byte	0x2065
 8407 2801 50060000 		.4byte	.LLST45
 8408 2805 2E       		.uleb128 0x2e
 8409 2806 22050000 		.4byte	.LASF516
 8410 280a 01       		.byte	0x1
 8411 280b 2A02     		.2byte	0x22a
 8412 280d 3B010000 		.4byte	0x13b
ARM GAS  C:\Users\haske\AppData\Local\Temp\ccXBxzcA.s 			page 185


 8413 2811 7B060000 		.4byte	.LLST46
 8414 2815 2F       		.uleb128 0x2f
 8415 2816 8F190000 		.4byte	.LASF509
 8416 281a 01       		.byte	0x1
 8417 281b 2B02     		.2byte	0x22b
 8418 281d 63010000 		.4byte	0x163
 8419 2821 02       		.uleb128 0x2
 8420 2822 91       		.byte	0x91
 8421 2823 5C       		.sleb128 -36
 8422 2824 2F       		.uleb128 0x2f
 8423 2825 62090000 		.4byte	.LASF353
 8424 2829 01       		.byte	0x1
 8425 282a 2F02     		.2byte	0x22f
 8426 282c 960C0000 		.4byte	0xc96
 8427 2830 02       		.uleb128 0x2
 8428 2831 91       		.byte	0x91
 8429 2832 50       		.sleb128 -48
 8430 2833 2F       		.uleb128 0x2f
 8431 2834 35100000 		.4byte	.LASF354
 8432 2838 01       		.byte	0x1
 8433 2839 3302     		.2byte	0x233
 8434 283b 0A0C0000 		.4byte	0xc0a
 8435 283f 03       		.uleb128 0x3
 8436 2840 91       		.byte	0x91
 8437 2841 B87F     		.sleb128 -72
 8438 2843 28       		.uleb128 0x28
 8439 2844 09040000 		.4byte	.LASF510
 8440 2848 01       		.byte	0x1
 8441 2849 3602     		.2byte	0x236
 8442 284b F3030000 		.4byte	0x3f3
 8443 284f 2F       		.uleb128 0x2f
 8444 2850 74210000 		.4byte	.LASF512
 8445 2854 01       		.byte	0x1
 8446 2855 3802     		.2byte	0x238
 8447 2857 DD150000 		.4byte	0x15dd
 8448 285b 03       		.uleb128 0x3
 8449 285c 91       		.byte	0x91
 8450 285d F07E     		.sleb128 -144
 8451 285f 2E       		.uleb128 0x2e
 8452 2860 22080000 		.4byte	.LASF511
 8453 2864 01       		.byte	0x1
 8454 2865 3D02     		.2byte	0x23d
 8455 2867 6B200000 		.4byte	0x206b
 8456 286b 99060000 		.4byte	.LLST47
 8457 286f 30       		.uleb128 0x30
 8458 2870 711C0000 		.4byte	0x1c71
 8459 2874 14000000 		.4byte	.LBB66
 8460 2878 0C000000 		.4byte	.LBE66-.LBB66
 8461 287c 01       		.byte	0x1
 8462 287d 2A02     		.2byte	0x22a
 8463 287f 8D280000 		.4byte	0x288d
 8464 2883 31       		.uleb128 0x31
 8465 2884 811C0000 		.4byte	0x1c81
 8466 2888 D8060000 		.4byte	.LLST48
 8467 288c 00       		.byte	0
 8468 288d 30       		.uleb128 0x30
 8469 288e 321C0000 		.4byte	0x1c32
ARM GAS  C:\Users\haske\AppData\Local\Temp\ccXBxzcA.s 			page 186


 8470 2892 5C000000 		.4byte	.LBB68
 8471 2896 14000000 		.4byte	.LBE68-.LBB68
 8472 289a 01       		.byte	0x1
 8473 289b 3602     		.2byte	0x236
 8474 289d DE280000 		.4byte	0x28de
 8475 28a1 31       		.uleb128 0x31
 8476 28a2 4F1C0000 		.4byte	0x1c4f
 8477 28a6 EB060000 		.4byte	.LLST49
 8478 28aa 31       		.uleb128 0x31
 8479 28ab 431C0000 		.4byte	0x1c43
 8480 28af FF060000 		.4byte	.LLST50
 8481 28b3 32       		.uleb128 0x32
 8482 28b4 5C000000 		.4byte	.LBB69
 8483 28b8 14000000 		.4byte	.LBE69-.LBB69
 8484 28bc 36       		.uleb128 0x36
 8485 28bd 5B1C0000 		.4byte	0x1c5b
 8486 28c1 34       		.uleb128 0x34
 8487 28c2 66000000 		.4byte	.LVL146
 8488 28c6 533B0000 		.4byte	0x3b53
 8489 28ca 35       		.uleb128 0x35
 8490 28cb 01       		.uleb128 0x1
 8491 28cc 50       		.byte	0x50
 8492 28cd 02       		.uleb128 0x2
 8493 28ce 74       		.byte	0x74
 8494 28cf 00       		.sleb128 0
 8495 28d0 35       		.uleb128 0x35
 8496 28d1 01       		.uleb128 0x1
 8497 28d2 51       		.byte	0x51
 8498 28d3 01       		.uleb128 0x1
 8499 28d4 30       		.byte	0x30
 8500 28d5 35       		.uleb128 0x35
 8501 28d6 01       		.uleb128 0x1
 8502 28d7 52       		.byte	0x52
 8503 28d8 02       		.uleb128 0x2
 8504 28d9 08       		.byte	0x8
 8505 28da 60       		.byte	0x60
 8506 28db 00       		.byte	0
 8507 28dc 00       		.byte	0
 8508 28dd 00       		.byte	0
 8509 28de 37       		.uleb128 0x37
 8510 28df 8E000000 		.4byte	.LBB70
 8511 28e3 7C010000 		.4byte	.LBE70-.LBB70
 8512 28e7 B52A0000 		.4byte	0x2ab5
 8513 28eb 2E       		.uleb128 0x2e
 8514 28ec B61E0000 		.4byte	.LASF484
 8515 28f0 01       		.byte	0x1
 8516 28f1 3F02     		.2byte	0x23f
 8517 28f3 C41B0000 		.4byte	0x1bc4
 8518 28f7 12070000 		.4byte	.LLST51
 8519 28fb 37       		.uleb128 0x37
 8520 28fc 98000000 		.4byte	.LBB71
 8521 2900 AC000000 		.4byte	.LBE71-.LBB71
 8522 2904 F4290000 		.4byte	0x29f4
 8523 2908 2E       		.uleb128 0x2e
 8524 2909 B3010000 		.4byte	.LASF248
 8525 290d 01       		.byte	0x1
 8526 290e 4302     		.2byte	0x243
ARM GAS  C:\Users\haske\AppData\Local\Temp\ccXBxzcA.s 			page 187


 8527 2910 D9000000 		.4byte	0xd9
 8528 2914 30070000 		.4byte	.LLST52
 8529 2918 2E       		.uleb128 0x2e
 8530 2919 58130000 		.4byte	.LASF508
 8531 291d 01       		.byte	0x1
 8532 291e 4402     		.2byte	0x244
 8533 2920 3B010000 		.4byte	0x13b
 8534 2924 5C070000 		.4byte	.LLST53
 8535 2928 2F       		.uleb128 0x2f
 8536 2929 CF0C0000 		.4byte	.LASF542
 8537 292d 01       		.byte	0x1
 8538 292e 4502     		.2byte	0x245
 8539 2930 63010000 		.4byte	0x163
 8540 2934 03       		.uleb128 0x3
 8541 2935 91       		.byte	0x91
 8542 2936 E87E     		.sleb128 -152
 8543 2938 30       		.uleb128 0x30
 8544 2939 3F1D0000 		.4byte	0x1d3f
 8545 293d DA000000 		.4byte	.LBB72
 8546 2941 08000000 		.4byte	.LBE72-.LBB72
 8547 2945 01       		.byte	0x1
 8548 2946 4702     		.2byte	0x247
 8549 2948 66290000 		.4byte	0x2966
 8550 294c 31       		.uleb128 0x31
 8551 294d 4F1D0000 		.4byte	0x1d4f
 8552 2951 6F070000 		.4byte	.LLST54
 8553 2955 34       		.uleb128 0x34
 8554 2956 E2000000 		.4byte	.LVL162
 8555 295a 483C0000 		.4byte	0x3c48
 8556 295e 35       		.uleb128 0x35
 8557 295f 01       		.uleb128 0x1
 8558 2960 50       		.byte	0x50
 8559 2961 02       		.uleb128 0x2
 8560 2962 76       		.byte	0x76
 8561 2963 00       		.sleb128 0
 8562 2964 00       		.byte	0
 8563 2965 00       		.byte	0
 8564 2966 38       		.uleb128 0x38
 8565 2967 AC000000 		.4byte	.LVL153
 8566 296b 5E3B0000 		.4byte	0x3b5e
 8567 296f 7B290000 		.4byte	0x297b
 8568 2973 35       		.uleb128 0x35
 8569 2974 02       		.uleb128 0x2
 8570 2975 7D       		.byte	0x7d
 8571 2976 00       		.sleb128 0
 8572 2977 02       		.uleb128 0x2
 8573 2978 76       		.byte	0x76
 8574 2979 00       		.sleb128 0
 8575 297a 00       		.byte	0
 8576 297b 38       		.uleb128 0x38
 8577 297c C4000000 		.4byte	.LVL157
 8578 2980 483C0000 		.4byte	0x3c48
 8579 2984 8F290000 		.4byte	0x298f
 8580 2988 35       		.uleb128 0x35
 8581 2989 01       		.uleb128 0x1
 8582 298a 50       		.byte	0x50
 8583 298b 02       		.uleb128 0x2
ARM GAS  C:\Users\haske\AppData\Local\Temp\ccXBxzcA.s 			page 188


 8584 298c 76       		.byte	0x76
 8585 298d 00       		.sleb128 0
 8586 298e 00       		.byte	0
 8587 298f 38       		.uleb128 0x38
 8588 2990 2E010000 		.4byte	.LVL165
 8589 2994 693B0000 		.4byte	0x3b69
 8590 2998 AF290000 		.4byte	0x29af
 8591 299c 35       		.uleb128 0x35
 8592 299d 01       		.uleb128 0x1
 8593 299e 50       		.byte	0x50
 8594 299f 02       		.uleb128 0x2
 8595 29a0 77       		.byte	0x77
 8596 29a1 00       		.sleb128 0
 8597 29a2 35       		.uleb128 0x35
 8598 29a3 01       		.uleb128 0x1
 8599 29a4 51       		.byte	0x51
 8600 29a5 01       		.uleb128 0x1
 8601 29a6 4A       		.byte	0x4a
 8602 29a7 35       		.uleb128 0x35
 8603 29a8 01       		.uleb128 0x1
 8604 29a9 52       		.byte	0x52
 8605 29aa 03       		.uleb128 0x3
 8606 29ab 91       		.byte	0x91
 8607 29ac F07E     		.sleb128 -144
 8608 29ae 00       		.byte	0
 8609 29af 38       		.uleb128 0x38
 8610 29b0 3A010000 		.4byte	.LVL166
 8611 29b4 F93B0000 		.4byte	0x3bf9
 8612 29b8 D7290000 		.4byte	0x29d7
 8613 29bc 35       		.uleb128 0x35
 8614 29bd 01       		.uleb128 0x1
 8615 29be 50       		.byte	0x50
 8616 29bf 04       		.uleb128 0x4
 8617 29c0 91       		.byte	0x91
 8618 29c1 D87E     		.sleb128 -168
 8619 29c3 06       		.byte	0x6
 8620 29c4 35       		.uleb128 0x35
 8621 29c5 01       		.uleb128 0x1
 8622 29c6 51       		.byte	0x51
 8623 29c7 02       		.uleb128 0x2
 8624 29c8 74       		.byte	0x74
 8625 29c9 00       		.sleb128 0
 8626 29ca 35       		.uleb128 0x35
 8627 29cb 01       		.uleb128 0x1
 8628 29cc 52       		.byte	0x52
 8629 29cd 02       		.uleb128 0x2
 8630 29ce 91       		.byte	0x91
 8631 29cf 5C       		.sleb128 -36
 8632 29d0 35       		.uleb128 0x35
 8633 29d1 01       		.uleb128 0x1
 8634 29d2 53       		.byte	0x53
 8635 29d3 02       		.uleb128 0x2
 8636 29d4 76       		.byte	0x76
 8637 29d5 00       		.sleb128 0
 8638 29d6 00       		.byte	0
 8639 29d7 34       		.uleb128 0x34
 8640 29d8 44010000 		.4byte	.LVL167
ARM GAS  C:\Users\haske\AppData\Local\Temp\ccXBxzcA.s 			page 189


 8641 29dc 693B0000 		.4byte	0x3b69
 8642 29e0 35       		.uleb128 0x35
 8643 29e1 01       		.uleb128 0x1
 8644 29e2 50       		.byte	0x50
 8645 29e3 02       		.uleb128 0x2
 8646 29e4 77       		.byte	0x77
 8647 29e5 00       		.sleb128 0
 8648 29e6 35       		.uleb128 0x35
 8649 29e7 01       		.uleb128 0x1
 8650 29e8 51       		.byte	0x51
 8651 29e9 01       		.uleb128 0x1
 8652 29ea 4B       		.byte	0x4b
 8653 29eb 35       		.uleb128 0x35
 8654 29ec 01       		.uleb128 0x1
 8655 29ed 52       		.byte	0x52
 8656 29ee 03       		.uleb128 0x3
 8657 29ef 91       		.byte	0x91
 8658 29f0 F07E     		.sleb128 -144
 8659 29f2 00       		.byte	0
 8660 29f3 00       		.byte	0
 8661 29f4 32       		.uleb128 0x32
 8662 29f5 4A010000 		.4byte	.LBB74
 8663 29f9 C0000000 		.4byte	.LBE74-.LBB74
 8664 29fd 2E       		.uleb128 0x2e
 8665 29fe B3010000 		.4byte	.LASF248
 8666 2a02 01       		.byte	0x1
 8667 2a03 5702     		.2byte	0x257
 8668 2a05 D9000000 		.4byte	0xd9
 8669 2a09 82070000 		.4byte	.LLST55
 8670 2a0d 2F       		.uleb128 0x2f
 8671 2a0e C5080000 		.4byte	.LASF543
 8672 2a12 01       		.byte	0x1
 8673 2a13 5802     		.2byte	0x258
 8674 2a15 7A080000 		.4byte	0x87a
 8675 2a19 03       		.uleb128 0x3
 8676 2a1a 91       		.byte	0x91
 8677 2a1b E47E     		.sleb128 -156
 8678 2a1d 3C       		.uleb128 0x3c
 8679 2a1e 6100     		.ascii	"a\000"
 8680 2a20 01       		.byte	0x1
 8681 2a21 5A02     		.2byte	0x25a
 8682 2a23 A3010000 		.4byte	0x1a3
 8683 2a27 03       		.uleb128 0x3
 8684 2a28 91       		.byte	0x91
 8685 2a29 E87E     		.sleb128 -152
 8686 2a2b 38       		.uleb128 0x38
 8687 2a2c 64010000 		.4byte	.LVL171
 8688 2a30 5E3B0000 		.4byte	0x3b5e
 8689 2a34 402A0000 		.4byte	0x2a40
 8690 2a38 35       		.uleb128 0x35
 8691 2a39 02       		.uleb128 0x2
 8692 2a3a 7D       		.byte	0x7d
 8693 2a3b 00       		.sleb128 0
 8694 2a3c 02       		.uleb128 0x2
 8695 2a3d 74       		.byte	0x74
 8696 2a3e 00       		.sleb128 0
 8697 2a3f 00       		.byte	0
ARM GAS  C:\Users\haske\AppData\Local\Temp\ccXBxzcA.s 			page 190


 8698 2a40 38       		.uleb128 0x38
 8699 2a41 6E010000 		.4byte	.LVL174
 8700 2a45 533C0000 		.4byte	0x3c53
 8701 2a49 552A0000 		.4byte	0x2a55
 8702 2a4d 35       		.uleb128 0x35
 8703 2a4e 01       		.uleb128 0x1
 8704 2a4f 51       		.byte	0x51
 8705 2a50 03       		.uleb128 0x3
 8706 2a51 91       		.byte	0x91
 8707 2a52 E47E     		.sleb128 -156
 8708 2a54 00       		.byte	0
 8709 2a55 38       		.uleb128 0x38
 8710 2a56 F4010000 		.4byte	.LVL180
 8711 2a5a 693B0000 		.4byte	0x3b69
 8712 2a5e 752A0000 		.4byte	0x2a75
 8713 2a62 35       		.uleb128 0x35
 8714 2a63 01       		.uleb128 0x1
 8715 2a64 50       		.byte	0x50
 8716 2a65 02       		.uleb128 0x2
 8717 2a66 76       		.byte	0x76
 8718 2a67 00       		.sleb128 0
 8719 2a68 35       		.uleb128 0x35
 8720 2a69 01       		.uleb128 0x1
 8721 2a6a 51       		.byte	0x51
 8722 2a6b 01       		.uleb128 0x1
 8723 2a6c 4A       		.byte	0x4a
 8724 2a6d 35       		.uleb128 0x35
 8725 2a6e 01       		.uleb128 0x1
 8726 2a6f 52       		.byte	0x52
 8727 2a70 03       		.uleb128 0x3
 8728 2a71 91       		.byte	0x91
 8729 2a72 F07E     		.sleb128 -144
 8730 2a74 00       		.byte	0
 8731 2a75 38       		.uleb128 0x38
 8732 2a76 00020000 		.4byte	.LVL181
 8733 2a7a 5E3C0000 		.4byte	0x3c5e
 8734 2a7e 972A0000 		.4byte	0x2a97
 8735 2a82 35       		.uleb128 0x35
 8736 2a83 01       		.uleb128 0x1
 8737 2a84 50       		.byte	0x50
 8738 2a85 03       		.uleb128 0x3
 8739 2a86 77       		.byte	0x77
 8740 2a87 00       		.sleb128 0
 8741 2a88 06       		.byte	0x6
 8742 2a89 35       		.uleb128 0x35
 8743 2a8a 01       		.uleb128 0x1
 8744 2a8b 51       		.byte	0x51
 8745 2a8c 02       		.uleb128 0x2
 8746 2a8d 74       		.byte	0x74
 8747 2a8e 00       		.sleb128 0
 8748 2a8f 35       		.uleb128 0x35
 8749 2a90 01       		.uleb128 0x1
 8750 2a91 52       		.byte	0x52
 8751 2a92 03       		.uleb128 0x3
 8752 2a93 91       		.byte	0x91
 8753 2a94 E87E     		.sleb128 -152
 8754 2a96 00       		.byte	0
ARM GAS  C:\Users\haske\AppData\Local\Temp\ccXBxzcA.s 			page 191


 8755 2a97 34       		.uleb128 0x34
 8756 2a98 0A020000 		.4byte	.LVL182
 8757 2a9c 693B0000 		.4byte	0x3b69
 8758 2aa0 35       		.uleb128 0x35
 8759 2aa1 01       		.uleb128 0x1
 8760 2aa2 50       		.byte	0x50
 8761 2aa3 02       		.uleb128 0x2
 8762 2aa4 76       		.byte	0x76
 8763 2aa5 00       		.sleb128 0
 8764 2aa6 35       		.uleb128 0x35
 8765 2aa7 01       		.uleb128 0x1
 8766 2aa8 51       		.byte	0x51
 8767 2aa9 01       		.uleb128 0x1
 8768 2aaa 4B       		.byte	0x4b
 8769 2aab 35       		.uleb128 0x35
 8770 2aac 01       		.uleb128 0x1
 8771 2aad 52       		.byte	0x52
 8772 2aae 03       		.uleb128 0x3
 8773 2aaf 91       		.byte	0x91
 8774 2ab0 F07E     		.sleb128 -144
 8775 2ab2 00       		.byte	0
 8776 2ab3 00       		.byte	0
 8777 2ab4 00       		.byte	0
 8778 2ab5 38       		.uleb128 0x38
 8779 2ab6 3E000000 		.4byte	.LVL142
 8780 2aba 1C3C0000 		.4byte	0x3c1c
 8781 2abe C92A0000 		.4byte	0x2ac9
 8782 2ac2 35       		.uleb128 0x35
 8783 2ac3 01       		.uleb128 0x1
 8784 2ac4 50       		.byte	0x50
 8785 2ac5 02       		.uleb128 0x2
 8786 2ac6 91       		.byte	0x91
 8787 2ac7 50       		.sleb128 -48
 8788 2ac8 00       		.byte	0
 8789 2ac9 38       		.uleb128 0x38
 8790 2aca 4C000000 		.4byte	.LVL143
 8791 2ace 273C0000 		.4byte	0x3c27
 8792 2ad2 E92A0000 		.4byte	0x2ae9
 8793 2ad6 35       		.uleb128 0x35
 8794 2ad7 01       		.uleb128 0x1
 8795 2ad8 50       		.byte	0x50
 8796 2ad9 02       		.uleb128 0x2
 8797 2ada 74       		.byte	0x74
 8798 2adb 00       		.sleb128 0
 8799 2adc 35       		.uleb128 0x35
 8800 2add 01       		.uleb128 0x1
 8801 2ade 51       		.byte	0x51
 8802 2adf 02       		.uleb128 0x2
 8803 2ae0 76       		.byte	0x76
 8804 2ae1 00       		.sleb128 0
 8805 2ae2 35       		.uleb128 0x35
 8806 2ae3 01       		.uleb128 0x1
 8807 2ae4 52       		.byte	0x52
 8808 2ae5 02       		.uleb128 0x2
 8809 2ae6 91       		.byte	0x91
 8810 2ae7 50       		.sleb128 -48
 8811 2ae8 00       		.byte	0
ARM GAS  C:\Users\haske\AppData\Local\Temp\ccXBxzcA.s 			page 192


 8812 2ae9 38       		.uleb128 0x38
 8813 2aea 52000000 		.4byte	.LVL144
 8814 2aee 693C0000 		.4byte	0x3c69
 8815 2af2 FE2A0000 		.4byte	0x2afe
 8816 2af6 35       		.uleb128 0x35
 8817 2af7 01       		.uleb128 0x1
 8818 2af8 50       		.byte	0x50
 8819 2af9 03       		.uleb128 0x3
 8820 2afa 91       		.byte	0x91
 8821 2afb B87F     		.sleb128 -72
 8822 2afd 00       		.byte	0
 8823 2afe 38       		.uleb128 0x38
 8824 2aff 5C000000 		.4byte	.LVL145
 8825 2b03 743C0000 		.4byte	0x3c74
 8826 2b07 1F2B0000 		.4byte	0x2b1f
 8827 2b0b 35       		.uleb128 0x35
 8828 2b0c 01       		.uleb128 0x1
 8829 2b0d 50       		.byte	0x50
 8830 2b0e 02       		.uleb128 0x2
 8831 2b0f 74       		.byte	0x74
 8832 2b10 00       		.sleb128 0
 8833 2b11 35       		.uleb128 0x35
 8834 2b12 01       		.uleb128 0x1
 8835 2b13 51       		.byte	0x51
 8836 2b14 02       		.uleb128 0x2
 8837 2b15 76       		.byte	0x76
 8838 2b16 00       		.sleb128 0
 8839 2b17 35       		.uleb128 0x35
 8840 2b18 01       		.uleb128 0x1
 8841 2b19 52       		.byte	0x52
 8842 2b1a 03       		.uleb128 0x3
 8843 2b1b 91       		.byte	0x91
 8844 2b1c B87F     		.sleb128 -72
 8845 2b1e 00       		.byte	0
 8846 2b1f 38       		.uleb128 0x38
 8847 2b20 78000000 		.4byte	.LVL148
 8848 2b24 8A3B0000 		.4byte	0x3b8a
 8849 2b28 3A2B0000 		.4byte	0x2b3a
 8850 2b2c 35       		.uleb128 0x35
 8851 2b2d 01       		.uleb128 0x1
 8852 2b2e 50       		.byte	0x50
 8853 2b2f 03       		.uleb128 0x3
 8854 2b30 91       		.byte	0x91
 8855 2b31 F07E     		.sleb128 -144
 8856 2b33 35       		.uleb128 0x35
 8857 2b34 01       		.uleb128 0x1
 8858 2b35 51       		.byte	0x51
 8859 2b36 02       		.uleb128 0x2
 8860 2b37 77       		.byte	0x77
 8861 2b38 00       		.sleb128 0
 8862 2b39 00       		.byte	0
 8863 2b3a 38       		.uleb128 0x38
 8864 2b3b 8A000000 		.4byte	.LVL149
 8865 2b3f 953B0000 		.4byte	0x3b95
 8866 2b43 502B0000 		.4byte	0x2b50
 8867 2b47 35       		.uleb128 0x35
 8868 2b48 01       		.uleb128 0x1
ARM GAS  C:\Users\haske\AppData\Local\Temp\ccXBxzcA.s 			page 193


 8869 2b49 50       		.byte	0x50
 8870 2b4a 04       		.uleb128 0x4
 8871 2b4b 91       		.byte	0x91
 8872 2b4c D07E     		.sleb128 -176
 8873 2b4e 06       		.byte	0x6
 8874 2b4f 00       		.byte	0
 8875 2b50 34       		.uleb128 0x34
 8876 2b51 12020000 		.4byte	.LVL183
 8877 2b55 A03B0000 		.4byte	0x3ba0
 8878 2b59 35       		.uleb128 0x35
 8879 2b5a 01       		.uleb128 0x1
 8880 2b5b 50       		.byte	0x50
 8881 2b5c 04       		.uleb128 0x4
 8882 2b5d 91       		.byte	0x91
 8883 2b5e D07E     		.sleb128 -176
 8884 2b60 06       		.byte	0x6
 8885 2b61 35       		.uleb128 0x35
 8886 2b62 01       		.uleb128 0x1
 8887 2b63 51       		.byte	0x51
 8888 2b64 02       		.uleb128 0x2
 8889 2b65 75       		.byte	0x75
 8890 2b66 00       		.sleb128 0
 8891 2b67 00       		.byte	0
 8892 2b68 00       		.byte	0
 8893 2b69 2B       		.uleb128 0x2b
 8894 2b6a EE1F0000 		.4byte	.LASF544
 8895 2b6e 01       		.byte	0x1
 8896 2b6f 2101     		.2byte	0x121
 8897 2b71 00000000 		.4byte	.LFB216
 8898 2b75 EC000000 		.4byte	.LFE216-.LFB216
 8899 2b79 01       		.uleb128 0x1
 8900 2b7a 9C       		.byte	0x9c
 8901 2b7b 3C2E0000 		.4byte	0x2e3c
 8902 2b7f 2D       		.uleb128 0x2d
 8903 2b80 E9180000 		.4byte	.LASF196
 8904 2b84 01       		.byte	0x1
 8905 2b85 2101     		.2byte	0x121
 8906 2b87 05190000 		.4byte	0x1905
 8907 2b8b B6070000 		.4byte	.LLST56
 8908 2b8f 2C       		.uleb128 0x2c
 8909 2b90 6500     		.ascii	"e\000"
 8910 2b92 01       		.byte	0x1
 8911 2b93 2101     		.2byte	0x121
 8912 2b95 E4170000 		.4byte	0x17e4
 8913 2b99 D7070000 		.4byte	.LLST57
 8914 2b9d 3A       		.uleb128 0x3a
 8915 2b9e 72657300 		.ascii	"res\000"
 8916 2ba2 01       		.byte	0x1
 8917 2ba3 2501     		.2byte	0x125
 8918 2ba5 08010000 		.4byte	0x108
 8919 2ba9 03080000 		.4byte	.LLST58
 8920 2bad 2E       		.uleb128 0x2e
 8921 2bae BB0E0000 		.4byte	.LASF374
 8922 2bb2 01       		.byte	0x1
 8923 2bb3 2801     		.2byte	0x128
 8924 2bb5 CE170000 		.4byte	0x17ce
 8925 2bb9 16080000 		.4byte	.LLST59
ARM GAS  C:\Users\haske\AppData\Local\Temp\ccXBxzcA.s 			page 194


 8926 2bbd 3A       		.uleb128 0x3a
 8927 2bbe 6F626A00 		.ascii	"obj\000"
 8928 2bc2 01       		.byte	0x1
 8929 2bc3 2901     		.2byte	0x129
 8930 2bc5 27190000 		.4byte	0x1927
 8931 2bc9 29080000 		.4byte	.LLST60
 8932 2bcd 37       		.uleb128 0x37
 8933 2bce 28000000 		.4byte	.LBB75
 8934 2bd2 B6000000 		.4byte	.LBE75-.LBB75
 8935 2bd6 FA2D0000 		.4byte	0x2dfa
 8936 2bda 2E       		.uleb128 0x2e
 8937 2bdb E5240000 		.4byte	.LASF349
 8938 2bdf 01       		.byte	0x1
 8939 2be0 2B01     		.2byte	0x12b
 8940 2be2 CE120000 		.4byte	0x12ce
 8941 2be6 47080000 		.4byte	.LLST61
 8942 2bea 2F       		.uleb128 0x2f
 8943 2beb 8B150000 		.4byte	.LASF506
 8944 2bef 01       		.byte	0x1
 8945 2bf0 2C01     		.2byte	0x12c
 8946 2bf2 A3010000 		.4byte	0x1a3
 8947 2bf6 03       		.uleb128 0x3
 8948 2bf7 91       		.byte	0x91
 8949 2bf8 A07F     		.sleb128 -96
 8950 2bfa 2E       		.uleb128 0x2e
 8951 2bfb 22050000 		.4byte	.LASF516
 8952 2bff 01       		.byte	0x1
 8953 2c00 3301     		.2byte	0x133
 8954 2c02 3B010000 		.4byte	0x13b
 8955 2c06 71080000 		.4byte	.LLST62
 8956 2c0a 28       		.uleb128 0x28
 8957 2c0b 8F190000 		.4byte	.LASF509
 8958 2c0f 01       		.byte	0x1
 8959 2c10 3401     		.2byte	0x134
 8960 2c12 63010000 		.4byte	0x163
 8961 2c16 2F       		.uleb128 0x2f
 8962 2c17 36260000 		.4byte	.LASF545
 8963 2c1b 01       		.byte	0x1
 8964 2c1c 3801     		.2byte	0x138
 8965 2c1e 9F0A0000 		.4byte	0xa9f
 8966 2c22 03       		.uleb128 0x3
 8967 2c23 91       		.byte	0x91
 8968 2c24 B07F     		.sleb128 -80
 8969 2c26 3A       		.uleb128 0x3a
 8970 2c27 7700     		.ascii	"w\000"
 8971 2c29 01       		.byte	0x1
 8972 2c2a 3B01     		.2byte	0x13b
 8973 2c2c 3B010000 		.4byte	0x13b
 8974 2c30 C6080000 		.4byte	.LLST63
 8975 2c34 3A       		.uleb128 0x3a
 8976 2c35 6800     		.ascii	"h\000"
 8977 2c37 01       		.byte	0x1
 8978 2c38 3C01     		.2byte	0x13c
 8979 2c3a 3B010000 		.4byte	0x13b
 8980 2c3e D9080000 		.4byte	.LLST64
 8981 2c42 2F       		.uleb128 0x2f
 8982 2c43 BB100000 		.4byte	.LASF546
ARM GAS  C:\Users\haske\AppData\Local\Temp\ccXBxzcA.s 			page 195


 8983 2c47 01       		.byte	0x1
 8984 2c48 3D01     		.2byte	0x13d
 8985 2c4a A3010000 		.4byte	0x1a3
 8986 2c4e 03       		.uleb128 0x3
 8987 2c4f 91       		.byte	0x91
 8988 2c50 A87F     		.sleb128 -88
 8989 2c52 30       		.uleb128 0x30
 8990 2c53 711C0000 		.4byte	0x1c71
 8991 2c57 58000000 		.4byte	.LBB76
 8992 2c5b 10000000 		.4byte	.LBE76-.LBB76
 8993 2c5f 01       		.byte	0x1
 8994 2c60 3301     		.2byte	0x133
 8995 2c62 702C0000 		.4byte	0x2c70
 8996 2c66 31       		.uleb128 0x31
 8997 2c67 811C0000 		.4byte	0x1c81
 8998 2c6b F7080000 		.4byte	.LLST65
 8999 2c6f 00       		.byte	0
 9000 2c70 30       		.uleb128 0x30
 9001 2c71 8B1D0000 		.4byte	0x1d8b
 9002 2c75 94000000 		.4byte	.LBB78
 9003 2c79 0C000000 		.4byte	.LBE78-.LBB78
 9004 2c7d 01       		.byte	0x1
 9005 2c7e 3B01     		.2byte	0x13b
 9006 2c80 C12C0000 		.4byte	0x2cc1
 9007 2c84 31       		.uleb128 0x31
 9008 2c85 A61D0000 		.4byte	0x1da6
 9009 2c89 31090000 		.4byte	.LLST66
 9010 2c8d 31       		.uleb128 0x31
 9011 2c8e 9B1D0000 		.4byte	0x1d9b
 9012 2c92 47090000 		.4byte	.LLST67
 9013 2c96 32       		.uleb128 0x32
 9014 2c97 94000000 		.4byte	.LBB79
 9015 2c9b 0C000000 		.4byte	.LBE79-.LBB79
 9016 2c9f 36       		.uleb128 0x36
 9017 2ca0 B11D0000 		.4byte	0x1db1
 9018 2ca4 34       		.uleb128 0x34
 9019 2ca5 9E000000 		.4byte	.LVL212
 9020 2ca9 533B0000 		.4byte	0x3b53
 9021 2cad 35       		.uleb128 0x35
 9022 2cae 01       		.uleb128 0x1
 9023 2caf 50       		.byte	0x50
 9024 2cb0 02       		.uleb128 0x2
 9025 2cb1 75       		.byte	0x75
 9026 2cb2 00       		.sleb128 0
 9027 2cb3 35       		.uleb128 0x35
 9028 2cb4 01       		.uleb128 0x1
 9029 2cb5 51       		.byte	0x51
 9030 2cb6 02       		.uleb128 0x2
 9031 2cb7 77       		.byte	0x77
 9032 2cb8 00       		.sleb128 0
 9033 2cb9 35       		.uleb128 0x35
 9034 2cba 01       		.uleb128 0x1
 9035 2cbb 52       		.byte	0x52
 9036 2cbc 01       		.uleb128 0x1
 9037 2cbd 31       		.byte	0x31
 9038 2cbe 00       		.byte	0
 9039 2cbf 00       		.byte	0
ARM GAS  C:\Users\haske\AppData\Local\Temp\ccXBxzcA.s 			page 196


 9040 2cc0 00       		.byte	0
 9041 2cc1 30       		.uleb128 0x30
 9042 2cc2 5B1D0000 		.4byte	0x1d5b
 9043 2cc6 A8000000 		.4byte	.LBB80
 9044 2cca 0C000000 		.4byte	.LBE80-.LBB80
 9045 2cce 01       		.byte	0x1
 9046 2ccf 3C01     		.2byte	0x13c
 9047 2cd1 122D0000 		.4byte	0x2d12
 9048 2cd5 31       		.uleb128 0x31
 9049 2cd6 761D0000 		.4byte	0x1d76
 9050 2cda 5A090000 		.4byte	.LLST68
 9051 2cde 31       		.uleb128 0x31
 9052 2cdf 6B1D0000 		.4byte	0x1d6b
 9053 2ce3 70090000 		.4byte	.LLST69
 9054 2ce7 32       		.uleb128 0x32
 9055 2ce8 A8000000 		.4byte	.LBB81
 9056 2cec 0C000000 		.4byte	.LBE81-.LBB81
 9057 2cf0 36       		.uleb128 0x36
 9058 2cf1 811D0000 		.4byte	0x1d81
 9059 2cf5 34       		.uleb128 0x34
 9060 2cf6 B2000000 		.4byte	.LVL215
 9061 2cfa 533B0000 		.4byte	0x3b53
 9062 2cfe 35       		.uleb128 0x35
 9063 2cff 01       		.uleb128 0x1
 9064 2d00 50       		.byte	0x50
 9065 2d01 02       		.uleb128 0x2
 9066 2d02 75       		.byte	0x75
 9067 2d03 00       		.sleb128 0
 9068 2d04 35       		.uleb128 0x35
 9069 2d05 01       		.uleb128 0x1
 9070 2d06 51       		.byte	0x51
 9071 2d07 02       		.uleb128 0x2
 9072 2d08 77       		.byte	0x77
 9073 2d09 00       		.sleb128 0
 9074 2d0a 35       		.uleb128 0x35
 9075 2d0b 01       		.uleb128 0x1
 9076 2d0c 52       		.byte	0x52
 9077 2d0d 01       		.uleb128 0x1
 9078 2d0e 34       		.byte	0x34
 9079 2d0f 00       		.byte	0
 9080 2d10 00       		.byte	0
 9081 2d11 00       		.byte	0
 9082 2d12 38       		.uleb128 0x38
 9083 2d13 2E000000 		.4byte	.LVL195
 9084 2d17 7F3C0000 		.4byte	0x3c7f
 9085 2d1b 262D0000 		.4byte	0x2d26
 9086 2d1f 35       		.uleb128 0x35
 9087 2d20 01       		.uleb128 0x1
 9088 2d21 50       		.byte	0x50
 9089 2d22 02       		.uleb128 0x2
 9090 2d23 74       		.byte	0x74
 9091 2d24 00       		.sleb128 0
 9092 2d25 00       		.byte	0
 9093 2d26 38       		.uleb128 0x38
 9094 2d27 38000000 		.4byte	.LVL198
 9095 2d2b 8B3C0000 		.4byte	0x3c8b
 9096 2d2f 412D0000 		.4byte	0x2d41
ARM GAS  C:\Users\haske\AppData\Local\Temp\ccXBxzcA.s 			page 197


 9097 2d33 35       		.uleb128 0x35
 9098 2d34 01       		.uleb128 0x1
 9099 2d35 50       		.byte	0x50
 9100 2d36 02       		.uleb128 0x2
 9101 2d37 75       		.byte	0x75
 9102 2d38 00       		.sleb128 0
 9103 2d39 35       		.uleb128 0x35
 9104 2d3a 01       		.uleb128 0x1
 9105 2d3b 51       		.byte	0x51
 9106 2d3c 03       		.uleb128 0x3
 9107 2d3d 91       		.byte	0x91
 9108 2d3e A07F     		.sleb128 -96
 9109 2d40 00       		.byte	0
 9110 2d41 38       		.uleb128 0x38
 9111 2d42 42000000 		.4byte	.LVL199
 9112 2d46 BB1D0000 		.4byte	0x1dbb
 9113 2d4a 622D0000 		.4byte	0x2d62
 9114 2d4e 35       		.uleb128 0x35
 9115 2d4f 01       		.uleb128 0x1
 9116 2d50 50       		.byte	0x50
 9117 2d51 02       		.uleb128 0x2
 9118 2d52 75       		.byte	0x75
 9119 2d53 00       		.sleb128 0
 9120 2d54 35       		.uleb128 0x35
 9121 2d55 01       		.uleb128 0x1
 9122 2d56 51       		.byte	0x51
 9123 2d57 02       		.uleb128 0x2
 9124 2d58 74       		.byte	0x74
 9125 2d59 00       		.sleb128 0
 9126 2d5a 35       		.uleb128 0x35
 9127 2d5b 01       		.uleb128 0x1
 9128 2d5c 52       		.byte	0x52
 9129 2d5d 03       		.uleb128 0x3
 9130 2d5e 91       		.byte	0x91
 9131 2d5f A07F     		.sleb128 -96
 9132 2d61 00       		.byte	0
 9133 2d62 38       		.uleb128 0x38
 9134 2d63 4C000000 		.4byte	.LVL200
 9135 2d67 71200000 		.4byte	0x2071
 9136 2d6b 832D0000 		.4byte	0x2d83
 9137 2d6f 35       		.uleb128 0x35
 9138 2d70 01       		.uleb128 0x1
 9139 2d71 50       		.byte	0x50
 9140 2d72 02       		.uleb128 0x2
 9141 2d73 75       		.byte	0x75
 9142 2d74 00       		.sleb128 0
 9143 2d75 35       		.uleb128 0x35
 9144 2d76 01       		.uleb128 0x1
 9145 2d77 51       		.byte	0x51
 9146 2d78 02       		.uleb128 0x2
 9147 2d79 74       		.byte	0x74
 9148 2d7a 00       		.sleb128 0
 9149 2d7b 35       		.uleb128 0x35
 9150 2d7c 01       		.uleb128 0x1
 9151 2d7d 52       		.byte	0x52
 9152 2d7e 03       		.uleb128 0x3
 9153 2d7f 91       		.byte	0x91
ARM GAS  C:\Users\haske\AppData\Local\Temp\ccXBxzcA.s 			page 198


 9154 2d80 A07F     		.sleb128 -96
 9155 2d82 00       		.byte	0
 9156 2d83 38       		.uleb128 0x38
 9157 2d84 58000000 		.4byte	.LVL201
 9158 2d88 AF270000 		.4byte	0x27af
 9159 2d8c A42D0000 		.4byte	0x2da4
 9160 2d90 35       		.uleb128 0x35
 9161 2d91 01       		.uleb128 0x1
 9162 2d92 50       		.byte	0x50
 9163 2d93 02       		.uleb128 0x2
 9164 2d94 75       		.byte	0x75
 9165 2d95 00       		.sleb128 0
 9166 2d96 35       		.uleb128 0x35
 9167 2d97 01       		.uleb128 0x1
 9168 2d98 51       		.byte	0x51
 9169 2d99 02       		.uleb128 0x2
 9170 2d9a 74       		.byte	0x74
 9171 2d9b 00       		.sleb128 0
 9172 2d9c 35       		.uleb128 0x35
 9173 2d9d 01       		.uleb128 0x1
 9174 2d9e 52       		.byte	0x52
 9175 2d9f 03       		.uleb128 0x3
 9176 2da0 91       		.byte	0x91
 9177 2da1 A07F     		.sleb128 -96
 9178 2da3 00       		.byte	0
 9179 2da4 38       		.uleb128 0x38
 9180 2da5 86000000 		.4byte	.LVL210
 9181 2da9 973C0000 		.4byte	0x3c97
 9182 2dad B92D0000 		.4byte	0x2db9
 9183 2db1 35       		.uleb128 0x35
 9184 2db2 01       		.uleb128 0x1
 9185 2db3 50       		.byte	0x50
 9186 2db4 03       		.uleb128 0x3
 9187 2db5 91       		.byte	0x91
 9188 2db6 B07F     		.sleb128 -80
 9189 2db8 00       		.byte	0
 9190 2db9 38       		.uleb128 0x38
 9191 2dba 94000000 		.4byte	.LVL211
 9192 2dbe A23C0000 		.4byte	0x3ca2
 9193 2dc2 DA2D0000 		.4byte	0x2dda
 9194 2dc6 35       		.uleb128 0x35
 9195 2dc7 01       		.uleb128 0x1
 9196 2dc8 50       		.byte	0x50
 9197 2dc9 02       		.uleb128 0x2
 9198 2dca 75       		.byte	0x75
 9199 2dcb 00       		.sleb128 0
 9200 2dcc 35       		.uleb128 0x35
 9201 2dcd 01       		.uleb128 0x1
 9202 2dce 51       		.byte	0x51
 9203 2dcf 02       		.uleb128 0x2
 9204 2dd0 77       		.byte	0x77
 9205 2dd1 00       		.sleb128 0
 9206 2dd2 35       		.uleb128 0x35
 9207 2dd3 01       		.uleb128 0x1
 9208 2dd4 52       		.byte	0x52
 9209 2dd5 03       		.uleb128 0x3
 9210 2dd6 91       		.byte	0x91
ARM GAS  C:\Users\haske\AppData\Local\Temp\ccXBxzcA.s 			page 199


 9211 2dd7 B07F     		.sleb128 -80
 9212 2dd9 00       		.byte	0
 9213 2dda 34       		.uleb128 0x34
 9214 2ddb DE000000 		.4byte	.LVL220
 9215 2ddf AD3C0000 		.4byte	0x3cad
 9216 2de3 35       		.uleb128 0x35
 9217 2de4 01       		.uleb128 0x1
 9218 2de5 50       		.byte	0x50
 9219 2de6 03       		.uleb128 0x3
 9220 2de7 7D       		.byte	0x7d
 9221 2de8 00       		.sleb128 0
 9222 2de9 06       		.byte	0x6
 9223 2dea 35       		.uleb128 0x35
 9224 2deb 01       		.uleb128 0x1
 9225 2dec 51       		.byte	0x51
 9226 2ded 03       		.uleb128 0x3
 9227 2dee 91       		.byte	0x91
 9228 2def B07F     		.sleb128 -80
 9229 2df1 35       		.uleb128 0x35
 9230 2df2 01       		.uleb128 0x1
 9231 2df3 52       		.byte	0x52
 9232 2df4 03       		.uleb128 0x3
 9233 2df5 91       		.byte	0x91
 9234 2df6 A87F     		.sleb128 -88
 9235 2df8 00       		.byte	0
 9236 2df9 00       		.byte	0
 9237 2dfa 38       		.uleb128 0x38
 9238 2dfb 10000000 		.4byte	.LVL188
 9239 2dff B83C0000 		.4byte	0x3cb8
 9240 2e03 172E0000 		.4byte	0x2e17
 9241 2e07 35       		.uleb128 0x35
 9242 2e08 01       		.uleb128 0x1
 9243 2e09 50       		.byte	0x50
 9244 2e0a 05       		.uleb128 0x5
 9245 2e0b 03       		.byte	0x3
 9246 2e0c 00000000 		.4byte	.LANCHOR0
 9247 2e10 35       		.uleb128 0x35
 9248 2e11 01       		.uleb128 0x1
 9249 2e12 51       		.byte	0x51
 9250 2e13 02       		.uleb128 0x2
 9251 2e14 74       		.byte	0x74
 9252 2e15 00       		.sleb128 0
 9253 2e16 00       		.byte	0
 9254 2e17 38       		.uleb128 0x38
 9255 2e18 1A000000 		.4byte	.LVL190
 9256 2e1c C33C0000 		.4byte	0x3cc3
 9257 2e20 2B2E0000 		.4byte	0x2e2b
 9258 2e24 35       		.uleb128 0x35
 9259 2e25 01       		.uleb128 0x1
 9260 2e26 50       		.byte	0x50
 9261 2e27 02       		.uleb128 0x2
 9262 2e28 74       		.byte	0x74
 9263 2e29 00       		.sleb128 0
 9264 2e2a 00       		.byte	0
 9265 2e2b 34       		.uleb128 0x34
 9266 2e2c 22000000 		.4byte	.LVL192
 9267 2e30 CE3C0000 		.4byte	0x3cce
ARM GAS  C:\Users\haske\AppData\Local\Temp\ccXBxzcA.s 			page 200


 9268 2e34 35       		.uleb128 0x35
 9269 2e35 01       		.uleb128 0x1
 9270 2e36 50       		.byte	0x50
 9271 2e37 02       		.uleb128 0x2
 9272 2e38 74       		.byte	0x74
 9273 2e39 00       		.sleb128 0
 9274 2e3a 00       		.byte	0
 9275 2e3b 00       		.byte	0
 9276 2e3c 2B       		.uleb128 0x2b
 9277 2e3d 33220000 		.4byte	.LASF547
 9278 2e41 01       		.byte	0x1
 9279 2e42 1701     		.2byte	0x117
 9280 2e44 00000000 		.4byte	.LFB215
 9281 2e48 16000000 		.4byte	.LFE215-.LFB215
 9282 2e4c 01       		.uleb128 0x1
 9283 2e4d 9C       		.byte	0x9c
 9284 2e4e A72E0000 		.4byte	0x2ea7
 9285 2e52 2D       		.uleb128 0x2d
 9286 2e53 E9180000 		.4byte	.LASF196
 9287 2e57 01       		.byte	0x1
 9288 2e58 1701     		.2byte	0x117
 9289 2e5a 05190000 		.4byte	0x1905
 9290 2e5e 83090000 		.4byte	.LLST70
 9291 2e62 2C       		.uleb128 0x2c
 9292 2e63 6F626A00 		.ascii	"obj\000"
 9293 2e67 01       		.byte	0x1
 9294 2e68 1701     		.2byte	0x117
 9295 2e6a 27190000 		.4byte	0x1927
 9296 2e6e A4090000 		.4byte	.LLST71
 9297 2e72 2E       		.uleb128 0x2e
 9298 2e73 51180000 		.4byte	.LASF507
 9299 2e77 01       		.byte	0x1
 9300 2e78 1B01     		.2byte	0x11b
 9301 2e7a 65200000 		.4byte	0x2065
 9302 2e7e D0090000 		.4byte	.LLST72
 9303 2e82 38       		.uleb128 0x38
 9304 2e83 0C000000 		.4byte	.LVL224
 9305 2e87 D93C0000 		.4byte	0x3cd9
 9306 2e8b 962E0000 		.4byte	0x2e96
 9307 2e8f 35       		.uleb128 0x35
 9308 2e90 01       		.uleb128 0x1
 9309 2e91 50       		.byte	0x50
 9310 2e92 02       		.uleb128 0x2
 9311 2e93 74       		.byte	0x74
 9312 2e94 30       		.sleb128 48
 9313 2e95 00       		.byte	0
 9314 2e96 34       		.uleb128 0x34
 9315 2e97 14000000 		.4byte	.LVL225
 9316 2e9b D93C0000 		.4byte	0x3cd9
 9317 2e9f 35       		.uleb128 0x35
 9318 2ea0 01       		.uleb128 0x1
 9319 2ea1 50       		.byte	0x50
 9320 2ea2 02       		.uleb128 0x2
 9321 2ea3 74       		.byte	0x74
 9322 2ea4 24       		.sleb128 36
 9323 2ea5 00       		.byte	0
 9324 2ea6 00       		.byte	0
ARM GAS  C:\Users\haske\AppData\Local\Temp\ccXBxzcA.s 			page 201


 9325 2ea7 2B       		.uleb128 0x2b
 9326 2ea8 DB080000 		.4byte	.LASF548
 9327 2eac 01       		.byte	0x1
 9328 2ead 0A01     		.2byte	0x10a
 9329 2eaf 00000000 		.4byte	.LFB214
 9330 2eb3 1A000000 		.4byte	.LFE214-.LFB214
 9331 2eb7 01       		.uleb128 0x1
 9332 2eb8 9C       		.byte	0x9c
 9333 2eb9 1D2F0000 		.4byte	0x2f1d
 9334 2ebd 2D       		.uleb128 0x2d
 9335 2ebe E9180000 		.4byte	.LASF196
 9336 2ec2 01       		.byte	0x1
 9337 2ec3 0A01     		.2byte	0x10a
 9338 2ec5 05190000 		.4byte	0x1905
 9339 2ec9 FC090000 		.4byte	.LLST73
 9340 2ecd 2C       		.uleb128 0x2c
 9341 2ece 6F626A00 		.ascii	"obj\000"
 9342 2ed2 01       		.byte	0x1
 9343 2ed3 0A01     		.2byte	0x10a
 9344 2ed5 27190000 		.4byte	0x1927
 9345 2ed9 1D0A0000 		.4byte	.LLST74
 9346 2edd 2E       		.uleb128 0x2e
 9347 2ede 51180000 		.4byte	.LASF507
 9348 2ee2 01       		.byte	0x1
 9349 2ee3 0F01     		.2byte	0x10f
 9350 2ee5 65200000 		.4byte	0x2065
 9351 2ee9 490A0000 		.4byte	.LLST75
 9352 2eed 38       		.uleb128 0x38
 9353 2eee 0E000000 		.4byte	.LVL231
 9354 2ef2 E43C0000 		.4byte	0x3ce4
 9355 2ef6 072F0000 		.4byte	0x2f07
 9356 2efa 35       		.uleb128 0x35
 9357 2efb 01       		.uleb128 0x1
 9358 2efc 50       		.byte	0x50
 9359 2efd 02       		.uleb128 0x2
 9360 2efe 74       		.byte	0x74
 9361 2eff 24       		.sleb128 36
 9362 2f00 35       		.uleb128 0x35
 9363 2f01 01       		.uleb128 0x1
 9364 2f02 51       		.byte	0x51
 9365 2f03 02       		.uleb128 0x2
 9366 2f04 08       		.byte	0x8
 9367 2f05 24       		.byte	0x24
 9368 2f06 00       		.byte	0
 9369 2f07 34       		.uleb128 0x34
 9370 2f08 18000000 		.4byte	.LVL232
 9371 2f0c E43C0000 		.4byte	0x3ce4
 9372 2f10 35       		.uleb128 0x35
 9373 2f11 01       		.uleb128 0x1
 9374 2f12 50       		.byte	0x50
 9375 2f13 02       		.uleb128 0x2
 9376 2f14 74       		.byte	0x74
 9377 2f15 30       		.sleb128 48
 9378 2f16 35       		.uleb128 0x35
 9379 2f17 01       		.uleb128 0x1
 9380 2f18 51       		.byte	0x51
 9381 2f19 01       		.uleb128 0x1
ARM GAS  C:\Users\haske\AppData\Local\Temp\ccXBxzcA.s 			page 202


 9382 2f1a 4C       		.byte	0x4c
 9383 2f1b 00       		.byte	0
 9384 2f1c 00       		.byte	0
 9385 2f1d 2B       		.uleb128 0x2b
 9386 2f1e 9F200000 		.4byte	.LASF549
 9387 2f22 01       		.byte	0x1
 9388 2f23 7102     		.2byte	0x271
 9389 2f25 00000000 		.4byte	.LFB220
 9390 2f29 CA000000 		.4byte	.LFE220-.LFB220
 9391 2f2d 01       		.uleb128 0x1
 9392 2f2e 9C       		.byte	0x9c
 9393 2f2f ED300000 		.4byte	0x30ed
 9394 2f33 2C       		.uleb128 0x2c
 9395 2f34 6F626A00 		.ascii	"obj\000"
 9396 2f38 01       		.byte	0x1
 9397 2f39 7102     		.2byte	0x271
 9398 2f3b 27190000 		.4byte	0x1927
 9399 2f3f 750A0000 		.4byte	.LLST76
 9400 2f43 2D       		.uleb128 0x2d
 9401 2f44 22080000 		.4byte	.LASF511
 9402 2f48 01       		.byte	0x1
 9403 2f49 7102     		.2byte	0x271
 9404 2f4b 6B200000 		.4byte	0x206b
 9405 2f4f 9F0A0000 		.4byte	.LLST77
 9406 2f53 2D       		.uleb128 0x2d
 9407 2f54 470B0000 		.4byte	.LASF550
 9408 2f58 01       		.byte	0x1
 9409 2f59 7102     		.2byte	0x271
 9410 2f5b D9000000 		.4byte	0xd9
 9411 2f5f CB0A0000 		.4byte	.LLST78
 9412 2f63 2D       		.uleb128 0x2d
 9413 2f64 D5180000 		.4byte	.LASF551
 9414 2f68 01       		.byte	0x1
 9415 2f69 7102     		.2byte	0x271
 9416 2f6b D9000000 		.4byte	0xd9
 9417 2f6f EA0A0000 		.4byte	.LLST79
 9418 2f73 28       		.uleb128 0x28
 9419 2f74 D4050000 		.4byte	.LASF266
 9420 2f78 01       		.byte	0x1
 9421 2f79 7302     		.2byte	0x273
 9422 2f7b E4020000 		.4byte	0x2e4
 9423 2f7f 2F       		.uleb128 0x2f
 9424 2f80 8B150000 		.4byte	.LASF506
 9425 2f84 01       		.byte	0x1
 9426 2f85 7502     		.2byte	0x275
 9427 2f87 A3010000 		.4byte	0x1a3
 9428 2f8b 02       		.uleb128 0x2
 9429 2f8c 91       		.byte	0x91
 9430 2f8d 58       		.sleb128 -40
 9431 2f8e 2E       		.uleb128 0x2e
 9432 2f8f 58130000 		.4byte	.LASF508
 9433 2f93 01       		.byte	0x1
 9434 2f94 7802     		.2byte	0x278
 9435 2f96 3B010000 		.4byte	0x13b
 9436 2f9a 090B0000 		.4byte	.LLST80
 9437 2f9e 28       		.uleb128 0x28
 9438 2f9f 8F190000 		.4byte	.LASF509
ARM GAS  C:\Users\haske\AppData\Local\Temp\ccXBxzcA.s 			page 203


 9439 2fa3 01       		.byte	0x1
 9440 2fa4 7902     		.2byte	0x279
 9441 2fa6 63010000 		.4byte	0x163
 9442 2faa 2E       		.uleb128 0x2e
 9443 2fab B61E0000 		.4byte	.LASF484
 9444 2faf 01       		.byte	0x1
 9445 2fb0 7F02     		.2byte	0x27f
 9446 2fb2 C41B0000 		.4byte	0x1bc4
 9447 2fb6 650B0000 		.4byte	.LLST81
 9448 2fba 2E       		.uleb128 0x2e
 9449 2fbb 90060000 		.4byte	.LASF263
 9450 2fbf 01       		.byte	0x1
 9451 2fc0 8102     		.2byte	0x281
 9452 2fc2 D9000000 		.4byte	0xd9
 9453 2fc6 780B0000 		.4byte	.LLST82
 9454 2fca 2E       		.uleb128 0x2e
 9455 2fcb DA200000 		.4byte	.LASF264
 9456 2fcf 01       		.byte	0x1
 9457 2fd0 8202     		.2byte	0x282
 9458 2fd2 D9000000 		.4byte	0xd9
 9459 2fd6 960B0000 		.4byte	.LLST83
 9460 2fda 3C       		.uleb128 0x3c
 9461 2fdb 6100     		.ascii	"a\000"
 9462 2fdd 01       		.byte	0x1
 9463 2fde 8402     		.2byte	0x284
 9464 2fe0 A3010000 		.4byte	0x1a3
 9465 2fe4 02       		.uleb128 0x2
 9466 2fe5 91       		.byte	0x91
 9467 2fe6 50       		.sleb128 -48
 9468 2fe7 30       		.uleb128 0x30
 9469 2fe8 8D1C0000 		.4byte	0x1c8d
 9470 2fec 16000000 		.4byte	.LBB82
 9471 2ff0 12000000 		.4byte	.LBE82-.LBB82
 9472 2ff4 01       		.byte	0x1
 9473 2ff5 7302     		.2byte	0x273
 9474 2ff7 3E300000 		.4byte	0x303e
 9475 2ffb 31       		.uleb128 0x31
 9476 2ffc AA1C0000 		.4byte	0x1caa
 9477 3000 A90B0000 		.4byte	.LLST84
 9478 3004 31       		.uleb128 0x31
 9479 3005 9E1C0000 		.4byte	0x1c9e
 9480 3009 BF0B0000 		.4byte	.LLST85
 9481 300d 32       		.uleb128 0x32
 9482 300e 16000000 		.4byte	.LBB83
 9483 3012 12000000 		.4byte	.LBE83-.LBB83
 9484 3016 33       		.uleb128 0x33
 9485 3017 B61C0000 		.4byte	0x1cb6
 9486 301b DD0B0000 		.4byte	.LLST86
 9487 301f 34       		.uleb128 0x34
 9488 3020 20000000 		.4byte	.LVL238
 9489 3024 533B0000 		.4byte	0x3b53
 9490 3028 35       		.uleb128 0x35
 9491 3029 01       		.uleb128 0x1
 9492 302a 50       		.byte	0x50
 9493 302b 02       		.uleb128 0x2
 9494 302c 75       		.byte	0x75
 9495 302d 00       		.sleb128 0
ARM GAS  C:\Users\haske\AppData\Local\Temp\ccXBxzcA.s 			page 204


 9496 302e 35       		.uleb128 0x35
 9497 302f 01       		.uleb128 0x1
 9498 3030 51       		.byte	0x51
 9499 3031 03       		.uleb128 0x3
 9500 3032 44       		.byte	0x44
 9501 3033 3E       		.byte	0x3e
 9502 3034 24       		.byte	0x24
 9503 3035 35       		.uleb128 0x35
 9504 3036 01       		.uleb128 0x1
 9505 3037 52       		.byte	0x52
 9506 3038 02       		.uleb128 0x2
 9507 3039 08       		.byte	0x8
 9508 303a 51       		.byte	0x51
 9509 303b 00       		.byte	0
 9510 303c 00       		.byte	0
 9511 303d 00       		.byte	0
 9512 303e 30       		.uleb128 0x30
 9513 303f 711C0000 		.4byte	0x1c71
 9514 3043 32000000 		.4byte	.LBB84
 9515 3047 0C000000 		.4byte	.LBE84-.LBB84
 9516 304b 01       		.byte	0x1
 9517 304c 7802     		.2byte	0x278
 9518 304e 5C300000 		.4byte	0x305c
 9519 3052 31       		.uleb128 0x31
 9520 3053 811C0000 		.4byte	0x1c81
 9521 3057 F00B0000 		.4byte	.LLST87
 9522 305b 00       		.byte	0
 9523 305c 38       		.uleb128 0x38
 9524 305d 32000000 		.4byte	.LVL241
 9525 3061 8B3C0000 		.4byte	0x3c8b
 9526 3065 76300000 		.4byte	0x3076
 9527 3069 35       		.uleb128 0x35
 9528 306a 01       		.uleb128 0x1
 9529 306b 50       		.byte	0x50
 9530 306c 02       		.uleb128 0x2
 9531 306d 75       		.byte	0x75
 9532 306e 00       		.sleb128 0
 9533 306f 35       		.uleb128 0x35
 9534 3070 01       		.uleb128 0x1
 9535 3071 51       		.byte	0x51
 9536 3072 02       		.uleb128 0x2
 9537 3073 74       		.byte	0x74
 9538 3074 00       		.sleb128 0
 9539 3075 00       		.byte	0
 9540 3076 38       		.uleb128 0x38
 9541 3077 74000000 		.4byte	.LVL247
 9542 307b 5E3B0000 		.4byte	0x3b5e
 9543 307f 8B300000 		.4byte	0x308b
 9544 3083 35       		.uleb128 0x35
 9545 3084 01       		.uleb128 0x1
 9546 3085 50       		.byte	0x50
 9547 3086 03       		.uleb128 0x3
 9548 3087 91       		.byte	0x91
 9549 3088 48       		.sleb128 -56
 9550 3089 06       		.byte	0x6
 9551 308a 00       		.byte	0
 9552 308b 38       		.uleb128 0x38
ARM GAS  C:\Users\haske\AppData\Local\Temp\ccXBxzcA.s 			page 205


 9553 308c 8A000000 		.4byte	.LVL250
 9554 3090 5E3B0000 		.4byte	0x3b5e
 9555 3094 A0300000 		.4byte	0x30a0
 9556 3098 35       		.uleb128 0x35
 9557 3099 01       		.uleb128 0x1
 9558 309a 50       		.byte	0x50
 9559 309b 03       		.uleb128 0x3
 9560 309c 91       		.byte	0x91
 9561 309d 4C       		.sleb128 -52
 9562 309e 06       		.byte	0x6
 9563 309f 00       		.byte	0
 9564 30a0 38       		.uleb128 0x38
 9565 30a1 B6000000 		.4byte	.LVL254
 9566 30a5 EF3C0000 		.4byte	0x3cef
 9567 30a9 D5300000 		.4byte	0x30d5
 9568 30ad 35       		.uleb128 0x35
 9569 30ae 01       		.uleb128 0x1
 9570 30af 50       		.byte	0x50
 9571 30b0 02       		.uleb128 0x2
 9572 30b1 76       		.byte	0x76
 9573 30b2 00       		.sleb128 0
 9574 30b3 35       		.uleb128 0x35
 9575 30b4 01       		.uleb128 0x1
 9576 30b5 51       		.byte	0x51
 9577 30b6 02       		.uleb128 0x2
 9578 30b7 78       		.byte	0x78
 9579 30b8 00       		.sleb128 0
 9580 30b9 35       		.uleb128 0x35
 9581 30ba 01       		.uleb128 0x1
 9582 30bb 52       		.byte	0x52
 9583 30bc 02       		.uleb128 0x2
 9584 30bd 7B       		.byte	0x7b
 9585 30be 00       		.sleb128 0
 9586 30bf 35       		.uleb128 0x35
 9587 30c0 02       		.uleb128 0x2
 9588 30c1 7D       		.byte	0x7d
 9589 30c2 00       		.sleb128 0
 9590 30c3 02       		.uleb128 0x2
 9591 30c4 74       		.byte	0x74
 9592 30c5 00       		.sleb128 0
 9593 30c6 35       		.uleb128 0x35
 9594 30c7 02       		.uleb128 0x2
 9595 30c8 7D       		.byte	0x7d
 9596 30c9 08       		.sleb128 8
 9597 30ca 02       		.uleb128 0x2
 9598 30cb 79       		.byte	0x79
 9599 30cc 00       		.sleb128 0
 9600 30cd 35       		.uleb128 0x35
 9601 30ce 02       		.uleb128 0x2
 9602 30cf 7D       		.byte	0x7d
 9603 30d0 0C       		.sleb128 12
 9604 30d1 02       		.uleb128 0x2
 9605 30d2 75       		.byte	0x75
 9606 30d3 00       		.sleb128 0
 9607 30d4 00       		.byte	0
 9608 30d5 34       		.uleb128 0x34
 9609 30d6 BE000000 		.4byte	.LVL255
ARM GAS  C:\Users\haske\AppData\Local\Temp\ccXBxzcA.s 			page 206


 9610 30da FA3C0000 		.4byte	0x3cfa
 9611 30de 35       		.uleb128 0x35
 9612 30df 01       		.uleb128 0x1
 9613 30e0 50       		.byte	0x50
 9614 30e1 03       		.uleb128 0x3
 9615 30e2 91       		.byte	0x91
 9616 30e3 44       		.sleb128 -60
 9617 30e4 06       		.byte	0x6
 9618 30e5 35       		.uleb128 0x35
 9619 30e6 01       		.uleb128 0x1
 9620 30e7 51       		.byte	0x51
 9621 30e8 02       		.uleb128 0x2
 9622 30e9 75       		.byte	0x75
 9623 30ea 00       		.sleb128 0
 9624 30eb 00       		.byte	0
 9625 30ec 00       		.byte	0
 9626 30ed 39       		.uleb128 0x39
 9627 30ee BC080000 		.4byte	.LASF552
 9628 30f2 01       		.byte	0x1
 9629 30f3 8B02     		.2byte	0x28b
 9630 30f5 00000000 		.4byte	.LFB221
 9631 30f9 9C010000 		.4byte	.LFE221-.LFB221
 9632 30fd 01       		.uleb128 0x1
 9633 30fe 9C       		.byte	0x9c
 9634 30ff EB320000 		.4byte	0x32eb
 9635 3103 2C       		.uleb128 0x2c
 9636 3104 6F626A00 		.ascii	"obj\000"
 9637 3108 01       		.byte	0x1
 9638 3109 8B02     		.2byte	0x28b
 9639 310b 27190000 		.4byte	0x1927
 9640 310f 030C0000 		.4byte	.LLST88
 9641 3113 2D       		.uleb128 0x2d
 9642 3114 22080000 		.4byte	.LASF511
 9643 3118 01       		.byte	0x1
 9644 3119 8B02     		.2byte	0x28b
 9645 311b 6B200000 		.4byte	0x206b
 9646 311f 460C0000 		.4byte	.LLST89
 9647 3123 2D       		.uleb128 0x2d
 9648 3124 DF0F0000 		.4byte	.LASF181
 9649 3128 01       		.byte	0x1
 9650 3129 8B02     		.2byte	0x28b
 9651 312b D9000000 		.4byte	0xd9
 9652 312f 720C0000 		.4byte	.LLST90
 9653 3133 2F       		.uleb128 0x2f
 9654 3134 8B150000 		.4byte	.LASF506
 9655 3138 01       		.byte	0x1
 9656 3139 8D02     		.2byte	0x28d
 9657 313b A3010000 		.4byte	0x1a3
 9658 313f 02       		.uleb128 0x2
 9659 3140 91       		.byte	0x91
 9660 3141 58       		.sleb128 -40
 9661 3142 2E       		.uleb128 0x2e
 9662 3143 58130000 		.4byte	.LASF508
 9663 3147 01       		.byte	0x1
 9664 3148 9002     		.2byte	0x290
 9665 314a 3B010000 		.4byte	0x13b
 9666 314e B90C0000 		.4byte	.LLST91
ARM GAS  C:\Users\haske\AppData\Local\Temp\ccXBxzcA.s 			page 207


 9667 3152 28       		.uleb128 0x28
 9668 3153 8F190000 		.4byte	.LASF509
 9669 3157 01       		.byte	0x1
 9670 3158 9102     		.2byte	0x291
 9671 315a 63010000 		.4byte	0x163
 9672 315e 2E       		.uleb128 0x2e
 9673 315f B61E0000 		.4byte	.LASF484
 9674 3163 01       		.byte	0x1
 9675 3164 9502     		.2byte	0x295
 9676 3166 C41B0000 		.4byte	0x1bc4
 9677 316a E20C0000 		.4byte	.LLST92
 9678 316e 30       		.uleb128 0x30
 9679 316f 711C0000 		.4byte	0x1c71
 9680 3173 1A000000 		.4byte	.LBB86
 9681 3177 0C000000 		.4byte	.LBE86-.LBB86
 9682 317b 01       		.byte	0x1
 9683 317c 9002     		.2byte	0x290
 9684 317e 8C310000 		.4byte	0x318c
 9685 3182 31       		.uleb128 0x31
 9686 3183 811C0000 		.4byte	0x1c81
 9687 3187 000D0000 		.4byte	.LLST93
 9688 318b 00       		.byte	0
 9689 318c 37       		.uleb128 0x37
 9690 318d 4C000000 		.4byte	.LBB88
 9691 3191 A0000000 		.4byte	.LBE88-.LBB88
 9692 3195 36320000 		.4byte	0x3236
 9693 3199 2E       		.uleb128 0x2e
 9694 319a B3010000 		.4byte	.LASF248
 9695 319e 01       		.byte	0x1
 9696 319f 9802     		.2byte	0x298
 9697 31a1 D9000000 		.4byte	0xd9
 9698 31a5 130D0000 		.4byte	.LLST94
 9699 31a9 28       		.uleb128 0x28
 9700 31aa CF0C0000 		.4byte	.LASF542
 9701 31ae 01       		.byte	0x1
 9702 31af 9A02     		.2byte	0x29a
 9703 31b1 63010000 		.4byte	0x163
 9704 31b5 3C       		.uleb128 0x3c
 9705 31b6 6100     		.ascii	"a\000"
 9706 31b8 01       		.byte	0x1
 9707 31b9 9E02     		.2byte	0x29e
 9708 31bb A3010000 		.4byte	0x1a3
 9709 31bf 02       		.uleb128 0x2
 9710 31c0 91       		.byte	0x91
 9711 31c1 50       		.sleb128 -48
 9712 31c2 30       		.uleb128 0x30
 9713 31c3 3F1D0000 		.4byte	0x1d3f
 9714 31c7 8E000000 		.4byte	.LBB89
 9715 31cb 0A000000 		.4byte	.LBE89-.LBB89
 9716 31cf 01       		.byte	0x1
 9717 31d0 9C02     		.2byte	0x29c
 9718 31d2 F3310000 		.4byte	0x31f3
 9719 31d6 31       		.uleb128 0x31
 9720 31d7 4F1D0000 		.4byte	0x1d4f
 9721 31db 3D0D0000 		.4byte	.LLST95
 9722 31df 34       		.uleb128 0x34
 9723 31e0 98000000 		.4byte	.LVL274
ARM GAS  C:\Users\haske\AppData\Local\Temp\ccXBxzcA.s 			page 208


 9724 31e4 483C0000 		.4byte	0x3c48
 9725 31e8 35       		.uleb128 0x35
 9726 31e9 01       		.uleb128 0x1
 9727 31ea 50       		.byte	0x50
 9728 31eb 05       		.uleb128 0x5
 9729 31ec 91       		.byte	0x91
 9730 31ed 44       		.sleb128 -60
 9731 31ee 06       		.byte	0x6
 9732 31ef 23       		.byte	0x23
 9733 31f0 5A       		.uleb128 0x5a
 9734 31f1 00       		.byte	0
 9735 31f2 00       		.byte	0
 9736 31f3 38       		.uleb128 0x38
 9737 31f4 64000000 		.4byte	.LVL265
 9738 31f8 5E3B0000 		.4byte	0x3b5e
 9739 31fc 08320000 		.4byte	0x3208
 9740 3200 35       		.uleb128 0x35
 9741 3201 01       		.uleb128 0x1
 9742 3202 50       		.byte	0x50
 9743 3203 03       		.uleb128 0x3
 9744 3204 91       		.byte	0x91
 9745 3205 44       		.sleb128 -60
 9746 3206 06       		.byte	0x6
 9747 3207 00       		.byte	0
 9748 3208 38       		.uleb128 0x38
 9749 3209 82000000 		.4byte	.LVL271
 9750 320d 483C0000 		.4byte	0x3c48
 9751 3211 1E320000 		.4byte	0x321e
 9752 3215 35       		.uleb128 0x35
 9753 3216 01       		.uleb128 0x1
 9754 3217 50       		.byte	0x50
 9755 3218 04       		.uleb128 0x4
 9756 3219 7D       		.byte	0x7d
 9757 321a 0C       		.sleb128 12
 9758 321b 94       		.byte	0x94
 9759 321c 02       		.byte	0x2
 9760 321d 00       		.byte	0
 9761 321e 34       		.uleb128 0x34
 9762 321f EC000000 		.4byte	.LVL277
 9763 3223 FA3C0000 		.4byte	0x3cfa
 9764 3227 35       		.uleb128 0x35
 9765 3228 01       		.uleb128 0x1
 9766 3229 50       		.byte	0x50
 9767 322a 03       		.uleb128 0x3
 9768 322b 91       		.byte	0x91
 9769 322c 40       		.sleb128 -64
 9770 322d 06       		.byte	0x6
 9771 322e 35       		.uleb128 0x35
 9772 322f 01       		.uleb128 0x1
 9773 3230 51       		.byte	0x51
 9774 3231 02       		.uleb128 0x2
 9775 3232 91       		.byte	0x91
 9776 3233 50       		.sleb128 -48
 9777 3234 00       		.byte	0
 9778 3235 00       		.byte	0
 9779 3236 37       		.uleb128 0x37
 9780 3237 F2000000 		.4byte	.LBB91
ARM GAS  C:\Users\haske\AppData\Local\Temp\ccXBxzcA.s 			page 209


 9781 323b 96000000 		.4byte	.LBE91-.LBB91
 9782 323f D3320000 		.4byte	0x32d3
 9783 3243 2E       		.uleb128 0x2e
 9784 3244 B3010000 		.4byte	.LASF248
 9785 3248 01       		.byte	0x1
 9786 3249 A702     		.2byte	0x2a7
 9787 324b D9000000 		.4byte	0xd9
 9788 324f 510D0000 		.4byte	.LLST96
 9789 3253 2F       		.uleb128 0x2f
 9790 3254 C5080000 		.4byte	.LASF543
 9791 3258 01       		.byte	0x1
 9792 3259 A802     		.2byte	0x2a8
 9793 325b 7A080000 		.4byte	0x87a
 9794 325f 02       		.uleb128 0x2
 9795 3260 91       		.byte	0x91
 9796 3261 4C       		.sleb128 -52
 9797 3262 3C       		.uleb128 0x3c
 9798 3263 6100     		.ascii	"a\000"
 9799 3265 01       		.byte	0x1
 9800 3266 B002     		.2byte	0x2b0
 9801 3268 A3010000 		.4byte	0x1a3
 9802 326c 02       		.uleb128 0x2
 9803 326d 91       		.byte	0x91
 9804 326e 50       		.sleb128 -48
 9805 326f 38       		.uleb128 0x38
 9806 3270 0A010000 		.4byte	.LVL279
 9807 3274 5E3B0000 		.4byte	0x3b5e
 9808 3278 84320000 		.4byte	0x3284
 9809 327c 35       		.uleb128 0x35
 9810 327d 01       		.uleb128 0x1
 9811 327e 50       		.byte	0x50
 9812 327f 03       		.uleb128 0x3
 9813 3280 91       		.byte	0x91
 9814 3281 44       		.sleb128 -60
 9815 3282 06       		.byte	0x6
 9816 3283 00       		.byte	0
 9817 3284 38       		.uleb128 0x38
 9818 3285 14010000 		.4byte	.LVL282
 9819 3289 533C0000 		.4byte	0x3c53
 9820 328d 98320000 		.4byte	0x3298
 9821 3291 35       		.uleb128 0x35
 9822 3292 01       		.uleb128 0x1
 9823 3293 51       		.byte	0x51
 9824 3294 02       		.uleb128 0x2
 9825 3295 91       		.byte	0x91
 9826 3296 4C       		.sleb128 -52
 9827 3297 00       		.byte	0
 9828 3298 38       		.uleb128 0x38
 9829 3299 60010000 		.4byte	.LVL289
 9830 329d 063D0000 		.4byte	0x3d06
 9831 32a1 BB320000 		.4byte	0x32bb
 9832 32a5 35       		.uleb128 0x35
 9833 32a6 01       		.uleb128 0x1
 9834 32a7 50       		.byte	0x50
 9835 32a8 02       		.uleb128 0x2
 9836 32a9 77       		.byte	0x77
 9837 32aa 00       		.sleb128 0
ARM GAS  C:\Users\haske\AppData\Local\Temp\ccXBxzcA.s 			page 210


 9838 32ab 35       		.uleb128 0x35
 9839 32ac 02       		.uleb128 0x2
 9840 32ad 7D       		.byte	0x7d
 9841 32ae 00       		.sleb128 0
 9842 32af 03       		.uleb128 0x3
 9843 32b0 0A       		.byte	0xa
 9844 32b1 0001     		.2byte	0x100
 9845 32b3 35       		.uleb128 0x35
 9846 32b4 02       		.uleb128 0x2
 9847 32b5 7D       		.byte	0x7d
 9848 32b6 04       		.sleb128 4
 9849 32b7 02       		.uleb128 0x2
 9850 32b8 76       		.byte	0x76
 9851 32b9 14       		.sleb128 20
 9852 32ba 00       		.byte	0
 9853 32bb 34       		.uleb128 0x34
 9854 32bc 88010000 		.4byte	.LVL290
 9855 32c0 FA3C0000 		.4byte	0x3cfa
 9856 32c4 35       		.uleb128 0x35
 9857 32c5 01       		.uleb128 0x1
 9858 32c6 50       		.byte	0x50
 9859 32c7 03       		.uleb128 0x3
 9860 32c8 91       		.byte	0x91
 9861 32c9 40       		.sleb128 -64
 9862 32ca 06       		.byte	0x6
 9863 32cb 35       		.uleb128 0x35
 9864 32cc 01       		.uleb128 0x1
 9865 32cd 51       		.byte	0x51
 9866 32ce 02       		.uleb128 0x2
 9867 32cf 77       		.byte	0x77
 9868 32d0 00       		.sleb128 0
 9869 32d1 00       		.byte	0
 9870 32d2 00       		.byte	0
 9871 32d3 34       		.uleb128 0x34
 9872 32d4 1A000000 		.4byte	.LVL260
 9873 32d8 8B3C0000 		.4byte	0x3c8b
 9874 32dc 35       		.uleb128 0x35
 9875 32dd 01       		.uleb128 0x1
 9876 32de 50       		.byte	0x50
 9877 32df 03       		.uleb128 0x3
 9878 32e0 91       		.byte	0x91
 9879 32e1 40       		.sleb128 -64
 9880 32e2 06       		.byte	0x6
 9881 32e3 35       		.uleb128 0x35
 9882 32e4 01       		.uleb128 0x1
 9883 32e5 51       		.byte	0x51
 9884 32e6 02       		.uleb128 0x2
 9885 32e7 77       		.byte	0x77
 9886 32e8 00       		.sleb128 0
 9887 32e9 00       		.byte	0
 9888 32ea 00       		.byte	0
 9889 32eb 3D       		.uleb128 0x3d
 9890 32ec 861E0000 		.4byte	.LASF553
 9891 32f0 01       		.byte	0x1
 9892 32f1 36       		.byte	0x36
 9893 32f2 27190000 		.4byte	0x1927
 9894 32f6 00000000 		.4byte	.LFB202
ARM GAS  C:\Users\haske\AppData\Local\Temp\ccXBxzcA.s 			page 211


 9895 32fa 18000000 		.4byte	.LFE202-.LFB202
 9896 32fe 01       		.uleb128 0x1
 9897 32ff 9C       		.byte	0x9c
 9898 3300 51330000 		.4byte	0x3351
 9899 3304 3E       		.uleb128 0x3e
 9900 3305 6D210000 		.4byte	.LASF197
 9901 3309 01       		.byte	0x1
 9902 330a 36       		.byte	0x36
 9903 330b 27190000 		.4byte	0x1927
 9904 330f 850D0000 		.4byte	.LLST97
 9905 3313 3F       		.uleb128 0x3f
 9906 3314 6F626A00 		.ascii	"obj\000"
 9907 3318 01       		.byte	0x1
 9908 3319 39       		.byte	0x39
 9909 331a 27190000 		.4byte	0x1927
 9910 331e B10D0000 		.4byte	.LLST98
 9911 3322 38       		.uleb128 0x38
 9912 3323 0A000000 		.4byte	.LVL295
 9913 3327 113D0000 		.4byte	0x3d11
 9914 332b 40330000 		.4byte	0x3340
 9915 332f 35       		.uleb128 0x35
 9916 3330 01       		.uleb128 0x1
 9917 3331 50       		.byte	0x50
 9918 3332 05       		.uleb128 0x5
 9919 3333 03       		.byte	0x3
 9920 3334 00000000 		.4byte	.LANCHOR0
 9921 3338 35       		.uleb128 0x35
 9922 3339 01       		.uleb128 0x1
 9923 333a 51       		.byte	0x51
 9924 333b 03       		.uleb128 0x3
 9925 333c F3       		.byte	0xf3
 9926 333d 01       		.uleb128 0x1
 9927 333e 50       		.byte	0x50
 9928 333f 00       		.byte	0
 9929 3340 34       		.uleb128 0x34
 9930 3341 10000000 		.4byte	.LVL297
 9931 3345 1C3D0000 		.4byte	0x3d1c
 9932 3349 35       		.uleb128 0x35
 9933 334a 01       		.uleb128 0x1
 9934 334b 50       		.byte	0x50
 9935 334c 02       		.uleb128 0x2
 9936 334d 74       		.byte	0x74
 9937 334e 00       		.sleb128 0
 9938 334f 00       		.byte	0
 9939 3350 00       		.byte	0
 9940 3351 3D       		.uleb128 0x3d
 9941 3352 761B0000 		.4byte	.LASF554
 9942 3356 01       		.byte	0x1
 9943 3357 42       		.byte	0x42
 9944 3358 C41B0000 		.4byte	0x1bc4
 9945 335c 00000000 		.4byte	.LFB203
 9946 3360 38000000 		.4byte	.LFE203-.LFB203
 9947 3364 01       		.uleb128 0x1
 9948 3365 9C       		.byte	0x9c
 9949 3366 BF330000 		.4byte	0x33bf
 9950 336a 40       		.uleb128 0x40
 9951 336b 6F626A00 		.ascii	"obj\000"
ARM GAS  C:\Users\haske\AppData\Local\Temp\ccXBxzcA.s 			page 212


 9952 336f 01       		.byte	0x1
 9953 3370 42       		.byte	0x42
 9954 3371 27190000 		.4byte	0x1927
 9955 3375 DA0D0000 		.4byte	.LLST99
 9956 3379 41       		.uleb128 0x41
 9957 337a 51180000 		.4byte	.LASF507
 9958 337e 01       		.byte	0x1
 9959 337f 45       		.byte	0x45
 9960 3380 65200000 		.4byte	0x2065
 9961 3384 080E0000 		.4byte	.LLST100
 9962 3388 41       		.uleb128 0x41
 9963 3389 B61E0000 		.4byte	.LASF484
 9964 338d 01       		.byte	0x1
 9965 338e 47       		.byte	0x47
 9966 338f C41B0000 		.4byte	0x1bc4
 9967 3393 360E0000 		.4byte	.LLST101
 9968 3397 38       		.uleb128 0x38
 9969 3398 08000000 		.4byte	.LVL302
 9970 339c 273D0000 		.4byte	0x3d27
 9971 33a0 AE330000 		.4byte	0x33ae
 9972 33a4 35       		.uleb128 0x35
 9973 33a5 01       		.uleb128 0x1
 9974 33a6 50       		.byte	0x50
 9975 33a7 05       		.uleb128 0x5
 9976 33a8 F3       		.byte	0xf3
 9977 33a9 01       		.uleb128 0x1
 9978 33aa 50       		.byte	0x50
 9979 33ab 23       		.byte	0x23
 9980 33ac 24       		.uleb128 0x24
 9981 33ad 00       		.byte	0
 9982 33ae 34       		.uleb128 0x34
 9983 33af 14000000 		.4byte	.LVL304
 9984 33b3 323D0000 		.4byte	0x3d32
 9985 33b7 35       		.uleb128 0x35
 9986 33b8 01       		.uleb128 0x1
 9987 33b9 51       		.byte	0x51
 9988 33ba 02       		.uleb128 0x2
 9989 33bb 08       		.byte	0x8
 9990 33bc 24       		.byte	0x24
 9991 33bd 00       		.byte	0
 9992 33be 00       		.byte	0
 9993 33bf 42       		.uleb128 0x42
 9994 33c0 CC240000 		.4byte	.LASF555
 9995 33c4 01       		.byte	0x1
 9996 33c5 57       		.byte	0x57
 9997 33c6 00000000 		.4byte	.LFB204
 9998 33ca 18000000 		.4byte	.LFE204-.LFB204
 9999 33ce 01       		.uleb128 0x1
 10000 33cf 9C       		.byte	0x9c
 10001 33d0 40340000 		.4byte	0x3440
 10002 33d4 40       		.uleb128 0x40
 10003 33d5 6F626A00 		.ascii	"obj\000"
 10004 33d9 01       		.byte	0x1
 10005 33da 57       		.byte	0x57
 10006 33db 27190000 		.4byte	0x1927
 10007 33df 5F0E0000 		.4byte	.LLST102
 10008 33e3 3E       		.uleb128 0x3e
ARM GAS  C:\Users\haske\AppData\Local\Temp\ccXBxzcA.s 			page 213


 10009 33e4 B61E0000 		.4byte	.LASF484
 10010 33e8 01       		.byte	0x1
 10011 33e9 57       		.byte	0x57
 10012 33ea C41B0000 		.4byte	0x1bc4
 10013 33ee 800E0000 		.4byte	.LLST103
 10014 33f2 40       		.uleb128 0x40
 10015 33f3 636E7400 		.ascii	"cnt\000"
 10016 33f7 01       		.byte	0x1
 10017 33f8 57       		.byte	0x57
 10018 33f9 CE000000 		.4byte	0xce
 10019 33fd A10E0000 		.4byte	.LLST104
 10020 3401 3E       		.uleb128 0x3e
 10021 3402 8D200000 		.4byte	.LASF256
 10022 3406 01       		.byte	0x1
 10023 3407 57       		.byte	0x57
 10024 3408 CE000000 		.4byte	0xce
 10025 340c C20E0000 		.4byte	.LLST105
 10026 3410 40       		.uleb128 0x40
 10027 3411 6C656E00 		.ascii	"len\000"
 10028 3415 01       		.byte	0x1
 10029 3416 57       		.byte	0x57
 10030 3417 CE000000 		.4byte	0xce
 10031 341b E30E0000 		.4byte	.LLST106
 10032 341f 3E       		.uleb128 0x3e
 10033 3420 421B0000 		.4byte	.LASF82
 10034 3424 01       		.byte	0x1
 10035 3425 58       		.byte	0x58
 10036 3426 E8030000 		.4byte	0x3e8
 10037 342a 0F0F0000 		.4byte	.LLST107
 10038 342e 34       		.uleb128 0x34
 10039 342f 16000000 		.4byte	.LVL311
 10040 3433 3D3D0000 		.4byte	0x3d3d
 10041 3437 35       		.uleb128 0x35
 10042 3438 01       		.uleb128 0x1
 10043 3439 50       		.byte	0x50
 10044 343a 03       		.uleb128 0x3
 10045 343b F3       		.byte	0xf3
 10046 343c 01       		.uleb128 0x1
 10047 343d 50       		.byte	0x50
 10048 343e 00       		.byte	0
 10049 343f 00       		.byte	0
 10050 3440 42       		.uleb128 0x42
 10051 3441 37090000 		.4byte	.LASF556
 10052 3445 01       		.byte	0x1
 10053 3446 61       		.byte	0x61
 10054 3447 00000000 		.4byte	.LFB205
 10055 344b 20000000 		.4byte	.LFE205-.LFB205
 10056 344f 01       		.uleb128 0x1
 10057 3450 9C       		.byte	0x9c
 10058 3451 D0340000 		.4byte	0x34d0
 10059 3455 40       		.uleb128 0x40
 10060 3456 6F626A00 		.ascii	"obj\000"
 10061 345a 01       		.byte	0x1
 10062 345b 61       		.byte	0x61
 10063 345c 27190000 		.4byte	0x1927
 10064 3460 2E0F0000 		.4byte	.LLST108
 10065 3464 3E       		.uleb128 0x3e
ARM GAS  C:\Users\haske\AppData\Local\Temp\ccXBxzcA.s 			page 214


 10066 3465 B61E0000 		.4byte	.LASF484
 10067 3469 01       		.byte	0x1
 10068 346a 61       		.byte	0x61
 10069 346b C41B0000 		.4byte	0x1bc4
 10070 346f 4F0F0000 		.4byte	.LLST109
 10071 3473 40       		.uleb128 0x40
 10072 3474 6E746800 		.ascii	"nth\000"
 10073 3478 01       		.byte	0x1
 10074 3479 61       		.byte	0x61
 10075 347a CE000000 		.4byte	0xce
 10076 347e 700F0000 		.4byte	.LLST110
 10077 3482 3E       		.uleb128 0x3e
 10078 3483 8D200000 		.4byte	.LASF256
 10079 3487 01       		.byte	0x1
 10080 3488 61       		.byte	0x61
 10081 3489 CE000000 		.4byte	0xce
 10082 348d 910F0000 		.4byte	.LLST111
 10083 3491 40       		.uleb128 0x40
 10084 3492 6C656E00 		.ascii	"len\000"
 10085 3496 01       		.byte	0x1
 10086 3497 62       		.byte	0x62
 10087 3498 CE000000 		.4byte	0xce
 10088 349c B20F0000 		.4byte	.LLST112
 10089 34a0 3E       		.uleb128 0x3e
 10090 34a1 421B0000 		.4byte	.LASF82
 10091 34a5 01       		.byte	0x1
 10092 34a6 62       		.byte	0x62
 10093 34a7 E8030000 		.4byte	0x3e8
 10094 34ab DE0F0000 		.4byte	.LLST113
 10095 34af 3E       		.uleb128 0x3e
 10096 34b0 6E020000 		.4byte	.LASF466
 10097 34b4 01       		.byte	0x1
 10098 34b5 62       		.byte	0x62
 10099 34b6 C3000000 		.4byte	0xc3
 10100 34ba FD0F0000 		.4byte	.LLST114
 10101 34be 34       		.uleb128 0x34
 10102 34bf 1E000000 		.4byte	.LVL320
 10103 34c3 3D3D0000 		.4byte	0x3d3d
 10104 34c7 35       		.uleb128 0x35
 10105 34c8 01       		.uleb128 0x1
 10106 34c9 50       		.byte	0x50
 10107 34ca 03       		.uleb128 0x3
 10108 34cb F3       		.byte	0xf3
 10109 34cc 01       		.uleb128 0x1
 10110 34cd 50       		.byte	0x50
 10111 34ce 00       		.byte	0
 10112 34cf 00       		.byte	0
 10113 34d0 42       		.uleb128 0x42
 10114 34d1 98100000 		.4byte	.LASF557
 10115 34d5 01       		.byte	0x1
 10116 34d6 6C       		.byte	0x6c
 10117 34d7 00000000 		.4byte	.LFB206
 10118 34db 14000000 		.4byte	.LFE206-.LFB206
 10119 34df 01       		.uleb128 0x1
 10120 34e0 9C       		.byte	0x9c
 10121 34e1 4F350000 		.4byte	0x354f
 10122 34e5 40       		.uleb128 0x40
ARM GAS  C:\Users\haske\AppData\Local\Temp\ccXBxzcA.s 			page 215


 10123 34e6 6F626A00 		.ascii	"obj\000"
 10124 34ea 01       		.byte	0x1
 10125 34eb 6C       		.byte	0x6c
 10126 34ec 27190000 		.4byte	0x1927
 10127 34f0 41100000 		.4byte	.LLST115
 10128 34f4 3E       		.uleb128 0x3e
 10129 34f5 B61E0000 		.4byte	.LASF484
 10130 34f9 01       		.byte	0x1
 10131 34fa 6C       		.byte	0x6c
 10132 34fb C41B0000 		.4byte	0x1bc4
 10133 34ff 62100000 		.4byte	.LLST116
 10134 3503 40       		.uleb128 0x40
 10135 3504 6D696E00 		.ascii	"min\000"
 10136 3508 01       		.byte	0x1
 10137 3509 6C       		.byte	0x6c
 10138 350a D9000000 		.4byte	0xd9
 10139 350e 83100000 		.4byte	.LLST117
 10140 3512 40       		.uleb128 0x40
 10141 3513 6D617800 		.ascii	"max\000"
 10142 3517 01       		.byte	0x1
 10143 3518 6C       		.byte	0x6c
 10144 3519 D9000000 		.4byte	0xd9
 10145 351d A4100000 		.4byte	.LLST118
 10146 3521 43       		.uleb128 0x43
 10147 3522 D1210000 		.4byte	.LASF469
 10148 3526 01       		.byte	0x1
 10149 3527 6C       		.byte	0x6c
 10150 3528 E4000000 		.4byte	0xe4
 10151 352c 02       		.uleb128 0x2
 10152 352d 91       		.byte	0x91
 10153 352e 00       		.sleb128 0
 10154 352f 43       		.uleb128 0x43
 10155 3530 AC060000 		.4byte	.LASF470
 10156 3534 01       		.byte	0x1
 10157 3535 6D       		.byte	0x6d
 10158 3536 E4000000 		.4byte	0xe4
 10159 353a 02       		.uleb128 0x2
 10160 353b 91       		.byte	0x91
 10161 353c 04       		.sleb128 4
 10162 353d 34       		.uleb128 0x34
 10163 353e 12000000 		.4byte	.LVL324
 10164 3542 3D3D0000 		.4byte	0x3d3d
 10165 3546 35       		.uleb128 0x35
 10166 3547 01       		.uleb128 0x1
 10167 3548 50       		.byte	0x50
 10168 3549 03       		.uleb128 0x3
 10169 354a F3       		.byte	0xf3
 10170 354b 01       		.uleb128 0x1
 10171 354c 50       		.byte	0x50
 10172 354d 00       		.byte	0
 10173 354e 00       		.byte	0
 10174 354f 3D       		.uleb128 0x3d
 10175 3550 6D070000 		.4byte	.LASF558
 10176 3554 01       		.byte	0x1
 10177 3555 7A       		.byte	0x7a
 10178 3556 6B200000 		.4byte	0x206b
 10179 355a 00000000 		.4byte	.LFB207
ARM GAS  C:\Users\haske\AppData\Local\Temp\ccXBxzcA.s 			page 216


 10180 355e 4C000000 		.4byte	.LFE207-.LFB207
 10181 3562 01       		.uleb128 0x1
 10182 3563 9C       		.byte	0x9c
 10183 3564 09360000 		.4byte	0x3609
 10184 3568 40       		.uleb128 0x40
 10185 3569 6F626A00 		.ascii	"obj\000"
 10186 356d 01       		.byte	0x1
 10187 356e 7A       		.byte	0x7a
 10188 356f 27190000 		.4byte	0x1927
 10189 3573 D1100000 		.4byte	.LLST119
 10190 3577 3E       		.uleb128 0x3e
 10191 3578 B61E0000 		.4byte	.LASF484
 10192 357c 01       		.byte	0x1
 10193 357d 7A       		.byte	0x7a
 10194 357e C41B0000 		.4byte	0x1bc4
 10195 3582 FD100000 		.4byte	.LLST120
 10196 3586 3E       		.uleb128 0x3e
 10197 3587 8D200000 		.4byte	.LASF256
 10198 358b 01       		.byte	0x1
 10199 358c 7A       		.byte	0x7a
 10200 358d CE000000 		.4byte	0xce
 10201 3591 29110000 		.4byte	.LLST121
 10202 3595 3E       		.uleb128 0x3e
 10203 3596 421B0000 		.4byte	.LASF82
 10204 359a 01       		.byte	0x1
 10205 359b 7B       		.byte	0x7b
 10206 359c E8030000 		.4byte	0x3e8
 10207 35a0 4A110000 		.4byte	.LLST122
 10208 35a4 3E       		.uleb128 0x3e
 10209 35a5 E3070000 		.4byte	.LASF468
 10210 35a9 01       		.byte	0x1
 10211 35aa 7B       		.byte	0x7b
 10212 35ab C3000000 		.4byte	0xc3
 10213 35af 68110000 		.4byte	.LLST123
 10214 35b3 41       		.uleb128 0x41
 10215 35b4 51180000 		.4byte	.LASF507
 10216 35b8 01       		.byte	0x1
 10217 35b9 7E       		.byte	0x7e
 10218 35ba 65200000 		.4byte	0x2065
 10219 35be 94110000 		.4byte	.LLST124
 10220 35c2 41       		.uleb128 0x41
 10221 35c3 22080000 		.4byte	.LASF511
 10222 35c7 01       		.byte	0x1
 10223 35c8 7F       		.byte	0x7f
 10224 35c9 6B200000 		.4byte	0x206b
 10225 35cd C0110000 		.4byte	.LLST125
 10226 35d1 38       		.uleb128 0x38
 10227 35d2 1C000000 		.4byte	.LVL329
 10228 35d6 273D0000 		.4byte	0x3d27
 10229 35da E5350000 		.4byte	0x35e5
 10230 35de 35       		.uleb128 0x35
 10231 35df 01       		.uleb128 0x1
 10232 35e0 50       		.byte	0x50
 10233 35e1 02       		.uleb128 0x2
 10234 35e2 75       		.byte	0x75
 10235 35e3 30       		.sleb128 48
 10236 35e4 00       		.byte	0
ARM GAS  C:\Users\haske\AppData\Local\Temp\ccXBxzcA.s 			page 217


 10237 35e5 38       		.uleb128 0x38
 10238 35e6 28000000 		.4byte	.LVL331
 10239 35ea 323D0000 		.4byte	0x3d32
 10240 35ee F8350000 		.4byte	0x35f8
 10241 35f2 35       		.uleb128 0x35
 10242 35f3 01       		.uleb128 0x1
 10243 35f4 51       		.byte	0x51
 10244 35f5 01       		.uleb128 0x1
 10245 35f6 4C       		.byte	0x4c
 10246 35f7 00       		.byte	0
 10247 35f8 34       		.uleb128 0x34
 10248 35f9 42000000 		.4byte	.LVL333
 10249 35fd 3D3D0000 		.4byte	0x3d3d
 10250 3601 35       		.uleb128 0x35
 10251 3602 01       		.uleb128 0x1
 10252 3603 50       		.byte	0x50
 10253 3604 02       		.uleb128 0x2
 10254 3605 75       		.byte	0x75
 10255 3606 00       		.sleb128 0
 10256 3607 00       		.byte	0
 10257 3608 00       		.byte	0
 10258 3609 3D       		.uleb128 0x3d
 10259 360a AB240000 		.4byte	.LASF559
 10260 360e 01       		.byte	0x1
 10261 360f 8E       		.byte	0x8e
 10262 3610 6B200000 		.4byte	0x206b
 10263 3614 00000000 		.4byte	.LFB208
 10264 3618 4C000000 		.4byte	.LFE208-.LFB208
 10265 361c 01       		.uleb128 0x1
 10266 361d 9C       		.byte	0x9c
 10267 361e C3360000 		.4byte	0x36c3
 10268 3622 40       		.uleb128 0x40
 10269 3623 6F626A00 		.ascii	"obj\000"
 10270 3627 01       		.byte	0x1
 10271 3628 8E       		.byte	0x8e
 10272 3629 27190000 		.4byte	0x1927
 10273 362d E9110000 		.4byte	.LLST126
 10274 3631 3E       		.uleb128 0x3e
 10275 3632 B61E0000 		.4byte	.LASF484
 10276 3636 01       		.byte	0x1
 10277 3637 8E       		.byte	0x8e
 10278 3638 C41B0000 		.4byte	0x1bc4
 10279 363c 15120000 		.4byte	.LLST127
 10280 3640 40       		.uleb128 0x40
 10281 3641 73726300 		.ascii	"src\000"
 10282 3645 01       		.byte	0x1
 10283 3646 8E       		.byte	0x8e
 10284 3647 1C030000 		.4byte	0x31c
 10285 364b 41120000 		.4byte	.LLST128
 10286 364f 3E       		.uleb128 0x3e
 10287 3650 08070000 		.4byte	.LASF560
 10288 3654 01       		.byte	0x1
 10289 3655 8F       		.byte	0x8f
 10290 3656 3B010000 		.4byte	0x13b
 10291 365a 6D120000 		.4byte	.LLST129
 10292 365e 3E       		.uleb128 0x3e
 10293 365f 10070000 		.4byte	.LASF561
ARM GAS  C:\Users\haske\AppData\Local\Temp\ccXBxzcA.s 			page 218


 10294 3663 01       		.byte	0x1
 10295 3664 8F       		.byte	0x8f
 10296 3665 3B010000 		.4byte	0x13b
 10297 3669 8E120000 		.4byte	.LLST130
 10298 366d 41       		.uleb128 0x41
 10299 366e 51180000 		.4byte	.LASF507
 10300 3672 01       		.byte	0x1
 10301 3673 92       		.byte	0x92
 10302 3674 65200000 		.4byte	0x2065
 10303 3678 BA120000 		.4byte	.LLST131
 10304 367c 41       		.uleb128 0x41
 10305 367d 22080000 		.4byte	.LASF511
 10306 3681 01       		.byte	0x1
 10307 3682 93       		.byte	0x93
 10308 3683 6B200000 		.4byte	0x206b
 10309 3687 E6120000 		.4byte	.LLST132
 10310 368b 38       		.uleb128 0x38
 10311 368c 1C000000 		.4byte	.LVL342
 10312 3690 273D0000 		.4byte	0x3d27
 10313 3694 9F360000 		.4byte	0x369f
 10314 3698 35       		.uleb128 0x35
 10315 3699 01       		.uleb128 0x1
 10316 369a 50       		.byte	0x50
 10317 369b 02       		.uleb128 0x2
 10318 369c 75       		.byte	0x75
 10319 369d 30       		.sleb128 48
 10320 369e 00       		.byte	0
 10321 369f 38       		.uleb128 0x38
 10322 36a0 28000000 		.4byte	.LVL344
 10323 36a4 323D0000 		.4byte	0x3d32
 10324 36a8 B2360000 		.4byte	0x36b2
 10325 36ac 35       		.uleb128 0x35
 10326 36ad 01       		.uleb128 0x1
 10327 36ae 51       		.byte	0x51
 10328 36af 01       		.uleb128 0x1
 10329 36b0 4C       		.byte	0x4c
 10330 36b1 00       		.byte	0
 10331 36b2 34       		.uleb128 0x34
 10332 36b3 42000000 		.4byte	.LVL345
 10333 36b7 3D3D0000 		.4byte	0x3d3d
 10334 36bb 35       		.uleb128 0x35
 10335 36bc 01       		.uleb128 0x1
 10336 36bd 50       		.byte	0x50
 10337 36be 02       		.uleb128 0x2
 10338 36bf 75       		.byte	0x75
 10339 36c0 00       		.sleb128 0
 10340 36c1 00       		.byte	0
 10341 36c2 00       		.byte	0
 10342 36c3 3D       		.uleb128 0x3d
 10343 36c4 BA0F0000 		.4byte	.LASF562
 10344 36c8 01       		.byte	0x1
 10345 36c9 A2       		.byte	0xa2
 10346 36ca 6B200000 		.4byte	0x206b
 10347 36ce 00000000 		.4byte	.LFB209
 10348 36d2 4C000000 		.4byte	.LFE209-.LFB209
 10349 36d6 01       		.uleb128 0x1
 10350 36d7 9C       		.byte	0x9c
ARM GAS  C:\Users\haske\AppData\Local\Temp\ccXBxzcA.s 			page 219


 10351 36d8 7D370000 		.4byte	0x377d
 10352 36dc 40       		.uleb128 0x40
 10353 36dd 6F626A00 		.ascii	"obj\000"
 10354 36e1 01       		.byte	0x1
 10355 36e2 A2       		.byte	0xa2
 10356 36e3 27190000 		.4byte	0x1927
 10357 36e7 0F130000 		.4byte	.LLST133
 10358 36eb 3E       		.uleb128 0x3e
 10359 36ec B61E0000 		.4byte	.LASF484
 10360 36f0 01       		.byte	0x1
 10361 36f1 A2       		.byte	0xa2
 10362 36f2 C41B0000 		.4byte	0x1bc4
 10363 36f6 3B130000 		.4byte	.LLST134
 10364 36fa 3E       		.uleb128 0x3e
 10365 36fb 8D200000 		.4byte	.LASF256
 10366 36ff 01       		.byte	0x1
 10367 3700 A2       		.byte	0xa2
 10368 3701 CE000000 		.4byte	0xce
 10369 3705 67130000 		.4byte	.LLST135
 10370 3709 3E       		.uleb128 0x3e
 10371 370a 421B0000 		.4byte	.LASF82
 10372 370e 01       		.byte	0x1
 10373 370f A2       		.byte	0xa2
 10374 3710 E8030000 		.4byte	0x3e8
 10375 3714 88130000 		.4byte	.LLST136
 10376 3718 3E       		.uleb128 0x3e
 10377 3719 E3070000 		.4byte	.LASF468
 10378 371d 01       		.byte	0x1
 10379 371e A3       		.byte	0xa3
 10380 371f C3000000 		.4byte	0xc3
 10381 3723 A6130000 		.4byte	.LLST137
 10382 3727 41       		.uleb128 0x41
 10383 3728 51180000 		.4byte	.LASF507
 10384 372c 01       		.byte	0x1
 10385 372d A6       		.byte	0xa6
 10386 372e 65200000 		.4byte	0x2065
 10387 3732 D2130000 		.4byte	.LLST138
 10388 3736 41       		.uleb128 0x41
 10389 3737 22080000 		.4byte	.LASF511
 10390 373b 01       		.byte	0x1
 10391 373c A7       		.byte	0xa7
 10392 373d 6B200000 		.4byte	0x206b
 10393 3741 FE130000 		.4byte	.LLST139
 10394 3745 38       		.uleb128 0x38
 10395 3746 1C000000 		.4byte	.LVL354
 10396 374a 273D0000 		.4byte	0x3d27
 10397 374e 59370000 		.4byte	0x3759
 10398 3752 35       		.uleb128 0x35
 10399 3753 01       		.uleb128 0x1
 10400 3754 50       		.byte	0x50
 10401 3755 02       		.uleb128 0x2
 10402 3756 75       		.byte	0x75
 10403 3757 30       		.sleb128 48
 10404 3758 00       		.byte	0
 10405 3759 38       		.uleb128 0x38
 10406 375a 28000000 		.4byte	.LVL356
 10407 375e 323D0000 		.4byte	0x3d32
ARM GAS  C:\Users\haske\AppData\Local\Temp\ccXBxzcA.s 			page 220


 10408 3762 6C370000 		.4byte	0x376c
 10409 3766 35       		.uleb128 0x35
 10410 3767 01       		.uleb128 0x1
 10411 3768 51       		.byte	0x51
 10412 3769 01       		.uleb128 0x1
 10413 376a 4C       		.byte	0x4c
 10414 376b 00       		.byte	0
 10415 376c 34       		.uleb128 0x34
 10416 376d 42000000 		.4byte	.LVL358
 10417 3771 3D3D0000 		.4byte	0x3d3d
 10418 3775 35       		.uleb128 0x35
 10419 3776 01       		.uleb128 0x1
 10420 3777 50       		.byte	0x50
 10421 3778 02       		.uleb128 0x2
 10422 3779 75       		.byte	0x75
 10423 377a 00       		.sleb128 0
 10424 377b 00       		.byte	0
 10425 377c 00       		.byte	0
 10426 377d 3D       		.uleb128 0x3d
 10427 377e 5A1E0000 		.4byte	.LASF563
 10428 3782 01       		.byte	0x1
 10429 3783 B6       		.byte	0xb6
 10430 3784 6B200000 		.4byte	0x206b
 10431 3788 00000000 		.4byte	.LFB210
 10432 378c 64000000 		.4byte	.LFE210-.LFB210
 10433 3790 01       		.uleb128 0x1
 10434 3791 9C       		.byte	0x9c
 10435 3792 46380000 		.4byte	0x3846
 10436 3796 40       		.uleb128 0x40
 10437 3797 6F626A00 		.ascii	"obj\000"
 10438 379b 01       		.byte	0x1
 10439 379c B6       		.byte	0xb6
 10440 379d 27190000 		.4byte	0x1927
 10441 37a1 27140000 		.4byte	.LLST140
 10442 37a5 3E       		.uleb128 0x3e
 10443 37a6 B61E0000 		.4byte	.LASF484
 10444 37aa 01       		.byte	0x1
 10445 37ab B6       		.byte	0xb6
 10446 37ac C41B0000 		.4byte	0x1bc4
 10447 37b0 53140000 		.4byte	.LLST141
 10448 37b4 3E       		.uleb128 0x3e
 10449 37b5 52010000 		.4byte	.LASF478
 10450 37b9 01       		.byte	0x1
 10451 37ba B6       		.byte	0xb6
 10452 37bb E8030000 		.4byte	0x3e8
 10453 37bf 7F140000 		.4byte	.LLST142
 10454 37c3 3E       		.uleb128 0x3e
 10455 37c4 CB0F0000 		.4byte	.LASF479
 10456 37c8 01       		.byte	0x1
 10457 37c9 B7       		.byte	0xb7
 10458 37ca E8030000 		.4byte	0x3e8
 10459 37ce 9D140000 		.4byte	.LLST143
 10460 37d2 3E       		.uleb128 0x3e
 10461 37d3 100F0000 		.4byte	.LASF564
 10462 37d7 01       		.byte	0x1
 10463 37d8 B7       		.byte	0xb7
 10464 37d9 E4020000 		.4byte	0x2e4
ARM GAS  C:\Users\haske\AppData\Local\Temp\ccXBxzcA.s 			page 221


 10465 37dd BB140000 		.4byte	.LLST144
 10466 37e1 3E       		.uleb128 0x3e
 10467 37e2 051A0000 		.4byte	.LASF477
 10468 37e6 01       		.byte	0x1
 10469 37e7 B7       		.byte	0xb7
 10470 37e8 C3000000 		.4byte	0xc3
 10471 37ec E7140000 		.4byte	.LLST145
 10472 37f0 41       		.uleb128 0x41
 10473 37f1 51180000 		.4byte	.LASF507
 10474 37f5 01       		.byte	0x1
 10475 37f6 BA       		.byte	0xba
 10476 37f7 65200000 		.4byte	0x2065
 10477 37fb 1F150000 		.4byte	.LLST146
 10478 37ff 41       		.uleb128 0x41
 10479 3800 22080000 		.4byte	.LASF511
 10480 3804 01       		.byte	0x1
 10481 3805 BB       		.byte	0xbb
 10482 3806 6B200000 		.4byte	0x206b
 10483 380a 4B150000 		.4byte	.LLST147
 10484 380e 38       		.uleb128 0x38
 10485 380f 22000000 		.4byte	.LVL368
 10486 3813 273D0000 		.4byte	0x3d27
 10487 3817 22380000 		.4byte	0x3822
 10488 381b 35       		.uleb128 0x35
 10489 381c 01       		.uleb128 0x1
 10490 381d 50       		.byte	0x50
 10491 381e 02       		.uleb128 0x2
 10492 381f 76       		.byte	0x76
 10493 3820 30       		.sleb128 48
 10494 3821 00       		.byte	0
 10495 3822 38       		.uleb128 0x38
 10496 3823 2E000000 		.4byte	.LVL370
 10497 3827 323D0000 		.4byte	0x3d32
 10498 382b 35380000 		.4byte	0x3835
 10499 382f 35       		.uleb128 0x35
 10500 3830 01       		.uleb128 0x1
 10501 3831 51       		.byte	0x51
 10502 3832 01       		.uleb128 0x1
 10503 3833 4C       		.byte	0x4c
 10504 3834 00       		.byte	0
 10505 3835 34       		.uleb128 0x34
 10506 3836 58000000 		.4byte	.LVL373
 10507 383a 3D3D0000 		.4byte	0x3d3d
 10508 383e 35       		.uleb128 0x35
 10509 383f 01       		.uleb128 0x1
 10510 3840 50       		.byte	0x50
 10511 3841 02       		.uleb128 0x2
 10512 3842 76       		.byte	0x76
 10513 3843 00       		.sleb128 0
 10514 3844 00       		.byte	0
 10515 3845 00       		.byte	0
 10516 3846 42       		.uleb128 0x42
 10517 3847 D6190000 		.4byte	.LASF565
 10518 384b 01       		.byte	0x1
 10519 384c CF       		.byte	0xcf
 10520 384d 00000000 		.4byte	.LFB211
 10521 3851 4E000000 		.4byte	.LFE211-.LFB211
ARM GAS  C:\Users\haske\AppData\Local\Temp\ccXBxzcA.s 			page 222


 10522 3855 01       		.uleb128 0x1
 10523 3856 9C       		.byte	0x9c
 10524 3857 3F390000 		.4byte	0x393f
 10525 385b 40       		.uleb128 0x40
 10526 385c 6F626A00 		.ascii	"obj\000"
 10527 3860 01       		.byte	0x1
 10528 3861 CF       		.byte	0xcf
 10529 3862 27190000 		.4byte	0x1927
 10530 3866 74150000 		.4byte	.LLST148
 10531 386a 3E       		.uleb128 0x3e
 10532 386b 22080000 		.4byte	.LASF511
 10533 386f 01       		.byte	0x1
 10534 3870 CF       		.byte	0xcf
 10535 3871 6B200000 		.4byte	0x206b
 10536 3875 CC150000 		.4byte	.LLST149
 10537 3879 3E       		.uleb128 0x3e
 10538 387a DF0F0000 		.4byte	.LASF181
 10539 387e 01       		.byte	0x1
 10540 387f CF       		.byte	0xcf
 10541 3880 D9000000 		.4byte	0xd9
 10542 3884 24160000 		.4byte	.LLST150
 10543 3888 41       		.uleb128 0x41
 10544 3889 7C0F0000 		.4byte	.LASF566
 10545 388d 01       		.byte	0x1
 10546 388e D1       		.byte	0xd1
 10547 388f D9000000 		.4byte	0xd9
 10548 3893 50160000 		.4byte	.LLST151
 10549 3897 41       		.uleb128 0x41
 10550 3898 68200000 		.4byte	.LASF567
 10551 389c 01       		.byte	0x1
 10552 389d D2       		.byte	0xd2
 10553 389e D9000000 		.4byte	0xd9
 10554 38a2 79160000 		.4byte	.LLST152
 10555 38a6 38       		.uleb128 0x38
 10556 38a7 1C000000 		.4byte	.LVL382
 10557 38ab 1D2F0000 		.4byte	0x2f1d
 10558 38af C6380000 		.4byte	0x38c6
 10559 38b3 35       		.uleb128 0x35
 10560 38b4 01       		.uleb128 0x1
 10561 38b5 50       		.byte	0x50
 10562 38b6 02       		.uleb128 0x2
 10563 38b7 76       		.byte	0x76
 10564 38b8 00       		.sleb128 0
 10565 38b9 35       		.uleb128 0x35
 10566 38ba 01       		.uleb128 0x1
 10567 38bb 51       		.byte	0x51
 10568 38bc 02       		.uleb128 0x2
 10569 38bd 74       		.byte	0x74
 10570 38be 00       		.sleb128 0
 10571 38bf 35       		.uleb128 0x35
 10572 38c0 01       		.uleb128 0x1
 10573 38c1 53       		.byte	0x53
 10574 38c2 02       		.uleb128 0x2
 10575 38c3 75       		.byte	0x75
 10576 38c4 00       		.sleb128 0
 10577 38c5 00       		.byte	0
 10578 38c6 38       		.uleb128 0x38
ARM GAS  C:\Users\haske\AppData\Local\Temp\ccXBxzcA.s 			page 223


 10579 38c7 28000000 		.4byte	.LVL383
 10580 38cb 1D2F0000 		.4byte	0x2f1d
 10581 38cf EC380000 		.4byte	0x38ec
 10582 38d3 35       		.uleb128 0x35
 10583 38d4 01       		.uleb128 0x1
 10584 38d5 50       		.byte	0x50
 10585 38d6 02       		.uleb128 0x2
 10586 38d7 76       		.byte	0x76
 10587 38d8 00       		.sleb128 0
 10588 38d9 35       		.uleb128 0x35
 10589 38da 01       		.uleb128 0x1
 10590 38db 51       		.byte	0x51
 10591 38dc 02       		.uleb128 0x2
 10592 38dd 74       		.byte	0x74
 10593 38de 00       		.sleb128 0
 10594 38df 35       		.uleb128 0x35
 10595 38e0 01       		.uleb128 0x1
 10596 38e1 52       		.byte	0x52
 10597 38e2 02       		.uleb128 0x2
 10598 38e3 77       		.byte	0x77
 10599 38e4 00       		.sleb128 0
 10600 38e5 35       		.uleb128 0x35
 10601 38e6 01       		.uleb128 0x1
 10602 38e7 53       		.byte	0x53
 10603 38e8 02       		.uleb128 0x2
 10604 38e9 75       		.byte	0x75
 10605 38ea 00       		.sleb128 0
 10606 38eb 00       		.byte	0
 10607 38ec 44       		.uleb128 0x44
 10608 38ed 32000000 		.4byte	.LVL385
 10609 38f1 ED300000 		.4byte	0x30ed
 10610 38f5 38       		.uleb128 0x38
 10611 38f6 3C000000 		.4byte	.LVL386
 10612 38fa ED300000 		.4byte	0x30ed
 10613 38fe 15390000 		.4byte	0x3915
 10614 3902 35       		.uleb128 0x35
 10615 3903 01       		.uleb128 0x1
 10616 3904 50       		.byte	0x50
 10617 3905 02       		.uleb128 0x2
 10618 3906 76       		.byte	0x76
 10619 3907 00       		.sleb128 0
 10620 3908 35       		.uleb128 0x35
 10621 3909 01       		.uleb128 0x1
 10622 390a 51       		.byte	0x51
 10623 390b 02       		.uleb128 0x2
 10624 390c 74       		.byte	0x74
 10625 390d 00       		.sleb128 0
 10626 390e 35       		.uleb128 0x35
 10627 390f 01       		.uleb128 0x1
 10628 3910 52       		.byte	0x52
 10629 3911 02       		.uleb128 0x2
 10630 3912 77       		.byte	0x77
 10631 3913 00       		.sleb128 0
 10632 3914 00       		.byte	0
 10633 3915 38       		.uleb128 0x38
 10634 3916 46000000 		.4byte	.LVL387
 10635 391a ED300000 		.4byte	0x30ed
ARM GAS  C:\Users\haske\AppData\Local\Temp\ccXBxzcA.s 			page 224


 10636 391e 35390000 		.4byte	0x3935
 10637 3922 35       		.uleb128 0x35
 10638 3923 01       		.uleb128 0x1
 10639 3924 50       		.byte	0x50
 10640 3925 02       		.uleb128 0x2
 10641 3926 76       		.byte	0x76
 10642 3927 00       		.sleb128 0
 10643 3928 35       		.uleb128 0x35
 10644 3929 01       		.uleb128 0x1
 10645 392a 51       		.byte	0x51
 10646 392b 02       		.uleb128 0x2
 10647 392c 74       		.byte	0x74
 10648 392d 00       		.sleb128 0
 10649 392e 35       		.uleb128 0x35
 10650 392f 01       		.uleb128 0x1
 10651 3930 52       		.byte	0x52
 10652 3931 02       		.uleb128 0x2
 10653 3932 75       		.byte	0x75
 10654 3933 00       		.sleb128 0
 10655 3934 00       		.byte	0
 10656 3935 44       		.uleb128 0x44
 10657 3936 4C000000 		.4byte	.LVL389
 10658 393a 3D3D0000 		.4byte	0x3d3d
 10659 393e 00       		.byte	0
 10660 393f 42       		.uleb128 0x42
 10661 3940 95110000 		.4byte	.LASF568
 10662 3944 01       		.byte	0x1
 10663 3945 E4       		.byte	0xe4
 10664 3946 00000000 		.4byte	.LFB212
 10665 394a 34000000 		.4byte	.LFE212-.LFB212
 10666 394e 01       		.uleb128 0x1
 10667 394f 9C       		.byte	0x9c
 10668 3950 E3390000 		.4byte	0x39e3
 10669 3954 40       		.uleb128 0x40
 10670 3955 6F626A00 		.ascii	"obj\000"
 10671 3959 01       		.byte	0x1
 10672 395a E4       		.byte	0xe4
 10673 395b 27190000 		.4byte	0x1927
 10674 395f 8C160000 		.4byte	.LLST153
 10675 3963 3E       		.uleb128 0x3e
 10676 3964 22080000 		.4byte	.LASF511
 10677 3968 01       		.byte	0x1
 10678 3969 E4       		.byte	0xe4
 10679 396a 6B200000 		.4byte	0x206b
 10680 396e E4160000 		.4byte	.LLST154
 10681 3972 3E       		.uleb128 0x3e
 10682 3973 DF0F0000 		.4byte	.LASF181
 10683 3977 01       		.byte	0x1
 10684 3978 E4       		.byte	0xe4
 10685 3979 D9000000 		.4byte	0xd9
 10686 397d 3C170000 		.4byte	.LLST155
 10687 3981 41       		.uleb128 0x41
 10688 3982 470B0000 		.4byte	.LASF550
 10689 3986 01       		.byte	0x1
 10690 3987 E6       		.byte	0xe6
 10691 3988 D9000000 		.4byte	0xd9
 10692 398c 68170000 		.4byte	.LLST156
ARM GAS  C:\Users\haske\AppData\Local\Temp\ccXBxzcA.s 			page 225


 10693 3990 38       		.uleb128 0x38
 10694 3991 18000000 		.4byte	.LVL396
 10695 3995 1D2F0000 		.4byte	0x2f1d
 10696 3999 B0390000 		.4byte	0x39b0
 10697 399d 35       		.uleb128 0x35
 10698 399e 01       		.uleb128 0x1
 10699 399f 50       		.byte	0x50
 10700 39a0 02       		.uleb128 0x2
 10701 39a1 76       		.byte	0x76
 10702 39a2 00       		.sleb128 0
 10703 39a3 35       		.uleb128 0x35
 10704 39a4 01       		.uleb128 0x1
 10705 39a5 51       		.byte	0x51
 10706 39a6 02       		.uleb128 0x2
 10707 39a7 74       		.byte	0x74
 10708 39a8 00       		.sleb128 0
 10709 39a9 35       		.uleb128 0x35
 10710 39aa 01       		.uleb128 0x1
 10711 39ab 53       		.byte	0x53
 10712 39ac 02       		.uleb128 0x2
 10713 39ad 75       		.byte	0x75
 10714 39ae 00       		.sleb128 0
 10715 39af 00       		.byte	0
 10716 39b0 44       		.uleb128 0x44
 10717 39b1 22000000 		.4byte	.LVL398
 10718 39b5 ED300000 		.4byte	0x30ed
 10719 39b9 38       		.uleb128 0x38
 10720 39ba 2C000000 		.4byte	.LVL399
 10721 39be ED300000 		.4byte	0x30ed
 10722 39c2 D9390000 		.4byte	0x39d9
 10723 39c6 35       		.uleb128 0x35
 10724 39c7 01       		.uleb128 0x1
 10725 39c8 50       		.byte	0x50
 10726 39c9 02       		.uleb128 0x2
 10727 39ca 76       		.byte	0x76
 10728 39cb 00       		.sleb128 0
 10729 39cc 35       		.uleb128 0x35
 10730 39cd 01       		.uleb128 0x1
 10731 39ce 51       		.byte	0x51
 10732 39cf 02       		.uleb128 0x2
 10733 39d0 74       		.byte	0x74
 10734 39d1 00       		.sleb128 0
 10735 39d2 35       		.uleb128 0x35
 10736 39d3 01       		.uleb128 0x1
 10737 39d4 52       		.byte	0x52
 10738 39d5 02       		.uleb128 0x2
 10739 39d6 75       		.byte	0x75
 10740 39d7 00       		.sleb128 0
 10741 39d8 00       		.byte	0
 10742 39d9 44       		.uleb128 0x44
 10743 39da 32000000 		.4byte	.LVL401
 10744 39de 3D3D0000 		.4byte	0x3d3d
 10745 39e2 00       		.byte	0
 10746 39e3 42       		.uleb128 0x42
 10747 39e4 AD1D0000 		.4byte	.LASF569
 10748 39e8 01       		.byte	0x1
 10749 39e9 F5       		.byte	0xf5
ARM GAS  C:\Users\haske\AppData\Local\Temp\ccXBxzcA.s 			page 226


 10750 39ea 00000000 		.4byte	.LFB213
 10751 39ee 34000000 		.4byte	.LFE213-.LFB213
 10752 39f2 01       		.uleb128 0x1
 10753 39f3 9C       		.byte	0x9c
 10754 39f4 873A0000 		.4byte	0x3a87
 10755 39f8 40       		.uleb128 0x40
 10756 39f9 6F626A00 		.ascii	"obj\000"
 10757 39fd 01       		.byte	0x1
 10758 39fe F5       		.byte	0xf5
 10759 39ff 27190000 		.4byte	0x1927
 10760 3a03 91170000 		.4byte	.LLST157
 10761 3a07 3E       		.uleb128 0x3e
 10762 3a08 22080000 		.4byte	.LASF511
 10763 3a0c 01       		.byte	0x1
 10764 3a0d F5       		.byte	0xf5
 10765 3a0e 6B200000 		.4byte	0x206b
 10766 3a12 E9170000 		.4byte	.LLST158
 10767 3a16 3E       		.uleb128 0x3e
 10768 3a17 DF0F0000 		.4byte	.LASF181
 10769 3a1b 01       		.byte	0x1
 10770 3a1c F5       		.byte	0xf5
 10771 3a1d D9000000 		.4byte	0xd9
 10772 3a21 41180000 		.4byte	.LLST159
 10773 3a25 41       		.uleb128 0x41
 10774 3a26 470B0000 		.4byte	.LASF550
 10775 3a2a 01       		.byte	0x1
 10776 3a2b F7       		.byte	0xf7
 10777 3a2c D9000000 		.4byte	0xd9
 10778 3a30 6D180000 		.4byte	.LLST160
 10779 3a34 38       		.uleb128 0x38
 10780 3a35 18000000 		.4byte	.LVL407
 10781 3a39 1D2F0000 		.4byte	0x2f1d
 10782 3a3d 543A0000 		.4byte	0x3a54
 10783 3a41 35       		.uleb128 0x35
 10784 3a42 01       		.uleb128 0x1
 10785 3a43 50       		.byte	0x50
 10786 3a44 02       		.uleb128 0x2
 10787 3a45 76       		.byte	0x76
 10788 3a46 00       		.sleb128 0
 10789 3a47 35       		.uleb128 0x35
 10790 3a48 01       		.uleb128 0x1
 10791 3a49 51       		.byte	0x51
 10792 3a4a 02       		.uleb128 0x2
 10793 3a4b 74       		.byte	0x74
 10794 3a4c 00       		.sleb128 0
 10795 3a4d 35       		.uleb128 0x35
 10796 3a4e 01       		.uleb128 0x1
 10797 3a4f 53       		.byte	0x53
 10798 3a50 02       		.uleb128 0x2
 10799 3a51 75       		.byte	0x75
 10800 3a52 00       		.sleb128 0
 10801 3a53 00       		.byte	0
 10802 3a54 44       		.uleb128 0x44
 10803 3a55 22000000 		.4byte	.LVL409
 10804 3a59 ED300000 		.4byte	0x30ed
 10805 3a5d 38       		.uleb128 0x38
 10806 3a5e 2C000000 		.4byte	.LVL410
ARM GAS  C:\Users\haske\AppData\Local\Temp\ccXBxzcA.s 			page 227


 10807 3a62 ED300000 		.4byte	0x30ed
 10808 3a66 7D3A0000 		.4byte	0x3a7d
 10809 3a6a 35       		.uleb128 0x35
 10810 3a6b 01       		.uleb128 0x1
 10811 3a6c 50       		.byte	0x50
 10812 3a6d 02       		.uleb128 0x2
 10813 3a6e 76       		.byte	0x76
 10814 3a6f 00       		.sleb128 0
 10815 3a70 35       		.uleb128 0x35
 10816 3a71 01       		.uleb128 0x1
 10817 3a72 51       		.byte	0x51
 10818 3a73 02       		.uleb128 0x2
 10819 3a74 74       		.byte	0x74
 10820 3a75 00       		.sleb128 0
 10821 3a76 35       		.uleb128 0x35
 10822 3a77 01       		.uleb128 0x1
 10823 3a78 52       		.byte	0x52
 10824 3a79 02       		.uleb128 0x2
 10825 3a7a 75       		.byte	0x75
 10826 3a7b 00       		.sleb128 0
 10827 3a7c 00       		.byte	0
 10828 3a7d 44       		.uleb128 0x44
 10829 3a7e 32000000 		.4byte	.LVL412
 10830 3a82 3D3D0000 		.4byte	0x3d3d
 10831 3a86 00       		.byte	0
 10832 3a87 45       		.uleb128 0x45
 10833 3a88 75170000 		.4byte	.LASF570
 10834 3a8c 0A       		.byte	0xa
 10835 3a8d 94       		.byte	0x94
 10836 3a8e 7F0B0000 		.4byte	0xb7f
 10837 3a92 45       		.uleb128 0x45
 10838 3a93 1A110000 		.4byte	.LASF571
 10839 3a97 0F       		.byte	0xf
 10840 3a98 95       		.byte	0x95
 10841 3a99 0B190000 		.4byte	0x190b
 10842 3a9d 45       		.uleb128 0x45
 10843 3a9e FA090000 		.4byte	.LASF572
 10844 3aa2 22       		.byte	0x22
 10845 3aa3 3D       		.byte	0x3d
 10846 3aa4 5B070000 		.4byte	0x75b
 10847 3aa8 45       		.uleb128 0x45
 10848 3aa9 DE170000 		.4byte	.LASF573
 10849 3aad 22       		.byte	0x22
 10850 3aae 3E       		.byte	0x3e
 10851 3aaf 5B070000 		.4byte	0x75b
 10852 3ab3 45       		.uleb128 0x45
 10853 3ab4 E0090000 		.4byte	.LASF574
 10854 3ab8 22       		.byte	0x22
 10855 3ab9 3F       		.byte	0x3f
 10856 3aba 5B070000 		.4byte	0x75b
 10857 3abe 45       		.uleb128 0x45
 10858 3abf 73260000 		.4byte	.LASF575
 10859 3ac3 22       		.byte	0x22
 10860 3ac4 40       		.byte	0x40
 10861 3ac5 5B070000 		.4byte	0x75b
 10862 3ac9 45       		.uleb128 0x45
 10863 3aca F90B0000 		.4byte	.LASF576
ARM GAS  C:\Users\haske\AppData\Local\Temp\ccXBxzcA.s 			page 228


 10864 3ace 22       		.byte	0x22
 10865 3acf 41       		.byte	0x41
 10866 3ad0 5B070000 		.4byte	0x75b
 10867 3ad4 45       		.uleb128 0x45
 10868 3ad5 18070000 		.4byte	.LASF577
 10869 3ad9 23       		.byte	0x23
 10870 3ada 39       		.byte	0x39
 10871 3adb 5B070000 		.4byte	0x75b
 10872 3adf 45       		.uleb128 0x45
 10873 3ae0 67110000 		.4byte	.LASF578
 10874 3ae4 23       		.byte	0x23
 10875 3ae5 3A       		.byte	0x3a
 10876 3ae6 5B070000 		.4byte	0x75b
 10877 3aea 45       		.uleb128 0x45
 10878 3aeb E1020000 		.4byte	.LASF579
 10879 3aef 23       		.byte	0x23
 10880 3af0 3B       		.byte	0x3b
 10881 3af1 5B070000 		.4byte	0x75b
 10882 3af5 45       		.uleb128 0x45
 10883 3af6 B3020000 		.4byte	.LASF580
 10884 3afa 23       		.byte	0x23
 10885 3afb 3C       		.byte	0x3c
 10886 3afc 5B070000 		.4byte	0x75b
 10887 3b00 45       		.uleb128 0x45
 10888 3b01 C5110000 		.4byte	.LASF581
 10889 3b05 23       		.byte	0x23
 10890 3b06 3D       		.byte	0x3d
 10891 3b07 5B070000 		.4byte	0x75b
 10892 3b0b 45       		.uleb128 0x45
 10893 3b0c 66190000 		.4byte	.LASF582
 10894 3b10 23       		.byte	0x23
 10895 3b11 3E       		.byte	0x3e
 10896 3b12 5B070000 		.4byte	0x75b
 10897 3b16 45       		.uleb128 0x45
 10898 3b17 EB150000 		.4byte	.LASF583
 10899 3b1b 23       		.byte	0x23
 10900 3b1c 3F       		.byte	0x3f
 10901 3b1d 5B070000 		.4byte	0x75b
 10902 3b21 45       		.uleb128 0x45
 10903 3b22 391D0000 		.4byte	.LASF584
 10904 3b26 23       		.byte	0x23
 10905 3b27 40       		.byte	0x40
 10906 3b28 5B070000 		.4byte	0x75b
 10907 3b2c 45       		.uleb128 0x45
 10908 3b2d CE160000 		.4byte	.LASF585
 10909 3b31 23       		.byte	0x23
 10910 3b32 41       		.byte	0x41
 10911 3b33 5B070000 		.4byte	0x75b
 10912 3b37 45       		.uleb128 0x45
 10913 3b38 371E0000 		.4byte	.LASF586
 10914 3b3c 23       		.byte	0x23
 10915 3b3d 42       		.byte	0x42
 10916 3b3e 5B070000 		.4byte	0x75b
 10917 3b42 46       		.uleb128 0x46
 10918 3b43 C2210000 		.4byte	.LASF587
 10919 3b47 01       		.byte	0x1
 10920 3b48 26       		.byte	0x26
ARM GAS  C:\Users\haske\AppData\Local\Temp\ccXBxzcA.s 			page 229


 10921 3b49 0B190000 		.4byte	0x190b
 10922 3b4d 05       		.uleb128 0x5
 10923 3b4e 03       		.byte	0x3
 10924 3b4f 00000000 		.4byte	lv_meter_class
 10925 3b53 47       		.uleb128 0x47
 10926 3b54 74080000 		.4byte	.LASF588
 10927 3b58 74080000 		.4byte	.LASF588
 10928 3b5c 1B       		.byte	0x1b
 10929 3b5d 83       		.byte	0x83
 10930 3b5e 47       		.uleb128 0x47
 10931 3b5f 16250000 		.4byte	.LASF589
 10932 3b63 16250000 		.4byte	.LASF589
 10933 3b67 05       		.byte	0x5
 10934 3b68 6C       		.byte	0x6c
 10935 3b69 47       		.uleb128 0x47
 10936 3b6a 23020000 		.4byte	.LASF590
 10937 3b6e 23020000 		.4byte	.LASF590
 10938 3b72 1E       		.byte	0x1e
 10939 3b73 92       		.byte	0x92
 10940 3b74 47       		.uleb128 0x47
 10941 3b75 10140000 		.4byte	.LASF591
 10942 3b79 10140000 		.4byte	.LASF591
 10943 3b7d 14       		.byte	0x14
 10944 3b7e 3A       		.byte	0x3a
 10945 3b7f 47       		.uleb128 0x47
 10946 3b80 510B0000 		.4byte	.LASF592
 10947 3b84 510B0000 		.4byte	.LASF592
 10948 3b88 14       		.byte	0x14
 10949 3b89 2D       		.byte	0x2d
 10950 3b8a 47       		.uleb128 0x47
 10951 3b8b 2E170000 		.4byte	.LASF593
 10952 3b8f 2E170000 		.4byte	.LASF593
 10953 3b93 1C       		.byte	0x1c
 10954 3b94 88       		.byte	0x88
 10955 3b95 47       		.uleb128 0x47
 10956 3b96 77220000 		.4byte	.LASF594
 10957 3b9a 77220000 		.4byte	.LASF594
 10958 3b9e 18       		.byte	0x18
 10959 3b9f 6B       		.byte	0x6b
 10960 3ba0 47       		.uleb128 0x47
 10961 3ba1 3B140000 		.4byte	.LASF595
 10962 3ba5 3B140000 		.4byte	.LASF595
 10963 3ba9 18       		.byte	0x18
 10964 3baa 7B       		.byte	0x7b
 10965 3bab 48       		.uleb128 0x48
 10966 3bac EC200000 		.4byte	.LASF596
 10967 3bb0 EC200000 		.4byte	.LASF596
 10968 3bb4 15       		.byte	0x15
 10969 3bb5 0F01     		.2byte	0x10f
 10970 3bb7 47       		.uleb128 0x47
 10971 3bb8 39030000 		.4byte	.LASF597
 10972 3bbc 39030000 		.4byte	.LASF597
 10973 3bc0 03       		.byte	0x3
 10974 3bc1 EF       		.byte	0xef
 10975 3bc2 47       		.uleb128 0x47
 10976 3bc3 780E0000 		.4byte	.LASF598
 10977 3bc7 780E0000 		.4byte	.LASF598
ARM GAS  C:\Users\haske\AppData\Local\Temp\ccXBxzcA.s 			page 230


 10978 3bcb 24       		.byte	0x24
 10979 3bcc BA       		.byte	0xba
 10980 3bcd 47       		.uleb128 0x47
 10981 3bce 1A0E0000 		.4byte	.LASF599
 10982 3bd2 1A0E0000 		.4byte	.LASF599
 10983 3bd6 25       		.byte	0x25
 10984 3bd7 51       		.byte	0x51
 10985 3bd8 47       		.uleb128 0x47
 10986 3bd9 85140000 		.4byte	.LASF600
 10987 3bdd 85140000 		.4byte	.LASF600
 10988 3be1 0B       		.byte	0xb
 10989 3be2 53       		.byte	0x53
 10990 3be3 47       		.uleb128 0x47
 10991 3be4 8E0C0000 		.4byte	.LASF601
 10992 3be8 8E0C0000 		.4byte	.LASF601
 10993 3bec 11       		.byte	0x11
 10994 3bed 52       		.byte	0x52
 10995 3bee 47       		.uleb128 0x47
 10996 3bef 5C070000 		.4byte	.LASF602
 10997 3bf3 5C070000 		.4byte	.LASF602
 10998 3bf7 15       		.byte	0x15
 10999 3bf8 E5       		.byte	0xe5
 11000 3bf9 47       		.uleb128 0x47
 11001 3bfa 7D230000 		.4byte	.LASF603
 11002 3bfe 7D230000 		.4byte	.LASF603
 11003 3c02 13       		.byte	0x13
 11004 3c03 37       		.byte	0x37
 11005 3c04 48       		.uleb128 0x48
 11006 3c05 9A230000 		.4byte	.LASF604
 11007 3c09 9A230000 		.4byte	.LASF604
 11008 3c0d 15       		.byte	0x15
 11009 3c0e 6701     		.2byte	0x167
 11010 3c10 48       		.uleb128 0x48
 11011 3c11 D8120000 		.4byte	.LASF605
 11012 3c15 D8120000 		.4byte	.LASF605
 11013 3c19 15       		.byte	0x15
 11014 3c1a 2001     		.2byte	0x120
 11015 3c1c 47       		.uleb128 0x47
 11016 3c1d 27230000 		.4byte	.LASF606
 11017 3c21 27230000 		.4byte	.LASF606
 11018 3c25 13       		.byte	0x13
 11019 3c26 2E       		.byte	0x2e
 11020 3c27 47       		.uleb128 0x47
 11021 3c28 DB0D0000 		.4byte	.LASF607
 11022 3c2c DB0D0000 		.4byte	.LASF607
 11023 3c30 1C       		.byte	0x1c
 11024 3c31 70       		.byte	0x70
 11025 3c32 47       		.uleb128 0x47
 11026 3c33 940A0000 		.4byte	.LASF608
 11027 3c37 940A0000 		.4byte	.LASF608
 11028 3c3b 11       		.byte	0x11
 11029 3c3c 47       		.byte	0x47
 11030 3c3d 47       		.uleb128 0x47
 11031 3c3e 32160000 		.4byte	.LASF609
 11032 3c42 32160000 		.4byte	.LASF609
 11033 3c46 1C       		.byte	0x1c
 11034 3c47 5D       		.byte	0x5d
ARM GAS  C:\Users\haske\AppData\Local\Temp\ccXBxzcA.s 			page 231


 11035 3c48 47       		.uleb128 0x47
 11036 3c49 A2070000 		.4byte	.LASF610
 11037 3c4d A2070000 		.4byte	.LASF610
 11038 3c51 05       		.byte	0x5
 11039 3c52 2F       		.byte	0x2f
 11040 3c53 47       		.uleb128 0x47
 11041 3c54 750A0000 		.4byte	.LASF611
 11042 3c58 750A0000 		.4byte	.LASF611
 11043 3c5c 26       		.byte	0x26
 11044 3c5d 99       		.byte	0x99
 11045 3c5e 47       		.uleb128 0x47
 11046 3c5f 16080000 		.4byte	.LASF612
 11047 3c63 16080000 		.4byte	.LASF612
 11048 3c67 12       		.byte	0x12
 11049 3c68 3E       		.byte	0x3e
 11050 3c69 47       		.uleb128 0x47
 11051 3c6a 95000000 		.4byte	.LASF613
 11052 3c6e 95000000 		.4byte	.LASF613
 11053 3c72 12       		.byte	0x12
 11054 3c73 36       		.byte	0x36
 11055 3c74 47       		.uleb128 0x47
 11056 3c75 A6250000 		.4byte	.LASF614
 11057 3c79 A6250000 		.4byte	.LASF614
 11058 3c7d 1C       		.byte	0x1c
 11059 3c7e 66       		.byte	0x66
 11060 3c7f 48       		.uleb128 0x48
 11061 3c80 8C070000 		.4byte	.LASF615
 11062 3c84 8C070000 		.4byte	.LASF615
 11063 3c88 1E       		.byte	0x1e
 11064 3c89 2701     		.2byte	0x127
 11065 3c8b 48       		.uleb128 0x48
 11066 3c8c C4170000 		.4byte	.LASF616
 11067 3c90 C4170000 		.4byte	.LASF616
 11068 3c94 27       		.byte	0x27
 11069 3c95 3D01     		.2byte	0x13d
 11070 3c97 47       		.uleb128 0x47
 11071 3c98 4F240000 		.4byte	.LASF617
 11072 3c9c 4F240000 		.4byte	.LASF617
 11073 3ca0 10       		.byte	0x10
 11074 3ca1 4D       		.byte	0x4d
 11075 3ca2 47       		.uleb128 0x47
 11076 3ca3 E0100000 		.4byte	.LASF618
 11077 3ca7 E0100000 		.4byte	.LASF618
 11078 3cab 1C       		.byte	0x1c
 11079 3cac 53       		.byte	0x53
 11080 3cad 47       		.uleb128 0x47
 11081 3cae 8A080000 		.4byte	.LASF619
 11082 3cb2 8A080000 		.4byte	.LASF619
 11083 3cb6 10       		.byte	0x10
 11084 3cb7 56       		.byte	0x56
 11085 3cb8 47       		.uleb128 0x47
 11086 3cb9 67030000 		.4byte	.LASF620
 11087 3cbd 67030000 		.4byte	.LASF620
 11088 3cc1 1E       		.byte	0x1e
 11089 3cc2 9A       		.byte	0x9a
 11090 3cc3 47       		.uleb128 0x47
 11091 3cc4 12040000 		.4byte	.LASF621
ARM GAS  C:\Users\haske\AppData\Local\Temp\ccXBxzcA.s 			page 232


 11092 3cc8 12040000 		.4byte	.LASF621
 11093 3ccc 1E       		.byte	0x1e
 11094 3ccd B0       		.byte	0xb0
 11095 3cce 47       		.uleb128 0x47
 11096 3ccf 4C0C0000 		.4byte	.LASF622
 11097 3cd3 4C0C0000 		.4byte	.LASF622
 11098 3cd7 1E       		.byte	0x1e
 11099 3cd8 A1       		.byte	0xa1
 11100 3cd9 47       		.uleb128 0x47
 11101 3cda 26130000 		.4byte	.LASF623
 11102 3cde 26130000 		.4byte	.LASF623
 11103 3ce2 18       		.byte	0x18
 11104 3ce3 53       		.byte	0x53
 11105 3ce4 47       		.uleb128 0x47
 11106 3ce5 FC110000 		.4byte	.LASF624
 11107 3ce9 FC110000 		.4byte	.LASF624
 11108 3ced 18       		.byte	0x18
 11109 3cee 2F       		.byte	0x2f
 11110 3cef 47       		.uleb128 0x47
 11111 3cf0 E71D0000 		.4byte	.LASF625
 11112 3cf4 E71D0000 		.4byte	.LASF625
 11113 3cf8 14       		.byte	0x14
 11114 3cf9 48       		.byte	0x48
 11115 3cfa 48       		.uleb128 0x48
 11116 3cfb 9D1B0000 		.4byte	.LASF626
 11117 3cff 9D1B0000 		.4byte	.LASF626
 11118 3d03 27       		.byte	0x27
 11119 3d04 7701     		.2byte	0x177
 11120 3d06 47       		.uleb128 0x47
 11121 3d07 B3050000 		.4byte	.LASF627
 11122 3d0b B3050000 		.4byte	.LASF627
 11123 3d0f 0E       		.byte	0xe
 11124 3d10 EE       		.byte	0xee
 11125 3d11 47       		.uleb128 0x47
 11126 3d12 42110000 		.4byte	.LASF628
 11127 3d16 42110000 		.4byte	.LASF628
 11128 3d1a 1D       		.byte	0x1d
 11129 3d1b 4B       		.byte	0x4b
 11130 3d1c 47       		.uleb128 0x47
 11131 3d1d 470D0000 		.4byte	.LASF629
 11132 3d21 470D0000 		.4byte	.LASF629
 11133 3d25 1D       		.byte	0x1d
 11134 3d26 4D       		.byte	0x4d
 11135 3d27 47       		.uleb128 0x47
 11136 3d28 541D0000 		.4byte	.LASF630
 11137 3d2c 541D0000 		.4byte	.LASF630
 11138 3d30 18       		.byte	0x18
 11139 3d31 36       		.byte	0x36
 11140 3d32 47       		.uleb128 0x47
 11141 3d33 9B1A0000 		.4byte	.LASF631
 11142 3d37 9B1A0000 		.4byte	.LASF631
 11143 3d3b 24       		.byte	0x24
 11144 3d3c DE       		.byte	0xde
 11145 3d3d 48       		.uleb128 0x48
 11146 3d3e 37070000 		.4byte	.LASF632
 11147 3d42 37070000 		.4byte	.LASF632
 11148 3d46 27       		.byte	0x27
ARM GAS  C:\Users\haske\AppData\Local\Temp\ccXBxzcA.s 			page 233


 11149 3d47 7D01     		.2byte	0x17d
 11150 3d49 00       		.byte	0
 11151              		.section	.debug_abbrev,"",%progbits
 11152              	.Ldebug_abbrev0:
 11153 0000 01       		.uleb128 0x1
 11154 0001 11       		.uleb128 0x11
 11155 0002 01       		.byte	0x1
 11156 0003 25       		.uleb128 0x25
 11157 0004 0E       		.uleb128 0xe
 11158 0005 13       		.uleb128 0x13
 11159 0006 0B       		.uleb128 0xb
 11160 0007 03       		.uleb128 0x3
 11161 0008 0E       		.uleb128 0xe
 11162 0009 1B       		.uleb128 0x1b
 11163 000a 0E       		.uleb128 0xe
 11164 000b 55       		.uleb128 0x55
 11165 000c 17       		.uleb128 0x17
 11166 000d 11       		.uleb128 0x11
 11167 000e 01       		.uleb128 0x1
 11168 000f 10       		.uleb128 0x10
 11169 0010 17       		.uleb128 0x17
 11170 0011 00       		.byte	0
 11171 0012 00       		.byte	0
 11172 0013 02       		.uleb128 0x2
 11173 0014 16       		.uleb128 0x16
 11174 0015 00       		.byte	0
 11175 0016 03       		.uleb128 0x3
 11176 0017 0E       		.uleb128 0xe
 11177 0018 3A       		.uleb128 0x3a
 11178 0019 0B       		.uleb128 0xb
 11179 001a 3B       		.uleb128 0x3b
 11180 001b 0B       		.uleb128 0xb
 11181 001c 49       		.uleb128 0x49
 11182 001d 13       		.uleb128 0x13
 11183 001e 00       		.byte	0
 11184 001f 00       		.byte	0
 11185 0020 03       		.uleb128 0x3
 11186 0021 24       		.uleb128 0x24
 11187 0022 00       		.byte	0
 11188 0023 0B       		.uleb128 0xb
 11189 0024 0B       		.uleb128 0xb
 11190 0025 3E       		.uleb128 0x3e
 11191 0026 0B       		.uleb128 0xb
 11192 0027 03       		.uleb128 0x3
 11193 0028 0E       		.uleb128 0xe
 11194 0029 00       		.byte	0
 11195 002a 00       		.byte	0
 11196 002b 04       		.uleb128 0x4
 11197 002c 24       		.uleb128 0x24
 11198 002d 00       		.byte	0
 11199 002e 0B       		.uleb128 0xb
 11200 002f 0B       		.uleb128 0xb
 11201 0030 3E       		.uleb128 0x3e
 11202 0031 0B       		.uleb128 0xb
 11203 0032 03       		.uleb128 0x3
 11204 0033 08       		.uleb128 0x8
 11205 0034 00       		.byte	0
ARM GAS  C:\Users\haske\AppData\Local\Temp\ccXBxzcA.s 			page 234


 11206 0035 00       		.byte	0
 11207 0036 05       		.uleb128 0x5
 11208 0037 04       		.uleb128 0x4
 11209 0038 01       		.byte	0x1
 11210 0039 0B       		.uleb128 0xb
 11211 003a 0B       		.uleb128 0xb
 11212 003b 49       		.uleb128 0x49
 11213 003c 13       		.uleb128 0x13
 11214 003d 3A       		.uleb128 0x3a
 11215 003e 0B       		.uleb128 0xb
 11216 003f 3B       		.uleb128 0x3b
 11217 0040 0B       		.uleb128 0xb
 11218 0041 01       		.uleb128 0x1
 11219 0042 13       		.uleb128 0x13
 11220 0043 00       		.byte	0
 11221 0044 00       		.byte	0
 11222 0045 06       		.uleb128 0x6
 11223 0046 28       		.uleb128 0x28
 11224 0047 00       		.byte	0
 11225 0048 03       		.uleb128 0x3
 11226 0049 0E       		.uleb128 0xe
 11227 004a 1C       		.uleb128 0x1c
 11228 004b 0B       		.uleb128 0xb
 11229 004c 00       		.byte	0
 11230 004d 00       		.byte	0
 11231 004e 07       		.uleb128 0x7
 11232 004f 0F       		.uleb128 0xf
 11233 0050 00       		.byte	0
 11234 0051 0B       		.uleb128 0xb
 11235 0052 0B       		.uleb128 0xb
 11236 0053 00       		.byte	0
 11237 0054 00       		.byte	0
 11238 0055 08       		.uleb128 0x8
 11239 0056 0F       		.uleb128 0xf
 11240 0057 00       		.byte	0
 11241 0058 0B       		.uleb128 0xb
 11242 0059 0B       		.uleb128 0xb
 11243 005a 49       		.uleb128 0x49
 11244 005b 13       		.uleb128 0x13
 11245 005c 00       		.byte	0
 11246 005d 00       		.byte	0
 11247 005e 09       		.uleb128 0x9
 11248 005f 13       		.uleb128 0x13
 11249 0060 01       		.byte	0x1
 11250 0061 0B       		.uleb128 0xb
 11251 0062 0B       		.uleb128 0xb
 11252 0063 3A       		.uleb128 0x3a
 11253 0064 0B       		.uleb128 0xb
 11254 0065 3B       		.uleb128 0x3b
 11255 0066 0B       		.uleb128 0xb
 11256 0067 01       		.uleb128 0x1
 11257 0068 13       		.uleb128 0x13
 11258 0069 00       		.byte	0
 11259 006a 00       		.byte	0
 11260 006b 0A       		.uleb128 0xa
 11261 006c 0D       		.uleb128 0xd
 11262 006d 00       		.byte	0
ARM GAS  C:\Users\haske\AppData\Local\Temp\ccXBxzcA.s 			page 235


 11263 006e 03       		.uleb128 0x3
 11264 006f 08       		.uleb128 0x8
 11265 0070 3A       		.uleb128 0x3a
 11266 0071 0B       		.uleb128 0xb
 11267 0072 3B       		.uleb128 0x3b
 11268 0073 0B       		.uleb128 0xb
 11269 0074 49       		.uleb128 0x49
 11270 0075 13       		.uleb128 0x13
 11271 0076 38       		.uleb128 0x38
 11272 0077 0B       		.uleb128 0xb
 11273 0078 00       		.byte	0
 11274 0079 00       		.byte	0
 11275 007a 0B       		.uleb128 0xb
 11276 007b 0D       		.uleb128 0xd
 11277 007c 00       		.byte	0
 11278 007d 03       		.uleb128 0x3
 11279 007e 0E       		.uleb128 0xe
 11280 007f 3A       		.uleb128 0x3a
 11281 0080 0B       		.uleb128 0xb
 11282 0081 3B       		.uleb128 0x3b
 11283 0082 0B       		.uleb128 0xb
 11284 0083 49       		.uleb128 0x49
 11285 0084 13       		.uleb128 0x13
 11286 0085 38       		.uleb128 0x38
 11287 0086 0B       		.uleb128 0xb
 11288 0087 00       		.byte	0
 11289 0088 00       		.byte	0
 11290 0089 0C       		.uleb128 0xc
 11291 008a 0D       		.uleb128 0xd
 11292 008b 00       		.byte	0
 11293 008c 03       		.uleb128 0x3
 11294 008d 08       		.uleb128 0x8
 11295 008e 3A       		.uleb128 0x3a
 11296 008f 0B       		.uleb128 0xb
 11297 0090 3B       		.uleb128 0x3b
 11298 0091 0B       		.uleb128 0xb
 11299 0092 49       		.uleb128 0x49
 11300 0093 13       		.uleb128 0x13
 11301 0094 0B       		.uleb128 0xb
 11302 0095 0B       		.uleb128 0xb
 11303 0096 0D       		.uleb128 0xd
 11304 0097 0B       		.uleb128 0xb
 11305 0098 0C       		.uleb128 0xc
 11306 0099 0B       		.uleb128 0xb
 11307 009a 38       		.uleb128 0x38
 11308 009b 0B       		.uleb128 0xb
 11309 009c 00       		.byte	0
 11310 009d 00       		.byte	0
 11311 009e 0D       		.uleb128 0xd
 11312 009f 0D       		.uleb128 0xd
 11313 00a0 00       		.byte	0
 11314 00a1 03       		.uleb128 0x3
 11315 00a2 0E       		.uleb128 0xe
 11316 00a3 3A       		.uleb128 0x3a
 11317 00a4 0B       		.uleb128 0xb
 11318 00a5 3B       		.uleb128 0x3b
 11319 00a6 0B       		.uleb128 0xb
ARM GAS  C:\Users\haske\AppData\Local\Temp\ccXBxzcA.s 			page 236


 11320 00a7 49       		.uleb128 0x49
 11321 00a8 13       		.uleb128 0x13
 11322 00a9 0B       		.uleb128 0xb
 11323 00aa 0B       		.uleb128 0xb
 11324 00ab 0D       		.uleb128 0xd
 11325 00ac 0B       		.uleb128 0xb
 11326 00ad 0C       		.uleb128 0xc
 11327 00ae 0B       		.uleb128 0xb
 11328 00af 38       		.uleb128 0x38
 11329 00b0 0B       		.uleb128 0xb
 11330 00b1 00       		.byte	0
 11331 00b2 00       		.byte	0
 11332 00b3 0E       		.uleb128 0xe
 11333 00b4 13       		.uleb128 0x13
 11334 00b5 01       		.byte	0x1
 11335 00b6 03       		.uleb128 0x3
 11336 00b7 0E       		.uleb128 0xe
 11337 00b8 0B       		.uleb128 0xb
 11338 00b9 0B       		.uleb128 0xb
 11339 00ba 3A       		.uleb128 0x3a
 11340 00bb 0B       		.uleb128 0xb
 11341 00bc 3B       		.uleb128 0x3b
 11342 00bd 0B       		.uleb128 0xb
 11343 00be 01       		.uleb128 0x1
 11344 00bf 13       		.uleb128 0x13
 11345 00c0 00       		.byte	0
 11346 00c1 00       		.byte	0
 11347 00c2 0F       		.uleb128 0xf
 11348 00c3 26       		.uleb128 0x26
 11349 00c4 00       		.byte	0
 11350 00c5 49       		.uleb128 0x49
 11351 00c6 13       		.uleb128 0x13
 11352 00c7 00       		.byte	0
 11353 00c8 00       		.byte	0
 11354 00c9 10       		.uleb128 0x10
 11355 00ca 15       		.uleb128 0x15
 11356 00cb 01       		.byte	0x1
 11357 00cc 27       		.uleb128 0x27
 11358 00cd 19       		.uleb128 0x19
 11359 00ce 49       		.uleb128 0x49
 11360 00cf 13       		.uleb128 0x13
 11361 00d0 01       		.uleb128 0x1
 11362 00d1 13       		.uleb128 0x13
 11363 00d2 00       		.byte	0
 11364 00d3 00       		.byte	0
 11365 00d4 11       		.uleb128 0x11
 11366 00d5 05       		.uleb128 0x5
 11367 00d6 00       		.byte	0
 11368 00d7 49       		.uleb128 0x49
 11369 00d8 13       		.uleb128 0x13
 11370 00d9 00       		.byte	0
 11371 00da 00       		.byte	0
 11372 00db 12       		.uleb128 0x12
 11373 00dc 26       		.uleb128 0x26
 11374 00dd 00       		.byte	0
 11375 00de 00       		.byte	0
 11376 00df 00       		.byte	0
ARM GAS  C:\Users\haske\AppData\Local\Temp\ccXBxzcA.s 			page 237


 11377 00e0 13       		.uleb128 0x13
 11378 00e1 17       		.uleb128 0x17
 11379 00e2 01       		.byte	0x1
 11380 00e3 0B       		.uleb128 0xb
 11381 00e4 0B       		.uleb128 0xb
 11382 00e5 3A       		.uleb128 0x3a
 11383 00e6 0B       		.uleb128 0xb
 11384 00e7 3B       		.uleb128 0x3b
 11385 00e8 0B       		.uleb128 0xb
 11386 00e9 01       		.uleb128 0x1
 11387 00ea 13       		.uleb128 0x13
 11388 00eb 00       		.byte	0
 11389 00ec 00       		.byte	0
 11390 00ed 14       		.uleb128 0x14
 11391 00ee 0D       		.uleb128 0xd
 11392 00ef 00       		.byte	0
 11393 00f0 03       		.uleb128 0x3
 11394 00f1 08       		.uleb128 0x8
 11395 00f2 3A       		.uleb128 0x3a
 11396 00f3 0B       		.uleb128 0xb
 11397 00f4 3B       		.uleb128 0x3b
 11398 00f5 0B       		.uleb128 0xb
 11399 00f6 49       		.uleb128 0x49
 11400 00f7 13       		.uleb128 0x13
 11401 00f8 00       		.byte	0
 11402 00f9 00       		.byte	0
 11403 00fa 15       		.uleb128 0x15
 11404 00fb 0D       		.uleb128 0xd
 11405 00fc 00       		.byte	0
 11406 00fd 03       		.uleb128 0x3
 11407 00fe 0E       		.uleb128 0xe
 11408 00ff 3A       		.uleb128 0x3a
 11409 0100 0B       		.uleb128 0xb
 11410 0101 3B       		.uleb128 0x3b
 11411 0102 0B       		.uleb128 0xb
 11412 0103 49       		.uleb128 0x49
 11413 0104 13       		.uleb128 0x13
 11414 0105 00       		.byte	0
 11415 0106 00       		.byte	0
 11416 0107 16       		.uleb128 0x16
 11417 0108 01       		.uleb128 0x1
 11418 0109 01       		.byte	0x1
 11419 010a 49       		.uleb128 0x49
 11420 010b 13       		.uleb128 0x13
 11421 010c 01       		.uleb128 0x1
 11422 010d 13       		.uleb128 0x13
 11423 010e 00       		.byte	0
 11424 010f 00       		.byte	0
 11425 0110 17       		.uleb128 0x17
 11426 0111 21       		.uleb128 0x21
 11427 0112 00       		.byte	0
 11428 0113 49       		.uleb128 0x49
 11429 0114 13       		.uleb128 0x13
 11430 0115 2F       		.uleb128 0x2f
 11431 0116 0B       		.uleb128 0xb
 11432 0117 00       		.byte	0
 11433 0118 00       		.byte	0
ARM GAS  C:\Users\haske\AppData\Local\Temp\ccXBxzcA.s 			page 238


 11434 0119 18       		.uleb128 0x18
 11435 011a 28       		.uleb128 0x28
 11436 011b 00       		.byte	0
 11437 011c 03       		.uleb128 0x3
 11438 011d 0E       		.uleb128 0xe
 11439 011e 1C       		.uleb128 0x1c
 11440 011f 05       		.uleb128 0x5
 11441 0120 00       		.byte	0
 11442 0121 00       		.byte	0
 11443 0122 19       		.uleb128 0x19
 11444 0123 16       		.uleb128 0x16
 11445 0124 00       		.byte	0
 11446 0125 03       		.uleb128 0x3
 11447 0126 0E       		.uleb128 0xe
 11448 0127 3A       		.uleb128 0x3a
 11449 0128 0B       		.uleb128 0xb
 11450 0129 3B       		.uleb128 0x3b
 11451 012a 05       		.uleb128 0x5
 11452 012b 49       		.uleb128 0x49
 11453 012c 13       		.uleb128 0x13
 11454 012d 00       		.byte	0
 11455 012e 00       		.byte	0
 11456 012f 1A       		.uleb128 0x1a
 11457 0130 13       		.uleb128 0x13
 11458 0131 01       		.byte	0x1
 11459 0132 0B       		.uleb128 0xb
 11460 0133 0B       		.uleb128 0xb
 11461 0134 3A       		.uleb128 0x3a
 11462 0135 0B       		.uleb128 0xb
 11463 0136 3B       		.uleb128 0x3b
 11464 0137 05       		.uleb128 0x5
 11465 0138 01       		.uleb128 0x1
 11466 0139 13       		.uleb128 0x13
 11467 013a 00       		.byte	0
 11468 013b 00       		.byte	0
 11469 013c 1B       		.uleb128 0x1b
 11470 013d 0D       		.uleb128 0xd
 11471 013e 00       		.byte	0
 11472 013f 03       		.uleb128 0x3
 11473 0140 0E       		.uleb128 0xe
 11474 0141 3A       		.uleb128 0x3a
 11475 0142 0B       		.uleb128 0xb
 11476 0143 3B       		.uleb128 0x3b
 11477 0144 05       		.uleb128 0x5
 11478 0145 49       		.uleb128 0x49
 11479 0146 13       		.uleb128 0x13
 11480 0147 38       		.uleb128 0x38
 11481 0148 0B       		.uleb128 0xb
 11482 0149 00       		.byte	0
 11483 014a 00       		.byte	0
 11484 014b 1C       		.uleb128 0x1c
 11485 014c 17       		.uleb128 0x17
 11486 014d 01       		.byte	0x1
 11487 014e 0B       		.uleb128 0xb
 11488 014f 0B       		.uleb128 0xb
 11489 0150 3A       		.uleb128 0x3a
 11490 0151 0B       		.uleb128 0xb
ARM GAS  C:\Users\haske\AppData\Local\Temp\ccXBxzcA.s 			page 239


 11491 0152 3B       		.uleb128 0x3b
 11492 0153 05       		.uleb128 0x5
 11493 0154 01       		.uleb128 0x1
 11494 0155 13       		.uleb128 0x13
 11495 0156 00       		.byte	0
 11496 0157 00       		.byte	0
 11497 0158 1D       		.uleb128 0x1d
 11498 0159 0D       		.uleb128 0xd
 11499 015a 00       		.byte	0
 11500 015b 03       		.uleb128 0x3
 11501 015c 0E       		.uleb128 0xe
 11502 015d 3A       		.uleb128 0x3a
 11503 015e 0B       		.uleb128 0xb
 11504 015f 3B       		.uleb128 0x3b
 11505 0160 05       		.uleb128 0x5
 11506 0161 49       		.uleb128 0x49
 11507 0162 13       		.uleb128 0x13
 11508 0163 00       		.byte	0
 11509 0164 00       		.byte	0
 11510 0165 1E       		.uleb128 0x1e
 11511 0166 0D       		.uleb128 0xd
 11512 0167 00       		.byte	0
 11513 0168 03       		.uleb128 0x3
 11514 0169 08       		.uleb128 0x8
 11515 016a 3A       		.uleb128 0x3a
 11516 016b 0B       		.uleb128 0xb
 11517 016c 3B       		.uleb128 0x3b
 11518 016d 05       		.uleb128 0x5
 11519 016e 49       		.uleb128 0x49
 11520 016f 13       		.uleb128 0x13
 11521 0170 38       		.uleb128 0x38
 11522 0171 0B       		.uleb128 0xb
 11523 0172 00       		.byte	0
 11524 0173 00       		.byte	0
 11525 0174 1F       		.uleb128 0x1f
 11526 0175 15       		.uleb128 0x15
 11527 0176 01       		.byte	0x1
 11528 0177 27       		.uleb128 0x27
 11529 0178 19       		.uleb128 0x19
 11530 0179 01       		.uleb128 0x1
 11531 017a 13       		.uleb128 0x13
 11532 017b 00       		.byte	0
 11533 017c 00       		.byte	0
 11534 017d 20       		.uleb128 0x20
 11535 017e 28       		.uleb128 0x28
 11536 017f 00       		.byte	0
 11537 0180 03       		.uleb128 0x3
 11538 0181 0E       		.uleb128 0xe
 11539 0182 1C       		.uleb128 0x1c
 11540 0183 06       		.uleb128 0x6
 11541 0184 00       		.byte	0
 11542 0185 00       		.byte	0
 11543 0186 21       		.uleb128 0x21
 11544 0187 13       		.uleb128 0x13
 11545 0188 00       		.byte	0
 11546 0189 03       		.uleb128 0x3
 11547 018a 0E       		.uleb128 0xe
ARM GAS  C:\Users\haske\AppData\Local\Temp\ccXBxzcA.s 			page 240


 11548 018b 3C       		.uleb128 0x3c
 11549 018c 19       		.uleb128 0x19
 11550 018d 00       		.byte	0
 11551 018e 00       		.byte	0
 11552 018f 22       		.uleb128 0x22
 11553 0190 2E       		.uleb128 0x2e
 11554 0191 01       		.byte	0x1
 11555 0192 03       		.uleb128 0x3
 11556 0193 0E       		.uleb128 0xe
 11557 0194 3A       		.uleb128 0x3a
 11558 0195 0B       		.uleb128 0xb
 11559 0196 3B       		.uleb128 0x3b
 11560 0197 05       		.uleb128 0x5
 11561 0198 27       		.uleb128 0x27
 11562 0199 19       		.uleb128 0x19
 11563 019a 49       		.uleb128 0x49
 11564 019b 13       		.uleb128 0x13
 11565 019c 20       		.uleb128 0x20
 11566 019d 0B       		.uleb128 0xb
 11567 019e 01       		.uleb128 0x1
 11568 019f 13       		.uleb128 0x13
 11569 01a0 00       		.byte	0
 11570 01a1 00       		.byte	0
 11571 01a2 23       		.uleb128 0x23
 11572 01a3 05       		.uleb128 0x5
 11573 01a4 00       		.byte	0
 11574 01a5 03       		.uleb128 0x3
 11575 01a6 08       		.uleb128 0x8
 11576 01a7 3A       		.uleb128 0x3a
 11577 01a8 0B       		.uleb128 0xb
 11578 01a9 3B       		.uleb128 0x3b
 11579 01aa 05       		.uleb128 0x5
 11580 01ab 49       		.uleb128 0x49
 11581 01ac 13       		.uleb128 0x13
 11582 01ad 00       		.byte	0
 11583 01ae 00       		.byte	0
 11584 01af 24       		.uleb128 0x24
 11585 01b0 05       		.uleb128 0x5
 11586 01b1 00       		.byte	0
 11587 01b2 03       		.uleb128 0x3
 11588 01b3 0E       		.uleb128 0xe
 11589 01b4 3A       		.uleb128 0x3a
 11590 01b5 0B       		.uleb128 0xb
 11591 01b6 3B       		.uleb128 0x3b
 11592 01b7 05       		.uleb128 0x5
 11593 01b8 49       		.uleb128 0x49
 11594 01b9 13       		.uleb128 0x13
 11595 01ba 00       		.byte	0
 11596 01bb 00       		.byte	0
 11597 01bc 25       		.uleb128 0x25
 11598 01bd 34       		.uleb128 0x34
 11599 01be 00       		.byte	0
 11600 01bf 03       		.uleb128 0x3
 11601 01c0 08       		.uleb128 0x8
 11602 01c1 3A       		.uleb128 0x3a
 11603 01c2 0B       		.uleb128 0xb
 11604 01c3 3B       		.uleb128 0x3b
ARM GAS  C:\Users\haske\AppData\Local\Temp\ccXBxzcA.s 			page 241


 11605 01c4 05       		.uleb128 0x5
 11606 01c5 49       		.uleb128 0x49
 11607 01c6 13       		.uleb128 0x13
 11608 01c7 00       		.byte	0
 11609 01c8 00       		.byte	0
 11610 01c9 26       		.uleb128 0x26
 11611 01ca 2E       		.uleb128 0x2e
 11612 01cb 01       		.byte	0x1
 11613 01cc 03       		.uleb128 0x3
 11614 01cd 0E       		.uleb128 0xe
 11615 01ce 3A       		.uleb128 0x3a
 11616 01cf 0B       		.uleb128 0xb
 11617 01d0 3B       		.uleb128 0x3b
 11618 01d1 0B       		.uleb128 0xb
 11619 01d2 27       		.uleb128 0x27
 11620 01d3 19       		.uleb128 0x19
 11621 01d4 49       		.uleb128 0x49
 11622 01d5 13       		.uleb128 0x13
 11623 01d6 20       		.uleb128 0x20
 11624 01d7 0B       		.uleb128 0xb
 11625 01d8 01       		.uleb128 0x1
 11626 01d9 13       		.uleb128 0x13
 11627 01da 00       		.byte	0
 11628 01db 00       		.byte	0
 11629 01dc 27       		.uleb128 0x27
 11630 01dd 05       		.uleb128 0x5
 11631 01de 00       		.byte	0
 11632 01df 03       		.uleb128 0x3
 11633 01e0 0E       		.uleb128 0xe
 11634 01e1 3A       		.uleb128 0x3a
 11635 01e2 0B       		.uleb128 0xb
 11636 01e3 3B       		.uleb128 0x3b
 11637 01e4 0B       		.uleb128 0xb
 11638 01e5 49       		.uleb128 0x49
 11639 01e6 13       		.uleb128 0x13
 11640 01e7 00       		.byte	0
 11641 01e8 00       		.byte	0
 11642 01e9 28       		.uleb128 0x28
 11643 01ea 34       		.uleb128 0x34
 11644 01eb 00       		.byte	0
 11645 01ec 03       		.uleb128 0x3
 11646 01ed 0E       		.uleb128 0xe
 11647 01ee 3A       		.uleb128 0x3a
 11648 01ef 0B       		.uleb128 0xb
 11649 01f0 3B       		.uleb128 0x3b
 11650 01f1 05       		.uleb128 0x5
 11651 01f2 49       		.uleb128 0x49
 11652 01f3 13       		.uleb128 0x13
 11653 01f4 00       		.byte	0
 11654 01f5 00       		.byte	0
 11655 01f6 29       		.uleb128 0x29
 11656 01f7 05       		.uleb128 0x5
 11657 01f8 00       		.byte	0
 11658 01f9 03       		.uleb128 0x3
 11659 01fa 08       		.uleb128 0x8
 11660 01fb 3A       		.uleb128 0x3a
 11661 01fc 0B       		.uleb128 0xb
ARM GAS  C:\Users\haske\AppData\Local\Temp\ccXBxzcA.s 			page 242


 11662 01fd 3B       		.uleb128 0x3b
 11663 01fe 0B       		.uleb128 0xb
 11664 01ff 49       		.uleb128 0x49
 11665 0200 13       		.uleb128 0x13
 11666 0201 00       		.byte	0
 11667 0202 00       		.byte	0
 11668 0203 2A       		.uleb128 0x2a
 11669 0204 34       		.uleb128 0x34
 11670 0205 00       		.byte	0
 11671 0206 03       		.uleb128 0x3
 11672 0207 08       		.uleb128 0x8
 11673 0208 3A       		.uleb128 0x3a
 11674 0209 0B       		.uleb128 0xb
 11675 020a 3B       		.uleb128 0x3b
 11676 020b 0B       		.uleb128 0xb
 11677 020c 49       		.uleb128 0x49
 11678 020d 13       		.uleb128 0x13
 11679 020e 00       		.byte	0
 11680 020f 00       		.byte	0
 11681 0210 2B       		.uleb128 0x2b
 11682 0211 2E       		.uleb128 0x2e
 11683 0212 01       		.byte	0x1
 11684 0213 03       		.uleb128 0x3
 11685 0214 0E       		.uleb128 0xe
 11686 0215 3A       		.uleb128 0x3a
 11687 0216 0B       		.uleb128 0xb
 11688 0217 3B       		.uleb128 0x3b
 11689 0218 05       		.uleb128 0x5
 11690 0219 27       		.uleb128 0x27
 11691 021a 19       		.uleb128 0x19
 11692 021b 11       		.uleb128 0x11
 11693 021c 01       		.uleb128 0x1
 11694 021d 12       		.uleb128 0x12
 11695 021e 06       		.uleb128 0x6
 11696 021f 40       		.uleb128 0x40
 11697 0220 18       		.uleb128 0x18
 11698 0221 9742     		.uleb128 0x2117
 11699 0223 19       		.uleb128 0x19
 11700 0224 01       		.uleb128 0x1
 11701 0225 13       		.uleb128 0x13
 11702 0226 00       		.byte	0
 11703 0227 00       		.byte	0
 11704 0228 2C       		.uleb128 0x2c
 11705 0229 05       		.uleb128 0x5
 11706 022a 00       		.byte	0
 11707 022b 03       		.uleb128 0x3
 11708 022c 08       		.uleb128 0x8
 11709 022d 3A       		.uleb128 0x3a
 11710 022e 0B       		.uleb128 0xb
 11711 022f 3B       		.uleb128 0x3b
 11712 0230 05       		.uleb128 0x5
 11713 0231 49       		.uleb128 0x49
 11714 0232 13       		.uleb128 0x13
 11715 0233 02       		.uleb128 0x2
 11716 0234 17       		.uleb128 0x17
 11717 0235 00       		.byte	0
 11718 0236 00       		.byte	0
ARM GAS  C:\Users\haske\AppData\Local\Temp\ccXBxzcA.s 			page 243


 11719 0237 2D       		.uleb128 0x2d
 11720 0238 05       		.uleb128 0x5
 11721 0239 00       		.byte	0
 11722 023a 03       		.uleb128 0x3
 11723 023b 0E       		.uleb128 0xe
 11724 023c 3A       		.uleb128 0x3a
 11725 023d 0B       		.uleb128 0xb
 11726 023e 3B       		.uleb128 0x3b
 11727 023f 05       		.uleb128 0x5
 11728 0240 49       		.uleb128 0x49
 11729 0241 13       		.uleb128 0x13
 11730 0242 02       		.uleb128 0x2
 11731 0243 17       		.uleb128 0x17
 11732 0244 00       		.byte	0
 11733 0245 00       		.byte	0
 11734 0246 2E       		.uleb128 0x2e
 11735 0247 34       		.uleb128 0x34
 11736 0248 00       		.byte	0
 11737 0249 03       		.uleb128 0x3
 11738 024a 0E       		.uleb128 0xe
 11739 024b 3A       		.uleb128 0x3a
 11740 024c 0B       		.uleb128 0xb
 11741 024d 3B       		.uleb128 0x3b
 11742 024e 05       		.uleb128 0x5
 11743 024f 49       		.uleb128 0x49
 11744 0250 13       		.uleb128 0x13
 11745 0251 02       		.uleb128 0x2
 11746 0252 17       		.uleb128 0x17
 11747 0253 00       		.byte	0
 11748 0254 00       		.byte	0
 11749 0255 2F       		.uleb128 0x2f
 11750 0256 34       		.uleb128 0x34
 11751 0257 00       		.byte	0
 11752 0258 03       		.uleb128 0x3
 11753 0259 0E       		.uleb128 0xe
 11754 025a 3A       		.uleb128 0x3a
 11755 025b 0B       		.uleb128 0xb
 11756 025c 3B       		.uleb128 0x3b
 11757 025d 05       		.uleb128 0x5
 11758 025e 49       		.uleb128 0x49
 11759 025f 13       		.uleb128 0x13
 11760 0260 02       		.uleb128 0x2
 11761 0261 18       		.uleb128 0x18
 11762 0262 00       		.byte	0
 11763 0263 00       		.byte	0
 11764 0264 30       		.uleb128 0x30
 11765 0265 1D       		.uleb128 0x1d
 11766 0266 01       		.byte	0x1
 11767 0267 31       		.uleb128 0x31
 11768 0268 13       		.uleb128 0x13
 11769 0269 11       		.uleb128 0x11
 11770 026a 01       		.uleb128 0x1
 11771 026b 12       		.uleb128 0x12
 11772 026c 06       		.uleb128 0x6
 11773 026d 58       		.uleb128 0x58
 11774 026e 0B       		.uleb128 0xb
 11775 026f 59       		.uleb128 0x59
ARM GAS  C:\Users\haske\AppData\Local\Temp\ccXBxzcA.s 			page 244


 11776 0270 05       		.uleb128 0x5
 11777 0271 01       		.uleb128 0x1
 11778 0272 13       		.uleb128 0x13
 11779 0273 00       		.byte	0
 11780 0274 00       		.byte	0
 11781 0275 31       		.uleb128 0x31
 11782 0276 05       		.uleb128 0x5
 11783 0277 00       		.byte	0
 11784 0278 31       		.uleb128 0x31
 11785 0279 13       		.uleb128 0x13
 11786 027a 02       		.uleb128 0x2
 11787 027b 17       		.uleb128 0x17
 11788 027c 00       		.byte	0
 11789 027d 00       		.byte	0
 11790 027e 32       		.uleb128 0x32
 11791 027f 0B       		.uleb128 0xb
 11792 0280 01       		.byte	0x1
 11793 0281 11       		.uleb128 0x11
 11794 0282 01       		.uleb128 0x1
 11795 0283 12       		.uleb128 0x12
 11796 0284 06       		.uleb128 0x6
 11797 0285 00       		.byte	0
 11798 0286 00       		.byte	0
 11799 0287 33       		.uleb128 0x33
 11800 0288 34       		.uleb128 0x34
 11801 0289 00       		.byte	0
 11802 028a 31       		.uleb128 0x31
 11803 028b 13       		.uleb128 0x13
 11804 028c 02       		.uleb128 0x2
 11805 028d 17       		.uleb128 0x17
 11806 028e 00       		.byte	0
 11807 028f 00       		.byte	0
 11808 0290 34       		.uleb128 0x34
 11809 0291 898201   		.uleb128 0x4109
 11810 0294 01       		.byte	0x1
 11811 0295 11       		.uleb128 0x11
 11812 0296 01       		.uleb128 0x1
 11813 0297 31       		.uleb128 0x31
 11814 0298 13       		.uleb128 0x13
 11815 0299 00       		.byte	0
 11816 029a 00       		.byte	0
 11817 029b 35       		.uleb128 0x35
 11818 029c 8A8201   		.uleb128 0x410a
 11819 029f 00       		.byte	0
 11820 02a0 02       		.uleb128 0x2
 11821 02a1 18       		.uleb128 0x18
 11822 02a2 9142     		.uleb128 0x2111
 11823 02a4 18       		.uleb128 0x18
 11824 02a5 00       		.byte	0
 11825 02a6 00       		.byte	0
 11826 02a7 36       		.uleb128 0x36
 11827 02a8 34       		.uleb128 0x34
 11828 02a9 00       		.byte	0
 11829 02aa 31       		.uleb128 0x31
 11830 02ab 13       		.uleb128 0x13
 11831 02ac 00       		.byte	0
 11832 02ad 00       		.byte	0
ARM GAS  C:\Users\haske\AppData\Local\Temp\ccXBxzcA.s 			page 245


 11833 02ae 37       		.uleb128 0x37
 11834 02af 0B       		.uleb128 0xb
 11835 02b0 01       		.byte	0x1
 11836 02b1 11       		.uleb128 0x11
 11837 02b2 01       		.uleb128 0x1
 11838 02b3 12       		.uleb128 0x12
 11839 02b4 06       		.uleb128 0x6
 11840 02b5 01       		.uleb128 0x1
 11841 02b6 13       		.uleb128 0x13
 11842 02b7 00       		.byte	0
 11843 02b8 00       		.byte	0
 11844 02b9 38       		.uleb128 0x38
 11845 02ba 898201   		.uleb128 0x4109
 11846 02bd 01       		.byte	0x1
 11847 02be 11       		.uleb128 0x11
 11848 02bf 01       		.uleb128 0x1
 11849 02c0 31       		.uleb128 0x31
 11850 02c1 13       		.uleb128 0x13
 11851 02c2 01       		.uleb128 0x1
 11852 02c3 13       		.uleb128 0x13
 11853 02c4 00       		.byte	0
 11854 02c5 00       		.byte	0
 11855 02c6 39       		.uleb128 0x39
 11856 02c7 2E       		.uleb128 0x2e
 11857 02c8 01       		.byte	0x1
 11858 02c9 03       		.uleb128 0x3
 11859 02ca 0E       		.uleb128 0xe
 11860 02cb 3A       		.uleb128 0x3a
 11861 02cc 0B       		.uleb128 0xb
 11862 02cd 3B       		.uleb128 0x3b
 11863 02ce 05       		.uleb128 0x5
 11864 02cf 27       		.uleb128 0x27
 11865 02d0 19       		.uleb128 0x19
 11866 02d1 11       		.uleb128 0x11
 11867 02d2 01       		.uleb128 0x1
 11868 02d3 12       		.uleb128 0x12
 11869 02d4 06       		.uleb128 0x6
 11870 02d5 40       		.uleb128 0x40
 11871 02d6 18       		.uleb128 0x18
 11872 02d7 9642     		.uleb128 0x2116
 11873 02d9 19       		.uleb128 0x19
 11874 02da 01       		.uleb128 0x1
 11875 02db 13       		.uleb128 0x13
 11876 02dc 00       		.byte	0
 11877 02dd 00       		.byte	0
 11878 02de 3A       		.uleb128 0x3a
 11879 02df 34       		.uleb128 0x34
 11880 02e0 00       		.byte	0
 11881 02e1 03       		.uleb128 0x3
 11882 02e2 08       		.uleb128 0x8
 11883 02e3 3A       		.uleb128 0x3a
 11884 02e4 0B       		.uleb128 0xb
 11885 02e5 3B       		.uleb128 0x3b
 11886 02e6 05       		.uleb128 0x5
 11887 02e7 49       		.uleb128 0x49
 11888 02e8 13       		.uleb128 0x13
 11889 02e9 02       		.uleb128 0x2
ARM GAS  C:\Users\haske\AppData\Local\Temp\ccXBxzcA.s 			page 246


 11890 02ea 17       		.uleb128 0x17
 11891 02eb 00       		.byte	0
 11892 02ec 00       		.byte	0
 11893 02ed 3B       		.uleb128 0x3b
 11894 02ee 05       		.uleb128 0x5
 11895 02ef 00       		.byte	0
 11896 02f0 31       		.uleb128 0x31
 11897 02f1 13       		.uleb128 0x13
 11898 02f2 00       		.byte	0
 11899 02f3 00       		.byte	0
 11900 02f4 3C       		.uleb128 0x3c
 11901 02f5 34       		.uleb128 0x34
 11902 02f6 00       		.byte	0
 11903 02f7 03       		.uleb128 0x3
 11904 02f8 08       		.uleb128 0x8
 11905 02f9 3A       		.uleb128 0x3a
 11906 02fa 0B       		.uleb128 0xb
 11907 02fb 3B       		.uleb128 0x3b
 11908 02fc 05       		.uleb128 0x5
 11909 02fd 49       		.uleb128 0x49
 11910 02fe 13       		.uleb128 0x13
 11911 02ff 02       		.uleb128 0x2
 11912 0300 18       		.uleb128 0x18
 11913 0301 00       		.byte	0
 11914 0302 00       		.byte	0
 11915 0303 3D       		.uleb128 0x3d
 11916 0304 2E       		.uleb128 0x2e
 11917 0305 01       		.byte	0x1
 11918 0306 3F       		.uleb128 0x3f
 11919 0307 19       		.uleb128 0x19
 11920 0308 03       		.uleb128 0x3
 11921 0309 0E       		.uleb128 0xe
 11922 030a 3A       		.uleb128 0x3a
 11923 030b 0B       		.uleb128 0xb
 11924 030c 3B       		.uleb128 0x3b
 11925 030d 0B       		.uleb128 0xb
 11926 030e 27       		.uleb128 0x27
 11927 030f 19       		.uleb128 0x19
 11928 0310 49       		.uleb128 0x49
 11929 0311 13       		.uleb128 0x13
 11930 0312 11       		.uleb128 0x11
 11931 0313 01       		.uleb128 0x1
 11932 0314 12       		.uleb128 0x12
 11933 0315 06       		.uleb128 0x6
 11934 0316 40       		.uleb128 0x40
 11935 0317 18       		.uleb128 0x18
 11936 0318 9742     		.uleb128 0x2117
 11937 031a 19       		.uleb128 0x19
 11938 031b 01       		.uleb128 0x1
 11939 031c 13       		.uleb128 0x13
 11940 031d 00       		.byte	0
 11941 031e 00       		.byte	0
 11942 031f 3E       		.uleb128 0x3e
 11943 0320 05       		.uleb128 0x5
 11944 0321 00       		.byte	0
 11945 0322 03       		.uleb128 0x3
 11946 0323 0E       		.uleb128 0xe
ARM GAS  C:\Users\haske\AppData\Local\Temp\ccXBxzcA.s 			page 247


 11947 0324 3A       		.uleb128 0x3a
 11948 0325 0B       		.uleb128 0xb
 11949 0326 3B       		.uleb128 0x3b
 11950 0327 0B       		.uleb128 0xb
 11951 0328 49       		.uleb128 0x49
 11952 0329 13       		.uleb128 0x13
 11953 032a 02       		.uleb128 0x2
 11954 032b 17       		.uleb128 0x17
 11955 032c 00       		.byte	0
 11956 032d 00       		.byte	0
 11957 032e 3F       		.uleb128 0x3f
 11958 032f 34       		.uleb128 0x34
 11959 0330 00       		.byte	0
 11960 0331 03       		.uleb128 0x3
 11961 0332 08       		.uleb128 0x8
 11962 0333 3A       		.uleb128 0x3a
 11963 0334 0B       		.uleb128 0xb
 11964 0335 3B       		.uleb128 0x3b
 11965 0336 0B       		.uleb128 0xb
 11966 0337 49       		.uleb128 0x49
 11967 0338 13       		.uleb128 0x13
 11968 0339 02       		.uleb128 0x2
 11969 033a 17       		.uleb128 0x17
 11970 033b 00       		.byte	0
 11971 033c 00       		.byte	0
 11972 033d 40       		.uleb128 0x40
 11973 033e 05       		.uleb128 0x5
 11974 033f 00       		.byte	0
 11975 0340 03       		.uleb128 0x3
 11976 0341 08       		.uleb128 0x8
 11977 0342 3A       		.uleb128 0x3a
 11978 0343 0B       		.uleb128 0xb
 11979 0344 3B       		.uleb128 0x3b
 11980 0345 0B       		.uleb128 0xb
 11981 0346 49       		.uleb128 0x49
 11982 0347 13       		.uleb128 0x13
 11983 0348 02       		.uleb128 0x2
 11984 0349 17       		.uleb128 0x17
 11985 034a 00       		.byte	0
 11986 034b 00       		.byte	0
 11987 034c 41       		.uleb128 0x41
 11988 034d 34       		.uleb128 0x34
 11989 034e 00       		.byte	0
 11990 034f 03       		.uleb128 0x3
 11991 0350 0E       		.uleb128 0xe
 11992 0351 3A       		.uleb128 0x3a
 11993 0352 0B       		.uleb128 0xb
 11994 0353 3B       		.uleb128 0x3b
 11995 0354 0B       		.uleb128 0xb
 11996 0355 49       		.uleb128 0x49
 11997 0356 13       		.uleb128 0x13
 11998 0357 02       		.uleb128 0x2
 11999 0358 17       		.uleb128 0x17
 12000 0359 00       		.byte	0
 12001 035a 00       		.byte	0
 12002 035b 42       		.uleb128 0x42
 12003 035c 2E       		.uleb128 0x2e
ARM GAS  C:\Users\haske\AppData\Local\Temp\ccXBxzcA.s 			page 248


 12004 035d 01       		.byte	0x1
 12005 035e 3F       		.uleb128 0x3f
 12006 035f 19       		.uleb128 0x19
 12007 0360 03       		.uleb128 0x3
 12008 0361 0E       		.uleb128 0xe
 12009 0362 3A       		.uleb128 0x3a
 12010 0363 0B       		.uleb128 0xb
 12011 0364 3B       		.uleb128 0x3b
 12012 0365 0B       		.uleb128 0xb
 12013 0366 27       		.uleb128 0x27
 12014 0367 19       		.uleb128 0x19
 12015 0368 11       		.uleb128 0x11
 12016 0369 01       		.uleb128 0x1
 12017 036a 12       		.uleb128 0x12
 12018 036b 06       		.uleb128 0x6
 12019 036c 40       		.uleb128 0x40
 12020 036d 18       		.uleb128 0x18
 12021 036e 9742     		.uleb128 0x2117
 12022 0370 19       		.uleb128 0x19
 12023 0371 01       		.uleb128 0x1
 12024 0372 13       		.uleb128 0x13
 12025 0373 00       		.byte	0
 12026 0374 00       		.byte	0
 12027 0375 43       		.uleb128 0x43
 12028 0376 05       		.uleb128 0x5
 12029 0377 00       		.byte	0
 12030 0378 03       		.uleb128 0x3
 12031 0379 0E       		.uleb128 0xe
 12032 037a 3A       		.uleb128 0x3a
 12033 037b 0B       		.uleb128 0xb
 12034 037c 3B       		.uleb128 0x3b
 12035 037d 0B       		.uleb128 0xb
 12036 037e 49       		.uleb128 0x49
 12037 037f 13       		.uleb128 0x13
 12038 0380 02       		.uleb128 0x2
 12039 0381 18       		.uleb128 0x18
 12040 0382 00       		.byte	0
 12041 0383 00       		.byte	0
 12042 0384 44       		.uleb128 0x44
 12043 0385 898201   		.uleb128 0x4109
 12044 0388 00       		.byte	0
 12045 0389 11       		.uleb128 0x11
 12046 038a 01       		.uleb128 0x1
 12047 038b 31       		.uleb128 0x31
 12048 038c 13       		.uleb128 0x13
 12049 038d 00       		.byte	0
 12050 038e 00       		.byte	0
 12051 038f 45       		.uleb128 0x45
 12052 0390 34       		.uleb128 0x34
 12053 0391 00       		.byte	0
 12054 0392 03       		.uleb128 0x3
 12055 0393 0E       		.uleb128 0xe
 12056 0394 3A       		.uleb128 0x3a
 12057 0395 0B       		.uleb128 0xb
 12058 0396 3B       		.uleb128 0x3b
 12059 0397 0B       		.uleb128 0xb
 12060 0398 49       		.uleb128 0x49
ARM GAS  C:\Users\haske\AppData\Local\Temp\ccXBxzcA.s 			page 249


 12061 0399 13       		.uleb128 0x13
 12062 039a 3F       		.uleb128 0x3f
 12063 039b 19       		.uleb128 0x19
 12064 039c 3C       		.uleb128 0x3c
 12065 039d 19       		.uleb128 0x19
 12066 039e 00       		.byte	0
 12067 039f 00       		.byte	0
 12068 03a0 46       		.uleb128 0x46
 12069 03a1 34       		.uleb128 0x34
 12070 03a2 00       		.byte	0
 12071 03a3 03       		.uleb128 0x3
 12072 03a4 0E       		.uleb128 0xe
 12073 03a5 3A       		.uleb128 0x3a
 12074 03a6 0B       		.uleb128 0xb
 12075 03a7 3B       		.uleb128 0x3b
 12076 03a8 0B       		.uleb128 0xb
 12077 03a9 49       		.uleb128 0x49
 12078 03aa 13       		.uleb128 0x13
 12079 03ab 3F       		.uleb128 0x3f
 12080 03ac 19       		.uleb128 0x19
 12081 03ad 02       		.uleb128 0x2
 12082 03ae 18       		.uleb128 0x18
 12083 03af 00       		.byte	0
 12084 03b0 00       		.byte	0
 12085 03b1 47       		.uleb128 0x47
 12086 03b2 2E       		.uleb128 0x2e
 12087 03b3 00       		.byte	0
 12088 03b4 3F       		.uleb128 0x3f
 12089 03b5 19       		.uleb128 0x19
 12090 03b6 3C       		.uleb128 0x3c
 12091 03b7 19       		.uleb128 0x19
 12092 03b8 6E       		.uleb128 0x6e
 12093 03b9 0E       		.uleb128 0xe
 12094 03ba 03       		.uleb128 0x3
 12095 03bb 0E       		.uleb128 0xe
 12096 03bc 3A       		.uleb128 0x3a
 12097 03bd 0B       		.uleb128 0xb
 12098 03be 3B       		.uleb128 0x3b
 12099 03bf 0B       		.uleb128 0xb
 12100 03c0 00       		.byte	0
 12101 03c1 00       		.byte	0
 12102 03c2 48       		.uleb128 0x48
 12103 03c3 2E       		.uleb128 0x2e
 12104 03c4 00       		.byte	0
 12105 03c5 3F       		.uleb128 0x3f
 12106 03c6 19       		.uleb128 0x19
 12107 03c7 3C       		.uleb128 0x3c
 12108 03c8 19       		.uleb128 0x19
 12109 03c9 6E       		.uleb128 0x6e
 12110 03ca 0E       		.uleb128 0xe
 12111 03cb 03       		.uleb128 0x3
 12112 03cc 0E       		.uleb128 0xe
 12113 03cd 3A       		.uleb128 0x3a
 12114 03ce 0B       		.uleb128 0xb
 12115 03cf 3B       		.uleb128 0x3b
 12116 03d0 05       		.uleb128 0x5
 12117 03d1 00       		.byte	0
ARM GAS  C:\Users\haske\AppData\Local\Temp\ccXBxzcA.s 			page 250


 12118 03d2 00       		.byte	0
 12119 03d3 00       		.byte	0
 12120              		.section	.debug_loc,"",%progbits
 12121              	.Ldebug_loc0:
 12122              	.LLST0:
 12123 0000 00000000 		.4byte	.LVL0
 12124 0004 1A000000 		.4byte	.LVL2
 12125 0008 0100     		.2byte	0x1
 12126 000a 50       		.byte	0x50
 12127 000b 1A000000 		.4byte	.LVL2
 12128 000f 96000000 		.4byte	.LVL16
 12129 0013 0100     		.2byte	0x1
 12130 0015 56       		.byte	0x56
 12131 0016 96000000 		.4byte	.LVL16
 12132 001a 48010000 		.4byte	.LFE217
 12133 001e 0300     		.2byte	0x3
 12134 0020 91       		.byte	0x91
 12135 0021 F07E     		.sleb128 -144
 12136 0023 00000000 		.4byte	0
 12137 0027 00000000 		.4byte	0
 12138              	.LLST1:
 12139 002b 00000000 		.4byte	.LVL0
 12140 002f 1D000000 		.4byte	.LVL3-1
 12141 0033 0100     		.2byte	0x1
 12142 0035 51       		.byte	0x51
 12143 0036 1D000000 		.4byte	.LVL3-1
 12144 003a 94000000 		.4byte	.LVL15
 12145 003e 0100     		.2byte	0x1
 12146 0040 57       		.byte	0x57
 12147 0041 94000000 		.4byte	.LVL15
 12148 0045 48010000 		.4byte	.LFE217
 12149 0049 0300     		.2byte	0x3
 12150 004b 91       		.byte	0x91
 12151 004c F47E     		.sleb128 -140
 12152 004e 00000000 		.4byte	0
 12153 0052 00000000 		.4byte	0
 12154              	.LLST2:
 12155 0056 00000000 		.4byte	.LVL0
 12156 005a 1D000000 		.4byte	.LVL3-1
 12157 005e 0100     		.2byte	0x1
 12158 0060 52       		.byte	0x52
 12159 0061 1D000000 		.4byte	.LVL3-1
 12160 0065 96000000 		.4byte	.LVL16
 12161 0069 0100     		.2byte	0x1
 12162 006b 55       		.byte	0x55
 12163 006c 96000000 		.4byte	.LVL16
 12164 0070 48010000 		.4byte	.LFE217
 12165 0074 0400     		.2byte	0x4
 12166 0076 F3       		.byte	0xf3
 12167 0077 01       		.uleb128 0x1
 12168 0078 52       		.byte	0x52
 12169 0079 9F       		.byte	0x9f
 12170 007a 00000000 		.4byte	0
 12171 007e 00000000 		.4byte	0
 12172              	.LLST3:
 12173 0082 16000000 		.4byte	.LVL1
 12174 0086 1A000000 		.4byte	.LVL2
ARM GAS  C:\Users\haske\AppData\Local\Temp\ccXBxzcA.s 			page 251


 12175 008a 0100     		.2byte	0x1
 12176 008c 50       		.byte	0x50
 12177 008d 1A000000 		.4byte	.LVL2
 12178 0091 96000000 		.4byte	.LVL16
 12179 0095 0100     		.2byte	0x1
 12180 0097 56       		.byte	0x56
 12181 0098 96000000 		.4byte	.LVL16
 12182 009c 48010000 		.4byte	.LFE217
 12183 00a0 0300     		.2byte	0x3
 12184 00a2 91       		.byte	0x91
 12185 00a3 F07E     		.sleb128 -144
 12186 00a5 00000000 		.4byte	0
 12187 00a9 00000000 		.4byte	0
 12188              	.LLST4:
 12189 00ad 4C000000 		.4byte	.LVL8
 12190 00b1 5A000000 		.4byte	.LVL9
 12191 00b5 0100     		.2byte	0x1
 12192 00b7 53       		.byte	0x53
 12193 00b8 5A000000 		.4byte	.LVL9
 12194 00bc 3A010000 		.4byte	.LVL33
 12195 00c0 0100     		.2byte	0x1
 12196 00c2 59       		.byte	0x59
 12197 00c3 00000000 		.4byte	0
 12198 00c7 00000000 		.4byte	0
 12199              	.LLST5:
 12200 00cb 94000000 		.4byte	.LVL15
 12201 00cf C6000000 		.4byte	.LVL18
 12202 00d3 0100     		.2byte	0x1
 12203 00d5 50       		.byte	0x50
 12204 00d6 C6000000 		.4byte	.LVL18
 12205 00da 34010000 		.4byte	.LVL32
 12206 00de 0100     		.2byte	0x1
 12207 00e0 57       		.byte	0x57
 12208 00e1 34010000 		.4byte	.LVL32
 12209 00e5 48010000 		.4byte	.LFE217
 12210 00e9 0100     		.2byte	0x1
 12211 00eb 50       		.byte	0x50
 12212 00ec 00000000 		.4byte	0
 12213 00f0 00000000 		.4byte	0
 12214              	.LLST6:
 12215 00f4 1E000000 		.4byte	.LVL3
 12216 00f8 2A000000 		.4byte	.LVL4
 12217 00fc 0400     		.2byte	0x4
 12218 00fe 44       		.byte	0x44
 12219 00ff 3E       		.byte	0x3e
 12220 0100 24       		.byte	0x24
 12221 0101 9F       		.byte	0x9f
 12222 0102 00000000 		.4byte	0
 12223 0106 00000000 		.4byte	0
 12224              	.LLST7:
 12225 010a 1E000000 		.4byte	.LVL3
 12226 010e 2A000000 		.4byte	.LVL4
 12227 0112 0100     		.2byte	0x1
 12228 0114 56       		.byte	0x56
 12229 0115 00000000 		.4byte	0
 12230 0119 00000000 		.4byte	0
 12231              	.LLST8:
ARM GAS  C:\Users\haske\AppData\Local\Temp\ccXBxzcA.s 			page 252


 12232 011d 2A000000 		.4byte	.LVL4
 12233 0121 2E000000 		.4byte	.LVL5
 12234 0125 0100     		.2byte	0x1
 12235 0127 50       		.byte	0x50
 12236 0128 00000000 		.4byte	0
 12237 012c 00000000 		.4byte	0
 12238              	.LLST9:
 12239 0130 3A000000 		.4byte	.LVL6
 12240 0134 46000000 		.4byte	.LVL7
 12241 0138 0100     		.2byte	0x1
 12242 013a 55       		.byte	0x55
 12243 013b 00000000 		.4byte	0
 12244 013f 00000000 		.4byte	0
 12245              	.LLST10:
 12246 0143 5E000000 		.4byte	.LVL10
 12247 0147 6E000000 		.4byte	.LVL12
 12248 014b 0200     		.2byte	0x2
 12249 014d 30       		.byte	0x30
 12250 014e 9F       		.byte	0x9f
 12251 014f 00000000 		.4byte	0
 12252 0153 00000000 		.4byte	0
 12253              	.LLST11:
 12254 0157 5E000000 		.4byte	.LVL10
 12255 015b 6E000000 		.4byte	.LVL12
 12256 015f 0100     		.2byte	0x1
 12257 0161 56       		.byte	0x56
 12258 0162 00000000 		.4byte	0
 12259 0166 00000000 		.4byte	0
 12260              	.LLST12:
 12261 016a C4000000 		.4byte	.LVL17
 12262 016e E6000000 		.4byte	.LVL22
 12263 0172 0100     		.2byte	0x1
 12264 0174 54       		.byte	0x54
 12265 0175 00000000 		.4byte	0
 12266 0179 00000000 		.4byte	0
 12267              	.LLST13:
 12268 017d DA000000 		.4byte	.LVL20
 12269 0181 DC000000 		.4byte	.LVL21
 12270 0185 0100     		.2byte	0x1
 12271 0187 50       		.byte	0x50
 12272 0188 DC000000 		.4byte	.LVL21
 12273 018c 14010000 		.4byte	.LVL28
 12274 0190 0100     		.2byte	0x1
 12275 0192 55       		.byte	0x55
 12276 0193 00000000 		.4byte	0
 12277 0197 00000000 		.4byte	0
 12278              	.LLST14:
 12279 019b F0000000 		.4byte	.LVL24
 12280 019f 08010000 		.4byte	.LVL25
 12281 01a3 0100     		.2byte	0x1
 12282 01a5 50       		.byte	0x50
 12283 01a6 08010000 		.4byte	.LVL25
 12284 01aa 10010000 		.4byte	.LVL27
 12285 01ae 0100     		.2byte	0x1
 12286 01b0 56       		.byte	0x56
 12287 01b1 00000000 		.4byte	0
 12288 01b5 00000000 		.4byte	0
ARM GAS  C:\Users\haske\AppData\Local\Temp\ccXBxzcA.s 			page 253


 12289              	.LLST15:
 12290 01b9 00000000 		.4byte	.LVL34
 12291 01bd 14000000 		.4byte	.LVL35
 12292 01c1 0100     		.2byte	0x1
 12293 01c3 50       		.byte	0x50
 12294 01c4 14000000 		.4byte	.LVL35
 12295 01c8 3C040000 		.4byte	.LFE218
 12296 01cc 0300     		.2byte	0x3
 12297 01ce 91       		.byte	0x91
 12298 01cf 907D     		.sleb128 -368
 12299 01d1 00000000 		.4byte	0
 12300 01d5 00000000 		.4byte	0
 12301              	.LLST16:
 12302 01d9 00000000 		.4byte	.LVL34
 12303 01dd 1A000000 		.4byte	.LVL37
 12304 01e1 0100     		.2byte	0x1
 12305 01e3 51       		.byte	0x51
 12306 01e4 1A000000 		.4byte	.LVL37
 12307 01e8 3C040000 		.4byte	.LFE218
 12308 01ec 0300     		.2byte	0x3
 12309 01ee 91       		.byte	0x91
 12310 01ef A07D     		.sleb128 -352
 12311 01f1 00000000 		.4byte	0
 12312 01f5 00000000 		.4byte	0
 12313              	.LLST17:
 12314 01f9 00000000 		.4byte	.LVL34
 12315 01fd 18000000 		.4byte	.LVL36
 12316 0201 0100     		.2byte	0x1
 12317 0203 52       		.byte	0x52
 12318 0204 18000000 		.4byte	.LVL36
 12319 0208 2C000000 		.4byte	.LVL40
 12320 020c 0100     		.2byte	0x1
 12321 020e 50       		.byte	0x50
 12322 020f 2C000000 		.4byte	.LVL40
 12323 0213 3C040000 		.4byte	.LFE218
 12324 0217 0400     		.2byte	0x4
 12325 0219 F3       		.byte	0xf3
 12326 021a 01       		.uleb128 0x1
 12327 021b 52       		.byte	0x52
 12328 021c 9F       		.byte	0x9f
 12329 021d 00000000 		.4byte	0
 12330 0221 00000000 		.4byte	0
 12331              	.LLST18:
 12332 0225 A4000000 		.4byte	.LVL48
 12333 0229 C0000000 		.4byte	.LVL52
 12334 022d 0100     		.2byte	0x1
 12335 022f 50       		.byte	0x50
 12336 0230 C0000000 		.4byte	.LVL52
 12337 0234 28040000 		.4byte	.LVL134
 12338 0238 0100     		.2byte	0x1
 12339 023a 57       		.byte	0x57
 12340 023b 28040000 		.4byte	.LVL134
 12341 023f 3C040000 		.4byte	.LFE218
 12342 0243 0100     		.2byte	0x1
 12343 0245 50       		.byte	0x50
 12344 0246 00000000 		.4byte	0
 12345 024a 00000000 		.4byte	0
ARM GAS  C:\Users\haske\AppData\Local\Temp\ccXBxzcA.s 			page 254


 12346              	.LLST19:
 12347 024e 14000000 		.4byte	.LVL35
 12348 0252 18000000 		.4byte	.LVL36
 12349 0256 0100     		.2byte	0x1
 12350 0258 52       		.byte	0x52
 12351 0259 18000000 		.4byte	.LVL36
 12352 025d 20000000 		.4byte	.LVL38
 12353 0261 0100     		.2byte	0x1
 12354 0263 50       		.byte	0x50
 12355 0264 00000000 		.4byte	0
 12356 0268 00000000 		.4byte	0
 12357              	.LLST20:
 12358 026c 26000000 		.4byte	.LVL39
 12359 0270 2C000000 		.4byte	.LVL40
 12360 0274 0100     		.2byte	0x1
 12361 0276 50       		.byte	0x50
 12362 0277 2C000000 		.4byte	.LVL40
 12363 027b 32000000 		.4byte	.LVL41
 12364 027f 0400     		.2byte	0x4
 12365 0281 F3       		.byte	0xf3
 12366 0282 01       		.uleb128 0x1
 12367 0283 52       		.byte	0x52
 12368 0284 9F       		.byte	0x9f
 12369 0285 00000000 		.4byte	0
 12370 0289 00000000 		.4byte	0
 12371              	.LLST21:
 12372 028d AA000000 		.4byte	.LVL49
 12373 0291 28040000 		.4byte	.LVL134
 12374 0295 0300     		.2byte	0x3
 12375 0297 91       		.byte	0x91
 12376 0298 AC7D     		.sleb128 -340
 12377 029a 00000000 		.4byte	0
 12378 029e 00000000 		.4byte	0
 12379              	.LLST22:
 12380 02a2 B2000000 		.4byte	.LVL50
 12381 02a6 D2000000 		.4byte	.LVL53
 12382 02aa 0100     		.2byte	0x1
 12383 02ac 53       		.byte	0x53
 12384 02ad 00000000 		.4byte	0
 12385 02b1 00000000 		.4byte	0
 12386              	.LLST23:
 12387 02b5 BC000000 		.4byte	.LVL51
 12388 02b9 28040000 		.4byte	.LVL134
 12389 02bd 0300     		.2byte	0x3
 12390 02bf 91       		.byte	0x91
 12391 02c0 B07D     		.sleb128 -336
 12392 02c2 00000000 		.4byte	0
 12393 02c6 00000000 		.4byte	0
 12394              	.LLST24:
 12395 02ca 3E010000 		.4byte	.LVL58
 12396 02ce 5A010000 		.4byte	.LVL59
 12397 02d2 0100     		.2byte	0x1
 12398 02d4 50       		.byte	0x50
 12399 02d5 5A010000 		.4byte	.LVL59
 12400 02d9 92030000 		.4byte	.LVL118
 12401 02dd 0300     		.2byte	0x3
 12402 02df 91       		.byte	0x91
ARM GAS  C:\Users\haske\AppData\Local\Temp\ccXBxzcA.s 			page 255


 12403 02e0 A87D     		.sleb128 -344
 12404 02e2 92030000 		.4byte	.LVL118
 12405 02e6 94030000 		.4byte	.LVL119
 12406 02ea 0100     		.2byte	0x1
 12407 02ec 50       		.byte	0x50
 12408 02ed 94030000 		.4byte	.LVL119
 12409 02f1 28040000 		.4byte	.LVL134
 12410 02f5 0300     		.2byte	0x3
 12411 02f7 91       		.byte	0x91
 12412 02f8 A87D     		.sleb128 -344
 12413 02fa 00000000 		.4byte	0
 12414 02fe 00000000 		.4byte	0
 12415              	.LLST25:
 12416 0302 3E010000 		.4byte	.LVL58
 12417 0306 5A010000 		.4byte	.LVL59
 12418 030a 0300     		.2byte	0x3
 12419 030c 09       		.byte	0x9
 12420 030d FF       		.byte	0xff
 12421 030e 9F       		.byte	0x9f
 12422 030f D2030000 		.4byte	.LVL122
 12423 0313 FE030000 		.4byte	.LVL128
 12424 0317 0100     		.2byte	0x1
 12425 0319 56       		.byte	0x56
 12426 031a 00000000 		.4byte	0
 12427 031e 00000000 		.4byte	0
 12428              	.LLST26:
 12429 0322 5A010000 		.4byte	.LVL59
 12430 0326 62010000 		.4byte	.LVL60
 12431 032a 0300     		.2byte	0x3
 12432 032c 91       		.byte	0x91
 12433 032d 947D     		.sleb128 -364
 12434 032f 62010000 		.4byte	.LVL60
 12435 0333 76010000 		.4byte	.LVL61
 12436 0337 0100     		.2byte	0x1
 12437 0339 51       		.byte	0x51
 12438 033a 76010000 		.4byte	.LVL61
 12439 033e 28040000 		.4byte	.LVL134
 12440 0342 0300     		.2byte	0x3
 12441 0344 91       		.byte	0x91
 12442 0345 947D     		.sleb128 -364
 12443 0347 00000000 		.4byte	0
 12444 034b 00000000 		.4byte	0
 12445              	.LLST27:
 12446 034f 5A010000 		.4byte	.LVL59
 12447 0353 C6010000 		.4byte	.LVL70
 12448 0357 0100     		.2byte	0x1
 12449 0359 55       		.byte	0x55
 12450 035a FE030000 		.4byte	.LVL128
 12451 035e 28040000 		.4byte	.LVL134
 12452 0362 0100     		.2byte	0x1
 12453 0364 55       		.byte	0x55
 12454 0365 00000000 		.4byte	0
 12455 0369 00000000 		.4byte	0
 12456              	.LLST28:
 12457 036d 62010000 		.4byte	.LVL60
 12458 0371 76010000 		.4byte	.LVL61
 12459 0375 0200     		.2byte	0x2
ARM GAS  C:\Users\haske\AppData\Local\Temp\ccXBxzcA.s 			page 256


 12460 0377 30       		.byte	0x30
 12461 0378 9F       		.byte	0x9f
 12462 0379 76010000 		.4byte	.LVL61
 12463 037d FE030000 		.4byte	.LVL128
 12464 0381 0100     		.2byte	0x1
 12465 0383 59       		.byte	0x59
 12466 0384 00000000 		.4byte	0
 12467 0388 00000000 		.4byte	0
 12468              	.LLST29:
 12469 038c 8A010000 		.4byte	.LVL63
 12470 0390 B8010000 		.4byte	.LVL66
 12471 0394 0100     		.2byte	0x1
 12472 0396 50       		.byte	0x50
 12473 0397 B8010000 		.4byte	.LVL66
 12474 039b C4010000 		.4byte	.LVL69
 12475 039f 0100     		.2byte	0x1
 12476 03a1 58       		.byte	0x58
 12477 03a2 C4010000 		.4byte	.LVL69
 12478 03a6 C8010000 		.4byte	.LVL71
 12479 03aa 0100     		.2byte	0x1
 12480 03ac 53       		.byte	0x53
 12481 03ad C8010000 		.4byte	.LVL71
 12482 03b1 54020000 		.4byte	.LVL95
 12483 03b5 0100     		.2byte	0x1
 12484 03b7 55       		.byte	0x55
 12485 03b8 54020000 		.4byte	.LVL95
 12486 03bc 58020000 		.4byte	.LVL96
 12487 03c0 0100     		.2byte	0x1
 12488 03c2 53       		.byte	0x53
 12489 03c3 58020000 		.4byte	.LVL96
 12490 03c7 30030000 		.4byte	.LVL114
 12491 03cb 0100     		.2byte	0x1
 12492 03cd 58       		.byte	0x58
 12493 03ce 94030000 		.4byte	.LVL119
 12494 03d2 A4030000 		.4byte	.LVL120
 12495 03d6 0100     		.2byte	0x1
 12496 03d8 58       		.byte	0x58
 12497 03d9 00000000 		.4byte	0
 12498 03dd 00000000 		.4byte	0
 12499              	.LLST30:
 12500 03e1 9A010000 		.4byte	.LVL64
 12501 03e5 EE010000 		.4byte	.LVL74
 12502 03e9 0100     		.2byte	0x1
 12503 03eb 56       		.byte	0x56
 12504 03ec F0010000 		.4byte	.LVL75
 12505 03f0 1E020000 		.4byte	.LVL83
 12506 03f4 0100     		.2byte	0x1
 12507 03f6 56       		.byte	0x56
 12508 03f7 42020000 		.4byte	.LVL92
 12509 03fb A0020000 		.4byte	.LVL101
 12510 03ff 0100     		.2byte	0x1
 12511 0401 56       		.byte	0x56
 12512 0402 00000000 		.4byte	0
 12513 0406 00000000 		.4byte	0
 12514              	.LLST31:
 12515 040a F4030000 		.4byte	.LVL126
 12516 040e F8030000 		.4byte	.LVL127
ARM GAS  C:\Users\haske\AppData\Local\Temp\ccXBxzcA.s 			page 257


 12517 0412 0100     		.2byte	0x1
 12518 0414 53       		.byte	0x53
 12519 0415 00000000 		.4byte	0
 12520 0419 00000000 		.4byte	0
 12521              	.LLST32:
 12522 041d B0010000 		.4byte	.LVL65
 12523 0421 FE030000 		.4byte	.LVL128
 12524 0425 0100     		.2byte	0x1
 12525 0427 5B       		.byte	0x5b
 12526 0428 00000000 		.4byte	0
 12527 042c 00000000 		.4byte	0
 12528              	.LLST33:
 12529 0430 B0010000 		.4byte	.LVL65
 12530 0434 C8010000 		.4byte	.LVL71
 12531 0438 0100     		.2byte	0x1
 12532 043a 5B       		.byte	0x5b
 12533 043b C8010000 		.4byte	.LVL71
 12534 043f F8020000 		.4byte	.LVL109
 12535 0443 0100     		.2byte	0x1
 12536 0445 5A       		.byte	0x5a
 12537 0446 94030000 		.4byte	.LVL119
 12538 044a A4030000 		.4byte	.LVL120
 12539 044e 0100     		.2byte	0x1
 12540 0450 5A       		.byte	0x5a
 12541 0451 00000000 		.4byte	0
 12542 0455 00000000 		.4byte	0
 12543              	.LLST34:
 12544 0459 BE010000 		.4byte	.LVL68
 12545 045d DE010000 		.4byte	.LVL72
 12546 0461 0100     		.2byte	0x1
 12547 0463 50       		.byte	0x50
 12548 0464 DE010000 		.4byte	.LVL72
 12549 0468 4C020000 		.4byte	.LVL94
 12550 046c 0100     		.2byte	0x1
 12551 046e 54       		.byte	0x54
 12552 046f 4C020000 		.4byte	.LVL94
 12553 0473 64020000 		.4byte	.LVL97
 12554 0477 0100     		.2byte	0x1
 12555 0479 50       		.byte	0x50
 12556 047a 64020000 		.4byte	.LVL97
 12557 047e A8020000 		.4byte	.LVL102
 12558 0482 0100     		.2byte	0x1
 12559 0484 54       		.byte	0x54
 12560 0485 00000000 		.4byte	0
 12561 0489 00000000 		.4byte	0
 12562              	.LLST35:
 12563 048d 7A020000 		.4byte	.LVL99
 12564 0491 7C020000 		.4byte	.LVL100
 12565 0495 0100     		.2byte	0x1
 12566 0497 53       		.byte	0x53
 12567 0498 7C020000 		.4byte	.LVL100
 12568 049c 28030000 		.4byte	.LVL113
 12569 04a0 0300     		.2byte	0x3
 12570 04a2 91       		.byte	0x91
 12571 04a3 8C7D     		.sleb128 -372
 12572 04a5 94030000 		.4byte	.LVL119
 12573 04a9 A4030000 		.4byte	.LVL120
ARM GAS  C:\Users\haske\AppData\Local\Temp\ccXBxzcA.s 			page 258


 12574 04ad 0300     		.2byte	0x3
 12575 04af 91       		.byte	0x91
 12576 04b0 8C7D     		.sleb128 -372
 12577 04b2 00000000 		.4byte	0
 12578 04b6 00000000 		.4byte	0
 12579              	.LLST36:
 12580 04ba 04020000 		.4byte	.LVL77
 12581 04be 06020000 		.4byte	.LVL78
 12582 04c2 0100     		.2byte	0x1
 12583 04c4 52       		.byte	0x52
 12584 04c5 18020000 		.4byte	.LVL80
 12585 04c9 1A020000 		.4byte	.LVL81
 12586 04cd 0100     		.2byte	0x1
 12587 04cf 52       		.byte	0x52
 12588 04d0 00000000 		.4byte	0
 12589 04d4 00000000 		.4byte	0
 12590              	.LLST37:
 12591 04d8 18020000 		.4byte	.LVL80
 12592 04dc 1A020000 		.4byte	.LVL81
 12593 04e0 0100     		.2byte	0x1
 12594 04e2 52       		.byte	0x52
 12595 04e3 1C020000 		.4byte	.LVL82
 12596 04e7 36020000 		.4byte	.LVL89
 12597 04eb 0100     		.2byte	0x1
 12598 04ed 52       		.byte	0x52
 12599 04ee 00000000 		.4byte	0
 12600 04f2 00000000 		.4byte	0
 12601              	.LLST38:
 12602 04f6 28020000 		.4byte	.LVL84
 12603 04fa 2C020000 		.4byte	.LVL85
 12604 04fe 0100     		.2byte	0x1
 12605 0500 53       		.byte	0x53
 12606 0501 2C020000 		.4byte	.LVL85
 12607 0505 40020000 		.4byte	.LVL91
 12608 0509 0100     		.2byte	0x1
 12609 050b 56       		.byte	0x56
 12610 050c 40020000 		.4byte	.LVL91
 12611 0510 42020000 		.4byte	.LVL92
 12612 0514 1700     		.2byte	0x17
 12613 0516 74       		.byte	0x74
 12614 0517 12       		.sleb128 18
 12615 0518 94       		.byte	0x94
 12616 0519 02       		.byte	0x2
 12617 051a 0A       		.byte	0xa
 12618 051b FFFF     		.2byte	0xffff
 12619 051d 1A       		.byte	0x1a
 12620 051e 40       		.byte	0x40
 12621 051f 24       		.byte	0x24
 12622 0520 74       		.byte	0x74
 12623 0521 12       		.sleb128 18
 12624 0522 94       		.byte	0x94
 12625 0523 02       		.byte	0x2
 12626 0524 0A       		.byte	0xa
 12627 0525 FFFF     		.2byte	0xffff
 12628 0527 1A       		.byte	0x1a
 12629 0528 21       		.byte	0x21
 12630 0529 70       		.byte	0x70
ARM GAS  C:\Users\haske\AppData\Local\Temp\ccXBxzcA.s 			page 259


 12631 052a 00       		.sleb128 0
 12632 052b 1A       		.byte	0x1a
 12633 052c 9F       		.byte	0x9f
 12634 052d 00000000 		.4byte	0
 12635 0531 00000000 		.4byte	0
 12636              	.LLST39:
 12637 0535 30020000 		.4byte	.LVL86
 12638 0539 32020000 		.4byte	.LVL87
 12639 053d 0100     		.2byte	0x1
 12640 053f 51       		.byte	0x51
 12641 0540 32020000 		.4byte	.LVL87
 12642 0544 34020000 		.4byte	.LVL88
 12643 0548 0F00     		.2byte	0xf
 12644 054a 74       		.byte	0x74
 12645 054b 14       		.sleb128 20
 12646 054c 94       		.byte	0x94
 12647 054d 02       		.byte	0x2
 12648 054e 0A       		.byte	0xa
 12649 054f FFFF     		.2byte	0xffff
 12650 0551 1A       		.byte	0x1a
 12651 0552 73       		.byte	0x73
 12652 0553 00       		.sleb128 0
 12653 0554 21       		.byte	0x21
 12654 0555 70       		.byte	0x70
 12655 0556 00       		.sleb128 0
 12656 0557 1A       		.byte	0x1a
 12657 0558 9F       		.byte	0x9f
 12658 0559 34020000 		.4byte	.LVL88
 12659 055d 42020000 		.4byte	.LVL92
 12660 0561 1700     		.2byte	0x17
 12661 0563 74       		.byte	0x74
 12662 0564 14       		.sleb128 20
 12663 0565 94       		.byte	0x94
 12664 0566 02       		.byte	0x2
 12665 0567 0A       		.byte	0xa
 12666 0568 FFFF     		.2byte	0xffff
 12667 056a 1A       		.byte	0x1a
 12668 056b 40       		.byte	0x40
 12669 056c 24       		.byte	0x24
 12670 056d 74       		.byte	0x74
 12671 056e 14       		.sleb128 20
 12672 056f 94       		.byte	0x94
 12673 0570 02       		.byte	0x2
 12674 0571 0A       		.byte	0xa
 12675 0572 FFFF     		.2byte	0xffff
 12676 0574 1A       		.byte	0x1a
 12677 0575 21       		.byte	0x21
 12678 0576 70       		.byte	0x70
 12679 0577 00       		.sleb128 0
 12680 0578 1A       		.byte	0x1a
 12681 0579 9F       		.byte	0x9f
 12682 057a 00000000 		.4byte	0
 12683 057e 00000000 		.4byte	0
 12684              	.LLST40:
 12685 0582 3E020000 		.4byte	.LVL90
 12686 0586 42020000 		.4byte	.LVL92
 12687 058a 0100     		.2byte	0x1
ARM GAS  C:\Users\haske\AppData\Local\Temp\ccXBxzcA.s 			page 260


 12688 058c 53       		.byte	0x53
 12689 058d 00000000 		.4byte	0
 12690 0591 00000000 		.4byte	0
 12691              	.LLST41:
 12692 0595 D4020000 		.4byte	.LVL105
 12693 0599 DE020000 		.4byte	.LVL106
 12694 059d 0100     		.2byte	0x1
 12695 059f 52       		.byte	0x52
 12696 05a0 DE020000 		.4byte	.LVL106
 12697 05a4 E0020000 		.4byte	.LVL107
 12698 05a8 0E00     		.2byte	0xe
 12699 05aa 91       		.byte	0x91
 12700 05ab B07D     		.sleb128 -336
 12701 05ad 06       		.byte	0x6
 12702 05ae 77       		.byte	0x77
 12703 05af 10       		.sleb128 16
 12704 05b0 94       		.byte	0x94
 12705 05b1 02       		.byte	0x2
 12706 05b2 40       		.byte	0x40
 12707 05b3 24       		.byte	0x24
 12708 05b4 40       		.byte	0x40
 12709 05b5 26       		.byte	0x26
 12710 05b6 1C       		.byte	0x1c
 12711 05b7 9F       		.byte	0x9f
 12712 05b8 00000000 		.4byte	0
 12713 05bc 00000000 		.4byte	0
 12714              	.LLST42:
 12715 05c0 00000000 		.4byte	.LVL135
 12716 05c4 22000000 		.4byte	.LVL139
 12717 05c8 0100     		.2byte	0x1
 12718 05ca 50       		.byte	0x50
 12719 05cb 22000000 		.4byte	.LVL139
 12720 05cf 8E000000 		.4byte	.LVL150
 12721 05d3 0100     		.2byte	0x1
 12722 05d5 54       		.byte	0x54
 12723 05d6 8E000000 		.4byte	.LVL150
 12724 05da 34020000 		.4byte	.LFE219
 12725 05de 0300     		.2byte	0x3
 12726 05e0 91       		.byte	0x91
 12727 05e1 D47E     		.sleb128 -172
 12728 05e3 00000000 		.4byte	0
 12729 05e7 00000000 		.4byte	0
 12730              	.LLST43:
 12731 05eb 00000000 		.4byte	.LVL135
 12732 05ef 18000000 		.4byte	.LVL137
 12733 05f3 0100     		.2byte	0x1
 12734 05f5 51       		.byte	0x51
 12735 05f6 18000000 		.4byte	.LVL137
 12736 05fa 8E000000 		.4byte	.LVL150
 12737 05fe 0100     		.2byte	0x1
 12738 0600 57       		.byte	0x57
 12739 0601 8E000000 		.4byte	.LVL150
 12740 0605 9E010000 		.4byte	.LVL175
 12741 0609 0300     		.2byte	0x3
 12742 060b 91       		.byte	0x91
 12743 060c D87E     		.sleb128 -168
 12744 060e 9E010000 		.4byte	.LVL175
ARM GAS  C:\Users\haske\AppData\Local\Temp\ccXBxzcA.s 			page 261


 12745 0612 0A020000 		.4byte	.LVL182
 12746 0616 0200     		.2byte	0x2
 12747 0618 77       		.byte	0x77
 12748 0619 00       		.sleb128 0
 12749 061a 0A020000 		.4byte	.LVL182
 12750 061e 34020000 		.4byte	.LFE219
 12751 0622 0300     		.2byte	0x3
 12752 0624 91       		.byte	0x91
 12753 0625 D87E     		.sleb128 -168
 12754 0627 00000000 		.4byte	0
 12755 062b 00000000 		.4byte	0
 12756              	.LLST44:
 12757 062f 00000000 		.4byte	.LVL135
 12758 0633 34000000 		.4byte	.LVL141
 12759 0637 0100     		.2byte	0x1
 12760 0639 52       		.byte	0x52
 12761 063a 34000000 		.4byte	.LVL141
 12762 063e 34020000 		.4byte	.LFE219
 12763 0642 0400     		.2byte	0x4
 12764 0644 F3       		.byte	0xf3
 12765 0645 01       		.uleb128 0x1
 12766 0646 52       		.byte	0x52
 12767 0647 9F       		.byte	0x9f
 12768 0648 00000000 		.4byte	0
 12769 064c 00000000 		.4byte	0
 12770              	.LLST45:
 12771 0650 14000000 		.4byte	.LVL136
 12772 0654 22000000 		.4byte	.LVL139
 12773 0658 0100     		.2byte	0x1
 12774 065a 50       		.byte	0x50
 12775 065b 22000000 		.4byte	.LVL139
 12776 065f 8E000000 		.4byte	.LVL150
 12777 0663 0100     		.2byte	0x1
 12778 0665 54       		.byte	0x54
 12779 0666 8E000000 		.4byte	.LVL150
 12780 066a 34020000 		.4byte	.LFE219
 12781 066e 0300     		.2byte	0x3
 12782 0670 91       		.byte	0x91
 12783 0671 D47E     		.sleb128 -172
 12784 0673 00000000 		.4byte	0
 12785 0677 00000000 		.4byte	0
 12786              	.LLST46:
 12787 067b 26000000 		.4byte	.LVL140
 12788 067f 34000000 		.4byte	.LVL141
 12789 0683 0100     		.2byte	0x1
 12790 0685 53       		.byte	0x53
 12791 0686 34000000 		.4byte	.LVL141
 12792 068a 1C020000 		.4byte	.LVL185
 12793 068e 0100     		.2byte	0x1
 12794 0690 59       		.byte	0x59
 12795 0691 00000000 		.4byte	0
 12796 0695 00000000 		.4byte	0
 12797              	.LLST47:
 12798 0699 8A000000 		.4byte	.LVL149
 12799 069d 9A000000 		.4byte	.LVL152
 12800 06a1 0100     		.2byte	0x1
 12801 06a3 50       		.byte	0x50
ARM GAS  C:\Users\haske\AppData\Local\Temp\ccXBxzcA.s 			page 262


 12802 06a4 9A000000 		.4byte	.LVL152
 12803 06a8 46010000 		.4byte	.LVL168
 12804 06ac 0100     		.2byte	0x1
 12805 06ae 55       		.byte	0x55
 12806 06af 46010000 		.4byte	.LVL168
 12807 06b3 52010000 		.4byte	.LVL169
 12808 06b7 0100     		.2byte	0x1
 12809 06b9 50       		.byte	0x50
 12810 06ba 52010000 		.4byte	.LVL169
 12811 06be 14020000 		.4byte	.LVL184
 12812 06c2 0100     		.2byte	0x1
 12813 06c4 55       		.byte	0x55
 12814 06c5 14020000 		.4byte	.LVL184
 12815 06c9 34020000 		.4byte	.LFE219
 12816 06cd 0100     		.2byte	0x1
 12817 06cf 50       		.byte	0x50
 12818 06d0 00000000 		.4byte	0
 12819 06d4 00000000 		.4byte	0
 12820              	.LLST48:
 12821 06d8 14000000 		.4byte	.LVL136
 12822 06dc 20000000 		.4byte	.LVL138
 12823 06e0 0100     		.2byte	0x1
 12824 06e2 52       		.byte	0x52
 12825 06e3 00000000 		.4byte	0
 12826 06e7 00000000 		.4byte	0
 12827              	.LLST49:
 12828 06eb 5C000000 		.4byte	.LVL145
 12829 06ef 70000000 		.4byte	.LVL147
 12830 06f3 0200     		.2byte	0x2
 12831 06f5 30       		.byte	0x30
 12832 06f6 9F       		.byte	0x9f
 12833 06f7 00000000 		.4byte	0
 12834 06fb 00000000 		.4byte	0
 12835              	.LLST50:
 12836 06ff 5C000000 		.4byte	.LVL145
 12837 0703 70000000 		.4byte	.LVL147
 12838 0707 0100     		.2byte	0x1
 12839 0709 54       		.byte	0x54
 12840 070a 00000000 		.4byte	0
 12841 070e 00000000 		.4byte	0
 12842              	.LLST51:
 12843 0712 90000000 		.4byte	.LVL151
 12844 0716 D0000000 		.4byte	.LVL159
 12845 071a 0100     		.2byte	0x1
 12846 071c 54       		.byte	0x54
 12847 071d 46010000 		.4byte	.LVL168
 12848 0721 5C010000 		.4byte	.LVL170
 12849 0725 0100     		.2byte	0x1
 12850 0727 54       		.byte	0x54
 12851 0728 00000000 		.4byte	0
 12852 072c 00000000 		.4byte	0
 12853              	.LLST52:
 12854 0730 AE000000 		.4byte	.LVL154
 12855 0734 B2000000 		.4byte	.LVL155
 12856 0738 0100     		.2byte	0x1
 12857 073a 50       		.byte	0x50
 12858 073b B2000000 		.4byte	.LVL155
ARM GAS  C:\Users\haske\AppData\Local\Temp\ccXBxzcA.s 			page 263


 12859 073f DC000000 		.4byte	.LVL161
 12860 0743 0100     		.2byte	0x1
 12861 0745 56       		.byte	0x56
 12862 0746 DC000000 		.4byte	.LVL161
 12863 074a 20010000 		.4byte	.LVL164
 12864 074e 0400     		.2byte	0x4
 12865 0750 76       		.byte	0x76
 12866 0751 A67F     		.sleb128 -90
 12867 0753 9F       		.byte	0x9f
 12868 0754 00000000 		.4byte	0
 12869 0758 00000000 		.4byte	0
 12870              	.LLST53:
 12871 075c BE000000 		.4byte	.LVL156
 12872 0760 46010000 		.4byte	.LVL168
 12873 0764 0100     		.2byte	0x1
 12874 0766 5B       		.byte	0x5b
 12875 0767 00000000 		.4byte	0
 12876 076b 00000000 		.4byte	0
 12877              	.LLST54:
 12878 076f DA000000 		.4byte	.LVL160
 12879 0773 DC000000 		.4byte	.LVL161
 12880 0777 0100     		.2byte	0x1
 12881 0779 56       		.byte	0x56
 12882 077a 00000000 		.4byte	0
 12883 077e 00000000 		.4byte	0
 12884              	.LLST55:
 12885 0782 66010000 		.4byte	.LVL172
 12886 0786 6A010000 		.4byte	.LVL173
 12887 078a 0100     		.2byte	0x1
 12888 078c 50       		.byte	0x50
 12889 078d 6A010000 		.4byte	.LVL173
 12890 0791 CE010000 		.4byte	.LVL176
 12891 0795 0100     		.2byte	0x1
 12892 0797 54       		.byte	0x54
 12893 0798 D2010000 		.4byte	.LVL177
 12894 079c DE010000 		.4byte	.LVL178
 12895 07a0 0100     		.2byte	0x1
 12896 07a2 52       		.byte	0x52
 12897 07a3 DE010000 		.4byte	.LVL178
 12898 07a7 E4010000 		.4byte	.LVL179
 12899 07ab 0100     		.2byte	0x1
 12900 07ad 53       		.byte	0x53
 12901 07ae 00000000 		.4byte	0
 12902 07b2 00000000 		.4byte	0
 12903              	.LLST56:
 12904 07b6 00000000 		.4byte	.LVL186
 12905 07ba 0C000000 		.4byte	.LVL187
 12906 07be 0100     		.2byte	0x1
 12907 07c0 50       		.byte	0x50
 12908 07c1 0C000000 		.4byte	.LVL187
 12909 07c5 EC000000 		.4byte	.LFE216
 12910 07c9 0400     		.2byte	0x4
 12911 07cb F3       		.byte	0xf3
 12912 07cc 01       		.uleb128 0x1
 12913 07cd 50       		.byte	0x50
 12914 07ce 9F       		.byte	0x9f
 12915 07cf 00000000 		.4byte	0
ARM GAS  C:\Users\haske\AppData\Local\Temp\ccXBxzcA.s 			page 264


 12916 07d3 00000000 		.4byte	0
 12917              	.LLST57:
 12918 07d7 00000000 		.4byte	.LVL186
 12919 07db 0F000000 		.4byte	.LVL188-1
 12920 07df 0100     		.2byte	0x1
 12921 07e1 51       		.byte	0x51
 12922 07e2 0F000000 		.4byte	.LVL188-1
 12923 07e6 30000000 		.4byte	.LVL196
 12924 07ea 0100     		.2byte	0x1
 12925 07ec 54       		.byte	0x54
 12926 07ed 30000000 		.4byte	.LVL196
 12927 07f1 EC000000 		.4byte	.LFE216
 12928 07f5 0400     		.2byte	0x4
 12929 07f7 F3       		.byte	0xf3
 12930 07f8 01       		.uleb128 0x1
 12931 07f9 51       		.byte	0x51
 12932 07fa 9F       		.byte	0x9f
 12933 07fb 00000000 		.4byte	0
 12934 07ff 00000000 		.4byte	0
 12935              	.LLST58:
 12936 0803 10000000 		.4byte	.LVL188
 12937 0807 16000000 		.4byte	.LVL189
 12938 080b 0100     		.2byte	0x1
 12939 080d 50       		.byte	0x50
 12940 080e 00000000 		.4byte	0
 12941 0812 00000000 		.4byte	0
 12942              	.LLST59:
 12943 0816 1C000000 		.4byte	.LVL191
 12944 081a 62000000 		.4byte	.LVL205
 12945 081e 0100     		.2byte	0x1
 12946 0820 56       		.byte	0x56
 12947 0821 00000000 		.4byte	0
 12948 0825 00000000 		.4byte	0
 12949              	.LLST60:
 12950 0829 24000000 		.4byte	.LVL193
 12951 082d 2A000000 		.4byte	.LVL194
 12952 0831 0100     		.2byte	0x1
 12953 0833 50       		.byte	0x50
 12954 0834 2A000000 		.4byte	.LVL194
 12955 0838 DE000000 		.4byte	.LVL220
 12956 083c 0100     		.2byte	0x1
 12957 083e 55       		.byte	0x55
 12958 083f 00000000 		.4byte	0
 12959 0843 00000000 		.4byte	0
 12960              	.LLST61:
 12961 0847 30000000 		.4byte	.LVL196
 12962 084b 34000000 		.4byte	.LVL197
 12963 084f 0100     		.2byte	0x1
 12964 0851 50       		.byte	0x50
 12965 0852 34000000 		.4byte	.LVL197
 12966 0856 7E000000 		.4byte	.LVL209
 12967 085a 0100     		.2byte	0x1
 12968 085c 54       		.byte	0x54
 12969 085d 7E000000 		.4byte	.LVL209
 12970 0861 DE000000 		.4byte	.LVL220
 12971 0865 0200     		.2byte	0x2
 12972 0867 7D       		.byte	0x7d
ARM GAS  C:\Users\haske\AppData\Local\Temp\ccXBxzcA.s 			page 265


 12973 0868 00       		.sleb128 0
 12974 0869 00000000 		.4byte	0
 12975 086d 00000000 		.4byte	0
 12976              	.LLST62:
 12977 0871 6E000000 		.4byte	.LVL207
 12978 0875 7C000000 		.4byte	.LVL208
 12979 0879 0100     		.2byte	0x1
 12980 087b 53       		.byte	0x53
 12981 087c 7C000000 		.4byte	.LVL208
 12982 0880 85000000 		.4byte	.LVL210-1
 12983 0884 3800     		.2byte	0x38
 12984 0886 91       		.byte	0x91
 12985 0887 A47F     		.sleb128 -92
 12986 0889 94       		.byte	0x94
 12987 088a 02       		.byte	0x2
 12988 088b 40       		.byte	0x40
 12989 088c 24       		.byte	0x24
 12990 088d 40       		.byte	0x40
 12991 088e 26       		.byte	0x26
 12992 088f 91       		.byte	0x91
 12993 0890 A07F     		.sleb128 -96
 12994 0892 94       		.byte	0x94
 12995 0893 02       		.byte	0x2
 12996 0894 0A       		.byte	0xa
 12997 0895 FFFF     		.2byte	0xffff
 12998 0897 1A       		.byte	0x1a
 12999 0898 1C       		.byte	0x1c
 13000 0899 23       		.byte	0x23
 13001 089a 01       		.uleb128 0x1
 13002 089b 40       		.byte	0x40
 13003 089c 24       		.byte	0x24
 13004 089d 40       		.byte	0x40
 13005 089e 26       		.byte	0x26
 13006 089f 4F       		.byte	0x4f
 13007 08a0 25       		.byte	0x25
 13008 08a1 91       		.byte	0x91
 13009 08a2 A47F     		.sleb128 -92
 13010 08a4 94       		.byte	0x94
 13011 08a5 02       		.byte	0x2
 13012 08a6 40       		.byte	0x40
 13013 08a7 24       		.byte	0x24
 13014 08a8 40       		.byte	0x40
 13015 08a9 26       		.byte	0x26
 13016 08aa 91       		.byte	0x91
 13017 08ab A07F     		.sleb128 -96
 13018 08ad 94       		.byte	0x94
 13019 08ae 02       		.byte	0x2
 13020 08af 0A       		.byte	0xa
 13021 08b0 FFFF     		.2byte	0xffff
 13022 08b2 1A       		.byte	0x1a
 13023 08b3 1C       		.byte	0x1c
 13024 08b4 23       		.byte	0x23
 13025 08b5 01       		.uleb128 0x1
 13026 08b6 40       		.byte	0x40
 13027 08b7 24       		.byte	0x24
 13028 08b8 40       		.byte	0x40
 13029 08b9 26       		.byte	0x26
ARM GAS  C:\Users\haske\AppData\Local\Temp\ccXBxzcA.s 			page 266


 13030 08ba 22       		.byte	0x22
 13031 08bb 31       		.byte	0x31
 13032 08bc 26       		.byte	0x26
 13033 08bd 9F       		.byte	0x9f
 13034 08be 00000000 		.4byte	0
 13035 08c2 00000000 		.4byte	0
 13036              	.LLST63:
 13037 08c6 A8000000 		.4byte	.LVL214
 13038 08ca DE000000 		.4byte	.LVL220
 13039 08ce 0100     		.2byte	0x1
 13040 08d0 59       		.byte	0x59
 13041 08d1 00000000 		.4byte	0
 13042 08d5 00000000 		.4byte	0
 13043              	.LLST64:
 13044 08d9 BA000000 		.4byte	.LVL217
 13045 08dd CC000000 		.4byte	.LVL218
 13046 08e1 0100     		.2byte	0x1
 13047 08e3 50       		.byte	0x50
 13048 08e4 CC000000 		.4byte	.LVL218
 13049 08e8 D4000000 		.4byte	.LVL219
 13050 08ec 0100     		.2byte	0x1
 13051 08ee 51       		.byte	0x51
 13052 08ef 00000000 		.4byte	0
 13053 08f3 00000000 		.4byte	0
 13054              	.LLST65:
 13055 08f7 58000000 		.4byte	.LVL201
 13056 08fb 5A000000 		.4byte	.LVL202
 13057 08ff 0400     		.2byte	0x4
 13058 0901 91       		.byte	0x91
 13059 0902 A07F     		.sleb128 -96
 13060 0904 9F       		.byte	0x9f
 13061 0905 5A000000 		.4byte	.LVL202
 13062 0909 5E000000 		.4byte	.LVL203
 13063 090d 0100     		.2byte	0x1
 13064 090f 53       		.byte	0x53
 13065 0910 5E000000 		.4byte	.LVL203
 13066 0914 60000000 		.4byte	.LVL204
 13067 0918 0400     		.2byte	0x4
 13068 091a 91       		.byte	0x91
 13069 091b A07F     		.sleb128 -96
 13070 091d 9F       		.byte	0x9f
 13071 091e 60000000 		.4byte	.LVL204
 13072 0922 68000000 		.4byte	.LVL206
 13073 0926 0100     		.2byte	0x1
 13074 0928 52       		.byte	0x52
 13075 0929 00000000 		.4byte	0
 13076 092d 00000000 		.4byte	0
 13077              	.LLST66:
 13078 0931 94000000 		.4byte	.LVL211
 13079 0935 A0000000 		.4byte	.LVL213
 13080 0939 0400     		.2byte	0x4
 13081 093b 40       		.byte	0x40
 13082 093c 3D       		.byte	0x3d
 13083 093d 24       		.byte	0x24
 13084 093e 9F       		.byte	0x9f
 13085 093f 00000000 		.4byte	0
 13086 0943 00000000 		.4byte	0
ARM GAS  C:\Users\haske\AppData\Local\Temp\ccXBxzcA.s 			page 267


 13087              	.LLST67:
 13088 0947 94000000 		.4byte	.LVL211
 13089 094b A0000000 		.4byte	.LVL213
 13090 094f 0100     		.2byte	0x1
 13091 0951 55       		.byte	0x55
 13092 0952 00000000 		.4byte	0
 13093 0956 00000000 		.4byte	0
 13094              	.LLST68:
 13095 095a A8000000 		.4byte	.LVL214
 13096 095e B4000000 		.4byte	.LVL216
 13097 0962 0400     		.2byte	0x4
 13098 0964 40       		.byte	0x40
 13099 0965 3D       		.byte	0x3d
 13100 0966 24       		.byte	0x24
 13101 0967 9F       		.byte	0x9f
 13102 0968 00000000 		.4byte	0
 13103 096c 00000000 		.4byte	0
 13104              	.LLST69:
 13105 0970 A8000000 		.4byte	.LVL214
 13106 0974 B4000000 		.4byte	.LVL216
 13107 0978 0100     		.2byte	0x1
 13108 097a 55       		.byte	0x55
 13109 097b 00000000 		.4byte	0
 13110 097f 00000000 		.4byte	0
 13111              	.LLST70:
 13112 0983 00000000 		.4byte	.LVL221
 13113 0987 06000000 		.4byte	.LVL223
 13114 098b 0100     		.2byte	0x1
 13115 098d 50       		.byte	0x50
 13116 098e 06000000 		.4byte	.LVL223
 13117 0992 16000000 		.4byte	.LFE215
 13118 0996 0400     		.2byte	0x4
 13119 0998 F3       		.byte	0xf3
 13120 0999 01       		.uleb128 0x1
 13121 099a 50       		.byte	0x50
 13122 099b 9F       		.byte	0x9f
 13123 099c 00000000 		.4byte	0
 13124 09a0 00000000 		.4byte	0
 13125              	.LLST71:
 13126 09a4 00000000 		.4byte	.LVL221
 13127 09a8 0B000000 		.4byte	.LVL224-1
 13128 09ac 0100     		.2byte	0x1
 13129 09ae 51       		.byte	0x51
 13130 09af 0B000000 		.4byte	.LVL224-1
 13131 09b3 14000000 		.4byte	.LVL226
 13132 09b7 0100     		.2byte	0x1
 13133 09b9 54       		.byte	0x54
 13134 09ba 14000000 		.4byte	.LVL226
 13135 09be 16000000 		.4byte	.LFE215
 13136 09c2 0400     		.2byte	0x4
 13137 09c4 F3       		.byte	0xf3
 13138 09c5 01       		.uleb128 0x1
 13139 09c6 51       		.byte	0x51
 13140 09c7 9F       		.byte	0x9f
 13141 09c8 00000000 		.4byte	0
 13142 09cc 00000000 		.4byte	0
 13143              	.LLST72:
ARM GAS  C:\Users\haske\AppData\Local\Temp\ccXBxzcA.s 			page 268


 13144 09d0 04000000 		.4byte	.LVL222
 13145 09d4 0B000000 		.4byte	.LVL224-1
 13146 09d8 0100     		.2byte	0x1
 13147 09da 51       		.byte	0x51
 13148 09db 0B000000 		.4byte	.LVL224-1
 13149 09df 14000000 		.4byte	.LVL226
 13150 09e3 0100     		.2byte	0x1
 13151 09e5 54       		.byte	0x54
 13152 09e6 14000000 		.4byte	.LVL226
 13153 09ea 16000000 		.4byte	.LFE215
 13154 09ee 0400     		.2byte	0x4
 13155 09f0 F3       		.byte	0xf3
 13156 09f1 01       		.uleb128 0x1
 13157 09f2 51       		.byte	0x51
 13158 09f3 9F       		.byte	0x9f
 13159 09f4 00000000 		.4byte	0
 13160 09f8 00000000 		.4byte	0
 13161              	.LLST73:
 13162 09fc 00000000 		.4byte	.LVL227
 13163 0a00 06000000 		.4byte	.LVL229
 13164 0a04 0100     		.2byte	0x1
 13165 0a06 50       		.byte	0x50
 13166 0a07 06000000 		.4byte	.LVL229
 13167 0a0b 1A000000 		.4byte	.LFE214
 13168 0a0f 0400     		.2byte	0x4
 13169 0a11 F3       		.byte	0xf3
 13170 0a12 01       		.uleb128 0x1
 13171 0a13 50       		.byte	0x50
 13172 0a14 9F       		.byte	0x9f
 13173 0a15 00000000 		.4byte	0
 13174 0a19 00000000 		.4byte	0
 13175              	.LLST74:
 13176 0a1d 00000000 		.4byte	.LVL227
 13177 0a21 0A000000 		.4byte	.LVL230
 13178 0a25 0100     		.2byte	0x1
 13179 0a27 51       		.byte	0x51
 13180 0a28 0A000000 		.4byte	.LVL230
 13181 0a2c 18000000 		.4byte	.LVL233
 13182 0a30 0100     		.2byte	0x1
 13183 0a32 54       		.byte	0x54
 13184 0a33 18000000 		.4byte	.LVL233
 13185 0a37 1A000000 		.4byte	.LFE214
 13186 0a3b 0400     		.2byte	0x4
 13187 0a3d F3       		.byte	0xf3
 13188 0a3e 01       		.uleb128 0x1
 13189 0a3f 51       		.byte	0x51
 13190 0a40 9F       		.byte	0x9f
 13191 0a41 00000000 		.4byte	0
 13192 0a45 00000000 		.4byte	0
 13193              	.LLST75:
 13194 0a49 04000000 		.4byte	.LVL228
 13195 0a4d 0A000000 		.4byte	.LVL230
 13196 0a51 0100     		.2byte	0x1
 13197 0a53 51       		.byte	0x51
 13198 0a54 0A000000 		.4byte	.LVL230
 13199 0a58 18000000 		.4byte	.LVL233
 13200 0a5c 0100     		.2byte	0x1
ARM GAS  C:\Users\haske\AppData\Local\Temp\ccXBxzcA.s 			page 269


 13201 0a5e 54       		.byte	0x54
 13202 0a5f 18000000 		.4byte	.LVL233
 13203 0a63 1A000000 		.4byte	.LFE214
 13204 0a67 0400     		.2byte	0x4
 13205 0a69 F3       		.byte	0xf3
 13206 0a6a 01       		.uleb128 0x1
 13207 0a6b 51       		.byte	0x51
 13208 0a6c 9F       		.byte	0x9f
 13209 0a6d 00000000 		.4byte	0
 13210 0a71 00000000 		.4byte	0
 13211              	.LLST76:
 13212 0a75 00000000 		.4byte	.LVL234
 13213 0a79 1F000000 		.4byte	.LVL238-1
 13214 0a7d 0100     		.2byte	0x1
 13215 0a7f 50       		.byte	0x50
 13216 0a80 1F000000 		.4byte	.LVL238-1
 13217 0a84 60000000 		.4byte	.LVL246
 13218 0a88 0100     		.2byte	0x1
 13219 0a8a 55       		.byte	0x55
 13220 0a8b 60000000 		.4byte	.LVL246
 13221 0a8f CA000000 		.4byte	.LFE220
 13222 0a93 0200     		.2byte	0x2
 13223 0a95 91       		.byte	0x91
 13224 0a96 44       		.sleb128 -60
 13225 0a97 00000000 		.4byte	0
 13226 0a9b 00000000 		.4byte	0
 13227              	.LLST77:
 13228 0a9f 00000000 		.4byte	.LVL234
 13229 0aa3 1A000000 		.4byte	.LVL237
 13230 0aa7 0100     		.2byte	0x1
 13231 0aa9 51       		.byte	0x51
 13232 0aaa 1A000000 		.4byte	.LVL237
 13233 0aae C0000000 		.4byte	.LVL256
 13234 0ab2 0100     		.2byte	0x1
 13235 0ab4 57       		.byte	0x57
 13236 0ab5 C0000000 		.4byte	.LVL256
 13237 0ab9 CA000000 		.4byte	.LFE220
 13238 0abd 0400     		.2byte	0x4
 13239 0abf F3       		.byte	0xf3
 13240 0ac0 01       		.uleb128 0x1
 13241 0ac1 51       		.byte	0x51
 13242 0ac2 9F       		.byte	0x9f
 13243 0ac3 00000000 		.4byte	0
 13244 0ac7 00000000 		.4byte	0
 13245              	.LLST78:
 13246 0acb 00000000 		.4byte	.LVL234
 13247 0acf 18000000 		.4byte	.LVL236
 13248 0ad3 0100     		.2byte	0x1
 13249 0ad5 52       		.byte	0x52
 13250 0ad6 18000000 		.4byte	.LVL236
 13251 0ada CA000000 		.4byte	.LFE220
 13252 0ade 0200     		.2byte	0x2
 13253 0ae0 91       		.byte	0x91
 13254 0ae1 48       		.sleb128 -56
 13255 0ae2 00000000 		.4byte	0
 13256 0ae6 00000000 		.4byte	0
 13257              	.LLST79:
ARM GAS  C:\Users\haske\AppData\Local\Temp\ccXBxzcA.s 			page 270


 13258 0aea 00000000 		.4byte	.LVL234
 13259 0aee 1F000000 		.4byte	.LVL238-1
 13260 0af2 0100     		.2byte	0x1
 13261 0af4 53       		.byte	0x53
 13262 0af5 1F000000 		.4byte	.LVL238-1
 13263 0af9 CA000000 		.4byte	.LFE220
 13264 0afd 0200     		.2byte	0x2
 13265 0aff 91       		.byte	0x91
 13266 0b00 4C       		.sleb128 -52
 13267 0b01 00000000 		.4byte	0
 13268 0b05 00000000 		.4byte	0
 13269              	.LLST80:
 13270 0b09 44000000 		.4byte	.LVL243
 13271 0b0d 5A000000 		.4byte	.LVL244
 13272 0b11 0100     		.2byte	0x1
 13273 0b13 53       		.byte	0x53
 13274 0b14 5A000000 		.4byte	.LVL244
 13275 0b18 5E000000 		.4byte	.LVL245
 13276 0b1c 3400     		.2byte	0x34
 13277 0b1e 74       		.byte	0x74
 13278 0b1f 04       		.sleb128 4
 13279 0b20 94       		.byte	0x94
 13280 0b21 02       		.byte	0x2
 13281 0b22 40       		.byte	0x40
 13282 0b23 24       		.byte	0x24
 13283 0b24 40       		.byte	0x40
 13284 0b25 26       		.byte	0x26
 13285 0b26 74       		.byte	0x74
 13286 0b27 00       		.sleb128 0
 13287 0b28 94       		.byte	0x94
 13288 0b29 02       		.byte	0x2
 13289 0b2a 0A       		.byte	0xa
 13290 0b2b FFFF     		.2byte	0xffff
 13291 0b2d 1A       		.byte	0x1a
 13292 0b2e 1C       		.byte	0x1c
 13293 0b2f 23       		.byte	0x23
 13294 0b30 01       		.uleb128 0x1
 13295 0b31 40       		.byte	0x40
 13296 0b32 24       		.byte	0x24
 13297 0b33 40       		.byte	0x40
 13298 0b34 26       		.byte	0x26
 13299 0b35 4F       		.byte	0x4f
 13300 0b36 25       		.byte	0x25
 13301 0b37 74       		.byte	0x74
 13302 0b38 04       		.sleb128 4
 13303 0b39 94       		.byte	0x94
 13304 0b3a 02       		.byte	0x2
 13305 0b3b 40       		.byte	0x40
 13306 0b3c 24       		.byte	0x24
 13307 0b3d 40       		.byte	0x40
 13308 0b3e 26       		.byte	0x26
 13309 0b3f 74       		.byte	0x74
 13310 0b40 00       		.sleb128 0
 13311 0b41 94       		.byte	0x94
 13312 0b42 02       		.byte	0x2
 13313 0b43 0A       		.byte	0xa
 13314 0b44 FFFF     		.2byte	0xffff
ARM GAS  C:\Users\haske\AppData\Local\Temp\ccXBxzcA.s 			page 271


 13315 0b46 1A       		.byte	0x1a
 13316 0b47 1C       		.byte	0x1c
 13317 0b48 23       		.byte	0x23
 13318 0b49 01       		.uleb128 0x1
 13319 0b4a 40       		.byte	0x40
 13320 0b4b 24       		.byte	0x24
 13321 0b4c 40       		.byte	0x40
 13322 0b4d 26       		.byte	0x26
 13323 0b4e 22       		.byte	0x22
 13324 0b4f 31       		.byte	0x31
 13325 0b50 26       		.byte	0x26
 13326 0b51 9F       		.byte	0x9f
 13327 0b52 5E000000 		.4byte	.LVL245
 13328 0b56 C0000000 		.4byte	.LVL257
 13329 0b5a 0100     		.2byte	0x1
 13330 0b5c 5B       		.byte	0x5b
 13331 0b5d 00000000 		.4byte	0
 13332 0b61 00000000 		.4byte	0
 13333              	.LLST81:
 13334 0b65 60000000 		.4byte	.LVL246
 13335 0b69 9E000000 		.4byte	.LVL252
 13336 0b6d 0100     		.2byte	0x1
 13337 0b6f 55       		.byte	0x55
 13338 0b70 00000000 		.4byte	0
 13339 0b74 00000000 		.4byte	0
 13340              	.LLST82:
 13341 0b78 76000000 		.4byte	.LVL248
 13342 0b7c 7E000000 		.4byte	.LVL249
 13343 0b80 0100     		.2byte	0x1
 13344 0b82 50       		.byte	0x50
 13345 0b83 7E000000 		.4byte	.LVL249
 13346 0b87 98000000 		.4byte	.LVL251
 13347 0b8b 0100     		.2byte	0x1
 13348 0b8d 54       		.byte	0x54
 13349 0b8e 00000000 		.4byte	0
 13350 0b92 00000000 		.4byte	0
 13351              	.LLST83:
 13352 0b96 8A000000 		.4byte	.LVL250
 13353 0b9a B2000000 		.4byte	.LVL253
 13354 0b9e 0100     		.2byte	0x1
 13355 0ba0 50       		.byte	0x50
 13356 0ba1 00000000 		.4byte	0
 13357 0ba5 00000000 		.4byte	0
 13358              	.LLST84:
 13359 0ba9 16000000 		.4byte	.LVL235
 13360 0bad 28000000 		.4byte	.LVL240
 13361 0bb1 0400     		.2byte	0x4
 13362 0bb3 44       		.byte	0x44
 13363 0bb4 3E       		.byte	0x3e
 13364 0bb5 24       		.byte	0x24
 13365 0bb6 9F       		.byte	0x9f
 13366 0bb7 00000000 		.4byte	0
 13367 0bbb 00000000 		.4byte	0
 13368              	.LLST85:
 13369 0bbf 16000000 		.4byte	.LVL235
 13370 0bc3 1F000000 		.4byte	.LVL238-1
 13371 0bc7 0100     		.2byte	0x1
ARM GAS  C:\Users\haske\AppData\Local\Temp\ccXBxzcA.s 			page 272


 13372 0bc9 50       		.byte	0x50
 13373 0bca 1F000000 		.4byte	.LVL238-1
 13374 0bce 28000000 		.4byte	.LVL240
 13375 0bd2 0100     		.2byte	0x1
 13376 0bd4 55       		.byte	0x55
 13377 0bd5 00000000 		.4byte	0
 13378 0bd9 00000000 		.4byte	0
 13379              	.LLST86:
 13380 0bdd 20000000 		.4byte	.LVL238
 13381 0be1 24000000 		.4byte	.LVL239
 13382 0be5 0100     		.2byte	0x1
 13383 0be7 50       		.byte	0x50
 13384 0be8 00000000 		.4byte	0
 13385 0bec 00000000 		.4byte	0
 13386              	.LLST87:
 13387 0bf0 32000000 		.4byte	.LVL241
 13388 0bf4 3E000000 		.4byte	.LVL242
 13389 0bf8 0100     		.2byte	0x1
 13390 0bfa 54       		.byte	0x54
 13391 0bfb 00000000 		.4byte	0
 13392 0bff 00000000 		.4byte	0
 13393              	.LLST88:
 13394 0c03 00000000 		.4byte	.LVL258
 13395 0c07 19000000 		.4byte	.LVL260-1
 13396 0c0b 0100     		.2byte	0x1
 13397 0c0d 50       		.byte	0x50
 13398 0c0e 19000000 		.4byte	.LVL260-1
 13399 0c12 40010000 		.4byte	.LVL286
 13400 0c16 0200     		.2byte	0x2
 13401 0c18 91       		.byte	0x91
 13402 0c19 40       		.sleb128 -64
 13403 0c1a 40010000 		.4byte	.LVL286
 13404 0c1e 48010000 		.4byte	.LVL287
 13405 0c22 0200     		.2byte	0x2
 13406 0c24 70       		.byte	0x70
 13407 0c25 00       		.sleb128 0
 13408 0c26 48010000 		.4byte	.LVL287
 13409 0c2a 5F010000 		.4byte	.LVL289-1
 13410 0c2e 0200     		.2byte	0x2
 13411 0c30 7C       		.byte	0x7c
 13412 0c31 00       		.sleb128 0
 13413 0c32 5F010000 		.4byte	.LVL289-1
 13414 0c36 9C010000 		.4byte	.LFE221
 13415 0c3a 0200     		.2byte	0x2
 13416 0c3c 91       		.byte	0x91
 13417 0c3d 40       		.sleb128 -64
 13418 0c3e 00000000 		.4byte	0
 13419 0c42 00000000 		.4byte	0
 13420              	.LLST89:
 13421 0c46 00000000 		.4byte	.LVL258
 13422 0c4a 16000000 		.4byte	.LVL259
 13423 0c4e 0100     		.2byte	0x1
 13424 0c50 51       		.byte	0x51
 13425 0c51 16000000 		.4byte	.LVL259
 13426 0c55 8A010000 		.4byte	.LVL291
 13427 0c59 0100     		.2byte	0x1
 13428 0c5b 56       		.byte	0x56
ARM GAS  C:\Users\haske\AppData\Local\Temp\ccXBxzcA.s 			page 273


 13429 0c5c 8A010000 		.4byte	.LVL291
 13430 0c60 9C010000 		.4byte	.LFE221
 13431 0c64 0400     		.2byte	0x4
 13432 0c66 F3       		.byte	0xf3
 13433 0c67 01       		.uleb128 0x1
 13434 0c68 51       		.byte	0x51
 13435 0c69 9F       		.byte	0x9f
 13436 0c6a 00000000 		.4byte	0
 13437 0c6e 00000000 		.4byte	0
 13438              	.LLST90:
 13439 0c72 00000000 		.4byte	.LVL258
 13440 0c76 19000000 		.4byte	.LVL260-1
 13441 0c7a 0100     		.2byte	0x1
 13442 0c7c 52       		.byte	0x52
 13443 0c7d 19000000 		.4byte	.LVL260-1
 13444 0c81 78000000 		.4byte	.LVL270
 13445 0c85 0200     		.2byte	0x2
 13446 0c87 91       		.byte	0x91
 13447 0c88 44       		.sleb128 -60
 13448 0c89 78000000 		.4byte	.LVL270
 13449 0c8d EE000000 		.4byte	.LVL278
 13450 0c91 0400     		.2byte	0x4
 13451 0c93 F3       		.byte	0xf3
 13452 0c94 01       		.uleb128 0x1
 13453 0c95 52       		.byte	0x52
 13454 0c96 9F       		.byte	0x9f
 13455 0c97 EE000000 		.4byte	.LVL278
 13456 0c9b 88010000 		.4byte	.LVL290
 13457 0c9f 0200     		.2byte	0x2
 13458 0ca1 91       		.byte	0x91
 13459 0ca2 44       		.sleb128 -60
 13460 0ca3 88010000 		.4byte	.LVL290
 13461 0ca7 9C010000 		.4byte	.LFE221
 13462 0cab 0400     		.2byte	0x4
 13463 0cad F3       		.byte	0xf3
 13464 0cae 01       		.uleb128 0x1
 13465 0caf 52       		.byte	0x52
 13466 0cb0 9F       		.byte	0x9f
 13467 0cb1 00000000 		.4byte	0
 13468 0cb5 00000000 		.4byte	0
 13469              	.LLST91:
 13470 0cb9 2C000000 		.4byte	.LVL262
 13471 0cbd 74000000 		.4byte	.LVL268
 13472 0cc1 0100     		.2byte	0x1
 13473 0cc3 54       		.byte	0x54
 13474 0cc4 76000000 		.4byte	.LVL269
 13475 0cc8 AE000000 		.4byte	.LVL276
 13476 0ccc 0100     		.2byte	0x1
 13477 0cce 54       		.byte	0x54
 13478 0ccf EE000000 		.4byte	.LVL278
 13479 0cd3 0C010000 		.4byte	.LVL280
 13480 0cd7 0100     		.2byte	0x1
 13481 0cd9 54       		.byte	0x54
 13482 0cda 00000000 		.4byte	0
 13483 0cde 00000000 		.4byte	0
 13484              	.LLST92:
 13485 0ce2 46000000 		.4byte	.LVL263
ARM GAS  C:\Users\haske\AppData\Local\Temp\ccXBxzcA.s 			page 274


 13486 0ce6 48000000 		.4byte	.LVL264
 13487 0cea 0100     		.2byte	0x1
 13488 0cec 53       		.byte	0x53
 13489 0ced 48000000 		.4byte	.LVL264
 13490 0cf1 8A010000 		.4byte	.LVL292
 13491 0cf5 0100     		.2byte	0x1
 13492 0cf7 5B       		.byte	0x5b
 13493 0cf8 00000000 		.4byte	0
 13494 0cfc 00000000 		.4byte	0
 13495              	.LLST93:
 13496 0d00 1A000000 		.4byte	.LVL260
 13497 0d04 26000000 		.4byte	.LVL261
 13498 0d08 0100     		.2byte	0x1
 13499 0d0a 57       		.byte	0x57
 13500 0d0b 00000000 		.4byte	0
 13501 0d0f 00000000 		.4byte	0
 13502              	.LLST94:
 13503 0d13 66000000 		.4byte	.LVL266
 13504 0d17 6C000000 		.4byte	.LVL267
 13505 0d1b 0100     		.2byte	0x1
 13506 0d1d 50       		.byte	0x50
 13507 0d1e 6C000000 		.4byte	.LVL267
 13508 0d22 81000000 		.4byte	.LVL271-1
 13509 0d26 0100     		.2byte	0x1
 13510 0d28 52       		.byte	0x52
 13511 0d29 81000000 		.4byte	.LVL271-1
 13512 0d2d EE000000 		.4byte	.LVL278
 13513 0d31 0200     		.2byte	0x2
 13514 0d33 91       		.byte	0x91
 13515 0d34 44       		.sleb128 -60
 13516 0d35 00000000 		.4byte	0
 13517 0d39 00000000 		.4byte	0
 13518              	.LLST95:
 13519 0d3d 8E000000 		.4byte	.LVL273
 13520 0d41 98000000 		.4byte	.LVL274
 13521 0d45 0200     		.2byte	0x2
 13522 0d47 91       		.byte	0x91
 13523 0d48 44       		.sleb128 -60
 13524 0d49 00000000 		.4byte	0
 13525 0d4d 00000000 		.4byte	0
 13526              	.LLST96:
 13527 0d51 0C010000 		.4byte	.LVL280
 13528 0d55 10010000 		.4byte	.LVL281
 13529 0d59 0100     		.2byte	0x1
 13530 0d5b 50       		.byte	0x50
 13531 0d5c 10010000 		.4byte	.LVL281
 13532 0d60 18010000 		.4byte	.LVL283
 13533 0d64 0100     		.2byte	0x1
 13534 0d66 54       		.byte	0x54
 13535 0d67 1C010000 		.4byte	.LVL284
 13536 0d6b 28010000 		.4byte	.LVL285
 13537 0d6f 0100     		.2byte	0x1
 13538 0d71 52       		.byte	0x52
 13539 0d72 28010000 		.4byte	.LVL285
 13540 0d76 4C010000 		.4byte	.LVL288
 13541 0d7a 0100     		.2byte	0x1
 13542 0d7c 53       		.byte	0x53
ARM GAS  C:\Users\haske\AppData\Local\Temp\ccXBxzcA.s 			page 275


 13543 0d7d 00000000 		.4byte	0
 13544 0d81 00000000 		.4byte	0
 13545              	.LLST97:
 13546 0d85 00000000 		.4byte	.LVL293
 13547 0d89 06000000 		.4byte	.LVL294
 13548 0d8d 0100     		.2byte	0x1
 13549 0d8f 50       		.byte	0x50
 13550 0d90 06000000 		.4byte	.LVL294
 13551 0d94 09000000 		.4byte	.LVL295-1
 13552 0d98 0100     		.2byte	0x1
 13553 0d9a 51       		.byte	0x51
 13554 0d9b 09000000 		.4byte	.LVL295-1
 13555 0d9f 18000000 		.4byte	.LFE202
 13556 0da3 0400     		.2byte	0x4
 13557 0da5 F3       		.byte	0xf3
 13558 0da6 01       		.uleb128 0x1
 13559 0da7 50       		.byte	0x50
 13560 0da8 9F       		.byte	0x9f
 13561 0da9 00000000 		.4byte	0
 13562 0dad 00000000 		.4byte	0
 13563              	.LLST98:
 13564 0db1 0C000000 		.4byte	.LVL296
 13565 0db5 0F000000 		.4byte	.LVL297-1
 13566 0db9 0100     		.2byte	0x1
 13567 0dbb 50       		.byte	0x50
 13568 0dbc 0F000000 		.4byte	.LVL297-1
 13569 0dc0 12000000 		.4byte	.LVL298
 13570 0dc4 0100     		.2byte	0x1
 13571 0dc6 54       		.byte	0x54
 13572 0dc7 12000000 		.4byte	.LVL298
 13573 0dcb 18000000 		.4byte	.LFE202
 13574 0dcf 0100     		.2byte	0x1
 13575 0dd1 50       		.byte	0x50
 13576 0dd2 00000000 		.4byte	0
 13577 0dd6 00000000 		.4byte	0
 13578              	.LLST99:
 13579 0dda 00000000 		.4byte	.LVL299
 13580 0dde 04000000 		.4byte	.LVL301
 13581 0de2 0100     		.2byte	0x1
 13582 0de4 50       		.byte	0x50
 13583 0de5 04000000 		.4byte	.LVL301
 13584 0de9 07000000 		.4byte	.LVL302-1
 13585 0ded 0300     		.2byte	0x3
 13586 0def 70       		.byte	0x70
 13587 0df0 5C       		.sleb128 -36
 13588 0df1 9F       		.byte	0x9f
 13589 0df2 07000000 		.4byte	.LVL302-1
 13590 0df6 38000000 		.4byte	.LFE203
 13591 0dfa 0400     		.2byte	0x4
 13592 0dfc F3       		.byte	0xf3
 13593 0dfd 01       		.uleb128 0x1
 13594 0dfe 50       		.byte	0x50
 13595 0dff 9F       		.byte	0x9f
 13596 0e00 00000000 		.4byte	0
 13597 0e04 00000000 		.4byte	0
 13598              	.LLST100:
 13599 0e08 02000000 		.4byte	.LVL300
ARM GAS  C:\Users\haske\AppData\Local\Temp\ccXBxzcA.s 			page 276


 13600 0e0c 04000000 		.4byte	.LVL301
 13601 0e10 0100     		.2byte	0x1
 13602 0e12 50       		.byte	0x50
 13603 0e13 04000000 		.4byte	.LVL301
 13604 0e17 07000000 		.4byte	.LVL302-1
 13605 0e1b 0300     		.2byte	0x3
 13606 0e1d 70       		.byte	0x70
 13607 0e1e 5C       		.sleb128 -36
 13608 0e1f 9F       		.byte	0x9f
 13609 0e20 07000000 		.4byte	.LVL302-1
 13610 0e24 38000000 		.4byte	.LFE203
 13611 0e28 0400     		.2byte	0x4
 13612 0e2a F3       		.byte	0xf3
 13613 0e2b 01       		.uleb128 0x1
 13614 0e2c 50       		.byte	0x50
 13615 0e2d 9F       		.byte	0x9f
 13616 0e2e 00000000 		.4byte	0
 13617 0e32 00000000 		.4byte	0
 13618              	.LLST101:
 13619 0e36 0A000000 		.4byte	.LVL303
 13620 0e3a 13000000 		.4byte	.LVL304-1
 13621 0e3e 0100     		.2byte	0x1
 13622 0e40 50       		.byte	0x50
 13623 0e41 13000000 		.4byte	.LVL304-1
 13624 0e45 36000000 		.4byte	.LVL305
 13625 0e49 0100     		.2byte	0x1
 13626 0e4b 54       		.byte	0x54
 13627 0e4c 36000000 		.4byte	.LVL305
 13628 0e50 38000000 		.4byte	.LFE203
 13629 0e54 0100     		.2byte	0x1
 13630 0e56 50       		.byte	0x50
 13631 0e57 00000000 		.4byte	0
 13632 0e5b 00000000 		.4byte	0
 13633              	.LLST102:
 13634 0e5f 00000000 		.4byte	.LVL306
 13635 0e63 15000000 		.4byte	.LVL311-1
 13636 0e67 0100     		.2byte	0x1
 13637 0e69 50       		.byte	0x50
 13638 0e6a 15000000 		.4byte	.LVL311-1
 13639 0e6e 18000000 		.4byte	.LFE204
 13640 0e72 0400     		.2byte	0x4
 13641 0e74 F3       		.byte	0xf3
 13642 0e75 01       		.uleb128 0x1
 13643 0e76 50       		.byte	0x50
 13644 0e77 9F       		.byte	0x9f
 13645 0e78 00000000 		.4byte	0
 13646 0e7c 00000000 		.4byte	0
 13647              	.LLST103:
 13648 0e80 00000000 		.4byte	.LVL306
 13649 0e84 15000000 		.4byte	.LVL311-1
 13650 0e88 0100     		.2byte	0x1
 13651 0e8a 51       		.byte	0x51
 13652 0e8b 15000000 		.4byte	.LVL311-1
 13653 0e8f 18000000 		.4byte	.LFE204
 13654 0e93 0400     		.2byte	0x4
 13655 0e95 F3       		.byte	0xf3
 13656 0e96 01       		.uleb128 0x1
ARM GAS  C:\Users\haske\AppData\Local\Temp\ccXBxzcA.s 			page 277


 13657 0e97 51       		.byte	0x51
 13658 0e98 9F       		.byte	0x9f
 13659 0e99 00000000 		.4byte	0
 13660 0e9d 00000000 		.4byte	0
 13661              	.LLST104:
 13662 0ea1 00000000 		.4byte	.LVL306
 13663 0ea5 15000000 		.4byte	.LVL311-1
 13664 0ea9 0100     		.2byte	0x1
 13665 0eab 52       		.byte	0x52
 13666 0eac 15000000 		.4byte	.LVL311-1
 13667 0eb0 18000000 		.4byte	.LFE204
 13668 0eb4 0400     		.2byte	0x4
 13669 0eb6 F3       		.byte	0xf3
 13670 0eb7 01       		.uleb128 0x1
 13671 0eb8 52       		.byte	0x52
 13672 0eb9 9F       		.byte	0x9f
 13673 0eba 00000000 		.4byte	0
 13674 0ebe 00000000 		.4byte	0
 13675              	.LLST105:
 13676 0ec2 00000000 		.4byte	.LVL306
 13677 0ec6 15000000 		.4byte	.LVL311-1
 13678 0eca 0100     		.2byte	0x1
 13679 0ecc 53       		.byte	0x53
 13680 0ecd 15000000 		.4byte	.LVL311-1
 13681 0ed1 18000000 		.4byte	.LFE204
 13682 0ed5 0400     		.2byte	0x4
 13683 0ed7 F3       		.byte	0xf3
 13684 0ed8 01       		.uleb128 0x1
 13685 0ed9 53       		.byte	0x53
 13686 0eda 9F       		.byte	0x9f
 13687 0edb 00000000 		.4byte	0
 13688 0edf 00000000 		.4byte	0
 13689              	.LLST106:
 13690 0ee3 00000000 		.4byte	.LVL306
 13691 0ee7 04000000 		.4byte	.LVL307
 13692 0eeb 0200     		.2byte	0x2
 13693 0eed 91       		.byte	0x91
 13694 0eee 00       		.sleb128 0
 13695 0eef 04000000 		.4byte	.LVL307
 13696 0ef3 08000000 		.4byte	.LVL308
 13697 0ef7 0200     		.2byte	0x2
 13698 0ef9 74       		.byte	0x74
 13699 0efa 00       		.sleb128 0
 13700 0efb 08000000 		.4byte	.LVL308
 13701 0eff 18000000 		.4byte	.LFE204
 13702 0f03 0200     		.2byte	0x2
 13703 0f05 91       		.byte	0x91
 13704 0f06 00       		.sleb128 0
 13705 0f07 00000000 		.4byte	0
 13706 0f0b 00000000 		.4byte	0
 13707              	.LLST107:
 13708 0f0f 00000000 		.4byte	.LVL306
 13709 0f13 0A000000 		.4byte	.LVL309
 13710 0f17 0200     		.2byte	0x2
 13711 0f19 91       		.byte	0x91
 13712 0f1a 04       		.sleb128 4
 13713 0f1b 10000000 		.4byte	.LVL310
ARM GAS  C:\Users\haske\AppData\Local\Temp\ccXBxzcA.s 			page 278


 13714 0f1f 16000000 		.4byte	.LVL312
 13715 0f23 0100     		.2byte	0x1
 13716 0f25 54       		.byte	0x54
 13717 0f26 00000000 		.4byte	0
 13718 0f2a 00000000 		.4byte	0
 13719              	.LLST108:
 13720 0f2e 00000000 		.4byte	.LVL313
 13721 0f32 1D000000 		.4byte	.LVL320-1
 13722 0f36 0100     		.2byte	0x1
 13723 0f38 50       		.byte	0x50
 13724 0f39 1D000000 		.4byte	.LVL320-1
 13725 0f3d 20000000 		.4byte	.LFE205
 13726 0f41 0400     		.2byte	0x4
 13727 0f43 F3       		.byte	0xf3
 13728 0f44 01       		.uleb128 0x1
 13729 0f45 50       		.byte	0x50
 13730 0f46 9F       		.byte	0x9f
 13731 0f47 00000000 		.4byte	0
 13732 0f4b 00000000 		.4byte	0
 13733              	.LLST109:
 13734 0f4f 00000000 		.4byte	.LVL313
 13735 0f53 1D000000 		.4byte	.LVL320-1
 13736 0f57 0100     		.2byte	0x1
 13737 0f59 51       		.byte	0x51
 13738 0f5a 1D000000 		.4byte	.LVL320-1
 13739 0f5e 20000000 		.4byte	.LFE205
 13740 0f62 0400     		.2byte	0x4
 13741 0f64 F3       		.byte	0xf3
 13742 0f65 01       		.uleb128 0x1
 13743 0f66 51       		.byte	0x51
 13744 0f67 9F       		.byte	0x9f
 13745 0f68 00000000 		.4byte	0
 13746 0f6c 00000000 		.4byte	0
 13747              	.LLST110:
 13748 0f70 00000000 		.4byte	.LVL313
 13749 0f74 1D000000 		.4byte	.LVL320-1
 13750 0f78 0100     		.2byte	0x1
 13751 0f7a 52       		.byte	0x52
 13752 0f7b 1D000000 		.4byte	.LVL320-1
 13753 0f7f 20000000 		.4byte	.LFE205
 13754 0f83 0400     		.2byte	0x4
 13755 0f85 F3       		.byte	0xf3
 13756 0f86 01       		.uleb128 0x1
 13757 0f87 52       		.byte	0x52
 13758 0f88 9F       		.byte	0x9f
 13759 0f89 00000000 		.4byte	0
 13760 0f8d 00000000 		.4byte	0
 13761              	.LLST111:
 13762 0f91 00000000 		.4byte	.LVL313
 13763 0f95 1D000000 		.4byte	.LVL320-1
 13764 0f99 0100     		.2byte	0x1
 13765 0f9b 53       		.byte	0x53
 13766 0f9c 1D000000 		.4byte	.LVL320-1
 13767 0fa0 20000000 		.4byte	.LFE205
 13768 0fa4 0400     		.2byte	0x4
 13769 0fa6 F3       		.byte	0xf3
 13770 0fa7 01       		.uleb128 0x1
ARM GAS  C:\Users\haske\AppData\Local\Temp\ccXBxzcA.s 			page 279


 13771 0fa8 53       		.byte	0x53
 13772 0fa9 9F       		.byte	0x9f
 13773 0faa 00000000 		.4byte	0
 13774 0fae 00000000 		.4byte	0
 13775              	.LLST112:
 13776 0fb2 00000000 		.4byte	.LVL313
 13777 0fb6 04000000 		.4byte	.LVL314
 13778 0fba 0200     		.2byte	0x2
 13779 0fbc 91       		.byte	0x91
 13780 0fbd 00       		.sleb128 0
 13781 0fbe 04000000 		.4byte	.LVL314
 13782 0fc2 08000000 		.4byte	.LVL315
 13783 0fc6 0200     		.2byte	0x2
 13784 0fc8 74       		.byte	0x74
 13785 0fc9 00       		.sleb128 0
 13786 0fca 08000000 		.4byte	.LVL315
 13787 0fce 20000000 		.4byte	.LFE205
 13788 0fd2 0200     		.2byte	0x2
 13789 0fd4 91       		.byte	0x91
 13790 0fd5 00       		.sleb128 0
 13791 0fd6 00000000 		.4byte	0
 13792 0fda 00000000 		.4byte	0
 13793              	.LLST113:
 13794 0fde 00000000 		.4byte	.LVL313
 13795 0fe2 0A000000 		.4byte	.LVL316
 13796 0fe6 0200     		.2byte	0x2
 13797 0fe8 91       		.byte	0x91
 13798 0fe9 04       		.sleb128 4
 13799 0fea 16000000 		.4byte	.LVL319
 13800 0fee 1E000000 		.4byte	.LVL321
 13801 0ff2 0100     		.2byte	0x1
 13802 0ff4 55       		.byte	0x55
 13803 0ff5 00000000 		.4byte	0
 13804 0ff9 00000000 		.4byte	0
 13805              	.LLST114:
 13806 0ffd 00000000 		.4byte	.LVL313
 13807 1001 04000000 		.4byte	.LVL314
 13808 1005 0200     		.2byte	0x2
 13809 1007 91       		.byte	0x91
 13810 1008 08       		.sleb128 8
 13811 1009 04000000 		.4byte	.LVL314
 13812 100d 08000000 		.4byte	.LVL315
 13813 1011 0200     		.2byte	0x2
 13814 1013 74       		.byte	0x74
 13815 1014 08       		.sleb128 8
 13816 1015 08000000 		.4byte	.LVL315
 13817 1019 0C000000 		.4byte	.LVL317
 13818 101d 0200     		.2byte	0x2
 13819 101f 91       		.byte	0x91
 13820 1020 08       		.sleb128 8
 13821 1021 0C000000 		.4byte	.LVL317
 13822 1025 10000000 		.4byte	.LVL318
 13823 1029 0200     		.2byte	0x2
 13824 102b 74       		.byte	0x74
 13825 102c 00       		.sleb128 0
 13826 102d 10000000 		.4byte	.LVL318
 13827 1031 20000000 		.4byte	.LFE205
ARM GAS  C:\Users\haske\AppData\Local\Temp\ccXBxzcA.s 			page 280


 13828 1035 0200     		.2byte	0x2
 13829 1037 91       		.byte	0x91
 13830 1038 08       		.sleb128 8
 13831 1039 00000000 		.4byte	0
 13832 103d 00000000 		.4byte	0
 13833              	.LLST115:
 13834 1041 00000000 		.4byte	.LVL322
 13835 1045 11000000 		.4byte	.LVL324-1
 13836 1049 0100     		.2byte	0x1
 13837 104b 50       		.byte	0x50
 13838 104c 11000000 		.4byte	.LVL324-1
 13839 1050 14000000 		.4byte	.LFE206
 13840 1054 0400     		.2byte	0x4
 13841 1056 F3       		.byte	0xf3
 13842 1057 01       		.uleb128 0x1
 13843 1058 50       		.byte	0x50
 13844 1059 9F       		.byte	0x9f
 13845 105a 00000000 		.4byte	0
 13846 105e 00000000 		.4byte	0
 13847              	.LLST116:
 13848 1062 00000000 		.4byte	.LVL322
 13849 1066 11000000 		.4byte	.LVL324-1
 13850 106a 0100     		.2byte	0x1
 13851 106c 51       		.byte	0x51
 13852 106d 11000000 		.4byte	.LVL324-1
 13853 1071 14000000 		.4byte	.LFE206
 13854 1075 0400     		.2byte	0x4
 13855 1077 F3       		.byte	0xf3
 13856 1078 01       		.uleb128 0x1
 13857 1079 51       		.byte	0x51
 13858 107a 9F       		.byte	0x9f
 13859 107b 00000000 		.4byte	0
 13860 107f 00000000 		.4byte	0
 13861              	.LLST117:
 13862 1083 00000000 		.4byte	.LVL322
 13863 1087 11000000 		.4byte	.LVL324-1
 13864 108b 0100     		.2byte	0x1
 13865 108d 52       		.byte	0x52
 13866 108e 11000000 		.4byte	.LVL324-1
 13867 1092 14000000 		.4byte	.LFE206
 13868 1096 0400     		.2byte	0x4
 13869 1098 F3       		.byte	0xf3
 13870 1099 01       		.uleb128 0x1
 13871 109a 52       		.byte	0x52
 13872 109b 9F       		.byte	0x9f
 13873 109c 00000000 		.4byte	0
 13874 10a0 00000000 		.4byte	0
 13875              	.LLST118:
 13876 10a4 00000000 		.4byte	.LVL322
 13877 10a8 08000000 		.4byte	.LVL323
 13878 10ac 0100     		.2byte	0x1
 13879 10ae 53       		.byte	0x53
 13880 10af 08000000 		.4byte	.LVL323
 13881 10b3 11000000 		.4byte	.LVL324-1
 13882 10b7 0200     		.2byte	0x2
 13883 10b9 71       		.byte	0x71
 13884 10ba 18       		.sleb128 24
ARM GAS  C:\Users\haske\AppData\Local\Temp\ccXBxzcA.s 			page 281


 13885 10bb 11000000 		.4byte	.LVL324-1
 13886 10bf 14000000 		.4byte	.LFE206
 13887 10c3 0400     		.2byte	0x4
 13888 10c5 F3       		.byte	0xf3
 13889 10c6 01       		.uleb128 0x1
 13890 10c7 53       		.byte	0x53
 13891 10c8 9F       		.byte	0x9f
 13892 10c9 00000000 		.4byte	0
 13893 10cd 00000000 		.4byte	0
 13894              	.LLST119:
 13895 10d1 00000000 		.4byte	.LVL325
 13896 10d5 18000000 		.4byte	.LVL328
 13897 10d9 0100     		.2byte	0x1
 13898 10db 50       		.byte	0x50
 13899 10dc 18000000 		.4byte	.LVL328
 13900 10e0 44000000 		.4byte	.LVL335
 13901 10e4 0100     		.2byte	0x1
 13902 10e6 55       		.byte	0x55
 13903 10e7 44000000 		.4byte	.LVL335
 13904 10eb 4C000000 		.4byte	.LFE207
 13905 10ef 0400     		.2byte	0x4
 13906 10f1 F3       		.byte	0xf3
 13907 10f2 01       		.uleb128 0x1
 13908 10f3 50       		.byte	0x50
 13909 10f4 9F       		.byte	0x9f
 13910 10f5 00000000 		.4byte	0
 13911 10f9 00000000 		.4byte	0
 13912              	.LLST120:
 13913 10fd 00000000 		.4byte	.LVL325
 13914 1101 1B000000 		.4byte	.LVL329-1
 13915 1105 0100     		.2byte	0x1
 13916 1107 51       		.byte	0x51
 13917 1108 1B000000 		.4byte	.LVL329-1
 13918 110c 44000000 		.4byte	.LVL337
 13919 1110 0100     		.2byte	0x1
 13920 1112 59       		.byte	0x59
 13921 1113 44000000 		.4byte	.LVL337
 13922 1117 4C000000 		.4byte	.LFE207
 13923 111b 0400     		.2byte	0x4
 13924 111d F3       		.byte	0xf3
 13925 111e 01       		.uleb128 0x1
 13926 111f 51       		.byte	0x51
 13927 1120 9F       		.byte	0x9f
 13928 1121 00000000 		.4byte	0
 13929 1125 00000000 		.4byte	0
 13930              	.LLST121:
 13931 1129 00000000 		.4byte	.LVL325
 13932 112d 1B000000 		.4byte	.LVL329-1
 13933 1131 0100     		.2byte	0x1
 13934 1133 52       		.byte	0x52
 13935 1134 1B000000 		.4byte	.LVL329-1
 13936 1138 4C000000 		.4byte	.LFE207
 13937 113c 0400     		.2byte	0x4
 13938 113e F3       		.byte	0xf3
 13939 113f 01       		.uleb128 0x1
 13940 1140 52       		.byte	0x52
 13941 1141 9F       		.byte	0x9f
ARM GAS  C:\Users\haske\AppData\Local\Temp\ccXBxzcA.s 			page 282


 13942 1142 00000000 		.4byte	0
 13943 1146 00000000 		.4byte	0
 13944              	.LLST122:
 13945 114a 00000000 		.4byte	.LVL325
 13946 114e 12000000 		.4byte	.LVL326
 13947 1152 0100     		.2byte	0x1
 13948 1154 53       		.byte	0x53
 13949 1155 38000000 		.4byte	.LVL332
 13950 1159 44000000 		.4byte	.LVL336
 13951 115d 0100     		.2byte	0x1
 13952 115f 57       		.byte	0x57
 13953 1160 00000000 		.4byte	0
 13954 1164 00000000 		.4byte	0
 13955              	.LLST123:
 13956 1168 00000000 		.4byte	.LVL325
 13957 116c 12000000 		.4byte	.LVL326
 13958 1170 0200     		.2byte	0x2
 13959 1172 91       		.byte	0x91
 13960 1173 00       		.sleb128 0
 13961 1174 12000000 		.4byte	.LVL326
 13962 1178 16000000 		.4byte	.LVL327
 13963 117c 0200     		.2byte	0x2
 13964 117e 73       		.byte	0x73
 13965 117f 00       		.sleb128 0
 13966 1180 16000000 		.4byte	.LVL327
 13967 1184 4C000000 		.4byte	.LFE207
 13968 1188 0200     		.2byte	0x2
 13969 118a 91       		.byte	0x91
 13970 118b 00       		.sleb128 0
 13971 118c 00000000 		.4byte	0
 13972 1190 00000000 		.4byte	0
 13973              	.LLST124:
 13974 1194 16000000 		.4byte	.LVL327
 13975 1198 18000000 		.4byte	.LVL328
 13976 119c 0100     		.2byte	0x1
 13977 119e 50       		.byte	0x50
 13978 119f 18000000 		.4byte	.LVL328
 13979 11a3 44000000 		.4byte	.LVL335
 13980 11a7 0100     		.2byte	0x1
 13981 11a9 55       		.byte	0x55
 13982 11aa 44000000 		.4byte	.LVL335
 13983 11ae 4C000000 		.4byte	.LFE207
 13984 11b2 0400     		.2byte	0x4
 13985 11b4 F3       		.byte	0xf3
 13986 11b5 01       		.uleb128 0x1
 13987 11b6 50       		.byte	0x50
 13988 11b7 9F       		.byte	0x9f
 13989 11b8 00000000 		.4byte	0
 13990 11bc 00000000 		.4byte	0
 13991              	.LLST125:
 13992 11c0 1E000000 		.4byte	.LVL330
 13993 11c4 27000000 		.4byte	.LVL331-1
 13994 11c8 0100     		.2byte	0x1
 13995 11ca 50       		.byte	0x50
 13996 11cb 27000000 		.4byte	.LVL331-1
 13997 11cf 44000000 		.4byte	.LVL334
 13998 11d3 0100     		.2byte	0x1
ARM GAS  C:\Users\haske\AppData\Local\Temp\ccXBxzcA.s 			page 283


 13999 11d5 54       		.byte	0x54
 14000 11d6 44000000 		.4byte	.LVL334
 14001 11da 4C000000 		.4byte	.LFE207
 14002 11de 0100     		.2byte	0x1
 14003 11e0 50       		.byte	0x50
 14004 11e1 00000000 		.4byte	0
 14005 11e5 00000000 		.4byte	0
 14006              	.LLST126:
 14007 11e9 00000000 		.4byte	.LVL338
 14008 11ed 18000000 		.4byte	.LVL341
 14009 11f1 0100     		.2byte	0x1
 14010 11f3 50       		.byte	0x50
 14011 11f4 18000000 		.4byte	.LVL341
 14012 11f8 44000000 		.4byte	.LVL347
 14013 11fc 0100     		.2byte	0x1
 14014 11fe 55       		.byte	0x55
 14015 11ff 44000000 		.4byte	.LVL347
 14016 1203 4C000000 		.4byte	.LFE208
 14017 1207 0400     		.2byte	0x4
 14018 1209 F3       		.byte	0xf3
 14019 120a 01       		.uleb128 0x1
 14020 120b 50       		.byte	0x50
 14021 120c 9F       		.byte	0x9f
 14022 120d 00000000 		.4byte	0
 14023 1211 00000000 		.4byte	0
 14024              	.LLST127:
 14025 1215 00000000 		.4byte	.LVL338
 14026 1219 1B000000 		.4byte	.LVL342-1
 14027 121d 0100     		.2byte	0x1
 14028 121f 51       		.byte	0x51
 14029 1220 1B000000 		.4byte	.LVL342-1
 14030 1224 44000000 		.4byte	.LVL349
 14031 1228 0100     		.2byte	0x1
 14032 122a 59       		.byte	0x59
 14033 122b 44000000 		.4byte	.LVL349
 14034 122f 4C000000 		.4byte	.LFE208
 14035 1233 0400     		.2byte	0x4
 14036 1235 F3       		.byte	0xf3
 14037 1236 01       		.uleb128 0x1
 14038 1237 51       		.byte	0x51
 14039 1238 9F       		.byte	0x9f
 14040 1239 00000000 		.4byte	0
 14041 123d 00000000 		.4byte	0
 14042              	.LLST128:
 14043 1241 00000000 		.4byte	.LVL338
 14044 1245 1B000000 		.4byte	.LVL342-1
 14045 1249 0100     		.2byte	0x1
 14046 124b 52       		.byte	0x52
 14047 124c 1B000000 		.4byte	.LVL342-1
 14048 1250 44000000 		.4byte	.LVL348
 14049 1254 0100     		.2byte	0x1
 14050 1256 58       		.byte	0x58
 14051 1257 44000000 		.4byte	.LVL348
 14052 125b 4C000000 		.4byte	.LFE208
 14053 125f 0400     		.2byte	0x4
 14054 1261 F3       		.byte	0xf3
 14055 1262 01       		.uleb128 0x1
ARM GAS  C:\Users\haske\AppData\Local\Temp\ccXBxzcA.s 			page 284


 14056 1263 52       		.byte	0x52
 14057 1264 9F       		.byte	0x9f
 14058 1265 00000000 		.4byte	0
 14059 1269 00000000 		.4byte	0
 14060              	.LLST129:
 14061 126d 00000000 		.4byte	.LVL338
 14062 1271 12000000 		.4byte	.LVL339
 14063 1275 0100     		.2byte	0x1
 14064 1277 53       		.byte	0x53
 14065 1278 12000000 		.4byte	.LVL339
 14066 127c 4C000000 		.4byte	.LFE208
 14067 1280 0400     		.2byte	0x4
 14068 1282 F3       		.byte	0xf3
 14069 1283 01       		.uleb128 0x1
 14070 1284 53       		.byte	0x53
 14071 1285 9F       		.byte	0x9f
 14072 1286 00000000 		.4byte	0
 14073 128a 00000000 		.4byte	0
 14074              	.LLST130:
 14075 128e 00000000 		.4byte	.LVL338
 14076 1292 12000000 		.4byte	.LVL339
 14077 1296 0200     		.2byte	0x2
 14078 1298 91       		.byte	0x91
 14079 1299 00       		.sleb128 0
 14080 129a 12000000 		.4byte	.LVL339
 14081 129e 16000000 		.4byte	.LVL340
 14082 12a2 0200     		.2byte	0x2
 14083 12a4 73       		.byte	0x73
 14084 12a5 00       		.sleb128 0
 14085 12a6 16000000 		.4byte	.LVL340
 14086 12aa 4C000000 		.4byte	.LFE208
 14087 12ae 0200     		.2byte	0x2
 14088 12b0 91       		.byte	0x91
 14089 12b1 00       		.sleb128 0
 14090 12b2 00000000 		.4byte	0
 14091 12b6 00000000 		.4byte	0
 14092              	.LLST131:
 14093 12ba 16000000 		.4byte	.LVL340
 14094 12be 18000000 		.4byte	.LVL341
 14095 12c2 0100     		.2byte	0x1
 14096 12c4 50       		.byte	0x50
 14097 12c5 18000000 		.4byte	.LVL341
 14098 12c9 44000000 		.4byte	.LVL347
 14099 12cd 0100     		.2byte	0x1
 14100 12cf 55       		.byte	0x55
 14101 12d0 44000000 		.4byte	.LVL347
 14102 12d4 4C000000 		.4byte	.LFE208
 14103 12d8 0400     		.2byte	0x4
 14104 12da F3       		.byte	0xf3
 14105 12db 01       		.uleb128 0x1
 14106 12dc 50       		.byte	0x50
 14107 12dd 9F       		.byte	0x9f
 14108 12de 00000000 		.4byte	0
 14109 12e2 00000000 		.4byte	0
 14110              	.LLST132:
 14111 12e6 1E000000 		.4byte	.LVL343
 14112 12ea 27000000 		.4byte	.LVL344-1
ARM GAS  C:\Users\haske\AppData\Local\Temp\ccXBxzcA.s 			page 285


 14113 12ee 0100     		.2byte	0x1
 14114 12f0 50       		.byte	0x50
 14115 12f1 27000000 		.4byte	.LVL344-1
 14116 12f5 44000000 		.4byte	.LVL346
 14117 12f9 0100     		.2byte	0x1
 14118 12fb 54       		.byte	0x54
 14119 12fc 44000000 		.4byte	.LVL346
 14120 1300 4C000000 		.4byte	.LFE208
 14121 1304 0100     		.2byte	0x1
 14122 1306 50       		.byte	0x50
 14123 1307 00000000 		.4byte	0
 14124 130b 00000000 		.4byte	0
 14125              	.LLST133:
 14126 130f 00000000 		.4byte	.LVL350
 14127 1313 18000000 		.4byte	.LVL353
 14128 1317 0100     		.2byte	0x1
 14129 1319 50       		.byte	0x50
 14130 131a 18000000 		.4byte	.LVL353
 14131 131e 44000000 		.4byte	.LVL360
 14132 1322 0100     		.2byte	0x1
 14133 1324 55       		.byte	0x55
 14134 1325 44000000 		.4byte	.LVL360
 14135 1329 4C000000 		.4byte	.LFE209
 14136 132d 0400     		.2byte	0x4
 14137 132f F3       		.byte	0xf3
 14138 1330 01       		.uleb128 0x1
 14139 1331 50       		.byte	0x50
 14140 1332 9F       		.byte	0x9f
 14141 1333 00000000 		.4byte	0
 14142 1337 00000000 		.4byte	0
 14143              	.LLST134:
 14144 133b 00000000 		.4byte	.LVL350
 14145 133f 1B000000 		.4byte	.LVL354-1
 14146 1343 0100     		.2byte	0x1
 14147 1345 51       		.byte	0x51
 14148 1346 1B000000 		.4byte	.LVL354-1
 14149 134a 44000000 		.4byte	.LVL362
 14150 134e 0100     		.2byte	0x1
 14151 1350 59       		.byte	0x59
 14152 1351 44000000 		.4byte	.LVL362
 14153 1355 4C000000 		.4byte	.LFE209
 14154 1359 0400     		.2byte	0x4
 14155 135b F3       		.byte	0xf3
 14156 135c 01       		.uleb128 0x1
 14157 135d 51       		.byte	0x51
 14158 135e 9F       		.byte	0x9f
 14159 135f 00000000 		.4byte	0
 14160 1363 00000000 		.4byte	0
 14161              	.LLST135:
 14162 1367 00000000 		.4byte	.LVL350
 14163 136b 1B000000 		.4byte	.LVL354-1
 14164 136f 0100     		.2byte	0x1
 14165 1371 52       		.byte	0x52
 14166 1372 1B000000 		.4byte	.LVL354-1
 14167 1376 4C000000 		.4byte	.LFE209
 14168 137a 0400     		.2byte	0x4
 14169 137c F3       		.byte	0xf3
ARM GAS  C:\Users\haske\AppData\Local\Temp\ccXBxzcA.s 			page 286


 14170 137d 01       		.uleb128 0x1
 14171 137e 52       		.byte	0x52
 14172 137f 9F       		.byte	0x9f
 14173 1380 00000000 		.4byte	0
 14174 1384 00000000 		.4byte	0
 14175              	.LLST136:
 14176 1388 00000000 		.4byte	.LVL350
 14177 138c 12000000 		.4byte	.LVL351
 14178 1390 0100     		.2byte	0x1
 14179 1392 53       		.byte	0x53
 14180 1393 38000000 		.4byte	.LVL357
 14181 1397 44000000 		.4byte	.LVL361
 14182 139b 0100     		.2byte	0x1
 14183 139d 57       		.byte	0x57
 14184 139e 00000000 		.4byte	0
 14185 13a2 00000000 		.4byte	0
 14186              	.LLST137:
 14187 13a6 00000000 		.4byte	.LVL350
 14188 13aa 12000000 		.4byte	.LVL351
 14189 13ae 0200     		.2byte	0x2
 14190 13b0 91       		.byte	0x91
 14191 13b1 00       		.sleb128 0
 14192 13b2 12000000 		.4byte	.LVL351
 14193 13b6 16000000 		.4byte	.LVL352
 14194 13ba 0200     		.2byte	0x2
 14195 13bc 73       		.byte	0x73
 14196 13bd 00       		.sleb128 0
 14197 13be 16000000 		.4byte	.LVL352
 14198 13c2 4C000000 		.4byte	.LFE209
 14199 13c6 0200     		.2byte	0x2
 14200 13c8 91       		.byte	0x91
 14201 13c9 00       		.sleb128 0
 14202 13ca 00000000 		.4byte	0
 14203 13ce 00000000 		.4byte	0
 14204              	.LLST138:
 14205 13d2 16000000 		.4byte	.LVL352
 14206 13d6 18000000 		.4byte	.LVL353
 14207 13da 0100     		.2byte	0x1
 14208 13dc 50       		.byte	0x50
 14209 13dd 18000000 		.4byte	.LVL353
 14210 13e1 44000000 		.4byte	.LVL360
 14211 13e5 0100     		.2byte	0x1
 14212 13e7 55       		.byte	0x55
 14213 13e8 44000000 		.4byte	.LVL360
 14214 13ec 4C000000 		.4byte	.LFE209
 14215 13f0 0400     		.2byte	0x4
 14216 13f2 F3       		.byte	0xf3
 14217 13f3 01       		.uleb128 0x1
 14218 13f4 50       		.byte	0x50
 14219 13f5 9F       		.byte	0x9f
 14220 13f6 00000000 		.4byte	0
 14221 13fa 00000000 		.4byte	0
 14222              	.LLST139:
 14223 13fe 1E000000 		.4byte	.LVL355
 14224 1402 27000000 		.4byte	.LVL356-1
 14225 1406 0100     		.2byte	0x1
 14226 1408 50       		.byte	0x50
ARM GAS  C:\Users\haske\AppData\Local\Temp\ccXBxzcA.s 			page 287


 14227 1409 27000000 		.4byte	.LVL356-1
 14228 140d 44000000 		.4byte	.LVL359
 14229 1411 0100     		.2byte	0x1
 14230 1413 54       		.byte	0x54
 14231 1414 44000000 		.4byte	.LVL359
 14232 1418 4C000000 		.4byte	.LFE209
 14233 141c 0100     		.2byte	0x1
 14234 141e 50       		.byte	0x50
 14235 141f 00000000 		.4byte	0
 14236 1423 00000000 		.4byte	0
 14237              	.LLST140:
 14238 1427 00000000 		.4byte	.LVL363
 14239 142b 1E000000 		.4byte	.LVL367
 14240 142f 0100     		.2byte	0x1
 14241 1431 50       		.byte	0x50
 14242 1432 1E000000 		.4byte	.LVL367
 14243 1436 5A000000 		.4byte	.LVL375
 14244 143a 0100     		.2byte	0x1
 14245 143c 56       		.byte	0x56
 14246 143d 5A000000 		.4byte	.LVL375
 14247 1441 64000000 		.4byte	.LFE210
 14248 1445 0400     		.2byte	0x4
 14249 1447 F3       		.byte	0xf3
 14250 1448 01       		.uleb128 0x1
 14251 1449 50       		.byte	0x50
 14252 144a 9F       		.byte	0x9f
 14253 144b 00000000 		.4byte	0
 14254 144f 00000000 		.4byte	0
 14255              	.LLST141:
 14256 1453 00000000 		.4byte	.LVL363
 14257 1457 21000000 		.4byte	.LVL368-1
 14258 145b 0100     		.2byte	0x1
 14259 145d 51       		.byte	0x51
 14260 145e 21000000 		.4byte	.LVL368-1
 14261 1462 5A000000 		.4byte	.LVL378
 14262 1466 0100     		.2byte	0x1
 14263 1468 5A       		.byte	0x5a
 14264 1469 5A000000 		.4byte	.LVL378
 14265 146d 64000000 		.4byte	.LFE210
 14266 1471 0400     		.2byte	0x4
 14267 1473 F3       		.byte	0xf3
 14268 1474 01       		.uleb128 0x1
 14269 1475 51       		.byte	0x51
 14270 1476 9F       		.byte	0x9f
 14271 1477 00000000 		.4byte	0
 14272 147b 00000000 		.4byte	0
 14273              	.LLST142:
 14274 147f 00000000 		.4byte	.LVL363
 14275 1483 21000000 		.4byte	.LVL368-1
 14276 1487 0100     		.2byte	0x1
 14277 1489 52       		.byte	0x52
 14278 148a 3A000000 		.4byte	.LVL371
 14279 148e 5A000000 		.4byte	.LVL377
 14280 1492 0100     		.2byte	0x1
 14281 1494 59       		.byte	0x59
 14282 1495 00000000 		.4byte	0
 14283 1499 00000000 		.4byte	0
ARM GAS  C:\Users\haske\AppData\Local\Temp\ccXBxzcA.s 			page 288


 14284              	.LLST143:
 14285 149d 00000000 		.4byte	.LVL363
 14286 14a1 14000000 		.4byte	.LVL364
 14287 14a5 0100     		.2byte	0x1
 14288 14a7 53       		.byte	0x53
 14289 14a8 3E000000 		.4byte	.LVL372
 14290 14ac 5A000000 		.4byte	.LVL376
 14291 14b0 0100     		.2byte	0x1
 14292 14b2 58       		.byte	0x58
 14293 14b3 00000000 		.4byte	0
 14294 14b7 00000000 		.4byte	0
 14295              	.LLST144:
 14296 14bb 00000000 		.4byte	.LVL363
 14297 14bf 14000000 		.4byte	.LVL364
 14298 14c3 0200     		.2byte	0x2
 14299 14c5 91       		.byte	0x91
 14300 14c6 00       		.sleb128 0
 14301 14c7 14000000 		.4byte	.LVL364
 14302 14cb 18000000 		.4byte	.LVL365
 14303 14cf 0200     		.2byte	0x2
 14304 14d1 73       		.byte	0x73
 14305 14d2 00       		.sleb128 0
 14306 14d3 18000000 		.4byte	.LVL365
 14307 14d7 64000000 		.4byte	.LFE210
 14308 14db 0200     		.2byte	0x2
 14309 14dd 91       		.byte	0x91
 14310 14de 00       		.sleb128 0
 14311 14df 00000000 		.4byte	0
 14312 14e3 00000000 		.4byte	0
 14313              	.LLST145:
 14314 14e7 00000000 		.4byte	.LVL363
 14315 14eb 14000000 		.4byte	.LVL364
 14316 14ef 0200     		.2byte	0x2
 14317 14f1 91       		.byte	0x91
 14318 14f2 04       		.sleb128 4
 14319 14f3 14000000 		.4byte	.LVL364
 14320 14f7 18000000 		.4byte	.LVL365
 14321 14fb 0200     		.2byte	0x2
 14322 14fd 73       		.byte	0x73
 14323 14fe 04       		.sleb128 4
 14324 14ff 18000000 		.4byte	.LVL365
 14325 1503 1C000000 		.4byte	.LVL366
 14326 1507 0200     		.2byte	0x2
 14327 1509 73       		.byte	0x73
 14328 150a 00       		.sleb128 0
 14329 150b 1C000000 		.4byte	.LVL366
 14330 150f 64000000 		.4byte	.LFE210
 14331 1513 0200     		.2byte	0x2
 14332 1515 91       		.byte	0x91
 14333 1516 04       		.sleb128 4
 14334 1517 00000000 		.4byte	0
 14335 151b 00000000 		.4byte	0
 14336              	.LLST146:
 14337 151f 1C000000 		.4byte	.LVL366
 14338 1523 1E000000 		.4byte	.LVL367
 14339 1527 0100     		.2byte	0x1
 14340 1529 50       		.byte	0x50
ARM GAS  C:\Users\haske\AppData\Local\Temp\ccXBxzcA.s 			page 289


 14341 152a 1E000000 		.4byte	.LVL367
 14342 152e 5A000000 		.4byte	.LVL375
 14343 1532 0100     		.2byte	0x1
 14344 1534 56       		.byte	0x56
 14345 1535 5A000000 		.4byte	.LVL375
 14346 1539 64000000 		.4byte	.LFE210
 14347 153d 0400     		.2byte	0x4
 14348 153f F3       		.byte	0xf3
 14349 1540 01       		.uleb128 0x1
 14350 1541 50       		.byte	0x50
 14351 1542 9F       		.byte	0x9f
 14352 1543 00000000 		.4byte	0
 14353 1547 00000000 		.4byte	0
 14354              	.LLST147:
 14355 154b 24000000 		.4byte	.LVL369
 14356 154f 2D000000 		.4byte	.LVL370-1
 14357 1553 0100     		.2byte	0x1
 14358 1555 50       		.byte	0x50
 14359 1556 2D000000 		.4byte	.LVL370-1
 14360 155a 5A000000 		.4byte	.LVL374
 14361 155e 0100     		.2byte	0x1
 14362 1560 54       		.byte	0x54
 14363 1561 5A000000 		.4byte	.LVL374
 14364 1565 64000000 		.4byte	.LFE210
 14365 1569 0100     		.2byte	0x1
 14366 156b 50       		.byte	0x50
 14367 156c 00000000 		.4byte	0
 14368 1570 00000000 		.4byte	0
 14369              	.LLST148:
 14370 1574 00000000 		.4byte	.LVL379
 14371 1578 1B000000 		.4byte	.LVL382-1
 14372 157c 0100     		.2byte	0x1
 14373 157e 50       		.byte	0x50
 14374 157f 1B000000 		.4byte	.LVL382-1
 14375 1583 2A000000 		.4byte	.LVL384
 14376 1587 0100     		.2byte	0x1
 14377 1589 56       		.byte	0x56
 14378 158a 2A000000 		.4byte	.LVL384
 14379 158e 31000000 		.4byte	.LVL385-1
 14380 1592 0100     		.2byte	0x1
 14381 1594 50       		.byte	0x50
 14382 1595 31000000 		.4byte	.LVL385-1
 14383 1599 48000000 		.4byte	.LVL388
 14384 159d 0100     		.2byte	0x1
 14385 159f 56       		.byte	0x56
 14386 15a0 48000000 		.4byte	.LVL388
 14387 15a4 4B000000 		.4byte	.LVL389-1
 14388 15a8 0100     		.2byte	0x1
 14389 15aa 50       		.byte	0x50
 14390 15ab 4B000000 		.4byte	.LVL389-1
 14391 15af 4C000000 		.4byte	.LVL392
 14392 15b3 0100     		.2byte	0x1
 14393 15b5 56       		.byte	0x56
 14394 15b6 4C000000 		.4byte	.LVL392
 14395 15ba 4E000000 		.4byte	.LFE211
 14396 15be 0400     		.2byte	0x4
 14397 15c0 F3       		.byte	0xf3
ARM GAS  C:\Users\haske\AppData\Local\Temp\ccXBxzcA.s 			page 290


 14398 15c1 01       		.uleb128 0x1
 14399 15c2 50       		.byte	0x50
 14400 15c3 9F       		.byte	0x9f
 14401 15c4 00000000 		.4byte	0
 14402 15c8 00000000 		.4byte	0
 14403              	.LLST149:
 14404 15cc 00000000 		.4byte	.LVL379
 14405 15d0 1B000000 		.4byte	.LVL382-1
 14406 15d4 0100     		.2byte	0x1
 14407 15d6 51       		.byte	0x51
 14408 15d7 1B000000 		.4byte	.LVL382-1
 14409 15db 2A000000 		.4byte	.LVL384
 14410 15df 0100     		.2byte	0x1
 14411 15e1 54       		.byte	0x54
 14412 15e2 2A000000 		.4byte	.LVL384
 14413 15e6 31000000 		.4byte	.LVL385-1
 14414 15ea 0100     		.2byte	0x1
 14415 15ec 51       		.byte	0x51
 14416 15ed 31000000 		.4byte	.LVL385-1
 14417 15f1 48000000 		.4byte	.LVL388
 14418 15f5 0100     		.2byte	0x1
 14419 15f7 54       		.byte	0x54
 14420 15f8 48000000 		.4byte	.LVL388
 14421 15fc 4B000000 		.4byte	.LVL389-1
 14422 1600 0100     		.2byte	0x1
 14423 1602 51       		.byte	0x51
 14424 1603 4B000000 		.4byte	.LVL389-1
 14425 1607 4C000000 		.4byte	.LVL390
 14426 160b 0100     		.2byte	0x1
 14427 160d 54       		.byte	0x54
 14428 160e 4C000000 		.4byte	.LVL390
 14429 1612 4E000000 		.4byte	.LFE211
 14430 1616 0400     		.2byte	0x4
 14431 1618 F3       		.byte	0xf3
 14432 1619 01       		.uleb128 0x1
 14433 161a 51       		.byte	0x51
 14434 161b 9F       		.byte	0x9f
 14435 161c 00000000 		.4byte	0
 14436 1620 00000000 		.4byte	0
 14437              	.LLST150:
 14438 1624 00000000 		.4byte	.LVL379
 14439 1628 0A000000 		.4byte	.LVL380
 14440 162c 0100     		.2byte	0x1
 14441 162e 52       		.byte	0x52
 14442 162f 0A000000 		.4byte	.LVL380
 14443 1633 4C000000 		.4byte	.LVL391
 14444 1637 0100     		.2byte	0x1
 14445 1639 55       		.byte	0x55
 14446 163a 4C000000 		.4byte	.LVL391
 14447 163e 4E000000 		.4byte	.LFE211
 14448 1642 0400     		.2byte	0x4
 14449 1644 F3       		.byte	0xf3
 14450 1645 01       		.uleb128 0x1
 14451 1646 52       		.byte	0x52
 14452 1647 9F       		.byte	0x9f
 14453 1648 00000000 		.4byte	0
 14454 164c 00000000 		.4byte	0
ARM GAS  C:\Users\haske\AppData\Local\Temp\ccXBxzcA.s 			page 291


 14455              	.LLST151:
 14456 1650 0A000000 		.4byte	.LVL380
 14457 1654 1B000000 		.4byte	.LVL382-1
 14458 1658 0100     		.2byte	0x1
 14459 165a 52       		.byte	0x52
 14460 165b 2A000000 		.4byte	.LVL384
 14461 165f 31000000 		.4byte	.LVL385-1
 14462 1663 0100     		.2byte	0x1
 14463 1665 52       		.byte	0x52
 14464 1666 48000000 		.4byte	.LVL388
 14465 166a 4B000000 		.4byte	.LVL389-1
 14466 166e 0100     		.2byte	0x1
 14467 1670 52       		.byte	0x52
 14468 1671 00000000 		.4byte	0
 14469 1675 00000000 		.4byte	0
 14470              	.LLST152:
 14471 1679 0C000000 		.4byte	.LVL381
 14472 167d 4C000000 		.4byte	.LVL393
 14473 1681 0100     		.2byte	0x1
 14474 1683 57       		.byte	0x57
 14475 1684 00000000 		.4byte	0
 14476 1688 00000000 		.4byte	0
 14477              	.LLST153:
 14478 168c 00000000 		.4byte	.LVL394
 14479 1690 17000000 		.4byte	.LVL396-1
 14480 1694 0100     		.2byte	0x1
 14481 1696 50       		.byte	0x50
 14482 1697 17000000 		.4byte	.LVL396-1
 14483 169b 1A000000 		.4byte	.LVL397
 14484 169f 0100     		.2byte	0x1
 14485 16a1 56       		.byte	0x56
 14486 16a2 1A000000 		.4byte	.LVL397
 14487 16a6 21000000 		.4byte	.LVL398-1
 14488 16aa 0100     		.2byte	0x1
 14489 16ac 50       		.byte	0x50
 14490 16ad 21000000 		.4byte	.LVL398-1
 14491 16b1 2E000000 		.4byte	.LVL400
 14492 16b5 0100     		.2byte	0x1
 14493 16b7 56       		.byte	0x56
 14494 16b8 2E000000 		.4byte	.LVL400
 14495 16bc 31000000 		.4byte	.LVL401-1
 14496 16c0 0100     		.2byte	0x1
 14497 16c2 50       		.byte	0x50
 14498 16c3 31000000 		.4byte	.LVL401-1
 14499 16c7 32000000 		.4byte	.LVL404
 14500 16cb 0100     		.2byte	0x1
 14501 16cd 56       		.byte	0x56
 14502 16ce 32000000 		.4byte	.LVL404
 14503 16d2 34000000 		.4byte	.LFE212
 14504 16d6 0400     		.2byte	0x4
 14505 16d8 F3       		.byte	0xf3
 14506 16d9 01       		.uleb128 0x1
 14507 16da 50       		.byte	0x50
 14508 16db 9F       		.byte	0x9f
 14509 16dc 00000000 		.4byte	0
 14510 16e0 00000000 		.4byte	0
 14511              	.LLST154:
ARM GAS  C:\Users\haske\AppData\Local\Temp\ccXBxzcA.s 			page 292


 14512 16e4 00000000 		.4byte	.LVL394
 14513 16e8 17000000 		.4byte	.LVL396-1
 14514 16ec 0100     		.2byte	0x1
 14515 16ee 51       		.byte	0x51
 14516 16ef 17000000 		.4byte	.LVL396-1
 14517 16f3 1A000000 		.4byte	.LVL397
 14518 16f7 0100     		.2byte	0x1
 14519 16f9 54       		.byte	0x54
 14520 16fa 1A000000 		.4byte	.LVL397
 14521 16fe 21000000 		.4byte	.LVL398-1
 14522 1702 0100     		.2byte	0x1
 14523 1704 51       		.byte	0x51
 14524 1705 21000000 		.4byte	.LVL398-1
 14525 1709 2E000000 		.4byte	.LVL400
 14526 170d 0100     		.2byte	0x1
 14527 170f 54       		.byte	0x54
 14528 1710 2E000000 		.4byte	.LVL400
 14529 1714 31000000 		.4byte	.LVL401-1
 14530 1718 0100     		.2byte	0x1
 14531 171a 51       		.byte	0x51
 14532 171b 31000000 		.4byte	.LVL401-1
 14533 171f 32000000 		.4byte	.LVL402
 14534 1723 0100     		.2byte	0x1
 14535 1725 54       		.byte	0x54
 14536 1726 32000000 		.4byte	.LVL402
 14537 172a 34000000 		.4byte	.LFE212
 14538 172e 0400     		.2byte	0x4
 14539 1730 F3       		.byte	0xf3
 14540 1731 01       		.uleb128 0x1
 14541 1732 51       		.byte	0x51
 14542 1733 9F       		.byte	0x9f
 14543 1734 00000000 		.4byte	0
 14544 1738 00000000 		.4byte	0
 14545              	.LLST155:
 14546 173c 00000000 		.4byte	.LVL394
 14547 1740 0A000000 		.4byte	.LVL395
 14548 1744 0100     		.2byte	0x1
 14549 1746 52       		.byte	0x52
 14550 1747 0A000000 		.4byte	.LVL395
 14551 174b 32000000 		.4byte	.LVL403
 14552 174f 0100     		.2byte	0x1
 14553 1751 55       		.byte	0x55
 14554 1752 32000000 		.4byte	.LVL403
 14555 1756 34000000 		.4byte	.LFE212
 14556 175a 0400     		.2byte	0x4
 14557 175c F3       		.byte	0xf3
 14558 175d 01       		.uleb128 0x1
 14559 175e 52       		.byte	0x52
 14560 175f 9F       		.byte	0x9f
 14561 1760 00000000 		.4byte	0
 14562 1764 00000000 		.4byte	0
 14563              	.LLST156:
 14564 1768 0A000000 		.4byte	.LVL395
 14565 176c 17000000 		.4byte	.LVL396-1
 14566 1770 0100     		.2byte	0x1
 14567 1772 52       		.byte	0x52
 14568 1773 1A000000 		.4byte	.LVL397
ARM GAS  C:\Users\haske\AppData\Local\Temp\ccXBxzcA.s 			page 293


 14569 1777 21000000 		.4byte	.LVL398-1
 14570 177b 0100     		.2byte	0x1
 14571 177d 52       		.byte	0x52
 14572 177e 2E000000 		.4byte	.LVL400
 14573 1782 31000000 		.4byte	.LVL401-1
 14574 1786 0100     		.2byte	0x1
 14575 1788 52       		.byte	0x52
 14576 1789 00000000 		.4byte	0
 14577 178d 00000000 		.4byte	0
 14578              	.LLST157:
 14579 1791 00000000 		.4byte	.LVL405
 14580 1795 17000000 		.4byte	.LVL407-1
 14581 1799 0100     		.2byte	0x1
 14582 179b 50       		.byte	0x50
 14583 179c 17000000 		.4byte	.LVL407-1
 14584 17a0 1A000000 		.4byte	.LVL408
 14585 17a4 0100     		.2byte	0x1
 14586 17a6 56       		.byte	0x56
 14587 17a7 1A000000 		.4byte	.LVL408
 14588 17ab 21000000 		.4byte	.LVL409-1
 14589 17af 0100     		.2byte	0x1
 14590 17b1 50       		.byte	0x50
 14591 17b2 21000000 		.4byte	.LVL409-1
 14592 17b6 2E000000 		.4byte	.LVL411
 14593 17ba 0100     		.2byte	0x1
 14594 17bc 56       		.byte	0x56
 14595 17bd 2E000000 		.4byte	.LVL411
 14596 17c1 31000000 		.4byte	.LVL412-1
 14597 17c5 0100     		.2byte	0x1
 14598 17c7 50       		.byte	0x50
 14599 17c8 31000000 		.4byte	.LVL412-1
 14600 17cc 32000000 		.4byte	.LVL415
 14601 17d0 0100     		.2byte	0x1
 14602 17d2 56       		.byte	0x56
 14603 17d3 32000000 		.4byte	.LVL415
 14604 17d7 34000000 		.4byte	.LFE213
 14605 17db 0400     		.2byte	0x4
 14606 17dd F3       		.byte	0xf3
 14607 17de 01       		.uleb128 0x1
 14608 17df 50       		.byte	0x50
 14609 17e0 9F       		.byte	0x9f
 14610 17e1 00000000 		.4byte	0
 14611 17e5 00000000 		.4byte	0
 14612              	.LLST158:
 14613 17e9 00000000 		.4byte	.LVL405
 14614 17ed 17000000 		.4byte	.LVL407-1
 14615 17f1 0100     		.2byte	0x1
 14616 17f3 51       		.byte	0x51
 14617 17f4 17000000 		.4byte	.LVL407-1
 14618 17f8 1A000000 		.4byte	.LVL408
 14619 17fc 0100     		.2byte	0x1
 14620 17fe 54       		.byte	0x54
 14621 17ff 1A000000 		.4byte	.LVL408
 14622 1803 21000000 		.4byte	.LVL409-1
 14623 1807 0100     		.2byte	0x1
 14624 1809 51       		.byte	0x51
 14625 180a 21000000 		.4byte	.LVL409-1
ARM GAS  C:\Users\haske\AppData\Local\Temp\ccXBxzcA.s 			page 294


 14626 180e 2E000000 		.4byte	.LVL411
 14627 1812 0100     		.2byte	0x1
 14628 1814 54       		.byte	0x54
 14629 1815 2E000000 		.4byte	.LVL411
 14630 1819 31000000 		.4byte	.LVL412-1
 14631 181d 0100     		.2byte	0x1
 14632 181f 51       		.byte	0x51
 14633 1820 31000000 		.4byte	.LVL412-1
 14634 1824 32000000 		.4byte	.LVL413
 14635 1828 0100     		.2byte	0x1
 14636 182a 54       		.byte	0x54
 14637 182b 32000000 		.4byte	.LVL413
 14638 182f 34000000 		.4byte	.LFE213
 14639 1833 0400     		.2byte	0x4
 14640 1835 F3       		.byte	0xf3
 14641 1836 01       		.uleb128 0x1
 14642 1837 51       		.byte	0x51
 14643 1838 9F       		.byte	0x9f
 14644 1839 00000000 		.4byte	0
 14645 183d 00000000 		.4byte	0
 14646              	.LLST159:
 14647 1841 00000000 		.4byte	.LVL405
 14648 1845 0A000000 		.4byte	.LVL406
 14649 1849 0100     		.2byte	0x1
 14650 184b 52       		.byte	0x52
 14651 184c 0A000000 		.4byte	.LVL406
 14652 1850 32000000 		.4byte	.LVL414
 14653 1854 0100     		.2byte	0x1
 14654 1856 55       		.byte	0x55
 14655 1857 32000000 		.4byte	.LVL414
 14656 185b 34000000 		.4byte	.LFE213
 14657 185f 0400     		.2byte	0x4
 14658 1861 F3       		.byte	0xf3
 14659 1862 01       		.uleb128 0x1
 14660 1863 52       		.byte	0x52
 14661 1864 9F       		.byte	0x9f
 14662 1865 00000000 		.4byte	0
 14663 1869 00000000 		.4byte	0
 14664              	.LLST160:
 14665 186d 0A000000 		.4byte	.LVL406
 14666 1871 17000000 		.4byte	.LVL407-1
 14667 1875 0100     		.2byte	0x1
 14668 1877 52       		.byte	0x52
 14669 1878 1A000000 		.4byte	.LVL408
 14670 187c 21000000 		.4byte	.LVL409-1
 14671 1880 0100     		.2byte	0x1
 14672 1882 52       		.byte	0x52
 14673 1883 2E000000 		.4byte	.LVL411
 14674 1887 31000000 		.4byte	.LVL412-1
 14675 188b 0100     		.2byte	0x1
 14676 188d 52       		.byte	0x52
 14677 188e 00000000 		.4byte	0
 14678 1892 00000000 		.4byte	0
 14679              		.section	.debug_aranges,"",%progbits
 14680 0000 B4000000 		.4byte	0xb4
 14681 0004 0200     		.2byte	0x2
 14682 0006 00000000 		.4byte	.Ldebug_info0
ARM GAS  C:\Users\haske\AppData\Local\Temp\ccXBxzcA.s 			page 295


 14683 000a 04       		.byte	0x4
 14684 000b 00       		.byte	0
 14685 000c 0000     		.2byte	0
 14686 000e 0000     		.2byte	0
 14687 0010 00000000 		.4byte	.LFB217
 14688 0014 48010000 		.4byte	.LFE217-.LFB217
 14689 0018 00000000 		.4byte	.LFB218
 14690 001c 3C040000 		.4byte	.LFE218-.LFB218
 14691 0020 00000000 		.4byte	.LFB219
 14692 0024 34020000 		.4byte	.LFE219-.LFB219
 14693 0028 00000000 		.4byte	.LFB216
 14694 002c EC000000 		.4byte	.LFE216-.LFB216
 14695 0030 00000000 		.4byte	.LFB215
 14696 0034 16000000 		.4byte	.LFE215-.LFB215
 14697 0038 00000000 		.4byte	.LFB214
 14698 003c 1A000000 		.4byte	.LFE214-.LFB214
 14699 0040 00000000 		.4byte	.LFB220
 14700 0044 CA000000 		.4byte	.LFE220-.LFB220
 14701 0048 00000000 		.4byte	.LFB221
 14702 004c 9C010000 		.4byte	.LFE221-.LFB221
 14703 0050 00000000 		.4byte	.LFB202
 14704 0054 18000000 		.4byte	.LFE202-.LFB202
 14705 0058 00000000 		.4byte	.LFB203
 14706 005c 38000000 		.4byte	.LFE203-.LFB203
 14707 0060 00000000 		.4byte	.LFB204
 14708 0064 18000000 		.4byte	.LFE204-.LFB204
 14709 0068 00000000 		.4byte	.LFB205
 14710 006c 20000000 		.4byte	.LFE205-.LFB205
 14711 0070 00000000 		.4byte	.LFB206
 14712 0074 14000000 		.4byte	.LFE206-.LFB206
 14713 0078 00000000 		.4byte	.LFB207
 14714 007c 4C000000 		.4byte	.LFE207-.LFB207
 14715 0080 00000000 		.4byte	.LFB208
 14716 0084 4C000000 		.4byte	.LFE208-.LFB208
 14717 0088 00000000 		.4byte	.LFB209
 14718 008c 4C000000 		.4byte	.LFE209-.LFB209
 14719 0090 00000000 		.4byte	.LFB210
 14720 0094 64000000 		.4byte	.LFE210-.LFB210
 14721 0098 00000000 		.4byte	.LFB211
 14722 009c 4E000000 		.4byte	.LFE211-.LFB211
 14723 00a0 00000000 		.4byte	.LFB212
 14724 00a4 34000000 		.4byte	.LFE212-.LFB212
 14725 00a8 00000000 		.4byte	.LFB213
 14726 00ac 34000000 		.4byte	.LFE213-.LFB213
 14727 00b0 00000000 		.4byte	0
 14728 00b4 00000000 		.4byte	0
 14729              		.section	.debug_ranges,"",%progbits
 14730              	.Ldebug_ranges0:
 14731 0000 00000000 		.4byte	.LFB217
 14732 0004 48010000 		.4byte	.LFE217
 14733 0008 00000000 		.4byte	.LFB218
 14734 000c 3C040000 		.4byte	.LFE218
 14735 0010 00000000 		.4byte	.LFB219
 14736 0014 34020000 		.4byte	.LFE219
 14737 0018 00000000 		.4byte	.LFB216
 14738 001c EC000000 		.4byte	.LFE216
 14739 0020 00000000 		.4byte	.LFB215
ARM GAS  C:\Users\haske\AppData\Local\Temp\ccXBxzcA.s 			page 296


 14740 0024 16000000 		.4byte	.LFE215
 14741 0028 00000000 		.4byte	.LFB214
 14742 002c 1A000000 		.4byte	.LFE214
 14743 0030 00000000 		.4byte	.LFB220
 14744 0034 CA000000 		.4byte	.LFE220
 14745 0038 00000000 		.4byte	.LFB221
 14746 003c 9C010000 		.4byte	.LFE221
 14747 0040 00000000 		.4byte	.LFB202
 14748 0044 18000000 		.4byte	.LFE202
 14749 0048 00000000 		.4byte	.LFB203
 14750 004c 38000000 		.4byte	.LFE203
 14751 0050 00000000 		.4byte	.LFB204
 14752 0054 18000000 		.4byte	.LFE204
 14753 0058 00000000 		.4byte	.LFB205
 14754 005c 20000000 		.4byte	.LFE205
 14755 0060 00000000 		.4byte	.LFB206
 14756 0064 14000000 		.4byte	.LFE206
 14757 0068 00000000 		.4byte	.LFB207
 14758 006c 4C000000 		.4byte	.LFE207
 14759 0070 00000000 		.4byte	.LFB208
 14760 0074 4C000000 		.4byte	.LFE208
 14761 0078 00000000 		.4byte	.LFB209
 14762 007c 4C000000 		.4byte	.LFE209
 14763 0080 00000000 		.4byte	.LFB210
 14764 0084 64000000 		.4byte	.LFE210
 14765 0088 00000000 		.4byte	.LFB211
 14766 008c 4E000000 		.4byte	.LFE211
 14767 0090 00000000 		.4byte	.LFB212
 14768 0094 34000000 		.4byte	.LFE212
 14769 0098 00000000 		.4byte	.LFB213
 14770 009c 34000000 		.4byte	.LFE213
 14771 00a0 00000000 		.4byte	0
 14772 00a4 00000000 		.4byte	0
 14773              		.section	.debug_line,"",%progbits
 14774              	.Ldebug_line0:
 14775 0000 D30B0000 		.section	.debug_str,"MS",%progbits,1
 14775      02007A06 
 14775      00000201 
 14775      FB0E0D00 
 14775      01010101 
 14776              	.LASF211:
 14777 0000 62675F6F 		.ascii	"bg_opa\000"
 14777      706100
 14778              	.LASF409:
 14779 0007 4C565F45 		.ascii	"LV_EVENT_VALUE_CHANGED\000"
 14779      56454E54 
 14779      5F56414C 
 14779      55455F43 
 14779      48414E47 
 14780              	.LASF513:
 14781 001e 64726177 		.ascii	"draw_arcs\000"
 14781      5F617263 
 14781      7300
 14782              	.LASF207:
 14783 0028 685F6C61 		.ascii	"h_layout\000"
 14783      796F7574 
 14783      00
ARM GAS  C:\Users\haske\AppData\Local\Temp\ccXBxzcA.s 			page 297


 14784              	.LASF475:
 14785 0031 4C565F4D 		.ascii	"LV_METER_INDICATOR_TYPE_ARC\000"
 14785      45544552 
 14785      5F494E44 
 14785      49434154 
 14785      4F525F54 
 14786              	.LASF192:
 14787 004d 72657365 		.ascii	"reserved\000"
 14787      72766564 
 14787      00
 14788              	.LASF285:
 14789 0056 4C565F44 		.ascii	"LV_DRAW_LAYER_FLAG_CAN_SUBDIVIDE\000"
 14789      5241575F 
 14789      4C415945 
 14789      525F464C 
 14789      41475F43 
 14790              	.LASF100:
 14791 0077 4C565F53 		.ascii	"LV_STYLE_LAYOUT\000"
 14791      54594C45 
 14791      5F4C4159 
 14791      4F555400 
 14792              	.LASF23:
 14793 0087 6C765F72 		.ascii	"lv_res_t\000"
 14793      65735F74 
 14793      00
 14794              	.LASF236:
 14795 0090 666F6E74 		.ascii	"font\000"
 14795      00
 14796              	.LASF613:
 14797 0095 6C765F64 		.ascii	"lv_draw_img_dsc_init\000"
 14797      7261775F 
 14797      696D675F 
 14797      6473635F 
 14797      696E6974 
 14798              	.LASF241:
 14799 00aa 6C696E65 		.ascii	"line_space\000"
 14799      5F737061 
 14799      636500
 14800              	.LASF75:
 14801 00b5 6C765F74 		.ascii	"lv_text_align_t\000"
 14801      6578745F 
 14801      616C6967 
 14801      6E5F7400 
 14802              	.LASF31:
 14803 00c5 6C765F64 		.ascii	"lv_dir_t\000"
 14803      69725F74 
 14803      00
 14804              	.LASF187:
 14805 00ce 6861735F 		.ascii	"has_group\000"
 14805      67726F75 
 14805      7000
 14806              	.LASF1:
 14807 00d8 5F5F7569 		.ascii	"__uint8_t\000"
 14807      6E74385F 
 14807      7400
 14808              	.LASF321:
 14809 00e2 5F6C765F 		.ascii	"_lv_group_t\000"
ARM GAS  C:\Users\haske\AppData\Local\Temp\ccXBxzcA.s 			page 298


 14809      67726F75 
 14809      705F7400 
 14810              	.LASF49:
 14811 00ee 5F426F6F 		.ascii	"_Bool\000"
 14811      6C00
 14812              	.LASF400:
 14813 00f4 4C565F45 		.ascii	"LV_EVENT_REFR_EXT_DRAW_SIZE\000"
 14813      56454E54 
 14813      5F524546 
 14813      525F4558 
 14813      545F4452 
 14814              	.LASF350:
 14815 0110 64726177 		.ascii	"draw_area\000"
 14815      5F617265 
 14815      6100
 14816              	.LASF449:
 14817 011a 4C565F42 		.ascii	"LV_BAR_MODE_SYMMETRICAL\000"
 14817      41525F4D 
 14817      4F44455F 
 14817      53594D4D 
 14817      45545249 
 14818              	.LASF339:
 14819 0132 4C565F50 		.ascii	"LV_PART_CUSTOM_FIRST\000"
 14819      4152545F 
 14819      43555354 
 14819      4F4D5F46 
 14819      49525354 
 14820              	.LASF524:
 14821 0147 61726561 		.ascii	"area_outer\000"
 14821      5F6F7574 
 14821      657200
 14822              	.LASF478:
 14823 0152 636F6C6F 		.ascii	"color_start\000"
 14823      725F7374 
 14823      61727400 
 14824              	.LASF257:
 14825 015e 64617368 		.ascii	"dash_width\000"
 14825      5F776964 
 14825      746800
 14826              	.LASF45:
 14827 0169 756E6465 		.ascii	"underline_thickness\000"
 14827      726C696E 
 14827      655F7468 
 14827      69636B6E 
 14827      65737300 
 14828              	.LASF396:
 14829 017d 4C565F45 		.ascii	"LV_EVENT_DEFOCUSED\000"
 14829      56454E54 
 14829      5F444546 
 14829      4F435553 
 14829      454400
 14830              	.LASF114:
 14831 0190 4C565F53 		.ascii	"LV_STYLE_BG_MAIN_STOP\000"
 14831      54594C45 
 14831      5F42475F 
 14831      4D41494E 
 14831      5F53544F 
ARM GAS  C:\Users\haske\AppData\Local\Temp\ccXBxzcA.s 			page 299


 14832              	.LASF311:
 14833 01a6 6C617965 		.ascii	"layer_adjust\000"
 14833      725F6164 
 14833      6A757374 
 14833      00
 14834              	.LASF248:
 14835 01b3 616E676C 		.ascii	"angle\000"
 14835      6500
 14836              	.LASF107:
 14837 01b9 4C565F53 		.ascii	"LV_STYLE_PAD_COLUMN\000"
 14837      54594C45 
 14837      5F504144 
 14837      5F434F4C 
 14837      554D4E00 
 14838              	.LASF505:
 14839 01cd 6C765F6F 		.ascii	"lv_obj_get_style_width\000"
 14839      626A5F67 
 14839      65745F73 
 14839      74796C65 
 14839      5F776964 
 14840              	.LASF48:
 14841 01e4 6C765F66 		.ascii	"lv_font_glyph_dsc_t\000"
 14841      6F6E745F 
 14841      676C7970 
 14841      685F6473 
 14841      635F7400 
 14842              	.LASF168:
 14843 01f8 4C565F53 		.ascii	"LV_STYLE_TRANSFORM_HEIGHT\000"
 14843      54594C45 
 14843      5F545241 
 14843      4E53464F 
 14843      524D5F48 
 14844              	.LASF517:
 14845 0212 696E6E65 		.ascii	"inner_minor_mask\000"
 14845      725F6D69 
 14845      6E6F725F 
 14845      6D61736B 
 14845      00
 14846              	.LASF590:
 14847 0223 6C765F65 		.ascii	"lv_event_send\000"
 14847      76656E74 
 14847      5F73656E 
 14847      6400
 14848              	.LASF18:
 14849 0231 75696E74 		.ascii	"uint16_t\000"
 14849      31365F74 
 14849      00
 14850              	.LASF519:
 14851 023a 6F757465 		.ascii	"outer_mask\000"
 14851      725F6D61 
 14851      736B00
 14852              	.LASF203:
 14853 0245 6C61796F 		.ascii	"layout_inv\000"
 14853      75745F69 
 14853      6E7600
 14854              	.LASF480:
 14855 0250 6C6F6361 		.ascii	"local_grad\000"
ARM GAS  C:\Users\haske\AppData\Local\Temp\ccXBxzcA.s 			page 300


 14855      6C5F6772 
 14855      616400
 14856              	.LASF500:
 14857 025b 6C765F61 		.ascii	"lv_area_get_height\000"
 14857      7265615F 
 14857      6765745F 
 14857      68656967 
 14857      687400
 14858              	.LASF466:
 14859 026e 6C616265 		.ascii	"label_gap\000"
 14859      6C5F6761 
 14859      7000
 14860              	.LASF352:
 14861 0278 6C616265 		.ascii	"label_dsc\000"
 14861      6C5F6473 
 14861      6300
 14862              	.LASF119:
 14863 0282 4C565F53 		.ascii	"LV_STYLE_BG_IMG_OPA\000"
 14863      54594C45 
 14863      5F42475F 
 14863      494D475F 
 14863      4F504100 
 14864              	.LASF418:
 14865 0296 4C565F45 		.ascii	"LV_EVENT_SCREEN_UNLOAD_START\000"
 14865      56454E54 
 14865      5F534352 
 14865      45454E5F 
 14865      554E4C4F 
 14866              	.LASF580:
 14867 02b3 4C565F53 		.ascii	"LV_STYLE_GRID_ROW_ALIGN\000"
 14867      54594C45 
 14867      5F475249 
 14867      445F524F 
 14867      575F414C 
 14868              	.LASF331:
 14869 02cb 4C565F50 		.ascii	"LV_PART_MAIN\000"
 14869      4152545F 
 14869      4D41494E 
 14869      00
 14870              	.LASF351:
 14871 02d8 72656374 		.ascii	"rect_dsc\000"
 14871      5F647363 
 14871      00
 14872              	.LASF579:
 14873 02e1 4C565F53 		.ascii	"LV_STYLE_GRID_ROW_DSC_ARRAY\000"
 14873      54594C45 
 14873      5F475249 
 14873      445F524F 
 14873      575F4453 
 14874              	.LASF520:
 14875 02fd 725F696E 		.ascii	"r_in_minor\000"
 14875      5F6D696E 
 14875      6F7200
 14876              	.LASF154:
 14877 0308 4C565F53 		.ascii	"LV_STYLE_TEXT_FONT\000"
 14877      54594C45 
 14877      5F544558 
ARM GAS  C:\Users\haske\AppData\Local\Temp\ccXBxzcA.s 			page 301


 14877      545F464F 
 14877      4E5400
 14878              	.LASF341:
 14879 031b 6C765F6F 		.ascii	"lv_obj_flag_t\000"
 14879      626A5F66 
 14879      6C61675F 
 14879      7400
 14880              	.LASF414:
 14881 0329 4C565F45 		.ascii	"LV_EVENT_DELETE\000"
 14881      56454E54 
 14881      5F44454C 
 14881      45544500 
 14882              	.LASF597:
 14883 0339 6C765F70 		.ascii	"lv_point_transform\000"
 14883      6F696E74 
 14883      5F747261 
 14883      6E73666F 
 14883      726D00
 14884              	.LASF46:
 14885 034c 66616C6C 		.ascii	"fallback\000"
 14885      6261636B 
 14885      00
 14886              	.LASF83:
 14887 0355 66726163 		.ascii	"frac\000"
 14887      00
 14888              	.LASF199:
 14889 035a 7374796C 		.ascii	"styles\000"
 14889      657300
 14890              	.LASF43:
 14891 0361 73756270 		.ascii	"subpx\000"
 14891      7800
 14892              	.LASF620:
 14893 0367 6C765F6F 		.ascii	"lv_obj_event_base\000"
 14893      626A5F65 
 14893      76656E74 
 14893      5F626173 
 14893      6500
 14894              	.LASF167:
 14895 0379 4C565F53 		.ascii	"LV_STYLE_TRANSFORM_WIDTH\000"
 14895      54594C45 
 14895      5F545241 
 14895      4E53464F 
 14895      524D5F57 
 14896              	.LASF279:
 14897 0392 72656374 		.ascii	"rect\000"
 14897      00
 14898              	.LASF526:
 14899 0397 696E6E65 		.ascii	"inner_act_mask_id\000"
 14899      725F6163 
 14899      745F6D61 
 14899      736B5F69 
 14899      6400
 14900              	.LASF141:
 14901 03a9 4C565F53 		.ascii	"LV_STYLE_LINE_WIDTH\000"
 14901      54594C45 
 14901      5F4C494E 
 14901      455F5749 
ARM GAS  C:\Users\haske\AppData\Local\Temp\ccXBxzcA.s 			page 302


 14901      44544800 
 14902              	.LASF297:
 14903 03bd 5F6C765F 		.ascii	"_lv_draw_ctx_t\000"
 14903      64726177 
 14903      5F637478 
 14903      5F7400
 14904              	.LASF93:
 14905 03cc 4C565F53 		.ascii	"LV_STYLE_MAX_WIDTH\000"
 14905      54594C45 
 14905      5F4D4158 
 14905      5F574944 
 14905      544800
 14906              	.LASF446:
 14907 03df 5F6C765F 		.ascii	"_lv_obj_spec_attr_t\000"
 14907      6F626A5F 
 14907      73706563 
 14907      5F617474 
 14907      725F7400 
 14908              	.LASF144:
 14909 03f3 4C565F53 		.ascii	"LV_STYLE_LINE_ROUNDED\000"
 14909      54594C45 
 14909      5F4C494E 
 14909      455F524F 
 14909      554E4445 
 14910              	.LASF510:
 14911 0409 6F70615F 		.ascii	"opa_main\000"
 14911      6D61696E 
 14911      00
 14912              	.LASF621:
 14913 0412 6C765F65 		.ascii	"lv_event_get_code\000"
 14913      76656E74 
 14913      5F676574 
 14913      5F636F64 
 14913      6500
 14914              	.LASF397:
 14915 0424 4C565F45 		.ascii	"LV_EVENT_LEAVE\000"
 14915      56454E54 
 14915      5F4C4541 
 14915      564500
 14916              	.LASF405:
 14917 0433 4C565F45 		.ascii	"LV_EVENT_DRAW_POST\000"
 14917      56454E54 
 14917      5F445241 
 14917      575F504F 
 14917      535400
 14918              	.LASF19:
 14919 0446 696E7433 		.ascii	"int32_t\000"
 14919      325F7400 
 14920              	.LASF541:
 14921 044e 64726177 		.ascii	"draw_needles\000"
 14921      5F6E6565 
 14921      646C6573 
 14921      00
 14922              	.LASF183:
 14923 045b 76616C75 		.ascii	"value1\000"
 14923      653100
 14924              	.LASF178:
ARM GAS  C:\Users\haske\AppData\Local\Temp\ccXBxzcA.s 			page 303


 14925 0462 5F4C565F 		.ascii	"_LV_STYLE_PROP_CONST\000"
 14925      5354594C 
 14925      455F5052 
 14925      4F505F43 
 14925      4F4E5354 
 14926              	.LASF381:
 14927 0477 4C565F45 		.ascii	"LV_EVENT_ALL\000"
 14927      56454E54 
 14927      5F414C4C 
 14927      00
 14928              	.LASF159:
 14929 0484 4C565F53 		.ascii	"LV_STYLE_OPA\000"
 14929      54594C45 
 14929      5F4F5041 
 14929      00
 14930              	.LASF289:
 14931 0491 73637265 		.ascii	"screen_transp\000"
 14931      656E5F74 
 14931      72616E73 
 14931      7000
 14932              	.LASF523:
 14933 049f 61726561 		.ascii	"area_inner_major\000"
 14933      5F696E6E 
 14933      65725F6D 
 14933      616A6F72 
 14933      00
 14934              	.LASF32:
 14935 04b0 7265736F 		.ascii	"resolved_font\000"
 14935      6C766564 
 14935      5F666F6E 
 14935      7400
 14936              	.LASF424:
 14937 04be 4C565F45 		.ascii	"LV_EVENT_LAYOUT_CHANGED\000"
 14937      56454E54 
 14937      5F4C4159 
 14937      4F55545F 
 14937      4348414E 
 14938              	.LASF270:
 14939 04d6 6C765F64 		.ascii	"lv_draw_mask_xcb_t\000"
 14939      7261775F 
 14939      6D61736B 
 14939      5F786362 
 14939      5F7400
 14940              	.LASF284:
 14941 04e9 4C565F44 		.ascii	"LV_DRAW_LAYER_FLAG_HAS_ALPHA\000"
 14941      5241575F 
 14941      4C415945 
 14941      525F464C 
 14941      41475F48 
 14942              	.LASF164:
 14943 0506 4C565F53 		.ascii	"LV_STYLE_ANIM_SPEED\000"
 14943      54594C45 
 14943      5F414E49 
 14943      4D5F5350 
 14943      45454400 
 14944              	.LASF213:
 14945 051a 62675F67 		.ascii	"bg_grad\000"
ARM GAS  C:\Users\haske\AppData\Local\Temp\ccXBxzcA.s 			page 304


 14945      72616400 
 14946              	.LASF516:
 14947 0522 725F6564 		.ascii	"r_edge\000"
 14947      676500
 14948              	.LASF180:
 14949 0529 70726F70 		.ascii	"prop\000"
 14949      00
 14950              	.LASF454:
 14951 052e 4C565F49 		.ascii	"LV_IMGBTN_STATE_CHECKED_RELEASED\000"
 14951      4D474254 
 14951      4E5F5354 
 14951      4154455F 
 14951      43484543 
 14952              	.LASF450:
 14953 054f 4C565F42 		.ascii	"LV_BAR_MODE_RANGE\000"
 14953      41525F4D 
 14953      4F44455F 
 14953      52414E47 
 14953      4500
 14954              	.LASF402:
 14955 0561 4C565F45 		.ascii	"LV_EVENT_DRAW_MAIN\000"
 14955      56454E54 
 14955      5F445241 
 14955      575F4D41 
 14955      494E00
 14956              	.LASF92:
 14957 0574 4C565F53 		.ascii	"LV_STYLE_MIN_WIDTH\000"
 14957      54594C45 
 14957      5F4D494E 
 14957      5F574944 
 14957      544800
 14958              	.LASF166:
 14959 0587 4C565F53 		.ascii	"LV_STYLE_BLEND_MODE\000"
 14959      54594C45 
 14959      5F424C45 
 14959      4E445F4D 
 14959      4F444500 
 14960              	.LASF324:
 14961 059b 666F6375 		.ascii	"focus_cb\000"
 14961      735F6362 
 14961      00
 14962              	.LASF216:
 14963 05a4 62675F69 		.ascii	"bg_img_recolor\000"
 14963      6D675F72 
 14963      65636F6C 
 14963      6F7200
 14964              	.LASF627:
 14965 05b3 5F6C765F 		.ascii	"_lv_img_buf_get_transformed_area\000"
 14965      696D675F 
 14965      6275665F 
 14965      6765745F 
 14965      7472616E 
 14966              	.LASF266:
 14967 05d4 726F756E 		.ascii	"rounded\000"
 14967      64656400 
 14968              	.LASF387:
 14969 05dc 4C565F45 		.ascii	"LV_EVENT_LONG_PRESSED_REPEAT\000"
ARM GAS  C:\Users\haske\AppData\Local\Temp\ccXBxzcA.s 			page 305


 14969      56454E54 
 14969      5F4C4F4E 
 14969      475F5052 
 14969      45535345 
 14970              	.LASF395:
 14971 05f9 4C565F45 		.ascii	"LV_EVENT_FOCUSED\000"
 14971      56454E54 
 14971      5F464F43 
 14971      55534544 
 14971      00
 14972              	.LASF472:
 14973 060a 4C565F4D 		.ascii	"LV_METER_INDICATOR_TYPE_NEEDLE_IMG\000"
 14973      45544552 
 14973      5F494E44 
 14973      49434154 
 14973      4F525F54 
 14974              	.LASF97:
 14975 062d 4C565F53 		.ascii	"LV_STYLE_X\000"
 14975      54594C45 
 14975      5F5800
 14976              	.LASF98:
 14977 0638 4C565F53 		.ascii	"LV_STYLE_Y\000"
 14977      54594C45 
 14977      5F5900
 14978              	.LASF533:
 14979 0643 6C696E65 		.ascii	"line_width\000"
 14979      5F776964 
 14979      746800
 14980              	.LASF432:
 14981 064e 6C765F67 		.ascii	"lv_group_t\000"
 14981      726F7570 
 14981      5F7400
 14982              	.LASF529:
 14983 0659 76616C75 		.ascii	"value_of_line\000"
 14983      655F6F66 
 14983      5F6C696E 
 14983      6500
 14984              	.LASF112:
 14985 0667 4C565F53 		.ascii	"LV_STYLE_BG_GRAD_COLOR\000"
 14985      54594C45 
 14985      5F42475F 
 14985      47524144 
 14985      5F434F4C 
 14986              	.LASF177:
 14987 067e 4C565F53 		.ascii	"LV_STYLE_PROP_ANY\000"
 14987      54594C45 
 14987      5F50524F 
 14987      505F414E 
 14987      5900
 14988              	.LASF263:
 14989 0690 73746172 		.ascii	"start_angle\000"
 14989      745F616E 
 14989      676C6500 
 14990              	.LASF94:
 14991 069c 4C565F53 		.ascii	"LV_STYLE_HEIGHT\000"
 14991      54594C45 
 14991      5F484549 
ARM GAS  C:\Users\haske\AppData\Local\Temp\ccXBxzcA.s 			page 306


 14991      47485400 
 14992              	.LASF470:
 14993 06ac 726F7461 		.ascii	"rotation\000"
 14993      74696F6E 
 14993      00
 14994              	.LASF420:
 14995 06b5 4C565F45 		.ascii	"LV_EVENT_SCREEN_LOADED\000"
 14995      56454E54 
 14995      5F534352 
 14995      45454E5F 
 14995      4C4F4144 
 14996              	.LASF113:
 14997 06cc 4C565F53 		.ascii	"LV_STYLE_BG_GRAD_DIR\000"
 14997      54594C45 
 14997      5F42475F 
 14997      47524144 
 14997      5F444952 
 14998              	.LASF378:
 14999 06e1 73746F70 		.ascii	"stop_processing\000"
 14999      5F70726F 
 14999      63657373 
 14999      696E6700 
 15000              	.LASF417:
 15001 06f1 4C565F45 		.ascii	"LV_EVENT_CHILD_DELETED\000"
 15001      56454E54 
 15001      5F434849 
 15001      4C445F44 
 15001      454C4554 
 15002              	.LASF560:
 15003 0708 7069766F 		.ascii	"pivot_x\000"
 15003      745F7800 
 15004              	.LASF561:
 15005 0710 7069766F 		.ascii	"pivot_y\000"
 15005      745F7900 
 15006              	.LASF577:
 15007 0718 4C565F53 		.ascii	"LV_STYLE_GRID_COLUMN_DSC_ARRAY\000"
 15007      54594C45 
 15007      5F475249 
 15007      445F434F 
 15007      4C554D4E 
 15008              	.LASF632:
 15009 0737 6C765F6F 		.ascii	"lv_obj_invalidate\000"
 15009      626A5F69 
 15009      6E76616C 
 15009      69646174 
 15009      6500
 15010              	.LASF80:
 15011 0749 6C765F67 		.ascii	"lv_grad_dir_t\000"
 15011      7261645F 
 15011      6469725F 
 15011      7400
 15012              	.LASF276:
 15013 0757 6C696665 		.ascii	"life\000"
 15013      00
 15014              	.LASF602:
 15015 075c 6C765F64 		.ascii	"lv_draw_mask_add\000"
 15015      7261775F 
ARM GAS  C:\Users\haske\AppData\Local\Temp\ccXBxzcA.s 			page 307


 15015      6D61736B 
 15015      5F616464 
 15015      00
 15016              	.LASF558:
 15017 076d 6C765F6D 		.ascii	"lv_meter_add_needle_line\000"
 15017      65746572 
 15017      5F616464 
 15017      5F6E6565 
 15017      646C655F 
 15018              	.LASF244:
 15019 0786 616C6967 		.ascii	"align\000"
 15019      6E00
 15020              	.LASF615:
 15021 078c 6C765F65 		.ascii	"lv_event_get_draw_ctx\000"
 15021      76656E74 
 15021      5F676574 
 15021      5F647261 
 15021      775F6374 
 15022              	.LASF610:
 15023 07a2 6C765F74 		.ascii	"lv_trigo_sin\000"
 15023      7269676F 
 15023      5F73696E 
 15023      00
 15024              	.LASF464:
 15025 07af 7469636B 		.ascii	"tick_major_length\000"
 15025      5F6D616A 
 15025      6F725F6C 
 15025      656E6774 
 15025      6800
 15026              	.LASF452:
 15027 07c1 4C565F49 		.ascii	"LV_IMGBTN_STATE_PRESSED\000"
 15027      4D474254 
 15027      4E5F5354 
 15027      4154455F 
 15027      50524553 
 15028              	.LASF4:
 15029 07d9 5F5F696E 		.ascii	"__int16_t\000"
 15029      7431365F 
 15029      7400
 15030              	.LASF468:
 15031 07e3 725F6D6F 		.ascii	"r_mod\000"
 15031      6400
 15032              	.LASF6:
 15033 07e9 5F5F7569 		.ascii	"__uint16_t\000"
 15033      6E743136 
 15033      5F7400
 15034              	.LASF337:
 15035 07f4 4C565F50 		.ascii	"LV_PART_TICKS\000"
 15035      4152545F 
 15035      5449434B 
 15035      5300
 15036              	.LASF158:
 15037 0802 4C565F53 		.ascii	"LV_STYLE_TEXT_ALIGN\000"
 15037      54594C45 
 15037      5F544558 
 15037      545F414C 
 15037      49474E00 
ARM GAS  C:\Users\haske\AppData\Local\Temp\ccXBxzcA.s 			page 308


 15038              	.LASF612:
 15039 0816 6C765F64 		.ascii	"lv_draw_img\000"
 15039      7261775F 
 15039      696D6700 
 15040              	.LASF511:
 15041 0822 696E6469 		.ascii	"indic\000"
 15041      6300
 15042              	.LASF237:
 15043 0828 73656C5F 		.ascii	"sel_start\000"
 15043      73746172 
 15043      7400
 15044              	.LASF366:
 15045 0832 68656967 		.ascii	"height_def\000"
 15045      68745F64 
 15045      656600
 15046              	.LASF253:
 15047 083d 6672616D 		.ascii	"frame_id\000"
 15047      655F6964 
 15047      00
 15048              	.LASF314:
 15049 0846 6C617965 		.ascii	"layer_instance_size\000"
 15049      725F696E 
 15049      7374616E 
 15049      63655F73 
 15049      697A6500 
 15050              	.LASF434:
 15051 085a 6368696C 		.ascii	"child_cnt\000"
 15051      645F636E 
 15051      7400
 15052              	.LASF360:
 15053 0864 5F6C765F 		.ascii	"_lv_obj_class_t\000"
 15053      6F626A5F 
 15053      636C6173 
 15053      735F7400 
 15054              	.LASF588:
 15055 0874 6C765F6F 		.ascii	"lv_obj_get_style_prop\000"
 15055      626A5F67 
 15055      65745F73 
 15055      74796C65 
 15055      5F70726F 
 15056              	.LASF619:
 15057 088a 6C765F64 		.ascii	"lv_draw_rect\000"
 15057      7261775F 
 15057      72656374 
 15057      00
 15058              	.LASF392:
 15059 0897 4C565F45 		.ascii	"LV_EVENT_SCROLL\000"
 15059      56454E54 
 15059      5F534352 
 15059      4F4C4C00 
 15060              	.LASF445:
 15061 08a7 6C617965 		.ascii	"layer_type\000"
 15061      725F7479 
 15061      706500
 15062              	.LASF323:
 15063 08b2 6F626A5F 		.ascii	"obj_focus\000"
 15063      666F6375 
ARM GAS  C:\Users\haske\AppData\Local\Temp\ccXBxzcA.s 			page 309


 15063      7300
 15064              	.LASF552:
 15065 08bc 696E765F 		.ascii	"inv_line\000"
 15065      6C696E65 
 15065      00
 15066              	.LASF543:
 15067 08c5 696E666F 		.ascii	"info\000"
 15067      00
 15068              	.LASF150:
 15069 08ca 4C565F53 		.ascii	"LV_STYLE_ARC_OPA\000"
 15069      54594C45 
 15069      5F415243 
 15069      5F4F5041 
 15069      00
 15070              	.LASF548:
 15071 08db 6C765F6D 		.ascii	"lv_meter_constructor\000"
 15071      65746572 
 15071      5F636F6E 
 15071      73747275 
 15071      63746F72 
 15072              	.LASF139:
 15073 08f0 4C565F53 		.ascii	"LV_STYLE_IMG_RECOLOR\000"
 15073      54594C45 
 15073      5F494D47 
 15073      5F524543 
 15073      4F4C4F52 
 15074              	.LASF3:
 15075 0905 756E7369 		.ascii	"unsigned char\000"
 15075      676E6564 
 15075      20636861 
 15075      7200
 15076              	.LASF79:
 15077 0913 6C765F62 		.ascii	"lv_border_side_t\000"
 15077      6F726465 
 15077      725F7369 
 15077      64655F74 
 15077      00
 15078              	.LASF44:
 15079 0924 756E6465 		.ascii	"underline_position\000"
 15079      726C696E 
 15079      655F706F 
 15079      73697469 
 15079      6F6E00
 15080              	.LASF556:
 15081 0937 6C765F6D 		.ascii	"lv_meter_set_scale_major_ticks\000"
 15081      65746572 
 15081      5F736574 
 15081      5F736361 
 15081      6C655F6D 
 15082              	.LASF371:
 15083 0956 5F6C765F 		.ascii	"_lv_event_t\000"
 15083      6576656E 
 15083      745F7400 
 15084              	.LASF353:
 15085 0962 6C696E65 		.ascii	"line_dsc\000"
 15085      5F647363 
 15085      00
ARM GAS  C:\Users\haske\AppData\Local\Temp\ccXBxzcA.s 			page 310


 15086              	.LASF539:
 15087 096b 6C616265 		.ascii	"label_size\000"
 15087      6C5F7369 
 15087      7A6500
 15088              	.LASF476:
 15089 0976 6C765F6D 		.ascii	"lv_meter_indicator_type_t\000"
 15089      65746572 
 15089      5F696E64 
 15089      69636174 
 15089      6F725F74 
 15090              	.LASF120:
 15091 0990 4C565F53 		.ascii	"LV_STYLE_BG_IMG_RECOLOR\000"
 15091      54594C45 
 15091      5F42475F 
 15091      494D475F 
 15091      5245434F 
 15092              	.LASF78:
 15093 09a8 6C765F74 		.ascii	"lv_text_decor_t\000"
 15093      6578745F 
 15093      6465636F 
 15093      725F7400 
 15094              	.LASF175:
 15095 09b8 5F4C565F 		.ascii	"_LV_STYLE_LAST_BUILT_IN_PROP\000"
 15095      5354594C 
 15095      455F4C41 
 15095      53545F42 
 15095      55494C54 
 15096              	.LASF29:
 15097 09d5 6C765F70 		.ascii	"lv_point_t\000"
 15097      6F696E74 
 15097      5F7400
 15098              	.LASF574:
 15099 09e0 4C565F53 		.ascii	"LV_STYLE_FLEX_CROSS_PLACE\000"
 15099      54594C45 
 15099      5F464C45 
 15099      585F4352 
 15099      4F53535F 
 15100              	.LASF572:
 15101 09fa 4C565F53 		.ascii	"LV_STYLE_FLEX_FLOW\000"
 15101      54594C45 
 15101      5F464C45 
 15101      585F464C 
 15101      4F5700
 15102              	.LASF316:
 15103 0a0d 6C765F6C 		.ascii	"lv_ll_node_t\000"
 15103      6C5F6E6F 
 15103      64655F74 
 15103      00
 15104              	.LASF372:
 15105 0a1a 74617267 		.ascii	"target\000"
 15105      657400
 15106              	.LASF235:
 15107 0a21 6C765F64 		.ascii	"lv_draw_rect_dsc_t\000"
 15107      7261775F 
 15107      72656374 
 15107      5F647363 
 15107      5F7400
ARM GAS  C:\Users\haske\AppData\Local\Temp\ccXBxzcA.s 			page 311


 15108              	.LASF347:
 15109 0a34 69735F74 		.ascii	"is_trans\000"
 15109      72616E73 
 15109      00
 15110              	.LASF68:
 15111 0a3d 6C765F63 		.ascii	"lv_color_t\000"
 15111      6F6C6F72 
 15111      5F7400
 15112              	.LASF35:
 15113 0a48 626F785F 		.ascii	"box_h\000"
 15113      6800
 15114              	.LASF389:
 15115 0a4e 4C565F45 		.ascii	"LV_EVENT_RELEASED\000"
 15115      56454E54 
 15115      5F52454C 
 15115      45415345 
 15115      4400
 15116              	.LASF34:
 15117 0a60 626F785F 		.ascii	"box_w\000"
 15117      7700
 15118              	.LASF74:
 15119 0a66 6C765F74 		.ascii	"lv_text_flag_t\000"
 15119      6578745F 
 15119      666C6167 
 15119      5F7400
 15120              	.LASF611:
 15121 0a75 6C765F69 		.ascii	"lv_img_decoder_get_info\000"
 15121      6D675F64 
 15121      65636F64 
 15121      65725F67 
 15121      65745F69 
 15122              	.LASF498:
 15123 0a8d 61726561 		.ascii	"area_p\000"
 15123      5F7000
 15124              	.LASF608:
 15125 0a94 6C765F64 		.ascii	"lv_draw_label_dsc_init\000"
 15125      7261775F 
 15125      6C616265 
 15125      6C5F6473 
 15125      635F696E 
 15126              	.LASF67:
 15127 0aab 6C765F63 		.ascii	"lv_color16_t\000"
 15127      6F6C6F72 
 15127      31365F74 
 15127      00
 15128              	.LASF336:
 15129 0ab8 4C565F50 		.ascii	"LV_PART_ITEMS\000"
 15129      4152545F 
 15129      4954454D 
 15129      5300
 15130              	.LASF345:
 15131 0ac6 73656C65 		.ascii	"selector\000"
 15131      63746F72 
 15131      00
 15132              	.LASF346:
 15133 0acf 69735F6C 		.ascii	"is_local\000"
 15133      6F63616C 
ARM GAS  C:\Users\haske\AppData\Local\Temp\ccXBxzcA.s 			page 312


 15133      00
 15134              	.LASF149:
 15135 0ad8 4C565F53 		.ascii	"LV_STYLE_ARC_COLOR\000"
 15135      54594C45 
 15135      5F415243 
 15135      5F434F4C 
 15135      4F5200
 15136              	.LASF451:
 15137 0aeb 4C565F49 		.ascii	"LV_IMGBTN_STATE_RELEASED\000"
 15137      4D474254 
 15137      4E5F5354 
 15137      4154455F 
 15137      52454C45 
 15138              	.LASF191:
 15139 0b04 616C7761 		.ascii	"always_zero\000"
 15139      79735F7A 
 15139      65726F00 
 15140              	.LASF486:
 15141 0b10 656E645F 		.ascii	"end_value\000"
 15141      76616C75 
 15141      6500
 15142              	.LASF427:
 15143 0b1a 4C565F45 		.ascii	"LV_EVENT_PREPROCESS\000"
 15143      56454E54 
 15143      5F505245 
 15143      50524F43 
 15143      45535300 
 15144              	.LASF214:
 15145 0b2e 62675F69 		.ascii	"bg_img_src\000"
 15145      6D675F73 
 15145      726300
 15146              	.LASF313:
 15147 0b39 6C617965 		.ascii	"layer_destroy\000"
 15147      725F6465 
 15147      7374726F 
 15147      7900
 15148              	.LASF550:
 15149 0b47 6F6C645F 		.ascii	"old_value\000"
 15149      76616C75 
 15149      6500
 15150              	.LASF592:
 15151 0b51 6C765F64 		.ascii	"lv_draw_arc_dsc_init\000"
 15151      7261775F 
 15151      6172635F 
 15151      6473635F 
 15151      696E6974 
 15152              	.LASF153:
 15153 0b66 4C565F53 		.ascii	"LV_STYLE_TEXT_OPA\000"
 15153      54594C45 
 15153      5F544558 
 15153      545F4F50 
 15153      4100
 15154              	.LASF534:
 15155 0b78 616E676C 		.ascii	"angle_upscale\000"
 15155      655F7570 
 15155      7363616C 
 15155      6500
ARM GAS  C:\Users\haske\AppData\Local\Temp\ccXBxzcA.s 			page 313


 15156              	.LASF200:
 15157 0b86 636F6F72 		.ascii	"coords\000"
 15157      647300
 15158              	.LASF136:
 15159 0b8d 4C565F53 		.ascii	"LV_STYLE_SHADOW_COLOR\000"
 15159      54594C45 
 15159      5F534841 
 15159      444F575F 
 15159      434F4C4F 
 15160              	.LASF28:
 15161 0ba3 6C765F63 		.ascii	"lv_coord_t\000"
 15161      6F6F7264 
 15161      5F7400
 15162              	.LASF226:
 15163 0bae 6F75746C 		.ascii	"outline_width\000"
 15163      696E655F 
 15163      77696474 
 15163      6800
 15164              	.LASF312:
 15165 0bbc 6C617965 		.ascii	"layer_blend\000"
 15165      725F626C 
 15165      656E6400 
 15166              	.LASF364:
 15167 0bc8 6576656E 		.ascii	"event_cb\000"
 15167      745F6362 
 15167      00
 15168              	.LASF246:
 15169 0bd1 6465636F 		.ascii	"decor\000"
 15169      7200
 15170              	.LASF204:
 15171 0bd7 7363725F 		.ascii	"scr_layout_inv\000"
 15171      6C61796F 
 15171      75745F69 
 15171      6E7600
 15172              	.LASF431:
 15173 0be6 6C765F67 		.ascii	"lv_group_edge_cb_t\000"
 15173      726F7570 
 15173      5F656467 
 15173      655F6362 
 15173      5F7400
 15174              	.LASF576:
 15175 0bf9 4C565F53 		.ascii	"LV_STYLE_FLEX_GROW\000"
 15175      54594C45 
 15175      5F464C45 
 15175      585F4752 
 15175      4F5700
 15176              	.LASF380:
 15177 0c0c 6C765F6F 		.ascii	"lv_obj_class_t\000"
 15177      626A5F63 
 15177      6C617373 
 15177      5F7400
 15178              	.LASF126:
 15179 0c1b 4C565F53 		.ascii	"LV_STYLE_BORDER_SIDE\000"
 15179      54594C45 
 15179      5F424F52 
 15179      4445525F 
 15179      53494445 
ARM GAS  C:\Users\haske\AppData\Local\Temp\ccXBxzcA.s 			page 314


 15180              	.LASF157:
 15181 0c30 4C565F53 		.ascii	"LV_STYLE_TEXT_DECOR\000"
 15181      54594C45 
 15181      5F544558 
 15181      545F4445 
 15181      434F5200 
 15182              	.LASF435:
 15183 0c44 67726F75 		.ascii	"group_p\000"
 15183      705F7000 
 15184              	.LASF622:
 15185 0c4c 6C765F65 		.ascii	"lv_event_get_target\000"
 15185      76656E74 
 15185      5F676574 
 15185      5F746172 
 15185      67657400 
 15186              	.LASF233:
 15187 0c60 73686164 		.ascii	"shadow_spread\000"
 15187      6F775F73 
 15187      70726561 
 15187      6400
 15188              	.LASF455:
 15189 0c6e 4C565F49 		.ascii	"LV_IMGBTN_STATE_CHECKED_PRESSED\000"
 15189      4D474254 
 15189      4E5F5354 
 15189      4154455F 
 15189      43484543 
 15190              	.LASF601:
 15191 0c8e 6C765F64 		.ascii	"lv_draw_label\000"
 15191      7261775F 
 15191      6C616265 
 15191      6C00
 15192              	.LASF70:
 15193 0c9c 4C565F54 		.ascii	"LV_TEXT_FLAG_NONE\000"
 15193      4558545F 
 15193      464C4147 
 15193      5F4E4F4E 
 15193      4500
 15194              	.LASF333:
 15195 0cae 4C565F50 		.ascii	"LV_PART_INDICATOR\000"
 15195      4152545F 
 15195      494E4449 
 15195      4341544F 
 15195      5200
 15196              	.LASF24:
 15197 0cc0 73697A65 		.ascii	"size_t\000"
 15197      5F7400
 15198              	.LASF16:
 15199 0cc7 75696E74 		.ascii	"uint8_t\000"
 15199      385F7400 
 15200              	.LASF542:
 15201 0ccf 705F656E 		.ascii	"p_end\000"
 15201      6400
 15202              	.LASF272:
 15203 0cd5 5F6C765F 		.ascii	"_lv_draw_mask_common_dsc_t\000"
 15203      64726177 
 15203      5F6D6173 
 15203      6B5F636F 
ARM GAS  C:\Users\haske\AppData\Local\Temp\ccXBxzcA.s 			page 315


 15203      6D6D6F6E 
 15204              	.LASF335:
 15205 0cf0 4C565F50 		.ascii	"LV_PART_SELECTED\000"
 15205      4152545F 
 15205      53454C45 
 15205      43544544 
 15205      00
 15206              	.LASF142:
 15207 0d01 4C565F53 		.ascii	"LV_STYLE_LINE_DASH_WIDTH\000"
 15207      54594C45 
 15207      5F4C494E 
 15207      455F4441 
 15207      53485F57 
 15208              	.LASF117:
 15209 0d1a 4C565F53 		.ascii	"LV_STYLE_BG_DITHER_MODE\000"
 15209      54594C45 
 15209      5F42475F 
 15209      44495448 
 15209      45525F4D 
 15210              	.LASF491:
 15211 0d32 6C765F6D 		.ascii	"lv_meter_t\000"
 15211      65746572 
 15211      5F7400
 15212              	.LASF527:
 15213 0d3d 6D696E6F 		.ascii	"minor_cnt\000"
 15213      725F636E 
 15213      7400
 15214              	.LASF629:
 15215 0d47 6C765F6F 		.ascii	"lv_obj_class_init_obj\000"
 15215      626A5F63 
 15215      6C617373 
 15215      5F696E69 
 15215      745F6F62 
 15216              	.LASF634:
 15217 0d5d 2E2E5C2E 		.ascii	"..\\..\\..\\arduinoLCD\\test\\Pain Drain\\libraries"
 15217      2E5C2E2E 
 15217      5C617264 
 15217      75696E6F 
 15217      4C43445C 
 15218 0d8a 5C6C7667 		.ascii	"\\lvgl\\src\\extra\\widgets\\meter\\lv_meter.c\000"
 15218      6C5C7372 
 15218      635C6578 
 15218      7472615C 
 15218      77696467 
 15219              	.LASF301:
 15220 0db3 64726177 		.ascii	"draw_img_decoded\000"
 15220      5F696D67 
 15220      5F646563 
 15220      6F646564 
 15220      00
 15221              	.LASF522:
 15222 0dc4 61726561 		.ascii	"area_inner_minor\000"
 15222      5F696E6E 
 15222      65725F6D 
 15222      696E6F72 
 15222      00
 15223              	.LASF375:
ARM GAS  C:\Users\haske\AppData\Local\Temp\ccXBxzcA.s 			page 316


 15224 0dd5 70617261 		.ascii	"param\000"
 15224      6D00
 15225              	.LASF607:
 15226 0ddb 6C765F6F 		.ascii	"lv_obj_init_draw_line_dsc\000"
 15226      626A5F69 
 15226      6E69745F 
 15226      64726177 
 15226      5F6C696E 
 15227              	.LASF413:
 15228 0df5 4C565F45 		.ascii	"LV_EVENT_CANCEL\000"
 15228      56454E54 
 15228      5F43414E 
 15228      43454C00 
 15229              	.LASF290:
 15230 0e05 5F6C765F 		.ascii	"_lv_draw_layer_ctx_t\000"
 15230      64726177 
 15230      5F6C6179 
 15230      65725F63 
 15230      74785F74 
 15231              	.LASF599:
 15232 0e1a 6C765F73 		.ascii	"lv_snprintf\000"
 15232      6E707269 
 15232      6E746600 
 15233              	.LASF483:
 15234 0e26 7363616C 		.ascii	"scale_lines\000"
 15234      655F6C69 
 15234      6E657300 
 15235              	.LASF490:
 15236 0e32 696E6469 		.ascii	"indicator_ll\000"
 15236      6361746F 
 15236      725F6C6C 
 15236      00
 15237              	.LASF188:
 15238 0e3f 70726F70 		.ascii	"prop_cnt\000"
 15238      5F636E74 
 15238      00
 15239              	.LASF458:
 15240 0e48 7469636B 		.ascii	"tick_color\000"
 15240      5F636F6C 
 15240      6F7200
 15241              	.LASF497:
 15242 0e53 6C765F61 		.ascii	"lv_area_get_width\000"
 15242      7265615F 
 15242      6765745F 
 15242      77696474 
 15242      6800
 15243              	.LASF222:
 15244 0e65 626F7264 		.ascii	"border_opa\000"
 15244      65725F6F 
 15244      706100
 15245              	.LASF238:
 15246 0e70 73656C5F 		.ascii	"sel_end\000"
 15246      656E6400 
 15247              	.LASF598:
 15248 0e78 6C765F6D 		.ascii	"lv_memcpy\000"
 15248      656D6370 
 15248      7900
ARM GAS  C:\Users\haske\AppData\Local\Temp\ccXBxzcA.s 			page 317


 15249              	.LASF291:
 15250 0e82 61726561 		.ascii	"area_full\000"
 15250      5F66756C 
 15250      6C00
 15251              	.LASF169:
 15252 0e8c 4C565F53 		.ascii	"LV_STYLE_TRANSLATE_X\000"
 15252      54594C45 
 15252      5F545241 
 15252      4E534C41 
 15252      54455F58 
 15253              	.LASF170:
 15254 0ea1 4C565F53 		.ascii	"LV_STYLE_TRANSLATE_Y\000"
 15254      54594C45 
 15254      5F545241 
 15254      4E534C41 
 15254      54455F59 
 15255              	.LASF356:
 15256 0eb6 74657874 		.ascii	"text\000"
 15256      00
 15257              	.LASF374:
 15258 0ebb 636F6465 		.ascii	"code\000"
 15258      00
 15259              	.LASF210:
 15260 0ec0 626C656E 		.ascii	"blend_mode\000"
 15260      645F6D6F 
 15260      646500
 15261              	.LASF155:
 15262 0ecb 4C565F53 		.ascii	"LV_STYLE_TEXT_LETTER_SPACE\000"
 15262      54594C45 
 15262      5F544558 
 15262      545F4C45 
 15262      54544552 
 15263              	.LASF72:
 15264 0ee6 4C565F54 		.ascii	"LV_TEXT_FLAG_EXPAND\000"
 15264      4558545F 
 15264      464C4147 
 15264      5F455850 
 15264      414E4400 
 15265              	.LASF294:
 15266 0efa 6D61785F 		.ascii	"max_row_with_no_alpha\000"
 15266      726F775F 
 15266      77697468 
 15266      5F6E6F5F 
 15266      616C7068 
 15267              	.LASF564:
 15268 0f10 6C6F6361 		.ascii	"local\000"
 15268      6C00
 15269              	.LASF416:
 15270 0f16 4C565F45 		.ascii	"LV_EVENT_CHILD_CREATED\000"
 15270      56454E54 
 15270      5F434849 
 15270      4C445F43 
 15270      52454154 
 15271              	.LASF176:
 15272 0f2d 5F4C565F 		.ascii	"_LV_STYLE_NUM_BUILT_IN_PROPS\000"
 15272      5354594C 
 15272      455F4E55 
ARM GAS  C:\Users\haske\AppData\Local\Temp\ccXBxzcA.s 			page 318


 15272      4D5F4255 
 15272      494C545F 
 15273              	.LASF163:
 15274 0f4a 4C565F53 		.ascii	"LV_STYLE_ANIM_TIME\000"
 15274      54594C45 
 15274      5F414E49 
 15274      4D5F5449 
 15274      4D4500
 15275              	.LASF459:
 15276 0f5d 7469636B 		.ascii	"tick_cnt\000"
 15276      5F636E74 
 15276      00
 15277              	.LASF115:
 15278 0f66 4C565F53 		.ascii	"LV_STYLE_BG_GRAD_STOP\000"
 15278      54594C45 
 15278      5F42475F 
 15278      47524144 
 15278      5F53544F 
 15279              	.LASF566:
 15280 0f7c 6F6C645F 		.ascii	"old_start\000"
 15280      73746172 
 15280      7400
 15281              	.LASF298:
 15282 0f86 696E6974 		.ascii	"init_buf\000"
 15282      5F627566 
 15282      00
 15283              	.LASF385:
 15284 0f8f 4C565F45 		.ascii	"LV_EVENT_SHORT_CLICKED\000"
 15284      56454E54 
 15284      5F53484F 
 15284      52545F43 
 15284      4C49434B 
 15285              	.LASF145:
 15286 0fa6 4C565F53 		.ascii	"LV_STYLE_LINE_COLOR\000"
 15286      54594C45 
 15286      5F4C494E 
 15286      455F434F 
 15286      4C4F5200 
 15287              	.LASF562:
 15288 0fba 6C765F6D 		.ascii	"lv_meter_add_arc\000"
 15288      65746572 
 15288      5F616464 
 15288      5F617263 
 15288      00
 15289              	.LASF479:
 15290 0fcb 636F6C6F 		.ascii	"color_end\000"
 15290      725F656E 
 15290      6400
 15291              	.LASF487:
 15292 0fd5 74797065 		.ascii	"type_data\000"
 15292      5F646174 
 15292      6100
 15293              	.LASF181:
 15294 0fdf 76616C75 		.ascii	"value\000"
 15294      6500
 15295              	.LASF481:
 15296 0fe5 6E656564 		.ascii	"needle_img\000"
ARM GAS  C:\Users\haske\AppData\Local\Temp\ccXBxzcA.s 			page 319


 15296      6C655F69 
 15296      6D6700
 15297              	.LASF224:
 15298 0ff0 626F7264 		.ascii	"border_side\000"
 15298      65725F73 
 15298      69646500 
 15299              	.LASF467:
 15300 0ffc 6C616265 		.ascii	"label_color\000"
 15300      6C5F636F 
 15300      6C6F7200 
 15301              	.LASF326:
 15302 1008 66726F7A 		.ascii	"frozen\000"
 15302      656E00
 15303              	.LASF429:
 15304 100f 6C765F65 		.ascii	"lv_event_t\000"
 15304      76656E74 
 15304      5F7400
 15305              	.LASF419:
 15306 101a 4C565F45 		.ascii	"LV_EVENT_SCREEN_LOAD_START\000"
 15306      56454E54 
 15306      5F534352 
 15306      45454E5F 
 15306      4C4F4144 
 15307              	.LASF354:
 15308 1035 696D675F 		.ascii	"img_dsc\000"
 15308      64736300 
 15309              	.LASF269:
 15310 103d 6C765F64 		.ascii	"lv_draw_mask_type_t\000"
 15310      7261775F 
 15310      6D61736B 
 15310      5F747970 
 15310      655F7400 
 15311              	.LASF370:
 15312 1051 6C765F6F 		.ascii	"lv_obj_draw_part_dsc_t\000"
 15312      626A5F64 
 15312      7261775F 
 15312      70617274 
 15312      5F647363 
 15313              	.LASF437:
 15314 1068 7363726F 		.ascii	"scroll\000"
 15314      6C6C00
 15315              	.LASF391:
 15316 106f 4C565F45 		.ascii	"LV_EVENT_SCROLL_END\000"
 15316      56454E54 
 15316      5F534352 
 15316      4F4C4C5F 
 15316      454E4400 
 15317              	.LASF86:
 15318 1083 73746F70 		.ascii	"stops_count\000"
 15318      735F636F 
 15318      756E7400 
 15319              	.LASF302:
 15320 108f 64726177 		.ascii	"draw_img\000"
 15320      5F696D67 
 15320      00
 15321              	.LASF557:
 15322 1098 6C765F6D 		.ascii	"lv_meter_set_scale_range\000"
ARM GAS  C:\Users\haske\AppData\Local\Temp\ccXBxzcA.s 			page 320


 15322      65746572 
 15322      5F736574 
 15322      5F736361 
 15322      6C655F72 
 15323              	.LASF260:
 15324 10b1 726F756E 		.ascii	"round_end\000"
 15324      645F656E 
 15324      6400
 15325              	.LASF546:
 15326 10bb 6E6D5F63 		.ascii	"nm_cord\000"
 15326      6F726400 
 15327              	.LASF303:
 15328 10c3 64726177 		.ascii	"draw_letter\000"
 15328      5F6C6574 
 15328      74657200 
 15329              	.LASF343:
 15330 10cf 6C765F73 		.ascii	"lv_scroll_snap_t\000"
 15330      63726F6C 
 15330      6C5F736E 
 15330      61705F74 
 15330      00
 15331              	.LASF618:
 15332 10e0 6C765F6F 		.ascii	"lv_obj_init_draw_rect_dsc\000"
 15332      626A5F69 
 15332      6E69745F 
 15332      64726177 
 15332      5F726563 
 15333              	.LASF128:
 15334 10fa 4C565F53 		.ascii	"LV_STYLE_OUTLINE_WIDTH\000"
 15334      54594C45 
 15334      5F4F5554 
 15334      4C494E45 
 15334      5F574944 
 15335              	.LASF295:
 15336 1111 6F726967 		.ascii	"original\000"
 15336      696E616C 
 15336      00
 15337              	.LASF571:
 15338 111a 6C765F6F 		.ascii	"lv_obj_class\000"
 15338      626A5F63 
 15338      6C617373 
 15338      00
 15339              	.LASF525:
 15340 1127 6F757465 		.ascii	"outer_mask_id\000"
 15340      725F6D61 
 15340      736B5F69 
 15340      6400
 15341              	.LASF334:
 15342 1135 4C565F50 		.ascii	"LV_PART_KNOB\000"
 15342      4152545F 
 15342      4B4E4F42 
 15342      00
 15343              	.LASF628:
 15344 1142 6C765F6F 		.ascii	"lv_obj_class_create_obj\000"
 15344      626A5F63 
 15344      6C617373 
 15344      5F637265 
ARM GAS  C:\Users\haske\AppData\Local\Temp\ccXBxzcA.s 			page 321


 15344      6174655F 
 15345              	.LASF230:
 15346 115a 73686164 		.ascii	"shadow_width\000"
 15346      6F775F77 
 15346      69647468 
 15346      00
 15347              	.LASF578:
 15348 1167 4C565F53 		.ascii	"LV_STYLE_GRID_COLUMN_ALIGN\000"
 15348      54594C45 
 15348      5F475249 
 15348      445F434F 
 15348      4C554D4E 
 15349              	.LASF218:
 15350 1182 62675F69 		.ascii	"bg_img_recolor_opa\000"
 15350      6D675F72 
 15350      65636F6C 
 15350      6F725F6F 
 15350      706100
 15351              	.LASF568:
 15352 1195 6C765F6D 		.ascii	"lv_meter_set_indicator_start_value\000"
 15352      65746572 
 15352      5F736574 
 15352      5F696E64 
 15352      69636174 
 15353              	.LASF221:
 15354 11b8 626F7264 		.ascii	"border_width\000"
 15354      65725F77 
 15354      69647468 
 15354      00
 15355              	.LASF581:
 15356 11c5 4C565F53 		.ascii	"LV_STYLE_GRID_CELL_COLUMN_POS\000"
 15356      54594C45 
 15356      5F475249 
 15356      445F4345 
 15356      4C4C5F43 
 15357              	.LASF234:
 15358 11e3 73686164 		.ascii	"shadow_opa\000"
 15358      6F775F6F 
 15358      706100
 15359              	.LASF33:
 15360 11ee 6164765F 		.ascii	"adv_w\000"
 15360      7700
 15361              	.LASF320:
 15362 11f4 6C765F6C 		.ascii	"lv_ll_t\000"
 15362      6C5F7400 
 15363              	.LASF624:
 15364 11fc 5F6C765F 		.ascii	"_lv_ll_init\000"
 15364      6C6C5F69 
 15364      6E697400 
 15365              	.LASF283:
 15366 1208 4C565F44 		.ascii	"LV_DRAW_LAYER_FLAG_NONE\000"
 15366      5241575F 
 15366      4C415945 
 15366      525F464C 
 15366      41475F4E 
 15367              	.LASF383:
 15368 1220 4C565F45 		.ascii	"LV_EVENT_PRESSING\000"
ARM GAS  C:\Users\haske\AppData\Local\Temp\ccXBxzcA.s 			page 322


 15368      56454E54 
 15368      5F505245 
 15368      5353494E 
 15368      4700
 15369              	.LASF488:
 15370 1232 6C765F6D 		.ascii	"lv_meter_indicator_t\000"
 15370      65746572 
 15370      5F696E64 
 15370      69636174 
 15370      6F725F74 
 15371              	.LASF443:
 15372 1247 7363726F 		.ascii	"scroll_dir\000"
 15372      6C6C5F64 
 15372      697200
 15373              	.LASF423:
 15374 1252 4C565F45 		.ascii	"LV_EVENT_STYLE_CHANGED\000"
 15374      56454E54 
 15374      5F535459 
 15374      4C455F43 
 15374      48414E47 
 15375              	.LASF296:
 15376 1269 6C765F64 		.ascii	"lv_draw_layer_ctx_t\000"
 15376      7261775F 
 15376      6C617965 
 15376      725F6374 
 15376      785F7400 
 15377              	.LASF267:
 15378 127d 6C765F64 		.ascii	"lv_draw_arc_dsc_t\000"
 15378      7261775F 
 15378      6172635F 
 15378      6473635F 
 15378      7400
 15379              	.LASF122:
 15380 128f 4C565F53 		.ascii	"LV_STYLE_BG_IMG_TILED\000"
 15380      54594C45 
 15380      5F42475F 
 15380      494D475F 
 15380      54494C45 
 15381              	.LASF531:
 15382 12a5 6C696E65 		.ascii	"line_color_ori\000"
 15382      5F636F6C 
 15382      6F725F6F 
 15382      726900
 15383              	.LASF636:
 15384 12b4 5F6C765F 		.ascii	"_lv_event_dsc_t\000"
 15384      6576656E 
 15384      745F6473 
 15384      635F7400 
 15385              	.LASF118:
 15386 12c4 4C565F53 		.ascii	"LV_STYLE_BG_IMG_SRC\000"
 15386      54594C45 
 15386      5F42475F 
 15386      494D475F 
 15386      53524300 
 15387              	.LASF605:
 15388 12d8 6C765F64 		.ascii	"lv_draw_mask_free_param\000"
 15388      7261775F 
ARM GAS  C:\Users\haske\AppData\Local\Temp\ccXBxzcA.s 			page 323


 15388      6D61736B 
 15388      5F667265 
 15388      655F7061 
 15389              	.LASF489:
 15390 12f0 7363616C 		.ascii	"scale_ll\000"
 15390      655F6C6C 
 15390      00
 15391              	.LASF502:
 15392 12f9 72657375 		.ascii	"result\000"
 15392      6C7400
 15393              	.LASF165:
 15394 1300 4C565F53 		.ascii	"LV_STYLE_TRANSITION\000"
 15394      54594C45 
 15394      5F545241 
 15394      4E534954 
 15394      494F4E00 
 15395              	.LASF108:
 15396 1314 4C565F53 		.ascii	"LV_STYLE_BASE_DIR\000"
 15396      54594C45 
 15396      5F424153 
 15396      455F4449 
 15396      5200
 15397              	.LASF623:
 15398 1326 5F6C765F 		.ascii	"_lv_ll_clear\000"
 15398      6C6C5F63 
 15398      6C656172 
 15398      00
 15399              	.LASF461:
 15400 1333 7469636B 		.ascii	"tick_width\000"
 15400      5F776964 
 15400      746800
 15401              	.LASF105:
 15402 133e 4C565F53 		.ascii	"LV_STYLE_PAD_RIGHT\000"
 15402      54594C45 
 15402      5F504144 
 15402      5F524947 
 15402      485400
 15403              	.LASF15:
 15404 1351 696E7438 		.ascii	"int8_t\000"
 15404      5F7400
 15405              	.LASF508:
 15406 1358 725F6F75 		.ascii	"r_out\000"
 15406      7400
 15407              	.LASF186:
 15408 135e 70726F70 		.ascii	"prop1\000"
 15408      3100
 15409              	.LASF247:
 15410 1364 6C765F64 		.ascii	"lv_draw_label_dsc_t\000"
 15410      7261775F 
 15410      6C616265 
 15410      6C5F6473 
 15410      635F7400 
 15411              	.LASF361:
 15412 1378 62617365 		.ascii	"base_class\000"
 15412      5F636C61 
 15412      737300
 15413              	.LASF245:
ARM GAS  C:\Users\haske\AppData\Local\Temp\ccXBxzcA.s 			page 324


 15414 1383 666C6167 		.ascii	"flag\000"
 15414      00
 15415              	.LASF408:
 15416 1388 4C565F45 		.ascii	"LV_EVENT_DRAW_PART_END\000"
 15416      56454E54 
 15416      5F445241 
 15416      575F5041 
 15416      52545F45 
 15417              	.LASF182:
 15418 139f 6C765F73 		.ascii	"lv_style_const_prop_t\000"
 15418      74796C65 
 15418      5F636F6E 
 15418      73745F70 
 15418      726F705F 
 15419              	.LASF369:
 15420 13b5 696E7374 		.ascii	"instance_size\000"
 15420      616E6365 
 15420      5F73697A 
 15420      6500
 15421              	.LASF219:
 15422 13c3 62675F69 		.ascii	"bg_img_tiled\000"
 15422      6D675F74 
 15422      696C6564 
 15422      00
 15423              	.LASF275:
 15424 13d0 6F70615F 		.ascii	"opa_start_on_y\000"
 15424      73746172 
 15424      745F6F6E 
 15424      5F7900
 15425              	.LASF271:
 15426 13df 74797065 		.ascii	"type\000"
 15426      00
 15427              	.LASF393:
 15428 13e4 4C565F45 		.ascii	"LV_EVENT_GESTURE\000"
 15428      56454E54 
 15428      5F474553 
 15428      54555245 
 15428      00
 15429              	.LASF99:
 15430 13f5 4C565F53 		.ascii	"LV_STYLE_ALIGN\000"
 15430      54594C45 
 15430      5F414C49 
 15430      474E00
 15431              	.LASF227:
 15432 1404 6F75746C 		.ascii	"outline_pad\000"
 15432      696E655F 
 15432      70616400 
 15433              	.LASF591:
 15434 1410 6C765F64 		.ascii	"lv_draw_arc\000"
 15434      7261775F 
 15434      61726300 
 15435              	.LASF379:
 15436 141c 73746F70 		.ascii	"stop_bubbling\000"
 15436      5F627562 
 15436      626C696E 
 15436      6700
 15437              	.LASF106:
ARM GAS  C:\Users\haske\AppData\Local\Temp\ccXBxzcA.s 			page 325


 15438 142a 4C565F53 		.ascii	"LV_STYLE_PAD_ROW\000"
 15438      54594C45 
 15438      5F504144 
 15438      5F524F57 
 15438      00
 15439              	.LASF595:
 15440 143b 5F6C765F 		.ascii	"_lv_ll_get_prev\000"
 15440      6C6C5F67 
 15440      65745F70 
 15440      72657600 
 15441              	.LASF26:
 15442 144b 73697A65 		.ascii	"sizetype\000"
 15442      74797065 
 15442      00
 15443              	.LASF111:
 15444 1454 4C565F53 		.ascii	"LV_STYLE_BG_OPA\000"
 15444      54594C45 
 15444      5F42475F 
 15444      4F504100 
 15445              	.LASF274:
 15446 1464 785F7374 		.ascii	"x_start_on_y\000"
 15446      6172745F 
 15446      6F6E5F79 
 15446      00
 15447              	.LASF36:
 15448 1471 6F66735F 		.ascii	"ofs_x\000"
 15448      7800
 15449              	.LASF37:
 15450 1477 6F66735F 		.ascii	"ofs_y\000"
 15450      7900
 15451              	.LASF17:
 15452 147d 696E7431 		.ascii	"int16_t\000"
 15452      365F7400 
 15453              	.LASF600:
 15454 1485 6C765F74 		.ascii	"lv_txt_get_size\000"
 15454      78745F67 
 15454      65745F73 
 15454      697A6500 
 15455              	.LASF537:
 15456 1495 725F7465 		.ascii	"r_text\000"
 15456      787400
 15457              	.LASF399:
 15458 149c 4C565F45 		.ascii	"LV_EVENT_COVER_CHECK\000"
 15458      56454E54 
 15458      5F434F56 
 15458      45525F43 
 15458      4845434B 
 15459              	.LASF7:
 15460 14b1 73686F72 		.ascii	"short unsigned int\000"
 15460      7420756E 
 15460      7369676E 
 15460      65642069 
 15460      6E7400
 15461              	.LASF195:
 15462 14c4 5F6C765F 		.ascii	"_lv_obj_t\000"
 15462      6F626A5F 
 15462      7400
ARM GAS  C:\Users\haske\AppData\Local\Temp\ccXBxzcA.s 			page 326


 15463              	.LASF2:
 15464 14ce 7369676E 		.ascii	"signed char\000"
 15464      65642063 
 15464      68617200 
 15465              	.LASF438:
 15466 14da 6578745F 		.ascii	"ext_click_pad\000"
 15466      636C6963 
 15466      6B5F7061 
 15466      6400
 15467              	.LASF116:
 15468 14e8 4C565F53 		.ascii	"LV_STYLE_BG_GRAD\000"
 15468      54594C45 
 15468      5F42475F 
 15468      47524144 
 15468      00
 15469              	.LASF485:
 15470 14f9 73746172 		.ascii	"start_value\000"
 15470      745F7661 
 15470      6C756500 
 15471              	.LASF124:
 15472 1505 4C565F53 		.ascii	"LV_STYLE_BORDER_OPA\000"
 15472      54594C45 
 15472      5F424F52 
 15472      4445525F 
 15472      4F504100 
 15473              	.LASF84:
 15474 1519 6C765F67 		.ascii	"lv_gradient_stop_t\000"
 15474      72616469 
 15474      656E745F 
 15474      73746F70 
 15474      5F7400
 15475              	.LASF635:
 15476 152c 433A5C50 		.ascii	"C:\\Projects\\PainDrain\\firmware\\PainDrain\\PainD"
 15476      726F6A65 
 15476      6374735C 
 15476      5061696E 
 15476      44726169 
 15477 155a 7261696E 		.ascii	"rain.cydsn\000"
 15477      2E637964 
 15477      736E00
 15478              	.LASF249:
 15479 1565 7A6F6F6D 		.ascii	"zoom\000"
 15479      00
 15480              	.LASF358:
 15481 156a 70617274 		.ascii	"part\000"
 15481      00
 15482              	.LASF430:
 15483 156f 6C765F67 		.ascii	"lv_group_focus_cb_t\000"
 15483      726F7570 
 15483      5F666F63 
 15483      75735F63 
 15483      625F7400 
 15484              	.LASF325:
 15485 1583 65646765 		.ascii	"edge_cb\000"
 15485      5F636200 
 15486              	.LASF506:
 15487 158b 7363616C 		.ascii	"scale_area\000"
ARM GAS  C:\Users\haske\AppData\Local\Temp\ccXBxzcA.s 			page 327


 15487      655F6172 
 15487      656100
 15488              	.LASF125:
 15489 1596 4C565F53 		.ascii	"LV_STYLE_BORDER_WIDTH\000"
 15489      54594C45 
 15489      5F424F52 
 15489      4445525F 
 15489      57494454 
 15490              	.LASF281:
 15491 15ac 63697263 		.ascii	"circle\000"
 15491      6C6500
 15492              	.LASF465:
 15493 15b3 7469636B 		.ascii	"tick_major_width\000"
 15493      5F6D616A 
 15493      6F725F77 
 15493      69647468 
 15493      00
 15494              	.LASF65:
 15495 15c4 67726565 		.ascii	"green\000"
 15495      6E00
 15496              	.LASF30:
 15497 15ca 6C765F61 		.ascii	"lv_area_t\000"
 15497      7265615F 
 15497      7400
 15498              	.LASF492:
 15499 15d4 4C565F4D 		.ascii	"LV_METER_DRAW_PART_ARC\000"
 15499      45544552 
 15499      5F445241 
 15499      575F5041 
 15499      52545F41 
 15500              	.LASF583:
 15501 15eb 4C565F53 		.ascii	"LV_STYLE_GRID_CELL_X_ALIGN\000"
 15501      54594C45 
 15501      5F475249 
 15501      445F4345 
 15501      4C4C5F58 
 15502              	.LASF327:
 15503 1606 65646974 		.ascii	"editing\000"
 15503      696E6700 
 15504              	.LASF184:
 15505 160e 76616C75 		.ascii	"values_and_props\000"
 15505      65735F61 
 15505      6E645F70 
 15505      726F7073 
 15505      00
 15506              	.LASF66:
 15507 161f 66756C6C 		.ascii	"full\000"
 15507      00
 15508              	.LASF88:
 15509 1624 6C765F67 		.ascii	"lv_grad_dsc_t\000"
 15509      7261645F 
 15509      6473635F 
 15509      7400
 15510              	.LASF609:
 15511 1632 6C765F6F 		.ascii	"lv_obj_init_draw_label_dsc\000"
 15511      626A5F69 
 15511      6E69745F 
ARM GAS  C:\Users\haske\AppData\Local\Temp\ccXBxzcA.s 			page 328


 15511      64726177 
 15511      5F6C6162 
 15512              	.LASF239:
 15513 164d 73656C5F 		.ascii	"sel_color\000"
 15513      636F6C6F 
 15513      7200
 15514              	.LASF278:
 15515 1657 5F6C765F 		.ascii	"_lv_draw_mask_radius_circle_dsc_t\000"
 15515      64726177 
 15515      5F6D6173 
 15515      6B5F7261 
 15515      64697573 
 15516              	.LASF206:
 15517 1679 7374796C 		.ascii	"style_cnt\000"
 15517      655F636E 
 15517      7400
 15518              	.LASF242:
 15519 1683 6C657474 		.ascii	"letter_space\000"
 15519      65725F73 
 15519      70616365 
 15519      00
 15520              	.LASF415:
 15521 1690 4C565F45 		.ascii	"LV_EVENT_CHILD_CHANGED\000"
 15521      56454E54 
 15521      5F434849 
 15521      4C445F43 
 15521      48414E47 
 15522              	.LASF456:
 15523 16a7 4C565F49 		.ascii	"LV_IMGBTN_STATE_CHECKED_DISABLED\000"
 15523      4D474254 
 15523      4E5F5354 
 15523      4154455F 
 15523      43484543 
 15524              	.LASF202:
 15525 16c8 73746174 		.ascii	"state\000"
 15525      6500
 15526              	.LASF585:
 15527 16ce 4C565F53 		.ascii	"LV_STYLE_GRID_CELL_ROW_SPAN\000"
 15527      54594C45 
 15527      5F475249 
 15527      445F4345 
 15527      4C4C5F52 
 15528              	.LASF215:
 15529 16ea 62675F69 		.ascii	"bg_img_symbol_font\000"
 15529      6D675F73 
 15529      796D626F 
 15529      6C5F666F 
 15529      6E7400
 15530              	.LASF41:
 15531 16fd 6C696E65 		.ascii	"line_height\000"
 15531      5F686569 
 15531      67687400 
 15532              	.LASF367:
 15533 1709 65646974 		.ascii	"editable\000"
 15533      61626C65 
 15533      00
 15534              	.LASF252:
ARM GAS  C:\Users\haske\AppData\Local\Temp\ccXBxzcA.s 			page 329


 15535 1712 7265636F 		.ascii	"recolor_opa\000"
 15535      6C6F725F 
 15535      6F706100 
 15536              	.LASF428:
 15537 171e 6C765F65 		.ascii	"lv_event_code_t\000"
 15537      76656E74 
 15537      5F636F64 
 15537      655F7400 
 15538              	.LASF593:
 15539 172e 6C765F6F 		.ascii	"lv_obj_draw_dsc_init\000"
 15539      626A5F64 
 15539      7261775F 
 15539      6473635F 
 15539      696E6974 
 15540              	.LASF515:
 15541 1743 705F6365 		.ascii	"p_center\000"
 15541      6E746572 
 15541      00
 15542              	.LASF499:
 15543 174c 6C765F6F 		.ascii	"lv_obj_get_style_arc_rounded\000"
 15543      626A5F67 
 15543      65745F73 
 15543      74796C65 
 15543      5F617263 
 15544              	.LASF309:
 15545 1769 62756666 		.ascii	"buffer_copy\000"
 15545      65725F63 
 15545      6F707900 
 15546              	.LASF570:
 15547 1775 6C765F66 		.ascii	"lv_font_montserrat_14\000"
 15547      6F6E745F 
 15547      6D6F6E74 
 15547      73657272 
 15547      61745F31 
 15548              	.LASF73:
 15549 178b 4C565F54 		.ascii	"LV_TEXT_FLAG_FIT\000"
 15549      4558545F 
 15549      464C4147 
 15549      5F464954 
 15549      00
 15550              	.LASF288:
 15551 179c 6275665F 		.ascii	"buf_area\000"
 15551      61726561 
 15551      00
 15552              	.LASF457:
 15553 17a5 5F4C565F 		.ascii	"_LV_IMGBTN_STATE_NUM\000"
 15553      494D4742 
 15553      544E5F53 
 15553      54415445 
 15553      5F4E554D 
 15554              	.LASF50:
 15555 17ba 6C765F66 		.ascii	"lv_font_t\000"
 15555      6F6E745F 
 15555      7400
 15556              	.LASF616:
 15557 17c4 6C765F6F 		.ascii	"lv_obj_get_content_coords\000"
 15557      626A5F67 
ARM GAS  C:\Users\haske\AppData\Local\Temp\ccXBxzcA.s 			page 330


 15557      65745F63 
 15557      6F6E7465 
 15557      6E745F63 
 15558              	.LASF573:
 15559 17de 4C565F53 		.ascii	"LV_STYLE_FLEX_MAIN_PLACE\000"
 15559      54594C45 
 15559      5F464C45 
 15559      585F4D41 
 15559      494E5F50 
 15560              	.LASF332:
 15561 17f7 4C565F50 		.ascii	"LV_PART_SCROLLBAR\000"
 15561      4152545F 
 15561      5343524F 
 15561      4C4C4241 
 15561      5200
 15562              	.LASF9:
 15563 1809 6C6F6E67 		.ascii	"long int\000"
 15563      20696E74 
 15563      00
 15564              	.LASF362:
 15565 1812 636F6E73 		.ascii	"constructor_cb\000"
 15565      74727563 
 15565      746F725F 
 15565      636200
 15566              	.LASF179:
 15567 1821 6C765F73 		.ascii	"lv_style_prop_t\000"
 15567      74796C65 
 15567      5F70726F 
 15567      705F7400 
 15568              	.LASF348:
 15569 1831 5F6C765F 		.ascii	"_lv_obj_style_t\000"
 15569      6F626A5F 
 15569      7374796C 
 15569      655F7400 
 15570              	.LASF410:
 15571 1841 4C565F45 		.ascii	"LV_EVENT_INSERT\000"
 15571      56454E54 
 15571      5F494E53 
 15571      45525400 
 15572              	.LASF507:
 15573 1851 6D657465 		.ascii	"meter\000"
 15573      7200
 15574              	.LASF304:
 15575 1857 64726177 		.ascii	"draw_line\000"
 15575      5F6C696E 
 15575      6500
 15576              	.LASF231:
 15577 1861 73686164 		.ascii	"shadow_ofs_x\000"
 15577      6F775F6F 
 15577      66735F78 
 15577      00
 15578              	.LASF232:
 15579 186e 73686164 		.ascii	"shadow_ofs_y\000"
 15579      6F775F6F 
 15579      66735F79 
 15579      00
 15580              	.LASF421:
ARM GAS  C:\Users\haske\AppData\Local\Temp\ccXBxzcA.s 			page 331


 15581 187b 4C565F45 		.ascii	"LV_EVENT_SCREEN_UNLOADED\000"
 15581      56454E54 
 15581      5F534352 
 15581      45454E5F 
 15581      554E4C4F 
 15582              	.LASF96:
 15583 1894 4C565F53 		.ascii	"LV_STYLE_MAX_HEIGHT\000"
 15583      54594C45 
 15583      5F4D4158 
 15583      5F484549 
 15583      47485400 
 15584              	.LASF261:
 15585 18a8 7261775F 		.ascii	"raw_end\000"
 15585      656E6400 
 15586              	.LASF137:
 15587 18b0 4C565F53 		.ascii	"LV_STYLE_SHADOW_OPA\000"
 15587      54594C45 
 15587      5F534841 
 15587      444F575F 
 15587      4F504100 
 15588              	.LASF40:
 15589 18c4 6765745F 		.ascii	"get_glyph_bitmap\000"
 15589      676C7970 
 15589      685F6269 
 15589      746D6170 
 15589      00
 15590              	.LASF551:
 15591 18d5 6E65775F 		.ascii	"new_value\000"
 15591      76616C75 
 15591      6500
 15592              	.LASF365:
 15593 18df 77696474 		.ascii	"width_def\000"
 15593      685F6465 
 15593      6600
 15594              	.LASF196:
 15595 18e9 636C6173 		.ascii	"class_p\000"
 15595      735F7000 
 15596              	.LASF38:
 15597 18f1 69735F70 		.ascii	"is_placeholder\000"
 15597      6C616365 
 15597      686F6C64 
 15597      657200
 15598              	.LASF286:
 15599 1900 6C765F64 		.ascii	"lv_draw_layer_flags_t\000"
 15599      7261775F 
 15599      6C617965 
 15599      725F666C 
 15599      6167735F 
 15600              	.LASF538:
 15601 1916 6C616265 		.ascii	"label_dsc_tmp\000"
 15601      6C5F6473 
 15601      635F746D 
 15601      7000
 15602              	.LASF330:
 15603 1924 6C765F73 		.ascii	"lv_state_t\000"
 15603      74617465 
 15603      5F7400
ARM GAS  C:\Users\haske\AppData\Local\Temp\ccXBxzcA.s 			page 332


 15604              	.LASF225:
 15605 192f 6F75746C 		.ascii	"outline_color\000"
 15605      696E655F 
 15605      636F6C6F 
 15605      7200
 15606              	.LASF47:
 15607 193d 75736572 		.ascii	"user_data\000"
 15607      5F646174 
 15607      6100
 15608              	.LASF69:
 15609 1947 6C765F6F 		.ascii	"lv_opa_t\000"
 15609      70615F74 
 15609      00
 15610              	.LASF20:
 15611 1950 75696E74 		.ascii	"uint32_t\000"
 15611      33325F74 
 15611      00
 15612              	.LASF305:
 15613 1959 64726177 		.ascii	"draw_polygon\000"
 15613      5F706F6C 
 15613      79676F6E 
 15613      00
 15614              	.LASF582:
 15615 1966 4C565F53 		.ascii	"LV_STYLE_GRID_CELL_COLUMN_SPAN\000"
 15615      54594C45 
 15615      5F475249 
 15615      445F4345 
 15615      4C4C5F43 
 15616              	.LASF368:
 15617 1985 67726F75 		.ascii	"group_def\000"
 15617      705F6465 
 15617      6600
 15618              	.LASF509:
 15619 198f 7363616C 		.ascii	"scale_center\000"
 15619      655F6365 
 15619      6E746572 
 15619      00
 15620              	.LASF441:
 15621 199c 7363726F 		.ascii	"scroll_snap_x\000"
 15621      6C6C5F73 
 15621      6E61705F 
 15621      7800
 15622              	.LASF25:
 15623 19aa 6C6F6E67 		.ascii	"long double\000"
 15623      20646F75 
 15623      626C6500 
 15624              	.LASF411:
 15625 19b6 4C565F45 		.ascii	"LV_EVENT_REFRESH\000"
 15625      56454E54 
 15625      5F524546 
 15625      52455348 
 15625      00
 15626              	.LASF463:
 15627 19c7 7469636B 		.ascii	"tick_major_nth\000"
 15627      5F6D616A 
 15627      6F725F6E 
 15627      746800
ARM GAS  C:\Users\haske\AppData\Local\Temp\ccXBxzcA.s 			page 333


 15628              	.LASF565:
 15629 19d6 6C765F6D 		.ascii	"lv_meter_set_indicator_value\000"
 15629      65746572 
 15629      5F736574 
 15629      5F696E64 
 15629      69636174 
 15630              	.LASF11:
 15631 19f3 6C6F6E67 		.ascii	"long unsigned int\000"
 15631      20756E73 
 15631      69676E65 
 15631      6420696E 
 15631      7400
 15632              	.LASF477:
 15633 1a05 77696474 		.ascii	"width_mod\000"
 15633      685F6D6F 
 15633      6400
 15634              	.LASF53:
 15635 1a0f 4C565F4F 		.ascii	"LV_OPA_10\000"
 15635      50415F31 
 15635      3000
 15636              	.LASF444:
 15637 1a19 6576656E 		.ascii	"event_dsc_cnt\000"
 15637      745F6473 
 15637      635F636E 
 15637      7400
 15638              	.LASF258:
 15639 1a27 64617368 		.ascii	"dash_gap\000"
 15639      5F676170 
 15639      00
 15640              	.LASF148:
 15641 1a30 4C565F53 		.ascii	"LV_STYLE_ARC_ROUNDED\000"
 15641      54594C45 
 15641      5F415243 
 15641      5F524F55 
 15641      4E444544 
 15642              	.LASF133:
 15643 1a45 4C565F53 		.ascii	"LV_STYLE_SHADOW_OFS_X\000"
 15643      54594C45 
 15643      5F534841 
 15643      444F575F 
 15643      4F46535F 
 15644              	.LASF134:
 15645 1a5b 4C565F53 		.ascii	"LV_STYLE_SHADOW_OFS_Y\000"
 15645      54594C45 
 15645      5F534841 
 15645      444F575F 
 15645      4F46535F 
 15646              	.LASF228:
 15647 1a71 6F75746C 		.ascii	"outline_opa\000"
 15647      696E655F 
 15647      6F706100 
 15648              	.LASF390:
 15649 1a7d 4C565F45 		.ascii	"LV_EVENT_SCROLL_BEGIN\000"
 15649      56454E54 
 15649      5F534352 
 15649      4F4C4C5F 
 15649      42454749 
ARM GAS  C:\Users\haske\AppData\Local\Temp\ccXBxzcA.s 			page 334


 15650              	.LASF307:
 15651 1a93 64726177 		.ascii	"draw_bg\000"
 15651      5F626700 
 15652              	.LASF631:
 15653 1a9b 6C765F6D 		.ascii	"lv_memset_00\000"
 15653      656D7365 
 15653      745F3030 
 15653      00
 15654              	.LASF146:
 15655 1aa8 4C565F53 		.ascii	"LV_STYLE_LINE_OPA\000"
 15655      54594C45 
 15655      5F4C494E 
 15655      455F4F50 
 15655      4100
 15656              	.LASF27:
 15657 1aba 63686172 		.ascii	"char\000"
 15657      00
 15658              	.LASF471:
 15659 1abf 6C765F6D 		.ascii	"lv_meter_scale_t\000"
 15659      65746572 
 15659      5F736361 
 15659      6C655F74 
 15659      00
 15660              	.LASF54:
 15661 1ad0 4C565F4F 		.ascii	"LV_OPA_20\000"
 15661      50415F32 
 15661      3000
 15662              	.LASF342:
 15663 1ada 6C765F73 		.ascii	"lv_scrollbar_mode_t\000"
 15663      63726F6C 
 15663      6C626172 
 15663      5F6D6F64 
 15663      655F7400 
 15664              	.LASF384:
 15665 1aee 4C565F45 		.ascii	"LV_EVENT_PRESS_LOST\000"
 15665      56454E54 
 15665      5F505245 
 15665      53535F4C 
 15665      4F535400 
 15666              	.LASF262:
 15667 1b02 6C765F64 		.ascii	"lv_draw_line_dsc_t\000"
 15667      7261775F 
 15667      6C696E65 
 15667      5F647363 
 15667      5F7400
 15668              	.LASF91:
 15669 1b15 4C565F53 		.ascii	"LV_STYLE_WIDTH\000"
 15669      54594C45 
 15669      5F574944 
 15669      544800
 15670              	.LASF322:
 15671 1b24 6F626A5F 		.ascii	"obj_ll\000"
 15671      6C6C00
 15672              	.LASF135:
 15673 1b2b 4C565F53 		.ascii	"LV_STYLE_SHADOW_SPREAD\000"
 15673      54594C45 
 15673      5F534841 
ARM GAS  C:\Users\haske\AppData\Local\Temp\ccXBxzcA.s 			page 335


 15673      444F575F 
 15673      53505245 
 15674              	.LASF82:
 15675 1b42 636F6C6F 		.ascii	"color\000"
 15675      7200
 15676              	.LASF55:
 15677 1b48 4C565F4F 		.ascii	"LV_OPA_30\000"
 15677      50415F33 
 15677      3000
 15678              	.LASF189:
 15679 1b52 6C765F73 		.ascii	"lv_style_t\000"
 15679      74796C65 
 15679      5F7400
 15680              	.LASF412:
 15681 1b5d 4C565F45 		.ascii	"LV_EVENT_READY\000"
 15681      56454E54 
 15681      5F524541 
 15681      445900
 15682              	.LASF42:
 15683 1b6c 62617365 		.ascii	"base_line\000"
 15683      5F6C696E 
 15683      6500
 15684              	.LASF554:
 15685 1b76 6C765F6D 		.ascii	"lv_meter_add_scale\000"
 15685      65746572 
 15685      5F616464 
 15685      5F736361 
 15685      6C6500
 15686              	.LASF152:
 15687 1b89 4C565F53 		.ascii	"LV_STYLE_TEXT_COLOR\000"
 15687      54594C45 
 15687      5F544558 
 15687      545F434F 
 15687      4C4F5200 
 15688              	.LASF626:
 15689 1b9d 6C765F6F 		.ascii	"lv_obj_invalidate_area\000"
 15689      626A5F69 
 15689      6E76616C 
 15689      69646174 
 15689      655F6172 
 15690              	.LASF127:
 15691 1bb4 4C565F53 		.ascii	"LV_STYLE_BORDER_POST\000"
 15691      54594C45 
 15691      5F424F52 
 15691      4445525F 
 15691      504F5354 
 15692              	.LASF315:
 15693 1bc9 6C765F64 		.ascii	"lv_draw_ctx_t\000"
 15693      7261775F 
 15693      6374785F 
 15693      7400
 15694              	.LASF373:
 15695 1bd7 63757272 		.ascii	"current_target\000"
 15695      656E745F 
 15695      74617267 
 15695      657400
 15696              	.LASF56:
ARM GAS  C:\Users\haske\AppData\Local\Temp\ccXBxzcA.s 			page 336


 15697 1be6 4C565F4F 		.ascii	"LV_OPA_40\000"
 15697      50415F34 
 15697      3000
 15698              	.LASF171:
 15699 1bf0 4C565F53 		.ascii	"LV_STYLE_TRANSFORM_ZOOM\000"
 15699      54594C45 
 15699      5F545241 
 15699      4E53464F 
 15699      524D5F5A 
 15700              	.LASF51:
 15701 1c08 4C565F4F 		.ascii	"LV_OPA_TRANSP\000"
 15701      50415F54 
 15701      52414E53 
 15701      5000
 15702              	.LASF102:
 15703 1c16 4C565F53 		.ascii	"LV_STYLE_PAD_TOP\000"
 15703      54594C45 
 15703      5F504144 
 15703      5F544F50 
 15703      00
 15704              	.LASF243:
 15705 1c27 62696469 		.ascii	"bidi_dir\000"
 15705      5F646972 
 15705      00
 15706              	.LASF436:
 15707 1c30 6576656E 		.ascii	"event_dsc\000"
 15707      745F6473 
 15707      6300
 15708              	.LASF453:
 15709 1c3a 4C565F49 		.ascii	"LV_IMGBTN_STATE_DISABLED\000"
 15709      4D474254 
 15709      4E5F5354 
 15709      4154455F 
 15709      44495341 
 15710              	.LASF329:
 15711 1c53 77726170 		.ascii	"wrap\000"
 15711      00
 15712              	.LASF173:
 15713 1c58 4C565F53 		.ascii	"LV_STYLE_TRANSFORM_PIVOT_X\000"
 15713      54594C45 
 15713      5F545241 
 15713      4E53464F 
 15713      524D5F50 
 15714              	.LASF174:
 15715 1c73 4C565F53 		.ascii	"LV_STYLE_TRANSFORM_PIVOT_Y\000"
 15715      54594C45 
 15715      5F545241 
 15715      4E53464F 
 15715      524D5F50 
 15716              	.LASF57:
 15717 1c8e 4C565F4F 		.ascii	"LV_OPA_50\000"
 15717      50415F35 
 15717      3000
 15718              	.LASF193:
 15719 1c98 6C765F69 		.ascii	"lv_img_header_t\000"
 15719      6D675F68 
 15719      65616465 
ARM GAS  C:\Users\haske\AppData\Local\Temp\ccXBxzcA.s 			page 337


 15719      725F7400 
 15720              	.LASF495:
 15721 1ca8 4C565F4D 		.ascii	"LV_METER_DRAW_PART_TICK\000"
 15721      45544552 
 15721      5F445241 
 15721      575F5041 
 15721      52545F54 
 15722              	.LASF76:
 15723 1cc0 6C765F62 		.ascii	"lv_base_dir_t\000"
 15723      6173655F 
 15723      6469725F 
 15723      7400
 15724              	.LASF81:
 15725 1cce 6C765F64 		.ascii	"lv_dither_mode_t\000"
 15725      69746865 
 15725      725F6D6F 
 15725      64655F74 
 15725      00
 15726              	.LASF442:
 15727 1cdf 7363726F 		.ascii	"scroll_snap_y\000"
 15727      6C6C5F73 
 15727      6E61705F 
 15727      7900
 15728              	.LASF104:
 15729 1ced 4C565F53 		.ascii	"LV_STYLE_PAD_LEFT\000"
 15729      54594C45 
 15729      5F504144 
 15729      5F4C4546 
 15729      5400
 15730              	.LASF58:
 15731 1cff 4C565F4F 		.ascii	"LV_OPA_60\000"
 15731      50415F36 
 15731      3000
 15732              	.LASF143:
 15733 1d09 4C565F53 		.ascii	"LV_STYLE_LINE_DASH_GAP\000"
 15733      54594C45 
 15733      5F4C494E 
 15733      455F4441 
 15733      53485F47 
 15734              	.LASF310:
 15735 1d20 6C617965 		.ascii	"layer_init\000"
 15735      725F696E 
 15735      697400
 15736              	.LASF162:
 15737 1d2b 4C565F53 		.ascii	"LV_STYLE_ANIM\000"
 15737      54594C45 
 15737      5F414E49 
 15737      4D00
 15738              	.LASF584:
 15739 1d39 4C565F53 		.ascii	"LV_STYLE_GRID_CELL_ROW_POS\000"
 15739      54594C45 
 15739      5F475249 
 15739      445F4345 
 15739      4C4C5F52 
 15740              	.LASF630:
 15741 1d54 5F6C765F 		.ascii	"_lv_ll_ins_head\000"
 15741      6C6C5F69 
ARM GAS  C:\Users\haske\AppData\Local\Temp\ccXBxzcA.s 			page 338


 15741      6E735F68 
 15741      65616400 
 15742              	.LASF300:
 15743 1d64 64726177 		.ascii	"draw_arc\000"
 15743      5F617263 
 15743      00
 15744              	.LASF536:
 15745 1d6d 72617469 		.ascii	"ratio\000"
 15745      6F00
 15746              	.LASF382:
 15747 1d73 4C565F45 		.ascii	"LV_EVENT_PRESSED\000"
 15747      56454E54 
 15747      5F505245 
 15747      53534544 
 15747      00
 15748              	.LASF39:
 15749 1d84 6765745F 		.ascii	"get_glyph_dsc\000"
 15749      676C7970 
 15749      685F6473 
 15749      6300
 15750              	.LASF447:
 15751 1d92 6C765F6F 		.ascii	"lv_obj_t\000"
 15751      626A5F74 
 15751      00
 15752              	.LASF398:
 15753 1d9b 4C565F45 		.ascii	"LV_EVENT_HIT_TEST\000"
 15753      56454E54 
 15753      5F484954 
 15753      5F544553 
 15753      5400
 15754              	.LASF569:
 15755 1dad 6C765F6D 		.ascii	"lv_meter_set_indicator_end_value\000"
 15755      65746572 
 15755      5F736574 
 15755      5F696E64 
 15755      69636174 
 15756              	.LASF433:
 15757 1dce 6368696C 		.ascii	"children\000"
 15757      6472656E 
 15757      00
 15758              	.LASF344:
 15759 1dd7 7374796C 		.ascii	"style\000"
 15759      6500
 15760              	.LASF59:
 15761 1ddd 4C565F4F 		.ascii	"LV_OPA_70\000"
 15761      50415F37 
 15761      3000
 15762              	.LASF625:
 15763 1de7 6C765F64 		.ascii	"lv_draw_arc_get_area\000"
 15763      7261775F 
 15763      6172635F 
 15763      6765745F 
 15763      61726561 
 15764              	.LASF101:
 15765 1dfc 4C565F53 		.ascii	"LV_STYLE_RADIUS\000"
 15765      54594C45 
 15765      5F524144 
ARM GAS  C:\Users\haske\AppData\Local\Temp\ccXBxzcA.s 			page 339


 15765      49555300 
 15766              	.LASF319:
 15767 1e0c 7461696C 		.ascii	"tail\000"
 15767      00
 15768              	.LASF359:
 15769 1e11 7375625F 		.ascii	"sub_part_ptr\000"
 15769      70617274 
 15769      5F707472 
 15769      00
 15770              	.LASF172:
 15771 1e1e 4C565F53 		.ascii	"LV_STYLE_TRANSFORM_ANGLE\000"
 15771      54594C45 
 15771      5F545241 
 15771      4E53464F 
 15771      524D5F41 
 15772              	.LASF586:
 15773 1e37 4C565F53 		.ascii	"LV_STYLE_GRID_CELL_Y_ALIGN\000"
 15773      54594C45 
 15773      5F475249 
 15773      445F4345 
 15773      4C4C5F59 
 15774              	.LASF251:
 15775 1e52 7265636F 		.ascii	"recolor\000"
 15775      6C6F7200 
 15776              	.LASF563:
 15777 1e5a 6C765F6D 		.ascii	"lv_meter_add_scale_lines\000"
 15777      65746572 
 15777      5F616464 
 15777      5F736361 
 15777      6C655F6C 
 15778              	.LASF60:
 15779 1e73 4C565F4F 		.ascii	"LV_OPA_80\000"
 15779      50415F38 
 15779      3000
 15780              	.LASF208:
 15781 1e7d 775F6C61 		.ascii	"w_layout\000"
 15781      796F7574 
 15781      00
 15782              	.LASF553:
 15783 1e86 6C765F6D 		.ascii	"lv_meter_create\000"
 15783      65746572 
 15783      5F637265 
 15783      61746500 
 15784              	.LASF129:
 15785 1e96 4C565F53 		.ascii	"LV_STYLE_OUTLINE_COLOR\000"
 15785      54594C45 
 15785      5F4F5554 
 15785      4C494E45 
 15785      5F434F4C 
 15786              	.LASF277:
 15787 1ead 75736564 		.ascii	"used_cnt\000"
 15787      5F636E74 
 15787      00
 15788              	.LASF484:
 15789 1eb6 7363616C 		.ascii	"scale\000"
 15789      6500
 15790              	.LASF8:
ARM GAS  C:\Users\haske\AppData\Local\Temp\ccXBxzcA.s 			page 340


 15791 1ebc 5F5F696E 		.ascii	"__int32_t\000"
 15791      7433325F 
 15791      7400
 15792              	.LASF10:
 15793 1ec6 5F5F7569 		.ascii	"__uint32_t\000"
 15793      6E743332 
 15793      5F7400
 15794              	.LASF229:
 15795 1ed1 73686164 		.ascii	"shadow_color\000"
 15795      6F775F63 
 15795      6F6C6F72 
 15795      00
 15796              	.LASF401:
 15797 1ede 4C565F45 		.ascii	"LV_EVENT_DRAW_MAIN_BEGIN\000"
 15797      56454E54 
 15797      5F445241 
 15797      575F4D41 
 15797      494E5F42 
 15798              	.LASF633:
 15799 1ef7 474E5520 		.ascii	"GNU C11 5.4.1 20160609 (release) [ARM/embedded-5-br"
 15799      43313120 
 15799      352E342E 
 15799      31203230 
 15799      31363036 
 15800 1f2a 616E6368 		.ascii	"anch revision 237715] -mcpu=cortex-m0plus -mthumb -"
 15800      20726576 
 15800      6973696F 
 15800      6E203233 
 15800      37373135 
 15801 1f5d 67202D4F 		.ascii	"g -Og -ffunction-sections -ffat-lto-objects\000"
 15801      67202D66 
 15801      66756E63 
 15801      74696F6E 
 15801      2D736563 
 15802              	.LASF71:
 15803 1f89 4C565F54 		.ascii	"LV_TEXT_FLAG_RECOLOR\000"
 15803      4558545F 
 15803      464C4147 
 15803      5F524543 
 15803      4F4C4F52 
 15804              	.LASF22:
 15805 1f9e 4C565F52 		.ascii	"LV_RES_OK\000"
 15805      45535F4F 
 15805      4B00
 15806              	.LASF220:
 15807 1fa8 626F7264 		.ascii	"border_color\000"
 15807      65725F63 
 15807      6F6C6F72 
 15807      00
 15808              	.LASF474:
 15809 1fb5 4C565F4D 		.ascii	"LV_METER_INDICATOR_TYPE_SCALE_LINES\000"
 15809      45544552 
 15809      5F494E44 
 15809      49434154 
 15809      4F525F54 
 15810              	.LASF194:
 15811 1fd9 5F6C765F 		.ascii	"_lv_font_t\000"
ARM GAS  C:\Users\haske\AppData\Local\Temp\ccXBxzcA.s 			page 341


 15811      666F6E74 
 15811      5F7400
 15812              	.LASF61:
 15813 1fe4 4C565F4F 		.ascii	"LV_OPA_90\000"
 15813      50415F39 
 15813      3000
 15814              	.LASF544:
 15815 1fee 6C765F6D 		.ascii	"lv_meter_event\000"
 15815      65746572 
 15815      5F657665 
 15815      6E7400
 15816              	.LASF318:
 15817 1ffd 68656164 		.ascii	"head\000"
 15817      00
 15818              	.LASF306:
 15819 2002 64726177 		.ascii	"draw_transform\000"
 15819      5F747261 
 15819      6E73666F 
 15819      726D00
 15820              	.LASF328:
 15821 2011 7265666F 		.ascii	"refocus_policy\000"
 15821      6375735F 
 15821      706F6C69 
 15821      637900
 15822              	.LASF482:
 15823 2020 6E656564 		.ascii	"needle_line\000"
 15823      6C655F6C 
 15823      696E6500 
 15824              	.LASF493:
 15825 202c 4C565F4D 		.ascii	"LV_METER_DRAW_PART_NEEDLE_LINE\000"
 15825      45544552 
 15825      5F445241 
 15825      575F5041 
 15825      52545F4E 
 15826              	.LASF109:
 15827 204b 4C565F53 		.ascii	"LV_STYLE_CLIP_CORNER\000"
 15827      54594C45 
 15827      5F434C49 
 15827      505F434F 
 15827      524E4552 
 15828              	.LASF273:
 15829 2060 6369725F 		.ascii	"cir_opa\000"
 15829      6F706100 
 15830              	.LASF567:
 15831 2068 6F6C645F 		.ascii	"old_end\000"
 15831      656E6400 
 15832              	.LASF21:
 15833 2070 4C565F52 		.ascii	"LV_RES_INV\000"
 15833      45535F49 
 15833      4E5600
 15834              	.LASF255:
 15835 207b 6C765F64 		.ascii	"lv_draw_img_dsc_t\000"
 15835      7261775F 
 15835      696D675F 
 15835      6473635F 
 15835      7400
 15836              	.LASF256:
ARM GAS  C:\Users\haske\AppData\Local\Temp\ccXBxzcA.s 			page 342


 15837 208d 77696474 		.ascii	"width\000"
 15837      6800
 15838              	.LASF223:
 15839 2093 626F7264 		.ascii	"border_post\000"
 15839      65725F70 
 15839      6F737400 
 15840              	.LASF549:
 15841 209f 696E765F 		.ascii	"inv_arc\000"
 15841      61726300 
 15842              	.LASF494:
 15843 20a7 4C565F4D 		.ascii	"LV_METER_DRAW_PART_NEEDLE_IMG\000"
 15843      45544552 
 15843      5F445241 
 15843      575F5041 
 15843      52545F4E 
 15844              	.LASF151:
 15845 20c5 4C565F53 		.ascii	"LV_STYLE_ARC_IMG_SRC\000"
 15845      54594C45 
 15845      5F415243 
 15845      5F494D47 
 15845      5F535243 
 15846              	.LASF264:
 15847 20da 656E645F 		.ascii	"end_angle\000"
 15847      616E676C 
 15847      6500
 15848              	.LASF535:
 15849 20e4 705F6F75 		.ascii	"p_outer\000"
 15849      74657200 
 15850              	.LASF596:
 15851 20ec 6C765F64 		.ascii	"lv_draw_mask_remove_id\000"
 15851      7261775F 
 15851      6D61736B 
 15851      5F72656D 
 15851      6F76655F 
 15852              	.LASF131:
 15853 2103 4C565F53 		.ascii	"LV_STYLE_OUTLINE_PAD\000"
 15853      54594C45 
 15853      5F4F5554 
 15853      4C494E45 
 15853      5F504144 
 15854              	.LASF287:
 15855 2118 636C6970 		.ascii	"clip_area\000"
 15855      5F617265 
 15855      6100
 15856              	.LASF504:
 15857 2122 6C765F6F 		.ascii	"lv_obj_get_style_height\000"
 15857      626A5F67 
 15857      65745F73 
 15857      74796C65 
 15857      5F686569 
 15858              	.LASF138:
 15859 213a 4C565F53 		.ascii	"LV_STYLE_IMG_OPA\000"
 15859      54594C45 
 15859      5F494D47 
 15859      5F4F5041 
 15859      00
 15860              	.LASF521:
ARM GAS  C:\Users\haske\AppData\Local\Temp\ccXBxzcA.s 			page 343


 15861 214b 725F696E 		.ascii	"r_in_major\000"
 15861      5F6D616A 
 15861      6F7200
 15862              	.LASF13:
 15863 2156 6C6F6E67 		.ascii	"long long unsigned int\000"
 15863      206C6F6E 
 15863      6720756E 
 15863      7369676E 
 15863      65642069 
 15864              	.LASF197:
 15865 216d 70617265 		.ascii	"parent\000"
 15865      6E7400
 15866              	.LASF512:
 15867 2174 70617274 		.ascii	"part_draw_dsc\000"
 15867      5F647261 
 15867      775F6473 
 15867      6300
 15868              	.LASF407:
 15869 2182 4C565F45 		.ascii	"LV_EVENT_DRAW_PART_BEGIN\000"
 15869      56454E54 
 15869      5F445241 
 15869      575F5041 
 15869      52545F42 
 15870              	.LASF250:
 15871 219b 7069766F 		.ascii	"pivot\000"
 15871      7400
 15872              	.LASF140:
 15873 21a1 4C565F53 		.ascii	"LV_STYLE_IMG_RECOLOR_OPA\000"
 15873      54594C45 
 15873      5F494D47 
 15873      5F524543 
 15873      4F4C4F52 
 15874              	.LASF355:
 15875 21ba 6172635F 		.ascii	"arc_dsc\000"
 15875      64736300 
 15876              	.LASF587:
 15877 21c2 6C765F6D 		.ascii	"lv_meter_class\000"
 15877      65746572 
 15877      5F636C61 
 15877      737300
 15878              	.LASF469:
 15879 21d1 616E676C 		.ascii	"angle_range\000"
 15879      655F7261 
 15879      6E676500 
 15880              	.LASF268:
 15881 21dd 6C765F64 		.ascii	"lv_draw_mask_res_t\000"
 15881      7261775F 
 15881      6D61736B 
 15881      5F726573 
 15881      5F7400
 15882              	.LASF62:
 15883 21f0 4C565F4F 		.ascii	"LV_OPA_100\000"
 15883      50415F31 
 15883      303000
 15884              	.LASF103:
 15885 21fb 4C565F53 		.ascii	"LV_STYLE_PAD_BOTTOM\000"
 15885      54594C45 
ARM GAS  C:\Users\haske\AppData\Local\Temp\ccXBxzcA.s 			page 344


 15885      5F504144 
 15885      5F424F54 
 15885      544F4D00 
 15886              	.LASF425:
 15887 220f 4C565F45 		.ascii	"LV_EVENT_GET_SELF_SIZE\000"
 15887      56454E54 
 15887      5F474554 
 15887      5F53454C 
 15887      465F5349 
 15888              	.LASF85:
 15889 2226 73746F70 		.ascii	"stops\000"
 15889      7300
 15890              	.LASF317:
 15891 222c 6E5F7369 		.ascii	"n_size\000"
 15891      7A6500
 15892              	.LASF547:
 15893 2233 6C765F6D 		.ascii	"lv_meter_destructor\000"
 15893      65746572 
 15893      5F646573 
 15893      74727563 
 15893      746F7200 
 15894              	.LASF440:
 15895 2247 7363726F 		.ascii	"scrollbar_mode\000"
 15895      6C6C6261 
 15895      725F6D6F 
 15895      646500
 15896              	.LASF503:
 15897 2256 6C765F74 		.ascii	"lv_trigo_cos\000"
 15897      7269676F 
 15897      5F636F73 
 15897      00
 15898              	.LASF265:
 15899 2263 696D675F 		.ascii	"img_src\000"
 15899      73726300 
 15900              	.LASF340:
 15901 226b 4C565F50 		.ascii	"LV_PART_ANY\000"
 15901      4152545F 
 15901      414E5900 
 15902              	.LASF594:
 15903 2277 5F6C765F 		.ascii	"_lv_ll_get_tail\000"
 15903      6C6C5F67 
 15903      65745F74 
 15903      61696C00 
 15904              	.LASF254:
 15905 2287 616E7469 		.ascii	"antialias\000"
 15905      616C6961 
 15905      7300
 15906              	.LASF293:
 15907 2291 6D61785F 		.ascii	"max_row_with_alpha\000"
 15907      726F775F 
 15907      77697468 
 15907      5F616C70 
 15907      686100
 15908              	.LASF87:
 15909 22a4 64697468 		.ascii	"dither\000"
 15909      657200
 15910              	.LASF123:
ARM GAS  C:\Users\haske\AppData\Local\Temp\ccXBxzcA.s 			page 345


 15911 22ab 4C565F53 		.ascii	"LV_STYLE_BORDER_COLOR\000"
 15911      54594C45 
 15911      5F424F52 
 15911      4445525F 
 15911      434F4C4F 
 15912              	.LASF462:
 15913 22c1 7469636B 		.ascii	"tick_major_color\000"
 15913      5F6D616A 
 15913      6F725F63 
 15913      6F6C6F72 
 15913      00
 15914              	.LASF110:
 15915 22d2 4C565F53 		.ascii	"LV_STYLE_BG_COLOR\000"
 15915      54594C45 
 15915      5F42475F 
 15915      434F4C4F 
 15915      5200
 15916              	.LASF514:
 15917 22e4 64726177 		.ascii	"draw_ticks_and_labels\000"
 15917      5F746963 
 15917      6B735F61 
 15917      6E645F6C 
 15917      6162656C 
 15918              	.LASF217:
 15919 22fa 62675F69 		.ascii	"bg_img_opa\000"
 15919      6D675F6F 
 15919      706100
 15920              	.LASF528:
 15921 2305 6D616A6F 		.ascii	"major\000"
 15921      7200
 15922              	.LASF121:
 15923 230b 4C565F53 		.ascii	"LV_STYLE_BG_IMG_RECOLOR_OPA\000"
 15923      54594C45 
 15923      5F42475F 
 15923      494D475F 
 15923      5245434F 
 15924              	.LASF606:
 15925 2327 6C765F64 		.ascii	"lv_draw_line_dsc_init\000"
 15925      7261775F 
 15925      6C696E65 
 15925      5F647363 
 15925      5F696E69 
 15926              	.LASF282:
 15927 233d 6C765F64 		.ascii	"lv_draw_mask_radius_param_t\000"
 15927      7261775F 
 15927      6D61736B 
 15927      5F726164 
 15927      6975735F 
 15928              	.LASF473:
 15929 2359 4C565F4D 		.ascii	"LV_METER_INDICATOR_TYPE_NEEDLE_LINE\000"
 15929      45544552 
 15929      5F494E44 
 15929      49434154 
 15929      4F525F54 
 15930              	.LASF603:
 15931 237d 6C765F64 		.ascii	"lv_draw_line\000"
 15931      7261775F 
ARM GAS  C:\Users\haske\AppData\Local\Temp\ccXBxzcA.s 			page 346


 15931      6C696E65 
 15931      00
 15932              	.LASF77:
 15933 238a 6C765F62 		.ascii	"lv_blend_mode_t\000"
 15933      6C656E64 
 15933      5F6D6F64 
 15933      655F7400 
 15934              	.LASF604:
 15935 239a 6C765F64 		.ascii	"lv_draw_mask_radius_init\000"
 15935      7261775F 
 15935      6D61736B 
 15935      5F726164 
 15935      6975735F 
 15936              	.LASF12:
 15937 23b3 6C6F6E67 		.ascii	"long long int\000"
 15937      206C6F6E 
 15937      6720696E 
 15937      7400
 15938              	.LASF404:
 15939 23c1 4C565F45 		.ascii	"LV_EVENT_DRAW_POST_BEGIN\000"
 15939      56454E54 
 15939      5F445241 
 15939      575F504F 
 15939      53545F42 
 15940              	.LASF426:
 15941 23da 5F4C565F 		.ascii	"_LV_EVENT_LAST\000"
 15941      4556454E 
 15941      545F4C41 
 15941      535400
 15942              	.LASF64:
 15943 23e9 626C7565 		.ascii	"blue\000"
 15943      00
 15944              	.LASF52:
 15945 23ee 4C565F4F 		.ascii	"LV_OPA_0\000"
 15945      50415F30 
 15945      00
 15946              	.LASF496:
 15947 23f7 6C765F6F 		.ascii	"lv_obj_get_style_opa\000"
 15947      626A5F67 
 15947      65745F73 
 15947      74796C65 
 15947      5F6F7061 
 15948              	.LASF406:
 15949 240c 4C565F45 		.ascii	"LV_EVENT_DRAW_POST_END\000"
 15949      56454E54 
 15949      5F445241 
 15949      575F504F 
 15949      53545F45 
 15950              	.LASF540:
 15951 2423 6C616265 		.ascii	"label_cord\000"
 15951      6C5F636F 
 15951      726400
 15952              	.LASF308:
 15953 242e 77616974 		.ascii	"wait_for_finish\000"
 15953      5F666F72 
 15953      5F66696E 
 15953      69736800 
ARM GAS  C:\Users\haske\AppData\Local\Temp\ccXBxzcA.s 			page 347


 15954              	.LASF89:
 15955 243e 6C765F73 		.ascii	"lv_style_value_t\000"
 15955      74796C65 
 15955      5F76616C 
 15955      75655F74 
 15955      00
 15956              	.LASF617:
 15957 244f 6C765F64 		.ascii	"lv_draw_rect_dsc_init\000"
 15957      7261775F 
 15957      72656374 
 15957      5F647363 
 15957      5F696E69 
 15958              	.LASF357:
 15959 2465 74657874 		.ascii	"text_length\000"
 15959      5F6C656E 
 15959      67746800 
 15960              	.LASF448:
 15961 2471 4C565F42 		.ascii	"LV_BAR_MODE_NORMAL\000"
 15961      41525F4D 
 15961      4F44455F 
 15961      4E4F524D 
 15961      414C00
 15962              	.LASF439:
 15963 2484 6578745F 		.ascii	"ext_draw_size\000"
 15963      64726177 
 15963      5F73697A 
 15963      6500
 15964              	.LASF156:
 15965 2492 4C565F53 		.ascii	"LV_STYLE_TEXT_LINE_SPACE\000"
 15965      54594C45 
 15965      5F544558 
 15965      545F4C49 
 15965      4E455F53 
 15966              	.LASF559:
 15967 24ab 6C765F6D 		.ascii	"lv_meter_add_needle_img\000"
 15967      65746572 
 15967      5F616464 
 15967      5F6E6565 
 15967      646C655F 
 15968              	.LASF292:
 15969 24c3 61726561 		.ascii	"area_act\000"
 15969      5F616374 
 15969      00
 15970              	.LASF555:
 15971 24cc 6C765F6D 		.ascii	"lv_meter_set_scale_ticks\000"
 15971      65746572 
 15971      5F736574 
 15971      5F736361 
 15971      6C655F74 
 15972              	.LASF349:
 15973 24e5 64726177 		.ascii	"draw_ctx\000"
 15973      5F637478 
 15973      00
 15974              	.LASF90:
 15975 24ee 4C565F53 		.ascii	"LV_STYLE_PROP_INV\000"
 15975      54594C45 
 15975      5F50524F 
ARM GAS  C:\Users\haske\AppData\Local\Temp\ccXBxzcA.s 			page 348


 15975      505F494E 
 15975      5600
 15976              	.LASF422:
 15977 2500 4C565F45 		.ascii	"LV_EVENT_SIZE_CHANGED\000"
 15977      56454E54 
 15977      5F53495A 
 15977      455F4348 
 15977      414E4745 
 15978              	.LASF589:
 15979 2516 6C765F6D 		.ascii	"lv_map\000"
 15979      617000
 15980              	.LASF403:
 15981 251d 4C565F45 		.ascii	"LV_EVENT_DRAW_MAIN_END\000"
 15981      56454E54 
 15981      5F445241 
 15981      575F4D41 
 15981      494E5F45 
 15982              	.LASF299:
 15983 2534 64726177 		.ascii	"draw_rect\000"
 15983      5F726563 
 15983      7400
 15984              	.LASF190:
 15985 253e 6C765F69 		.ascii	"lv_img_cf_t\000"
 15985      6D675F63 
 15985      665F7400 
 15986              	.LASF63:
 15987 254a 4C565F4F 		.ascii	"LV_OPA_COVER\000"
 15987      50415F43 
 15987      4F564552 
 15987      00
 15988              	.LASF460:
 15989 2557 7469636B 		.ascii	"tick_length\000"
 15989      5F6C656E 
 15989      67746800 
 15990              	.LASF518:
 15991 2563 696E6E65 		.ascii	"inner_major_mask\000"
 15991      725F6D61 
 15991      6A6F725F 
 15991      6D61736B 
 15991      00
 15992              	.LASF338:
 15993 2574 4C565F50 		.ascii	"LV_PART_CURSOR\000"
 15993      4152545F 
 15993      43555253 
 15993      4F5200
 15994              	.LASF0:
 15995 2583 5F5F696E 		.ascii	"__int8_t\000"
 15995      74385F74 
 15995      00
 15996              	.LASF160:
 15997 258c 4C565F53 		.ascii	"LV_STYLE_COLOR_FILTER_DSC\000"
 15997      54594C45 
 15997      5F434F4C 
 15997      4F525F46 
 15997      494C5445 
 15998              	.LASF614:
 15999 25a6 6C765F6F 		.ascii	"lv_obj_init_draw_img_dsc\000"
ARM GAS  C:\Users\haske\AppData\Local\Temp\ccXBxzcA.s 			page 349


 15999      626A5F69 
 15999      6E69745F 
 15999      64726177 
 15999      5F696D67 
 16000              	.LASF363:
 16001 25bf 64657374 		.ascii	"destructor_cb\000"
 16001      72756374 
 16001      6F725F63 
 16001      6200
 16002              	.LASF377:
 16003 25cd 64656C65 		.ascii	"deleted\000"
 16003      74656400 
 16004              	.LASF280:
 16005 25d5 6F757465 		.ascii	"outer\000"
 16005      7200
 16006              	.LASF388:
 16007 25db 4C565F45 		.ascii	"LV_EVENT_CLICKED\000"
 16007      56454E54 
 16007      5F434C49 
 16007      434B4544 
 16007      00
 16008              	.LASF386:
 16009 25ec 4C565F45 		.ascii	"LV_EVENT_LONG_PRESSED\000"
 16009      56454E54 
 16009      5F4C4F4E 
 16009      475F5052 
 16009      45535345 
 16010              	.LASF501:
 16011 2602 6C765F63 		.ascii	"lv_color_mix\000"
 16011      6F6C6F72 
 16011      5F6D6978 
 16011      00
 16012              	.LASF14:
 16013 260f 756E7369 		.ascii	"unsigned int\000"
 16013      676E6564 
 16013      20696E74 
 16013      00
 16014              	.LASF161:
 16015 261c 4C565F53 		.ascii	"LV_STYLE_COLOR_FILTER_OPA\000"
 16015      54594C45 
 16015      5F434F4C 
 16015      4F525F46 
 16015      494C5445 
 16016              	.LASF545:
 16017 2636 6D69645F 		.ascii	"mid_dsc\000"
 16017      64736300 
 16018              	.LASF147:
 16019 263e 4C565F53 		.ascii	"LV_STYLE_ARC_WIDTH\000"
 16019      54594C45 
 16019      5F415243 
 16019      5F574944 
 16019      544800
 16020              	.LASF394:
 16021 2651 4C565F45 		.ascii	"LV_EVENT_KEY\000"
 16021      56454E54 
 16021      5F4B4559 
 16021      00
ARM GAS  C:\Users\haske\AppData\Local\Temp\ccXBxzcA.s 			page 350


 16022              	.LASF130:
 16023 265e 4C565F53 		.ascii	"LV_STYLE_OUTLINE_OPA\000"
 16023      54594C45 
 16023      5F4F5554 
 16023      4C494E45 
 16023      5F4F5041 
 16024              	.LASF575:
 16025 2673 4C565F53 		.ascii	"LV_STYLE_FLEX_TRACK_PLACE\000"
 16025      54594C45 
 16025      5F464C45 
 16025      585F5452 
 16025      41434B5F 
 16026              	.LASF205:
 16027 268d 736B6970 		.ascii	"skip_trans\000"
 16027      5F747261 
 16027      6E7300
 16028              	.LASF5:
 16029 2698 73686F72 		.ascii	"short int\000"
 16029      7420696E 
 16029      7400
 16030              	.LASF185:
 16031 26a2 636F6E73 		.ascii	"const_props\000"
 16031      745F7072 
 16031      6F707300 
 16032              	.LASF240:
 16033 26ae 73656C5F 		.ascii	"sel_bg_color\000"
 16033      62675F63 
 16033      6F6C6F72 
 16033      00
 16034              	.LASF376:
 16035 26bb 70726576 		.ascii	"prev\000"
 16035      00
 16036              	.LASF95:
 16037 26c0 4C565F53 		.ascii	"LV_STYLE_MIN_HEIGHT\000"
 16037      54594C45 
 16037      5F4D494E 
 16037      5F484549 
 16037      47485400 
 16038              	.LASF132:
 16039 26d4 4C565F53 		.ascii	"LV_STYLE_SHADOW_WIDTH\000"
 16039      54594C45 
 16039      5F534841 
 16039      444F575F 
 16039      57494454 
 16040              	.LASF198:
 16041 26ea 73706563 		.ascii	"spec_attr\000"
 16041      5F617474 
 16041      7200
 16042              	.LASF212:
 16043 26f4 62675F63 		.ascii	"bg_color\000"
 16043      6F6C6F72 
 16043      00
 16044              	.LASF530:
 16045 26fd 6C696E65 		.ascii	"line_color\000"
 16045      5F636F6C 
 16045      6F7200
 16046              	.LASF532:
ARM GAS  C:\Users\haske\AppData\Local\Temp\ccXBxzcA.s 			page 351


 16047 2708 6C696E65 		.ascii	"line_width_ori\000"
 16047      5F776964 
 16047      74685F6F 
 16047      726900
 16048              	.LASF201:
 16049 2717 666C6167 		.ascii	"flags\000"
 16049      7300
 16050              	.LASF209:
 16051 271d 72616469 		.ascii	"radius\000"
 16051      757300
 16052              	.LASF259:
 16053 2724 726F756E 		.ascii	"round_start\000"
 16053      645F7374 
 16053      61727400 
 16054              		.ident	"GCC: (GNU Tools for ARM Embedded Processors) 5.4.1 20160609 (release) [ARM/embedded-5-bran
