ARM GAS  C:\Users\haske\AppData\Local\Temp\ccZlstpN.s 			page 1


   1              		.syntax unified
   2              		.cpu cortex-m0plus
   3              		.fpu softvfp
   4              		.eabi_attribute 20, 1
   5              		.eabi_attribute 21, 1
   6              		.eabi_attribute 23, 3
   7              		.eabi_attribute 24, 1
   8              		.eabi_attribute 25, 1
   9              		.eabi_attribute 26, 1
  10              		.eabi_attribute 30, 1
  11              		.eabi_attribute 34, 0
  12              		.eabi_attribute 18, 4
  13              		.thumb
  14              		.syntax unified
  15              		.file	"lv_mem.c"
  16              		.text
  17              	.Ltext0:
  18              		.cfi_sections	.debug_frame
  19              		.section	.text.lv_mem_walker,"ax",%progbits
  20              		.align	2
  21              		.code	16
  22              		.thumb_func
  23              		.type	lv_mem_walker, %function
  24              	lv_mem_walker:
  25              	.LFB38:
  26              		.file 1 "..\\..\\..\\arduinoLCD\\test\\Pain Drain\\libraries\\lvgl\\src\\misc\\lv_mem.c"
   1:..\..\..\arduinoLCD\test\Pain Drain\libraries\lvgl\src\misc/lv_mem.c **** /**
   2:..\..\..\arduinoLCD\test\Pain Drain\libraries\lvgl\src\misc/lv_mem.c ****  * @file lv_mem.c
   3:..\..\..\arduinoLCD\test\Pain Drain\libraries\lvgl\src\misc/lv_mem.c ****  * General and portable implementation of malloc and free.
   4:..\..\..\arduinoLCD\test\Pain Drain\libraries\lvgl\src\misc/lv_mem.c ****  * The dynamic memory monitoring is also supported.
   5:..\..\..\arduinoLCD\test\Pain Drain\libraries\lvgl\src\misc/lv_mem.c ****  */
   6:..\..\..\arduinoLCD\test\Pain Drain\libraries\lvgl\src\misc/lv_mem.c **** 
   7:..\..\..\arduinoLCD\test\Pain Drain\libraries\lvgl\src\misc/lv_mem.c **** /*********************
   8:..\..\..\arduinoLCD\test\Pain Drain\libraries\lvgl\src\misc/lv_mem.c ****  *      INCLUDES
   9:..\..\..\arduinoLCD\test\Pain Drain\libraries\lvgl\src\misc/lv_mem.c ****  *********************/
  10:..\..\..\arduinoLCD\test\Pain Drain\libraries\lvgl\src\misc/lv_mem.c **** #include "lv_mem.h"
  11:..\..\..\arduinoLCD\test\Pain Drain\libraries\lvgl\src\misc/lv_mem.c **** #include "lv_tlsf.h"
  12:..\..\..\arduinoLCD\test\Pain Drain\libraries\lvgl\src\misc/lv_mem.c **** #include "lv_gc.h"
  13:..\..\..\arduinoLCD\test\Pain Drain\libraries\lvgl\src\misc/lv_mem.c **** #include "lv_assert.h"
  14:..\..\..\arduinoLCD\test\Pain Drain\libraries\lvgl\src\misc/lv_mem.c **** #include "lv_log.h"
  15:..\..\..\arduinoLCD\test\Pain Drain\libraries\lvgl\src\misc/lv_mem.c **** 
  16:..\..\..\arduinoLCD\test\Pain Drain\libraries\lvgl\src\misc/lv_mem.c **** #if LV_MEM_CUSTOM != 0
  17:..\..\..\arduinoLCD\test\Pain Drain\libraries\lvgl\src\misc/lv_mem.c ****     #include LV_MEM_CUSTOM_INCLUDE
  18:..\..\..\arduinoLCD\test\Pain Drain\libraries\lvgl\src\misc/lv_mem.c **** #endif
  19:..\..\..\arduinoLCD\test\Pain Drain\libraries\lvgl\src\misc/lv_mem.c **** 
  20:..\..\..\arduinoLCD\test\Pain Drain\libraries\lvgl\src\misc/lv_mem.c **** #ifdef LV_MEM_POOL_INCLUDE
  21:..\..\..\arduinoLCD\test\Pain Drain\libraries\lvgl\src\misc/lv_mem.c ****     #include LV_MEM_POOL_INCLUDE
  22:..\..\..\arduinoLCD\test\Pain Drain\libraries\lvgl\src\misc/lv_mem.c **** #endif
  23:..\..\..\arduinoLCD\test\Pain Drain\libraries\lvgl\src\misc/lv_mem.c **** 
  24:..\..\..\arduinoLCD\test\Pain Drain\libraries\lvgl\src\misc/lv_mem.c **** /*********************
  25:..\..\..\arduinoLCD\test\Pain Drain\libraries\lvgl\src\misc/lv_mem.c ****  *      DEFINES
  26:..\..\..\arduinoLCD\test\Pain Drain\libraries\lvgl\src\misc/lv_mem.c ****  *********************/
  27:..\..\..\arduinoLCD\test\Pain Drain\libraries\lvgl\src\misc/lv_mem.c **** /*memset the allocated memories to 0xaa and freed memories to 0xbb (just for testing purposes)*/
  28:..\..\..\arduinoLCD\test\Pain Drain\libraries\lvgl\src\misc/lv_mem.c **** #ifndef LV_MEM_ADD_JUNK
  29:..\..\..\arduinoLCD\test\Pain Drain\libraries\lvgl\src\misc/lv_mem.c ****     #define LV_MEM_ADD_JUNK  0
  30:..\..\..\arduinoLCD\test\Pain Drain\libraries\lvgl\src\misc/lv_mem.c **** #endif
  31:..\..\..\arduinoLCD\test\Pain Drain\libraries\lvgl\src\misc/lv_mem.c **** 
ARM GAS  C:\Users\haske\AppData\Local\Temp\ccZlstpN.s 			page 2


  32:..\..\..\arduinoLCD\test\Pain Drain\libraries\lvgl\src\misc/lv_mem.c **** #ifdef LV_ARCH_64
  33:..\..\..\arduinoLCD\test\Pain Drain\libraries\lvgl\src\misc/lv_mem.c ****     #define MEM_UNIT         uint64_t
  34:..\..\..\arduinoLCD\test\Pain Drain\libraries\lvgl\src\misc/lv_mem.c ****     #define ALIGN_MASK       0x7
  35:..\..\..\arduinoLCD\test\Pain Drain\libraries\lvgl\src\misc/lv_mem.c **** #else
  36:..\..\..\arduinoLCD\test\Pain Drain\libraries\lvgl\src\misc/lv_mem.c ****     #define MEM_UNIT         uint32_t
  37:..\..\..\arduinoLCD\test\Pain Drain\libraries\lvgl\src\misc/lv_mem.c ****     #define ALIGN_MASK       0x3
  38:..\..\..\arduinoLCD\test\Pain Drain\libraries\lvgl\src\misc/lv_mem.c **** #endif
  39:..\..\..\arduinoLCD\test\Pain Drain\libraries\lvgl\src\misc/lv_mem.c **** 
  40:..\..\..\arduinoLCD\test\Pain Drain\libraries\lvgl\src\misc/lv_mem.c **** #define ZERO_MEM_SENTINEL  0xa1b2c3d4
  41:..\..\..\arduinoLCD\test\Pain Drain\libraries\lvgl\src\misc/lv_mem.c **** 
  42:..\..\..\arduinoLCD\test\Pain Drain\libraries\lvgl\src\misc/lv_mem.c **** /**********************
  43:..\..\..\arduinoLCD\test\Pain Drain\libraries\lvgl\src\misc/lv_mem.c ****  *      TYPEDEFS
  44:..\..\..\arduinoLCD\test\Pain Drain\libraries\lvgl\src\misc/lv_mem.c ****  **********************/
  45:..\..\..\arduinoLCD\test\Pain Drain\libraries\lvgl\src\misc/lv_mem.c **** 
  46:..\..\..\arduinoLCD\test\Pain Drain\libraries\lvgl\src\misc/lv_mem.c **** /**********************
  47:..\..\..\arduinoLCD\test\Pain Drain\libraries\lvgl\src\misc/lv_mem.c ****  *  STATIC PROTOTYPES
  48:..\..\..\arduinoLCD\test\Pain Drain\libraries\lvgl\src\misc/lv_mem.c ****  **********************/
  49:..\..\..\arduinoLCD\test\Pain Drain\libraries\lvgl\src\misc/lv_mem.c **** #if LV_MEM_CUSTOM == 0
  50:..\..\..\arduinoLCD\test\Pain Drain\libraries\lvgl\src\misc/lv_mem.c ****     static void lv_mem_walker(void * ptr, size_t size, int used, void * user);
  51:..\..\..\arduinoLCD\test\Pain Drain\libraries\lvgl\src\misc/lv_mem.c **** #endif
  52:..\..\..\arduinoLCD\test\Pain Drain\libraries\lvgl\src\misc/lv_mem.c **** 
  53:..\..\..\arduinoLCD\test\Pain Drain\libraries\lvgl\src\misc/lv_mem.c **** /**********************
  54:..\..\..\arduinoLCD\test\Pain Drain\libraries\lvgl\src\misc/lv_mem.c ****  *  STATIC VARIABLES
  55:..\..\..\arduinoLCD\test\Pain Drain\libraries\lvgl\src\misc/lv_mem.c ****  **********************/
  56:..\..\..\arduinoLCD\test\Pain Drain\libraries\lvgl\src\misc/lv_mem.c **** #if LV_MEM_CUSTOM == 0
  57:..\..\..\arduinoLCD\test\Pain Drain\libraries\lvgl\src\misc/lv_mem.c ****     static lv_tlsf_t tlsf;
  58:..\..\..\arduinoLCD\test\Pain Drain\libraries\lvgl\src\misc/lv_mem.c ****     static uint32_t cur_used;
  59:..\..\..\arduinoLCD\test\Pain Drain\libraries\lvgl\src\misc/lv_mem.c ****     static uint32_t max_used;
  60:..\..\..\arduinoLCD\test\Pain Drain\libraries\lvgl\src\misc/lv_mem.c **** #endif
  61:..\..\..\arduinoLCD\test\Pain Drain\libraries\lvgl\src\misc/lv_mem.c **** 
  62:..\..\..\arduinoLCD\test\Pain Drain\libraries\lvgl\src\misc/lv_mem.c **** static uint32_t zero_mem = ZERO_MEM_SENTINEL; /*Give the address of this variable if 0 byte should 
  63:..\..\..\arduinoLCD\test\Pain Drain\libraries\lvgl\src\misc/lv_mem.c **** 
  64:..\..\..\arduinoLCD\test\Pain Drain\libraries\lvgl\src\misc/lv_mem.c **** /**********************
  65:..\..\..\arduinoLCD\test\Pain Drain\libraries\lvgl\src\misc/lv_mem.c ****  *      MACROS
  66:..\..\..\arduinoLCD\test\Pain Drain\libraries\lvgl\src\misc/lv_mem.c ****  **********************/
  67:..\..\..\arduinoLCD\test\Pain Drain\libraries\lvgl\src\misc/lv_mem.c **** #if LV_LOG_TRACE_MEM
  68:..\..\..\arduinoLCD\test\Pain Drain\libraries\lvgl\src\misc/lv_mem.c ****     #define MEM_TRACE(...) LV_LOG_TRACE(__VA_ARGS__)
  69:..\..\..\arduinoLCD\test\Pain Drain\libraries\lvgl\src\misc/lv_mem.c **** #else
  70:..\..\..\arduinoLCD\test\Pain Drain\libraries\lvgl\src\misc/lv_mem.c ****     #define MEM_TRACE(...)
  71:..\..\..\arduinoLCD\test\Pain Drain\libraries\lvgl\src\misc/lv_mem.c **** #endif
  72:..\..\..\arduinoLCD\test\Pain Drain\libraries\lvgl\src\misc/lv_mem.c **** 
  73:..\..\..\arduinoLCD\test\Pain Drain\libraries\lvgl\src\misc/lv_mem.c **** #define COPY32 *d32 = *s32; d32++; s32++;
  74:..\..\..\arduinoLCD\test\Pain Drain\libraries\lvgl\src\misc/lv_mem.c **** #define COPY8 *d8 = *s8; d8++; s8++;
  75:..\..\..\arduinoLCD\test\Pain Drain\libraries\lvgl\src\misc/lv_mem.c **** #define SET32(x) *d32 = x; d32++;
  76:..\..\..\arduinoLCD\test\Pain Drain\libraries\lvgl\src\misc/lv_mem.c **** #define SET8(x) *d8 = x; d8++;
  77:..\..\..\arduinoLCD\test\Pain Drain\libraries\lvgl\src\misc/lv_mem.c **** #define REPEAT8(expr) expr expr expr expr expr expr expr expr
  78:..\..\..\arduinoLCD\test\Pain Drain\libraries\lvgl\src\misc/lv_mem.c **** 
  79:..\..\..\arduinoLCD\test\Pain Drain\libraries\lvgl\src\misc/lv_mem.c **** /**********************
  80:..\..\..\arduinoLCD\test\Pain Drain\libraries\lvgl\src\misc/lv_mem.c ****  *   GLOBAL FUNCTIONS
  81:..\..\..\arduinoLCD\test\Pain Drain\libraries\lvgl\src\misc/lv_mem.c ****  **********************/
  82:..\..\..\arduinoLCD\test\Pain Drain\libraries\lvgl\src\misc/lv_mem.c **** 
  83:..\..\..\arduinoLCD\test\Pain Drain\libraries\lvgl\src\misc/lv_mem.c **** /**
  84:..\..\..\arduinoLCD\test\Pain Drain\libraries\lvgl\src\misc/lv_mem.c ****  * Initialize the dyn_mem module (work memory and other variables)
  85:..\..\..\arduinoLCD\test\Pain Drain\libraries\lvgl\src\misc/lv_mem.c ****  */
  86:..\..\..\arduinoLCD\test\Pain Drain\libraries\lvgl\src\misc/lv_mem.c **** void lv_mem_init(void)
  87:..\..\..\arduinoLCD\test\Pain Drain\libraries\lvgl\src\misc/lv_mem.c **** {
  88:..\..\..\arduinoLCD\test\Pain Drain\libraries\lvgl\src\misc/lv_mem.c **** #if LV_MEM_CUSTOM == 0
ARM GAS  C:\Users\haske\AppData\Local\Temp\ccZlstpN.s 			page 3


  89:..\..\..\arduinoLCD\test\Pain Drain\libraries\lvgl\src\misc/lv_mem.c **** 
  90:..\..\..\arduinoLCD\test\Pain Drain\libraries\lvgl\src\misc/lv_mem.c **** #if LV_MEM_ADR == 0
  91:..\..\..\arduinoLCD\test\Pain Drain\libraries\lvgl\src\misc/lv_mem.c **** #ifdef LV_MEM_POOL_ALLOC
  92:..\..\..\arduinoLCD\test\Pain Drain\libraries\lvgl\src\misc/lv_mem.c ****     tlsf = lv_tlsf_create_with_pool((void *)LV_MEM_POOL_ALLOC(LV_MEM_SIZE), LV_MEM_SIZE);
  93:..\..\..\arduinoLCD\test\Pain Drain\libraries\lvgl\src\misc/lv_mem.c **** #else
  94:..\..\..\arduinoLCD\test\Pain Drain\libraries\lvgl\src\misc/lv_mem.c ****     /*Allocate a large array to store the dynamically allocated data*/
  95:..\..\..\arduinoLCD\test\Pain Drain\libraries\lvgl\src\misc/lv_mem.c ****     static LV_ATTRIBUTE_LARGE_RAM_ARRAY MEM_UNIT work_mem_int[LV_MEM_SIZE / sizeof(MEM_UNIT)];
  96:..\..\..\arduinoLCD\test\Pain Drain\libraries\lvgl\src\misc/lv_mem.c ****     tlsf = lv_tlsf_create_with_pool((void *)work_mem_int, LV_MEM_SIZE);
  97:..\..\..\arduinoLCD\test\Pain Drain\libraries\lvgl\src\misc/lv_mem.c **** #endif
  98:..\..\..\arduinoLCD\test\Pain Drain\libraries\lvgl\src\misc/lv_mem.c **** #else
  99:..\..\..\arduinoLCD\test\Pain Drain\libraries\lvgl\src\misc/lv_mem.c ****     tlsf = lv_tlsf_create_with_pool((void *)LV_MEM_ADR, LV_MEM_SIZE);
 100:..\..\..\arduinoLCD\test\Pain Drain\libraries\lvgl\src\misc/lv_mem.c **** #endif
 101:..\..\..\arduinoLCD\test\Pain Drain\libraries\lvgl\src\misc/lv_mem.c **** #endif
 102:..\..\..\arduinoLCD\test\Pain Drain\libraries\lvgl\src\misc/lv_mem.c **** 
 103:..\..\..\arduinoLCD\test\Pain Drain\libraries\lvgl\src\misc/lv_mem.c **** #if LV_MEM_ADD_JUNK
 104:..\..\..\arduinoLCD\test\Pain Drain\libraries\lvgl\src\misc/lv_mem.c ****     LV_LOG_WARN("LV_MEM_ADD_JUNK is enabled which makes LVGL much slower");
 105:..\..\..\arduinoLCD\test\Pain Drain\libraries\lvgl\src\misc/lv_mem.c **** #endif
 106:..\..\..\arduinoLCD\test\Pain Drain\libraries\lvgl\src\misc/lv_mem.c **** }
 107:..\..\..\arduinoLCD\test\Pain Drain\libraries\lvgl\src\misc/lv_mem.c **** 
 108:..\..\..\arduinoLCD\test\Pain Drain\libraries\lvgl\src\misc/lv_mem.c **** /**
 109:..\..\..\arduinoLCD\test\Pain Drain\libraries\lvgl\src\misc/lv_mem.c ****  * Clean up the memory buffer which frees all the allocated memories.
 110:..\..\..\arduinoLCD\test\Pain Drain\libraries\lvgl\src\misc/lv_mem.c ****  * @note It work only if `LV_MEM_CUSTOM == 0`
 111:..\..\..\arduinoLCD\test\Pain Drain\libraries\lvgl\src\misc/lv_mem.c ****  */
 112:..\..\..\arduinoLCD\test\Pain Drain\libraries\lvgl\src\misc/lv_mem.c **** void lv_mem_deinit(void)
 113:..\..\..\arduinoLCD\test\Pain Drain\libraries\lvgl\src\misc/lv_mem.c **** {
 114:..\..\..\arduinoLCD\test\Pain Drain\libraries\lvgl\src\misc/lv_mem.c **** #if LV_MEM_CUSTOM == 0
 115:..\..\..\arduinoLCD\test\Pain Drain\libraries\lvgl\src\misc/lv_mem.c ****     lv_tlsf_destroy(tlsf);
 116:..\..\..\arduinoLCD\test\Pain Drain\libraries\lvgl\src\misc/lv_mem.c ****     lv_mem_init();
 117:..\..\..\arduinoLCD\test\Pain Drain\libraries\lvgl\src\misc/lv_mem.c **** #endif
 118:..\..\..\arduinoLCD\test\Pain Drain\libraries\lvgl\src\misc/lv_mem.c **** }
 119:..\..\..\arduinoLCD\test\Pain Drain\libraries\lvgl\src\misc/lv_mem.c **** 
 120:..\..\..\arduinoLCD\test\Pain Drain\libraries\lvgl\src\misc/lv_mem.c **** /**
 121:..\..\..\arduinoLCD\test\Pain Drain\libraries\lvgl\src\misc/lv_mem.c ****  * Allocate a memory dynamically
 122:..\..\..\arduinoLCD\test\Pain Drain\libraries\lvgl\src\misc/lv_mem.c ****  * @param size size of the memory to allocate in bytes
 123:..\..\..\arduinoLCD\test\Pain Drain\libraries\lvgl\src\misc/lv_mem.c ****  * @return pointer to the allocated memory
 124:..\..\..\arduinoLCD\test\Pain Drain\libraries\lvgl\src\misc/lv_mem.c ****  */
 125:..\..\..\arduinoLCD\test\Pain Drain\libraries\lvgl\src\misc/lv_mem.c **** void * lv_mem_alloc(size_t size)
 126:..\..\..\arduinoLCD\test\Pain Drain\libraries\lvgl\src\misc/lv_mem.c **** {
 127:..\..\..\arduinoLCD\test\Pain Drain\libraries\lvgl\src\misc/lv_mem.c ****     MEM_TRACE("allocating %lu bytes", (unsigned long)size);
 128:..\..\..\arduinoLCD\test\Pain Drain\libraries\lvgl\src\misc/lv_mem.c ****     if(size == 0) {
 129:..\..\..\arduinoLCD\test\Pain Drain\libraries\lvgl\src\misc/lv_mem.c ****         MEM_TRACE("using zero_mem");
 130:..\..\..\arduinoLCD\test\Pain Drain\libraries\lvgl\src\misc/lv_mem.c ****         return &zero_mem;
 131:..\..\..\arduinoLCD\test\Pain Drain\libraries\lvgl\src\misc/lv_mem.c ****     }
 132:..\..\..\arduinoLCD\test\Pain Drain\libraries\lvgl\src\misc/lv_mem.c **** 
 133:..\..\..\arduinoLCD\test\Pain Drain\libraries\lvgl\src\misc/lv_mem.c **** #if LV_MEM_CUSTOM == 0
 134:..\..\..\arduinoLCD\test\Pain Drain\libraries\lvgl\src\misc/lv_mem.c ****     void * alloc = lv_tlsf_malloc(tlsf, size);
 135:..\..\..\arduinoLCD\test\Pain Drain\libraries\lvgl\src\misc/lv_mem.c **** #else
 136:..\..\..\arduinoLCD\test\Pain Drain\libraries\lvgl\src\misc/lv_mem.c ****     void * alloc = LV_MEM_CUSTOM_ALLOC(size);
 137:..\..\..\arduinoLCD\test\Pain Drain\libraries\lvgl\src\misc/lv_mem.c **** #endif
 138:..\..\..\arduinoLCD\test\Pain Drain\libraries\lvgl\src\misc/lv_mem.c **** 
 139:..\..\..\arduinoLCD\test\Pain Drain\libraries\lvgl\src\misc/lv_mem.c ****     if(alloc == NULL) {
 140:..\..\..\arduinoLCD\test\Pain Drain\libraries\lvgl\src\misc/lv_mem.c ****         LV_LOG_INFO("couldn't allocate memory (%lu bytes)", (unsigned long)size);
 141:..\..\..\arduinoLCD\test\Pain Drain\libraries\lvgl\src\misc/lv_mem.c **** #if LV_LOG_LEVEL <= LV_LOG_LEVEL_INFO
 142:..\..\..\arduinoLCD\test\Pain Drain\libraries\lvgl\src\misc/lv_mem.c ****         lv_mem_monitor_t mon;
 143:..\..\..\arduinoLCD\test\Pain Drain\libraries\lvgl\src\misc/lv_mem.c ****         lv_mem_monitor(&mon);
 144:..\..\..\arduinoLCD\test\Pain Drain\libraries\lvgl\src\misc/lv_mem.c ****         LV_LOG_INFO("used: %6d (%3d %%), frag: %3d %%, biggest free: %6d",
 145:..\..\..\arduinoLCD\test\Pain Drain\libraries\lvgl\src\misc/lv_mem.c ****                     (int)(mon.total_size - mon.free_size), mon.used_pct, mon.frag_pct,
ARM GAS  C:\Users\haske\AppData\Local\Temp\ccZlstpN.s 			page 4


 146:..\..\..\arduinoLCD\test\Pain Drain\libraries\lvgl\src\misc/lv_mem.c ****                     (int)mon.free_biggest_size);
 147:..\..\..\arduinoLCD\test\Pain Drain\libraries\lvgl\src\misc/lv_mem.c **** #endif
 148:..\..\..\arduinoLCD\test\Pain Drain\libraries\lvgl\src\misc/lv_mem.c ****     }
 149:..\..\..\arduinoLCD\test\Pain Drain\libraries\lvgl\src\misc/lv_mem.c **** #if LV_MEM_ADD_JUNK
 150:..\..\..\arduinoLCD\test\Pain Drain\libraries\lvgl\src\misc/lv_mem.c ****     else {
 151:..\..\..\arduinoLCD\test\Pain Drain\libraries\lvgl\src\misc/lv_mem.c ****         lv_memset(alloc, 0xaa, size);
 152:..\..\..\arduinoLCD\test\Pain Drain\libraries\lvgl\src\misc/lv_mem.c ****     }
 153:..\..\..\arduinoLCD\test\Pain Drain\libraries\lvgl\src\misc/lv_mem.c **** #endif
 154:..\..\..\arduinoLCD\test\Pain Drain\libraries\lvgl\src\misc/lv_mem.c **** 
 155:..\..\..\arduinoLCD\test\Pain Drain\libraries\lvgl\src\misc/lv_mem.c ****     if(alloc) {
 156:..\..\..\arduinoLCD\test\Pain Drain\libraries\lvgl\src\misc/lv_mem.c **** #if LV_MEM_CUSTOM == 0
 157:..\..\..\arduinoLCD\test\Pain Drain\libraries\lvgl\src\misc/lv_mem.c ****         cur_used += size;
 158:..\..\..\arduinoLCD\test\Pain Drain\libraries\lvgl\src\misc/lv_mem.c ****         max_used = LV_MAX(cur_used, max_used);
 159:..\..\..\arduinoLCD\test\Pain Drain\libraries\lvgl\src\misc/lv_mem.c **** #endif
 160:..\..\..\arduinoLCD\test\Pain Drain\libraries\lvgl\src\misc/lv_mem.c ****         MEM_TRACE("allocated at %p", alloc);
 161:..\..\..\arduinoLCD\test\Pain Drain\libraries\lvgl\src\misc/lv_mem.c ****     }
 162:..\..\..\arduinoLCD\test\Pain Drain\libraries\lvgl\src\misc/lv_mem.c ****     return alloc;
 163:..\..\..\arduinoLCD\test\Pain Drain\libraries\lvgl\src\misc/lv_mem.c **** }
 164:..\..\..\arduinoLCD\test\Pain Drain\libraries\lvgl\src\misc/lv_mem.c **** 
 165:..\..\..\arduinoLCD\test\Pain Drain\libraries\lvgl\src\misc/lv_mem.c **** /**
 166:..\..\..\arduinoLCD\test\Pain Drain\libraries\lvgl\src\misc/lv_mem.c ****  * Free an allocated data
 167:..\..\..\arduinoLCD\test\Pain Drain\libraries\lvgl\src\misc/lv_mem.c ****  * @param data pointer to an allocated memory
 168:..\..\..\arduinoLCD\test\Pain Drain\libraries\lvgl\src\misc/lv_mem.c ****  */
 169:..\..\..\arduinoLCD\test\Pain Drain\libraries\lvgl\src\misc/lv_mem.c **** void lv_mem_free(void * data)
 170:..\..\..\arduinoLCD\test\Pain Drain\libraries\lvgl\src\misc/lv_mem.c **** {
 171:..\..\..\arduinoLCD\test\Pain Drain\libraries\lvgl\src\misc/lv_mem.c ****     MEM_TRACE("freeing %p", data);
 172:..\..\..\arduinoLCD\test\Pain Drain\libraries\lvgl\src\misc/lv_mem.c ****     if(data == &zero_mem) return;
 173:..\..\..\arduinoLCD\test\Pain Drain\libraries\lvgl\src\misc/lv_mem.c ****     if(data == NULL) return;
 174:..\..\..\arduinoLCD\test\Pain Drain\libraries\lvgl\src\misc/lv_mem.c **** 
 175:..\..\..\arduinoLCD\test\Pain Drain\libraries\lvgl\src\misc/lv_mem.c **** #if LV_MEM_CUSTOM == 0
 176:..\..\..\arduinoLCD\test\Pain Drain\libraries\lvgl\src\misc/lv_mem.c **** #  if LV_MEM_ADD_JUNK
 177:..\..\..\arduinoLCD\test\Pain Drain\libraries\lvgl\src\misc/lv_mem.c ****     lv_memset(data, 0xbb, lv_tlsf_block_size(data));
 178:..\..\..\arduinoLCD\test\Pain Drain\libraries\lvgl\src\misc/lv_mem.c **** #  endif
 179:..\..\..\arduinoLCD\test\Pain Drain\libraries\lvgl\src\misc/lv_mem.c ****     size_t size = lv_tlsf_free(tlsf, data);
 180:..\..\..\arduinoLCD\test\Pain Drain\libraries\lvgl\src\misc/lv_mem.c ****     if(cur_used > size) cur_used -= size;
 181:..\..\..\arduinoLCD\test\Pain Drain\libraries\lvgl\src\misc/lv_mem.c ****     else cur_used = 0;
 182:..\..\..\arduinoLCD\test\Pain Drain\libraries\lvgl\src\misc/lv_mem.c **** #else
 183:..\..\..\arduinoLCD\test\Pain Drain\libraries\lvgl\src\misc/lv_mem.c ****     LV_MEM_CUSTOM_FREE(data);
 184:..\..\..\arduinoLCD\test\Pain Drain\libraries\lvgl\src\misc/lv_mem.c **** #endif
 185:..\..\..\arduinoLCD\test\Pain Drain\libraries\lvgl\src\misc/lv_mem.c **** }
 186:..\..\..\arduinoLCD\test\Pain Drain\libraries\lvgl\src\misc/lv_mem.c **** 
 187:..\..\..\arduinoLCD\test\Pain Drain\libraries\lvgl\src\misc/lv_mem.c **** /**
 188:..\..\..\arduinoLCD\test\Pain Drain\libraries\lvgl\src\misc/lv_mem.c ****  * Reallocate a memory with a new size. The old content will be kept.
 189:..\..\..\arduinoLCD\test\Pain Drain\libraries\lvgl\src\misc/lv_mem.c ****  * @param data pointer to an allocated memory.
 190:..\..\..\arduinoLCD\test\Pain Drain\libraries\lvgl\src\misc/lv_mem.c ****  * Its content will be copied to the new memory block and freed
 191:..\..\..\arduinoLCD\test\Pain Drain\libraries\lvgl\src\misc/lv_mem.c ****  * @param new_size the desired new size in byte
 192:..\..\..\arduinoLCD\test\Pain Drain\libraries\lvgl\src\misc/lv_mem.c ****  * @return pointer to the new memory
 193:..\..\..\arduinoLCD\test\Pain Drain\libraries\lvgl\src\misc/lv_mem.c ****  */
 194:..\..\..\arduinoLCD\test\Pain Drain\libraries\lvgl\src\misc/lv_mem.c **** void * lv_mem_realloc(void * data_p, size_t new_size)
 195:..\..\..\arduinoLCD\test\Pain Drain\libraries\lvgl\src\misc/lv_mem.c **** {
 196:..\..\..\arduinoLCD\test\Pain Drain\libraries\lvgl\src\misc/lv_mem.c ****     MEM_TRACE("reallocating %p with %lu size", data_p, (unsigned long)new_size);
 197:..\..\..\arduinoLCD\test\Pain Drain\libraries\lvgl\src\misc/lv_mem.c ****     if(new_size == 0) {
 198:..\..\..\arduinoLCD\test\Pain Drain\libraries\lvgl\src\misc/lv_mem.c ****         MEM_TRACE("using zero_mem");
 199:..\..\..\arduinoLCD\test\Pain Drain\libraries\lvgl\src\misc/lv_mem.c ****         lv_mem_free(data_p);
 200:..\..\..\arduinoLCD\test\Pain Drain\libraries\lvgl\src\misc/lv_mem.c ****         return &zero_mem;
 201:..\..\..\arduinoLCD\test\Pain Drain\libraries\lvgl\src\misc/lv_mem.c ****     }
 202:..\..\..\arduinoLCD\test\Pain Drain\libraries\lvgl\src\misc/lv_mem.c **** 
ARM GAS  C:\Users\haske\AppData\Local\Temp\ccZlstpN.s 			page 5


 203:..\..\..\arduinoLCD\test\Pain Drain\libraries\lvgl\src\misc/lv_mem.c ****     if(data_p == &zero_mem) return lv_mem_alloc(new_size);
 204:..\..\..\arduinoLCD\test\Pain Drain\libraries\lvgl\src\misc/lv_mem.c **** 
 205:..\..\..\arduinoLCD\test\Pain Drain\libraries\lvgl\src\misc/lv_mem.c **** #if LV_MEM_CUSTOM == 0
 206:..\..\..\arduinoLCD\test\Pain Drain\libraries\lvgl\src\misc/lv_mem.c ****     void * new_p = lv_tlsf_realloc(tlsf, data_p, new_size);
 207:..\..\..\arduinoLCD\test\Pain Drain\libraries\lvgl\src\misc/lv_mem.c **** #else
 208:..\..\..\arduinoLCD\test\Pain Drain\libraries\lvgl\src\misc/lv_mem.c ****     void * new_p = LV_MEM_CUSTOM_REALLOC(data_p, new_size);
 209:..\..\..\arduinoLCD\test\Pain Drain\libraries\lvgl\src\misc/lv_mem.c **** #endif
 210:..\..\..\arduinoLCD\test\Pain Drain\libraries\lvgl\src\misc/lv_mem.c ****     if(new_p == NULL) {
 211:..\..\..\arduinoLCD\test\Pain Drain\libraries\lvgl\src\misc/lv_mem.c ****         LV_LOG_ERROR("couldn't allocate memory");
 212:..\..\..\arduinoLCD\test\Pain Drain\libraries\lvgl\src\misc/lv_mem.c ****         return NULL;
 213:..\..\..\arduinoLCD\test\Pain Drain\libraries\lvgl\src\misc/lv_mem.c ****     }
 214:..\..\..\arduinoLCD\test\Pain Drain\libraries\lvgl\src\misc/lv_mem.c **** 
 215:..\..\..\arduinoLCD\test\Pain Drain\libraries\lvgl\src\misc/lv_mem.c ****     MEM_TRACE("allocated at %p", new_p);
 216:..\..\..\arduinoLCD\test\Pain Drain\libraries\lvgl\src\misc/lv_mem.c ****     return new_p;
 217:..\..\..\arduinoLCD\test\Pain Drain\libraries\lvgl\src\misc/lv_mem.c **** }
 218:..\..\..\arduinoLCD\test\Pain Drain\libraries\lvgl\src\misc/lv_mem.c **** 
 219:..\..\..\arduinoLCD\test\Pain Drain\libraries\lvgl\src\misc/lv_mem.c **** lv_res_t lv_mem_test(void)
 220:..\..\..\arduinoLCD\test\Pain Drain\libraries\lvgl\src\misc/lv_mem.c **** {
 221:..\..\..\arduinoLCD\test\Pain Drain\libraries\lvgl\src\misc/lv_mem.c ****     if(zero_mem != ZERO_MEM_SENTINEL) {
 222:..\..\..\arduinoLCD\test\Pain Drain\libraries\lvgl\src\misc/lv_mem.c ****         LV_LOG_WARN("zero_mem is written");
 223:..\..\..\arduinoLCD\test\Pain Drain\libraries\lvgl\src\misc/lv_mem.c ****         return LV_RES_INV;
 224:..\..\..\arduinoLCD\test\Pain Drain\libraries\lvgl\src\misc/lv_mem.c ****     }
 225:..\..\..\arduinoLCD\test\Pain Drain\libraries\lvgl\src\misc/lv_mem.c **** 
 226:..\..\..\arduinoLCD\test\Pain Drain\libraries\lvgl\src\misc/lv_mem.c **** #if LV_MEM_CUSTOM == 0
 227:..\..\..\arduinoLCD\test\Pain Drain\libraries\lvgl\src\misc/lv_mem.c ****     if(lv_tlsf_check(tlsf)) {
 228:..\..\..\arduinoLCD\test\Pain Drain\libraries\lvgl\src\misc/lv_mem.c ****         LV_LOG_WARN("failed");
 229:..\..\..\arduinoLCD\test\Pain Drain\libraries\lvgl\src\misc/lv_mem.c ****         return LV_RES_INV;
 230:..\..\..\arduinoLCD\test\Pain Drain\libraries\lvgl\src\misc/lv_mem.c ****     }
 231:..\..\..\arduinoLCD\test\Pain Drain\libraries\lvgl\src\misc/lv_mem.c **** 
 232:..\..\..\arduinoLCD\test\Pain Drain\libraries\lvgl\src\misc/lv_mem.c ****     if(lv_tlsf_check_pool(lv_tlsf_get_pool(tlsf))) {
 233:..\..\..\arduinoLCD\test\Pain Drain\libraries\lvgl\src\misc/lv_mem.c ****         LV_LOG_WARN("pool failed");
 234:..\..\..\arduinoLCD\test\Pain Drain\libraries\lvgl\src\misc/lv_mem.c ****         return LV_RES_INV;
 235:..\..\..\arduinoLCD\test\Pain Drain\libraries\lvgl\src\misc/lv_mem.c ****     }
 236:..\..\..\arduinoLCD\test\Pain Drain\libraries\lvgl\src\misc/lv_mem.c **** #endif
 237:..\..\..\arduinoLCD\test\Pain Drain\libraries\lvgl\src\misc/lv_mem.c ****     MEM_TRACE("passed");
 238:..\..\..\arduinoLCD\test\Pain Drain\libraries\lvgl\src\misc/lv_mem.c ****     return LV_RES_OK;
 239:..\..\..\arduinoLCD\test\Pain Drain\libraries\lvgl\src\misc/lv_mem.c **** }
 240:..\..\..\arduinoLCD\test\Pain Drain\libraries\lvgl\src\misc/lv_mem.c **** 
 241:..\..\..\arduinoLCD\test\Pain Drain\libraries\lvgl\src\misc/lv_mem.c **** /**
 242:..\..\..\arduinoLCD\test\Pain Drain\libraries\lvgl\src\misc/lv_mem.c ****  * Give information about the work memory of dynamic allocation
 243:..\..\..\arduinoLCD\test\Pain Drain\libraries\lvgl\src\misc/lv_mem.c ****  * @param mon_p pointer to a lv_mem_monitor_t variable,
 244:..\..\..\arduinoLCD\test\Pain Drain\libraries\lvgl\src\misc/lv_mem.c ****  *              the result of the analysis will be stored here
 245:..\..\..\arduinoLCD\test\Pain Drain\libraries\lvgl\src\misc/lv_mem.c ****  */
 246:..\..\..\arduinoLCD\test\Pain Drain\libraries\lvgl\src\misc/lv_mem.c **** void lv_mem_monitor(lv_mem_monitor_t * mon_p)
 247:..\..\..\arduinoLCD\test\Pain Drain\libraries\lvgl\src\misc/lv_mem.c **** {
 248:..\..\..\arduinoLCD\test\Pain Drain\libraries\lvgl\src\misc/lv_mem.c ****     /*Init the data*/
 249:..\..\..\arduinoLCD\test\Pain Drain\libraries\lvgl\src\misc/lv_mem.c ****     lv_memset(mon_p, 0, sizeof(lv_mem_monitor_t));
 250:..\..\..\arduinoLCD\test\Pain Drain\libraries\lvgl\src\misc/lv_mem.c **** #if LV_MEM_CUSTOM == 0
 251:..\..\..\arduinoLCD\test\Pain Drain\libraries\lvgl\src\misc/lv_mem.c ****     MEM_TRACE("begin");
 252:..\..\..\arduinoLCD\test\Pain Drain\libraries\lvgl\src\misc/lv_mem.c **** 
 253:..\..\..\arduinoLCD\test\Pain Drain\libraries\lvgl\src\misc/lv_mem.c ****     lv_tlsf_walk_pool(lv_tlsf_get_pool(tlsf), lv_mem_walker, mon_p);
 254:..\..\..\arduinoLCD\test\Pain Drain\libraries\lvgl\src\misc/lv_mem.c **** 
 255:..\..\..\arduinoLCD\test\Pain Drain\libraries\lvgl\src\misc/lv_mem.c ****     mon_p->total_size = LV_MEM_SIZE;
 256:..\..\..\arduinoLCD\test\Pain Drain\libraries\lvgl\src\misc/lv_mem.c ****     mon_p->used_pct = 100 - (100U * mon_p->free_size) / mon_p->total_size;
 257:..\..\..\arduinoLCD\test\Pain Drain\libraries\lvgl\src\misc/lv_mem.c ****     if(mon_p->free_size > 0) {
 258:..\..\..\arduinoLCD\test\Pain Drain\libraries\lvgl\src\misc/lv_mem.c ****         mon_p->frag_pct = mon_p->free_biggest_size * 100U / mon_p->free_size;
 259:..\..\..\arduinoLCD\test\Pain Drain\libraries\lvgl\src\misc/lv_mem.c ****         mon_p->frag_pct = 100 - mon_p->frag_pct;
ARM GAS  C:\Users\haske\AppData\Local\Temp\ccZlstpN.s 			page 6


 260:..\..\..\arduinoLCD\test\Pain Drain\libraries\lvgl\src\misc/lv_mem.c ****     }
 261:..\..\..\arduinoLCD\test\Pain Drain\libraries\lvgl\src\misc/lv_mem.c ****     else {
 262:..\..\..\arduinoLCD\test\Pain Drain\libraries\lvgl\src\misc/lv_mem.c ****         mon_p->frag_pct = 0; /*no fragmentation if all the RAM is used*/
 263:..\..\..\arduinoLCD\test\Pain Drain\libraries\lvgl\src\misc/lv_mem.c ****     }
 264:..\..\..\arduinoLCD\test\Pain Drain\libraries\lvgl\src\misc/lv_mem.c **** 
 265:..\..\..\arduinoLCD\test\Pain Drain\libraries\lvgl\src\misc/lv_mem.c ****     mon_p->max_used = max_used;
 266:..\..\..\arduinoLCD\test\Pain Drain\libraries\lvgl\src\misc/lv_mem.c **** 
 267:..\..\..\arduinoLCD\test\Pain Drain\libraries\lvgl\src\misc/lv_mem.c ****     MEM_TRACE("finished");
 268:..\..\..\arduinoLCD\test\Pain Drain\libraries\lvgl\src\misc/lv_mem.c **** #endif
 269:..\..\..\arduinoLCD\test\Pain Drain\libraries\lvgl\src\misc/lv_mem.c **** }
 270:..\..\..\arduinoLCD\test\Pain Drain\libraries\lvgl\src\misc/lv_mem.c **** 
 271:..\..\..\arduinoLCD\test\Pain Drain\libraries\lvgl\src\misc/lv_mem.c **** 
 272:..\..\..\arduinoLCD\test\Pain Drain\libraries\lvgl\src\misc/lv_mem.c **** /**
 273:..\..\..\arduinoLCD\test\Pain Drain\libraries\lvgl\src\misc/lv_mem.c ****  * Get a temporal buffer with the given size.
 274:..\..\..\arduinoLCD\test\Pain Drain\libraries\lvgl\src\misc/lv_mem.c ****  * @param size the required size
 275:..\..\..\arduinoLCD\test\Pain Drain\libraries\lvgl\src\misc/lv_mem.c ****  */
 276:..\..\..\arduinoLCD\test\Pain Drain\libraries\lvgl\src\misc/lv_mem.c **** void * lv_mem_buf_get(uint32_t size)
 277:..\..\..\arduinoLCD\test\Pain Drain\libraries\lvgl\src\misc/lv_mem.c **** {
 278:..\..\..\arduinoLCD\test\Pain Drain\libraries\lvgl\src\misc/lv_mem.c ****     if(size == 0) return NULL;
 279:..\..\..\arduinoLCD\test\Pain Drain\libraries\lvgl\src\misc/lv_mem.c **** 
 280:..\..\..\arduinoLCD\test\Pain Drain\libraries\lvgl\src\misc/lv_mem.c ****     MEM_TRACE("begin, getting %d bytes", size);
 281:..\..\..\arduinoLCD\test\Pain Drain\libraries\lvgl\src\misc/lv_mem.c **** 
 282:..\..\..\arduinoLCD\test\Pain Drain\libraries\lvgl\src\misc/lv_mem.c ****     /*Try to find a free buffer with suitable size*/
 283:..\..\..\arduinoLCD\test\Pain Drain\libraries\lvgl\src\misc/lv_mem.c ****     int8_t i_guess = -1;
 284:..\..\..\arduinoLCD\test\Pain Drain\libraries\lvgl\src\misc/lv_mem.c ****     for(uint8_t i = 0; i < LV_MEM_BUF_MAX_NUM; i++) {
 285:..\..\..\arduinoLCD\test\Pain Drain\libraries\lvgl\src\misc/lv_mem.c ****         if(LV_GC_ROOT(lv_mem_buf[i]).used == 0 && LV_GC_ROOT(lv_mem_buf[i]).size >= size) {
 286:..\..\..\arduinoLCD\test\Pain Drain\libraries\lvgl\src\misc/lv_mem.c ****             if(LV_GC_ROOT(lv_mem_buf[i]).size == size) {
 287:..\..\..\arduinoLCD\test\Pain Drain\libraries\lvgl\src\misc/lv_mem.c ****                 LV_GC_ROOT(lv_mem_buf[i]).used = 1;
 288:..\..\..\arduinoLCD\test\Pain Drain\libraries\lvgl\src\misc/lv_mem.c ****                 return LV_GC_ROOT(lv_mem_buf[i]).p;
 289:..\..\..\arduinoLCD\test\Pain Drain\libraries\lvgl\src\misc/lv_mem.c ****             }
 290:..\..\..\arduinoLCD\test\Pain Drain\libraries\lvgl\src\misc/lv_mem.c ****             else if(i_guess < 0) {
 291:..\..\..\arduinoLCD\test\Pain Drain\libraries\lvgl\src\misc/lv_mem.c ****                 i_guess = i;
 292:..\..\..\arduinoLCD\test\Pain Drain\libraries\lvgl\src\misc/lv_mem.c ****             }
 293:..\..\..\arduinoLCD\test\Pain Drain\libraries\lvgl\src\misc/lv_mem.c ****             /*If size of `i` is closer to `size` prefer it*/
 294:..\..\..\arduinoLCD\test\Pain Drain\libraries\lvgl\src\misc/lv_mem.c ****             else if(LV_GC_ROOT(lv_mem_buf[i]).size < LV_GC_ROOT(lv_mem_buf[i_guess]).size) {
 295:..\..\..\arduinoLCD\test\Pain Drain\libraries\lvgl\src\misc/lv_mem.c ****                 i_guess = i;
 296:..\..\..\arduinoLCD\test\Pain Drain\libraries\lvgl\src\misc/lv_mem.c ****             }
 297:..\..\..\arduinoLCD\test\Pain Drain\libraries\lvgl\src\misc/lv_mem.c ****         }
 298:..\..\..\arduinoLCD\test\Pain Drain\libraries\lvgl\src\misc/lv_mem.c ****     }
 299:..\..\..\arduinoLCD\test\Pain Drain\libraries\lvgl\src\misc/lv_mem.c **** 
 300:..\..\..\arduinoLCD\test\Pain Drain\libraries\lvgl\src\misc/lv_mem.c ****     if(i_guess >= 0) {
 301:..\..\..\arduinoLCD\test\Pain Drain\libraries\lvgl\src\misc/lv_mem.c ****         LV_GC_ROOT(lv_mem_buf[i_guess]).used = 1;
 302:..\..\..\arduinoLCD\test\Pain Drain\libraries\lvgl\src\misc/lv_mem.c ****         MEM_TRACE("returning already allocated buffer (buffer id: %d, address: %p)", i_guess,
 303:..\..\..\arduinoLCD\test\Pain Drain\libraries\lvgl\src\misc/lv_mem.c ****                   LV_GC_ROOT(lv_mem_buf[i_guess]).p);
 304:..\..\..\arduinoLCD\test\Pain Drain\libraries\lvgl\src\misc/lv_mem.c ****         return LV_GC_ROOT(lv_mem_buf[i_guess]).p;
 305:..\..\..\arduinoLCD\test\Pain Drain\libraries\lvgl\src\misc/lv_mem.c ****     }
 306:..\..\..\arduinoLCD\test\Pain Drain\libraries\lvgl\src\misc/lv_mem.c **** 
 307:..\..\..\arduinoLCD\test\Pain Drain\libraries\lvgl\src\misc/lv_mem.c ****     /*Reallocate a free buffer*/
 308:..\..\..\arduinoLCD\test\Pain Drain\libraries\lvgl\src\misc/lv_mem.c ****     for(uint8_t i = 0; i < LV_MEM_BUF_MAX_NUM; i++) {
 309:..\..\..\arduinoLCD\test\Pain Drain\libraries\lvgl\src\misc/lv_mem.c ****         if(LV_GC_ROOT(lv_mem_buf[i]).used == 0) {
 310:..\..\..\arduinoLCD\test\Pain Drain\libraries\lvgl\src\misc/lv_mem.c ****             /*if this fails you probably need to increase your LV_MEM_SIZE/heap size*/
 311:..\..\..\arduinoLCD\test\Pain Drain\libraries\lvgl\src\misc/lv_mem.c ****             void * buf = lv_mem_realloc(LV_GC_ROOT(lv_mem_buf[i]).p, size);
 312:..\..\..\arduinoLCD\test\Pain Drain\libraries\lvgl\src\misc/lv_mem.c ****             LV_ASSERT_MSG(buf != NULL, "Out of memory, can't allocate a new buffer (increase your L
 313:..\..\..\arduinoLCD\test\Pain Drain\libraries\lvgl\src\misc/lv_mem.c ****             if(buf == NULL) return NULL;
 314:..\..\..\arduinoLCD\test\Pain Drain\libraries\lvgl\src\misc/lv_mem.c **** 
 315:..\..\..\arduinoLCD\test\Pain Drain\libraries\lvgl\src\misc/lv_mem.c ****             LV_GC_ROOT(lv_mem_buf[i]).used = 1;
 316:..\..\..\arduinoLCD\test\Pain Drain\libraries\lvgl\src\misc/lv_mem.c ****             LV_GC_ROOT(lv_mem_buf[i]).size = size;
ARM GAS  C:\Users\haske\AppData\Local\Temp\ccZlstpN.s 			page 7


 317:..\..\..\arduinoLCD\test\Pain Drain\libraries\lvgl\src\misc/lv_mem.c ****             LV_GC_ROOT(lv_mem_buf[i]).p    = buf;
 318:..\..\..\arduinoLCD\test\Pain Drain\libraries\lvgl\src\misc/lv_mem.c ****             MEM_TRACE("allocated (buffer id: %d, address: %p)", i, LV_GC_ROOT(lv_mem_buf[i]).p);
 319:..\..\..\arduinoLCD\test\Pain Drain\libraries\lvgl\src\misc/lv_mem.c ****             return LV_GC_ROOT(lv_mem_buf[i]).p;
 320:..\..\..\arduinoLCD\test\Pain Drain\libraries\lvgl\src\misc/lv_mem.c ****         }
 321:..\..\..\arduinoLCD\test\Pain Drain\libraries\lvgl\src\misc/lv_mem.c ****     }
 322:..\..\..\arduinoLCD\test\Pain Drain\libraries\lvgl\src\misc/lv_mem.c **** 
 323:..\..\..\arduinoLCD\test\Pain Drain\libraries\lvgl\src\misc/lv_mem.c ****     LV_LOG_ERROR("no more buffers. (increase LV_MEM_BUF_MAX_NUM)");
 324:..\..\..\arduinoLCD\test\Pain Drain\libraries\lvgl\src\misc/lv_mem.c ****     LV_ASSERT_MSG(false, "No more buffers. Increase LV_MEM_BUF_MAX_NUM.");
 325:..\..\..\arduinoLCD\test\Pain Drain\libraries\lvgl\src\misc/lv_mem.c ****     return NULL;
 326:..\..\..\arduinoLCD\test\Pain Drain\libraries\lvgl\src\misc/lv_mem.c **** }
 327:..\..\..\arduinoLCD\test\Pain Drain\libraries\lvgl\src\misc/lv_mem.c **** 
 328:..\..\..\arduinoLCD\test\Pain Drain\libraries\lvgl\src\misc/lv_mem.c **** /**
 329:..\..\..\arduinoLCD\test\Pain Drain\libraries\lvgl\src\misc/lv_mem.c ****  * Release a memory buffer
 330:..\..\..\arduinoLCD\test\Pain Drain\libraries\lvgl\src\misc/lv_mem.c ****  * @param p buffer to release
 331:..\..\..\arduinoLCD\test\Pain Drain\libraries\lvgl\src\misc/lv_mem.c ****  */
 332:..\..\..\arduinoLCD\test\Pain Drain\libraries\lvgl\src\misc/lv_mem.c **** void lv_mem_buf_release(void * p)
 333:..\..\..\arduinoLCD\test\Pain Drain\libraries\lvgl\src\misc/lv_mem.c **** {
 334:..\..\..\arduinoLCD\test\Pain Drain\libraries\lvgl\src\misc/lv_mem.c ****     MEM_TRACE("begin (address: %p)", p);
 335:..\..\..\arduinoLCD\test\Pain Drain\libraries\lvgl\src\misc/lv_mem.c **** 
 336:..\..\..\arduinoLCD\test\Pain Drain\libraries\lvgl\src\misc/lv_mem.c ****     for(uint8_t i = 0; i < LV_MEM_BUF_MAX_NUM; i++) {
 337:..\..\..\arduinoLCD\test\Pain Drain\libraries\lvgl\src\misc/lv_mem.c ****         if(LV_GC_ROOT(lv_mem_buf[i]).p == p) {
 338:..\..\..\arduinoLCD\test\Pain Drain\libraries\lvgl\src\misc/lv_mem.c ****             LV_GC_ROOT(lv_mem_buf[i]).used = 0;
 339:..\..\..\arduinoLCD\test\Pain Drain\libraries\lvgl\src\misc/lv_mem.c ****             return;
 340:..\..\..\arduinoLCD\test\Pain Drain\libraries\lvgl\src\misc/lv_mem.c ****         }
 341:..\..\..\arduinoLCD\test\Pain Drain\libraries\lvgl\src\misc/lv_mem.c ****     }
 342:..\..\..\arduinoLCD\test\Pain Drain\libraries\lvgl\src\misc/lv_mem.c **** 
 343:..\..\..\arduinoLCD\test\Pain Drain\libraries\lvgl\src\misc/lv_mem.c ****     LV_LOG_ERROR("p is not a known buffer");
 344:..\..\..\arduinoLCD\test\Pain Drain\libraries\lvgl\src\misc/lv_mem.c **** }
 345:..\..\..\arduinoLCD\test\Pain Drain\libraries\lvgl\src\misc/lv_mem.c **** 
 346:..\..\..\arduinoLCD\test\Pain Drain\libraries\lvgl\src\misc/lv_mem.c **** /**
 347:..\..\..\arduinoLCD\test\Pain Drain\libraries\lvgl\src\misc/lv_mem.c ****  * Free all memory buffers
 348:..\..\..\arduinoLCD\test\Pain Drain\libraries\lvgl\src\misc/lv_mem.c ****  */
 349:..\..\..\arduinoLCD\test\Pain Drain\libraries\lvgl\src\misc/lv_mem.c **** void lv_mem_buf_free_all(void)
 350:..\..\..\arduinoLCD\test\Pain Drain\libraries\lvgl\src\misc/lv_mem.c **** {
 351:..\..\..\arduinoLCD\test\Pain Drain\libraries\lvgl\src\misc/lv_mem.c ****     for(uint8_t i = 0; i < LV_MEM_BUF_MAX_NUM; i++) {
 352:..\..\..\arduinoLCD\test\Pain Drain\libraries\lvgl\src\misc/lv_mem.c ****         if(LV_GC_ROOT(lv_mem_buf[i]).p) {
 353:..\..\..\arduinoLCD\test\Pain Drain\libraries\lvgl\src\misc/lv_mem.c ****             lv_mem_free(LV_GC_ROOT(lv_mem_buf[i]).p);
 354:..\..\..\arduinoLCD\test\Pain Drain\libraries\lvgl\src\misc/lv_mem.c ****             LV_GC_ROOT(lv_mem_buf[i]).p = NULL;
 355:..\..\..\arduinoLCD\test\Pain Drain\libraries\lvgl\src\misc/lv_mem.c ****             LV_GC_ROOT(lv_mem_buf[i]).used = 0;
 356:..\..\..\arduinoLCD\test\Pain Drain\libraries\lvgl\src\misc/lv_mem.c ****             LV_GC_ROOT(lv_mem_buf[i]).size = 0;
 357:..\..\..\arduinoLCD\test\Pain Drain\libraries\lvgl\src\misc/lv_mem.c ****         }
 358:..\..\..\arduinoLCD\test\Pain Drain\libraries\lvgl\src\misc/lv_mem.c ****     }
 359:..\..\..\arduinoLCD\test\Pain Drain\libraries\lvgl\src\misc/lv_mem.c **** }
 360:..\..\..\arduinoLCD\test\Pain Drain\libraries\lvgl\src\misc/lv_mem.c **** 
 361:..\..\..\arduinoLCD\test\Pain Drain\libraries\lvgl\src\misc/lv_mem.c **** #if LV_MEMCPY_MEMSET_STD == 0
 362:..\..\..\arduinoLCD\test\Pain Drain\libraries\lvgl\src\misc/lv_mem.c **** /**
 363:..\..\..\arduinoLCD\test\Pain Drain\libraries\lvgl\src\misc/lv_mem.c ****  * Same as `memcpy` but optimized for 4 byte operation.
 364:..\..\..\arduinoLCD\test\Pain Drain\libraries\lvgl\src\misc/lv_mem.c ****  * @param dst pointer to the destination buffer
 365:..\..\..\arduinoLCD\test\Pain Drain\libraries\lvgl\src\misc/lv_mem.c ****  * @param src pointer to the source buffer
 366:..\..\..\arduinoLCD\test\Pain Drain\libraries\lvgl\src\misc/lv_mem.c ****  * @param len number of byte to copy
 367:..\..\..\arduinoLCD\test\Pain Drain\libraries\lvgl\src\misc/lv_mem.c ****  */
 368:..\..\..\arduinoLCD\test\Pain Drain\libraries\lvgl\src\misc/lv_mem.c **** LV_ATTRIBUTE_FAST_MEM void * lv_memcpy(void * dst, const void * src, size_t len)
 369:..\..\..\arduinoLCD\test\Pain Drain\libraries\lvgl\src\misc/lv_mem.c **** {
 370:..\..\..\arduinoLCD\test\Pain Drain\libraries\lvgl\src\misc/lv_mem.c ****     uint8_t * d8 = dst;
 371:..\..\..\arduinoLCD\test\Pain Drain\libraries\lvgl\src\misc/lv_mem.c ****     const uint8_t * s8 = src;
 372:..\..\..\arduinoLCD\test\Pain Drain\libraries\lvgl\src\misc/lv_mem.c **** 
 373:..\..\..\arduinoLCD\test\Pain Drain\libraries\lvgl\src\misc/lv_mem.c ****     lv_uintptr_t d_align = (lv_uintptr_t)d8 & ALIGN_MASK;
ARM GAS  C:\Users\haske\AppData\Local\Temp\ccZlstpN.s 			page 8


 374:..\..\..\arduinoLCD\test\Pain Drain\libraries\lvgl\src\misc/lv_mem.c ****     lv_uintptr_t s_align = (lv_uintptr_t)s8 & ALIGN_MASK;
 375:..\..\..\arduinoLCD\test\Pain Drain\libraries\lvgl\src\misc/lv_mem.c **** 
 376:..\..\..\arduinoLCD\test\Pain Drain\libraries\lvgl\src\misc/lv_mem.c ****     /*Byte copy for unaligned memories*/
 377:..\..\..\arduinoLCD\test\Pain Drain\libraries\lvgl\src\misc/lv_mem.c ****     if(s_align != d_align) {
 378:..\..\..\arduinoLCD\test\Pain Drain\libraries\lvgl\src\misc/lv_mem.c ****         while(len > 32) {
 379:..\..\..\arduinoLCD\test\Pain Drain\libraries\lvgl\src\misc/lv_mem.c ****             REPEAT8(COPY8);
 380:..\..\..\arduinoLCD\test\Pain Drain\libraries\lvgl\src\misc/lv_mem.c ****             REPEAT8(COPY8);
 381:..\..\..\arduinoLCD\test\Pain Drain\libraries\lvgl\src\misc/lv_mem.c ****             REPEAT8(COPY8);
 382:..\..\..\arduinoLCD\test\Pain Drain\libraries\lvgl\src\misc/lv_mem.c ****             REPEAT8(COPY8);
 383:..\..\..\arduinoLCD\test\Pain Drain\libraries\lvgl\src\misc/lv_mem.c ****             len -= 32;
 384:..\..\..\arduinoLCD\test\Pain Drain\libraries\lvgl\src\misc/lv_mem.c ****         }
 385:..\..\..\arduinoLCD\test\Pain Drain\libraries\lvgl\src\misc/lv_mem.c ****         while(len) {
 386:..\..\..\arduinoLCD\test\Pain Drain\libraries\lvgl\src\misc/lv_mem.c ****             COPY8
 387:..\..\..\arduinoLCD\test\Pain Drain\libraries\lvgl\src\misc/lv_mem.c ****             len--;
 388:..\..\..\arduinoLCD\test\Pain Drain\libraries\lvgl\src\misc/lv_mem.c ****         }
 389:..\..\..\arduinoLCD\test\Pain Drain\libraries\lvgl\src\misc/lv_mem.c ****         return dst;
 390:..\..\..\arduinoLCD\test\Pain Drain\libraries\lvgl\src\misc/lv_mem.c ****     }
 391:..\..\..\arduinoLCD\test\Pain Drain\libraries\lvgl\src\misc/lv_mem.c **** 
 392:..\..\..\arduinoLCD\test\Pain Drain\libraries\lvgl\src\misc/lv_mem.c ****     /*Make the memories aligned*/
 393:..\..\..\arduinoLCD\test\Pain Drain\libraries\lvgl\src\misc/lv_mem.c ****     if(d_align) {
 394:..\..\..\arduinoLCD\test\Pain Drain\libraries\lvgl\src\misc/lv_mem.c ****         d_align = ALIGN_MASK + 1 - d_align;
 395:..\..\..\arduinoLCD\test\Pain Drain\libraries\lvgl\src\misc/lv_mem.c ****         while(d_align && len) {
 396:..\..\..\arduinoLCD\test\Pain Drain\libraries\lvgl\src\misc/lv_mem.c ****             COPY8;
 397:..\..\..\arduinoLCD\test\Pain Drain\libraries\lvgl\src\misc/lv_mem.c ****             d_align--;
 398:..\..\..\arduinoLCD\test\Pain Drain\libraries\lvgl\src\misc/lv_mem.c ****             len--;
 399:..\..\..\arduinoLCD\test\Pain Drain\libraries\lvgl\src\misc/lv_mem.c ****         }
 400:..\..\..\arduinoLCD\test\Pain Drain\libraries\lvgl\src\misc/lv_mem.c ****     }
 401:..\..\..\arduinoLCD\test\Pain Drain\libraries\lvgl\src\misc/lv_mem.c **** 
 402:..\..\..\arduinoLCD\test\Pain Drain\libraries\lvgl\src\misc/lv_mem.c ****     uint32_t * d32 = (uint32_t *)d8;
 403:..\..\..\arduinoLCD\test\Pain Drain\libraries\lvgl\src\misc/lv_mem.c ****     const uint32_t * s32 = (uint32_t *)s8;
 404:..\..\..\arduinoLCD\test\Pain Drain\libraries\lvgl\src\misc/lv_mem.c ****     while(len > 32) {
 405:..\..\..\arduinoLCD\test\Pain Drain\libraries\lvgl\src\misc/lv_mem.c ****         REPEAT8(COPY32)
 406:..\..\..\arduinoLCD\test\Pain Drain\libraries\lvgl\src\misc/lv_mem.c ****         len -= 32;
 407:..\..\..\arduinoLCD\test\Pain Drain\libraries\lvgl\src\misc/lv_mem.c ****     }
 408:..\..\..\arduinoLCD\test\Pain Drain\libraries\lvgl\src\misc/lv_mem.c **** 
 409:..\..\..\arduinoLCD\test\Pain Drain\libraries\lvgl\src\misc/lv_mem.c ****     while(len > 4) {
 410:..\..\..\arduinoLCD\test\Pain Drain\libraries\lvgl\src\misc/lv_mem.c ****         COPY32;
 411:..\..\..\arduinoLCD\test\Pain Drain\libraries\lvgl\src\misc/lv_mem.c ****         len -= 4;
 412:..\..\..\arduinoLCD\test\Pain Drain\libraries\lvgl\src\misc/lv_mem.c ****     }
 413:..\..\..\arduinoLCD\test\Pain Drain\libraries\lvgl\src\misc/lv_mem.c **** 
 414:..\..\..\arduinoLCD\test\Pain Drain\libraries\lvgl\src\misc/lv_mem.c ****     d8 = (uint8_t *)d32;
 415:..\..\..\arduinoLCD\test\Pain Drain\libraries\lvgl\src\misc/lv_mem.c ****     s8 = (const uint8_t *)s32;
 416:..\..\..\arduinoLCD\test\Pain Drain\libraries\lvgl\src\misc/lv_mem.c ****     while(len) {
 417:..\..\..\arduinoLCD\test\Pain Drain\libraries\lvgl\src\misc/lv_mem.c ****         COPY8
 418:..\..\..\arduinoLCD\test\Pain Drain\libraries\lvgl\src\misc/lv_mem.c ****         len--;
 419:..\..\..\arduinoLCD\test\Pain Drain\libraries\lvgl\src\misc/lv_mem.c ****     }
 420:..\..\..\arduinoLCD\test\Pain Drain\libraries\lvgl\src\misc/lv_mem.c **** 
 421:..\..\..\arduinoLCD\test\Pain Drain\libraries\lvgl\src\misc/lv_mem.c ****     return dst;
 422:..\..\..\arduinoLCD\test\Pain Drain\libraries\lvgl\src\misc/lv_mem.c **** }
 423:..\..\..\arduinoLCD\test\Pain Drain\libraries\lvgl\src\misc/lv_mem.c **** 
 424:..\..\..\arduinoLCD\test\Pain Drain\libraries\lvgl\src\misc/lv_mem.c **** /**
 425:..\..\..\arduinoLCD\test\Pain Drain\libraries\lvgl\src\misc/lv_mem.c ****  * Same as `memset` but optimized for 4 byte operation.
 426:..\..\..\arduinoLCD\test\Pain Drain\libraries\lvgl\src\misc/lv_mem.c ****  * @param dst pointer to the destination buffer
 427:..\..\..\arduinoLCD\test\Pain Drain\libraries\lvgl\src\misc/lv_mem.c ****  * @param v value to set [0..255]
 428:..\..\..\arduinoLCD\test\Pain Drain\libraries\lvgl\src\misc/lv_mem.c ****  * @param len number of byte to set
 429:..\..\..\arduinoLCD\test\Pain Drain\libraries\lvgl\src\misc/lv_mem.c ****  */
 430:..\..\..\arduinoLCD\test\Pain Drain\libraries\lvgl\src\misc/lv_mem.c **** LV_ATTRIBUTE_FAST_MEM void lv_memset(void * dst, uint8_t v, size_t len)
ARM GAS  C:\Users\haske\AppData\Local\Temp\ccZlstpN.s 			page 9


 431:..\..\..\arduinoLCD\test\Pain Drain\libraries\lvgl\src\misc/lv_mem.c **** {
 432:..\..\..\arduinoLCD\test\Pain Drain\libraries\lvgl\src\misc/lv_mem.c **** 
 433:..\..\..\arduinoLCD\test\Pain Drain\libraries\lvgl\src\misc/lv_mem.c ****     uint8_t * d8 = (uint8_t *)dst;
 434:..\..\..\arduinoLCD\test\Pain Drain\libraries\lvgl\src\misc/lv_mem.c **** 
 435:..\..\..\arduinoLCD\test\Pain Drain\libraries\lvgl\src\misc/lv_mem.c ****     uintptr_t d_align = (lv_uintptr_t) d8 & ALIGN_MASK;
 436:..\..\..\arduinoLCD\test\Pain Drain\libraries\lvgl\src\misc/lv_mem.c **** 
 437:..\..\..\arduinoLCD\test\Pain Drain\libraries\lvgl\src\misc/lv_mem.c ****     /*Make the address aligned*/
 438:..\..\..\arduinoLCD\test\Pain Drain\libraries\lvgl\src\misc/lv_mem.c ****     if(d_align) {
 439:..\..\..\arduinoLCD\test\Pain Drain\libraries\lvgl\src\misc/lv_mem.c ****         d_align = ALIGN_MASK + 1 - d_align;
 440:..\..\..\arduinoLCD\test\Pain Drain\libraries\lvgl\src\misc/lv_mem.c ****         while(d_align && len) {
 441:..\..\..\arduinoLCD\test\Pain Drain\libraries\lvgl\src\misc/lv_mem.c ****             SET8(v);
 442:..\..\..\arduinoLCD\test\Pain Drain\libraries\lvgl\src\misc/lv_mem.c ****             len--;
 443:..\..\..\arduinoLCD\test\Pain Drain\libraries\lvgl\src\misc/lv_mem.c ****             d_align--;
 444:..\..\..\arduinoLCD\test\Pain Drain\libraries\lvgl\src\misc/lv_mem.c ****         }
 445:..\..\..\arduinoLCD\test\Pain Drain\libraries\lvgl\src\misc/lv_mem.c ****     }
 446:..\..\..\arduinoLCD\test\Pain Drain\libraries\lvgl\src\misc/lv_mem.c **** 
 447:..\..\..\arduinoLCD\test\Pain Drain\libraries\lvgl\src\misc/lv_mem.c ****     uint32_t v32 = (uint32_t)v + ((uint32_t)v << 8) + ((uint32_t)v << 16) + ((uint32_t)v << 24);
 448:..\..\..\arduinoLCD\test\Pain Drain\libraries\lvgl\src\misc/lv_mem.c **** 
 449:..\..\..\arduinoLCD\test\Pain Drain\libraries\lvgl\src\misc/lv_mem.c ****     uint32_t * d32 = (uint32_t *)d8;
 450:..\..\..\arduinoLCD\test\Pain Drain\libraries\lvgl\src\misc/lv_mem.c **** 
 451:..\..\..\arduinoLCD\test\Pain Drain\libraries\lvgl\src\misc/lv_mem.c ****     while(len > 32) {
 452:..\..\..\arduinoLCD\test\Pain Drain\libraries\lvgl\src\misc/lv_mem.c ****         REPEAT8(SET32(v32));
 453:..\..\..\arduinoLCD\test\Pain Drain\libraries\lvgl\src\misc/lv_mem.c ****         len -= 32;
 454:..\..\..\arduinoLCD\test\Pain Drain\libraries\lvgl\src\misc/lv_mem.c ****     }
 455:..\..\..\arduinoLCD\test\Pain Drain\libraries\lvgl\src\misc/lv_mem.c **** 
 456:..\..\..\arduinoLCD\test\Pain Drain\libraries\lvgl\src\misc/lv_mem.c ****     while(len > 4) {
 457:..\..\..\arduinoLCD\test\Pain Drain\libraries\lvgl\src\misc/lv_mem.c ****         SET32(v32);
 458:..\..\..\arduinoLCD\test\Pain Drain\libraries\lvgl\src\misc/lv_mem.c ****         len -= 4;
 459:..\..\..\arduinoLCD\test\Pain Drain\libraries\lvgl\src\misc/lv_mem.c ****     }
 460:..\..\..\arduinoLCD\test\Pain Drain\libraries\lvgl\src\misc/lv_mem.c **** 
 461:..\..\..\arduinoLCD\test\Pain Drain\libraries\lvgl\src\misc/lv_mem.c ****     d8 = (uint8_t *)d32;
 462:..\..\..\arduinoLCD\test\Pain Drain\libraries\lvgl\src\misc/lv_mem.c ****     while(len) {
 463:..\..\..\arduinoLCD\test\Pain Drain\libraries\lvgl\src\misc/lv_mem.c ****         SET8(v);
 464:..\..\..\arduinoLCD\test\Pain Drain\libraries\lvgl\src\misc/lv_mem.c ****         len--;
 465:..\..\..\arduinoLCD\test\Pain Drain\libraries\lvgl\src\misc/lv_mem.c ****     }
 466:..\..\..\arduinoLCD\test\Pain Drain\libraries\lvgl\src\misc/lv_mem.c **** }
 467:..\..\..\arduinoLCD\test\Pain Drain\libraries\lvgl\src\misc/lv_mem.c **** 
 468:..\..\..\arduinoLCD\test\Pain Drain\libraries\lvgl\src\misc/lv_mem.c **** /**
 469:..\..\..\arduinoLCD\test\Pain Drain\libraries\lvgl\src\misc/lv_mem.c ****  * Same as `memset(dst, 0x00, len)` but optimized for 4 byte operation.
 470:..\..\..\arduinoLCD\test\Pain Drain\libraries\lvgl\src\misc/lv_mem.c ****  * @param dst pointer to the destination buffer
 471:..\..\..\arduinoLCD\test\Pain Drain\libraries\lvgl\src\misc/lv_mem.c ****  * @param len number of byte to set
 472:..\..\..\arduinoLCD\test\Pain Drain\libraries\lvgl\src\misc/lv_mem.c ****  */
 473:..\..\..\arduinoLCD\test\Pain Drain\libraries\lvgl\src\misc/lv_mem.c **** LV_ATTRIBUTE_FAST_MEM void lv_memset_00(void * dst, size_t len)
 474:..\..\..\arduinoLCD\test\Pain Drain\libraries\lvgl\src\misc/lv_mem.c **** {
 475:..\..\..\arduinoLCD\test\Pain Drain\libraries\lvgl\src\misc/lv_mem.c ****     uint8_t * d8 = (uint8_t *)dst;
 476:..\..\..\arduinoLCD\test\Pain Drain\libraries\lvgl\src\misc/lv_mem.c ****     uintptr_t d_align = (lv_uintptr_t) d8 & ALIGN_MASK;
 477:..\..\..\arduinoLCD\test\Pain Drain\libraries\lvgl\src\misc/lv_mem.c **** 
 478:..\..\..\arduinoLCD\test\Pain Drain\libraries\lvgl\src\misc/lv_mem.c ****     /*Make the address aligned*/
 479:..\..\..\arduinoLCD\test\Pain Drain\libraries\lvgl\src\misc/lv_mem.c ****     if(d_align) {
 480:..\..\..\arduinoLCD\test\Pain Drain\libraries\lvgl\src\misc/lv_mem.c ****         d_align = ALIGN_MASK + 1 - d_align;
 481:..\..\..\arduinoLCD\test\Pain Drain\libraries\lvgl\src\misc/lv_mem.c ****         while(d_align && len) {
 482:..\..\..\arduinoLCD\test\Pain Drain\libraries\lvgl\src\misc/lv_mem.c ****             SET8(0);
 483:..\..\..\arduinoLCD\test\Pain Drain\libraries\lvgl\src\misc/lv_mem.c ****             len--;
 484:..\..\..\arduinoLCD\test\Pain Drain\libraries\lvgl\src\misc/lv_mem.c ****             d_align--;
 485:..\..\..\arduinoLCD\test\Pain Drain\libraries\lvgl\src\misc/lv_mem.c ****         }
 486:..\..\..\arduinoLCD\test\Pain Drain\libraries\lvgl\src\misc/lv_mem.c ****     }
 487:..\..\..\arduinoLCD\test\Pain Drain\libraries\lvgl\src\misc/lv_mem.c **** 
ARM GAS  C:\Users\haske\AppData\Local\Temp\ccZlstpN.s 			page 10


 488:..\..\..\arduinoLCD\test\Pain Drain\libraries\lvgl\src\misc/lv_mem.c ****     uint32_t * d32 = (uint32_t *)d8;
 489:..\..\..\arduinoLCD\test\Pain Drain\libraries\lvgl\src\misc/lv_mem.c ****     while(len > 32) {
 490:..\..\..\arduinoLCD\test\Pain Drain\libraries\lvgl\src\misc/lv_mem.c ****         REPEAT8(SET32(0));
 491:..\..\..\arduinoLCD\test\Pain Drain\libraries\lvgl\src\misc/lv_mem.c ****         len -= 32;
 492:..\..\..\arduinoLCD\test\Pain Drain\libraries\lvgl\src\misc/lv_mem.c ****     }
 493:..\..\..\arduinoLCD\test\Pain Drain\libraries\lvgl\src\misc/lv_mem.c **** 
 494:..\..\..\arduinoLCD\test\Pain Drain\libraries\lvgl\src\misc/lv_mem.c ****     while(len > 4) {
 495:..\..\..\arduinoLCD\test\Pain Drain\libraries\lvgl\src\misc/lv_mem.c ****         SET32(0);
 496:..\..\..\arduinoLCD\test\Pain Drain\libraries\lvgl\src\misc/lv_mem.c ****         len -= 4;
 497:..\..\..\arduinoLCD\test\Pain Drain\libraries\lvgl\src\misc/lv_mem.c ****     }
 498:..\..\..\arduinoLCD\test\Pain Drain\libraries\lvgl\src\misc/lv_mem.c **** 
 499:..\..\..\arduinoLCD\test\Pain Drain\libraries\lvgl\src\misc/lv_mem.c ****     d8 = (uint8_t *)d32;
 500:..\..\..\arduinoLCD\test\Pain Drain\libraries\lvgl\src\misc/lv_mem.c ****     while(len) {
 501:..\..\..\arduinoLCD\test\Pain Drain\libraries\lvgl\src\misc/lv_mem.c ****         SET8(0);
 502:..\..\..\arduinoLCD\test\Pain Drain\libraries\lvgl\src\misc/lv_mem.c ****         len--;
 503:..\..\..\arduinoLCD\test\Pain Drain\libraries\lvgl\src\misc/lv_mem.c ****     }
 504:..\..\..\arduinoLCD\test\Pain Drain\libraries\lvgl\src\misc/lv_mem.c **** }
 505:..\..\..\arduinoLCD\test\Pain Drain\libraries\lvgl\src\misc/lv_mem.c **** 
 506:..\..\..\arduinoLCD\test\Pain Drain\libraries\lvgl\src\misc/lv_mem.c **** /**
 507:..\..\..\arduinoLCD\test\Pain Drain\libraries\lvgl\src\misc/lv_mem.c ****  * Same as `memset(dst, 0xFF, len)` but optimized for 4 byte operation.
 508:..\..\..\arduinoLCD\test\Pain Drain\libraries\lvgl\src\misc/lv_mem.c ****  * @param dst pointer to the destination buffer
 509:..\..\..\arduinoLCD\test\Pain Drain\libraries\lvgl\src\misc/lv_mem.c ****  * @param len number of byte to set
 510:..\..\..\arduinoLCD\test\Pain Drain\libraries\lvgl\src\misc/lv_mem.c ****  */
 511:..\..\..\arduinoLCD\test\Pain Drain\libraries\lvgl\src\misc/lv_mem.c **** LV_ATTRIBUTE_FAST_MEM void lv_memset_ff(void * dst, size_t len)
 512:..\..\..\arduinoLCD\test\Pain Drain\libraries\lvgl\src\misc/lv_mem.c **** {
 513:..\..\..\arduinoLCD\test\Pain Drain\libraries\lvgl\src\misc/lv_mem.c ****     uint8_t * d8 = (uint8_t *)dst;
 514:..\..\..\arduinoLCD\test\Pain Drain\libraries\lvgl\src\misc/lv_mem.c ****     uintptr_t d_align = (lv_uintptr_t) d8 & ALIGN_MASK;
 515:..\..\..\arduinoLCD\test\Pain Drain\libraries\lvgl\src\misc/lv_mem.c **** 
 516:..\..\..\arduinoLCD\test\Pain Drain\libraries\lvgl\src\misc/lv_mem.c ****     /*Make the address aligned*/
 517:..\..\..\arduinoLCD\test\Pain Drain\libraries\lvgl\src\misc/lv_mem.c ****     if(d_align) {
 518:..\..\..\arduinoLCD\test\Pain Drain\libraries\lvgl\src\misc/lv_mem.c ****         d_align = ALIGN_MASK + 1 - d_align;
 519:..\..\..\arduinoLCD\test\Pain Drain\libraries\lvgl\src\misc/lv_mem.c ****         while(d_align && len) {
 520:..\..\..\arduinoLCD\test\Pain Drain\libraries\lvgl\src\misc/lv_mem.c ****             SET8(0xFF);
 521:..\..\..\arduinoLCD\test\Pain Drain\libraries\lvgl\src\misc/lv_mem.c ****             len--;
 522:..\..\..\arduinoLCD\test\Pain Drain\libraries\lvgl\src\misc/lv_mem.c ****             d_align--;
 523:..\..\..\arduinoLCD\test\Pain Drain\libraries\lvgl\src\misc/lv_mem.c ****         }
 524:..\..\..\arduinoLCD\test\Pain Drain\libraries\lvgl\src\misc/lv_mem.c ****     }
 525:..\..\..\arduinoLCD\test\Pain Drain\libraries\lvgl\src\misc/lv_mem.c **** 
 526:..\..\..\arduinoLCD\test\Pain Drain\libraries\lvgl\src\misc/lv_mem.c ****     uint32_t * d32 = (uint32_t *)d8;
 527:..\..\..\arduinoLCD\test\Pain Drain\libraries\lvgl\src\misc/lv_mem.c ****     while(len > 32) {
 528:..\..\..\arduinoLCD\test\Pain Drain\libraries\lvgl\src\misc/lv_mem.c ****         REPEAT8(SET32(0xFFFFFFFF));
 529:..\..\..\arduinoLCD\test\Pain Drain\libraries\lvgl\src\misc/lv_mem.c ****         len -= 32;
 530:..\..\..\arduinoLCD\test\Pain Drain\libraries\lvgl\src\misc/lv_mem.c ****     }
 531:..\..\..\arduinoLCD\test\Pain Drain\libraries\lvgl\src\misc/lv_mem.c **** 
 532:..\..\..\arduinoLCD\test\Pain Drain\libraries\lvgl\src\misc/lv_mem.c ****     while(len > 4) {
 533:..\..\..\arduinoLCD\test\Pain Drain\libraries\lvgl\src\misc/lv_mem.c ****         SET32(0xFFFFFFFF);
 534:..\..\..\arduinoLCD\test\Pain Drain\libraries\lvgl\src\misc/lv_mem.c ****         len -= 4;
 535:..\..\..\arduinoLCD\test\Pain Drain\libraries\lvgl\src\misc/lv_mem.c ****     }
 536:..\..\..\arduinoLCD\test\Pain Drain\libraries\lvgl\src\misc/lv_mem.c **** 
 537:..\..\..\arduinoLCD\test\Pain Drain\libraries\lvgl\src\misc/lv_mem.c ****     d8 = (uint8_t *)d32;
 538:..\..\..\arduinoLCD\test\Pain Drain\libraries\lvgl\src\misc/lv_mem.c ****     while(len) {
 539:..\..\..\arduinoLCD\test\Pain Drain\libraries\lvgl\src\misc/lv_mem.c ****         SET8(0xFF);
 540:..\..\..\arduinoLCD\test\Pain Drain\libraries\lvgl\src\misc/lv_mem.c ****         len--;
 541:..\..\..\arduinoLCD\test\Pain Drain\libraries\lvgl\src\misc/lv_mem.c ****     }
 542:..\..\..\arduinoLCD\test\Pain Drain\libraries\lvgl\src\misc/lv_mem.c **** }
 543:..\..\..\arduinoLCD\test\Pain Drain\libraries\lvgl\src\misc/lv_mem.c **** 
 544:..\..\..\arduinoLCD\test\Pain Drain\libraries\lvgl\src\misc/lv_mem.c **** #endif /*LV_MEMCPY_MEMSET_STD*/
ARM GAS  C:\Users\haske\AppData\Local\Temp\ccZlstpN.s 			page 11


 545:..\..\..\arduinoLCD\test\Pain Drain\libraries\lvgl\src\misc/lv_mem.c **** 
 546:..\..\..\arduinoLCD\test\Pain Drain\libraries\lvgl\src\misc/lv_mem.c **** /**********************
 547:..\..\..\arduinoLCD\test\Pain Drain\libraries\lvgl\src\misc/lv_mem.c ****  *   STATIC FUNCTIONS
 548:..\..\..\arduinoLCD\test\Pain Drain\libraries\lvgl\src\misc/lv_mem.c ****  **********************/
 549:..\..\..\arduinoLCD\test\Pain Drain\libraries\lvgl\src\misc/lv_mem.c **** 
 550:..\..\..\arduinoLCD\test\Pain Drain\libraries\lvgl\src\misc/lv_mem.c **** #if LV_MEM_CUSTOM == 0
 551:..\..\..\arduinoLCD\test\Pain Drain\libraries\lvgl\src\misc/lv_mem.c **** static void lv_mem_walker(void * ptr, size_t size, int used, void * user)
 552:..\..\..\arduinoLCD\test\Pain Drain\libraries\lvgl\src\misc/lv_mem.c **** {
  27              		.loc 1 552 0
  28              		.cfi_startproc
  29              		@ args = 0, pretend = 0, frame = 0
  30              		@ frame_needed = 0, uses_anonymous_args = 0
  31              		@ link register save eliminated.
  32              	.LVL0:
 553:..\..\..\arduinoLCD\test\Pain Drain\libraries\lvgl\src\misc/lv_mem.c ****     LV_UNUSED(ptr);
 554:..\..\..\arduinoLCD\test\Pain Drain\libraries\lvgl\src\misc/lv_mem.c **** 
 555:..\..\..\arduinoLCD\test\Pain Drain\libraries\lvgl\src\misc/lv_mem.c ****     lv_mem_monitor_t * mon_p = user;
 556:..\..\..\arduinoLCD\test\Pain Drain\libraries\lvgl\src\misc/lv_mem.c ****     if(used) {
  33              		.loc 1 556 0
  34 0000 002A     		cmp	r2, #0
  35 0002 03D0     		beq	.L2
 557:..\..\..\arduinoLCD\test\Pain Drain\libraries\lvgl\src\misc/lv_mem.c ****         mon_p->used_cnt++;
  36              		.loc 1 557 0
  37 0004 1A69     		ldr	r2, [r3, #16]
  38              	.LVL1:
  39 0006 0132     		adds	r2, r2, #1
  40 0008 1A61     		str	r2, [r3, #16]
  41 000a 09E0     		b	.L1
  42              	.LVL2:
  43              	.L2:
 558:..\..\..\arduinoLCD\test\Pain Drain\libraries\lvgl\src\misc/lv_mem.c ****     }
 559:..\..\..\arduinoLCD\test\Pain Drain\libraries\lvgl\src\misc/lv_mem.c ****     else {
 560:..\..\..\arduinoLCD\test\Pain Drain\libraries\lvgl\src\misc/lv_mem.c ****         mon_p->free_cnt++;
  44              		.loc 1 560 0
  45 000c 5A68     		ldr	r2, [r3, #4]
  46              	.LVL3:
  47 000e 0132     		adds	r2, r2, #1
  48 0010 5A60     		str	r2, [r3, #4]
 561:..\..\..\arduinoLCD\test\Pain Drain\libraries\lvgl\src\misc/lv_mem.c ****         mon_p->free_size += size;
  49              		.loc 1 561 0
  50 0012 9A68     		ldr	r2, [r3, #8]
  51 0014 5218     		adds	r2, r2, r1
  52 0016 9A60     		str	r2, [r3, #8]
 562:..\..\..\arduinoLCD\test\Pain Drain\libraries\lvgl\src\misc/lv_mem.c ****         if(size > mon_p->free_biggest_size)
  53              		.loc 1 562 0
  54 0018 DA68     		ldr	r2, [r3, #12]
  55 001a 9142     		cmp	r1, r2
  56 001c 00D9     		bls	.L1
 563:..\..\..\arduinoLCD\test\Pain Drain\libraries\lvgl\src\misc/lv_mem.c ****             mon_p->free_biggest_size = size;
  57              		.loc 1 563 0
  58 001e D960     		str	r1, [r3, #12]
  59              	.L1:
 564:..\..\..\arduinoLCD\test\Pain Drain\libraries\lvgl\src\misc/lv_mem.c ****     }
 565:..\..\..\arduinoLCD\test\Pain Drain\libraries\lvgl\src\misc/lv_mem.c **** }
  60              		.loc 1 565 0
  61              		@ sp needed
  62 0020 7047     		bx	lr
ARM GAS  C:\Users\haske\AppData\Local\Temp\ccZlstpN.s 			page 12


  63              		.cfi_endproc
  64              	.LFE38:
  65              		.size	lv_mem_walker, .-lv_mem_walker
  66 0022 C046     		.section	.text.lv_mem_init,"ax",%progbits
  67              		.align	2
  68              		.global	lv_mem_init
  69              		.code	16
  70              		.thumb_func
  71              		.type	lv_mem_init, %function
  72              	lv_mem_init:
  73              	.LFB24:
  87:..\..\..\arduinoLCD\test\Pain Drain\libraries\lvgl\src\misc/lv_mem.c **** #if LV_MEM_CUSTOM == 0
  74              		.loc 1 87 0
  75              		.cfi_startproc
  76              		@ args = 0, pretend = 0, frame = 0
  77              		@ frame_needed = 0, uses_anonymous_args = 0
  78 0000 10B5     		push	{r4, lr}
  79              		.cfi_def_cfa_offset 8
  80              		.cfi_offset 4, -8
  81              		.cfi_offset 14, -4
  96:..\..\..\arduinoLCD\test\Pain Drain\libraries\lvgl\src\misc/lv_mem.c **** #endif
  82              		.loc 1 96 0
  83 0002 C021     		movs	r1, #192
  84 0004 0902     		lsls	r1, r1, #8
  85 0006 0348     		ldr	r0, .L5
  86 0008 FFF7FEFF 		bl	lv_tlsf_create_with_pool
  87              	.LVL4:
  88 000c 024B     		ldr	r3, .L5+4
  89 000e 1860     		str	r0, [r3]
 106:..\..\..\arduinoLCD\test\Pain Drain\libraries\lvgl\src\misc/lv_mem.c **** 
  90              		.loc 1 106 0
  91              		@ sp needed
  92 0010 10BD     		pop	{r4, pc}
  93              	.L6:
  94 0012 C046     		.align	2
  95              	.L5:
  96 0014 00000000 		.word	.LANCHOR0
  97 0018 00C00000 		.word	.LANCHOR1
  98              		.cfi_endproc
  99              	.LFE24:
 100              		.size	lv_mem_init, .-lv_mem_init
 101              		.section	.text.lv_mem_deinit,"ax",%progbits
 102              		.align	2
 103              		.global	lv_mem_deinit
 104              		.code	16
 105              		.thumb_func
 106              		.type	lv_mem_deinit, %function
 107              	lv_mem_deinit:
 108              	.LFB25:
 113:..\..\..\arduinoLCD\test\Pain Drain\libraries\lvgl\src\misc/lv_mem.c **** #if LV_MEM_CUSTOM == 0
 109              		.loc 1 113 0
 110              		.cfi_startproc
 111              		@ args = 0, pretend = 0, frame = 0
 112              		@ frame_needed = 0, uses_anonymous_args = 0
 113 0000 10B5     		push	{r4, lr}
 114              		.cfi_def_cfa_offset 8
 115              		.cfi_offset 4, -8
ARM GAS  C:\Users\haske\AppData\Local\Temp\ccZlstpN.s 			page 13


 116              		.cfi_offset 14, -4
 115:..\..\..\arduinoLCD\test\Pain Drain\libraries\lvgl\src\misc/lv_mem.c ****     lv_mem_init();
 117              		.loc 1 115 0
 118 0002 034B     		ldr	r3, .L8
 119 0004 1868     		ldr	r0, [r3]
 120 0006 FFF7FEFF 		bl	lv_tlsf_destroy
 121              	.LVL5:
 116:..\..\..\arduinoLCD\test\Pain Drain\libraries\lvgl\src\misc/lv_mem.c **** #endif
 122              		.loc 1 116 0
 123 000a FFF7FEFF 		bl	lv_mem_init
 124              	.LVL6:
 118:..\..\..\arduinoLCD\test\Pain Drain\libraries\lvgl\src\misc/lv_mem.c **** 
 125              		.loc 1 118 0
 126              		@ sp needed
 127 000e 10BD     		pop	{r4, pc}
 128              	.L9:
 129              		.align	2
 130              	.L8:
 131 0010 00C00000 		.word	.LANCHOR1
 132              		.cfi_endproc
 133              	.LFE25:
 134              		.size	lv_mem_deinit, .-lv_mem_deinit
 135              		.section	.text.lv_mem_alloc,"ax",%progbits
 136              		.align	2
 137              		.global	lv_mem_alloc
 138              		.code	16
 139              		.thumb_func
 140              		.type	lv_mem_alloc, %function
 141              	lv_mem_alloc:
 142              	.LFB26:
 126:..\..\..\arduinoLCD\test\Pain Drain\libraries\lvgl\src\misc/lv_mem.c ****     MEM_TRACE("allocating %lu bytes", (unsigned long)size);
 143              		.loc 1 126 0
 144              		.cfi_startproc
 145              		@ args = 0, pretend = 0, frame = 0
 146              		@ frame_needed = 0, uses_anonymous_args = 0
 147              	.LVL7:
 148 0000 10B5     		push	{r4, lr}
 149              		.cfi_def_cfa_offset 8
 150              		.cfi_offset 4, -8
 151              		.cfi_offset 14, -4
 152 0002 041E     		subs	r4, r0, #0
 128:..\..\..\arduinoLCD\test\Pain Drain\libraries\lvgl\src\misc/lv_mem.c ****         MEM_TRACE("using zero_mem");
 153              		.loc 1 128 0
 154 0004 12D0     		beq	.L13
 134:..\..\..\arduinoLCD\test\Pain Drain\libraries\lvgl\src\misc/lv_mem.c **** #else
 155              		.loc 1 134 0
 156 0006 0A4B     		ldr	r3, .L15
 157 0008 1868     		ldr	r0, [r3]
 158              	.LVL8:
 159 000a 2100     		movs	r1, r4
 160 000c FFF7FEFF 		bl	lv_tlsf_malloc
 161              	.LVL9:
 155:..\..\..\arduinoLCD\test\Pain Drain\libraries\lvgl\src\misc/lv_mem.c **** #if LV_MEM_CUSTOM == 0
 162              		.loc 1 155 0
 163 0010 0028     		cmp	r0, #0
 164 0012 0CD0     		beq	.L11
 157:..\..\..\arduinoLCD\test\Pain Drain\libraries\lvgl\src\misc/lv_mem.c ****         max_used = LV_MAX(cur_used, max_used);
ARM GAS  C:\Users\haske\AppData\Local\Temp\ccZlstpN.s 			page 14


 165              		.loc 1 157 0
 166 0014 064B     		ldr	r3, .L15
 167 0016 5A68     		ldr	r2, [r3, #4]
 168 0018 9446     		mov	ip, r2
 169 001a 6444     		add	r4, r4, ip
 170              	.LVL10:
 171 001c 5C60     		str	r4, [r3, #4]
 158:..\..\..\arduinoLCD\test\Pain Drain\libraries\lvgl\src\misc/lv_mem.c **** #endif
 172              		.loc 1 158 0
 173 001e 9B68     		ldr	r3, [r3, #8]
 174 0020 A342     		cmp	r3, r4
 175 0022 00D2     		bcs	.L12
 176 0024 2300     		movs	r3, r4
 177              	.L12:
 178 0026 024A     		ldr	r2, .L15
 179 0028 9360     		str	r3, [r2, #8]
 180 002a 00E0     		b	.L11
 181              	.LVL11:
 182              	.L13:
 130:..\..\..\arduinoLCD\test\Pain Drain\libraries\lvgl\src\misc/lv_mem.c ****     }
 183              		.loc 1 130 0
 184 002c 0148     		ldr	r0, .L15+4
 185              	.LVL12:
 186              	.L11:
 163:..\..\..\arduinoLCD\test\Pain Drain\libraries\lvgl\src\misc/lv_mem.c **** 
 187              		.loc 1 163 0
 188              		@ sp needed
 189 002e 10BD     		pop	{r4, pc}
 190              	.L16:
 191              		.align	2
 192              	.L15:
 193 0030 00C00000 		.word	.LANCHOR1
 194 0034 00000000 		.word	.LANCHOR2
 195              		.cfi_endproc
 196              	.LFE26:
 197              		.size	lv_mem_alloc, .-lv_mem_alloc
 198              		.section	.text.lv_mem_free,"ax",%progbits
 199              		.align	2
 200              		.global	lv_mem_free
 201              		.code	16
 202              		.thumb_func
 203              		.type	lv_mem_free, %function
 204              	lv_mem_free:
 205              	.LFB27:
 170:..\..\..\arduinoLCD\test\Pain Drain\libraries\lvgl\src\misc/lv_mem.c ****     MEM_TRACE("freeing %p", data);
 206              		.loc 1 170 0
 207              		.cfi_startproc
 208              		@ args = 0, pretend = 0, frame = 0
 209              		@ frame_needed = 0, uses_anonymous_args = 0
 210              	.LVL13:
 211 0000 10B5     		push	{r4, lr}
 212              		.cfi_def_cfa_offset 8
 213              		.cfi_offset 4, -8
 214              		.cfi_offset 14, -4
 172:..\..\..\arduinoLCD\test\Pain Drain\libraries\lvgl\src\misc/lv_mem.c ****     if(data == NULL) return;
 215              		.loc 1 172 0
 216 0002 0A4B     		ldr	r3, .L20
ARM GAS  C:\Users\haske\AppData\Local\Temp\ccZlstpN.s 			page 15


 217 0004 9842     		cmp	r0, r3
 218 0006 10D0     		beq	.L17
 173:..\..\..\arduinoLCD\test\Pain Drain\libraries\lvgl\src\misc/lv_mem.c **** 
 219              		.loc 1 173 0
 220 0008 0028     		cmp	r0, #0
 221 000a 0ED0     		beq	.L17
 179:..\..\..\arduinoLCD\test\Pain Drain\libraries\lvgl\src\misc/lv_mem.c ****     if(cur_used > size) cur_used -= size;
 222              		.loc 1 179 0
 223 000c 084C     		ldr	r4, .L20+4
 224 000e 0100     		movs	r1, r0
 225 0010 2068     		ldr	r0, [r4]
 226              	.LVL14:
 227 0012 FFF7FEFF 		bl	lv_tlsf_free
 228              	.LVL15:
 180:..\..\..\arduinoLCD\test\Pain Drain\libraries\lvgl\src\misc/lv_mem.c ****     else cur_used = 0;
 229              		.loc 1 180 0
 230 0016 6368     		ldr	r3, [r4, #4]
 231 0018 9842     		cmp	r0, r3
 232 001a 03D2     		bcs	.L19
 180:..\..\..\arduinoLCD\test\Pain Drain\libraries\lvgl\src\misc/lv_mem.c ****     else cur_used = 0;
 233              		.loc 1 180 0 is_stmt 0 discriminator 1
 234 001c 1B1A     		subs	r3, r3, r0
 235 001e 044A     		ldr	r2, .L20+4
 236 0020 5360     		str	r3, [r2, #4]
 237 0022 02E0     		b	.L17
 238              	.L19:
 181:..\..\..\arduinoLCD\test\Pain Drain\libraries\lvgl\src\misc/lv_mem.c **** #else
 239              		.loc 1 181 0 is_stmt 1
 240 0024 0022     		movs	r2, #0
 241 0026 024B     		ldr	r3, .L20+4
 242 0028 5A60     		str	r2, [r3, #4]
 243              	.LVL16:
 244              	.L17:
 185:..\..\..\arduinoLCD\test\Pain Drain\libraries\lvgl\src\misc/lv_mem.c **** 
 245              		.loc 1 185 0
 246              		@ sp needed
 247 002a 10BD     		pop	{r4, pc}
 248              	.L21:
 249              		.align	2
 250              	.L20:
 251 002c 00000000 		.word	.LANCHOR2
 252 0030 00C00000 		.word	.LANCHOR1
 253              		.cfi_endproc
 254              	.LFE27:
 255              		.size	lv_mem_free, .-lv_mem_free
 256              		.section	.text.lv_mem_realloc,"ax",%progbits
 257              		.align	2
 258              		.global	lv_mem_realloc
 259              		.code	16
 260              		.thumb_func
 261              		.type	lv_mem_realloc, %function
 262              	lv_mem_realloc:
 263              	.LFB28:
 195:..\..\..\arduinoLCD\test\Pain Drain\libraries\lvgl\src\misc/lv_mem.c ****     MEM_TRACE("reallocating %p with %lu size", data_p, (unsigned long)new_size);
 264              		.loc 1 195 0
 265              		.cfi_startproc
 266              		@ args = 0, pretend = 0, frame = 0
ARM GAS  C:\Users\haske\AppData\Local\Temp\ccZlstpN.s 			page 16


 267              		@ frame_needed = 0, uses_anonymous_args = 0
 268              	.LVL17:
 269 0000 10B5     		push	{r4, lr}
 270              		.cfi_def_cfa_offset 8
 271              		.cfi_offset 4, -8
 272              		.cfi_offset 14, -4
 273 0002 0300     		movs	r3, r0
 197:..\..\..\arduinoLCD\test\Pain Drain\libraries\lvgl\src\misc/lv_mem.c ****         MEM_TRACE("using zero_mem");
 274              		.loc 1 197 0
 275 0004 0029     		cmp	r1, #0
 276 0006 03D1     		bne	.L23
 199:..\..\..\arduinoLCD\test\Pain Drain\libraries\lvgl\src\misc/lv_mem.c ****         return &zero_mem;
 277              		.loc 1 199 0
 278 0008 FFF7FEFF 		bl	lv_mem_free
 279              	.LVL18:
 200:..\..\..\arduinoLCD\test\Pain Drain\libraries\lvgl\src\misc/lv_mem.c ****     }
 280              		.loc 1 200 0
 281 000c 0748     		ldr	r0, .L27
 282 000e 0CE0     		b	.L24
 283              	.LVL19:
 284              	.L23:
 203:..\..\..\arduinoLCD\test\Pain Drain\libraries\lvgl\src\misc/lv_mem.c **** 
 285              		.loc 1 203 0
 286 0010 064A     		ldr	r2, .L27
 287 0012 9042     		cmp	r0, r2
 288 0014 03D1     		bne	.L25
 203:..\..\..\arduinoLCD\test\Pain Drain\libraries\lvgl\src\misc/lv_mem.c **** 
 289              		.loc 1 203 0 is_stmt 0 discriminator 1
 290 0016 0800     		movs	r0, r1
 291              	.LVL20:
 292 0018 FFF7FEFF 		bl	lv_mem_alloc
 293              	.LVL21:
 294 001c 05E0     		b	.L24
 295              	.LVL22:
 296              	.L25:
 206:..\..\..\arduinoLCD\test\Pain Drain\libraries\lvgl\src\misc/lv_mem.c **** #else
 297              		.loc 1 206 0 is_stmt 1
 298 001e 044A     		ldr	r2, .L27+4
 299 0020 1068     		ldr	r0, [r2]
 300              	.LVL23:
 301 0022 0A00     		movs	r2, r1
 302 0024 1900     		movs	r1, r3
 303              	.LVL24:
 304 0026 FFF7FEFF 		bl	lv_tlsf_realloc
 305              	.LVL25:
 306              	.L24:
 217:..\..\..\arduinoLCD\test\Pain Drain\libraries\lvgl\src\misc/lv_mem.c **** 
 307              		.loc 1 217 0
 308              		@ sp needed
 309 002a 10BD     		pop	{r4, pc}
 310              	.L28:
 311              		.align	2
 312              	.L27:
 313 002c 00000000 		.word	.LANCHOR2
 314 0030 00C00000 		.word	.LANCHOR1
 315              		.cfi_endproc
 316              	.LFE28:
ARM GAS  C:\Users\haske\AppData\Local\Temp\ccZlstpN.s 			page 17


 317              		.size	lv_mem_realloc, .-lv_mem_realloc
 318              		.section	.text.lv_mem_test,"ax",%progbits
 319              		.align	2
 320              		.global	lv_mem_test
 321              		.code	16
 322              		.thumb_func
 323              		.type	lv_mem_test, %function
 324              	lv_mem_test:
 325              	.LFB29:
 220:..\..\..\arduinoLCD\test\Pain Drain\libraries\lvgl\src\misc/lv_mem.c ****     if(zero_mem != ZERO_MEM_SENTINEL) {
 326              		.loc 1 220 0
 327              		.cfi_startproc
 328              		@ args = 0, pretend = 0, frame = 0
 329              		@ frame_needed = 0, uses_anonymous_args = 0
 330 0000 10B5     		push	{r4, lr}
 331              		.cfi_def_cfa_offset 8
 332              		.cfi_offset 4, -8
 333              		.cfi_offset 14, -4
 221:..\..\..\arduinoLCD\test\Pain Drain\libraries\lvgl\src\misc/lv_mem.c ****         LV_LOG_WARN("zero_mem is written");
 334              		.loc 1 221 0
 335 0002 0D4B     		ldr	r3, .L34
 336 0004 1A68     		ldr	r2, [r3]
 337 0006 0D4B     		ldr	r3, .L34+4
 338 0008 9A42     		cmp	r2, r3
 339 000a 0FD1     		bne	.L31
 227:..\..\..\arduinoLCD\test\Pain Drain\libraries\lvgl\src\misc/lv_mem.c ****         LV_LOG_WARN("failed");
 340              		.loc 1 227 0
 341 000c 0C4B     		ldr	r3, .L34+8
 342 000e 1868     		ldr	r0, [r3]
 343 0010 FFF7FEFF 		bl	lv_tlsf_check
 344              	.LVL26:
 345 0014 0028     		cmp	r0, #0
 346 0016 0BD1     		bne	.L32
 232:..\..\..\arduinoLCD\test\Pain Drain\libraries\lvgl\src\misc/lv_mem.c ****         LV_LOG_WARN("pool failed");
 347              		.loc 1 232 0
 348 0018 094B     		ldr	r3, .L34+8
 349 001a 1868     		ldr	r0, [r3]
 350 001c FFF7FEFF 		bl	lv_tlsf_get_pool
 351              	.LVL27:
 352 0020 FFF7FEFF 		bl	lv_tlsf_check_pool
 353              	.LVL28:
 354 0024 0028     		cmp	r0, #0
 355 0026 05D0     		beq	.L33
 234:..\..\..\arduinoLCD\test\Pain Drain\libraries\lvgl\src\misc/lv_mem.c ****     }
 356              		.loc 1 234 0
 357 0028 0020     		movs	r0, #0
 358 002a 04E0     		b	.L30
 359              	.L31:
 223:..\..\..\arduinoLCD\test\Pain Drain\libraries\lvgl\src\misc/lv_mem.c ****     }
 360              		.loc 1 223 0
 361 002c 0020     		movs	r0, #0
 362 002e 02E0     		b	.L30
 363              	.L32:
 229:..\..\..\arduinoLCD\test\Pain Drain\libraries\lvgl\src\misc/lv_mem.c ****     }
 364              		.loc 1 229 0
 365 0030 0020     		movs	r0, #0
 366 0032 00E0     		b	.L30
ARM GAS  C:\Users\haske\AppData\Local\Temp\ccZlstpN.s 			page 18


 367              	.L33:
 238:..\..\..\arduinoLCD\test\Pain Drain\libraries\lvgl\src\misc/lv_mem.c **** }
 368              		.loc 1 238 0
 369 0034 0120     		movs	r0, #1
 370              	.L30:
 239:..\..\..\arduinoLCD\test\Pain Drain\libraries\lvgl\src\misc/lv_mem.c **** 
 371              		.loc 1 239 0
 372              		@ sp needed
 373 0036 10BD     		pop	{r4, pc}
 374              	.L35:
 375              		.align	2
 376              	.L34:
 377 0038 00000000 		.word	.LANCHOR2
 378 003c D4C3B2A1 		.word	-1582119980
 379 0040 00C00000 		.word	.LANCHOR1
 380              		.cfi_endproc
 381              	.LFE29:
 382              		.size	lv_mem_test, .-lv_mem_test
 383              		.section	.text.lv_mem_buf_get,"ax",%progbits
 384              		.align	2
 385              		.global	lv_mem_buf_get
 386              		.code	16
 387              		.thumb_func
 388              		.type	lv_mem_buf_get, %function
 389              	lv_mem_buf_get:
 390              	.LFB31:
 277:..\..\..\arduinoLCD\test\Pain Drain\libraries\lvgl\src\misc/lv_mem.c ****     if(size == 0) return NULL;
 391              		.loc 1 277 0
 392              		.cfi_startproc
 393              		@ args = 0, pretend = 0, frame = 0
 394              		@ frame_needed = 0, uses_anonymous_args = 0
 395              	.LVL29:
 396 0000 70B5     		push	{r4, r5, r6, lr}
 397              		.cfi_def_cfa_offset 16
 398              		.cfi_offset 4, -16
 399              		.cfi_offset 5, -12
 400              		.cfi_offset 6, -8
 401              		.cfi_offset 14, -4
 402 0002 041E     		subs	r4, r0, #0
 278:..\..\..\arduinoLCD\test\Pain Drain\libraries\lvgl\src\misc/lv_mem.c **** 
 403              		.loc 1 278 0
 404 0004 5AD0     		beq	.L49
 405 0006 0023     		movs	r3, #0
 406 0008 0120     		movs	r0, #1
 407              	.LVL30:
 408 000a 4042     		rsbs	r0, r0, #0
 409 000c 24E0     		b	.L38
 410              	.LVL31:
 411              	.L42:
 412              	.LBB2:
 285:..\..\..\arduinoLCD\test\Pain Drain\libraries\lvgl\src\misc/lv_mem.c ****             if(LV_GC_ROOT(lv_mem_buf[i]).size == size) {
 413              		.loc 1 285 0
 414 000e DA00     		lsls	r2, r3, #3
 415 0010 2C4D     		ldr	r5, .L52
 416 0012 AA18     		adds	r2, r5, r2
 417 0014 9279     		ldrb	r2, [r2, #6]
 418 0016 D207     		lsls	r2, r2, #31
ARM GAS  C:\Users\haske\AppData\Local\Temp\ccZlstpN.s 			page 19


 419 0018 D20F     		lsrs	r2, r2, #31
 420 001a D2B2     		uxtb	r2, r2
 421 001c 002A     		cmp	r2, #0
 422 001e 19D1     		bne	.L39
 285:..\..\..\arduinoLCD\test\Pain Drain\libraries\lvgl\src\misc/lv_mem.c ****             if(LV_GC_ROOT(lv_mem_buf[i]).size == size) {
 423              		.loc 1 285 0 is_stmt 0 discriminator 1
 424 0020 DA00     		lsls	r2, r3, #3
 425 0022 AA18     		adds	r2, r5, r2
 426 0024 9288     		ldrh	r2, [r2, #4]
 427 0026 9442     		cmp	r4, r2
 428 0028 14D8     		bhi	.L39
 286:..\..\..\arduinoLCD\test\Pain Drain\libraries\lvgl\src\misc/lv_mem.c ****                 LV_GC_ROOT(lv_mem_buf[i]).used = 1;
 429              		.loc 1 286 0 is_stmt 1
 430 002a 08D1     		bne	.L40
 287:..\..\..\arduinoLCD\test\Pain Drain\libraries\lvgl\src\misc/lv_mem.c ****                 return LV_GC_ROOT(lv_mem_buf[i]).p;
 431              		.loc 1 287 0
 432 002c 254A     		ldr	r2, .L52
 433 002e D900     		lsls	r1, r3, #3
 434 0030 5018     		adds	r0, r2, r1
 435              	.LVL32:
 436 0032 8479     		ldrb	r4, [r0, #6]
 437              	.LVL33:
 438 0034 0123     		movs	r3, #1
 439              	.LVL34:
 440 0036 2343     		orrs	r3, r4
 441 0038 8371     		strb	r3, [r0, #6]
 288:..\..\..\arduinoLCD\test\Pain Drain\libraries\lvgl\src\misc/lv_mem.c ****             }
 442              		.loc 1 288 0
 443 003a 8858     		ldr	r0, [r1, r2]
 444 003c 41E0     		b	.L37
 445              	.LVL35:
 446              	.L40:
 290:..\..\..\arduinoLCD\test\Pain Drain\libraries\lvgl\src\misc/lv_mem.c ****                 i_guess = i;
 447              		.loc 1 290 0
 448 003e 0028     		cmp	r0, #0
 449 0040 01DA     		bge	.L41
 291:..\..\..\arduinoLCD\test\Pain Drain\libraries\lvgl\src\misc/lv_mem.c ****             }
 450              		.loc 1 291 0
 451 0042 58B2     		sxtb	r0, r3
 452              	.LVL36:
 453 0044 06E0     		b	.L39
 454              	.L41:
 294:..\..\..\arduinoLCD\test\Pain Drain\libraries\lvgl\src\misc/lv_mem.c ****                 i_guess = i;
 455              		.loc 1 294 0
 456 0046 C100     		lsls	r1, r0, #3
 457 0048 1E4D     		ldr	r5, .L52
 458 004a 6918     		adds	r1, r5, r1
 459 004c 8988     		ldrh	r1, [r1, #4]
 460 004e 8A42     		cmp	r2, r1
 461 0050 00D2     		bcs	.L39
 295:..\..\..\arduinoLCD\test\Pain Drain\libraries\lvgl\src\misc/lv_mem.c ****             }
 462              		.loc 1 295 0
 463 0052 58B2     		sxtb	r0, r3
 464              	.LVL37:
 465              	.L39:
 284:..\..\..\arduinoLCD\test\Pain Drain\libraries\lvgl\src\misc/lv_mem.c ****         if(LV_GC_ROOT(lv_mem_buf[i]).used == 0 && LV_GC_ROOT(lv_mem_buf[i]).size >= size) {
 466              		.loc 1 284 0 discriminator 2
ARM GAS  C:\Users\haske\AppData\Local\Temp\ccZlstpN.s 			page 20


 467 0054 0133     		adds	r3, r3, #1
 468              	.LVL38:
 469 0056 DBB2     		uxtb	r3, r3
 470              	.LVL39:
 471              	.L38:
 284:..\..\..\arduinoLCD\test\Pain Drain\libraries\lvgl\src\misc/lv_mem.c ****         if(LV_GC_ROOT(lv_mem_buf[i]).used == 0 && LV_GC_ROOT(lv_mem_buf[i]).size >= size) {
 472              		.loc 1 284 0 is_stmt 0 discriminator 1
 473 0058 0F2B     		cmp	r3, #15
 474 005a D8D9     		bls	.L42
 475              	.LBE2:
 300:..\..\..\arduinoLCD\test\Pain Drain\libraries\lvgl\src\misc/lv_mem.c ****         LV_GC_ROOT(lv_mem_buf[i_guess]).used = 1;
 476              		.loc 1 300 0 is_stmt 1
 477 005c 0028     		cmp	r0, #0
 478 005e 29DB     		blt	.L50
 301:..\..\..\arduinoLCD\test\Pain Drain\libraries\lvgl\src\misc/lv_mem.c ****         MEM_TRACE("returning already allocated buffer (buffer id: %d, address: %p)", i_guess,
 479              		.loc 1 301 0
 480 0060 184A     		ldr	r2, .L52
 481 0062 C000     		lsls	r0, r0, #3
 482              	.LVL40:
 483 0064 1118     		adds	r1, r2, r0
 484 0066 8C79     		ldrb	r4, [r1, #6]
 485              	.LVL41:
 486 0068 0123     		movs	r3, #1
 487              	.LVL42:
 488 006a 2343     		orrs	r3, r4
 489 006c 8B71     		strb	r3, [r1, #6]
 304:..\..\..\arduinoLCD\test\Pain Drain\libraries\lvgl\src\misc/lv_mem.c ****     }
 490              		.loc 1 304 0
 491 006e 8058     		ldr	r0, [r0, r2]
 492 0070 27E0     		b	.L37
 493              	.LVL43:
 494              	.L47:
 495              	.LBB3:
 309:..\..\..\arduinoLCD\test\Pain Drain\libraries\lvgl\src\misc/lv_mem.c ****             /*if this fails you probably need to increase your LV_MEM_SIZE/heap size*/
 496              		.loc 1 309 0
 497 0072 1D00     		movs	r5, r3
 498 0074 DA00     		lsls	r2, r3, #3
 499 0076 1349     		ldr	r1, .L52
 500 0078 8A18     		adds	r2, r1, r2
 501 007a 9279     		ldrb	r2, [r2, #6]
 502 007c D207     		lsls	r2, r2, #31
 503 007e D20F     		lsrs	r2, r2, #31
 504 0080 D2B2     		uxtb	r2, r2
 505 0082 002A     		cmp	r2, #0
 506 0084 13D1     		bne	.L44
 507              	.LBB4:
 311:..\..\..\arduinoLCD\test\Pain Drain\libraries\lvgl\src\misc/lv_mem.c ****             LV_ASSERT_MSG(buf != NULL, "Out of memory, can't allocate a new buffer (increase your L
 508              		.loc 1 311 0
 509 0086 DB00     		lsls	r3, r3, #3
 510              	.LVL44:
 511 0088 5858     		ldr	r0, [r3, r1]
 512              	.LVL45:
 513 008a 2100     		movs	r1, r4
 514 008c FFF7FEFF 		bl	lv_mem_realloc
 515              	.LVL46:
 312:..\..\..\arduinoLCD\test\Pain Drain\libraries\lvgl\src\misc/lv_mem.c ****             if(buf == NULL) return NULL;
 516              		.loc 1 312 0
ARM GAS  C:\Users\haske\AppData\Local\Temp\ccZlstpN.s 			page 21


 517 0090 0028     		cmp	r0, #0
 518 0092 00D1     		bne	.L45
 519              	.L46:
 520 0094 FEE7     		b	.L46
 521              	.L45:
 313:..\..\..\arduinoLCD\test\Pain Drain\libraries\lvgl\src\misc/lv_mem.c **** 
 522              		.loc 1 313 0
 523 0096 0028     		cmp	r0, #0
 524 0098 12D0     		beq	.L51
 315:..\..\..\arduinoLCD\test\Pain Drain\libraries\lvgl\src\misc/lv_mem.c ****             LV_GC_ROOT(lv_mem_buf[i]).size = size;
 525              		.loc 1 315 0
 526 009a 0A49     		ldr	r1, .L52
 527 009c ED00     		lsls	r5, r5, #3
 528 009e 4B19     		adds	r3, r1, r5
 529 00a0 9E79     		ldrb	r6, [r3, #6]
 530 00a2 0122     		movs	r2, #1
 531 00a4 3243     		orrs	r2, r6
 532 00a6 9A71     		strb	r2, [r3, #6]
 316:..\..\..\arduinoLCD\test\Pain Drain\libraries\lvgl\src\misc/lv_mem.c ****             LV_GC_ROOT(lv_mem_buf[i]).p    = buf;
 533              		.loc 1 316 0
 534 00a8 9C80     		strh	r4, [r3, #4]
 317:..\..\..\arduinoLCD\test\Pain Drain\libraries\lvgl\src\misc/lv_mem.c ****             MEM_TRACE("allocated (buffer id: %d, address: %p)", i, LV_GC_ROOT(lv_mem_buf[i]).p);
 535              		.loc 1 317 0
 536 00aa 6850     		str	r0, [r5, r1]
 319:..\..\..\arduinoLCD\test\Pain Drain\libraries\lvgl\src\misc/lv_mem.c ****         }
 537              		.loc 1 319 0
 538 00ac 09E0     		b	.L37
 539              	.LVL47:
 540              	.L44:
 541              	.LBE4:
 308:..\..\..\arduinoLCD\test\Pain Drain\libraries\lvgl\src\misc/lv_mem.c ****         if(LV_GC_ROOT(lv_mem_buf[i]).used == 0) {
 542              		.loc 1 308 0 discriminator 2
 543 00ae 0133     		adds	r3, r3, #1
 544              	.LVL48:
 545 00b0 DBB2     		uxtb	r3, r3
 546              	.LVL49:
 547 00b2 00E0     		b	.L43
 548              	.LVL50:
 549              	.L50:
 550              	.LBE3:
 551 00b4 0023     		movs	r3, #0
 552              	.LVL51:
 553              	.L43:
 554              	.LBB6:
 308:..\..\..\arduinoLCD\test\Pain Drain\libraries\lvgl\src\misc/lv_mem.c ****         if(LV_GC_ROOT(lv_mem_buf[i]).used == 0) {
 555              		.loc 1 308 0 is_stmt 0 discriminator 1
 556 00b6 0F2B     		cmp	r3, #15
 557 00b8 DBD9     		bls	.L47
 558              	.L48:
 559 00ba FEE7     		b	.L48
 560              	.LVL52:
 561              	.L49:
 562              	.LBE6:
 278:..\..\..\arduinoLCD\test\Pain Drain\libraries\lvgl\src\misc/lv_mem.c **** 
 563              		.loc 1 278 0 is_stmt 1
 564 00bc 0020     		movs	r0, #0
 565              	.LVL53:
ARM GAS  C:\Users\haske\AppData\Local\Temp\ccZlstpN.s 			page 22


 566 00be 00E0     		b	.L37
 567              	.LVL54:
 568              	.L51:
 569              	.LBB7:
 570              	.LBB5:
 313:..\..\..\arduinoLCD\test\Pain Drain\libraries\lvgl\src\misc/lv_mem.c **** 
 571              		.loc 1 313 0
 572 00c0 0020     		movs	r0, #0
 573              	.LVL55:
 574              	.L37:
 575              	.LBE5:
 576              	.LBE7:
 326:..\..\..\arduinoLCD\test\Pain Drain\libraries\lvgl\src\misc/lv_mem.c **** 
 577              		.loc 1 326 0
 578              		@ sp needed
 579 00c2 70BD     		pop	{r4, r5, r6, pc}
 580              	.L53:
 581              		.align	2
 582              	.L52:
 583 00c4 00000000 		.word	lv_mem_buf
 584              		.cfi_endproc
 585              	.LFE31:
 586              		.size	lv_mem_buf_get, .-lv_mem_buf_get
 587              		.section	.text.lv_mem_buf_release,"ax",%progbits
 588              		.align	2
 589              		.global	lv_mem_buf_release
 590              		.code	16
 591              		.thumb_func
 592              		.type	lv_mem_buf_release, %function
 593              	lv_mem_buf_release:
 594              	.LFB32:
 333:..\..\..\arduinoLCD\test\Pain Drain\libraries\lvgl\src\misc/lv_mem.c ****     MEM_TRACE("begin (address: %p)", p);
 595              		.loc 1 333 0
 596              		.cfi_startproc
 597              		@ args = 0, pretend = 0, frame = 0
 598              		@ frame_needed = 0, uses_anonymous_args = 0
 599              	.LVL56:
 600 0000 10B5     		push	{r4, lr}
 601              		.cfi_def_cfa_offset 8
 602              		.cfi_offset 4, -8
 603              		.cfi_offset 14, -4
 604              	.LVL57:
 605              	.LBB8:
 336:..\..\..\arduinoLCD\test\Pain Drain\libraries\lvgl\src\misc/lv_mem.c ****         if(LV_GC_ROOT(lv_mem_buf[i]).p == p) {
 606              		.loc 1 336 0
 607 0002 0023     		movs	r3, #0
 608 0004 0DE0     		b	.L55
 609              	.LVL58:
 610              	.L58:
 337:..\..\..\arduinoLCD\test\Pain Drain\libraries\lvgl\src\misc/lv_mem.c ****             LV_GC_ROOT(lv_mem_buf[i]).used = 0;
 611              		.loc 1 337 0
 612 0006 DA00     		lsls	r2, r3, #3
 613 0008 0749     		ldr	r1, .L59
 614 000a 5258     		ldr	r2, [r2, r1]
 615 000c 8242     		cmp	r2, r0
 616 000e 06D1     		bne	.L56
 338:..\..\..\arduinoLCD\test\Pain Drain\libraries\lvgl\src\misc/lv_mem.c ****             return;
ARM GAS  C:\Users\haske\AppData\Local\Temp\ccZlstpN.s 			page 23


 617              		.loc 1 338 0
 618 0010 DC00     		lsls	r4, r3, #3
 619 0012 0C19     		adds	r4, r1, r4
 620 0014 A379     		ldrb	r3, [r4, #6]
 621              	.LVL59:
 622 0016 0122     		movs	r2, #1
 623 0018 9343     		bics	r3, r2
 624 001a A371     		strb	r3, [r4, #6]
 339:..\..\..\arduinoLCD\test\Pain Drain\libraries\lvgl\src\misc/lv_mem.c ****         }
 625              		.loc 1 339 0
 626 001c 03E0     		b	.L54
 627              	.LVL60:
 628              	.L56:
 336:..\..\..\arduinoLCD\test\Pain Drain\libraries\lvgl\src\misc/lv_mem.c ****         if(LV_GC_ROOT(lv_mem_buf[i]).p == p) {
 629              		.loc 1 336 0 discriminator 2
 630 001e 0133     		adds	r3, r3, #1
 631              	.LVL61:
 632 0020 DBB2     		uxtb	r3, r3
 633              	.LVL62:
 634              	.L55:
 336:..\..\..\arduinoLCD\test\Pain Drain\libraries\lvgl\src\misc/lv_mem.c ****         if(LV_GC_ROOT(lv_mem_buf[i]).p == p) {
 635              		.loc 1 336 0 is_stmt 0 discriminator 1
 636 0022 0F2B     		cmp	r3, #15
 637 0024 EFD9     		bls	.L58
 638              	.LVL63:
 639              	.L54:
 640              	.LBE8:
 344:..\..\..\arduinoLCD\test\Pain Drain\libraries\lvgl\src\misc/lv_mem.c **** 
 641              		.loc 1 344 0 is_stmt 1
 642              		@ sp needed
 643 0026 10BD     		pop	{r4, pc}
 644              	.L60:
 645              		.align	2
 646              	.L59:
 647 0028 00000000 		.word	lv_mem_buf
 648              		.cfi_endproc
 649              	.LFE32:
 650              		.size	lv_mem_buf_release, .-lv_mem_buf_release
 651              		.section	.text.lv_mem_buf_free_all,"ax",%progbits
 652              		.align	2
 653              		.global	lv_mem_buf_free_all
 654              		.code	16
 655              		.thumb_func
 656              		.type	lv_mem_buf_free_all, %function
 657              	lv_mem_buf_free_all:
 658              	.LFB33:
 350:..\..\..\arduinoLCD\test\Pain Drain\libraries\lvgl\src\misc/lv_mem.c ****     for(uint8_t i = 0; i < LV_MEM_BUF_MAX_NUM; i++) {
 659              		.loc 1 350 0
 660              		.cfi_startproc
 661              		@ args = 0, pretend = 0, frame = 0
 662              		@ frame_needed = 0, uses_anonymous_args = 0
 663 0000 10B5     		push	{r4, lr}
 664              		.cfi_def_cfa_offset 8
 665              		.cfi_offset 4, -8
 666              		.cfi_offset 14, -4
 667              	.LVL64:
 668              	.LBB9:
ARM GAS  C:\Users\haske\AppData\Local\Temp\ccZlstpN.s 			page 24


 351:..\..\..\arduinoLCD\test\Pain Drain\libraries\lvgl\src\misc/lv_mem.c ****         if(LV_GC_ROOT(lv_mem_buf[i]).p) {
 669              		.loc 1 351 0
 670 0002 0024     		movs	r4, #0
 671 0004 12E0     		b	.L62
 672              	.LVL65:
 673              	.L64:
 352:..\..\..\arduinoLCD\test\Pain Drain\libraries\lvgl\src\misc/lv_mem.c ****             lv_mem_free(LV_GC_ROOT(lv_mem_buf[i]).p);
 674              		.loc 1 352 0
 675 0006 E300     		lsls	r3, r4, #3
 676 0008 0A4A     		ldr	r2, .L65
 677 000a 9858     		ldr	r0, [r3, r2]
 678 000c 0028     		cmp	r0, #0
 679 000e 0BD0     		beq	.L63
 353:..\..\..\arduinoLCD\test\Pain Drain\libraries\lvgl\src\misc/lv_mem.c ****             LV_GC_ROOT(lv_mem_buf[i]).p = NULL;
 680              		.loc 1 353 0
 681 0010 FFF7FEFF 		bl	lv_mem_free
 682              	.LVL66:
 354:..\..\..\arduinoLCD\test\Pain Drain\libraries\lvgl\src\misc/lv_mem.c ****             LV_GC_ROOT(lv_mem_buf[i]).used = 0;
 683              		.loc 1 354 0
 684 0014 074A     		ldr	r2, .L65
 685 0016 E300     		lsls	r3, r4, #3
 686 0018 0021     		movs	r1, #0
 687 001a 9950     		str	r1, [r3, r2]
 355:..\..\..\arduinoLCD\test\Pain Drain\libraries\lvgl\src\misc/lv_mem.c ****             LV_GC_ROOT(lv_mem_buf[i]).size = 0;
 688              		.loc 1 355 0
 689 001c D318     		adds	r3, r2, r3
 690 001e 9A79     		ldrb	r2, [r3, #6]
 691 0020 0120     		movs	r0, #1
 692 0022 8243     		bics	r2, r0
 693 0024 9A71     		strb	r2, [r3, #6]
 356:..\..\..\arduinoLCD\test\Pain Drain\libraries\lvgl\src\misc/lv_mem.c ****         }
 694              		.loc 1 356 0
 695 0026 9980     		strh	r1, [r3, #4]
 696              	.L63:
 351:..\..\..\arduinoLCD\test\Pain Drain\libraries\lvgl\src\misc/lv_mem.c ****         if(LV_GC_ROOT(lv_mem_buf[i]).p) {
 697              		.loc 1 351 0 discriminator 2
 698 0028 0134     		adds	r4, r4, #1
 699              	.LVL67:
 700 002a E4B2     		uxtb	r4, r4
 701              	.LVL68:
 702              	.L62:
 351:..\..\..\arduinoLCD\test\Pain Drain\libraries\lvgl\src\misc/lv_mem.c ****         if(LV_GC_ROOT(lv_mem_buf[i]).p) {
 703              		.loc 1 351 0 is_stmt 0 discriminator 1
 704 002c 0F2C     		cmp	r4, #15
 705 002e EAD9     		bls	.L64
 706              	.LBE9:
 359:..\..\..\arduinoLCD\test\Pain Drain\libraries\lvgl\src\misc/lv_mem.c **** 
 707              		.loc 1 359 0 is_stmt 1
 708              		@ sp needed
 709              	.LVL69:
 710 0030 10BD     		pop	{r4, pc}
 711              	.L66:
 712 0032 C046     		.align	2
 713              	.L65:
 714 0034 00000000 		.word	lv_mem_buf
 715              		.cfi_endproc
 716              	.LFE33:
ARM GAS  C:\Users\haske\AppData\Local\Temp\ccZlstpN.s 			page 25


 717              		.size	lv_mem_buf_free_all, .-lv_mem_buf_free_all
 718              		.section	.text.lv_memcpy,"ax",%progbits
 719              		.align	2
 720              		.global	lv_memcpy
 721              		.code	16
 722              		.thumb_func
 723              		.type	lv_memcpy, %function
 724              	lv_memcpy:
 725              	.LFB34:
 369:..\..\..\arduinoLCD\test\Pain Drain\libraries\lvgl\src\misc/lv_mem.c ****     uint8_t * d8 = dst;
 726              		.loc 1 369 0
 727              		.cfi_startproc
 728              		@ args = 0, pretend = 0, frame = 0
 729              		@ frame_needed = 0, uses_anonymous_args = 0
 730              	.LVL70:
 731 0000 30B5     		push	{r4, r5, lr}
 732              		.cfi_def_cfa_offset 12
 733              		.cfi_offset 4, -12
 734              		.cfi_offset 5, -8
 735              		.cfi_offset 14, -4
 736              	.LVL71:
 373:..\..\..\arduinoLCD\test\Pain Drain\libraries\lvgl\src\misc/lv_mem.c ****     lv_uintptr_t s_align = (lv_uintptr_t)s8 & ALIGN_MASK;
 737              		.loc 1 373 0
 738 0002 0323     		movs	r3, #3
 739 0004 1C00     		movs	r4, r3
 740 0006 0440     		ands	r4, r0
 741              	.LVL72:
 374:..\..\..\arduinoLCD\test\Pain Drain\libraries\lvgl\src\misc/lv_mem.c **** 
 742              		.loc 1 374 0
 743 0008 0B40     		ands	r3, r1
 744              	.LVL73:
 377:..\..\..\arduinoLCD\test\Pain Drain\libraries\lvgl\src\misc/lv_mem.c ****         while(len > 32) {
 745              		.loc 1 377 0
 746 000a 9C42     		cmp	r4, r3
 747 000c 44D1     		bne	.L84
 748 000e 4FE0     		b	.L86
 749              	.LVL74:
 750              	.L70:
 379:..\..\..\arduinoLCD\test\Pain Drain\libraries\lvgl\src\misc/lv_mem.c ****             REPEAT8(COPY8);
 751              		.loc 1 379 0
 752 0010 0C78     		ldrb	r4, [r1]
 753 0012 1C70     		strb	r4, [r3]
 754              	.LVL75:
 755 0014 4C78     		ldrb	r4, [r1, #1]
 756 0016 5C70     		strb	r4, [r3, #1]
 757              	.LVL76:
 758 0018 8C78     		ldrb	r4, [r1, #2]
 759 001a 9C70     		strb	r4, [r3, #2]
 760              	.LVL77:
 761 001c CC78     		ldrb	r4, [r1, #3]
 762 001e DC70     		strb	r4, [r3, #3]
 763              	.LVL78:
 764 0020 0C79     		ldrb	r4, [r1, #4]
 765 0022 1C71     		strb	r4, [r3, #4]
 766              	.LVL79:
 767 0024 4C79     		ldrb	r4, [r1, #5]
 768 0026 5C71     		strb	r4, [r3, #5]
ARM GAS  C:\Users\haske\AppData\Local\Temp\ccZlstpN.s 			page 26


 769              	.LVL80:
 770 0028 8C79     		ldrb	r4, [r1, #6]
 771 002a 9C71     		strb	r4, [r3, #6]
 772              	.LVL81:
 773 002c CC79     		ldrb	r4, [r1, #7]
 774 002e DC71     		strb	r4, [r3, #7]
 775              	.LVL82:
 380:..\..\..\arduinoLCD\test\Pain Drain\libraries\lvgl\src\misc/lv_mem.c ****             REPEAT8(COPY8);
 776              		.loc 1 380 0
 777 0030 0C7A     		ldrb	r4, [r1, #8]
 778 0032 1C72     		strb	r4, [r3, #8]
 779              	.LVL83:
 780 0034 4C7A     		ldrb	r4, [r1, #9]
 781 0036 5C72     		strb	r4, [r3, #9]
 782              	.LVL84:
 783 0038 8C7A     		ldrb	r4, [r1, #10]
 784 003a 9C72     		strb	r4, [r3, #10]
 785              	.LVL85:
 786 003c CC7A     		ldrb	r4, [r1, #11]
 787 003e DC72     		strb	r4, [r3, #11]
 788              	.LVL86:
 789 0040 0C7B     		ldrb	r4, [r1, #12]
 790 0042 1C73     		strb	r4, [r3, #12]
 791              	.LVL87:
 792 0044 4C7B     		ldrb	r4, [r1, #13]
 793 0046 5C73     		strb	r4, [r3, #13]
 794              	.LVL88:
 795 0048 8C7B     		ldrb	r4, [r1, #14]
 796 004a 9C73     		strb	r4, [r3, #14]
 797              	.LVL89:
 798 004c CC7B     		ldrb	r4, [r1, #15]
 799 004e DC73     		strb	r4, [r3, #15]
 800              	.LVL90:
 381:..\..\..\arduinoLCD\test\Pain Drain\libraries\lvgl\src\misc/lv_mem.c ****             REPEAT8(COPY8);
 801              		.loc 1 381 0
 802 0050 0C7C     		ldrb	r4, [r1, #16]
 803 0052 1C74     		strb	r4, [r3, #16]
 804              	.LVL91:
 805 0054 4C7C     		ldrb	r4, [r1, #17]
 806 0056 5C74     		strb	r4, [r3, #17]
 807              	.LVL92:
 808 0058 8C7C     		ldrb	r4, [r1, #18]
 809 005a 9C74     		strb	r4, [r3, #18]
 810              	.LVL93:
 811 005c CC7C     		ldrb	r4, [r1, #19]
 812 005e DC74     		strb	r4, [r3, #19]
 813              	.LVL94:
 814 0060 0C7D     		ldrb	r4, [r1, #20]
 815 0062 1C75     		strb	r4, [r3, #20]
 816              	.LVL95:
 817 0064 4C7D     		ldrb	r4, [r1, #21]
 818 0066 5C75     		strb	r4, [r3, #21]
 819              	.LVL96:
 820 0068 8C7D     		ldrb	r4, [r1, #22]
 821 006a 9C75     		strb	r4, [r3, #22]
 822              	.LVL97:
 823 006c CC7D     		ldrb	r4, [r1, #23]
ARM GAS  C:\Users\haske\AppData\Local\Temp\ccZlstpN.s 			page 27


 824 006e DC75     		strb	r4, [r3, #23]
 825              	.LVL98:
 382:..\..\..\arduinoLCD\test\Pain Drain\libraries\lvgl\src\misc/lv_mem.c ****             len -= 32;
 826              		.loc 1 382 0
 827 0070 0C7E     		ldrb	r4, [r1, #24]
 828 0072 1C76     		strb	r4, [r3, #24]
 829              	.LVL99:
 830 0074 4C7E     		ldrb	r4, [r1, #25]
 831 0076 5C76     		strb	r4, [r3, #25]
 832              	.LVL100:
 833 0078 8C7E     		ldrb	r4, [r1, #26]
 834 007a 9C76     		strb	r4, [r3, #26]
 835              	.LVL101:
 836 007c CC7E     		ldrb	r4, [r1, #27]
 837 007e DC76     		strb	r4, [r3, #27]
 838              	.LVL102:
 839 0080 0C7F     		ldrb	r4, [r1, #28]
 840 0082 1C77     		strb	r4, [r3, #28]
 841              	.LVL103:
 842 0084 4C7F     		ldrb	r4, [r1, #29]
 843 0086 5C77     		strb	r4, [r3, #29]
 844              	.LVL104:
 845 0088 8C7F     		ldrb	r4, [r1, #30]
 846 008a 9C77     		strb	r4, [r3, #30]
 847              	.LVL105:
 848 008c CC7F     		ldrb	r4, [r1, #31]
 849 008e DC77     		strb	r4, [r3, #31]
 850 0090 2033     		adds	r3, r3, #32
 851              	.LVL106:
 852 0092 2031     		adds	r1, r1, #32
 853              	.LVL107:
 383:..\..\..\arduinoLCD\test\Pain Drain\libraries\lvgl\src\misc/lv_mem.c ****         }
 854              		.loc 1 383 0
 855 0094 203A     		subs	r2, r2, #32
 856              	.LVL108:
 857 0096 00E0     		b	.L68
 858              	.LVL109:
 859              	.L84:
 860 0098 0300     		movs	r3, r0
 861              	.LVL110:
 862              	.L68:
 378:..\..\..\arduinoLCD\test\Pain Drain\libraries\lvgl\src\misc/lv_mem.c ****             REPEAT8(COPY8);
 863              		.loc 1 378 0
 864 009a 202A     		cmp	r2, #32
 865 009c B8D8     		bhi	.L70
 866 009e 04E0     		b	.L71
 867              	.L72:
 386:..\..\..\arduinoLCD\test\Pain Drain\libraries\lvgl\src\misc/lv_mem.c ****             len--;
 868              		.loc 1 386 0
 869 00a0 0C78     		ldrb	r4, [r1]
 870 00a2 1C70     		strb	r4, [r3]
 871 00a4 0133     		adds	r3, r3, #1
 872              	.LVL111:
 873 00a6 0131     		adds	r1, r1, #1
 874              	.LVL112:
 387:..\..\..\arduinoLCD\test\Pain Drain\libraries\lvgl\src\misc/lv_mem.c ****         }
 875              		.loc 1 387 0
ARM GAS  C:\Users\haske\AppData\Local\Temp\ccZlstpN.s 			page 28


 876 00a8 013A     		subs	r2, r2, #1
 877              	.LVL113:
 878              	.L71:
 385:..\..\..\arduinoLCD\test\Pain Drain\libraries\lvgl\src\misc/lv_mem.c ****             COPY8
 879              		.loc 1 385 0
 880 00aa 002A     		cmp	r2, #0
 881 00ac F8D1     		bne	.L72
 882 00ae 36E0     		b	.L73
 883              	.LVL114:
 884              	.L86:
 393:..\..\..\arduinoLCD\test\Pain Drain\libraries\lvgl\src\misc/lv_mem.c ****         d_align = ALIGN_MASK + 1 - d_align;
 885              		.loc 1 393 0
 886 00b0 002C     		cmp	r4, #0
 887 00b2 0CD0     		beq	.L85
 394:..\..\..\arduinoLCD\test\Pain Drain\libraries\lvgl\src\misc/lv_mem.c ****         while(d_align && len) {
 888              		.loc 1 394 0
 889 00b4 0423     		movs	r3, #4
 890              	.LVL115:
 891 00b6 1C1B     		subs	r4, r3, r4
 892              	.LVL116:
 370:..\..\..\arduinoLCD\test\Pain Drain\libraries\lvgl\src\misc/lv_mem.c ****     const uint8_t * s8 = src;
 893              		.loc 1 370 0
 894 00b8 0300     		movs	r3, r0
 395:..\..\..\arduinoLCD\test\Pain Drain\libraries\lvgl\src\misc/lv_mem.c ****             COPY8;
 895              		.loc 1 395 0
 896 00ba 05E0     		b	.L75
 897              	.LVL117:
 898              	.L78:
 396:..\..\..\arduinoLCD\test\Pain Drain\libraries\lvgl\src\misc/lv_mem.c ****             d_align--;
 899              		.loc 1 396 0
 900 00bc 0D78     		ldrb	r5, [r1]
 901 00be 1D70     		strb	r5, [r3]
 902 00c0 0133     		adds	r3, r3, #1
 903              	.LVL118:
 904 00c2 0131     		adds	r1, r1, #1
 905              	.LVL119:
 397:..\..\..\arduinoLCD\test\Pain Drain\libraries\lvgl\src\misc/lv_mem.c ****             len--;
 906              		.loc 1 397 0
 907 00c4 013C     		subs	r4, r4, #1
 908              	.LVL120:
 398:..\..\..\arduinoLCD\test\Pain Drain\libraries\lvgl\src\misc/lv_mem.c ****         }
 909              		.loc 1 398 0
 910 00c6 013A     		subs	r2, r2, #1
 911              	.LVL121:
 912              	.L75:
 395:..\..\..\arduinoLCD\test\Pain Drain\libraries\lvgl\src\misc/lv_mem.c ****             COPY8;
 913              		.loc 1 395 0
 914 00c8 002C     		cmp	r4, #0
 915 00ca 02D1     		bne	.L76
 916 00cc 17E0     		b	.L77
 917              	.LVL122:
 918              	.L85:
 370:..\..\..\arduinoLCD\test\Pain Drain\libraries\lvgl\src\misc/lv_mem.c ****     const uint8_t * s8 = src;
 919              		.loc 1 370 0
 920 00ce 0300     		movs	r3, r0
 921              	.LVL123:
 922 00d0 15E0     		b	.L77
ARM GAS  C:\Users\haske\AppData\Local\Temp\ccZlstpN.s 			page 29


 923              	.LVL124:
 924              	.L76:
 395:..\..\..\arduinoLCD\test\Pain Drain\libraries\lvgl\src\misc/lv_mem.c ****             COPY8;
 925              		.loc 1 395 0 discriminator 1
 926 00d2 002A     		cmp	r2, #0
 927 00d4 F2D1     		bne	.L78
 928 00d6 12E0     		b	.L77
 929              	.LVL125:
 930              	.L79:
 405:..\..\..\arduinoLCD\test\Pain Drain\libraries\lvgl\src\misc/lv_mem.c ****         len -= 32;
 931              		.loc 1 405 0
 932 00d8 0C68     		ldr	r4, [r1]
 933 00da 1C60     		str	r4, [r3]
 934              	.LVL126:
 935 00dc 4C68     		ldr	r4, [r1, #4]
 936 00de 5C60     		str	r4, [r3, #4]
 937              	.LVL127:
 938 00e0 8C68     		ldr	r4, [r1, #8]
 939 00e2 9C60     		str	r4, [r3, #8]
 940              	.LVL128:
 941 00e4 CC68     		ldr	r4, [r1, #12]
 942 00e6 DC60     		str	r4, [r3, #12]
 943              	.LVL129:
 944 00e8 0C69     		ldr	r4, [r1, #16]
 945 00ea 1C61     		str	r4, [r3, #16]
 946              	.LVL130:
 947 00ec 4C69     		ldr	r4, [r1, #20]
 948 00ee 5C61     		str	r4, [r3, #20]
 949              	.LVL131:
 950 00f0 8C69     		ldr	r4, [r1, #24]
 951 00f2 9C61     		str	r4, [r3, #24]
 952              	.LVL132:
 953 00f4 CC69     		ldr	r4, [r1, #28]
 954 00f6 DC61     		str	r4, [r3, #28]
 955 00f8 2033     		adds	r3, r3, #32
 956              	.LVL133:
 957 00fa 2031     		adds	r1, r1, #32
 958              	.LVL134:
 406:..\..\..\arduinoLCD\test\Pain Drain\libraries\lvgl\src\misc/lv_mem.c ****     }
 959              		.loc 1 406 0
 960 00fc 203A     		subs	r2, r2, #32
 961              	.LVL135:
 962              	.L77:
 404:..\..\..\arduinoLCD\test\Pain Drain\libraries\lvgl\src\misc/lv_mem.c ****         REPEAT8(COPY32)
 963              		.loc 1 404 0
 964 00fe 202A     		cmp	r2, #32
 965 0100 EAD8     		bhi	.L79
 966 0102 02E0     		b	.L80
 967              	.L81:
 410:..\..\..\arduinoLCD\test\Pain Drain\libraries\lvgl\src\misc/lv_mem.c ****         len -= 4;
 968              		.loc 1 410 0
 969 0104 10C9     		ldmia	r1!, {r4}
 970              	.LVL136:
 971 0106 10C3     		stmia	r3!, {r4}
 972              	.LVL137:
 411:..\..\..\arduinoLCD\test\Pain Drain\libraries\lvgl\src\misc/lv_mem.c ****     }
 973              		.loc 1 411 0
ARM GAS  C:\Users\haske\AppData\Local\Temp\ccZlstpN.s 			page 30


 974 0108 043A     		subs	r2, r2, #4
 975              	.LVL138:
 976              	.L80:
 409:..\..\..\arduinoLCD\test\Pain Drain\libraries\lvgl\src\misc/lv_mem.c ****         COPY32;
 977              		.loc 1 409 0
 978 010a 042A     		cmp	r2, #4
 979 010c FAD8     		bhi	.L81
 980 010e 04E0     		b	.L82
 981              	.LVL139:
 982              	.L83:
 417:..\..\..\arduinoLCD\test\Pain Drain\libraries\lvgl\src\misc/lv_mem.c ****         len--;
 983              		.loc 1 417 0
 984 0110 0C78     		ldrb	r4, [r1]
 985 0112 1C70     		strb	r4, [r3]
 986 0114 0133     		adds	r3, r3, #1
 987              	.LVL140:
 988 0116 0131     		adds	r1, r1, #1
 989              	.LVL141:
 418:..\..\..\arduinoLCD\test\Pain Drain\libraries\lvgl\src\misc/lv_mem.c ****     }
 990              		.loc 1 418 0
 991 0118 013A     		subs	r2, r2, #1
 992              	.LVL142:
 993              	.L82:
 416:..\..\..\arduinoLCD\test\Pain Drain\libraries\lvgl\src\misc/lv_mem.c ****         COPY8
 994              		.loc 1 416 0
 995 011a 002A     		cmp	r2, #0
 996 011c F8D1     		bne	.L83
 997              	.L73:
 422:..\..\..\arduinoLCD\test\Pain Drain\libraries\lvgl\src\misc/lv_mem.c **** 
 998              		.loc 1 422 0
 999              		@ sp needed
 1000 011e 30BD     		pop	{r4, r5, pc}
 1001              		.cfi_endproc
 1002              	.LFE34:
 1003              		.size	lv_memcpy, .-lv_memcpy
 1004              		.section	.text.lv_memset,"ax",%progbits
 1005              		.align	2
 1006              		.global	lv_memset
 1007              		.code	16
 1008              		.thumb_func
 1009              		.type	lv_memset, %function
 1010              	lv_memset:
 1011              	.LFB35:
 431:..\..\..\arduinoLCD\test\Pain Drain\libraries\lvgl\src\misc/lv_mem.c **** 
 1012              		.loc 1 431 0
 1013              		.cfi_startproc
 1014              		@ args = 0, pretend = 0, frame = 0
 1015              		@ frame_needed = 0, uses_anonymous_args = 0
 1016              	.LVL143:
 1017 0000 10B5     		push	{r4, lr}
 1018              		.cfi_def_cfa_offset 8
 1019              		.cfi_offset 4, -8
 1020              		.cfi_offset 14, -4
 1021              	.LVL144:
 435:..\..\..\arduinoLCD\test\Pain Drain\libraries\lvgl\src\misc/lv_mem.c **** 
 1022              		.loc 1 435 0
 1023 0002 0323     		movs	r3, #3
ARM GAS  C:\Users\haske\AppData\Local\Temp\ccZlstpN.s 			page 31


 1024 0004 0340     		ands	r3, r0
 1025              	.LVL145:
 438:..\..\..\arduinoLCD\test\Pain Drain\libraries\lvgl\src\misc/lv_mem.c ****         d_align = ALIGN_MASK + 1 - d_align;
 1026              		.loc 1 438 0
 1027 0006 0AD0     		beq	.L88
 439:..\..\..\arduinoLCD\test\Pain Drain\libraries\lvgl\src\misc/lv_mem.c ****         while(d_align && len) {
 1028              		.loc 1 439 0
 1029 0008 0424     		movs	r4, #4
 1030 000a E31A     		subs	r3, r4, r3
 1031              	.LVL146:
 440:..\..\..\arduinoLCD\test\Pain Drain\libraries\lvgl\src\misc/lv_mem.c ****             SET8(v);
 1032              		.loc 1 440 0
 1033 000c 03E0     		b	.L89
 1034              	.LVL147:
 1035              	.L90:
 441:..\..\..\arduinoLCD\test\Pain Drain\libraries\lvgl\src\misc/lv_mem.c ****             len--;
 1036              		.loc 1 441 0
 1037 000e 0170     		strb	r1, [r0]
 1038 0010 0130     		adds	r0, r0, #1
 1039              	.LVL148:
 442:..\..\..\arduinoLCD\test\Pain Drain\libraries\lvgl\src\misc/lv_mem.c ****             d_align--;
 1040              		.loc 1 442 0
 1041 0012 013A     		subs	r2, r2, #1
 1042              	.LVL149:
 443:..\..\..\arduinoLCD\test\Pain Drain\libraries\lvgl\src\misc/lv_mem.c ****         }
 1043              		.loc 1 443 0
 1044 0014 013B     		subs	r3, r3, #1
 1045              	.LVL150:
 1046              	.L89:
 440:..\..\..\arduinoLCD\test\Pain Drain\libraries\lvgl\src\misc/lv_mem.c ****             SET8(v);
 1047              		.loc 1 440 0
 1048 0016 002B     		cmp	r3, #0
 1049 0018 01D0     		beq	.L88
 440:..\..\..\arduinoLCD\test\Pain Drain\libraries\lvgl\src\misc/lv_mem.c ****             SET8(v);
 1050              		.loc 1 440 0 is_stmt 0 discriminator 1
 1051 001a 002A     		cmp	r2, #0
 1052 001c F7D1     		bne	.L90
 1053              	.L88:
 447:..\..\..\arduinoLCD\test\Pain Drain\libraries\lvgl\src\misc/lv_mem.c **** 
 1054              		.loc 1 447 0 is_stmt 1
 1055 001e 0B02     		lsls	r3, r1, #8
 1056              	.LVL151:
 1057 0020 CB18     		adds	r3, r1, r3
 1058 0022 0C04     		lsls	r4, r1, #16
 1059 0024 1B19     		adds	r3, r3, r4
 1060 0026 0C06     		lsls	r4, r1, #24
 1061 0028 1B19     		adds	r3, r3, r4
 1062              	.LVL152:
 451:..\..\..\arduinoLCD\test\Pain Drain\libraries\lvgl\src\misc/lv_mem.c ****         REPEAT8(SET32(v32));
 1063              		.loc 1 451 0
 1064 002a 09E0     		b	.L91
 1065              	.LVL153:
 1066              	.L92:
 452:..\..\..\arduinoLCD\test\Pain Drain\libraries\lvgl\src\misc/lv_mem.c ****         len -= 32;
 1067              		.loc 1 452 0
 1068 002c 0360     		str	r3, [r0]
 1069              	.LVL154:
ARM GAS  C:\Users\haske\AppData\Local\Temp\ccZlstpN.s 			page 32


 1070 002e 4360     		str	r3, [r0, #4]
 1071              	.LVL155:
 1072 0030 8360     		str	r3, [r0, #8]
 1073              	.LVL156:
 1074 0032 C360     		str	r3, [r0, #12]
 1075              	.LVL157:
 1076 0034 0361     		str	r3, [r0, #16]
 1077              	.LVL158:
 1078 0036 4361     		str	r3, [r0, #20]
 1079              	.LVL159:
 1080 0038 8361     		str	r3, [r0, #24]
 1081              	.LVL160:
 1082 003a C361     		str	r3, [r0, #28]
 1083 003c 2030     		adds	r0, r0, #32
 1084              	.LVL161:
 453:..\..\..\arduinoLCD\test\Pain Drain\libraries\lvgl\src\misc/lv_mem.c ****     }
 1085              		.loc 1 453 0
 1086 003e 203A     		subs	r2, r2, #32
 1087              	.LVL162:
 1088              	.L91:
 451:..\..\..\arduinoLCD\test\Pain Drain\libraries\lvgl\src\misc/lv_mem.c ****         REPEAT8(SET32(v32));
 1089              		.loc 1 451 0
 1090 0040 202A     		cmp	r2, #32
 1091 0042 F3D8     		bhi	.L92
 1092 0044 01E0     		b	.L93
 1093              	.L94:
 457:..\..\..\arduinoLCD\test\Pain Drain\libraries\lvgl\src\misc/lv_mem.c ****         len -= 4;
 1094              		.loc 1 457 0
 1095 0046 08C0     		stmia	r0!, {r3}
 1096              	.LVL163:
 458:..\..\..\arduinoLCD\test\Pain Drain\libraries\lvgl\src\misc/lv_mem.c ****     }
 1097              		.loc 1 458 0
 1098 0048 043A     		subs	r2, r2, #4
 1099              	.LVL164:
 1100              	.L93:
 456:..\..\..\arduinoLCD\test\Pain Drain\libraries\lvgl\src\misc/lv_mem.c ****         SET32(v32);
 1101              		.loc 1 456 0
 1102 004a 042A     		cmp	r2, #4
 1103 004c FBD8     		bhi	.L94
 1104 004e 02E0     		b	.L95
 1105              	.LVL165:
 1106              	.L96:
 463:..\..\..\arduinoLCD\test\Pain Drain\libraries\lvgl\src\misc/lv_mem.c ****         len--;
 1107              		.loc 1 463 0
 1108 0050 0170     		strb	r1, [r0]
 1109 0052 0130     		adds	r0, r0, #1
 1110              	.LVL166:
 464:..\..\..\arduinoLCD\test\Pain Drain\libraries\lvgl\src\misc/lv_mem.c ****     }
 1111              		.loc 1 464 0
 1112 0054 013A     		subs	r2, r2, #1
 1113              	.LVL167:
 1114              	.L95:
 462:..\..\..\arduinoLCD\test\Pain Drain\libraries\lvgl\src\misc/lv_mem.c ****         SET8(v);
 1115              		.loc 1 462 0
 1116 0056 002A     		cmp	r2, #0
 1117 0058 FAD1     		bne	.L96
 466:..\..\..\arduinoLCD\test\Pain Drain\libraries\lvgl\src\misc/lv_mem.c **** 
ARM GAS  C:\Users\haske\AppData\Local\Temp\ccZlstpN.s 			page 33


 1118              		.loc 1 466 0
 1119              		@ sp needed
 1120 005a 10BD     		pop	{r4, pc}
 1121              		.cfi_endproc
 1122              	.LFE35:
 1123              		.size	lv_memset, .-lv_memset
 1124              		.global	__aeabi_uidiv
 1125              		.section	.text.lv_mem_monitor,"ax",%progbits
 1126              		.align	2
 1127              		.global	lv_mem_monitor
 1128              		.code	16
 1129              		.thumb_func
 1130              		.type	lv_mem_monitor, %function
 1131              	lv_mem_monitor:
 1132              	.LFB30:
 247:..\..\..\arduinoLCD\test\Pain Drain\libraries\lvgl\src\misc/lv_mem.c ****     /*Init the data*/
 1133              		.loc 1 247 0
 1134              		.cfi_startproc
 1135              		@ args = 0, pretend = 0, frame = 0
 1136              		@ frame_needed = 0, uses_anonymous_args = 0
 1137              	.LVL168:
 1138 0000 70B5     		push	{r4, r5, r6, lr}
 1139              		.cfi_def_cfa_offset 16
 1140              		.cfi_offset 4, -16
 1141              		.cfi_offset 5, -12
 1142              		.cfi_offset 6, -8
 1143              		.cfi_offset 14, -4
 1144 0002 0400     		movs	r4, r0
 249:..\..\..\arduinoLCD\test\Pain Drain\libraries\lvgl\src\misc/lv_mem.c **** #if LV_MEM_CUSTOM == 0
 1145              		.loc 1 249 0
 1146 0004 1C22     		movs	r2, #28
 1147 0006 0021     		movs	r1, #0
 1148 0008 FFF7FEFF 		bl	lv_memset
 1149              	.LVL169:
 253:..\..\..\arduinoLCD\test\Pain Drain\libraries\lvgl\src\misc/lv_mem.c **** 
 1150              		.loc 1 253 0
 1151 000c 124B     		ldr	r3, .L100
 1152 000e 1868     		ldr	r0, [r3]
 1153 0010 FFF7FEFF 		bl	lv_tlsf_get_pool
 1154              	.LVL170:
 1155 0014 2200     		movs	r2, r4
 1156 0016 1149     		ldr	r1, .L100+4
 1157 0018 FFF7FEFF 		bl	lv_tlsf_walk_pool
 1158              	.LVL171:
 255:..\..\..\arduinoLCD\test\Pain Drain\libraries\lvgl\src\misc/lv_mem.c ****     mon_p->used_pct = 100 - (100U * mon_p->free_size) / mon_p->total_size;
 1159              		.loc 1 255 0
 1160 001c C021     		movs	r1, #192
 1161 001e 0902     		lsls	r1, r1, #8
 1162 0020 2160     		str	r1, [r4]
 256:..\..\..\arduinoLCD\test\Pain Drain\libraries\lvgl\src\misc/lv_mem.c ****     if(mon_p->free_size > 0) {
 1163              		.loc 1 256 0
 1164 0022 A568     		ldr	r5, [r4, #8]
 1165 0024 6420     		movs	r0, #100
 1166 0026 6843     		muls	r0, r5
 1167 0028 FFF7FEFF 		bl	__aeabi_uidiv
 1168              	.LVL172:
 1169 002c 6423     		movs	r3, #100
ARM GAS  C:\Users\haske\AppData\Local\Temp\ccZlstpN.s 			page 34


 1170 002e 181A     		subs	r0, r3, r0
 1171 0030 2076     		strb	r0, [r4, #24]
 257:..\..\..\arduinoLCD\test\Pain Drain\libraries\lvgl\src\misc/lv_mem.c ****         mon_p->frag_pct = mon_p->free_biggest_size * 100U / mon_p->free_size;
 1172              		.loc 1 257 0
 1173 0032 002D     		cmp	r5, #0
 1174 0034 0AD0     		beq	.L98
 258:..\..\..\arduinoLCD\test\Pain Drain\libraries\lvgl\src\misc/lv_mem.c ****         mon_p->frag_pct = 100 - mon_p->frag_pct;
 1175              		.loc 1 258 0
 1176 0036 6420     		movs	r0, #100
 1177 0038 E368     		ldr	r3, [r4, #12]
 1178 003a 5843     		muls	r0, r3
 1179 003c 2900     		movs	r1, r5
 1180 003e FFF7FEFF 		bl	__aeabi_uidiv
 1181              	.LVL173:
 1182 0042 C0B2     		uxtb	r0, r0
 259:..\..\..\arduinoLCD\test\Pain Drain\libraries\lvgl\src\misc/lv_mem.c ****     }
 1183              		.loc 1 259 0
 1184 0044 6423     		movs	r3, #100
 1185 0046 181A     		subs	r0, r3, r0
 1186 0048 6076     		strb	r0, [r4, #25]
 1187 004a 01E0     		b	.L99
 1188              	.L98:
 262:..\..\..\arduinoLCD\test\Pain Drain\libraries\lvgl\src\misc/lv_mem.c ****     }
 1189              		.loc 1 262 0
 1190 004c 0023     		movs	r3, #0
 1191 004e 6376     		strb	r3, [r4, #25]
 1192              	.L99:
 265:..\..\..\arduinoLCD\test\Pain Drain\libraries\lvgl\src\misc/lv_mem.c **** 
 1193              		.loc 1 265 0
 1194 0050 014B     		ldr	r3, .L100
 1195 0052 9B68     		ldr	r3, [r3, #8]
 1196 0054 6361     		str	r3, [r4, #20]
 269:..\..\..\arduinoLCD\test\Pain Drain\libraries\lvgl\src\misc/lv_mem.c **** 
 1197              		.loc 1 269 0
 1198              		@ sp needed
 1199              	.LVL174:
 1200 0056 70BD     		pop	{r4, r5, r6, pc}
 1201              	.L101:
 1202              		.align	2
 1203              	.L100:
 1204 0058 00C00000 		.word	.LANCHOR1
 1205 005c 00000000 		.word	lv_mem_walker
 1206              		.cfi_endproc
 1207              	.LFE30:
 1208              		.size	lv_mem_monitor, .-lv_mem_monitor
 1209              		.section	.text.lv_memset_00,"ax",%progbits
 1210              		.align	2
 1211              		.global	lv_memset_00
 1212              		.code	16
 1213              		.thumb_func
 1214              		.type	lv_memset_00, %function
 1215              	lv_memset_00:
 1216              	.LFB36:
 474:..\..\..\arduinoLCD\test\Pain Drain\libraries\lvgl\src\misc/lv_mem.c ****     uint8_t * d8 = (uint8_t *)dst;
 1217              		.loc 1 474 0
 1218              		.cfi_startproc
 1219              		@ args = 0, pretend = 0, frame = 0
ARM GAS  C:\Users\haske\AppData\Local\Temp\ccZlstpN.s 			page 35


 1220              		@ frame_needed = 0, uses_anonymous_args = 0
 1221              		@ link register save eliminated.
 1222              	.LVL175:
 476:..\..\..\arduinoLCD\test\Pain Drain\libraries\lvgl\src\misc/lv_mem.c **** 
 1223              		.loc 1 476 0
 1224 0000 0323     		movs	r3, #3
 1225 0002 0340     		ands	r3, r0
 1226              	.LVL176:
 479:..\..\..\arduinoLCD\test\Pain Drain\libraries\lvgl\src\misc/lv_mem.c ****         d_align = ALIGN_MASK + 1 - d_align;
 1227              		.loc 1 479 0
 1228 0004 17D0     		beq	.L106
 480:..\..\..\arduinoLCD\test\Pain Drain\libraries\lvgl\src\misc/lv_mem.c ****         while(d_align && len) {
 1229              		.loc 1 480 0
 1230 0006 0422     		movs	r2, #4
 1231 0008 D31A     		subs	r3, r2, r3
 1232              	.LVL177:
 481:..\..\..\arduinoLCD\test\Pain Drain\libraries\lvgl\src\misc/lv_mem.c ****             SET8(0);
 1233              		.loc 1 481 0
 1234 000a 04E0     		b	.L104
 1235              	.LVL178:
 1236              	.L107:
 482:..\..\..\arduinoLCD\test\Pain Drain\libraries\lvgl\src\misc/lv_mem.c ****             len--;
 1237              		.loc 1 482 0
 1238 000c 0022     		movs	r2, #0
 1239 000e 0270     		strb	r2, [r0]
 1240 0010 0130     		adds	r0, r0, #1
 1241              	.LVL179:
 483:..\..\..\arduinoLCD\test\Pain Drain\libraries\lvgl\src\misc/lv_mem.c ****             d_align--;
 1242              		.loc 1 483 0
 1243 0012 0139     		subs	r1, r1, #1
 1244              	.LVL180:
 484:..\..\..\arduinoLCD\test\Pain Drain\libraries\lvgl\src\misc/lv_mem.c ****         }
 1245              		.loc 1 484 0
 1246 0014 013B     		subs	r3, r3, #1
 1247              	.LVL181:
 1248              	.L104:
 481:..\..\..\arduinoLCD\test\Pain Drain\libraries\lvgl\src\misc/lv_mem.c ****             SET8(0);
 1249              		.loc 1 481 0
 1250 0016 002B     		cmp	r3, #0
 1251 0018 0DD0     		beq	.L106
 481:..\..\..\arduinoLCD\test\Pain Drain\libraries\lvgl\src\misc/lv_mem.c ****             SET8(0);
 1252              		.loc 1 481 0 is_stmt 0 discriminator 1
 1253 001a 0029     		cmp	r1, #0
 1254 001c F6D1     		bne	.L107
 1255 001e 0AE0     		b	.L106
 1256              	.LVL182:
 1257              	.L108:
 490:..\..\..\arduinoLCD\test\Pain Drain\libraries\lvgl\src\misc/lv_mem.c ****         len -= 32;
 1258              		.loc 1 490 0 is_stmt 1
 1259 0020 0023     		movs	r3, #0
 1260 0022 0360     		str	r3, [r0]
 1261              	.LVL183:
 1262 0024 4360     		str	r3, [r0, #4]
 1263              	.LVL184:
 1264 0026 8360     		str	r3, [r0, #8]
 1265              	.LVL185:
 1266 0028 C360     		str	r3, [r0, #12]
ARM GAS  C:\Users\haske\AppData\Local\Temp\ccZlstpN.s 			page 36


 1267              	.LVL186:
 1268 002a 0361     		str	r3, [r0, #16]
 1269              	.LVL187:
 1270 002c 4361     		str	r3, [r0, #20]
 1271              	.LVL188:
 1272 002e 8361     		str	r3, [r0, #24]
 1273              	.LVL189:
 1274 0030 C361     		str	r3, [r0, #28]
 1275 0032 2030     		adds	r0, r0, #32
 1276              	.LVL190:
 491:..\..\..\arduinoLCD\test\Pain Drain\libraries\lvgl\src\misc/lv_mem.c ****     }
 1277              		.loc 1 491 0
 1278 0034 2039     		subs	r1, r1, #32
 1279              	.LVL191:
 1280              	.L106:
 489:..\..\..\arduinoLCD\test\Pain Drain\libraries\lvgl\src\misc/lv_mem.c ****         REPEAT8(SET32(0));
 1281              		.loc 1 489 0
 1282 0036 2029     		cmp	r1, #32
 1283 0038 F2D8     		bhi	.L108
 1284 003a 02E0     		b	.L109
 1285              	.L110:
 495:..\..\..\arduinoLCD\test\Pain Drain\libraries\lvgl\src\misc/lv_mem.c ****         len -= 4;
 1286              		.loc 1 495 0
 1287 003c 0023     		movs	r3, #0
 1288 003e 08C0     		stmia	r0!, {r3}
 1289              	.LVL192:
 496:..\..\..\arduinoLCD\test\Pain Drain\libraries\lvgl\src\misc/lv_mem.c ****     }
 1290              		.loc 1 496 0
 1291 0040 0439     		subs	r1, r1, #4
 1292              	.LVL193:
 1293              	.L109:
 494:..\..\..\arduinoLCD\test\Pain Drain\libraries\lvgl\src\misc/lv_mem.c ****         SET32(0);
 1294              		.loc 1 494 0
 1295 0042 0429     		cmp	r1, #4
 1296 0044 FAD8     		bhi	.L110
 1297 0046 03E0     		b	.L111
 1298              	.LVL194:
 1299              	.L112:
 501:..\..\..\arduinoLCD\test\Pain Drain\libraries\lvgl\src\misc/lv_mem.c ****         len--;
 1300              		.loc 1 501 0
 1301 0048 0023     		movs	r3, #0
 1302 004a 0370     		strb	r3, [r0]
 1303 004c 0130     		adds	r0, r0, #1
 1304              	.LVL195:
 502:..\..\..\arduinoLCD\test\Pain Drain\libraries\lvgl\src\misc/lv_mem.c ****     }
 1305              		.loc 1 502 0
 1306 004e 0139     		subs	r1, r1, #1
 1307              	.LVL196:
 1308              	.L111:
 500:..\..\..\arduinoLCD\test\Pain Drain\libraries\lvgl\src\misc/lv_mem.c ****         SET8(0);
 1309              		.loc 1 500 0
 1310 0050 0029     		cmp	r1, #0
 1311 0052 F9D1     		bne	.L112
 504:..\..\..\arduinoLCD\test\Pain Drain\libraries\lvgl\src\misc/lv_mem.c **** 
 1312              		.loc 1 504 0
 1313              		@ sp needed
 1314 0054 7047     		bx	lr
ARM GAS  C:\Users\haske\AppData\Local\Temp\ccZlstpN.s 			page 37


 1315              		.cfi_endproc
 1316              	.LFE36:
 1317              		.size	lv_memset_00, .-lv_memset_00
 1318 0056 C046     		.section	.text.lv_memset_ff,"ax",%progbits
 1319              		.align	2
 1320              		.global	lv_memset_ff
 1321              		.code	16
 1322              		.thumb_func
 1323              		.type	lv_memset_ff, %function
 1324              	lv_memset_ff:
 1325              	.LFB37:
 512:..\..\..\arduinoLCD\test\Pain Drain\libraries\lvgl\src\misc/lv_mem.c ****     uint8_t * d8 = (uint8_t *)dst;
 1326              		.loc 1 512 0
 1327              		.cfi_startproc
 1328              		@ args = 0, pretend = 0, frame = 0
 1329              		@ frame_needed = 0, uses_anonymous_args = 0
 1330              		@ link register save eliminated.
 1331              	.LVL197:
 514:..\..\..\arduinoLCD\test\Pain Drain\libraries\lvgl\src\misc/lv_mem.c **** 
 1332              		.loc 1 514 0
 1333 0000 0323     		movs	r3, #3
 1334 0002 0340     		ands	r3, r0
 1335              	.LVL198:
 517:..\..\..\arduinoLCD\test\Pain Drain\libraries\lvgl\src\misc/lv_mem.c ****         d_align = ALIGN_MASK + 1 - d_align;
 1336              		.loc 1 517 0
 1337 0004 18D0     		beq	.L117
 518:..\..\..\arduinoLCD\test\Pain Drain\libraries\lvgl\src\misc/lv_mem.c ****         while(d_align && len) {
 1338              		.loc 1 518 0
 1339 0006 0422     		movs	r2, #4
 1340 0008 D31A     		subs	r3, r2, r3
 1341              	.LVL199:
 519:..\..\..\arduinoLCD\test\Pain Drain\libraries\lvgl\src\misc/lv_mem.c ****             SET8(0xFF);
 1342              		.loc 1 519 0
 1343 000a 04E0     		b	.L115
 1344              	.LVL200:
 1345              	.L118:
 520:..\..\..\arduinoLCD\test\Pain Drain\libraries\lvgl\src\misc/lv_mem.c ****             len--;
 1346              		.loc 1 520 0
 1347 000c FF22     		movs	r2, #255
 1348 000e 0270     		strb	r2, [r0]
 1349 0010 0130     		adds	r0, r0, #1
 1350              	.LVL201:
 521:..\..\..\arduinoLCD\test\Pain Drain\libraries\lvgl\src\misc/lv_mem.c ****             d_align--;
 1351              		.loc 1 521 0
 1352 0012 0139     		subs	r1, r1, #1
 1353              	.LVL202:
 522:..\..\..\arduinoLCD\test\Pain Drain\libraries\lvgl\src\misc/lv_mem.c ****         }
 1354              		.loc 1 522 0
 1355 0014 013B     		subs	r3, r3, #1
 1356              	.LVL203:
 1357              	.L115:
 519:..\..\..\arduinoLCD\test\Pain Drain\libraries\lvgl\src\misc/lv_mem.c ****             SET8(0xFF);
 1358              		.loc 1 519 0
 1359 0016 002B     		cmp	r3, #0
 1360 0018 0ED0     		beq	.L117
 519:..\..\..\arduinoLCD\test\Pain Drain\libraries\lvgl\src\misc/lv_mem.c ****             SET8(0xFF);
 1361              		.loc 1 519 0 is_stmt 0 discriminator 1
ARM GAS  C:\Users\haske\AppData\Local\Temp\ccZlstpN.s 			page 38


 1362 001a 0029     		cmp	r1, #0
 1363 001c F6D1     		bne	.L118
 1364 001e 0BE0     		b	.L117
 1365              	.LVL204:
 1366              	.L119:
 528:..\..\..\arduinoLCD\test\Pain Drain\libraries\lvgl\src\misc/lv_mem.c ****         len -= 32;
 1367              		.loc 1 528 0 is_stmt 1
 1368 0020 0123     		movs	r3, #1
 1369 0022 5B42     		rsbs	r3, r3, #0
 1370 0024 0360     		str	r3, [r0]
 1371              	.LVL205:
 1372 0026 4360     		str	r3, [r0, #4]
 1373              	.LVL206:
 1374 0028 8360     		str	r3, [r0, #8]
 1375              	.LVL207:
 1376 002a C360     		str	r3, [r0, #12]
 1377              	.LVL208:
 1378 002c 0361     		str	r3, [r0, #16]
 1379              	.LVL209:
 1380 002e 4361     		str	r3, [r0, #20]
 1381              	.LVL210:
 1382 0030 8361     		str	r3, [r0, #24]
 1383              	.LVL211:
 1384 0032 C361     		str	r3, [r0, #28]
 1385 0034 2030     		adds	r0, r0, #32
 1386              	.LVL212:
 529:..\..\..\arduinoLCD\test\Pain Drain\libraries\lvgl\src\misc/lv_mem.c ****     }
 1387              		.loc 1 529 0
 1388 0036 2039     		subs	r1, r1, #32
 1389              	.LVL213:
 1390              	.L117:
 527:..\..\..\arduinoLCD\test\Pain Drain\libraries\lvgl\src\misc/lv_mem.c ****         REPEAT8(SET32(0xFFFFFFFF));
 1391              		.loc 1 527 0
 1392 0038 2029     		cmp	r1, #32
 1393 003a F1D8     		bhi	.L119
 1394 003c 03E0     		b	.L120
 1395              	.L121:
 533:..\..\..\arduinoLCD\test\Pain Drain\libraries\lvgl\src\misc/lv_mem.c ****         len -= 4;
 1396              		.loc 1 533 0
 1397 003e 0123     		movs	r3, #1
 1398 0040 5B42     		rsbs	r3, r3, #0
 1399 0042 08C0     		stmia	r0!, {r3}
 1400              	.LVL214:
 534:..\..\..\arduinoLCD\test\Pain Drain\libraries\lvgl\src\misc/lv_mem.c ****     }
 1401              		.loc 1 534 0
 1402 0044 0439     		subs	r1, r1, #4
 1403              	.LVL215:
 1404              	.L120:
 532:..\..\..\arduinoLCD\test\Pain Drain\libraries\lvgl\src\misc/lv_mem.c ****         SET32(0xFFFFFFFF);
 1405              		.loc 1 532 0
 1406 0046 0429     		cmp	r1, #4
 1407 0048 F9D8     		bhi	.L121
 1408 004a 03E0     		b	.L122
 1409              	.LVL216:
 1410              	.L123:
 539:..\..\..\arduinoLCD\test\Pain Drain\libraries\lvgl\src\misc/lv_mem.c ****         len--;
 1411              		.loc 1 539 0
ARM GAS  C:\Users\haske\AppData\Local\Temp\ccZlstpN.s 			page 39


 1412 004c FF23     		movs	r3, #255
 1413 004e 0370     		strb	r3, [r0]
 1414 0050 0130     		adds	r0, r0, #1
 1415              	.LVL217:
 540:..\..\..\arduinoLCD\test\Pain Drain\libraries\lvgl\src\misc/lv_mem.c ****     }
 1416              		.loc 1 540 0
 1417 0052 0139     		subs	r1, r1, #1
 1418              	.LVL218:
 1419              	.L122:
 538:..\..\..\arduinoLCD\test\Pain Drain\libraries\lvgl\src\misc/lv_mem.c ****         SET8(0xFF);
 1420              		.loc 1 538 0
 1421 0054 0029     		cmp	r1, #0
 1422 0056 F9D1     		bne	.L123
 542:..\..\..\arduinoLCD\test\Pain Drain\libraries\lvgl\src\misc/lv_mem.c **** 
 1423              		.loc 1 542 0
 1424              		@ sp needed
 1425 0058 7047     		bx	lr
 1426              		.cfi_endproc
 1427              	.LFE37:
 1428              		.size	lv_memset_ff, .-lv_memset_ff
 1429 005a C046     		.data
 1430              		.align	2
 1431              		.set	.LANCHOR2,. + 0
 1432              		.type	zero_mem, %object
 1433              		.size	zero_mem, 4
 1434              	zero_mem:
 1435 0000 D4C3B2A1 		.word	-1582119980
 1436              		.bss
 1437              		.align	2
 1438              		.set	.LANCHOR0,. + 0
 1439              		.set	.LANCHOR1,. + 49152
 1440              		.type	work_mem_int.5827, %object
 1441              		.size	work_mem_int.5827, 49152
 1442              	work_mem_int.5827:
 1443 0000 00000000 		.space	49152
 1443      00000000 
 1443      00000000 
 1443      00000000 
 1443      00000000 
 1444              		.type	tlsf, %object
 1445              		.size	tlsf, 4
 1446              	tlsf:
 1447 c000 00000000 		.space	4
 1448              		.type	cur_used, %object
 1449              		.size	cur_used, 4
 1450              	cur_used:
 1451 c004 00000000 		.space	4
 1452              		.type	max_used, %object
 1453              		.size	max_used, 4
 1454              	max_used:
 1455 c008 00000000 		.space	4
 1456              		.text
 1457              	.Letext0:
 1458              		.file 2 "c:\\program files (x86)\\cypress\\psoc creator\\4.4\\psoc creator\\import\\gnu\\arm\\5.4.
 1459              		.file 3 "c:\\program files (x86)\\cypress\\psoc creator\\4.4\\psoc creator\\import\\gnu\\arm\\5.4.
 1460              		.file 4 "c:\\program files (x86)\\cypress\\psoc creator\\4.4\\psoc creator\\import\\gnu\\arm\\5.4.
 1461              		.file 5 "..\\..\\..\\arduinoLCD\\test\\Pain Drain\\libraries\\lvgl\\src\\misc\\lv_types.h"
ARM GAS  C:\Users\haske\AppData\Local\Temp\ccZlstpN.s 			page 40


 1462              		.file 6 "..\\..\\..\\arduinoLCD\\test\\Pain Drain\\libraries\\lvgl\\src\\misc\\lv_mem.h"
 1463              		.file 7 "..\\..\\..\\arduinoLCD\\test\\Pain Drain\\libraries\\lvgl\\src\\misc\\lv_tlsf.h"
 1464              		.file 8 "..\\..\\..\\arduinoLCD\\test\\Pain Drain\\libraries\\lvgl\\src\\misc\\lv_gc.h"