ARM GAS  C:\Users\haske\AppData\Local\Temp\ccPicfbF.s 			page 1


   1              		.syntax unified
   2              		.cpu cortex-m0plus
   3              		.fpu softvfp
   4              		.eabi_attribute 20, 1
   5              		.eabi_attribute 21, 1
   6              		.eabi_attribute 23, 3
   7              		.eabi_attribute 24, 1
   8              		.eabi_attribute 25, 1
   9              		.eabi_attribute 26, 1
  10              		.eabi_attribute 30, 1
  11              		.eabi_attribute 34, 0
  12              		.eabi_attribute 18, 4
  13              		.thumb
  14              		.syntax unified
  15              		.file	"lv_math.c"
  16              		.text
  17              	.Ltext0:
  18              		.cfi_sections	.debug_frame
  19              		.global	__aeabi_idivmod
  20              		.section	.text.lv_trigo_sin,"ax",%progbits
  21              		.align	2
  22              		.global	lv_trigo_sin
  23              		.code	16
  24              		.thumb_func
  25              		.type	lv_trigo_sin, %function
  26              	lv_trigo_sin:
  27              	.LFB1:
  28              		.file 1 "..\\..\\..\\arduinoLCD\\test\\Pain Drain\\libraries\\lvgl\\src\\misc\\lv_math.c"
   1:..\..\..\arduinoLCD\test\Pain Drain\libraries\lvgl\src\misc/lv_math.c **** /**
   2:..\..\..\arduinoLCD\test\Pain Drain\libraries\lvgl\src\misc/lv_math.c ****  * @file lv_math.c
   3:..\..\..\arduinoLCD\test\Pain Drain\libraries\lvgl\src\misc/lv_math.c ****  *
   4:..\..\..\arduinoLCD\test\Pain Drain\libraries\lvgl\src\misc/lv_math.c ****  */
   5:..\..\..\arduinoLCD\test\Pain Drain\libraries\lvgl\src\misc/lv_math.c **** 
   6:..\..\..\arduinoLCD\test\Pain Drain\libraries\lvgl\src\misc/lv_math.c **** /*********************
   7:..\..\..\arduinoLCD\test\Pain Drain\libraries\lvgl\src\misc/lv_math.c ****  *      INCLUDES
   8:..\..\..\arduinoLCD\test\Pain Drain\libraries\lvgl\src\misc/lv_math.c ****  *********************/
   9:..\..\..\arduinoLCD\test\Pain Drain\libraries\lvgl\src\misc/lv_math.c **** #include "lv_math.h"
  10:..\..\..\arduinoLCD\test\Pain Drain\libraries\lvgl\src\misc/lv_math.c **** 
  11:..\..\..\arduinoLCD\test\Pain Drain\libraries\lvgl\src\misc/lv_math.c **** /*********************
  12:..\..\..\arduinoLCD\test\Pain Drain\libraries\lvgl\src\misc/lv_math.c ****  *      DEFINES
  13:..\..\..\arduinoLCD\test\Pain Drain\libraries\lvgl\src\misc/lv_math.c ****  *********************/
  14:..\..\..\arduinoLCD\test\Pain Drain\libraries\lvgl\src\misc/lv_math.c **** 
  15:..\..\..\arduinoLCD\test\Pain Drain\libraries\lvgl\src\misc/lv_math.c **** /**********************
  16:..\..\..\arduinoLCD\test\Pain Drain\libraries\lvgl\src\misc/lv_math.c ****  *      TYPEDEFS
  17:..\..\..\arduinoLCD\test\Pain Drain\libraries\lvgl\src\misc/lv_math.c ****  **********************/
  18:..\..\..\arduinoLCD\test\Pain Drain\libraries\lvgl\src\misc/lv_math.c **** 
  19:..\..\..\arduinoLCD\test\Pain Drain\libraries\lvgl\src\misc/lv_math.c **** /**********************
  20:..\..\..\arduinoLCD\test\Pain Drain\libraries\lvgl\src\misc/lv_math.c ****  *  STATIC PROTOTYPES
  21:..\..\..\arduinoLCD\test\Pain Drain\libraries\lvgl\src\misc/lv_math.c ****  **********************/
  22:..\..\..\arduinoLCD\test\Pain Drain\libraries\lvgl\src\misc/lv_math.c **** 
  23:..\..\..\arduinoLCD\test\Pain Drain\libraries\lvgl\src\misc/lv_math.c **** /**********************
  24:..\..\..\arduinoLCD\test\Pain Drain\libraries\lvgl\src\misc/lv_math.c ****  *  STATIC VARIABLES
  25:..\..\..\arduinoLCD\test\Pain Drain\libraries\lvgl\src\misc/lv_math.c ****  **********************/
  26:..\..\..\arduinoLCD\test\Pain Drain\libraries\lvgl\src\misc/lv_math.c **** static const int16_t sin0_90_table[] = {
  27:..\..\..\arduinoLCD\test\Pain Drain\libraries\lvgl\src\misc/lv_math.c ****     0,     572,   1144,  1715,  2286,  2856,  3425,  3993,  4560,  5126,  5690,  6252,  6813,  7371
  28:..\..\..\arduinoLCD\test\Pain Drain\libraries\lvgl\src\misc/lv_math.c ****     9032,  9580,  10126, 10668, 11207, 11743, 12275, 12803, 13328, 13848, 14364, 14876, 15383, 1588
  29:..\..\..\arduinoLCD\test\Pain Drain\libraries\lvgl\src\misc/lv_math.c ****     17364, 17846, 18323, 18794, 19260, 19720, 20173, 20621, 21062, 21497, 21925, 22347, 22762, 2317
ARM GAS  C:\Users\haske\AppData\Local\Temp\ccPicfbF.s 			page 2


  30:..\..\..\arduinoLCD\test\Pain Drain\libraries\lvgl\src\misc/lv_math.c ****     24351, 24730, 25101, 25465, 25821, 26169, 26509, 26841, 27165, 27481, 27788, 28087, 28377, 2865
  31:..\..\..\arduinoLCD\test\Pain Drain\libraries\lvgl\src\misc/lv_math.c ****     29451, 29697, 29934, 30162, 30381, 30591, 30791, 30982, 31163, 31335, 31498, 31650, 31794, 3192
  32:..\..\..\arduinoLCD\test\Pain Drain\libraries\lvgl\src\misc/lv_math.c ****     32269, 32364, 32448, 32523, 32587, 32642, 32687, 32722, 32747, 32762, 32767
  33:..\..\..\arduinoLCD\test\Pain Drain\libraries\lvgl\src\misc/lv_math.c **** };
  34:..\..\..\arduinoLCD\test\Pain Drain\libraries\lvgl\src\misc/lv_math.c **** 
  35:..\..\..\arduinoLCD\test\Pain Drain\libraries\lvgl\src\misc/lv_math.c **** /**********************
  36:..\..\..\arduinoLCD\test\Pain Drain\libraries\lvgl\src\misc/lv_math.c ****  *      MACROS
  37:..\..\..\arduinoLCD\test\Pain Drain\libraries\lvgl\src\misc/lv_math.c ****  **********************/
  38:..\..\..\arduinoLCD\test\Pain Drain\libraries\lvgl\src\misc/lv_math.c **** 
  39:..\..\..\arduinoLCD\test\Pain Drain\libraries\lvgl\src\misc/lv_math.c **** /**********************
  40:..\..\..\arduinoLCD\test\Pain Drain\libraries\lvgl\src\misc/lv_math.c ****  *   GLOBAL FUNCTIONS
  41:..\..\..\arduinoLCD\test\Pain Drain\libraries\lvgl\src\misc/lv_math.c ****  **********************/
  42:..\..\..\arduinoLCD\test\Pain Drain\libraries\lvgl\src\misc/lv_math.c **** 
  43:..\..\..\arduinoLCD\test\Pain Drain\libraries\lvgl\src\misc/lv_math.c **** /**
  44:..\..\..\arduinoLCD\test\Pain Drain\libraries\lvgl\src\misc/lv_math.c ****  * Return with sinus of an angle
  45:..\..\..\arduinoLCD\test\Pain Drain\libraries\lvgl\src\misc/lv_math.c ****  * @param angle
  46:..\..\..\arduinoLCD\test\Pain Drain\libraries\lvgl\src\misc/lv_math.c ****  * @return sinus of 'angle'. sin(-90) = -32767, sin(90) = 32767
  47:..\..\..\arduinoLCD\test\Pain Drain\libraries\lvgl\src\misc/lv_math.c ****  */
  48:..\..\..\arduinoLCD\test\Pain Drain\libraries\lvgl\src\misc/lv_math.c **** LV_ATTRIBUTE_FAST_MEM int16_t lv_trigo_sin(int16_t angle)
  49:..\..\..\arduinoLCD\test\Pain Drain\libraries\lvgl\src\misc/lv_math.c **** {
  29              		.loc 1 49 0
  30              		.cfi_startproc
  31              		@ args = 0, pretend = 0, frame = 0
  32              		@ frame_needed = 0, uses_anonymous_args = 0
  33              	.LVL0:
  34 0000 10B5     		push	{r4, lr}
  35              		.cfi_def_cfa_offset 8
  36              		.cfi_offset 4, -8
  37              		.cfi_offset 14, -4
  38              	.LVL1:
  50:..\..\..\arduinoLCD\test\Pain Drain\libraries\lvgl\src\misc/lv_math.c ****     int16_t ret = 0;
  51:..\..\..\arduinoLCD\test\Pain Drain\libraries\lvgl\src\misc/lv_math.c ****     angle       = angle % 360;
  39              		.loc 1 51 0
  40 0002 B421     		movs	r1, #180
  41 0004 4900     		lsls	r1, r1, #1
  42 0006 FFF7FEFF 		bl	__aeabi_idivmod
  43              	.LVL2:
  44 000a 09B2     		sxth	r1, r1
  45              	.LVL3:
  52:..\..\..\arduinoLCD\test\Pain Drain\libraries\lvgl\src\misc/lv_math.c **** 
  53:..\..\..\arduinoLCD\test\Pain Drain\libraries\lvgl\src\misc/lv_math.c ****     if(angle < 0) angle = 360 + angle;
  46              		.loc 1 53 0
  47 000c 0029     		cmp	r1, #0
  48 000e 02DA     		bge	.L2
  49              		.loc 1 53 0 is_stmt 0 discriminator 1
  50 0010 6931     		adds	r1, r1, #105
  51              	.LVL4:
  52 0012 FF31     		adds	r1, r1, #255
  53              	.LVL5:
  54 0014 09B2     		sxth	r1, r1
  55              	.LVL6:
  56              	.L2:
  54:..\..\..\arduinoLCD\test\Pain Drain\libraries\lvgl\src\misc/lv_math.c **** 
  55:..\..\..\arduinoLCD\test\Pain Drain\libraries\lvgl\src\misc/lv_math.c ****     if(angle < 90) {
  57              		.loc 1 55 0 is_stmt 1
  58 0016 5929     		cmp	r1, #89
  59 0018 03DC     		bgt	.L3
ARM GAS  C:\Users\haske\AppData\Local\Temp\ccPicfbF.s 			page 3


  56:..\..\..\arduinoLCD\test\Pain Drain\libraries\lvgl\src\misc/lv_math.c ****         ret = sin0_90_table[angle];
  60              		.loc 1 56 0
  61 001a 4900     		lsls	r1, r1, #1
  62              	.LVL7:
  63 001c 124B     		ldr	r3, .L7
  64 001e C85E     		ldrsh	r0, [r1, r3]
  65              	.LVL8:
  66 0020 21E0     		b	.L4
  67              	.LVL9:
  68              	.L3:
  57:..\..\..\arduinoLCD\test\Pain Drain\libraries\lvgl\src\misc/lv_math.c ****     }
  58:..\..\..\arduinoLCD\test\Pain Drain\libraries\lvgl\src\misc/lv_math.c ****     else if(angle >= 90 && angle < 180) {
  69              		.loc 1 58 0
  70 0022 89B2     		uxth	r1, r1
  71 0024 0B00     		movs	r3, r1
  72 0026 5A3B     		subs	r3, r3, #90
  73 0028 9BB2     		uxth	r3, r3
  74 002a 592B     		cmp	r3, #89
  75 002c 06D8     		bhi	.L5
  59:..\..\..\arduinoLCD\test\Pain Drain\libraries\lvgl\src\misc/lv_math.c ****         angle = 180 - angle;
  76              		.loc 1 59 0
  77 002e B423     		movs	r3, #180
  78 0030 591A     		subs	r1, r3, r1
  79              	.LVL10:
  80 0032 09B2     		sxth	r1, r1
  81              	.LVL11:
  60:..\..\..\arduinoLCD\test\Pain Drain\libraries\lvgl\src\misc/lv_math.c ****         ret   = sin0_90_table[angle];
  82              		.loc 1 60 0
  83 0034 4900     		lsls	r1, r1, #1
  84              	.LVL12:
  85 0036 0C4B     		ldr	r3, .L7
  86 0038 C85E     		ldrsh	r0, [r1, r3]
  87              	.LVL13:
  88 003a 14E0     		b	.L4
  89              	.LVL14:
  90              	.L5:
  61:..\..\..\arduinoLCD\test\Pain Drain\libraries\lvgl\src\misc/lv_math.c ****     }
  62:..\..\..\arduinoLCD\test\Pain Drain\libraries\lvgl\src\misc/lv_math.c ****     else if(angle >= 180 && angle < 270) {
  91              		.loc 1 62 0
  92 003c 0B00     		movs	r3, r1
  93 003e B43B     		subs	r3, r3, #180
  94 0040 9BB2     		uxth	r3, r3
  95 0042 592B     		cmp	r3, #89
  96 0044 06D8     		bhi	.L6
  63:..\..\..\arduinoLCD\test\Pain Drain\libraries\lvgl\src\misc/lv_math.c ****         angle = angle - 180;
  97              		.loc 1 63 0
  98 0046 1BB2     		sxth	r3, r3
  99              	.LVL15:
  64:..\..\..\arduinoLCD\test\Pain Drain\libraries\lvgl\src\misc/lv_math.c ****         ret   = -sin0_90_table[angle];
 100              		.loc 1 64 0
 101 0048 5B00     		lsls	r3, r3, #1
 102              	.LVL16:
 103 004a 074A     		ldr	r2, .L7
 104 004c 985E     		ldrsh	r0, [r3, r2]
 105 004e 4042     		rsbs	r0, r0, #0
 106 0050 00B2     		sxth	r0, r0
 107              	.LVL17:
ARM GAS  C:\Users\haske\AppData\Local\Temp\ccPicfbF.s 			page 4


 108 0052 08E0     		b	.L4
 109              	.LVL18:
 110              	.L6:
  65:..\..\..\arduinoLCD\test\Pain Drain\libraries\lvgl\src\misc/lv_math.c ****     }
  66:..\..\..\arduinoLCD\test\Pain Drain\libraries\lvgl\src\misc/lv_math.c ****     else {   /*angle >=270*/
  67:..\..\..\arduinoLCD\test\Pain Drain\libraries\lvgl\src\misc/lv_math.c ****         angle = 360 - angle;
 111              		.loc 1 67 0
 112 0054 B423     		movs	r3, #180
 113 0056 5B00     		lsls	r3, r3, #1
 114 0058 591A     		subs	r1, r3, r1
 115              	.LVL19:
 116 005a 09B2     		sxth	r1, r1
 117              	.LVL20:
  68:..\..\..\arduinoLCD\test\Pain Drain\libraries\lvgl\src\misc/lv_math.c ****         ret   = -sin0_90_table[angle];
 118              		.loc 1 68 0
 119 005c 4900     		lsls	r1, r1, #1
 120              	.LVL21:
 121 005e 024B     		ldr	r3, .L7
 122 0060 C85E     		ldrsh	r0, [r1, r3]
 123 0062 4042     		rsbs	r0, r0, #0
 124 0064 00B2     		sxth	r0, r0
 125              	.LVL22:
 126              	.L4:
  69:..\..\..\arduinoLCD\test\Pain Drain\libraries\lvgl\src\misc/lv_math.c ****     }
  70:..\..\..\arduinoLCD\test\Pain Drain\libraries\lvgl\src\misc/lv_math.c **** 
  71:..\..\..\arduinoLCD\test\Pain Drain\libraries\lvgl\src\misc/lv_math.c ****     return ret;
  72:..\..\..\arduinoLCD\test\Pain Drain\libraries\lvgl\src\misc/lv_math.c **** }
 127              		.loc 1 72 0
 128              		@ sp needed
 129 0066 10BD     		pop	{r4, pc}
 130              	.L8:
 131              		.align	2
 132              	.L7:
 133 0068 00000000 		.word	.LANCHOR0
 134              		.cfi_endproc
 135              	.LFE1:
 136              		.size	lv_trigo_sin, .-lv_trigo_sin
 137              		.section	.text.lv_bezier3,"ax",%progbits
 138              		.align	2
 139              		.global	lv_bezier3
 140              		.code	16
 141              		.thumb_func
 142              		.type	lv_bezier3, %function
 143              	lv_bezier3:
 144              	.LFB2:
  73:..\..\..\arduinoLCD\test\Pain Drain\libraries\lvgl\src\misc/lv_math.c **** 
  74:..\..\..\arduinoLCD\test\Pain Drain\libraries\lvgl\src\misc/lv_math.c **** /**
  75:..\..\..\arduinoLCD\test\Pain Drain\libraries\lvgl\src\misc/lv_math.c ****  * Calculate a value of a Cubic Bezier function.
  76:..\..\..\arduinoLCD\test\Pain Drain\libraries\lvgl\src\misc/lv_math.c ****  * @param t time in range of [0..LV_BEZIER_VAL_MAX]
  77:..\..\..\arduinoLCD\test\Pain Drain\libraries\lvgl\src\misc/lv_math.c ****  * @param u0 start values in range of [0..LV_BEZIER_VAL_MAX]
  78:..\..\..\arduinoLCD\test\Pain Drain\libraries\lvgl\src\misc/lv_math.c ****  * @param u1 control value 1 values in range of [0..LV_BEZIER_VAL_MAX]
  79:..\..\..\arduinoLCD\test\Pain Drain\libraries\lvgl\src\misc/lv_math.c ****  * @param u2 control value 2 in range of [0..LV_BEZIER_VAL_MAX]
  80:..\..\..\arduinoLCD\test\Pain Drain\libraries\lvgl\src\misc/lv_math.c ****  * @param u3 end values in range of [0..LV_BEZIER_VAL_MAX]
  81:..\..\..\arduinoLCD\test\Pain Drain\libraries\lvgl\src\misc/lv_math.c ****  * @return the value calculated from the given parameters in range of [0..LV_BEZIER_VAL_MAX]
  82:..\..\..\arduinoLCD\test\Pain Drain\libraries\lvgl\src\misc/lv_math.c ****  */
  83:..\..\..\arduinoLCD\test\Pain Drain\libraries\lvgl\src\misc/lv_math.c **** uint32_t lv_bezier3(uint32_t t, uint32_t u0, uint32_t u1, uint32_t u2, uint32_t u3)
  84:..\..\..\arduinoLCD\test\Pain Drain\libraries\lvgl\src\misc/lv_math.c **** {
ARM GAS  C:\Users\haske\AppData\Local\Temp\ccPicfbF.s 			page 5


 145              		.loc 1 84 0
 146              		.cfi_startproc
 147              		@ args = 4, pretend = 0, frame = 0
 148              		@ frame_needed = 0, uses_anonymous_args = 0
 149              	.LVL23:
 150 0000 F0B5     		push	{r4, r5, r6, r7, lr}
 151              		.cfi_def_cfa_offset 20
 152              		.cfi_offset 4, -20
 153              		.cfi_offset 5, -16
 154              		.cfi_offset 6, -12
 155              		.cfi_offset 7, -8
 156              		.cfi_offset 14, -4
 157 0002 4746     		mov	r7, r8
 158 0004 80B4     		push	{r7}
 159              		.cfi_def_cfa_offset 24
 160              		.cfi_offset 8, -24
 161 0006 9846     		mov	r8, r3
  85:..\..\..\arduinoLCD\test\Pain Drain\libraries\lvgl\src\misc/lv_math.c ****     uint32_t t_rem  = 1024 - t;
 162              		.loc 1 85 0
 163 0008 8025     		movs	r5, #128
 164 000a ED00     		lsls	r5, r5, #3
 165 000c 2F1A     		subs	r7, r5, r0
 166              	.LVL24:
  86:..\..\..\arduinoLCD\test\Pain Drain\libraries\lvgl\src\misc/lv_math.c ****     uint32_t t_rem2 = (t_rem * t_rem) >> 10;
 167              		.loc 1 86 0
 168 000e 3D00     		movs	r5, r7
 169 0010 7D43     		muls	r5, r7
 170 0012 AD0A     		lsrs	r5, r5, #10
 171              	.LVL25:
  87:..\..\..\arduinoLCD\test\Pain Drain\libraries\lvgl\src\misc/lv_math.c ****     uint32_t t_rem3 = (t_rem2 * t_rem) >> 10;
 172              		.loc 1 87 0
 173 0014 2C00     		movs	r4, r5
 174 0016 7C43     		muls	r4, r7
 175 0018 A40A     		lsrs	r4, r4, #10
 176 001a A446     		mov	ip, r4
 177              	.LVL26:
  88:..\..\..\arduinoLCD\test\Pain Drain\libraries\lvgl\src\misc/lv_math.c ****     uint32_t t2     = (t * t) >> 10;
 178              		.loc 1 88 0
 179 001c 0400     		movs	r4, r0
 180              	.LVL27:
 181 001e 4443     		muls	r4, r0
 182 0020 A40A     		lsrs	r4, r4, #10
 183              	.LVL28:
  89:..\..\..\arduinoLCD\test\Pain Drain\libraries\lvgl\src\misc/lv_math.c ****     uint32_t t3     = (t2 * t) >> 10;
 184              		.loc 1 89 0
 185 0022 2600     		movs	r6, r4
 186 0024 4643     		muls	r6, r0
 187 0026 B60A     		lsrs	r6, r6, #10
 188              	.LVL29:
  90:..\..\..\arduinoLCD\test\Pain Drain\libraries\lvgl\src\misc/lv_math.c **** 
  91:..\..\..\arduinoLCD\test\Pain Drain\libraries\lvgl\src\misc/lv_math.c ****     uint32_t v1 = (t_rem3 * u0) >> 10;
 189              		.loc 1 91 0
 190 0028 6346     		mov	r3, ip
 191              	.LVL30:
 192 002a 5943     		muls	r1, r3
 193              	.LVL31:
 194 002c 890A     		lsrs	r1, r1, #10
ARM GAS  C:\Users\haske\AppData\Local\Temp\ccPicfbF.s 			page 6


 195              	.LVL32:
  92:..\..\..\arduinoLCD\test\Pain Drain\libraries\lvgl\src\misc/lv_math.c ****     uint32_t v2 = (3 * t_rem2 * t * u1) >> 20;
 196              		.loc 1 92 0
 197 002e 4543     		muls	r5, r0
 198              	.LVL33:
 199 0030 6A43     		muls	r2, r5
 200              	.LVL34:
 201 0032 5000     		lsls	r0, r2, #1
 202              	.LVL35:
 203 0034 8218     		adds	r2, r0, r2
 204 0036 120D     		lsrs	r2, r2, #20
 205              	.LVL36:
  93:..\..\..\arduinoLCD\test\Pain Drain\libraries\lvgl\src\misc/lv_math.c ****     uint32_t v3 = (3 * t_rem * t2 * u2) >> 20;
 206              		.loc 1 93 0
 207 0038 7C43     		muls	r4, r7
 208              	.LVL37:
 209 003a 4346     		mov	r3, r8
 210 003c 6343     		muls	r3, r4
 211 003e 5800     		lsls	r0, r3, #1
 212 0040 C318     		adds	r3, r0, r3
 213 0042 1B0D     		lsrs	r3, r3, #20
 214              	.LVL38:
  94:..\..\..\arduinoLCD\test\Pain Drain\libraries\lvgl\src\misc/lv_math.c ****     uint32_t v4 = (t3 * u3) >> 10;
 215              		.loc 1 94 0
 216 0044 069C     		ldr	r4, [sp, #24]
 217 0046 7443     		muls	r4, r6
 218 0048 A40A     		lsrs	r4, r4, #10
 219              	.LVL39:
  95:..\..\..\arduinoLCD\test\Pain Drain\libraries\lvgl\src\misc/lv_math.c **** 
  96:..\..\..\arduinoLCD\test\Pain Drain\libraries\lvgl\src\misc/lv_math.c ****     return v1 + v2 + v3 + v4;
 220              		.loc 1 96 0
 221 004a 8A18     		adds	r2, r1, r2
 222              	.LVL40:
 223 004c 9818     		adds	r0, r3, r2
 224 004e 2018     		adds	r0, r4, r0
  97:..\..\..\arduinoLCD\test\Pain Drain\libraries\lvgl\src\misc/lv_math.c **** }
 225              		.loc 1 97 0
 226              		@ sp needed
 227              	.LVL41:
 228              	.LVL42:
 229              	.LVL43:
 230              	.LVL44:
 231              	.LVL45:
 232 0050 04BC     		pop	{r2}
 233 0052 9046     		mov	r8, r2
 234 0054 F0BD     		pop	{r4, r5, r6, r7, pc}
 235              		.cfi_endproc
 236              	.LFE2:
 237              		.size	lv_bezier3, .-lv_bezier3
 238 0056 C046     		.section	.text.lv_sqrt,"ax",%progbits
 239              		.align	2
 240              		.global	lv_sqrt
 241              		.code	16
 242              		.thumb_func
 243              		.type	lv_sqrt, %function
 244              	lv_sqrt:
 245              	.LFB3:
ARM GAS  C:\Users\haske\AppData\Local\Temp\ccPicfbF.s 			page 7


  98:..\..\..\arduinoLCD\test\Pain Drain\libraries\lvgl\src\misc/lv_math.c **** 
  99:..\..\..\arduinoLCD\test\Pain Drain\libraries\lvgl\src\misc/lv_math.c **** /**
 100:..\..\..\arduinoLCD\test\Pain Drain\libraries\lvgl\src\misc/lv_math.c ****  * Get the square root of a number
 101:..\..\..\arduinoLCD\test\Pain Drain\libraries\lvgl\src\misc/lv_math.c ****  * @param x integer which square root should be calculated
 102:..\..\..\arduinoLCD\test\Pain Drain\libraries\lvgl\src\misc/lv_math.c ****  * @param q store the result here. q->i: integer part, q->f: fractional part in 1/256 unit
 103:..\..\..\arduinoLCD\test\Pain Drain\libraries\lvgl\src\misc/lv_math.c ****  * @param mask optional to skip some iterations if the magnitude of the root is known.
 104:..\..\..\arduinoLCD\test\Pain Drain\libraries\lvgl\src\misc/lv_math.c ****  * Set to 0x8000 by default.
 105:..\..\..\arduinoLCD\test\Pain Drain\libraries\lvgl\src\misc/lv_math.c ****  * If root < 16: mask = 0x80
 106:..\..\..\arduinoLCD\test\Pain Drain\libraries\lvgl\src\misc/lv_math.c ****  * If root < 256: mask = 0x800
 107:..\..\..\arduinoLCD\test\Pain Drain\libraries\lvgl\src\misc/lv_math.c ****  * Else: mask = 0x8000
 108:..\..\..\arduinoLCD\test\Pain Drain\libraries\lvgl\src\misc/lv_math.c ****  */
 109:..\..\..\arduinoLCD\test\Pain Drain\libraries\lvgl\src\misc/lv_math.c **** LV_ATTRIBUTE_FAST_MEM void lv_sqrt(uint32_t x, lv_sqrt_res_t * q, uint32_t mask)
 110:..\..\..\arduinoLCD\test\Pain Drain\libraries\lvgl\src\misc/lv_math.c **** {
 246              		.loc 1 110 0
 247              		.cfi_startproc
 248              		@ args = 0, pretend = 0, frame = 0
 249              		@ frame_needed = 0, uses_anonymous_args = 0
 250              	.LVL46:
 251 0000 30B5     		push	{r4, r5, lr}
 252              		.cfi_def_cfa_offset 12
 253              		.cfi_offset 4, -12
 254              		.cfi_offset 5, -8
 255              		.cfi_offset 14, -4
 111:..\..\..\arduinoLCD\test\Pain Drain\libraries\lvgl\src\misc/lv_math.c ****     x = x << 8; /*To get 4 bit precision. (sqrt(256) = 16 = 4 bit)*/
 256              		.loc 1 111 0
 257 0002 0002     		lsls	r0, r0, #8
 258              	.LVL47:
 112:..\..\..\arduinoLCD\test\Pain Drain\libraries\lvgl\src\misc/lv_math.c **** 
 113:..\..\..\arduinoLCD\test\Pain Drain\libraries\lvgl\src\misc/lv_math.c ****     uint32_t root = 0;
 259              		.loc 1 113 0
 260 0004 0024     		movs	r4, #0
 261              	.LVL48:
 262              	.L12:
 114:..\..\..\arduinoLCD\test\Pain Drain\libraries\lvgl\src\misc/lv_math.c ****     uint32_t trial;
 115:..\..\..\arduinoLCD\test\Pain Drain\libraries\lvgl\src\misc/lv_math.c ****     // http://ww1.microchip.com/...en/AppNotes/91040a.pdf
 116:..\..\..\arduinoLCD\test\Pain Drain\libraries\lvgl\src\misc/lv_math.c ****     do {
 117:..\..\..\arduinoLCD\test\Pain Drain\libraries\lvgl\src\misc/lv_math.c ****         trial = root + mask;
 263              		.loc 1 117 0
 264 0006 1319     		adds	r3, r2, r4
 265              	.LVL49:
 118:..\..\..\arduinoLCD\test\Pain Drain\libraries\lvgl\src\misc/lv_math.c ****         if(trial * trial <= x) root = trial;
 266              		.loc 1 118 0
 267 0008 1D00     		movs	r5, r3
 268 000a 5D43     		muls	r5, r3
 269 000c A842     		cmp	r0, r5
 270 000e 00D3     		bcc	.L11
 271 0010 1C00     		movs	r4, r3
 272              	.LVL50:
 273              	.L11:
 119:..\..\..\arduinoLCD\test\Pain Drain\libraries\lvgl\src\misc/lv_math.c ****         mask = mask >> 1;
 274              		.loc 1 119 0
 275 0012 5208     		lsrs	r2, r2, #1
 276              	.LVL51:
 120:..\..\..\arduinoLCD\test\Pain Drain\libraries\lvgl\src\misc/lv_math.c ****     } while(mask);
 277              		.loc 1 120 0
 278 0014 F7D1     		bne	.L12
 121:..\..\..\arduinoLCD\test\Pain Drain\libraries\lvgl\src\misc/lv_math.c **** 
ARM GAS  C:\Users\haske\AppData\Local\Temp\ccPicfbF.s 			page 8


 122:..\..\..\arduinoLCD\test\Pain Drain\libraries\lvgl\src\misc/lv_math.c ****     q->i = root >> 4;
 279              		.loc 1 122 0
 280 0016 2309     		lsrs	r3, r4, #4
 281              	.LVL52:
 282 0018 0B80     		strh	r3, [r1]
 123:..\..\..\arduinoLCD\test\Pain Drain\libraries\lvgl\src\misc/lv_math.c ****     q->f = (root & 0xf) << 4;
 283              		.loc 1 123 0
 284 001a 2401     		lsls	r4, r4, #4
 285              	.LVL53:
 286 001c FF23     		movs	r3, #255
 287 001e 1C40     		ands	r4, r3
 288 0020 4C80     		strh	r4, [r1, #2]
 124:..\..\..\arduinoLCD\test\Pain Drain\libraries\lvgl\src\misc/lv_math.c **** }
 289              		.loc 1 124 0
 290              		@ sp needed
 291 0022 30BD     		pop	{r4, r5, pc}
 292              		.cfi_endproc
 293              	.LFE3:
 294              		.size	lv_sqrt, .-lv_sqrt
 295              		.global	__aeabi_uidiv
 296              		.section	.text.lv_atan2,"ax",%progbits
 297              		.align	2
 298              		.global	lv_atan2
 299              		.code	16
 300              		.thumb_func
 301              		.type	lv_atan2, %function
 302              	lv_atan2:
 303              	.LFB4:
 125:..\..\..\arduinoLCD\test\Pain Drain\libraries\lvgl\src\misc/lv_math.c **** 
 126:..\..\..\arduinoLCD\test\Pain Drain\libraries\lvgl\src\misc/lv_math.c **** /**
 127:..\..\..\arduinoLCD\test\Pain Drain\libraries\lvgl\src\misc/lv_math.c ****  * Calculate the atan2 of a vector.
 128:..\..\..\arduinoLCD\test\Pain Drain\libraries\lvgl\src\misc/lv_math.c ****  * @param x
 129:..\..\..\arduinoLCD\test\Pain Drain\libraries\lvgl\src\misc/lv_math.c ****  * @param y
 130:..\..\..\arduinoLCD\test\Pain Drain\libraries\lvgl\src\misc/lv_math.c ****  * @return the angle in degree calculated from the given parameters in range of [0..360]
 131:..\..\..\arduinoLCD\test\Pain Drain\libraries\lvgl\src\misc/lv_math.c ****  */
 132:..\..\..\arduinoLCD\test\Pain Drain\libraries\lvgl\src\misc/lv_math.c **** uint16_t lv_atan2(int x, int y)
 133:..\..\..\arduinoLCD\test\Pain Drain\libraries\lvgl\src\misc/lv_math.c **** {
 304              		.loc 1 133 0
 305              		.cfi_startproc
 306              		@ args = 0, pretend = 0, frame = 0
 307              		@ frame_needed = 0, uses_anonymous_args = 0
 308              	.LVL54:
 309 0000 10B5     		push	{r4, lr}
 310              		.cfi_def_cfa_offset 8
 311              		.cfi_offset 4, -8
 312              		.cfi_offset 14, -4
 313              	.LVL55:
 134:..\..\..\arduinoLCD\test\Pain Drain\libraries\lvgl\src\misc/lv_math.c ****     // Fast XY vector to integer degree algorithm - Jan 2011 www.RomanBlack.com
 135:..\..\..\arduinoLCD\test\Pain Drain\libraries\lvgl\src\misc/lv_math.c ****     // Converts any XY values including 0 to a degree value that should be
 136:..\..\..\arduinoLCD\test\Pain Drain\libraries\lvgl\src\misc/lv_math.c ****     // within +/- 1 degree of the accurate value without needing
 137:..\..\..\arduinoLCD\test\Pain Drain\libraries\lvgl\src\misc/lv_math.c ****     // large slow trig functions like ArcTan() or ArcCos().
 138:..\..\..\arduinoLCD\test\Pain Drain\libraries\lvgl\src\misc/lv_math.c ****     // NOTE! at least one of the X or Y values must be non-zero!
 139:..\..\..\arduinoLCD\test\Pain Drain\libraries\lvgl\src\misc/lv_math.c ****     // This is the full version, for all 4 quadrants and will generate
 140:..\..\..\arduinoLCD\test\Pain Drain\libraries\lvgl\src\misc/lv_math.c ****     // the angle in integer degrees from 0-360.
 141:..\..\..\arduinoLCD\test\Pain Drain\libraries\lvgl\src\misc/lv_math.c ****     // Any values of X and Y are usable including negative values provided
 142:..\..\..\arduinoLCD\test\Pain Drain\libraries\lvgl\src\misc/lv_math.c ****     // they are between -1456 and 1456 so the 16bit multiply does not overflow.
 143:..\..\..\arduinoLCD\test\Pain Drain\libraries\lvgl\src\misc/lv_math.c **** 
ARM GAS  C:\Users\haske\AppData\Local\Temp\ccPicfbF.s 			page 9


 144:..\..\..\arduinoLCD\test\Pain Drain\libraries\lvgl\src\misc/lv_math.c ****     unsigned char negflag;
 145:..\..\..\arduinoLCD\test\Pain Drain\libraries\lvgl\src\misc/lv_math.c ****     unsigned char tempdegree;
 146:..\..\..\arduinoLCD\test\Pain Drain\libraries\lvgl\src\misc/lv_math.c ****     unsigned char comp;
 147:..\..\..\arduinoLCD\test\Pain Drain\libraries\lvgl\src\misc/lv_math.c ****     unsigned int degree;     // this will hold the result
 148:..\..\..\arduinoLCD\test\Pain Drain\libraries\lvgl\src\misc/lv_math.c ****     unsigned int ux;
 149:..\..\..\arduinoLCD\test\Pain Drain\libraries\lvgl\src\misc/lv_math.c ****     unsigned int uy;
 150:..\..\..\arduinoLCD\test\Pain Drain\libraries\lvgl\src\misc/lv_math.c **** 
 151:..\..\..\arduinoLCD\test\Pain Drain\libraries\lvgl\src\misc/lv_math.c ****     // Save the sign flags then remove signs and get XY as unsigned ints
 152:..\..\..\arduinoLCD\test\Pain Drain\libraries\lvgl\src\misc/lv_math.c ****     negflag = 0;
 153:..\..\..\arduinoLCD\test\Pain Drain\libraries\lvgl\src\misc/lv_math.c ****     if(x < 0) {
 314              		.loc 1 153 0
 315 0002 0028     		cmp	r0, #0
 316 0004 02DA     		bge	.L31
 317              	.LVL56:
 154:..\..\..\arduinoLCD\test\Pain Drain\libraries\lvgl\src\misc/lv_math.c ****         negflag += 0x01;    // x flag bit
 155:..\..\..\arduinoLCD\test\Pain Drain\libraries\lvgl\src\misc/lv_math.c ****         x = (0 - x);        // is now +
 318              		.loc 1 155 0
 319 0006 4042     		rsbs	r0, r0, #0
 320              	.LVL57:
 154:..\..\..\arduinoLCD\test\Pain Drain\libraries\lvgl\src\misc/lv_math.c ****         negflag += 0x01;    // x flag bit
 321              		.loc 1 154 0
 322 0008 0124     		movs	r4, #1
 323 000a 00E0     		b	.L15
 324              	.LVL58:
 325              	.L31:
 152:..\..\..\arduinoLCD\test\Pain Drain\libraries\lvgl\src\misc/lv_math.c ****     if(x < 0) {
 326              		.loc 1 152 0
 327 000c 0024     		movs	r4, #0
 328              	.LVL59:
 329              	.L15:
 156:..\..\..\arduinoLCD\test\Pain Drain\libraries\lvgl\src\misc/lv_math.c ****     }
 157:..\..\..\arduinoLCD\test\Pain Drain\libraries\lvgl\src\misc/lv_math.c ****     ux = x;                // copy to unsigned var before multiply
 158:..\..\..\arduinoLCD\test\Pain Drain\libraries\lvgl\src\misc/lv_math.c ****     if(y < 0) {
 330              		.loc 1 158 0
 331 000e 0029     		cmp	r1, #0
 332 0010 02DA     		bge	.L16
 159:..\..\..\arduinoLCD\test\Pain Drain\libraries\lvgl\src\misc/lv_math.c ****         negflag += 0x02;    // y flag bit
 333              		.loc 1 159 0
 334 0012 0234     		adds	r4, r4, #2
 335              	.LVL60:
 336 0014 E4B2     		uxtb	r4, r4
 337              	.LVL61:
 160:..\..\..\arduinoLCD\test\Pain Drain\libraries\lvgl\src\misc/lv_math.c ****         y = (0 - y);        // is now +
 338              		.loc 1 160 0
 339 0016 4942     		rsbs	r1, r1, #0
 340              	.LVL62:
 341              	.L16:
 161:..\..\..\arduinoLCD\test\Pain Drain\libraries\lvgl\src\misc/lv_math.c ****     }
 162:..\..\..\arduinoLCD\test\Pain Drain\libraries\lvgl\src\misc/lv_math.c ****     uy = y;                // copy to unsigned var before multiply
 163:..\..\..\arduinoLCD\test\Pain Drain\libraries\lvgl\src\misc/lv_math.c **** 
 164:..\..\..\arduinoLCD\test\Pain Drain\libraries\lvgl\src\misc/lv_math.c ****     // 1. Calc the scaled "degrees"
 165:..\..\..\arduinoLCD\test\Pain Drain\libraries\lvgl\src\misc/lv_math.c ****     if(ux > uy) {
 342              		.loc 1 165 0
 343 0018 8842     		cmp	r0, r1
 344 001a 0BD9     		bls	.L17
 166:..\..\..\arduinoLCD\test\Pain Drain\libraries\lvgl\src\misc/lv_math.c ****         degree = (uy * 45) / ux;   // degree result will be 0-45 range
 345              		.loc 1 166 0
ARM GAS  C:\Users\haske\AppData\Local\Temp\ccPicfbF.s 			page 10


 346 001c 4B00     		lsls	r3, r1, #1
 347 001e 5918     		adds	r1, r3, r1
 348              	.LVL63:
 349 0020 0B01     		lsls	r3, r1, #4
 350 0022 5B1A     		subs	r3, r3, r1
 351 0024 0100     		movs	r1, r0
 352 0026 1800     		movs	r0, r3
 353              	.LVL64:
 354 0028 FFF7FEFF 		bl	__aeabi_uidiv
 355              	.LVL65:
 356 002c 0300     		movs	r3, r0
 357              	.LVL66:
 167:..\..\..\arduinoLCD\test\Pain Drain\libraries\lvgl\src\misc/lv_math.c ****         negflag += 0x10;    // octant flag bit
 358              		.loc 1 167 0
 359 002e 1034     		adds	r4, r4, #16
 360              	.LVL67:
 361 0030 E4B2     		uxtb	r4, r4
 362              	.LVL68:
 363 0032 06E0     		b	.L18
 364              	.LVL69:
 365              	.L17:
 168:..\..\..\arduinoLCD\test\Pain Drain\libraries\lvgl\src\misc/lv_math.c ****     }
 169:..\..\..\arduinoLCD\test\Pain Drain\libraries\lvgl\src\misc/lv_math.c ****     else {
 170:..\..\..\arduinoLCD\test\Pain Drain\libraries\lvgl\src\misc/lv_math.c ****         degree = (ux * 45) / uy;   // degree result will be 0-45 range
 366              		.loc 1 170 0
 367 0034 4300     		lsls	r3, r0, #1
 368 0036 1818     		adds	r0, r3, r0
 369              	.LVL70:
 370 0038 0301     		lsls	r3, r0, #4
 371 003a 181A     		subs	r0, r3, r0
 372 003c FFF7FEFF 		bl	__aeabi_uidiv
 373              	.LVL71:
 374 0040 0300     		movs	r3, r0
 375              	.LVL72:
 376              	.L18:
 171:..\..\..\arduinoLCD\test\Pain Drain\libraries\lvgl\src\misc/lv_math.c ****     }
 172:..\..\..\arduinoLCD\test\Pain Drain\libraries\lvgl\src\misc/lv_math.c **** 
 173:..\..\..\arduinoLCD\test\Pain Drain\libraries\lvgl\src\misc/lv_math.c ****     // 2. Compensate for the 4 degree error curve
 174:..\..\..\arduinoLCD\test\Pain Drain\libraries\lvgl\src\misc/lv_math.c ****     comp = 0;
 175:..\..\..\arduinoLCD\test\Pain Drain\libraries\lvgl\src\misc/lv_math.c ****     tempdegree = degree;    // use an unsigned char for speed!
 377              		.loc 1 175 0
 378 0042 DAB2     		uxtb	r2, r3
 379              	.LVL73:
 176:..\..\..\arduinoLCD\test\Pain Drain\libraries\lvgl\src\misc/lv_math.c ****     if(tempdegree > 22) {    // if top half of range
 380              		.loc 1 176 0
 381 0044 162A     		cmp	r2, #22
 382 0046 11D9     		bls	.L19
 177:..\..\..\arduinoLCD\test\Pain Drain\libraries\lvgl\src\misc/lv_math.c ****         if(tempdegree <= 44) comp++;
 383              		.loc 1 177 0
 384 0048 2C2A     		cmp	r2, #44
 385 004a 01D9     		bls	.L32
 174:..\..\..\arduinoLCD\test\Pain Drain\libraries\lvgl\src\misc/lv_math.c ****     tempdegree = degree;    // use an unsigned char for speed!
 386              		.loc 1 174 0
 387 004c 0020     		movs	r0, #0
 388              	.LVL74:
 389 004e 00E0     		b	.L20
 390              	.LVL75:
ARM GAS  C:\Users\haske\AppData\Local\Temp\ccPicfbF.s 			page 11


 391              	.L32:
 392              		.loc 1 177 0
 393 0050 0120     		movs	r0, #1
 394              	.LVL76:
 395              	.L20:
 178:..\..\..\arduinoLCD\test\Pain Drain\libraries\lvgl\src\misc/lv_math.c ****         if(tempdegree <= 41) comp++;
 396              		.loc 1 178 0
 397 0052 292A     		cmp	r2, #41
 398 0054 01D8     		bhi	.L21
 399              		.loc 1 178 0 is_stmt 0 discriminator 1
 400 0056 0130     		adds	r0, r0, #1
 401              	.LVL77:
 402 0058 C0B2     		uxtb	r0, r0
 403              	.LVL78:
 404              	.L21:
 179:..\..\..\arduinoLCD\test\Pain Drain\libraries\lvgl\src\misc/lv_math.c ****         if(tempdegree <= 37) comp++;
 405              		.loc 1 179 0 is_stmt 1
 406 005a 252A     		cmp	r2, #37
 407 005c 01D8     		bhi	.L22
 408              		.loc 1 179 0 is_stmt 0 discriminator 1
 409 005e 0130     		adds	r0, r0, #1
 410              	.LVL79:
 411 0060 C0B2     		uxtb	r0, r0
 412              	.LVL80:
 413              	.L22:
 180:..\..\..\arduinoLCD\test\Pain Drain\libraries\lvgl\src\misc/lv_math.c ****         if(tempdegree <= 32) comp++;  // max is 4 degrees compensated
 414              		.loc 1 180 0 is_stmt 1
 415 0062 202A     		cmp	r2, #32
 416 0064 13D8     		bhi	.L23
 417              		.loc 1 180 0 is_stmt 0 discriminator 1
 418 0066 0130     		adds	r0, r0, #1
 419              	.LVL81:
 420 0068 C0B2     		uxtb	r0, r0
 421              	.LVL82:
 422 006a 10E0     		b	.L23
 423              	.LVL83:
 424              	.L19:
 181:..\..\..\arduinoLCD\test\Pain Drain\libraries\lvgl\src\misc/lv_math.c ****     }
 182:..\..\..\arduinoLCD\test\Pain Drain\libraries\lvgl\src\misc/lv_math.c ****     else {   // else is lower half of range
 183:..\..\..\arduinoLCD\test\Pain Drain\libraries\lvgl\src\misc/lv_math.c ****         if(tempdegree >= 2) comp++;
 425              		.loc 1 183 0 is_stmt 1
 426 006c 012A     		cmp	r2, #1
 427 006e 01D8     		bhi	.L33
 174:..\..\..\arduinoLCD\test\Pain Drain\libraries\lvgl\src\misc/lv_math.c ****     tempdegree = degree;    // use an unsigned char for speed!
 428              		.loc 1 174 0
 429 0070 0020     		movs	r0, #0
 430              	.LVL84:
 431 0072 00E0     		b	.L24
 432              	.LVL85:
 433              	.L33:
 434              		.loc 1 183 0
 435 0074 0120     		movs	r0, #1
 436              	.LVL86:
 437              	.L24:
 184:..\..\..\arduinoLCD\test\Pain Drain\libraries\lvgl\src\misc/lv_math.c ****         if(tempdegree >= 6) comp++;
 438              		.loc 1 184 0
 439 0076 052A     		cmp	r2, #5
ARM GAS  C:\Users\haske\AppData\Local\Temp\ccPicfbF.s 			page 12


 440 0078 01D9     		bls	.L25
 441              		.loc 1 184 0 is_stmt 0 discriminator 1
 442 007a 0130     		adds	r0, r0, #1
 443              	.LVL87:
 444 007c C0B2     		uxtb	r0, r0
 445              	.LVL88:
 446              	.L25:
 185:..\..\..\arduinoLCD\test\Pain Drain\libraries\lvgl\src\misc/lv_math.c ****         if(tempdegree >= 10) comp++;
 447              		.loc 1 185 0 is_stmt 1
 448 007e 092A     		cmp	r2, #9
 449 0080 01D9     		bls	.L26
 450              		.loc 1 185 0 is_stmt 0 discriminator 1
 451 0082 0130     		adds	r0, r0, #1
 452              	.LVL89:
 453 0084 C0B2     		uxtb	r0, r0
 454              	.LVL90:
 455              	.L26:
 186:..\..\..\arduinoLCD\test\Pain Drain\libraries\lvgl\src\misc/lv_math.c ****         if(tempdegree >= 15) comp++;  // max is 4 degrees compensated
 456              		.loc 1 186 0 is_stmt 1
 457 0086 0E2A     		cmp	r2, #14
 458 0088 01D9     		bls	.L23
 459              		.loc 1 186 0 is_stmt 0 discriminator 1
 460 008a 0130     		adds	r0, r0, #1
 461              	.LVL91:
 462 008c C0B2     		uxtb	r0, r0
 463              	.LVL92:
 464              	.L23:
 187:..\..\..\arduinoLCD\test\Pain Drain\libraries\lvgl\src\misc/lv_math.c ****     }
 188:..\..\..\arduinoLCD\test\Pain Drain\libraries\lvgl\src\misc/lv_math.c ****     degree += comp;   // degree is now accurate to +/- 1 degree!
 465              		.loc 1 188 0 is_stmt 1
 466 008e C018     		adds	r0, r0, r3
 467              	.LVL93:
 189:..\..\..\arduinoLCD\test\Pain Drain\libraries\lvgl\src\misc/lv_math.c **** 
 190:..\..\..\arduinoLCD\test\Pain Drain\libraries\lvgl\src\misc/lv_math.c ****     // Invert degree if it was X>Y octant, makes 0-45 into 90-45
 191:..\..\..\arduinoLCD\test\Pain Drain\libraries\lvgl\src\misc/lv_math.c ****     if(negflag & 0x10) degree = (90 - degree);
 468              		.loc 1 191 0
 469 0090 E306     		lsls	r3, r4, #27
 470 0092 01D5     		bpl	.L27
 471              		.loc 1 191 0 is_stmt 0 discriminator 1
 472 0094 5A23     		movs	r3, #90
 473 0096 181A     		subs	r0, r3, r0
 474              	.LVL94:
 475              	.L27:
 192:..\..\..\arduinoLCD\test\Pain Drain\libraries\lvgl\src\misc/lv_math.c **** 
 193:..\..\..\arduinoLCD\test\Pain Drain\libraries\lvgl\src\misc/lv_math.c ****     // 3. Degree is now 0-90 range for this quadrant,
 194:..\..\..\arduinoLCD\test\Pain Drain\libraries\lvgl\src\misc/lv_math.c ****     // need to invert it for whichever quadrant it was in
 195:..\..\..\arduinoLCD\test\Pain Drain\libraries\lvgl\src\misc/lv_math.c ****     if(negflag & 0x02) { // if -Y
 476              		.loc 1 195 0 is_stmt 1
 477 0098 A307     		lsls	r3, r4, #30
 478 009a 06D5     		bpl	.L28
 196:..\..\..\arduinoLCD\test\Pain Drain\libraries\lvgl\src\misc/lv_math.c ****         if(negflag & 0x01)   // if -Y -X
 479              		.loc 1 196 0
 480 009c E307     		lsls	r3, r4, #31
 481 009e 01D5     		bpl	.L29
 197:..\..\..\arduinoLCD\test\Pain Drain\libraries\lvgl\src\misc/lv_math.c ****             degree = (180 + degree);
 482              		.loc 1 197 0
 483 00a0 B430     		adds	r0, r0, #180
ARM GAS  C:\Users\haske\AppData\Local\Temp\ccPicfbF.s 			page 13


 484              	.LVL95:
 485 00a2 07E0     		b	.L30
 486              	.L29:
 198:..\..\..\arduinoLCD\test\Pain Drain\libraries\lvgl\src\misc/lv_math.c ****         else        // else is -Y +X
 199:..\..\..\arduinoLCD\test\Pain Drain\libraries\lvgl\src\misc/lv_math.c ****             degree = (180 - degree);
 487              		.loc 1 199 0
 488 00a4 B423     		movs	r3, #180
 489 00a6 181A     		subs	r0, r3, r0
 490              	.LVL96:
 491 00a8 04E0     		b	.L30
 492              	.L28:
 200:..\..\..\arduinoLCD\test\Pain Drain\libraries\lvgl\src\misc/lv_math.c ****     }
 201:..\..\..\arduinoLCD\test\Pain Drain\libraries\lvgl\src\misc/lv_math.c ****     else {   // else is +Y
 202:..\..\..\arduinoLCD\test\Pain Drain\libraries\lvgl\src\misc/lv_math.c ****         if(negflag & 0x01)   // if +Y -X
 493              		.loc 1 202 0
 494 00aa E307     		lsls	r3, r4, #31
 495 00ac 02D5     		bpl	.L30
 203:..\..\..\arduinoLCD\test\Pain Drain\libraries\lvgl\src\misc/lv_math.c ****             degree = (360 - degree);
 496              		.loc 1 203 0
 497 00ae B423     		movs	r3, #180
 498 00b0 5B00     		lsls	r3, r3, #1
 499 00b2 181A     		subs	r0, r3, r0
 500              	.LVL97:
 501              	.L30:
 204:..\..\..\arduinoLCD\test\Pain Drain\libraries\lvgl\src\misc/lv_math.c ****     }
 205:..\..\..\arduinoLCD\test\Pain Drain\libraries\lvgl\src\misc/lv_math.c ****     return degree;
 502              		.loc 1 205 0
 503 00b4 80B2     		uxth	r0, r0
 504              	.LVL98:
 206:..\..\..\arduinoLCD\test\Pain Drain\libraries\lvgl\src\misc/lv_math.c **** }
 505              		.loc 1 206 0
 506              		@ sp needed
 507              	.LVL99:
 508 00b6 10BD     		pop	{r4, pc}
 509              		.cfi_endproc
 510              	.LFE4:
 511              		.size	lv_atan2, .-lv_atan2
 512              		.global	__aeabi_lmul
 513              		.section	.text.lv_pow,"ax",%progbits
 514              		.align	2
 515              		.global	lv_pow
 516              		.code	16
 517              		.thumb_func
 518              		.type	lv_pow, %function
 519              	lv_pow:
 520              	.LFB5:
 207:..\..\..\arduinoLCD\test\Pain Drain\libraries\lvgl\src\misc/lv_math.c **** 
 208:..\..\..\arduinoLCD\test\Pain Drain\libraries\lvgl\src\misc/lv_math.c **** /**
 209:..\..\..\arduinoLCD\test\Pain Drain\libraries\lvgl\src\misc/lv_math.c ****  * Calculate the integer exponents.
 210:..\..\..\arduinoLCD\test\Pain Drain\libraries\lvgl\src\misc/lv_math.c ****  * @param base
 211:..\..\..\arduinoLCD\test\Pain Drain\libraries\lvgl\src\misc/lv_math.c ****  * @param power
 212:..\..\..\arduinoLCD\test\Pain Drain\libraries\lvgl\src\misc/lv_math.c ****  * @return base raised to the power exponent
 213:..\..\..\arduinoLCD\test\Pain Drain\libraries\lvgl\src\misc/lv_math.c ****  */
 214:..\..\..\arduinoLCD\test\Pain Drain\libraries\lvgl\src\misc/lv_math.c **** int64_t lv_pow(int64_t base, int8_t exp)
 215:..\..\..\arduinoLCD\test\Pain Drain\libraries\lvgl\src\misc/lv_math.c **** {
 521              		.loc 1 215 0
 522              		.cfi_startproc
ARM GAS  C:\Users\haske\AppData\Local\Temp\ccPicfbF.s 			page 14


 523              		@ args = 0, pretend = 0, frame = 8
 524              		@ frame_needed = 0, uses_anonymous_args = 0
 525              	.LVL100:
 526 0000 70B5     		push	{r4, r5, r6, lr}
 527              		.cfi_def_cfa_offset 16
 528              		.cfi_offset 4, -16
 529              		.cfi_offset 5, -12
 530              		.cfi_offset 6, -8
 531              		.cfi_offset 14, -4
 532 0002 82B0     		sub	sp, sp, #8
 533              		.cfi_def_cfa_offset 24
 534 0004 0400     		movs	r4, r0
 535 0006 0D00     		movs	r5, r1
 536 0008 1600     		movs	r6, r2
 537              	.LVL101:
 216:..\..\..\arduinoLCD\test\Pain Drain\libraries\lvgl\src\misc/lv_math.c ****     int64_t result = 1;
 538              		.loc 1 216 0
 539 000a 0122     		movs	r2, #1
 540              	.LVL102:
 541 000c 0023     		movs	r3, #0
 542 000e 0092     		str	r2, [sp]
 543 0010 0193     		str	r3, [sp, #4]
 217:..\..\..\arduinoLCD\test\Pain Drain\libraries\lvgl\src\misc/lv_math.c ****     while(exp) {
 544              		.loc 1 217 0
 545 0012 12E0     		b	.L35
 546              	.LVL103:
 547              	.L37:
 218:..\..\..\arduinoLCD\test\Pain Drain\libraries\lvgl\src\misc/lv_math.c ****         if(exp & 1)
 548              		.loc 1 218 0
 549 0014 F307     		lsls	r3, r6, #31
 550 0016 07D5     		bpl	.L36
 219:..\..\..\arduinoLCD\test\Pain Drain\libraries\lvgl\src\misc/lv_math.c ****             result *= base;
 551              		.loc 1 219 0
 552 0018 2200     		movs	r2, r4
 553 001a 2B00     		movs	r3, r5
 554 001c 0098     		ldr	r0, [sp]
 555 001e 0199     		ldr	r1, [sp, #4]
 556 0020 FFF7FEFF 		bl	__aeabi_lmul
 557              	.LVL104:
 558 0024 0090     		str	r0, [sp]
 559 0026 0191     		str	r1, [sp, #4]
 560              	.LVL105:
 561              	.L36:
 220:..\..\..\arduinoLCD\test\Pain Drain\libraries\lvgl\src\misc/lv_math.c ****         exp >>= 1;
 562              		.loc 1 220 0
 563 0028 7610     		asrs	r6, r6, #1
 564              	.LVL106:
 221:..\..\..\arduinoLCD\test\Pain Drain\libraries\lvgl\src\misc/lv_math.c ****         base *= base;
 565              		.loc 1 221 0
 566 002a 2200     		movs	r2, r4
 567 002c 2B00     		movs	r3, r5
 568 002e 2000     		movs	r0, r4
 569 0030 2900     		movs	r1, r5
 570 0032 FFF7FEFF 		bl	__aeabi_lmul
 571              	.LVL107:
 572 0036 0400     		movs	r4, r0
 573              	.LVL108:
ARM GAS  C:\Users\haske\AppData\Local\Temp\ccPicfbF.s 			page 15


 574 0038 0D00     		movs	r5, r1
 575              	.LVL109:
 576              	.L35:
 217:..\..\..\arduinoLCD\test\Pain Drain\libraries\lvgl\src\misc/lv_math.c ****         if(exp & 1)
 577              		.loc 1 217 0
 578 003a 002E     		cmp	r6, #0
 579 003c EAD1     		bne	.L37
 222:..\..\..\arduinoLCD\test\Pain Drain\libraries\lvgl\src\misc/lv_math.c ****     }
 223:..\..\..\arduinoLCD\test\Pain Drain\libraries\lvgl\src\misc/lv_math.c **** 
 224:..\..\..\arduinoLCD\test\Pain Drain\libraries\lvgl\src\misc/lv_math.c ****     return result;
 225:..\..\..\arduinoLCD\test\Pain Drain\libraries\lvgl\src\misc/lv_math.c **** }
 580              		.loc 1 225 0
 581 003e 0098     		ldr	r0, [sp]
 582 0040 0199     		ldr	r1, [sp, #4]
 583 0042 02B0     		add	sp, sp, #8
 584              	.LVL110:
 585              		@ sp needed
 586              	.LVL111:
 587              	.LVL112:
 588 0044 70BD     		pop	{r4, r5, r6, pc}
 589              		.cfi_endproc
 590              	.LFE5:
 591              		.size	lv_pow, .-lv_pow
 592              		.global	__aeabi_idiv
 593 0046 C046     		.section	.text.lv_map,"ax",%progbits
 594              		.align	2
 595              		.global	lv_map
 596              		.code	16
 597              		.thumb_func
 598              		.type	lv_map, %function
 599              	lv_map:
 600              	.LFB6:
 226:..\..\..\arduinoLCD\test\Pain Drain\libraries\lvgl\src\misc/lv_math.c **** 
 227:..\..\..\arduinoLCD\test\Pain Drain\libraries\lvgl\src\misc/lv_math.c **** /**
 228:..\..\..\arduinoLCD\test\Pain Drain\libraries\lvgl\src\misc/lv_math.c ****  * Get the mapped of a number given an input and output range
 229:..\..\..\arduinoLCD\test\Pain Drain\libraries\lvgl\src\misc/lv_math.c ****  * @param x integer which mapped value should be calculated
 230:..\..\..\arduinoLCD\test\Pain Drain\libraries\lvgl\src\misc/lv_math.c ****  * @param min_in min input range
 231:..\..\..\arduinoLCD\test\Pain Drain\libraries\lvgl\src\misc/lv_math.c ****  * @param max_in max input range
 232:..\..\..\arduinoLCD\test\Pain Drain\libraries\lvgl\src\misc/lv_math.c ****  * @param min_out max output range
 233:..\..\..\arduinoLCD\test\Pain Drain\libraries\lvgl\src\misc/lv_math.c ****  * @param max_out max output range
 234:..\..\..\arduinoLCD\test\Pain Drain\libraries\lvgl\src\misc/lv_math.c ****  * @return the mapped number
 235:..\..\..\arduinoLCD\test\Pain Drain\libraries\lvgl\src\misc/lv_math.c ****  */
 236:..\..\..\arduinoLCD\test\Pain Drain\libraries\lvgl\src\misc/lv_math.c **** int32_t lv_map(int32_t x, int32_t min_in, int32_t max_in, int32_t min_out, int32_t max_out)
 237:..\..\..\arduinoLCD\test\Pain Drain\libraries\lvgl\src\misc/lv_math.c **** {
 601              		.loc 1 237 0
 602              		.cfi_startproc
 603              		@ args = 4, pretend = 0, frame = 0
 604              		@ frame_needed = 0, uses_anonymous_args = 0
 605              	.LVL113:
 606 0000 10B5     		push	{r4, lr}
 607              		.cfi_def_cfa_offset 8
 608              		.cfi_offset 4, -8
 609              		.cfi_offset 14, -4
 610 0002 1C00     		movs	r4, r3
 238:..\..\..\arduinoLCD\test\Pain Drain\libraries\lvgl\src\misc/lv_math.c ****     if(max_in >= min_in && x >= max_in) return max_out;
 611              		.loc 1 238 0
 612 0004 8A42     		cmp	r2, r1
ARM GAS  C:\Users\haske\AppData\Local\Temp\ccPicfbF.s 			page 16


 613 0006 01DB     		blt	.L39
 614              		.loc 1 238 0 is_stmt 0 discriminator 1
 615 0008 8242     		cmp	r2, r0
 616 000a 16DD     		ble	.L44
 617              	.L39:
 239:..\..\..\arduinoLCD\test\Pain Drain\libraries\lvgl\src\misc/lv_math.c ****     if(max_in >= min_in && x <= min_in) return min_out;
 618              		.loc 1 239 0 is_stmt 1
 619 000c 8A42     		cmp	r2, r1
 620 000e 01DB     		blt	.L41
 621              		.loc 1 239 0 is_stmt 0 discriminator 1
 622 0010 8142     		cmp	r1, r0
 623 0012 14DA     		bge	.L45
 624              	.L41:
 240:..\..\..\arduinoLCD\test\Pain Drain\libraries\lvgl\src\misc/lv_math.c **** 
 241:..\..\..\arduinoLCD\test\Pain Drain\libraries\lvgl\src\misc/lv_math.c ****     if(max_in <= min_in && x <= max_in) return max_out;
 625              		.loc 1 241 0 is_stmt 1
 626 0014 8A42     		cmp	r2, r1
 627 0016 01DC     		bgt	.L42
 628              		.loc 1 241 0 is_stmt 0 discriminator 1
 629 0018 8242     		cmp	r2, r0
 630 001a 12DA     		bge	.L46
 631              	.L42:
 242:..\..\..\arduinoLCD\test\Pain Drain\libraries\lvgl\src\misc/lv_math.c ****     if(max_in <= min_in && x >= min_in) return min_out;
 632              		.loc 1 242 0 is_stmt 1
 633 001c 8A42     		cmp	r2, r1
 634 001e 01DC     		bgt	.L43
 635              		.loc 1 242 0 is_stmt 0 discriminator 1
 636 0020 8142     		cmp	r1, r0
 637 0022 10DD     		ble	.L47
 638              	.L43:
 243:..\..\..\arduinoLCD\test\Pain Drain\libraries\lvgl\src\misc/lv_math.c **** 
 244:..\..\..\arduinoLCD\test\Pain Drain\libraries\lvgl\src\misc/lv_math.c ****     /**
 245:..\..\..\arduinoLCD\test\Pain Drain\libraries\lvgl\src\misc/lv_math.c ****      * The equation should be:
 246:..\..\..\arduinoLCD\test\Pain Drain\libraries\lvgl\src\misc/lv_math.c ****      *   ((x - min_in) * delta_out) / delta in) + min_out
 247:..\..\..\arduinoLCD\test\Pain Drain\libraries\lvgl\src\misc/lv_math.c ****      * To avoid rounding error reorder the operations:
 248:..\..\..\arduinoLCD\test\Pain Drain\libraries\lvgl\src\misc/lv_math.c ****      *   (x - min_in) * (delta_out / delta_min) + min_out
 249:..\..\..\arduinoLCD\test\Pain Drain\libraries\lvgl\src\misc/lv_math.c ****      */
 250:..\..\..\arduinoLCD\test\Pain Drain\libraries\lvgl\src\misc/lv_math.c **** 
 251:..\..\..\arduinoLCD\test\Pain Drain\libraries\lvgl\src\misc/lv_math.c ****     int32_t delta_in = max_in - min_in;
 639              		.loc 1 251 0 is_stmt 1
 640 0024 521A     		subs	r2, r2, r1
 641              	.LVL114:
 252:..\..\..\arduinoLCD\test\Pain Drain\libraries\lvgl\src\misc/lv_math.c ****     int32_t delta_out = max_out - min_out;
 642              		.loc 1 252 0
 643 0026 029B     		ldr	r3, [sp, #8]
 644              	.LVL115:
 645 0028 1B1B     		subs	r3, r3, r4
 646              	.LVL116:
 253:..\..\..\arduinoLCD\test\Pain Drain\libraries\lvgl\src\misc/lv_math.c **** 
 254:..\..\..\arduinoLCD\test\Pain Drain\libraries\lvgl\src\misc/lv_math.c ****     return ((x - min_in) * delta_out) / delta_in + min_out;
 647              		.loc 1 254 0
 648 002a 411A     		subs	r1, r0, r1
 649              	.LVL117:
 650 002c 5943     		muls	r1, r3
 651 002e 0800     		movs	r0, r1
 652              	.LVL118:
 653 0030 1100     		movs	r1, r2
ARM GAS  C:\Users\haske\AppData\Local\Temp\ccPicfbF.s 			page 17


 654 0032 FFF7FEFF 		bl	__aeabi_idiv
 655              	.LVL119:
 656 0036 2018     		adds	r0, r4, r0
 657 0038 06E0     		b	.L40
 658              	.LVL120:
 659              	.L44:
 238:..\..\..\arduinoLCD\test\Pain Drain\libraries\lvgl\src\misc/lv_math.c ****     if(max_in >= min_in && x <= min_in) return min_out;
 660              		.loc 1 238 0
 661 003a 0298     		ldr	r0, [sp, #8]
 662              	.LVL121:
 663 003c 04E0     		b	.L40
 664              	.LVL122:
 665              	.L45:
 239:..\..\..\arduinoLCD\test\Pain Drain\libraries\lvgl\src\misc/lv_math.c **** 
 666              		.loc 1 239 0
 667 003e 2000     		movs	r0, r4
 668              	.LVL123:
 669 0040 02E0     		b	.L40
 670              	.LVL124:
 671              	.L46:
 241:..\..\..\arduinoLCD\test\Pain Drain\libraries\lvgl\src\misc/lv_math.c ****     if(max_in <= min_in && x >= min_in) return min_out;
 672              		.loc 1 241 0
 673 0042 0298     		ldr	r0, [sp, #8]
 674              	.LVL125:
 675 0044 00E0     		b	.L40
 676              	.LVL126:
 677              	.L47:
 242:..\..\..\arduinoLCD\test\Pain Drain\libraries\lvgl\src\misc/lv_math.c **** 
 678              		.loc 1 242 0
 679 0046 2000     		movs	r0, r4
 680              	.LVL127:
 681              	.L40:
 255:..\..\..\arduinoLCD\test\Pain Drain\libraries\lvgl\src\misc/lv_math.c **** }
 682              		.loc 1 255 0
 683              		@ sp needed
 684              	.LVL128:
 685 0048 10BD     		pop	{r4, pc}
 686              		.cfi_endproc
 687              	.LFE6:
 688              		.size	lv_map, .-lv_map
 689              		.global	__aeabi_uidivmod
 690 004a C046     		.section	.text.lv_rand,"ax",%progbits
 691              		.align	2
 692              		.global	lv_rand
 693              		.code	16
 694              		.thumb_func
 695              		.type	lv_rand, %function
 696              	lv_rand:
 697              	.LFB7:
 256:..\..\..\arduinoLCD\test\Pain Drain\libraries\lvgl\src\misc/lv_math.c **** 
 257:..\..\..\arduinoLCD\test\Pain Drain\libraries\lvgl\src\misc/lv_math.c **** uint32_t lv_rand(uint32_t min, uint32_t max)
 258:..\..\..\arduinoLCD\test\Pain Drain\libraries\lvgl\src\misc/lv_math.c **** {
 698              		.loc 1 258 0
 699              		.cfi_startproc
 700              		@ args = 0, pretend = 0, frame = 0
 701              		@ frame_needed = 0, uses_anonymous_args = 0
 702              	.LVL129:
ARM GAS  C:\Users\haske\AppData\Local\Temp\ccPicfbF.s 			page 18


 703 0000 10B5     		push	{r4, lr}
 704              		.cfi_def_cfa_offset 8
 705              		.cfi_offset 4, -8
 706              		.cfi_offset 14, -4
 707 0002 0400     		movs	r4, r0
 259:..\..\..\arduinoLCD\test\Pain Drain\libraries\lvgl\src\misc/lv_math.c ****     static uint32_t a = 0x1234ABCD; /*Seed*/
 260:..\..\..\arduinoLCD\test\Pain Drain\libraries\lvgl\src\misc/lv_math.c **** 
 261:..\..\..\arduinoLCD\test\Pain Drain\libraries\lvgl\src\misc/lv_math.c ****     /*Algorithm "xor" from p. 4 of Marsaglia, "Xorshift RNGs"*/
 262:..\..\..\arduinoLCD\test\Pain Drain\libraries\lvgl\src\misc/lv_math.c ****     uint32_t x = a;
 708              		.loc 1 262 0
 709 0004 074A     		ldr	r2, .L49
 710 0006 1368     		ldr	r3, [r2]
 711              	.LVL130:
 263:..\..\..\arduinoLCD\test\Pain Drain\libraries\lvgl\src\misc/lv_math.c ****     x ^= x << 13;
 712              		.loc 1 263 0
 713 0008 5803     		lsls	r0, r3, #13
 714              	.LVL131:
 715 000a 5840     		eors	r0, r3
 716              	.LVL132:
 264:..\..\..\arduinoLCD\test\Pain Drain\libraries\lvgl\src\misc/lv_math.c ****     x ^= x >> 17;
 717              		.loc 1 264 0
 718 000c 430C     		lsrs	r3, r0, #17
 719 000e 5840     		eors	r0, r3
 720              	.LVL133:
 265:..\..\..\arduinoLCD\test\Pain Drain\libraries\lvgl\src\misc/lv_math.c ****     x ^= x << 5;
 721              		.loc 1 265 0
 722 0010 4301     		lsls	r3, r0, #5
 723 0012 5840     		eors	r0, r3
 724              	.LVL134:
 266:..\..\..\arduinoLCD\test\Pain Drain\libraries\lvgl\src\misc/lv_math.c ****     a = x;
 725              		.loc 1 266 0
 726 0014 1060     		str	r0, [r2]
 267:..\..\..\arduinoLCD\test\Pain Drain\libraries\lvgl\src\misc/lv_math.c **** 
 268:..\..\..\arduinoLCD\test\Pain Drain\libraries\lvgl\src\misc/lv_math.c ****     return (a % (max - min + 1)) + min;
 727              		.loc 1 268 0
 728 0016 091B     		subs	r1, r1, r4
 729              	.LVL135:
 730 0018 0131     		adds	r1, r1, #1
 731 001a FFF7FEFF 		bl	__aeabi_uidivmod
 732              	.LVL136:
 733 001e 6018     		adds	r0, r4, r1
 269:..\..\..\arduinoLCD\test\Pain Drain\libraries\lvgl\src\misc/lv_math.c **** }
 734              		.loc 1 269 0
 735              		@ sp needed
 736              	.LVL137:
 737 0020 10BD     		pop	{r4, pc}
 738              	.L50:
 739 0022 C046     		.align	2
 740              	.L49:
 741 0024 00000000 		.word	.LANCHOR1
 742              		.cfi_endproc
 743              	.LFE7:
 744              		.size	lv_rand, .-lv_rand
 745              		.section	.rodata
 746              		.align	2
 747              		.set	.LANCHOR0,. + 0
 748              		.type	sin0_90_table, %object
ARM GAS  C:\Users\haske\AppData\Local\Temp\ccPicfbF.s 			page 19


 749              		.size	sin0_90_table, 182
 750              	sin0_90_table:
 751 0000 0000     		.short	0
 752 0002 3C02     		.short	572
 753 0004 7804     		.short	1144
 754 0006 B306     		.short	1715
 755 0008 EE08     		.short	2286
 756 000a 280B     		.short	2856
 757 000c 610D     		.short	3425
 758 000e 990F     		.short	3993
 759 0010 D011     		.short	4560
 760 0012 0614     		.short	5126
 761 0014 3A16     		.short	5690
 762 0016 6C18     		.short	6252
 763 0018 9D1A     		.short	6813
 764 001a CB1C     		.short	7371
 765 001c F71E     		.short	7927
 766 001e 2121     		.short	8481
 767 0020 4823     		.short	9032
 768 0022 6C25     		.short	9580
 769 0024 8E27     		.short	10126
 770 0026 AC29     		.short	10668
 771 0028 C72B     		.short	11207
 772 002a DF2D     		.short	11743
 773 002c F32F     		.short	12275
 774 002e 0332     		.short	12803
 775 0030 1034     		.short	13328
 776 0032 1836     		.short	13848
 777 0034 1C38     		.short	14364
 778 0036 1C3A     		.short	14876
 779 0038 173C     		.short	15383
 780 003a 0E3E     		.short	15886
 781 003c FF3F     		.short	16383
 782 003e EC41     		.short	16876
 783 0040 D443     		.short	17364
 784 0042 B645     		.short	17846
 785 0044 9347     		.short	18323
 786 0046 6A49     		.short	18794
 787 0048 3C4B     		.short	19260
 788 004a 084D     		.short	19720
 789 004c CD4E     		.short	20173
 790 004e 8D50     		.short	20621
 791 0050 4652     		.short	21062
 792 0052 F953     		.short	21497
 793 0054 A555     		.short	21925
 794 0056 4B57     		.short	22347
 795 0058 EA58     		.short	22762
 796 005a 825A     		.short	23170
 797 005c 135C     		.short	23571
 798 005e 9C5D     		.short	23964
 799 0060 1F5F     		.short	24351
 800 0062 9A60     		.short	24730
 801 0064 0D62     		.short	25101
 802 0066 7963     		.short	25465
 803 0068 DD64     		.short	25821
 804 006a 3966     		.short	26169
 805 006c 8D67     		.short	26509
ARM GAS  C:\Users\haske\AppData\Local\Temp\ccPicfbF.s 			page 20


 806 006e D968     		.short	26841
 807 0070 1D6A     		.short	27165
 808 0072 596B     		.short	27481
 809 0074 8C6C     		.short	27788
 810 0076 B76D     		.short	28087
 811 0078 D96E     		.short	28377
 812 007a F36F     		.short	28659
 813 007c 0471     		.short	28932
 814 007e 0C72     		.short	29196
 815 0080 0B73     		.short	29451
 816 0082 0174     		.short	29697
 817 0084 EE74     		.short	29934
 818 0086 D275     		.short	30162
 819 0088 AD76     		.short	30381
 820 008a 7F77     		.short	30591
 821 008c 4778     		.short	30791
 822 008e 0679     		.short	30982
 823 0090 BB79     		.short	31163
 824 0092 677A     		.short	31335
 825 0094 0A7B     		.short	31498
 826 0096 A27B     		.short	31650
 827 0098 327C     		.short	31794
 828 009a B77C     		.short	31927
 829 009c 337D     		.short	32051
 830 009e A57D     		.short	32165
 831 00a0 0D7E     		.short	32269
 832 00a2 6C7E     		.short	32364
 833 00a4 C07E     		.short	32448
 834 00a6 0B7F     		.short	32523
 835 00a8 4B7F     		.short	32587
 836 00aa 827F     		.short	32642
 837 00ac AF7F     		.short	32687
 838 00ae D27F     		.short	32722
 839 00b0 EB7F     		.short	32747
 840 00b2 FA7F     		.short	32762
 841 00b4 FF7F     		.short	32767
 842              		.data
 843              		.align	2
 844              		.set	.LANCHOR1,. + 0
 845              		.type	a.4305, %object
 846              		.size	a.4305, 4
 847              	a.4305:
 848 0000 CDAB3412 		.word	305441741
 849              		.text
 850              	.Letext0:
 851              		.file 2 "c:\\program files (x86)\\cypress\\psoc creator\\4.4\\psoc creator\\import\\gnu\\arm\\5.4.
 852              		.file 3 "c:\\program files (x86)\\cypress\\psoc creator\\4.4\\psoc creator\\import\\gnu\\arm\\5.4.
 853              		.file 4 "..\\..\\..\\arduinoLCD\\test\\Pain Drain\\libraries\\lvgl\\src\\misc\\lv_math.h"