ARM GAS  C:\Users\haske\AppData\Local\Temp\ccp0JrPn.s 			page 1


   1              		.syntax unified
   2              		.cpu cortex-m0plus
   3              		.fpu softvfp
   4              		.eabi_attribute 20, 1
   5              		.eabi_attribute 21, 1
   6              		.eabi_attribute 23, 3
   7              		.eabi_attribute 24, 1
   8              		.eabi_attribute 25, 1
   9              		.eabi_attribute 26, 1
  10              		.eabi_attribute 30, 1
  11              		.eabi_attribute 34, 0
  12              		.eabi_attribute 18, 4
  13              		.thumb
  14              		.syntax unified
  15              		.file	"lv_menu.c"
  16              		.text
  17              	.Ltext0:
  18              		.cfi_sections	.debug_frame
  19              		.section	.text.lv_menu_destructor,"ax",%progbits
  20              		.align	2
  21              		.code	16
  22              		.thumb_func
  23              		.type	lv_menu_destructor, %function
  24              	lv_menu_destructor:
  25              	.LFB184:
  26              		.file 1 "..\\..\\..\\arduinoLCD\\test\\Pain Drain\\libraries\\lvgl\\src\\extra\\widgets\\menu\\lv_
   1:..\..\..\arduinoLCD\test\Pain Drain\libraries\lvgl\src\extra\widgets\menu/lv_menu.c **** /**
   2:..\..\..\arduinoLCD\test\Pain Drain\libraries\lvgl\src\extra\widgets\menu/lv_menu.c ****  * @file lv_menu.c
   3:..\..\..\arduinoLCD\test\Pain Drain\libraries\lvgl\src\extra\widgets\menu/lv_menu.c ****  *
   4:..\..\..\arduinoLCD\test\Pain Drain\libraries\lvgl\src\extra\widgets\menu/lv_menu.c ****  */
   5:..\..\..\arduinoLCD\test\Pain Drain\libraries\lvgl\src\extra\widgets\menu/lv_menu.c **** 
   6:..\..\..\arduinoLCD\test\Pain Drain\libraries\lvgl\src\extra\widgets\menu/lv_menu.c **** /*********************
   7:..\..\..\arduinoLCD\test\Pain Drain\libraries\lvgl\src\extra\widgets\menu/lv_menu.c ****  *      INCLUDES
   8:..\..\..\arduinoLCD\test\Pain Drain\libraries\lvgl\src\extra\widgets\menu/lv_menu.c ****  *********************/
   9:..\..\..\arduinoLCD\test\Pain Drain\libraries\lvgl\src\extra\widgets\menu/lv_menu.c **** #include "lv_menu.h"
  10:..\..\..\arduinoLCD\test\Pain Drain\libraries\lvgl\src\extra\widgets\menu/lv_menu.c **** 
  11:..\..\..\arduinoLCD\test\Pain Drain\libraries\lvgl\src\extra\widgets\menu/lv_menu.c **** #if LV_USE_MENU
  12:..\..\..\arduinoLCD\test\Pain Drain\libraries\lvgl\src\extra\widgets\menu/lv_menu.c **** 
  13:..\..\..\arduinoLCD\test\Pain Drain\libraries\lvgl\src\extra\widgets\menu/lv_menu.c **** /*********************
  14:..\..\..\arduinoLCD\test\Pain Drain\libraries\lvgl\src\extra\widgets\menu/lv_menu.c ****  *      DEFINES
  15:..\..\..\arduinoLCD\test\Pain Drain\libraries\lvgl\src\extra\widgets\menu/lv_menu.c ****  *********************/
  16:..\..\..\arduinoLCD\test\Pain Drain\libraries\lvgl\src\extra\widgets\menu/lv_menu.c **** #define MY_CLASS &lv_menu_class
  17:..\..\..\arduinoLCD\test\Pain Drain\libraries\lvgl\src\extra\widgets\menu/lv_menu.c **** 
  18:..\..\..\arduinoLCD\test\Pain Drain\libraries\lvgl\src\extra\widgets\menu/lv_menu.c **** #include "../../../core/lv_obj.h"
  19:..\..\..\arduinoLCD\test\Pain Drain\libraries\lvgl\src\extra\widgets\menu/lv_menu.c **** #include "../../layouts/flex/lv_flex.h"
  20:..\..\..\arduinoLCD\test\Pain Drain\libraries\lvgl\src\extra\widgets\menu/lv_menu.c **** #include "../../../widgets/lv_label.h"
  21:..\..\..\arduinoLCD\test\Pain Drain\libraries\lvgl\src\extra\widgets\menu/lv_menu.c **** #include "../../../widgets/lv_btn.h"
  22:..\..\..\arduinoLCD\test\Pain Drain\libraries\lvgl\src\extra\widgets\menu/lv_menu.c **** #include "../../../widgets/lv_img.h"
  23:..\..\..\arduinoLCD\test\Pain Drain\libraries\lvgl\src\extra\widgets\menu/lv_menu.c **** 
  24:..\..\..\arduinoLCD\test\Pain Drain\libraries\lvgl\src\extra\widgets\menu/lv_menu.c **** /**********************
  25:..\..\..\arduinoLCD\test\Pain Drain\libraries\lvgl\src\extra\widgets\menu/lv_menu.c ****  *      TYPEDEFS
  26:..\..\..\arduinoLCD\test\Pain Drain\libraries\lvgl\src\extra\widgets\menu/lv_menu.c ****  **********************/
  27:..\..\..\arduinoLCD\test\Pain Drain\libraries\lvgl\src\extra\widgets\menu/lv_menu.c **** 
  28:..\..\..\arduinoLCD\test\Pain Drain\libraries\lvgl\src\extra\widgets\menu/lv_menu.c **** /**********************
  29:..\..\..\arduinoLCD\test\Pain Drain\libraries\lvgl\src\extra\widgets\menu/lv_menu.c ****  *  STATIC PROTOTYPES
  30:..\..\..\arduinoLCD\test\Pain Drain\libraries\lvgl\src\extra\widgets\menu/lv_menu.c ****  **********************/
  31:..\..\..\arduinoLCD\test\Pain Drain\libraries\lvgl\src\extra\widgets\menu/lv_menu.c **** static void lv_menu_constructor(const lv_obj_class_t * class_p, lv_obj_t * obj);
ARM GAS  C:\Users\haske\AppData\Local\Temp\ccp0JrPn.s 			page 2


  32:..\..\..\arduinoLCD\test\Pain Drain\libraries\lvgl\src\extra\widgets\menu/lv_menu.c **** static void lv_menu_destructor(const lv_obj_class_t * class_p, lv_obj_t * obj);
  33:..\..\..\arduinoLCD\test\Pain Drain\libraries\lvgl\src\extra\widgets\menu/lv_menu.c **** static void lv_menu_page_constructor(const lv_obj_class_t * class_p, lv_obj_t * obj);
  34:..\..\..\arduinoLCD\test\Pain Drain\libraries\lvgl\src\extra\widgets\menu/lv_menu.c **** static void lv_menu_page_destructor(const lv_obj_class_t * class_p, lv_obj_t * obj);
  35:..\..\..\arduinoLCD\test\Pain Drain\libraries\lvgl\src\extra\widgets\menu/lv_menu.c **** static void lv_menu_cont_constructor(const lv_obj_class_t * class_p, lv_obj_t * obj);
  36:..\..\..\arduinoLCD\test\Pain Drain\libraries\lvgl\src\extra\widgets\menu/lv_menu.c **** static void lv_menu_section_constructor(const lv_obj_class_t * class_p, lv_obj_t * obj);
  37:..\..\..\arduinoLCD\test\Pain Drain\libraries\lvgl\src\extra\widgets\menu/lv_menu.c **** 
  38:..\..\..\arduinoLCD\test\Pain Drain\libraries\lvgl\src\extra\widgets\menu/lv_menu.c **** const lv_obj_class_t lv_menu_class = {
  39:..\..\..\arduinoLCD\test\Pain Drain\libraries\lvgl\src\extra\widgets\menu/lv_menu.c ****     .constructor_cb = lv_menu_constructor,
  40:..\..\..\arduinoLCD\test\Pain Drain\libraries\lvgl\src\extra\widgets\menu/lv_menu.c ****     .destructor_cb = lv_menu_destructor,
  41:..\..\..\arduinoLCD\test\Pain Drain\libraries\lvgl\src\extra\widgets\menu/lv_menu.c ****     .base_class = &lv_obj_class,
  42:..\..\..\arduinoLCD\test\Pain Drain\libraries\lvgl\src\extra\widgets\menu/lv_menu.c ****     .width_def = (LV_DPI_DEF * 3) / 2,
  43:..\..\..\arduinoLCD\test\Pain Drain\libraries\lvgl\src\extra\widgets\menu/lv_menu.c ****     .height_def = LV_DPI_DEF * 2,
  44:..\..\..\arduinoLCD\test\Pain Drain\libraries\lvgl\src\extra\widgets\menu/lv_menu.c ****     .instance_size = sizeof(lv_menu_t)
  45:..\..\..\arduinoLCD\test\Pain Drain\libraries\lvgl\src\extra\widgets\menu/lv_menu.c **** };
  46:..\..\..\arduinoLCD\test\Pain Drain\libraries\lvgl\src\extra\widgets\menu/lv_menu.c **** const lv_obj_class_t lv_menu_page_class = {
  47:..\..\..\arduinoLCD\test\Pain Drain\libraries\lvgl\src\extra\widgets\menu/lv_menu.c ****     .constructor_cb = lv_menu_page_constructor,
  48:..\..\..\arduinoLCD\test\Pain Drain\libraries\lvgl\src\extra\widgets\menu/lv_menu.c ****     .destructor_cb = lv_menu_page_destructor,
  49:..\..\..\arduinoLCD\test\Pain Drain\libraries\lvgl\src\extra\widgets\menu/lv_menu.c ****     .base_class = &lv_obj_class,
  50:..\..\..\arduinoLCD\test\Pain Drain\libraries\lvgl\src\extra\widgets\menu/lv_menu.c ****     .width_def = LV_PCT(100),
  51:..\..\..\arduinoLCD\test\Pain Drain\libraries\lvgl\src\extra\widgets\menu/lv_menu.c ****     .height_def = LV_SIZE_CONTENT,
  52:..\..\..\arduinoLCD\test\Pain Drain\libraries\lvgl\src\extra\widgets\menu/lv_menu.c ****     .instance_size = sizeof(lv_menu_page_t)
  53:..\..\..\arduinoLCD\test\Pain Drain\libraries\lvgl\src\extra\widgets\menu/lv_menu.c **** };
  54:..\..\..\arduinoLCD\test\Pain Drain\libraries\lvgl\src\extra\widgets\menu/lv_menu.c **** 
  55:..\..\..\arduinoLCD\test\Pain Drain\libraries\lvgl\src\extra\widgets\menu/lv_menu.c **** const lv_obj_class_t lv_menu_cont_class = {
  56:..\..\..\arduinoLCD\test\Pain Drain\libraries\lvgl\src\extra\widgets\menu/lv_menu.c ****     .constructor_cb = lv_menu_cont_constructor,
  57:..\..\..\arduinoLCD\test\Pain Drain\libraries\lvgl\src\extra\widgets\menu/lv_menu.c ****     .base_class = &lv_obj_class,
  58:..\..\..\arduinoLCD\test\Pain Drain\libraries\lvgl\src\extra\widgets\menu/lv_menu.c ****     .width_def = LV_PCT(100),
  59:..\..\..\arduinoLCD\test\Pain Drain\libraries\lvgl\src\extra\widgets\menu/lv_menu.c ****     .height_def = LV_SIZE_CONTENT
  60:..\..\..\arduinoLCD\test\Pain Drain\libraries\lvgl\src\extra\widgets\menu/lv_menu.c **** };
  61:..\..\..\arduinoLCD\test\Pain Drain\libraries\lvgl\src\extra\widgets\menu/lv_menu.c **** 
  62:..\..\..\arduinoLCD\test\Pain Drain\libraries\lvgl\src\extra\widgets\menu/lv_menu.c **** const lv_obj_class_t lv_menu_section_class = {
  63:..\..\..\arduinoLCD\test\Pain Drain\libraries\lvgl\src\extra\widgets\menu/lv_menu.c ****     .constructor_cb = lv_menu_section_constructor,
  64:..\..\..\arduinoLCD\test\Pain Drain\libraries\lvgl\src\extra\widgets\menu/lv_menu.c ****     .base_class = &lv_obj_class,
  65:..\..\..\arduinoLCD\test\Pain Drain\libraries\lvgl\src\extra\widgets\menu/lv_menu.c ****     .width_def = LV_PCT(100),
  66:..\..\..\arduinoLCD\test\Pain Drain\libraries\lvgl\src\extra\widgets\menu/lv_menu.c ****     .height_def = LV_SIZE_CONTENT
  67:..\..\..\arduinoLCD\test\Pain Drain\libraries\lvgl\src\extra\widgets\menu/lv_menu.c **** };
  68:..\..\..\arduinoLCD\test\Pain Drain\libraries\lvgl\src\extra\widgets\menu/lv_menu.c **** 
  69:..\..\..\arduinoLCD\test\Pain Drain\libraries\lvgl\src\extra\widgets\menu/lv_menu.c **** const lv_obj_class_t lv_menu_separator_class = {
  70:..\..\..\arduinoLCD\test\Pain Drain\libraries\lvgl\src\extra\widgets\menu/lv_menu.c ****     .base_class = &lv_obj_class,
  71:..\..\..\arduinoLCD\test\Pain Drain\libraries\lvgl\src\extra\widgets\menu/lv_menu.c ****     .width_def = LV_SIZE_CONTENT,
  72:..\..\..\arduinoLCD\test\Pain Drain\libraries\lvgl\src\extra\widgets\menu/lv_menu.c ****     .height_def = LV_SIZE_CONTENT
  73:..\..\..\arduinoLCD\test\Pain Drain\libraries\lvgl\src\extra\widgets\menu/lv_menu.c **** };
  74:..\..\..\arduinoLCD\test\Pain Drain\libraries\lvgl\src\extra\widgets\menu/lv_menu.c **** 
  75:..\..\..\arduinoLCD\test\Pain Drain\libraries\lvgl\src\extra\widgets\menu/lv_menu.c **** const lv_obj_class_t lv_menu_sidebar_cont_class = {
  76:..\..\..\arduinoLCD\test\Pain Drain\libraries\lvgl\src\extra\widgets\menu/lv_menu.c ****     .base_class = &lv_obj_class
  77:..\..\..\arduinoLCD\test\Pain Drain\libraries\lvgl\src\extra\widgets\menu/lv_menu.c **** };
  78:..\..\..\arduinoLCD\test\Pain Drain\libraries\lvgl\src\extra\widgets\menu/lv_menu.c **** 
  79:..\..\..\arduinoLCD\test\Pain Drain\libraries\lvgl\src\extra\widgets\menu/lv_menu.c **** const lv_obj_class_t lv_menu_main_cont_class = {
  80:..\..\..\arduinoLCD\test\Pain Drain\libraries\lvgl\src\extra\widgets\menu/lv_menu.c ****     .base_class = &lv_obj_class
  81:..\..\..\arduinoLCD\test\Pain Drain\libraries\lvgl\src\extra\widgets\menu/lv_menu.c **** };
  82:..\..\..\arduinoLCD\test\Pain Drain\libraries\lvgl\src\extra\widgets\menu/lv_menu.c **** 
  83:..\..\..\arduinoLCD\test\Pain Drain\libraries\lvgl\src\extra\widgets\menu/lv_menu.c **** const lv_obj_class_t lv_menu_main_header_cont_class = {
  84:..\..\..\arduinoLCD\test\Pain Drain\libraries\lvgl\src\extra\widgets\menu/lv_menu.c ****     .base_class = &lv_obj_class
  85:..\..\..\arduinoLCD\test\Pain Drain\libraries\lvgl\src\extra\widgets\menu/lv_menu.c **** };
  86:..\..\..\arduinoLCD\test\Pain Drain\libraries\lvgl\src\extra\widgets\menu/lv_menu.c **** 
  87:..\..\..\arduinoLCD\test\Pain Drain\libraries\lvgl\src\extra\widgets\menu/lv_menu.c **** const lv_obj_class_t lv_menu_sidebar_header_cont_class = {
  88:..\..\..\arduinoLCD\test\Pain Drain\libraries\lvgl\src\extra\widgets\menu/lv_menu.c ****     .base_class = &lv_obj_class
ARM GAS  C:\Users\haske\AppData\Local\Temp\ccp0JrPn.s 			page 3


  89:..\..\..\arduinoLCD\test\Pain Drain\libraries\lvgl\src\extra\widgets\menu/lv_menu.c **** };
  90:..\..\..\arduinoLCD\test\Pain Drain\libraries\lvgl\src\extra\widgets\menu/lv_menu.c **** 
  91:..\..\..\arduinoLCD\test\Pain Drain\libraries\lvgl\src\extra\widgets\menu/lv_menu.c **** static void lv_menu_refr(lv_obj_t * obj);
  92:..\..\..\arduinoLCD\test\Pain Drain\libraries\lvgl\src\extra\widgets\menu/lv_menu.c **** static void lv_menu_refr_sidebar_header_mode(lv_obj_t * obj);
  93:..\..\..\arduinoLCD\test\Pain Drain\libraries\lvgl\src\extra\widgets\menu/lv_menu.c **** static void lv_menu_refr_main_header_mode(lv_obj_t * obj);
  94:..\..\..\arduinoLCD\test\Pain Drain\libraries\lvgl\src\extra\widgets\menu/lv_menu.c **** static void lv_menu_load_page_event_cb(lv_event_t * e);
  95:..\..\..\arduinoLCD\test\Pain Drain\libraries\lvgl\src\extra\widgets\menu/lv_menu.c **** static void lv_menu_obj_del_event_cb(lv_event_t * e);
  96:..\..\..\arduinoLCD\test\Pain Drain\libraries\lvgl\src\extra\widgets\menu/lv_menu.c **** static void lv_menu_back_event_cb(lv_event_t * e);
  97:..\..\..\arduinoLCD\test\Pain Drain\libraries\lvgl\src\extra\widgets\menu/lv_menu.c **** static void lv_menu_value_changed_event_cb(lv_event_t * e);
  98:..\..\..\arduinoLCD\test\Pain Drain\libraries\lvgl\src\extra\widgets\menu/lv_menu.c **** /**********************
  99:..\..\..\arduinoLCD\test\Pain Drain\libraries\lvgl\src\extra\widgets\menu/lv_menu.c ****  *  STATIC VARIABLES
 100:..\..\..\arduinoLCD\test\Pain Drain\libraries\lvgl\src\extra\widgets\menu/lv_menu.c ****  **********************/
 101:..\..\..\arduinoLCD\test\Pain Drain\libraries\lvgl\src\extra\widgets\menu/lv_menu.c **** 
 102:..\..\..\arduinoLCD\test\Pain Drain\libraries\lvgl\src\extra\widgets\menu/lv_menu.c **** /**********************
 103:..\..\..\arduinoLCD\test\Pain Drain\libraries\lvgl\src\extra\widgets\menu/lv_menu.c ****  *      MACROS
 104:..\..\..\arduinoLCD\test\Pain Drain\libraries\lvgl\src\extra\widgets\menu/lv_menu.c ****  **********************/
 105:..\..\..\arduinoLCD\test\Pain Drain\libraries\lvgl\src\extra\widgets\menu/lv_menu.c **** 
 106:..\..\..\arduinoLCD\test\Pain Drain\libraries\lvgl\src\extra\widgets\menu/lv_menu.c **** /**********************
 107:..\..\..\arduinoLCD\test\Pain Drain\libraries\lvgl\src\extra\widgets\menu/lv_menu.c ****  *   GLOBAL FUNCTIONS
 108:..\..\..\arduinoLCD\test\Pain Drain\libraries\lvgl\src\extra\widgets\menu/lv_menu.c ****  **********************/
 109:..\..\..\arduinoLCD\test\Pain Drain\libraries\lvgl\src\extra\widgets\menu/lv_menu.c **** bool lv_menu_item_back_btn_is_root(lv_obj_t * menu, lv_obj_t * obj);
 110:..\..\..\arduinoLCD\test\Pain Drain\libraries\lvgl\src\extra\widgets\menu/lv_menu.c **** void lv_menu_clear_history(lv_obj_t * obj);
 111:..\..\..\arduinoLCD\test\Pain Drain\libraries\lvgl\src\extra\widgets\menu/lv_menu.c **** 
 112:..\..\..\arduinoLCD\test\Pain Drain\libraries\lvgl\src\extra\widgets\menu/lv_menu.c **** lv_obj_t * lv_menu_create(lv_obj_t * parent)
 113:..\..\..\arduinoLCD\test\Pain Drain\libraries\lvgl\src\extra\widgets\menu/lv_menu.c **** {
 114:..\..\..\arduinoLCD\test\Pain Drain\libraries\lvgl\src\extra\widgets\menu/lv_menu.c ****     LV_LOG_INFO("begin");
 115:..\..\..\arduinoLCD\test\Pain Drain\libraries\lvgl\src\extra\widgets\menu/lv_menu.c ****     lv_obj_t * obj = lv_obj_class_create_obj(MY_CLASS, parent);
 116:..\..\..\arduinoLCD\test\Pain Drain\libraries\lvgl\src\extra\widgets\menu/lv_menu.c ****     lv_obj_class_init_obj(obj);
 117:..\..\..\arduinoLCD\test\Pain Drain\libraries\lvgl\src\extra\widgets\menu/lv_menu.c ****     return obj;
 118:..\..\..\arduinoLCD\test\Pain Drain\libraries\lvgl\src\extra\widgets\menu/lv_menu.c **** }
 119:..\..\..\arduinoLCD\test\Pain Drain\libraries\lvgl\src\extra\widgets\menu/lv_menu.c **** 
 120:..\..\..\arduinoLCD\test\Pain Drain\libraries\lvgl\src\extra\widgets\menu/lv_menu.c **** lv_obj_t * lv_menu_page_create(lv_obj_t * parent, char * title)
 121:..\..\..\arduinoLCD\test\Pain Drain\libraries\lvgl\src\extra\widgets\menu/lv_menu.c **** {
 122:..\..\..\arduinoLCD\test\Pain Drain\libraries\lvgl\src\extra\widgets\menu/lv_menu.c ****     LV_LOG_INFO("begin");
 123:..\..\..\arduinoLCD\test\Pain Drain\libraries\lvgl\src\extra\widgets\menu/lv_menu.c ****     lv_obj_t * obj = lv_obj_class_create_obj(&lv_menu_page_class, parent);
 124:..\..\..\arduinoLCD\test\Pain Drain\libraries\lvgl\src\extra\widgets\menu/lv_menu.c ****     lv_obj_class_init_obj(obj);
 125:..\..\..\arduinoLCD\test\Pain Drain\libraries\lvgl\src\extra\widgets\menu/lv_menu.c **** 
 126:..\..\..\arduinoLCD\test\Pain Drain\libraries\lvgl\src\extra\widgets\menu/lv_menu.c ****     lv_menu_page_t * page = (lv_menu_page_t *)obj;
 127:..\..\..\arduinoLCD\test\Pain Drain\libraries\lvgl\src\extra\widgets\menu/lv_menu.c ****     if(title) {
 128:..\..\..\arduinoLCD\test\Pain Drain\libraries\lvgl\src\extra\widgets\menu/lv_menu.c ****         page->title = lv_mem_alloc(strlen(title) + 1);
 129:..\..\..\arduinoLCD\test\Pain Drain\libraries\lvgl\src\extra\widgets\menu/lv_menu.c ****         LV_ASSERT_MALLOC(page->title);
 130:..\..\..\arduinoLCD\test\Pain Drain\libraries\lvgl\src\extra\widgets\menu/lv_menu.c ****         if(page->title == NULL) return NULL;
 131:..\..\..\arduinoLCD\test\Pain Drain\libraries\lvgl\src\extra\widgets\menu/lv_menu.c ****         strcpy(page->title, title);
 132:..\..\..\arduinoLCD\test\Pain Drain\libraries\lvgl\src\extra\widgets\menu/lv_menu.c ****     }
 133:..\..\..\arduinoLCD\test\Pain Drain\libraries\lvgl\src\extra\widgets\menu/lv_menu.c ****     else {
 134:..\..\..\arduinoLCD\test\Pain Drain\libraries\lvgl\src\extra\widgets\menu/lv_menu.c ****         page->title = NULL;
 135:..\..\..\arduinoLCD\test\Pain Drain\libraries\lvgl\src\extra\widgets\menu/lv_menu.c ****     }
 136:..\..\..\arduinoLCD\test\Pain Drain\libraries\lvgl\src\extra\widgets\menu/lv_menu.c **** 
 137:..\..\..\arduinoLCD\test\Pain Drain\libraries\lvgl\src\extra\widgets\menu/lv_menu.c ****     return obj;
 138:..\..\..\arduinoLCD\test\Pain Drain\libraries\lvgl\src\extra\widgets\menu/lv_menu.c **** }
 139:..\..\..\arduinoLCD\test\Pain Drain\libraries\lvgl\src\extra\widgets\menu/lv_menu.c **** 
 140:..\..\..\arduinoLCD\test\Pain Drain\libraries\lvgl\src\extra\widgets\menu/lv_menu.c **** lv_obj_t * lv_menu_cont_create(lv_obj_t * parent)
 141:..\..\..\arduinoLCD\test\Pain Drain\libraries\lvgl\src\extra\widgets\menu/lv_menu.c **** {
 142:..\..\..\arduinoLCD\test\Pain Drain\libraries\lvgl\src\extra\widgets\menu/lv_menu.c ****     LV_LOG_INFO("begin");
 143:..\..\..\arduinoLCD\test\Pain Drain\libraries\lvgl\src\extra\widgets\menu/lv_menu.c ****     lv_obj_t * obj = lv_obj_class_create_obj(&lv_menu_cont_class, parent);
 144:..\..\..\arduinoLCD\test\Pain Drain\libraries\lvgl\src\extra\widgets\menu/lv_menu.c ****     lv_obj_class_init_obj(obj);
 145:..\..\..\arduinoLCD\test\Pain Drain\libraries\lvgl\src\extra\widgets\menu/lv_menu.c ****     return obj;
ARM GAS  C:\Users\haske\AppData\Local\Temp\ccp0JrPn.s 			page 4


 146:..\..\..\arduinoLCD\test\Pain Drain\libraries\lvgl\src\extra\widgets\menu/lv_menu.c **** }
 147:..\..\..\arduinoLCD\test\Pain Drain\libraries\lvgl\src\extra\widgets\menu/lv_menu.c **** 
 148:..\..\..\arduinoLCD\test\Pain Drain\libraries\lvgl\src\extra\widgets\menu/lv_menu.c **** lv_obj_t * lv_menu_section_create(lv_obj_t * parent)
 149:..\..\..\arduinoLCD\test\Pain Drain\libraries\lvgl\src\extra\widgets\menu/lv_menu.c **** {
 150:..\..\..\arduinoLCD\test\Pain Drain\libraries\lvgl\src\extra\widgets\menu/lv_menu.c ****     LV_LOG_INFO("begin");
 151:..\..\..\arduinoLCD\test\Pain Drain\libraries\lvgl\src\extra\widgets\menu/lv_menu.c ****     lv_obj_t * obj = lv_obj_class_create_obj(&lv_menu_section_class, parent);
 152:..\..\..\arduinoLCD\test\Pain Drain\libraries\lvgl\src\extra\widgets\menu/lv_menu.c ****     lv_obj_class_init_obj(obj);
 153:..\..\..\arduinoLCD\test\Pain Drain\libraries\lvgl\src\extra\widgets\menu/lv_menu.c ****     return obj;
 154:..\..\..\arduinoLCD\test\Pain Drain\libraries\lvgl\src\extra\widgets\menu/lv_menu.c **** }
 155:..\..\..\arduinoLCD\test\Pain Drain\libraries\lvgl\src\extra\widgets\menu/lv_menu.c **** 
 156:..\..\..\arduinoLCD\test\Pain Drain\libraries\lvgl\src\extra\widgets\menu/lv_menu.c **** lv_obj_t * lv_menu_separator_create(lv_obj_t * parent)
 157:..\..\..\arduinoLCD\test\Pain Drain\libraries\lvgl\src\extra\widgets\menu/lv_menu.c **** {
 158:..\..\..\arduinoLCD\test\Pain Drain\libraries\lvgl\src\extra\widgets\menu/lv_menu.c ****     LV_LOG_INFO("begin");
 159:..\..\..\arduinoLCD\test\Pain Drain\libraries\lvgl\src\extra\widgets\menu/lv_menu.c ****     lv_obj_t * obj = lv_obj_class_create_obj(&lv_menu_separator_class, parent);
 160:..\..\..\arduinoLCD\test\Pain Drain\libraries\lvgl\src\extra\widgets\menu/lv_menu.c ****     lv_obj_class_init_obj(obj);
 161:..\..\..\arduinoLCD\test\Pain Drain\libraries\lvgl\src\extra\widgets\menu/lv_menu.c ****     return obj;
 162:..\..\..\arduinoLCD\test\Pain Drain\libraries\lvgl\src\extra\widgets\menu/lv_menu.c **** }
 163:..\..\..\arduinoLCD\test\Pain Drain\libraries\lvgl\src\extra\widgets\menu/lv_menu.c **** 
 164:..\..\..\arduinoLCD\test\Pain Drain\libraries\lvgl\src\extra\widgets\menu/lv_menu.c **** void lv_menu_refr(lv_obj_t * obj)
 165:..\..\..\arduinoLCD\test\Pain Drain\libraries\lvgl\src\extra\widgets\menu/lv_menu.c **** {
 166:..\..\..\arduinoLCD\test\Pain Drain\libraries\lvgl\src\extra\widgets\menu/lv_menu.c ****     LV_ASSERT_OBJ(obj, MY_CLASS);
 167:..\..\..\arduinoLCD\test\Pain Drain\libraries\lvgl\src\extra\widgets\menu/lv_menu.c **** 
 168:..\..\..\arduinoLCD\test\Pain Drain\libraries\lvgl\src\extra\widgets\menu/lv_menu.c ****     lv_menu_t * menu = (lv_menu_t *)obj;
 169:..\..\..\arduinoLCD\test\Pain Drain\libraries\lvgl\src\extra\widgets\menu/lv_menu.c ****     lv_ll_t * history_ll = &(menu->history_ll);
 170:..\..\..\arduinoLCD\test\Pain Drain\libraries\lvgl\src\extra\widgets\menu/lv_menu.c **** 
 171:..\..\..\arduinoLCD\test\Pain Drain\libraries\lvgl\src\extra\widgets\menu/lv_menu.c ****     /* The current menu */
 172:..\..\..\arduinoLCD\test\Pain Drain\libraries\lvgl\src\extra\widgets\menu/lv_menu.c ****     lv_menu_history_t * act_hist = _lv_ll_get_head(history_ll);
 173:..\..\..\arduinoLCD\test\Pain Drain\libraries\lvgl\src\extra\widgets\menu/lv_menu.c **** 
 174:..\..\..\arduinoLCD\test\Pain Drain\libraries\lvgl\src\extra\widgets\menu/lv_menu.c ****     lv_obj_t * page = NULL;
 175:..\..\..\arduinoLCD\test\Pain Drain\libraries\lvgl\src\extra\widgets\menu/lv_menu.c **** 
 176:..\..\..\arduinoLCD\test\Pain Drain\libraries\lvgl\src\extra\widgets\menu/lv_menu.c ****     if(act_hist != NULL) {
 177:..\..\..\arduinoLCD\test\Pain Drain\libraries\lvgl\src\extra\widgets\menu/lv_menu.c ****         page = act_hist->page;
 178:..\..\..\arduinoLCD\test\Pain Drain\libraries\lvgl\src\extra\widgets\menu/lv_menu.c ****         /* Delete the current item from the history */
 179:..\..\..\arduinoLCD\test\Pain Drain\libraries\lvgl\src\extra\widgets\menu/lv_menu.c ****         _lv_ll_remove(history_ll, act_hist);
 180:..\..\..\arduinoLCD\test\Pain Drain\libraries\lvgl\src\extra\widgets\menu/lv_menu.c ****         lv_mem_free(act_hist);
 181:..\..\..\arduinoLCD\test\Pain Drain\libraries\lvgl\src\extra\widgets\menu/lv_menu.c ****         menu->cur_depth--;
 182:..\..\..\arduinoLCD\test\Pain Drain\libraries\lvgl\src\extra\widgets\menu/lv_menu.c ****     }
 183:..\..\..\arduinoLCD\test\Pain Drain\libraries\lvgl\src\extra\widgets\menu/lv_menu.c **** 
 184:..\..\..\arduinoLCD\test\Pain Drain\libraries\lvgl\src\extra\widgets\menu/lv_menu.c ****     /* Set it */
 185:..\..\..\arduinoLCD\test\Pain Drain\libraries\lvgl\src\extra\widgets\menu/lv_menu.c ****     lv_menu_set_page(obj, page);
 186:..\..\..\arduinoLCD\test\Pain Drain\libraries\lvgl\src\extra\widgets\menu/lv_menu.c **** }
 187:..\..\..\arduinoLCD\test\Pain Drain\libraries\lvgl\src\extra\widgets\menu/lv_menu.c **** 
 188:..\..\..\arduinoLCD\test\Pain Drain\libraries\lvgl\src\extra\widgets\menu/lv_menu.c **** /*=====================
 189:..\..\..\arduinoLCD\test\Pain Drain\libraries\lvgl\src\extra\widgets\menu/lv_menu.c ****  * Setter functions
 190:..\..\..\arduinoLCD\test\Pain Drain\libraries\lvgl\src\extra\widgets\menu/lv_menu.c ****  *====================*/
 191:..\..\..\arduinoLCD\test\Pain Drain\libraries\lvgl\src\extra\widgets\menu/lv_menu.c **** 
 192:..\..\..\arduinoLCD\test\Pain Drain\libraries\lvgl\src\extra\widgets\menu/lv_menu.c **** void lv_menu_set_page(lv_obj_t * obj, lv_obj_t * page)
 193:..\..\..\arduinoLCD\test\Pain Drain\libraries\lvgl\src\extra\widgets\menu/lv_menu.c **** {
 194:..\..\..\arduinoLCD\test\Pain Drain\libraries\lvgl\src\extra\widgets\menu/lv_menu.c ****     LV_ASSERT_OBJ(obj, MY_CLASS);
 195:..\..\..\arduinoLCD\test\Pain Drain\libraries\lvgl\src\extra\widgets\menu/lv_menu.c **** 
 196:..\..\..\arduinoLCD\test\Pain Drain\libraries\lvgl\src\extra\widgets\menu/lv_menu.c ****     lv_menu_t * menu = (lv_menu_t *)obj;
 197:..\..\..\arduinoLCD\test\Pain Drain\libraries\lvgl\src\extra\widgets\menu/lv_menu.c **** 
 198:..\..\..\arduinoLCD\test\Pain Drain\libraries\lvgl\src\extra\widgets\menu/lv_menu.c ****     /* Hide previous page */
 199:..\..\..\arduinoLCD\test\Pain Drain\libraries\lvgl\src\extra\widgets\menu/lv_menu.c ****     if(menu->main_page != NULL) {
 200:..\..\..\arduinoLCD\test\Pain Drain\libraries\lvgl\src\extra\widgets\menu/lv_menu.c ****         lv_obj_set_parent(menu->main_page, menu->storage);
 201:..\..\..\arduinoLCD\test\Pain Drain\libraries\lvgl\src\extra\widgets\menu/lv_menu.c ****     }
 202:..\..\..\arduinoLCD\test\Pain Drain\libraries\lvgl\src\extra\widgets\menu/lv_menu.c **** 
ARM GAS  C:\Users\haske\AppData\Local\Temp\ccp0JrPn.s 			page 5


 203:..\..\..\arduinoLCD\test\Pain Drain\libraries\lvgl\src\extra\widgets\menu/lv_menu.c ****     if(page != NULL) {
 204:..\..\..\arduinoLCD\test\Pain Drain\libraries\lvgl\src\extra\widgets\menu/lv_menu.c ****         /* Add a new node */
 205:..\..\..\arduinoLCD\test\Pain Drain\libraries\lvgl\src\extra\widgets\menu/lv_menu.c ****         lv_ll_t * history_ll = &(menu->history_ll);
 206:..\..\..\arduinoLCD\test\Pain Drain\libraries\lvgl\src\extra\widgets\menu/lv_menu.c ****         lv_menu_history_t * new_node = _lv_ll_ins_head(history_ll);
 207:..\..\..\arduinoLCD\test\Pain Drain\libraries\lvgl\src\extra\widgets\menu/lv_menu.c ****         LV_ASSERT_MALLOC(new_node);
 208:..\..\..\arduinoLCD\test\Pain Drain\libraries\lvgl\src\extra\widgets\menu/lv_menu.c ****         new_node->page = page;
 209:..\..\..\arduinoLCD\test\Pain Drain\libraries\lvgl\src\extra\widgets\menu/lv_menu.c ****         menu->cur_depth++;
 210:..\..\..\arduinoLCD\test\Pain Drain\libraries\lvgl\src\extra\widgets\menu/lv_menu.c **** 
 211:..\..\..\arduinoLCD\test\Pain Drain\libraries\lvgl\src\extra\widgets\menu/lv_menu.c ****         /* Place page in main */
 212:..\..\..\arduinoLCD\test\Pain Drain\libraries\lvgl\src\extra\widgets\menu/lv_menu.c ****         lv_obj_set_parent(page, menu->main);
 213:..\..\..\arduinoLCD\test\Pain Drain\libraries\lvgl\src\extra\widgets\menu/lv_menu.c ****     }
 214:..\..\..\arduinoLCD\test\Pain Drain\libraries\lvgl\src\extra\widgets\menu/lv_menu.c ****     else {
 215:..\..\..\arduinoLCD\test\Pain Drain\libraries\lvgl\src\extra\widgets\menu/lv_menu.c ****         /* Empty page, clear history */
 216:..\..\..\arduinoLCD\test\Pain Drain\libraries\lvgl\src\extra\widgets\menu/lv_menu.c ****         lv_menu_clear_history(obj);
 217:..\..\..\arduinoLCD\test\Pain Drain\libraries\lvgl\src\extra\widgets\menu/lv_menu.c ****     }
 218:..\..\..\arduinoLCD\test\Pain Drain\libraries\lvgl\src\extra\widgets\menu/lv_menu.c **** 
 219:..\..\..\arduinoLCD\test\Pain Drain\libraries\lvgl\src\extra\widgets\menu/lv_menu.c ****     menu->main_page = page;
 220:..\..\..\arduinoLCD\test\Pain Drain\libraries\lvgl\src\extra\widgets\menu/lv_menu.c **** 
 221:..\..\..\arduinoLCD\test\Pain Drain\libraries\lvgl\src\extra\widgets\menu/lv_menu.c ****     /* If there is a selected tab, update checked state */
 222:..\..\..\arduinoLCD\test\Pain Drain\libraries\lvgl\src\extra\widgets\menu/lv_menu.c ****     if(menu->selected_tab != NULL) {
 223:..\..\..\arduinoLCD\test\Pain Drain\libraries\lvgl\src\extra\widgets\menu/lv_menu.c ****         if(menu->sidebar_page != NULL) {
 224:..\..\..\arduinoLCD\test\Pain Drain\libraries\lvgl\src\extra\widgets\menu/lv_menu.c ****             lv_obj_add_state(menu->selected_tab, LV_STATE_CHECKED);
 225:..\..\..\arduinoLCD\test\Pain Drain\libraries\lvgl\src\extra\widgets\menu/lv_menu.c ****         }
 226:..\..\..\arduinoLCD\test\Pain Drain\libraries\lvgl\src\extra\widgets\menu/lv_menu.c ****         else {
 227:..\..\..\arduinoLCD\test\Pain Drain\libraries\lvgl\src\extra\widgets\menu/lv_menu.c ****             lv_obj_clear_state(menu->selected_tab, LV_STATE_CHECKED);
 228:..\..\..\arduinoLCD\test\Pain Drain\libraries\lvgl\src\extra\widgets\menu/lv_menu.c ****         }
 229:..\..\..\arduinoLCD\test\Pain Drain\libraries\lvgl\src\extra\widgets\menu/lv_menu.c ****     }
 230:..\..\..\arduinoLCD\test\Pain Drain\libraries\lvgl\src\extra\widgets\menu/lv_menu.c **** 
 231:..\..\..\arduinoLCD\test\Pain Drain\libraries\lvgl\src\extra\widgets\menu/lv_menu.c ****     /* Back btn management */
 232:..\..\..\arduinoLCD\test\Pain Drain\libraries\lvgl\src\extra\widgets\menu/lv_menu.c ****     if(menu->sidebar_page != NULL) {
 233:..\..\..\arduinoLCD\test\Pain Drain\libraries\lvgl\src\extra\widgets\menu/lv_menu.c ****         /* With sidebar enabled */
 234:..\..\..\arduinoLCD\test\Pain Drain\libraries\lvgl\src\extra\widgets\menu/lv_menu.c ****         if(menu->sidebar_generated) {
 235:..\..\..\arduinoLCD\test\Pain Drain\libraries\lvgl\src\extra\widgets\menu/lv_menu.c ****             if(menu->mode_root_back_btn == LV_MENU_ROOT_BACK_BTN_ENABLED) {
 236:..\..\..\arduinoLCD\test\Pain Drain\libraries\lvgl\src\extra\widgets\menu/lv_menu.c ****                 /* Root back btn is always shown if enabled*/
 237:..\..\..\arduinoLCD\test\Pain Drain\libraries\lvgl\src\extra\widgets\menu/lv_menu.c ****                 lv_obj_clear_flag(menu->sidebar_header_back_btn, LV_OBJ_FLAG_HIDDEN);
 238:..\..\..\arduinoLCD\test\Pain Drain\libraries\lvgl\src\extra\widgets\menu/lv_menu.c ****                 lv_obj_add_flag(menu->sidebar_header_back_btn, LV_OBJ_FLAG_CLICKABLE);
 239:..\..\..\arduinoLCD\test\Pain Drain\libraries\lvgl\src\extra\widgets\menu/lv_menu.c ****             }
 240:..\..\..\arduinoLCD\test\Pain Drain\libraries\lvgl\src\extra\widgets\menu/lv_menu.c ****             else {
 241:..\..\..\arduinoLCD\test\Pain Drain\libraries\lvgl\src\extra\widgets\menu/lv_menu.c ****                 lv_obj_add_flag(menu->sidebar_header_back_btn, LV_OBJ_FLAG_HIDDEN);
 242:..\..\..\arduinoLCD\test\Pain Drain\libraries\lvgl\src\extra\widgets\menu/lv_menu.c ****                 lv_obj_clear_flag(menu->sidebar_header_back_btn, LV_OBJ_FLAG_CLICKABLE);
 243:..\..\..\arduinoLCD\test\Pain Drain\libraries\lvgl\src\extra\widgets\menu/lv_menu.c ****             }
 244:..\..\..\arduinoLCD\test\Pain Drain\libraries\lvgl\src\extra\widgets\menu/lv_menu.c ****         }
 245:..\..\..\arduinoLCD\test\Pain Drain\libraries\lvgl\src\extra\widgets\menu/lv_menu.c **** 
 246:..\..\..\arduinoLCD\test\Pain Drain\libraries\lvgl\src\extra\widgets\menu/lv_menu.c ****         if(menu->cur_depth >= 2) {
 247:..\..\..\arduinoLCD\test\Pain Drain\libraries\lvgl\src\extra\widgets\menu/lv_menu.c ****             lv_obj_clear_flag(menu->main_header_back_btn, LV_OBJ_FLAG_HIDDEN);
 248:..\..\..\arduinoLCD\test\Pain Drain\libraries\lvgl\src\extra\widgets\menu/lv_menu.c ****             lv_obj_add_flag(menu->main_header_back_btn, LV_OBJ_FLAG_CLICKABLE);
 249:..\..\..\arduinoLCD\test\Pain Drain\libraries\lvgl\src\extra\widgets\menu/lv_menu.c ****         }
 250:..\..\..\arduinoLCD\test\Pain Drain\libraries\lvgl\src\extra\widgets\menu/lv_menu.c ****         else {
 251:..\..\..\arduinoLCD\test\Pain Drain\libraries\lvgl\src\extra\widgets\menu/lv_menu.c ****             lv_obj_add_flag(menu->main_header_back_btn, LV_OBJ_FLAG_HIDDEN);
 252:..\..\..\arduinoLCD\test\Pain Drain\libraries\lvgl\src\extra\widgets\menu/lv_menu.c ****             lv_obj_clear_flag(menu->main_header_back_btn, LV_OBJ_FLAG_CLICKABLE);
 253:..\..\..\arduinoLCD\test\Pain Drain\libraries\lvgl\src\extra\widgets\menu/lv_menu.c ****         }
 254:..\..\..\arduinoLCD\test\Pain Drain\libraries\lvgl\src\extra\widgets\menu/lv_menu.c ****     }
 255:..\..\..\arduinoLCD\test\Pain Drain\libraries\lvgl\src\extra\widgets\menu/lv_menu.c ****     else {
 256:..\..\..\arduinoLCD\test\Pain Drain\libraries\lvgl\src\extra\widgets\menu/lv_menu.c ****         /* With sidebar disabled */
 257:..\..\..\arduinoLCD\test\Pain Drain\libraries\lvgl\src\extra\widgets\menu/lv_menu.c ****         if(menu->cur_depth >= 2 || menu->mode_root_back_btn == LV_MENU_ROOT_BACK_BTN_ENABLED) {
 258:..\..\..\arduinoLCD\test\Pain Drain\libraries\lvgl\src\extra\widgets\menu/lv_menu.c ****             lv_obj_clear_flag(menu->main_header_back_btn, LV_OBJ_FLAG_HIDDEN);
 259:..\..\..\arduinoLCD\test\Pain Drain\libraries\lvgl\src\extra\widgets\menu/lv_menu.c ****             lv_obj_add_flag(menu->main_header_back_btn, LV_OBJ_FLAG_CLICKABLE);
ARM GAS  C:\Users\haske\AppData\Local\Temp\ccp0JrPn.s 			page 6


 260:..\..\..\arduinoLCD\test\Pain Drain\libraries\lvgl\src\extra\widgets\menu/lv_menu.c ****         }
 261:..\..\..\arduinoLCD\test\Pain Drain\libraries\lvgl\src\extra\widgets\menu/lv_menu.c ****         else {
 262:..\..\..\arduinoLCD\test\Pain Drain\libraries\lvgl\src\extra\widgets\menu/lv_menu.c ****             lv_obj_add_flag(menu->main_header_back_btn, LV_OBJ_FLAG_HIDDEN);
 263:..\..\..\arduinoLCD\test\Pain Drain\libraries\lvgl\src\extra\widgets\menu/lv_menu.c ****             lv_obj_clear_flag(menu->main_header_back_btn, LV_OBJ_FLAG_CLICKABLE);
 264:..\..\..\arduinoLCD\test\Pain Drain\libraries\lvgl\src\extra\widgets\menu/lv_menu.c ****         }
 265:..\..\..\arduinoLCD\test\Pain Drain\libraries\lvgl\src\extra\widgets\menu/lv_menu.c ****     }
 266:..\..\..\arduinoLCD\test\Pain Drain\libraries\lvgl\src\extra\widgets\menu/lv_menu.c **** 
 267:..\..\..\arduinoLCD\test\Pain Drain\libraries\lvgl\src\extra\widgets\menu/lv_menu.c ****     lv_event_send((lv_obj_t *)menu, LV_EVENT_VALUE_CHANGED, NULL);
 268:..\..\..\arduinoLCD\test\Pain Drain\libraries\lvgl\src\extra\widgets\menu/lv_menu.c **** 
 269:..\..\..\arduinoLCD\test\Pain Drain\libraries\lvgl\src\extra\widgets\menu/lv_menu.c ****     lv_menu_refr_main_header_mode(obj);
 270:..\..\..\arduinoLCD\test\Pain Drain\libraries\lvgl\src\extra\widgets\menu/lv_menu.c **** }
 271:..\..\..\arduinoLCD\test\Pain Drain\libraries\lvgl\src\extra\widgets\menu/lv_menu.c **** 
 272:..\..\..\arduinoLCD\test\Pain Drain\libraries\lvgl\src\extra\widgets\menu/lv_menu.c **** void lv_menu_set_sidebar_page(lv_obj_t * obj, lv_obj_t * page)
 273:..\..\..\arduinoLCD\test\Pain Drain\libraries\lvgl\src\extra\widgets\menu/lv_menu.c **** {
 274:..\..\..\arduinoLCD\test\Pain Drain\libraries\lvgl\src\extra\widgets\menu/lv_menu.c ****     LV_ASSERT_OBJ(obj, MY_CLASS);
 275:..\..\..\arduinoLCD\test\Pain Drain\libraries\lvgl\src\extra\widgets\menu/lv_menu.c **** 
 276:..\..\..\arduinoLCD\test\Pain Drain\libraries\lvgl\src\extra\widgets\menu/lv_menu.c ****     lv_menu_t * menu = (lv_menu_t *)obj;
 277:..\..\..\arduinoLCD\test\Pain Drain\libraries\lvgl\src\extra\widgets\menu/lv_menu.c **** 
 278:..\..\..\arduinoLCD\test\Pain Drain\libraries\lvgl\src\extra\widgets\menu/lv_menu.c ****     /* Sidebar management*/
 279:..\..\..\arduinoLCD\test\Pain Drain\libraries\lvgl\src\extra\widgets\menu/lv_menu.c ****     if(page != NULL) {
 280:..\..\..\arduinoLCD\test\Pain Drain\libraries\lvgl\src\extra\widgets\menu/lv_menu.c ****         /* Sidebar should be enabled */
 281:..\..\..\arduinoLCD\test\Pain Drain\libraries\lvgl\src\extra\widgets\menu/lv_menu.c ****         if(!menu->sidebar_generated) {
 282:..\..\..\arduinoLCD\test\Pain Drain\libraries\lvgl\src\extra\widgets\menu/lv_menu.c ****             /* Create sidebar */
 283:..\..\..\arduinoLCD\test\Pain Drain\libraries\lvgl\src\extra\widgets\menu/lv_menu.c ****             lv_obj_t * sidebar_cont = lv_obj_class_create_obj(&lv_menu_sidebar_cont_class, obj);
 284:..\..\..\arduinoLCD\test\Pain Drain\libraries\lvgl\src\extra\widgets\menu/lv_menu.c ****             lv_obj_class_init_obj(sidebar_cont);
 285:..\..\..\arduinoLCD\test\Pain Drain\libraries\lvgl\src\extra\widgets\menu/lv_menu.c ****             lv_obj_move_to_index(sidebar_cont, 1);
 286:..\..\..\arduinoLCD\test\Pain Drain\libraries\lvgl\src\extra\widgets\menu/lv_menu.c ****             lv_obj_set_size(sidebar_cont, LV_PCT(30), LV_PCT(100));
 287:..\..\..\arduinoLCD\test\Pain Drain\libraries\lvgl\src\extra\widgets\menu/lv_menu.c ****             lv_obj_set_flex_flow(sidebar_cont, LV_FLEX_FLOW_COLUMN);
 288:..\..\..\arduinoLCD\test\Pain Drain\libraries\lvgl\src\extra\widgets\menu/lv_menu.c ****             lv_obj_add_flag(sidebar_cont, LV_OBJ_FLAG_EVENT_BUBBLE);
 289:..\..\..\arduinoLCD\test\Pain Drain\libraries\lvgl\src\extra\widgets\menu/lv_menu.c ****             lv_obj_clear_flag(sidebar_cont, LV_OBJ_FLAG_CLICKABLE);
 290:..\..\..\arduinoLCD\test\Pain Drain\libraries\lvgl\src\extra\widgets\menu/lv_menu.c ****             menu->sidebar = sidebar_cont;
 291:..\..\..\arduinoLCD\test\Pain Drain\libraries\lvgl\src\extra\widgets\menu/lv_menu.c **** 
 292:..\..\..\arduinoLCD\test\Pain Drain\libraries\lvgl\src\extra\widgets\menu/lv_menu.c ****             lv_obj_t * sidebar_header = lv_obj_class_create_obj(&lv_menu_sidebar_header_cont_class,
 293:..\..\..\arduinoLCD\test\Pain Drain\libraries\lvgl\src\extra\widgets\menu/lv_menu.c ****             lv_obj_class_init_obj(sidebar_header);
 294:..\..\..\arduinoLCD\test\Pain Drain\libraries\lvgl\src\extra\widgets\menu/lv_menu.c ****             lv_obj_set_size(sidebar_header, LV_PCT(100), LV_SIZE_CONTENT);
 295:..\..\..\arduinoLCD\test\Pain Drain\libraries\lvgl\src\extra\widgets\menu/lv_menu.c ****             lv_obj_set_flex_flow(sidebar_header, LV_FLEX_FLOW_ROW);
 296:..\..\..\arduinoLCD\test\Pain Drain\libraries\lvgl\src\extra\widgets\menu/lv_menu.c ****             lv_obj_set_flex_align(sidebar_header, LV_FLEX_ALIGN_START, LV_FLEX_ALIGN_CENTER, LV_FLE
 297:..\..\..\arduinoLCD\test\Pain Drain\libraries\lvgl\src\extra\widgets\menu/lv_menu.c ****             lv_obj_clear_flag(sidebar_header, LV_OBJ_FLAG_CLICKABLE);
 298:..\..\..\arduinoLCD\test\Pain Drain\libraries\lvgl\src\extra\widgets\menu/lv_menu.c ****             lv_obj_add_flag(sidebar_header, LV_OBJ_FLAG_EVENT_BUBBLE);
 299:..\..\..\arduinoLCD\test\Pain Drain\libraries\lvgl\src\extra\widgets\menu/lv_menu.c ****             menu->sidebar_header = sidebar_header;
 300:..\..\..\arduinoLCD\test\Pain Drain\libraries\lvgl\src\extra\widgets\menu/lv_menu.c **** 
 301:..\..\..\arduinoLCD\test\Pain Drain\libraries\lvgl\src\extra\widgets\menu/lv_menu.c ****             lv_obj_t * sidebar_header_back_btn = lv_btn_create(menu->sidebar_header);
 302:..\..\..\arduinoLCD\test\Pain Drain\libraries\lvgl\src\extra\widgets\menu/lv_menu.c ****             lv_obj_add_event_cb(sidebar_header_back_btn, lv_menu_back_event_cb, LV_EVENT_CLICKED, m
 303:..\..\..\arduinoLCD\test\Pain Drain\libraries\lvgl\src\extra\widgets\menu/lv_menu.c ****             lv_obj_add_flag(sidebar_header_back_btn, LV_OBJ_FLAG_EVENT_BUBBLE);
 304:..\..\..\arduinoLCD\test\Pain Drain\libraries\lvgl\src\extra\widgets\menu/lv_menu.c ****             lv_obj_set_flex_flow(sidebar_header_back_btn, LV_FLEX_FLOW_ROW);
 305:..\..\..\arduinoLCD\test\Pain Drain\libraries\lvgl\src\extra\widgets\menu/lv_menu.c ****             menu->sidebar_header_back_btn = sidebar_header_back_btn;
 306:..\..\..\arduinoLCD\test\Pain Drain\libraries\lvgl\src\extra\widgets\menu/lv_menu.c **** 
 307:..\..\..\arduinoLCD\test\Pain Drain\libraries\lvgl\src\extra\widgets\menu/lv_menu.c ****             lv_obj_t * sidebar_header_back_icon = lv_img_create(menu->sidebar_header_back_btn);
 308:..\..\..\arduinoLCD\test\Pain Drain\libraries\lvgl\src\extra\widgets\menu/lv_menu.c ****             lv_img_set_src(sidebar_header_back_icon, LV_SYMBOL_LEFT);
 309:..\..\..\arduinoLCD\test\Pain Drain\libraries\lvgl\src\extra\widgets\menu/lv_menu.c **** 
 310:..\..\..\arduinoLCD\test\Pain Drain\libraries\lvgl\src\extra\widgets\menu/lv_menu.c ****             lv_obj_t * sidebar_header_title = lv_label_create(menu->sidebar_header);
 311:..\..\..\arduinoLCD\test\Pain Drain\libraries\lvgl\src\extra\widgets\menu/lv_menu.c ****             lv_obj_add_flag(sidebar_header_title, LV_OBJ_FLAG_HIDDEN);
 312:..\..\..\arduinoLCD\test\Pain Drain\libraries\lvgl\src\extra\widgets\menu/lv_menu.c ****             menu->sidebar_header_title = sidebar_header_title;
 313:..\..\..\arduinoLCD\test\Pain Drain\libraries\lvgl\src\extra\widgets\menu/lv_menu.c **** 
 314:..\..\..\arduinoLCD\test\Pain Drain\libraries\lvgl\src\extra\widgets\menu/lv_menu.c ****             menu->sidebar_generated = true;
 315:..\..\..\arduinoLCD\test\Pain Drain\libraries\lvgl\src\extra\widgets\menu/lv_menu.c ****         }
 316:..\..\..\arduinoLCD\test\Pain Drain\libraries\lvgl\src\extra\widgets\menu/lv_menu.c **** 
ARM GAS  C:\Users\haske\AppData\Local\Temp\ccp0JrPn.s 			page 7


 317:..\..\..\arduinoLCD\test\Pain Drain\libraries\lvgl\src\extra\widgets\menu/lv_menu.c ****         lv_obj_set_parent(page, menu->sidebar);
 318:..\..\..\arduinoLCD\test\Pain Drain\libraries\lvgl\src\extra\widgets\menu/lv_menu.c **** 
 319:..\..\..\arduinoLCD\test\Pain Drain\libraries\lvgl\src\extra\widgets\menu/lv_menu.c ****         lv_menu_refr_sidebar_header_mode(obj);
 320:..\..\..\arduinoLCD\test\Pain Drain\libraries\lvgl\src\extra\widgets\menu/lv_menu.c ****     }
 321:..\..\..\arduinoLCD\test\Pain Drain\libraries\lvgl\src\extra\widgets\menu/lv_menu.c ****     else {
 322:..\..\..\arduinoLCD\test\Pain Drain\libraries\lvgl\src\extra\widgets\menu/lv_menu.c ****         /* Sidebar should be disabled */
 323:..\..\..\arduinoLCD\test\Pain Drain\libraries\lvgl\src\extra\widgets\menu/lv_menu.c ****         if(menu->sidebar_generated) {
 324:..\..\..\arduinoLCD\test\Pain Drain\libraries\lvgl\src\extra\widgets\menu/lv_menu.c ****             lv_obj_set_parent(menu->sidebar_page, menu->storage);
 325:..\..\..\arduinoLCD\test\Pain Drain\libraries\lvgl\src\extra\widgets\menu/lv_menu.c ****             lv_obj_del(menu->sidebar);
 326:..\..\..\arduinoLCD\test\Pain Drain\libraries\lvgl\src\extra\widgets\menu/lv_menu.c **** 
 327:..\..\..\arduinoLCD\test\Pain Drain\libraries\lvgl\src\extra\widgets\menu/lv_menu.c ****             menu->sidebar_generated = false;
 328:..\..\..\arduinoLCD\test\Pain Drain\libraries\lvgl\src\extra\widgets\menu/lv_menu.c ****         }
 329:..\..\..\arduinoLCD\test\Pain Drain\libraries\lvgl\src\extra\widgets\menu/lv_menu.c ****     }
 330:..\..\..\arduinoLCD\test\Pain Drain\libraries\lvgl\src\extra\widgets\menu/lv_menu.c **** 
 331:..\..\..\arduinoLCD\test\Pain Drain\libraries\lvgl\src\extra\widgets\menu/lv_menu.c ****     menu->sidebar_page = page;
 332:..\..\..\arduinoLCD\test\Pain Drain\libraries\lvgl\src\extra\widgets\menu/lv_menu.c ****     lv_menu_refr(obj);
 333:..\..\..\arduinoLCD\test\Pain Drain\libraries\lvgl\src\extra\widgets\menu/lv_menu.c **** }
 334:..\..\..\arduinoLCD\test\Pain Drain\libraries\lvgl\src\extra\widgets\menu/lv_menu.c **** 
 335:..\..\..\arduinoLCD\test\Pain Drain\libraries\lvgl\src\extra\widgets\menu/lv_menu.c **** void lv_menu_set_mode_header(lv_obj_t * obj, lv_menu_mode_header_t mode_header)
 336:..\..\..\arduinoLCD\test\Pain Drain\libraries\lvgl\src\extra\widgets\menu/lv_menu.c **** {
 337:..\..\..\arduinoLCD\test\Pain Drain\libraries\lvgl\src\extra\widgets\menu/lv_menu.c ****     LV_ASSERT_OBJ(obj, MY_CLASS);
 338:..\..\..\arduinoLCD\test\Pain Drain\libraries\lvgl\src\extra\widgets\menu/lv_menu.c **** 
 339:..\..\..\arduinoLCD\test\Pain Drain\libraries\lvgl\src\extra\widgets\menu/lv_menu.c ****     lv_menu_t * menu = (lv_menu_t *)obj;
 340:..\..\..\arduinoLCD\test\Pain Drain\libraries\lvgl\src\extra\widgets\menu/lv_menu.c **** 
 341:..\..\..\arduinoLCD\test\Pain Drain\libraries\lvgl\src\extra\widgets\menu/lv_menu.c ****     if(menu->mode_header != mode_header) {
 342:..\..\..\arduinoLCD\test\Pain Drain\libraries\lvgl\src\extra\widgets\menu/lv_menu.c ****         menu->mode_header = mode_header;
 343:..\..\..\arduinoLCD\test\Pain Drain\libraries\lvgl\src\extra\widgets\menu/lv_menu.c ****         lv_menu_refr_main_header_mode(obj);
 344:..\..\..\arduinoLCD\test\Pain Drain\libraries\lvgl\src\extra\widgets\menu/lv_menu.c ****         if(menu->sidebar_generated) lv_menu_refr_sidebar_header_mode(obj);
 345:..\..\..\arduinoLCD\test\Pain Drain\libraries\lvgl\src\extra\widgets\menu/lv_menu.c ****     }
 346:..\..\..\arduinoLCD\test\Pain Drain\libraries\lvgl\src\extra\widgets\menu/lv_menu.c **** }
 347:..\..\..\arduinoLCD\test\Pain Drain\libraries\lvgl\src\extra\widgets\menu/lv_menu.c **** 
 348:..\..\..\arduinoLCD\test\Pain Drain\libraries\lvgl\src\extra\widgets\menu/lv_menu.c **** void lv_menu_set_mode_root_back_btn(lv_obj_t * obj, lv_menu_mode_root_back_btn_t mode_root_back_btn
 349:..\..\..\arduinoLCD\test\Pain Drain\libraries\lvgl\src\extra\widgets\menu/lv_menu.c **** {
 350:..\..\..\arduinoLCD\test\Pain Drain\libraries\lvgl\src\extra\widgets\menu/lv_menu.c ****     LV_ASSERT_OBJ(obj, MY_CLASS);
 351:..\..\..\arduinoLCD\test\Pain Drain\libraries\lvgl\src\extra\widgets\menu/lv_menu.c **** 
 352:..\..\..\arduinoLCD\test\Pain Drain\libraries\lvgl\src\extra\widgets\menu/lv_menu.c ****     lv_menu_t * menu = (lv_menu_t *)obj;
 353:..\..\..\arduinoLCD\test\Pain Drain\libraries\lvgl\src\extra\widgets\menu/lv_menu.c **** 
 354:..\..\..\arduinoLCD\test\Pain Drain\libraries\lvgl\src\extra\widgets\menu/lv_menu.c ****     if(menu->mode_root_back_btn != mode_root_back_btn) {
 355:..\..\..\arduinoLCD\test\Pain Drain\libraries\lvgl\src\extra\widgets\menu/lv_menu.c ****         menu->mode_root_back_btn = mode_root_back_btn;
 356:..\..\..\arduinoLCD\test\Pain Drain\libraries\lvgl\src\extra\widgets\menu/lv_menu.c ****         lv_menu_refr(obj);
 357:..\..\..\arduinoLCD\test\Pain Drain\libraries\lvgl\src\extra\widgets\menu/lv_menu.c ****     }
 358:..\..\..\arduinoLCD\test\Pain Drain\libraries\lvgl\src\extra\widgets\menu/lv_menu.c **** }
 359:..\..\..\arduinoLCD\test\Pain Drain\libraries\lvgl\src\extra\widgets\menu/lv_menu.c **** 
 360:..\..\..\arduinoLCD\test\Pain Drain\libraries\lvgl\src\extra\widgets\menu/lv_menu.c **** void lv_menu_set_load_page_event(lv_obj_t * menu, lv_obj_t * obj, lv_obj_t * page)
 361:..\..\..\arduinoLCD\test\Pain Drain\libraries\lvgl\src\extra\widgets\menu/lv_menu.c **** {
 362:..\..\..\arduinoLCD\test\Pain Drain\libraries\lvgl\src\extra\widgets\menu/lv_menu.c ****     LV_ASSERT_OBJ(menu, MY_CLASS);
 363:..\..\..\arduinoLCD\test\Pain Drain\libraries\lvgl\src\extra\widgets\menu/lv_menu.c **** 
 364:..\..\..\arduinoLCD\test\Pain Drain\libraries\lvgl\src\extra\widgets\menu/lv_menu.c ****     lv_obj_add_flag(obj, LV_OBJ_FLAG_CLICKABLE);
 365:..\..\..\arduinoLCD\test\Pain Drain\libraries\lvgl\src\extra\widgets\menu/lv_menu.c ****     lv_obj_clear_flag(obj, LV_OBJ_FLAG_SCROLLABLE);
 366:..\..\..\arduinoLCD\test\Pain Drain\libraries\lvgl\src\extra\widgets\menu/lv_menu.c ****     lv_obj_add_flag(obj, LV_OBJ_FLAG_SCROLL_ON_FOCUS);
 367:..\..\..\arduinoLCD\test\Pain Drain\libraries\lvgl\src\extra\widgets\menu/lv_menu.c **** 
 368:..\..\..\arduinoLCD\test\Pain Drain\libraries\lvgl\src\extra\widgets\menu/lv_menu.c ****     /* Remove old event */
 369:..\..\..\arduinoLCD\test\Pain Drain\libraries\lvgl\src\extra\widgets\menu/lv_menu.c ****     if(lv_obj_remove_event_cb(obj, lv_menu_load_page_event_cb)) {
 370:..\..\..\arduinoLCD\test\Pain Drain\libraries\lvgl\src\extra\widgets\menu/lv_menu.c ****         lv_event_send(obj, LV_EVENT_DELETE, NULL);
 371:..\..\..\arduinoLCD\test\Pain Drain\libraries\lvgl\src\extra\widgets\menu/lv_menu.c ****         lv_obj_remove_event_cb(obj, lv_menu_obj_del_event_cb);
 372:..\..\..\arduinoLCD\test\Pain Drain\libraries\lvgl\src\extra\widgets\menu/lv_menu.c ****     }
 373:..\..\..\arduinoLCD\test\Pain Drain\libraries\lvgl\src\extra\widgets\menu/lv_menu.c **** 
ARM GAS  C:\Users\haske\AppData\Local\Temp\ccp0JrPn.s 			page 8


 374:..\..\..\arduinoLCD\test\Pain Drain\libraries\lvgl\src\extra\widgets\menu/lv_menu.c ****     lv_menu_load_page_event_data_t * event_data = lv_mem_alloc(sizeof(lv_menu_load_page_event_data_
 375:..\..\..\arduinoLCD\test\Pain Drain\libraries\lvgl\src\extra\widgets\menu/lv_menu.c ****     event_data->menu = menu;
 376:..\..\..\arduinoLCD\test\Pain Drain\libraries\lvgl\src\extra\widgets\menu/lv_menu.c ****     event_data->page = page;
 377:..\..\..\arduinoLCD\test\Pain Drain\libraries\lvgl\src\extra\widgets\menu/lv_menu.c **** 
 378:..\..\..\arduinoLCD\test\Pain Drain\libraries\lvgl\src\extra\widgets\menu/lv_menu.c ****     lv_obj_add_event_cb(obj, lv_menu_load_page_event_cb, LV_EVENT_CLICKED, event_data);
 379:..\..\..\arduinoLCD\test\Pain Drain\libraries\lvgl\src\extra\widgets\menu/lv_menu.c ****     lv_obj_add_event_cb(obj, lv_menu_obj_del_event_cb, LV_EVENT_DELETE, event_data);
 380:..\..\..\arduinoLCD\test\Pain Drain\libraries\lvgl\src\extra\widgets\menu/lv_menu.c **** }
 381:..\..\..\arduinoLCD\test\Pain Drain\libraries\lvgl\src\extra\widgets\menu/lv_menu.c **** 
 382:..\..\..\arduinoLCD\test\Pain Drain\libraries\lvgl\src\extra\widgets\menu/lv_menu.c **** /*=====================
 383:..\..\..\arduinoLCD\test\Pain Drain\libraries\lvgl\src\extra\widgets\menu/lv_menu.c ****  * Getter functions
 384:..\..\..\arduinoLCD\test\Pain Drain\libraries\lvgl\src\extra\widgets\menu/lv_menu.c ****  *====================*/
 385:..\..\..\arduinoLCD\test\Pain Drain\libraries\lvgl\src\extra\widgets\menu/lv_menu.c **** lv_obj_t * lv_menu_get_cur_main_page(lv_obj_t * obj)
 386:..\..\..\arduinoLCD\test\Pain Drain\libraries\lvgl\src\extra\widgets\menu/lv_menu.c **** {
 387:..\..\..\arduinoLCD\test\Pain Drain\libraries\lvgl\src\extra\widgets\menu/lv_menu.c ****     LV_ASSERT_OBJ(obj, MY_CLASS);
 388:..\..\..\arduinoLCD\test\Pain Drain\libraries\lvgl\src\extra\widgets\menu/lv_menu.c **** 
 389:..\..\..\arduinoLCD\test\Pain Drain\libraries\lvgl\src\extra\widgets\menu/lv_menu.c ****     lv_menu_t * menu = (lv_menu_t *)obj;
 390:..\..\..\arduinoLCD\test\Pain Drain\libraries\lvgl\src\extra\widgets\menu/lv_menu.c ****     return menu->main_page;
 391:..\..\..\arduinoLCD\test\Pain Drain\libraries\lvgl\src\extra\widgets\menu/lv_menu.c **** }
 392:..\..\..\arduinoLCD\test\Pain Drain\libraries\lvgl\src\extra\widgets\menu/lv_menu.c **** 
 393:..\..\..\arduinoLCD\test\Pain Drain\libraries\lvgl\src\extra\widgets\menu/lv_menu.c **** lv_obj_t * lv_menu_get_cur_sidebar_page(lv_obj_t * obj)
 394:..\..\..\arduinoLCD\test\Pain Drain\libraries\lvgl\src\extra\widgets\menu/lv_menu.c **** {
 395:..\..\..\arduinoLCD\test\Pain Drain\libraries\lvgl\src\extra\widgets\menu/lv_menu.c ****     LV_ASSERT_OBJ(obj, MY_CLASS);
 396:..\..\..\arduinoLCD\test\Pain Drain\libraries\lvgl\src\extra\widgets\menu/lv_menu.c **** 
 397:..\..\..\arduinoLCD\test\Pain Drain\libraries\lvgl\src\extra\widgets\menu/lv_menu.c ****     lv_menu_t * menu = (lv_menu_t *)obj;
 398:..\..\..\arduinoLCD\test\Pain Drain\libraries\lvgl\src\extra\widgets\menu/lv_menu.c ****     return menu->sidebar_page;
 399:..\..\..\arduinoLCD\test\Pain Drain\libraries\lvgl\src\extra\widgets\menu/lv_menu.c **** }
 400:..\..\..\arduinoLCD\test\Pain Drain\libraries\lvgl\src\extra\widgets\menu/lv_menu.c **** 
 401:..\..\..\arduinoLCD\test\Pain Drain\libraries\lvgl\src\extra\widgets\menu/lv_menu.c **** lv_obj_t * lv_menu_get_main_header(lv_obj_t * obj)
 402:..\..\..\arduinoLCD\test\Pain Drain\libraries\lvgl\src\extra\widgets\menu/lv_menu.c **** {
 403:..\..\..\arduinoLCD\test\Pain Drain\libraries\lvgl\src\extra\widgets\menu/lv_menu.c ****     LV_ASSERT_OBJ(obj, MY_CLASS);
 404:..\..\..\arduinoLCD\test\Pain Drain\libraries\lvgl\src\extra\widgets\menu/lv_menu.c **** 
 405:..\..\..\arduinoLCD\test\Pain Drain\libraries\lvgl\src\extra\widgets\menu/lv_menu.c ****     lv_menu_t * menu = (lv_menu_t *)obj;
 406:..\..\..\arduinoLCD\test\Pain Drain\libraries\lvgl\src\extra\widgets\menu/lv_menu.c ****     return menu->main_header;
 407:..\..\..\arduinoLCD\test\Pain Drain\libraries\lvgl\src\extra\widgets\menu/lv_menu.c **** }
 408:..\..\..\arduinoLCD\test\Pain Drain\libraries\lvgl\src\extra\widgets\menu/lv_menu.c **** 
 409:..\..\..\arduinoLCD\test\Pain Drain\libraries\lvgl\src\extra\widgets\menu/lv_menu.c **** lv_obj_t * lv_menu_get_main_header_back_btn(lv_obj_t * obj)
 410:..\..\..\arduinoLCD\test\Pain Drain\libraries\lvgl\src\extra\widgets\menu/lv_menu.c **** {
 411:..\..\..\arduinoLCD\test\Pain Drain\libraries\lvgl\src\extra\widgets\menu/lv_menu.c ****     LV_ASSERT_OBJ(obj, MY_CLASS);
 412:..\..\..\arduinoLCD\test\Pain Drain\libraries\lvgl\src\extra\widgets\menu/lv_menu.c **** 
 413:..\..\..\arduinoLCD\test\Pain Drain\libraries\lvgl\src\extra\widgets\menu/lv_menu.c ****     lv_menu_t * menu = (lv_menu_t *)obj;
 414:..\..\..\arduinoLCD\test\Pain Drain\libraries\lvgl\src\extra\widgets\menu/lv_menu.c ****     return menu->main_header_back_btn;
 415:..\..\..\arduinoLCD\test\Pain Drain\libraries\lvgl\src\extra\widgets\menu/lv_menu.c **** }
 416:..\..\..\arduinoLCD\test\Pain Drain\libraries\lvgl\src\extra\widgets\menu/lv_menu.c **** 
 417:..\..\..\arduinoLCD\test\Pain Drain\libraries\lvgl\src\extra\widgets\menu/lv_menu.c **** lv_obj_t * lv_menu_get_sidebar_header(lv_obj_t * obj)
 418:..\..\..\arduinoLCD\test\Pain Drain\libraries\lvgl\src\extra\widgets\menu/lv_menu.c **** {
 419:..\..\..\arduinoLCD\test\Pain Drain\libraries\lvgl\src\extra\widgets\menu/lv_menu.c ****     LV_ASSERT_OBJ(obj, MY_CLASS);
 420:..\..\..\arduinoLCD\test\Pain Drain\libraries\lvgl\src\extra\widgets\menu/lv_menu.c **** 
 421:..\..\..\arduinoLCD\test\Pain Drain\libraries\lvgl\src\extra\widgets\menu/lv_menu.c ****     lv_menu_t * menu = (lv_menu_t *)obj;
 422:..\..\..\arduinoLCD\test\Pain Drain\libraries\lvgl\src\extra\widgets\menu/lv_menu.c ****     return menu->sidebar_header;
 423:..\..\..\arduinoLCD\test\Pain Drain\libraries\lvgl\src\extra\widgets\menu/lv_menu.c **** }
 424:..\..\..\arduinoLCD\test\Pain Drain\libraries\lvgl\src\extra\widgets\menu/lv_menu.c **** 
 425:..\..\..\arduinoLCD\test\Pain Drain\libraries\lvgl\src\extra\widgets\menu/lv_menu.c **** lv_obj_t * lv_menu_get_sidebar_header_back_btn(lv_obj_t * obj)
 426:..\..\..\arduinoLCD\test\Pain Drain\libraries\lvgl\src\extra\widgets\menu/lv_menu.c **** {
 427:..\..\..\arduinoLCD\test\Pain Drain\libraries\lvgl\src\extra\widgets\menu/lv_menu.c ****     LV_ASSERT_OBJ(obj, MY_CLASS);
 428:..\..\..\arduinoLCD\test\Pain Drain\libraries\lvgl\src\extra\widgets\menu/lv_menu.c **** 
 429:..\..\..\arduinoLCD\test\Pain Drain\libraries\lvgl\src\extra\widgets\menu/lv_menu.c ****     lv_menu_t * menu = (lv_menu_t *)obj;
 430:..\..\..\arduinoLCD\test\Pain Drain\libraries\lvgl\src\extra\widgets\menu/lv_menu.c ****     return menu->sidebar_header_back_btn;
ARM GAS  C:\Users\haske\AppData\Local\Temp\ccp0JrPn.s 			page 9


 431:..\..\..\arduinoLCD\test\Pain Drain\libraries\lvgl\src\extra\widgets\menu/lv_menu.c **** }
 432:..\..\..\arduinoLCD\test\Pain Drain\libraries\lvgl\src\extra\widgets\menu/lv_menu.c **** 
 433:..\..\..\arduinoLCD\test\Pain Drain\libraries\lvgl\src\extra\widgets\menu/lv_menu.c **** bool lv_menu_back_btn_is_root(lv_obj_t * menu, lv_obj_t * obj)
 434:..\..\..\arduinoLCD\test\Pain Drain\libraries\lvgl\src\extra\widgets\menu/lv_menu.c **** {
 435:..\..\..\arduinoLCD\test\Pain Drain\libraries\lvgl\src\extra\widgets\menu/lv_menu.c ****     LV_ASSERT_OBJ(menu, MY_CLASS);
 436:..\..\..\arduinoLCD\test\Pain Drain\libraries\lvgl\src\extra\widgets\menu/lv_menu.c **** 
 437:..\..\..\arduinoLCD\test\Pain Drain\libraries\lvgl\src\extra\widgets\menu/lv_menu.c ****     if(obj == ((lv_menu_t *)menu)->sidebar_header_back_btn) {
 438:..\..\..\arduinoLCD\test\Pain Drain\libraries\lvgl\src\extra\widgets\menu/lv_menu.c ****         return true;
 439:..\..\..\arduinoLCD\test\Pain Drain\libraries\lvgl\src\extra\widgets\menu/lv_menu.c ****     }
 440:..\..\..\arduinoLCD\test\Pain Drain\libraries\lvgl\src\extra\widgets\menu/lv_menu.c **** 
 441:..\..\..\arduinoLCD\test\Pain Drain\libraries\lvgl\src\extra\widgets\menu/lv_menu.c ****     if(obj == ((lv_menu_t *)menu)->main_header_back_btn && ((lv_menu_t *)menu)->prev_depth <= 1) {
 442:..\..\..\arduinoLCD\test\Pain Drain\libraries\lvgl\src\extra\widgets\menu/lv_menu.c ****         return true;
 443:..\..\..\arduinoLCD\test\Pain Drain\libraries\lvgl\src\extra\widgets\menu/lv_menu.c ****     }
 444:..\..\..\arduinoLCD\test\Pain Drain\libraries\lvgl\src\extra\widgets\menu/lv_menu.c **** 
 445:..\..\..\arduinoLCD\test\Pain Drain\libraries\lvgl\src\extra\widgets\menu/lv_menu.c ****     return false;
 446:..\..\..\arduinoLCD\test\Pain Drain\libraries\lvgl\src\extra\widgets\menu/lv_menu.c **** }
 447:..\..\..\arduinoLCD\test\Pain Drain\libraries\lvgl\src\extra\widgets\menu/lv_menu.c **** 
 448:..\..\..\arduinoLCD\test\Pain Drain\libraries\lvgl\src\extra\widgets\menu/lv_menu.c **** void lv_menu_clear_history(lv_obj_t * obj)
 449:..\..\..\arduinoLCD\test\Pain Drain\libraries\lvgl\src\extra\widgets\menu/lv_menu.c **** {
 450:..\..\..\arduinoLCD\test\Pain Drain\libraries\lvgl\src\extra\widgets\menu/lv_menu.c ****     LV_ASSERT_OBJ(obj, MY_CLASS);
 451:..\..\..\arduinoLCD\test\Pain Drain\libraries\lvgl\src\extra\widgets\menu/lv_menu.c **** 
 452:..\..\..\arduinoLCD\test\Pain Drain\libraries\lvgl\src\extra\widgets\menu/lv_menu.c ****     lv_menu_t * menu = (lv_menu_t *)obj;
 453:..\..\..\arduinoLCD\test\Pain Drain\libraries\lvgl\src\extra\widgets\menu/lv_menu.c ****     lv_ll_t * history_ll = &(menu->history_ll);
 454:..\..\..\arduinoLCD\test\Pain Drain\libraries\lvgl\src\extra\widgets\menu/lv_menu.c **** 
 455:..\..\..\arduinoLCD\test\Pain Drain\libraries\lvgl\src\extra\widgets\menu/lv_menu.c ****     _lv_ll_clear(history_ll);
 456:..\..\..\arduinoLCD\test\Pain Drain\libraries\lvgl\src\extra\widgets\menu/lv_menu.c **** 
 457:..\..\..\arduinoLCD\test\Pain Drain\libraries\lvgl\src\extra\widgets\menu/lv_menu.c ****     menu->cur_depth = 0;
 458:..\..\..\arduinoLCD\test\Pain Drain\libraries\lvgl\src\extra\widgets\menu/lv_menu.c **** }
 459:..\..\..\arduinoLCD\test\Pain Drain\libraries\lvgl\src\extra\widgets\menu/lv_menu.c **** 
 460:..\..\..\arduinoLCD\test\Pain Drain\libraries\lvgl\src\extra\widgets\menu/lv_menu.c **** /**********************
 461:..\..\..\arduinoLCD\test\Pain Drain\libraries\lvgl\src\extra\widgets\menu/lv_menu.c ****  *   STATIC FUNCTIONS
 462:..\..\..\arduinoLCD\test\Pain Drain\libraries\lvgl\src\extra\widgets\menu/lv_menu.c ****  **********************/
 463:..\..\..\arduinoLCD\test\Pain Drain\libraries\lvgl\src\extra\widgets\menu/lv_menu.c **** 
 464:..\..\..\arduinoLCD\test\Pain Drain\libraries\lvgl\src\extra\widgets\menu/lv_menu.c **** static void lv_menu_constructor(const lv_obj_class_t * class_p, lv_obj_t * obj)
 465:..\..\..\arduinoLCD\test\Pain Drain\libraries\lvgl\src\extra\widgets\menu/lv_menu.c **** {
 466:..\..\..\arduinoLCD\test\Pain Drain\libraries\lvgl\src\extra\widgets\menu/lv_menu.c ****     LV_UNUSED(class_p);
 467:..\..\..\arduinoLCD\test\Pain Drain\libraries\lvgl\src\extra\widgets\menu/lv_menu.c ****     LV_TRACE_OBJ_CREATE("begin");
 468:..\..\..\arduinoLCD\test\Pain Drain\libraries\lvgl\src\extra\widgets\menu/lv_menu.c **** 
 469:..\..\..\arduinoLCD\test\Pain Drain\libraries\lvgl\src\extra\widgets\menu/lv_menu.c ****     lv_obj_set_layout(obj, LV_LAYOUT_FLEX);
 470:..\..\..\arduinoLCD\test\Pain Drain\libraries\lvgl\src\extra\widgets\menu/lv_menu.c ****     lv_obj_set_flex_flow(obj, LV_FLEX_FLOW_ROW);
 471:..\..\..\arduinoLCD\test\Pain Drain\libraries\lvgl\src\extra\widgets\menu/lv_menu.c **** 
 472:..\..\..\arduinoLCD\test\Pain Drain\libraries\lvgl\src\extra\widgets\menu/lv_menu.c ****     lv_menu_t * menu = (lv_menu_t *)obj;
 473:..\..\..\arduinoLCD\test\Pain Drain\libraries\lvgl\src\extra\widgets\menu/lv_menu.c **** 
 474:..\..\..\arduinoLCD\test\Pain Drain\libraries\lvgl\src\extra\widgets\menu/lv_menu.c ****     menu->mode_header = LV_MENU_HEADER_TOP_FIXED;
 475:..\..\..\arduinoLCD\test\Pain Drain\libraries\lvgl\src\extra\widgets\menu/lv_menu.c ****     menu->mode_root_back_btn = LV_MENU_ROOT_BACK_BTN_DISABLED;
 476:..\..\..\arduinoLCD\test\Pain Drain\libraries\lvgl\src\extra\widgets\menu/lv_menu.c ****     menu->cur_depth = 0;
 477:..\..\..\arduinoLCD\test\Pain Drain\libraries\lvgl\src\extra\widgets\menu/lv_menu.c ****     menu->prev_depth = 0;
 478:..\..\..\arduinoLCD\test\Pain Drain\libraries\lvgl\src\extra\widgets\menu/lv_menu.c ****     menu->sidebar_generated = false;
 479:..\..\..\arduinoLCD\test\Pain Drain\libraries\lvgl\src\extra\widgets\menu/lv_menu.c **** 
 480:..\..\..\arduinoLCD\test\Pain Drain\libraries\lvgl\src\extra\widgets\menu/lv_menu.c ****     _lv_ll_init(&(menu->history_ll), sizeof(lv_menu_history_t));
 481:..\..\..\arduinoLCD\test\Pain Drain\libraries\lvgl\src\extra\widgets\menu/lv_menu.c **** 
 482:..\..\..\arduinoLCD\test\Pain Drain\libraries\lvgl\src\extra\widgets\menu/lv_menu.c ****     menu->storage = lv_obj_create(obj);
 483:..\..\..\arduinoLCD\test\Pain Drain\libraries\lvgl\src\extra\widgets\menu/lv_menu.c ****     lv_obj_add_flag(menu->storage, LV_OBJ_FLAG_HIDDEN);
 484:..\..\..\arduinoLCD\test\Pain Drain\libraries\lvgl\src\extra\widgets\menu/lv_menu.c **** 
 485:..\..\..\arduinoLCD\test\Pain Drain\libraries\lvgl\src\extra\widgets\menu/lv_menu.c ****     menu->sidebar = NULL;
 486:..\..\..\arduinoLCD\test\Pain Drain\libraries\lvgl\src\extra\widgets\menu/lv_menu.c ****     menu->sidebar_header = NULL;
 487:..\..\..\arduinoLCD\test\Pain Drain\libraries\lvgl\src\extra\widgets\menu/lv_menu.c ****     menu->sidebar_header_back_btn = NULL;
ARM GAS  C:\Users\haske\AppData\Local\Temp\ccp0JrPn.s 			page 10


 488:..\..\..\arduinoLCD\test\Pain Drain\libraries\lvgl\src\extra\widgets\menu/lv_menu.c ****     menu->sidebar_header_title = NULL;
 489:..\..\..\arduinoLCD\test\Pain Drain\libraries\lvgl\src\extra\widgets\menu/lv_menu.c ****     menu->sidebar_page = NULL;
 490:..\..\..\arduinoLCD\test\Pain Drain\libraries\lvgl\src\extra\widgets\menu/lv_menu.c **** 
 491:..\..\..\arduinoLCD\test\Pain Drain\libraries\lvgl\src\extra\widgets\menu/lv_menu.c ****     lv_obj_t * main_cont = lv_obj_class_create_obj(&lv_menu_main_cont_class, obj);
 492:..\..\..\arduinoLCD\test\Pain Drain\libraries\lvgl\src\extra\widgets\menu/lv_menu.c ****     lv_obj_class_init_obj(main_cont);
 493:..\..\..\arduinoLCD\test\Pain Drain\libraries\lvgl\src\extra\widgets\menu/lv_menu.c ****     lv_obj_set_height(main_cont, LV_PCT(100));
 494:..\..\..\arduinoLCD\test\Pain Drain\libraries\lvgl\src\extra\widgets\menu/lv_menu.c ****     lv_obj_set_flex_grow(main_cont, 1);
 495:..\..\..\arduinoLCD\test\Pain Drain\libraries\lvgl\src\extra\widgets\menu/lv_menu.c ****     lv_obj_set_flex_flow(main_cont, LV_FLEX_FLOW_COLUMN);
 496:..\..\..\arduinoLCD\test\Pain Drain\libraries\lvgl\src\extra\widgets\menu/lv_menu.c ****     lv_obj_add_flag(main_cont, LV_OBJ_FLAG_EVENT_BUBBLE);
 497:..\..\..\arduinoLCD\test\Pain Drain\libraries\lvgl\src\extra\widgets\menu/lv_menu.c ****     lv_obj_clear_flag(main_cont, LV_OBJ_FLAG_CLICKABLE);
 498:..\..\..\arduinoLCD\test\Pain Drain\libraries\lvgl\src\extra\widgets\menu/lv_menu.c ****     menu->main = main_cont;
 499:..\..\..\arduinoLCD\test\Pain Drain\libraries\lvgl\src\extra\widgets\menu/lv_menu.c **** 
 500:..\..\..\arduinoLCD\test\Pain Drain\libraries\lvgl\src\extra\widgets\menu/lv_menu.c ****     lv_obj_t * main_header = lv_obj_class_create_obj(&lv_menu_main_header_cont_class, main_cont);
 501:..\..\..\arduinoLCD\test\Pain Drain\libraries\lvgl\src\extra\widgets\menu/lv_menu.c ****     lv_obj_class_init_obj(main_header);
 502:..\..\..\arduinoLCD\test\Pain Drain\libraries\lvgl\src\extra\widgets\menu/lv_menu.c ****     lv_obj_set_size(main_header, LV_PCT(100), LV_SIZE_CONTENT);
 503:..\..\..\arduinoLCD\test\Pain Drain\libraries\lvgl\src\extra\widgets\menu/lv_menu.c ****     lv_obj_set_flex_flow(main_header, LV_FLEX_FLOW_ROW);
 504:..\..\..\arduinoLCD\test\Pain Drain\libraries\lvgl\src\extra\widgets\menu/lv_menu.c ****     lv_obj_set_flex_align(main_header, LV_FLEX_ALIGN_START, LV_FLEX_ALIGN_CENTER, LV_FLEX_ALIGN_CEN
 505:..\..\..\arduinoLCD\test\Pain Drain\libraries\lvgl\src\extra\widgets\menu/lv_menu.c ****     lv_obj_clear_flag(main_header, LV_OBJ_FLAG_CLICKABLE);
 506:..\..\..\arduinoLCD\test\Pain Drain\libraries\lvgl\src\extra\widgets\menu/lv_menu.c ****     lv_obj_add_flag(main_header, LV_OBJ_FLAG_EVENT_BUBBLE);
 507:..\..\..\arduinoLCD\test\Pain Drain\libraries\lvgl\src\extra\widgets\menu/lv_menu.c ****     menu->main_header = main_header;
 508:..\..\..\arduinoLCD\test\Pain Drain\libraries\lvgl\src\extra\widgets\menu/lv_menu.c **** 
 509:..\..\..\arduinoLCD\test\Pain Drain\libraries\lvgl\src\extra\widgets\menu/lv_menu.c ****     /* Create the default simple back btn and title */
 510:..\..\..\arduinoLCD\test\Pain Drain\libraries\lvgl\src\extra\widgets\menu/lv_menu.c ****     lv_obj_t * main_header_back_btn = lv_btn_create(menu->main_header);
 511:..\..\..\arduinoLCD\test\Pain Drain\libraries\lvgl\src\extra\widgets\menu/lv_menu.c ****     lv_obj_add_event_cb(main_header_back_btn, lv_menu_back_event_cb, LV_EVENT_CLICKED, menu);
 512:..\..\..\arduinoLCD\test\Pain Drain\libraries\lvgl\src\extra\widgets\menu/lv_menu.c ****     lv_obj_add_flag(main_header_back_btn, LV_OBJ_FLAG_EVENT_BUBBLE);
 513:..\..\..\arduinoLCD\test\Pain Drain\libraries\lvgl\src\extra\widgets\menu/lv_menu.c ****     lv_obj_set_flex_flow(main_header_back_btn, LV_FLEX_FLOW_ROW);
 514:..\..\..\arduinoLCD\test\Pain Drain\libraries\lvgl\src\extra\widgets\menu/lv_menu.c ****     menu->main_header_back_btn = main_header_back_btn;
 515:..\..\..\arduinoLCD\test\Pain Drain\libraries\lvgl\src\extra\widgets\menu/lv_menu.c **** 
 516:..\..\..\arduinoLCD\test\Pain Drain\libraries\lvgl\src\extra\widgets\menu/lv_menu.c ****     lv_obj_t * main_header_back_icon = lv_img_create(menu->main_header_back_btn);
 517:..\..\..\arduinoLCD\test\Pain Drain\libraries\lvgl\src\extra\widgets\menu/lv_menu.c ****     lv_img_set_src(main_header_back_icon, LV_SYMBOL_LEFT);
 518:..\..\..\arduinoLCD\test\Pain Drain\libraries\lvgl\src\extra\widgets\menu/lv_menu.c **** 
 519:..\..\..\arduinoLCD\test\Pain Drain\libraries\lvgl\src\extra\widgets\menu/lv_menu.c ****     lv_obj_t * main_header_title = lv_label_create(menu->main_header);
 520:..\..\..\arduinoLCD\test\Pain Drain\libraries\lvgl\src\extra\widgets\menu/lv_menu.c ****     lv_obj_add_flag(main_header_title, LV_OBJ_FLAG_HIDDEN);
 521:..\..\..\arduinoLCD\test\Pain Drain\libraries\lvgl\src\extra\widgets\menu/lv_menu.c ****     menu->main_header_title = main_header_title;
 522:..\..\..\arduinoLCD\test\Pain Drain\libraries\lvgl\src\extra\widgets\menu/lv_menu.c **** 
 523:..\..\..\arduinoLCD\test\Pain Drain\libraries\lvgl\src\extra\widgets\menu/lv_menu.c ****     menu->main_page = NULL;
 524:..\..\..\arduinoLCD\test\Pain Drain\libraries\lvgl\src\extra\widgets\menu/lv_menu.c ****     menu->selected_tab = NULL;
 525:..\..\..\arduinoLCD\test\Pain Drain\libraries\lvgl\src\extra\widgets\menu/lv_menu.c **** 
 526:..\..\..\arduinoLCD\test\Pain Drain\libraries\lvgl\src\extra\widgets\menu/lv_menu.c ****     lv_obj_add_event_cb(obj, lv_menu_value_changed_event_cb, LV_EVENT_VALUE_CHANGED, menu);
 527:..\..\..\arduinoLCD\test\Pain Drain\libraries\lvgl\src\extra\widgets\menu/lv_menu.c **** 
 528:..\..\..\arduinoLCD\test\Pain Drain\libraries\lvgl\src\extra\widgets\menu/lv_menu.c ****     LV_TRACE_OBJ_CREATE("finished");
 529:..\..\..\arduinoLCD\test\Pain Drain\libraries\lvgl\src\extra\widgets\menu/lv_menu.c **** }
 530:..\..\..\arduinoLCD\test\Pain Drain\libraries\lvgl\src\extra\widgets\menu/lv_menu.c **** 
 531:..\..\..\arduinoLCD\test\Pain Drain\libraries\lvgl\src\extra\widgets\menu/lv_menu.c **** static void lv_menu_destructor(const lv_obj_class_t * class_p, lv_obj_t * obj)
 532:..\..\..\arduinoLCD\test\Pain Drain\libraries\lvgl\src\extra\widgets\menu/lv_menu.c **** {
  27              		.loc 1 532 0
  28              		.cfi_startproc
  29              		@ args = 0, pretend = 0, frame = 0
  30              		@ frame_needed = 0, uses_anonymous_args = 0
  31              	.LVL0:
  32 0000 10B5     		push	{r4, lr}
  33              		.cfi_def_cfa_offset 8
  34              		.cfi_offset 4, -8
  35              		.cfi_offset 14, -4
  36              	.LVL1:
 533:..\..\..\arduinoLCD\test\Pain Drain\libraries\lvgl\src\extra\widgets\menu/lv_menu.c ****     LV_UNUSED(class_p);
 534:..\..\..\arduinoLCD\test\Pain Drain\libraries\lvgl\src\extra\widgets\menu/lv_menu.c ****     LV_TRACE_OBJ_CREATE("begin");
ARM GAS  C:\Users\haske\AppData\Local\Temp\ccp0JrPn.s 			page 11


 535:..\..\..\arduinoLCD\test\Pain Drain\libraries\lvgl\src\extra\widgets\menu/lv_menu.c **** 
 536:..\..\..\arduinoLCD\test\Pain Drain\libraries\lvgl\src\extra\widgets\menu/lv_menu.c ****     lv_menu_t * menu = (lv_menu_t *)obj;
 537:..\..\..\arduinoLCD\test\Pain Drain\libraries\lvgl\src\extra\widgets\menu/lv_menu.c ****     lv_ll_t * history_ll = &(menu->history_ll);
  37              		.loc 1 537 0
  38 0002 5431     		adds	r1, r1, #84
  39              	.LVL2:
  40 0004 0800     		movs	r0, r1
  41              	.LVL3:
 538:..\..\..\arduinoLCD\test\Pain Drain\libraries\lvgl\src\extra\widgets\menu/lv_menu.c **** 
 539:..\..\..\arduinoLCD\test\Pain Drain\libraries\lvgl\src\extra\widgets\menu/lv_menu.c ****     _lv_ll_clear(history_ll);
  42              		.loc 1 539 0
  43 0006 FFF7FEFF 		bl	_lv_ll_clear
  44              	.LVL4:
 540:..\..\..\arduinoLCD\test\Pain Drain\libraries\lvgl\src\extra\widgets\menu/lv_menu.c **** 
 541:..\..\..\arduinoLCD\test\Pain Drain\libraries\lvgl\src\extra\widgets\menu/lv_menu.c ****     LV_TRACE_OBJ_CREATE("finished");
 542:..\..\..\arduinoLCD\test\Pain Drain\libraries\lvgl\src\extra\widgets\menu/lv_menu.c **** }
  45              		.loc 1 542 0
  46              		@ sp needed
  47 000a 10BD     		pop	{r4, pc}
  48              		.cfi_endproc
  49              	.LFE184:
  50              		.size	lv_menu_destructor, .-lv_menu_destructor
  51              		.section	.text.lv_menu_section_constructor,"ax",%progbits
  52              		.align	2
  53              		.code	16
  54              		.thumb_func
  55              		.type	lv_menu_section_constructor, %function
  56              	lv_menu_section_constructor:
  57              	.LFB188:
 543:..\..\..\arduinoLCD\test\Pain Drain\libraries\lvgl\src\extra\widgets\menu/lv_menu.c **** 
 544:..\..\..\arduinoLCD\test\Pain Drain\libraries\lvgl\src\extra\widgets\menu/lv_menu.c **** static void lv_menu_page_constructor(const lv_obj_class_t * class_p, lv_obj_t * obj)
 545:..\..\..\arduinoLCD\test\Pain Drain\libraries\lvgl\src\extra\widgets\menu/lv_menu.c **** {
 546:..\..\..\arduinoLCD\test\Pain Drain\libraries\lvgl\src\extra\widgets\menu/lv_menu.c ****     LV_UNUSED(class_p);
 547:..\..\..\arduinoLCD\test\Pain Drain\libraries\lvgl\src\extra\widgets\menu/lv_menu.c **** 
 548:..\..\..\arduinoLCD\test\Pain Drain\libraries\lvgl\src\extra\widgets\menu/lv_menu.c ****     lv_menu_t * menu = (lv_menu_t *)lv_obj_get_parent(obj);
 549:..\..\..\arduinoLCD\test\Pain Drain\libraries\lvgl\src\extra\widgets\menu/lv_menu.c **** 
 550:..\..\..\arduinoLCD\test\Pain Drain\libraries\lvgl\src\extra\widgets\menu/lv_menu.c ****     lv_obj_set_parent(obj, ((lv_menu_t *)menu)->storage);
 551:..\..\..\arduinoLCD\test\Pain Drain\libraries\lvgl\src\extra\widgets\menu/lv_menu.c ****     lv_obj_set_flex_flow(obj, LV_FLEX_FLOW_COLUMN);
 552:..\..\..\arduinoLCD\test\Pain Drain\libraries\lvgl\src\extra\widgets\menu/lv_menu.c ****     lv_obj_set_flex_align(obj, LV_FLEX_ALIGN_START, LV_FLEX_ALIGN_CENTER, LV_FLEX_ALIGN_CENTER);
 553:..\..\..\arduinoLCD\test\Pain Drain\libraries\lvgl\src\extra\widgets\menu/lv_menu.c ****     lv_obj_add_flag(obj, LV_OBJ_FLAG_EVENT_BUBBLE);
 554:..\..\..\arduinoLCD\test\Pain Drain\libraries\lvgl\src\extra\widgets\menu/lv_menu.c **** }
 555:..\..\..\arduinoLCD\test\Pain Drain\libraries\lvgl\src\extra\widgets\menu/lv_menu.c **** 
 556:..\..\..\arduinoLCD\test\Pain Drain\libraries\lvgl\src\extra\widgets\menu/lv_menu.c **** static void lv_menu_page_destructor(const lv_obj_class_t * class_p, lv_obj_t * obj)
 557:..\..\..\arduinoLCD\test\Pain Drain\libraries\lvgl\src\extra\widgets\menu/lv_menu.c **** {
 558:..\..\..\arduinoLCD\test\Pain Drain\libraries\lvgl\src\extra\widgets\menu/lv_menu.c ****     LV_UNUSED(class_p);
 559:..\..\..\arduinoLCD\test\Pain Drain\libraries\lvgl\src\extra\widgets\menu/lv_menu.c **** 
 560:..\..\..\arduinoLCD\test\Pain Drain\libraries\lvgl\src\extra\widgets\menu/lv_menu.c ****     lv_menu_page_t * page = (lv_menu_page_t *)obj;
 561:..\..\..\arduinoLCD\test\Pain Drain\libraries\lvgl\src\extra\widgets\menu/lv_menu.c **** 
 562:..\..\..\arduinoLCD\test\Pain Drain\libraries\lvgl\src\extra\widgets\menu/lv_menu.c ****     if(page->title != NULL) {
 563:..\..\..\arduinoLCD\test\Pain Drain\libraries\lvgl\src\extra\widgets\menu/lv_menu.c ****         lv_mem_free(page->title);
 564:..\..\..\arduinoLCD\test\Pain Drain\libraries\lvgl\src\extra\widgets\menu/lv_menu.c ****         page->title = NULL;
 565:..\..\..\arduinoLCD\test\Pain Drain\libraries\lvgl\src\extra\widgets\menu/lv_menu.c ****     }
 566:..\..\..\arduinoLCD\test\Pain Drain\libraries\lvgl\src\extra\widgets\menu/lv_menu.c **** }
 567:..\..\..\arduinoLCD\test\Pain Drain\libraries\lvgl\src\extra\widgets\menu/lv_menu.c **** 
 568:..\..\..\arduinoLCD\test\Pain Drain\libraries\lvgl\src\extra\widgets\menu/lv_menu.c **** static void lv_menu_cont_constructor(const lv_obj_class_t * class_p, lv_obj_t * obj)
 569:..\..\..\arduinoLCD\test\Pain Drain\libraries\lvgl\src\extra\widgets\menu/lv_menu.c **** {
 570:..\..\..\arduinoLCD\test\Pain Drain\libraries\lvgl\src\extra\widgets\menu/lv_menu.c ****     LV_UNUSED(class_p);
ARM GAS  C:\Users\haske\AppData\Local\Temp\ccp0JrPn.s 			page 12


 571:..\..\..\arduinoLCD\test\Pain Drain\libraries\lvgl\src\extra\widgets\menu/lv_menu.c ****     lv_obj_set_flex_flow(obj, LV_FLEX_FLOW_ROW);
 572:..\..\..\arduinoLCD\test\Pain Drain\libraries\lvgl\src\extra\widgets\menu/lv_menu.c ****     lv_obj_set_flex_align(obj, LV_FLEX_ALIGN_START, LV_FLEX_ALIGN_CENTER, LV_FLEX_ALIGN_CENTER);
 573:..\..\..\arduinoLCD\test\Pain Drain\libraries\lvgl\src\extra\widgets\menu/lv_menu.c ****     lv_obj_clear_flag(obj, LV_OBJ_FLAG_CLICKABLE);
 574:..\..\..\arduinoLCD\test\Pain Drain\libraries\lvgl\src\extra\widgets\menu/lv_menu.c **** }
 575:..\..\..\arduinoLCD\test\Pain Drain\libraries\lvgl\src\extra\widgets\menu/lv_menu.c **** 
 576:..\..\..\arduinoLCD\test\Pain Drain\libraries\lvgl\src\extra\widgets\menu/lv_menu.c **** static void lv_menu_section_constructor(const lv_obj_class_t * class_p, lv_obj_t * obj)
 577:..\..\..\arduinoLCD\test\Pain Drain\libraries\lvgl\src\extra\widgets\menu/lv_menu.c **** {
  58              		.loc 1 577 0
  59              		.cfi_startproc
  60              		@ args = 0, pretend = 0, frame = 0
  61              		@ frame_needed = 0, uses_anonymous_args = 0
  62              	.LVL5:
  63 0000 10B5     		push	{r4, lr}
  64              		.cfi_def_cfa_offset 8
  65              		.cfi_offset 4, -8
  66              		.cfi_offset 14, -4
  67 0002 0C00     		movs	r4, r1
 578:..\..\..\arduinoLCD\test\Pain Drain\libraries\lvgl\src\extra\widgets\menu/lv_menu.c ****     LV_UNUSED(class_p);
 579:..\..\..\arduinoLCD\test\Pain Drain\libraries\lvgl\src\extra\widgets\menu/lv_menu.c ****     lv_obj_set_flex_flow(obj, LV_FLEX_FLOW_COLUMN);
  68              		.loc 1 579 0
  69 0004 0121     		movs	r1, #1
  70              	.LVL6:
  71 0006 2000     		movs	r0, r4
  72              	.LVL7:
  73 0008 FFF7FEFF 		bl	lv_obj_set_flex_flow
  74              	.LVL8:
 580:..\..\..\arduinoLCD\test\Pain Drain\libraries\lvgl\src\extra\widgets\menu/lv_menu.c ****     lv_obj_clear_flag(obj, LV_OBJ_FLAG_CLICKABLE);
  75              		.loc 1 580 0
  76 000c 0221     		movs	r1, #2
  77 000e 2000     		movs	r0, r4
  78 0010 FFF7FEFF 		bl	lv_obj_clear_flag
  79              	.LVL9:
 581:..\..\..\arduinoLCD\test\Pain Drain\libraries\lvgl\src\extra\widgets\menu/lv_menu.c **** }
  80              		.loc 1 581 0
  81              		@ sp needed
  82              	.LVL10:
  83 0014 10BD     		pop	{r4, pc}
  84              		.cfi_endproc
  85              	.LFE188:
  86              		.size	lv_menu_section_constructor, .-lv_menu_section_constructor
  87 0016 C046     		.section	.text.lv_menu_cont_constructor,"ax",%progbits
  88              		.align	2
  89              		.code	16
  90              		.thumb_func
  91              		.type	lv_menu_cont_constructor, %function
  92              	lv_menu_cont_constructor:
  93              	.LFB187:
 569:..\..\..\arduinoLCD\test\Pain Drain\libraries\lvgl\src\extra\widgets\menu/lv_menu.c ****     LV_UNUSED(class_p);
  94              		.loc 1 569 0
  95              		.cfi_startproc
  96              		@ args = 0, pretend = 0, frame = 0
  97              		@ frame_needed = 0, uses_anonymous_args = 0
  98              	.LVL11:
  99 0000 10B5     		push	{r4, lr}
 100              		.cfi_def_cfa_offset 8
 101              		.cfi_offset 4, -8
 102              		.cfi_offset 14, -4
ARM GAS  C:\Users\haske\AppData\Local\Temp\ccp0JrPn.s 			page 13


 103 0002 0C00     		movs	r4, r1
 571:..\..\..\arduinoLCD\test\Pain Drain\libraries\lvgl\src\extra\widgets\menu/lv_menu.c ****     lv_obj_set_flex_align(obj, LV_FLEX_ALIGN_START, LV_FLEX_ALIGN_CENTER, LV_FLEX_ALIGN_CENTER);
 104              		.loc 1 571 0
 105 0004 0021     		movs	r1, #0
 106              	.LVL12:
 107 0006 2000     		movs	r0, r4
 108              	.LVL13:
 109 0008 FFF7FEFF 		bl	lv_obj_set_flex_flow
 110              	.LVL14:
 572:..\..\..\arduinoLCD\test\Pain Drain\libraries\lvgl\src\extra\widgets\menu/lv_menu.c ****     lv_obj_clear_flag(obj, LV_OBJ_FLAG_CLICKABLE);
 111              		.loc 1 572 0
 112 000c 0223     		movs	r3, #2
 113 000e 0222     		movs	r2, #2
 114 0010 0021     		movs	r1, #0
 115 0012 2000     		movs	r0, r4
 116 0014 FFF7FEFF 		bl	lv_obj_set_flex_align
 117              	.LVL15:
 573:..\..\..\arduinoLCD\test\Pain Drain\libraries\lvgl\src\extra\widgets\menu/lv_menu.c **** }
 118              		.loc 1 573 0
 119 0018 0221     		movs	r1, #2
 120 001a 2000     		movs	r0, r4
 121 001c FFF7FEFF 		bl	lv_obj_clear_flag
 122              	.LVL16:
 574:..\..\..\arduinoLCD\test\Pain Drain\libraries\lvgl\src\extra\widgets\menu/lv_menu.c **** 
 123              		.loc 1 574 0
 124              		@ sp needed
 125              	.LVL17:
 126 0020 10BD     		pop	{r4, pc}
 127              		.cfi_endproc
 128              	.LFE187:
 129              		.size	lv_menu_cont_constructor, .-lv_menu_cont_constructor
 130 0022 C046     		.section	.text.lv_menu_constructor,"ax",%progbits
 131              		.align	2
 132              		.code	16
 133              		.thumb_func
 134              		.type	lv_menu_constructor, %function
 135              	lv_menu_constructor:
 136              	.LFB183:
 465:..\..\..\arduinoLCD\test\Pain Drain\libraries\lvgl\src\extra\widgets\menu/lv_menu.c ****     LV_UNUSED(class_p);
 137              		.loc 1 465 0
 138              		.cfi_startproc
 139              		@ args = 0, pretend = 0, frame = 0
 140              		@ frame_needed = 0, uses_anonymous_args = 0
 141              	.LVL18:
 142 0000 F8B5     		push	{r3, r4, r5, r6, r7, lr}
 143              		.cfi_def_cfa_offset 24
 144              		.cfi_offset 3, -24
 145              		.cfi_offset 4, -20
 146              		.cfi_offset 5, -16
 147              		.cfi_offset 6, -12
 148              		.cfi_offset 7, -8
 149              		.cfi_offset 14, -4
 150 0002 0C00     		movs	r4, r1
 469:..\..\..\arduinoLCD\test\Pain Drain\libraries\lvgl\src\extra\widgets\menu/lv_menu.c ****     lv_obj_set_flex_flow(obj, LV_FLEX_FLOW_ROW);
 151              		.loc 1 469 0
 152 0004 484B     		ldr	r3, .L5
 153 0006 1988     		ldrh	r1, [r3]
ARM GAS  C:\Users\haske\AppData\Local\Temp\ccp0JrPn.s 			page 14


 154              	.LVL19:
 155 0008 2000     		movs	r0, r4
 156              	.LVL20:
 157 000a FFF7FEFF 		bl	lv_obj_set_layout
 158              	.LVL21:
 470:..\..\..\arduinoLCD\test\Pain Drain\libraries\lvgl\src\extra\widgets\menu/lv_menu.c **** 
 159              		.loc 1 470 0
 160 000e 0021     		movs	r1, #0
 161 0010 2000     		movs	r0, r4
 162 0012 FFF7FEFF 		bl	lv_obj_set_flex_flow
 163              	.LVL22:
 474:..\..\..\arduinoLCD\test\Pain Drain\libraries\lvgl\src\extra\widgets\menu/lv_menu.c ****     menu->mode_root_back_btn = LV_MENU_ROOT_BACK_BTN_DISABLED;
 164              		.loc 1 474 0
 165 0016 6222     		movs	r2, #98
 166 0018 A35C     		ldrb	r3, [r4, r2]
 475:..\..\..\arduinoLCD\test\Pain Drain\libraries\lvgl\src\extra\widgets\menu/lv_menu.c ****     menu->cur_depth = 0;
 167              		.loc 1 475 0
 168 001a 0621     		movs	r1, #6
 169 001c 8B43     		bics	r3, r1
 476:..\..\..\arduinoLCD\test\Pain Drain\libraries\lvgl\src\extra\widgets\menu/lv_menu.c ****     menu->prev_depth = 0;
 170              		.loc 1 476 0
 171 001e 0027     		movs	r7, #0
 172 0020 5A31     		adds	r1, r1, #90
 173 0022 6754     		strb	r7, [r4, r1]
 477:..\..\..\arduinoLCD\test\Pain Drain\libraries\lvgl\src\extra\widgets\menu/lv_menu.c ****     menu->sidebar_generated = false;
 174              		.loc 1 477 0
 175 0024 0131     		adds	r1, r1, #1
 176 0026 6754     		strb	r7, [r4, r1]
 478:..\..\..\arduinoLCD\test\Pain Drain\libraries\lvgl\src\extra\widgets\menu/lv_menu.c **** 
 177              		.loc 1 478 0
 178 0028 5939     		subs	r1, r1, #89
 179 002a 8B43     		bics	r3, r1
 180 002c 0739     		subs	r1, r1, #7
 181 002e 8B43     		bics	r3, r1
 182 0030 A354     		strb	r3, [r4, r2]
 480:..\..\..\arduinoLCD\test\Pain Drain\libraries\lvgl\src\extra\widgets\menu/lv_menu.c **** 
 183              		.loc 1 480 0
 184 0032 2000     		movs	r0, r4
 185 0034 5430     		adds	r0, r0, #84
 186 0036 0331     		adds	r1, r1, #3
 187 0038 FFF7FEFF 		bl	_lv_ll_init
 188              	.LVL23:
 482:..\..\..\arduinoLCD\test\Pain Drain\libraries\lvgl\src\extra\widgets\menu/lv_menu.c ****     lv_obj_add_flag(menu->storage, LV_OBJ_FLAG_HIDDEN);
 189              		.loc 1 482 0
 190 003c 2000     		movs	r0, r4
 191 003e FFF7FEFF 		bl	lv_obj_create
 192              	.LVL24:
 193 0042 6062     		str	r0, [r4, #36]
 483:..\..\..\arduinoLCD\test\Pain Drain\libraries\lvgl\src\extra\widgets\menu/lv_menu.c **** 
 194              		.loc 1 483 0
 195 0044 0121     		movs	r1, #1
 196 0046 FFF7FEFF 		bl	lv_obj_add_flag
 197              	.LVL25:
 485:..\..\..\arduinoLCD\test\Pain Drain\libraries\lvgl\src\extra\widgets\menu/lv_menu.c ****     menu->sidebar_header = NULL;
 198              		.loc 1 485 0
 199 004a E763     		str	r7, [r4, #60]
 486:..\..\..\arduinoLCD\test\Pain Drain\libraries\lvgl\src\extra\widgets\menu/lv_menu.c ****     menu->sidebar_header_back_btn = NULL;
ARM GAS  C:\Users\haske\AppData\Local\Temp\ccp0JrPn.s 			page 15


 200              		.loc 1 486 0
 201 004c 6764     		str	r7, [r4, #68]
 487:..\..\..\arduinoLCD\test\Pain Drain\libraries\lvgl\src\extra\widgets\menu/lv_menu.c ****     menu->sidebar_header_title = NULL;
 202              		.loc 1 487 0
 203 004e A764     		str	r7, [r4, #72]
 488:..\..\..\arduinoLCD\test\Pain Drain\libraries\lvgl\src\extra\widgets\menu/lv_menu.c ****     menu->sidebar_page = NULL;
 204              		.loc 1 488 0
 205 0050 E764     		str	r7, [r4, #76]
 489:..\..\..\arduinoLCD\test\Pain Drain\libraries\lvgl\src\extra\widgets\menu/lv_menu.c **** 
 206              		.loc 1 489 0
 207 0052 2764     		str	r7, [r4, #64]
 491:..\..\..\arduinoLCD\test\Pain Drain\libraries\lvgl\src\extra\widgets\menu/lv_menu.c ****     lv_obj_class_init_obj(main_cont);
 208              		.loc 1 491 0
 209 0054 354E     		ldr	r6, .L5+4
 210 0056 2100     		movs	r1, r4
 211 0058 3000     		movs	r0, r6
 212 005a FFF7FEFF 		bl	lv_obj_class_create_obj
 213              	.LVL26:
 214 005e 0500     		movs	r5, r0
 215              	.LVL27:
 492:..\..\..\arduinoLCD\test\Pain Drain\libraries\lvgl\src\extra\widgets\menu/lv_menu.c ****     lv_obj_set_height(main_cont, LV_PCT(100));
 216              		.loc 1 492 0
 217 0060 FFF7FEFF 		bl	lv_obj_class_init_obj
 218              	.LVL28:
 493:..\..\..\arduinoLCD\test\Pain Drain\libraries\lvgl\src\extra\widgets\menu/lv_menu.c ****     lv_obj_set_flex_grow(main_cont, 1);
 219              		.loc 1 493 0
 220 0064 3249     		ldr	r1, .L5+8
 221 0066 2800     		movs	r0, r5
 222 0068 FFF7FEFF 		bl	lv_obj_set_height
 223              	.LVL29:
 494:..\..\..\arduinoLCD\test\Pain Drain\libraries\lvgl\src\extra\widgets\menu/lv_menu.c ****     lv_obj_set_flex_flow(main_cont, LV_FLEX_FLOW_COLUMN);
 224              		.loc 1 494 0
 225 006c 0121     		movs	r1, #1
 226 006e 2800     		movs	r0, r5
 227 0070 FFF7FEFF 		bl	lv_obj_set_flex_grow
 228              	.LVL30:
 495:..\..\..\arduinoLCD\test\Pain Drain\libraries\lvgl\src\extra\widgets\menu/lv_menu.c ****     lv_obj_add_flag(main_cont, LV_OBJ_FLAG_EVENT_BUBBLE);
 229              		.loc 1 495 0
 230 0074 0121     		movs	r1, #1
 231 0076 2800     		movs	r0, r5
 232 0078 FFF7FEFF 		bl	lv_obj_set_flex_flow
 233              	.LVL31:
 496:..\..\..\arduinoLCD\test\Pain Drain\libraries\lvgl\src\extra\widgets\menu/lv_menu.c ****     lv_obj_clear_flag(main_cont, LV_OBJ_FLAG_CLICKABLE);
 234              		.loc 1 496 0
 235 007c 8021     		movs	r1, #128
 236 007e C901     		lsls	r1, r1, #7
 237 0080 2800     		movs	r0, r5
 238 0082 FFF7FEFF 		bl	lv_obj_add_flag
 239              	.LVL32:
 497:..\..\..\arduinoLCD\test\Pain Drain\libraries\lvgl\src\extra\widgets\menu/lv_menu.c ****     menu->main = main_cont;
 240              		.loc 1 497 0
 241 0086 0221     		movs	r1, #2
 242 0088 2800     		movs	r0, r5
 243 008a FFF7FEFF 		bl	lv_obj_clear_flag
 244              	.LVL33:
 498:..\..\..\arduinoLCD\test\Pain Drain\libraries\lvgl\src\extra\widgets\menu/lv_menu.c **** 
 245              		.loc 1 498 0
ARM GAS  C:\Users\haske\AppData\Local\Temp\ccp0JrPn.s 			page 16


 246 008e A562     		str	r5, [r4, #40]
 500:..\..\..\arduinoLCD\test\Pain Drain\libraries\lvgl\src\extra\widgets\menu/lv_menu.c ****     lv_obj_class_init_obj(main_header);
 247              		.loc 1 500 0
 248 0090 3000     		movs	r0, r6
 249 0092 1C30     		adds	r0, r0, #28
 250 0094 2900     		movs	r1, r5
 251 0096 FFF7FEFF 		bl	lv_obj_class_create_obj
 252              	.LVL34:
 253 009a 0500     		movs	r5, r0
 254              	.LVL35:
 501:..\..\..\arduinoLCD\test\Pain Drain\libraries\lvgl\src\extra\widgets\menu/lv_menu.c ****     lv_obj_set_size(main_header, LV_PCT(100), LV_SIZE_CONTENT);
 255              		.loc 1 501 0
 256 009c FFF7FEFF 		bl	lv_obj_class_init_obj
 257              	.LVL36:
 502:..\..\..\arduinoLCD\test\Pain Drain\libraries\lvgl\src\extra\widgets\menu/lv_menu.c ****     lv_obj_set_flex_flow(main_header, LV_FLEX_FLOW_ROW);
 258              		.loc 1 502 0
 259 00a0 244A     		ldr	r2, .L5+12
 260 00a2 2349     		ldr	r1, .L5+8
 261 00a4 2800     		movs	r0, r5
 262 00a6 FFF7FEFF 		bl	lv_obj_set_size
 263              	.LVL37:
 503:..\..\..\arduinoLCD\test\Pain Drain\libraries\lvgl\src\extra\widgets\menu/lv_menu.c ****     lv_obj_set_flex_align(main_header, LV_FLEX_ALIGN_START, LV_FLEX_ALIGN_CENTER, LV_FLEX_ALIGN_CEN
 264              		.loc 1 503 0
 265 00aa 0021     		movs	r1, #0
 266 00ac 2800     		movs	r0, r5
 267 00ae FFF7FEFF 		bl	lv_obj_set_flex_flow
 268              	.LVL38:
 504:..\..\..\arduinoLCD\test\Pain Drain\libraries\lvgl\src\extra\widgets\menu/lv_menu.c ****     lv_obj_clear_flag(main_header, LV_OBJ_FLAG_CLICKABLE);
 269              		.loc 1 504 0
 270 00b2 0223     		movs	r3, #2
 271 00b4 0222     		movs	r2, #2
 272 00b6 0021     		movs	r1, #0
 273 00b8 2800     		movs	r0, r5
 274 00ba FFF7FEFF 		bl	lv_obj_set_flex_align
 275              	.LVL39:
 505:..\..\..\arduinoLCD\test\Pain Drain\libraries\lvgl\src\extra\widgets\menu/lv_menu.c ****     lv_obj_add_flag(main_header, LV_OBJ_FLAG_EVENT_BUBBLE);
 276              		.loc 1 505 0
 277 00be 0221     		movs	r1, #2
 278 00c0 2800     		movs	r0, r5
 279 00c2 FFF7FEFF 		bl	lv_obj_clear_flag
 280              	.LVL40:
 506:..\..\..\arduinoLCD\test\Pain Drain\libraries\lvgl\src\extra\widgets\menu/lv_menu.c ****     menu->main_header = main_header;
 281              		.loc 1 506 0
 282 00c6 8021     		movs	r1, #128
 283 00c8 C901     		lsls	r1, r1, #7
 284 00ca 2800     		movs	r0, r5
 285 00cc FFF7FEFF 		bl	lv_obj_add_flag
 286              	.LVL41:
 507:..\..\..\arduinoLCD\test\Pain Drain\libraries\lvgl\src\extra\widgets\menu/lv_menu.c **** 
 287              		.loc 1 507 0
 288 00d0 2563     		str	r5, [r4, #48]
 510:..\..\..\arduinoLCD\test\Pain Drain\libraries\lvgl\src\extra\widgets\menu/lv_menu.c ****     lv_obj_add_event_cb(main_header_back_btn, lv_menu_back_event_cb, LV_EVENT_CLICKED, menu);
 289              		.loc 1 510 0
 290 00d2 2800     		movs	r0, r5
 291 00d4 FFF7FEFF 		bl	lv_btn_create
 292              	.LVL42:
 293 00d8 0500     		movs	r5, r0
ARM GAS  C:\Users\haske\AppData\Local\Temp\ccp0JrPn.s 			page 17


 294              	.LVL43:
 511:..\..\..\arduinoLCD\test\Pain Drain\libraries\lvgl\src\extra\widgets\menu/lv_menu.c ****     lv_obj_add_flag(main_header_back_btn, LV_OBJ_FLAG_EVENT_BUBBLE);
 295              		.loc 1 511 0
 296 00da 2300     		movs	r3, r4
 297 00dc 0722     		movs	r2, #7
 298 00de 1649     		ldr	r1, .L5+16
 299 00e0 FFF7FEFF 		bl	lv_obj_add_event_cb
 300              	.LVL44:
 512:..\..\..\arduinoLCD\test\Pain Drain\libraries\lvgl\src\extra\widgets\menu/lv_menu.c ****     lv_obj_set_flex_flow(main_header_back_btn, LV_FLEX_FLOW_ROW);
 301              		.loc 1 512 0
 302 00e4 8021     		movs	r1, #128
 303 00e6 C901     		lsls	r1, r1, #7
 304 00e8 2800     		movs	r0, r5
 305 00ea FFF7FEFF 		bl	lv_obj_add_flag
 306              	.LVL45:
 513:..\..\..\arduinoLCD\test\Pain Drain\libraries\lvgl\src\extra\widgets\menu/lv_menu.c ****     menu->main_header_back_btn = main_header_back_btn;
 307              		.loc 1 513 0
 308 00ee 0021     		movs	r1, #0
 309 00f0 2800     		movs	r0, r5
 310 00f2 FFF7FEFF 		bl	lv_obj_set_flex_flow
 311              	.LVL46:
 514:..\..\..\arduinoLCD\test\Pain Drain\libraries\lvgl\src\extra\widgets\menu/lv_menu.c **** 
 312              		.loc 1 514 0
 313 00f6 6563     		str	r5, [r4, #52]
 516:..\..\..\arduinoLCD\test\Pain Drain\libraries\lvgl\src\extra\widgets\menu/lv_menu.c ****     lv_img_set_src(main_header_back_icon, LV_SYMBOL_LEFT);
 314              		.loc 1 516 0
 315 00f8 2800     		movs	r0, r5
 316 00fa FFF7FEFF 		bl	lv_img_create
 317              	.LVL47:
 517:..\..\..\arduinoLCD\test\Pain Drain\libraries\lvgl\src\extra\widgets\menu/lv_menu.c **** 
 318              		.loc 1 517 0
 319 00fe 0F49     		ldr	r1, .L5+20
 320 0100 FFF7FEFF 		bl	lv_img_set_src
 321              	.LVL48:
 519:..\..\..\arduinoLCD\test\Pain Drain\libraries\lvgl\src\extra\widgets\menu/lv_menu.c ****     lv_obj_add_flag(main_header_title, LV_OBJ_FLAG_HIDDEN);
 322              		.loc 1 519 0
 323 0104 206B     		ldr	r0, [r4, #48]
 324 0106 FFF7FEFF 		bl	lv_label_create
 325              	.LVL49:
 326 010a 0500     		movs	r5, r0
 327              	.LVL50:
 520:..\..\..\arduinoLCD\test\Pain Drain\libraries\lvgl\src\extra\widgets\menu/lv_menu.c ****     menu->main_header_title = main_header_title;
 328              		.loc 1 520 0
 329 010c 0121     		movs	r1, #1
 330 010e FFF7FEFF 		bl	lv_obj_add_flag
 331              	.LVL51:
 521:..\..\..\arduinoLCD\test\Pain Drain\libraries\lvgl\src\extra\widgets\menu/lv_menu.c **** 
 332              		.loc 1 521 0
 333 0112 A563     		str	r5, [r4, #56]
 523:..\..\..\arduinoLCD\test\Pain Drain\libraries\lvgl\src\extra\widgets\menu/lv_menu.c ****     menu->selected_tab = NULL;
 334              		.loc 1 523 0
 335 0114 E762     		str	r7, [r4, #44]
 524:..\..\..\arduinoLCD\test\Pain Drain\libraries\lvgl\src\extra\widgets\menu/lv_menu.c **** 
 336              		.loc 1 524 0
 337 0116 2765     		str	r7, [r4, #80]
 526:..\..\..\arduinoLCD\test\Pain Drain\libraries\lvgl\src\extra\widgets\menu/lv_menu.c **** 
 338              		.loc 1 526 0
ARM GAS  C:\Users\haske\AppData\Local\Temp\ccp0JrPn.s 			page 18


 339 0118 2300     		movs	r3, r4
 340 011a 1C22     		movs	r2, #28
 341 011c 0849     		ldr	r1, .L5+24
 342 011e 2000     		movs	r0, r4
 343 0120 FFF7FEFF 		bl	lv_obj_add_event_cb
 344              	.LVL52:
 529:..\..\..\arduinoLCD\test\Pain Drain\libraries\lvgl\src\extra\widgets\menu/lv_menu.c **** 
 345              		.loc 1 529 0
 346              		@ sp needed
 347              	.LVL53:
 348              	.LVL54:
 349 0124 F8BD     		pop	{r3, r4, r5, r6, r7, pc}
 350              	.L6:
 351 0126 C046     		.align	2
 352              	.L5:
 353 0128 00000000 		.word	LV_LAYOUT_FLEX
 354 012c 00000000 		.word	.LANCHOR0
 355 0130 64200000 		.word	8292
 356 0134 D1270000 		.word	10193
 357 0138 00000000 		.word	lv_menu_back_event_cb
 358 013c 00000000 		.word	.LC3
 359 0140 00000000 		.word	lv_menu_value_changed_event_cb
 360              		.cfi_endproc
 361              	.LFE183:
 362              		.size	lv_menu_constructor, .-lv_menu_constructor
 363              		.section	.text.lv_menu_page_destructor,"ax",%progbits
 364              		.align	2
 365              		.code	16
 366              		.thumb_func
 367              		.type	lv_menu_page_destructor, %function
 368              	lv_menu_page_destructor:
 369              	.LFB186:
 557:..\..\..\arduinoLCD\test\Pain Drain\libraries\lvgl\src\extra\widgets\menu/lv_menu.c ****     LV_UNUSED(class_p);
 370              		.loc 1 557 0
 371              		.cfi_startproc
 372              		@ args = 0, pretend = 0, frame = 0
 373              		@ frame_needed = 0, uses_anonymous_args = 0
 374              	.LVL55:
 375 0000 10B5     		push	{r4, lr}
 376              		.cfi_def_cfa_offset 8
 377              		.cfi_offset 4, -8
 378              		.cfi_offset 14, -4
 379 0002 0C00     		movs	r4, r1
 380              	.LVL56:
 562:..\..\..\arduinoLCD\test\Pain Drain\libraries\lvgl\src\extra\widgets\menu/lv_menu.c ****         lv_mem_free(page->title);
 381              		.loc 1 562 0
 382 0004 486A     		ldr	r0, [r1, #36]
 383              	.LVL57:
 384 0006 0028     		cmp	r0, #0
 385 0008 03D0     		beq	.L7
 563:..\..\..\arduinoLCD\test\Pain Drain\libraries\lvgl\src\extra\widgets\menu/lv_menu.c ****         page->title = NULL;
 386              		.loc 1 563 0
 387 000a FFF7FEFF 		bl	lv_mem_free
 388              	.LVL58:
 564:..\..\..\arduinoLCD\test\Pain Drain\libraries\lvgl\src\extra\widgets\menu/lv_menu.c ****     }
 389              		.loc 1 564 0
 390 000e 0023     		movs	r3, #0
ARM GAS  C:\Users\haske\AppData\Local\Temp\ccp0JrPn.s 			page 19


 391 0010 6362     		str	r3, [r4, #36]
 392              	.L7:
 566:..\..\..\arduinoLCD\test\Pain Drain\libraries\lvgl\src\extra\widgets\menu/lv_menu.c **** 
 393              		.loc 1 566 0
 394              		@ sp needed
 395              	.LVL59:
 396 0012 10BD     		pop	{r4, pc}
 397              		.cfi_endproc
 398              	.LFE186:
 399              		.size	lv_menu_page_destructor, .-lv_menu_page_destructor
 400              		.section	.text.lv_menu_obj_del_event_cb,"ax",%progbits
 401              		.align	2
 402              		.code	16
 403              		.thumb_func
 404              		.type	lv_menu_obj_del_event_cb, %function
 405              	lv_menu_obj_del_event_cb:
 406              	.LFB192:
 582:..\..\..\arduinoLCD\test\Pain Drain\libraries\lvgl\src\extra\widgets\menu/lv_menu.c **** 
 583:..\..\..\arduinoLCD\test\Pain Drain\libraries\lvgl\src\extra\widgets\menu/lv_menu.c **** static void lv_menu_refr_sidebar_header_mode(lv_obj_t * obj)
 584:..\..\..\arduinoLCD\test\Pain Drain\libraries\lvgl\src\extra\widgets\menu/lv_menu.c **** {
 585:..\..\..\arduinoLCD\test\Pain Drain\libraries\lvgl\src\extra\widgets\menu/lv_menu.c ****     LV_ASSERT_OBJ(obj, MY_CLASS);
 586:..\..\..\arduinoLCD\test\Pain Drain\libraries\lvgl\src\extra\widgets\menu/lv_menu.c **** 
 587:..\..\..\arduinoLCD\test\Pain Drain\libraries\lvgl\src\extra\widgets\menu/lv_menu.c ****     lv_menu_t * menu = (lv_menu_t *)obj;
 588:..\..\..\arduinoLCD\test\Pain Drain\libraries\lvgl\src\extra\widgets\menu/lv_menu.c **** 
 589:..\..\..\arduinoLCD\test\Pain Drain\libraries\lvgl\src\extra\widgets\menu/lv_menu.c ****     if(menu->sidebar_header == NULL || menu->sidebar_page == NULL) return;
 590:..\..\..\arduinoLCD\test\Pain Drain\libraries\lvgl\src\extra\widgets\menu/lv_menu.c **** 
 591:..\..\..\arduinoLCD\test\Pain Drain\libraries\lvgl\src\extra\widgets\menu/lv_menu.c ****     switch(menu->mode_header) {
 592:..\..\..\arduinoLCD\test\Pain Drain\libraries\lvgl\src\extra\widgets\menu/lv_menu.c ****         case LV_MENU_HEADER_TOP_FIXED:
 593:..\..\..\arduinoLCD\test\Pain Drain\libraries\lvgl\src\extra\widgets\menu/lv_menu.c ****             /* Content should fill the remaining space */
 594:..\..\..\arduinoLCD\test\Pain Drain\libraries\lvgl\src\extra\widgets\menu/lv_menu.c ****             lv_obj_move_to_index(menu->sidebar_header, 0);
 595:..\..\..\arduinoLCD\test\Pain Drain\libraries\lvgl\src\extra\widgets\menu/lv_menu.c ****             lv_obj_set_flex_grow(menu->sidebar_page, 1);
 596:..\..\..\arduinoLCD\test\Pain Drain\libraries\lvgl\src\extra\widgets\menu/lv_menu.c ****             break;
 597:..\..\..\arduinoLCD\test\Pain Drain\libraries\lvgl\src\extra\widgets\menu/lv_menu.c ****         case LV_MENU_HEADER_TOP_UNFIXED:
 598:..\..\..\arduinoLCD\test\Pain Drain\libraries\lvgl\src\extra\widgets\menu/lv_menu.c ****             lv_obj_move_to_index(menu->sidebar_header, 0);
 599:..\..\..\arduinoLCD\test\Pain Drain\libraries\lvgl\src\extra\widgets\menu/lv_menu.c ****             lv_obj_set_flex_grow(menu->sidebar_page, 0);
 600:..\..\..\arduinoLCD\test\Pain Drain\libraries\lvgl\src\extra\widgets\menu/lv_menu.c ****             break;
 601:..\..\..\arduinoLCD\test\Pain Drain\libraries\lvgl\src\extra\widgets\menu/lv_menu.c ****         case LV_MENU_HEADER_BOTTOM_FIXED:
 602:..\..\..\arduinoLCD\test\Pain Drain\libraries\lvgl\src\extra\widgets\menu/lv_menu.c ****             lv_obj_move_to_index(menu->sidebar_header, 1);
 603:..\..\..\arduinoLCD\test\Pain Drain\libraries\lvgl\src\extra\widgets\menu/lv_menu.c ****             lv_obj_set_flex_grow(menu->sidebar_page, 1);
 604:..\..\..\arduinoLCD\test\Pain Drain\libraries\lvgl\src\extra\widgets\menu/lv_menu.c ****             break;
 605:..\..\..\arduinoLCD\test\Pain Drain\libraries\lvgl\src\extra\widgets\menu/lv_menu.c ****     }
 606:..\..\..\arduinoLCD\test\Pain Drain\libraries\lvgl\src\extra\widgets\menu/lv_menu.c **** 
 607:..\..\..\arduinoLCD\test\Pain Drain\libraries\lvgl\src\extra\widgets\menu/lv_menu.c ****     lv_obj_refr_size(menu->sidebar_header);
 608:..\..\..\arduinoLCD\test\Pain Drain\libraries\lvgl\src\extra\widgets\menu/lv_menu.c ****     lv_obj_refr_size(menu->sidebar_page);
 609:..\..\..\arduinoLCD\test\Pain Drain\libraries\lvgl\src\extra\widgets\menu/lv_menu.c **** 
 610:..\..\..\arduinoLCD\test\Pain Drain\libraries\lvgl\src\extra\widgets\menu/lv_menu.c ****     if(lv_obj_get_content_height(menu->sidebar_header) == 0) {
 611:..\..\..\arduinoLCD\test\Pain Drain\libraries\lvgl\src\extra\widgets\menu/lv_menu.c ****         lv_obj_add_flag(menu->sidebar_header, LV_OBJ_FLAG_HIDDEN);
 612:..\..\..\arduinoLCD\test\Pain Drain\libraries\lvgl\src\extra\widgets\menu/lv_menu.c ****     }
 613:..\..\..\arduinoLCD\test\Pain Drain\libraries\lvgl\src\extra\widgets\menu/lv_menu.c ****     else {
 614:..\..\..\arduinoLCD\test\Pain Drain\libraries\lvgl\src\extra\widgets\menu/lv_menu.c ****         lv_obj_clear_flag(menu->sidebar_header, LV_OBJ_FLAG_HIDDEN);
 615:..\..\..\arduinoLCD\test\Pain Drain\libraries\lvgl\src\extra\widgets\menu/lv_menu.c ****     }
 616:..\..\..\arduinoLCD\test\Pain Drain\libraries\lvgl\src\extra\widgets\menu/lv_menu.c **** }
 617:..\..\..\arduinoLCD\test\Pain Drain\libraries\lvgl\src\extra\widgets\menu/lv_menu.c **** 
 618:..\..\..\arduinoLCD\test\Pain Drain\libraries\lvgl\src\extra\widgets\menu/lv_menu.c **** static void lv_menu_refr_main_header_mode(lv_obj_t * obj)
 619:..\..\..\arduinoLCD\test\Pain Drain\libraries\lvgl\src\extra\widgets\menu/lv_menu.c **** {
 620:..\..\..\arduinoLCD\test\Pain Drain\libraries\lvgl\src\extra\widgets\menu/lv_menu.c ****     LV_ASSERT_OBJ(obj, MY_CLASS);
 621:..\..\..\arduinoLCD\test\Pain Drain\libraries\lvgl\src\extra\widgets\menu/lv_menu.c **** 
ARM GAS  C:\Users\haske\AppData\Local\Temp\ccp0JrPn.s 			page 20


 622:..\..\..\arduinoLCD\test\Pain Drain\libraries\lvgl\src\extra\widgets\menu/lv_menu.c ****     lv_menu_t * menu = (lv_menu_t *)obj;
 623:..\..\..\arduinoLCD\test\Pain Drain\libraries\lvgl\src\extra\widgets\menu/lv_menu.c **** 
 624:..\..\..\arduinoLCD\test\Pain Drain\libraries\lvgl\src\extra\widgets\menu/lv_menu.c ****     if(menu->main_header == NULL || menu->main_page == NULL) return;
 625:..\..\..\arduinoLCD\test\Pain Drain\libraries\lvgl\src\extra\widgets\menu/lv_menu.c **** 
 626:..\..\..\arduinoLCD\test\Pain Drain\libraries\lvgl\src\extra\widgets\menu/lv_menu.c ****     switch(menu->mode_header) {
 627:..\..\..\arduinoLCD\test\Pain Drain\libraries\lvgl\src\extra\widgets\menu/lv_menu.c ****         case LV_MENU_HEADER_TOP_FIXED:
 628:..\..\..\arduinoLCD\test\Pain Drain\libraries\lvgl\src\extra\widgets\menu/lv_menu.c ****             /* Content should fill the remaining space */
 629:..\..\..\arduinoLCD\test\Pain Drain\libraries\lvgl\src\extra\widgets\menu/lv_menu.c ****             lv_obj_move_to_index(menu->main_header, 0);
 630:..\..\..\arduinoLCD\test\Pain Drain\libraries\lvgl\src\extra\widgets\menu/lv_menu.c ****             lv_obj_set_flex_grow(menu->main_page, 1);
 631:..\..\..\arduinoLCD\test\Pain Drain\libraries\lvgl\src\extra\widgets\menu/lv_menu.c ****             break;
 632:..\..\..\arduinoLCD\test\Pain Drain\libraries\lvgl\src\extra\widgets\menu/lv_menu.c ****         case LV_MENU_HEADER_TOP_UNFIXED:
 633:..\..\..\arduinoLCD\test\Pain Drain\libraries\lvgl\src\extra\widgets\menu/lv_menu.c ****             lv_obj_move_to_index(menu->main_header, 0);
 634:..\..\..\arduinoLCD\test\Pain Drain\libraries\lvgl\src\extra\widgets\menu/lv_menu.c ****             lv_obj_set_flex_grow(menu->main_page, 0);
 635:..\..\..\arduinoLCD\test\Pain Drain\libraries\lvgl\src\extra\widgets\menu/lv_menu.c ****             break;
 636:..\..\..\arduinoLCD\test\Pain Drain\libraries\lvgl\src\extra\widgets\menu/lv_menu.c ****         case LV_MENU_HEADER_BOTTOM_FIXED:
 637:..\..\..\arduinoLCD\test\Pain Drain\libraries\lvgl\src\extra\widgets\menu/lv_menu.c ****             lv_obj_move_to_index(menu->main_header, 1);
 638:..\..\..\arduinoLCD\test\Pain Drain\libraries\lvgl\src\extra\widgets\menu/lv_menu.c ****             lv_obj_set_flex_grow(menu->main_page, 1);
 639:..\..\..\arduinoLCD\test\Pain Drain\libraries\lvgl\src\extra\widgets\menu/lv_menu.c ****             break;
 640:..\..\..\arduinoLCD\test\Pain Drain\libraries\lvgl\src\extra\widgets\menu/lv_menu.c ****     }
 641:..\..\..\arduinoLCD\test\Pain Drain\libraries\lvgl\src\extra\widgets\menu/lv_menu.c **** 
 642:..\..\..\arduinoLCD\test\Pain Drain\libraries\lvgl\src\extra\widgets\menu/lv_menu.c ****     lv_obj_refr_size(menu->main_header);
 643:..\..\..\arduinoLCD\test\Pain Drain\libraries\lvgl\src\extra\widgets\menu/lv_menu.c ****     lv_obj_refr_size(menu->main_page);
 644:..\..\..\arduinoLCD\test\Pain Drain\libraries\lvgl\src\extra\widgets\menu/lv_menu.c ****     lv_obj_update_layout(menu->main_header);
 645:..\..\..\arduinoLCD\test\Pain Drain\libraries\lvgl\src\extra\widgets\menu/lv_menu.c **** 
 646:..\..\..\arduinoLCD\test\Pain Drain\libraries\lvgl\src\extra\widgets\menu/lv_menu.c ****     if(lv_obj_get_content_height(menu->main_header) == 0) {
 647:..\..\..\arduinoLCD\test\Pain Drain\libraries\lvgl\src\extra\widgets\menu/lv_menu.c ****         lv_obj_add_flag(menu->main_header, LV_OBJ_FLAG_HIDDEN);
 648:..\..\..\arduinoLCD\test\Pain Drain\libraries\lvgl\src\extra\widgets\menu/lv_menu.c ****     }
 649:..\..\..\arduinoLCD\test\Pain Drain\libraries\lvgl\src\extra\widgets\menu/lv_menu.c ****     else {
 650:..\..\..\arduinoLCD\test\Pain Drain\libraries\lvgl\src\extra\widgets\menu/lv_menu.c ****         lv_obj_clear_flag(menu->main_header, LV_OBJ_FLAG_HIDDEN);
 651:..\..\..\arduinoLCD\test\Pain Drain\libraries\lvgl\src\extra\widgets\menu/lv_menu.c ****     }
 652:..\..\..\arduinoLCD\test\Pain Drain\libraries\lvgl\src\extra\widgets\menu/lv_menu.c **** }
 653:..\..\..\arduinoLCD\test\Pain Drain\libraries\lvgl\src\extra\widgets\menu/lv_menu.c **** 
 654:..\..\..\arduinoLCD\test\Pain Drain\libraries\lvgl\src\extra\widgets\menu/lv_menu.c **** static void lv_menu_load_page_event_cb(lv_event_t * e)
 655:..\..\..\arduinoLCD\test\Pain Drain\libraries\lvgl\src\extra\widgets\menu/lv_menu.c **** {
 656:..\..\..\arduinoLCD\test\Pain Drain\libraries\lvgl\src\extra\widgets\menu/lv_menu.c ****     lv_obj_t * obj = lv_event_get_target(e);
 657:..\..\..\arduinoLCD\test\Pain Drain\libraries\lvgl\src\extra\widgets\menu/lv_menu.c ****     lv_menu_load_page_event_data_t * event_data = lv_event_get_user_data(e);
 658:..\..\..\arduinoLCD\test\Pain Drain\libraries\lvgl\src\extra\widgets\menu/lv_menu.c ****     lv_menu_t * menu = (lv_menu_t *)(event_data->menu);
 659:..\..\..\arduinoLCD\test\Pain Drain\libraries\lvgl\src\extra\widgets\menu/lv_menu.c ****     lv_obj_t * page = event_data->page;
 660:..\..\..\arduinoLCD\test\Pain Drain\libraries\lvgl\src\extra\widgets\menu/lv_menu.c **** 
 661:..\..\..\arduinoLCD\test\Pain Drain\libraries\lvgl\src\extra\widgets\menu/lv_menu.c ****     if(menu->sidebar_page != NULL) {
 662:..\..\..\arduinoLCD\test\Pain Drain\libraries\lvgl\src\extra\widgets\menu/lv_menu.c ****         /* Check if clicked obj is in the sidebar */
 663:..\..\..\arduinoLCD\test\Pain Drain\libraries\lvgl\src\extra\widgets\menu/lv_menu.c ****         bool sidebar = false;
 664:..\..\..\arduinoLCD\test\Pain Drain\libraries\lvgl\src\extra\widgets\menu/lv_menu.c ****         lv_obj_t * parent = obj;
 665:..\..\..\arduinoLCD\test\Pain Drain\libraries\lvgl\src\extra\widgets\menu/lv_menu.c **** 
 666:..\..\..\arduinoLCD\test\Pain Drain\libraries\lvgl\src\extra\widgets\menu/lv_menu.c ****         while(parent) {
 667:..\..\..\arduinoLCD\test\Pain Drain\libraries\lvgl\src\extra\widgets\menu/lv_menu.c ****             if(parent == (lv_obj_t *)menu) break;
 668:..\..\..\arduinoLCD\test\Pain Drain\libraries\lvgl\src\extra\widgets\menu/lv_menu.c ****             if(parent == menu->sidebar) {
 669:..\..\..\arduinoLCD\test\Pain Drain\libraries\lvgl\src\extra\widgets\menu/lv_menu.c ****                 sidebar = true;
 670:..\..\..\arduinoLCD\test\Pain Drain\libraries\lvgl\src\extra\widgets\menu/lv_menu.c ****                 break;
 671:..\..\..\arduinoLCD\test\Pain Drain\libraries\lvgl\src\extra\widgets\menu/lv_menu.c ****             }
 672:..\..\..\arduinoLCD\test\Pain Drain\libraries\lvgl\src\extra\widgets\menu/lv_menu.c ****             parent = lv_obj_get_parent(parent);
 673:..\..\..\arduinoLCD\test\Pain Drain\libraries\lvgl\src\extra\widgets\menu/lv_menu.c ****         }
 674:..\..\..\arduinoLCD\test\Pain Drain\libraries\lvgl\src\extra\widgets\menu/lv_menu.c **** 
 675:..\..\..\arduinoLCD\test\Pain Drain\libraries\lvgl\src\extra\widgets\menu/lv_menu.c ****         if(sidebar) {
 676:..\..\..\arduinoLCD\test\Pain Drain\libraries\lvgl\src\extra\widgets\menu/lv_menu.c ****             /* Clear checked state of previous obj */
 677:..\..\..\arduinoLCD\test\Pain Drain\libraries\lvgl\src\extra\widgets\menu/lv_menu.c ****             if(menu->selected_tab != obj && menu->selected_tab != NULL) {
 678:..\..\..\arduinoLCD\test\Pain Drain\libraries\lvgl\src\extra\widgets\menu/lv_menu.c ****                 lv_obj_clear_state(menu->selected_tab, LV_STATE_CHECKED);
ARM GAS  C:\Users\haske\AppData\Local\Temp\ccp0JrPn.s 			page 21


 679:..\..\..\arduinoLCD\test\Pain Drain\libraries\lvgl\src\extra\widgets\menu/lv_menu.c ****             }
 680:..\..\..\arduinoLCD\test\Pain Drain\libraries\lvgl\src\extra\widgets\menu/lv_menu.c **** 
 681:..\..\..\arduinoLCD\test\Pain Drain\libraries\lvgl\src\extra\widgets\menu/lv_menu.c ****             lv_menu_clear_history((lv_obj_t *)menu);
 682:..\..\..\arduinoLCD\test\Pain Drain\libraries\lvgl\src\extra\widgets\menu/lv_menu.c **** 
 683:..\..\..\arduinoLCD\test\Pain Drain\libraries\lvgl\src\extra\widgets\menu/lv_menu.c ****             menu->selected_tab = obj;
 684:..\..\..\arduinoLCD\test\Pain Drain\libraries\lvgl\src\extra\widgets\menu/lv_menu.c ****         }
 685:..\..\..\arduinoLCD\test\Pain Drain\libraries\lvgl\src\extra\widgets\menu/lv_menu.c ****     }
 686:..\..\..\arduinoLCD\test\Pain Drain\libraries\lvgl\src\extra\widgets\menu/lv_menu.c **** 
 687:..\..\..\arduinoLCD\test\Pain Drain\libraries\lvgl\src\extra\widgets\menu/lv_menu.c ****     lv_menu_set_page((lv_obj_t *)menu, page);
 688:..\..\..\arduinoLCD\test\Pain Drain\libraries\lvgl\src\extra\widgets\menu/lv_menu.c **** 
 689:..\..\..\arduinoLCD\test\Pain Drain\libraries\lvgl\src\extra\widgets\menu/lv_menu.c ****     if(lv_group_get_default() != NULL && menu->sidebar_page == NULL) {
 690:..\..\..\arduinoLCD\test\Pain Drain\libraries\lvgl\src\extra\widgets\menu/lv_menu.c ****         /* Sidebar is not supported for now*/
 691:..\..\..\arduinoLCD\test\Pain Drain\libraries\lvgl\src\extra\widgets\menu/lv_menu.c ****         lv_group_focus_next(lv_group_get_default());
 692:..\..\..\arduinoLCD\test\Pain Drain\libraries\lvgl\src\extra\widgets\menu/lv_menu.c ****     }
 693:..\..\..\arduinoLCD\test\Pain Drain\libraries\lvgl\src\extra\widgets\menu/lv_menu.c **** }
 694:..\..\..\arduinoLCD\test\Pain Drain\libraries\lvgl\src\extra\widgets\menu/lv_menu.c **** 
 695:..\..\..\arduinoLCD\test\Pain Drain\libraries\lvgl\src\extra\widgets\menu/lv_menu.c **** static void lv_menu_obj_del_event_cb(lv_event_t * e)
 696:..\..\..\arduinoLCD\test\Pain Drain\libraries\lvgl\src\extra\widgets\menu/lv_menu.c **** {
 407              		.loc 1 696 0
 408              		.cfi_startproc
 409              		@ args = 0, pretend = 0, frame = 0
 410              		@ frame_needed = 0, uses_anonymous_args = 0
 411              	.LVL60:
 412 0000 10B5     		push	{r4, lr}
 413              		.cfi_def_cfa_offset 8
 414              		.cfi_offset 4, -8
 415              		.cfi_offset 14, -4
 697:..\..\..\arduinoLCD\test\Pain Drain\libraries\lvgl\src\extra\widgets\menu/lv_menu.c ****     lv_menu_load_page_event_data_t * event_data = lv_event_get_user_data(e);
 416              		.loc 1 697 0
 417 0002 FFF7FEFF 		bl	lv_event_get_user_data
 418              	.LVL61:
 698:..\..\..\arduinoLCD\test\Pain Drain\libraries\lvgl\src\extra\widgets\menu/lv_menu.c ****     lv_mem_free(event_data);
 419              		.loc 1 698 0
 420 0006 FFF7FEFF 		bl	lv_mem_free
 421              	.LVL62:
 699:..\..\..\arduinoLCD\test\Pain Drain\libraries\lvgl\src\extra\widgets\menu/lv_menu.c **** }
 422              		.loc 1 699 0
 423              		@ sp needed
 424 000a 10BD     		pop	{r4, pc}
 425              		.cfi_endproc
 426              	.LFE192:
 427              		.size	lv_menu_obj_del_event_cb, .-lv_menu_obj_del_event_cb
 428              		.section	.text.lv_menu_page_constructor,"ax",%progbits
 429              		.align	2
 430              		.code	16
 431              		.thumb_func
 432              		.type	lv_menu_page_constructor, %function
 433              	lv_menu_page_constructor:
 434              	.LFB185:
 545:..\..\..\arduinoLCD\test\Pain Drain\libraries\lvgl\src\extra\widgets\menu/lv_menu.c ****     LV_UNUSED(class_p);
 435              		.loc 1 545 0
 436              		.cfi_startproc
 437              		@ args = 0, pretend = 0, frame = 0
 438              		@ frame_needed = 0, uses_anonymous_args = 0
 439              	.LVL63:
 440 0000 10B5     		push	{r4, lr}
 441              		.cfi_def_cfa_offset 8
ARM GAS  C:\Users\haske\AppData\Local\Temp\ccp0JrPn.s 			page 22


 442              		.cfi_offset 4, -8
 443              		.cfi_offset 14, -4
 444 0002 0C00     		movs	r4, r1
 548:..\..\..\arduinoLCD\test\Pain Drain\libraries\lvgl\src\extra\widgets\menu/lv_menu.c **** 
 445              		.loc 1 548 0
 446 0004 0800     		movs	r0, r1
 447              	.LVL64:
 448 0006 FFF7FEFF 		bl	lv_obj_get_parent
 449              	.LVL65:
 550:..\..\..\arduinoLCD\test\Pain Drain\libraries\lvgl\src\extra\widgets\menu/lv_menu.c ****     lv_obj_set_flex_flow(obj, LV_FLEX_FLOW_COLUMN);
 450              		.loc 1 550 0
 451 000a 416A     		ldr	r1, [r0, #36]
 452 000c 2000     		movs	r0, r4
 453              	.LVL66:
 454 000e FFF7FEFF 		bl	lv_obj_set_parent
 455              	.LVL67:
 551:..\..\..\arduinoLCD\test\Pain Drain\libraries\lvgl\src\extra\widgets\menu/lv_menu.c ****     lv_obj_set_flex_align(obj, LV_FLEX_ALIGN_START, LV_FLEX_ALIGN_CENTER, LV_FLEX_ALIGN_CENTER);
 456              		.loc 1 551 0
 457 0012 0121     		movs	r1, #1
 458 0014 2000     		movs	r0, r4
 459 0016 FFF7FEFF 		bl	lv_obj_set_flex_flow
 460              	.LVL68:
 552:..\..\..\arduinoLCD\test\Pain Drain\libraries\lvgl\src\extra\widgets\menu/lv_menu.c ****     lv_obj_add_flag(obj, LV_OBJ_FLAG_EVENT_BUBBLE);
 461              		.loc 1 552 0
 462 001a 0223     		movs	r3, #2
 463 001c 0222     		movs	r2, #2
 464 001e 0021     		movs	r1, #0
 465 0020 2000     		movs	r0, r4
 466 0022 FFF7FEFF 		bl	lv_obj_set_flex_align
 467              	.LVL69:
 553:..\..\..\arduinoLCD\test\Pain Drain\libraries\lvgl\src\extra\widgets\menu/lv_menu.c **** }
 468              		.loc 1 553 0
 469 0026 8021     		movs	r1, #128
 470 0028 C901     		lsls	r1, r1, #7
 471 002a 2000     		movs	r0, r4
 472 002c FFF7FEFF 		bl	lv_obj_add_flag
 473              	.LVL70:
 554:..\..\..\arduinoLCD\test\Pain Drain\libraries\lvgl\src\extra\widgets\menu/lv_menu.c **** 
 474              		.loc 1 554 0
 475              		@ sp needed
 476              	.LVL71:
 477 0030 10BD     		pop	{r4, pc}
 478              		.cfi_endproc
 479              	.LFE185:
 480              		.size	lv_menu_page_constructor, .-lv_menu_page_constructor
 481 0032 C046     		.section	.text.lv_menu_refr_main_header_mode,"ax",%progbits
 482              		.align	2
 483              		.code	16
 484              		.thumb_func
 485              		.type	lv_menu_refr_main_header_mode, %function
 486              	lv_menu_refr_main_header_mode:
 487              	.LFB190:
 619:..\..\..\arduinoLCD\test\Pain Drain\libraries\lvgl\src\extra\widgets\menu/lv_menu.c ****     LV_ASSERT_OBJ(obj, MY_CLASS);
 488              		.loc 1 619 0
 489              		.cfi_startproc
 490              		@ args = 0, pretend = 0, frame = 0
 491              		@ frame_needed = 0, uses_anonymous_args = 0
ARM GAS  C:\Users\haske\AppData\Local\Temp\ccp0JrPn.s 			page 23


 492              	.LVL72:
 493 0000 10B5     		push	{r4, lr}
 494              		.cfi_def_cfa_offset 8
 495              		.cfi_offset 4, -8
 496              		.cfi_offset 14, -4
 497 0002 0400     		movs	r4, r0
 498              	.LVL73:
 624:..\..\..\arduinoLCD\test\Pain Drain\libraries\lvgl\src\extra\widgets\menu/lv_menu.c **** 
 499              		.loc 1 624 0
 500 0004 006B     		ldr	r0, [r0, #48]
 501              	.LVL74:
 502 0006 0028     		cmp	r0, #0
 503 0008 3BD0     		beq	.L11
 624:..\..\..\arduinoLCD\test\Pain Drain\libraries\lvgl\src\extra\widgets\menu/lv_menu.c **** 
 504              		.loc 1 624 0 is_stmt 0 discriminator 1
 505 000a E36A     		ldr	r3, [r4, #44]
 506 000c 002B     		cmp	r3, #0
 507 000e 38D0     		beq	.L11
 626:..\..\..\arduinoLCD\test\Pain Drain\libraries\lvgl\src\extra\widgets\menu/lv_menu.c ****         case LV_MENU_HEADER_TOP_FIXED:
 508              		.loc 1 626 0 is_stmt 1
 509 0010 6223     		movs	r3, #98
 510 0012 E35C     		ldrb	r3, [r4, r3]
 511 0014 5B07     		lsls	r3, r3, #29
 512 0016 9B0F     		lsrs	r3, r3, #30
 513 0018 012B     		cmp	r3, #1
 514 001a 0CD0     		beq	.L14
 515 001c 002B     		cmp	r3, #0
 516 001e 02D0     		beq	.L15
 517 0020 022B     		cmp	r3, #2
 518 0022 10D0     		beq	.L16
 519 0024 16E0     		b	.L13
 520              	.L15:
 629:..\..\..\arduinoLCD\test\Pain Drain\libraries\lvgl\src\extra\widgets\menu/lv_menu.c ****             lv_obj_set_flex_grow(menu->main_page, 1);
 521              		.loc 1 629 0
 522 0026 0021     		movs	r1, #0
 523 0028 FFF7FEFF 		bl	lv_obj_move_to_index
 524              	.LVL75:
 630:..\..\..\arduinoLCD\test\Pain Drain\libraries\lvgl\src\extra\widgets\menu/lv_menu.c ****             break;
 525              		.loc 1 630 0
 526 002c 0121     		movs	r1, #1
 527 002e E06A     		ldr	r0, [r4, #44]
 528 0030 FFF7FEFF 		bl	lv_obj_set_flex_grow
 529              	.LVL76:
 631:..\..\..\arduinoLCD\test\Pain Drain\libraries\lvgl\src\extra\widgets\menu/lv_menu.c ****         case LV_MENU_HEADER_TOP_UNFIXED:
 530              		.loc 1 631 0
 531 0034 0EE0     		b	.L13
 532              	.L14:
 633:..\..\..\arduinoLCD\test\Pain Drain\libraries\lvgl\src\extra\widgets\menu/lv_menu.c ****             lv_obj_set_flex_grow(menu->main_page, 0);
 533              		.loc 1 633 0
 534 0036 0021     		movs	r1, #0
 535 0038 FFF7FEFF 		bl	lv_obj_move_to_index
 536              	.LVL77:
 634:..\..\..\arduinoLCD\test\Pain Drain\libraries\lvgl\src\extra\widgets\menu/lv_menu.c ****             break;
 537              		.loc 1 634 0
 538 003c 0021     		movs	r1, #0
 539 003e E06A     		ldr	r0, [r4, #44]
 540 0040 FFF7FEFF 		bl	lv_obj_set_flex_grow
ARM GAS  C:\Users\haske\AppData\Local\Temp\ccp0JrPn.s 			page 24


 541              	.LVL78:
 635:..\..\..\arduinoLCD\test\Pain Drain\libraries\lvgl\src\extra\widgets\menu/lv_menu.c ****         case LV_MENU_HEADER_BOTTOM_FIXED:
 542              		.loc 1 635 0
 543 0044 06E0     		b	.L13
 544              	.L16:
 637:..\..\..\arduinoLCD\test\Pain Drain\libraries\lvgl\src\extra\widgets\menu/lv_menu.c ****             lv_obj_set_flex_grow(menu->main_page, 1);
 545              		.loc 1 637 0
 546 0046 0121     		movs	r1, #1
 547 0048 FFF7FEFF 		bl	lv_obj_move_to_index
 548              	.LVL79:
 638:..\..\..\arduinoLCD\test\Pain Drain\libraries\lvgl\src\extra\widgets\menu/lv_menu.c ****             break;
 549              		.loc 1 638 0
 550 004c 0121     		movs	r1, #1
 551 004e E06A     		ldr	r0, [r4, #44]
 552 0050 FFF7FEFF 		bl	lv_obj_set_flex_grow
 553              	.LVL80:
 554              	.L13:
 642:..\..\..\arduinoLCD\test\Pain Drain\libraries\lvgl\src\extra\widgets\menu/lv_menu.c ****     lv_obj_refr_size(menu->main_page);
 555              		.loc 1 642 0
 556 0054 206B     		ldr	r0, [r4, #48]
 557 0056 FFF7FEFF 		bl	lv_obj_refr_size
 558              	.LVL81:
 643:..\..\..\arduinoLCD\test\Pain Drain\libraries\lvgl\src\extra\widgets\menu/lv_menu.c ****     lv_obj_update_layout(menu->main_header);
 559              		.loc 1 643 0
 560 005a E06A     		ldr	r0, [r4, #44]
 561 005c FFF7FEFF 		bl	lv_obj_refr_size
 562              	.LVL82:
 644:..\..\..\arduinoLCD\test\Pain Drain\libraries\lvgl\src\extra\widgets\menu/lv_menu.c **** 
 563              		.loc 1 644 0
 564 0060 206B     		ldr	r0, [r4, #48]
 565 0062 FFF7FEFF 		bl	lv_obj_update_layout
 566              	.LVL83:
 646:..\..\..\arduinoLCD\test\Pain Drain\libraries\lvgl\src\extra\widgets\menu/lv_menu.c ****         lv_obj_add_flag(menu->main_header, LV_OBJ_FLAG_HIDDEN);
 567              		.loc 1 646 0
 568 0066 206B     		ldr	r0, [r4, #48]
 569 0068 FFF7FEFF 		bl	lv_obj_get_content_height
 570              	.LVL84:
 571 006c 0028     		cmp	r0, #0
 572 006e 04D1     		bne	.L17
 647:..\..\..\arduinoLCD\test\Pain Drain\libraries\lvgl\src\extra\widgets\menu/lv_menu.c ****     }
 573              		.loc 1 647 0
 574 0070 206B     		ldr	r0, [r4, #48]
 575 0072 0121     		movs	r1, #1
 576 0074 FFF7FEFF 		bl	lv_obj_add_flag
 577              	.LVL85:
 578 0078 03E0     		b	.L11
 579              	.L17:
 650:..\..\..\arduinoLCD\test\Pain Drain\libraries\lvgl\src\extra\widgets\menu/lv_menu.c ****     }
 580              		.loc 1 650 0
 581 007a 206B     		ldr	r0, [r4, #48]
 582 007c 0121     		movs	r1, #1
 583 007e FFF7FEFF 		bl	lv_obj_clear_flag
 584              	.LVL86:
 585              	.L11:
 652:..\..\..\arduinoLCD\test\Pain Drain\libraries\lvgl\src\extra\widgets\menu/lv_menu.c **** 
 586              		.loc 1 652 0
 587              		@ sp needed
ARM GAS  C:\Users\haske\AppData\Local\Temp\ccp0JrPn.s 			page 25


 588              	.LVL87:
 589 0082 10BD     		pop	{r4, pc}
 590              		.cfi_endproc
 591              	.LFE190:
 592              		.size	lv_menu_refr_main_header_mode, .-lv_menu_refr_main_header_mode
 593              		.section	.text.lv_menu_refr_sidebar_header_mode,"ax",%progbits
 594              		.align	2
 595              		.code	16
 596              		.thumb_func
 597              		.type	lv_menu_refr_sidebar_header_mode, %function
 598              	lv_menu_refr_sidebar_header_mode:
 599              	.LFB189:
 584:..\..\..\arduinoLCD\test\Pain Drain\libraries\lvgl\src\extra\widgets\menu/lv_menu.c ****     LV_ASSERT_OBJ(obj, MY_CLASS);
 600              		.loc 1 584 0
 601              		.cfi_startproc
 602              		@ args = 0, pretend = 0, frame = 0
 603              		@ frame_needed = 0, uses_anonymous_args = 0
 604              	.LVL88:
 605 0000 10B5     		push	{r4, lr}
 606              		.cfi_def_cfa_offset 8
 607              		.cfi_offset 4, -8
 608              		.cfi_offset 14, -4
 609 0002 0400     		movs	r4, r0
 610              	.LVL89:
 589:..\..\..\arduinoLCD\test\Pain Drain\libraries\lvgl\src\extra\widgets\menu/lv_menu.c **** 
 611              		.loc 1 589 0
 612 0004 406C     		ldr	r0, [r0, #68]
 613              	.LVL90:
 614 0006 0028     		cmp	r0, #0
 615 0008 38D0     		beq	.L18
 589:..\..\..\arduinoLCD\test\Pain Drain\libraries\lvgl\src\extra\widgets\menu/lv_menu.c **** 
 616              		.loc 1 589 0 is_stmt 0 discriminator 1
 617 000a 236C     		ldr	r3, [r4, #64]
 618 000c 002B     		cmp	r3, #0
 619 000e 35D0     		beq	.L18
 591:..\..\..\arduinoLCD\test\Pain Drain\libraries\lvgl\src\extra\widgets\menu/lv_menu.c ****         case LV_MENU_HEADER_TOP_FIXED:
 620              		.loc 1 591 0 is_stmt 1
 621 0010 6223     		movs	r3, #98
 622 0012 E35C     		ldrb	r3, [r4, r3]
 623 0014 5B07     		lsls	r3, r3, #29
 624 0016 9B0F     		lsrs	r3, r3, #30
 625 0018 012B     		cmp	r3, #1
 626 001a 0CD0     		beq	.L21
 627 001c 002B     		cmp	r3, #0
 628 001e 02D0     		beq	.L22
 629 0020 022B     		cmp	r3, #2
 630 0022 10D0     		beq	.L23
 631 0024 16E0     		b	.L20
 632              	.L22:
 594:..\..\..\arduinoLCD\test\Pain Drain\libraries\lvgl\src\extra\widgets\menu/lv_menu.c ****             lv_obj_set_flex_grow(menu->sidebar_page, 1);
 633              		.loc 1 594 0
 634 0026 0021     		movs	r1, #0
 635 0028 FFF7FEFF 		bl	lv_obj_move_to_index
 636              	.LVL91:
 595:..\..\..\arduinoLCD\test\Pain Drain\libraries\lvgl\src\extra\widgets\menu/lv_menu.c ****             break;
 637              		.loc 1 595 0
 638 002c 0121     		movs	r1, #1
ARM GAS  C:\Users\haske\AppData\Local\Temp\ccp0JrPn.s 			page 26


 639 002e 206C     		ldr	r0, [r4, #64]
 640 0030 FFF7FEFF 		bl	lv_obj_set_flex_grow
 641              	.LVL92:
 596:..\..\..\arduinoLCD\test\Pain Drain\libraries\lvgl\src\extra\widgets\menu/lv_menu.c ****         case LV_MENU_HEADER_TOP_UNFIXED:
 642              		.loc 1 596 0
 643 0034 0EE0     		b	.L20
 644              	.L21:
 598:..\..\..\arduinoLCD\test\Pain Drain\libraries\lvgl\src\extra\widgets\menu/lv_menu.c ****             lv_obj_set_flex_grow(menu->sidebar_page, 0);
 645              		.loc 1 598 0
 646 0036 0021     		movs	r1, #0
 647 0038 FFF7FEFF 		bl	lv_obj_move_to_index
 648              	.LVL93:
 599:..\..\..\arduinoLCD\test\Pain Drain\libraries\lvgl\src\extra\widgets\menu/lv_menu.c ****             break;
 649              		.loc 1 599 0
 650 003c 0021     		movs	r1, #0
 651 003e 206C     		ldr	r0, [r4, #64]
 652 0040 FFF7FEFF 		bl	lv_obj_set_flex_grow
 653              	.LVL94:
 600:..\..\..\arduinoLCD\test\Pain Drain\libraries\lvgl\src\extra\widgets\menu/lv_menu.c ****         case LV_MENU_HEADER_BOTTOM_FIXED:
 654              		.loc 1 600 0
 655 0044 06E0     		b	.L20
 656              	.L23:
 602:..\..\..\arduinoLCD\test\Pain Drain\libraries\lvgl\src\extra\widgets\menu/lv_menu.c ****             lv_obj_set_flex_grow(menu->sidebar_page, 1);
 657              		.loc 1 602 0
 658 0046 0121     		movs	r1, #1
 659 0048 FFF7FEFF 		bl	lv_obj_move_to_index
 660              	.LVL95:
 603:..\..\..\arduinoLCD\test\Pain Drain\libraries\lvgl\src\extra\widgets\menu/lv_menu.c ****             break;
 661              		.loc 1 603 0
 662 004c 0121     		movs	r1, #1
 663 004e 206C     		ldr	r0, [r4, #64]
 664 0050 FFF7FEFF 		bl	lv_obj_set_flex_grow
 665              	.LVL96:
 666              	.L20:
 607:..\..\..\arduinoLCD\test\Pain Drain\libraries\lvgl\src\extra\widgets\menu/lv_menu.c ****     lv_obj_refr_size(menu->sidebar_page);
 667              		.loc 1 607 0
 668 0054 606C     		ldr	r0, [r4, #68]
 669 0056 FFF7FEFF 		bl	lv_obj_refr_size
 670              	.LVL97:
 608:..\..\..\arduinoLCD\test\Pain Drain\libraries\lvgl\src\extra\widgets\menu/lv_menu.c **** 
 671              		.loc 1 608 0
 672 005a 206C     		ldr	r0, [r4, #64]
 673 005c FFF7FEFF 		bl	lv_obj_refr_size
 674              	.LVL98:
 610:..\..\..\arduinoLCD\test\Pain Drain\libraries\lvgl\src\extra\widgets\menu/lv_menu.c ****         lv_obj_add_flag(menu->sidebar_header, LV_OBJ_FLAG_HIDDEN);
 675              		.loc 1 610 0
 676 0060 606C     		ldr	r0, [r4, #68]
 677 0062 FFF7FEFF 		bl	lv_obj_get_content_height
 678              	.LVL99:
 679 0066 0028     		cmp	r0, #0
 680 0068 04D1     		bne	.L24
 611:..\..\..\arduinoLCD\test\Pain Drain\libraries\lvgl\src\extra\widgets\menu/lv_menu.c ****     }
 681              		.loc 1 611 0
 682 006a 606C     		ldr	r0, [r4, #68]
 683 006c 0121     		movs	r1, #1
 684 006e FFF7FEFF 		bl	lv_obj_add_flag
 685              	.LVL100:
ARM GAS  C:\Users\haske\AppData\Local\Temp\ccp0JrPn.s 			page 27


 686 0072 03E0     		b	.L18
 687              	.L24:
 614:..\..\..\arduinoLCD\test\Pain Drain\libraries\lvgl\src\extra\widgets\menu/lv_menu.c ****     }
 688              		.loc 1 614 0
 689 0074 606C     		ldr	r0, [r4, #68]
 690 0076 0121     		movs	r1, #1
 691 0078 FFF7FEFF 		bl	lv_obj_clear_flag
 692              	.LVL101:
 693              	.L18:
 616:..\..\..\arduinoLCD\test\Pain Drain\libraries\lvgl\src\extra\widgets\menu/lv_menu.c **** 
 694              		.loc 1 616 0
 695              		@ sp needed
 696              	.LVL102:
 697 007c 10BD     		pop	{r4, pc}
 698              		.cfi_endproc
 699              	.LFE189:
 700              		.size	lv_menu_refr_sidebar_header_mode, .-lv_menu_refr_sidebar_header_mode
 701 007e C046     		.section	.text.lv_menu_create,"ax",%progbits
 702              		.align	2
 703              		.global	lv_menu_create
 704              		.code	16
 705              		.thumb_func
 706              		.type	lv_menu_create, %function
 707              	lv_menu_create:
 708              	.LFB164:
 113:..\..\..\arduinoLCD\test\Pain Drain\libraries\lvgl\src\extra\widgets\menu/lv_menu.c ****     LV_LOG_INFO("begin");
 709              		.loc 1 113 0
 710              		.cfi_startproc
 711              		@ args = 0, pretend = 0, frame = 0
 712              		@ frame_needed = 0, uses_anonymous_args = 0
 713              	.LVL103:
 714 0000 10B5     		push	{r4, lr}
 715              		.cfi_def_cfa_offset 8
 716              		.cfi_offset 4, -8
 717              		.cfi_offset 14, -4
 718 0002 0100     		movs	r1, r0
 115:..\..\..\arduinoLCD\test\Pain Drain\libraries\lvgl\src\extra\widgets\menu/lv_menu.c ****     lv_obj_class_init_obj(obj);
 719              		.loc 1 115 0
 720 0004 0448     		ldr	r0, .L26
 721              	.LVL104:
 722 0006 3830     		adds	r0, r0, #56
 723 0008 FFF7FEFF 		bl	lv_obj_class_create_obj
 724              	.LVL105:
 725 000c 0400     		movs	r4, r0
 726              	.LVL106:
 116:..\..\..\arduinoLCD\test\Pain Drain\libraries\lvgl\src\extra\widgets\menu/lv_menu.c ****     return obj;
 727              		.loc 1 116 0
 728 000e FFF7FEFF 		bl	lv_obj_class_init_obj
 729              	.LVL107:
 118:..\..\..\arduinoLCD\test\Pain Drain\libraries\lvgl\src\extra\widgets\menu/lv_menu.c **** 
 730              		.loc 1 118 0
 731 0012 2000     		movs	r0, r4
 732              		@ sp needed
 733              	.LVL108:
 734 0014 10BD     		pop	{r4, pc}
 735              	.L27:
 736 0016 C046     		.align	2
ARM GAS  C:\Users\haske\AppData\Local\Temp\ccp0JrPn.s 			page 28


 737              	.L26:
 738 0018 00000000 		.word	.LANCHOR0
 739              		.cfi_endproc
 740              	.LFE164:
 741              		.size	lv_menu_create, .-lv_menu_create
 742              		.section	.text.lv_menu_page_create,"ax",%progbits
 743              		.align	2
 744              		.global	lv_menu_page_create
 745              		.code	16
 746              		.thumb_func
 747              		.type	lv_menu_page_create, %function
 748              	lv_menu_page_create:
 749              	.LFB165:
 121:..\..\..\arduinoLCD\test\Pain Drain\libraries\lvgl\src\extra\widgets\menu/lv_menu.c ****     LV_LOG_INFO("begin");
 750              		.loc 1 121 0
 751              		.cfi_startproc
 752              		@ args = 0, pretend = 0, frame = 0
 753              		@ frame_needed = 0, uses_anonymous_args = 0
 754              	.LVL109:
 755 0000 70B5     		push	{r4, r5, r6, lr}
 756              		.cfi_def_cfa_offset 16
 757              		.cfi_offset 4, -16
 758              		.cfi_offset 5, -12
 759              		.cfi_offset 6, -8
 760              		.cfi_offset 14, -4
 761 0002 0D00     		movs	r5, r1
 123:..\..\..\arduinoLCD\test\Pain Drain\libraries\lvgl\src\extra\widgets\menu/lv_menu.c ****     lv_obj_class_init_obj(obj);
 762              		.loc 1 123 0
 763 0004 0100     		movs	r1, r0
 764              	.LVL110:
 765 0006 1048     		ldr	r0, .L34
 766              	.LVL111:
 767 0008 5430     		adds	r0, r0, #84
 768 000a FFF7FEFF 		bl	lv_obj_class_create_obj
 769              	.LVL112:
 770 000e 0400     		movs	r4, r0
 771              	.LVL113:
 124:..\..\..\arduinoLCD\test\Pain Drain\libraries\lvgl\src\extra\widgets\menu/lv_menu.c **** 
 772              		.loc 1 124 0
 773 0010 FFF7FEFF 		bl	lv_obj_class_init_obj
 774              	.LVL114:
 127:..\..\..\arduinoLCD\test\Pain Drain\libraries\lvgl\src\extra\widgets\menu/lv_menu.c ****         page->title = lv_mem_alloc(strlen(title) + 1);
 775              		.loc 1 127 0
 776 0014 002D     		cmp	r5, #0
 777 0016 10D0     		beq	.L29
 128:..\..\..\arduinoLCD\test\Pain Drain\libraries\lvgl\src\extra\widgets\menu/lv_menu.c ****         LV_ASSERT_MALLOC(page->title);
 778              		.loc 1 128 0
 779 0018 2800     		movs	r0, r5
 780 001a FFF7FEFF 		bl	strlen
 781              	.LVL115:
 782 001e 0130     		adds	r0, r0, #1
 783 0020 FFF7FEFF 		bl	lv_mem_alloc
 784              	.LVL116:
 785 0024 6062     		str	r0, [r4, #36]
 129:..\..\..\arduinoLCD\test\Pain Drain\libraries\lvgl\src\extra\widgets\menu/lv_menu.c ****         if(page->title == NULL) return NULL;
 786              		.loc 1 129 0
 787 0026 0028     		cmp	r0, #0
ARM GAS  C:\Users\haske\AppData\Local\Temp\ccp0JrPn.s 			page 29


 788 0028 00D1     		bne	.L30
 789              	.L31:
 790 002a FEE7     		b	.L31
 791              	.L30:
 130:..\..\..\arduinoLCD\test\Pain Drain\libraries\lvgl\src\extra\widgets\menu/lv_menu.c ****         strcpy(page->title, title);
 792              		.loc 1 130 0
 793 002c 0028     		cmp	r0, #0
 794 002e 08D0     		beq	.L33
 131:..\..\..\arduinoLCD\test\Pain Drain\libraries\lvgl\src\extra\widgets\menu/lv_menu.c ****     }
 795              		.loc 1 131 0
 796 0030 2900     		movs	r1, r5
 797 0032 FFF7FEFF 		bl	strcpy
 798              	.LVL117:
 137:..\..\..\arduinoLCD\test\Pain Drain\libraries\lvgl\src\extra\widgets\menu/lv_menu.c **** }
 799              		.loc 1 137 0
 800 0036 2000     		movs	r0, r4
 801 0038 04E0     		b	.L32
 802              	.L29:
 134:..\..\..\arduinoLCD\test\Pain Drain\libraries\lvgl\src\extra\widgets\menu/lv_menu.c ****     }
 803              		.loc 1 134 0
 804 003a 0023     		movs	r3, #0
 805 003c 6362     		str	r3, [r4, #36]
 137:..\..\..\arduinoLCD\test\Pain Drain\libraries\lvgl\src\extra\widgets\menu/lv_menu.c **** }
 806              		.loc 1 137 0
 807 003e 2000     		movs	r0, r4
 808 0040 00E0     		b	.L32
 809              	.L33:
 130:..\..\..\arduinoLCD\test\Pain Drain\libraries\lvgl\src\extra\widgets\menu/lv_menu.c ****         strcpy(page->title, title);
 810              		.loc 1 130 0
 811 0042 0020     		movs	r0, #0
 812              	.L32:
 138:..\..\..\arduinoLCD\test\Pain Drain\libraries\lvgl\src\extra\widgets\menu/lv_menu.c **** 
 813              		.loc 1 138 0
 814              		@ sp needed
 815              	.LVL118:
 816              	.LVL119:
 817 0044 70BD     		pop	{r4, r5, r6, pc}
 818              	.L35:
 819 0046 C046     		.align	2
 820              	.L34:
 821 0048 00000000 		.word	.LANCHOR0
 822              		.cfi_endproc
 823              	.LFE165:
 824              		.size	lv_menu_page_create, .-lv_menu_page_create
 825              		.section	.text.lv_menu_cont_create,"ax",%progbits
 826              		.align	2
 827              		.global	lv_menu_cont_create
 828              		.code	16
 829              		.thumb_func
 830              		.type	lv_menu_cont_create, %function
 831              	lv_menu_cont_create:
 832              	.LFB166:
 141:..\..\..\arduinoLCD\test\Pain Drain\libraries\lvgl\src\extra\widgets\menu/lv_menu.c ****     LV_LOG_INFO("begin");
 833              		.loc 1 141 0
 834              		.cfi_startproc
 835              		@ args = 0, pretend = 0, frame = 0
 836              		@ frame_needed = 0, uses_anonymous_args = 0
ARM GAS  C:\Users\haske\AppData\Local\Temp\ccp0JrPn.s 			page 30


 837              	.LVL120:
 838 0000 10B5     		push	{r4, lr}
 839              		.cfi_def_cfa_offset 8
 840              		.cfi_offset 4, -8
 841              		.cfi_offset 14, -4
 842 0002 0100     		movs	r1, r0
 143:..\..\..\arduinoLCD\test\Pain Drain\libraries\lvgl\src\extra\widgets\menu/lv_menu.c ****     lv_obj_class_init_obj(obj);
 843              		.loc 1 143 0
 844 0004 0448     		ldr	r0, .L37
 845              	.LVL121:
 846 0006 7030     		adds	r0, r0, #112
 847 0008 FFF7FEFF 		bl	lv_obj_class_create_obj
 848              	.LVL122:
 849 000c 0400     		movs	r4, r0
 850              	.LVL123:
 144:..\..\..\arduinoLCD\test\Pain Drain\libraries\lvgl\src\extra\widgets\menu/lv_menu.c ****     return obj;
 851              		.loc 1 144 0
 852 000e FFF7FEFF 		bl	lv_obj_class_init_obj
 853              	.LVL124:
 146:..\..\..\arduinoLCD\test\Pain Drain\libraries\lvgl\src\extra\widgets\menu/lv_menu.c **** 
 854              		.loc 1 146 0
 855 0012 2000     		movs	r0, r4
 856              		@ sp needed
 857              	.LVL125:
 858 0014 10BD     		pop	{r4, pc}
 859              	.L38:
 860 0016 C046     		.align	2
 861              	.L37:
 862 0018 00000000 		.word	.LANCHOR0
 863              		.cfi_endproc
 864              	.LFE166:
 865              		.size	lv_menu_cont_create, .-lv_menu_cont_create
 866              		.section	.text.lv_menu_section_create,"ax",%progbits
 867              		.align	2
 868              		.global	lv_menu_section_create
 869              		.code	16
 870              		.thumb_func
 871              		.type	lv_menu_section_create, %function
 872              	lv_menu_section_create:
 873              	.LFB167:
 149:..\..\..\arduinoLCD\test\Pain Drain\libraries\lvgl\src\extra\widgets\menu/lv_menu.c ****     LV_LOG_INFO("begin");
 874              		.loc 1 149 0
 875              		.cfi_startproc
 876              		@ args = 0, pretend = 0, frame = 0
 877              		@ frame_needed = 0, uses_anonymous_args = 0
 878              	.LVL126:
 879 0000 10B5     		push	{r4, lr}
 880              		.cfi_def_cfa_offset 8
 881              		.cfi_offset 4, -8
 882              		.cfi_offset 14, -4
 883 0002 0100     		movs	r1, r0
 151:..\..\..\arduinoLCD\test\Pain Drain\libraries\lvgl\src\extra\widgets\menu/lv_menu.c ****     lv_obj_class_init_obj(obj);
 884              		.loc 1 151 0
 885 0004 0448     		ldr	r0, .L40
 886              	.LVL127:
 887 0006 0C30     		adds	r0, r0, #12
 888 0008 FFF7FEFF 		bl	lv_obj_class_create_obj
ARM GAS  C:\Users\haske\AppData\Local\Temp\ccp0JrPn.s 			page 31


 889              	.LVL128:
 890 000c 0400     		movs	r4, r0
 891              	.LVL129:
 152:..\..\..\arduinoLCD\test\Pain Drain\libraries\lvgl\src\extra\widgets\menu/lv_menu.c ****     return obj;
 892              		.loc 1 152 0
 893 000e FFF7FEFF 		bl	lv_obj_class_init_obj
 894              	.LVL130:
 154:..\..\..\arduinoLCD\test\Pain Drain\libraries\lvgl\src\extra\widgets\menu/lv_menu.c **** 
 895              		.loc 1 154 0
 896 0012 2000     		movs	r0, r4
 897              		@ sp needed
 898              	.LVL131:
 899 0014 10BD     		pop	{r4, pc}
 900              	.L41:
 901 0016 C046     		.align	2
 902              	.L40:
 903 0018 80000000 		.word	.LANCHOR1
 904              		.cfi_endproc
 905              	.LFE167:
 906              		.size	lv_menu_section_create, .-lv_menu_section_create
 907              		.section	.text.lv_menu_separator_create,"ax",%progbits
 908              		.align	2
 909              		.global	lv_menu_separator_create
 910              		.code	16
 911              		.thumb_func
 912              		.type	lv_menu_separator_create, %function
 913              	lv_menu_separator_create:
 914              	.LFB168:
 157:..\..\..\arduinoLCD\test\Pain Drain\libraries\lvgl\src\extra\widgets\menu/lv_menu.c ****     LV_LOG_INFO("begin");
 915              		.loc 1 157 0
 916              		.cfi_startproc
 917              		@ args = 0, pretend = 0, frame = 0
 918              		@ frame_needed = 0, uses_anonymous_args = 0
 919              	.LVL132:
 920 0000 10B5     		push	{r4, lr}
 921              		.cfi_def_cfa_offset 8
 922              		.cfi_offset 4, -8
 923              		.cfi_offset 14, -4
 924 0002 0100     		movs	r1, r0
 159:..\..\..\arduinoLCD\test\Pain Drain\libraries\lvgl\src\extra\widgets\menu/lv_menu.c ****     lv_obj_class_init_obj(obj);
 925              		.loc 1 159 0
 926 0004 0448     		ldr	r0, .L43
 927              	.LVL133:
 928 0006 2830     		adds	r0, r0, #40
 929 0008 FFF7FEFF 		bl	lv_obj_class_create_obj
 930              	.LVL134:
 931 000c 0400     		movs	r4, r0
 932              	.LVL135:
 160:..\..\..\arduinoLCD\test\Pain Drain\libraries\lvgl\src\extra\widgets\menu/lv_menu.c ****     return obj;
 933              		.loc 1 160 0
 934 000e FFF7FEFF 		bl	lv_obj_class_init_obj
 935              	.LVL136:
 162:..\..\..\arduinoLCD\test\Pain Drain\libraries\lvgl\src\extra\widgets\menu/lv_menu.c **** 
 936              		.loc 1 162 0
 937 0012 2000     		movs	r0, r4
 938              		@ sp needed
 939              	.LVL137:
ARM GAS  C:\Users\haske\AppData\Local\Temp\ccp0JrPn.s 			page 32


 940 0014 10BD     		pop	{r4, pc}
 941              	.L44:
 942 0016 C046     		.align	2
 943              	.L43:
 944 0018 80000000 		.word	.LANCHOR1
 945              		.cfi_endproc
 946              	.LFE168:
 947              		.size	lv_menu_separator_create, .-lv_menu_separator_create
 948              		.section	.text.lv_menu_set_mode_header,"ax",%progbits
 949              		.align	2
 950              		.global	lv_menu_set_mode_header
 951              		.code	16
 952              		.thumb_func
 953              		.type	lv_menu_set_mode_header, %function
 954              	lv_menu_set_mode_header:
 955              	.LFB172:
 336:..\..\..\arduinoLCD\test\Pain Drain\libraries\lvgl\src\extra\widgets\menu/lv_menu.c ****     LV_ASSERT_OBJ(obj, MY_CLASS);
 956              		.loc 1 336 0
 957              		.cfi_startproc
 958              		@ args = 0, pretend = 0, frame = 0
 959              		@ frame_needed = 0, uses_anonymous_args = 0
 960              	.LVL138:
 961 0000 70B5     		push	{r4, r5, r6, lr}
 962              		.cfi_def_cfa_offset 16
 963              		.cfi_offset 4, -16
 964              		.cfi_offset 5, -12
 965              		.cfi_offset 6, -8
 966              		.cfi_offset 14, -4
 967 0002 0400     		movs	r4, r0
 968              	.LVL139:
 341:..\..\..\arduinoLCD\test\Pain Drain\libraries\lvgl\src\extra\widgets\menu/lv_menu.c ****         menu->mode_header = mode_header;
 969              		.loc 1 341 0
 970 0004 6223     		movs	r3, #98
 971 0006 C35C     		ldrb	r3, [r0, r3]
 972 0008 5B07     		lsls	r3, r3, #29
 973 000a 9B0F     		lsrs	r3, r3, #30
 974 000c 8B42     		cmp	r3, r1
 975 000e 10D0     		beq	.L45
 342:..\..\..\arduinoLCD\test\Pain Drain\libraries\lvgl\src\extra\widgets\menu/lv_menu.c ****         lv_menu_refr_main_header_mode(obj);
 976              		.loc 1 342 0
 977 0010 6225     		movs	r5, #98
 978 0012 0323     		movs	r3, #3
 979 0014 1940     		ands	r1, r3
 980              	.LVL140:
 981 0016 4900     		lsls	r1, r1, #1
 982 0018 435D     		ldrb	r3, [r0, r5]
 983 001a 0622     		movs	r2, #6
 984 001c 9343     		bics	r3, r2
 985 001e 1943     		orrs	r1, r3
 986 0020 4155     		strb	r1, [r0, r5]
 343:..\..\..\arduinoLCD\test\Pain Drain\libraries\lvgl\src\extra\widgets\menu/lv_menu.c ****         if(menu->sidebar_generated) lv_menu_refr_sidebar_header_mode(obj);
 987              		.loc 1 343 0
 988 0022 FFF7FEFF 		bl	lv_menu_refr_main_header_mode
 989              	.LVL141:
 344:..\..\..\arduinoLCD\test\Pain Drain\libraries\lvgl\src\extra\widgets\menu/lv_menu.c ****     }
 990              		.loc 1 344 0
 991 0026 635D     		ldrb	r3, [r4, r5]
ARM GAS  C:\Users\haske\AppData\Local\Temp\ccp0JrPn.s 			page 33


 992 0028 DB07     		lsls	r3, r3, #31
 993 002a 02D5     		bpl	.L45
 344:..\..\..\arduinoLCD\test\Pain Drain\libraries\lvgl\src\extra\widgets\menu/lv_menu.c ****     }
 994              		.loc 1 344 0 is_stmt 0 discriminator 1
 995 002c 2000     		movs	r0, r4
 996 002e FFF7FEFF 		bl	lv_menu_refr_sidebar_header_mode
 997              	.LVL142:
 998              	.L45:
 346:..\..\..\arduinoLCD\test\Pain Drain\libraries\lvgl\src\extra\widgets\menu/lv_menu.c **** 
 999              		.loc 1 346 0 is_stmt 1
 1000              		@ sp needed
 1001              	.LVL143:
 1002 0032 70BD     		pop	{r4, r5, r6, pc}
 1003              		.cfi_endproc
 1004              	.LFE172:
 1005              		.size	lv_menu_set_mode_header, .-lv_menu_set_mode_header
 1006              		.section	.text.lv_menu_set_load_page_event,"ax",%progbits
 1007              		.align	2
 1008              		.global	lv_menu_set_load_page_event
 1009              		.code	16
 1010              		.thumb_func
 1011              		.type	lv_menu_set_load_page_event, %function
 1012              	lv_menu_set_load_page_event:
 1013              	.LFB174:
 361:..\..\..\arduinoLCD\test\Pain Drain\libraries\lvgl\src\extra\widgets\menu/lv_menu.c ****     LV_ASSERT_OBJ(menu, MY_CLASS);
 1014              		.loc 1 361 0
 1015              		.cfi_startproc
 1016              		@ args = 0, pretend = 0, frame = 0
 1017              		@ frame_needed = 0, uses_anonymous_args = 0
 1018              	.LVL144:
 1019 0000 F8B5     		push	{r3, r4, r5, r6, r7, lr}
 1020              		.cfi_def_cfa_offset 24
 1021              		.cfi_offset 3, -24
 1022              		.cfi_offset 4, -20
 1023              		.cfi_offset 5, -16
 1024              		.cfi_offset 6, -12
 1025              		.cfi_offset 7, -8
 1026              		.cfi_offset 14, -4
 1027 0002 0700     		movs	r7, r0
 1028 0004 0C00     		movs	r4, r1
 1029 0006 1600     		movs	r6, r2
 364:..\..\..\arduinoLCD\test\Pain Drain\libraries\lvgl\src\extra\widgets\menu/lv_menu.c ****     lv_obj_clear_flag(obj, LV_OBJ_FLAG_SCROLLABLE);
 1030              		.loc 1 364 0
 1031 0008 0221     		movs	r1, #2
 1032              	.LVL145:
 1033 000a 2000     		movs	r0, r4
 1034              	.LVL146:
 1035 000c FFF7FEFF 		bl	lv_obj_add_flag
 1036              	.LVL147:
 365:..\..\..\arduinoLCD\test\Pain Drain\libraries\lvgl\src\extra\widgets\menu/lv_menu.c ****     lv_obj_add_flag(obj, LV_OBJ_FLAG_SCROLL_ON_FOCUS);
 1037              		.loc 1 365 0
 1038 0010 1021     		movs	r1, #16
 1039 0012 2000     		movs	r0, r4
 1040 0014 FFF7FEFF 		bl	lv_obj_clear_flag
 1041              	.LVL148:
 366:..\..\..\arduinoLCD\test\Pain Drain\libraries\lvgl\src\extra\widgets\menu/lv_menu.c **** 
 1042              		.loc 1 366 0
ARM GAS  C:\Users\haske\AppData\Local\Temp\ccp0JrPn.s 			page 34


 1043 0018 8021     		movs	r1, #128
 1044 001a C900     		lsls	r1, r1, #3
 1045 001c 2000     		movs	r0, r4
 1046 001e FFF7FEFF 		bl	lv_obj_add_flag
 1047              	.LVL149:
 369:..\..\..\arduinoLCD\test\Pain Drain\libraries\lvgl\src\extra\widgets\menu/lv_menu.c ****         lv_event_send(obj, LV_EVENT_DELETE, NULL);
 1048              		.loc 1 369 0
 1049 0022 1149     		ldr	r1, .L49
 1050 0024 2000     		movs	r0, r4
 1051 0026 FFF7FEFF 		bl	lv_obj_remove_event_cb
 1052              	.LVL150:
 1053 002a 0028     		cmp	r0, #0
 1054 002c 08D0     		beq	.L48
 370:..\..\..\arduinoLCD\test\Pain Drain\libraries\lvgl\src\extra\widgets\menu/lv_menu.c ****         lv_obj_remove_event_cb(obj, lv_menu_obj_del_event_cb);
 1055              		.loc 1 370 0
 1056 002e 0022     		movs	r2, #0
 1057 0030 2121     		movs	r1, #33
 1058 0032 2000     		movs	r0, r4
 1059 0034 FFF7FEFF 		bl	lv_event_send
 1060              	.LVL151:
 371:..\..\..\arduinoLCD\test\Pain Drain\libraries\lvgl\src\extra\widgets\menu/lv_menu.c ****     }
 1061              		.loc 1 371 0
 1062 0038 0C49     		ldr	r1, .L49+4
 1063 003a 2000     		movs	r0, r4
 1064 003c FFF7FEFF 		bl	lv_obj_remove_event_cb
 1065              	.LVL152:
 1066              	.L48:
 374:..\..\..\arduinoLCD\test\Pain Drain\libraries\lvgl\src\extra\widgets\menu/lv_menu.c ****     event_data->menu = menu;
 1067              		.loc 1 374 0
 1068 0040 0820     		movs	r0, #8
 1069 0042 FFF7FEFF 		bl	lv_mem_alloc
 1070              	.LVL153:
 1071 0046 0500     		movs	r5, r0
 1072              	.LVL154:
 375:..\..\..\arduinoLCD\test\Pain Drain\libraries\lvgl\src\extra\widgets\menu/lv_menu.c ****     event_data->page = page;
 1073              		.loc 1 375 0
 1074 0048 0760     		str	r7, [r0]
 376:..\..\..\arduinoLCD\test\Pain Drain\libraries\lvgl\src\extra\widgets\menu/lv_menu.c **** 
 1075              		.loc 1 376 0
 1076 004a 4660     		str	r6, [r0, #4]
 378:..\..\..\arduinoLCD\test\Pain Drain\libraries\lvgl\src\extra\widgets\menu/lv_menu.c ****     lv_obj_add_event_cb(obj, lv_menu_obj_del_event_cb, LV_EVENT_DELETE, event_data);
 1077              		.loc 1 378 0
 1078 004c 0300     		movs	r3, r0
 1079 004e 0722     		movs	r2, #7
 1080 0050 0549     		ldr	r1, .L49
 1081 0052 2000     		movs	r0, r4
 1082              	.LVL155:
 1083 0054 FFF7FEFF 		bl	lv_obj_add_event_cb
 1084              	.LVL156:
 379:..\..\..\arduinoLCD\test\Pain Drain\libraries\lvgl\src\extra\widgets\menu/lv_menu.c **** }
 1085              		.loc 1 379 0
 1086 0058 2B00     		movs	r3, r5
 1087 005a 2122     		movs	r2, #33
 1088 005c 0349     		ldr	r1, .L49+4
 1089 005e 2000     		movs	r0, r4
 1090 0060 FFF7FEFF 		bl	lv_obj_add_event_cb
 1091              	.LVL157:
ARM GAS  C:\Users\haske\AppData\Local\Temp\ccp0JrPn.s 			page 35


 380:..\..\..\arduinoLCD\test\Pain Drain\libraries\lvgl\src\extra\widgets\menu/lv_menu.c **** 
 1092              		.loc 1 380 0
 1093              		@ sp needed
 1094              	.LVL158:
 1095              	.LVL159:
 1096              	.LVL160:
 1097              	.LVL161:
 1098 0064 F8BD     		pop	{r3, r4, r5, r6, r7, pc}
 1099              	.L50:
 1100 0066 C046     		.align	2
 1101              	.L49:
 1102 0068 00000000 		.word	lv_menu_load_page_event_cb
 1103 006c 00000000 		.word	lv_menu_obj_del_event_cb
 1104              		.cfi_endproc
 1105              	.LFE174:
 1106              		.size	lv_menu_set_load_page_event, .-lv_menu_set_load_page_event
 1107              		.section	.text.lv_menu_get_cur_main_page,"ax",%progbits
 1108              		.align	2
 1109              		.global	lv_menu_get_cur_main_page
 1110              		.code	16
 1111              		.thumb_func
 1112              		.type	lv_menu_get_cur_main_page, %function
 1113              	lv_menu_get_cur_main_page:
 1114              	.LFB175:
 386:..\..\..\arduinoLCD\test\Pain Drain\libraries\lvgl\src\extra\widgets\menu/lv_menu.c ****     LV_ASSERT_OBJ(obj, MY_CLASS);
 1115              		.loc 1 386 0
 1116              		.cfi_startproc
 1117              		@ args = 0, pretend = 0, frame = 0
 1118              		@ frame_needed = 0, uses_anonymous_args = 0
 1119              		@ link register save eliminated.
 1120              	.LVL162:
 390:..\..\..\arduinoLCD\test\Pain Drain\libraries\lvgl\src\extra\widgets\menu/lv_menu.c **** }
 1121              		.loc 1 390 0
 1122 0000 C06A     		ldr	r0, [r0, #44]
 1123              	.LVL163:
 391:..\..\..\arduinoLCD\test\Pain Drain\libraries\lvgl\src\extra\widgets\menu/lv_menu.c **** 
 1124              		.loc 1 391 0
 1125              		@ sp needed
 1126 0002 7047     		bx	lr
 1127              		.cfi_endproc
 1128              	.LFE175:
 1129              		.size	lv_menu_get_cur_main_page, .-lv_menu_get_cur_main_page
 1130              		.section	.text.lv_menu_get_cur_sidebar_page,"ax",%progbits
 1131              		.align	2
 1132              		.global	lv_menu_get_cur_sidebar_page
 1133              		.code	16
 1134              		.thumb_func
 1135              		.type	lv_menu_get_cur_sidebar_page, %function
 1136              	lv_menu_get_cur_sidebar_page:
 1137              	.LFB176:
 394:..\..\..\arduinoLCD\test\Pain Drain\libraries\lvgl\src\extra\widgets\menu/lv_menu.c ****     LV_ASSERT_OBJ(obj, MY_CLASS);
 1138              		.loc 1 394 0
 1139              		.cfi_startproc
 1140              		@ args = 0, pretend = 0, frame = 0
 1141              		@ frame_needed = 0, uses_anonymous_args = 0
 1142              		@ link register save eliminated.
 1143              	.LVL164:
ARM GAS  C:\Users\haske\AppData\Local\Temp\ccp0JrPn.s 			page 36


 398:..\..\..\arduinoLCD\test\Pain Drain\libraries\lvgl\src\extra\widgets\menu/lv_menu.c **** }
 1144              		.loc 1 398 0
 1145 0000 006C     		ldr	r0, [r0, #64]
 1146              	.LVL165:
 399:..\..\..\arduinoLCD\test\Pain Drain\libraries\lvgl\src\extra\widgets\menu/lv_menu.c **** 
 1147              		.loc 1 399 0
 1148              		@ sp needed
 1149 0002 7047     		bx	lr
 1150              		.cfi_endproc
 1151              	.LFE176:
 1152              		.size	lv_menu_get_cur_sidebar_page, .-lv_menu_get_cur_sidebar_page
 1153              		.section	.text.lv_menu_value_changed_event_cb,"ax",%progbits
 1154              		.align	2
 1155              		.code	16
 1156              		.thumb_func
 1157              		.type	lv_menu_value_changed_event_cb, %function
 1158              	lv_menu_value_changed_event_cb:
 1159              	.LFB194:
 700:..\..\..\arduinoLCD\test\Pain Drain\libraries\lvgl\src\extra\widgets\menu/lv_menu.c **** 
 701:..\..\..\arduinoLCD\test\Pain Drain\libraries\lvgl\src\extra\widgets\menu/lv_menu.c **** static void lv_menu_back_event_cb(lv_event_t * e)
 702:..\..\..\arduinoLCD\test\Pain Drain\libraries\lvgl\src\extra\widgets\menu/lv_menu.c **** {
 703:..\..\..\arduinoLCD\test\Pain Drain\libraries\lvgl\src\extra\widgets\menu/lv_menu.c ****     lv_event_code_t code = lv_event_get_code(e);
 704:..\..\..\arduinoLCD\test\Pain Drain\libraries\lvgl\src\extra\widgets\menu/lv_menu.c ****     /* LV_EVENT_CLICKED */
 705:..\..\..\arduinoLCD\test\Pain Drain\libraries\lvgl\src\extra\widgets\menu/lv_menu.c ****     if(code == LV_EVENT_CLICKED) {
 706:..\..\..\arduinoLCD\test\Pain Drain\libraries\lvgl\src\extra\widgets\menu/lv_menu.c ****         lv_obj_t * obj = lv_event_get_target(e);
 707:..\..\..\arduinoLCD\test\Pain Drain\libraries\lvgl\src\extra\widgets\menu/lv_menu.c ****         lv_menu_t * menu = (lv_menu_t *)lv_event_get_user_data(e);
 708:..\..\..\arduinoLCD\test\Pain Drain\libraries\lvgl\src\extra\widgets\menu/lv_menu.c **** 
 709:..\..\..\arduinoLCD\test\Pain Drain\libraries\lvgl\src\extra\widgets\menu/lv_menu.c ****         if(!(obj == menu->main_header_back_btn || obj == menu->sidebar_header_back_btn)) return;
 710:..\..\..\arduinoLCD\test\Pain Drain\libraries\lvgl\src\extra\widgets\menu/lv_menu.c **** 
 711:..\..\..\arduinoLCD\test\Pain Drain\libraries\lvgl\src\extra\widgets\menu/lv_menu.c ****         menu->prev_depth = menu->cur_depth; /* Save the previous value for user event handler */
 712:..\..\..\arduinoLCD\test\Pain Drain\libraries\lvgl\src\extra\widgets\menu/lv_menu.c **** 
 713:..\..\..\arduinoLCD\test\Pain Drain\libraries\lvgl\src\extra\widgets\menu/lv_menu.c ****         if(lv_menu_back_btn_is_root((lv_obj_t *)menu, obj)) return;
 714:..\..\..\arduinoLCD\test\Pain Drain\libraries\lvgl\src\extra\widgets\menu/lv_menu.c **** 
 715:..\..\..\arduinoLCD\test\Pain Drain\libraries\lvgl\src\extra\widgets\menu/lv_menu.c ****         lv_ll_t * history_ll = &(menu->history_ll);
 716:..\..\..\arduinoLCD\test\Pain Drain\libraries\lvgl\src\extra\widgets\menu/lv_menu.c **** 
 717:..\..\..\arduinoLCD\test\Pain Drain\libraries\lvgl\src\extra\widgets\menu/lv_menu.c ****         /* The current menu */
 718:..\..\..\arduinoLCD\test\Pain Drain\libraries\lvgl\src\extra\widgets\menu/lv_menu.c ****         lv_menu_history_t * act_hist = _lv_ll_get_head(history_ll);
 719:..\..\..\arduinoLCD\test\Pain Drain\libraries\lvgl\src\extra\widgets\menu/lv_menu.c **** 
 720:..\..\..\arduinoLCD\test\Pain Drain\libraries\lvgl\src\extra\widgets\menu/lv_menu.c ****         /* The previous menu */
 721:..\..\..\arduinoLCD\test\Pain Drain\libraries\lvgl\src\extra\widgets\menu/lv_menu.c ****         lv_menu_history_t * prev_hist = _lv_ll_get_next(history_ll, act_hist);
 722:..\..\..\arduinoLCD\test\Pain Drain\libraries\lvgl\src\extra\widgets\menu/lv_menu.c **** 
 723:..\..\..\arduinoLCD\test\Pain Drain\libraries\lvgl\src\extra\widgets\menu/lv_menu.c ****         if(prev_hist != NULL) {
 724:..\..\..\arduinoLCD\test\Pain Drain\libraries\lvgl\src\extra\widgets\menu/lv_menu.c ****             /* Previous menu exists */
 725:..\..\..\arduinoLCD\test\Pain Drain\libraries\lvgl\src\extra\widgets\menu/lv_menu.c ****             /* Delete the current item from the history */
 726:..\..\..\arduinoLCD\test\Pain Drain\libraries\lvgl\src\extra\widgets\menu/lv_menu.c ****             _lv_ll_remove(history_ll, act_hist);
 727:..\..\..\arduinoLCD\test\Pain Drain\libraries\lvgl\src\extra\widgets\menu/lv_menu.c ****             lv_mem_free(act_hist);
 728:..\..\..\arduinoLCD\test\Pain Drain\libraries\lvgl\src\extra\widgets\menu/lv_menu.c ****             menu->cur_depth--;
 729:..\..\..\arduinoLCD\test\Pain Drain\libraries\lvgl\src\extra\widgets\menu/lv_menu.c ****             /* Create the previous menu.
 730:..\..\..\arduinoLCD\test\Pain Drain\libraries\lvgl\src\extra\widgets\menu/lv_menu.c ****             *  Remove it from the history because `lv_menu_set_page` will add it again */
 731:..\..\..\arduinoLCD\test\Pain Drain\libraries\lvgl\src\extra\widgets\menu/lv_menu.c ****             _lv_ll_remove(history_ll, prev_hist);
 732:..\..\..\arduinoLCD\test\Pain Drain\libraries\lvgl\src\extra\widgets\menu/lv_menu.c ****             menu->cur_depth--;
 733:..\..\..\arduinoLCD\test\Pain Drain\libraries\lvgl\src\extra\widgets\menu/lv_menu.c ****             lv_menu_set_page(&(menu->obj), prev_hist->page);
 734:..\..\..\arduinoLCD\test\Pain Drain\libraries\lvgl\src\extra\widgets\menu/lv_menu.c **** 
 735:..\..\..\arduinoLCD\test\Pain Drain\libraries\lvgl\src\extra\widgets\menu/lv_menu.c ****             lv_mem_free(prev_hist);
 736:..\..\..\arduinoLCD\test\Pain Drain\libraries\lvgl\src\extra\widgets\menu/lv_menu.c ****         }
 737:..\..\..\arduinoLCD\test\Pain Drain\libraries\lvgl\src\extra\widgets\menu/lv_menu.c ****     }
 738:..\..\..\arduinoLCD\test\Pain Drain\libraries\lvgl\src\extra\widgets\menu/lv_menu.c **** }
ARM GAS  C:\Users\haske\AppData\Local\Temp\ccp0JrPn.s 			page 37


 739:..\..\..\arduinoLCD\test\Pain Drain\libraries\lvgl\src\extra\widgets\menu/lv_menu.c **** 
 740:..\..\..\arduinoLCD\test\Pain Drain\libraries\lvgl\src\extra\widgets\menu/lv_menu.c **** static void lv_menu_value_changed_event_cb(lv_event_t * e)
 741:..\..\..\arduinoLCD\test\Pain Drain\libraries\lvgl\src\extra\widgets\menu/lv_menu.c **** {
 1160              		.loc 1 741 0
 1161              		.cfi_startproc
 1162              		@ args = 0, pretend = 0, frame = 0
 1163              		@ frame_needed = 0, uses_anonymous_args = 0
 1164              	.LVL166:
 1165 0000 10B5     		push	{r4, lr}
 1166              		.cfi_def_cfa_offset 8
 1167              		.cfi_offset 4, -8
 1168              		.cfi_offset 14, -4
 742:..\..\..\arduinoLCD\test\Pain Drain\libraries\lvgl\src\extra\widgets\menu/lv_menu.c ****     lv_obj_t * obj = lv_event_get_user_data(e);
 1169              		.loc 1 742 0
 1170 0002 FFF7FEFF 		bl	lv_event_get_user_data
 1171              	.LVL167:
 1172 0006 0400     		movs	r4, r0
 1173              	.LVL168:
 743:..\..\..\arduinoLCD\test\Pain Drain\libraries\lvgl\src\extra\widgets\menu/lv_menu.c ****     lv_menu_t * menu = (lv_menu_t *)obj;
 744:..\..\..\arduinoLCD\test\Pain Drain\libraries\lvgl\src\extra\widgets\menu/lv_menu.c **** 
 745:..\..\..\arduinoLCD\test\Pain Drain\libraries\lvgl\src\extra\widgets\menu/lv_menu.c ****     lv_menu_page_t * main_page = (lv_menu_page_t *)lv_menu_get_cur_main_page(obj);
 1174              		.loc 1 745 0
 1175 0008 FFF7FEFF 		bl	lv_menu_get_cur_main_page
 1176              	.LVL169:
 746:..\..\..\arduinoLCD\test\Pain Drain\libraries\lvgl\src\extra\widgets\menu/lv_menu.c ****     if(main_page != NULL && menu->main_header_title != NULL) {
 1177              		.loc 1 746 0
 1178 000c 0028     		cmp	r0, #0
 1179 000e 11D0     		beq	.L54
 1180              		.loc 1 746 0 is_stmt 0 discriminator 1
 1181 0010 A36B     		ldr	r3, [r4, #56]
 1182 0012 002B     		cmp	r3, #0
 1183 0014 0ED0     		beq	.L54
 747:..\..\..\arduinoLCD\test\Pain Drain\libraries\lvgl\src\extra\widgets\menu/lv_menu.c ****         if(main_page->title != NULL) {
 1184              		.loc 1 747 0 is_stmt 1
 1185 0016 416A     		ldr	r1, [r0, #36]
 1186 0018 0029     		cmp	r1, #0
 1187 001a 07D0     		beq	.L55
 748:..\..\..\arduinoLCD\test\Pain Drain\libraries\lvgl\src\extra\widgets\menu/lv_menu.c ****             lv_label_set_text(menu->main_header_title, main_page->title);
 1188              		.loc 1 748 0
 1189 001c 1800     		movs	r0, r3
 1190              	.LVL170:
 1191 001e FFF7FEFF 		bl	lv_label_set_text
 1192              	.LVL171:
 749:..\..\..\arduinoLCD\test\Pain Drain\libraries\lvgl\src\extra\widgets\menu/lv_menu.c ****             lv_obj_clear_flag(menu->main_header_title, LV_OBJ_FLAG_HIDDEN);
 1193              		.loc 1 749 0
 1194 0022 0121     		movs	r1, #1
 1195 0024 A06B     		ldr	r0, [r4, #56]
 1196 0026 FFF7FEFF 		bl	lv_obj_clear_flag
 1197              	.LVL172:
 1198 002a 03E0     		b	.L54
 1199              	.LVL173:
 1200              	.L55:
 750:..\..\..\arduinoLCD\test\Pain Drain\libraries\lvgl\src\extra\widgets\menu/lv_menu.c ****         }
 751:..\..\..\arduinoLCD\test\Pain Drain\libraries\lvgl\src\extra\widgets\menu/lv_menu.c ****         else {
 752:..\..\..\arduinoLCD\test\Pain Drain\libraries\lvgl\src\extra\widgets\menu/lv_menu.c ****             lv_obj_add_flag(menu->main_header_title, LV_OBJ_FLAG_HIDDEN);
 1201              		.loc 1 752 0
 1202 002c 0121     		movs	r1, #1
ARM GAS  C:\Users\haske\AppData\Local\Temp\ccp0JrPn.s 			page 38


 1203 002e 1800     		movs	r0, r3
 1204              	.LVL174:
 1205 0030 FFF7FEFF 		bl	lv_obj_add_flag
 1206              	.LVL175:
 1207              	.L54:
 753:..\..\..\arduinoLCD\test\Pain Drain\libraries\lvgl\src\extra\widgets\menu/lv_menu.c ****         }
 754:..\..\..\arduinoLCD\test\Pain Drain\libraries\lvgl\src\extra\widgets\menu/lv_menu.c ****     }
 755:..\..\..\arduinoLCD\test\Pain Drain\libraries\lvgl\src\extra\widgets\menu/lv_menu.c **** 
 756:..\..\..\arduinoLCD\test\Pain Drain\libraries\lvgl\src\extra\widgets\menu/lv_menu.c ****     lv_menu_page_t * sidebar_page = (lv_menu_page_t *)lv_menu_get_cur_sidebar_page(obj);
 1208              		.loc 1 756 0
 1209 0034 2000     		movs	r0, r4
 1210 0036 FFF7FEFF 		bl	lv_menu_get_cur_sidebar_page
 1211              	.LVL176:
 757:..\..\..\arduinoLCD\test\Pain Drain\libraries\lvgl\src\extra\widgets\menu/lv_menu.c ****     if(sidebar_page != NULL && menu->sidebar_header_title != NULL) {
 1212              		.loc 1 757 0
 1213 003a 0028     		cmp	r0, #0
 1214 003c 11D0     		beq	.L53
 1215              		.loc 1 757 0 is_stmt 0 discriminator 1
 1216 003e E36C     		ldr	r3, [r4, #76]
 1217 0040 002B     		cmp	r3, #0
 1218 0042 0ED0     		beq	.L53
 758:..\..\..\arduinoLCD\test\Pain Drain\libraries\lvgl\src\extra\widgets\menu/lv_menu.c ****         if(sidebar_page->title != NULL) {
 1219              		.loc 1 758 0 is_stmt 1
 1220 0044 416A     		ldr	r1, [r0, #36]
 1221 0046 0029     		cmp	r1, #0
 1222 0048 07D0     		beq	.L57
 759:..\..\..\arduinoLCD\test\Pain Drain\libraries\lvgl\src\extra\widgets\menu/lv_menu.c ****             lv_label_set_text(menu->sidebar_header_title, sidebar_page->title);
 1223              		.loc 1 759 0
 1224 004a 1800     		movs	r0, r3
 1225              	.LVL177:
 1226 004c FFF7FEFF 		bl	lv_label_set_text
 1227              	.LVL178:
 760:..\..\..\arduinoLCD\test\Pain Drain\libraries\lvgl\src\extra\widgets\menu/lv_menu.c ****             lv_obj_clear_flag(menu->sidebar_header_title, LV_OBJ_FLAG_HIDDEN);
 1228              		.loc 1 760 0
 1229 0050 E06C     		ldr	r0, [r4, #76]
 1230 0052 0121     		movs	r1, #1
 1231 0054 FFF7FEFF 		bl	lv_obj_clear_flag
 1232              	.LVL179:
 1233 0058 03E0     		b	.L53
 1234              	.LVL180:
 1235              	.L57:
 761:..\..\..\arduinoLCD\test\Pain Drain\libraries\lvgl\src\extra\widgets\menu/lv_menu.c ****         }
 762:..\..\..\arduinoLCD\test\Pain Drain\libraries\lvgl\src\extra\widgets\menu/lv_menu.c ****         else {
 763:..\..\..\arduinoLCD\test\Pain Drain\libraries\lvgl\src\extra\widgets\menu/lv_menu.c ****             lv_obj_add_flag(menu->sidebar_header_title, LV_OBJ_FLAG_HIDDEN);
 1236              		.loc 1 763 0
 1237 005a 0121     		movs	r1, #1
 1238 005c 1800     		movs	r0, r3
 1239              	.LVL181:
 1240 005e FFF7FEFF 		bl	lv_obj_add_flag
 1241              	.LVL182:
 1242              	.L53:
 764:..\..\..\arduinoLCD\test\Pain Drain\libraries\lvgl\src\extra\widgets\menu/lv_menu.c ****         }
 765:..\..\..\arduinoLCD\test\Pain Drain\libraries\lvgl\src\extra\widgets\menu/lv_menu.c ****     }
 766:..\..\..\arduinoLCD\test\Pain Drain\libraries\lvgl\src\extra\widgets\menu/lv_menu.c **** }
 1243              		.loc 1 766 0
 1244              		@ sp needed
 1245              	.LVL183:
ARM GAS  C:\Users\haske\AppData\Local\Temp\ccp0JrPn.s 			page 39


 1246 0062 10BD     		pop	{r4, pc}
 1247              		.cfi_endproc
 1248              	.LFE194:
 1249              		.size	lv_menu_value_changed_event_cb, .-lv_menu_value_changed_event_cb
 1250              		.section	.text.lv_menu_get_main_header,"ax",%progbits
 1251              		.align	2
 1252              		.global	lv_menu_get_main_header
 1253              		.code	16
 1254              		.thumb_func
 1255              		.type	lv_menu_get_main_header, %function
 1256              	lv_menu_get_main_header:
 1257              	.LFB177:
 402:..\..\..\arduinoLCD\test\Pain Drain\libraries\lvgl\src\extra\widgets\menu/lv_menu.c ****     LV_ASSERT_OBJ(obj, MY_CLASS);
 1258              		.loc 1 402 0
 1259              		.cfi_startproc
 1260              		@ args = 0, pretend = 0, frame = 0
 1261              		@ frame_needed = 0, uses_anonymous_args = 0
 1262              		@ link register save eliminated.
 1263              	.LVL184:
 406:..\..\..\arduinoLCD\test\Pain Drain\libraries\lvgl\src\extra\widgets\menu/lv_menu.c **** }
 1264              		.loc 1 406 0
 1265 0000 006B     		ldr	r0, [r0, #48]
 1266              	.LVL185:
 407:..\..\..\arduinoLCD\test\Pain Drain\libraries\lvgl\src\extra\widgets\menu/lv_menu.c **** 
 1267              		.loc 1 407 0
 1268              		@ sp needed
 1269 0002 7047     		bx	lr
 1270              		.cfi_endproc
 1271              	.LFE177:
 1272              		.size	lv_menu_get_main_header, .-lv_menu_get_main_header
 1273              		.section	.text.lv_menu_get_main_header_back_btn,"ax",%progbits
 1274              		.align	2
 1275              		.global	lv_menu_get_main_header_back_btn
 1276              		.code	16
 1277              		.thumb_func
 1278              		.type	lv_menu_get_main_header_back_btn, %function
 1279              	lv_menu_get_main_header_back_btn:
 1280              	.LFB178:
 410:..\..\..\arduinoLCD\test\Pain Drain\libraries\lvgl\src\extra\widgets\menu/lv_menu.c ****     LV_ASSERT_OBJ(obj, MY_CLASS);
 1281              		.loc 1 410 0
 1282              		.cfi_startproc
 1283              		@ args = 0, pretend = 0, frame = 0
 1284              		@ frame_needed = 0, uses_anonymous_args = 0
 1285              		@ link register save eliminated.
 1286              	.LVL186:
 414:..\..\..\arduinoLCD\test\Pain Drain\libraries\lvgl\src\extra\widgets\menu/lv_menu.c **** }
 1287              		.loc 1 414 0
 1288 0000 406B     		ldr	r0, [r0, #52]
 1289              	.LVL187:
 415:..\..\..\arduinoLCD\test\Pain Drain\libraries\lvgl\src\extra\widgets\menu/lv_menu.c **** 
 1290              		.loc 1 415 0
 1291              		@ sp needed
 1292 0002 7047     		bx	lr
 1293              		.cfi_endproc
 1294              	.LFE178:
 1295              		.size	lv_menu_get_main_header_back_btn, .-lv_menu_get_main_header_back_btn
 1296              		.section	.text.lv_menu_get_sidebar_header,"ax",%progbits
ARM GAS  C:\Users\haske\AppData\Local\Temp\ccp0JrPn.s 			page 40


 1297              		.align	2
 1298              		.global	lv_menu_get_sidebar_header
 1299              		.code	16
 1300              		.thumb_func
 1301              		.type	lv_menu_get_sidebar_header, %function
 1302              	lv_menu_get_sidebar_header:
 1303              	.LFB179:
 418:..\..\..\arduinoLCD\test\Pain Drain\libraries\lvgl\src\extra\widgets\menu/lv_menu.c ****     LV_ASSERT_OBJ(obj, MY_CLASS);
 1304              		.loc 1 418 0
 1305              		.cfi_startproc
 1306              		@ args = 0, pretend = 0, frame = 0
 1307              		@ frame_needed = 0, uses_anonymous_args = 0
 1308              		@ link register save eliminated.
 1309              	.LVL188:
 422:..\..\..\arduinoLCD\test\Pain Drain\libraries\lvgl\src\extra\widgets\menu/lv_menu.c **** }
 1310              		.loc 1 422 0
 1311 0000 406C     		ldr	r0, [r0, #68]
 1312              	.LVL189:
 423:..\..\..\arduinoLCD\test\Pain Drain\libraries\lvgl\src\extra\widgets\menu/lv_menu.c **** 
 1313              		.loc 1 423 0
 1314              		@ sp needed
 1315 0002 7047     		bx	lr
 1316              		.cfi_endproc
 1317              	.LFE179:
 1318              		.size	lv_menu_get_sidebar_header, .-lv_menu_get_sidebar_header
 1319              		.section	.text.lv_menu_get_sidebar_header_back_btn,"ax",%progbits
 1320              		.align	2
 1321              		.global	lv_menu_get_sidebar_header_back_btn
 1322              		.code	16
 1323              		.thumb_func
 1324              		.type	lv_menu_get_sidebar_header_back_btn, %function
 1325              	lv_menu_get_sidebar_header_back_btn:
 1326              	.LFB180:
 426:..\..\..\arduinoLCD\test\Pain Drain\libraries\lvgl\src\extra\widgets\menu/lv_menu.c ****     LV_ASSERT_OBJ(obj, MY_CLASS);
 1327              		.loc 1 426 0
 1328              		.cfi_startproc
 1329              		@ args = 0, pretend = 0, frame = 0
 1330              		@ frame_needed = 0, uses_anonymous_args = 0
 1331              		@ link register save eliminated.
 1332              	.LVL190:
 430:..\..\..\arduinoLCD\test\Pain Drain\libraries\lvgl\src\extra\widgets\menu/lv_menu.c **** }
 1333              		.loc 1 430 0
 1334 0000 806C     		ldr	r0, [r0, #72]
 1335              	.LVL191:
 431:..\..\..\arduinoLCD\test\Pain Drain\libraries\lvgl\src\extra\widgets\menu/lv_menu.c **** 
 1336              		.loc 1 431 0
 1337              		@ sp needed
 1338 0002 7047     		bx	lr
 1339              		.cfi_endproc
 1340              	.LFE180:
 1341              		.size	lv_menu_get_sidebar_header_back_btn, .-lv_menu_get_sidebar_header_back_btn
 1342              		.section	.text.lv_menu_back_btn_is_root,"ax",%progbits
 1343              		.align	2
 1344              		.global	lv_menu_back_btn_is_root
 1345              		.code	16
 1346              		.thumb_func
 1347              		.type	lv_menu_back_btn_is_root, %function
ARM GAS  C:\Users\haske\AppData\Local\Temp\ccp0JrPn.s 			page 41


 1348              	lv_menu_back_btn_is_root:
 1349              	.LFB181:
 434:..\..\..\arduinoLCD\test\Pain Drain\libraries\lvgl\src\extra\widgets\menu/lv_menu.c ****     LV_ASSERT_OBJ(menu, MY_CLASS);
 1350              		.loc 1 434 0
 1351              		.cfi_startproc
 1352              		@ args = 0, pretend = 0, frame = 0
 1353              		@ frame_needed = 0, uses_anonymous_args = 0
 1354              		@ link register save eliminated.
 1355              	.LVL192:
 437:..\..\..\arduinoLCD\test\Pain Drain\libraries\lvgl\src\extra\widgets\menu/lv_menu.c ****         return true;
 1356              		.loc 1 437 0
 1357 0000 836C     		ldr	r3, [r0, #72]
 1358 0002 8B42     		cmp	r3, r1
 1359 0004 08D0     		beq	.L64
 441:..\..\..\arduinoLCD\test\Pain Drain\libraries\lvgl\src\extra\widgets\menu/lv_menu.c ****         return true;
 1360              		.loc 1 441 0
 1361 0006 436B     		ldr	r3, [r0, #52]
 1362 0008 9942     		cmp	r1, r3
 1363 000a 07D1     		bne	.L65
 441:..\..\..\arduinoLCD\test\Pain Drain\libraries\lvgl\src\extra\widgets\menu/lv_menu.c ****         return true;
 1364              		.loc 1 441 0 is_stmt 0 discriminator 1
 1365 000c 6123     		movs	r3, #97
 1366 000e C35C     		ldrb	r3, [r0, r3]
 1367 0010 012B     		cmp	r3, #1
 1368 0012 05D9     		bls	.L66
 445:..\..\..\arduinoLCD\test\Pain Drain\libraries\lvgl\src\extra\widgets\menu/lv_menu.c **** }
 1369              		.loc 1 445 0 is_stmt 1
 1370 0014 0020     		movs	r0, #0
 1371              	.LVL193:
 1372 0016 04E0     		b	.L63
 1373              	.LVL194:
 1374              	.L64:
 438:..\..\..\arduinoLCD\test\Pain Drain\libraries\lvgl\src\extra\widgets\menu/lv_menu.c ****     }
 1375              		.loc 1 438 0
 1376 0018 0120     		movs	r0, #1
 1377              	.LVL195:
 1378 001a 02E0     		b	.L63
 1379              	.LVL196:
 1380              	.L65:
 445:..\..\..\arduinoLCD\test\Pain Drain\libraries\lvgl\src\extra\widgets\menu/lv_menu.c **** }
 1381              		.loc 1 445 0
 1382 001c 0020     		movs	r0, #0
 1383              	.LVL197:
 1384 001e 00E0     		b	.L63
 1385              	.LVL198:
 1386              	.L66:
 442:..\..\..\arduinoLCD\test\Pain Drain\libraries\lvgl\src\extra\widgets\menu/lv_menu.c ****     }
 1387              		.loc 1 442 0
 1388 0020 0120     		movs	r0, #1
 1389              	.LVL199:
 1390              	.L63:
 446:..\..\..\arduinoLCD\test\Pain Drain\libraries\lvgl\src\extra\widgets\menu/lv_menu.c **** 
 1391              		.loc 1 446 0
 1392              		@ sp needed
 1393 0022 7047     		bx	lr
 1394              		.cfi_endproc
 1395              	.LFE181:
ARM GAS  C:\Users\haske\AppData\Local\Temp\ccp0JrPn.s 			page 42


 1396              		.size	lv_menu_back_btn_is_root, .-lv_menu_back_btn_is_root
 1397              		.section	.text.lv_menu_clear_history,"ax",%progbits
 1398              		.align	2
 1399              		.global	lv_menu_clear_history
 1400              		.code	16
 1401              		.thumb_func
 1402              		.type	lv_menu_clear_history, %function
 1403              	lv_menu_clear_history:
 1404              	.LFB182:
 449:..\..\..\arduinoLCD\test\Pain Drain\libraries\lvgl\src\extra\widgets\menu/lv_menu.c ****     LV_ASSERT_OBJ(obj, MY_CLASS);
 1405              		.loc 1 449 0
 1406              		.cfi_startproc
 1407              		@ args = 0, pretend = 0, frame = 0
 1408              		@ frame_needed = 0, uses_anonymous_args = 0
 1409              	.LVL200:
 1410 0000 10B5     		push	{r4, lr}
 1411              		.cfi_def_cfa_offset 8
 1412              		.cfi_offset 4, -8
 1413              		.cfi_offset 14, -4
 1414 0002 0400     		movs	r4, r0
 1415              	.LVL201:
 453:..\..\..\arduinoLCD\test\Pain Drain\libraries\lvgl\src\extra\widgets\menu/lv_menu.c **** 
 1416              		.loc 1 453 0
 1417 0004 5430     		adds	r0, r0, #84
 1418              	.LVL202:
 455:..\..\..\arduinoLCD\test\Pain Drain\libraries\lvgl\src\extra\widgets\menu/lv_menu.c **** 
 1419              		.loc 1 455 0
 1420 0006 FFF7FEFF 		bl	_lv_ll_clear
 1421              	.LVL203:
 457:..\..\..\arduinoLCD\test\Pain Drain\libraries\lvgl\src\extra\widgets\menu/lv_menu.c **** }
 1422              		.loc 1 457 0
 1423 000a 0022     		movs	r2, #0
 1424 000c 6023     		movs	r3, #96
 1425 000e E254     		strb	r2, [r4, r3]
 458:..\..\..\arduinoLCD\test\Pain Drain\libraries\lvgl\src\extra\widgets\menu/lv_menu.c **** 
 1426              		.loc 1 458 0
 1427              		@ sp needed
 1428              	.LVL204:
 1429 0010 10BD     		pop	{r4, pc}
 1430              		.cfi_endproc
 1431              	.LFE182:
 1432              		.size	lv_menu_clear_history, .-lv_menu_clear_history
 1433 0012 C046     		.section	.text.lv_menu_set_page,"ax",%progbits
 1434              		.align	2
 1435              		.global	lv_menu_set_page
 1436              		.code	16
 1437              		.thumb_func
 1438              		.type	lv_menu_set_page, %function
 1439              	lv_menu_set_page:
 1440              	.LFB170:
 193:..\..\..\arduinoLCD\test\Pain Drain\libraries\lvgl\src\extra\widgets\menu/lv_menu.c ****     LV_ASSERT_OBJ(obj, MY_CLASS);
 1441              		.loc 1 193 0
 1442              		.cfi_startproc
 1443              		@ args = 0, pretend = 0, frame = 0
 1444              		@ frame_needed = 0, uses_anonymous_args = 0
 1445              	.LVL205:
 1446 0000 70B5     		push	{r4, r5, r6, lr}
ARM GAS  C:\Users\haske\AppData\Local\Temp\ccp0JrPn.s 			page 43


 1447              		.cfi_def_cfa_offset 16
 1448              		.cfi_offset 4, -16
 1449              		.cfi_offset 5, -12
 1450              		.cfi_offset 6, -8
 1451              		.cfi_offset 14, -4
 1452 0002 0400     		movs	r4, r0
 1453 0004 0D00     		movs	r5, r1
 1454              	.LVL206:
 199:..\..\..\arduinoLCD\test\Pain Drain\libraries\lvgl\src\extra\widgets\menu/lv_menu.c ****         lv_obj_set_parent(menu->main_page, menu->storage);
 1455              		.loc 1 199 0
 1456 0006 C06A     		ldr	r0, [r0, #44]
 1457              	.LVL207:
 1458 0008 0028     		cmp	r0, #0
 1459 000a 02D0     		beq	.L69
 200:..\..\..\arduinoLCD\test\Pain Drain\libraries\lvgl\src\extra\widgets\menu/lv_menu.c ****     }
 1460              		.loc 1 200 0
 1461 000c 616A     		ldr	r1, [r4, #36]
 1462              	.LVL208:
 1463 000e FFF7FEFF 		bl	lv_obj_set_parent
 1464              	.LVL209:
 1465              	.L69:
 203:..\..\..\arduinoLCD\test\Pain Drain\libraries\lvgl\src\extra\widgets\menu/lv_menu.c ****         /* Add a new node */
 1466              		.loc 1 203 0
 1467 0012 002D     		cmp	r5, #0
 1468 0014 10D0     		beq	.L70
 1469              	.LBB2:
 205:..\..\..\arduinoLCD\test\Pain Drain\libraries\lvgl\src\extra\widgets\menu/lv_menu.c ****         lv_menu_history_t * new_node = _lv_ll_ins_head(history_ll);
 1470              		.loc 1 205 0
 1471 0016 2000     		movs	r0, r4
 1472 0018 5430     		adds	r0, r0, #84
 1473              	.LVL210:
 206:..\..\..\arduinoLCD\test\Pain Drain\libraries\lvgl\src\extra\widgets\menu/lv_menu.c ****         LV_ASSERT_MALLOC(new_node);
 1474              		.loc 1 206 0
 1475 001a FFF7FEFF 		bl	_lv_ll_ins_head
 1476              	.LVL211:
 207:..\..\..\arduinoLCD\test\Pain Drain\libraries\lvgl\src\extra\widgets\menu/lv_menu.c ****         new_node->page = page;
 1477              		.loc 1 207 0
 1478 001e 0028     		cmp	r0, #0
 1479 0020 00D1     		bne	.L71
 1480              	.L72:
 1481 0022 FEE7     		b	.L72
 1482              	.L71:
 208:..\..\..\arduinoLCD\test\Pain Drain\libraries\lvgl\src\extra\widgets\menu/lv_menu.c ****         menu->cur_depth++;
 1483              		.loc 1 208 0
 1484 0024 0560     		str	r5, [r0]
 209:..\..\..\arduinoLCD\test\Pain Drain\libraries\lvgl\src\extra\widgets\menu/lv_menu.c **** 
 1485              		.loc 1 209 0
 1486 0026 6022     		movs	r2, #96
 1487 0028 A35C     		ldrb	r3, [r4, r2]
 1488 002a 0133     		adds	r3, r3, #1
 1489 002c A354     		strb	r3, [r4, r2]
 212:..\..\..\arduinoLCD\test\Pain Drain\libraries\lvgl\src\extra\widgets\menu/lv_menu.c ****     }
 1490              		.loc 1 212 0
 1491 002e A16A     		ldr	r1, [r4, #40]
 1492 0030 2800     		movs	r0, r5
 1493              	.LVL212:
 1494 0032 FFF7FEFF 		bl	lv_obj_set_parent
ARM GAS  C:\Users\haske\AppData\Local\Temp\ccp0JrPn.s 			page 44


 1495              	.LVL213:
 1496              	.LBE2:
 1497 0036 02E0     		b	.L73
 1498              	.LVL214:
 1499              	.L70:
 216:..\..\..\arduinoLCD\test\Pain Drain\libraries\lvgl\src\extra\widgets\menu/lv_menu.c ****     }
 1500              		.loc 1 216 0
 1501 0038 2000     		movs	r0, r4
 1502 003a FFF7FEFF 		bl	lv_menu_clear_history
 1503              	.LVL215:
 1504              	.L73:
 219:..\..\..\arduinoLCD\test\Pain Drain\libraries\lvgl\src\extra\widgets\menu/lv_menu.c **** 
 1505              		.loc 1 219 0
 1506 003e E562     		str	r5, [r4, #44]
 222:..\..\..\arduinoLCD\test\Pain Drain\libraries\lvgl\src\extra\widgets\menu/lv_menu.c ****         if(menu->sidebar_page != NULL) {
 1507              		.loc 1 222 0
 1508 0040 206D     		ldr	r0, [r4, #80]
 1509 0042 0028     		cmp	r0, #0
 1510 0044 09D0     		beq	.L74
 223:..\..\..\arduinoLCD\test\Pain Drain\libraries\lvgl\src\extra\widgets\menu/lv_menu.c ****             lv_obj_add_state(menu->selected_tab, LV_STATE_CHECKED);
 1511              		.loc 1 223 0
 1512 0046 236C     		ldr	r3, [r4, #64]
 1513 0048 002B     		cmp	r3, #0
 1514 004a 03D0     		beq	.L75
 224:..\..\..\arduinoLCD\test\Pain Drain\libraries\lvgl\src\extra\widgets\menu/lv_menu.c ****         }
 1515              		.loc 1 224 0
 1516 004c 0121     		movs	r1, #1
 1517 004e FFF7FEFF 		bl	lv_obj_add_state
 1518              	.LVL216:
 1519 0052 02E0     		b	.L74
 1520              	.L75:
 227:..\..\..\arduinoLCD\test\Pain Drain\libraries\lvgl\src\extra\widgets\menu/lv_menu.c ****         }
 1521              		.loc 1 227 0
 1522 0054 0121     		movs	r1, #1
 1523 0056 FFF7FEFF 		bl	lv_obj_clear_state
 1524              	.LVL217:
 1525              	.L74:
 232:..\..\..\arduinoLCD\test\Pain Drain\libraries\lvgl\src\extra\widgets\menu/lv_menu.c ****         /* With sidebar enabled */
 1526              		.loc 1 232 0
 1527 005a 236C     		ldr	r3, [r4, #64]
 1528 005c 002B     		cmp	r3, #0
 1529 005e 2CD0     		beq	.L76
 234:..\..\..\arduinoLCD\test\Pain Drain\libraries\lvgl\src\extra\widgets\menu/lv_menu.c ****             if(menu->mode_root_back_btn == LV_MENU_ROOT_BACK_BTN_ENABLED) {
 1530              		.loc 1 234 0
 1531 0060 6223     		movs	r3, #98
 1532 0062 E35C     		ldrb	r3, [r4, r3]
 1533 0064 DA07     		lsls	r2, r3, #31
 1534 0066 12D5     		bpl	.L77
 235:..\..\..\arduinoLCD\test\Pain Drain\libraries\lvgl\src\extra\widgets\menu/lv_menu.c ****                 /* Root back btn is always shown if enabled*/
 1535              		.loc 1 235 0
 1536 0068 1B07     		lsls	r3, r3, #28
 1537 006a 08D5     		bpl	.L78
 237:..\..\..\arduinoLCD\test\Pain Drain\libraries\lvgl\src\extra\widgets\menu/lv_menu.c ****                 lv_obj_add_flag(menu->sidebar_header_back_btn, LV_OBJ_FLAG_CLICKABLE);
 1538              		.loc 1 237 0
 1539 006c 0121     		movs	r1, #1
 1540 006e A06C     		ldr	r0, [r4, #72]
 1541 0070 FFF7FEFF 		bl	lv_obj_clear_flag
ARM GAS  C:\Users\haske\AppData\Local\Temp\ccp0JrPn.s 			page 45


 1542              	.LVL218:
 238:..\..\..\arduinoLCD\test\Pain Drain\libraries\lvgl\src\extra\widgets\menu/lv_menu.c ****             }
 1543              		.loc 1 238 0
 1544 0074 0221     		movs	r1, #2
 1545 0076 A06C     		ldr	r0, [r4, #72]
 1546 0078 FFF7FEFF 		bl	lv_obj_add_flag
 1547              	.LVL219:
 1548 007c 07E0     		b	.L77
 1549              	.L78:
 241:..\..\..\arduinoLCD\test\Pain Drain\libraries\lvgl\src\extra\widgets\menu/lv_menu.c ****                 lv_obj_clear_flag(menu->sidebar_header_back_btn, LV_OBJ_FLAG_CLICKABLE);
 1550              		.loc 1 241 0
 1551 007e 0121     		movs	r1, #1
 1552 0080 A06C     		ldr	r0, [r4, #72]
 1553 0082 FFF7FEFF 		bl	lv_obj_add_flag
 1554              	.LVL220:
 242:..\..\..\arduinoLCD\test\Pain Drain\libraries\lvgl\src\extra\widgets\menu/lv_menu.c ****             }
 1555              		.loc 1 242 0
 1556 0086 0221     		movs	r1, #2
 1557 0088 A06C     		ldr	r0, [r4, #72]
 1558 008a FFF7FEFF 		bl	lv_obj_clear_flag
 1559              	.LVL221:
 1560              	.L77:
 246:..\..\..\arduinoLCD\test\Pain Drain\libraries\lvgl\src\extra\widgets\menu/lv_menu.c ****             lv_obj_clear_flag(menu->main_header_back_btn, LV_OBJ_FLAG_HIDDEN);
 1561              		.loc 1 246 0
 1562 008e 6023     		movs	r3, #96
 1563 0090 E35C     		ldrb	r3, [r4, r3]
 1564 0092 012B     		cmp	r3, #1
 1565 0094 08D9     		bls	.L79
 247:..\..\..\arduinoLCD\test\Pain Drain\libraries\lvgl\src\extra\widgets\menu/lv_menu.c ****             lv_obj_add_flag(menu->main_header_back_btn, LV_OBJ_FLAG_CLICKABLE);
 1566              		.loc 1 247 0
 1567 0096 0121     		movs	r1, #1
 1568 0098 606B     		ldr	r0, [r4, #52]
 1569 009a FFF7FEFF 		bl	lv_obj_clear_flag
 1570              	.LVL222:
 248:..\..\..\arduinoLCD\test\Pain Drain\libraries\lvgl\src\extra\widgets\menu/lv_menu.c ****         }
 1571              		.loc 1 248 0
 1572 009e 0221     		movs	r1, #2
 1573 00a0 606B     		ldr	r0, [r4, #52]
 1574 00a2 FFF7FEFF 		bl	lv_obj_add_flag
 1575              	.LVL223:
 1576 00a6 21E0     		b	.L80
 1577              	.L79:
 251:..\..\..\arduinoLCD\test\Pain Drain\libraries\lvgl\src\extra\widgets\menu/lv_menu.c ****             lv_obj_clear_flag(menu->main_header_back_btn, LV_OBJ_FLAG_CLICKABLE);
 1578              		.loc 1 251 0
 1579 00a8 0121     		movs	r1, #1
 1580 00aa 606B     		ldr	r0, [r4, #52]
 1581 00ac FFF7FEFF 		bl	lv_obj_add_flag
 1582              	.LVL224:
 252:..\..\..\arduinoLCD\test\Pain Drain\libraries\lvgl\src\extra\widgets\menu/lv_menu.c ****         }
 1583              		.loc 1 252 0
 1584 00b0 0221     		movs	r1, #2
 1585 00b2 606B     		ldr	r0, [r4, #52]
 1586 00b4 FFF7FEFF 		bl	lv_obj_clear_flag
 1587              	.LVL225:
 1588 00b8 18E0     		b	.L80
 1589              	.L76:
 257:..\..\..\arduinoLCD\test\Pain Drain\libraries\lvgl\src\extra\widgets\menu/lv_menu.c ****             lv_obj_clear_flag(menu->main_header_back_btn, LV_OBJ_FLAG_HIDDEN);
ARM GAS  C:\Users\haske\AppData\Local\Temp\ccp0JrPn.s 			page 46


 1590              		.loc 1 257 0
 1591 00ba 6023     		movs	r3, #96
 1592 00bc E35C     		ldrb	r3, [r4, r3]
 1593 00be 012B     		cmp	r3, #1
 1594 00c0 03D8     		bhi	.L81
 257:..\..\..\arduinoLCD\test\Pain Drain\libraries\lvgl\src\extra\widgets\menu/lv_menu.c ****             lv_obj_clear_flag(menu->main_header_back_btn, LV_OBJ_FLAG_HIDDEN);
 1595              		.loc 1 257 0 is_stmt 0 discriminator 1
 1596 00c2 6223     		movs	r3, #98
 1597 00c4 E35C     		ldrb	r3, [r4, r3]
 1598 00c6 1B07     		lsls	r3, r3, #28
 1599 00c8 08D5     		bpl	.L82
 1600              	.L81:
 258:..\..\..\arduinoLCD\test\Pain Drain\libraries\lvgl\src\extra\widgets\menu/lv_menu.c ****             lv_obj_add_flag(menu->main_header_back_btn, LV_OBJ_FLAG_CLICKABLE);
 1601              		.loc 1 258 0 is_stmt 1
 1602 00ca 0121     		movs	r1, #1
 1603 00cc 606B     		ldr	r0, [r4, #52]
 1604 00ce FFF7FEFF 		bl	lv_obj_clear_flag
 1605              	.LVL226:
 259:..\..\..\arduinoLCD\test\Pain Drain\libraries\lvgl\src\extra\widgets\menu/lv_menu.c ****         }
 1606              		.loc 1 259 0
 1607 00d2 0221     		movs	r1, #2
 1608 00d4 606B     		ldr	r0, [r4, #52]
 1609 00d6 FFF7FEFF 		bl	lv_obj_add_flag
 1610              	.LVL227:
 1611 00da 07E0     		b	.L80
 1612              	.L82:
 262:..\..\..\arduinoLCD\test\Pain Drain\libraries\lvgl\src\extra\widgets\menu/lv_menu.c ****             lv_obj_clear_flag(menu->main_header_back_btn, LV_OBJ_FLAG_CLICKABLE);
 1613              		.loc 1 262 0
 1614 00dc 0121     		movs	r1, #1
 1615 00de 606B     		ldr	r0, [r4, #52]
 1616 00e0 FFF7FEFF 		bl	lv_obj_add_flag
 1617              	.LVL228:
 263:..\..\..\arduinoLCD\test\Pain Drain\libraries\lvgl\src\extra\widgets\menu/lv_menu.c ****         }
 1618              		.loc 1 263 0
 1619 00e4 0221     		movs	r1, #2
 1620 00e6 606B     		ldr	r0, [r4, #52]
 1621 00e8 FFF7FEFF 		bl	lv_obj_clear_flag
 1622              	.LVL229:
 1623              	.L80:
 267:..\..\..\arduinoLCD\test\Pain Drain\libraries\lvgl\src\extra\widgets\menu/lv_menu.c **** 
 1624              		.loc 1 267 0
 1625 00ec 0022     		movs	r2, #0
 1626 00ee 1C21     		movs	r1, #28
 1627 00f0 2000     		movs	r0, r4
 1628 00f2 FFF7FEFF 		bl	lv_event_send
 1629              	.LVL230:
 269:..\..\..\arduinoLCD\test\Pain Drain\libraries\lvgl\src\extra\widgets\menu/lv_menu.c **** }
 1630              		.loc 1 269 0
 1631 00f6 2000     		movs	r0, r4
 1632 00f8 FFF7FEFF 		bl	lv_menu_refr_main_header_mode
 1633              	.LVL231:
 270:..\..\..\arduinoLCD\test\Pain Drain\libraries\lvgl\src\extra\widgets\menu/lv_menu.c **** 
 1634              		.loc 1 270 0
 1635              		@ sp needed
 1636              	.LVL232:
 1637              	.LVL233:
 1638 00fc 70BD     		pop	{r4, r5, r6, pc}
ARM GAS  C:\Users\haske\AppData\Local\Temp\ccp0JrPn.s 			page 47


 1639              		.cfi_endproc
 1640              	.LFE170:
 1641              		.size	lv_menu_set_page, .-lv_menu_set_page
 1642 00fe C046     		.section	.text.lv_menu_back_event_cb,"ax",%progbits
 1643              		.align	2
 1644              		.code	16
 1645              		.thumb_func
 1646              		.type	lv_menu_back_event_cb, %function
 1647              	lv_menu_back_event_cb:
 1648              	.LFB193:
 702:..\..\..\arduinoLCD\test\Pain Drain\libraries\lvgl\src\extra\widgets\menu/lv_menu.c ****     lv_event_code_t code = lv_event_get_code(e);
 1649              		.loc 1 702 0
 1650              		.cfi_startproc
 1651              		@ args = 0, pretend = 0, frame = 0
 1652              		@ frame_needed = 0, uses_anonymous_args = 0
 1653              	.LVL234:
 1654 0000 F8B5     		push	{r3, r4, r5, r6, r7, lr}
 1655              		.cfi_def_cfa_offset 24
 1656              		.cfi_offset 3, -24
 1657              		.cfi_offset 4, -20
 1658              		.cfi_offset 5, -16
 1659              		.cfi_offset 6, -12
 1660              		.cfi_offset 7, -8
 1661              		.cfi_offset 14, -4
 1662 0002 0400     		movs	r4, r0
 703:..\..\..\arduinoLCD\test\Pain Drain\libraries\lvgl\src\extra\widgets\menu/lv_menu.c ****     /* LV_EVENT_CLICKED */
 1663              		.loc 1 703 0
 1664 0004 FFF7FEFF 		bl	lv_event_get_code
 1665              	.LVL235:
 705:..\..\..\arduinoLCD\test\Pain Drain\libraries\lvgl\src\extra\widgets\menu/lv_menu.c ****         lv_obj_t * obj = lv_event_get_target(e);
 1666              		.loc 1 705 0
 1667 0008 0728     		cmp	r0, #7
 1668 000a 3CD1     		bne	.L83
 1669              	.LBB3:
 706:..\..\..\arduinoLCD\test\Pain Drain\libraries\lvgl\src\extra\widgets\menu/lv_menu.c ****         lv_menu_t * menu = (lv_menu_t *)lv_event_get_user_data(e);
 1670              		.loc 1 706 0
 1671 000c 2000     		movs	r0, r4
 1672              	.LVL236:
 1673 000e FFF7FEFF 		bl	lv_event_get_target
 1674              	.LVL237:
 1675 0012 0500     		movs	r5, r0
 1676              	.LVL238:
 707:..\..\..\arduinoLCD\test\Pain Drain\libraries\lvgl\src\extra\widgets\menu/lv_menu.c **** 
 1677              		.loc 1 707 0
 1678 0014 2000     		movs	r0, r4
 1679              	.LVL239:
 1680 0016 FFF7FEFF 		bl	lv_event_get_user_data
 1681              	.LVL240:
 1682 001a 0400     		movs	r4, r0
 1683              	.LVL241:
 709:..\..\..\arduinoLCD\test\Pain Drain\libraries\lvgl\src\extra\widgets\menu/lv_menu.c **** 
 1684              		.loc 1 709 0
 1685 001c 436B     		ldr	r3, [r0, #52]
 1686 001e 9D42     		cmp	r5, r3
 1687 0020 02D0     		beq	.L85
 709:..\..\..\arduinoLCD\test\Pain Drain\libraries\lvgl\src\extra\widgets\menu/lv_menu.c **** 
 1688              		.loc 1 709 0 is_stmt 0 discriminator 1
ARM GAS  C:\Users\haske\AppData\Local\Temp\ccp0JrPn.s 			page 48


 1689 0022 836C     		ldr	r3, [r0, #72]
 1690 0024 9D42     		cmp	r5, r3
 1691 0026 2ED1     		bne	.L83
 1692              	.L85:
 711:..\..\..\arduinoLCD\test\Pain Drain\libraries\lvgl\src\extra\widgets\menu/lv_menu.c **** 
 1693              		.loc 1 711 0 is_stmt 1
 1694 0028 6023     		movs	r3, #96
 1695 002a E25C     		ldrb	r2, [r4, r3]
 1696 002c 0133     		adds	r3, r3, #1
 1697 002e E254     		strb	r2, [r4, r3]
 713:..\..\..\arduinoLCD\test\Pain Drain\libraries\lvgl\src\extra\widgets\menu/lv_menu.c **** 
 1698              		.loc 1 713 0
 1699 0030 2900     		movs	r1, r5
 1700 0032 2000     		movs	r0, r4
 1701              	.LVL242:
 1702 0034 FFF7FEFF 		bl	lv_menu_back_btn_is_root
 1703              	.LVL243:
 1704 0038 0028     		cmp	r0, #0
 1705 003a 24D1     		bne	.L83
 715:..\..\..\arduinoLCD\test\Pain Drain\libraries\lvgl\src\extra\widgets\menu/lv_menu.c **** 
 1706              		.loc 1 715 0
 1707 003c 2500     		movs	r5, r4
 1708              	.LVL244:
 1709 003e 5435     		adds	r5, r5, #84
 1710              	.LVL245:
 718:..\..\..\arduinoLCD\test\Pain Drain\libraries\lvgl\src\extra\widgets\menu/lv_menu.c **** 
 1711              		.loc 1 718 0
 1712 0040 2800     		movs	r0, r5
 1713 0042 FFF7FEFF 		bl	_lv_ll_get_head
 1714              	.LVL246:
 1715 0046 0700     		movs	r7, r0
 1716              	.LVL247:
 721:..\..\..\arduinoLCD\test\Pain Drain\libraries\lvgl\src\extra\widgets\menu/lv_menu.c **** 
 1717              		.loc 1 721 0
 1718 0048 0100     		movs	r1, r0
 1719 004a 2800     		movs	r0, r5
 1720              	.LVL248:
 1721 004c FFF7FEFF 		bl	_lv_ll_get_next
 1722              	.LVL249:
 1723 0050 061E     		subs	r6, r0, #0
 1724              	.LVL250:
 723:..\..\..\arduinoLCD\test\Pain Drain\libraries\lvgl\src\extra\widgets\menu/lv_menu.c ****             /* Previous menu exists */
 1725              		.loc 1 723 0
 1726 0052 18D0     		beq	.L83
 726:..\..\..\arduinoLCD\test\Pain Drain\libraries\lvgl\src\extra\widgets\menu/lv_menu.c ****             lv_mem_free(act_hist);
 1727              		.loc 1 726 0
 1728 0054 3900     		movs	r1, r7
 1729 0056 2800     		movs	r0, r5
 1730              	.LVL251:
 1731 0058 FFF7FEFF 		bl	_lv_ll_remove
 1732              	.LVL252:
 727:..\..\..\arduinoLCD\test\Pain Drain\libraries\lvgl\src\extra\widgets\menu/lv_menu.c ****             menu->cur_depth--;
 1733              		.loc 1 727 0
 1734 005c 3800     		movs	r0, r7
 1735 005e FFF7FEFF 		bl	lv_mem_free
 1736              	.LVL253:
 728:..\..\..\arduinoLCD\test\Pain Drain\libraries\lvgl\src\extra\widgets\menu/lv_menu.c ****             /* Create the previous menu.
ARM GAS  C:\Users\haske\AppData\Local\Temp\ccp0JrPn.s 			page 49


 1737              		.loc 1 728 0
 1738 0062 6027     		movs	r7, #96
 1739              	.LVL254:
 1740 0064 E35D     		ldrb	r3, [r4, r7]
 1741 0066 013B     		subs	r3, r3, #1
 1742 0068 E355     		strb	r3, [r4, r7]
 731:..\..\..\arduinoLCD\test\Pain Drain\libraries\lvgl\src\extra\widgets\menu/lv_menu.c ****             menu->cur_depth--;
 1743              		.loc 1 731 0
 1744 006a 3100     		movs	r1, r6
 1745 006c 2800     		movs	r0, r5
 1746 006e FFF7FEFF 		bl	_lv_ll_remove
 1747              	.LVL255:
 732:..\..\..\arduinoLCD\test\Pain Drain\libraries\lvgl\src\extra\widgets\menu/lv_menu.c ****             lv_menu_set_page(&(menu->obj), prev_hist->page);
 1748              		.loc 1 732 0
 1749 0072 E35D     		ldrb	r3, [r4, r7]
 1750 0074 013B     		subs	r3, r3, #1
 1751 0076 E355     		strb	r3, [r4, r7]
 733:..\..\..\arduinoLCD\test\Pain Drain\libraries\lvgl\src\extra\widgets\menu/lv_menu.c **** 
 1752              		.loc 1 733 0
 1753 0078 3168     		ldr	r1, [r6]
 1754 007a 2000     		movs	r0, r4
 1755 007c FFF7FEFF 		bl	lv_menu_set_page
 1756              	.LVL256:
 735:..\..\..\arduinoLCD\test\Pain Drain\libraries\lvgl\src\extra\widgets\menu/lv_menu.c ****         }
 1757              		.loc 1 735 0
 1758 0080 3000     		movs	r0, r6
 1759 0082 FFF7FEFF 		bl	lv_mem_free
 1760              	.LVL257:
 1761              	.L83:
 1762              	.LBE3:
 738:..\..\..\arduinoLCD\test\Pain Drain\libraries\lvgl\src\extra\widgets\menu/lv_menu.c **** 
 1763              		.loc 1 738 0
 1764              		@ sp needed
 1765 0086 F8BD     		pop	{r3, r4, r5, r6, r7, pc}
 1766              		.cfi_endproc
 1767              	.LFE193:
 1768              		.size	lv_menu_back_event_cb, .-lv_menu_back_event_cb
 1769              		.section	.text.lv_menu_refr,"ax",%progbits
 1770              		.align	2
 1771              		.code	16
 1772              		.thumb_func
 1773              		.type	lv_menu_refr, %function
 1774              	lv_menu_refr:
 1775              	.LFB169:
 165:..\..\..\arduinoLCD\test\Pain Drain\libraries\lvgl\src\extra\widgets\menu/lv_menu.c ****     LV_ASSERT_OBJ(obj, MY_CLASS);
 1776              		.loc 1 165 0
 1777              		.cfi_startproc
 1778              		@ args = 0, pretend = 0, frame = 0
 1779              		@ frame_needed = 0, uses_anonymous_args = 0
 1780              	.LVL258:
 1781 0000 F8B5     		push	{r3, r4, r5, r6, r7, lr}
 1782              		.cfi_def_cfa_offset 24
 1783              		.cfi_offset 3, -24
 1784              		.cfi_offset 4, -20
 1785              		.cfi_offset 5, -16
 1786              		.cfi_offset 6, -12
 1787              		.cfi_offset 7, -8
ARM GAS  C:\Users\haske\AppData\Local\Temp\ccp0JrPn.s 			page 50


 1788              		.cfi_offset 14, -4
 1789 0002 0400     		movs	r4, r0
 1790              	.LVL259:
 169:..\..\..\arduinoLCD\test\Pain Drain\libraries\lvgl\src\extra\widgets\menu/lv_menu.c **** 
 1791              		.loc 1 169 0
 1792 0004 0600     		movs	r6, r0
 1793 0006 5436     		adds	r6, r6, #84
 1794              	.LVL260:
 172:..\..\..\arduinoLCD\test\Pain Drain\libraries\lvgl\src\extra\widgets\menu/lv_menu.c **** 
 1795              		.loc 1 172 0
 1796 0008 3000     		movs	r0, r6
 1797              	.LVL261:
 1798 000a FFF7FEFF 		bl	_lv_ll_get_head
 1799              	.LVL262:
 1800 000e 051E     		subs	r5, r0, #0
 1801              	.LVL263:
 176:..\..\..\arduinoLCD\test\Pain Drain\libraries\lvgl\src\extra\widgets\menu/lv_menu.c ****         page = act_hist->page;
 1802              		.loc 1 176 0
 1803 0010 0CD0     		beq	.L88
 177:..\..\..\arduinoLCD\test\Pain Drain\libraries\lvgl\src\extra\widgets\menu/lv_menu.c ****         /* Delete the current item from the history */
 1804              		.loc 1 177 0
 1805 0012 0768     		ldr	r7, [r0]
 1806              	.LVL264:
 179:..\..\..\arduinoLCD\test\Pain Drain\libraries\lvgl\src\extra\widgets\menu/lv_menu.c ****         lv_mem_free(act_hist);
 1807              		.loc 1 179 0
 1808 0014 0100     		movs	r1, r0
 1809 0016 3000     		movs	r0, r6
 1810              	.LVL265:
 1811 0018 FFF7FEFF 		bl	_lv_ll_remove
 1812              	.LVL266:
 180:..\..\..\arduinoLCD\test\Pain Drain\libraries\lvgl\src\extra\widgets\menu/lv_menu.c ****         menu->cur_depth--;
 1813              		.loc 1 180 0
 1814 001c 2800     		movs	r0, r5
 1815 001e FFF7FEFF 		bl	lv_mem_free
 1816              	.LVL267:
 181:..\..\..\arduinoLCD\test\Pain Drain\libraries\lvgl\src\extra\widgets\menu/lv_menu.c ****     }
 1817              		.loc 1 181 0
 1818 0022 6022     		movs	r2, #96
 1819 0024 A35C     		ldrb	r3, [r4, r2]
 1820 0026 013B     		subs	r3, r3, #1
 1821 0028 A354     		strb	r3, [r4, r2]
 1822 002a 00E0     		b	.L87
 1823              	.LVL268:
 1824              	.L88:
 174:..\..\..\arduinoLCD\test\Pain Drain\libraries\lvgl\src\extra\widgets\menu/lv_menu.c **** 
 1825              		.loc 1 174 0
 1826 002c 0027     		movs	r7, #0
 1827              	.LVL269:
 1828              	.L87:
 185:..\..\..\arduinoLCD\test\Pain Drain\libraries\lvgl\src\extra\widgets\menu/lv_menu.c **** }
 1829              		.loc 1 185 0
 1830 002e 3900     		movs	r1, r7
 1831 0030 2000     		movs	r0, r4
 1832 0032 FFF7FEFF 		bl	lv_menu_set_page
 1833              	.LVL270:
 186:..\..\..\arduinoLCD\test\Pain Drain\libraries\lvgl\src\extra\widgets\menu/lv_menu.c **** 
 1834              		.loc 1 186 0
ARM GAS  C:\Users\haske\AppData\Local\Temp\ccp0JrPn.s 			page 51


 1835              		@ sp needed
 1836              	.LVL271:
 1837              	.LVL272:
 1838              	.LVL273:
 1839              	.LVL274:
 1840 0036 F8BD     		pop	{r3, r4, r5, r6, r7, pc}
 1841              		.cfi_endproc
 1842              	.LFE169:
 1843              		.size	lv_menu_refr, .-lv_menu_refr
 1844              		.section	.text.lv_menu_set_sidebar_page,"ax",%progbits
 1845              		.align	2
 1846              		.global	lv_menu_set_sidebar_page
 1847              		.code	16
 1848              		.thumb_func
 1849              		.type	lv_menu_set_sidebar_page, %function
 1850              	lv_menu_set_sidebar_page:
 1851              	.LFB171:
 273:..\..\..\arduinoLCD\test\Pain Drain\libraries\lvgl\src\extra\widgets\menu/lv_menu.c ****     LV_ASSERT_OBJ(obj, MY_CLASS);
 1852              		.loc 1 273 0
 1853              		.cfi_startproc
 1854              		@ args = 0, pretend = 0, frame = 0
 1855              		@ frame_needed = 0, uses_anonymous_args = 0
 1856              	.LVL275:
 1857 0000 F8B5     		push	{r3, r4, r5, r6, r7, lr}
 1858              		.cfi_def_cfa_offset 24
 1859              		.cfi_offset 3, -24
 1860              		.cfi_offset 4, -20
 1861              		.cfi_offset 5, -16
 1862              		.cfi_offset 6, -12
 1863              		.cfi_offset 7, -8
 1864              		.cfi_offset 14, -4
 1865 0002 0400     		movs	r4, r0
 1866 0004 0F1E     		subs	r7, r1, #0
 1867              	.LVL276:
 279:..\..\..\arduinoLCD\test\Pain Drain\libraries\lvgl\src\extra\widgets\menu/lv_menu.c ****         /* Sidebar should be enabled */
 1868              		.loc 1 279 0
 1869 0006 72D0     		beq	.L90
 281:..\..\..\arduinoLCD\test\Pain Drain\libraries\lvgl\src\extra\widgets\menu/lv_menu.c ****             /* Create sidebar */
 1870              		.loc 1 281 0
 1871 0008 6223     		movs	r3, #98
 1872 000a C35C     		ldrb	r3, [r0, r3]
 1873 000c DB07     		lsls	r3, r3, #31
 1874 000e 66D4     		bmi	.L91
 1875              	.LBB4:
 283:..\..\..\arduinoLCD\test\Pain Drain\libraries\lvgl\src\extra\widgets\menu/lv_menu.c ****             lv_obj_class_init_obj(sidebar_cont);
 1876              		.loc 1 283 0
 1877 0010 414E     		ldr	r6, .L93
 1878 0012 3000     		movs	r0, r6
 1879              	.LVL277:
 1880 0014 4430     		adds	r0, r0, #68
 1881 0016 2100     		movs	r1, r4
 1882              	.LVL278:
 1883 0018 FFF7FEFF 		bl	lv_obj_class_create_obj
 1884              	.LVL279:
 1885 001c 0500     		movs	r5, r0
 1886              	.LVL280:
 284:..\..\..\arduinoLCD\test\Pain Drain\libraries\lvgl\src\extra\widgets\menu/lv_menu.c ****             lv_obj_move_to_index(sidebar_cont, 1);
ARM GAS  C:\Users\haske\AppData\Local\Temp\ccp0JrPn.s 			page 52


 1887              		.loc 1 284 0
 1888 001e FFF7FEFF 		bl	lv_obj_class_init_obj
 1889              	.LVL281:
 285:..\..\..\arduinoLCD\test\Pain Drain\libraries\lvgl\src\extra\widgets\menu/lv_menu.c ****             lv_obj_set_size(sidebar_cont, LV_PCT(30), LV_PCT(100));
 1890              		.loc 1 285 0
 1891 0022 0121     		movs	r1, #1
 1892 0024 2800     		movs	r0, r5
 1893 0026 FFF7FEFF 		bl	lv_obj_move_to_index
 1894              	.LVL282:
 286:..\..\..\arduinoLCD\test\Pain Drain\libraries\lvgl\src\extra\widgets\menu/lv_menu.c ****             lv_obj_set_flex_flow(sidebar_cont, LV_FLEX_FLOW_COLUMN);
 1895              		.loc 1 286 0
 1896 002a 3C4A     		ldr	r2, .L93+4
 1897 002c 3C49     		ldr	r1, .L93+8
 1898 002e 2800     		movs	r0, r5
 1899 0030 FFF7FEFF 		bl	lv_obj_set_size
 1900              	.LVL283:
 287:..\..\..\arduinoLCD\test\Pain Drain\libraries\lvgl\src\extra\widgets\menu/lv_menu.c ****             lv_obj_add_flag(sidebar_cont, LV_OBJ_FLAG_EVENT_BUBBLE);
 1901              		.loc 1 287 0
 1902 0034 0121     		movs	r1, #1
 1903 0036 2800     		movs	r0, r5
 1904 0038 FFF7FEFF 		bl	lv_obj_set_flex_flow
 1905              	.LVL284:
 288:..\..\..\arduinoLCD\test\Pain Drain\libraries\lvgl\src\extra\widgets\menu/lv_menu.c ****             lv_obj_clear_flag(sidebar_cont, LV_OBJ_FLAG_CLICKABLE);
 1906              		.loc 1 288 0
 1907 003c 8021     		movs	r1, #128
 1908 003e C901     		lsls	r1, r1, #7
 1909 0040 2800     		movs	r0, r5
 1910 0042 FFF7FEFF 		bl	lv_obj_add_flag
 1911              	.LVL285:
 289:..\..\..\arduinoLCD\test\Pain Drain\libraries\lvgl\src\extra\widgets\menu/lv_menu.c ****             menu->sidebar = sidebar_cont;
 1912              		.loc 1 289 0
 1913 0046 0221     		movs	r1, #2
 1914 0048 2800     		movs	r0, r5
 1915 004a FFF7FEFF 		bl	lv_obj_clear_flag
 1916              	.LVL286:
 290:..\..\..\arduinoLCD\test\Pain Drain\libraries\lvgl\src\extra\widgets\menu/lv_menu.c **** 
 1917              		.loc 1 290 0
 1918 004e E563     		str	r5, [r4, #60]
 292:..\..\..\arduinoLCD\test\Pain Drain\libraries\lvgl\src\extra\widgets\menu/lv_menu.c ****             lv_obj_class_init_obj(sidebar_header);
 1919              		.loc 1 292 0
 1920 0050 3000     		movs	r0, r6
 1921 0052 6030     		adds	r0, r0, #96
 1922 0054 2900     		movs	r1, r5
 1923 0056 FFF7FEFF 		bl	lv_obj_class_create_obj
 1924              	.LVL287:
 1925 005a 0500     		movs	r5, r0
 1926              	.LVL288:
 293:..\..\..\arduinoLCD\test\Pain Drain\libraries\lvgl\src\extra\widgets\menu/lv_menu.c ****             lv_obj_set_size(sidebar_header, LV_PCT(100), LV_SIZE_CONTENT);
 1927              		.loc 1 293 0
 1928 005c FFF7FEFF 		bl	lv_obj_class_init_obj
 1929              	.LVL289:
 294:..\..\..\arduinoLCD\test\Pain Drain\libraries\lvgl\src\extra\widgets\menu/lv_menu.c ****             lv_obj_set_flex_flow(sidebar_header, LV_FLEX_FLOW_ROW);
 1930              		.loc 1 294 0
 1931 0060 304A     		ldr	r2, .L93+12
 1932 0062 2E49     		ldr	r1, .L93+4
 1933 0064 2800     		movs	r0, r5
 1934 0066 FFF7FEFF 		bl	lv_obj_set_size
ARM GAS  C:\Users\haske\AppData\Local\Temp\ccp0JrPn.s 			page 53


 1935              	.LVL290:
 295:..\..\..\arduinoLCD\test\Pain Drain\libraries\lvgl\src\extra\widgets\menu/lv_menu.c ****             lv_obj_set_flex_align(sidebar_header, LV_FLEX_ALIGN_START, LV_FLEX_ALIGN_CENTER, LV_FLE
 1936              		.loc 1 295 0
 1937 006a 0021     		movs	r1, #0
 1938 006c 2800     		movs	r0, r5
 1939 006e FFF7FEFF 		bl	lv_obj_set_flex_flow
 1940              	.LVL291:
 296:..\..\..\arduinoLCD\test\Pain Drain\libraries\lvgl\src\extra\widgets\menu/lv_menu.c ****             lv_obj_clear_flag(sidebar_header, LV_OBJ_FLAG_CLICKABLE);
 1941              		.loc 1 296 0
 1942 0072 0223     		movs	r3, #2
 1943 0074 0222     		movs	r2, #2
 1944 0076 0021     		movs	r1, #0
 1945 0078 2800     		movs	r0, r5
 1946 007a FFF7FEFF 		bl	lv_obj_set_flex_align
 1947              	.LVL292:
 297:..\..\..\arduinoLCD\test\Pain Drain\libraries\lvgl\src\extra\widgets\menu/lv_menu.c ****             lv_obj_add_flag(sidebar_header, LV_OBJ_FLAG_EVENT_BUBBLE);
 1948              		.loc 1 297 0
 1949 007e 0221     		movs	r1, #2
 1950 0080 2800     		movs	r0, r5
 1951 0082 FFF7FEFF 		bl	lv_obj_clear_flag
 1952              	.LVL293:
 298:..\..\..\arduinoLCD\test\Pain Drain\libraries\lvgl\src\extra\widgets\menu/lv_menu.c ****             menu->sidebar_header = sidebar_header;
 1953              		.loc 1 298 0
 1954 0086 8021     		movs	r1, #128
 1955 0088 C901     		lsls	r1, r1, #7
 1956 008a 2800     		movs	r0, r5
 1957 008c FFF7FEFF 		bl	lv_obj_add_flag
 1958              	.LVL294:
 299:..\..\..\arduinoLCD\test\Pain Drain\libraries\lvgl\src\extra\widgets\menu/lv_menu.c **** 
 1959              		.loc 1 299 0
 1960 0090 6564     		str	r5, [r4, #68]
 301:..\..\..\arduinoLCD\test\Pain Drain\libraries\lvgl\src\extra\widgets\menu/lv_menu.c ****             lv_obj_add_event_cb(sidebar_header_back_btn, lv_menu_back_event_cb, LV_EVENT_CLICKED, m
 1961              		.loc 1 301 0
 1962 0092 2800     		movs	r0, r5
 1963 0094 FFF7FEFF 		bl	lv_btn_create
 1964              	.LVL295:
 1965 0098 0500     		movs	r5, r0
 1966              	.LVL296:
 302:..\..\..\arduinoLCD\test\Pain Drain\libraries\lvgl\src\extra\widgets\menu/lv_menu.c ****             lv_obj_add_flag(sidebar_header_back_btn, LV_OBJ_FLAG_EVENT_BUBBLE);
 1967              		.loc 1 302 0
 1968 009a 2300     		movs	r3, r4
 1969 009c 0722     		movs	r2, #7
 1970 009e 2249     		ldr	r1, .L93+16
 1971 00a0 FFF7FEFF 		bl	lv_obj_add_event_cb
 1972              	.LVL297:
 303:..\..\..\arduinoLCD\test\Pain Drain\libraries\lvgl\src\extra\widgets\menu/lv_menu.c ****             lv_obj_set_flex_flow(sidebar_header_back_btn, LV_FLEX_FLOW_ROW);
 1973              		.loc 1 303 0
 1974 00a4 8021     		movs	r1, #128
 1975 00a6 C901     		lsls	r1, r1, #7
 1976 00a8 2800     		movs	r0, r5
 1977 00aa FFF7FEFF 		bl	lv_obj_add_flag
 1978              	.LVL298:
 304:..\..\..\arduinoLCD\test\Pain Drain\libraries\lvgl\src\extra\widgets\menu/lv_menu.c ****             menu->sidebar_header_back_btn = sidebar_header_back_btn;
 1979              		.loc 1 304 0
 1980 00ae 0021     		movs	r1, #0
 1981 00b0 2800     		movs	r0, r5
 1982 00b2 FFF7FEFF 		bl	lv_obj_set_flex_flow
ARM GAS  C:\Users\haske\AppData\Local\Temp\ccp0JrPn.s 			page 54


 1983              	.LVL299:
 305:..\..\..\arduinoLCD\test\Pain Drain\libraries\lvgl\src\extra\widgets\menu/lv_menu.c **** 
 1984              		.loc 1 305 0
 1985 00b6 A564     		str	r5, [r4, #72]
 307:..\..\..\arduinoLCD\test\Pain Drain\libraries\lvgl\src\extra\widgets\menu/lv_menu.c ****             lv_img_set_src(sidebar_header_back_icon, LV_SYMBOL_LEFT);
 1986              		.loc 1 307 0
 1987 00b8 2800     		movs	r0, r5
 1988 00ba FFF7FEFF 		bl	lv_img_create
 1989              	.LVL300:
 308:..\..\..\arduinoLCD\test\Pain Drain\libraries\lvgl\src\extra\widgets\menu/lv_menu.c **** 
 1990              		.loc 1 308 0
 1991 00be 1B49     		ldr	r1, .L93+20
 1992 00c0 FFF7FEFF 		bl	lv_img_set_src
 1993              	.LVL301:
 310:..\..\..\arduinoLCD\test\Pain Drain\libraries\lvgl\src\extra\widgets\menu/lv_menu.c ****             lv_obj_add_flag(sidebar_header_title, LV_OBJ_FLAG_HIDDEN);
 1994              		.loc 1 310 0
 1995 00c4 606C     		ldr	r0, [r4, #68]
 1996 00c6 FFF7FEFF 		bl	lv_label_create
 1997              	.LVL302:
 1998 00ca 0500     		movs	r5, r0
 1999              	.LVL303:
 311:..\..\..\arduinoLCD\test\Pain Drain\libraries\lvgl\src\extra\widgets\menu/lv_menu.c ****             menu->sidebar_header_title = sidebar_header_title;
 2000              		.loc 1 311 0
 2001 00cc 0121     		movs	r1, #1
 2002 00ce FFF7FEFF 		bl	lv_obj_add_flag
 2003              	.LVL304:
 312:..\..\..\arduinoLCD\test\Pain Drain\libraries\lvgl\src\extra\widgets\menu/lv_menu.c **** 
 2004              		.loc 1 312 0
 2005 00d2 E564     		str	r5, [r4, #76]
 314:..\..\..\arduinoLCD\test\Pain Drain\libraries\lvgl\src\extra\widgets\menu/lv_menu.c ****         }
 2006              		.loc 1 314 0
 2007 00d4 6222     		movs	r2, #98
 2008 00d6 A15C     		ldrb	r1, [r4, r2]
 2009 00d8 0123     		movs	r3, #1
 2010 00da 0B43     		orrs	r3, r1
 2011 00dc A354     		strb	r3, [r4, r2]
 2012              	.LVL305:
 2013              	.L91:
 2014              	.LBE4:
 317:..\..\..\arduinoLCD\test\Pain Drain\libraries\lvgl\src\extra\widgets\menu/lv_menu.c **** 
 2015              		.loc 1 317 0
 2016 00de E16B     		ldr	r1, [r4, #60]
 2017 00e0 3800     		movs	r0, r7
 2018 00e2 FFF7FEFF 		bl	lv_obj_set_parent
 2019              	.LVL306:
 319:..\..\..\arduinoLCD\test\Pain Drain\libraries\lvgl\src\extra\widgets\menu/lv_menu.c ****     }
 2020              		.loc 1 319 0
 2021 00e6 2000     		movs	r0, r4
 2022 00e8 FFF7FEFF 		bl	lv_menu_refr_sidebar_header_mode
 2023              	.LVL307:
 2024 00ec 0FE0     		b	.L92
 2025              	.LVL308:
 2026              	.L90:
 323:..\..\..\arduinoLCD\test\Pain Drain\libraries\lvgl\src\extra\widgets\menu/lv_menu.c ****             lv_obj_set_parent(menu->sidebar_page, menu->storage);
 2027              		.loc 1 323 0
 2028 00ee 6223     		movs	r3, #98
 2029 00f0 C35C     		ldrb	r3, [r0, r3]
ARM GAS  C:\Users\haske\AppData\Local\Temp\ccp0JrPn.s 			page 55


 2030 00f2 DB07     		lsls	r3, r3, #31
 2031 00f4 0BD5     		bpl	.L92
 324:..\..\..\arduinoLCD\test\Pain Drain\libraries\lvgl\src\extra\widgets\menu/lv_menu.c ****             lv_obj_del(menu->sidebar);
 2032              		.loc 1 324 0
 2033 00f6 416A     		ldr	r1, [r0, #36]
 2034              	.LVL309:
 2035 00f8 006C     		ldr	r0, [r0, #64]
 2036              	.LVL310:
 2037 00fa FFF7FEFF 		bl	lv_obj_set_parent
 2038              	.LVL311:
 325:..\..\..\arduinoLCD\test\Pain Drain\libraries\lvgl\src\extra\widgets\menu/lv_menu.c **** 
 2039              		.loc 1 325 0
 2040 00fe E06B     		ldr	r0, [r4, #60]
 2041 0100 FFF7FEFF 		bl	lv_obj_del
 2042              	.LVL312:
 327:..\..\..\arduinoLCD\test\Pain Drain\libraries\lvgl\src\extra\widgets\menu/lv_menu.c ****         }
 2043              		.loc 1 327 0
 2044 0104 6222     		movs	r2, #98
 2045 0106 A35C     		ldrb	r3, [r4, r2]
 2046 0108 0121     		movs	r1, #1
 2047 010a 8B43     		bics	r3, r1
 2048 010c A354     		strb	r3, [r4, r2]
 2049              	.L92:
 331:..\..\..\arduinoLCD\test\Pain Drain\libraries\lvgl\src\extra\widgets\menu/lv_menu.c ****     lv_menu_refr(obj);
 2050              		.loc 1 331 0
 2051 010e 2764     		str	r7, [r4, #64]
 332:..\..\..\arduinoLCD\test\Pain Drain\libraries\lvgl\src\extra\widgets\menu/lv_menu.c **** }
 2052              		.loc 1 332 0
 2053 0110 2000     		movs	r0, r4
 2054 0112 FFF7FEFF 		bl	lv_menu_refr
 2055              	.LVL313:
 333:..\..\..\arduinoLCD\test\Pain Drain\libraries\lvgl\src\extra\widgets\menu/lv_menu.c **** 
 2056              		.loc 1 333 0
 2057              		@ sp needed
 2058              	.LVL314:
 2059              	.LVL315:
 2060 0116 F8BD     		pop	{r3, r4, r5, r6, r7, pc}
 2061              	.L94:
 2062              		.align	2
 2063              	.L93:
 2064 0118 80000000 		.word	.LANCHOR1
 2065 011c 64200000 		.word	8292
 2066 0120 1E200000 		.word	8222
 2067 0124 D1270000 		.word	10193
 2068 0128 00000000 		.word	lv_menu_back_event_cb
 2069 012c 00000000 		.word	.LC3
 2070              		.cfi_endproc
 2071              	.LFE171:
 2072              		.size	lv_menu_set_sidebar_page, .-lv_menu_set_sidebar_page
 2073              		.section	.text.lv_menu_set_mode_root_back_btn,"ax",%progbits
 2074              		.align	2
 2075              		.global	lv_menu_set_mode_root_back_btn
 2076              		.code	16
 2077              		.thumb_func
 2078              		.type	lv_menu_set_mode_root_back_btn, %function
 2079              	lv_menu_set_mode_root_back_btn:
 2080              	.LFB173:
ARM GAS  C:\Users\haske\AppData\Local\Temp\ccp0JrPn.s 			page 56


 349:..\..\..\arduinoLCD\test\Pain Drain\libraries\lvgl\src\extra\widgets\menu/lv_menu.c ****     LV_ASSERT_OBJ(obj, MY_CLASS);
 2081              		.loc 1 349 0
 2082              		.cfi_startproc
 2083              		@ args = 0, pretend = 0, frame = 0
 2084              		@ frame_needed = 0, uses_anonymous_args = 0
 2085              	.LVL316:
 2086 0000 10B5     		push	{r4, lr}
 2087              		.cfi_def_cfa_offset 8
 2088              		.cfi_offset 4, -8
 2089              		.cfi_offset 14, -4
 2090              	.LVL317:
 354:..\..\..\arduinoLCD\test\Pain Drain\libraries\lvgl\src\extra\widgets\menu/lv_menu.c ****         menu->mode_root_back_btn = mode_root_back_btn;
 2091              		.loc 1 354 0
 2092 0002 6223     		movs	r3, #98
 2093 0004 C35C     		ldrb	r3, [r0, r3]
 2094 0006 1B07     		lsls	r3, r3, #28
 2095 0008 DB0F     		lsrs	r3, r3, #31
 2096 000a 8B42     		cmp	r3, r1
 2097 000c 0AD0     		beq	.L95
 355:..\..\..\arduinoLCD\test\Pain Drain\libraries\lvgl\src\extra\widgets\menu/lv_menu.c ****         lv_menu_refr(obj);
 2098              		.loc 1 355 0
 2099 000e 6222     		movs	r2, #98
 2100 0010 0123     		movs	r3, #1
 2101 0012 1940     		ands	r1, r3
 2102              	.LVL318:
 2103 0014 C900     		lsls	r1, r1, #3
 2104 0016 835C     		ldrb	r3, [r0, r2]
 2105 0018 0824     		movs	r4, #8
 2106 001a A343     		bics	r3, r4
 2107 001c 1943     		orrs	r1, r3
 2108 001e 8154     		strb	r1, [r0, r2]
 356:..\..\..\arduinoLCD\test\Pain Drain\libraries\lvgl\src\extra\widgets\menu/lv_menu.c ****     }
 2109              		.loc 1 356 0
 2110 0020 FFF7FEFF 		bl	lv_menu_refr
 2111              	.LVL319:
 2112              	.L95:
 358:..\..\..\arduinoLCD\test\Pain Drain\libraries\lvgl\src\extra\widgets\menu/lv_menu.c **** 
 2113              		.loc 1 358 0
 2114              		@ sp needed
 2115 0024 10BD     		pop	{r4, pc}
 2116              		.cfi_endproc
 2117              	.LFE173:
 2118              		.size	lv_menu_set_mode_root_back_btn, .-lv_menu_set_mode_root_back_btn
 2119 0026 C046     		.section	.text.lv_menu_load_page_event_cb,"ax",%progbits
 2120              		.align	2
 2121              		.code	16
 2122              		.thumb_func
 2123              		.type	lv_menu_load_page_event_cb, %function
 2124              	lv_menu_load_page_event_cb:
 2125              	.LFB191:
 655:..\..\..\arduinoLCD\test\Pain Drain\libraries\lvgl\src\extra\widgets\menu/lv_menu.c ****     lv_obj_t * obj = lv_event_get_target(e);
 2126              		.loc 1 655 0
 2127              		.cfi_startproc
 2128              		@ args = 0, pretend = 0, frame = 0
 2129              		@ frame_needed = 0, uses_anonymous_args = 0
 2130              	.LVL320:
 2131 0000 70B5     		push	{r4, r5, r6, lr}
ARM GAS  C:\Users\haske\AppData\Local\Temp\ccp0JrPn.s 			page 57


 2132              		.cfi_def_cfa_offset 16
 2133              		.cfi_offset 4, -16
 2134              		.cfi_offset 5, -12
 2135              		.cfi_offset 6, -8
 2136              		.cfi_offset 14, -4
 2137 0002 0400     		movs	r4, r0
 656:..\..\..\arduinoLCD\test\Pain Drain\libraries\lvgl\src\extra\widgets\menu/lv_menu.c ****     lv_menu_load_page_event_data_t * event_data = lv_event_get_user_data(e);
 2138              		.loc 1 656 0
 2139 0004 FFF7FEFF 		bl	lv_event_get_target
 2140              	.LVL321:
 2141 0008 0500     		movs	r5, r0
 2142              	.LVL322:
 657:..\..\..\arduinoLCD\test\Pain Drain\libraries\lvgl\src\extra\widgets\menu/lv_menu.c ****     lv_menu_t * menu = (lv_menu_t *)(event_data->menu);
 2143              		.loc 1 657 0
 2144 000a 2000     		movs	r0, r4
 2145              	.LVL323:
 2146 000c FFF7FEFF 		bl	lv_event_get_user_data
 2147              	.LVL324:
 658:..\..\..\arduinoLCD\test\Pain Drain\libraries\lvgl\src\extra\widgets\menu/lv_menu.c ****     lv_obj_t * page = event_data->page;
 2148              		.loc 1 658 0
 2149 0010 0468     		ldr	r4, [r0]
 2150              	.LVL325:
 659:..\..\..\arduinoLCD\test\Pain Drain\libraries\lvgl\src\extra\widgets\menu/lv_menu.c **** 
 2151              		.loc 1 659 0
 2152 0012 4668     		ldr	r6, [r0, #4]
 2153              	.LVL326:
 661:..\..\..\arduinoLCD\test\Pain Drain\libraries\lvgl\src\extra\widgets\menu/lv_menu.c ****         /* Check if clicked obj is in the sidebar */
 2154              		.loc 1 661 0
 2155 0014 236C     		ldr	r3, [r4, #64]
 2156 0016 002B     		cmp	r3, #0
 2157 0018 08D1     		bne	.L104
 2158              	.LBB5:
 2159 001a 1DE0     		b	.L99
 2160              	.LVL327:
 2161              	.L101:
 667:..\..\..\arduinoLCD\test\Pain Drain\libraries\lvgl\src\extra\widgets\menu/lv_menu.c ****             if(parent == menu->sidebar) {
 2162              		.loc 1 667 0
 2163 001c A042     		cmp	r0, r4
 2164 001e 0AD0     		beq	.L105
 668:..\..\..\arduinoLCD\test\Pain Drain\libraries\lvgl\src\extra\widgets\menu/lv_menu.c ****                 sidebar = true;
 2165              		.loc 1 668 0
 2166 0020 E36B     		ldr	r3, [r4, #60]
 2167 0022 9842     		cmp	r0, r3
 2168 0024 09D0     		beq	.L106
 672:..\..\..\arduinoLCD\test\Pain Drain\libraries\lvgl\src\extra\widgets\menu/lv_menu.c ****         }
 2169              		.loc 1 672 0
 2170 0026 FFF7FEFF 		bl	lv_obj_get_parent
 2171              	.LVL328:
 2172 002a 00E0     		b	.L98
 2173              	.LVL329:
 2174              	.L104:
 2175              	.LBE5:
 2176 002c 2800     		movs	r0, r5
 2177              	.LVL330:
 2178              	.L98:
 2179              	.LBB6:
 666:..\..\..\arduinoLCD\test\Pain Drain\libraries\lvgl\src\extra\widgets\menu/lv_menu.c ****             if(parent == (lv_obj_t *)menu) break;
ARM GAS  C:\Users\haske\AppData\Local\Temp\ccp0JrPn.s 			page 58


 2180              		.loc 1 666 0
 2181 002e 0028     		cmp	r0, #0
 2182 0030 F4D1     		bne	.L101
 663:..\..\..\arduinoLCD\test\Pain Drain\libraries\lvgl\src\extra\widgets\menu/lv_menu.c ****         lv_obj_t * parent = obj;
 2183              		.loc 1 663 0
 2184 0032 0023     		movs	r3, #0
 2185 0034 02E0     		b	.L100
 2186              	.L105:
 2187 0036 0023     		movs	r3, #0
 2188 0038 00E0     		b	.L100
 2189              	.L106:
 669:..\..\..\arduinoLCD\test\Pain Drain\libraries\lvgl\src\extra\widgets\menu/lv_menu.c ****                 break;
 2190              		.loc 1 669 0
 2191 003a 0123     		movs	r3, #1
 2192              	.L100:
 2193              	.LVL331:
 675:..\..\..\arduinoLCD\test\Pain Drain\libraries\lvgl\src\extra\widgets\menu/lv_menu.c ****             /* Clear checked state of previous obj */
 2194              		.loc 1 675 0
 2195 003c 002B     		cmp	r3, #0
 2196 003e 0BD0     		beq	.L99
 677:..\..\..\arduinoLCD\test\Pain Drain\libraries\lvgl\src\extra\widgets\menu/lv_menu.c ****                 lv_obj_clear_state(menu->selected_tab, LV_STATE_CHECKED);
 2197              		.loc 1 677 0
 2198 0040 206D     		ldr	r0, [r4, #80]
 2199              	.LVL332:
 2200 0042 8542     		cmp	r5, r0
 2201 0044 04D0     		beq	.L102
 677:..\..\..\arduinoLCD\test\Pain Drain\libraries\lvgl\src\extra\widgets\menu/lv_menu.c ****                 lv_obj_clear_state(menu->selected_tab, LV_STATE_CHECKED);
 2202              		.loc 1 677 0 is_stmt 0 discriminator 1
 2203 0046 0028     		cmp	r0, #0
 2204 0048 02D0     		beq	.L102
 678:..\..\..\arduinoLCD\test\Pain Drain\libraries\lvgl\src\extra\widgets\menu/lv_menu.c ****             }
 2205              		.loc 1 678 0 is_stmt 1
 2206 004a 0121     		movs	r1, #1
 2207 004c FFF7FEFF 		bl	lv_obj_clear_state
 2208              	.LVL333:
 2209              	.L102:
 681:..\..\..\arduinoLCD\test\Pain Drain\libraries\lvgl\src\extra\widgets\menu/lv_menu.c **** 
 2210              		.loc 1 681 0
 2211 0050 2000     		movs	r0, r4
 2212 0052 FFF7FEFF 		bl	lv_menu_clear_history
 2213              	.LVL334:
 683:..\..\..\arduinoLCD\test\Pain Drain\libraries\lvgl\src\extra\widgets\menu/lv_menu.c ****         }
 2214              		.loc 1 683 0
 2215 0056 2565     		str	r5, [r4, #80]
 2216              	.L99:
 2217              	.LBE6:
 687:..\..\..\arduinoLCD\test\Pain Drain\libraries\lvgl\src\extra\widgets\menu/lv_menu.c **** 
 2218              		.loc 1 687 0
 2219 0058 3100     		movs	r1, r6
 2220 005a 2000     		movs	r0, r4
 2221 005c FFF7FEFF 		bl	lv_menu_set_page
 2222              	.LVL335:
 689:..\..\..\arduinoLCD\test\Pain Drain\libraries\lvgl\src\extra\widgets\menu/lv_menu.c ****         /* Sidebar is not supported for now*/
 2223              		.loc 1 689 0
 2224 0060 FFF7FEFF 		bl	lv_group_get_default
 2225              	.LVL336:
 2226 0064 0028     		cmp	r0, #0
ARM GAS  C:\Users\haske\AppData\Local\Temp\ccp0JrPn.s 			page 59


 2227 0066 06D0     		beq	.L97
 689:..\..\..\arduinoLCD\test\Pain Drain\libraries\lvgl\src\extra\widgets\menu/lv_menu.c ****         /* Sidebar is not supported for now*/
 2228              		.loc 1 689 0 is_stmt 0 discriminator 1
 2229 0068 236C     		ldr	r3, [r4, #64]
 2230 006a 002B     		cmp	r3, #0
 2231 006c 03D1     		bne	.L97
 691:..\..\..\arduinoLCD\test\Pain Drain\libraries\lvgl\src\extra\widgets\menu/lv_menu.c ****     }
 2232              		.loc 1 691 0 is_stmt 1
 2233 006e FFF7FEFF 		bl	lv_group_get_default
 2234              	.LVL337:
 2235 0072 FFF7FEFF 		bl	lv_group_focus_next
 2236              	.LVL338:
 2237              	.L97:
 693:..\..\..\arduinoLCD\test\Pain Drain\libraries\lvgl\src\extra\widgets\menu/lv_menu.c **** 
 2238              		.loc 1 693 0
 2239              		@ sp needed
 2240              	.LVL339:
 2241              	.LVL340:
 2242              	.LVL341:
 2243 0076 70BD     		pop	{r4, r5, r6, pc}
 2244              		.cfi_endproc
 2245              	.LFE191:
 2246              		.size	lv_menu_load_page_event_cb, .-lv_menu_load_page_event_cb
 2247              		.global	lv_menu_sidebar_header_cont_class
 2248              		.global	lv_menu_main_header_cont_class
 2249              		.global	lv_menu_main_cont_class
 2250              		.global	lv_menu_sidebar_cont_class
 2251              		.global	lv_menu_separator_class
 2252              		.global	lv_menu_section_class
 2253              		.global	lv_menu_cont_class
 2254              		.global	lv_menu_page_class
 2255              		.global	lv_menu_class
 2256              		.section	.rodata
 2257              		.align	2
 2258              		.set	.LANCHOR0,. + 0
 2259              		.set	.LANCHOR1,. + 128
 2260              		.type	lv_menu_main_cont_class, %object
 2261              		.size	lv_menu_main_cont_class, 28
 2262              	lv_menu_main_cont_class:
 2263 0000 00000000 		.word	lv_obj_class
 2264 0004 00000000 		.space	24
 2264      00000000 
 2264      00000000 
 2264      00000000 
 2264      00000000 
 2265              		.type	lv_menu_main_header_cont_class, %object
 2266              		.size	lv_menu_main_header_cont_class, 28
 2267              	lv_menu_main_header_cont_class:
 2268 001c 00000000 		.word	lv_obj_class
 2269 0020 00000000 		.space	24
 2269      00000000 
 2269      00000000 
 2269      00000000 
 2269      00000000 
 2270              		.type	lv_menu_class, %object
 2271              		.size	lv_menu_class, 28
 2272              	lv_menu_class:
ARM GAS  C:\Users\haske\AppData\Local\Temp\ccp0JrPn.s 			page 60


 2273 0038 00000000 		.word	lv_obj_class
 2274 003c 00000000 		.word	lv_menu_constructor
 2275 0040 00000000 		.word	lv_menu_destructor
 2276 0044 00000000 		.space	8
 2276      00000000 
 2277 004c C300     		.short	195
 2278 004e 0401     		.short	260
 2279 0050 40       		.byte	64
 2280 0051 06       		.byte	6
 2281 0052 00       		.byte	0
 2282 0053 00       		.space	1
 2283              		.type	lv_menu_page_class, %object
 2284              		.size	lv_menu_page_class, 28
 2285              	lv_menu_page_class:
 2286 0054 00000000 		.word	lv_obj_class
 2287 0058 00000000 		.word	lv_menu_page_constructor
 2288 005c 00000000 		.word	lv_menu_page_destructor
 2289 0060 00000000 		.space	8
 2289      00000000 
 2290 0068 6420     		.short	8292
 2291 006a D127     		.short	10193
 2292 006c 80       		.byte	128
 2293 006d 02       		.byte	2
 2294 006e 00       		.byte	0
 2295 006f 00       		.space	1
 2296              		.type	lv_menu_cont_class, %object
 2297              		.size	lv_menu_cont_class, 28
 2298              	lv_menu_cont_class:
 2299 0070 00000000 		.word	lv_obj_class
 2300 0074 00000000 		.word	lv_menu_cont_constructor
 2301 0078 00000000 		.space	12
 2301      00000000 
 2301      00000000 
 2302 0084 6420     		.short	8292
 2303 0086 D127     		.short	10193
 2304 0088 00000000 		.space	4
 2305              		.type	lv_menu_section_class, %object
 2306              		.size	lv_menu_section_class, 28
 2307              	lv_menu_section_class:
 2308 008c 00000000 		.word	lv_obj_class
 2309 0090 00000000 		.word	lv_menu_section_constructor
 2310 0094 00000000 		.space	12
 2310      00000000 
 2310      00000000 
 2311 00a0 6420     		.short	8292
 2312 00a2 D127     		.short	10193
 2313 00a4 00000000 		.space	4
 2314              		.type	lv_menu_separator_class, %object
 2315              		.size	lv_menu_separator_class, 28
 2316              	lv_menu_separator_class:
 2317 00a8 00000000 		.word	lv_obj_class
 2318 00ac 00000000 		.space	16
 2318      00000000 
 2318      00000000 
 2318      00000000 
 2319 00bc D127     		.short	10193
 2320 00be D127     		.short	10193
ARM GAS  C:\Users\haske\AppData\Local\Temp\ccp0JrPn.s 			page 61


 2321 00c0 00000000 		.space	4
 2322              		.type	lv_menu_sidebar_cont_class, %object
 2323              		.size	lv_menu_sidebar_cont_class, 28
 2324              	lv_menu_sidebar_cont_class:
 2325 00c4 00000000 		.word	lv_obj_class
 2326 00c8 00000000 		.space	24
 2326      00000000 
 2326      00000000 
 2326      00000000 
 2326      00000000 
 2327              		.type	lv_menu_sidebar_header_cont_class, %object
 2328              		.size	lv_menu_sidebar_header_cont_class, 28
 2329              	lv_menu_sidebar_header_cont_class:
 2330 00e0 00000000 		.word	lv_obj_class
 2331 00e4 00000000 		.space	24
 2331      00000000 
 2331      00000000 
 2331      00000000 
 2331      00000000 
 2332              		.section	.rodata.str1.4,"aMS",%progbits,1
 2333              		.align	2
 2334              	.LC3:
 2335 0000 EF819300 		.ascii	"\357\201\223\000"
 2336              		.text
 2337              	.Letext0:
 2338              		.file 2 "c:\\program files (x86)\\cypress\\psoc creator\\4.4\\psoc creator\\import\\gnu\\arm\\5.4.
 2339              		.file 3 "c:\\program files (x86)\\cypress\\psoc creator\\4.4\\psoc creator\\import\\gnu\\arm\\5.4.
 2340              		.file 4 "c:\\projects\\paindrain\\arduinolcd\\test\\pain drain\\libraries\\lvgl\\src\\misc\\lv_are
 2341              		.file 5 "c:\\projects\\paindrain\\arduinolcd\\test\\pain drain\\libraries\\lvgl\\src\\font\\lv_fon
 2342              		.file 6 "c:\\projects\\paindrain\\arduinolcd\\test\\pain drain\\libraries\\lvgl\\src\\misc\\lv_col
 2343              		.file 7 "c:\\projects\\paindrain\\arduinolcd\\test\\pain drain\\libraries\\lvgl\\src\\misc\\lv_sty
 2344              		.file 8 "c:\\projects\\paindrain\\arduinolcd\\test\\pain drain\\libraries\\lvgl\\src\\core\\lv_obj
 2345              		.file 9 "c:\\projects\\paindrain\\arduinolcd\\test\\pain drain\\libraries\\lvgl\\src\\misc\\lv_ll.
 2346              		.file 10 "c:\\projects\\paindrain\\arduinolcd\\test\\pain drain\\libraries\\lvgl\\src\\core\\lv_gr
 2347              		.file 11 "c:\\projects\\paindrain\\arduinolcd\\test\\pain drain\\libraries\\lvgl\\src\\core\\lv_ob
 2348              		.file 12 "c:\\projects\\paindrain\\arduinolcd\\test\\pain drain\\libraries\\lvgl\\src\\core\\lv_ob
 2349              		.file 13 "c:\\projects\\paindrain\\arduinolcd\\test\\pain drain\\libraries\\lvgl\\src\\core\\lv_ob
 2350              		.file 14 "c:\\projects\\paindrain\\arduinolcd\\test\\pain drain\\libraries\\lvgl\\src\\core\\lv_ev
 2351              		.file 15 "..\\..\\..\\arduinoLCD\\test\\Pain Drain\\libraries\\lvgl\\src\\extra\\widgets\\menu\\lv
 2352              		.file 16 "c:\\projects\\paindrain\\arduinolcd\\test\\pain drain\\libraries\\lvgl\\src\\extra\\layo
 2353              		.file 17 "c:\\projects\\paindrain\\arduinolcd\\test\\pain drain\\libraries\\lvgl\\src\\core\\lv_ob
 2354              		.file 18 "c:\\projects\\paindrain\\arduinolcd\\test\\pain drain\\libraries\\lvgl\\src\\widgets\\lv
 2355              		.file 19 "c:\\projects\\paindrain\\arduinolcd\\test\\pain drain\\libraries\\lvgl\\src\\widgets\\lv
 2356              		.file 20 "c:\\projects\\paindrain\\arduinolcd\\test\\pain drain\\libraries\\lvgl\\src\\widgets\\lv
 2357              		.file 21 "c:\\projects\\paindrain\\arduinolcd\\test\\pain drain\\libraries\\lvgl\\src\\misc\\lv_me
 2358              		.file 22 "c:\\projects\\paindrain\\arduinolcd\\test\\pain drain\\libraries\\lvgl\\src\\core\\lv_ob
 2359              		.file 23 "c:\\program files (x86)\\cypress\\psoc creator\\4.4\\psoc creator\\import\\gnu\\arm\\5.4