ARM GAS  C:\Users\haske\AppData\Local\Temp\ccp0JrPn.s 			page 1


   1              		.syntax unified
   2              		.cpu cortex-m0plus
   3              		.fpu softvfp
   4              		.eabi_attribute 20, 1
   5              		.eabi_attribute 21, 1
   6              		.eabi_attribute 23, 3
   7              		.eabi_attribute 24, 1
   8              		.eabi_attribute 25, 1
   9              		.eabi_attribute 26, 1
  10              		.eabi_attribute 30, 1
  11              		.eabi_attribute 34, 0
  12              		.eabi_attribute 18, 4
  13              		.thumb
  14              		.syntax unified
  15              		.file	"lv_menu.c"
  16              		.text
  17              	.Ltext0:
  18              		.cfi_sections	.debug_frame
  19              		.section	.text.lv_menu_destructor,"ax",%progbits
  20              		.align	2
  21              		.code	16
  22              		.thumb_func
  23              		.type	lv_menu_destructor, %function
  24              	lv_menu_destructor:
  25              	.LFB184:
  26              		.file 1 "..\\..\\..\\arduinoLCD\\test\\Pain Drain\\libraries\\lvgl\\src\\extra\\widgets\\menu\\lv_
   1:..\..\..\arduinoLCD\test\Pain Drain\libraries\lvgl\src\extra\widgets\menu/lv_menu.c **** /**
   2:..\..\..\arduinoLCD\test\Pain Drain\libraries\lvgl\src\extra\widgets\menu/lv_menu.c ****  * @file lv_menu.c
   3:..\..\..\arduinoLCD\test\Pain Drain\libraries\lvgl\src\extra\widgets\menu/lv_menu.c ****  *
   4:..\..\..\arduinoLCD\test\Pain Drain\libraries\lvgl\src\extra\widgets\menu/lv_menu.c ****  */
   5:..\..\..\arduinoLCD\test\Pain Drain\libraries\lvgl\src\extra\widgets\menu/lv_menu.c **** 
   6:..\..\..\arduinoLCD\test\Pain Drain\libraries\lvgl\src\extra\widgets\menu/lv_menu.c **** /*********************
   7:..\..\..\arduinoLCD\test\Pain Drain\libraries\lvgl\src\extra\widgets\menu/lv_menu.c ****  *      INCLUDES
   8:..\..\..\arduinoLCD\test\Pain Drain\libraries\lvgl\src\extra\widgets\menu/lv_menu.c ****  *********************/
   9:..\..\..\arduinoLCD\test\Pain Drain\libraries\lvgl\src\extra\widgets\menu/lv_menu.c **** #include "lv_menu.h"
  10:..\..\..\arduinoLCD\test\Pain Drain\libraries\lvgl\src\extra\widgets\menu/lv_menu.c **** 
  11:..\..\..\arduinoLCD\test\Pain Drain\libraries\lvgl\src\extra\widgets\menu/lv_menu.c **** #if LV_USE_MENU
  12:..\..\..\arduinoLCD\test\Pain Drain\libraries\lvgl\src\extra\widgets\menu/lv_menu.c **** 
  13:..\..\..\arduinoLCD\test\Pain Drain\libraries\lvgl\src\extra\widgets\menu/lv_menu.c **** /*********************
  14:..\..\..\arduinoLCD\test\Pain Drain\libraries\lvgl\src\extra\widgets\menu/lv_menu.c ****  *      DEFINES
  15:..\..\..\arduinoLCD\test\Pain Drain\libraries\lvgl\src\extra\widgets\menu/lv_menu.c ****  *********************/
  16:..\..\..\arduinoLCD\test\Pain Drain\libraries\lvgl\src\extra\widgets\menu/lv_menu.c **** #define MY_CLASS &lv_menu_class
  17:..\..\..\arduinoLCD\test\Pain Drain\libraries\lvgl\src\extra\widgets\menu/lv_menu.c **** 
  18:..\..\..\arduinoLCD\test\Pain Drain\libraries\lvgl\src\extra\widgets\menu/lv_menu.c **** #include "../../../core/lv_obj.h"
  19:..\..\..\arduinoLCD\test\Pain Drain\libraries\lvgl\src\extra\widgets\menu/lv_menu.c **** #include "../../layouts/flex/lv_flex.h"
  20:..\..\..\arduinoLCD\test\Pain Drain\libraries\lvgl\src\extra\widgets\menu/lv_menu.c **** #include "../../../widgets/lv_label.h"
  21:..\..\..\arduinoLCD\test\Pain Drain\libraries\lvgl\src\extra\widgets\menu/lv_menu.c **** #include "../../../widgets/lv_btn.h"
  22:..\..\..\arduinoLCD\test\Pain Drain\libraries\lvgl\src\extra\widgets\menu/lv_menu.c **** #include "../../../widgets/lv_img.h"
  23:..\..\..\arduinoLCD\test\Pain Drain\libraries\lvgl\src\extra\widgets\menu/lv_menu.c **** 
  24:..\..\..\arduinoLCD\test\Pain Drain\libraries\lvgl\src\extra\widgets\menu/lv_menu.c **** /**********************
  25:..\..\..\arduinoLCD\test\Pain Drain\libraries\lvgl\src\extra\widgets\menu/lv_menu.c ****  *      TYPEDEFS
  26:..\..\..\arduinoLCD\test\Pain Drain\libraries\lvgl\src\extra\widgets\menu/lv_menu.c ****  **********************/
  27:..\..\..\arduinoLCD\test\Pain Drain\libraries\lvgl\src\extra\widgets\menu/lv_menu.c **** 
  28:..\..\..\arduinoLCD\test\Pain Drain\libraries\lvgl\src\extra\widgets\menu/lv_menu.c **** /**********************
  29:..\..\..\arduinoLCD\test\Pain Drain\libraries\lvgl\src\extra\widgets\menu/lv_menu.c ****  *  STATIC PROTOTYPES
  30:..\..\..\arduinoLCD\test\Pain Drain\libraries\lvgl\src\extra\widgets\menu/lv_menu.c ****  **********************/
  31:..\..\..\arduinoLCD\test\Pain Drain\libraries\lvgl\src\extra\widgets\menu/lv_menu.c **** static void lv_menu_constructor(const lv_obj_class_t * class_p, lv_obj_t * obj);
ARM GAS  C:\Users\haske\AppData\Local\Temp\ccp0JrPn.s 			page 2


  32:..\..\..\arduinoLCD\test\Pain Drain\libraries\lvgl\src\extra\widgets\menu/lv_menu.c **** static void lv_menu_destructor(const lv_obj_class_t * class_p, lv_obj_t * obj);
  33:..\..\..\arduinoLCD\test\Pain Drain\libraries\lvgl\src\extra\widgets\menu/lv_menu.c **** static void lv_menu_page_constructor(const lv_obj_class_t * class_p, lv_obj_t * obj);
  34:..\..\..\arduinoLCD\test\Pain Drain\libraries\lvgl\src\extra\widgets\menu/lv_menu.c **** static void lv_menu_page_destructor(const lv_obj_class_t * class_p, lv_obj_t * obj);
  35:..\..\..\arduinoLCD\test\Pain Drain\libraries\lvgl\src\extra\widgets\menu/lv_menu.c **** static void lv_menu_cont_constructor(const lv_obj_class_t * class_p, lv_obj_t * obj);
  36:..\..\..\arduinoLCD\test\Pain Drain\libraries\lvgl\src\extra\widgets\menu/lv_menu.c **** static void lv_menu_section_constructor(const lv_obj_class_t * class_p, lv_obj_t * obj);
  37:..\..\..\arduinoLCD\test\Pain Drain\libraries\lvgl\src\extra\widgets\menu/lv_menu.c **** 
  38:..\..\..\arduinoLCD\test\Pain Drain\libraries\lvgl\src\extra\widgets\menu/lv_menu.c **** const lv_obj_class_t lv_menu_class = {
  39:..\..\..\arduinoLCD\test\Pain Drain\libraries\lvgl\src\extra\widgets\menu/lv_menu.c ****     .constructor_cb = lv_menu_constructor,
  40:..\..\..\arduinoLCD\test\Pain Drain\libraries\lvgl\src\extra\widgets\menu/lv_menu.c ****     .destructor_cb = lv_menu_destructor,
  41:..\..\..\arduinoLCD\test\Pain Drain\libraries\lvgl\src\extra\widgets\menu/lv_menu.c ****     .base_class = &lv_obj_class,
  42:..\..\..\arduinoLCD\test\Pain Drain\libraries\lvgl\src\extra\widgets\menu/lv_menu.c ****     .width_def = (LV_DPI_DEF * 3) / 2,
  43:..\..\..\arduinoLCD\test\Pain Drain\libraries\lvgl\src\extra\widgets\menu/lv_menu.c ****     .height_def = LV_DPI_DEF * 2,
  44:..\..\..\arduinoLCD\test\Pain Drain\libraries\lvgl\src\extra\widgets\menu/lv_menu.c ****     .instance_size = sizeof(lv_menu_t)
  45:..\..\..\arduinoLCD\test\Pain Drain\libraries\lvgl\src\extra\widgets\menu/lv_menu.c **** };
  46:..\..\..\arduinoLCD\test\Pain Drain\libraries\lvgl\src\extra\widgets\menu/lv_menu.c **** const lv_obj_class_t lv_menu_page_class = {
  47:..\..\..\arduinoLCD\test\Pain Drain\libraries\lvgl\src\extra\widgets\menu/lv_menu.c ****     .constructor_cb = lv_menu_page_constructor,
  48:..\..\..\arduinoLCD\test\Pain Drain\libraries\lvgl\src\extra\widgets\menu/lv_menu.c ****     .destructor_cb = lv_menu_page_destructor,
  49:..\..\..\arduinoLCD\test\Pain Drain\libraries\lvgl\src\extra\widgets\menu/lv_menu.c ****     .base_class = &lv_obj_class,
  50:..\..\..\arduinoLCD\test\Pain Drain\libraries\lvgl\src\extra\widgets\menu/lv_menu.c ****     .width_def = LV_PCT(100),
  51:..\..\..\arduinoLCD\test\Pain Drain\libraries\lvgl\src\extra\widgets\menu/lv_menu.c ****     .height_def = LV_SIZE_CONTENT,
  52:..\..\..\arduinoLCD\test\Pain Drain\libraries\lvgl\src\extra\widgets\menu/lv_menu.c ****     .instance_size = sizeof(lv_menu_page_t)
  53:..\..\..\arduinoLCD\test\Pain Drain\libraries\lvgl\src\extra\widgets\menu/lv_menu.c **** };
  54:..\..\..\arduinoLCD\test\Pain Drain\libraries\lvgl\src\extra\widgets\menu/lv_menu.c **** 
  55:..\..\..\arduinoLCD\test\Pain Drain\libraries\lvgl\src\extra\widgets\menu/lv_menu.c **** const lv_obj_class_t lv_menu_cont_class = {
  56:..\..\..\arduinoLCD\test\Pain Drain\libraries\lvgl\src\extra\widgets\menu/lv_menu.c ****     .constructor_cb = lv_menu_cont_constructor,
  57:..\..\..\arduinoLCD\test\Pain Drain\libraries\lvgl\src\extra\widgets\menu/lv_menu.c ****     .base_class = &lv_obj_class,
  58:..\..\..\arduinoLCD\test\Pain Drain\libraries\lvgl\src\extra\widgets\menu/lv_menu.c ****     .width_def = LV_PCT(100),
  59:..\..\..\arduinoLCD\test\Pain Drain\libraries\lvgl\src\extra\widgets\menu/lv_menu.c ****     .height_def = LV_SIZE_CONTENT
  60:..\..\..\arduinoLCD\test\Pain Drain\libraries\lvgl\src\extra\widgets\menu/lv_menu.c **** };
  61:..\..\..\arduinoLCD\test\Pain Drain\libraries\lvgl\src\extra\widgets\menu/lv_menu.c **** 
  62:..\..\..\arduinoLCD\test\Pain Drain\libraries\lvgl\src\extra\widgets\menu/lv_menu.c **** const lv_obj_class_t lv_menu_section_class = {
  63:..\..\..\arduinoLCD\test\Pain Drain\libraries\lvgl\src\extra\widgets\menu/lv_menu.c ****     .constructor_cb = lv_menu_section_constructor,
  64:..\..\..\arduinoLCD\test\Pain Drain\libraries\lvgl\src\extra\widgets\menu/lv_menu.c ****     .base_class = &lv_obj_class,
  65:..\..\..\arduinoLCD\test\Pain Drain\libraries\lvgl\src\extra\widgets\menu/lv_menu.c ****     .width_def = LV_PCT(100),
  66:..\..\..\arduinoLCD\test\Pain Drain\libraries\lvgl\src\extra\widgets\menu/lv_menu.c ****     .height_def = LV_SIZE_CONTENT
  67:..\..\..\arduinoLCD\test\Pain Drain\libraries\lvgl\src\extra\widgets\menu/lv_menu.c **** };
  68:..\..\..\arduinoLCD\test\Pain Drain\libraries\lvgl\src\extra\widgets\menu/lv_menu.c **** 
  69:..\..\..\arduinoLCD\test\Pain Drain\libraries\lvgl\src\extra\widgets\menu/lv_menu.c **** const lv_obj_class_t lv_menu_separator_class = {
  70:..\..\..\arduinoLCD\test\Pain Drain\libraries\lvgl\src\extra\widgets\menu/lv_menu.c ****     .base_class = &lv_obj_class,
  71:..\..\..\arduinoLCD\test\Pain Drain\libraries\lvgl\src\extra\widgets\menu/lv_menu.c ****     .width_def = LV_SIZE_CONTENT,
  72:..\..\..\arduinoLCD\test\Pain Drain\libraries\lvgl\src\extra\widgets\menu/lv_menu.c ****     .height_def = LV_SIZE_CONTENT
  73:..\..\..\arduinoLCD\test\Pain Drain\libraries\lvgl\src\extra\widgets\menu/lv_menu.c **** };
  74:..\..\..\arduinoLCD\test\Pain Drain\libraries\lvgl\src\extra\widgets\menu/lv_menu.c **** 
  75:..\..\..\arduinoLCD\test\Pain Drain\libraries\lvgl\src\extra\widgets\menu/lv_menu.c **** const lv_obj_class_t lv_menu_sidebar_cont_class = {
  76:..\..\..\arduinoLCD\test\Pain Drain\libraries\lvgl\src\extra\widgets\menu/lv_menu.c ****     .base_class = &lv_obj_class
  77:..\..\..\arduinoLCD\test\Pain Drain\libraries\lvgl\src\extra\widgets\menu/lv_menu.c **** };
  78:..\..\..\arduinoLCD\test\Pain Drain\libraries\lvgl\src\extra\widgets\menu/lv_menu.c **** 
  79:..\..\..\arduinoLCD\test\Pain Drain\libraries\lvgl\src\extra\widgets\menu/lv_menu.c **** const lv_obj_class_t lv_menu_main_cont_class = {
  80:..\..\..\arduinoLCD\test\Pain Drain\libraries\lvgl\src\extra\widgets\menu/lv_menu.c ****     .base_class = &lv_obj_class
  81:..\..\..\arduinoLCD\test\Pain Drain\libraries\lvgl\src\extra\widgets\menu/lv_menu.c **** };
  82:..\..\..\arduinoLCD\test\Pain Drain\libraries\lvgl\src\extra\widgets\menu/lv_menu.c **** 
  83:..\..\..\arduinoLCD\test\Pain Drain\libraries\lvgl\src\extra\widgets\menu/lv_menu.c **** const lv_obj_class_t lv_menu_main_header_cont_class = {
  84:..\..\..\arduinoLCD\test\Pain Drain\libraries\lvgl\src\extra\widgets\menu/lv_menu.c ****     .base_class = &lv_obj_class
  85:..\..\..\arduinoLCD\test\Pain Drain\libraries\lvgl\src\extra\widgets\menu/lv_menu.c **** };
  86:..\..\..\arduinoLCD\test\Pain Drain\libraries\lvgl\src\extra\widgets\menu/lv_menu.c **** 
  87:..\..\..\arduinoLCD\test\Pain Drain\libraries\lvgl\src\extra\widgets\menu/lv_menu.c **** const lv_obj_class_t lv_menu_sidebar_header_cont_class = {
  88:..\..\..\arduinoLCD\test\Pain Drain\libraries\lvgl\src\extra\widgets\menu/lv_menu.c ****     .base_class = &lv_obj_class
ARM GAS  C:\Users\haske\AppData\Local\Temp\ccp0JrPn.s 			page 3


  89:..\..\..\arduinoLCD\test\Pain Drain\libraries\lvgl\src\extra\widgets\menu/lv_menu.c **** };
  90:..\..\..\arduinoLCD\test\Pain Drain\libraries\lvgl\src\extra\widgets\menu/lv_menu.c **** 
  91:..\..\..\arduinoLCD\test\Pain Drain\libraries\lvgl\src\extra\widgets\menu/lv_menu.c **** static void lv_menu_refr(lv_obj_t * obj);
  92:..\..\..\arduinoLCD\test\Pain Drain\libraries\lvgl\src\extra\widgets\menu/lv_menu.c **** static void lv_menu_refr_sidebar_header_mode(lv_obj_t * obj);
  93:..\..\..\arduinoLCD\test\Pain Drain\libraries\lvgl\src\extra\widgets\menu/lv_menu.c **** static void lv_menu_refr_main_header_mode(lv_obj_t * obj);
  94:..\..\..\arduinoLCD\test\Pain Drain\libraries\lvgl\src\extra\widgets\menu/lv_menu.c **** static void lv_menu_load_page_event_cb(lv_event_t * e);
  95:..\..\..\arduinoLCD\test\Pain Drain\libraries\lvgl\src\extra\widgets\menu/lv_menu.c **** static void lv_menu_obj_del_event_cb(lv_event_t * e);
  96:..\..\..\arduinoLCD\test\Pain Drain\libraries\lvgl\src\extra\widgets\menu/lv_menu.c **** static void lv_menu_back_event_cb(lv_event_t * e);
  97:..\..\..\arduinoLCD\test\Pain Drain\libraries\lvgl\src\extra\widgets\menu/lv_menu.c **** static void lv_menu_value_changed_event_cb(lv_event_t * e);
  98:..\..\..\arduinoLCD\test\Pain Drain\libraries\lvgl\src\extra\widgets\menu/lv_menu.c **** /**********************
  99:..\..\..\arduinoLCD\test\Pain Drain\libraries\lvgl\src\extra\widgets\menu/lv_menu.c ****  *  STATIC VARIABLES
 100:..\..\..\arduinoLCD\test\Pain Drain\libraries\lvgl\src\extra\widgets\menu/lv_menu.c ****  **********************/
 101:..\..\..\arduinoLCD\test\Pain Drain\libraries\lvgl\src\extra\widgets\menu/lv_menu.c **** 
 102:..\..\..\arduinoLCD\test\Pain Drain\libraries\lvgl\src\extra\widgets\menu/lv_menu.c **** /**********************
 103:..\..\..\arduinoLCD\test\Pain Drain\libraries\lvgl\src\extra\widgets\menu/lv_menu.c ****  *      MACROS
 104:..\..\..\arduinoLCD\test\Pain Drain\libraries\lvgl\src\extra\widgets\menu/lv_menu.c ****  **********************/
 105:..\..\..\arduinoLCD\test\Pain Drain\libraries\lvgl\src\extra\widgets\menu/lv_menu.c **** 
 106:..\..\..\arduinoLCD\test\Pain Drain\libraries\lvgl\src\extra\widgets\menu/lv_menu.c **** /**********************
 107:..\..\..\arduinoLCD\test\Pain Drain\libraries\lvgl\src\extra\widgets\menu/lv_menu.c ****  *   GLOBAL FUNCTIONS
 108:..\..\..\arduinoLCD\test\Pain Drain\libraries\lvgl\src\extra\widgets\menu/lv_menu.c ****  **********************/
 109:..\..\..\arduinoLCD\test\Pain Drain\libraries\lvgl\src\extra\widgets\menu/lv_menu.c **** bool lv_menu_item_back_btn_is_root(lv_obj_t * menu, lv_obj_t * obj);
 110:..\..\..\arduinoLCD\test\Pain Drain\libraries\lvgl\src\extra\widgets\menu/lv_menu.c **** void lv_menu_clear_history(lv_obj_t * obj);
 111:..\..\..\arduinoLCD\test\Pain Drain\libraries\lvgl\src\extra\widgets\menu/lv_menu.c **** 
 112:..\..\..\arduinoLCD\test\Pain Drain\libraries\lvgl\src\extra\widgets\menu/lv_menu.c **** lv_obj_t * lv_menu_create(lv_obj_t * parent)
 113:..\..\..\arduinoLCD\test\Pain Drain\libraries\lvgl\src\extra\widgets\menu/lv_menu.c **** {
 114:..\..\..\arduinoLCD\test\Pain Drain\libraries\lvgl\src\extra\widgets\menu/lv_menu.c ****     LV_LOG_INFO("begin");
 115:..\..\..\arduinoLCD\test\Pain Drain\libraries\lvgl\src\extra\widgets\menu/lv_menu.c ****     lv_obj_t * obj = lv_obj_class_create_obj(MY_CLASS, parent);
 116:..\..\..\arduinoLCD\test\Pain Drain\libraries\lvgl\src\extra\widgets\menu/lv_menu.c ****     lv_obj_class_init_obj(obj);
 117:..\..\..\arduinoLCD\test\Pain Drain\libraries\lvgl\src\extra\widgets\menu/lv_menu.c ****     return obj;
 118:..\..\..\arduinoLCD\test\Pain Drain\libraries\lvgl\src\extra\widgets\menu/lv_menu.c **** }
 119:..\..\..\arduinoLCD\test\Pain Drain\libraries\lvgl\src\extra\widgets\menu/lv_menu.c **** 
 120:..\..\..\arduinoLCD\test\Pain Drain\libraries\lvgl\src\extra\widgets\menu/lv_menu.c **** lv_obj_t * lv_menu_page_create(lv_obj_t * parent, char * title)
 121:..\..\..\arduinoLCD\test\Pain Drain\libraries\lvgl\src\extra\widgets\menu/lv_menu.c **** {
 122:..\..\..\arduinoLCD\test\Pain Drain\libraries\lvgl\src\extra\widgets\menu/lv_menu.c ****     LV_LOG_INFO("begin");
 123:..\..\..\arduinoLCD\test\Pain Drain\libraries\lvgl\src\extra\widgets\menu/lv_menu.c ****     lv_obj_t * obj = lv_obj_class_create_obj(&lv_menu_page_class, parent);
 124:..\..\..\arduinoLCD\test\Pain Drain\libraries\lvgl\src\extra\widgets\menu/lv_menu.c ****     lv_obj_class_init_obj(obj);
 125:..\..\..\arduinoLCD\test\Pain Drain\libraries\lvgl\src\extra\widgets\menu/lv_menu.c **** 
 126:..\..\..\arduinoLCD\test\Pain Drain\libraries\lvgl\src\extra\widgets\menu/lv_menu.c ****     lv_menu_page_t * page = (lv_menu_page_t *)obj;
 127:..\..\..\arduinoLCD\test\Pain Drain\libraries\lvgl\src\extra\widgets\menu/lv_menu.c ****     if(title) {
 128:..\..\..\arduinoLCD\test\Pain Drain\libraries\lvgl\src\extra\widgets\menu/lv_menu.c ****         page->title = lv_mem_alloc(strlen(title) + 1);
 129:..\..\..\arduinoLCD\test\Pain Drain\libraries\lvgl\src\extra\widgets\menu/lv_menu.c ****         LV_ASSERT_MALLOC(page->title);
 130:..\..\..\arduinoLCD\test\Pain Drain\libraries\lvgl\src\extra\widgets\menu/lv_menu.c ****         if(page->title == NULL) return NULL;
 131:..\..\..\arduinoLCD\test\Pain Drain\libraries\lvgl\src\extra\widgets\menu/lv_menu.c ****         strcpy(page->title, title);
 132:..\..\..\arduinoLCD\test\Pain Drain\libraries\lvgl\src\extra\widgets\menu/lv_menu.c ****     }
 133:..\..\..\arduinoLCD\test\Pain Drain\libraries\lvgl\src\extra\widgets\menu/lv_menu.c ****     else {
 134:..\..\..\arduinoLCD\test\Pain Drain\libraries\lvgl\src\extra\widgets\menu/lv_menu.c ****         page->title = NULL;
 135:..\..\..\arduinoLCD\test\Pain Drain\libraries\lvgl\src\extra\widgets\menu/lv_menu.c ****     }
 136:..\..\..\arduinoLCD\test\Pain Drain\libraries\lvgl\src\extra\widgets\menu/lv_menu.c **** 
 137:..\..\..\arduinoLCD\test\Pain Drain\libraries\lvgl\src\extra\widgets\menu/lv_menu.c ****     return obj;
 138:..\..\..\arduinoLCD\test\Pain Drain\libraries\lvgl\src\extra\widgets\menu/lv_menu.c **** }
 139:..\..\..\arduinoLCD\test\Pain Drain\libraries\lvgl\src\extra\widgets\menu/lv_menu.c **** 
 140:..\..\..\arduinoLCD\test\Pain Drain\libraries\lvgl\src\extra\widgets\menu/lv_menu.c **** lv_obj_t * lv_menu_cont_create(lv_obj_t * parent)
 141:..\..\..\arduinoLCD\test\Pain Drain\libraries\lvgl\src\extra\widgets\menu/lv_menu.c **** {
 142:..\..\..\arduinoLCD\test\Pain Drain\libraries\lvgl\src\extra\widgets\menu/lv_menu.c ****     LV_LOG_INFO("begin");
 143:..\..\..\arduinoLCD\test\Pain Drain\libraries\lvgl\src\extra\widgets\menu/lv_menu.c ****     lv_obj_t * obj = lv_obj_class_create_obj(&lv_menu_cont_class, parent);
 144:..\..\..\arduinoLCD\test\Pain Drain\libraries\lvgl\src\extra\widgets\menu/lv_menu.c ****     lv_obj_class_init_obj(obj);
 145:..\..\..\arduinoLCD\test\Pain Drain\libraries\lvgl\src\extra\widgets\menu/lv_menu.c ****     return obj;
ARM GAS  C:\Users\haske\AppData\Local\Temp\ccp0JrPn.s 			page 4


 146:..\..\..\arduinoLCD\test\Pain Drain\libraries\lvgl\src\extra\widgets\menu/lv_menu.c **** }
 147:..\..\..\arduinoLCD\test\Pain Drain\libraries\lvgl\src\extra\widgets\menu/lv_menu.c **** 
 148:..\..\..\arduinoLCD\test\Pain Drain\libraries\lvgl\src\extra\widgets\menu/lv_menu.c **** lv_obj_t * lv_menu_section_create(lv_obj_t * parent)
 149:..\..\..\arduinoLCD\test\Pain Drain\libraries\lvgl\src\extra\widgets\menu/lv_menu.c **** {
 150:..\..\..\arduinoLCD\test\Pain Drain\libraries\lvgl\src\extra\widgets\menu/lv_menu.c ****     LV_LOG_INFO("begin");
 151:..\..\..\arduinoLCD\test\Pain Drain\libraries\lvgl\src\extra\widgets\menu/lv_menu.c ****     lv_obj_t * obj = lv_obj_class_create_obj(&lv_menu_section_class, parent);
 152:..\..\..\arduinoLCD\test\Pain Drain\libraries\lvgl\src\extra\widgets\menu/lv_menu.c ****     lv_obj_class_init_obj(obj);
 153:..\..\..\arduinoLCD\test\Pain Drain\libraries\lvgl\src\extra\widgets\menu/lv_menu.c ****     return obj;
 154:..\..\..\arduinoLCD\test\Pain Drain\libraries\lvgl\src\extra\widgets\menu/lv_menu.c **** }
 155:..\..\..\arduinoLCD\test\Pain Drain\libraries\lvgl\src\extra\widgets\menu/lv_menu.c **** 
 156:..\..\..\arduinoLCD\test\Pain Drain\libraries\lvgl\src\extra\widgets\menu/lv_menu.c **** lv_obj_t * lv_menu_separator_create(lv_obj_t * parent)
 157:..\..\..\arduinoLCD\test\Pain Drain\libraries\lvgl\src\extra\widgets\menu/lv_menu.c **** {
 158:..\..\..\arduinoLCD\test\Pain Drain\libraries\lvgl\src\extra\widgets\menu/lv_menu.c ****     LV_LOG_INFO("begin");
 159:..\..\..\arduinoLCD\test\Pain Drain\libraries\lvgl\src\extra\widgets\menu/lv_menu.c ****     lv_obj_t * obj = lv_obj_class_create_obj(&lv_menu_separator_class, parent);
 160:..\..\..\arduinoLCD\test\Pain Drain\libraries\lvgl\src\extra\widgets\menu/lv_menu.c ****     lv_obj_class_init_obj(obj);
 161:..\..\..\arduinoLCD\test\Pain Drain\libraries\lvgl\src\extra\widgets\menu/lv_menu.c ****     return obj;
 162:..\..\..\arduinoLCD\test\Pain Drain\libraries\lvgl\src\extra\widgets\menu/lv_menu.c **** }
 163:..\..\..\arduinoLCD\test\Pain Drain\libraries\lvgl\src\extra\widgets\menu/lv_menu.c **** 
 164:..\..\..\arduinoLCD\test\Pain Drain\libraries\lvgl\src\extra\widgets\menu/lv_menu.c **** void lv_menu_refr(lv_obj_t * obj)
 165:..\..\..\arduinoLCD\test\Pain Drain\libraries\lvgl\src\extra\widgets\menu/lv_menu.c **** {
 166:..\..\..\arduinoLCD\test\Pain Drain\libraries\lvgl\src\extra\widgets\menu/lv_menu.c ****     LV_ASSERT_OBJ(obj, MY_CLASS);
 167:..\..\..\arduinoLCD\test\Pain Drain\libraries\lvgl\src\extra\widgets\menu/lv_menu.c **** 
 168:..\..\..\arduinoLCD\test\Pain Drain\libraries\lvgl\src\extra\widgets\menu/lv_menu.c ****     lv_menu_t * menu = (lv_menu_t *)obj;
 169:..\..\..\arduinoLCD\test\Pain Drain\libraries\lvgl\src\extra\widgets\menu/lv_menu.c ****     lv_ll_t * history_ll = &(menu->history_ll);
 170:..\..\..\arduinoLCD\test\Pain Drain\libraries\lvgl\src\extra\widgets\menu/lv_menu.c **** 
 171:..\..\..\arduinoLCD\test\Pain Drain\libraries\lvgl\src\extra\widgets\menu/lv_menu.c ****     /* The current menu */
 172:..\..\..\arduinoLCD\test\Pain Drain\libraries\lvgl\src\extra\widgets\menu/lv_menu.c ****     lv_menu_history_t * act_hist = _lv_ll_get_head(history_ll);
 173:..\..\..\arduinoLCD\test\Pain Drain\libraries\lvgl\src\extra\widgets\menu/lv_menu.c **** 
 174:..\..\..\arduinoLCD\test\Pain Drain\libraries\lvgl\src\extra\widgets\menu/lv_menu.c ****     lv_obj_t * page = NULL;
 175:..\..\..\arduinoLCD\test\Pain Drain\libraries\lvgl\src\extra\widgets\menu/lv_menu.c **** 
 176:..\..\..\arduinoLCD\test\Pain Drain\libraries\lvgl\src\extra\widgets\menu/lv_menu.c ****     if(act_hist != NULL) {
 177:..\..\..\arduinoLCD\test\Pain Drain\libraries\lvgl\src\extra\widgets\menu/lv_menu.c ****         page = act_hist->page;
 178:..\..\..\arduinoLCD\test\Pain Drain\libraries\lvgl\src\extra\widgets\menu/lv_menu.c ****         /* Delete the current item from the history */
 179:..\..\..\arduinoLCD\test\Pain Drain\libraries\lvgl\src\extra\widgets\menu/lv_menu.c ****         _lv_ll_remove(history_ll, act_hist);
 180:..\..\..\arduinoLCD\test\Pain Drain\libraries\lvgl\src\extra\widgets\menu/lv_menu.c ****         lv_mem_free(act_hist);
 181:..\..\..\arduinoLCD\test\Pain Drain\libraries\lvgl\src\extra\widgets\menu/lv_menu.c ****         menu->cur_depth--;
 182:..\..\..\arduinoLCD\test\Pain Drain\libraries\lvgl\src\extra\widgets\menu/lv_menu.c ****     }
 183:..\..\..\arduinoLCD\test\Pain Drain\libraries\lvgl\src\extra\widgets\menu/lv_menu.c **** 
 184:..\..\..\arduinoLCD\test\Pain Drain\libraries\lvgl\src\extra\widgets\menu/lv_menu.c ****     /* Set it */
 185:..\..\..\arduinoLCD\test\Pain Drain\libraries\lvgl\src\extra\widgets\menu/lv_menu.c ****     lv_menu_set_page(obj, page);
 186:..\..\..\arduinoLCD\test\Pain Drain\libraries\lvgl\src\extra\widgets\menu/lv_menu.c **** }
 187:..\..\..\arduinoLCD\test\Pain Drain\libraries\lvgl\src\extra\widgets\menu/lv_menu.c **** 
 188:..\..\..\arduinoLCD\test\Pain Drain\libraries\lvgl\src\extra\widgets\menu/lv_menu.c **** /*=====================
 189:..\..\..\arduinoLCD\test\Pain Drain\libraries\lvgl\src\extra\widgets\menu/lv_menu.c ****  * Setter functions
 190:..\..\..\arduinoLCD\test\Pain Drain\libraries\lvgl\src\extra\widgets\menu/lv_menu.c ****  *====================*/
 191:..\..\..\arduinoLCD\test\Pain Drain\libraries\lvgl\src\extra\widgets\menu/lv_menu.c **** 
 192:..\..\..\arduinoLCD\test\Pain Drain\libraries\lvgl\src\extra\widgets\menu/lv_menu.c **** void lv_menu_set_page(lv_obj_t * obj, lv_obj_t * page)
 193:..\..\..\arduinoLCD\test\Pain Drain\libraries\lvgl\src\extra\widgets\menu/lv_menu.c **** {
 194:..\..\..\arduinoLCD\test\Pain Drain\libraries\lvgl\src\extra\widgets\menu/lv_menu.c ****     LV_ASSERT_OBJ(obj, MY_CLASS);
 195:..\..\..\arduinoLCD\test\Pain Drain\libraries\lvgl\src\extra\widgets\menu/lv_menu.c **** 
 196:..\..\..\arduinoLCD\test\Pain Drain\libraries\lvgl\src\extra\widgets\menu/lv_menu.c ****     lv_menu_t * menu = (lv_menu_t *)obj;
 197:..\..\..\arduinoLCD\test\Pain Drain\libraries\lvgl\src\extra\widgets\menu/lv_menu.c **** 
 198:..\..\..\arduinoLCD\test\Pain Drain\libraries\lvgl\src\extra\widgets\menu/lv_menu.c ****     /* Hide previous page */
 199:..\..\..\arduinoLCD\test\Pain Drain\libraries\lvgl\src\extra\widgets\menu/lv_menu.c ****     if(menu->main_page != NULL) {
 200:..\..\..\arduinoLCD\test\Pain Drain\libraries\lvgl\src\extra\widgets\menu/lv_menu.c ****         lv_obj_set_parent(menu->main_page, menu->storage);
 201:..\..\..\arduinoLCD\test\Pain Drain\libraries\lvgl\src\extra\widgets\menu/lv_menu.c ****     }
 202:..\..\..\arduinoLCD\test\Pain Drain\libraries\lvgl\src\extra\widgets\menu/lv_menu.c **** 
ARM GAS  C:\Users\haske\AppData\Local\Temp\ccp0JrPn.s 			page 5


 203:..\..\..\arduinoLCD\test\Pain Drain\libraries\lvgl\src\extra\widgets\menu/lv_menu.c ****     if(page != NULL) {
 204:..\..\..\arduinoLCD\test\Pain Drain\libraries\lvgl\src\extra\widgets\menu/lv_menu.c ****         /* Add a new node */
 205:..\..\..\arduinoLCD\test\Pain Drain\libraries\lvgl\src\extra\widgets\menu/lv_menu.c ****         lv_ll_t * history_ll = &(menu->history_ll);
 206:..\..\..\arduinoLCD\test\Pain Drain\libraries\lvgl\src\extra\widgets\menu/lv_menu.c ****         lv_menu_history_t * new_node = _lv_ll_ins_head(history_ll);
 207:..\..\..\arduinoLCD\test\Pain Drain\libraries\lvgl\src\extra\widgets\menu/lv_menu.c ****         LV_ASSERT_MALLOC(new_node);
 208:..\..\..\arduinoLCD\test\Pain Drain\libraries\lvgl\src\extra\widgets\menu/lv_menu.c ****         new_node->page = page;
 209:..\..\..\arduinoLCD\test\Pain Drain\libraries\lvgl\src\extra\widgets\menu/lv_menu.c ****         menu->cur_depth++;
 210:..\..\..\arduinoLCD\test\Pain Drain\libraries\lvgl\src\extra\widgets\menu/lv_menu.c **** 
 211:..\..\..\arduinoLCD\test\Pain Drain\libraries\lvgl\src\extra\widgets\menu/lv_menu.c ****         /* Place page in main */
 212:..\..\..\arduinoLCD\test\Pain Drain\libraries\lvgl\src\extra\widgets\menu/lv_menu.c ****         lv_obj_set_parent(page, menu->main);
 213:..\..\..\arduinoLCD\test\Pain Drain\libraries\lvgl\src\extra\widgets\menu/lv_menu.c ****     }
 214:..\..\..\arduinoLCD\test\Pain Drain\libraries\lvgl\src\extra\widgets\menu/lv_menu.c ****     else {
 215:..\..\..\arduinoLCD\test\Pain Drain\libraries\lvgl\src\extra\widgets\menu/lv_menu.c ****         /* Empty page, clear history */
 216:..\..\..\arduinoLCD\test\Pain Drain\libraries\lvgl\src\extra\widgets\menu/lv_menu.c ****         lv_menu_clear_history(obj);
 217:..\..\..\arduinoLCD\test\Pain Drain\libraries\lvgl\src\extra\widgets\menu/lv_menu.c ****     }
 218:..\..\..\arduinoLCD\test\Pain Drain\libraries\lvgl\src\extra\widgets\menu/lv_menu.c **** 
 219:..\..\..\arduinoLCD\test\Pain Drain\libraries\lvgl\src\extra\widgets\menu/lv_menu.c ****     menu->main_page = page;
 220:..\..\..\arduinoLCD\test\Pain Drain\libraries\lvgl\src\extra\widgets\menu/lv_menu.c **** 
 221:..\..\..\arduinoLCD\test\Pain Drain\libraries\lvgl\src\extra\widgets\menu/lv_menu.c ****     /* If there is a selected tab, update checked state */
 222:..\..\..\arduinoLCD\test\Pain Drain\libraries\lvgl\src\extra\widgets\menu/lv_menu.c ****     if(menu->selected_tab != NULL) {
 223:..\..\..\arduinoLCD\test\Pain Drain\libraries\lvgl\src\extra\widgets\menu/lv_menu.c ****         if(menu->sidebar_page != NULL) {
 224:..\..\..\arduinoLCD\test\Pain Drain\libraries\lvgl\src\extra\widgets\menu/lv_menu.c ****             lv_obj_add_state(menu->selected_tab, LV_STATE_CHECKED);
 225:..\..\..\arduinoLCD\test\Pain Drain\libraries\lvgl\src\extra\widgets\menu/lv_menu.c ****         }
 226:..\..\..\arduinoLCD\test\Pain Drain\libraries\lvgl\src\extra\widgets\menu/lv_menu.c ****         else {
 227:..\..\..\arduinoLCD\test\Pain Drain\libraries\lvgl\src\extra\widgets\menu/lv_menu.c ****             lv_obj_clear_state(menu->selected_tab, LV_STATE_CHECKED);
 228:..\..\..\arduinoLCD\test\Pain Drain\libraries\lvgl\src\extra\widgets\menu/lv_menu.c ****         }
 229:..\..\..\arduinoLCD\test\Pain Drain\libraries\lvgl\src\extra\widgets\menu/lv_menu.c ****     }
 230:..\..\..\arduinoLCD\test\Pain Drain\libraries\lvgl\src\extra\widgets\menu/lv_menu.c **** 
 231:..\..\..\arduinoLCD\test\Pain Drain\libraries\lvgl\src\extra\widgets\menu/lv_menu.c ****     /* Back btn management */
 232:..\..\..\arduinoLCD\test\Pain Drain\libraries\lvgl\src\extra\widgets\menu/lv_menu.c ****     if(menu->sidebar_page != NULL) {
 233:..\..\..\arduinoLCD\test\Pain Drain\libraries\lvgl\src\extra\widgets\menu/lv_menu.c ****         /* With sidebar enabled */
 234:..\..\..\arduinoLCD\test\Pain Drain\libraries\lvgl\src\extra\widgets\menu/lv_menu.c ****         if(menu->sidebar_generated) {
 235:..\..\..\arduinoLCD\test\Pain Drain\libraries\lvgl\src\extra\widgets\menu/lv_menu.c ****             if(menu->mode_root_back_btn == LV_MENU_ROOT_BACK_BTN_ENABLED) {
 236:..\..\..\arduinoLCD\test\Pain Drain\libraries\lvgl\src\extra\widgets\menu/lv_menu.c ****                 /* Root back btn is always shown if enabled*/
 237:..\..\..\arduinoLCD\test\Pain Drain\libraries\lvgl\src\extra\widgets\menu/lv_menu.c ****                 lv_obj_clear_flag(menu->sidebar_header_back_btn, LV_OBJ_FLAG_HIDDEN);
 238:..\..\..\arduinoLCD\test\Pain Drain\libraries\lvgl\src\extra\widgets\menu/lv_menu.c ****                 lv_obj_add_flag(menu->sidebar_header_back_btn, LV_OBJ_FLAG_CLICKABLE);
 239:..\..\..\arduinoLCD\test\Pain Drain\libraries\lvgl\src\extra\widgets\menu/lv_menu.c ****             }
 240:..\..\..\arduinoLCD\test\Pain Drain\libraries\lvgl\src\extra\widgets\menu/lv_menu.c ****             else {
 241:..\..\..\arduinoLCD\test\Pain Drain\libraries\lvgl\src\extra\widgets\menu/lv_menu.c ****                 lv_obj_add_flag(menu->sidebar_header_back_btn, LV_OBJ_FLAG_HIDDEN);
 242:..\..\..\arduinoLCD\test\Pain Drain\libraries\lvgl\src\extra\widgets\menu/lv_menu.c ****                 lv_obj_clear_flag(menu->sidebar_header_back_btn, LV_OBJ_FLAG_CLICKABLE);
 243:..\..\..\arduinoLCD\test\Pain Drain\libraries\lvgl\src\extra\widgets\menu/lv_menu.c ****             }
 244:..\..\..\arduinoLCD\test\Pain Drain\libraries\lvgl\src\extra\widgets\menu/lv_menu.c ****         }
 245:..\..\..\arduinoLCD\test\Pain Drain\libraries\lvgl\src\extra\widgets\menu/lv_menu.c **** 
 246:..\..\..\arduinoLCD\test\Pain Drain\libraries\lvgl\src\extra\widgets\menu/lv_menu.c ****         if(menu->cur_depth >= 2) {
 247:..\..\..\arduinoLCD\test\Pain Drain\libraries\lvgl\src\extra\widgets\menu/lv_menu.c ****             lv_obj_clear_flag(menu->main_header_back_btn, LV_OBJ_FLAG_HIDDEN);
 248:..\..\..\arduinoLCD\test\Pain Drain\libraries\lvgl\src\extra\widgets\menu/lv_menu.c ****             lv_obj_add_flag(menu->main_header_back_btn, LV_OBJ_FLAG_CLICKABLE);
 249:..\..\..\arduinoLCD\test\Pain Drain\libraries\lvgl\src\extra\widgets\menu/lv_menu.c ****         }
 250:..\..\..\arduinoLCD\test\Pain Drain\libraries\lvgl\src\extra\widgets\menu/lv_menu.c ****         else {
 251:..\..\..\arduinoLCD\test\Pain Drain\libraries\lvgl\src\extra\widgets\menu/lv_menu.c ****             lv_obj_add_flag(menu->main_header_back_btn, LV_OBJ_FLAG_HIDDEN);
 252:..\..\..\arduinoLCD\test\Pain Drain\libraries\lvgl\src\extra\widgets\menu/lv_menu.c ****             lv_obj_clear_flag(menu->main_header_back_btn, LV_OBJ_FLAG_CLICKABLE);
 253:..\..\..\arduinoLCD\test\Pain Drain\libraries\lvgl\src\extra\widgets\menu/lv_menu.c ****         }
 254:..\..\..\arduinoLCD\test\Pain Drain\libraries\lvgl\src\extra\widgets\menu/lv_menu.c ****     }
 255:..\..\..\arduinoLCD\test\Pain Drain\libraries\lvgl\src\extra\widgets\menu/lv_menu.c ****     else {
 256:..\..\..\arduinoLCD\test\Pain Drain\libraries\lvgl\src\extra\widgets\menu/lv_menu.c ****         /* With sidebar disabled */
 257:..\..\..\arduinoLCD\test\Pain Drain\libraries\lvgl\src\extra\widgets\menu/lv_menu.c ****         if(menu->cur_depth >= 2 || menu->mode_root_back_btn == LV_MENU_ROOT_BACK_BTN_ENABLED) {
 258:..\..\..\arduinoLCD\test\Pain Drain\libraries\lvgl\src\extra\widgets\menu/lv_menu.c ****             lv_obj_clear_flag(menu->main_header_back_btn, LV_OBJ_FLAG_HIDDEN);
 259:..\..\..\arduinoLCD\test\Pain Drain\libraries\lvgl\src\extra\widgets\menu/lv_menu.c ****             lv_obj_add_flag(menu->main_header_back_btn, LV_OBJ_FLAG_CLICKABLE);
ARM GAS  C:\Users\haske\AppData\Local\Temp\ccp0JrPn.s 			page 6


 260:..\..\..\arduinoLCD\test\Pain Drain\libraries\lvgl\src\extra\widgets\menu/lv_menu.c ****         }
 261:..\..\..\arduinoLCD\test\Pain Drain\libraries\lvgl\src\extra\widgets\menu/lv_menu.c ****         else {
 262:..\..\..\arduinoLCD\test\Pain Drain\libraries\lvgl\src\extra\widgets\menu/lv_menu.c ****             lv_obj_add_flag(menu->main_header_back_btn, LV_OBJ_FLAG_HIDDEN);
 263:..\..\..\arduinoLCD\test\Pain Drain\libraries\lvgl\src\extra\widgets\menu/lv_menu.c ****             lv_obj_clear_flag(menu->main_header_back_btn, LV_OBJ_FLAG_CLICKABLE);
 264:..\..\..\arduinoLCD\test\Pain Drain\libraries\lvgl\src\extra\widgets\menu/lv_menu.c ****         }
 265:..\..\..\arduinoLCD\test\Pain Drain\libraries\lvgl\src\extra\widgets\menu/lv_menu.c ****     }
 266:..\..\..\arduinoLCD\test\Pain Drain\libraries\lvgl\src\extra\widgets\menu/lv_menu.c **** 
 267:..\..\..\arduinoLCD\test\Pain Drain\libraries\lvgl\src\extra\widgets\menu/lv_menu.c ****     lv_event_send((lv_obj_t *)menu, LV_EVENT_VALUE_CHANGED, NULL);
 268:..\..\..\arduinoLCD\test\Pain Drain\libraries\lvgl\src\extra\widgets\menu/lv_menu.c **** 
 269:..\..\..\arduinoLCD\test\Pain Drain\libraries\lvgl\src\extra\widgets\menu/lv_menu.c ****     lv_menu_refr_main_header_mode(obj);
 270:..\..\..\arduinoLCD\test\Pain Drain\libraries\lvgl\src\extra\widgets\menu/lv_menu.c **** }
 271:..\..\..\arduinoLCD\test\Pain Drain\libraries\lvgl\src\extra\widgets\menu/lv_menu.c **** 
 272:..\..\..\arduinoLCD\test\Pain Drain\libraries\lvgl\src\extra\widgets\menu/lv_menu.c **** void lv_menu_set_sidebar_page(lv_obj_t * obj, lv_obj_t * page)
 273:..\..\..\arduinoLCD\test\Pain Drain\libraries\lvgl\src\extra\widgets\menu/lv_menu.c **** {
 274:..\..\..\arduinoLCD\test\Pain Drain\libraries\lvgl\src\extra\widgets\menu/lv_menu.c ****     LV_ASSERT_OBJ(obj, MY_CLASS);
 275:..\..\..\arduinoLCD\test\Pain Drain\libraries\lvgl\src\extra\widgets\menu/lv_menu.c **** 
 276:..\..\..\arduinoLCD\test\Pain Drain\libraries\lvgl\src\extra\widgets\menu/lv_menu.c ****     lv_menu_t * menu = (lv_menu_t *)obj;
 277:..\..\..\arduinoLCD\test\Pain Drain\libraries\lvgl\src\extra\widgets\menu/lv_menu.c **** 
 278:..\..\..\arduinoLCD\test\Pain Drain\libraries\lvgl\src\extra\widgets\menu/lv_menu.c ****     /* Sidebar management*/
 279:..\..\..\arduinoLCD\test\Pain Drain\libraries\lvgl\src\extra\widgets\menu/lv_menu.c ****     if(page != NULL) {
 280:..\..\..\arduinoLCD\test\Pain Drain\libraries\lvgl\src\extra\widgets\menu/lv_menu.c ****         /* Sidebar should be enabled */
 281:..\..\..\arduinoLCD\test\Pain Drain\libraries\lvgl\src\extra\widgets\menu/lv_menu.c ****         if(!menu->sidebar_generated) {
 282:..\..\..\arduinoLCD\test\Pain Drain\libraries\lvgl\src\extra\widgets\menu/lv_menu.c ****             /* Create sidebar */
 283:..\..\..\arduinoLCD\test\Pain Drain\libraries\lvgl\src\extra\widgets\menu/lv_menu.c ****             lv_obj_t * sidebar_cont = lv_obj_class_create_obj(&lv_menu_sidebar_cont_class, obj);
 284:..\..\..\arduinoLCD\test\Pain Drain\libraries\lvgl\src\extra\widgets\menu/lv_menu.c ****             lv_obj_class_init_obj(sidebar_cont);
 285:..\..\..\arduinoLCD\test\Pain Drain\libraries\lvgl\src\extra\widgets\menu/lv_menu.c ****             lv_obj_move_to_index(sidebar_cont, 1);
 286:..\..\..\arduinoLCD\test\Pain Drain\libraries\lvgl\src\extra\widgets\menu/lv_menu.c ****             lv_obj_set_size(sidebar_cont, LV_PCT(30), LV_PCT(100));
 287:..\..\..\arduinoLCD\test\Pain Drain\libraries\lvgl\src\extra\widgets\menu/lv_menu.c ****             lv_obj_set_flex_flow(sidebar_cont, LV_FLEX_FLOW_COLUMN);
 288:..\..\..\arduinoLCD\test\Pain Drain\libraries\lvgl\src\extra\widgets\menu/lv_menu.c ****             lv_obj_add_flag(sidebar_cont, LV_OBJ_FLAG_EVENT_BUBBLE);
 289:..\..\..\arduinoLCD\test\Pain Drain\libraries\lvgl\src\extra\widgets\menu/lv_menu.c ****             lv_obj_clear_flag(sidebar_cont, LV_OBJ_FLAG_CLICKABLE);
 290:..\..\..\arduinoLCD\test\Pain Drain\libraries\lvgl\src\extra\widgets\menu/lv_menu.c ****             menu->sidebar = sidebar_cont;
 291:..\..\..\arduinoLCD\test\Pain Drain\libraries\lvgl\src\extra\widgets\menu/lv_menu.c **** 
 292:..\..\..\arduinoLCD\test\Pain Drain\libraries\lvgl\src\extra\widgets\menu/lv_menu.c ****             lv_obj_t * sidebar_header = lv_obj_class_create_obj(&lv_menu_sidebar_header_cont_class,
 293:..\..\..\arduinoLCD\test\Pain Drain\libraries\lvgl\src\extra\widgets\menu/lv_menu.c ****             lv_obj_class_init_obj(sidebar_header);
 294:..\..\..\arduinoLCD\test\Pain Drain\libraries\lvgl\src\extra\widgets\menu/lv_menu.c ****             lv_obj_set_size(sidebar_header, LV_PCT(100), LV_SIZE_CONTENT);
 295:..\..\..\arduinoLCD\test\Pain Drain\libraries\lvgl\src\extra\widgets\menu/lv_menu.c ****             lv_obj_set_flex_flow(sidebar_header, LV_FLEX_FLOW_ROW);
 296:..\..\..\arduinoLCD\test\Pain Drain\libraries\lvgl\src\extra\widgets\menu/lv_menu.c ****             lv_obj_set_flex_align(sidebar_header, LV_FLEX_ALIGN_START, LV_FLEX_ALIGN_CENTER, LV_FLE
 297:..\..\..\arduinoLCD\test\Pain Drain\libraries\lvgl\src\extra\widgets\menu/lv_menu.c ****             lv_obj_clear_flag(sidebar_header, LV_OBJ_FLAG_CLICKABLE);
 298:..\..\..\arduinoLCD\test\Pain Drain\libraries\lvgl\src\extra\widgets\menu/lv_menu.c ****             lv_obj_add_flag(sidebar_header, LV_OBJ_FLAG_EVENT_BUBBLE);
 299:..\..\..\arduinoLCD\test\Pain Drain\libraries\lvgl\src\extra\widgets\menu/lv_menu.c ****             menu->sidebar_header = sidebar_header;
 300:..\..\..\arduinoLCD\test\Pain Drain\libraries\lvgl\src\extra\widgets\menu/lv_menu.c **** 
 301:..\..\..\arduinoLCD\test\Pain Drain\libraries\lvgl\src\extra\widgets\menu/lv_menu.c ****             lv_obj_t * sidebar_header_back_btn = lv_btn_create(menu->sidebar_header);
 302:..\..\..\arduinoLCD\test\Pain Drain\libraries\lvgl\src\extra\widgets\menu/lv_menu.c ****             lv_obj_add_event_cb(sidebar_header_back_btn, lv_menu_back_event_cb, LV_EVENT_CLICKED, m
 303:..\..\..\arduinoLCD\test\Pain Drain\libraries\lvgl\src\extra\widgets\menu/lv_menu.c ****             lv_obj_add_flag(sidebar_header_back_btn, LV_OBJ_FLAG_EVENT_BUBBLE);
 304:..\..\..\arduinoLCD\test\Pain Drain\libraries\lvgl\src\extra\widgets\menu/lv_menu.c ****             lv_obj_set_flex_flow(sidebar_header_back_btn, LV_FLEX_FLOW_ROW);
 305:..\..\..\arduinoLCD\test\Pain Drain\libraries\lvgl\src\extra\widgets\menu/lv_menu.c ****             menu->sidebar_header_back_btn = sidebar_header_back_btn;
 306:..\..\..\arduinoLCD\test\Pain Drain\libraries\lvgl\src\extra\widgets\menu/lv_menu.c **** 
 307:..\..\..\arduinoLCD\test\Pain Drain\libraries\lvgl\src\extra\widgets\menu/lv_menu.c ****             lv_obj_t * sidebar_header_back_icon = lv_img_create(menu->sidebar_header_back_btn);
 308:..\..\..\arduinoLCD\test\Pain Drain\libraries\lvgl\src\extra\widgets\menu/lv_menu.c ****             lv_img_set_src(sidebar_header_back_icon, LV_SYMBOL_LEFT);
 309:..\..\..\arduinoLCD\test\Pain Drain\libraries\lvgl\src\extra\widgets\menu/lv_menu.c **** 
 310:..\..\..\arduinoLCD\test\Pain Drain\libraries\lvgl\src\extra\widgets\menu/lv_menu.c ****             lv_obj_t * sidebar_header_title = lv_label_create(menu->sidebar_header);
 311:..\..\..\arduinoLCD\test\Pain Drain\libraries\lvgl\src\extra\widgets\menu/lv_menu.c ****             lv_obj_add_flag(sidebar_header_title, LV_OBJ_FLAG_HIDDEN);
 312:..\..\..\arduinoLCD\test\Pain Drain\libraries\lvgl\src\extra\widgets\menu/lv_menu.c ****             menu->sidebar_header_title = sidebar_header_title;
 313:..\..\..\arduinoLCD\test\Pain Drain\libraries\lvgl\src\extra\widgets\menu/lv_menu.c **** 
 314:..\..\..\arduinoLCD\test\Pain Drain\libraries\lvgl\src\extra\widgets\menu/lv_menu.c ****             menu->sidebar_generated = true;
 315:..\..\..\arduinoLCD\test\Pain Drain\libraries\lvgl\src\extra\widgets\menu/lv_menu.c ****         }
 316:..\..\..\arduinoLCD\test\Pain Drain\libraries\lvgl\src\extra\widgets\menu/lv_menu.c **** 
ARM GAS  C:\Users\haske\AppData\Local\Temp\ccp0JrPn.s 			page 7


 317:..\..\..\arduinoLCD\test\Pain Drain\libraries\lvgl\src\extra\widgets\menu/lv_menu.c ****         lv_obj_set_parent(page, menu->sidebar);
 318:..\..\..\arduinoLCD\test\Pain Drain\libraries\lvgl\src\extra\widgets\menu/lv_menu.c **** 
 319:..\..\..\arduinoLCD\test\Pain Drain\libraries\lvgl\src\extra\widgets\menu/lv_menu.c ****         lv_menu_refr_sidebar_header_mode(obj);
 320:..\..\..\arduinoLCD\test\Pain Drain\libraries\lvgl\src\extra\widgets\menu/lv_menu.c ****     }
 321:..\..\..\arduinoLCD\test\Pain Drain\libraries\lvgl\src\extra\widgets\menu/lv_menu.c ****     else {
 322:..\..\..\arduinoLCD\test\Pain Drain\libraries\lvgl\src\extra\widgets\menu/lv_menu.c ****         /* Sidebar should be disabled */
 323:..\..\..\arduinoLCD\test\Pain Drain\libraries\lvgl\src\extra\widgets\menu/lv_menu.c ****         if(menu->sidebar_generated) {
 324:..\..\..\arduinoLCD\test\Pain Drain\libraries\lvgl\src\extra\widgets\menu/lv_menu.c ****             lv_obj_set_parent(menu->sidebar_page, menu->storage);
 325:..\..\..\arduinoLCD\test\Pain Drain\libraries\lvgl\src\extra\widgets\menu/lv_menu.c ****             lv_obj_del(menu->sidebar);
 326:..\..\..\arduinoLCD\test\Pain Drain\libraries\lvgl\src\extra\widgets\menu/lv_menu.c **** 
 327:..\..\..\arduinoLCD\test\Pain Drain\libraries\lvgl\src\extra\widgets\menu/lv_menu.c ****             menu->sidebar_generated = false;
 328:..\..\..\arduinoLCD\test\Pain Drain\libraries\lvgl\src\extra\widgets\menu/lv_menu.c ****         }
 329:..\..\..\arduinoLCD\test\Pain Drain\libraries\lvgl\src\extra\widgets\menu/lv_menu.c ****     }
 330:..\..\..\arduinoLCD\test\Pain Drain\libraries\lvgl\src\extra\widgets\menu/lv_menu.c **** 
 331:..\..\..\arduinoLCD\test\Pain Drain\libraries\lvgl\src\extra\widgets\menu/lv_menu.c ****     menu->sidebar_page = page;
 332:..\..\..\arduinoLCD\test\Pain Drain\libraries\lvgl\src\extra\widgets\menu/lv_menu.c ****     lv_menu_refr(obj);
 333:..\..\..\arduinoLCD\test\Pain Drain\libraries\lvgl\src\extra\widgets\menu/lv_menu.c **** }
 334:..\..\..\arduinoLCD\test\Pain Drain\libraries\lvgl\src\extra\widgets\menu/lv_menu.c **** 
 335:..\..\..\arduinoLCD\test\Pain Drain\libraries\lvgl\src\extra\widgets\menu/lv_menu.c **** void lv_menu_set_mode_header(lv_obj_t * obj, lv_menu_mode_header_t mode_header)
 336:..\..\..\arduinoLCD\test\Pain Drain\libraries\lvgl\src\extra\widgets\menu/lv_menu.c **** {
 337:..\..\..\arduinoLCD\test\Pain Drain\libraries\lvgl\src\extra\widgets\menu/lv_menu.c ****     LV_ASSERT_OBJ(obj, MY_CLASS);
 338:..\..\..\arduinoLCD\test\Pain Drain\libraries\lvgl\src\extra\widgets\menu/lv_menu.c **** 
 339:..\..\..\arduinoLCD\test\Pain Drain\libraries\lvgl\src\extra\widgets\menu/lv_menu.c ****     lv_menu_t * menu = (lv_menu_t *)obj;
 340:..\..\..\arduinoLCD\test\Pain Drain\libraries\lvgl\src\extra\widgets\menu/lv_menu.c **** 
 341:..\..\..\arduinoLCD\test\Pain Drain\libraries\lvgl\src\extra\widgets\menu/lv_menu.c ****     if(menu->mode_header != mode_header) {
 342:..\..\..\arduinoLCD\test\Pain Drain\libraries\lvgl\src\extra\widgets\menu/lv_menu.c ****         menu->mode_header = mode_header;
 343:..\..\..\arduinoLCD\test\Pain Drain\libraries\lvgl\src\extra\widgets\menu/lv_menu.c ****         lv_menu_refr_main_header_mode(obj);
 344:..\..\..\arduinoLCD\test\Pain Drain\libraries\lvgl\src\extra\widgets\menu/lv_menu.c ****         if(menu->sidebar_generated) lv_menu_refr_sidebar_header_mode(obj);
 345:..\..\..\arduinoLCD\test\Pain Drain\libraries\lvgl\src\extra\widgets\menu/lv_menu.c ****     }
 346:..\..\..\arduinoLCD\test\Pain Drain\libraries\lvgl\src\extra\widgets\menu/lv_menu.c **** }
 347:..\..\..\arduinoLCD\test\Pain Drain\libraries\lvgl\src\extra\widgets\menu/lv_menu.c **** 
 348:..\..\..\arduinoLCD\test\Pain Drain\libraries\lvgl\src\extra\widgets\menu/lv_menu.c **** void lv_menu_set_mode_root_back_btn(lv_obj_t * obj, lv_menu_mode_root_back_btn_t mode_root_back_btn
 349:..\..\..\arduinoLCD\test\Pain Drain\libraries\lvgl\src\extra\widgets\menu/lv_menu.c **** {
 350:..\..\..\arduinoLCD\test\Pain Drain\libraries\lvgl\src\extra\widgets\menu/lv_menu.c ****     LV_ASSERT_OBJ(obj, MY_CLASS);
 351:..\..\..\arduinoLCD\test\Pain Drain\libraries\lvgl\src\extra\widgets\menu/lv_menu.c **** 
 352:..\..\..\arduinoLCD\test\Pain Drain\libraries\lvgl\src\extra\widgets\menu/lv_menu.c ****     lv_menu_t * menu = (lv_menu_t *)obj;
 353:..\..\..\arduinoLCD\test\Pain Drain\libraries\lvgl\src\extra\widgets\menu/lv_menu.c **** 
 354:..\..\..\arduinoLCD\test\Pain Drain\libraries\lvgl\src\extra\widgets\menu/lv_menu.c ****     if(menu->mode_root_back_btn != mode_root_back_btn) {
 355:..\..\..\arduinoLCD\test\Pain Drain\libraries\lvgl\src\extra\widgets\menu/lv_menu.c ****         menu->mode_root_back_btn = mode_root_back_btn;
 356:..\..\..\arduinoLCD\test\Pain Drain\libraries\lvgl\src\extra\widgets\menu/lv_menu.c ****         lv_menu_refr(obj);
 357:..\..\..\arduinoLCD\test\Pain Drain\libraries\lvgl\src\extra\widgets\menu/lv_menu.c ****     }
 358:..\..\..\arduinoLCD\test\Pain Drain\libraries\lvgl\src\extra\widgets\menu/lv_menu.c **** }
 359:..\..\..\arduinoLCD\test\Pain Drain\libraries\lvgl\src\extra\widgets\menu/lv_menu.c **** 
 360:..\..\..\arduinoLCD\test\Pain Drain\libraries\lvgl\src\extra\widgets\menu/lv_menu.c **** void lv_menu_set_load_page_event(lv_obj_t * menu, lv_obj_t * obj, lv_obj_t * page)
 361:..\..\..\arduinoLCD\test\Pain Drain\libraries\lvgl\src\extra\widgets\menu/lv_menu.c **** {
 362:..\..\..\arduinoLCD\test\Pain Drain\libraries\lvgl\src\extra\widgets\menu/lv_menu.c ****     LV_ASSERT_OBJ(menu, MY_CLASS);
 363:..\..\..\arduinoLCD\test\Pain Drain\libraries\lvgl\src\extra\widgets\menu/lv_menu.c **** 
 364:..\..\..\arduinoLCD\test\Pain Drain\libraries\lvgl\src\extra\widgets\menu/lv_menu.c ****     lv_obj_add_flag(obj, LV_OBJ_FLAG_CLICKABLE);
 365:..\..\..\arduinoLCD\test\Pain Drain\libraries\lvgl\src\extra\widgets\menu/lv_menu.c ****     lv_obj_clear_flag(obj, LV_OBJ_FLAG_SCROLLABLE);
 366:..\..\..\arduinoLCD\test\Pain Drain\libraries\lvgl\src\extra\widgets\menu/lv_menu.c ****     lv_obj_add_flag(obj, LV_OBJ_FLAG_SCROLL_ON_FOCUS);
 367:..\..\..\arduinoLCD\test\Pain Drain\libraries\lvgl\src\extra\widgets\menu/lv_menu.c **** 
 368:..\..\..\arduinoLCD\test\Pain Drain\libraries\lvgl\src\extra\widgets\menu/lv_menu.c ****     /* Remove old event */
 369:..\..\..\arduinoLCD\test\Pain Drain\libraries\lvgl\src\extra\widgets\menu/lv_menu.c ****     if(lv_obj_remove_event_cb(obj, lv_menu_load_page_event_cb)) {
 370:..\..\..\arduinoLCD\test\Pain Drain\libraries\lvgl\src\extra\widgets\menu/lv_menu.c ****         lv_event_send(obj, LV_EVENT_DELETE, NULL);
 371:..\..\..\arduinoLCD\test\Pain Drain\libraries\lvgl\src\extra\widgets\menu/lv_menu.c ****         lv_obj_remove_event_cb(obj, lv_menu_obj_del_event_cb);
 372:..\..\..\arduinoLCD\test\Pain Drain\libraries\lvgl\src\extra\widgets\menu/lv_menu.c ****     }
 373:..\..\..\arduinoLCD\test\Pain Drain\libraries\lvgl\src\extra\widgets\menu/lv_menu.c **** 
ARM GAS  C:\Users\haske\AppData\Local\Temp\ccp0JrPn.s 			page 8


 374:..\..\..\arduinoLCD\test\Pain Drain\libraries\lvgl\src\extra\widgets\menu/lv_menu.c ****     lv_menu_load_page_event_data_t * event_data = lv_mem_alloc(sizeof(lv_menu_load_page_event_data_
 375:..\..\..\arduinoLCD\test\Pain Drain\libraries\lvgl\src\extra\widgets\menu/lv_menu.c ****     event_data->menu = menu;
 376:..\..\..\arduinoLCD\test\Pain Drain\libraries\lvgl\src\extra\widgets\menu/lv_menu.c ****     event_data->page = page;
 377:..\..\..\arduinoLCD\test\Pain Drain\libraries\lvgl\src\extra\widgets\menu/lv_menu.c **** 
 378:..\..\..\arduinoLCD\test\Pain Drain\libraries\lvgl\src\extra\widgets\menu/lv_menu.c ****     lv_obj_add_event_cb(obj, lv_menu_load_page_event_cb, LV_EVENT_CLICKED, event_data);
 379:..\..\..\arduinoLCD\test\Pain Drain\libraries\lvgl\src\extra\widgets\menu/lv_menu.c ****     lv_obj_add_event_cb(obj, lv_menu_obj_del_event_cb, LV_EVENT_DELETE, event_data);
 380:..\..\..\arduinoLCD\test\Pain Drain\libraries\lvgl\src\extra\widgets\menu/lv_menu.c **** }
 381:..\..\..\arduinoLCD\test\Pain Drain\libraries\lvgl\src\extra\widgets\menu/lv_menu.c **** 
 382:..\..\..\arduinoLCD\test\Pain Drain\libraries\lvgl\src\extra\widgets\menu/lv_menu.c **** /*=====================
 383:..\..\..\arduinoLCD\test\Pain Drain\libraries\lvgl\src\extra\widgets\menu/lv_menu.c ****  * Getter functions
 384:..\..\..\arduinoLCD\test\Pain Drain\libraries\lvgl\src\extra\widgets\menu/lv_menu.c ****  *====================*/
 385:..\..\..\arduinoLCD\test\Pain Drain\libraries\lvgl\src\extra\widgets\menu/lv_menu.c **** lv_obj_t * lv_menu_get_cur_main_page(lv_obj_t * obj)
 386:..\..\..\arduinoLCD\test\Pain Drain\libraries\lvgl\src\extra\widgets\menu/lv_menu.c **** {
 387:..\..\..\arduinoLCD\test\Pain Drain\libraries\lvgl\src\extra\widgets\menu/lv_menu.c ****     LV_ASSERT_OBJ(obj, MY_CLASS);
 388:..\..\..\arduinoLCD\test\Pain Drain\libraries\lvgl\src\extra\widgets\menu/lv_menu.c **** 
 389:..\..\..\arduinoLCD\test\Pain Drain\libraries\lvgl\src\extra\widgets\menu/lv_menu.c ****     lv_menu_t * menu = (lv_menu_t *)obj;
 390:..\..\..\arduinoLCD\test\Pain Drain\libraries\lvgl\src\extra\widgets\menu/lv_menu.c ****     return menu->main_page;
 391:..\..\..\arduinoLCD\test\Pain Drain\libraries\lvgl\src\extra\widgets\menu/lv_menu.c **** }
 392:..\..\..\arduinoLCD\test\Pain Drain\libraries\lvgl\src\extra\widgets\menu/lv_menu.c **** 
 393:..\..\..\arduinoLCD\test\Pain Drain\libraries\lvgl\src\extra\widgets\menu/lv_menu.c **** lv_obj_t * lv_menu_get_cur_sidebar_page(lv_obj_t * obj)
 394:..\..\..\arduinoLCD\test\Pain Drain\libraries\lvgl\src\extra\widgets\menu/lv_menu.c **** {
 395:..\..\..\arduinoLCD\test\Pain Drain\libraries\lvgl\src\extra\widgets\menu/lv_menu.c ****     LV_ASSERT_OBJ(obj, MY_CLASS);
 396:..\..\..\arduinoLCD\test\Pain Drain\libraries\lvgl\src\extra\widgets\menu/lv_menu.c **** 
 397:..\..\..\arduinoLCD\test\Pain Drain\libraries\lvgl\src\extra\widgets\menu/lv_menu.c ****     lv_menu_t * menu = (lv_menu_t *)obj;
 398:..\..\..\arduinoLCD\test\Pain Drain\libraries\lvgl\src\extra\widgets\menu/lv_menu.c ****     return menu->sidebar_page;
 399:..\..\..\arduinoLCD\test\Pain Drain\libraries\lvgl\src\extra\widgets\menu/lv_menu.c **** }
 400:..\..\..\arduinoLCD\test\Pain Drain\libraries\lvgl\src\extra\widgets\menu/lv_menu.c **** 
 401:..\..\..\arduinoLCD\test\Pain Drain\libraries\lvgl\src\extra\widgets\menu/lv_menu.c **** lv_obj_t * lv_menu_get_main_header(lv_obj_t * obj)
 402:..\..\..\arduinoLCD\test\Pain Drain\libraries\lvgl\src\extra\widgets\menu/lv_menu.c **** {
 403:..\..\..\arduinoLCD\test\Pain Drain\libraries\lvgl\src\extra\widgets\menu/lv_menu.c ****     LV_ASSERT_OBJ(obj, MY_CLASS);
 404:..\..\..\arduinoLCD\test\Pain Drain\libraries\lvgl\src\extra\widgets\menu/lv_menu.c **** 
 405:..\..\..\arduinoLCD\test\Pain Drain\libraries\lvgl\src\extra\widgets\menu/lv_menu.c ****     lv_menu_t * menu = (lv_menu_t *)obj;
 406:..\..\..\arduinoLCD\test\Pain Drain\libraries\lvgl\src\extra\widgets\menu/lv_menu.c ****     return menu->main_header;
 407:..\..\..\arduinoLCD\test\Pain Drain\libraries\lvgl\src\extra\widgets\menu/lv_menu.c **** }
 408:..\..\..\arduinoLCD\test\Pain Drain\libraries\lvgl\src\extra\widgets\menu/lv_menu.c **** 
 409:..\..\..\arduinoLCD\test\Pain Drain\libraries\lvgl\src\extra\widgets\menu/lv_menu.c **** lv_obj_t * lv_menu_get_main_header_back_btn(lv_obj_t * obj)
 410:..\..\..\arduinoLCD\test\Pain Drain\libraries\lvgl\src\extra\widgets\menu/lv_menu.c **** {
 411:..\..\..\arduinoLCD\test\Pain Drain\libraries\lvgl\src\extra\widgets\menu/lv_menu.c ****     LV_ASSERT_OBJ(obj, MY_CLASS);
 412:..\..\..\arduinoLCD\test\Pain Drain\libraries\lvgl\src\extra\widgets\menu/lv_menu.c **** 
 413:..\..\..\arduinoLCD\test\Pain Drain\libraries\lvgl\src\extra\widgets\menu/lv_menu.c ****     lv_menu_t * menu = (lv_menu_t *)obj;
 414:..\..\..\arduinoLCD\test\Pain Drain\libraries\lvgl\src\extra\widgets\menu/lv_menu.c ****     return menu->main_header_back_btn;
 415:..\..\..\arduinoLCD\test\Pain Drain\libraries\lvgl\src\extra\widgets\menu/lv_menu.c **** }
 416:..\..\..\arduinoLCD\test\Pain Drain\libraries\lvgl\src\extra\widgets\menu/lv_menu.c **** 
 417:..\..\..\arduinoLCD\test\Pain Drain\libraries\lvgl\src\extra\widgets\menu/lv_menu.c **** lv_obj_t * lv_menu_get_sidebar_header(lv_obj_t * obj)
 418:..\..\..\arduinoLCD\test\Pain Drain\libraries\lvgl\src\extra\widgets\menu/lv_menu.c **** {
 419:..\..\..\arduinoLCD\test\Pain Drain\libraries\lvgl\src\extra\widgets\menu/lv_menu.c ****     LV_ASSERT_OBJ(obj, MY_CLASS);
 420:..\..\..\arduinoLCD\test\Pain Drain\libraries\lvgl\src\extra\widgets\menu/lv_menu.c **** 
 421:..\..\..\arduinoLCD\test\Pain Drain\libraries\lvgl\src\extra\widgets\menu/lv_menu.c ****     lv_menu_t * menu = (lv_menu_t *)obj;
 422:..\..\..\arduinoLCD\test\Pain Drain\libraries\lvgl\src\extra\widgets\menu/lv_menu.c ****     return menu->sidebar_header;
 423:..\..\..\arduinoLCD\test\Pain Drain\libraries\lvgl\src\extra\widgets\menu/lv_menu.c **** }
 424:..\..\..\arduinoLCD\test\Pain Drain\libraries\lvgl\src\extra\widgets\menu/lv_menu.c **** 
 425:..\..\..\arduinoLCD\test\Pain Drain\libraries\lvgl\src\extra\widgets\menu/lv_menu.c **** lv_obj_t * lv_menu_get_sidebar_header_back_btn(lv_obj_t * obj)
 426:..\..\..\arduinoLCD\test\Pain Drain\libraries\lvgl\src\extra\widgets\menu/lv_menu.c **** {
 427:..\..\..\arduinoLCD\test\Pain Drain\libraries\lvgl\src\extra\widgets\menu/lv_menu.c ****     LV_ASSERT_OBJ(obj, MY_CLASS);
 428:..\..\..\arduinoLCD\test\Pain Drain\libraries\lvgl\src\extra\widgets\menu/lv_menu.c **** 
 429:..\..\..\arduinoLCD\test\Pain Drain\libraries\lvgl\src\extra\widgets\menu/lv_menu.c ****     lv_menu_t * menu = (lv_menu_t *)obj;
 430:..\..\..\arduinoLCD\test\Pain Drain\libraries\lvgl\src\extra\widgets\menu/lv_menu.c ****     return menu->sidebar_header_back_btn;
ARM GAS  C:\Users\haske\AppData\Local\Temp\ccp0JrPn.s 			page 9


 431:..\..\..\arduinoLCD\test\Pain Drain\libraries\lvgl\src\extra\widgets\menu/lv_menu.c **** }
 432:..\..\..\arduinoLCD\test\Pain Drain\libraries\lvgl\src\extra\widgets\menu/lv_menu.c **** 
 433:..\..\..\arduinoLCD\test\Pain Drain\libraries\lvgl\src\extra\widgets\menu/lv_menu.c **** bool lv_menu_back_btn_is_root(lv_obj_t * menu, lv_obj_t * obj)
 434:..\..\..\arduinoLCD\test\Pain Drain\libraries\lvgl\src\extra\widgets\menu/lv_menu.c **** {
 435:..\..\..\arduinoLCD\test\Pain Drain\libraries\lvgl\src\extra\widgets\menu/lv_menu.c ****     LV_ASSERT_OBJ(menu, MY_CLASS);
 436:..\..\..\arduinoLCD\test\Pain Drain\libraries\lvgl\src\extra\widgets\menu/lv_menu.c **** 
 437:..\..\..\arduinoLCD\test\Pain Drain\libraries\lvgl\src\extra\widgets\menu/lv_menu.c ****     if(obj == ((lv_menu_t *)menu)->sidebar_header_back_btn) {
 438:..\..\..\arduinoLCD\test\Pain Drain\libraries\lvgl\src\extra\widgets\menu/lv_menu.c ****         return true;
 439:..\..\..\arduinoLCD\test\Pain Drain\libraries\lvgl\src\extra\widgets\menu/lv_menu.c ****     }
 440:..\..\..\arduinoLCD\test\Pain Drain\libraries\lvgl\src\extra\widgets\menu/lv_menu.c **** 
 441:..\..\..\arduinoLCD\test\Pain Drain\libraries\lvgl\src\extra\widgets\menu/lv_menu.c ****     if(obj == ((lv_menu_t *)menu)->main_header_back_btn && ((lv_menu_t *)menu)->prev_depth <= 1) {
 442:..\..\..\arduinoLCD\test\Pain Drain\libraries\lvgl\src\extra\widgets\menu/lv_menu.c ****         return true;
 443:..\..\..\arduinoLCD\test\Pain Drain\libraries\lvgl\src\extra\widgets\menu/lv_menu.c ****     }
 444:..\..\..\arduinoLCD\test\Pain Drain\libraries\lvgl\src\extra\widgets\menu/lv_menu.c **** 
 445:..\..\..\arduinoLCD\test\Pain Drain\libraries\lvgl\src\extra\widgets\menu/lv_menu.c ****     return false;
 446:..\..\..\arduinoLCD\test\Pain Drain\libraries\lvgl\src\extra\widgets\menu/lv_menu.c **** }
 447:..\..\..\arduinoLCD\test\Pain Drain\libraries\lvgl\src\extra\widgets\menu/lv_menu.c **** 
 448:..\..\..\arduinoLCD\test\Pain Drain\libraries\lvgl\src\extra\widgets\menu/lv_menu.c **** void lv_menu_clear_history(lv_obj_t * obj)
 449:..\..\..\arduinoLCD\test\Pain Drain\libraries\lvgl\src\extra\widgets\menu/lv_menu.c **** {
 450:..\..\..\arduinoLCD\test\Pain Drain\libraries\lvgl\src\extra\widgets\menu/lv_menu.c ****     LV_ASSERT_OBJ(obj, MY_CLASS);
 451:..\..\..\arduinoLCD\test\Pain Drain\libraries\lvgl\src\extra\widgets\menu/lv_menu.c **** 
 452:..\..\..\arduinoLCD\test\Pain Drain\libraries\lvgl\src\extra\widgets\menu/lv_menu.c ****     lv_menu_t * menu = (lv_menu_t *)obj;
 453:..\..\..\arduinoLCD\test\Pain Drain\libraries\lvgl\src\extra\widgets\menu/lv_menu.c ****     lv_ll_t * history_ll = &(menu->history_ll);
 454:..\..\..\arduinoLCD\test\Pain Drain\libraries\lvgl\src\extra\widgets\menu/lv_menu.c **** 
 455:..\..\..\arduinoLCD\test\Pain Drain\libraries\lvgl\src\extra\widgets\menu/lv_menu.c ****     _lv_ll_clear(history_ll);
 456:..\..\..\arduinoLCD\test\Pain Drain\libraries\lvgl\src\extra\widgets\menu/lv_menu.c **** 
 457:..\..\..\arduinoLCD\test\Pain Drain\libraries\lvgl\src\extra\widgets\menu/lv_menu.c ****     menu->cur_depth = 0;
 458:..\..\..\arduinoLCD\test\Pain Drain\libraries\lvgl\src\extra\widgets\menu/lv_menu.c **** }
 459:..\..\..\arduinoLCD\test\Pain Drain\libraries\lvgl\src\extra\widgets\menu/lv_menu.c **** 
 460:..\..\..\arduinoLCD\test\Pain Drain\libraries\lvgl\src\extra\widgets\menu/lv_menu.c **** /**********************
 461:..\..\..\arduinoLCD\test\Pain Drain\libraries\lvgl\src\extra\widgets\menu/lv_menu.c ****  *   STATIC FUNCTIONS
 462:..\..\..\arduinoLCD\test\Pain Drain\libraries\lvgl\src\extra\widgets\menu/lv_menu.c ****  **********************/
 463:..\..\..\arduinoLCD\test\Pain Drain\libraries\lvgl\src\extra\widgets\menu/lv_menu.c **** 
 464:..\..\..\arduinoLCD\test\Pain Drain\libraries\lvgl\src\extra\widgets\menu/lv_menu.c **** static void lv_menu_constructor(const lv_obj_class_t * class_p, lv_obj_t * obj)
 465:..\..\..\arduinoLCD\test\Pain Drain\libraries\lvgl\src\extra\widgets\menu/lv_menu.c **** {
 466:..\..\..\arduinoLCD\test\Pain Drain\libraries\lvgl\src\extra\widgets\menu/lv_menu.c ****     LV_UNUSED(class_p);
 467:..\..\..\arduinoLCD\test\Pain Drain\libraries\lvgl\src\extra\widgets\menu/lv_menu.c ****     LV_TRACE_OBJ_CREATE("begin");
 468:..\..\..\arduinoLCD\test\Pain Drain\libraries\lvgl\src\extra\widgets\menu/lv_menu.c **** 
 469:..\..\..\arduinoLCD\test\Pain Drain\libraries\lvgl\src\extra\widgets\menu/lv_menu.c ****     lv_obj_set_layout(obj, LV_LAYOUT_FLEX);
 470:..\..\..\arduinoLCD\test\Pain Drain\libraries\lvgl\src\extra\widgets\menu/lv_menu.c ****     lv_obj_set_flex_flow(obj, LV_FLEX_FLOW_ROW);
 471:..\..\..\arduinoLCD\test\Pain Drain\libraries\lvgl\src\extra\widgets\menu/lv_menu.c **** 
 472:..\..\..\arduinoLCD\test\Pain Drain\libraries\lvgl\src\extra\widgets\menu/lv_menu.c ****     lv_menu_t * menu = (lv_menu_t *)obj;
 473:..\..\..\arduinoLCD\test\Pain Drain\libraries\lvgl\src\extra\widgets\menu/lv_menu.c **** 
 474:..\..\..\arduinoLCD\test\Pain Drain\libraries\lvgl\src\extra\widgets\menu/lv_menu.c ****     menu->mode_header = LV_MENU_HEADER_TOP_FIXED;
 475:..\..\..\arduinoLCD\test\Pain Drain\libraries\lvgl\src\extra\widgets\menu/lv_menu.c ****     menu->mode_root_back_btn = LV_MENU_ROOT_BACK_BTN_DISABLED;
 476:..\..\..\arduinoLCD\test\Pain Drain\libraries\lvgl\src\extra\widgets\menu/lv_menu.c ****     menu->cur_depth = 0;
 477:..\..\..\arduinoLCD\test\Pain Drain\libraries\lvgl\src\extra\widgets\menu/lv_menu.c ****     menu->prev_depth = 0;
 478:..\..\..\arduinoLCD\test\Pain Drain\libraries\lvgl\src\extra\widgets\menu/lv_menu.c ****     menu->sidebar_generated = false;
 479:..\..\..\arduinoLCD\test\Pain Drain\libraries\lvgl\src\extra\widgets\menu/lv_menu.c **** 
 480:..\..\..\arduinoLCD\test\Pain Drain\libraries\lvgl\src\extra\widgets\menu/lv_menu.c ****     _lv_ll_init(&(menu->history_ll), sizeof(lv_menu_history_t));
 481:..\..\..\arduinoLCD\test\Pain Drain\libraries\lvgl\src\extra\widgets\menu/lv_menu.c **** 
 482:..\..\..\arduinoLCD\test\Pain Drain\libraries\lvgl\src\extra\widgets\menu/lv_menu.c ****     menu->storage = lv_obj_create(obj);
 483:..\..\..\arduinoLCD\test\Pain Drain\libraries\lvgl\src\extra\widgets\menu/lv_menu.c ****     lv_obj_add_flag(menu->storage, LV_OBJ_FLAG_HIDDEN);
 484:..\..\..\arduinoLCD\test\Pain Drain\libraries\lvgl\src\extra\widgets\menu/lv_menu.c **** 
 485:..\..\..\arduinoLCD\test\Pain Drain\libraries\lvgl\src\extra\widgets\menu/lv_menu.c ****     menu->sidebar = NULL;
 486:..\..\..\arduinoLCD\test\Pain Drain\libraries\lvgl\src\extra\widgets\menu/lv_menu.c ****     menu->sidebar_header = NULL;
 487:..\..\..\arduinoLCD\test\Pain Drain\libraries\lvgl\src\extra\widgets\menu/lv_menu.c ****     menu->sidebar_header_back_btn = NULL;
ARM GAS  C:\Users\haske\AppData\Local\Temp\ccp0JrPn.s 			page 10


 488:..\..\..\arduinoLCD\test\Pain Drain\libraries\lvgl\src\extra\widgets\menu/lv_menu.c ****     menu->sidebar_header_title = NULL;
 489:..\..\..\arduinoLCD\test\Pain Drain\libraries\lvgl\src\extra\widgets\menu/lv_menu.c ****     menu->sidebar_page = NULL;
 490:..\..\..\arduinoLCD\test\Pain Drain\libraries\lvgl\src\extra\widgets\menu/lv_menu.c **** 
 491:..\..\..\arduinoLCD\test\Pain Drain\libraries\lvgl\src\extra\widgets\menu/lv_menu.c ****     lv_obj_t * main_cont = lv_obj_class_create_obj(&lv_menu_main_cont_class, obj);
 492:..\..\..\arduinoLCD\test\Pain Drain\libraries\lvgl\src\extra\widgets\menu/lv_menu.c ****     lv_obj_class_init_obj(main_cont);
 493:..\..\..\arduinoLCD\test\Pain Drain\libraries\lvgl\src\extra\widgets\menu/lv_menu.c ****     lv_obj_set_height(main_cont, LV_PCT(100));
 494:..\..\..\arduinoLCD\test\Pain Drain\libraries\lvgl\src\extra\widgets\menu/lv_menu.c ****     lv_obj_set_flex_grow(main_cont, 1);
 495:..\..\..\arduinoLCD\test\Pain Drain\libraries\lvgl\src\extra\widgets\menu/lv_menu.c ****     lv_obj_set_flex_flow(main_cont, LV_FLEX_FLOW_COLUMN);
 496:..\..\..\arduinoLCD\test\Pain Drain\libraries\lvgl\src\extra\widgets\menu/lv_menu.c ****     lv_obj_add_flag(main_cont, LV_OBJ_FLAG_EVENT_BUBBLE);
 497:..\..\..\arduinoLCD\test\Pain Drain\libraries\lvgl\src\extra\widgets\menu/lv_menu.c ****     lv_obj_clear_flag(main_cont, LV_OBJ_FLAG_CLICKABLE);
 498:..\..\..\arduinoLCD\test\Pain Drain\libraries\lvgl\src\extra\widgets\menu/lv_menu.c ****     menu->main = main_cont;
 499:..\..\..\arduinoLCD\test\Pain Drain\libraries\lvgl\src\extra\widgets\menu/lv_menu.c **** 
 500:..\..\..\arduinoLCD\test\Pain Drain\libraries\lvgl\src\extra\widgets\menu/lv_menu.c ****     lv_obj_t * main_header = lv_obj_class_create_obj(&lv_menu_main_header_cont_class, main_cont);
 501:..\..\..\arduinoLCD\test\Pain Drain\libraries\lvgl\src\extra\widgets\menu/lv_menu.c ****     lv_obj_class_init_obj(main_header);
 502:..\..\..\arduinoLCD\test\Pain Drain\libraries\lvgl\src\extra\widgets\menu/lv_menu.c ****     lv_obj_set_size(main_header, LV_PCT(100), LV_SIZE_CONTENT);
 503:..\..\..\arduinoLCD\test\Pain Drain\libraries\lvgl\src\extra\widgets\menu/lv_menu.c ****     lv_obj_set_flex_flow(main_header, LV_FLEX_FLOW_ROW);
 504:..\..\..\arduinoLCD\test\Pain Drain\libraries\lvgl\src\extra\widgets\menu/lv_menu.c ****     lv_obj_set_flex_align(main_header, LV_FLEX_ALIGN_START, LV_FLEX_ALIGN_CENTER, LV_FLEX_ALIGN_CEN
 505:..\..\..\arduinoLCD\test\Pain Drain\libraries\lvgl\src\extra\widgets\menu/lv_menu.c ****     lv_obj_clear_flag(main_header, LV_OBJ_FLAG_CLICKABLE);
 506:..\..\..\arduinoLCD\test\Pain Drain\libraries\lvgl\src\extra\widgets\menu/lv_menu.c ****     lv_obj_add_flag(main_header, LV_OBJ_FLAG_EVENT_BUBBLE);
 507:..\..\..\arduinoLCD\test\Pain Drain\libraries\lvgl\src\extra\widgets\menu/lv_menu.c ****     menu->main_header = main_header;
 508:..\..\..\arduinoLCD\test\Pain Drain\libraries\lvgl\src\extra\widgets\menu/lv_menu.c **** 
 509:..\..\..\arduinoLCD\test\Pain Drain\libraries\lvgl\src\extra\widgets\menu/lv_menu.c ****     /* Create the default simple back btn and title */
 510:..\..\..\arduinoLCD\test\Pain Drain\libraries\lvgl\src\extra\widgets\menu/lv_menu.c ****     lv_obj_t * main_header_back_btn = lv_btn_create(menu->main_header);
 511:..\..\..\arduinoLCD\test\Pain Drain\libraries\lvgl\src\extra\widgets\menu/lv_menu.c ****     lv_obj_add_event_cb(main_header_back_btn, lv_menu_back_event_cb, LV_EVENT_CLICKED, menu);
 512:..\..\..\arduinoLCD\test\Pain Drain\libraries\lvgl\src\extra\widgets\menu/lv_menu.c ****     lv_obj_add_flag(main_header_back_btn, LV_OBJ_FLAG_EVENT_BUBBLE);
 513:..\..\..\arduinoLCD\test\Pain Drain\libraries\lvgl\src\extra\widgets\menu/lv_menu.c ****     lv_obj_set_flex_flow(main_header_back_btn, LV_FLEX_FLOW_ROW);
 514:..\..\..\arduinoLCD\test\Pain Drain\libraries\lvgl\src\extra\widgets\menu/lv_menu.c ****     menu->main_header_back_btn = main_header_back_btn;
 515:..\..\..\arduinoLCD\test\Pain Drain\libraries\lvgl\src\extra\widgets\menu/lv_menu.c **** 
 516:..\..\..\arduinoLCD\test\Pain Drain\libraries\lvgl\src\extra\widgets\menu/lv_menu.c ****     lv_obj_t * main_header_back_icon = lv_img_create(menu->main_header_back_btn);
 517:..\..\..\arduinoLCD\test\Pain Drain\libraries\lvgl\src\extra\widgets\menu/lv_menu.c ****     lv_img_set_src(main_header_back_icon, LV_SYMBOL_LEFT);
 518:..\..\..\arduinoLCD\test\Pain Drain\libraries\lvgl\src\extra\widgets\menu/lv_menu.c **** 
 519:..\..\..\arduinoLCD\test\Pain Drain\libraries\lvgl\src\extra\widgets\menu/lv_menu.c ****     lv_obj_t * main_header_title = lv_label_create(menu->main_header);
 520:..\..\..\arduinoLCD\test\Pain Drain\libraries\lvgl\src\extra\widgets\menu/lv_menu.c ****     lv_obj_add_flag(main_header_title, LV_OBJ_FLAG_HIDDEN);
 521:..\..\..\arduinoLCD\test\Pain Drain\libraries\lvgl\src\extra\widgets\menu/lv_menu.c ****     menu->main_header_title = main_header_title;
 522:..\..\..\arduinoLCD\test\Pain Drain\libraries\lvgl\src\extra\widgets\menu/lv_menu.c **** 
 523:..\..\..\arduinoLCD\test\Pain Drain\libraries\lvgl\src\extra\widgets\menu/lv_menu.c ****     menu->main_page = NULL;
 524:..\..\..\arduinoLCD\test\Pain Drain\libraries\lvgl\src\extra\widgets\menu/lv_menu.c ****     menu->selected_tab = NULL;
 525:..\..\..\arduinoLCD\test\Pain Drain\libraries\lvgl\src\extra\widgets\menu/lv_menu.c **** 
 526:..\..\..\arduinoLCD\test\Pain Drain\libraries\lvgl\src\extra\widgets\menu/lv_menu.c ****     lv_obj_add_event_cb(obj, lv_menu_value_changed_event_cb, LV_EVENT_VALUE_CHANGED, menu);
 527:..\..\..\arduinoLCD\test\Pain Drain\libraries\lvgl\src\extra\widgets\menu/lv_menu.c **** 
 528:..\..\..\arduinoLCD\test\Pain Drain\libraries\lvgl\src\extra\widgets\menu/lv_menu.c ****     LV_TRACE_OBJ_CREATE("finished");
 529:..\..\..\arduinoLCD\test\Pain Drain\libraries\lvgl\src\extra\widgets\menu/lv_menu.c **** }
 530:..\..\..\arduinoLCD\test\Pain Drain\libraries\lvgl\src\extra\widgets\menu/lv_menu.c **** 
 531:..\..\..\arduinoLCD\test\Pain Drain\libraries\lvgl\src\extra\widgets\menu/lv_menu.c **** static void lv_menu_destructor(const lv_obj_class_t * class_p, lv_obj_t * obj)
 532:..\..\..\arduinoLCD\test\Pain Drain\libraries\lvgl\src\extra\widgets\menu/lv_menu.c **** {
  27              		.loc 1 532 0
  28              		.cfi_startproc
  29              		@ args = 0, pretend = 0, frame = 0
  30              		@ frame_needed = 0, uses_anonymous_args = 0
  31              	.LVL0:
  32 0000 10B5     		push	{r4, lr}
  33              		.cfi_def_cfa_offset 8
  34              		.cfi_offset 4, -8
  35              		.cfi_offset 14, -4
  36              	.LVL1:
 533:..\..\..\arduinoLCD\test\Pain Drain\libraries\lvgl\src\extra\widgets\menu/lv_menu.c ****     LV_UNUSED(class_p);
 534:..\..\..\arduinoLCD\test\Pain Drain\libraries\lvgl\src\extra\widgets\menu/lv_menu.c ****     LV_TRACE_OBJ_CREATE("begin");
ARM GAS  C:\Users\haske\AppData\Local\Temp\ccp0JrPn.s 			page 11


 535:..\..\..\arduinoLCD\test\Pain Drain\libraries\lvgl\src\extra\widgets\menu/lv_menu.c **** 
 536:..\..\..\arduinoLCD\test\Pain Drain\libraries\lvgl\src\extra\widgets\menu/lv_menu.c ****     lv_menu_t * menu = (lv_menu_t *)obj;
 537:..\..\..\arduinoLCD\test\Pain Drain\libraries\lvgl\src\extra\widgets\menu/lv_menu.c ****     lv_ll_t * history_ll = &(menu->history_ll);
  37              		.loc 1 537 0
  38 0002 5431     		adds	r1, r1, #84
  39              	.LVL2:
  40 0004 0800     		movs	r0, r1
  41              	.LVL3:
 538:..\..\..\arduinoLCD\test\Pain Drain\libraries\lvgl\src\extra\widgets\menu/lv_menu.c **** 
 539:..\..\..\arduinoLCD\test\Pain Drain\libraries\lvgl\src\extra\widgets\menu/lv_menu.c ****     _lv_ll_clear(history_ll);
  42              		.loc 1 539 0
  43 0006 FFF7FEFF 		bl	_lv_ll_clear
  44              	.LVL4:
 540:..\..\..\arduinoLCD\test\Pain Drain\libraries\lvgl\src\extra\widgets\menu/lv_menu.c **** 
 541:..\..\..\arduinoLCD\test\Pain Drain\libraries\lvgl\src\extra\widgets\menu/lv_menu.c ****     LV_TRACE_OBJ_CREATE("finished");
 542:..\..\..\arduinoLCD\test\Pain Drain\libraries\lvgl\src\extra\widgets\menu/lv_menu.c **** }
  45              		.loc 1 542 0
  46              		@ sp needed
  47 000a 10BD     		pop	{r4, pc}
  48              		.cfi_endproc
  49              	.LFE184:
  50              		.size	lv_menu_destructor, .-lv_menu_destructor
  51              		.section	.text.lv_menu_section_constructor,"ax",%progbits
  52              		.align	2
  53              		.code	16
  54              		.thumb_func
  55              		.type	lv_menu_section_constructor, %function
  56              	lv_menu_section_constructor:
  57              	.LFB188:
 543:..\..\..\arduinoLCD\test\Pain Drain\libraries\lvgl\src\extra\widgets\menu/lv_menu.c **** 
 544:..\..\..\arduinoLCD\test\Pain Drain\libraries\lvgl\src\extra\widgets\menu/lv_menu.c **** static void lv_menu_page_constructor(const lv_obj_class_t * class_p, lv_obj_t * obj)
 545:..\..\..\arduinoLCD\test\Pain Drain\libraries\lvgl\src\extra\widgets\menu/lv_menu.c **** {
 546:..\..\..\arduinoLCD\test\Pain Drain\libraries\lvgl\src\extra\widgets\menu/lv_menu.c ****     LV_UNUSED(class_p);
 547:..\..\..\arduinoLCD\test\Pain Drain\libraries\lvgl\src\extra\widgets\menu/lv_menu.c **** 
 548:..\..\..\arduinoLCD\test\Pain Drain\libraries\lvgl\src\extra\widgets\menu/lv_menu.c ****     lv_menu_t * menu = (lv_menu_t *)lv_obj_get_parent(obj);
 549:..\..\..\arduinoLCD\test\Pain Drain\libraries\lvgl\src\extra\widgets\menu/lv_menu.c **** 
 550:..\..\..\arduinoLCD\test\Pain Drain\libraries\lvgl\src\extra\widgets\menu/lv_menu.c ****     lv_obj_set_parent(obj, ((lv_menu_t *)menu)->storage);
 551:..\..\..\arduinoLCD\test\Pain Drain\libraries\lvgl\src\extra\widgets\menu/lv_menu.c ****     lv_obj_set_flex_flow(obj, LV_FLEX_FLOW_COLUMN);
 552:..\..\..\arduinoLCD\test\Pain Drain\libraries\lvgl\src\extra\widgets\menu/lv_menu.c ****     lv_obj_set_flex_align(obj, LV_FLEX_ALIGN_START, LV_FLEX_ALIGN_CENTER, LV_FLEX_ALIGN_CENTER);
 553:..\..\..\arduinoLCD\test\Pain Drain\libraries\lvgl\src\extra\widgets\menu/lv_menu.c ****     lv_obj_add_flag(obj, LV_OBJ_FLAG_EVENT_BUBBLE);
 554:..\..\..\arduinoLCD\test\Pain Drain\libraries\lvgl\src\extra\widgets\menu/lv_menu.c **** }
 555:..\..\..\arduinoLCD\test\Pain Drain\libraries\lvgl\src\extra\widgets\menu/lv_menu.c **** 
 556:..\..\..\arduinoLCD\test\Pain Drain\libraries\lvgl\src\extra\widgets\menu/lv_menu.c **** static void lv_menu_page_destructor(const lv_obj_class_t * class_p, lv_obj_t * obj)
 557:..\..\..\arduinoLCD\test\Pain Drain\libraries\lvgl\src\extra\widgets\menu/lv_menu.c **** {
 558:..\..\..\arduinoLCD\test\Pain Drain\libraries\lvgl\src\extra\widgets\menu/lv_menu.c ****     LV_UNUSED(class_p);
 559:..\..\..\arduinoLCD\test\Pain Drain\libraries\lvgl\src\extra\widgets\menu/lv_menu.c **** 
 560:..\..\..\arduinoLCD\test\Pain Drain\libraries\lvgl\src\extra\widgets\menu/lv_menu.c ****     lv_menu_page_t * page = (lv_menu_page_t *)obj;
 561:..\..\..\arduinoLCD\test\Pain Drain\libraries\lvgl\src\extra\widgets\menu/lv_menu.c **** 
 562:..\..\..\arduinoLCD\test\Pain Drain\libraries\lvgl\src\extra\widgets\menu/lv_menu.c ****     if(page->title != NULL) {
 563:..\..\..\arduinoLCD\test\Pain Drain\libraries\lvgl\src\extra\widgets\menu/lv_menu.c ****         lv_mem_free(page->title);
 564:..\..\..\arduinoLCD\test\Pain Drain\libraries\lvgl\src\extra\widgets\menu/lv_menu.c ****         page->title = NULL;
 565:..\..\..\arduinoLCD\test\Pain Drain\libraries\lvgl\src\extra\widgets\menu/lv_menu.c ****     }
 566:..\..\..\arduinoLCD\test\Pain Drain\libraries\lvgl\src\extra\widgets\menu/lv_menu.c **** }
 567:..\..\..\arduinoLCD\test\Pain Drain\libraries\lvgl\src\extra\widgets\menu/lv_menu.c **** 
 568:..\..\..\arduinoLCD\test\Pain Drain\libraries\lvgl\src\extra\widgets\menu/lv_menu.c **** static void lv_menu_cont_constructor(const lv_obj_class_t * class_p, lv_obj_t * obj)
 569:..\..\..\arduinoLCD\test\Pain Drain\libraries\lvgl\src\extra\widgets\menu/lv_menu.c **** {
 570:..\..\..\arduinoLCD\test\Pain Drain\libraries\lvgl\src\extra\widgets\menu/lv_menu.c ****     LV_UNUSED(class_p);
ARM GAS  C:\Users\haske\AppData\Local\Temp\ccp0JrPn.s 			page 12


 571:..\..\..\arduinoLCD\test\Pain Drain\libraries\lvgl\src\extra\widgets\menu/lv_menu.c ****     lv_obj_set_flex_flow(obj, LV_FLEX_FLOW_ROW);
 572:..\..\..\arduinoLCD\test\Pain Drain\libraries\lvgl\src\extra\widgets\menu/lv_menu.c ****     lv_obj_set_flex_align(obj, LV_FLEX_ALIGN_START, LV_FLEX_ALIGN_CENTER, LV_FLEX_ALIGN_CENTER);
 573:..\..\..\arduinoLCD\test\Pain Drain\libraries\lvgl\src\extra\widgets\menu/lv_menu.c ****     lv_obj_clear_flag(obj, LV_OBJ_FLAG_CLICKABLE);
 574:..\..\..\arduinoLCD\test\Pain Drain\libraries\lvgl\src\extra\widgets\menu/lv_menu.c **** }
 575:..\..\..\arduinoLCD\test\Pain Drain\libraries\lvgl\src\extra\widgets\menu/lv_menu.c **** 
 576:..\..\..\arduinoLCD\test\Pain Drain\libraries\lvgl\src\extra\widgets\menu/lv_menu.c **** static void lv_menu_section_constructor(const lv_obj_class_t * class_p, lv_obj_t * obj)
 577:..\..\..\arduinoLCD\test\Pain Drain\libraries\lvgl\src\extra\widgets\menu/lv_menu.c **** {
  58              		.loc 1 577 0
  59              		.cfi_startproc
  60              		@ args = 0, pretend = 0, frame = 0
  61              		@ frame_needed = 0, uses_anonymous_args = 0
  62              	.LVL5:
  63 0000 10B5     		push	{r4, lr}
  64              		.cfi_def_cfa_offset 8
  65              		.cfi_offset 4, -8
  66              		.cfi_offset 14, -4
  67 0002 0C00     		movs	r4, r1
 578:..\..\..\arduinoLCD\test\Pain Drain\libraries\lvgl\src\extra\widgets\menu/lv_menu.c ****     LV_UNUSED(class_p);
 579:..\..\..\arduinoLCD\test\Pain Drain\libraries\lvgl\src\extra\widgets\menu/lv_menu.c ****     lv_obj_set_flex_flow(obj, LV_FLEX_FLOW_COLUMN);
  68              		.loc 1 579 0
  69 0004 0121     		movs	r1, #1
  70              	.LVL6:
  71 0006 2000     		movs	r0, r4
  72              	.LVL7:
  73 0008 FFF7FEFF 		bl	lv_obj_set_flex_flow
  74              	.LVL8:
 580:..\..\..\arduinoLCD\test\Pain Drain\libraries\lvgl\src\extra\widgets\menu/lv_menu.c ****     lv_obj_clear_flag(obj, LV_OBJ_FLAG_CLICKABLE);
  75              		.loc 1 580 0
  76 000c 0221     		movs	r1, #2
  77 000e 2000     		movs	r0, r4
  78 0010 FFF7FEFF 		bl	lv_obj_clear_flag
  79              	.LVL9:
 581:..\..\..\arduinoLCD\test\Pain Drain\libraries\lvgl\src\extra\widgets\menu/lv_menu.c **** }
  80              		.loc 1 581 0
  81              		@ sp needed
  82              	.LVL10:
  83 0014 10BD     		pop	{r4, pc}
  84              		.cfi_endproc
  85              	.LFE188:
  86              		.size	lv_menu_section_constructor, .-lv_menu_section_constructor
  87 0016 C046     		.section	.text.lv_menu_cont_constructor,"ax",%progbits
  88              		.align	2
  89              		.code	16
  90              		.thumb_func
  91              		.type	lv_menu_cont_constructor, %function
  92              	lv_menu_cont_constructor:
  93              	.LFB187:
 569:..\..\..\arduinoLCD\test\Pain Drain\libraries\lvgl\src\extra\widgets\menu/lv_menu.c ****     LV_UNUSED(class_p);
  94              		.loc 1 569 0
  95              		.cfi_startproc
  96              		@ args = 0, pretend = 0, frame = 0
  97              		@ frame_needed = 0, uses_anonymous_args = 0
  98              	.LVL11:
  99 0000 10B5     		push	{r4, lr}
 100              		.cfi_def_cfa_offset 8
 101              		.cfi_offset 4, -8
 102              		.cfi_offset 14, -4
ARM GAS  C:\Users\haske\AppData\Local\Temp\ccp0JrPn.s 			page 13


 103 0002 0C00     		movs	r4, r1
 571:..\..\..\arduinoLCD\test\Pain Drain\libraries\lvgl\src\extra\widgets\menu/lv_menu.c ****     lv_obj_set_flex_align(obj, LV_FLEX_ALIGN_START, LV_FLEX_ALIGN_CENTER, LV_FLEX_ALIGN_CENTER);
 104              		.loc 1 571 0
 105 0004 0021     		movs	r1, #0
 106              	.LVL12:
 107 0006 2000     		movs	r0, r4
 108              	.LVL13:
 109 0008 FFF7FEFF 		bl	lv_obj_set_flex_flow
 110              	.LVL14:
 572:..\..\..\arduinoLCD\test\Pain Drain\libraries\lvgl\src\extra\widgets\menu/lv_menu.c ****     lv_obj_clear_flag(obj, LV_OBJ_FLAG_CLICKABLE);
 111              		.loc 1 572 0
 112 000c 0223     		movs	r3, #2
 113 000e 0222     		movs	r2, #2
 114 0010 0021     		movs	r1, #0
 115 0012 2000     		movs	r0, r4
 116 0014 FFF7FEFF 		bl	lv_obj_set_flex_align
 117              	.LVL15:
 573:..\..\..\arduinoLCD\test\Pain Drain\libraries\lvgl\src\extra\widgets\menu/lv_menu.c **** }
 118              		.loc 1 573 0
 119 0018 0221     		movs	r1, #2
 120 001a 2000     		movs	r0, r4
 121 001c FFF7FEFF 		bl	lv_obj_clear_flag
 122              	.LVL16:
 574:..\..\..\arduinoLCD\test\Pain Drain\libraries\lvgl\src\extra\widgets\menu/lv_menu.c **** 
 123              		.loc 1 574 0
 124              		@ sp needed
 125              	.LVL17:
 126 0020 10BD     		pop	{r4, pc}
 127              		.cfi_endproc
 128              	.LFE187:
 129              		.size	lv_menu_cont_constructor, .-lv_menu_cont_constructor
 130 0022 C046     		.section	.text.lv_menu_constructor,"ax",%progbits
 131              		.align	2
 132              		.code	16
 133              		.thumb_func
 134              		.type	lv_menu_constructor, %function
 135              	lv_menu_constructor:
 136              	.LFB183:
 465:..\..\..\arduinoLCD\test\Pain Drain\libraries\lvgl\src\extra\widgets\menu/lv_menu.c ****     LV_UNUSED(class_p);
 137              		.loc 1 465 0
 138              		.cfi_startproc
 139              		@ args = 0, pretend = 0, frame = 0
 140              		@ frame_needed = 0, uses_anonymous_args = 0
 141              	.LVL18:
 142 0000 F8B5     		push	{r3, r4, r5, r6, r7, lr}
 143              		.cfi_def_cfa_offset 24
 144              		.cfi_offset 3, -24
 145              		.cfi_offset 4, -20
 146              		.cfi_offset 5, -16
 147              		.cfi_offset 6, -12
 148              		.cfi_offset 7, -8
 149              		.cfi_offset 14, -4
 150 0002 0C00     		movs	r4, r1
 469:..\..\..\arduinoLCD\test\Pain Drain\libraries\lvgl\src\extra\widgets\menu/lv_menu.c ****     lv_obj_set_flex_flow(obj, LV_FLEX_FLOW_ROW);
 151              		.loc 1 469 0
 152 0004 484B     		ldr	r3, .L5
 153 0006 1988     		ldrh	r1, [r3]
ARM GAS  C:\Users\haske\AppData\Local\Temp\ccp0JrPn.s 			page 14


 154              	.LVL19:
 155 0008 2000     		movs	r0, r4
 156              	.LVL20:
 157 000a FFF7FEFF 		bl	lv_obj_set_layout
 158              	.LVL21:
 470:..\..\..\arduinoLCD\test\Pain Drain\libraries\lvgl\src\extra\widgets\menu/lv_menu.c **** 
 159              		.loc 1 470 0
 160 000e 0021     		movs	r1, #0
 161 0010 2000     		movs	r0, r4
 162 0012 FFF7FEFF 		bl	lv_obj_set_flex_flow
 163              	.LVL22:
 474:..\..\..\arduinoLCD\test\Pain Drain\libraries\lvgl\src\extra\widgets\menu/lv_menu.c ****     menu->mode_root_back_btn = LV_MENU_ROOT_BACK_BTN_DISABLED;
 164              		.loc 1 474 0
 165 0016 6222     		movs	r2, #98
 166 0018 A35C     		ldrb	r3, [r4, r2]
 475:..\..\..\arduinoLCD\test\Pain Drain\libraries\lvgl\src\extra\widgets\menu/lv_menu.c ****     menu->cur_depth = 0;
 167              		.loc 1 475 0
 168 001a 0621     		movs	r1, #6
 169 001c 8B43     		bics	r3, r1
 476:..\..\..\arduinoLCD\test\Pain Drain\libraries\lvgl\src\extra\widgets\menu/lv_menu.c ****     menu->prev_depth = 0;
 170              		.loc 1 476 0
 171 001e 0027     		movs	r7, #0
 172 0020 5A31     		adds	r1, r1, #90
 173 0022 6754     		strb	r7, [r4, r1]
 477:..\..\..\arduinoLCD\test\Pain Drain\libraries\lvgl\src\extra\widgets\menu/lv_menu.c ****     menu->sidebar_generated = false;
 174              		.loc 1 477 0
 175 0024 0131     		adds	r1, r1, #1
 176 0026 6754     		strb	r7, [r4, r1]
 478:..\..\..\arduinoLCD\test\Pain Drain\libraries\lvgl\src\extra\widgets\menu/lv_menu.c **** 
 177              		.loc 1 478 0
 178 0028 5939     		subs	r1, r1, #89
 179 002a 8B43     		bics	r3, r1
 180 002c 0739     		subs	r1, r1, #7
 181 002e 8B43     		bics	r3, r1
 182 0030 A354     		strb	r3, [r4, r2]
 480:..\..\..\arduinoLCD\test\Pain Drain\libraries\lvgl\src\extra\widgets\menu/lv_menu.c **** 
 183              		.loc 1 480 0
 184 0032 2000     		movs	r0, r4
 185 0034 5430     		adds	r0, r0, #84
 186 0036 0331     		adds	r1, r1, #3
 187 0038 FFF7FEFF 		bl	_lv_ll_init
 188              	.LVL23:
 482:..\..\..\arduinoLCD\test\Pain Drain\libraries\lvgl\src\extra\widgets\menu/lv_menu.c ****     lv_obj_add_flag(menu->storage, LV_OBJ_FLAG_HIDDEN);
 189              		.loc 1 482 0
 190 003c 2000     		movs	r0, r4
 191 003e FFF7FEFF 		bl	lv_obj_create
 192              	.LVL24:
 193 0042 6062     		str	r0, [r4, #36]
 483:..\..\..\arduinoLCD\test\Pain Drain\libraries\lvgl\src\extra\widgets\menu/lv_menu.c **** 
 194              		.loc 1 483 0
 195 0044 0121     		movs	r1, #1
 196 0046 FFF7FEFF 		bl	lv_obj_add_flag
 197              	.LVL25:
 485:..\..\..\arduinoLCD\test\Pain Drain\libraries\lvgl\src\extra\widgets\menu/lv_menu.c ****     menu->sidebar_header = NULL;
 198              		.loc 1 485 0
 199 004a E763     		str	r7, [r4, #60]
 486:..\..\..\arduinoLCD\test\Pain Drain\libraries\lvgl\src\extra\widgets\menu/lv_menu.c ****     menu->sidebar_header_back_btn = NULL;
ARM GAS  C:\Users\haske\AppData\Local\Temp\ccp0JrPn.s 			page 15


 200              		.loc 1 486 0
 201 004c 6764     		str	r7, [r4, #68]
 487:..\..\..\arduinoLCD\test\Pain Drain\libraries\lvgl\src\extra\widgets\menu/lv_menu.c ****     menu->sidebar_header_title = NULL;
 202              		.loc 1 487 0
 203 004e A764     		str	r7, [r4, #72]
 488:..\..\..\arduinoLCD\test\Pain Drain\libraries\lvgl\src\extra\widgets\menu/lv_menu.c ****     menu->sidebar_page = NULL;
 204              		.loc 1 488 0
 205 0050 E764     		str	r7, [r4, #76]
 489:..\..\..\arduinoLCD\test\Pain Drain\libraries\lvgl\src\extra\widgets\menu/lv_menu.c **** 
 206              		.loc 1 489 0
 207 0052 2764     		str	r7, [r4, #64]
 491:..\..\..\arduinoLCD\test\Pain Drain\libraries\lvgl\src\extra\widgets\menu/lv_menu.c ****     lv_obj_class_init_obj(main_cont);
 208              		.loc 1 491 0
 209 0054 354E     		ldr	r6, .L5+4
 210 0056 2100     		movs	r1, r4
 211 0058 3000     		movs	r0, r6
 212 005a FFF7FEFF 		bl	lv_obj_class_create_obj
 213              	.LVL26:
 214 005e 0500     		movs	r5, r0
 215              	.LVL27:
 492:..\..\..\arduinoLCD\test\Pain Drain\libraries\lvgl\src\extra\widgets\menu/lv_menu.c ****     lv_obj_set_height(main_cont, LV_PCT(100));
 216              		.loc 1 492 0
 217 0060 FFF7FEFF 		bl	lv_obj_class_init_obj
 218              	.LVL28:
 493:..\..\..\arduinoLCD\test\Pain Drain\libraries\lvgl\src\extra\widgets\menu/lv_menu.c ****     lv_obj_set_flex_grow(main_cont, 1);
 219              		.loc 1 493 0
 220 0064 3249     		ldr	r1, .L5+8
 221 0066 2800     		movs	r0, r5
 222 0068 FFF7FEFF 		bl	lv_obj_set_height
 223              	.LVL29:
 494:..\..\..\arduinoLCD\test\Pain Drain\libraries\lvgl\src\extra\widgets\menu/lv_menu.c ****     lv_obj_set_flex_flow(main_cont, LV_FLEX_FLOW_COLUMN);
 224              		.loc 1 494 0
 225 006c 0121     		movs	r1, #1
 226 006e 2800     		movs	r0, r5
 227 0070 FFF7FEFF 		bl	lv_obj_set_flex_grow
 228              	.LVL30:
 495:..\..\..\arduinoLCD\test\Pain Drain\libraries\lvgl\src\extra\widgets\menu/lv_menu.c ****     lv_obj_add_flag(main_cont, LV_OBJ_FLAG_EVENT_BUBBLE);
 229              		.loc 1 495 0
 230 0074 0121     		movs	r1, #1
 231 0076 2800     		movs	r0, r5
 232 0078 FFF7FEFF 		bl	lv_obj_set_flex_flow
 233              	.LVL31:
 496:..\..\..\arduinoLCD\test\Pain Drain\libraries\lvgl\src\extra\widgets\menu/lv_menu.c ****     lv_obj_clear_flag(main_cont, LV_OBJ_FLAG_CLICKABLE);
 234              		.loc 1 496 0
 235 007c 8021     		movs	r1, #128
 236 007e C901     		lsls	r1, r1, #7
 237 0080 2800     		movs	r0, r5
 238 0082 FFF7FEFF 		bl	lv_obj_add_flag
 239              	.LVL32:
 497:..\..\..\arduinoLCD\test\Pain Drain\libraries\lvgl\src\extra\widgets\menu/lv_menu.c ****     menu->main = main_cont;
 240              		.loc 1 497 0
 241 0086 0221     		movs	r1, #2
 242 0088 2800     		movs	r0, r5
 243 008a FFF7FEFF 		bl	lv_obj_clear_flag
 244              	.LVL33:
 498:..\..\..\arduinoLCD\test\Pain Drain\libraries\lvgl\src\extra\widgets\menu/lv_menu.c **** 
 245              		.loc 1 498 0
ARM GAS  C:\Users\haske\AppData\Local\Temp\ccp0JrPn.s 			page 16


 246 008e A562     		str	r5, [r4, #40]
 500:..\..\..\arduinoLCD\test\Pain Drain\libraries\lvgl\src\extra\widgets\menu/lv_menu.c ****     lv_obj_class_init_obj(main_header);
 247              		.loc 1 500 0
 248 0090 3000     		movs	r0, r6
 249 0092 1C30     		adds	r0, r0, #28
 250 0094 2900     		movs	r1, r5
 251 0096 FFF7FEFF 		bl	lv_obj_class_create_obj
 252              	.LVL34:
 253 009a 0500     		movs	r5, r0
 254              	.LVL35:
 501:..\..\..\arduinoLCD\test\Pain Drain\libraries\lvgl\src\extra\widgets\menu/lv_menu.c ****     lv_obj_set_size(main_header, LV_PCT(100), LV_SIZE_CONTENT);
 255              		.loc 1 501 0
 256 009c FFF7FEFF 		bl	lv_obj_class_init_obj
 257              	.LVL36:
 502:..\..\..\arduinoLCD\test\Pain Drain\libraries\lvgl\src\extra\widgets\menu/lv_menu.c ****     lv_obj_set_flex_flow(main_header, LV_FLEX_FLOW_ROW);
 258              		.loc 1 502 0
 259 00a0 244A     		ldr	r2, .L5+12
 260 00a2 2349     		ldr	r1, .L5+8
 261 00a4 2800     		movs	r0, r5
 262 00a6 FFF7FEFF 		bl	lv_obj_set_size
 263              	.LVL37:
 503:..\..\..\arduinoLCD\test\Pain Drain\libraries\lvgl\src\extra\widgets\menu/lv_menu.c ****     lv_obj_set_flex_align(main_header, LV_FLEX_ALIGN_START, LV_FLEX_ALIGN_CENTER, LV_FLEX_ALIGN_CEN
 264              		.loc 1 503 0
 265 00aa 0021     		movs	r1, #0
 266 00ac 2800     		movs	r0, r5
 267 00ae FFF7FEFF 		bl	lv_obj_set_flex_flow
 268              	.LVL38:
 504:..\..\..\arduinoLCD\test\Pain Drain\libraries\lvgl\src\extra\widgets\menu/lv_menu.c ****     lv_obj_clear_flag(main_header, LV_OBJ_FLAG_CLICKABLE);
 269              		.loc 1 504 0
 270 00b2 0223     		movs	r3, #2
 271 00b4 0222     		movs	r2, #2
 272 00b6 0021     		movs	r1, #0
 273 00b8 2800     		movs	r0, r5
 274 00ba FFF7FEFF 		bl	lv_obj_set_flex_align
 275              	.LVL39:
 505:..\..\..\arduinoLCD\test\Pain Drain\libraries\lvgl\src\extra\widgets\menu/lv_menu.c ****     lv_obj_add_flag(main_header, LV_OBJ_FLAG_EVENT_BUBBLE);
 276              		.loc 1 505 0
 277 00be 0221     		movs	r1, #2
 278 00c0 2800     		movs	r0, r5
 279 00c2 FFF7FEFF 		bl	lv_obj_clear_flag
 280              	.LVL40:
 506:..\..\..\arduinoLCD\test\Pain Drain\libraries\lvgl\src\extra\widgets\menu/lv_menu.c ****     menu->main_header = main_header;
 281              		.loc 1 506 0
 282 00c6 8021     		movs	r1, #128
 283 00c8 C901     		lsls	r1, r1, #7
 284 00ca 2800     		movs	r0, r5
 285 00cc FFF7FEFF 		bl	lv_obj_add_flag
 286              	.LVL41:
 507:..\..\..\arduinoLCD\test\Pain Drain\libraries\lvgl\src\extra\widgets\menu/lv_menu.c **** 
 287              		.loc 1 507 0
 288 00d0 2563     		str	r5, [r4, #48]
 510:..\..\..\arduinoLCD\test\Pain Drain\libraries\lvgl\src\extra\widgets\menu/lv_menu.c ****     lv_obj_add_event_cb(main_header_back_btn, lv_menu_back_event_cb, LV_EVENT_CLICKED, menu);
 289              		.loc 1 510 0
 290 00d2 2800     		movs	r0, r5
 291 00d4 FFF7FEFF 		bl	lv_btn_create
 292              	.LVL42:
 293 00d8 0500     		movs	r5, r0
ARM GAS  C:\Users\haske\AppData\Local\Temp\ccp0JrPn.s 			page 17


 294              	.LVL43:
 511:..\..\..\arduinoLCD\test\Pain Drain\libraries\lvgl\src\extra\widgets\menu/lv_menu.c ****     lv_obj_add_flag(main_header_back_btn, LV_OBJ_FLAG_EVENT_BUBBLE);
 295              		.loc 1 511 0
 296 00da 2300     		movs	r3, r4
 297 00dc 0722     		movs	r2, #7
 298 00de 1649     		ldr	r1, .L5+16
 299 00e0 FFF7FEFF 		bl	lv_obj_add_event_cb
 300              	.LVL44:
 512:..\..\..\arduinoLCD\test\Pain Drain\libraries\lvgl\src\extra\widgets\menu/lv_menu.c ****     lv_obj_set_flex_flow(main_header_back_btn, LV_FLEX_FLOW_ROW);
 301              		.loc 1 512 0
 302 00e4 8021     		movs	r1, #128
 303 00e6 C901     		lsls	r1, r1, #7
 304 00e8 2800     		movs	r0, r5
 305 00ea FFF7FEFF 		bl	lv_obj_add_flag
 306              	.LVL45:
 513:..\..\..\arduinoLCD\test\Pain Drain\libraries\lvgl\src\extra\widgets\menu/lv_menu.c ****     menu->main_header_back_btn = main_header_back_btn;
 307              		.loc 1 513 0
 308 00ee 0021     		movs	r1, #0
 309 00f0 2800     		movs	r0, r5
 310 00f2 FFF7FEFF 		bl	lv_obj_set_flex_flow
 311              	.LVL46:
 514:..\..\..\arduinoLCD\test\Pain Drain\libraries\lvgl\src\extra\widgets\menu/lv_menu.c **** 
 312              		.loc 1 514 0
 313 00f6 6563     		str	r5, [r4, #52]
 516:..\..\..\arduinoLCD\test\Pain Drain\libraries\lvgl\src\extra\widgets\menu/lv_menu.c ****     lv_img_set_src(main_header_back_icon, LV_SYMBOL_LEFT);
 314              		.loc 1 516 0
 315 00f8 2800     		movs	r0, r5
 316 00fa FFF7FEFF 		bl	lv_img_create
 317              	.LVL47:
 517:..\..\..\arduinoLCD\test\Pain Drain\libraries\lvgl\src\extra\widgets\menu/lv_menu.c **** 
 318              		.loc 1 517 0
 319 00fe 0F49     		ldr	r1, .L5+20
 320 0100 FFF7FEFF 		bl	lv_img_set_src
 321              	.LVL48:
 519:..\..\..\arduinoLCD\test\Pain Drain\libraries\lvgl\src\extra\widgets\menu/lv_menu.c ****     lv_obj_add_flag(main_header_title, LV_OBJ_FLAG_HIDDEN);
 322              		.loc 1 519 0
 323 0104 206B     		ldr	r0, [r4, #48]
 324 0106 FFF7FEFF 		bl	lv_label_create
 325              	.LVL49:
 326 010a 0500     		movs	r5, r0
 327              	.LVL50:
 520:..\..\..\arduinoLCD\test\Pain Drain\libraries\lvgl\src\extra\widgets\menu/lv_menu.c ****     menu->main_header_title = main_header_title;
 328              		.loc 1 520 0
 329 010c 0121     		movs	r1, #1
 330 010e FFF7FEFF 		bl	lv_obj_add_flag
 331              	.LVL51:
 521:..\..\..\arduinoLCD\test\Pain Drain\libraries\lvgl\src\extra\widgets\menu/lv_menu.c **** 
 332              		.loc 1 521 0
 333 0112 A563     		str	r5, [r4, #56]
 523:..\..\..\arduinoLCD\test\Pain Drain\libraries\lvgl\src\extra\widgets\menu/lv_menu.c ****     menu->selected_tab = NULL;
 334              		.loc 1 523 0
 335 0114 E762     		str	r7, [r4, #44]
 524:..\..\..\arduinoLCD\test\Pain Drain\libraries\lvgl\src\extra\widgets\menu/lv_menu.c **** 
 336              		.loc 1 524 0
 337 0116 2765     		str	r7, [r4, #80]
 526:..\..\..\arduinoLCD\test\Pain Drain\libraries\lvgl\src\extra\widgets\menu/lv_menu.c **** 
 338              		.loc 1 526 0
ARM GAS  C:\Users\haske\AppData\Local\Temp\ccp0JrPn.s 			page 18


 339 0118 2300     		movs	r3, r4
 340 011a 1C22     		movs	r2, #28
 341 011c 0849     		ldr	r1, .L5+24
 342 011e 2000     		movs	r0, r4
 343 0120 FFF7FEFF 		bl	lv_obj_add_event_cb
 344              	.LVL52:
 529:..\..\..\arduinoLCD\test\Pain Drain\libraries\lvgl\src\extra\widgets\menu/lv_menu.c **** 
 345              		.loc 1 529 0
 346              		@ sp needed
 347              	.LVL53:
 348              	.LVL54:
 349 0124 F8BD     		pop	{r3, r4, r5, r6, r7, pc}
 350              	.L6:
 351 0126 C046     		.align	2
 352              	.L5:
 353 0128 00000000 		.word	LV_LAYOUT_FLEX
 354 012c 00000000 		.word	.LANCHOR0
 355 0130 64200000 		.word	8292
 356 0134 D1270000 		.word	10193
 357 0138 00000000 		.word	lv_menu_back_event_cb
 358 013c 00000000 		.word	.LC3
 359 0140 00000000 		.word	lv_menu_value_changed_event_cb
 360              		.cfi_endproc
 361              	.LFE183:
 362              		.size	lv_menu_constructor, .-lv_menu_constructor
 363              		.section	.text.lv_menu_page_destructor,"ax",%progbits
 364              		.align	2
 365              		.code	16
 366              		.thumb_func
 367              		.type	lv_menu_page_destructor, %function
 368              	lv_menu_page_destructor:
 369              	.LFB186:
 557:..\..\..\arduinoLCD\test\Pain Drain\libraries\lvgl\src\extra\widgets\menu/lv_menu.c ****     LV_UNUSED(class_p);
 370              		.loc 1 557 0
 371              		.cfi_startproc
 372              		@ args = 0, pretend = 0, frame = 0
 373              		@ frame_needed = 0, uses_anonymous_args = 0
 374              	.LVL55:
 375 0000 10B5     		push	{r4, lr}
 376              		.cfi_def_cfa_offset 8
 377              		.cfi_offset 4, -8
 378              		.cfi_offset 14, -4
 379 0002 0C00     		movs	r4, r1
 380              	.LVL56:
 562:..\..\..\arduinoLCD\test\Pain Drain\libraries\lvgl\src\extra\widgets\menu/lv_menu.c ****         lv_mem_free(page->title);
 381              		.loc 1 562 0
 382 0004 486A     		ldr	r0, [r1, #36]
 383              	.LVL57:
 384 0006 0028     		cmp	r0, #0
 385 0008 03D0     		beq	.L7
 563:..\..\..\arduinoLCD\test\Pain Drain\libraries\lvgl\src\extra\widgets\menu/lv_menu.c ****         page->title = NULL;
 386              		.loc 1 563 0
 387 000a FFF7FEFF 		bl	lv_mem_free
 388              	.LVL58:
 564:..\..\..\arduinoLCD\test\Pain Drain\libraries\lvgl\src\extra\widgets\menu/lv_menu.c ****     }
 389              		.loc 1 564 0
 390 000e 0023     		movs	r3, #0
ARM GAS  C:\Users\haske\AppData\Local\Temp\ccp0JrPn.s 			page 19


 391 0010 6362     		str	r3, [r4, #36]
 392              	.L7:
 566:..\..\..\arduinoLCD\test\Pain Drain\libraries\lvgl\src\extra\widgets\menu/lv_menu.c **** 
 393              		.loc 1 566 0
 394              		@ sp needed
 395              	.LVL59:
 396 0012 10BD     		pop	{r4, pc}
 397              		.cfi_endproc
 398              	.LFE186:
 399              		.size	lv_menu_page_destructor, .-lv_menu_page_destructor
 400              		.section	.text.lv_menu_obj_del_event_cb,"ax",%progbits
 401              		.align	2
 402              		.code	16
 403              		.thumb_func
 404              		.type	lv_menu_obj_del_event_cb, %function
 405              	lv_menu_obj_del_event_cb:
 406              	.LFB192:
 582:..\..\..\arduinoLCD\test\Pain Drain\libraries\lvgl\src\extra\widgets\menu/lv_menu.c **** 
 583:..\..\..\arduinoLCD\test\Pain Drain\libraries\lvgl\src\extra\widgets\menu/lv_menu.c **** static void lv_menu_refr_sidebar_header_mode(lv_obj_t * obj)
 584:..\..\..\arduinoLCD\test\Pain Drain\libraries\lvgl\src\extra\widgets\menu/lv_menu.c **** {
 585:..\..\..\arduinoLCD\test\Pain Drain\libraries\lvgl\src\extra\widgets\menu/lv_menu.c ****     LV_ASSERT_OBJ(obj, MY_CLASS);
 586:..\..\..\arduinoLCD\test\Pain Drain\libraries\lvgl\src\extra\widgets\menu/lv_menu.c **** 
 587:..\..\..\arduinoLCD\test\Pain Drain\libraries\lvgl\src\extra\widgets\menu/lv_menu.c ****     lv_menu_t * menu = (lv_menu_t *)obj;
 588:..\..\..\arduinoLCD\test\Pain Drain\libraries\lvgl\src\extra\widgets\menu/lv_menu.c **** 
 589:..\..\..\arduinoLCD\test\Pain Drain\libraries\lvgl\src\extra\widgets\menu/lv_menu.c ****     if(menu->sidebar_header == NULL || menu->sidebar_page == NULL) return;
 590:..\..\..\arduinoLCD\test\Pain Drain\libraries\lvgl\src\extra\widgets\menu/lv_menu.c **** 
 591:..\..\..\arduinoLCD\test\Pain Drain\libraries\lvgl\src\extra\widgets\menu/lv_menu.c ****     switch(menu->mode_header) {
 592:..\..\..\arduinoLCD\test\Pain Drain\libraries\lvgl\src\extra\widgets\menu/lv_menu.c ****         case LV_MENU_HEADER_TOP_FIXED:
 593:..\..\..\arduinoLCD\test\Pain Drain\libraries\lvgl\src\extra\widgets\menu/lv_menu.c ****             /* Content should fill the remaining space */
 594:..\..\..\arduinoLCD\test\Pain Drain\libraries\lvgl\src\extra\widgets\menu/lv_menu.c ****             lv_obj_move_to_index(menu->sidebar_header, 0);
 595:..\..\..\arduinoLCD\test\Pain Drain\libraries\lvgl\src\extra\widgets\menu/lv_menu.c ****             lv_obj_set_flex_grow(menu->sidebar_page, 1);
 596:..\..\..\arduinoLCD\test\Pain Drain\libraries\lvgl\src\extra\widgets\menu/lv_menu.c ****             break;
 597:..\..\..\arduinoLCD\test\Pain Drain\libraries\lvgl\src\extra\widgets\menu/lv_menu.c ****         case LV_MENU_HEADER_TOP_UNFIXED:
 598:..\..\..\arduinoLCD\test\Pain Drain\libraries\lvgl\src\extra\widgets\menu/lv_menu.c ****             lv_obj_move_to_index(menu->sidebar_header, 0);
 599:..\..\..\arduinoLCD\test\Pain Drain\libraries\lvgl\src\extra\widgets\menu/lv_menu.c ****             lv_obj_set_flex_grow(menu->sidebar_page, 0);
 600:..\..\..\arduinoLCD\test\Pain Drain\libraries\lvgl\src\extra\widgets\menu/lv_menu.c ****             break;
 601:..\..\..\arduinoLCD\test\Pain Drain\libraries\lvgl\src\extra\widgets\menu/lv_menu.c ****         case LV_MENU_HEADER_BOTTOM_FIXED:
 602:..\..\..\arduinoLCD\test\Pain Drain\libraries\lvgl\src\extra\widgets\menu/lv_menu.c ****             lv_obj_move_to_index(menu->sidebar_header, 1);
 603:..\..\..\arduinoLCD\test\Pain Drain\libraries\lvgl\src\extra\widgets\menu/lv_menu.c ****             lv_obj_set_flex_grow(menu->sidebar_page, 1);
 604:..\..\..\arduinoLCD\test\Pain Drain\libraries\lvgl\src\extra\widgets\menu/lv_menu.c ****             break;
 605:..\..\..\arduinoLCD\test\Pain Drain\libraries\lvgl\src\extra\widgets\menu/lv_menu.c ****     }
 606:..\..\..\arduinoLCD\test\Pain Drain\libraries\lvgl\src\extra\widgets\menu/lv_menu.c **** 
 607:..\..\..\arduinoLCD\test\Pain Drain\libraries\lvgl\src\extra\widgets\menu/lv_menu.c ****     lv_obj_refr_size(menu->sidebar_header);
 608:..\..\..\arduinoLCD\test\Pain Drain\libraries\lvgl\src\extra\widgets\menu/lv_menu.c ****     lv_obj_refr_size(menu->sidebar_page);
 609:..\..\..\arduinoLCD\test\Pain Drain\libraries\lvgl\src\extra\widgets\menu/lv_menu.c **** 
 610:..\..\..\arduinoLCD\test\Pain Drain\libraries\lvgl\src\extra\widgets\menu/lv_menu.c ****     if(lv_obj_get_content_height(menu->sidebar_header) == 0) {
 611:..\..\..\arduinoLCD\test\Pain Drain\libraries\lvgl\src\extra\widgets\menu/lv_menu.c ****         lv_obj_add_flag(menu->sidebar_header, LV_OBJ_FLAG_HIDDEN);
 612:..\..\..\arduinoLCD\test\Pain Drain\libraries\lvgl\src\extra\widgets\menu/lv_menu.c ****     }
 613:..\..\..\arduinoLCD\test\Pain Drain\libraries\lvgl\src\extra\widgets\menu/lv_menu.c ****     else {
 614:..\..\..\arduinoLCD\test\Pain Drain\libraries\lvgl\src\extra\widgets\menu/lv_menu.c ****         lv_obj_clear_flag(menu->sidebar_header, LV_OBJ_FLAG_HIDDEN);
 615:..\..\..\arduinoLCD\test\Pain Drain\libraries\lvgl\src\extra\widgets\menu/lv_menu.c ****     }
 616:..\..\..\arduinoLCD\test\Pain Drain\libraries\lvgl\src\extra\widgets\menu/lv_menu.c **** }
 617:..\..\..\arduinoLCD\test\Pain Drain\libraries\lvgl\src\extra\widgets\menu/lv_menu.c **** 
 618:..\..\..\arduinoLCD\test\Pain Drain\libraries\lvgl\src\extra\widgets\menu/lv_menu.c **** static void lv_menu_refr_main_header_mode(lv_obj_t * obj)
 619:..\..\..\arduinoLCD\test\Pain Drain\libraries\lvgl\src\extra\widgets\menu/lv_menu.c **** {
 620:..\..\..\arduinoLCD\test\Pain Drain\libraries\lvgl\src\extra\widgets\menu/lv_menu.c ****     LV_ASSERT_OBJ(obj, MY_CLASS);
 621:..\..\..\arduinoLCD\test\Pain Drain\libraries\lvgl\src\extra\widgets\menu/lv_menu.c **** 
ARM GAS  C:\Users\haske\AppData\Local\Temp\ccp0JrPn.s 			page 20


 622:..\..\..\arduinoLCD\test\Pain Drain\libraries\lvgl\src\extra\widgets\menu/lv_menu.c ****     lv_menu_t * menu = (lv_menu_t *)obj;
 623:..\..\..\arduinoLCD\test\Pain Drain\libraries\lvgl\src\extra\widgets\menu/lv_menu.c **** 
 624:..\..\..\arduinoLCD\test\Pain Drain\libraries\lvgl\src\extra\widgets\menu/lv_menu.c ****     if(menu->main_header == NULL || menu->main_page == NULL) return;
 625:..\..\..\arduinoLCD\test\Pain Drain\libraries\lvgl\src\extra\widgets\menu/lv_menu.c **** 
 626:..\..\..\arduinoLCD\test\Pain Drain\libraries\lvgl\src\extra\widgets\menu/lv_menu.c ****     switch(menu->mode_header) {
 627:..\..\..\arduinoLCD\test\Pain Drain\libraries\lvgl\src\extra\widgets\menu/lv_menu.c ****         case LV_MENU_HEADER_TOP_FIXED:
 628:..\..\..\arduinoLCD\test\Pain Drain\libraries\lvgl\src\extra\widgets\menu/lv_menu.c ****             /* Content should fill the remaining space */
 629:..\..\..\arduinoLCD\test\Pain Drain\libraries\lvgl\src\extra\widgets\menu/lv_menu.c ****             lv_obj_move_to_index(menu->main_header, 0);
 630:..\..\..\arduinoLCD\test\Pain Drain\libraries\lvgl\src\extra\widgets\menu/lv_menu.c ****             lv_obj_set_flex_grow(menu->main_page, 1);
 631:..\..\..\arduinoLCD\test\Pain Drain\libraries\lvgl\src\extra\widgets\menu/lv_menu.c ****             break;
 632:..\..\..\arduinoLCD\test\Pain Drain\libraries\lvgl\src\extra\widgets\menu/lv_menu.c ****         case LV_MENU_HEADER_TOP_UNFIXED:
 633:..\..\..\arduinoLCD\test\Pain Drain\libraries\lvgl\src\extra\widgets\menu/lv_menu.c ****             lv_obj_move_to_index(menu->main_header, 0);
 634:..\..\..\arduinoLCD\test\Pain Drain\libraries\lvgl\src\extra\widgets\menu/lv_menu.c ****             lv_obj_set_flex_grow(menu->main_page, 0);
 635:..\..\..\arduinoLCD\test\Pain Drain\libraries\lvgl\src\extra\widgets\menu/lv_menu.c ****             break;
 636:..\..\..\arduinoLCD\test\Pain Drain\libraries\lvgl\src\extra\widgets\menu/lv_menu.c ****         case LV_MENU_HEADER_BOTTOM_FIXED:
 637:..\..\..\arduinoLCD\test\Pain Drain\libraries\lvgl\src\extra\widgets\menu/lv_menu.c ****             lv_obj_move_to_index(menu->main_header, 1);
 638:..\..\..\arduinoLCD\test\Pain Drain\libraries\lvgl\src\extra\widgets\menu/lv_menu.c ****             lv_obj_set_flex_grow(menu->main_page, 1);
 639:..\..\..\arduinoLCD\test\Pain Drain\libraries\lvgl\src\extra\widgets\menu/lv_menu.c ****             break;
 640:..\..\..\arduinoLCD\test\Pain Drain\libraries\lvgl\src\extra\widgets\menu/lv_menu.c ****     }
 641:..\..\..\arduinoLCD\test\Pain Drain\libraries\lvgl\src\extra\widgets\menu/lv_menu.c **** 
 642:..\..\..\arduinoLCD\test\Pain Drain\libraries\lvgl\src\extra\widgets\menu/lv_menu.c ****     lv_obj_refr_size(menu->main_header);
 643:..\..\..\arduinoLCD\test\Pain Drain\libraries\lvgl\src\extra\widgets\menu/lv_menu.c ****     lv_obj_refr_size(menu->main_page);
 644:..\..\..\arduinoLCD\test\Pain Drain\libraries\lvgl\src\extra\widgets\menu/lv_menu.c ****     lv_obj_update_layout(menu->main_header);
 645:..\..\..\arduinoLCD\test\Pain Drain\libraries\lvgl\src\extra\widgets\menu/lv_menu.c **** 
 646:..\..\..\arduinoLCD\test\Pain Drain\libraries\lvgl\src\extra\widgets\menu/lv_menu.c ****     if(lv_obj_get_content_height(menu->main_header) == 0) {
 647:..\..\..\arduinoLCD\test\Pain Drain\libraries\lvgl\src\extra\widgets\menu/lv_menu.c ****         lv_obj_add_flag(menu->main_header, LV_OBJ_FLAG_HIDDEN);
 648:..\..\..\arduinoLCD\test\Pain Drain\libraries\lvgl\src\extra\widgets\menu/lv_menu.c ****     }
 649:..\..\..\arduinoLCD\test\Pain Drain\libraries\lvgl\src\extra\widgets\menu/lv_menu.c ****     else {
 650:..\..\..\arduinoLCD\test\Pain Drain\libraries\lvgl\src\extra\widgets\menu/lv_menu.c ****         lv_obj_clear_flag(menu->main_header, LV_OBJ_FLAG_HIDDEN);
 651:..\..\..\arduinoLCD\test\Pain Drain\libraries\lvgl\src\extra\widgets\menu/lv_menu.c ****     }
 652:..\..\..\arduinoLCD\test\Pain Drain\libraries\lvgl\src\extra\widgets\menu/lv_menu.c **** }
 653:..\..\..\arduinoLCD\test\Pain Drain\libraries\lvgl\src\extra\widgets\menu/lv_menu.c **** 
 654:..\..\..\arduinoLCD\test\Pain Drain\libraries\lvgl\src\extra\widgets\menu/lv_menu.c **** static void lv_menu_load_page_event_cb(lv_event_t * e)
 655:..\..\..\arduinoLCD\test\Pain Drain\libraries\lvgl\src\extra\widgets\menu/lv_menu.c **** {
 656:..\..\..\arduinoLCD\test\Pain Drain\libraries\lvgl\src\extra\widgets\menu/lv_menu.c ****     lv_obj_t * obj = lv_event_get_target(e);
 657:..\..\..\arduinoLCD\test\Pain Drain\libraries\lvgl\src\extra\widgets\menu/lv_menu.c ****     lv_menu_load_page_event_data_t * event_data = lv_event_get_user_data(e);
 658:..\..\..\arduinoLCD\test\Pain Drain\libraries\lvgl\src\extra\widgets\menu/lv_menu.c ****     lv_menu_t * menu = (lv_menu_t *)(event_data->menu);
 659:..\..\..\arduinoLCD\test\Pain Drain\libraries\lvgl\src\extra\widgets\menu/lv_menu.c ****     lv_obj_t * page = event_data->page;
 660:..\..\..\arduinoLCD\test\Pain Drain\libraries\lvgl\src\extra\widgets\menu/lv_menu.c **** 
 661:..\..\..\arduinoLCD\test\Pain Drain\libraries\lvgl\src\extra\widgets\menu/lv_menu.c ****     if(menu->sidebar_page != NULL) {
 662:..\..\..\arduinoLCD\test\Pain Drain\libraries\lvgl\src\extra\widgets\menu/lv_menu.c ****         /* Check if clicked obj is in the sidebar */
 663:..\..\..\arduinoLCD\test\Pain Drain\libraries\lvgl\src\extra\widgets\menu/lv_menu.c ****         bool sidebar = false;
 664:..\..\..\arduinoLCD\test\Pain Drain\libraries\lvgl\src\extra\widgets\menu/lv_menu.c ****         lv_obj_t * parent = obj;
 665:..\..\..\arduinoLCD\test\Pain Drain\libraries\lvgl\src\extra\widgets\menu/lv_menu.c **** 
 666:..\..\..\arduinoLCD\test\Pain Drain\libraries\lvgl\src\extra\widgets\menu/lv_menu.c ****         while(parent) {
 667:..\..\..\arduinoLCD\test\Pain Drain\libraries\lvgl\src\extra\widgets\menu/lv_menu.c ****             if(parent == (lv_obj_t *)menu) break;
 668:..\..\..\arduinoLCD\test\Pain Drain\libraries\lvgl\src\extra\widgets\menu/lv_menu.c ****             if(parent == menu->sidebar) {
 669:..\..\..\arduinoLCD\test\Pain Drain\libraries\lvgl\src\extra\widgets\menu/lv_menu.c ****                 sidebar = true;
 670:..\..\..\arduinoLCD\test\Pain Drain\libraries\lvgl\src\extra\widgets\menu/lv_menu.c ****                 break;
 671:..\..\..\arduinoLCD\test\Pain Drain\libraries\lvgl\src\extra\widgets\menu/lv_menu.c ****             }
 672:..\..\..\arduinoLCD\test\Pain Drain\libraries\lvgl\src\extra\widgets\menu/lv_menu.c ****             parent = lv_obj_get_parent(parent);
 673:..\..\..\arduinoLCD\test\Pain Drain\libraries\lvgl\src\extra\widgets\menu/lv_menu.c ****         }
 674:..\..\..\arduinoLCD\test\Pain Drain\libraries\lvgl\src\extra\widgets\menu/lv_menu.c **** 
 675:..\..\..\arduinoLCD\test\Pain Drain\libraries\lvgl\src\extra\widgets\menu/lv_menu.c ****         if(sidebar) {
 676:..\..\..\arduinoLCD\test\Pain Drain\libraries\lvgl\src\extra\widgets\menu/lv_menu.c ****             /* Clear checked state of previous obj */
 677:..\..\..\arduinoLCD\test\Pain Drain\libraries\lvgl\src\extra\widgets\menu/lv_menu.c ****             if(menu->selected_tab != obj && menu->selected_tab != NULL) {
 678:..\..\..\arduinoLCD\test\Pain Drain\libraries\lvgl\src\extra\widgets\menu/lv_menu.c ****                 lv_obj_clear_state(menu->selected_tab, LV_STATE_CHECKED);
ARM GAS  C:\Users\haske\AppData\Local\Temp\ccp0JrPn.s 			page 21


 679:..\..\..\arduinoLCD\test\Pain Drain\libraries\lvgl\src\extra\widgets\menu/lv_menu.c ****             }
 680:..\..\..\arduinoLCD\test\Pain Drain\libraries\lvgl\src\extra\widgets\menu/lv_menu.c **** 
 681:..\..\..\arduinoLCD\test\Pain Drain\libraries\lvgl\src\extra\widgets\menu/lv_menu.c ****             lv_menu_clear_history((lv_obj_t *)menu);
 682:..\..\..\arduinoLCD\test\Pain Drain\libraries\lvgl\src\extra\widgets\menu/lv_menu.c **** 
 683:..\..\..\arduinoLCD\test\Pain Drain\libraries\lvgl\src\extra\widgets\menu/lv_menu.c ****             menu->selected_tab = obj;
 684:..\..\..\arduinoLCD\test\Pain Drain\libraries\lvgl\src\extra\widgets\menu/lv_menu.c ****         }
 685:..\..\..\arduinoLCD\test\Pain Drain\libraries\lvgl\src\extra\widgets\menu/lv_menu.c ****     }
 686:..\..\..\arduinoLCD\test\Pain Drain\libraries\lvgl\src\extra\widgets\menu/lv_menu.c **** 
 687:..\..\..\arduinoLCD\test\Pain Drain\libraries\lvgl\src\extra\widgets\menu/lv_menu.c ****     lv_menu_set_page((lv_obj_t *)menu, page);
 688:..\..\..\arduinoLCD\test\Pain Drain\libraries\lvgl\src\extra\widgets\menu/lv_menu.c **** 
 689:..\..\..\arduinoLCD\test\Pain Drain\libraries\lvgl\src\extra\widgets\menu/lv_menu.c ****     if(lv_group_get_default() != NULL && menu->sidebar_page == NULL) {
 690:..\..\..\arduinoLCD\test\Pain Drain\libraries\lvgl\src\extra\widgets\menu/lv_menu.c ****         /* Sidebar is not supported for now*/
 691:..\..\..\arduinoLCD\test\Pain Drain\libraries\lvgl\src\extra\widgets\menu/lv_menu.c ****         lv_group_focus_next(lv_group_get_default());
 692:..\..\..\arduinoLCD\test\Pain Drain\libraries\lvgl\src\extra\widgets\menu/lv_menu.c ****     }
 693:..\..\..\arduinoLCD\test\Pain Drain\libraries\lvgl\src\extra\widgets\menu/lv_menu.c **** }
 694:..\..\..\arduinoLCD\test\Pain Drain\libraries\lvgl\src\extra\widgets\menu/lv_menu.c **** 
 695:..\..\..\arduinoLCD\test\Pain Drain\libraries\lvgl\src\extra\widgets\menu/lv_menu.c **** static void lv_menu_obj_del_event_cb(lv_event_t * e)
 696:..\..\..\arduinoLCD\test\Pain Drain\libraries\lvgl\src\extra\widgets\menu/lv_menu.c **** {
 407              		.loc 1 696 0
 408              		.cfi_startproc
 409              		@ args = 0, pretend = 0, frame = 0
 410              		@ frame_needed = 0, uses_anonymous_args = 0
 411              	.LVL60:
 412 0000 10B5     		push	{r4, lr}
 413              		.cfi_def_cfa_offset 8
 414              		.cfi_offset 4, -8
 415              		.cfi_offset 14, -4
 697:..\..\..\arduinoLCD\test\Pain Drain\libraries\lvgl\src\extra\widgets\menu/lv_menu.c ****     lv_menu_load_page_event_data_t * event_data = lv_event_get_user_data(e);
 416              		.loc 1 697 0
 417 0002 FFF7FEFF 		bl	lv_event_get_user_data
 418              	.LVL61:
 698:..\..\..\arduinoLCD\test\Pain Drain\libraries\lvgl\src\extra\widgets\menu/lv_menu.c ****     lv_mem_free(event_data);
 419              		.loc 1 698 0
 420 0006 FFF7FEFF 		bl	lv_mem_free
 421              	.LVL62:
 699:..\..\..\arduinoLCD\test\Pain Drain\libraries\lvgl\src\extra\widgets\menu/lv_menu.c **** }
 422              		.loc 1 699 0
 423              		@ sp needed
 424 000a 10BD     		pop	{r4, pc}
 425              		.cfi_endproc
 426              	.LFE192:
 427              		.size	lv_menu_obj_del_event_cb, .-lv_menu_obj_del_event_cb
 428              		.section	.text.lv_menu_page_constructor,"ax",%progbits
 429              		.align	2
 430              		.code	16
 431              		.thumb_func
 432              		.type	lv_menu_page_constructor, %function
 433              	lv_menu_page_constructor:
 434              	.LFB185:
 545:..\..\..\arduinoLCD\test\Pain Drain\libraries\lvgl\src\extra\widgets\menu/lv_menu.c ****     LV_UNUSED(class_p);
 435              		.loc 1 545 0
 436              		.cfi_startproc
 437              		@ args = 0, pretend = 0, frame = 0
 438              		@ frame_needed = 0, uses_anonymous_args = 0
 439              	.LVL63:
 440 0000 10B5     		push	{r4, lr}
 441              		.cfi_def_cfa_offset 8
ARM GAS  C:\Users\haske\AppData\Local\Temp\ccp0JrPn.s 			page 22


 442              		.cfi_offset 4, -8
 443              		.cfi_offset 14, -4
 444 0002 0C00     		movs	r4, r1
 548:..\..\..\arduinoLCD\test\Pain Drain\libraries\lvgl\src\extra\widgets\menu/lv_menu.c **** 
 445              		.loc 1 548 0
 446 0004 0800     		movs	r0, r1
 447              	.LVL64:
 448 0006 FFF7FEFF 		bl	lv_obj_get_parent
 449              	.LVL65:
 550:..\..\..\arduinoLCD\test\Pain Drain\libraries\lvgl\src\extra\widgets\menu/lv_menu.c ****     lv_obj_set_flex_flow(obj, LV_FLEX_FLOW_COLUMN);
 450              		.loc 1 550 0
 451 000a 416A     		ldr	r1, [r0, #36]
 452 000c 2000     		movs	r0, r4
 453              	.LVL66:
 454 000e FFF7FEFF 		bl	lv_obj_set_parent
 455              	.LVL67:
 551:..\..\..\arduinoLCD\test\Pain Drain\libraries\lvgl\src\extra\widgets\menu/lv_menu.c ****     lv_obj_set_flex_align(obj, LV_FLEX_ALIGN_START, LV_FLEX_ALIGN_CENTER, LV_FLEX_ALIGN_CENTER);
 456              		.loc 1 551 0
 457 0012 0121     		movs	r1, #1
 458 0014 2000     		movs	r0, r4
 459 0016 FFF7FEFF 		bl	lv_obj_set_flex_flow
 460              	.LVL68:
 552:..\..\..\arduinoLCD\test\Pain Drain\libraries\lvgl\src\extra\widgets\menu/lv_menu.c ****     lv_obj_add_flag(obj, LV_OBJ_FLAG_EVENT_BUBBLE);
 461              		.loc 1 552 0
 462 001a 0223     		movs	r3, #2
 463 001c 0222     		movs	r2, #2
 464 001e 0021     		movs	r1, #0
 465 0020 2000     		movs	r0, r4
 466 0022 FFF7FEFF 		bl	lv_obj_set_flex_align
 467              	.LVL69:
 553:..\..\..\arduinoLCD\test\Pain Drain\libraries\lvgl\src\extra\widgets\menu/lv_menu.c **** }
 468              		.loc 1 553 0
 469 0026 8021     		movs	r1, #128
 470 0028 C901     		lsls	r1, r1, #7
 471 002a 2000     		movs	r0, r4
 472 002c FFF7FEFF 		bl	lv_obj_add_flag
 473              	.LVL70:
 554:..\..\..\arduinoLCD\test\Pain Drain\libraries\lvgl\src\extra\widgets\menu/lv_menu.c **** 
 474              		.loc 1 554 0
 475              		@ sp needed
 476              	.LVL71:
 477 0030 10BD     		pop	{r4, pc}
 478              		.cfi_endproc
 479              	.LFE185:
 480              		.size	lv_menu_page_constructor, .-lv_menu_page_constructor
 481 0032 C046     		.section	.text.lv_menu_refr_main_header_mode,"ax",%progbits
 482              		.align	2
 483              		.code	16
 484              		.thumb_func
 485              		.type	lv_menu_refr_main_header_mode, %function
 486              	lv_menu_refr_main_header_mode:
 487              	.LFB190:
 619:..\..\..\arduinoLCD\test\Pain Drain\libraries\lvgl\src\extra\widgets\menu/lv_menu.c ****     LV_ASSERT_OBJ(obj, MY_CLASS);
 488              		.loc 1 619 0
 489              		.cfi_startproc
 490              		@ args = 0, pretend = 0, frame = 0
 491              		@ frame_needed = 0, uses_anonymous_args = 0
ARM GAS  C:\Users\haske\AppData\Local\Temp\ccp0JrPn.s 			page 23


 492              	.LVL72:
 493 0000 10B5     		push	{r4, lr}
 494              		.cfi_def_cfa_offset 8
 495              		.cfi_offset 4, -8
 496              		.cfi_offset 14, -4
 497 0002 0400     		movs	r4, r0
 498              	.LVL73:
 624:..\..\..\arduinoLCD\test\Pain Drain\libraries\lvgl\src\extra\widgets\menu/lv_menu.c **** 
 499              		.loc 1 624 0
 500 0004 006B     		ldr	r0, [r0, #48]
 501              	.LVL74:
 502 0006 0028     		cmp	r0, #0
 503 0008 3BD0     		beq	.L11
 624:..\..\..\arduinoLCD\test\Pain Drain\libraries\lvgl\src\extra\widgets\menu/lv_menu.c **** 
 504              		.loc 1 624 0 is_stmt 0 discriminator 1
 505 000a E36A     		ldr	r3, [r4, #44]
 506 000c 002B     		cmp	r3, #0
 507 000e 38D0     		beq	.L11
 626:..\..\..\arduinoLCD\test\Pain Drain\libraries\lvgl\src\extra\widgets\menu/lv_menu.c ****         case LV_MENU_HEADER_TOP_FIXED:
 508              		.loc 1 626 0 is_stmt 1
 509 0010 6223     		movs	r3, #98
 510 0012 E35C     		ldrb	r3, [r4, r3]
 511 0014 5B07     		lsls	r3, r3, #29
 512 0016 9B0F     		lsrs	r3, r3, #30
 513 0018 012B     		cmp	r3, #1
 514 001a 0CD0     		beq	.L14
 515 001c 002B     		cmp	r3, #0
 516 001e 02D0     		beq	.L15
 517 0020 022B     		cmp	r3, #2
 518 0022 10D0     		beq	.L16
 519 0024 16E0     		b	.L13
 520              	.L15:
 629:..\..\..\arduinoLCD\test\Pain Drain\libraries\lvgl\src\extra\widgets\menu/lv_menu.c ****             lv_obj_set_flex_grow(menu->main_page, 1);
 521              		.loc 1 629 0
 522 0026 0021     		movs	r1, #0
 523 0028 FFF7FEFF 		bl	lv_obj_move_to_index
 524              	.LVL75:
 630:..\..\..\arduinoLCD\test\Pain Drain\libraries\lvgl\src\extra\widgets\menu/lv_menu.c ****             break;
 525              		.loc 1 630 0
 526 002c 0121     		movs	r1, #1
 527 002e E06A     		ldr	r0, [r4, #44]
 528 0030 FFF7FEFF 		bl	lv_obj_set_flex_grow
 529              	.LVL76:
 631:..\..\..\arduinoLCD\test\Pain Drain\libraries\lvgl\src\extra\widgets\menu/lv_menu.c ****         case LV_MENU_HEADER_TOP_UNFIXED:
 530              		.loc 1 631 0
 531 0034 0EE0     		b	.L13
 532              	.L14:
 633:..\..\..\arduinoLCD\test\Pain Drain\libraries\lvgl\src\extra\widgets\menu/lv_menu.c ****             lv_obj_set_flex_grow(menu->main_page, 0);
 533              		.loc 1 633 0
 534 0036 0021     		movs	r1, #0
 535 0038 FFF7FEFF 		bl	lv_obj_move_to_index
 536              	.LVL77:
 634:..\..\..\arduinoLCD\test\Pain Drain\libraries\lvgl\src\extra\widgets\menu/lv_menu.c ****             break;
 537              		.loc 1 634 0
 538 003c 0021     		movs	r1, #0
 539 003e E06A     		ldr	r0, [r4, #44]
 540 0040 FFF7FEFF 		bl	lv_obj_set_flex_grow
ARM GAS  C:\Users\haske\AppData\Local\Temp\ccp0JrPn.s 			page 24


 541              	.LVL78:
 635:..\..\..\arduinoLCD\test\Pain Drain\libraries\lvgl\src\extra\widgets\menu/lv_menu.c ****         case LV_MENU_HEADER_BOTTOM_FIXED:
 542              		.loc 1 635 0
 543 0044 06E0     		b	.L13
 544              	.L16:
 637:..\..\..\arduinoLCD\test\Pain Drain\libraries\lvgl\src\extra\widgets\menu/lv_menu.c ****             lv_obj_set_flex_grow(menu->main_page, 1);
 545              		.loc 1 637 0
 546 0046 0121     		movs	r1, #1
 547 0048 FFF7FEFF 		bl	lv_obj_move_to_index
 548              	.LVL79:
 638:..\..\..\arduinoLCD\test\Pain Drain\libraries\lvgl\src\extra\widgets\menu/lv_menu.c ****             break;
 549              		.loc 1 638 0
 550 004c 0121     		movs	r1, #1
 551 004e E06A     		ldr	r0, [r4, #44]
 552 0050 FFF7FEFF 		bl	lv_obj_set_flex_grow
 553              	.LVL80:
 554              	.L13:
 642:..\..\..\arduinoLCD\test\Pain Drain\libraries\lvgl\src\extra\widgets\menu/lv_menu.c ****     lv_obj_refr_size(menu->main_page);
 555              		.loc 1 642 0
 556 0054 206B     		ldr	r0, [r4, #48]
 557 0056 FFF7FEFF 		bl	lv_obj_refr_size
 558              	.LVL81:
 643:..\..\..\arduinoLCD\test\Pain Drain\libraries\lvgl\src\extra\widgets\menu/lv_menu.c ****     lv_obj_update_layout(menu->main_header);
 559              		.loc 1 643 0
 560 005a E06A     		ldr	r0, [r4, #44]
 561 005c FFF7FEFF 		bl	lv_obj_refr_size
 562              	.LVL82:
 644:..\..\..\arduinoLCD\test\Pain Drain\libraries\lvgl\src\extra\widgets\menu/lv_menu.c **** 
 563              		.loc 1 644 0
 564 0060 206B     		ldr	r0, [r4, #48]
 565 0062 FFF7FEFF 		bl	lv_obj_update_layout
 566              	.LVL83:
 646:..\..\..\arduinoLCD\test\Pain Drain\libraries\lvgl\src\extra\widgets\menu/lv_menu.c ****         lv_obj_add_flag(menu->main_header, LV_OBJ_FLAG_HIDDEN);
 567              		.loc 1 646 0
 568 0066 206B     		ldr	r0, [r4, #48]
 569 0068 FFF7FEFF 		bl	lv_obj_get_content_height
 570              	.LVL84:
 571 006c 0028     		cmp	r0, #0
 572 006e 04D1     		bne	.L17
 647:..\..\..\arduinoLCD\test\Pain Drain\libraries\lvgl\src\extra\widgets\menu/lv_menu.c ****     }
 573              		.loc 1 647 0
 574 0070 206B     		ldr	r0, [r4, #48]
 575 0072 0121     		movs	r1, #1
 576 0074 FFF7FEFF 		bl	lv_obj_add_flag
 577              	.LVL85:
 578 0078 03E0     		b	.L11
 579              	.L17:
 650:..\..\..\arduinoLCD\test\Pain Drain\libraries\lvgl\src\extra\widgets\menu/lv_menu.c ****     }
 580              		.loc 1 650 0
 581 007a 206B     		ldr	r0, [r4, #48]
 582 007c 0121     		movs	r1, #1
 583 007e FFF7FEFF 		bl	lv_obj_clear_flag
 584              	.LVL86:
 585              	.L11:
 652:..\..\..\arduinoLCD\test\Pain Drain\libraries\lvgl\src\extra\widgets\menu/lv_menu.c **** 
 586              		.loc 1 652 0
 587              		@ sp needed
ARM GAS  C:\Users\haske\AppData\Local\Temp\ccp0JrPn.s 			page 25


 588              	.LVL87:
 589 0082 10BD     		pop	{r4, pc}
 590              		.cfi_endproc
 591              	.LFE190:
 592              		.size	lv_menu_refr_main_header_mode, .-lv_menu_refr_main_header_mode
 593              		.section	.text.lv_menu_refr_sidebar_header_mode,"ax",%progbits
 594              		.align	2
 595              		.code	16
 596              		.thumb_func
 597              		.type	lv_menu_refr_sidebar_header_mode, %function
 598              	lv_menu_refr_sidebar_header_mode:
 599              	.LFB189:
 584:..\..\..\arduinoLCD\test\Pain Drain\libraries\lvgl\src\extra\widgets\menu/lv_menu.c ****     LV_ASSERT_OBJ(obj, MY_CLASS);
 600              		.loc 1 584 0
 601              		.cfi_startproc
 602              		@ args = 0, pretend = 0, frame = 0
 603              		@ frame_needed = 0, uses_anonymous_args = 0
 604              	.LVL88:
 605 0000 10B5     		push	{r4, lr}
 606              		.cfi_def_cfa_offset 8
 607              		.cfi_offset 4, -8
 608              		.cfi_offset 14, -4
 609 0002 0400     		movs	r4, r0
 610              	.LVL89:
 589:..\..\..\arduinoLCD\test\Pain Drain\libraries\lvgl\src\extra\widgets\menu/lv_menu.c **** 
 611              		.loc 1 589 0
 612 0004 406C     		ldr	r0, [r0, #68]
 613              	.LVL90:
 614 0006 0028     		cmp	r0, #0
 615 0008 38D0     		beq	.L18
 589:..\..\..\arduinoLCD\test\Pain Drain\libraries\lvgl\src\extra\widgets\menu/lv_menu.c **** 
 616              		.loc 1 589 0 is_stmt 0 discriminator 1
 617 000a 236C     		ldr	r3, [r4, #64]
 618 000c 002B     		cmp	r3, #0
 619 000e 35D0     		beq	.L18
 591:..\..\..\arduinoLCD\test\Pain Drain\libraries\lvgl\src\extra\widgets\menu/lv_menu.c ****         case LV_MENU_HEADER_TOP_FIXED:
 620              		.loc 1 591 0 is_stmt 1
 621 0010 6223     		movs	r3, #98
 622 0012 E35C     		ldrb	r3, [r4, r3]
 623 0014 5B07     		lsls	r3, r3, #29
 624 0016 9B0F     		lsrs	r3, r3, #30
 625 0018 012B     		cmp	r3, #1
 626 001a 0CD0     		beq	.L21
 627 001c 002B     		cmp	r3, #0
 628 001e 02D0     		beq	.L22
 629 0020 022B     		cmp	r3, #2
 630 0022 10D0     		beq	.L23
 631 0024 16E0     		b	.L20
 632              	.L22:
 594:..\..\..\arduinoLCD\test\Pain Drain\libraries\lvgl\src\extra\widgets\menu/lv_menu.c ****             lv_obj_set_flex_grow(menu->sidebar_page, 1);
 633              		.loc 1 594 0
 634 0026 0021     		movs	r1, #0
 635 0028 FFF7FEFF 		bl	lv_obj_move_to_index
 636              	.LVL91:
 595:..\..\..\arduinoLCD\test\Pain Drain\libraries\lvgl\src\extra\widgets\menu/lv_menu.c ****             break;
 637              		.loc 1 595 0
 638 002c 0121     		movs	r1, #1
ARM GAS  C:\Users\haske\AppData\Local\Temp\ccp0JrPn.s 			page 26


 639 002e 206C     		ldr	r0, [r4, #64]
 640 0030 FFF7FEFF 		bl	lv_obj_set_flex_grow
 641              	.LVL92:
 596:..\..\..\arduinoLCD\test\Pain Drain\libraries\lvgl\src\extra\widgets\menu/lv_menu.c ****         case LV_MENU_HEADER_TOP_UNFIXED:
 642              		.loc 1 596 0
 643 0034 0EE0     		b	.L20
 644              	.L21:
 598:..\..\..\arduinoLCD\test\Pain Drain\libraries\lvgl\src\extra\widgets\menu/lv_menu.c ****             lv_obj_set_flex_grow(menu->sidebar_page, 0);
 645              		.loc 1 598 0
 646 0036 0021     		movs	r1, #0
 647 0038 FFF7FEFF 		bl	lv_obj_move_to_index
 648              	.LVL93:
 599:..\..\..\arduinoLCD\test\Pain Drain\libraries\lvgl\src\extra\widgets\menu/lv_menu.c ****             break;
 649              		.loc 1 599 0
 650 003c 0021     		movs	r1, #0
 651 003e 206C     		ldr	r0, [r4, #64]
 652 0040 FFF7FEFF 		bl	lv_obj_set_flex_grow
 653              	.LVL94:
 600:..\..\..\arduinoLCD\test\Pain Drain\libraries\lvgl\src\extra\widgets\menu/lv_menu.c ****         case LV_MENU_HEADER_BOTTOM_FIXED:
 654              		.loc 1 600 0
 655 0044 06E0     		b	.L20
 656              	.L23:
 602:..\..\..\arduinoLCD\test\Pain Drain\libraries\lvgl\src\extra\widgets\menu/lv_menu.c ****             lv_obj_set_flex_grow(menu->sidebar_page, 1);
 657              		.loc 1 602 0
 658 0046 0121     		movs	r1, #1
 659 0048 FFF7FEFF 		bl	lv_obj_move_to_index
 660              	.LVL95:
 603:..\..\..\arduinoLCD\test\Pain Drain\libraries\lvgl\src\extra\widgets\menu/lv_menu.c ****             break;
 661              		.loc 1 603 0
 662 004c 0121     		movs	r1, #1
 663 004e 206C     		ldr	r0, [r4, #64]
 664 0050 FFF7FEFF 		bl	lv_obj_set_flex_grow
 665              	.LVL96:
 666              	.L20:
 607:..\..\..\arduinoLCD\test\Pain Drain\libraries\lvgl\src\extra\widgets\menu/lv_menu.c ****     lv_obj_refr_size(menu->sidebar_page);
 667              		.loc 1 607 0
 668 0054 606C     		ldr	r0, [r4, #68]
 669 0056 FFF7FEFF 		bl	lv_obj_refr_size
 670              	.LVL97:
 608:..\..\..\arduinoLCD\test\Pain Drain\libraries\lvgl\src\extra\widgets\menu/lv_menu.c **** 
 671              		.loc 1 608 0
 672 005a 206C     		ldr	r0, [r4, #64]
 673 005c FFF7FEFF 		bl	lv_obj_refr_size
 674              	.LVL98:
 610:..\..\..\arduinoLCD\test\Pain Drain\libraries\lvgl\src\extra\widgets\menu/lv_menu.c ****         lv_obj_add_flag(menu->sidebar_header, LV_OBJ_FLAG_HIDDEN);
 675              		.loc 1 610 0
 676 0060 606C     		ldr	r0, [r4, #68]
 677 0062 FFF7FEFF 		bl	lv_obj_get_content_height
 678              	.LVL99:
 679 0066 0028     		cmp	r0, #0
 680 0068 04D1     		bne	.L24
 611:..\..\..\arduinoLCD\test\Pain Drain\libraries\lvgl\src\extra\widgets\menu/lv_menu.c ****     }
 681              		.loc 1 611 0
 682 006a 606C     		ldr	r0, [r4, #68]
 683 006c 0121     		movs	r1, #1
 684 006e FFF7FEFF 		bl	lv_obj_add_flag
 685              	.LVL100:
ARM GAS  C:\Users\haske\AppData\Local\Temp\ccp0JrPn.s 			page 27


 686 0072 03E0     		b	.L18
 687              	.L24:
 614:..\..\..\arduinoLCD\test\Pain Drain\libraries\lvgl\src\extra\widgets\menu/lv_menu.c ****     }
 688              		.loc 1 614 0
 689 0074 606C     		ldr	r0, [r4, #68]
 690 0076 0121     		movs	r1, #1
 691 0078 FFF7FEFF 		bl	lv_obj_clear_flag
 692              	.LVL101:
 693              	.L18:
 616:..\..\..\arduinoLCD\test\Pain Drain\libraries\lvgl\src\extra\widgets\menu/lv_menu.c **** 
 694              		.loc 1 616 0
 695              		@ sp needed
 696              	.LVL102:
 697 007c 10BD     		pop	{r4, pc}
 698              		.cfi_endproc
 699              	.LFE189:
 700              		.size	lv_menu_refr_sidebar_header_mode, .-lv_menu_refr_sidebar_header_mode
 701 007e C046     		.section	.text.lv_menu_create,"ax",%progbits
 702              		.align	2
 703              		.global	lv_menu_create
 704              		.code	16
 705              		.thumb_func
 706              		.type	lv_menu_create, %function
 707              	lv_menu_create:
 708              	.LFB164:
 113:..\..\..\arduinoLCD\test\Pain Drain\libraries\lvgl\src\extra\widgets\menu/lv_menu.c ****     LV_LOG_INFO("begin");
 709              		.loc 1 113 0
 710              		.cfi_startproc
 711              		@ args = 0, pretend = 0, frame = 0
 712              		@ frame_needed = 0, uses_anonymous_args = 0
 713              	.LVL103:
 714 0000 10B5     		push	{r4, lr}
 715              		.cfi_def_cfa_offset 8
 716              		.cfi_offset 4, -8
 717              		.cfi_offset 14, -4
 718 0002 0100     		movs	r1, r0
 115:..\..\..\arduinoLCD\test\Pain Drain\libraries\lvgl\src\extra\widgets\menu/lv_menu.c ****     lv_obj_class_init_obj(obj);
 719              		.loc 1 115 0
 720 0004 0448     		ldr	r0, .L26
 721              	.LVL104:
 722 0006 3830     		adds	r0, r0, #56
 723 0008 FFF7FEFF 		bl	lv_obj_class_create_obj
 724              	.LVL105:
 725 000c 0400     		movs	r4, r0
 726              	.LVL106:
 116:..\..\..\arduinoLCD\test\Pain Drain\libraries\lvgl\src\extra\widgets\menu/lv_menu.c ****     return obj;
 727              		.loc 1 116 0
 728 000e FFF7FEFF 		bl	lv_obj_class_init_obj
 729              	.LVL107:
 118:..\..\..\arduinoLCD\test\Pain Drain\libraries\lvgl\src\extra\widgets\menu/lv_menu.c **** 
 730              		.loc 1 118 0
 731 0012 2000     		movs	r0, r4
 732              		@ sp needed
 733              	.LVL108:
 734 0014 10BD     		pop	{r4, pc}
 735              	.L27:
 736 0016 C046     		.align	2
ARM GAS  C:\Users\haske\AppData\Local\Temp\ccp0JrPn.s 			page 28


 737              	.L26:
 738 0018 00000000 		.word	.LANCHOR0
 739              		.cfi_endproc
 740              	.LFE164:
 741              		.size	lv_menu_create, .-lv_menu_create
 742              		.section	.text.lv_menu_page_create,"ax",%progbits
 743              		.align	2
 744              		.global	lv_menu_page_create
 745              		.code	16
 746              		.thumb_func
 747              		.type	lv_menu_page_create, %function
 748              	lv_menu_page_create:
 749              	.LFB165:
 121:..\..\..\arduinoLCD\test\Pain Drain\libraries\lvgl\src\extra\widgets\menu/lv_menu.c ****     LV_LOG_INFO("begin");
 750              		.loc 1 121 0
 751              		.cfi_startproc
 752              		@ args = 0, pretend = 0, frame = 0
 753              		@ frame_needed = 0, uses_anonymous_args = 0
 754              	.LVL109:
 755 0000 70B5     		push	{r4, r5, r6, lr}
 756              		.cfi_def_cfa_offset 16
 757              		.cfi_offset 4, -16
 758              		.cfi_offset 5, -12
 759              		.cfi_offset 6, -8
 760              		.cfi_offset 14, -4
 761 0002 0D00     		movs	r5, r1
 123:..\..\..\arduinoLCD\test\Pain Drain\libraries\lvgl\src\extra\widgets\menu/lv_menu.c ****     lv_obj_class_init_obj(obj);
 762              		.loc 1 123 0
 763 0004 0100     		movs	r1, r0
 764              	.LVL110:
 765 0006 1048     		ldr	r0, .L34
 766              	.LVL111:
 767 0008 5430     		adds	r0, r0, #84
 768 000a FFF7FEFF 		bl	lv_obj_class_create_obj
 769              	.LVL112:
 770 000e 0400     		movs	r4, r0
 771              	.LVL113:
 124:..\..\..\arduinoLCD\test\Pain Drain\libraries\lvgl\src\extra\widgets\menu/lv_menu.c **** 
 772              		.loc 1 124 0
 773 0010 FFF7FEFF 		bl	lv_obj_class_init_obj
 774              	.LVL114:
 127:..\..\..\arduinoLCD\test\Pain Drain\libraries\lvgl\src\extra\widgets\menu/lv_menu.c ****         page->title = lv_mem_alloc(strlen(title) + 1);
 775              		.loc 1 127 0
 776 0014 002D     		cmp	r5, #0
 777 0016 10D0     		beq	.L29
 128:..\..\..\arduinoLCD\test\Pain Drain\libraries\lvgl\src\extra\widgets\menu/lv_menu.c ****         LV_ASSERT_MALLOC(page->title);
 778              		.loc 1 128 0
 779 0018 2800     		movs	r0, r5
 780 001a FFF7FEFF 		bl	strlen
 781              	.LVL115:
 782 001e 0130     		adds	r0, r0, #1
 783 0020 FFF7FEFF 		bl	lv_mem_alloc
 784              	.LVL116:
 785 0024 6062     		str	r0, [r4, #36]
 129:..\..\..\arduinoLCD\test\Pain Drain\libraries\lvgl\src\extra\widgets\menu/lv_menu.c ****         if(page->title == NULL) return NULL;
 786              		.loc 1 129 0
 787 0026 0028     		cmp	r0, #0
ARM GAS  C:\Users\haske\AppData\Local\Temp\ccp0JrPn.s 			page 29


 788 0028 00D1     		bne	.L30
 789              	.L31:
 790 002a FEE7     		b	.L31
 791              	.L30:
 130:..\..\..\arduinoLCD\test\Pain Drain\libraries\lvgl\src\extra\widgets\menu/lv_menu.c ****         strcpy(page->title, title);
 792              		.loc 1 130 0
 793 002c 0028     		cmp	r0, #0
 794 002e 08D0     		beq	.L33
 131:..\..\..\arduinoLCD\test\Pain Drain\libraries\lvgl\src\extra\widgets\menu/lv_menu.c ****     }
 795              		.loc 1 131 0
 796 0030 2900     		movs	r1, r5
 797 0032 FFF7FEFF 		bl	strcpy
 798              	.LVL117:
 137:..\..\..\arduinoLCD\test\Pain Drain\libraries\lvgl\src\extra\widgets\menu/lv_menu.c **** }
 799              		.loc 1 137 0
 800 0036 2000     		movs	r0, r4
 801 0038 04E0     		b	.L32
 802              	.L29:
 134:..\..\..\arduinoLCD\test\Pain Drain\libraries\lvgl\src\extra\widgets\menu/lv_menu.c ****     }
 803              		.loc 1 134 0
 804 003a 0023     		movs	r3, #0
 805 003c 6362     		str	r3, [r4, #36]
 137:..\..\..\arduinoLCD\test\Pain Drain\libraries\lvgl\src\extra\widgets\menu/lv_menu.c **** }
 806              		.loc 1 137 0
 807 003e 2000     		movs	r0, r4
 808 0040 00E0     		b	.L32
 809              	.L33:
 130:..\..\..\arduinoLCD\test\Pain Drain\libraries\lvgl\src\extra\widgets\menu/lv_menu.c ****         strcpy(page->title, title);
 810              		.loc 1 130 0
 811 0042 0020     		movs	r0, #0
 812              	.L32:
 138:..\..\..\arduinoLCD\test\Pain Drain\libraries\lvgl\src\extra\widgets\menu/lv_menu.c **** 
 813              		.loc 1 138 0
 814              		@ sp needed
 815              	.LVL118:
 816              	.LVL119:
 817 0044 70BD     		pop	{r4, r5, r6, pc}
 818              	.L35:
 819 0046 C046     		.align	2
 820              	.L34:
 821 0048 00000000 		.word	.LANCHOR0
 822              		.cfi_endproc
 823              	.LFE165:
 824              		.size	lv_menu_page_create, .-lv_menu_page_create
 825              		.section	.text.lv_menu_cont_create,"ax",%progbits
 826              		.align	2
 827              		.global	lv_menu_cont_create
 828              		.code	16
 829              		.thumb_func
 830              		.type	lv_menu_cont_create, %function
 831              	lv_menu_cont_create:
 832              	.LFB166:
 141:..\..\..\arduinoLCD\test\Pain Drain\libraries\lvgl\src\extra\widgets\menu/lv_menu.c ****     LV_LOG_INFO("begin");
 833              		.loc 1 141 0
 834              		.cfi_startproc
 835              		@ args = 0, pretend = 0, frame = 0
 836              		@ frame_needed = 0, uses_anonymous_args = 0
ARM GAS  C:\Users\haske\AppData\Local\Temp\ccp0JrPn.s 			page 30


 837              	.LVL120:
 838 0000 10B5     		push	{r4, lr}
 839              		.cfi_def_cfa_offset 8
 840              		.cfi_offset 4, -8
 841              		.cfi_offset 14, -4
 842 0002 0100     		movs	r1, r0
 143:..\..\..\arduinoLCD\test\Pain Drain\libraries\lvgl\src\extra\widgets\menu/lv_menu.c ****     lv_obj_class_init_obj(obj);
 843              		.loc 1 143 0
 844 0004 0448     		ldr	r0, .L37
 845              	.LVL121:
 846 0006 7030     		adds	r0, r0, #112
 847 0008 FFF7FEFF 		bl	lv_obj_class_create_obj
 848              	.LVL122:
 849 000c 0400     		movs	r4, r0
 850              	.LVL123:
 144:..\..\..\arduinoLCD\test\Pain Drain\libraries\lvgl\src\extra\widgets\menu/lv_menu.c ****     return obj;
 851              		.loc 1 144 0
 852 000e FFF7FEFF 		bl	lv_obj_class_init_obj
 853              	.LVL124:
 146:..\..\..\arduinoLCD\test\Pain Drain\libraries\lvgl\src\extra\widgets\menu/lv_menu.c **** 
 854              		.loc 1 146 0
 855 0012 2000     		movs	r0, r4
 856              		@ sp needed
 857              	.LVL125:
 858 0014 10BD     		pop	{r4, pc}
 859              	.L38:
 860 0016 C046     		.align	2
 861              	.L37:
 862 0018 00000000 		.word	.LANCHOR0
 863              		.cfi_endproc
 864              	.LFE166:
 865              		.size	lv_menu_cont_create, .-lv_menu_cont_create
 866              		.section	.text.lv_menu_section_create,"ax",%progbits
 867              		.align	2
 868              		.global	lv_menu_section_create
 869              		.code	16
 870              		.thumb_func
 871              		.type	lv_menu_section_create, %function
 872              	lv_menu_section_create:
 873              	.LFB167:
 149:..\..\..\arduinoLCD\test\Pain Drain\libraries\lvgl\src\extra\widgets\menu/lv_menu.c ****     LV_LOG_INFO("begin");
 874              		.loc 1 149 0
 875              		.cfi_startproc
 876              		@ args = 0, pretend = 0, frame = 0
 877              		@ frame_needed = 0, uses_anonymous_args = 0
 878              	.LVL126:
 879 0000 10B5     		push	{r4, lr}
 880              		.cfi_def_cfa_offset 8
 881              		.cfi_offset 4, -8
 882              		.cfi_offset 14, -4
 883 0002 0100     		movs	r1, r0
 151:..\..\..\arduinoLCD\test\Pain Drain\libraries\lvgl\src\extra\widgets\menu/lv_menu.c ****     lv_obj_class_init_obj(obj);
 884              		.loc 1 151 0
 885 0004 0448     		ldr	r0, .L40
 886              	.LVL127:
 887 0006 0C30     		adds	r0, r0, #12
 888 0008 FFF7FEFF 		bl	lv_obj_class_create_obj
ARM GAS  C:\Users\haske\AppData\Local\Temp\ccp0JrPn.s 			page 31


 889              	.LVL128:
 890 000c 0400     		movs	r4, r0
 891              	.LVL129:
 152:..\..\..\arduinoLCD\test\Pain Drain\libraries\lvgl\src\extra\widgets\menu/lv_menu.c ****     return obj;
 892              		.loc 1 152 0
 893 000e FFF7FEFF 		bl	lv_obj_class_init_obj
 894              	.LVL130:
 154:..\..\..\arduinoLCD\test\Pain Drain\libraries\lvgl\src\extra\widgets\menu/lv_menu.c **** 
 895              		.loc 1 154 0
 896 0012 2000     		movs	r0, r4
 897              		@ sp needed
 898              	.LVL131:
 899 0014 10BD     		pop	{r4, pc}
 900              	.L41:
 901 0016 C046     		.align	2
 902              	.L40:
 903 0018 80000000 		.word	.LANCHOR1
 904              		.cfi_endproc
 905              	.LFE167:
 906              		.size	lv_menu_section_create, .-lv_menu_section_create
 907              		.section	.text.lv_menu_separator_create,"ax",%progbits
 908              		.align	2
 909              		.global	lv_menu_separator_create
 910              		.code	16
 911              		.thumb_func
 912              		.type	lv_menu_separator_create, %function
 913              	lv_menu_separator_create:
 914              	.LFB168:
 157:..\..\..\arduinoLCD\test\Pain Drain\libraries\lvgl\src\extra\widgets\menu/lv_menu.c ****     LV_LOG_INFO("begin");
 915              		.loc 1 157 0
 916              		.cfi_startproc
 917              		@ args = 0, pretend = 0, frame = 0
 918              		@ frame_needed = 0, uses_anonymous_args = 0
 919              	.LVL132:
 920 0000 10B5     		push	{r4, lr}
 921              		.cfi_def_cfa_offset 8
 922              		.cfi_offset 4, -8
 923              		.cfi_offset 14, -4
 924 0002 0100     		movs	r1, r0
 159:..\..\..\arduinoLCD\test\Pain Drain\libraries\lvgl\src\extra\widgets\menu/lv_menu.c ****     lv_obj_class_init_obj(obj);
 925              		.loc 1 159 0
 926 0004 0448     		ldr	r0, .L43
 927              	.LVL133:
 928 0006 2830     		adds	r0, r0, #40
 929 0008 FFF7FEFF 		bl	lv_obj_class_create_obj
 930              	.LVL134:
 931 000c 0400     		movs	r4, r0
 932              	.LVL135:
 160:..\..\..\arduinoLCD\test\Pain Drain\libraries\lvgl\src\extra\widgets\menu/lv_menu.c ****     return obj;
 933              		.loc 1 160 0
 934 000e FFF7FEFF 		bl	lv_obj_class_init_obj
 935              	.LVL136:
 162:..\..\..\arduinoLCD\test\Pain Drain\libraries\lvgl\src\extra\widgets\menu/lv_menu.c **** 
 936              		.loc 1 162 0
 937 0012 2000     		movs	r0, r4
 938              		@ sp needed
 939              	.LVL137:
ARM GAS  C:\Users\haske\AppData\Local\Temp\ccp0JrPn.s 			page 32


 940 0014 10BD     		pop	{r4, pc}
 941              	.L44:
 942 0016 C046     		.align	2
 943              	.L43:
 944 0018 80000000 		.word	.LANCHOR1
 945              		.cfi_endproc
 946              	.LFE168:
 947              		.size	lv_menu_separator_create, .-lv_menu_separator_create
 948              		.section	.text.lv_menu_set_mode_header,"ax",%progbits
 949              		.align	2
 950              		.global	lv_menu_set_mode_header
 951              		.code	16
 952              		.thumb_func
 953              		.type	lv_menu_set_mode_header, %function
 954              	lv_menu_set_mode_header:
 955              	.LFB172:
 336:..\..\..\arduinoLCD\test\Pain Drain\libraries\lvgl\src\extra\widgets\menu/lv_menu.c ****     LV_ASSERT_OBJ(obj, MY_CLASS);
 956              		.loc 1 336 0
 957              		.cfi_startproc
 958              		@ args = 0, pretend = 0, frame = 0
 959              		@ frame_needed = 0, uses_anonymous_args = 0
 960              	.LVL138:
 961 0000 70B5     		push	{r4, r5, r6, lr}
 962              		.cfi_def_cfa_offset 16
 963              		.cfi_offset 4, -16
 964              		.cfi_offset 5, -12
 965              		.cfi_offset 6, -8
 966              		.cfi_offset 14, -4
 967 0002 0400     		movs	r4, r0
 968              	.LVL139:
 341:..\..\..\arduinoLCD\test\Pain Drain\libraries\lvgl\src\extra\widgets\menu/lv_menu.c ****         menu->mode_header = mode_header;
 969              		.loc 1 341 0
 970 0004 6223     		movs	r3, #98
 971 0006 C35C     		ldrb	r3, [r0, r3]
 972 0008 5B07     		lsls	r3, r3, #29
 973 000a 9B0F     		lsrs	r3, r3, #30
 974 000c 8B42     		cmp	r3, r1
 975 000e 10D0     		beq	.L45
 342:..\..\..\arduinoLCD\test\Pain Drain\libraries\lvgl\src\extra\widgets\menu/lv_menu.c ****         lv_menu_refr_main_header_mode(obj);
 976              		.loc 1 342 0
 977 0010 6225     		movs	r5, #98
 978 0012 0323     		movs	r3, #3
 979 0014 1940     		ands	r1, r3
 980              	.LVL140:
 981 0016 4900     		lsls	r1, r1, #1
 982 0018 435D     		ldrb	r3, [r0, r5]
 983 001a 0622     		movs	r2, #6
 984 001c 9343     		bics	r3, r2
 985 001e 1943     		orrs	r1, r3
 986 0020 4155     		strb	r1, [r0, r5]
 343:..\..\..\arduinoLCD\test\Pain Drain\libraries\lvgl\src\extra\widgets\menu/lv_menu.c ****         if(menu->sidebar_generated) lv_menu_refr_sidebar_header_mode(obj);
 987              		.loc 1 343 0
 988 0022 FFF7FEFF 		bl	lv_menu_refr_main_header_mode
 989              	.LVL141:
 344:..\..\..\arduinoLCD\test\Pain Drain\libraries\lvgl\src\extra\widgets\menu/lv_menu.c ****     }
 990              		.loc 1 344 0
 991 0026 635D     		ldrb	r3, [r4, r5]
ARM GAS  C:\Users\haske\AppData\Local\Temp\ccp0JrPn.s 			page 33


 992 0028 DB07     		lsls	r3, r3, #31
 993 002a 02D5     		bpl	.L45
 344:..\..\..\arduinoLCD\test\Pain Drain\libraries\lvgl\src\extra\widgets\menu/lv_menu.c ****     }
 994              		.loc 1 344 0 is_stmt 0 discriminator 1
 995 002c 2000     		movs	r0, r4
 996 002e FFF7FEFF 		bl	lv_menu_refr_sidebar_header_mode
 997              	.LVL142:
 998              	.L45:
 346:..\..\..\arduinoLCD\test\Pain Drain\libraries\lvgl\src\extra\widgets\menu/lv_menu.c **** 
 999              		.loc 1 346 0 is_stmt 1
 1000              		@ sp needed
 1001              	.LVL143:
 1002 0032 70BD     		pop	{r4, r5, r6, pc}
 1003              		.cfi_endproc
 1004              	.LFE172:
 1005              		.size	lv_menu_set_mode_header, .-lv_menu_set_mode_header
 1006              		.section	.text.lv_menu_set_load_page_event,"ax",%progbits
 1007              		.align	2
 1008              		.global	lv_menu_set_load_page_event
 1009              		.code	16
 1010              		.thumb_func
 1011              		.type	lv_menu_set_load_page_event, %function
 1012              	lv_menu_set_load_page_event:
 1013              	.LFB174:
 361:..\..\..\arduinoLCD\test\Pain Drain\libraries\lvgl\src\extra\widgets\menu/lv_menu.c ****     LV_ASSERT_OBJ(menu, MY_CLASS);
 1014              		.loc 1 361 0
 1015              		.cfi_startproc
 1016              		@ args = 0, pretend = 0, frame = 0
 1017              		@ frame_needed = 0, uses_anonymous_args = 0
 1018              	.LVL144:
 1019 0000 F8B5     		push	{r3, r4, r5, r6, r7, lr}
 1020              		.cfi_def_cfa_offset 24
 1021              		.cfi_offset 3, -24
 1022              		.cfi_offset 4, -20
 1023              		.cfi_offset 5, -16
 1024              		.cfi_offset 6, -12
 1025              		.cfi_offset 7, -8
 1026              		.cfi_offset 14, -4
 1027 0002 0700     		movs	r7, r0
 1028 0004 0C00     		movs	r4, r1
 1029 0006 1600     		movs	r6, r2
 364:..\..\..\arduinoLCD\test\Pain Drain\libraries\lvgl\src\extra\widgets\menu/lv_menu.c ****     lv_obj_clear_flag(obj, LV_OBJ_FLAG_SCROLLABLE);
 1030              		.loc 1 364 0
 1031 0008 0221     		movs	r1, #2
 1032              	.LVL145:
 1033 000a 2000     		movs	r0, r4
 1034              	.LVL146:
 1035 000c FFF7FEFF 		bl	lv_obj_add_flag
 1036              	.LVL147:
 365:..\..\..\arduinoLCD\test\Pain Drain\libraries\lvgl\src\extra\widgets\menu/lv_menu.c ****     lv_obj_add_flag(obj, LV_OBJ_FLAG_SCROLL_ON_FOCUS);
 1037              		.loc 1 365 0
 1038 0010 1021     		movs	r1, #16
 1039 0012 2000     		movs	r0, r4
 1040 0014 FFF7FEFF 		bl	lv_obj_clear_flag
 1041              	.LVL148:
 366:..\..\..\arduinoLCD\test\Pain Drain\libraries\lvgl\src\extra\widgets\menu/lv_menu.c **** 
 1042              		.loc 1 366 0
ARM GAS  C:\Users\haske\AppData\Local\Temp\ccp0JrPn.s 			page 34


 1043 0018 8021     		movs	r1, #128
 1044 001a C900     		lsls	r1, r1, #3
 1045 001c 2000     		movs	r0, r4
 1046 001e FFF7FEFF 		bl	lv_obj_add_flag
 1047              	.LVL149:
 369:..\..\..\arduinoLCD\test\Pain Drain\libraries\lvgl\src\extra\widgets\menu/lv_menu.c ****         lv_event_send(obj, LV_EVENT_DELETE, NULL);
 1048              		.loc 1 369 0
 1049 0022 1149     		ldr	r1, .L49
 1050 0024 2000     		movs	r0, r4
 1051 0026 FFF7FEFF 		bl	lv_obj_remove_event_cb
 1052              	.LVL150:
 1053 002a 0028     		cmp	r0, #0
 1054 002c 08D0     		beq	.L48
 370:..\..\..\arduinoLCD\test\Pain Drain\libraries\lvgl\src\extra\widgets\menu/lv_menu.c ****         lv_obj_remove_event_cb(obj, lv_menu_obj_del_event_cb);
 1055              		.loc 1 370 0
 1056 002e 0022     		movs	r2, #0
 1057 0030 2121     		movs	r1, #33
 1058 0032 2000     		movs	r0, r4
 1059 0034 FFF7FEFF 		bl	lv_event_send
 1060              	.LVL151:
 371:..\..\..\arduinoLCD\test\Pain Drain\libraries\lvgl\src\extra\widgets\menu/lv_menu.c ****     }
 1061              		.loc 1 371 0
 1062 0038 0C49     		ldr	r1, .L49+4
 1063 003a 2000     		movs	r0, r4
 1064 003c FFF7FEFF 		bl	lv_obj_remove_event_cb
 1065              	.LVL152:
 1066              	.L48:
 374:..\..\..\arduinoLCD\test\Pain Drain\libraries\lvgl\src\extra\widgets\menu/lv_menu.c ****     event_data->menu = menu;
 1067              		.loc 1 374 0
 1068 0040 0820     		movs	r0, #8
 1069 0042 FFF7FEFF 		bl	lv_mem_alloc
 1070              	.LVL153:
 1071 0046 0500     		movs	r5, r0
 1072              	.LVL154:
 375:..\..\..\arduinoLCD\test\Pain Drain\libraries\lvgl\src\extra\widgets\menu/lv_menu.c ****     event_data->page = page;
 1073              		.loc 1 375 0
 1074 0048 0760     		str	r7, [r0]
 376:..\..\..\arduinoLCD\test\Pain Drain\libraries\lvgl\src\extra\widgets\menu/lv_menu.c **** 
 1075              		.loc 1 376 0
 1076 004a 4660     		str	r6, [r0, #4]
 378:..\..\..\arduinoLCD\test\Pain Drain\libraries\lvgl\src\extra\widgets\menu/lv_menu.c ****     lv_obj_add_event_cb(obj, lv_menu_obj_del_event_cb, LV_EVENT_DELETE, event_data);
 1077              		.loc 1 378 0
 1078 004c 0300     		movs	r3, r0
 1079 004e 0722     		movs	r2, #7
 1080 0050 0549     		ldr	r1, .L49
 1081 0052 2000     		movs	r0, r4
 1082              	.LVL155:
 1083 0054 FFF7FEFF 		bl	lv_obj_add_event_cb
 1084              	.LVL156:
 379:..\..\..\arduinoLCD\test\Pain Drain\libraries\lvgl\src\extra\widgets\menu/lv_menu.c **** }
 1085              		.loc 1 379 0
 1086 0058 2B00     		movs	r3, r5
 1087 005a 2122     		movs	r2, #33
 1088 005c 0349     		ldr	r1, .L49+4
 1089 005e 2000     		movs	r0, r4
 1090 0060 FFF7FEFF 		bl	lv_obj_add_event_cb
 1091              	.LVL157:
ARM GAS  C:\Users\haske\AppData\Local\Temp\ccp0JrPn.s 			page 35


 380:..\..\..\arduinoLCD\test\Pain Drain\libraries\lvgl\src\extra\widgets\menu/lv_menu.c **** 
 1092              		.loc 1 380 0
 1093              		@ sp needed
 1094              	.LVL158:
 1095              	.LVL159:
 1096              	.LVL160:
 1097              	.LVL161:
 1098 0064 F8BD     		pop	{r3, r4, r5, r6, r7, pc}
 1099              	.L50:
 1100 0066 C046     		.align	2
 1101              	.L49:
 1102 0068 00000000 		.word	lv_menu_load_page_event_cb
 1103 006c 00000000 		.word	lv_menu_obj_del_event_cb
 1104              		.cfi_endproc
 1105              	.LFE174:
 1106              		.size	lv_menu_set_load_page_event, .-lv_menu_set_load_page_event
 1107              		.section	.text.lv_menu_get_cur_main_page,"ax",%progbits
 1108              		.align	2
 1109              		.global	lv_menu_get_cur_main_page
 1110              		.code	16
 1111              		.thumb_func
 1112              		.type	lv_menu_get_cur_main_page, %function
 1113              	lv_menu_get_cur_main_page:
 1114              	.LFB175:
 386:..\..\..\arduinoLCD\test\Pain Drain\libraries\lvgl\src\extra\widgets\menu/lv_menu.c ****     LV_ASSERT_OBJ(obj, MY_CLASS);
 1115              		.loc 1 386 0
 1116              		.cfi_startproc
 1117              		@ args = 0, pretend = 0, frame = 0
 1118              		@ frame_needed = 0, uses_anonymous_args = 0
 1119              		@ link register save eliminated.
 1120              	.LVL162:
 390:..\..\..\arduinoLCD\test\Pain Drain\libraries\lvgl\src\extra\widgets\menu/lv_menu.c **** }
 1121              		.loc 1 390 0
 1122 0000 C06A     		ldr	r0, [r0, #44]
 1123              	.LVL163:
 391:..\..\..\arduinoLCD\test\Pain Drain\libraries\lvgl\src\extra\widgets\menu/lv_menu.c **** 
 1124              		.loc 1 391 0
 1125              		@ sp needed
 1126 0002 7047     		bx	lr
 1127              		.cfi_endproc
 1128              	.LFE175:
 1129              		.size	lv_menu_get_cur_main_page, .-lv_menu_get_cur_main_page
 1130              		.section	.text.lv_menu_get_cur_sidebar_page,"ax",%progbits
 1131              		.align	2
 1132              		.global	lv_menu_get_cur_sidebar_page
 1133              		.code	16
 1134              		.thumb_func
 1135              		.type	lv_menu_get_cur_sidebar_page, %function
 1136              	lv_menu_get_cur_sidebar_page:
 1137              	.LFB176:
 394:..\..\..\arduinoLCD\test\Pain Drain\libraries\lvgl\src\extra\widgets\menu/lv_menu.c ****     LV_ASSERT_OBJ(obj, MY_CLASS);
 1138              		.loc 1 394 0
 1139              		.cfi_startproc
 1140              		@ args = 0, pretend = 0, frame = 0
 1141              		@ frame_needed = 0, uses_anonymous_args = 0
 1142              		@ link register save eliminated.
 1143              	.LVL164:
ARM GAS  C:\Users\haske\AppData\Local\Temp\ccp0JrPn.s 			page 36


 398:..\..\..\arduinoLCD\test\Pain Drain\libraries\lvgl\src\extra\widgets\menu/lv_menu.c **** }
 1144              		.loc 1 398 0
 1145 0000 006C     		ldr	r0, [r0, #64]
 1146              	.LVL165:
 399:..\..\..\arduinoLCD\test\Pain Drain\libraries\lvgl\src\extra\widgets\menu/lv_menu.c **** 
 1147              		.loc 1 399 0
 1148              		@ sp needed
 1149 0002 7047     		bx	lr
 1150              		.cfi_endproc
 1151              	.LFE176:
 1152              		.size	lv_menu_get_cur_sidebar_page, .-lv_menu_get_cur_sidebar_page
 1153              		.section	.text.lv_menu_value_changed_event_cb,"ax",%progbits
 1154              		.align	2
 1155              		.code	16
 1156              		.thumb_func
 1157              		.type	lv_menu_value_changed_event_cb, %function
 1158              	lv_menu_value_changed_event_cb:
 1159              	.LFB194:
 700:..\..\..\arduinoLCD\test\Pain Drain\libraries\lvgl\src\extra\widgets\menu/lv_menu.c **** 
 701:..\..\..\arduinoLCD\test\Pain Drain\libraries\lvgl\src\extra\widgets\menu/lv_menu.c **** static void lv_menu_back_event_cb(lv_event_t * e)
 702:..\..\..\arduinoLCD\test\Pain Drain\libraries\lvgl\src\extra\widgets\menu/lv_menu.c **** {
 703:..\..\..\arduinoLCD\test\Pain Drain\libraries\lvgl\src\extra\widgets\menu/lv_menu.c ****     lv_event_code_t code = lv_event_get_code(e);
 704:..\..\..\arduinoLCD\test\Pain Drain\libraries\lvgl\src\extra\widgets\menu/lv_menu.c ****     /* LV_EVENT_CLICKED */
 705:..\..\..\arduinoLCD\test\Pain Drain\libraries\lvgl\src\extra\widgets\menu/lv_menu.c ****     if(code == LV_EVENT_CLICKED) {
 706:..\..\..\arduinoLCD\test\Pain Drain\libraries\lvgl\src\extra\widgets\menu/lv_menu.c ****         lv_obj_t * obj = lv_event_get_target(e);
 707:..\..\..\arduinoLCD\test\Pain Drain\libraries\lvgl\src\extra\widgets\menu/lv_menu.c ****         lv_menu_t * menu = (lv_menu_t *)lv_event_get_user_data(e);
 708:..\..\..\arduinoLCD\test\Pain Drain\libraries\lvgl\src\extra\widgets\menu/lv_menu.c **** 
 709:..\..\..\arduinoLCD\test\Pain Drain\libraries\lvgl\src\extra\widgets\menu/lv_menu.c ****         if(!(obj == menu->main_header_back_btn || obj == menu->sidebar_header_back_btn)) return;
 710:..\..\..\arduinoLCD\test\Pain Drain\libraries\lvgl\src\extra\widgets\menu/lv_menu.c **** 
 711:..\..\..\arduinoLCD\test\Pain Drain\libraries\lvgl\src\extra\widgets\menu/lv_menu.c ****         menu->prev_depth = menu->cur_depth; /* Save the previous value for user event handler */
 712:..\..\..\arduinoLCD\test\Pain Drain\libraries\lvgl\src\extra\widgets\menu/lv_menu.c **** 
 713:..\..\..\arduinoLCD\test\Pain Drain\libraries\lvgl\src\extra\widgets\menu/lv_menu.c ****         if(lv_menu_back_btn_is_root((lv_obj_t *)menu, obj)) return;
 714:..\..\..\arduinoLCD\test\Pain Drain\libraries\lvgl\src\extra\widgets\menu/lv_menu.c **** 
 715:..\..\..\arduinoLCD\test\Pain Drain\libraries\lvgl\src\extra\widgets\menu/lv_menu.c ****         lv_ll_t * history_ll = &(menu->history_ll);
 716:..\..\..\arduinoLCD\test\Pain Drain\libraries\lvgl\src\extra\widgets\menu/lv_menu.c **** 
 717:..\..\..\arduinoLCD\test\Pain Drain\libraries\lvgl\src\extra\widgets\menu/lv_menu.c ****         /* The current menu */
 718:..\..\..\arduinoLCD\test\Pain Drain\libraries\lvgl\src\extra\widgets\menu/lv_menu.c ****         lv_menu_history_t * act_hist = _lv_ll_get_head(history_ll);
 719:..\..\..\arduinoLCD\test\Pain Drain\libraries\lvgl\src\extra\widgets\menu/lv_menu.c **** 
 720:..\..\..\arduinoLCD\test\Pain Drain\libraries\lvgl\src\extra\widgets\menu/lv_menu.c ****         /* The previous menu */
 721:..\..\..\arduinoLCD\test\Pain Drain\libraries\lvgl\src\extra\widgets\menu/lv_menu.c ****         lv_menu_history_t * prev_hist = _lv_ll_get_next(history_ll, act_hist);
 722:..\..\..\arduinoLCD\test\Pain Drain\libraries\lvgl\src\extra\widgets\menu/lv_menu.c **** 
 723:..\..\..\arduinoLCD\test\Pain Drain\libraries\lvgl\src\extra\widgets\menu/lv_menu.c ****         if(prev_hist != NULL) {
 724:..\..\..\arduinoLCD\test\Pain Drain\libraries\lvgl\src\extra\widgets\menu/lv_menu.c ****             /* Previous menu exists */
 725:..\..\..\arduinoLCD\test\Pain Drain\libraries\lvgl\src\extra\widgets\menu/lv_menu.c ****             /* Delete the current item from the history */
 726:..\..\..\arduinoLCD\test\Pain Drain\libraries\lvgl\src\extra\widgets\menu/lv_menu.c ****             _lv_ll_remove(history_ll, act_hist);
 727:..\..\..\arduinoLCD\test\Pain Drain\libraries\lvgl\src\extra\widgets\menu/lv_menu.c ****             lv_mem_free(act_hist);
 728:..\..\..\arduinoLCD\test\Pain Drain\libraries\lvgl\src\extra\widgets\menu/lv_menu.c ****             menu->cur_depth--;
 729:..\..\..\arduinoLCD\test\Pain Drain\libraries\lvgl\src\extra\widgets\menu/lv_menu.c ****             /* Create the previous menu.
 730:..\..\..\arduinoLCD\test\Pain Drain\libraries\lvgl\src\extra\widgets\menu/lv_menu.c ****             *  Remove it from the history because `lv_menu_set_page` will add it again */
 731:..\..\..\arduinoLCD\test\Pain Drain\libraries\lvgl\src\extra\widgets\menu/lv_menu.c ****             _lv_ll_remove(history_ll, prev_hist);
 732:..\..\..\arduinoLCD\test\Pain Drain\libraries\lvgl\src\extra\widgets\menu/lv_menu.c ****             menu->cur_depth--;
 733:..\..\..\arduinoLCD\test\Pain Drain\libraries\lvgl\src\extra\widgets\menu/lv_menu.c ****             lv_menu_set_page(&(menu->obj), prev_hist->page);
 734:..\..\..\arduinoLCD\test\Pain Drain\libraries\lvgl\src\extra\widgets\menu/lv_menu.c **** 
 735:..\..\..\arduinoLCD\test\Pain Drain\libraries\lvgl\src\extra\widgets\menu/lv_menu.c ****             lv_mem_free(prev_hist);
 736:..\..\..\arduinoLCD\test\Pain Drain\libraries\lvgl\src\extra\widgets\menu/lv_menu.c ****         }
 737:..\..\..\arduinoLCD\test\Pain Drain\libraries\lvgl\src\extra\widgets\menu/lv_menu.c ****     }
 738:..\..\..\arduinoLCD\test\Pain Drain\libraries\lvgl\src\extra\widgets\menu/lv_menu.c **** }
ARM GAS  C:\Users\haske\AppData\Local\Temp\ccp0JrPn.s 			page 37


 739:..\..\..\arduinoLCD\test\Pain Drain\libraries\lvgl\src\extra\widgets\menu/lv_menu.c **** 
 740:..\..\..\arduinoLCD\test\Pain Drain\libraries\lvgl\src\extra\widgets\menu/lv_menu.c **** static void lv_menu_value_changed_event_cb(lv_event_t * e)
 741:..\..\..\arduinoLCD\test\Pain Drain\libraries\lvgl\src\extra\widgets\menu/lv_menu.c **** {
 1160              		.loc 1 741 0
 1161              		.cfi_startproc
 1162              		@ args = 0, pretend = 0, frame = 0
 1163              		@ frame_needed = 0, uses_anonymous_args = 0
 1164              	.LVL166:
 1165 0000 10B5     		push	{r4, lr}
 1166              		.cfi_def_cfa_offset 8
 1167              		.cfi_offset 4, -8
 1168              		.cfi_offset 14, -4
 742:..\..\..\arduinoLCD\test\Pain Drain\libraries\lvgl\src\extra\widgets\menu/lv_menu.c ****     lv_obj_t * obj = lv_event_get_user_data(e);
 1169              		.loc 1 742 0
 1170 0002 FFF7FEFF 		bl	lv_event_get_user_data
 1171              	.LVL167:
 1172 0006 0400     		movs	r4, r0
 1173              	.LVL168:
 743:..\..\..\arduinoLCD\test\Pain Drain\libraries\lvgl\src\extra\widgets\menu/lv_menu.c ****     lv_menu_t * menu = (lv_menu_t *)obj;
 744:..\..\..\arduinoLCD\test\Pain Drain\libraries\lvgl\src\extra\widgets\menu/lv_menu.c **** 
 745:..\..\..\arduinoLCD\test\Pain Drain\libraries\lvgl\src\extra\widgets\menu/lv_menu.c ****     lv_menu_page_t * main_page = (lv_menu_page_t *)lv_menu_get_cur_main_page(obj);
 1174              		.loc 1 745 0
 1175 0008 FFF7FEFF 		bl	lv_menu_get_cur_main_page
 1176              	.LVL169:
 746:..\..\..\arduinoLCD\test\Pain Drain\libraries\lvgl\src\extra\widgets\menu/lv_menu.c ****     if(main_page != NULL && menu->main_header_title != NULL) {
 1177              		.loc 1 746 0
 1178 000c 0028     		cmp	r0, #0
 1179 000e 11D0     		beq	.L54
 1180              		.loc 1 746 0 is_stmt 0 discriminator 1
 1181 0010 A36B     		ldr	r3, [r4, #56]
 1182 0012 002B     		cmp	r3, #0
 1183 0014 0ED0     		beq	.L54
 747:..\..\..\arduinoLCD\test\Pain Drain\libraries\lvgl\src\extra\widgets\menu/lv_menu.c ****         if(main_page->title != NULL) {
 1184              		.loc 1 747 0 is_stmt 1
 1185 0016 416A     		ldr	r1, [r0, #36]
 1186 0018 0029     		cmp	r1, #0
 1187 001a 07D0     		beq	.L55
 748:..\..\..\arduinoLCD\test\Pain Drain\libraries\lvgl\src\extra\widgets\menu/lv_menu.c ****             lv_label_set_text(menu->main_header_title, main_page->title);
 1188              		.loc 1 748 0
 1189 001c 1800     		movs	r0, r3
 1190              	.LVL170:
 1191 001e FFF7FEFF 		bl	lv_label_set_text
 1192              	.LVL171:
 749:..\..\..\arduinoLCD\test\Pain Drain\libraries\lvgl\src\extra\widgets\menu/lv_menu.c ****             lv_obj_clear_flag(menu->main_header_title, LV_OBJ_FLAG_HIDDEN);
 1193              		.loc 1 749 0
 1194 0022 0121     		movs	r1, #1
 1195 0024 A06B     		ldr	r0, [r4, #56]
 1196 0026 FFF7FEFF 		bl	lv_obj_clear_flag
 1197              	.LVL172:
 1198 002a 03E0     		b	.L54
 1199              	.LVL173:
 1200              	.L55:
 750:..\..\..\arduinoLCD\test\Pain Drain\libraries\lvgl\src\extra\widgets\menu/lv_menu.c ****         }
 751:..\..\..\arduinoLCD\test\Pain Drain\libraries\lvgl\src\extra\widgets\menu/lv_menu.c ****         else {
 752:..\..\..\arduinoLCD\test\Pain Drain\libraries\lvgl\src\extra\widgets\menu/lv_menu.c ****             lv_obj_add_flag(menu->main_header_title, LV_OBJ_FLAG_HIDDEN);
 1201              		.loc 1 752 0
 1202 002c 0121     		movs	r1, #1
ARM GAS  C:\Users\haske\AppData\Local\Temp\ccp0JrPn.s 			page 38


 1203 002e 1800     		movs	r0, r3
 1204              	.LVL174:
 1205 0030 FFF7FEFF 		bl	lv_obj_add_flag
 1206              	.LVL175:
 1207              	.L54:
 753:..\..\..\arduinoLCD\test\Pain Drain\libraries\lvgl\src\extra\widgets\menu/lv_menu.c ****         }
 754:..\..\..\arduinoLCD\test\Pain Drain\libraries\lvgl\src\extra\widgets\menu/lv_menu.c ****     }
 755:..\..\..\arduinoLCD\test\Pain Drain\libraries\lvgl\src\extra\widgets\menu/lv_menu.c **** 
 756:..\..\..\arduinoLCD\test\Pain Drain\libraries\lvgl\src\extra\widgets\menu/lv_menu.c ****     lv_menu_page_t * sidebar_page = (lv_menu_page_t *)lv_menu_get_cur_sidebar_page(obj);
 1208              		.loc 1 756 0
 1209 0034 2000     		movs	r0, r4
 1210 0036 FFF7FEFF 		bl	lv_menu_get_cur_sidebar_page
 1211              	.LVL176:
 757:..\..\..\arduinoLCD\test\Pain Drain\libraries\lvgl\src\extra\widgets\menu/lv_menu.c ****     if(sidebar_page != NULL && menu->sidebar_header_title != NULL) {
 1212              		.loc 1 757 0
 1213 003a 0028     		cmp	r0, #0
 1214 003c 11D0     		beq	.L53
 1215              		.loc 1 757 0 is_stmt 0 discriminator 1
 1216 003e E36C     		ldr	r3, [r4, #76]
 1217 0040 002B     		cmp	r3, #0
 1218 0042 0ED0     		beq	.L53
 758:..\..\..\arduinoLCD\test\Pain Drain\libraries\lvgl\src\extra\widgets\menu/lv_menu.c ****         if(sidebar_page->title != NULL) {
 1219              		.loc 1 758 0 is_stmt 1
 1220 0044 416A     		ldr	r1, [r0, #36]
 1221 0046 0029     		cmp	r1, #0
 1222 0048 07D0     		beq	.L57
 759:..\..\..\arduinoLCD\test\Pain Drain\libraries\lvgl\src\extra\widgets\menu/lv_menu.c ****             lv_label_set_text(menu->sidebar_header_title, sidebar_page->title);
 1223              		.loc 1 759 0
 1224 004a 1800     		movs	r0, r3
 1225              	.LVL177:
 1226 004c FFF7FEFF 		bl	lv_label_set_text
 1227              	.LVL178:
 760:..\..\..\arduinoLCD\test\Pain Drain\libraries\lvgl\src\extra\widgets\menu/lv_menu.c ****             lv_obj_clear_flag(menu->sidebar_header_title, LV_OBJ_FLAG_HIDDEN);
 1228              		.loc 1 760 0
 1229 0050 E06C     		ldr	r0, [r4, #76]
 1230 0052 0121     		movs	r1, #1
 1231 0054 FFF7FEFF 		bl	lv_obj_clear_flag
 1232              	.LVL179:
 1233 0058 03E0     		b	.L53
 1234              	.LVL180:
 1235              	.L57:
 761:..\..\..\arduinoLCD\test\Pain Drain\libraries\lvgl\src\extra\widgets\menu/lv_menu.c ****         }
 762:..\..\..\arduinoLCD\test\Pain Drain\libraries\lvgl\src\extra\widgets\menu/lv_menu.c ****         else {
 763:..\..\..\arduinoLCD\test\Pain Drain\libraries\lvgl\src\extra\widgets\menu/lv_menu.c ****             lv_obj_add_flag(menu->sidebar_header_title, LV_OBJ_FLAG_HIDDEN);
 1236              		.loc 1 763 0
 1237 005a 0121     		movs	r1, #1
 1238 005c 1800     		movs	r0, r3
 1239              	.LVL181:
 1240 005e FFF7FEFF 		bl	lv_obj_add_flag
 1241              	.LVL182:
 1242              	.L53:
 764:..\..\..\arduinoLCD\test\Pain Drain\libraries\lvgl\src\extra\widgets\menu/lv_menu.c ****         }
 765:..\..\..\arduinoLCD\test\Pain Drain\libraries\lvgl\src\extra\widgets\menu/lv_menu.c ****     }
 766:..\..\..\arduinoLCD\test\Pain Drain\libraries\lvgl\src\extra\widgets\menu/lv_menu.c **** }
 1243              		.loc 1 766 0
 1244              		@ sp needed
 1245              	.LVL183:
ARM GAS  C:\Users\haske\AppData\Local\Temp\ccp0JrPn.s 			page 39


 1246 0062 10BD     		pop	{r4, pc}
 1247              		.cfi_endproc
 1248              	.LFE194:
 1249              		.size	lv_menu_value_changed_event_cb, .-lv_menu_value_changed_event_cb
 1250              		.section	.text.lv_menu_get_main_header,"ax",%progbits
 1251              		.align	2
 1252              		.global	lv_menu_get_main_header
 1253              		.code	16
 1254              		.thumb_func
 1255              		.type	lv_menu_get_main_header, %function
 1256              	lv_menu_get_main_header:
 1257              	.LFB177:
 402:..\..\..\arduinoLCD\test\Pain Drain\libraries\lvgl\src\extra\widgets\menu/lv_menu.c ****     LV_ASSERT_OBJ(obj, MY_CLASS);
 1258              		.loc 1 402 0
 1259              		.cfi_startproc
 1260              		@ args = 0, pretend = 0, frame = 0
 1261              		@ frame_needed = 0, uses_anonymous_args = 0
 1262              		@ link register save eliminated.
 1263              	.LVL184:
 406:..\..\..\arduinoLCD\test\Pain Drain\libraries\lvgl\src\extra\widgets\menu/lv_menu.c **** }
 1264              		.loc 1 406 0
 1265 0000 006B     		ldr	r0, [r0, #48]
 1266              	.LVL185:
 407:..\..\..\arduinoLCD\test\Pain Drain\libraries\lvgl\src\extra\widgets\menu/lv_menu.c **** 
 1267              		.loc 1 407 0
 1268              		@ sp needed
 1269 0002 7047     		bx	lr
 1270              		.cfi_endproc
 1271              	.LFE177:
 1272              		.size	lv_menu_get_main_header, .-lv_menu_get_main_header
 1273              		.section	.text.lv_menu_get_main_header_back_btn,"ax",%progbits
 1274              		.align	2
 1275              		.global	lv_menu_get_main_header_back_btn
 1276              		.code	16
 1277              		.thumb_func
 1278              		.type	lv_menu_get_main_header_back_btn, %function
 1279              	lv_menu_get_main_header_back_btn:
 1280              	.LFB178:
 410:..\..\..\arduinoLCD\test\Pain Drain\libraries\lvgl\src\extra\widgets\menu/lv_menu.c ****     LV_ASSERT_OBJ(obj, MY_CLASS);
 1281              		.loc 1 410 0
 1282              		.cfi_startproc
 1283              		@ args = 0, pretend = 0, frame = 0
 1284              		@ frame_needed = 0, uses_anonymous_args = 0
 1285              		@ link register save eliminated.
 1286              	.LVL186:
 414:..\..\..\arduinoLCD\test\Pain Drain\libraries\lvgl\src\extra\widgets\menu/lv_menu.c **** }
 1287              		.loc 1 414 0
 1288 0000 406B     		ldr	r0, [r0, #52]
 1289              	.LVL187:
 415:..\..\..\arduinoLCD\test\Pain Drain\libraries\lvgl\src\extra\widgets\menu/lv_menu.c **** 
 1290              		.loc 1 415 0
 1291              		@ sp needed
 1292 0002 7047     		bx	lr
 1293              		.cfi_endproc
 1294              	.LFE178:
 1295              		.size	lv_menu_get_main_header_back_btn, .-lv_menu_get_main_header_back_btn
 1296              		.section	.text.lv_menu_get_sidebar_header,"ax",%progbits
ARM GAS  C:\Users\haske\AppData\Local\Temp\ccp0JrPn.s 			page 40


 1297              		.align	2
 1298              		.global	lv_menu_get_sidebar_header
 1299              		.code	16
 1300              		.thumb_func
 1301              		.type	lv_menu_get_sidebar_header, %function
 1302              	lv_menu_get_sidebar_header:
 1303              	.LFB179:
 418:..\..\..\arduinoLCD\test\Pain Drain\libraries\lvgl\src\extra\widgets\menu/lv_menu.c ****     LV_ASSERT_OBJ(obj, MY_CLASS);
 1304              		.loc 1 418 0
 1305              		.cfi_startproc
 1306              		@ args = 0, pretend = 0, frame = 0
 1307              		@ frame_needed = 0, uses_anonymous_args = 0
 1308              		@ link register save eliminated.
 1309              	.LVL188:
 422:..\..\..\arduinoLCD\test\Pain Drain\libraries\lvgl\src\extra\widgets\menu/lv_menu.c **** }
 1310              		.loc 1 422 0
 1311 0000 406C     		ldr	r0, [r0, #68]
 1312              	.LVL189:
 423:..\..\..\arduinoLCD\test\Pain Drain\libraries\lvgl\src\extra\widgets\menu/lv_menu.c **** 
 1313              		.loc 1 423 0
 1314              		@ sp needed
 1315 0002 7047     		bx	lr
 1316              		.cfi_endproc
 1317              	.LFE179:
 1318              		.size	lv_menu_get_sidebar_header, .-lv_menu_get_sidebar_header
 1319              		.section	.text.lv_menu_get_sidebar_header_back_btn,"ax",%progbits
 1320              		.align	2
 1321              		.global	lv_menu_get_sidebar_header_back_btn
 1322              		.code	16
 1323              		.thumb_func
 1324              		.type	lv_menu_get_sidebar_header_back_btn, %function
 1325              	lv_menu_get_sidebar_header_back_btn:
 1326              	.LFB180:
 426:..\..\..\arduinoLCD\test\Pain Drain\libraries\lvgl\src\extra\widgets\menu/lv_menu.c ****     LV_ASSERT_OBJ(obj, MY_CLASS);
 1327              		.loc 1 426 0
 1328              		.cfi_startproc
 1329              		@ args = 0, pretend = 0, frame = 0
 1330              		@ frame_needed = 0, uses_anonymous_args = 0
 1331              		@ link register save eliminated.
 1332              	.LVL190:
 430:..\..\..\arduinoLCD\test\Pain Drain\libraries\lvgl\src\extra\widgets\menu/lv_menu.c **** }
 1333              		.loc 1 430 0
 1334 0000 806C     		ldr	r0, [r0, #72]
 1335              	.LVL191:
 431:..\..\..\arduinoLCD\test\Pain Drain\libraries\lvgl\src\extra\widgets\menu/lv_menu.c **** 
 1336              		.loc 1 431 0
 1337              		@ sp needed
 1338 0002 7047     		bx	lr
 1339              		.cfi_endproc
 1340              	.LFE180:
 1341              		.size	lv_menu_get_sidebar_header_back_btn, .-lv_menu_get_sidebar_header_back_btn
 1342              		.section	.text.lv_menu_back_btn_is_root,"ax",%progbits
 1343              		.align	2
 1344              		.global	lv_menu_back_btn_is_root
 1345              		.code	16
 1346              		.thumb_func
 1347              		.type	lv_menu_back_btn_is_root, %function
ARM GAS  C:\Users\haske\AppData\Local\Temp\ccp0JrPn.s 			page 41


 1348              	lv_menu_back_btn_is_root:
 1349              	.LFB181:
 434:..\..\..\arduinoLCD\test\Pain Drain\libraries\lvgl\src\extra\widgets\menu/lv_menu.c ****     LV_ASSERT_OBJ(menu, MY_CLASS);
 1350              		.loc 1 434 0
 1351              		.cfi_startproc
 1352              		@ args = 0, pretend = 0, frame = 0
 1353              		@ frame_needed = 0, uses_anonymous_args = 0
 1354              		@ link register save eliminated.
 1355              	.LVL192:
 437:..\..\..\arduinoLCD\test\Pain Drain\libraries\lvgl\src\extra\widgets\menu/lv_menu.c ****         return true;
 1356              		.loc 1 437 0
 1357 0000 836C     		ldr	r3, [r0, #72]
 1358 0002 8B42     		cmp	r3, r1
 1359 0004 08D0     		beq	.L64
 441:..\..\..\arduinoLCD\test\Pain Drain\libraries\lvgl\src\extra\widgets\menu/lv_menu.c ****         return true;
 1360              		.loc 1 441 0
 1361 0006 436B     		ldr	r3, [r0, #52]
 1362 0008 9942     		cmp	r1, r3
 1363 000a 07D1     		bne	.L65
 441:..\..\..\arduinoLCD\test\Pain Drain\libraries\lvgl\src\extra\widgets\menu/lv_menu.c ****         return true;
 1364              		.loc 1 441 0 is_stmt 0 discriminator 1
 1365 000c 6123     		movs	r3, #97
 1366 000e C35C     		ldrb	r3, [r0, r3]
 1367 0010 012B     		cmp	r3, #1
 1368 0012 05D9     		bls	.L66
 445:..\..\..\arduinoLCD\test\Pain Drain\libraries\lvgl\src\extra\widgets\menu/lv_menu.c **** }
 1369              		.loc 1 445 0 is_stmt 1
 1370 0014 0020     		movs	r0, #0
 1371              	.LVL193:
 1372 0016 04E0     		b	.L63
 1373              	.LVL194:
 1374              	.L64:
 438:..\..\..\arduinoLCD\test\Pain Drain\libraries\lvgl\src\extra\widgets\menu/lv_menu.c ****     }
 1375              		.loc 1 438 0
 1376 0018 0120     		movs	r0, #1
 1377              	.LVL195:
 1378 001a 02E0     		b	.L63
 1379              	.LVL196:
 1380              	.L65:
 445:..\..\..\arduinoLCD\test\Pain Drain\libraries\lvgl\src\extra\widgets\menu/lv_menu.c **** }
 1381              		.loc 1 445 0
 1382 001c 0020     		movs	r0, #0
 1383              	.LVL197:
 1384 001e 00E0     		b	.L63
 1385              	.LVL198:
 1386              	.L66:
 442:..\..\..\arduinoLCD\test\Pain Drain\libraries\lvgl\src\extra\widgets\menu/lv_menu.c ****     }
 1387              		.loc 1 442 0
 1388 0020 0120     		movs	r0, #1
 1389              	.LVL199:
 1390              	.L63:
 446:..\..\..\arduinoLCD\test\Pain Drain\libraries\lvgl\src\extra\widgets\menu/lv_menu.c **** 
 1391              		.loc 1 446 0
 1392              		@ sp needed
 1393 0022 7047     		bx	lr
 1394              		.cfi_endproc
 1395              	.LFE181:
ARM GAS  C:\Users\haske\AppData\Local\Temp\ccp0JrPn.s 			page 42


 1396              		.size	lv_menu_back_btn_is_root, .-lv_menu_back_btn_is_root
 1397              		.section	.text.lv_menu_clear_history,"ax",%progbits
 1398              		.align	2
 1399              		.global	lv_menu_clear_history
 1400              		.code	16
 1401              		.thumb_func
 1402              		.type	lv_menu_clear_history, %function
 1403              	lv_menu_clear_history:
 1404              	.LFB182:
 449:..\..\..\arduinoLCD\test\Pain Drain\libraries\lvgl\src\extra\widgets\menu/lv_menu.c ****     LV_ASSERT_OBJ(obj, MY_CLASS);
 1405              		.loc 1 449 0
 1406              		.cfi_startproc
 1407              		@ args = 0, pretend = 0, frame = 0
 1408              		@ frame_needed = 0, uses_anonymous_args = 0
 1409              	.LVL200:
 1410 0000 10B5     		push	{r4, lr}
 1411              		.cfi_def_cfa_offset 8
 1412              		.cfi_offset 4, -8
 1413              		.cfi_offset 14, -4
 1414 0002 0400     		movs	r4, r0
 1415              	.LVL201:
 453:..\..\..\arduinoLCD\test\Pain Drain\libraries\lvgl\src\extra\widgets\menu/lv_menu.c **** 
 1416              		.loc 1 453 0
 1417 0004 5430     		adds	r0, r0, #84
 1418              	.LVL202:
 455:..\..\..\arduinoLCD\test\Pain Drain\libraries\lvgl\src\extra\widgets\menu/lv_menu.c **** 
 1419              		.loc 1 455 0
 1420 0006 FFF7FEFF 		bl	_lv_ll_clear
 1421              	.LVL203:
 457:..\..\..\arduinoLCD\test\Pain Drain\libraries\lvgl\src\extra\widgets\menu/lv_menu.c **** }
 1422              		.loc 1 457 0
 1423 000a 0022     		movs	r2, #0
 1424 000c 6023     		movs	r3, #96
 1425 000e E254     		strb	r2, [r4, r3]
 458:..\..\..\arduinoLCD\test\Pain Drain\libraries\lvgl\src\extra\widgets\menu/lv_menu.c **** 
 1426              		.loc 1 458 0
 1427              		@ sp needed
 1428              	.LVL204:
 1429 0010 10BD     		pop	{r4, pc}
 1430              		.cfi_endproc
 1431              	.LFE182:
 1432              		.size	lv_menu_clear_history, .-lv_menu_clear_history
 1433 0012 C046     		.section	.text.lv_menu_set_page,"ax",%progbits
 1434              		.align	2
 1435              		.global	lv_menu_set_page
 1436              		.code	16
 1437              		.thumb_func
 1438              		.type	lv_menu_set_page, %function
 1439              	lv_menu_set_page:
 1440              	.LFB170:
 193:..\..\..\arduinoLCD\test\Pain Drain\libraries\lvgl\src\extra\widgets\menu/lv_menu.c ****     LV_ASSERT_OBJ(obj, MY_CLASS);
 1441              		.loc 1 193 0
 1442              		.cfi_startproc
 1443              		@ args = 0, pretend = 0, frame = 0
 1444              		@ frame_needed = 0, uses_anonymous_args = 0
 1445              	.LVL205:
 1446 0000 70B5     		push	{r4, r5, r6, lr}
ARM GAS  C:\Users\haske\AppData\Local\Temp\ccp0JrPn.s 			page 43


 1447              		.cfi_def_cfa_offset 16
 1448              		.cfi_offset 4, -16
 1449              		.cfi_offset 5, -12
 1450              		.cfi_offset 6, -8
 1451              		.cfi_offset 14, -4
 1452 0002 0400     		movs	r4, r0
 1453 0004 0D00     		movs	r5, r1
 1454              	.LVL206:
 199:..\..\..\arduinoLCD\test\Pain Drain\libraries\lvgl\src\extra\widgets\menu/lv_menu.c ****         lv_obj_set_parent(menu->main_page, menu->storage);
 1455              		.loc 1 199 0
 1456 0006 C06A     		ldr	r0, [r0, #44]
 1457              	.LVL207:
 1458 0008 0028     		cmp	r0, #0
 1459 000a 02D0     		beq	.L69
 200:..\..\..\arduinoLCD\test\Pain Drain\libraries\lvgl\src\extra\widgets\menu/lv_menu.c ****     }
 1460              		.loc 1 200 0
 1461 000c 616A     		ldr	r1, [r4, #36]
 1462              	.LVL208:
 1463 000e FFF7FEFF 		bl	lv_obj_set_parent
 1464              	.LVL209:
 1465              	.L69:
 203:..\..\..\arduinoLCD\test\Pain Drain\libraries\lvgl\src\extra\widgets\menu/lv_menu.c ****         /* Add a new node */
 1466              		.loc 1 203 0
 1467 0012 002D     		cmp	r5, #0
 1468 0014 10D0     		beq	.L70
 1469              	.LBB2:
 205:..\..\..\arduinoLCD\test\Pain Drain\libraries\lvgl\src\extra\widgets\menu/lv_menu.c ****         lv_menu_history_t * new_node = _lv_ll_ins_head(history_ll);
 1470              		.loc 1 205 0
 1471 0016 2000     		movs	r0, r4
 1472 0018 5430     		adds	r0, r0, #84
 1473              	.LVL210:
 206:..\..\..\arduinoLCD\test\Pain Drain\libraries\lvgl\src\extra\widgets\menu/lv_menu.c ****         LV_ASSERT_MALLOC(new_node);
 1474              		.loc 1 206 0
 1475 001a FFF7FEFF 		bl	_lv_ll_ins_head
 1476              	.LVL211:
 207:..\..\..\arduinoLCD\test\Pain Drain\libraries\lvgl\src\extra\widgets\menu/lv_menu.c ****         new_node->page = page;
 1477              		.loc 1 207 0
 1478 001e 0028     		cmp	r0, #0
 1479 0020 00D1     		bne	.L71
 1480              	.L72:
 1481 0022 FEE7     		b	.L72
 1482              	.L71:
 208:..\..\..\arduinoLCD\test\Pain Drain\libraries\lvgl\src\extra\widgets\menu/lv_menu.c ****         menu->cur_depth++;
 1483              		.loc 1 208 0
 1484 0024 0560     		str	r5, [r0]
 209:..\..\..\arduinoLCD\test\Pain Drain\libraries\lvgl\src\extra\widgets\menu/lv_menu.c **** 
 1485              		.loc 1 209 0
 1486 0026 6022     		movs	r2, #96
 1487 0028 A35C     		ldrb	r3, [r4, r2]
 1488 002a 0133     		adds	r3, r3, #1
 1489 002c A354     		strb	r3, [r4, r2]
 212:..\..\..\arduinoLCD\test\Pain Drain\libraries\lvgl\src\extra\widgets\menu/lv_menu.c ****     }
 1490              		.loc 1 212 0
 1491 002e A16A     		ldr	r1, [r4, #40]
 1492 0030 2800     		movs	r0, r5
 1493              	.LVL212:
 1494 0032 FFF7FEFF 		bl	lv_obj_set_parent
ARM GAS  C:\Users\haske\AppData\Local\Temp\ccp0JrPn.s 			page 44


 1495              	.LVL213:
 1496              	.LBE2:
 1497 0036 02E0     		b	.L73
 1498              	.LVL214:
 1499              	.L70:
 216:..\..\..\arduinoLCD\test\Pain Drain\libraries\lvgl\src\extra\widgets\menu/lv_menu.c ****     }
 1500              		.loc 1 216 0
 1501 0038 2000     		movs	r0, r4
 1502 003a FFF7FEFF 		bl	lv_menu_clear_history
 1503              	.LVL215:
 1504              	.L73:
 219:..\..\..\arduinoLCD\test\Pain Drain\libraries\lvgl\src\extra\widgets\menu/lv_menu.c **** 
 1505              		.loc 1 219 0
 1506 003e E562     		str	r5, [r4, #44]
 222:..\..\..\arduinoLCD\test\Pain Drain\libraries\lvgl\src\extra\widgets\menu/lv_menu.c ****         if(menu->sidebar_page != NULL) {
 1507              		.loc 1 222 0
 1508 0040 206D     		ldr	r0, [r4, #80]
 1509 0042 0028     		cmp	r0, #0
 1510 0044 09D0     		beq	.L74
 223:..\..\..\arduinoLCD\test\Pain Drain\libraries\lvgl\src\extra\widgets\menu/lv_menu.c ****             lv_obj_add_state(menu->selected_tab, LV_STATE_CHECKED);
 1511              		.loc 1 223 0
 1512 0046 236C     		ldr	r3, [r4, #64]
 1513 0048 002B     		cmp	r3, #0
 1514 004a 03D0     		beq	.L75
 224:..\..\..\arduinoLCD\test\Pain Drain\libraries\lvgl\src\extra\widgets\menu/lv_menu.c ****         }
 1515              		.loc 1 224 0
 1516 004c 0121     		movs	r1, #1
 1517 004e FFF7FEFF 		bl	lv_obj_add_state
 1518              	.LVL216:
 1519 0052 02E0     		b	.L74
 1520              	.L75:
 227:..\..\..\arduinoLCD\test\Pain Drain\libraries\lvgl\src\extra\widgets\menu/lv_menu.c ****         }
 1521              		.loc 1 227 0
 1522 0054 0121     		movs	r1, #1
 1523 0056 FFF7FEFF 		bl	lv_obj_clear_state
 1524              	.LVL217:
 1525              	.L74:
 232:..\..\..\arduinoLCD\test\Pain Drain\libraries\lvgl\src\extra\widgets\menu/lv_menu.c ****         /* With sidebar enabled */
 1526              		.loc 1 232 0
 1527 005a 236C     		ldr	r3, [r4, #64]
 1528 005c 002B     		cmp	r3, #0
 1529 005e 2CD0     		beq	.L76
 234:..\..\..\arduinoLCD\test\Pain Drain\libraries\lvgl\src\extra\widgets\menu/lv_menu.c ****             if(menu->mode_root_back_btn == LV_MENU_ROOT_BACK_BTN_ENABLED) {
 1530              		.loc 1 234 0
 1531 0060 6223     		movs	r3, #98
 1532 0062 E35C     		ldrb	r3, [r4, r3]
 1533 0064 DA07     		lsls	r2, r3, #31
 1534 0066 12D5     		bpl	.L77
 235:..\..\..\arduinoLCD\test\Pain Drain\libraries\lvgl\src\extra\widgets\menu/lv_menu.c ****                 /* Root back btn is always shown if enabled*/
 1535              		.loc 1 235 0
 1536 0068 1B07     		lsls	r3, r3, #28
 1537 006a 08D5     		bpl	.L78
 237:..\..\..\arduinoLCD\test\Pain Drain\libraries\lvgl\src\extra\widgets\menu/lv_menu.c ****                 lv_obj_add_flag(menu->sidebar_header_back_btn, LV_OBJ_FLAG_CLICKABLE);
 1538              		.loc 1 237 0
 1539 006c 0121     		movs	r1, #1
 1540 006e A06C     		ldr	r0, [r4, #72]
 1541 0070 FFF7FEFF 		bl	lv_obj_clear_flag
ARM GAS  C:\Users\haske\AppData\Local\Temp\ccp0JrPn.s 			page 45


 1542              	.LVL218:
 238:..\..\..\arduinoLCD\test\Pain Drain\libraries\lvgl\src\extra\widgets\menu/lv_menu.c ****             }
 1543              		.loc 1 238 0
 1544 0074 0221     		movs	r1, #2
 1545 0076 A06C     		ldr	r0, [r4, #72]
 1546 0078 FFF7FEFF 		bl	lv_obj_add_flag
 1547              	.LVL219:
 1548 007c 07E0     		b	.L77
 1549              	.L78:
 241:..\..\..\arduinoLCD\test\Pain Drain\libraries\lvgl\src\extra\widgets\menu/lv_menu.c ****                 lv_obj_clear_flag(menu->sidebar_header_back_btn, LV_OBJ_FLAG_CLICKABLE);
 1550              		.loc 1 241 0
 1551 007e 0121     		movs	r1, #1
 1552 0080 A06C     		ldr	r0, [r4, #72]
 1553 0082 FFF7FEFF 		bl	lv_obj_add_flag
 1554              	.LVL220:
 242:..\..\..\arduinoLCD\test\Pain Drain\libraries\lvgl\src\extra\widgets\menu/lv_menu.c ****             }
 1555              		.loc 1 242 0
 1556 0086 0221     		movs	r1, #2
 1557 0088 A06C     		ldr	r0, [r4, #72]
 1558 008a FFF7FEFF 		bl	lv_obj_clear_flag
 1559              	.LVL221:
 1560              	.L77:
 246:..\..\..\arduinoLCD\test\Pain Drain\libraries\lvgl\src\extra\widgets\menu/lv_menu.c ****             lv_obj_clear_flag(menu->main_header_back_btn, LV_OBJ_FLAG_HIDDEN);
 1561              		.loc 1 246 0
 1562 008e 6023     		movs	r3, #96
 1563 0090 E35C     		ldrb	r3, [r4, r3]
 1564 0092 012B     		cmp	r3, #1
 1565 0094 08D9     		bls	.L79
 247:..\..\..\arduinoLCD\test\Pain Drain\libraries\lvgl\src\extra\widgets\menu/lv_menu.c ****             lv_obj_add_flag(menu->main_header_back_btn, LV_OBJ_FLAG_CLICKABLE);
 1566              		.loc 1 247 0
 1567 0096 0121     		movs	r1, #1
 1568 0098 606B     		ldr	r0, [r4, #52]
 1569 009a FFF7FEFF 		bl	lv_obj_clear_flag
 1570              	.LVL222:
 248:..\..\..\arduinoLCD\test\Pain Drain\libraries\lvgl\src\extra\widgets\menu/lv_menu.c ****         }
 1571              		.loc 1 248 0
 1572 009e 0221     		movs	r1, #2
 1573 00a0 606B     		ldr	r0, [r4, #52]
 1574 00a2 FFF7FEFF 		bl	lv_obj_add_flag
 1575              	.LVL223:
 1576 00a6 21E0     		b	.L80
 1577              	.L79:
 251:..\..\..\arduinoLCD\test\Pain Drain\libraries\lvgl\src\extra\widgets\menu/lv_menu.c ****             lv_obj_clear_flag(menu->main_header_back_btn, LV_OBJ_FLAG_CLICKABLE);
 1578              		.loc 1 251 0
 1579 00a8 0121     		movs	r1, #1
 1580 00aa 606B     		ldr	r0, [r4, #52]
 1581 00ac FFF7FEFF 		bl	lv_obj_add_flag
 1582              	.LVL224:
 252:..\..\..\arduinoLCD\test\Pain Drain\libraries\lvgl\src\extra\widgets\menu/lv_menu.c ****         }
 1583              		.loc 1 252 0
 1584 00b0 0221     		movs	r1, #2
 1585 00b2 606B     		ldr	r0, [r4, #52]
 1586 00b4 FFF7FEFF 		bl	lv_obj_clear_flag
 1587              	.LVL225:
 1588 00b8 18E0     		b	.L80
 1589              	.L76:
 257:..\..\..\arduinoLCD\test\Pain Drain\libraries\lvgl\src\extra\widgets\menu/lv_menu.c ****             lv_obj_clear_flag(menu->main_header_back_btn, LV_OBJ_FLAG_HIDDEN);
ARM GAS  C:\Users\haske\AppData\Local\Temp\ccp0JrPn.s 			page 46


 1590              		.loc 1 257 0
 1591 00ba 6023     		movs	r3, #96
 1592 00bc E35C     		ldrb	r3, [r4, r3]
 1593 00be 012B     		cmp	r3, #1
 1594 00c0 03D8     		bhi	.L81
 257:..\..\..\arduinoLCD\test\Pain Drain\libraries\lvgl\src\extra\widgets\menu/lv_menu.c ****             lv_obj_clear_flag(menu->main_header_back_btn, LV_OBJ_FLAG_HIDDEN);
 1595              		.loc 1 257 0 is_stmt 0 discriminator 1
 1596 00c2 6223     		movs	r3, #98
 1597 00c4 E35C     		ldrb	r3, [r4, r3]
 1598 00c6 1B07     		lsls	r3, r3, #28
 1599 00c8 08D5     		bpl	.L82
 1600              	.L81:
 258:..\..\..\arduinoLCD\test\Pain Drain\libraries\lvgl\src\extra\widgets\menu/lv_menu.c ****             lv_obj_add_flag(menu->main_header_back_btn, LV_OBJ_FLAG_CLICKABLE);
 1601              		.loc 1 258 0 is_stmt 1
 1602 00ca 0121     		movs	r1, #1
 1603 00cc 606B     		ldr	r0, [r4, #52]
 1604 00ce FFF7FEFF 		bl	lv_obj_clear_flag
 1605              	.LVL226:
 259:..\..\..\arduinoLCD\test\Pain Drain\libraries\lvgl\src\extra\widgets\menu/lv_menu.c ****         }
 1606              		.loc 1 259 0
 1607 00d2 0221     		movs	r1, #2
 1608 00d4 606B     		ldr	r0, [r4, #52]
 1609 00d6 FFF7FEFF 		bl	lv_obj_add_flag
 1610              	.LVL227:
 1611 00da 07E0     		b	.L80
 1612              	.L82:
 262:..\..\..\arduinoLCD\test\Pain Drain\libraries\lvgl\src\extra\widgets\menu/lv_menu.c ****             lv_obj_clear_flag(menu->main_header_back_btn, LV_OBJ_FLAG_CLICKABLE);
 1613              		.loc 1 262 0
 1614 00dc 0121     		movs	r1, #1
 1615 00de 606B     		ldr	r0, [r4, #52]
 1616 00e0 FFF7FEFF 		bl	lv_obj_add_flag
 1617              	.LVL228:
 263:..\..\..\arduinoLCD\test\Pain Drain\libraries\lvgl\src\extra\widgets\menu/lv_menu.c ****         }
 1618              		.loc 1 263 0
 1619 00e4 0221     		movs	r1, #2
 1620 00e6 606B     		ldr	r0, [r4, #52]
 1621 00e8 FFF7FEFF 		bl	lv_obj_clear_flag
 1622              	.LVL229:
 1623              	.L80:
 267:..\..\..\arduinoLCD\test\Pain Drain\libraries\lvgl\src\extra\widgets\menu/lv_menu.c **** 
 1624              		.loc 1 267 0
 1625 00ec 0022     		movs	r2, #0
 1626 00ee 1C21     		movs	r1, #28
 1627 00f0 2000     		movs	r0, r4
 1628 00f2 FFF7FEFF 		bl	lv_event_send
 1629              	.LVL230:
 269:..\..\..\arduinoLCD\test\Pain Drain\libraries\lvgl\src\extra\widgets\menu/lv_menu.c **** }
 1630              		.loc 1 269 0
 1631 00f6 2000     		movs	r0, r4
 1632 00f8 FFF7FEFF 		bl	lv_menu_refr_main_header_mode
 1633              	.LVL231:
 270:..\..\..\arduinoLCD\test\Pain Drain\libraries\lvgl\src\extra\widgets\menu/lv_menu.c **** 
 1634              		.loc 1 270 0
 1635              		@ sp needed
 1636              	.LVL232:
 1637              	.LVL233:
 1638 00fc 70BD     		pop	{r4, r5, r6, pc}
ARM GAS  C:\Users\haske\AppData\Local\Temp\ccp0JrPn.s 			page 47


 1639              		.cfi_endproc
 1640              	.LFE170:
 1641              		.size	lv_menu_set_page, .-lv_menu_set_page
 1642 00fe C046     		.section	.text.lv_menu_back_event_cb,"ax",%progbits
 1643              		.align	2
 1644              		.code	16
 1645              		.thumb_func
 1646              		.type	lv_menu_back_event_cb, %function
 1647              	lv_menu_back_event_cb:
 1648              	.LFB193:
 702:..\..\..\arduinoLCD\test\Pain Drain\libraries\lvgl\src\extra\widgets\menu/lv_menu.c ****     lv_event_code_t code = lv_event_get_code(e);
 1649              		.loc 1 702 0
 1650              		.cfi_startproc
 1651              		@ args = 0, pretend = 0, frame = 0
 1652              		@ frame_needed = 0, uses_anonymous_args = 0
 1653              	.LVL234:
 1654 0000 F8B5     		push	{r3, r4, r5, r6, r7, lr}
 1655              		.cfi_def_cfa_offset 24
 1656              		.cfi_offset 3, -24
 1657              		.cfi_offset 4, -20
 1658              		.cfi_offset 5, -16
 1659              		.cfi_offset 6, -12
 1660              		.cfi_offset 7, -8
 1661              		.cfi_offset 14, -4
 1662 0002 0400     		movs	r4, r0
 703:..\..\..\arduinoLCD\test\Pain Drain\libraries\lvgl\src\extra\widgets\menu/lv_menu.c ****     /* LV_EVENT_CLICKED */
 1663              		.loc 1 703 0
 1664 0004 FFF7FEFF 		bl	lv_event_get_code
 1665              	.LVL235:
 705:..\..\..\arduinoLCD\test\Pain Drain\libraries\lvgl\src\extra\widgets\menu/lv_menu.c ****         lv_obj_t * obj = lv_event_get_target(e);
 1666              		.loc 1 705 0
 1667 0008 0728     		cmp	r0, #7
 1668 000a 3CD1     		bne	.L83
 1669              	.LBB3:
 706:..\..\..\arduinoLCD\test\Pain Drain\libraries\lvgl\src\extra\widgets\menu/lv_menu.c ****         lv_menu_t * menu = (lv_menu_t *)lv_event_get_user_data(e);
 1670              		.loc 1 706 0
 1671 000c 2000     		movs	r0, r4
 1672              	.LVL236:
 1673 000e FFF7FEFF 		bl	lv_event_get_target
 1674              	.LVL237:
 1675 0012 0500     		movs	r5, r0
 1676              	.LVL238:
 707:..\..\..\arduinoLCD\test\Pain Drain\libraries\lvgl\src\extra\widgets\menu/lv_menu.c **** 
 1677              		.loc 1 707 0
 1678 0014 2000     		movs	r0, r4
 1679              	.LVL239:
 1680 0016 FFF7FEFF 		bl	lv_event_get_user_data
 1681              	.LVL240:
 1682 001a 0400     		movs	r4, r0
 1683              	.LVL241:
 709:..\..\..\arduinoLCD\test\Pain Drain\libraries\lvgl\src\extra\widgets\menu/lv_menu.c **** 
 1684              		.loc 1 709 0
 1685 001c 436B     		ldr	r3, [r0, #52]
 1686 001e 9D42     		cmp	r5, r3
 1687 0020 02D0     		beq	.L85
 709:..\..\..\arduinoLCD\test\Pain Drain\libraries\lvgl\src\extra\widgets\menu/lv_menu.c **** 
 1688              		.loc 1 709 0 is_stmt 0 discriminator 1
ARM GAS  C:\Users\haske\AppData\Local\Temp\ccp0JrPn.s 			page 48


 1689 0022 836C     		ldr	r3, [r0, #72]
 1690 0024 9D42     		cmp	r5, r3
 1691 0026 2ED1     		bne	.L83
 1692              	.L85:
 711:..\..\..\arduinoLCD\test\Pain Drain\libraries\lvgl\src\extra\widgets\menu/lv_menu.c **** 
 1693              		.loc 1 711 0 is_stmt 1
 1694 0028 6023     		movs	r3, #96
 1695 002a E25C     		ldrb	r2, [r4, r3]
 1696 002c 0133     		adds	r3, r3, #1
 1697 002e E254     		strb	r2, [r4, r3]
 713:..\..\..\arduinoLCD\test\Pain Drain\libraries\lvgl\src\extra\widgets\menu/lv_menu.c **** 
 1698              		.loc 1 713 0
 1699 0030 2900     		movs	r1, r5
 1700 0032 2000     		movs	r0, r4
 1701              	.LVL242:
 1702 0034 FFF7FEFF 		bl	lv_menu_back_btn_is_root
 1703              	.LVL243:
 1704 0038 0028     		cmp	r0, #0
 1705 003a 24D1     		bne	.L83
 715:..\..\..\arduinoLCD\test\Pain Drain\libraries\lvgl\src\extra\widgets\menu/lv_menu.c **** 
 1706              		.loc 1 715 0
 1707 003c 2500     		movs	r5, r4
 1708              	.LVL244:
 1709 003e 5435     		adds	r5, r5, #84
 1710              	.LVL245:
 718:..\..\..\arduinoLCD\test\Pain Drain\libraries\lvgl\src\extra\widgets\menu/lv_menu.c **** 
 1711              		.loc 1 718 0
 1712 0040 2800     		movs	r0, r5
 1713 0042 FFF7FEFF 		bl	_lv_ll_get_head
 1714              	.LVL246:
 1715 0046 0700     		movs	r7, r0
 1716              	.LVL247:
 721:..\..\..\arduinoLCD\test\Pain Drain\libraries\lvgl\src\extra\widgets\menu/lv_menu.c **** 
 1717              		.loc 1 721 0
 1718 0048 0100     		movs	r1, r0
 1719 004a 2800     		movs	r0, r5
 1720              	.LVL248:
 1721 004c FFF7FEFF 		bl	_lv_ll_get_next
 1722              	.LVL249:
 1723 0050 061E     		subs	r6, r0, #0
 1724              	.LVL250:
 723:..\..\..\arduinoLCD\test\Pain Drain\libraries\lvgl\src\extra\widgets\menu/lv_menu.c ****             /* Previous menu exists */
 1725              		.loc 1 723 0
 1726 0052 18D0     		beq	.L83
 726:..\..\..\arduinoLCD\test\Pain Drain\libraries\lvgl\src\extra\widgets\menu/lv_menu.c ****             lv_mem_free(act_hist);
 1727              		.loc 1 726 0
 1728 0054 3900     		movs	r1, r7
 1729 0056 2800     		movs	r0, r5
 1730              	.LVL251:
 1731 0058 FFF7FEFF 		bl	_lv_ll_remove
 1732              	.LVL252:
 727:..\..\..\arduinoLCD\test\Pain Drain\libraries\lvgl\src\extra\widgets\menu/lv_menu.c ****             menu->cur_depth--;
 1733              		.loc 1 727 0
 1734 005c 3800     		movs	r0, r7
 1735 005e FFF7FEFF 		bl	lv_mem_free
 1736              	.LVL253:
 728:..\..\..\arduinoLCD\test\Pain Drain\libraries\lvgl\src\extra\widgets\menu/lv_menu.c ****             /* Create the previous menu.
ARM GAS  C:\Users\haske\AppData\Local\Temp\ccp0JrPn.s 			page 49


 1737              		.loc 1 728 0
 1738 0062 6027     		movs	r7, #96
 1739              	.LVL254:
 1740 0064 E35D     		ldrb	r3, [r4, r7]
 1741 0066 013B     		subs	r3, r3, #1
 1742 0068 E355     		strb	r3, [r4, r7]
 731:..\..\..\arduinoLCD\test\Pain Drain\libraries\lvgl\src\extra\widgets\menu/lv_menu.c ****             menu->cur_depth--;
 1743              		.loc 1 731 0
 1744 006a 3100     		movs	r1, r6
 1745 006c 2800     		movs	r0, r5
 1746 006e FFF7FEFF 		bl	_lv_ll_remove
 1747              	.LVL255:
 732:..\..\..\arduinoLCD\test\Pain Drain\libraries\lvgl\src\extra\widgets\menu/lv_menu.c ****             lv_menu_set_page(&(menu->obj), prev_hist->page);
 1748              		.loc 1 732 0
 1749 0072 E35D     		ldrb	r3, [r4, r7]
 1750 0074 013B     		subs	r3, r3, #1
 1751 0076 E355     		strb	r3, [r4, r7]
 733:..\..\..\arduinoLCD\test\Pain Drain\libraries\lvgl\src\extra\widgets\menu/lv_menu.c **** 
 1752              		.loc 1 733 0
 1753 0078 3168     		ldr	r1, [r6]
 1754 007a 2000     		movs	r0, r4
 1755 007c FFF7FEFF 		bl	lv_menu_set_page
 1756              	.LVL256:
 735:..\..\..\arduinoLCD\test\Pain Drain\libraries\lvgl\src\extra\widgets\menu/lv_menu.c ****         }
 1757              		.loc 1 735 0
 1758 0080 3000     		movs	r0, r6
 1759 0082 FFF7FEFF 		bl	lv_mem_free
 1760              	.LVL257:
 1761              	.L83:
 1762              	.LBE3:
 738:..\..\..\arduinoLCD\test\Pain Drain\libraries\lvgl\src\extra\widgets\menu/lv_menu.c **** 
 1763              		.loc 1 738 0
 1764              		@ sp needed
 1765 0086 F8BD     		pop	{r3, r4, r5, r6, r7, pc}
 1766              		.cfi_endproc
 1767              	.LFE193:
 1768              		.size	lv_menu_back_event_cb, .-lv_menu_back_event_cb
 1769              		.section	.text.lv_menu_refr,"ax",%progbits
 1770              		.align	2
 1771              		.code	16
 1772              		.thumb_func
 1773              		.type	lv_menu_refr, %function
 1774              	lv_menu_refr:
 1775              	.LFB169:
 165:..\..\..\arduinoLCD\test\Pain Drain\libraries\lvgl\src\extra\widgets\menu/lv_menu.c ****     LV_ASSERT_OBJ(obj, MY_CLASS);
 1776              		.loc 1 165 0
 1777              		.cfi_startproc
 1778              		@ args = 0, pretend = 0, frame = 0
 1779              		@ frame_needed = 0, uses_anonymous_args = 0
 1780              	.LVL258:
 1781 0000 F8B5     		push	{r3, r4, r5, r6, r7, lr}
 1782              		.cfi_def_cfa_offset 24
 1783              		.cfi_offset 3, -24
 1784              		.cfi_offset 4, -20
 1785              		.cfi_offset 5, -16
 1786              		.cfi_offset 6, -12
 1787              		.cfi_offset 7, -8
ARM GAS  C:\Users\haske\AppData\Local\Temp\ccp0JrPn.s 			page 50


 1788              		.cfi_offset 14, -4
 1789 0002 0400     		movs	r4, r0
 1790              	.LVL259:
 169:..\..\..\arduinoLCD\test\Pain Drain\libraries\lvgl\src\extra\widgets\menu/lv_menu.c **** 
 1791              		.loc 1 169 0
 1792 0004 0600     		movs	r6, r0
 1793 0006 5436     		adds	r6, r6, #84
 1794              	.LVL260:
 172:..\..\..\arduinoLCD\test\Pain Drain\libraries\lvgl\src\extra\widgets\menu/lv_menu.c **** 
 1795              		.loc 1 172 0
 1796 0008 3000     		movs	r0, r6
 1797              	.LVL261:
 1798 000a FFF7FEFF 		bl	_lv_ll_get_head
 1799              	.LVL262:
 1800 000e 051E     		subs	r5, r0, #0
 1801              	.LVL263:
 176:..\..\..\arduinoLCD\test\Pain Drain\libraries\lvgl\src\extra\widgets\menu/lv_menu.c ****         page = act_hist->page;
 1802              		.loc 1 176 0
 1803 0010 0CD0     		beq	.L88
 177:..\..\..\arduinoLCD\test\Pain Drain\libraries\lvgl\src\extra\widgets\menu/lv_menu.c ****         /* Delete the current item from the history */
 1804              		.loc 1 177 0
 1805 0012 0768     		ldr	r7, [r0]
 1806              	.LVL264:
 179:..\..\..\arduinoLCD\test\Pain Drain\libraries\lvgl\src\extra\widgets\menu/lv_menu.c ****         lv_mem_free(act_hist);
 1807              		.loc 1 179 0
 1808 0014 0100     		movs	r1, r0
 1809 0016 3000     		movs	r0, r6
 1810              	.LVL265:
 1811 0018 FFF7FEFF 		bl	_lv_ll_remove
 1812              	.LVL266:
 180:..\..\..\arduinoLCD\test\Pain Drain\libraries\lvgl\src\extra\widgets\menu/lv_menu.c ****         menu->cur_depth--;
 1813              		.loc 1 180 0
 1814 001c 2800     		movs	r0, r5
 1815 001e FFF7FEFF 		bl	lv_mem_free
 1816              	.LVL267:
 181:..\..\..\arduinoLCD\test\Pain Drain\libraries\lvgl\src\extra\widgets\menu/lv_menu.c ****     }
 1817              		.loc 1 181 0
 1818 0022 6022     		movs	r2, #96
 1819 0024 A35C     		ldrb	r3, [r4, r2]
 1820 0026 013B     		subs	r3, r3, #1
 1821 0028 A354     		strb	r3, [r4, r2]
 1822 002a 00E0     		b	.L87
 1823              	.LVL268:
 1824              	.L88:
 174:..\..\..\arduinoLCD\test\Pain Drain\libraries\lvgl\src\extra\widgets\menu/lv_menu.c **** 
 1825              		.loc 1 174 0
 1826 002c 0027     		movs	r7, #0
 1827              	.LVL269:
 1828              	.L87:
 185:..\..\..\arduinoLCD\test\Pain Drain\libraries\lvgl\src\extra\widgets\menu/lv_menu.c **** }
 1829              		.loc 1 185 0
 1830 002e 3900     		movs	r1, r7
 1831 0030 2000     		movs	r0, r4
 1832 0032 FFF7FEFF 		bl	lv_menu_set_page
 1833              	.LVL270:
 186:..\..\..\arduinoLCD\test\Pain Drain\libraries\lvgl\src\extra\widgets\menu/lv_menu.c **** 
 1834              		.loc 1 186 0
ARM GAS  C:\Users\haske\AppData\Local\Temp\ccp0JrPn.s 			page 51


 1835              		@ sp needed
 1836              	.LVL271:
 1837              	.LVL272:
 1838              	.LVL273:
 1839              	.LVL274:
 1840 0036 F8BD     		pop	{r3, r4, r5, r6, r7, pc}
 1841              		.cfi_endproc
 1842              	.LFE169:
 1843              		.size	lv_menu_refr, .-lv_menu_refr
 1844              		.section	.text.lv_menu_set_sidebar_page,"ax",%progbits
 1845              		.align	2
 1846              		.global	lv_menu_set_sidebar_page
 1847              		.code	16
 1848              		.thumb_func
 1849              		.type	lv_menu_set_sidebar_page, %function
 1850              	lv_menu_set_sidebar_page:
 1851              	.LFB171:
 273:..\..\..\arduinoLCD\test\Pain Drain\libraries\lvgl\src\extra\widgets\menu/lv_menu.c ****     LV_ASSERT_OBJ(obj, MY_CLASS);
 1852              		.loc 1 273 0
 1853              		.cfi_startproc
 1854              		@ args = 0, pretend = 0, frame = 0
 1855              		@ frame_needed = 0, uses_anonymous_args = 0
 1856              	.LVL275:
 1857 0000 F8B5     		push	{r3, r4, r5, r6, r7, lr}
 1858              		.cfi_def_cfa_offset 24
 1859              		.cfi_offset 3, -24
 1860              		.cfi_offset 4, -20
 1861              		.cfi_offset 5, -16
 1862              		.cfi_offset 6, -12
 1863              		.cfi_offset 7, -8
 1864              		.cfi_offset 14, -4
 1865 0002 0400     		movs	r4, r0
 1866 0004 0F1E     		subs	r7, r1, #0
 1867              	.LVL276:
 279:..\..\..\arduinoLCD\test\Pain Drain\libraries\lvgl\src\extra\widgets\menu/lv_menu.c ****         /* Sidebar should be enabled */
 1868              		.loc 1 279 0
 1869 0006 72D0     		beq	.L90
 281:..\..\..\arduinoLCD\test\Pain Drain\libraries\lvgl\src\extra\widgets\menu/lv_menu.c ****             /* Create sidebar */
 1870              		.loc 1 281 0
 1871 0008 6223     		movs	r3, #98
 1872 000a C35C     		ldrb	r3, [r0, r3]
 1873 000c DB07     		lsls	r3, r3, #31
 1874 000e 66D4     		bmi	.L91
 1875              	.LBB4:
 283:..\..\..\arduinoLCD\test\Pain Drain\libraries\lvgl\src\extra\widgets\menu/lv_menu.c ****             lv_obj_class_init_obj(sidebar_cont);
 1876              		.loc 1 283 0
 1877 0010 414E     		ldr	r6, .L93
 1878 0012 3000     		movs	r0, r6
 1879              	.LVL277:
 1880 0014 4430     		adds	r0, r0, #68
 1881 0016 2100     		movs	r1, r4
 1882              	.LVL278:
 1883 0018 FFF7FEFF 		bl	lv_obj_class_create_obj
 1884              	.LVL279:
 1885 001c 0500     		movs	r5, r0
 1886              	.LVL280:
 284:..\..\..\arduinoLCD\test\Pain Drain\libraries\lvgl\src\extra\widgets\menu/lv_menu.c ****             lv_obj_move_to_index(sidebar_cont, 1);
ARM GAS  C:\Users\haske\AppData\Local\Temp\ccp0JrPn.s 			page 52


 1887              		.loc 1 284 0
 1888 001e FFF7FEFF 		bl	lv_obj_class_init_obj
 1889              	.LVL281:
 285:..\..\..\arduinoLCD\test\Pain Drain\libraries\lvgl\src\extra\widgets\menu/lv_menu.c ****             lv_obj_set_size(sidebar_cont, LV_PCT(30), LV_PCT(100));
 1890              		.loc 1 285 0
 1891 0022 0121     		movs	r1, #1
 1892 0024 2800     		movs	r0, r5
 1893 0026 FFF7FEFF 		bl	lv_obj_move_to_index
 1894              	.LVL282:
 286:..\..\..\arduinoLCD\test\Pain Drain\libraries\lvgl\src\extra\widgets\menu/lv_menu.c ****             lv_obj_set_flex_flow(sidebar_cont, LV_FLEX_FLOW_COLUMN);
 1895              		.loc 1 286 0
 1896 002a 3C4A     		ldr	r2, .L93+4
 1897 002c 3C49     		ldr	r1, .L93+8
 1898 002e 2800     		movs	r0, r5
 1899 0030 FFF7FEFF 		bl	lv_obj_set_size
 1900              	.LVL283:
 287:..\..\..\arduinoLCD\test\Pain Drain\libraries\lvgl\src\extra\widgets\menu/lv_menu.c ****             lv_obj_add_flag(sidebar_cont, LV_OBJ_FLAG_EVENT_BUBBLE);
 1901              		.loc 1 287 0
 1902 0034 0121     		movs	r1, #1
 1903 0036 2800     		movs	r0, r5
 1904 0038 FFF7FEFF 		bl	lv_obj_set_flex_flow
 1905              	.LVL284:
 288:..\..\..\arduinoLCD\test\Pain Drain\libraries\lvgl\src\extra\widgets\menu/lv_menu.c ****             lv_obj_clear_flag(sidebar_cont, LV_OBJ_FLAG_CLICKABLE);
 1906              		.loc 1 288 0
 1907 003c 8021     		movs	r1, #128
 1908 003e C901     		lsls	r1, r1, #7
 1909 0040 2800     		movs	r0, r5
 1910 0042 FFF7FEFF 		bl	lv_obj_add_flag
 1911              	.LVL285:
 289:..\..\..\arduinoLCD\test\Pain Drain\libraries\lvgl\src\extra\widgets\menu/lv_menu.c ****             menu->sidebar = sidebar_cont;
 1912              		.loc 1 289 0
 1913 0046 0221     		movs	r1, #2
 1914 0048 2800     		movs	r0, r5
 1915 004a FFF7FEFF 		bl	lv_obj_clear_flag
 1916              	.LVL286:
 290:..\..\..\arduinoLCD\test\Pain Drain\libraries\lvgl\src\extra\widgets\menu/lv_menu.c **** 
 1917              		.loc 1 290 0
 1918 004e E563     		str	r5, [r4, #60]
 292:..\..\..\arduinoLCD\test\Pain Drain\libraries\lvgl\src\extra\widgets\menu/lv_menu.c ****             lv_obj_class_init_obj(sidebar_header);
 1919              		.loc 1 292 0
 1920 0050 3000     		movs	r0, r6
 1921 0052 6030     		adds	r0, r0, #96
 1922 0054 2900     		movs	r1, r5
 1923 0056 FFF7FEFF 		bl	lv_obj_class_create_obj
 1924              	.LVL287:
 1925 005a 0500     		movs	r5, r0
 1926              	.LVL288:
 293:..\..\..\arduinoLCD\test\Pain Drain\libraries\lvgl\src\extra\widgets\menu/lv_menu.c ****             lv_obj_set_size(sidebar_header, LV_PCT(100), LV_SIZE_CONTENT);
 1927              		.loc 1 293 0
 1928 005c FFF7FEFF 		bl	lv_obj_class_init_obj
 1929              	.LVL289:
 294:..\..\..\arduinoLCD\test\Pain Drain\libraries\lvgl\src\extra\widgets\menu/lv_menu.c ****             lv_obj_set_flex_flow(sidebar_header, LV_FLEX_FLOW_ROW);
 1930              		.loc 1 294 0
 1931 0060 304A     		ldr	r2, .L93+12
 1932 0062 2E49     		ldr	r1, .L93+4
 1933 0064 2800     		movs	r0, r5
 1934 0066 FFF7FEFF 		bl	lv_obj_set_size
ARM GAS  C:\Users\haske\AppData\Local\Temp\ccp0JrPn.s 			page 53


 1935              	.LVL290:
 295:..\..\..\arduinoLCD\test\Pain Drain\libraries\lvgl\src\extra\widgets\menu/lv_menu.c ****             lv_obj_set_flex_align(sidebar_header, LV_FLEX_ALIGN_START, LV_FLEX_ALIGN_CENTER, LV_FLE
 1936              		.loc 1 295 0
 1937 006a 0021     		movs	r1, #0
 1938 006c 2800     		movs	r0, r5
 1939 006e FFF7FEFF 		bl	lv_obj_set_flex_flow
 1940              	.LVL291:
 296:..\..\..\arduinoLCD\test\Pain Drain\libraries\lvgl\src\extra\widgets\menu/lv_menu.c ****             lv_obj_clear_flag(sidebar_header, LV_OBJ_FLAG_CLICKABLE);
 1941              		.loc 1 296 0
 1942 0072 0223     		movs	r3, #2
 1943 0074 0222     		movs	r2, #2
 1944 0076 0021     		movs	r1, #0
 1945 0078 2800     		movs	r0, r5
 1946 007a FFF7FEFF 		bl	lv_obj_set_flex_align
 1947              	.LVL292:
 297:..\..\..\arduinoLCD\test\Pain Drain\libraries\lvgl\src\extra\widgets\menu/lv_menu.c ****             lv_obj_add_flag(sidebar_header, LV_OBJ_FLAG_EVENT_BUBBLE);
 1948              		.loc 1 297 0
 1949 007e 0221     		movs	r1, #2
 1950 0080 2800     		movs	r0, r5
 1951 0082 FFF7FEFF 		bl	lv_obj_clear_flag
 1952              	.LVL293:
 298:..\..\..\arduinoLCD\test\Pain Drain\libraries\lvgl\src\extra\widgets\menu/lv_menu.c ****             menu->sidebar_header = sidebar_header;
 1953              		.loc 1 298 0
 1954 0086 8021     		movs	r1, #128
 1955 0088 C901     		lsls	r1, r1, #7
 1956 008a 2800     		movs	r0, r5
 1957 008c FFF7FEFF 		bl	lv_obj_add_flag
 1958              	.LVL294:
 299:..\..\..\arduinoLCD\test\Pain Drain\libraries\lvgl\src\extra\widgets\menu/lv_menu.c **** 
 1959              		.loc 1 299 0
 1960 0090 6564     		str	r5, [r4, #68]
 301:..\..\..\arduinoLCD\test\Pain Drain\libraries\lvgl\src\extra\widgets\menu/lv_menu.c ****             lv_obj_add_event_cb(sidebar_header_back_btn, lv_menu_back_event_cb, LV_EVENT_CLICKED, m
 1961              		.loc 1 301 0
 1962 0092 2800     		movs	r0, r5
 1963 0094 FFF7FEFF 		bl	lv_btn_create
 1964              	.LVL295:
 1965 0098 0500     		movs	r5, r0
 1966              	.LVL296:
 302:..\..\..\arduinoLCD\test\Pain Drain\libraries\lvgl\src\extra\widgets\menu/lv_menu.c ****             lv_obj_add_flag(sidebar_header_back_btn, LV_OBJ_FLAG_EVENT_BUBBLE);
 1967              		.loc 1 302 0
 1968 009a 2300     		movs	r3, r4
 1969 009c 0722     		movs	r2, #7
 1970 009e 2249     		ldr	r1, .L93+16
 1971 00a0 FFF7FEFF 		bl	lv_obj_add_event_cb
 1972              	.LVL297:
 303:..\..\..\arduinoLCD\test\Pain Drain\libraries\lvgl\src\extra\widgets\menu/lv_menu.c ****             lv_obj_set_flex_flow(sidebar_header_back_btn, LV_FLEX_FLOW_ROW);
 1973              		.loc 1 303 0
 1974 00a4 8021     		movs	r1, #128
 1975 00a6 C901     		lsls	r1, r1, #7
 1976 00a8 2800     		movs	r0, r5
 1977 00aa FFF7FEFF 		bl	lv_obj_add_flag
 1978              	.LVL298:
 304:..\..\..\arduinoLCD\test\Pain Drain\libraries\lvgl\src\extra\widgets\menu/lv_menu.c ****             menu->sidebar_header_back_btn = sidebar_header_back_btn;
 1979              		.loc 1 304 0
 1980 00ae 0021     		movs	r1, #0
 1981 00b0 2800     		movs	r0, r5
 1982 00b2 FFF7FEFF 		bl	lv_obj_set_flex_flow
ARM GAS  C:\Users\haske\AppData\Local\Temp\ccp0JrPn.s 			page 54


 1983              	.LVL299:
 305:..\..\..\arduinoLCD\test\Pain Drain\libraries\lvgl\src\extra\widgets\menu/lv_menu.c **** 
 1984              		.loc 1 305 0
 1985 00b6 A564     		str	r5, [r4, #72]
 307:..\..\..\arduinoLCD\test\Pain Drain\libraries\lvgl\src\extra\widgets\menu/lv_menu.c ****             lv_img_set_src(sidebar_header_back_icon, LV_SYMBOL_LEFT);
 1986              		.loc 1 307 0
 1987 00b8 2800     		movs	r0, r5
 1988 00ba FFF7FEFF 		bl	lv_img_create
 1989              	.LVL300:
 308:..\..\..\arduinoLCD\test\Pain Drain\libraries\lvgl\src\extra\widgets\menu/lv_menu.c **** 
 1990              		.loc 1 308 0
 1991 00be 1B49     		ldr	r1, .L93+20
 1992 00c0 FFF7FEFF 		bl	lv_img_set_src
 1993              	.LVL301:
 310:..\..\..\arduinoLCD\test\Pain Drain\libraries\lvgl\src\extra\widgets\menu/lv_menu.c ****             lv_obj_add_flag(sidebar_header_title, LV_OBJ_FLAG_HIDDEN);
 1994              		.loc 1 310 0
 1995 00c4 606C     		ldr	r0, [r4, #68]
 1996 00c6 FFF7FEFF 		bl	lv_label_create
 1997              	.LVL302:
 1998 00ca 0500     		movs	r5, r0
 1999              	.LVL303:
 311:..\..\..\arduinoLCD\test\Pain Drain\libraries\lvgl\src\extra\widgets\menu/lv_menu.c ****             menu->sidebar_header_title = sidebar_header_title;
 2000              		.loc 1 311 0
 2001 00cc 0121     		movs	r1, #1
 2002 00ce FFF7FEFF 		bl	lv_obj_add_flag
 2003              	.LVL304:
 312:..\..\..\arduinoLCD\test\Pain Drain\libraries\lvgl\src\extra\widgets\menu/lv_menu.c **** 
 2004              		.loc 1 312 0
 2005 00d2 E564     		str	r5, [r4, #76]
 314:..\..\..\arduinoLCD\test\Pain Drain\libraries\lvgl\src\extra\widgets\menu/lv_menu.c ****         }
 2006              		.loc 1 314 0
 2007 00d4 6222     		movs	r2, #98
 2008 00d6 A15C     		ldrb	r1, [r4, r2]
 2009 00d8 0123     		movs	r3, #1
 2010 00da 0B43     		orrs	r3, r1
 2011 00dc A354     		strb	r3, [r4, r2]
 2012              	.LVL305:
 2013              	.L91:
 2014              	.LBE4:
 317:..\..\..\arduinoLCD\test\Pain Drain\libraries\lvgl\src\extra\widgets\menu/lv_menu.c **** 
 2015              		.loc 1 317 0
 2016 00de E16B     		ldr	r1, [r4, #60]
 2017 00e0 3800     		movs	r0, r7
 2018 00e2 FFF7FEFF 		bl	lv_obj_set_parent
 2019              	.LVL306:
 319:..\..\..\arduinoLCD\test\Pain Drain\libraries\lvgl\src\extra\widgets\menu/lv_menu.c ****     }
 2020              		.loc 1 319 0
 2021 00e6 2000     		movs	r0, r4
 2022 00e8 FFF7FEFF 		bl	lv_menu_refr_sidebar_header_mode
 2023              	.LVL307:
 2024 00ec 0FE0     		b	.L92
 2025              	.LVL308:
 2026              	.L90:
 323:..\..\..\arduinoLCD\test\Pain Drain\libraries\lvgl\src\extra\widgets\menu/lv_menu.c ****             lv_obj_set_parent(menu->sidebar_page, menu->storage);
 2027              		.loc 1 323 0
 2028 00ee 6223     		movs	r3, #98
 2029 00f0 C35C     		ldrb	r3, [r0, r3]
ARM GAS  C:\Users\haske\AppData\Local\Temp\ccp0JrPn.s 			page 55


 2030 00f2 DB07     		lsls	r3, r3, #31
 2031 00f4 0BD5     		bpl	.L92
 324:..\..\..\arduinoLCD\test\Pain Drain\libraries\lvgl\src\extra\widgets\menu/lv_menu.c ****             lv_obj_del(menu->sidebar);
 2032              		.loc 1 324 0
 2033 00f6 416A     		ldr	r1, [r0, #36]
 2034              	.LVL309:
 2035 00f8 006C     		ldr	r0, [r0, #64]
 2036              	.LVL310:
 2037 00fa FFF7FEFF 		bl	lv_obj_set_parent
 2038              	.LVL311:
 325:..\..\..\arduinoLCD\test\Pain Drain\libraries\lvgl\src\extra\widgets\menu/lv_menu.c **** 
 2039              		.loc 1 325 0
 2040 00fe E06B     		ldr	r0, [r4, #60]
 2041 0100 FFF7FEFF 		bl	lv_obj_del
 2042              	.LVL312:
 327:..\..\..\arduinoLCD\test\Pain Drain\libraries\lvgl\src\extra\widgets\menu/lv_menu.c ****         }
 2043              		.loc 1 327 0
 2044 0104 6222     		movs	r2, #98
 2045 0106 A35C     		ldrb	r3, [r4, r2]
 2046 0108 0121     		movs	r1, #1
 2047 010a 8B43     		bics	r3, r1
 2048 010c A354     		strb	r3, [r4, r2]
 2049              	.L92:
 331:..\..\..\arduinoLCD\test\Pain Drain\libraries\lvgl\src\extra\widgets\menu/lv_menu.c ****     lv_menu_refr(obj);
 2050              		.loc 1 331 0
 2051 010e 2764     		str	r7, [r4, #64]
 332:..\..\..\arduinoLCD\test\Pain Drain\libraries\lvgl\src\extra\widgets\menu/lv_menu.c **** }
 2052              		.loc 1 332 0
 2053 0110 2000     		movs	r0, r4
 2054 0112 FFF7FEFF 		bl	lv_menu_refr
 2055              	.LVL313:
 333:..\..\..\arduinoLCD\test\Pain Drain\libraries\lvgl\src\extra\widgets\menu/lv_menu.c **** 
 2056              		.loc 1 333 0
 2057              		@ sp needed
 2058              	.LVL314:
 2059              	.LVL315:
 2060 0116 F8BD     		pop	{r3, r4, r5, r6, r7, pc}
 2061              	.L94:
 2062              		.align	2
 2063              	.L93:
 2064 0118 80000000 		.word	.LANCHOR1
 2065 011c 64200000 		.word	8292
 2066 0120 1E200000 		.word	8222
 2067 0124 D1270000 		.word	10193
 2068 0128 00000000 		.word	lv_menu_back_event_cb
 2069 012c 00000000 		.word	.LC3
 2070              		.cfi_endproc
 2071              	.LFE171:
 2072              		.size	lv_menu_set_sidebar_page, .-lv_menu_set_sidebar_page
 2073              		.section	.text.lv_menu_set_mode_root_back_btn,"ax",%progbits
 2074              		.align	2
 2075              		.global	lv_menu_set_mode_root_back_btn
 2076              		.code	16
 2077              		.thumb_func
 2078              		.type	lv_menu_set_mode_root_back_btn, %function
 2079              	lv_menu_set_mode_root_back_btn:
 2080              	.LFB173:
ARM GAS  C:\Users\haske\AppData\Local\Temp\ccp0JrPn.s 			page 56


 349:..\..\..\arduinoLCD\test\Pain Drain\libraries\lvgl\src\extra\widgets\menu/lv_menu.c ****     LV_ASSERT_OBJ(obj, MY_CLASS);
 2081              		.loc 1 349 0
 2082              		.cfi_startproc
 2083              		@ args = 0, pretend = 0, frame = 0
 2084              		@ frame_needed = 0, uses_anonymous_args = 0
 2085              	.LVL316:
 2086 0000 10B5     		push	{r4, lr}
 2087              		.cfi_def_cfa_offset 8
 2088              		.cfi_offset 4, -8
 2089              		.cfi_offset 14, -4
 2090              	.LVL317:
 354:..\..\..\arduinoLCD\test\Pain Drain\libraries\lvgl\src\extra\widgets\menu/lv_menu.c ****         menu->mode_root_back_btn = mode_root_back_btn;
 2091              		.loc 1 354 0
 2092 0002 6223     		movs	r3, #98
 2093 0004 C35C     		ldrb	r3, [r0, r3]
 2094 0006 1B07     		lsls	r3, r3, #28
 2095 0008 DB0F     		lsrs	r3, r3, #31
 2096 000a 8B42     		cmp	r3, r1
 2097 000c 0AD0     		beq	.L95
 355:..\..\..\arduinoLCD\test\Pain Drain\libraries\lvgl\src\extra\widgets\menu/lv_menu.c ****         lv_menu_refr(obj);
 2098              		.loc 1 355 0
 2099 000e 6222     		movs	r2, #98
 2100 0010 0123     		movs	r3, #1
 2101 0012 1940     		ands	r1, r3
 2102              	.LVL318:
 2103 0014 C900     		lsls	r1, r1, #3
 2104 0016 835C     		ldrb	r3, [r0, r2]
 2105 0018 0824     		movs	r4, #8
 2106 001a A343     		bics	r3, r4
 2107 001c 1943     		orrs	r1, r3
 2108 001e 8154     		strb	r1, [r0, r2]
 356:..\..\..\arduinoLCD\test\Pain Drain\libraries\lvgl\src\extra\widgets\menu/lv_menu.c ****     }
 2109              		.loc 1 356 0
 2110 0020 FFF7FEFF 		bl	lv_menu_refr
 2111              	.LVL319:
 2112              	.L95:
 358:..\..\..\arduinoLCD\test\Pain Drain\libraries\lvgl\src\extra\widgets\menu/lv_menu.c **** 
 2113              		.loc 1 358 0
 2114              		@ sp needed
 2115 0024 10BD     		pop	{r4, pc}
 2116              		.cfi_endproc
 2117              	.LFE173:
 2118              		.size	lv_menu_set_mode_root_back_btn, .-lv_menu_set_mode_root_back_btn
 2119 0026 C046     		.section	.text.lv_menu_load_page_event_cb,"ax",%progbits
 2120              		.align	2
 2121              		.code	16
 2122              		.thumb_func
 2123              		.type	lv_menu_load_page_event_cb, %function
 2124              	lv_menu_load_page_event_cb:
 2125              	.LFB191:
 655:..\..\..\arduinoLCD\test\Pain Drain\libraries\lvgl\src\extra\widgets\menu/lv_menu.c ****     lv_obj_t * obj = lv_event_get_target(e);
 2126              		.loc 1 655 0
 2127              		.cfi_startproc
 2128              		@ args = 0, pretend = 0, frame = 0
 2129              		@ frame_needed = 0, uses_anonymous_args = 0
 2130              	.LVL320:
 2131 0000 70B5     		push	{r4, r5, r6, lr}
ARM GAS  C:\Users\haske\AppData\Local\Temp\ccp0JrPn.s 			page 57


 2132              		.cfi_def_cfa_offset 16
 2133              		.cfi_offset 4, -16
 2134              		.cfi_offset 5, -12
 2135              		.cfi_offset 6, -8
 2136              		.cfi_offset 14, -4
 2137 0002 0400     		movs	r4, r0
 656:..\..\..\arduinoLCD\test\Pain Drain\libraries\lvgl\src\extra\widgets\menu/lv_menu.c ****     lv_menu_load_page_event_data_t * event_data = lv_event_get_user_data(e);
 2138              		.loc 1 656 0
 2139 0004 FFF7FEFF 		bl	lv_event_get_target
 2140              	.LVL321:
 2141 0008 0500     		movs	r5, r0
 2142              	.LVL322:
 657:..\..\..\arduinoLCD\test\Pain Drain\libraries\lvgl\src\extra\widgets\menu/lv_menu.c ****     lv_menu_t * menu = (lv_menu_t *)(event_data->menu);
 2143              		.loc 1 657 0
 2144 000a 2000     		movs	r0, r4
 2145              	.LVL323:
 2146 000c FFF7FEFF 		bl	lv_event_get_user_data
 2147              	.LVL324:
 658:..\..\..\arduinoLCD\test\Pain Drain\libraries\lvgl\src\extra\widgets\menu/lv_menu.c ****     lv_obj_t * page = event_data->page;
 2148              		.loc 1 658 0
 2149 0010 0468     		ldr	r4, [r0]
 2150              	.LVL325:
 659:..\..\..\arduinoLCD\test\Pain Drain\libraries\lvgl\src\extra\widgets\menu/lv_menu.c **** 
 2151              		.loc 1 659 0
 2152 0012 4668     		ldr	r6, [r0, #4]
 2153              	.LVL326:
 661:..\..\..\arduinoLCD\test\Pain Drain\libraries\lvgl\src\extra\widgets\menu/lv_menu.c ****         /* Check if clicked obj is in the sidebar */
 2154              		.loc 1 661 0
 2155 0014 236C     		ldr	r3, [r4, #64]
 2156 0016 002B     		cmp	r3, #0
 2157 0018 08D1     		bne	.L104
 2158              	.LBB5:
 2159 001a 1DE0     		b	.L99
 2160              	.LVL327:
 2161              	.L101:
 667:..\..\..\arduinoLCD\test\Pain Drain\libraries\lvgl\src\extra\widgets\menu/lv_menu.c ****             if(parent == menu->sidebar) {
 2162              		.loc 1 667 0
 2163 001c A042     		cmp	r0, r4
 2164 001e 0AD0     		beq	.L105
 668:..\..\..\arduinoLCD\test\Pain Drain\libraries\lvgl\src\extra\widgets\menu/lv_menu.c ****                 sidebar = true;
 2165              		.loc 1 668 0
 2166 0020 E36B     		ldr	r3, [r4, #60]
 2167 0022 9842     		cmp	r0, r3
 2168 0024 09D0     		beq	.L106
 672:..\..\..\arduinoLCD\test\Pain Drain\libraries\lvgl\src\extra\widgets\menu/lv_menu.c ****         }
 2169              		.loc 1 672 0
 2170 0026 FFF7FEFF 		bl	lv_obj_get_parent
 2171              	.LVL328:
 2172 002a 00E0     		b	.L98
 2173              	.LVL329:
 2174              	.L104:
 2175              	.LBE5:
 2176 002c 2800     		movs	r0, r5
 2177              	.LVL330:
 2178              	.L98:
 2179              	.LBB6:
 666:..\..\..\arduinoLCD\test\Pain Drain\libraries\lvgl\src\extra\widgets\menu/lv_menu.c ****             if(parent == (lv_obj_t *)menu) break;
ARM GAS  C:\Users\haske\AppData\Local\Temp\ccp0JrPn.s 			page 58


 2180              		.loc 1 666 0
 2181 002e 0028     		cmp	r0, #0
 2182 0030 F4D1     		bne	.L101
 663:..\..\..\arduinoLCD\test\Pain Drain\libraries\lvgl\src\extra\widgets\menu/lv_menu.c ****         lv_obj_t * parent = obj;
 2183              		.loc 1 663 0
 2184 0032 0023     		movs	r3, #0
 2185 0034 02E0     		b	.L100
 2186              	.L105:
 2187 0036 0023     		movs	r3, #0
 2188 0038 00E0     		b	.L100
 2189              	.L106:
 669:..\..\..\arduinoLCD\test\Pain Drain\libraries\lvgl\src\extra\widgets\menu/lv_menu.c ****                 break;
 2190              		.loc 1 669 0
 2191 003a 0123     		movs	r3, #1
 2192              	.L100:
 2193              	.LVL331:
 675:..\..\..\arduinoLCD\test\Pain Drain\libraries\lvgl\src\extra\widgets\menu/lv_menu.c ****             /* Clear checked state of previous obj */
 2194              		.loc 1 675 0
 2195 003c 002B     		cmp	r3, #0
 2196 003e 0BD0     		beq	.L99
 677:..\..\..\arduinoLCD\test\Pain Drain\libraries\lvgl\src\extra\widgets\menu/lv_menu.c ****                 lv_obj_clear_state(menu->selected_tab, LV_STATE_CHECKED);
 2197              		.loc 1 677 0
 2198 0040 206D     		ldr	r0, [r4, #80]
 2199              	.LVL332:
 2200 0042 8542     		cmp	r5, r0
 2201 0044 04D0     		beq	.L102
 677:..\..\..\arduinoLCD\test\Pain Drain\libraries\lvgl\src\extra\widgets\menu/lv_menu.c ****                 lv_obj_clear_state(menu->selected_tab, LV_STATE_CHECKED);
 2202              		.loc 1 677 0 is_stmt 0 discriminator 1
 2203 0046 0028     		cmp	r0, #0
 2204 0048 02D0     		beq	.L102
 678:..\..\..\arduinoLCD\test\Pain Drain\libraries\lvgl\src\extra\widgets\menu/lv_menu.c ****             }
 2205              		.loc 1 678 0 is_stmt 1
 2206 004a 0121     		movs	r1, #1
 2207 004c FFF7FEFF 		bl	lv_obj_clear_state
 2208              	.LVL333:
 2209              	.L102:
 681:..\..\..\arduinoLCD\test\Pain Drain\libraries\lvgl\src\extra\widgets\menu/lv_menu.c **** 
 2210              		.loc 1 681 0
 2211 0050 2000     		movs	r0, r4
 2212 0052 FFF7FEFF 		bl	lv_menu_clear_history
 2213              	.LVL334:
 683:..\..\..\arduinoLCD\test\Pain Drain\libraries\lvgl\src\extra\widgets\menu/lv_menu.c ****         }
 2214              		.loc 1 683 0
 2215 0056 2565     		str	r5, [r4, #80]
 2216              	.L99:
 2217              	.LBE6:
 687:..\..\..\arduinoLCD\test\Pain Drain\libraries\lvgl\src\extra\widgets\menu/lv_menu.c **** 
 2218              		.loc 1 687 0
 2219 0058 3100     		movs	r1, r6
 2220 005a 2000     		movs	r0, r4
 2221 005c FFF7FEFF 		bl	lv_menu_set_page
 2222              	.LVL335:
 689:..\..\..\arduinoLCD\test\Pain Drain\libraries\lvgl\src\extra\widgets\menu/lv_menu.c ****         /* Sidebar is not supported for now*/
 2223              		.loc 1 689 0
 2224 0060 FFF7FEFF 		bl	lv_group_get_default
 2225              	.LVL336:
 2226 0064 0028     		cmp	r0, #0
ARM GAS  C:\Users\haske\AppData\Local\Temp\ccp0JrPn.s 			page 59


 2227 0066 06D0     		beq	.L97
 689:..\..\..\arduinoLCD\test\Pain Drain\libraries\lvgl\src\extra\widgets\menu/lv_menu.c ****         /* Sidebar is not supported for now*/
 2228              		.loc 1 689 0 is_stmt 0 discriminator 1
 2229 0068 236C     		ldr	r3, [r4, #64]
 2230 006a 002B     		cmp	r3, #0
 2231 006c 03D1     		bne	.L97
 691:..\..\..\arduinoLCD\test\Pain Drain\libraries\lvgl\src\extra\widgets\menu/lv_menu.c ****     }
 2232              		.loc 1 691 0 is_stmt 1
 2233 006e FFF7FEFF 		bl	lv_group_get_default
 2234              	.LVL337:
 2235 0072 FFF7FEFF 		bl	lv_group_focus_next
 2236              	.LVL338:
 2237              	.L97:
 693:..\..\..\arduinoLCD\test\Pain Drain\libraries\lvgl\src\extra\widgets\menu/lv_menu.c **** 
 2238              		.loc 1 693 0
 2239              		@ sp needed
 2240              	.LVL339:
 2241              	.LVL340:
 2242              	.LVL341:
 2243 0076 70BD     		pop	{r4, r5, r6, pc}
 2244              		.cfi_endproc
 2245              	.LFE191:
 2246              		.size	lv_menu_load_page_event_cb, .-lv_menu_load_page_event_cb
 2247              		.global	lv_menu_sidebar_header_cont_class
 2248              		.global	lv_menu_main_header_cont_class
 2249              		.global	lv_menu_main_cont_class
 2250              		.global	lv_menu_sidebar_cont_class
 2251              		.global	lv_menu_separator_class
 2252              		.global	lv_menu_section_class
 2253              		.global	lv_menu_cont_class
 2254              		.global	lv_menu_page_class
 2255              		.global	lv_menu_class
 2256              		.section	.rodata
 2257              		.align	2
 2258              		.set	.LANCHOR0,. + 0
 2259              		.set	.LANCHOR1,. + 128
 2260              		.type	lv_menu_main_cont_class, %object
 2261              		.size	lv_menu_main_cont_class, 28
 2262              	lv_menu_main_cont_class:
 2263 0000 00000000 		.word	lv_obj_class
 2264 0004 00000000 		.space	24
 2264      00000000 
 2264      00000000 
 2264      00000000 
 2264      00000000 
 2265              		.type	lv_menu_main_header_cont_class, %object
 2266              		.size	lv_menu_main_header_cont_class, 28
 2267              	lv_menu_main_header_cont_class:
 2268 001c 00000000 		.word	lv_obj_class
 2269 0020 00000000 		.space	24
 2269      00000000 
 2269      00000000 
 2269      00000000 
 2269      00000000 
 2270              		.type	lv_menu_class, %object
 2271              		.size	lv_menu_class, 28
 2272              	lv_menu_class:
ARM GAS  C:\Users\haske\AppData\Local\Temp\ccp0JrPn.s 			page 60


 2273 0038 00000000 		.word	lv_obj_class
 2274 003c 00000000 		.word	lv_menu_constructor
 2275 0040 00000000 		.word	lv_menu_destructor
 2276 0044 00000000 		.space	8
 2276      00000000 
 2277 004c C300     		.short	195
 2278 004e 0401     		.short	260
 2279 0050 40       		.byte	64
 2280 0051 06       		.byte	6
 2281 0052 00       		.byte	0
 2282 0053 00       		.space	1
 2283              		.type	lv_menu_page_class, %object
 2284              		.size	lv_menu_page_class, 28
 2285              	lv_menu_page_class:
 2286 0054 00000000 		.word	lv_obj_class
 2287 0058 00000000 		.word	lv_menu_page_constructor
 2288 005c 00000000 		.word	lv_menu_page_destructor
 2289 0060 00000000 		.space	8
 2289      00000000 
 2290 0068 6420     		.short	8292
 2291 006a D127     		.short	10193
 2292 006c 80       		.byte	128
 2293 006d 02       		.byte	2
 2294 006e 00       		.byte	0
 2295 006f 00       		.space	1
 2296              		.type	lv_menu_cont_class, %object
 2297              		.size	lv_menu_cont_class, 28
 2298              	lv_menu_cont_class:
 2299 0070 00000000 		.word	lv_obj_class
 2300 0074 00000000 		.word	lv_menu_cont_constructor
 2301 0078 00000000 		.space	12
 2301      00000000 
 2301      00000000 
 2302 0084 6420     		.short	8292
 2303 0086 D127     		.short	10193
 2304 0088 00000000 		.space	4
 2305              		.type	lv_menu_section_class, %object
 2306              		.size	lv_menu_section_class, 28
 2307              	lv_menu_section_class:
 2308 008c 00000000 		.word	lv_obj_class
 2309 0090 00000000 		.word	lv_menu_section_constructor
 2310 0094 00000000 		.space	12
 2310      00000000 
 2310      00000000 
 2311 00a0 6420     		.short	8292
 2312 00a2 D127     		.short	10193
 2313 00a4 00000000 		.space	4
 2314              		.type	lv_menu_separator_class, %object
 2315              		.size	lv_menu_separator_class, 28
 2316              	lv_menu_separator_class:
 2317 00a8 00000000 		.word	lv_obj_class
 2318 00ac 00000000 		.space	16
 2318      00000000 
 2318      00000000 
 2318      00000000 
 2319 00bc D127     		.short	10193
 2320 00be D127     		.short	10193
ARM GAS  C:\Users\haske\AppData\Local\Temp\ccp0JrPn.s 			page 61


 2321 00c0 00000000 		.space	4
 2322              		.type	lv_menu_sidebar_cont_class, %object
 2323              		.size	lv_menu_sidebar_cont_class, 28
 2324              	lv_menu_sidebar_cont_class:
 2325 00c4 00000000 		.word	lv_obj_class
 2326 00c8 00000000 		.space	24
 2326      00000000 
 2326      00000000 
 2326      00000000 
 2326      00000000 
 2327              		.type	lv_menu_sidebar_header_cont_class, %object
 2328              		.size	lv_menu_sidebar_header_cont_class, 28
 2329              	lv_menu_sidebar_header_cont_class:
 2330 00e0 00000000 		.word	lv_obj_class
 2331 00e4 00000000 		.space	24
 2331      00000000 
 2331      00000000 
 2331      00000000 
 2331      00000000 
 2332              		.section	.rodata.str1.4,"aMS",%progbits,1
 2333              		.align	2
 2334              	.LC3:
 2335 0000 EF819300 		.ascii	"\357\201\223\000"
 2336              		.text
 2337              	.Letext0:
 2338              		.file 2 "c:\\program files (x86)\\cypress\\psoc creator\\4.4\\psoc creator\\import\\gnu\\arm\\5.4.
 2339              		.file 3 "c:\\program files (x86)\\cypress\\psoc creator\\4.4\\psoc creator\\import\\gnu\\arm\\5.4.
 2340              		.file 4 "c:\\projects\\paindrain\\arduinolcd\\test\\pain drain\\libraries\\lvgl\\src\\misc\\lv_are
 2341              		.file 5 "c:\\projects\\paindrain\\arduinolcd\\test\\pain drain\\libraries\\lvgl\\src\\font\\lv_fon
 2342              		.file 6 "c:\\projects\\paindrain\\arduinolcd\\test\\pain drain\\libraries\\lvgl\\src\\misc\\lv_col
 2343              		.file 7 "c:\\projects\\paindrain\\arduinolcd\\test\\pain drain\\libraries\\lvgl\\src\\misc\\lv_sty
 2344              		.file 8 "c:\\projects\\paindrain\\arduinolcd\\test\\pain drain\\libraries\\lvgl\\src\\core\\lv_obj
 2345              		.file 9 "c:\\projects\\paindrain\\arduinolcd\\test\\pain drain\\libraries\\lvgl\\src\\misc\\lv_ll.
 2346              		.file 10 "c:\\projects\\paindrain\\arduinolcd\\test\\pain drain\\libraries\\lvgl\\src\\core\\lv_gr
 2347              		.file 11 "c:\\projects\\paindrain\\arduinolcd\\test\\pain drain\\libraries\\lvgl\\src\\core\\lv_ob
 2348              		.file 12 "c:\\projects\\paindrain\\arduinolcd\\test\\pain drain\\libraries\\lvgl\\src\\core\\lv_ob
 2349              		.file 13 "c:\\projects\\paindrain\\arduinolcd\\test\\pain drain\\libraries\\lvgl\\src\\core\\lv_ob
 2350              		.file 14 "c:\\projects\\paindrain\\arduinolcd\\test\\pain drain\\libraries\\lvgl\\src\\core\\lv_ev
 2351              		.file 15 "..\\..\\..\\arduinoLCD\\test\\Pain Drain\\libraries\\lvgl\\src\\extra\\widgets\\menu\\lv
 2352              		.file 16 "c:\\projects\\paindrain\\arduinolcd\\test\\pain drain\\libraries\\lvgl\\src\\extra\\layo
 2353              		.file 17 "c:\\projects\\paindrain\\arduinolcd\\test\\pain drain\\libraries\\lvgl\\src\\core\\lv_ob
 2354              		.file 18 "c:\\projects\\paindrain\\arduinolcd\\test\\pain drain\\libraries\\lvgl\\src\\widgets\\lv
 2355              		.file 19 "c:\\projects\\paindrain\\arduinolcd\\test\\pain drain\\libraries\\lvgl\\src\\widgets\\lv
 2356              		.file 20 "c:\\projects\\paindrain\\arduinolcd\\test\\pain drain\\libraries\\lvgl\\src\\widgets\\lv
 2357              		.file 21 "c:\\projects\\paindrain\\arduinolcd\\test\\pain drain\\libraries\\lvgl\\src\\misc\\lv_me
 2358              		.file 22 "c:\\projects\\paindrain\\arduinolcd\\test\\pain drain\\libraries\\lvgl\\src\\core\\lv_ob
 2359              		.file 23 "c:\\program files (x86)\\cypress\\psoc creator\\4.4\\psoc creator\\import\\gnu\\arm\\5.4
 2360              		.section	.debug_info,"",%progbits
 2361              	.Ldebug_info0:
 2362 0000 9D2A0000 		.4byte	0x2a9d
 2363 0004 0400     		.2byte	0x4
 2364 0006 00000000 		.4byte	.Ldebug_abbrev0
 2365 000a 04       		.byte	0x4
 2366 000b 01       		.uleb128 0x1
 2367 000c 54090000 		.4byte	.LASF467
 2368 0010 0C       		.byte	0xc
 2369 0011 B4070000 		.4byte	.LASF468
ARM GAS  C:\Users\haske\AppData\Local\Temp\ccp0JrPn.s 			page 62


 2370 0015 581B0000 		.4byte	.LASF469
 2371 0019 18000000 		.4byte	.Ldebug_ranges0+0x18
 2372 001d 00000000 		.4byte	0
 2373 0021 00000000 		.4byte	.Ldebug_line0
 2374 0025 02       		.uleb128 0x2
 2375 0026 C6160000 		.4byte	.LASF0
 2376 002a 02       		.byte	0x2
 2377 002b 1B       		.byte	0x1b
 2378 002c 30000000 		.4byte	0x30
 2379 0030 03       		.uleb128 0x3
 2380 0031 01       		.byte	0x1
 2381 0032 06       		.byte	0x6
 2382 0033 B0060000 		.4byte	.LASF2
 2383 0037 02       		.uleb128 0x2
 2384 0038 9E030000 		.4byte	.LASF1
 2385 003c 02       		.byte	0x2
 2386 003d 1D       		.byte	0x1d
 2387 003e 42000000 		.4byte	0x42
 2388 0042 03       		.uleb128 0x3
 2389 0043 01       		.byte	0x1
 2390 0044 08       		.byte	0x8
 2391 0045 7C070000 		.4byte	.LASF3
 2392 0049 02       		.uleb128 0x2
 2393 004a 73180000 		.4byte	.LASF4
 2394 004e 02       		.byte	0x2
 2395 004f 29       		.byte	0x29
 2396 0050 54000000 		.4byte	0x54
 2397 0054 03       		.uleb128 0x3
 2398 0055 02       		.byte	0x2
 2399 0056 05       		.byte	0x5
 2400 0057 C2190000 		.4byte	.LASF5
 2401 005b 02       		.uleb128 0x2
 2402 005c BA0A0000 		.4byte	.LASF6
 2403 0060 02       		.byte	0x2
 2404 0061 2B       		.byte	0x2b
 2405 0062 66000000 		.4byte	0x66
 2406 0066 03       		.uleb128 0x3
 2407 0067 02       		.byte	0x2
 2408 0068 07       		.byte	0x7
 2409 0069 031E0000 		.4byte	.LASF7
 2410 006d 02       		.uleb128 0x2
 2411 006e 071F0000 		.4byte	.LASF8
 2412 0072 02       		.byte	0x2
 2413 0073 3F       		.byte	0x3f
 2414 0074 78000000 		.4byte	0x78
 2415 0078 03       		.uleb128 0x3
 2416 0079 04       		.byte	0x4
 2417 007a 05       		.byte	0x5
 2418 007b 30050000 		.4byte	.LASF9
 2419 007f 02       		.uleb128 0x2
 2420 0080 9A110000 		.4byte	.LASF10
 2421 0084 02       		.byte	0x2
 2422 0085 41       		.byte	0x41
 2423 0086 8A000000 		.4byte	0x8a
 2424 008a 03       		.uleb128 0x3
 2425 008b 04       		.byte	0x4
 2426 008c 07       		.byte	0x7
ARM GAS  C:\Users\haske\AppData\Local\Temp\ccp0JrPn.s 			page 63


 2427 008d 350F0000 		.4byte	.LASF11
 2428 0091 03       		.uleb128 0x3
 2429 0092 08       		.byte	0x8
 2430 0093 05       		.byte	0x5
 2431 0094 CA110000 		.4byte	.LASF12
 2432 0098 03       		.uleb128 0x3
 2433 0099 08       		.byte	0x8
 2434 009a 07       		.byte	0x7
 2435 009b F5160000 		.4byte	.LASF13
 2436 009f 04       		.uleb128 0x4
 2437 00a0 04       		.byte	0x4
 2438 00a1 05       		.byte	0x5
 2439 00a2 696E7400 		.ascii	"int\000"
 2440 00a6 03       		.uleb128 0x3
 2441 00a7 04       		.byte	0x4
 2442 00a8 07       		.byte	0x7
 2443 00a9 5D130000 		.4byte	.LASF14
 2444 00ad 02       		.uleb128 0x2
 2445 00ae 1B000000 		.4byte	.LASF15
 2446 00b2 03       		.byte	0x3
 2447 00b3 14       		.byte	0x14
 2448 00b4 25000000 		.4byte	0x25
 2449 00b8 02       		.uleb128 0x2
 2450 00b9 BC060000 		.4byte	.LASF16
 2451 00bd 03       		.byte	0x3
 2452 00be 18       		.byte	0x18
 2453 00bf 37000000 		.4byte	0x37
 2454 00c3 02       		.uleb128 0x2
 2455 00c4 811A0000 		.4byte	.LASF17
 2456 00c8 03       		.byte	0x3
 2457 00c9 20       		.byte	0x20
 2458 00ca 49000000 		.4byte	0x49
 2459 00ce 02       		.uleb128 0x2
 2460 00cf 74170000 		.4byte	.LASF18
 2461 00d3 03       		.byte	0x3
 2462 00d4 24       		.byte	0x24
 2463 00d5 5B000000 		.4byte	0x5b
 2464 00d9 02       		.uleb128 0x2
 2465 00da 3D010000 		.4byte	.LASF19
 2466 00de 03       		.byte	0x3
 2467 00df 2C       		.byte	0x2c
 2468 00e0 6D000000 		.4byte	0x6d
 2469 00e4 02       		.uleb128 0x2
 2470 00e5 E31C0000 		.4byte	.LASF20
 2471 00e9 03       		.byte	0x3
 2472 00ea 30       		.byte	0x30
 2473 00eb 7F000000 		.4byte	0x7f
 2474 00ef 03       		.uleb128 0x3
 2475 00f0 08       		.byte	0x8
 2476 00f1 04       		.byte	0x4
 2477 00f2 2E160000 		.4byte	.LASF21
 2478 00f6 02       		.uleb128 0x2
 2479 00f7 231E0000 		.4byte	.LASF22
 2480 00fb 04       		.byte	0x4
 2481 00fc 1B       		.byte	0x1b
 2482 00fd C3000000 		.4byte	0xc3
 2483 0101 05       		.uleb128 0x5
ARM GAS  C:\Users\haske\AppData\Local\Temp\ccp0JrPn.s 			page 64


 2484 0102 04       		.byte	0x4
 2485 0103 04       		.byte	0x4
 2486 0104 25       		.byte	0x25
 2487 0105 1E010000 		.4byte	0x11e
 2488 0109 06       		.uleb128 0x6
 2489 010a 7800     		.ascii	"x\000"
 2490 010c 04       		.byte	0x4
 2491 010d 26       		.byte	0x26
 2492 010e F6000000 		.4byte	0xf6
 2493 0112 00       		.byte	0
 2494 0113 06       		.uleb128 0x6
 2495 0114 7900     		.ascii	"y\000"
 2496 0116 04       		.byte	0x4
 2497 0117 27       		.byte	0x27
 2498 0118 F6000000 		.4byte	0xf6
 2499 011c 02       		.byte	0x2
 2500 011d 00       		.byte	0
 2501 011e 02       		.uleb128 0x2
 2502 011f C6010000 		.4byte	.LASF23
 2503 0123 04       		.byte	0x4
 2504 0124 28       		.byte	0x28
 2505 0125 01010000 		.4byte	0x101
 2506 0129 05       		.uleb128 0x5
 2507 012a 08       		.byte	0x8
 2508 012b 04       		.byte	0x4
 2509 012c 2B       		.byte	0x2b
 2510 012d 5E010000 		.4byte	0x15e
 2511 0131 06       		.uleb128 0x6
 2512 0132 783100   		.ascii	"x1\000"
 2513 0135 04       		.byte	0x4
 2514 0136 2C       		.byte	0x2c
 2515 0137 F6000000 		.4byte	0xf6
 2516 013b 00       		.byte	0
 2517 013c 06       		.uleb128 0x6
 2518 013d 793100   		.ascii	"y1\000"
 2519 0140 04       		.byte	0x4
 2520 0141 2D       		.byte	0x2d
 2521 0142 F6000000 		.4byte	0xf6
 2522 0146 02       		.byte	0x2
 2523 0147 06       		.uleb128 0x6
 2524 0148 783200   		.ascii	"x2\000"
 2525 014b 04       		.byte	0x4
 2526 014c 2E       		.byte	0x2e
 2527 014d F6000000 		.4byte	0xf6
 2528 0151 04       		.byte	0x4
 2529 0152 06       		.uleb128 0x6
 2530 0153 793200   		.ascii	"y2\000"
 2531 0156 04       		.byte	0x4
 2532 0157 2F       		.byte	0x2f
 2533 0158 F6000000 		.4byte	0xf6
 2534 015c 06       		.byte	0x6
 2535 015d 00       		.byte	0
 2536 015e 02       		.uleb128 0x2
 2537 015f 740C0000 		.4byte	.LASF24
 2538 0163 04       		.byte	0x4
 2539 0164 30       		.byte	0x30
 2540 0165 29010000 		.4byte	0x129
ARM GAS  C:\Users\haske\AppData\Local\Temp\ccp0JrPn.s 			page 65


 2541 0169 02       		.uleb128 0x2
 2542 016a 280B0000 		.4byte	.LASF25
 2543 016e 04       		.byte	0x4
 2544 016f 59       		.byte	0x59
 2545 0170 B8000000 		.4byte	0xb8
 2546 0174 05       		.uleb128 0x5
 2547 0175 10       		.byte	0x10
 2548 0176 05       		.byte	0x5
 2549 0177 29       		.byte	0x29
 2550 0178 E3010000 		.4byte	0x1e3
 2551 017c 07       		.uleb128 0x7
 2552 017d D20F0000 		.4byte	.LASF26
 2553 0181 05       		.byte	0x5
 2554 0182 2B       		.byte	0x2b
 2555 0183 6B020000 		.4byte	0x26b
 2556 0187 00       		.byte	0
 2557 0188 07       		.uleb128 0x7
 2558 0189 64000000 		.4byte	.LASF27
 2559 018d 05       		.byte	0x5
 2560 018e 2C       		.byte	0x2c
 2561 018f CE000000 		.4byte	0xce
 2562 0193 04       		.byte	0x4
 2563 0194 07       		.uleb128 0x7
 2564 0195 BC190000 		.4byte	.LASF28
 2565 0199 05       		.byte	0x5
 2566 019a 2D       		.byte	0x2d
 2567 019b CE000000 		.4byte	0xce
 2568 019f 06       		.byte	0x6
 2569 01a0 07       		.uleb128 0x7
 2570 01a1 98190000 		.4byte	.LASF29
 2571 01a5 05       		.byte	0x5
 2572 01a6 2E       		.byte	0x2e
 2573 01a7 CE000000 		.4byte	0xce
 2574 01ab 08       		.byte	0x8
 2575 01ac 07       		.uleb128 0x7
 2576 01ad A0080000 		.4byte	.LASF30
 2577 01b1 05       		.byte	0x5
 2578 01b2 2F       		.byte	0x2f
 2579 01b3 C3000000 		.4byte	0xc3
 2580 01b7 0A       		.byte	0xa
 2581 01b8 07       		.uleb128 0x7
 2582 01b9 A6080000 		.4byte	.LASF31
 2583 01bd 05       		.byte	0x5
 2584 01be 30       		.byte	0x30
 2585 01bf C3000000 		.4byte	0xc3
 2586 01c3 0C       		.byte	0xc
 2587 01c4 08       		.uleb128 0x8
 2588 01c5 62707000 		.ascii	"bpp\000"
 2589 01c9 05       		.byte	0x5
 2590 01ca 31       		.byte	0x31
 2591 01cb B8000000 		.4byte	0xb8
 2592 01cf 01       		.byte	0x1
 2593 01d0 04       		.byte	0x4
 2594 01d1 04       		.byte	0x4
 2595 01d2 0E       		.byte	0xe
 2596 01d3 09       		.uleb128 0x9
 2597 01d4 82200000 		.4byte	.LASF32
ARM GAS  C:\Users\haske\AppData\Local\Temp\ccp0JrPn.s 			page 66


 2598 01d8 05       		.byte	0x5
 2599 01d9 32       		.byte	0x32
 2600 01da B8000000 		.4byte	0xb8
 2601 01de 01       		.byte	0x1
 2602 01df 01       		.byte	0x1
 2603 01e0 03       		.byte	0x3
 2604 01e1 0E       		.byte	0xe
 2605 01e2 00       		.byte	0
 2606 01e3 0A       		.uleb128 0xa
 2607 01e4 8F110000 		.4byte	.LASF154
 2608 01e8 1C       		.byte	0x1c
 2609 01e9 05       		.byte	0x5
 2610 01ea 40       		.byte	0x40
 2611 01eb 6B020000 		.4byte	0x26b
 2612 01ef 07       		.uleb128 0x7
 2613 01f0 F91E0000 		.4byte	.LASF33
 2614 01f4 05       		.byte	0x5
 2615 01f5 42       		.byte	0x42
 2616 01f6 AC020000 		.4byte	0x2ac
 2617 01fa 00       		.byte	0
 2618 01fb 07       		.uleb128 0x7
 2619 01fc 14070000 		.4byte	.LASF34
 2620 0200 05       		.byte	0x5
 2621 0201 45       		.byte	0x45
 2622 0202 D1020000 		.4byte	0x2d1
 2623 0206 04       		.byte	0x4
 2624 0207 07       		.uleb128 0x7
 2625 0208 D1010000 		.4byte	.LASF35
 2626 020c 05       		.byte	0x5
 2627 020d 48       		.byte	0x48
 2628 020e F6000000 		.4byte	0xf6
 2629 0212 08       		.byte	0x8
 2630 0213 07       		.uleb128 0x7
 2631 0214 CC190000 		.4byte	.LASF36
 2632 0218 05       		.byte	0x5
 2633 0219 49       		.byte	0x49
 2634 021a F6000000 		.4byte	0xf6
 2635 021e 0A       		.byte	0xa
 2636 021f 09       		.uleb128 0x9
 2637 0220 51160000 		.4byte	.LASF37
 2638 0224 05       		.byte	0x5
 2639 0225 4A       		.byte	0x4a
 2640 0226 B8000000 		.4byte	0xb8
 2641 022a 01       		.byte	0x1
 2642 022b 02       		.byte	0x2
 2643 022c 06       		.byte	0x6
 2644 022d 0C       		.byte	0xc
 2645 022e 07       		.uleb128 0x7
 2646 022f 380A0000 		.4byte	.LASF38
 2647 0233 05       		.byte	0x5
 2648 0234 4C       		.byte	0x4c
 2649 0235 AD000000 		.4byte	0xad
 2650 0239 0D       		.byte	0xd
 2651 023a 07       		.uleb128 0x7
 2652 023b A8120000 		.4byte	.LASF39
 2653 023f 05       		.byte	0x5
 2654 0240 4D       		.byte	0x4d
ARM GAS  C:\Users\haske\AppData\Local\Temp\ccp0JrPn.s 			page 67


 2655 0241 AD000000 		.4byte	0xad
 2656 0245 0E       		.byte	0xe
 2657 0246 06       		.uleb128 0x6
 2658 0247 64736300 		.ascii	"dsc\000"
 2659 024b 05       		.byte	0x5
 2660 024c 4F       		.byte	0x4f
 2661 024d D7020000 		.4byte	0x2d7
 2662 0251 10       		.byte	0x10
 2663 0252 07       		.uleb128 0x7
 2664 0253 3B0C0000 		.4byte	.LASF40
 2665 0257 05       		.byte	0x5
 2666 0258 50       		.byte	0x50
 2667 0259 6B020000 		.4byte	0x26b
 2668 025d 14       		.byte	0x14
 2669 025e 07       		.uleb128 0x7
 2670 025f 771E0000 		.4byte	.LASF41
 2671 0263 05       		.byte	0x5
 2672 0264 52       		.byte	0x52
 2673 0265 DE020000 		.4byte	0x2de
 2674 0269 18       		.byte	0x18
 2675 026a 00       		.byte	0
 2676 026b 0B       		.uleb128 0xb
 2677 026c 04       		.byte	0x4
 2678 026d 71020000 		.4byte	0x271
 2679 0271 0C       		.uleb128 0xc
 2680 0272 E3010000 		.4byte	0x1e3
 2681 0276 02       		.uleb128 0x2
 2682 0277 73140000 		.4byte	.LASF42
 2683 027b 05       		.byte	0x5
 2684 027c 33       		.byte	0x33
 2685 027d 74010000 		.4byte	0x174
 2686 0281 0D       		.uleb128 0xd
 2687 0282 9F020000 		.4byte	0x29f
 2688 0286 9F020000 		.4byte	0x29f
 2689 028a 0E       		.uleb128 0xe
 2690 028b 6B020000 		.4byte	0x26b
 2691 028f 0E       		.uleb128 0xe
 2692 0290 A6020000 		.4byte	0x2a6
 2693 0294 0E       		.uleb128 0xe
 2694 0295 E4000000 		.4byte	0xe4
 2695 0299 0E       		.uleb128 0xe
 2696 029a E4000000 		.4byte	0xe4
 2697 029e 00       		.byte	0
 2698 029f 03       		.uleb128 0x3
 2699 02a0 01       		.byte	0x1
 2700 02a1 02       		.byte	0x2
 2701 02a2 15090000 		.4byte	.LASF43
 2702 02a6 0B       		.uleb128 0xb
 2703 02a7 04       		.byte	0x4
 2704 02a8 76020000 		.4byte	0x276
 2705 02ac 0B       		.uleb128 0xb
 2706 02ad 04       		.byte	0x4
 2707 02ae 81020000 		.4byte	0x281
 2708 02b2 0D       		.uleb128 0xd
 2709 02b3 C6020000 		.4byte	0x2c6
 2710 02b7 C6020000 		.4byte	0x2c6
 2711 02bb 0E       		.uleb128 0xe
ARM GAS  C:\Users\haske\AppData\Local\Temp\ccp0JrPn.s 			page 68


 2712 02bc 6B020000 		.4byte	0x26b
 2713 02c0 0E       		.uleb128 0xe
 2714 02c1 E4000000 		.4byte	0xe4
 2715 02c5 00       		.byte	0
 2716 02c6 0B       		.uleb128 0xb
 2717 02c7 04       		.byte	0x4
 2718 02c8 CC020000 		.4byte	0x2cc
 2719 02cc 0C       		.uleb128 0xc
 2720 02cd B8000000 		.4byte	0xb8
 2721 02d1 0B       		.uleb128 0xb
 2722 02d2 04       		.byte	0x4
 2723 02d3 B2020000 		.4byte	0x2b2
 2724 02d7 0B       		.uleb128 0xb
 2725 02d8 04       		.byte	0x4
 2726 02d9 DD020000 		.4byte	0x2dd
 2727 02dd 0F       		.uleb128 0xf
 2728 02de 10       		.uleb128 0x10
 2729 02df 04       		.byte	0x4
 2730 02e0 02       		.uleb128 0x2
 2731 02e1 A11D0000 		.4byte	.LASF44
 2732 02e5 05       		.byte	0x5
 2733 02e6 54       		.byte	0x54
 2734 02e7 E3010000 		.4byte	0x1e3
 2735 02eb 03       		.uleb128 0x3
 2736 02ec 04       		.byte	0x4
 2737 02ed 07       		.byte	0x7
 2738 02ee 6A000000 		.4byte	.LASF45
 2739 02f2 0B       		.uleb128 0xb
 2740 02f3 04       		.byte	0x4
 2741 02f4 F8020000 		.4byte	0x2f8
 2742 02f8 03       		.uleb128 0x3
 2743 02f9 01       		.byte	0x1
 2744 02fa 08       		.byte	0x8
 2745 02fb 170A0000 		.4byte	.LASF46
 2746 02ff 05       		.uleb128 0x5
 2747 0300 02       		.byte	0x2
 2748 0301 06       		.byte	0x6
 2749 0302 D1       		.byte	0xd1
 2750 0303 35030000 		.4byte	0x335
 2751 0307 09       		.uleb128 0x9
 2752 0308 25070000 		.4byte	.LASF47
 2753 030c 06       		.byte	0x6
 2754 030d D3       		.byte	0xd3
 2755 030e CE000000 		.4byte	0xce
 2756 0312 02       		.byte	0x2
 2757 0313 05       		.byte	0x5
 2758 0314 0B       		.byte	0xb
 2759 0315 00       		.byte	0
 2760 0316 09       		.uleb128 0x9
 2761 0317 9B1D0000 		.4byte	.LASF48
 2762 031b 06       		.byte	0x6
 2763 031c D4       		.byte	0xd4
 2764 031d CE000000 		.4byte	0xce
 2765 0321 02       		.byte	0x2
 2766 0322 06       		.byte	0x6
 2767 0323 05       		.byte	0x5
 2768 0324 00       		.byte	0
ARM GAS  C:\Users\haske\AppData\Local\Temp\ccp0JrPn.s 			page 69


 2769 0325 08       		.uleb128 0x8
 2770 0326 72656400 		.ascii	"red\000"
 2771 032a 06       		.byte	0x6
 2772 032b D5       		.byte	0xd5
 2773 032c CE000000 		.4byte	0xce
 2774 0330 02       		.byte	0x2
 2775 0331 05       		.byte	0x5
 2776 0332 00       		.byte	0
 2777 0333 00       		.byte	0
 2778 0334 00       		.byte	0
 2779 0335 11       		.uleb128 0x11
 2780 0336 02       		.byte	0x2
 2781 0337 06       		.byte	0x6
 2782 0338 D0       		.byte	0xd0
 2783 0339 53030000 		.4byte	0x353
 2784 033d 12       		.uleb128 0x12
 2785 033e 636800   		.ascii	"ch\000"
 2786 0341 06       		.byte	0x6
 2787 0342 DC       		.byte	0xdc
 2788 0343 FF020000 		.4byte	0x2ff
 2789 0347 13       		.uleb128 0x13
 2790 0348 D1180000 		.4byte	.LASF49
 2791 034c 06       		.byte	0x6
 2792 034d DD       		.byte	0xdd
 2793 034e CE000000 		.4byte	0xce
 2794 0352 00       		.byte	0
 2795 0353 02       		.uleb128 0x2
 2796 0354 AF190000 		.4byte	.LASF50
 2797 0358 06       		.byte	0x6
 2798 0359 DE       		.byte	0xde
 2799 035a 35030000 		.4byte	0x335
 2800 035e 02       		.uleb128 0x2
 2801 035f 82170000 		.4byte	.LASF51
 2802 0363 06       		.byte	0x6
 2803 0364 EB       		.byte	0xeb
 2804 0365 53030000 		.4byte	0x353
 2805 0369 11       		.uleb128 0x11
 2806 036a 04       		.byte	0x4
 2807 036b 07       		.byte	0x7
 2808 036c A7       		.byte	0xa7
 2809 036d 93030000 		.4byte	0x393
 2810 0371 12       		.uleb128 0x12
 2811 0372 6E756D00 		.ascii	"num\000"
 2812 0376 07       		.byte	0x7
 2813 0377 A8       		.byte	0xa8
 2814 0378 D9000000 		.4byte	0xd9
 2815 037c 12       		.uleb128 0x12
 2816 037d 70747200 		.ascii	"ptr\000"
 2817 0381 07       		.byte	0x7
 2818 0382 A9       		.byte	0xa9
 2819 0383 D7020000 		.4byte	0x2d7
 2820 0387 13       		.uleb128 0x13
 2821 0388 D6180000 		.4byte	.LASF52
 2822 038c 07       		.byte	0x7
 2823 038d AA       		.byte	0xaa
 2824 038e 5E030000 		.4byte	0x35e
 2825 0392 00       		.byte	0
ARM GAS  C:\Users\haske\AppData\Local\Temp\ccp0JrPn.s 			page 70


 2826 0393 02       		.uleb128 0x2
 2827 0394 8C130000 		.4byte	.LASF53
 2828 0398 07       		.byte	0x7
 2829 0399 AB       		.byte	0xab
 2830 039a 69030000 		.4byte	0x369
 2831 039e 14       		.uleb128 0x14
 2832 039f 02       		.byte	0x2
 2833 03a0 66000000 		.4byte	0x66
 2834 03a4 07       		.byte	0x7
 2835 03a5 B2       		.byte	0xb2
 2836 03a6 C3050000 		.4byte	0x5c3
 2837 03aa 15       		.uleb128 0x15
 2838 03ab 2D0D0000 		.4byte	.LASF54
 2839 03af 00       		.byte	0
 2840 03b0 15       		.uleb128 0x15
 2841 03b1 AC170000 		.4byte	.LASF55
 2842 03b5 01       		.byte	0x1
 2843 03b6 15       		.uleb128 0x15
 2844 03b7 BB170000 		.4byte	.LASF56
 2845 03bb 02       		.byte	0x2
 2846 03bc 15       		.uleb128 0x15
 2847 03bd E2030000 		.4byte	.LASF57
 2848 03c1 03       		.byte	0x3
 2849 03c2 15       		.uleb128 0x15
 2850 03c3 3D020000 		.4byte	.LASF58
 2851 03c7 04       		.byte	0x4
 2852 03c8 15       		.uleb128 0x15
 2853 03c9 031C0000 		.4byte	.LASF59
 2854 03cd 05       		.byte	0x5
 2855 03ce 15       		.uleb128 0x15
 2856 03cf 38190000 		.4byte	.LASF60
 2857 03d3 06       		.byte	0x6
 2858 03d4 15       		.uleb128 0x15
 2859 03d5 7E1C0000 		.4byte	.LASF61
 2860 03d9 07       		.byte	0x7
 2861 03da 15       		.uleb128 0x15
 2862 03db 891C0000 		.4byte	.LASF62
 2863 03df 08       		.byte	0x8
 2864 03e0 15       		.uleb128 0x15
 2865 03e1 6D070000 		.4byte	.LASF63
 2866 03e5 09       		.byte	0x9
 2867 03e6 15       		.uleb128 0x15
 2868 03e7 63140000 		.4byte	.LASF64
 2869 03eb 0A       		.byte	0xa
 2870 03ec 15       		.uleb128 0x15
 2871 03ed C3030000 		.4byte	.LASF65
 2872 03f1 0B       		.byte	0xb
 2873 03f2 15       		.uleb128 0x15
 2874 03f3 F41A0000 		.4byte	.LASF66
 2875 03f7 10       		.byte	0x10
 2876 03f8 15       		.uleb128 0x15
 2877 03f9 1B0E0000 		.4byte	.LASF67
 2878 03fd 11       		.byte	0x11
 2879 03fe 15       		.uleb128 0x15
 2880 03ff 96100000 		.4byte	.LASF68
 2881 0403 12       		.byte	0x12
 2882 0404 15       		.uleb128 0x15
ARM GAS  C:\Users\haske\AppData\Local\Temp\ccp0JrPn.s 			page 71


 2883 0405 EF040000 		.4byte	.LASF69
 2884 0409 13       		.byte	0x13
 2885 040a 15       		.uleb128 0x15
 2886 040b 42100000 		.4byte	.LASF70
 2887 040f 14       		.byte	0x14
 2888 0410 15       		.uleb128 0x15
 2889 0411 5F030000 		.4byte	.LASF71
 2890 0415 15       		.byte	0x15
 2891 0416 15       		.uleb128 0x15
 2892 0417 720A0000 		.4byte	.LASF72
 2893 041b 16       		.byte	0x16
 2894 041c 15       		.uleb128 0x15
 2895 041d 22150000 		.4byte	.LASF73
 2896 0421 17       		.byte	0x17
 2897 0422 15       		.uleb128 0x15
 2898 0423 E90A0000 		.4byte	.LASF74
 2899 0427 20       		.byte	0x20
 2900 0428 15       		.uleb128 0x15
 2901 0429 7E0E0000 		.4byte	.LASF75
 2902 042d 21       		.byte	0x21
 2903 042e 15       		.uleb128 0x15
 2904 042f 81190000 		.4byte	.LASF76
 2905 0433 22       		.byte	0x22
 2906 0434 15       		.uleb128 0x15
 2907 0435 FF060000 		.4byte	.LASF77
 2908 0439 23       		.byte	0x23
 2909 043a 15       		.uleb128 0x15
 2910 043b 6B020000 		.4byte	.LASF78
 2911 043f 24       		.byte	0x24
 2912 0440 15       		.uleb128 0x15
 2913 0441 25170000 		.4byte	.LASF79
 2914 0445 25       		.byte	0x25
 2915 0446 15       		.uleb128 0x15
 2916 0447 5F200000 		.4byte	.LASF80
 2917 044b 26       		.byte	0x26
 2918 044c 15       		.uleb128 0x15
 2919 044d 7C030000 		.4byte	.LASF81
 2920 0451 27       		.byte	0x27
 2921 0452 15       		.uleb128 0x15
 2922 0453 05180000 		.4byte	.LASF82
 2923 0457 28       		.byte	0x28
 2924 0458 15       		.uleb128 0x15
 2925 0459 1D1B0000 		.4byte	.LASF83
 2926 045d 29       		.byte	0x29
 2927 045e 15       		.uleb128 0x15
 2928 045f 07040000 		.4byte	.LASF84
 2929 0463 2A       		.byte	0x2a
 2930 0464 15       		.uleb128 0x15
 2931 0465 62050000 		.4byte	.LASF85
 2932 0469 2B       		.byte	0x2b
 2933 046a 15       		.uleb128 0x15
 2934 046b F0050000 		.4byte	.LASF86
 2935 046f 2C       		.byte	0x2c
 2936 0470 15       		.uleb128 0x15
 2937 0471 97160000 		.4byte	.LASF87
 2938 0475 30       		.byte	0x30
 2939 0476 15       		.uleb128 0x15
ARM GAS  C:\Users\haske\AppData\Local\Temp\ccp0JrPn.s 			page 72


 2940 0477 0B060000 		.4byte	.LASF88
 2941 047b 31       		.byte	0x31
 2942 047c 15       		.uleb128 0x15
 2943 047d 16030000 		.4byte	.LASF89
 2944 0481 32       		.byte	0x32
 2945 0482 15       		.uleb128 0x15
 2946 0483 3B170000 		.4byte	.LASF90
 2947 0487 33       		.byte	0x33
 2948 0488 15       		.uleb128 0x15
 2949 0489 691C0000 		.4byte	.LASF91
 2950 048d 34       		.byte	0x34
 2951 048e 15       		.uleb128 0x15
 2952 048f 7E0C0000 		.4byte	.LASF92
 2953 0493 35       		.byte	0x35
 2954 0494 15       		.uleb128 0x15
 2955 0495 601E0000 		.4byte	.LASF93
 2956 0499 36       		.byte	0x36
 2957 049a 15       		.uleb128 0x15
 2958 049b 840A0000 		.4byte	.LASF94
 2959 049f 37       		.byte	0x37
 2960 04a0 15       		.uleb128 0x15
 2961 04a1 9D200000 		.4byte	.LASF95
 2962 04a5 38       		.byte	0x38
 2963 04a6 15       		.uleb128 0x15
 2964 04a7 BF140000 		.4byte	.LASF96
 2965 04ab 40       		.byte	0x40
 2966 04ac 15       		.uleb128 0x15
 2967 04ad D9170000 		.4byte	.LASF97
 2968 04b1 41       		.byte	0x41
 2969 04b2 15       		.uleb128 0x15
 2970 04b3 EF170000 		.4byte	.LASF98
 2971 04b7 42       		.byte	0x42
 2972 04b8 15       		.uleb128 0x15
 2973 04b9 B41E0000 		.4byte	.LASF99
 2974 04bd 43       		.byte	0x43
 2975 04be 15       		.uleb128 0x15
 2976 04bf 58060000 		.4byte	.LASF100
 2977 04c3 44       		.byte	0x44
 2978 04c4 15       		.uleb128 0x15
 2979 04c5 3C040000 		.4byte	.LASF101
 2980 04c9 45       		.byte	0x45
 2981 04ca 15       		.uleb128 0x15
 2982 04cb FD0E0000 		.4byte	.LASF102
 2983 04cf 46       		.byte	0x46
 2984 04d0 15       		.uleb128 0x15
 2985 04d1 69080000 		.4byte	.LASF103
 2986 04d5 47       		.byte	0x47
 2987 04d6 15       		.uleb128 0x15
 2988 04d7 FB0A0000 		.4byte	.LASF104
 2989 04db 48       		.byte	0x48
 2990 04dc 15       		.uleb128 0x15
 2991 04dd 311B0000 		.4byte	.LASF105
 2992 04e1 49       		.byte	0x49
 2993 04e2 15       		.uleb128 0x15
 2994 04e3 EA0B0000 		.4byte	.LASF106
 2995 04e7 4A       		.byte	0x4a
 2996 04e8 15       		.uleb128 0x15
ARM GAS  C:\Users\haske\AppData\Local\Temp\ccp0JrPn.s 			page 73


 2997 04e9 AB000000 		.4byte	.LASF107
 2998 04ed 4B       		.byte	0x4b
 2999 04ee 15       		.uleb128 0x15
 3000 04ef 941C0000 		.4byte	.LASF108
 3001 04f3 4C       		.byte	0x4c
 3002 04f4 15       		.uleb128 0x15
 3003 04f5 1B100000 		.4byte	.LASF109
 3004 04f9 4D       		.byte	0x4d
 3005 04fa 15       		.uleb128 0x15
 3006 04fb 8E0E0000 		.4byte	.LASF110
 3007 04ff 4E       		.byte	0x4e
 3008 0500 15       		.uleb128 0x15
 3009 0501 7E080000 		.4byte	.LASF111
 3010 0505 50       		.byte	0x50
 3011 0506 15       		.uleb128 0x15
 3012 0507 D0120000 		.4byte	.LASF112
 3013 050b 51       		.byte	0x51
 3014 050c 15       		.uleb128 0x15
 3015 050d 5F1A0000 		.4byte	.LASF113
 3016 0511 52       		.byte	0x52
 3017 0512 15       		.uleb128 0x15
 3018 0513 2C010000 		.4byte	.LASF114
 3019 0517 53       		.byte	0x53
 3020 0518 15       		.uleb128 0x15
 3021 0519 32180000 		.4byte	.LASF115
 3022 051d 54       		.byte	0x54
 3023 051e 15       		.uleb128 0x15
 3024 051f 06130000 		.4byte	.LASF116
 3025 0523 55       		.byte	0x55
 3026 0524 15       		.uleb128 0x15
 3027 0525 8A0F0000 		.4byte	.LASF117
 3028 0529 56       		.byte	0x56
 3029 052a 15       		.uleb128 0x15
 3030 052b 7D180000 		.4byte	.LASF118
 3031 052f 57       		.byte	0x57
 3032 0530 15       		.uleb128 0x15
 3033 0531 C8200000 		.4byte	.LASF119
 3034 0535 58       		.byte	0x58
 3035 0536 15       		.uleb128 0x15
 3036 0537 520D0000 		.4byte	.LASF120
 3037 053b 59       		.byte	0x59
 3038 053c 15       		.uleb128 0x15
 3039 053d BC120000 		.4byte	.LASF121
 3040 0541 5A       		.byte	0x5a
 3041 0542 15       		.uleb128 0x15
 3042 0543 42110000 		.4byte	.LASF122
 3043 0547 5B       		.byte	0x5b
 3044 0548 15       		.uleb128 0x15
 3045 0549 22000000 		.4byte	.LASF123
 3046 054d 60       		.byte	0x60
 3047 054e 15       		.uleb128 0x15
 3048 054f 6B120000 		.4byte	.LASF124
 3049 0553 61       		.byte	0x61
 3050 0554 15       		.uleb128 0x15
 3051 0555 F5150000 		.4byte	.LASF125
 3052 0559 62       		.byte	0x62
 3053 055a 15       		.uleb128 0x15
ARM GAS  C:\Users\haske\AppData\Local\Temp\ccp0JrPn.s 			page 74


 3054 055b 1E110000 		.4byte	.LASF126
 3055 055f 63       		.byte	0x63
 3056 0560 15       		.uleb128 0x15
 3057 0561 080E0000 		.4byte	.LASF127
 3058 0565 64       		.byte	0x64
 3059 0566 15       		.uleb128 0x15
 3060 0567 600C0000 		.4byte	.LASF128
 3061 056b 65       		.byte	0x65
 3062 056c 15       		.uleb128 0x15
 3063 056d 39050000 		.4byte	.LASF129
 3064 0571 66       		.byte	0x66
 3065 0572 15       		.uleb128 0x15
 3066 0573 140B0000 		.4byte	.LASF130
 3067 0577 67       		.byte	0x67
 3068 0578 15       		.uleb128 0x15
 3069 0579 030C0000 		.4byte	.LASF131
 3070 057d 68       		.byte	0x68
 3071 057e 15       		.uleb128 0x15
 3072 057f BE040000 		.4byte	.LASF132
 3073 0583 69       		.byte	0x69
 3074 0584 15       		.uleb128 0x15
 3075 0585 2A090000 		.4byte	.LASF133
 3076 0589 6A       		.byte	0x6a
 3077 058a 15       		.uleb128 0x15
 3078 058b 3F090000 		.4byte	.LASF134
 3079 058f 6B       		.byte	0x6b
 3080 0590 15       		.uleb128 0x15
 3081 0591 0E0F0000 		.4byte	.LASF135
 3082 0595 6C       		.byte	0x6c
 3083 0596 15       		.uleb128 0x15
 3084 0597 39120000 		.4byte	.LASF136
 3085 059b 6D       		.byte	0x6d
 3086 059c 15       		.uleb128 0x15
 3087 059d 08080000 		.4byte	.LASF137
 3088 05a1 6E       		.byte	0x6e
 3089 05a2 15       		.uleb128 0x15
 3090 05a3 23080000 		.4byte	.LASF138
 3091 05a7 6F       		.byte	0x6f
 3092 05a8 15       		.uleb128 0x15
 3093 05a9 9E020000 		.4byte	.LASF139
 3094 05ad 6F       		.byte	0x6f
 3095 05ae 15       		.uleb128 0x15
 3096 05af D71A0000 		.4byte	.LASF140
 3097 05b3 70       		.byte	0x70
 3098 05b4 16       		.uleb128 0x16
 3099 05b5 B2180000 		.4byte	.LASF141
 3100 05b9 FFFF     		.2byte	0xffff
 3101 05bb 16       		.uleb128 0x16
 3102 05bc D8130000 		.4byte	.LASF142
 3103 05c0 FFFF     		.2byte	0xffff
 3104 05c2 00       		.byte	0
 3105 05c3 17       		.uleb128 0x17
 3106 05c4 240C0000 		.4byte	.LASF143
 3107 05c8 07       		.byte	0x7
 3108 05c9 1C01     		.2byte	0x11c
 3109 05cb 9E030000 		.4byte	0x39e
 3110 05cf 18       		.uleb128 0x18
ARM GAS  C:\Users\haske\AppData\Local\Temp\ccp0JrPn.s 			page 75


 3111 05d0 08       		.byte	0x8
 3112 05d1 07       		.byte	0x7
 3113 05d2 3601     		.2byte	0x136
 3114 05d4 F3050000 		.4byte	0x5f3
 3115 05d8 19       		.uleb128 0x19
 3116 05d9 480B0000 		.4byte	.LASF144
 3117 05dd 07       		.byte	0x7
 3118 05de 3701     		.2byte	0x137
 3119 05e0 C3050000 		.4byte	0x5c3
 3120 05e4 00       		.byte	0
 3121 05e5 19       		.uleb128 0x19
 3122 05e6 F6090000 		.4byte	.LASF145
 3123 05ea 07       		.byte	0x7
 3124 05eb 3801     		.2byte	0x138
 3125 05ed 93030000 		.4byte	0x393
 3126 05f1 04       		.byte	0x4
 3127 05f2 00       		.byte	0
 3128 05f3 17       		.uleb128 0x17
 3129 05f4 7A0D0000 		.4byte	.LASF146
 3130 05f8 07       		.byte	0x7
 3131 05f9 3901     		.2byte	0x139
 3132 05fb CF050000 		.4byte	0x5cf
 3133 05ff 1A       		.uleb128 0x1a
 3134 0600 04       		.byte	0x4
 3135 0601 07       		.byte	0x7
 3136 0602 4601     		.2byte	0x146
 3137 0604 2D060000 		.4byte	0x62d
 3138 0608 1B       		.uleb128 0x1b
 3139 0609 47180000 		.4byte	.LASF147
 3140 060d 07       		.byte	0x7
 3141 060e 4701     		.2byte	0x147
 3142 0610 93030000 		.4byte	0x393
 3143 0614 1B       		.uleb128 0x1b
 3144 0615 440C0000 		.4byte	.LASF148
 3145 0619 07       		.byte	0x7
 3146 061a 4801     		.2byte	0x148
 3147 061c 2D060000 		.4byte	0x62d
 3148 0620 1B       		.uleb128 0x1b
 3149 0621 4D0B0000 		.4byte	.LASF149
 3150 0625 07       		.byte	0x7
 3151 0626 4901     		.2byte	0x149
 3152 0628 33060000 		.4byte	0x633
 3153 062c 00       		.byte	0
 3154 062d 0B       		.uleb128 0xb
 3155 062e 04       		.byte	0x4
 3156 062f B8000000 		.4byte	0xb8
 3157 0633 0B       		.uleb128 0xb
 3158 0634 04       		.byte	0x4
 3159 0635 39060000 		.4byte	0x639
 3160 0639 0C       		.uleb128 0xc
 3161 063a F3050000 		.4byte	0x5f3
 3162 063e 18       		.uleb128 0x18
 3163 063f 08       		.byte	0x8
 3164 0640 07       		.byte	0x7
 3165 0641 3E01     		.2byte	0x13e
 3166 0643 7C060000 		.4byte	0x67c
 3167 0647 1C       		.uleb128 0x1c
ARM GAS  C:\Users\haske\AppData\Local\Temp\ccp0JrPn.s 			page 76


 3168 0648 765F7000 		.ascii	"v_p\000"
 3169 064c 07       		.byte	0x7
 3170 064d 4A01     		.2byte	0x14a
 3171 064f FF050000 		.4byte	0x5ff
 3172 0653 00       		.byte	0
 3173 0654 19       		.uleb128 0x19
 3174 0655 B31B0000 		.4byte	.LASF150
 3175 0659 07       		.byte	0x7
 3176 065a 4C01     		.2byte	0x14c
 3177 065c CE000000 		.4byte	0xce
 3178 0660 04       		.byte	0x4
 3179 0661 19       		.uleb128 0x19
 3180 0662 AC010000 		.4byte	.LASF151
 3181 0666 07       		.byte	0x7
 3182 0667 4D01     		.2byte	0x14d
 3183 0669 B8000000 		.4byte	0xb8
 3184 066d 06       		.byte	0x6
 3185 066e 19       		.uleb128 0x19
 3186 066f 12000000 		.4byte	.LASF152
 3187 0673 07       		.byte	0x7
 3188 0674 4E01     		.2byte	0x14e
 3189 0676 B8000000 		.4byte	0xb8
 3190 067a 07       		.byte	0x7
 3191 067b 00       		.byte	0
 3192 067c 17       		.uleb128 0x17
 3193 067d A00E0000 		.4byte	.LASF153
 3194 0681 07       		.byte	0x7
 3195 0682 4F01     		.2byte	0x14f
 3196 0684 3E060000 		.4byte	0x63e
 3197 0688 0B       		.uleb128 0xb
 3198 0689 04       		.byte	0x4
 3199 068a 8E060000 		.4byte	0x68e
 3200 068e 0A       		.uleb128 0xa
 3201 068f 2E190000 		.4byte	.LASF155
 3202 0693 24       		.byte	0x24
 3203 0694 08       		.byte	0x8
 3204 0695 AE       		.byte	0xae
 3205 0696 55070000 		.4byte	0x755
 3206 069a 07       		.uleb128 0x7
 3207 069b 3C130000 		.4byte	.LASF156
 3208 069f 08       		.byte	0x8
 3209 06a0 AF       		.byte	0xaf
 3210 06a1 B70D0000 		.4byte	0xdb7
 3211 06a5 00       		.byte	0
 3212 06a6 07       		.uleb128 0x7
 3213 06a7 A70D0000 		.4byte	.LASF157
 3214 06ab 08       		.byte	0x8
 3215 06ac B0       		.byte	0xb0
 3216 06ad 88060000 		.4byte	0x688
 3217 06b1 04       		.byte	0x4
 3218 06b2 07       		.uleb128 0x7
 3219 06b3 DD010000 		.4byte	.LASF158
 3220 06b7 08       		.byte	0x8
 3221 06b8 B1       		.byte	0xb1
 3222 06b9 C20D0000 		.4byte	0xdc2
 3223 06bd 08       		.byte	0x8
 3224 06be 07       		.uleb128 0x7
ARM GAS  C:\Users\haske\AppData\Local\Temp\ccp0JrPn.s 			page 77


 3225 06bf DC0E0000 		.4byte	.LASF159
 3226 06c3 08       		.byte	0x8
 3227 06c4 B2       		.byte	0xb2
 3228 06c5 C80D0000 		.4byte	0xdc8
 3229 06c9 0C       		.byte	0xc
 3230 06ca 07       		.uleb128 0x7
 3231 06cb 771E0000 		.4byte	.LASF41
 3232 06cf 08       		.byte	0x8
 3233 06d0 B4       		.byte	0xb4
 3234 06d1 DE020000 		.4byte	0x2de
 3235 06d5 10       		.byte	0x10
 3236 06d6 07       		.uleb128 0x7
 3237 06d7 BF1A0000 		.4byte	.LASF160
 3238 06db 08       		.byte	0x8
 3239 06dc B6       		.byte	0xb6
 3240 06dd 5E010000 		.4byte	0x15e
 3241 06e1 14       		.byte	0x14
 3242 06e2 07       		.uleb128 0x7
 3243 06e3 FC090000 		.4byte	.LASF161
 3244 06e7 08       		.byte	0x8
 3245 06e8 B7       		.byte	0xb7
 3246 06e9 8D090000 		.4byte	0x98d
 3247 06ed 1C       		.byte	0x1c
 3248 06ee 07       		.uleb128 0x7
 3249 06ef 2F020000 		.4byte	.LASF162
 3250 06f3 08       		.byte	0x8
 3251 06f4 B8       		.byte	0xb8
 3252 06f5 9A080000 		.4byte	0x89a
 3253 06f9 20       		.byte	0x20
 3254 06fa 09       		.uleb128 0x9
 3255 06fb 92060000 		.4byte	.LASF163
 3256 06ff 08       		.byte	0x8
 3257 0700 B9       		.byte	0xb9
 3258 0701 CE000000 		.4byte	0xce
 3259 0705 02       		.byte	0x2
 3260 0706 01       		.byte	0x1
 3261 0707 0F       		.byte	0xf
 3262 0708 22       		.byte	0x22
 3263 0709 09       		.uleb128 0x9
 3264 070a D3030000 		.4byte	.LASF164
 3265 070e 08       		.byte	0x8
 3266 070f BA       		.byte	0xba
 3267 0710 CE000000 		.4byte	0xce
 3268 0714 02       		.byte	0x2
 3269 0715 01       		.byte	0x1
 3270 0716 0E       		.byte	0xe
 3271 0717 22       		.byte	0x22
 3272 0718 09       		.uleb128 0x9
 3273 0719 FB120000 		.4byte	.LASF165
 3274 071d 08       		.byte	0x8
 3275 071e BB       		.byte	0xbb
 3276 071f CE000000 		.4byte	0xce
 3277 0723 02       		.byte	0x2
 3278 0724 01       		.byte	0x1
 3279 0725 0D       		.byte	0xd
 3280 0726 22       		.byte	0x22
 3281 0727 09       		.uleb128 0x9
ARM GAS  C:\Users\haske\AppData\Local\Temp\ccp0JrPn.s 			page 78


 3282 0728 6E060000 		.4byte	.LASF166
 3283 072c 08       		.byte	0x8
 3284 072d BC       		.byte	0xbc
 3285 072e CE000000 		.4byte	0xce
 3286 0732 02       		.byte	0x2
 3287 0733 06       		.byte	0x6
 3288 0734 07       		.byte	0x7
 3289 0735 22       		.byte	0x22
 3290 0736 09       		.uleb128 0x9
 3291 0737 DA080000 		.4byte	.LASF167
 3292 073b 08       		.byte	0x8
 3293 073c BD       		.byte	0xbd
 3294 073d CE000000 		.4byte	0xce
 3295 0741 02       		.byte	0x2
 3296 0742 01       		.byte	0x1
 3297 0743 06       		.byte	0x6
 3298 0744 22       		.byte	0x22
 3299 0745 09       		.uleb128 0x9
 3300 0746 A8030000 		.4byte	.LASF168
 3301 074a 08       		.byte	0x8
 3302 074b BE       		.byte	0xbe
 3303 074c CE000000 		.4byte	0xce
 3304 0750 02       		.byte	0x2
 3305 0751 01       		.byte	0x1
 3306 0752 05       		.byte	0x5
 3307 0753 22       		.byte	0x22
 3308 0754 00       		.byte	0
 3309 0755 0C       		.uleb128 0xc
 3310 0756 E0020000 		.4byte	0x2e0
 3311 075a 02       		.uleb128 0x2
 3312 075b 4A000000 		.4byte	.LASF169
 3313 075f 09       		.byte	0x9
 3314 0760 1D       		.byte	0x1d
 3315 0761 B8000000 		.4byte	0xb8
 3316 0765 05       		.uleb128 0x5
 3317 0766 0C       		.byte	0xc
 3318 0767 09       		.byte	0x9
 3319 0768 20       		.byte	0x20
 3320 0769 92070000 		.4byte	0x792
 3321 076d 07       		.uleb128 0x7
 3322 076e 4C200000 		.4byte	.LASF170
 3323 0772 09       		.byte	0x9
 3324 0773 21       		.byte	0x21
 3325 0774 E4000000 		.4byte	0xe4
 3326 0778 00       		.byte	0
 3327 0779 07       		.uleb128 0x7
 3328 077a 06060000 		.4byte	.LASF171
 3329 077e 09       		.byte	0x9
 3330 077f 22       		.byte	0x22
 3331 0780 92070000 		.4byte	0x792
 3332 0784 04       		.byte	0x4
 3333 0785 07       		.uleb128 0x7
 3334 0786 00010000 		.4byte	.LASF172
 3335 078a 09       		.byte	0x9
 3336 078b 23       		.byte	0x23
 3337 078c 92070000 		.4byte	0x792
 3338 0790 08       		.byte	0x8
ARM GAS  C:\Users\haske\AppData\Local\Temp\ccp0JrPn.s 			page 79


 3339 0791 00       		.byte	0
 3340 0792 0B       		.uleb128 0xb
 3341 0793 04       		.byte	0x4
 3342 0794 5A070000 		.4byte	0x75a
 3343 0798 02       		.uleb128 0x2
 3344 0799 D6190000 		.4byte	.LASF173
 3345 079d 09       		.byte	0x9
 3346 079e 24       		.byte	0x24
 3347 079f 65070000 		.4byte	0x765
 3348 07a3 0B       		.uleb128 0xb
 3349 07a4 04       		.byte	0x4
 3350 07a5 88060000 		.4byte	0x688
 3351 07a9 0A       		.uleb128 0xa
 3352 07aa 53200000 		.4byte	.LASF174
 3353 07ae 20       		.byte	0x20
 3354 07af 0A       		.byte	0xa
 3355 07b0 3B       		.byte	0x3b
 3356 07b1 2E080000 		.4byte	0x82e
 3357 07b5 07       		.uleb128 0x7
 3358 07b6 F60F0000 		.4byte	.LASF175
 3359 07ba 0A       		.byte	0xa
 3360 07bb 3C       		.byte	0x3c
 3361 07bc 98070000 		.4byte	0x798
 3362 07c0 00       		.byte	0
 3363 07c1 07       		.uleb128 0x7
 3364 07c2 BE200000 		.4byte	.LASF176
 3365 07c6 0A       		.byte	0xa
 3366 07c7 3D       		.byte	0x3d
 3367 07c8 A3070000 		.4byte	0x7a3
 3368 07cc 0C       		.byte	0xc
 3369 07cd 07       		.uleb128 0x7
 3370 07ce 9F150000 		.4byte	.LASF177
 3371 07d2 0A       		.byte	0xa
 3372 07d3 3F       		.byte	0x3f
 3373 07d4 9C0C0000 		.4byte	0xc9c
 3374 07d8 10       		.byte	0x10
 3375 07d9 07       		.uleb128 0x7
 3376 07da E8050000 		.4byte	.LASF178
 3377 07de 0A       		.byte	0xa
 3378 07df 40       		.byte	0x40
 3379 07e0 B80C0000 		.4byte	0xcb8
 3380 07e4 14       		.byte	0x14
 3381 07e5 07       		.uleb128 0x7
 3382 07e6 771E0000 		.4byte	.LASF41
 3383 07ea 0A       		.byte	0xa
 3384 07eb 45       		.byte	0x45
 3385 07ec DE020000 		.4byte	0x2de
 3386 07f0 18       		.byte	0x18
 3387 07f1 09       		.uleb128 0x9
 3388 07f2 43060000 		.4byte	.LASF179
 3389 07f6 0A       		.byte	0xa
 3390 07f7 48       		.byte	0x48
 3391 07f8 B8000000 		.4byte	0xb8
 3392 07fc 01       		.byte	0x1
 3393 07fd 01       		.byte	0x1
 3394 07fe 07       		.byte	0x7
 3395 07ff 1C       		.byte	0x1c
ARM GAS  C:\Users\haske\AppData\Local\Temp\ccp0JrPn.s 			page 80


 3396 0800 09       		.uleb128 0x9
 3397 0801 DE160000 		.4byte	.LASF180
 3398 0805 0A       		.byte	0xa
 3399 0806 49       		.byte	0x49
 3400 0807 B8000000 		.4byte	0xb8
 3401 080b 01       		.byte	0x1
 3402 080c 01       		.byte	0x1
 3403 080d 06       		.byte	0x6
 3404 080e 1C       		.byte	0x1c
 3405 080f 09       		.uleb128 0x9
 3406 0810 3B1F0000 		.4byte	.LASF181
 3407 0814 0A       		.byte	0xa
 3408 0815 4A       		.byte	0x4a
 3409 0816 B8000000 		.4byte	0xb8
 3410 081a 01       		.byte	0x1
 3411 081b 01       		.byte	0x1
 3412 081c 05       		.byte	0x5
 3413 081d 1C       		.byte	0x1c
 3414 081e 09       		.uleb128 0x9
 3415 081f 7D170000 		.4byte	.LASF182
 3416 0823 0A       		.byte	0xa
 3417 0824 4C       		.byte	0x4c
 3418 0825 B8000000 		.4byte	0xb8
 3419 0829 01       		.byte	0x1
 3420 082a 01       		.byte	0x1
 3421 082b 04       		.byte	0x4
 3422 082c 1C       		.byte	0x1c
 3423 082d 00       		.byte	0
 3424 082e 0B       		.uleb128 0xb
 3425 082f 04       		.byte	0x4
 3426 0830 A9070000 		.4byte	0x7a9
 3427 0834 14       		.uleb128 0x14
 3428 0835 02       		.byte	0x2
 3429 0836 66000000 		.4byte	0x66
 3430 083a 08       		.byte	0x8
 3431 083b 29       		.byte	0x29
 3432 083c 9A080000 		.4byte	0x89a
 3433 0840 15       		.uleb128 0x15
 3434 0841 9E190000 		.4byte	.LASF183
 3435 0845 00       		.byte	0
 3436 0846 15       		.uleb128 0x15
 3437 0847 C61A0000 		.4byte	.LASF184
 3438 084b 01       		.byte	0x1
 3439 084c 15       		.uleb128 0x15
 3440 084d 8B1F0000 		.4byte	.LASF185
 3441 0851 02       		.byte	0x2
 3442 0852 15       		.uleb128 0x15
 3443 0853 8F050000 		.4byte	.LASF186
 3444 0857 04       		.byte	0x4
 3445 0858 15       		.uleb128 0x15
 3446 0859 7F0B0000 		.4byte	.LASF187
 3447 085d 08       		.byte	0x8
 3448 085e 15       		.uleb128 0x15
 3449 085f 7E050000 		.4byte	.LASF188
 3450 0863 10       		.byte	0x10
 3451 0864 15       		.uleb128 0x15
 3452 0865 C0150000 		.4byte	.LASF189
ARM GAS  C:\Users\haske\AppData\Local\Temp\ccp0JrPn.s 			page 81


 3453 0869 20       		.byte	0x20
 3454 086a 15       		.uleb128 0x15
 3455 086b C50A0000 		.4byte	.LASF190
 3456 086f 40       		.byte	0x40
 3457 0870 15       		.uleb128 0x15
 3458 0871 53100000 		.4byte	.LASF191
 3459 0875 80       		.byte	0x80
 3460 0876 16       		.uleb128 0x16
 3461 0877 171C0000 		.4byte	.LASF192
 3462 087b 0010     		.2byte	0x1000
 3463 087d 16       		.uleb128 0x16
 3464 087e 271C0000 		.4byte	.LASF193
 3465 0882 0020     		.2byte	0x2000
 3466 0884 16       		.uleb128 0x16
 3467 0885 371C0000 		.4byte	.LASF194
 3468 0889 0040     		.2byte	0x4000
 3469 088b 16       		.uleb128 0x16
 3470 088c 471C0000 		.4byte	.LASF195
 3471 0890 0080     		.2byte	0x8000
 3472 0892 16       		.uleb128 0x16
 3473 0893 1F060000 		.4byte	.LASF196
 3474 0897 FFFF     		.2byte	0xffff
 3475 0899 00       		.byte	0
 3476 089a 02       		.uleb128 0x2
 3477 089b A2050000 		.4byte	.LASF197
 3478 089f 08       		.byte	0x8
 3479 08a0 3C       		.byte	0x3c
 3480 08a1 CE000000 		.4byte	0xce
 3481 08a5 14       		.uleb128 0x14
 3482 08a6 04       		.byte	0x4
 3483 08a7 A6000000 		.4byte	0xa6
 3484 08ab 08       		.byte	0x8
 3485 08ac 59       		.byte	0x59
 3486 08ad 8D090000 		.4byte	0x98d
 3487 08b1 15       		.uleb128 0x15
 3488 08b2 2F100000 		.4byte	.LASF198
 3489 08b6 01       		.byte	0x1
 3490 08b7 15       		.uleb128 0x15
 3491 08b8 E5120000 		.4byte	.LASF199
 3492 08bc 02       		.byte	0x2
 3493 08bd 15       		.uleb128 0x15
 3494 08be 65190000 		.4byte	.LASF200
 3495 08c2 04       		.byte	0x4
 3496 08c3 15       		.uleb128 0x15
 3497 08c4 E00F0000 		.4byte	.LASF201
 3498 08c8 08       		.byte	0x8
 3499 08c9 15       		.uleb128 0x15
 3500 08ca D8040000 		.4byte	.LASF202
 3501 08ce 10       		.byte	0x10
 3502 08cf 15       		.uleb128 0x15
 3503 08d0 8D120000 		.4byte	.LASF203
 3504 08d4 20       		.byte	0x20
 3505 08d5 15       		.uleb128 0x15
 3506 08d6 6E0F0000 		.4byte	.LASF204
 3507 08da 40       		.byte	0x40
 3508 08db 15       		.uleb128 0x15
 3509 08dc 1C200000 		.4byte	.LASF205
ARM GAS  C:\Users\haske\AppData\Local\Temp\ccp0JrPn.s 			page 82


 3510 08e0 80       		.byte	0x80
 3511 08e1 16       		.uleb128 0x16
 3512 08e2 FC1C0000 		.4byte	.LASF206
 3513 08e6 0001     		.2byte	0x100
 3514 08e8 16       		.uleb128 0x16
 3515 08e9 610E0000 		.4byte	.LASF207
 3516 08ed 0002     		.2byte	0x200
 3517 08ef 16       		.uleb128 0x16
 3518 08f0 2A070000 		.4byte	.LASF208
 3519 08f4 0003     		.2byte	0x300
 3520 08f6 16       		.uleb128 0x16
 3521 08f7 11140000 		.4byte	.LASF209
 3522 08fb 0004     		.2byte	0x400
 3523 08fd 16       		.uleb128 0x16
 3524 08fe CA050000 		.4byte	.LASF210
 3525 0902 0008     		.2byte	0x800
 3526 0904 16       		.uleb128 0x16
 3527 0905 2C110000 		.4byte	.LASF211
 3528 0909 0010     		.2byte	0x1000
 3529 090b 16       		.uleb128 0x16
 3530 090c F4190000 		.4byte	.LASF212
 3531 0910 0020     		.2byte	0x2000
 3532 0912 16       		.uleb128 0x16
 3533 0913 B90F0000 		.4byte	.LASF213
 3534 0917 0040     		.2byte	0x4000
 3535 0919 16       		.uleb128 0x16
 3536 091a 13120000 		.4byte	.LASF214
 3537 091e 0080     		.2byte	0x8000
 3538 0920 1D       		.uleb128 0x1d
 3539 0921 AD050000 		.4byte	.LASF215
 3540 0925 00000100 		.4byte	0x10000
 3541 0929 1D       		.uleb128 0x1d
 3542 092a F6140000 		.4byte	.LASF216
 3543 092e 00000200 		.4byte	0x20000
 3544 0932 1D       		.uleb128 0x1d
 3545 0933 390E0000 		.4byte	.LASF217
 3546 0937 00000400 		.4byte	0x40000
 3547 093b 1D       		.uleb128 0x1d
 3548 093c BF0E0000 		.4byte	.LASF218
 3549 0940 00000800 		.4byte	0x80000
 3550 0944 1D       		.uleb128 0x1d
 3551 0945 D5060000 		.4byte	.LASF219
 3552 0949 00008000 		.4byte	0x800000
 3553 094d 1D       		.uleb128 0x1d
 3554 094e EA060000 		.4byte	.LASF220
 3555 0952 00000001 		.4byte	0x1000000
 3556 0956 1D       		.uleb128 0x1d
 3557 0957 43070000 		.4byte	.LASF221
 3558 095b 00000002 		.4byte	0x2000000
 3559 095f 1D       		.uleb128 0x1d
 3560 0960 58070000 		.4byte	.LASF222
 3561 0964 00000004 		.4byte	0x4000000
 3562 0968 1D       		.uleb128 0x1d
 3563 0969 B60C0000 		.4byte	.LASF223
 3564 096d 00000008 		.4byte	0x8000000
 3565 0971 1D       		.uleb128 0x1d
 3566 0972 C90C0000 		.4byte	.LASF224
ARM GAS  C:\Users\haske\AppData\Local\Temp\ccp0JrPn.s 			page 83


 3567 0976 00000010 		.4byte	0x10000000
 3568 097a 1D       		.uleb128 0x1d
 3569 097b DC0C0000 		.4byte	.LASF225
 3570 097f 00000020 		.4byte	0x20000000
 3571 0983 1D       		.uleb128 0x1d
 3572 0984 EF0C0000 		.4byte	.LASF226
 3573 0988 00000040 		.4byte	0x40000000
 3574 098c 00       		.byte	0
 3575 098d 02       		.uleb128 0x2
 3576 098e 4E1D0000 		.4byte	.LASF227
 3577 0992 08       		.byte	0x8
 3578 0993 7D       		.byte	0x7d
 3579 0994 E4000000 		.4byte	0xe4
 3580 0998 02       		.uleb128 0x2
 3581 0999 45010000 		.4byte	.LASF228
 3582 099d 0B       		.byte	0xb
 3583 099e 26       		.byte	0x26
 3584 099f B8000000 		.4byte	0xb8
 3585 09a3 02       		.uleb128 0x2
 3586 09a4 40160000 		.4byte	.LASF229
 3587 09a8 0B       		.byte	0xb
 3588 09a9 30       		.byte	0x30
 3589 09aa B8000000 		.4byte	0xb8
 3590 09ae 05       		.uleb128 0x5
 3591 09af 08       		.byte	0x8
 3592 09b0 0C       		.byte	0xc
 3593 09b1 27       		.byte	0x27
 3594 09b2 F0090000 		.4byte	0x9f0
 3595 09b6 07       		.uleb128 0x7
 3596 09b7 3A160000 		.4byte	.LASF230
 3597 09bb 0C       		.byte	0xc
 3598 09bc 28       		.byte	0x28
 3599 09bd F0090000 		.4byte	0x9f0
 3600 09c1 00       		.byte	0
 3601 09c2 09       		.uleb128 0x9
 3602 09c3 211F0000 		.4byte	.LASF231
 3603 09c7 0C       		.byte	0xc
 3604 09c8 29       		.byte	0x29
 3605 09c9 E4000000 		.4byte	0xe4
 3606 09cd 04       		.byte	0x4
 3607 09ce 18       		.byte	0x18
 3608 09cf 08       		.byte	0x8
 3609 09d0 04       		.byte	0x4
 3610 09d1 09       		.uleb128 0x9
 3611 09d2 4D020000 		.4byte	.LASF232
 3612 09d6 0C       		.byte	0xc
 3613 09d7 2A       		.byte	0x2a
 3614 09d8 E4000000 		.4byte	0xe4
 3615 09dc 04       		.byte	0x4
 3616 09dd 01       		.byte	0x1
 3617 09de 07       		.byte	0x7
 3618 09df 04       		.byte	0x4
 3619 09e0 09       		.uleb128 0x9
 3620 09e1 EF0D0000 		.4byte	.LASF233
 3621 09e5 0C       		.byte	0xc
 3622 09e6 2B       		.byte	0x2b
 3623 09e7 E4000000 		.4byte	0xe4
ARM GAS  C:\Users\haske\AppData\Local\Temp\ccp0JrPn.s 			page 84


 3624 09eb 04       		.byte	0x4
 3625 09ec 01       		.byte	0x1
 3626 09ed 06       		.byte	0x6
 3627 09ee 04       		.byte	0x4
 3628 09ef 00       		.byte	0
 3629 09f0 0B       		.uleb128 0xb
 3630 09f1 04       		.byte	0x4
 3631 09f2 7C060000 		.4byte	0x67c
 3632 09f6 02       		.uleb128 0x2
 3633 09f7 6F0B0000 		.4byte	.LASF234
 3634 09fb 0C       		.byte	0xc
 3635 09fc 2C       		.byte	0x2c
 3636 09fd AE090000 		.4byte	0x9ae
 3637 0a01 0A       		.uleb128 0xa
 3638 0a02 64170000 		.4byte	.LASF235
 3639 0a06 1C       		.byte	0x1c
 3640 0a07 0D       		.byte	0xd
 3641 0a08 31       		.byte	0x31
 3642 0a09 8F0A0000 		.4byte	0xa8f
 3643 0a0d 07       		.uleb128 0x7
 3644 0a0e 37150000 		.4byte	.LASF236
 3645 0a12 0D       		.byte	0xd
 3646 0a13 32       		.byte	0x32
 3647 0a14 8F0A0000 		.4byte	0xa8f
 3648 0a18 00       		.byte	0
 3649 0a19 07       		.uleb128 0x7
 3650 0a1a 81020000 		.4byte	.LASF237
 3651 0a1e 0D       		.byte	0xd
 3652 0a1f 33       		.byte	0x33
 3653 0a20 320B0000 		.4byte	0xb32
 3654 0a24 04       		.byte	0x4
 3655 0a25 07       		.uleb128 0x7
 3656 0a26 20190000 		.4byte	.LASF238
 3657 0a2a 0D       		.byte	0xd
 3658 0a2b 34       		.byte	0x34
 3659 0a2c 320B0000 		.4byte	0xb32
 3660 0a30 08       		.byte	0x8
 3661 0a31 07       		.uleb128 0x7
 3662 0a32 771E0000 		.4byte	.LASF41
 3663 0a36 0D       		.byte	0xd
 3664 0a37 36       		.byte	0x36
 3665 0a38 DE020000 		.4byte	0x2de
 3666 0a3c 0C       		.byte	0xc
 3667 0a3d 07       		.uleb128 0x7
 3668 0a3e A5110000 		.4byte	.LASF239
 3669 0a42 0D       		.byte	0xd
 3670 0a43 38       		.byte	0x38
 3671 0a44 480B0000 		.4byte	0xb48
 3672 0a48 10       		.byte	0x10
 3673 0a49 07       		.uleb128 0x7
 3674 0a4a 2F0E0000 		.4byte	.LASF240
 3675 0a4e 0D       		.byte	0xd
 3676 0a4f 3A       		.byte	0x3a
 3677 0a50 F6000000 		.4byte	0xf6
 3678 0a54 14       		.byte	0x14
 3679 0a55 07       		.uleb128 0x7
 3680 0a56 9C1F0000 		.4byte	.LASF241
ARM GAS  C:\Users\haske\AppData\Local\Temp\ccp0JrPn.s 			page 85


 3681 0a5a 0D       		.byte	0xd
 3682 0a5b 3B       		.byte	0x3b
 3683 0a5c F6000000 		.4byte	0xf6
 3684 0a60 16       		.byte	0x16
 3685 0a61 09       		.uleb128 0x9
 3686 0a62 B00F0000 		.4byte	.LASF242
 3687 0a66 0D       		.byte	0xd
 3688 0a67 3C       		.byte	0x3c
 3689 0a68 E4000000 		.4byte	0xe4
 3690 0a6c 04       		.byte	0x4
 3691 0a6d 02       		.byte	0x2
 3692 0a6e 1E       		.byte	0x1e
 3693 0a6f 18       		.byte	0x18
 3694 0a70 09       		.uleb128 0x9
 3695 0a71 58050000 		.4byte	.LASF243
 3696 0a75 0D       		.byte	0xd
 3697 0a76 3D       		.byte	0x3d
 3698 0a77 E4000000 		.4byte	0xe4
 3699 0a7b 04       		.byte	0x4
 3700 0a7c 02       		.byte	0x2
 3701 0a7d 1C       		.byte	0x1c
 3702 0a7e 18       		.byte	0x18
 3703 0a7f 09       		.uleb128 0x9
 3704 0a80 76100000 		.4byte	.LASF244
 3705 0a84 0D       		.byte	0xd
 3706 0a85 3E       		.byte	0x3e
 3707 0a86 E4000000 		.4byte	0xe4
 3708 0a8a 04       		.byte	0x4
 3709 0a8b 10       		.byte	0x10
 3710 0a8c 0C       		.byte	0xc
 3711 0a8d 18       		.byte	0x18
 3712 0a8e 00       		.byte	0
 3713 0a8f 0B       		.uleb128 0xb
 3714 0a90 04       		.byte	0x4
 3715 0a91 950A0000 		.4byte	0xa95
 3716 0a95 0C       		.uleb128 0xc
 3717 0a96 010A0000 		.4byte	0xa01
 3718 0a9a 0B       		.uleb128 0xb
 3719 0a9b 04       		.byte	0x4
 3720 0a9c A00A0000 		.4byte	0xaa0
 3721 0aa0 0A       		.uleb128 0xa
 3722 0aa1 BE110000 		.4byte	.LASF245
 3723 0aa5 1C       		.byte	0x1c
 3724 0aa6 0E       		.byte	0xe
 3725 0aa7 5E       		.byte	0x5e
 3726 0aa8 220B0000 		.4byte	0xb22
 3727 0aac 07       		.uleb128 0x7
 3728 0aad A90F0000 		.4byte	.LASF246
 3729 0ab1 0E       		.byte	0xe
 3730 0ab2 5F       		.byte	0x5f
 3731 0ab3 88060000 		.4byte	0x688
 3732 0ab7 00       		.byte	0
 3733 0ab8 07       		.uleb128 0x7
 3734 0ab9 721A0000 		.4byte	.LASF247
 3735 0abd 0E       		.byte	0xe
 3736 0abe 60       		.byte	0x60
 3737 0abf 88060000 		.4byte	0x688
ARM GAS  C:\Users\haske\AppData\Local\Temp\ccp0JrPn.s 			page 86


 3738 0ac3 04       		.byte	0x4
 3739 0ac4 07       		.uleb128 0x7
 3740 0ac5 DC180000 		.4byte	.LASF248
 3741 0ac9 0E       		.byte	0xe
 3742 0aca 61       		.byte	0x61
 3743 0acb 800C0000 		.4byte	0xc80
 3744 0acf 08       		.byte	0x8
 3745 0ad0 07       		.uleb128 0x7
 3746 0ad1 771E0000 		.4byte	.LASF41
 3747 0ad5 0E       		.byte	0xe
 3748 0ad6 62       		.byte	0x62
 3749 0ad7 DE020000 		.4byte	0x2de
 3750 0adb 0C       		.byte	0xc
 3751 0adc 07       		.uleb128 0x7
 3752 0add A30F0000 		.4byte	.LASF249
 3753 0ae1 0E       		.byte	0xe
 3754 0ae2 63       		.byte	0x63
 3755 0ae3 DE020000 		.4byte	0x2de
 3756 0ae7 10       		.byte	0x10
 3757 0ae8 07       		.uleb128 0x7
 3758 0ae9 47200000 		.4byte	.LASF250
 3759 0aed 0E       		.byte	0xe
 3760 0aee 64       		.byte	0x64
 3761 0aef 9A0A0000 		.4byte	0xa9a
 3762 0af3 14       		.byte	0x14
 3763 0af4 09       		.uleb128 0x9
 3764 0af5 020A0000 		.4byte	.LASF251
 3765 0af9 0E       		.byte	0xe
 3766 0afa 65       		.byte	0x65
 3767 0afb B8000000 		.4byte	0xb8
 3768 0aff 01       		.byte	0x1
 3769 0b00 01       		.byte	0x1
 3770 0b01 07       		.byte	0x7
 3771 0b02 18       		.byte	0x18
 3772 0b03 09       		.uleb128 0x9
 3773 0b04 E6090000 		.4byte	.LASF252
 3774 0b08 0E       		.byte	0xe
 3775 0b09 66       		.byte	0x66
 3776 0b0a B8000000 		.4byte	0xb8
 3777 0b0e 01       		.byte	0x1
 3778 0b0f 01       		.byte	0x1
 3779 0b10 06       		.byte	0x6
 3780 0b11 18       		.byte	0x18
 3781 0b12 09       		.uleb128 0x9
 3782 0b13 B1140000 		.4byte	.LASF253
 3783 0b17 0E       		.byte	0xe
 3784 0b18 67       		.byte	0x67
 3785 0b19 B8000000 		.4byte	0xb8
 3786 0b1d 01       		.byte	0x1
 3787 0b1e 01       		.byte	0x1
 3788 0b1f 05       		.byte	0x5
 3789 0b20 18       		.byte	0x18
 3790 0b21 00       		.byte	0
 3791 0b22 1E       		.uleb128 0x1e
 3792 0b23 320B0000 		.4byte	0xb32
 3793 0b27 0E       		.uleb128 0xe
 3794 0b28 8F0A0000 		.4byte	0xa8f
ARM GAS  C:\Users\haske\AppData\Local\Temp\ccp0JrPn.s 			page 87


 3795 0b2c 0E       		.uleb128 0xe
 3796 0b2d 88060000 		.4byte	0x688
 3797 0b31 00       		.byte	0
 3798 0b32 0B       		.uleb128 0xb
 3799 0b33 04       		.byte	0x4
 3800 0b34 220B0000 		.4byte	0xb22
 3801 0b38 1E       		.uleb128 0x1e
 3802 0b39 480B0000 		.4byte	0xb48
 3803 0b3d 0E       		.uleb128 0xe
 3804 0b3e 8F0A0000 		.4byte	0xa8f
 3805 0b42 0E       		.uleb128 0xe
 3806 0b43 9A0A0000 		.4byte	0xa9a
 3807 0b47 00       		.byte	0
 3808 0b48 0B       		.uleb128 0xb
 3809 0b49 04       		.byte	0x4
 3810 0b4a 380B0000 		.4byte	0xb38
 3811 0b4e 02       		.uleb128 0x2
 3812 0b4f 6B0D0000 		.4byte	.LASF254
 3813 0b53 0D       		.byte	0xd
 3814 0b54 3F       		.byte	0x3f
 3815 0b55 010A0000 		.4byte	0xa01
 3816 0b59 14       		.uleb128 0x14
 3817 0b5a 01       		.byte	0x1
 3818 0b5b 42000000 		.4byte	0x42
 3819 0b5f 0E       		.byte	0xe
 3820 0b60 20       		.byte	0x20
 3821 0b61 800C0000 		.4byte	0xc80
 3822 0b65 15       		.uleb128 0x15
 3823 0b66 23050000 		.4byte	.LASF255
 3824 0b6a 00       		.byte	0
 3825 0b6b 15       		.uleb128 0x15
 3826 0b6c 76160000 		.4byte	.LASF256
 3827 0b70 01       		.byte	0x1
 3828 0b71 15       		.uleb128 0x15
 3829 0b72 DF140000 		.4byte	.LASF257
 3830 0b76 02       		.byte	0x2
 3831 0b77 15       		.uleb128 0x15
 3832 0b78 811E0000 		.4byte	.LASF258
 3833 0b7c 03       		.byte	0x3
 3834 0b7d 15       		.uleb128 0x15
 3835 0b7e 58150000 		.4byte	.LASF259
 3836 0b82 04       		.byte	0x4
 3837 0b83 15       		.uleb128 0x15
 3838 0b84 00030000 		.4byte	.LASF260
 3839 0b88 05       		.byte	0x5
 3840 0b89 15       		.uleb128 0x15
 3841 0b8a 82150000 		.4byte	.LASF261
 3842 0b8e 06       		.byte	0x6
 3843 0b8f 15       		.uleb128 0x15
 3844 0b90 1C0D0000 		.4byte	.LASF262
 3845 0b94 07       		.byte	0x7
 3846 0b95 15       		.uleb128 0x15
 3847 0b96 70200000 		.4byte	.LASF263
 3848 0b9a 08       		.byte	0x8
 3849 0b9b 15       		.uleb128 0x15
 3850 0b9c 4A1E0000 		.4byte	.LASF264
 3851 0ba0 09       		.byte	0x9
ARM GAS  C:\Users\haske\AppData\Local\Temp\ccp0JrPn.s 			page 88


 3852 0ba1 15       		.uleb128 0x15
 3853 0ba2 D21B0000 		.4byte	.LASF265
 3854 0ba6 0A       		.byte	0xa
 3855 0ba7 15       		.uleb128 0x15
 3856 0ba8 E8110000 		.4byte	.LASF266
 3857 0bac 0B       		.byte	0xb
 3858 0bad 15       		.uleb128 0x15
 3859 0bae EF020000 		.4byte	.LASF267
 3860 0bb2 0C       		.byte	0xc
 3861 0bb3 15       		.uleb128 0x15
 3862 0bb4 161E0000 		.4byte	.LASF268
 3863 0bb8 0D       		.byte	0xd
 3864 0bb9 15       		.uleb128 0x15
 3865 0bba 2A1F0000 		.4byte	.LASF269
 3866 0bbe 0E       		.byte	0xe
 3867 0bbf 15       		.uleb128 0x15
 3868 0bc0 451B0000 		.4byte	.LASF270
 3869 0bc4 0F       		.byte	0xf
 3870 0bc5 15       		.uleb128 0x15
 3871 0bc6 260F0000 		.4byte	.LASF271
 3872 0bca 10       		.byte	0x10
 3873 0bcb 15       		.uleb128 0x15
 3874 0bcc D70A0000 		.4byte	.LASF272
 3875 0bd0 11       		.byte	0x11
 3876 0bd1 15       		.uleb128 0x15
 3877 0bd2 5D0A0000 		.4byte	.LASF273
 3878 0bd6 12       		.byte	0x12
 3879 0bd7 15       		.uleb128 0x15
 3880 0bd8 BF100000 		.4byte	.LASF274
 3881 0bdc 13       		.byte	0x13
 3882 0bdd 15       		.uleb128 0x15
 3883 0bde 89000000 		.4byte	.LASF275
 3884 0be2 14       		.byte	0x14
 3885 0be3 15       		.uleb128 0x15
 3886 0be4 A1070000 		.4byte	.LASF276
 3887 0be8 15       		.byte	0x15
 3888 0be9 15       		.uleb128 0x15
 3889 0bea 900D0000 		.4byte	.LASF277
 3890 0bee 16       		.byte	0x16
 3891 0bef 15       		.uleb128 0x15
 3892 0bf0 44130000 		.4byte	.LASF278
 3893 0bf4 17       		.byte	0x17
 3894 0bf5 15       		.uleb128 0x15
 3895 0bf6 D01C0000 		.4byte	.LASF279
 3896 0bfa 18       		.byte	0x18
 3897 0bfb 15       		.uleb128 0x15
 3898 0bfc 2F1A0000 		.4byte	.LASF280
 3899 0c00 19       		.byte	0x19
 3900 0c01 15       		.uleb128 0x15
 3901 0c02 461A0000 		.4byte	.LASF281
 3902 0c06 1A       		.byte	0x1a
 3903 0c07 15       		.uleb128 0x15
 3904 0c08 2C060000 		.4byte	.LASF282
 3905 0c0c 1B       		.byte	0x1b
 3906 0c0d 15       		.uleb128 0x15
 3907 0c0e ED130000 		.4byte	.LASF283
 3908 0c12 1C       		.byte	0x1c
ARM GAS  C:\Users\haske\AppData\Local\Temp\ccp0JrPn.s 			page 89


 3909 0c13 15       		.uleb128 0x15
 3910 0c14 B6010000 		.4byte	.LASF284
 3911 0c18 1D       		.byte	0x1d
 3912 0c19 15       		.uleb128 0x15
 3913 0c1a 65100000 		.4byte	.LASF285
 3914 0c1e 1E       		.byte	0x1e
 3915 0c1f 15       		.uleb128 0x15
 3916 0c20 C11C0000 		.4byte	.LASF286
 3917 0c24 1F       		.byte	0x1f
 3918 0c25 15       		.uleb128 0x15
 3919 0c26 87160000 		.4byte	.LASF287
 3920 0c2a 20       		.byte	0x20
 3921 0c2b 15       		.uleb128 0x15
 3922 0c2c 2C130000 		.4byte	.LASF288
 3923 0c30 21       		.byte	0x21
 3924 0c31 15       		.uleb128 0x15
 3925 0c32 18020000 		.4byte	.LASF289
 3926 0c36 22       		.byte	0x22
 3927 0c37 15       		.uleb128 0x15
 3928 0c38 39030000 		.4byte	.LASF290
 3929 0c3c 23       		.byte	0x23
 3930 0c3d 15       		.uleb128 0x15
 3931 0c3e A8100000 		.4byte	.LASF291
 3932 0c42 24       		.byte	0x24
 3933 0c43 15       		.uleb128 0x15
 3934 0c44 A71F0000 		.4byte	.LASF292
 3935 0c48 25       		.byte	0x25
 3936 0c49 15       		.uleb128 0x15
 3937 0c4a 96140000 		.4byte	.LASF293
 3938 0c4e 26       		.byte	0x26
 3939 0c4f 15       		.uleb128 0x15
 3940 0c50 310B0000 		.4byte	.LASF294
 3941 0c54 27       		.byte	0x27
 3942 0c55 15       		.uleb128 0x15
 3943 0c56 0C170000 		.4byte	.LASF295
 3944 0c5a 28       		.byte	0x28
 3945 0c5b 15       		.uleb128 0x15
 3946 0c5c 5C1D0000 		.4byte	.LASF296
 3947 0c60 29       		.byte	0x29
 3948 0c61 15       		.uleb128 0x15
 3949 0c62 AA1C0000 		.4byte	.LASF297
 3950 0c66 2A       		.byte	0x2a
 3951 0c67 15       		.uleb128 0x15
 3952 0c68 CF1D0000 		.4byte	.LASF298
 3953 0c6c 2B       		.byte	0x2b
 3954 0c6d 15       		.uleb128 0x15
 3955 0c6e 8A070000 		.4byte	.LASF299
 3956 0c72 2C       		.byte	0x2c
 3957 0c73 15       		.uleb128 0x15
 3958 0c74 CF160000 		.4byte	.LASF300
 3959 0c78 2D       		.byte	0x2d
 3960 0c79 15       		.uleb128 0x15
 3961 0c7a E1180000 		.4byte	.LASF301
 3962 0c7e 80       		.byte	0x80
 3963 0c7f 00       		.byte	0
 3964 0c80 02       		.uleb128 0x2
 3965 0c81 AE110000 		.4byte	.LASF302
ARM GAS  C:\Users\haske\AppData\Local\Temp\ccp0JrPn.s 			page 90


 3966 0c85 0E       		.byte	0xe
 3967 0c86 5C       		.byte	0x5c
 3968 0c87 590B0000 		.4byte	0xb59
 3969 0c8b 02       		.uleb128 0x2
 3970 0c8c F5010000 		.4byte	.LASF303
 3971 0c90 0E       		.byte	0xe
 3972 0c91 68       		.byte	0x68
 3973 0c92 A00A0000 		.4byte	0xaa0
 3974 0c96 0B       		.uleb128 0xb
 3975 0c97 04       		.byte	0x4
 3976 0c98 8B0C0000 		.4byte	0xc8b
 3977 0c9c 02       		.uleb128 0x2
 3978 0c9d 50170000 		.4byte	.LASF304
 3979 0ca1 0A       		.byte	0xa
 3980 0ca2 34       		.byte	0x34
 3981 0ca3 A70C0000 		.4byte	0xca7
 3982 0ca7 0B       		.uleb128 0xb
 3983 0ca8 04       		.byte	0x4
 3984 0ca9 AD0C0000 		.4byte	0xcad
 3985 0cad 1E       		.uleb128 0x1e
 3986 0cae B80C0000 		.4byte	0xcb8
 3987 0cb2 0E       		.uleb128 0xe
 3988 0cb3 2E080000 		.4byte	0x82e
 3989 0cb7 00       		.byte	0
 3990 0cb8 02       		.uleb128 0x2
 3991 0cb9 A30C0000 		.4byte	.LASF305
 3992 0cbd 0A       		.byte	0xa
 3993 0cbe 35       		.byte	0x35
 3994 0cbf C30C0000 		.4byte	0xcc3
 3995 0cc3 0B       		.uleb128 0xb
 3996 0cc4 04       		.byte	0x4
 3997 0cc5 C90C0000 		.4byte	0xcc9
 3998 0cc9 1E       		.uleb128 0x1e
 3999 0cca D90C0000 		.4byte	0xcd9
 4000 0cce 0E       		.uleb128 0xe
 4001 0ccf 2E080000 		.4byte	0x82e
 4002 0cd3 0E       		.uleb128 0xe
 4003 0cd4 9F020000 		.4byte	0x29f
 4004 0cd8 00       		.byte	0
 4005 0cd9 02       		.uleb128 0x2
 4006 0cda 4A080000 		.4byte	.LASF306
 4007 0cde 0A       		.byte	0xa
 4008 0cdf 4E       		.byte	0x4e
 4009 0ce0 A9070000 		.4byte	0x7a9
 4010 0ce4 05       		.uleb128 0x5
 4011 0ce5 1C       		.byte	0x1c
 4012 0ce6 08       		.byte	0x8
 4013 0ce7 9B       		.byte	0x9b
 4014 0ce8 9B0D0000 		.4byte	0xd9b
 4015 0cec 07       		.uleb128 0x7
 4016 0ced 73030000 		.4byte	.LASF307
 4017 0cf1 08       		.byte	0x8
 4018 0cf2 9C       		.byte	0x9c
 4019 0cf3 A3070000 		.4byte	0x7a3
 4020 0cf7 00       		.byte	0
 4021 0cf8 07       		.uleb128 0x7
 4022 0cf9 F30E0000 		.4byte	.LASF308
ARM GAS  C:\Users\haske\AppData\Local\Temp\ccp0JrPn.s 			page 91


 4023 0cfd 08       		.byte	0x8
 4024 0cfe 9D       		.byte	0x9d
 4025 0cff E4000000 		.4byte	0xe4
 4026 0d03 04       		.byte	0x4
 4027 0d04 07       		.uleb128 0x7
 4028 0d05 1C0C0000 		.4byte	.LASF309
 4029 0d09 08       		.byte	0x8
 4030 0d0a 9E       		.byte	0x9e
 4031 0d0b 9B0D0000 		.4byte	0xd9b
 4032 0d0f 08       		.byte	0x8
 4033 0d10 07       		.uleb128 0x7
 4034 0d11 A50B0000 		.4byte	.LASF310
 4035 0d15 08       		.byte	0x8
 4036 0d16 A0       		.byte	0xa0
 4037 0d17 A60D0000 		.4byte	0xda6
 4038 0d1b 0C       		.byte	0xc
 4039 0d1c 07       		.uleb128 0x7
 4040 0d1d 340C0000 		.4byte	.LASF311
 4041 0d21 08       		.byte	0x8
 4042 0d22 A1       		.byte	0xa1
 4043 0d23 1E010000 		.4byte	0x11e
 4044 0d27 10       		.byte	0x10
 4045 0d28 07       		.uleb128 0x7
 4046 0d29 90020000 		.4byte	.LASF312
 4047 0d2d 08       		.byte	0x8
 4048 0d2e A3       		.byte	0xa3
 4049 0d2f F6000000 		.4byte	0xf6
 4050 0d33 14       		.byte	0x14
 4051 0d34 07       		.uleb128 0x7
 4052 0d35 950C0000 		.4byte	.LASF313
 4053 0d39 08       		.byte	0x8
 4054 0d3a A4       		.byte	0xa4
 4055 0d3b F6000000 		.4byte	0xf6
 4056 0d3f 16       		.byte	0x16
 4057 0d40 09       		.uleb128 0x9
 4058 0d41 1B090000 		.4byte	.LASF314
 4059 0d45 08       		.byte	0x8
 4060 0d46 A6       		.byte	0xa6
 4061 0d47 98090000 		.4byte	0x998
 4062 0d4b 01       		.byte	0x1
 4063 0d4c 02       		.byte	0x2
 4064 0d4d 06       		.byte	0x6
 4065 0d4e 18       		.byte	0x18
 4066 0d4f 09       		.uleb128 0x9
 4067 0d50 E7010000 		.4byte	.LASF315
 4068 0d54 08       		.byte	0x8
 4069 0d55 A7       		.byte	0xa7
 4070 0d56 A3090000 		.4byte	0x9a3
 4071 0d5a 01       		.byte	0x1
 4072 0d5b 02       		.byte	0x2
 4073 0d5c 04       		.byte	0x4
 4074 0d5d 18       		.byte	0x18
 4075 0d5e 09       		.uleb128 0x9
 4076 0d5f 600F0000 		.4byte	.LASF316
 4077 0d63 08       		.byte	0x8
 4078 0d64 A8       		.byte	0xa8
 4079 0d65 A3090000 		.4byte	0x9a3
ARM GAS  C:\Users\haske\AppData\Local\Temp\ccp0JrPn.s 			page 92


 4080 0d69 01       		.byte	0x1
 4081 0d6a 02       		.byte	0x2
 4082 0d6b 02       		.byte	0x2
 4083 0d6c 18       		.byte	0x18
 4084 0d6d 09       		.uleb128 0x9
 4085 0d6e 4D050000 		.4byte	.LASF317
 4086 0d72 08       		.byte	0x8
 4087 0d73 A9       		.byte	0xa9
 4088 0d74 69010000 		.4byte	0x169
 4089 0d78 01       		.byte	0x1
 4090 0d79 04       		.byte	0x4
 4091 0d7a 04       		.byte	0x4
 4092 0d7b 19       		.byte	0x19
 4093 0d7c 09       		.uleb128 0x9
 4094 0d7d F7200000 		.4byte	.LASF318
 4095 0d81 08       		.byte	0x8
 4096 0d82 AA       		.byte	0xaa
 4097 0d83 B8000000 		.4byte	0xb8
 4098 0d87 01       		.byte	0x1
 4099 0d88 06       		.byte	0x6
 4100 0d89 02       		.byte	0x2
 4101 0d8a 1A       		.byte	0x1a
 4102 0d8b 09       		.uleb128 0x9
 4103 0d8c 550C0000 		.4byte	.LASF319
 4104 0d90 08       		.byte	0x8
 4105 0d91 AB       		.byte	0xab
 4106 0d92 B8000000 		.4byte	0xb8
 4107 0d96 01       		.byte	0x1
 4108 0d97 02       		.byte	0x2
 4109 0d98 00       		.byte	0
 4110 0d99 1A       		.byte	0x1a
 4111 0d9a 00       		.byte	0
 4112 0d9b 0B       		.uleb128 0xb
 4113 0d9c 04       		.byte	0x4
 4114 0d9d D90C0000 		.4byte	0xcd9
 4115 0da1 1F       		.uleb128 0x1f
 4116 0da2 A41E0000 		.4byte	.LASF470
 4117 0da6 0B       		.uleb128 0xb
 4118 0da7 04       		.byte	0x4
 4119 0da8 A10D0000 		.4byte	0xda1
 4120 0dac 02       		.uleb128 0x2
 4121 0dad 55080000 		.4byte	.LASF320
 4122 0db1 08       		.byte	0x8
 4123 0db2 AC       		.byte	0xac
 4124 0db3 E40C0000 		.4byte	0xce4
 4125 0db7 0B       		.uleb128 0xb
 4126 0db8 04       		.byte	0x4
 4127 0db9 BD0D0000 		.4byte	0xdbd
 4128 0dbd 0C       		.uleb128 0xc
 4129 0dbe 4E0B0000 		.4byte	0xb4e
 4130 0dc2 0B       		.uleb128 0xb
 4131 0dc3 04       		.byte	0x4
 4132 0dc4 AC0D0000 		.4byte	0xdac
 4133 0dc8 0B       		.uleb128 0xb
 4134 0dc9 04       		.byte	0x4
 4135 0dca F6090000 		.4byte	0x9f6
 4136 0dce 02       		.uleb128 0x2
ARM GAS  C:\Users\haske\AppData\Local\Temp\ccp0JrPn.s 			page 93


 4137 0dcf F5180000 		.4byte	.LASF321
 4138 0dd3 08       		.byte	0x8
 4139 0dd4 BF       		.byte	0xbf
 4140 0dd5 8E060000 		.4byte	0x68e
 4141 0dd9 14       		.uleb128 0x14
 4142 0dda 01       		.byte	0x1
 4143 0ddb 42000000 		.4byte	0x42
 4144 0ddf 0F       		.byte	0xf
 4145 0de0 1C       		.byte	0x1c
 4146 0de1 F80D0000 		.4byte	0xdf8
 4147 0de5 15       		.uleb128 0x15
 4148 0de6 AD160000 		.4byte	.LASF322
 4149 0dea 00       		.byte	0
 4150 0deb 15       		.uleb128 0x15
 4151 0dec 2F000000 		.4byte	.LASF323
 4152 0df0 01       		.byte	0x1
 4153 0df1 15       		.uleb128 0x15
 4154 0df2 DD1E0000 		.4byte	.LASF324
 4155 0df6 02       		.byte	0x2
 4156 0df7 00       		.byte	0
 4157 0df8 02       		.uleb128 0x2
 4158 0df9 EA000000 		.4byte	.LASF325
 4159 0dfd 0F       		.byte	0xf
 4160 0dfe 21       		.byte	0x21
 4161 0dff B8000000 		.4byte	0xb8
 4162 0e03 14       		.uleb128 0x14
 4163 0e04 01       		.byte	0x1
 4164 0e05 42000000 		.4byte	0x42
 4165 0e09 0F       		.byte	0xf
 4166 0e0a 23       		.byte	0x23
 4167 0e0b 1C0E0000 		.4byte	0xe1c
 4168 0e0f 15       		.uleb128 0x15
 4169 0e10 0F160000 		.4byte	.LASF326
 4170 0e14 00       		.byte	0
 4171 0e15 15       		.uleb128 0x15
 4172 0e16 59010000 		.4byte	.LASF327
 4173 0e1a 01       		.byte	0x1
 4174 0e1b 00       		.byte	0
 4175 0e1c 02       		.uleb128 0x2
 4176 0e1d E61B0000 		.4byte	.LASF328
 4177 0e21 0F       		.byte	0xf
 4178 0e22 27       		.byte	0x27
 4179 0e23 B8000000 		.4byte	0xb8
 4180 0e27 0A       		.uleb128 0xa
 4181 0e28 F6080000 		.4byte	.LASF329
 4182 0e2c 08       		.byte	0x8
 4183 0e2d 0F       		.byte	0xf
 4184 0e2e 29       		.byte	0x29
 4185 0e2f 4C0E0000 		.4byte	0xe4c
 4186 0e33 07       		.uleb128 0x7
 4187 0e34 1E050000 		.4byte	.LASF330
 4188 0e38 0F       		.byte	0xf
 4189 0e39 2A       		.byte	0x2a
 4190 0e3a 4C0E0000 		.4byte	0xe4c
 4191 0e3e 00       		.byte	0
 4192 0e3f 07       		.uleb128 0x7
 4193 0e40 F1140000 		.4byte	.LASF331
ARM GAS  C:\Users\haske\AppData\Local\Temp\ccp0JrPn.s 			page 94


 4194 0e44 0F       		.byte	0xf
 4195 0e45 2B       		.byte	0x2b
 4196 0e46 4C0E0000 		.4byte	0xe4c
 4197 0e4a 04       		.byte	0x4
 4198 0e4b 00       		.byte	0
 4199 0e4c 0B       		.uleb128 0xb
 4200 0e4d 04       		.byte	0x4
 4201 0e4e CE0D0000 		.4byte	0xdce
 4202 0e52 02       		.uleb128 0x2
 4203 0e53 F6080000 		.4byte	.LASF329
 4204 0e57 0F       		.byte	0xf
 4205 0e58 2C       		.byte	0x2c
 4206 0e59 270E0000 		.4byte	0xe27
 4207 0e5d 05       		.uleb128 0x5
 4208 0e5e 04       		.byte	0x4
 4209 0e5f 0F       		.byte	0xf
 4210 0e60 2E       		.byte	0x2e
 4211 0e61 720E0000 		.4byte	0xe72
 4212 0e65 07       		.uleb128 0x7
 4213 0e66 F1140000 		.4byte	.LASF331
 4214 0e6a 0F       		.byte	0xf
 4215 0e6b 2F       		.byte	0x2f
 4216 0e6c 4C0E0000 		.4byte	0xe4c
 4217 0e70 00       		.byte	0
 4218 0e71 00       		.byte	0
 4219 0e72 02       		.uleb128 0x2
 4220 0e73 84100000 		.4byte	.LASF332
 4221 0e77 0F       		.byte	0xf
 4222 0e78 30       		.byte	0x30
 4223 0e79 5D0E0000 		.4byte	0xe5d
 4224 0e7d 05       		.uleb128 0x5
 4225 0e7e 64       		.byte	0x64
 4226 0e7f 0F       		.byte	0xf
 4227 0e80 32       		.byte	0x32
 4228 0e81 730F0000 		.4byte	0xf73
 4229 0e85 06       		.uleb128 0x6
 4230 0e86 6F626A00 		.ascii	"obj\000"
 4231 0e8a 0F       		.byte	0xf
 4232 0e8b 33       		.byte	0x33
 4233 0e8c CE0D0000 		.4byte	0xdce
 4234 0e90 00       		.byte	0
 4235 0e91 07       		.uleb128 0x7
 4236 0e92 85120000 		.4byte	.LASF333
 4237 0e96 0F       		.byte	0xf
 4238 0e97 34       		.byte	0x34
 4239 0e98 4C0E0000 		.4byte	0xe4c
 4240 0e9c 24       		.byte	0x24
 4241 0e9d 07       		.uleb128 0x7
 4242 0e9e C5050000 		.4byte	.LASF334
 4243 0ea2 0F       		.byte	0xf
 4244 0ea3 35       		.byte	0x35
 4245 0ea4 4C0E0000 		.4byte	0xe4c
 4246 0ea8 28       		.byte	0x28
 4247 0ea9 07       		.uleb128 0x7
 4248 0eaa 94030000 		.4byte	.LASF335
 4249 0eae 0F       		.byte	0xf
 4250 0eaf 36       		.byte	0x36
ARM GAS  C:\Users\haske\AppData\Local\Temp\ccp0JrPn.s 			page 95


 4251 0eb0 4C0E0000 		.4byte	0xe4c
 4252 0eb4 2C       		.byte	0x2c
 4253 0eb5 07       		.uleb128 0x7
 4254 0eb6 B2200000 		.4byte	.LASF336
 4255 0eba 0F       		.byte	0xf
 4256 0ebb 37       		.byte	0x37
 4257 0ebc 4C0E0000 		.4byte	0xe4c
 4258 0ec0 30       		.byte	0x30
 4259 0ec1 07       		.uleb128 0x7
 4260 0ec2 861D0000 		.4byte	.LASF337
 4261 0ec6 0F       		.byte	0xf
 4262 0ec7 39       		.byte	0x39
 4263 0ec8 4C0E0000 		.4byte	0xe4c
 4264 0ecc 34       		.byte	0x34
 4265 0ecd 07       		.uleb128 0x7
 4266 0ece CB1E0000 		.4byte	.LASF338
 4267 0ed2 0F       		.byte	0xf
 4268 0ed3 3A       		.byte	0x3a
 4269 0ed4 4C0E0000 		.4byte	0xe4c
 4270 0ed8 38       		.byte	0x38
 4271 0ed9 07       		.uleb128 0x7
 4272 0eda 35020000 		.4byte	.LASF339
 4273 0ede 0F       		.byte	0xf
 4274 0edf 3B       		.byte	0x3b
 4275 0ee0 4C0E0000 		.4byte	0xe4c
 4276 0ee4 3C       		.byte	0x3c
 4277 0ee5 07       		.uleb128 0x7
 4278 0ee6 2C030000 		.4byte	.LASF340
 4279 0eea 0F       		.byte	0xf
 4280 0eeb 3C       		.byte	0x3c
 4281 0eec 4C0E0000 		.4byte	0xe4c
 4282 0ef0 40       		.byte	0x40
 4283 0ef1 07       		.uleb128 0x7
 4284 0ef2 E6160000 		.4byte	.LASF341
 4285 0ef6 0F       		.byte	0xf
 4286 0ef7 3D       		.byte	0x3d
 4287 0ef8 4C0E0000 		.4byte	0xe4c
 4288 0efc 44       		.byte	0x44
 4289 0efd 07       		.uleb128 0x7
 4290 0efe E51F0000 		.4byte	.LASF342
 4291 0f02 0F       		.byte	0xf
 4292 0f03 3F       		.byte	0x3f
 4293 0f04 4C0E0000 		.4byte	0xe4c
 4294 0f08 48       		.byte	0x48
 4295 0f09 07       		.uleb128 0x7
 4296 0f0a 4E180000 		.4byte	.LASF343
 4297 0f0e 0F       		.byte	0xf
 4298 0f0f 40       		.byte	0x40
 4299 0f10 4C0E0000 		.4byte	0xe4c
 4300 0f14 4C       		.byte	0x4c
 4301 0f15 07       		.uleb128 0x7
 4302 0f16 C41F0000 		.4byte	.LASF344
 4303 0f1a 0F       		.byte	0xf
 4304 0f1b 41       		.byte	0x41
 4305 0f1c 4C0E0000 		.4byte	0xe4c
 4306 0f20 50       		.byte	0x50
 4307 0f21 07       		.uleb128 0x7
ARM GAS  C:\Users\haske\AppData\Local\Temp\ccp0JrPn.s 			page 96


 4308 0f22 5E040000 		.4byte	.LASF345
 4309 0f26 0F       		.byte	0xf
 4310 0f27 42       		.byte	0x42
 4311 0f28 98070000 		.4byte	0x798
 4312 0f2c 54       		.byte	0x54
 4313 0f2d 07       		.uleb128 0x7
 4314 0f2e E00B0000 		.4byte	.LASF346
 4315 0f32 0F       		.byte	0xf
 4316 0f33 43       		.byte	0x43
 4317 0f34 B8000000 		.4byte	0xb8
 4318 0f38 60       		.byte	0x60
 4319 0f39 07       		.uleb128 0x7
 4320 0f3a 2E120000 		.4byte	.LASF347
 4321 0f3e 0F       		.byte	0xf
 4322 0f3f 44       		.byte	0x44
 4323 0f40 B8000000 		.4byte	0xb8
 4324 0f44 61       		.byte	0x61
 4325 0f45 09       		.uleb128 0x9
 4326 0f46 571C0000 		.4byte	.LASF348
 4327 0f4a 0F       		.byte	0xf
 4328 0f4b 45       		.byte	0x45
 4329 0f4c B8000000 		.4byte	0xb8
 4330 0f50 01       		.byte	0x1
 4331 0f51 01       		.byte	0x1
 4332 0f52 07       		.byte	0x7
 4333 0f53 62       		.byte	0x62
 4334 0f54 09       		.uleb128 0x9
 4335 0f55 91200000 		.4byte	.LASF349
 4336 0f59 0F       		.byte	0xf
 4337 0f5a 46       		.byte	0x46
 4338 0f5b F80D0000 		.4byte	0xdf8
 4339 0f5f 01       		.byte	0x1
 4340 0f60 02       		.byte	0x2
 4341 0f61 05       		.byte	0x5
 4342 0f62 62       		.byte	0x62
 4343 0f63 09       		.uleb128 0x9
 4344 0f64 9D060000 		.4byte	.LASF350
 4345 0f68 0F       		.byte	0xf
 4346 0f69 47       		.byte	0x47
 4347 0f6a 1C0E0000 		.4byte	0xe1c
 4348 0f6e 01       		.byte	0x1
 4349 0f6f 01       		.byte	0x1
 4350 0f70 04       		.byte	0x4
 4351 0f71 62       		.byte	0x62
 4352 0f72 00       		.byte	0
 4353 0f73 02       		.uleb128 0x2
 4354 0f74 78150000 		.4byte	.LASF351
 4355 0f78 0F       		.byte	0xf
 4356 0f79 48       		.byte	0x48
 4357 0f7a 7D0E0000 		.4byte	0xe7d
 4358 0f7e 05       		.uleb128 0x5
 4359 0f7f 28       		.byte	0x28
 4360 0f80 0F       		.byte	0xf
 4361 0f81 4A       		.byte	0x4a
 4362 0f82 9F0F0000 		.4byte	0xf9f
 4363 0f86 06       		.uleb128 0x6
 4364 0f87 6F626A00 		.ascii	"obj\000"
ARM GAS  C:\Users\haske\AppData\Local\Temp\ccp0JrPn.s 			page 97


 4365 0f8b 0F       		.byte	0xf
 4366 0f8c 4B       		.byte	0x4b
 4367 0f8d CE0D0000 		.4byte	0xdce
 4368 0f91 00       		.byte	0
 4369 0f92 07       		.uleb128 0x7
 4370 0f93 E71D0000 		.4byte	.LASF352
 4371 0f97 0F       		.byte	0xf
 4372 0f98 4C       		.byte	0x4c
 4373 0f99 F2020000 		.4byte	0x2f2
 4374 0f9d 24       		.byte	0x24
 4375 0f9e 00       		.byte	0
 4376 0f9f 02       		.uleb128 0x2
 4377 0fa0 50030000 		.4byte	.LASF353
 4378 0fa4 0F       		.byte	0xf
 4379 0fa5 4D       		.byte	0x4d
 4380 0fa6 7E0F0000 		.4byte	0xf7e
 4381 0faa 14       		.uleb128 0x14
 4382 0fab 01       		.byte	0x1
 4383 0fac 42000000 		.4byte	0x42
 4384 0fb0 10       		.byte	0x10
 4385 0fb1 25       		.byte	0x25
 4386 0fb2 DB0F0000 		.4byte	0xfdb
 4387 0fb6 15       		.uleb128 0x15
 4388 0fb7 E3200000 		.4byte	.LASF354
 4389 0fbb 00       		.byte	0
 4390 0fbc 15       		.uleb128 0x15
 4391 0fbd 00000000 		.4byte	.LASF355
 4392 0fc1 01       		.byte	0x1
 4393 0fc2 15       		.uleb128 0x15
 4394 0fc3 191D0000 		.4byte	.LASF356
 4395 0fc7 02       		.byte	0x2
 4396 0fc8 15       		.uleb128 0x15
 4397 0fc9 69040000 		.4byte	.LASF357
 4398 0fcd 03       		.byte	0x3
 4399 0fce 15       		.uleb128 0x15
 4400 0fcf 74110000 		.4byte	.LASF358
 4401 0fd3 04       		.byte	0x4
 4402 0fd4 15       		.uleb128 0x15
 4403 0fd5 A31A0000 		.4byte	.LASF359
 4404 0fd9 05       		.byte	0x5
 4405 0fda 00       		.byte	0
 4406 0fdb 14       		.uleb128 0x14
 4407 0fdc 01       		.byte	0x1
 4408 0fdd 42000000 		.4byte	0x42
 4409 0fe1 10       		.byte	0x10
 4410 0fe2 2E       		.byte	0x2e
 4411 0fe3 18100000 		.4byte	0x1018
 4412 0fe7 15       		.uleb128 0x15
 4413 0fe8 C4060000 		.4byte	.LASF360
 4414 0fec 00       		.byte	0
 4415 0fed 15       		.uleb128 0x15
 4416 0fee FE180000 		.4byte	.LASF361
 4417 0ff2 01       		.byte	0x1
 4418 0ff3 15       		.uleb128 0x15
 4419 0ff4 ED1D0000 		.4byte	.LASF362
 4420 0ff8 04       		.byte	0x4
 4421 0ff9 15       		.uleb128 0x15
ARM GAS  C:\Users\haske\AppData\Local\Temp\ccp0JrPn.s 			page 98


 4422 0ffa 52120000 		.4byte	.LASF363
 4423 0ffe 08       		.byte	0x8
 4424 0fff 15       		.uleb128 0x15
 4425 1000 FD0F0000 		.4byte	.LASF364
 4426 1004 0C       		.byte	0xc
 4427 1005 15       		.uleb128 0x15
 4428 1006 B61D0000 		.4byte	.LASF365
 4429 100a 05       		.byte	0x5
 4430 100b 15       		.uleb128 0x15
 4431 100c 2E1E0000 		.4byte	.LASF366
 4432 1010 09       		.byte	0x9
 4433 1011 15       		.uleb128 0x15
 4434 1012 990A0000 		.4byte	.LASF367
 4435 1016 0D       		.byte	0xd
 4436 1017 00       		.byte	0
 4437 1018 20       		.uleb128 0x20
 4438 1019 3F0D0000 		.4byte	.LASF368
 4439 101d 01       		.byte	0x1
 4440 101e 1302     		.2byte	0x213
 4441 1020 00000000 		.4byte	.LFB184
 4442 1024 0C000000 		.4byte	.LFE184-.LFB184
 4443 1028 01       		.uleb128 0x1
 4444 1029 9C       		.byte	0x9c
 4445 102a 82100000 		.4byte	0x1082
 4446 102e 21       		.uleb128 0x21
 4447 102f 3C130000 		.4byte	.LASF156
 4448 1033 01       		.byte	0x1
 4449 1034 1302     		.2byte	0x213
 4450 1036 B70D0000 		.4byte	0xdb7
 4451 103a 00000000 		.4byte	.LLST0
 4452 103e 22       		.uleb128 0x22
 4453 103f 6F626A00 		.ascii	"obj\000"
 4454 1043 01       		.byte	0x1
 4455 1044 1302     		.2byte	0x213
 4456 1046 4C0E0000 		.4byte	0xe4c
 4457 104a 21000000 		.4byte	.LLST1
 4458 104e 23       		.uleb128 0x23
 4459 104f 1E050000 		.4byte	.LASF330
 4460 1053 01       		.byte	0x1
 4461 1054 1802     		.2byte	0x218
 4462 1056 82100000 		.4byte	0x1082
 4463 105a 50000000 		.4byte	.LLST2
 4464 105e 23       		.uleb128 0x23
 4465 105f 5E040000 		.4byte	.LASF345
 4466 1063 01       		.byte	0x1
 4467 1064 1902     		.2byte	0x219
 4468 1066 88100000 		.4byte	0x1088
 4469 106a 7F000000 		.4byte	.LLST3
 4470 106e 24       		.uleb128 0x24
 4471 106f 0A000000 		.4byte	.LVL4
 4472 1073 C5280000 		.4byte	0x28c5
 4473 1077 25       		.uleb128 0x25
 4474 1078 01       		.uleb128 0x1
 4475 1079 50       		.byte	0x50
 4476 107a 05       		.uleb128 0x5
 4477 107b F3       		.byte	0xf3
 4478 107c 01       		.uleb128 0x1
ARM GAS  C:\Users\haske\AppData\Local\Temp\ccp0JrPn.s 			page 99


 4479 107d 51       		.byte	0x51
 4480 107e 23       		.byte	0x23
 4481 107f 54       		.uleb128 0x54
 4482 1080 00       		.byte	0
 4483 1081 00       		.byte	0
 4484 1082 0B       		.uleb128 0xb
 4485 1083 04       		.byte	0x4
 4486 1084 730F0000 		.4byte	0xf73
 4487 1088 0B       		.uleb128 0xb
 4488 1089 04       		.byte	0x4
 4489 108a 98070000 		.4byte	0x798
 4490 108e 20       		.uleb128 0x20
 4491 108f 02050000 		.4byte	.LASF369
 4492 1093 01       		.byte	0x1
 4493 1094 4002     		.2byte	0x240
 4494 1096 00000000 		.4byte	.LFB188
 4495 109a 16000000 		.4byte	.LFE188-.LFB188
 4496 109e 01       		.uleb128 0x1
 4497 109f 9C       		.byte	0x9c
 4498 10a0 F3100000 		.4byte	0x10f3
 4499 10a4 21       		.uleb128 0x21
 4500 10a5 3C130000 		.4byte	.LASF156
 4501 10a9 01       		.byte	0x1
 4502 10aa 4002     		.2byte	0x240
 4503 10ac B70D0000 		.4byte	0xdb7
 4504 10b0 A2000000 		.4byte	.LLST4
 4505 10b4 22       		.uleb128 0x22
 4506 10b5 6F626A00 		.ascii	"obj\000"
 4507 10b9 01       		.byte	0x1
 4508 10ba 4002     		.2byte	0x240
 4509 10bc 4C0E0000 		.4byte	0xe4c
 4510 10c0 C3000000 		.4byte	.LLST5
 4511 10c4 26       		.uleb128 0x26
 4512 10c5 0C000000 		.4byte	.LVL8
 4513 10c9 D0280000 		.4byte	0x28d0
 4514 10cd DD100000 		.4byte	0x10dd
 4515 10d1 25       		.uleb128 0x25
 4516 10d2 01       		.uleb128 0x1
 4517 10d3 50       		.byte	0x50
 4518 10d4 02       		.uleb128 0x2
 4519 10d5 74       		.byte	0x74
 4520 10d6 00       		.sleb128 0
 4521 10d7 25       		.uleb128 0x25
 4522 10d8 01       		.uleb128 0x1
 4523 10d9 51       		.byte	0x51
 4524 10da 01       		.uleb128 0x1
 4525 10db 31       		.byte	0x31
 4526 10dc 00       		.byte	0
 4527 10dd 24       		.uleb128 0x24
 4528 10de 14000000 		.4byte	.LVL9
 4529 10e2 DB280000 		.4byte	0x28db
 4530 10e6 25       		.uleb128 0x25
 4531 10e7 01       		.uleb128 0x1
 4532 10e8 50       		.byte	0x50
 4533 10e9 02       		.uleb128 0x2
 4534 10ea 74       		.byte	0x74
 4535 10eb 00       		.sleb128 0
ARM GAS  C:\Users\haske\AppData\Local\Temp\ccp0JrPn.s 			page 100


 4536 10ec 25       		.uleb128 0x25
 4537 10ed 01       		.uleb128 0x1
 4538 10ee 51       		.byte	0x51
 4539 10ef 01       		.uleb128 0x1
 4540 10f0 32       		.byte	0x32
 4541 10f1 00       		.byte	0
 4542 10f2 00       		.byte	0
 4543 10f3 20       		.uleb128 0x20
 4544 10f4 C70B0000 		.4byte	.LASF370
 4545 10f8 01       		.byte	0x1
 4546 10f9 3802     		.2byte	0x238
 4547 10fb 00000000 		.4byte	.LFB187
 4548 10ff 22000000 		.4byte	.LFE187-.LFB187
 4549 1103 01       		.uleb128 0x1
 4550 1104 9C       		.byte	0x9c
 4551 1105 7B110000 		.4byte	0x117b
 4552 1109 21       		.uleb128 0x21
 4553 110a 3C130000 		.4byte	.LASF156
 4554 110e 01       		.byte	0x1
 4555 110f 3802     		.2byte	0x238
 4556 1111 B70D0000 		.4byte	0xdb7
 4557 1115 EF000000 		.4byte	.LLST6
 4558 1119 22       		.uleb128 0x22
 4559 111a 6F626A00 		.ascii	"obj\000"
 4560 111e 01       		.byte	0x1
 4561 111f 3802     		.2byte	0x238
 4562 1121 4C0E0000 		.4byte	0xe4c
 4563 1125 10010000 		.4byte	.LLST7
 4564 1129 26       		.uleb128 0x26
 4565 112a 0C000000 		.4byte	.LVL14
 4566 112e D0280000 		.4byte	0x28d0
 4567 1132 42110000 		.4byte	0x1142
 4568 1136 25       		.uleb128 0x25
 4569 1137 01       		.uleb128 0x1
 4570 1138 50       		.byte	0x50
 4571 1139 02       		.uleb128 0x2
 4572 113a 74       		.byte	0x74
 4573 113b 00       		.sleb128 0
 4574 113c 25       		.uleb128 0x25
 4575 113d 01       		.uleb128 0x1
 4576 113e 51       		.byte	0x51
 4577 113f 01       		.uleb128 0x1
 4578 1140 30       		.byte	0x30
 4579 1141 00       		.byte	0
 4580 1142 26       		.uleb128 0x26
 4581 1143 18000000 		.4byte	.LVL15
 4582 1147 E6280000 		.4byte	0x28e6
 4583 114b 65110000 		.4byte	0x1165
 4584 114f 25       		.uleb128 0x25
 4585 1150 01       		.uleb128 0x1
 4586 1151 50       		.byte	0x50
 4587 1152 02       		.uleb128 0x2
 4588 1153 74       		.byte	0x74
 4589 1154 00       		.sleb128 0
 4590 1155 25       		.uleb128 0x25
 4591 1156 01       		.uleb128 0x1
 4592 1157 51       		.byte	0x51
ARM GAS  C:\Users\haske\AppData\Local\Temp\ccp0JrPn.s 			page 101


 4593 1158 01       		.uleb128 0x1
 4594 1159 30       		.byte	0x30
 4595 115a 25       		.uleb128 0x25
 4596 115b 01       		.uleb128 0x1
 4597 115c 52       		.byte	0x52
 4598 115d 01       		.uleb128 0x1
 4599 115e 32       		.byte	0x32
 4600 115f 25       		.uleb128 0x25
 4601 1160 01       		.uleb128 0x1
 4602 1161 53       		.byte	0x53
 4603 1162 01       		.uleb128 0x1
 4604 1163 32       		.byte	0x32
 4605 1164 00       		.byte	0
 4606 1165 24       		.uleb128 0x24
 4607 1166 20000000 		.4byte	.LVL16
 4608 116a DB280000 		.4byte	0x28db
 4609 116e 25       		.uleb128 0x25
 4610 116f 01       		.uleb128 0x1
 4611 1170 50       		.byte	0x50
 4612 1171 02       		.uleb128 0x2
 4613 1172 74       		.byte	0x74
 4614 1173 00       		.sleb128 0
 4615 1174 25       		.uleb128 0x25
 4616 1175 01       		.uleb128 0x1
 4617 1176 51       		.byte	0x51
 4618 1177 01       		.uleb128 0x1
 4619 1178 32       		.byte	0x32
 4620 1179 00       		.byte	0
 4621 117a 00       		.byte	0
 4622 117b 20       		.uleb128 0x20
 4623 117c AC080000 		.4byte	.LASF371
 4624 1180 01       		.byte	0x1
 4625 1181 D001     		.2byte	0x1d0
 4626 1183 00000000 		.4byte	.LFB183
 4627 1187 44010000 		.4byte	.LFE183-.LFB183
 4628 118b 01       		.uleb128 0x1
 4629 118c 9C       		.byte	0x9c
 4630 118d D3140000 		.4byte	0x14d3
 4631 1191 21       		.uleb128 0x21
 4632 1192 3C130000 		.4byte	.LASF156
 4633 1196 01       		.byte	0x1
 4634 1197 D001     		.2byte	0x1d0
 4635 1199 B70D0000 		.4byte	0xdb7
 4636 119d 3C010000 		.4byte	.LLST8
 4637 11a1 22       		.uleb128 0x22
 4638 11a2 6F626A00 		.ascii	"obj\000"
 4639 11a6 01       		.byte	0x1
 4640 11a7 D001     		.2byte	0x1d0
 4641 11a9 4C0E0000 		.4byte	0xe4c
 4642 11ad 5D010000 		.4byte	.LLST9
 4643 11b1 23       		.uleb128 0x23
 4644 11b2 1E050000 		.4byte	.LASF330
 4645 11b6 01       		.byte	0x1
 4646 11b7 D801     		.2byte	0x1d8
 4647 11b9 82100000 		.4byte	0x1082
 4648 11bd 89010000 		.4byte	.LLST10
 4649 11c1 23       		.uleb128 0x23
ARM GAS  C:\Users\haske\AppData\Local\Temp\ccp0JrPn.s 			page 102


 4650 11c2 D5140000 		.4byte	.LASF372
 4651 11c6 01       		.byte	0x1
 4652 11c7 EB01     		.2byte	0x1eb
 4653 11c9 4C0E0000 		.4byte	0xe4c
 4654 11cd AA010000 		.4byte	.LLST11
 4655 11d1 23       		.uleb128 0x23
 4656 11d2 B2200000 		.4byte	.LASF336
 4657 11d6 01       		.byte	0x1
 4658 11d7 F401     		.2byte	0x1f4
 4659 11d9 4C0E0000 		.4byte	0xe4c
 4660 11dd C8010000 		.4byte	.LLST12
 4661 11e1 23       		.uleb128 0x23
 4662 11e2 861D0000 		.4byte	.LASF337
 4663 11e6 01       		.byte	0x1
 4664 11e7 FE01     		.2byte	0x1fe
 4665 11e9 4C0E0000 		.4byte	0xe4c
 4666 11ed E6010000 		.4byte	.LLST13
 4667 11f1 23       		.uleb128 0x23
 4668 11f2 191A0000 		.4byte	.LASF373
 4669 11f6 01       		.byte	0x1
 4670 11f7 0402     		.2byte	0x204
 4671 11f9 4C0E0000 		.4byte	0xe4c
 4672 11fd 04020000 		.4byte	.LLST14
 4673 1201 23       		.uleb128 0x23
 4674 1202 CB1E0000 		.4byte	.LASF338
 4675 1206 01       		.byte	0x1
 4676 1207 0702     		.2byte	0x207
 4677 1209 4C0E0000 		.4byte	0xe4c
 4678 120d 17020000 		.4byte	.LLST15
 4679 1211 26       		.uleb128 0x26
 4680 1212 0E000000 		.4byte	.LVL21
 4681 1216 F1280000 		.4byte	0x28f1
 4682 121a 25120000 		.4byte	0x1225
 4683 121e 25       		.uleb128 0x25
 4684 121f 01       		.uleb128 0x1
 4685 1220 50       		.byte	0x50
 4686 1221 02       		.uleb128 0x2
 4687 1222 74       		.byte	0x74
 4688 1223 00       		.sleb128 0
 4689 1224 00       		.byte	0
 4690 1225 26       		.uleb128 0x26
 4691 1226 16000000 		.4byte	.LVL22
 4692 122a D0280000 		.4byte	0x28d0
 4693 122e 3E120000 		.4byte	0x123e
 4694 1232 25       		.uleb128 0x25
 4695 1233 01       		.uleb128 0x1
 4696 1234 50       		.byte	0x50
 4697 1235 02       		.uleb128 0x2
 4698 1236 74       		.byte	0x74
 4699 1237 00       		.sleb128 0
 4700 1238 25       		.uleb128 0x25
 4701 1239 01       		.uleb128 0x1
 4702 123a 51       		.byte	0x51
 4703 123b 01       		.uleb128 0x1
 4704 123c 30       		.byte	0x30
 4705 123d 00       		.byte	0
 4706 123e 26       		.uleb128 0x26
ARM GAS  C:\Users\haske\AppData\Local\Temp\ccp0JrPn.s 			page 103


 4707 123f 3C000000 		.4byte	.LVL23
 4708 1243 FC280000 		.4byte	0x28fc
 4709 1247 58120000 		.4byte	0x1258
 4710 124b 25       		.uleb128 0x25
 4711 124c 01       		.uleb128 0x1
 4712 124d 50       		.byte	0x50
 4713 124e 03       		.uleb128 0x3
 4714 124f 74       		.byte	0x74
 4715 1250 D400     		.sleb128 84
 4716 1252 25       		.uleb128 0x25
 4717 1253 01       		.uleb128 0x1
 4718 1254 51       		.byte	0x51
 4719 1255 01       		.uleb128 0x1
 4720 1256 34       		.byte	0x34
 4721 1257 00       		.byte	0
 4722 1258 26       		.uleb128 0x26
 4723 1259 42000000 		.4byte	.LVL24
 4724 125d 07290000 		.4byte	0x2907
 4725 1261 6C120000 		.4byte	0x126c
 4726 1265 25       		.uleb128 0x25
 4727 1266 01       		.uleb128 0x1
 4728 1267 50       		.byte	0x50
 4729 1268 02       		.uleb128 0x2
 4730 1269 74       		.byte	0x74
 4731 126a 00       		.sleb128 0
 4732 126b 00       		.byte	0
 4733 126c 26       		.uleb128 0x26
 4734 126d 4A000000 		.4byte	.LVL25
 4735 1271 12290000 		.4byte	0x2912
 4736 1275 7F120000 		.4byte	0x127f
 4737 1279 25       		.uleb128 0x25
 4738 127a 01       		.uleb128 0x1
 4739 127b 51       		.byte	0x51
 4740 127c 01       		.uleb128 0x1
 4741 127d 31       		.byte	0x31
 4742 127e 00       		.byte	0
 4743 127f 26       		.uleb128 0x26
 4744 1280 5E000000 		.4byte	.LVL26
 4745 1284 1D290000 		.4byte	0x291d
 4746 1288 99120000 		.4byte	0x1299
 4747 128c 25       		.uleb128 0x25
 4748 128d 01       		.uleb128 0x1
 4749 128e 50       		.byte	0x50
 4750 128f 02       		.uleb128 0x2
 4751 1290 76       		.byte	0x76
 4752 1291 00       		.sleb128 0
 4753 1292 25       		.uleb128 0x25
 4754 1293 01       		.uleb128 0x1
 4755 1294 51       		.byte	0x51
 4756 1295 02       		.uleb128 0x2
 4757 1296 74       		.byte	0x74
 4758 1297 00       		.sleb128 0
 4759 1298 00       		.byte	0
 4760 1299 26       		.uleb128 0x26
 4761 129a 64000000 		.4byte	.LVL28
 4762 129e 28290000 		.4byte	0x2928
 4763 12a2 AD120000 		.4byte	0x12ad
ARM GAS  C:\Users\haske\AppData\Local\Temp\ccp0JrPn.s 			page 104


 4764 12a6 25       		.uleb128 0x25
 4765 12a7 01       		.uleb128 0x1
 4766 12a8 50       		.byte	0x50
 4767 12a9 02       		.uleb128 0x2
 4768 12aa 75       		.byte	0x75
 4769 12ab 00       		.sleb128 0
 4770 12ac 00       		.byte	0
 4771 12ad 26       		.uleb128 0x26
 4772 12ae 6C000000 		.4byte	.LVL29
 4773 12b2 33290000 		.4byte	0x2933
 4774 12b6 C8120000 		.4byte	0x12c8
 4775 12ba 25       		.uleb128 0x25
 4776 12bb 01       		.uleb128 0x1
 4777 12bc 50       		.byte	0x50
 4778 12bd 02       		.uleb128 0x2
 4779 12be 75       		.byte	0x75
 4780 12bf 00       		.sleb128 0
 4781 12c0 25       		.uleb128 0x25
 4782 12c1 01       		.uleb128 0x1
 4783 12c2 51       		.byte	0x51
 4784 12c3 03       		.uleb128 0x3
 4785 12c4 0A       		.byte	0xa
 4786 12c5 6420     		.2byte	0x2064
 4787 12c7 00       		.byte	0
 4788 12c8 26       		.uleb128 0x26
 4789 12c9 74000000 		.4byte	.LVL30
 4790 12cd 3E290000 		.4byte	0x293e
 4791 12d1 E1120000 		.4byte	0x12e1
 4792 12d5 25       		.uleb128 0x25
 4793 12d6 01       		.uleb128 0x1
 4794 12d7 50       		.byte	0x50
 4795 12d8 02       		.uleb128 0x2
 4796 12d9 75       		.byte	0x75
 4797 12da 00       		.sleb128 0
 4798 12db 25       		.uleb128 0x25
 4799 12dc 01       		.uleb128 0x1
 4800 12dd 51       		.byte	0x51
 4801 12de 01       		.uleb128 0x1
 4802 12df 31       		.byte	0x31
 4803 12e0 00       		.byte	0
 4804 12e1 26       		.uleb128 0x26
 4805 12e2 7C000000 		.4byte	.LVL31
 4806 12e6 D0280000 		.4byte	0x28d0
 4807 12ea FA120000 		.4byte	0x12fa
 4808 12ee 25       		.uleb128 0x25
 4809 12ef 01       		.uleb128 0x1
 4810 12f0 50       		.byte	0x50
 4811 12f1 02       		.uleb128 0x2
 4812 12f2 75       		.byte	0x75
 4813 12f3 00       		.sleb128 0
 4814 12f4 25       		.uleb128 0x25
 4815 12f5 01       		.uleb128 0x1
 4816 12f6 51       		.byte	0x51
 4817 12f7 01       		.uleb128 0x1
 4818 12f8 31       		.byte	0x31
 4819 12f9 00       		.byte	0
 4820 12fa 26       		.uleb128 0x26
ARM GAS  C:\Users\haske\AppData\Local\Temp\ccp0JrPn.s 			page 105


 4821 12fb 86000000 		.4byte	.LVL32
 4822 12ff 12290000 		.4byte	0x2912
 4823 1303 15130000 		.4byte	0x1315
 4824 1307 25       		.uleb128 0x25
 4825 1308 01       		.uleb128 0x1
 4826 1309 50       		.byte	0x50
 4827 130a 02       		.uleb128 0x2
 4828 130b 75       		.byte	0x75
 4829 130c 00       		.sleb128 0
 4830 130d 25       		.uleb128 0x25
 4831 130e 01       		.uleb128 0x1
 4832 130f 51       		.byte	0x51
 4833 1310 03       		.uleb128 0x3
 4834 1311 0A       		.byte	0xa
 4835 1312 0040     		.2byte	0x4000
 4836 1314 00       		.byte	0
 4837 1315 26       		.uleb128 0x26
 4838 1316 8E000000 		.4byte	.LVL33
 4839 131a DB280000 		.4byte	0x28db
 4840 131e 2E130000 		.4byte	0x132e
 4841 1322 25       		.uleb128 0x25
 4842 1323 01       		.uleb128 0x1
 4843 1324 50       		.byte	0x50
 4844 1325 02       		.uleb128 0x2
 4845 1326 75       		.byte	0x75
 4846 1327 00       		.sleb128 0
 4847 1328 25       		.uleb128 0x25
 4848 1329 01       		.uleb128 0x1
 4849 132a 51       		.byte	0x51
 4850 132b 01       		.uleb128 0x1
 4851 132c 32       		.byte	0x32
 4852 132d 00       		.byte	0
 4853 132e 26       		.uleb128 0x26
 4854 132f 9A000000 		.4byte	.LVL34
 4855 1333 1D290000 		.4byte	0x291d
 4856 1337 48130000 		.4byte	0x1348
 4857 133b 25       		.uleb128 0x25
 4858 133c 01       		.uleb128 0x1
 4859 133d 50       		.byte	0x50
 4860 133e 02       		.uleb128 0x2
 4861 133f 76       		.byte	0x76
 4862 1340 1C       		.sleb128 28
 4863 1341 25       		.uleb128 0x25
 4864 1342 01       		.uleb128 0x1
 4865 1343 51       		.byte	0x51
 4866 1344 02       		.uleb128 0x2
 4867 1345 75       		.byte	0x75
 4868 1346 00       		.sleb128 0
 4869 1347 00       		.byte	0
 4870 1348 26       		.uleb128 0x26
 4871 1349 A0000000 		.4byte	.LVL36
 4872 134d 28290000 		.4byte	0x2928
 4873 1351 5C130000 		.4byte	0x135c
 4874 1355 25       		.uleb128 0x25
 4875 1356 01       		.uleb128 0x1
 4876 1357 50       		.byte	0x50
 4877 1358 02       		.uleb128 0x2
ARM GAS  C:\Users\haske\AppData\Local\Temp\ccp0JrPn.s 			page 106


 4878 1359 75       		.byte	0x75
 4879 135a 00       		.sleb128 0
 4880 135b 00       		.byte	0
 4881 135c 26       		.uleb128 0x26
 4882 135d AA000000 		.4byte	.LVL37
 4883 1361 49290000 		.4byte	0x2949
 4884 1365 7E130000 		.4byte	0x137e
 4885 1369 25       		.uleb128 0x25
 4886 136a 01       		.uleb128 0x1
 4887 136b 50       		.byte	0x50
 4888 136c 02       		.uleb128 0x2
 4889 136d 75       		.byte	0x75
 4890 136e 00       		.sleb128 0
 4891 136f 25       		.uleb128 0x25
 4892 1370 01       		.uleb128 0x1
 4893 1371 51       		.byte	0x51
 4894 1372 03       		.uleb128 0x3
 4895 1373 0A       		.byte	0xa
 4896 1374 6420     		.2byte	0x2064
 4897 1376 25       		.uleb128 0x25
 4898 1377 01       		.uleb128 0x1
 4899 1378 52       		.byte	0x52
 4900 1379 03       		.uleb128 0x3
 4901 137a 0A       		.byte	0xa
 4902 137b D127     		.2byte	0x27d1
 4903 137d 00       		.byte	0
 4904 137e 26       		.uleb128 0x26
 4905 137f B2000000 		.4byte	.LVL38
 4906 1383 D0280000 		.4byte	0x28d0
 4907 1387 98130000 		.4byte	0x1398
 4908 138b 25       		.uleb128 0x25
 4909 138c 01       		.uleb128 0x1
 4910 138d 50       		.byte	0x50
 4911 138e 02       		.uleb128 0x2
 4912 138f 75       		.byte	0x75
 4913 1390 00       		.sleb128 0
 4914 1391 25       		.uleb128 0x25
 4915 1392 01       		.uleb128 0x1
 4916 1393 51       		.byte	0x51
 4917 1394 02       		.uleb128 0x2
 4918 1395 77       		.byte	0x77
 4919 1396 00       		.sleb128 0
 4920 1397 00       		.byte	0
 4921 1398 26       		.uleb128 0x26
 4922 1399 BE000000 		.4byte	.LVL39
 4923 139d E6280000 		.4byte	0x28e6
 4924 13a1 BC130000 		.4byte	0x13bc
 4925 13a5 25       		.uleb128 0x25
 4926 13a6 01       		.uleb128 0x1
 4927 13a7 50       		.byte	0x50
 4928 13a8 02       		.uleb128 0x2
 4929 13a9 75       		.byte	0x75
 4930 13aa 00       		.sleb128 0
 4931 13ab 25       		.uleb128 0x25
 4932 13ac 01       		.uleb128 0x1
 4933 13ad 51       		.byte	0x51
 4934 13ae 02       		.uleb128 0x2
ARM GAS  C:\Users\haske\AppData\Local\Temp\ccp0JrPn.s 			page 107


 4935 13af 77       		.byte	0x77
 4936 13b0 00       		.sleb128 0
 4937 13b1 25       		.uleb128 0x25
 4938 13b2 01       		.uleb128 0x1
 4939 13b3 52       		.byte	0x52
 4940 13b4 01       		.uleb128 0x1
 4941 13b5 32       		.byte	0x32
 4942 13b6 25       		.uleb128 0x25
 4943 13b7 01       		.uleb128 0x1
 4944 13b8 53       		.byte	0x53
 4945 13b9 01       		.uleb128 0x1
 4946 13ba 32       		.byte	0x32
 4947 13bb 00       		.byte	0
 4948 13bc 26       		.uleb128 0x26
 4949 13bd C6000000 		.4byte	.LVL40
 4950 13c1 DB280000 		.4byte	0x28db
 4951 13c5 D5130000 		.4byte	0x13d5
 4952 13c9 25       		.uleb128 0x25
 4953 13ca 01       		.uleb128 0x1
 4954 13cb 50       		.byte	0x50
 4955 13cc 02       		.uleb128 0x2
 4956 13cd 75       		.byte	0x75
 4957 13ce 00       		.sleb128 0
 4958 13cf 25       		.uleb128 0x25
 4959 13d0 01       		.uleb128 0x1
 4960 13d1 51       		.byte	0x51
 4961 13d2 01       		.uleb128 0x1
 4962 13d3 32       		.byte	0x32
 4963 13d4 00       		.byte	0
 4964 13d5 26       		.uleb128 0x26
 4965 13d6 D0000000 		.4byte	.LVL41
 4966 13da 12290000 		.4byte	0x2912
 4967 13de F0130000 		.4byte	0x13f0
 4968 13e2 25       		.uleb128 0x25
 4969 13e3 01       		.uleb128 0x1
 4970 13e4 50       		.byte	0x50
 4971 13e5 02       		.uleb128 0x2
 4972 13e6 75       		.byte	0x75
 4973 13e7 00       		.sleb128 0
 4974 13e8 25       		.uleb128 0x25
 4975 13e9 01       		.uleb128 0x1
 4976 13ea 51       		.byte	0x51
 4977 13eb 03       		.uleb128 0x3
 4978 13ec 0A       		.byte	0xa
 4979 13ed 0040     		.2byte	0x4000
 4980 13ef 00       		.byte	0
 4981 13f0 26       		.uleb128 0x26
 4982 13f1 D8000000 		.4byte	.LVL42
 4983 13f5 54290000 		.4byte	0x2954
 4984 13f9 04140000 		.4byte	0x1404
 4985 13fd 25       		.uleb128 0x25
 4986 13fe 01       		.uleb128 0x1
 4987 13ff 50       		.byte	0x50
 4988 1400 02       		.uleb128 0x2
 4989 1401 75       		.byte	0x75
 4990 1402 00       		.sleb128 0
 4991 1403 00       		.byte	0
ARM GAS  C:\Users\haske\AppData\Local\Temp\ccp0JrPn.s 			page 108


 4992 1404 26       		.uleb128 0x26
 4993 1405 E4000000 		.4byte	.LVL44
 4994 1409 5F290000 		.4byte	0x295f
 4995 140d 2C140000 		.4byte	0x142c
 4996 1411 25       		.uleb128 0x25
 4997 1412 01       		.uleb128 0x1
 4998 1413 50       		.byte	0x50
 4999 1414 02       		.uleb128 0x2
 5000 1415 75       		.byte	0x75
 5001 1416 00       		.sleb128 0
 5002 1417 25       		.uleb128 0x25
 5003 1418 01       		.uleb128 0x1
 5004 1419 51       		.byte	0x51
 5005 141a 05       		.uleb128 0x5
 5006 141b 03       		.byte	0x3
 5007 141c 00000000 		.4byte	lv_menu_back_event_cb
 5008 1420 25       		.uleb128 0x25
 5009 1421 01       		.uleb128 0x1
 5010 1422 52       		.byte	0x52
 5011 1423 01       		.uleb128 0x1
 5012 1424 37       		.byte	0x37
 5013 1425 25       		.uleb128 0x25
 5014 1426 01       		.uleb128 0x1
 5015 1427 53       		.byte	0x53
 5016 1428 02       		.uleb128 0x2
 5017 1429 74       		.byte	0x74
 5018 142a 00       		.sleb128 0
 5019 142b 00       		.byte	0
 5020 142c 26       		.uleb128 0x26
 5021 142d EE000000 		.4byte	.LVL45
 5022 1431 12290000 		.4byte	0x2912
 5023 1435 47140000 		.4byte	0x1447
 5024 1439 25       		.uleb128 0x25
 5025 143a 01       		.uleb128 0x1
 5026 143b 50       		.byte	0x50
 5027 143c 02       		.uleb128 0x2
 5028 143d 75       		.byte	0x75
 5029 143e 00       		.sleb128 0
 5030 143f 25       		.uleb128 0x25
 5031 1440 01       		.uleb128 0x1
 5032 1441 51       		.byte	0x51
 5033 1442 03       		.uleb128 0x3
 5034 1443 0A       		.byte	0xa
 5035 1444 0040     		.2byte	0x4000
 5036 1446 00       		.byte	0
 5037 1447 26       		.uleb128 0x26
 5038 1448 F6000000 		.4byte	.LVL46
 5039 144c D0280000 		.4byte	0x28d0
 5040 1450 61140000 		.4byte	0x1461
 5041 1454 25       		.uleb128 0x25
 5042 1455 01       		.uleb128 0x1
 5043 1456 50       		.byte	0x50
 5044 1457 02       		.uleb128 0x2
 5045 1458 75       		.byte	0x75
 5046 1459 00       		.sleb128 0
 5047 145a 25       		.uleb128 0x25
 5048 145b 01       		.uleb128 0x1
ARM GAS  C:\Users\haske\AppData\Local\Temp\ccp0JrPn.s 			page 109


 5049 145c 51       		.byte	0x51
 5050 145d 02       		.uleb128 0x2
 5051 145e 77       		.byte	0x77
 5052 145f 00       		.sleb128 0
 5053 1460 00       		.byte	0
 5054 1461 26       		.uleb128 0x26
 5055 1462 FE000000 		.4byte	.LVL47
 5056 1466 6A290000 		.4byte	0x296a
 5057 146a 75140000 		.4byte	0x1475
 5058 146e 25       		.uleb128 0x25
 5059 146f 01       		.uleb128 0x1
 5060 1470 50       		.byte	0x50
 5061 1471 02       		.uleb128 0x2
 5062 1472 75       		.byte	0x75
 5063 1473 00       		.sleb128 0
 5064 1474 00       		.byte	0
 5065 1475 26       		.uleb128 0x26
 5066 1476 04010000 		.4byte	.LVL48
 5067 147a 75290000 		.4byte	0x2975
 5068 147e 8C140000 		.4byte	0x148c
 5069 1482 25       		.uleb128 0x25
 5070 1483 01       		.uleb128 0x1
 5071 1484 51       		.byte	0x51
 5072 1485 05       		.uleb128 0x5
 5073 1486 03       		.byte	0x3
 5074 1487 00000000 		.4byte	.LC3
 5075 148b 00       		.byte	0
 5076 148c 27       		.uleb128 0x27
 5077 148d 0A010000 		.4byte	.LVL49
 5078 1491 80290000 		.4byte	0x2980
 5079 1495 26       		.uleb128 0x26
 5080 1496 12010000 		.4byte	.LVL51
 5081 149a 12290000 		.4byte	0x2912
 5082 149e AE140000 		.4byte	0x14ae
 5083 14a2 25       		.uleb128 0x25
 5084 14a3 01       		.uleb128 0x1
 5085 14a4 50       		.byte	0x50
 5086 14a5 02       		.uleb128 0x2
 5087 14a6 75       		.byte	0x75
 5088 14a7 00       		.sleb128 0
 5089 14a8 25       		.uleb128 0x25
 5090 14a9 01       		.uleb128 0x1
 5091 14aa 51       		.byte	0x51
 5092 14ab 01       		.uleb128 0x1
 5093 14ac 31       		.byte	0x31
 5094 14ad 00       		.byte	0
 5095 14ae 24       		.uleb128 0x24
 5096 14af 24010000 		.4byte	.LVL52
 5097 14b3 5F290000 		.4byte	0x295f
 5098 14b7 25       		.uleb128 0x25
 5099 14b8 01       		.uleb128 0x1
 5100 14b9 50       		.byte	0x50
 5101 14ba 02       		.uleb128 0x2
 5102 14bb 74       		.byte	0x74
 5103 14bc 00       		.sleb128 0
 5104 14bd 25       		.uleb128 0x25
 5105 14be 01       		.uleb128 0x1
ARM GAS  C:\Users\haske\AppData\Local\Temp\ccp0JrPn.s 			page 110


 5106 14bf 51       		.byte	0x51
 5107 14c0 05       		.uleb128 0x5
 5108 14c1 03       		.byte	0x3
 5109 14c2 00000000 		.4byte	lv_menu_value_changed_event_cb
 5110 14c6 25       		.uleb128 0x25
 5111 14c7 01       		.uleb128 0x1
 5112 14c8 52       		.byte	0x52
 5113 14c9 01       		.uleb128 0x1
 5114 14ca 4C       		.byte	0x4c
 5115 14cb 25       		.uleb128 0x25
 5116 14cc 01       		.uleb128 0x1
 5117 14cd 53       		.byte	0x53
 5118 14ce 02       		.uleb128 0x2
 5119 14cf 74       		.byte	0x74
 5120 14d0 00       		.sleb128 0
 5121 14d1 00       		.byte	0
 5122 14d2 00       		.byte	0
 5123 14d3 20       		.uleb128 0x20
 5124 14d4 051B0000 		.4byte	.LASF374
 5125 14d8 01       		.byte	0x1
 5126 14d9 2C02     		.2byte	0x22c
 5127 14db 00000000 		.4byte	.LFB186
 5128 14df 14000000 		.4byte	.LFE186-.LFB186
 5129 14e3 01       		.uleb128 0x1
 5130 14e4 9C       		.byte	0x9c
 5131 14e5 23150000 		.4byte	0x1523
 5132 14e9 21       		.uleb128 0x21
 5133 14ea 3C130000 		.4byte	.LASF156
 5134 14ee 01       		.byte	0x1
 5135 14ef 2C02     		.2byte	0x22c
 5136 14f1 B70D0000 		.4byte	0xdb7
 5137 14f5 35020000 		.4byte	.LLST16
 5138 14f9 22       		.uleb128 0x22
 5139 14fa 6F626A00 		.ascii	"obj\000"
 5140 14fe 01       		.byte	0x1
 5141 14ff 2C02     		.2byte	0x22c
 5142 1501 4C0E0000 		.4byte	0xe4c
 5143 1505 56020000 		.4byte	.LLST17
 5144 1509 23       		.uleb128 0x23
 5145 150a F1140000 		.4byte	.LASF331
 5146 150e 01       		.byte	0x1
 5147 150f 3002     		.2byte	0x230
 5148 1511 23150000 		.4byte	0x1523
 5149 1515 82020000 		.4byte	.LLST18
 5150 1519 27       		.uleb128 0x27
 5151 151a 0E000000 		.4byte	.LVL58
 5152 151e 8B290000 		.4byte	0x298b
 5153 1522 00       		.byte	0
 5154 1523 0B       		.uleb128 0xb
 5155 1524 04       		.byte	0x4
 5156 1525 9F0F0000 		.4byte	0xf9f
 5157 1529 20       		.uleb128 0x20
 5158 152a 19180000 		.4byte	.LASF375
 5159 152e 01       		.byte	0x1
 5160 152f B702     		.2byte	0x2b7
 5161 1531 00000000 		.4byte	.LFB192
 5162 1535 0C000000 		.4byte	.LFE192-.LFB192
ARM GAS  C:\Users\haske\AppData\Local\Temp\ccp0JrPn.s 			page 111


 5163 1539 01       		.uleb128 0x1
 5164 153a 9C       		.byte	0x9c
 5165 153b 7C150000 		.4byte	0x157c
 5166 153f 22       		.uleb128 0x22
 5167 1540 6500     		.ascii	"e\000"
 5168 1542 01       		.byte	0x1
 5169 1543 B702     		.2byte	0x2b7
 5170 1545 960C0000 		.4byte	0xc96
 5171 1549 AE020000 		.4byte	.LLST19
 5172 154d 23       		.uleb128 0x23
 5173 154e CE170000 		.4byte	.LASF376
 5174 1552 01       		.byte	0x1
 5175 1553 B902     		.2byte	0x2b9
 5176 1555 7C150000 		.4byte	0x157c
 5177 1559 CF020000 		.4byte	.LLST20
 5178 155d 26       		.uleb128 0x26
 5179 155e 06000000 		.4byte	.LVL61
 5180 1562 96290000 		.4byte	0x2996
 5181 1566 72150000 		.4byte	0x1572
 5182 156a 25       		.uleb128 0x25
 5183 156b 01       		.uleb128 0x1
 5184 156c 50       		.byte	0x50
 5185 156d 03       		.uleb128 0x3
 5186 156e F3       		.byte	0xf3
 5187 156f 01       		.uleb128 0x1
 5188 1570 50       		.byte	0x50
 5189 1571 00       		.byte	0
 5190 1572 27       		.uleb128 0x27
 5191 1573 0A000000 		.4byte	.LVL62
 5192 1577 8B290000 		.4byte	0x298b
 5193 157b 00       		.byte	0
 5194 157c 0B       		.uleb128 0xb
 5195 157d 04       		.byte	0x4
 5196 157e 520E0000 		.4byte	0xe52
 5197 1582 20       		.uleb128 0x20
 5198 1583 05110000 		.4byte	.LASF377
 5199 1587 01       		.byte	0x1
 5200 1588 2002     		.2byte	0x220
 5201 158a 00000000 		.4byte	.LFB185
 5202 158e 32000000 		.4byte	.LFE185-.LFB185
 5203 1592 01       		.uleb128 0x1
 5204 1593 9C       		.byte	0x9c
 5205 1594 44160000 		.4byte	0x1644
 5206 1598 21       		.uleb128 0x21
 5207 1599 3C130000 		.4byte	.LASF156
 5208 159d 01       		.byte	0x1
 5209 159e 2002     		.2byte	0x220
 5210 15a0 B70D0000 		.4byte	0xdb7
 5211 15a4 E2020000 		.4byte	.LLST21
 5212 15a8 22       		.uleb128 0x22
 5213 15a9 6F626A00 		.ascii	"obj\000"
 5214 15ad 01       		.byte	0x1
 5215 15ae 2002     		.2byte	0x220
 5216 15b0 4C0E0000 		.4byte	0xe4c
 5217 15b4 03030000 		.4byte	.LLST22
 5218 15b8 23       		.uleb128 0x23
 5219 15b9 1E050000 		.4byte	.LASF330
ARM GAS  C:\Users\haske\AppData\Local\Temp\ccp0JrPn.s 			page 112


 5220 15bd 01       		.byte	0x1
 5221 15be 2402     		.2byte	0x224
 5222 15c0 82100000 		.4byte	0x1082
 5223 15c4 2F030000 		.4byte	.LLST23
 5224 15c8 26       		.uleb128 0x26
 5225 15c9 0A000000 		.4byte	.LVL65
 5226 15cd A1290000 		.4byte	0x29a1
 5227 15d1 DC150000 		.4byte	0x15dc
 5228 15d5 25       		.uleb128 0x25
 5229 15d6 01       		.uleb128 0x1
 5230 15d7 50       		.byte	0x50
 5231 15d8 02       		.uleb128 0x2
 5232 15d9 74       		.byte	0x74
 5233 15da 00       		.sleb128 0
 5234 15db 00       		.byte	0
 5235 15dc 26       		.uleb128 0x26
 5236 15dd 12000000 		.4byte	.LVL67
 5237 15e1 AC290000 		.4byte	0x29ac
 5238 15e5 F0150000 		.4byte	0x15f0
 5239 15e9 25       		.uleb128 0x25
 5240 15ea 01       		.uleb128 0x1
 5241 15eb 50       		.byte	0x50
 5242 15ec 02       		.uleb128 0x2
 5243 15ed 74       		.byte	0x74
 5244 15ee 00       		.sleb128 0
 5245 15ef 00       		.byte	0
 5246 15f0 26       		.uleb128 0x26
 5247 15f1 1A000000 		.4byte	.LVL68
 5248 15f5 D0280000 		.4byte	0x28d0
 5249 15f9 09160000 		.4byte	0x1609
 5250 15fd 25       		.uleb128 0x25
 5251 15fe 01       		.uleb128 0x1
 5252 15ff 50       		.byte	0x50
 5253 1600 02       		.uleb128 0x2
 5254 1601 74       		.byte	0x74
 5255 1602 00       		.sleb128 0
 5256 1603 25       		.uleb128 0x25
 5257 1604 01       		.uleb128 0x1
 5258 1605 51       		.byte	0x51
 5259 1606 01       		.uleb128 0x1
 5260 1607 31       		.byte	0x31
 5261 1608 00       		.byte	0
 5262 1609 26       		.uleb128 0x26
 5263 160a 26000000 		.4byte	.LVL69
 5264 160e E6280000 		.4byte	0x28e6
 5265 1612 2C160000 		.4byte	0x162c
 5266 1616 25       		.uleb128 0x25
 5267 1617 01       		.uleb128 0x1
 5268 1618 50       		.byte	0x50
 5269 1619 02       		.uleb128 0x2
 5270 161a 74       		.byte	0x74
 5271 161b 00       		.sleb128 0
 5272 161c 25       		.uleb128 0x25
 5273 161d 01       		.uleb128 0x1
 5274 161e 51       		.byte	0x51
 5275 161f 01       		.uleb128 0x1
 5276 1620 30       		.byte	0x30
ARM GAS  C:\Users\haske\AppData\Local\Temp\ccp0JrPn.s 			page 113


 5277 1621 25       		.uleb128 0x25
 5278 1622 01       		.uleb128 0x1
 5279 1623 52       		.byte	0x52
 5280 1624 01       		.uleb128 0x1
 5281 1625 32       		.byte	0x32
 5282 1626 25       		.uleb128 0x25
 5283 1627 01       		.uleb128 0x1
 5284 1628 53       		.byte	0x53
 5285 1629 01       		.uleb128 0x1
 5286 162a 32       		.byte	0x32
 5287 162b 00       		.byte	0
 5288 162c 24       		.uleb128 0x24
 5289 162d 30000000 		.4byte	.LVL70
 5290 1631 12290000 		.4byte	0x2912
 5291 1635 25       		.uleb128 0x25
 5292 1636 01       		.uleb128 0x1
 5293 1637 50       		.byte	0x50
 5294 1638 02       		.uleb128 0x2
 5295 1639 74       		.byte	0x74
 5296 163a 00       		.sleb128 0
 5297 163b 25       		.uleb128 0x25
 5298 163c 01       		.uleb128 0x1
 5299 163d 51       		.byte	0x51
 5300 163e 03       		.uleb128 0x3
 5301 163f 0A       		.byte	0xa
 5302 1640 0040     		.2byte	0x4000
 5303 1642 00       		.byte	0
 5304 1643 00       		.byte	0
 5305 1644 20       		.uleb128 0x20
 5306 1645 56110000 		.4byte	.LASF378
 5307 1649 01       		.byte	0x1
 5308 164a 6A02     		.2byte	0x26a
 5309 164c 00000000 		.4byte	.LFB190
 5310 1650 84000000 		.4byte	.LFE190-.LFB190
 5311 1654 01       		.uleb128 0x1
 5312 1655 9C       		.byte	0x9c
 5313 1656 33170000 		.4byte	0x1733
 5314 165a 22       		.uleb128 0x22
 5315 165b 6F626A00 		.ascii	"obj\000"
 5316 165f 01       		.byte	0x1
 5317 1660 6A02     		.2byte	0x26a
 5318 1662 4C0E0000 		.4byte	0xe4c
 5319 1666 42030000 		.4byte	.LLST24
 5320 166a 23       		.uleb128 0x23
 5321 166b 1E050000 		.4byte	.LASF330
 5322 166f 01       		.byte	0x1
 5323 1670 6E02     		.2byte	0x26e
 5324 1672 82100000 		.4byte	0x1082
 5325 1676 6E030000 		.4byte	.LLST25
 5326 167a 26       		.uleb128 0x26
 5327 167b 2C000000 		.4byte	.LVL75
 5328 167f B7290000 		.4byte	0x29b7
 5329 1683 8D160000 		.4byte	0x168d
 5330 1687 25       		.uleb128 0x25
 5331 1688 01       		.uleb128 0x1
 5332 1689 51       		.byte	0x51
 5333 168a 01       		.uleb128 0x1
ARM GAS  C:\Users\haske\AppData\Local\Temp\ccp0JrPn.s 			page 114


 5334 168b 30       		.byte	0x30
 5335 168c 00       		.byte	0
 5336 168d 26       		.uleb128 0x26
 5337 168e 34000000 		.4byte	.LVL76
 5338 1692 3E290000 		.4byte	0x293e
 5339 1696 A0160000 		.4byte	0x16a0
 5340 169a 25       		.uleb128 0x25
 5341 169b 01       		.uleb128 0x1
 5342 169c 51       		.byte	0x51
 5343 169d 01       		.uleb128 0x1
 5344 169e 31       		.byte	0x31
 5345 169f 00       		.byte	0
 5346 16a0 26       		.uleb128 0x26
 5347 16a1 3C000000 		.4byte	.LVL77
 5348 16a5 B7290000 		.4byte	0x29b7
 5349 16a9 B3160000 		.4byte	0x16b3
 5350 16ad 25       		.uleb128 0x25
 5351 16ae 01       		.uleb128 0x1
 5352 16af 51       		.byte	0x51
 5353 16b0 01       		.uleb128 0x1
 5354 16b1 30       		.byte	0x30
 5355 16b2 00       		.byte	0
 5356 16b3 26       		.uleb128 0x26
 5357 16b4 44000000 		.4byte	.LVL78
 5358 16b8 3E290000 		.4byte	0x293e
 5359 16bc C6160000 		.4byte	0x16c6
 5360 16c0 25       		.uleb128 0x25
 5361 16c1 01       		.uleb128 0x1
 5362 16c2 51       		.byte	0x51
 5363 16c3 01       		.uleb128 0x1
 5364 16c4 30       		.byte	0x30
 5365 16c5 00       		.byte	0
 5366 16c6 26       		.uleb128 0x26
 5367 16c7 4C000000 		.4byte	.LVL79
 5368 16cb B7290000 		.4byte	0x29b7
 5369 16cf D9160000 		.4byte	0x16d9
 5370 16d3 25       		.uleb128 0x25
 5371 16d4 01       		.uleb128 0x1
 5372 16d5 51       		.byte	0x51
 5373 16d6 01       		.uleb128 0x1
 5374 16d7 31       		.byte	0x31
 5375 16d8 00       		.byte	0
 5376 16d9 26       		.uleb128 0x26
 5377 16da 54000000 		.4byte	.LVL80
 5378 16de 3E290000 		.4byte	0x293e
 5379 16e2 EC160000 		.4byte	0x16ec
 5380 16e6 25       		.uleb128 0x25
 5381 16e7 01       		.uleb128 0x1
 5382 16e8 51       		.byte	0x51
 5383 16e9 01       		.uleb128 0x1
 5384 16ea 31       		.byte	0x31
 5385 16eb 00       		.byte	0
 5386 16ec 27       		.uleb128 0x27
 5387 16ed 5A000000 		.4byte	.LVL81
 5388 16f1 C2290000 		.4byte	0x29c2
 5389 16f5 27       		.uleb128 0x27
 5390 16f6 60000000 		.4byte	.LVL82
ARM GAS  C:\Users\haske\AppData\Local\Temp\ccp0JrPn.s 			page 115


 5391 16fa C2290000 		.4byte	0x29c2
 5392 16fe 27       		.uleb128 0x27
 5393 16ff 66000000 		.4byte	.LVL83
 5394 1703 CD290000 		.4byte	0x29cd
 5395 1707 27       		.uleb128 0x27
 5396 1708 6C000000 		.4byte	.LVL84
 5397 170c D8290000 		.4byte	0x29d8
 5398 1710 26       		.uleb128 0x26
 5399 1711 78000000 		.4byte	.LVL85
 5400 1715 12290000 		.4byte	0x2912
 5401 1719 23170000 		.4byte	0x1723
 5402 171d 25       		.uleb128 0x25
 5403 171e 01       		.uleb128 0x1
 5404 171f 51       		.byte	0x51
 5405 1720 01       		.uleb128 0x1
 5406 1721 31       		.byte	0x31
 5407 1722 00       		.byte	0
 5408 1723 24       		.uleb128 0x24
 5409 1724 82000000 		.4byte	.LVL86
 5410 1728 DB280000 		.4byte	0x28db
 5411 172c 25       		.uleb128 0x25
 5412 172d 01       		.uleb128 0x1
 5413 172e 51       		.byte	0x51
 5414 172f 01       		.uleb128 0x1
 5415 1730 31       		.byte	0x31
 5416 1731 00       		.byte	0
 5417 1732 00       		.byte	0
 5418 1733 20       		.uleb128 0x20
 5419 1734 9D040000 		.4byte	.LASF379
 5420 1738 01       		.byte	0x1
 5421 1739 4702     		.2byte	0x247
 5422 173b 00000000 		.4byte	.LFB189
 5423 173f 7E000000 		.4byte	.LFE189-.LFB189
 5424 1743 01       		.uleb128 0x1
 5425 1744 9C       		.byte	0x9c
 5426 1745 19180000 		.4byte	0x1819
 5427 1749 22       		.uleb128 0x22
 5428 174a 6F626A00 		.ascii	"obj\000"
 5429 174e 01       		.byte	0x1
 5430 174f 4702     		.2byte	0x247
 5431 1751 4C0E0000 		.4byte	0xe4c
 5432 1755 9A030000 		.4byte	.LLST26
 5433 1759 23       		.uleb128 0x23
 5434 175a 1E050000 		.4byte	.LASF330
 5435 175e 01       		.byte	0x1
 5436 175f 4B02     		.2byte	0x24b
 5437 1761 82100000 		.4byte	0x1082
 5438 1765 C6030000 		.4byte	.LLST27
 5439 1769 26       		.uleb128 0x26
 5440 176a 2C000000 		.4byte	.LVL91
 5441 176e B7290000 		.4byte	0x29b7
 5442 1772 7C170000 		.4byte	0x177c
 5443 1776 25       		.uleb128 0x25
 5444 1777 01       		.uleb128 0x1
 5445 1778 51       		.byte	0x51
 5446 1779 01       		.uleb128 0x1
 5447 177a 30       		.byte	0x30
ARM GAS  C:\Users\haske\AppData\Local\Temp\ccp0JrPn.s 			page 116


 5448 177b 00       		.byte	0
 5449 177c 26       		.uleb128 0x26
 5450 177d 34000000 		.4byte	.LVL92
 5451 1781 3E290000 		.4byte	0x293e
 5452 1785 8F170000 		.4byte	0x178f
 5453 1789 25       		.uleb128 0x25
 5454 178a 01       		.uleb128 0x1
 5455 178b 51       		.byte	0x51
 5456 178c 01       		.uleb128 0x1
 5457 178d 31       		.byte	0x31
 5458 178e 00       		.byte	0
 5459 178f 26       		.uleb128 0x26
 5460 1790 3C000000 		.4byte	.LVL93
 5461 1794 B7290000 		.4byte	0x29b7
 5462 1798 A2170000 		.4byte	0x17a2
 5463 179c 25       		.uleb128 0x25
 5464 179d 01       		.uleb128 0x1
 5465 179e 51       		.byte	0x51
 5466 179f 01       		.uleb128 0x1
 5467 17a0 30       		.byte	0x30
 5468 17a1 00       		.byte	0
 5469 17a2 26       		.uleb128 0x26
 5470 17a3 44000000 		.4byte	.LVL94
 5471 17a7 3E290000 		.4byte	0x293e
 5472 17ab B5170000 		.4byte	0x17b5
 5473 17af 25       		.uleb128 0x25
 5474 17b0 01       		.uleb128 0x1
 5475 17b1 51       		.byte	0x51
 5476 17b2 01       		.uleb128 0x1
 5477 17b3 30       		.byte	0x30
 5478 17b4 00       		.byte	0
 5479 17b5 26       		.uleb128 0x26
 5480 17b6 4C000000 		.4byte	.LVL95
 5481 17ba B7290000 		.4byte	0x29b7
 5482 17be C8170000 		.4byte	0x17c8
 5483 17c2 25       		.uleb128 0x25
 5484 17c3 01       		.uleb128 0x1
 5485 17c4 51       		.byte	0x51
 5486 17c5 01       		.uleb128 0x1
 5487 17c6 31       		.byte	0x31
 5488 17c7 00       		.byte	0
 5489 17c8 26       		.uleb128 0x26
 5490 17c9 54000000 		.4byte	.LVL96
 5491 17cd 3E290000 		.4byte	0x293e
 5492 17d1 DB170000 		.4byte	0x17db
 5493 17d5 25       		.uleb128 0x25
 5494 17d6 01       		.uleb128 0x1
 5495 17d7 51       		.byte	0x51
 5496 17d8 01       		.uleb128 0x1
 5497 17d9 31       		.byte	0x31
 5498 17da 00       		.byte	0
 5499 17db 27       		.uleb128 0x27
 5500 17dc 5A000000 		.4byte	.LVL97
 5501 17e0 C2290000 		.4byte	0x29c2
 5502 17e4 27       		.uleb128 0x27
 5503 17e5 60000000 		.4byte	.LVL98
 5504 17e9 C2290000 		.4byte	0x29c2
ARM GAS  C:\Users\haske\AppData\Local\Temp\ccp0JrPn.s 			page 117


 5505 17ed 27       		.uleb128 0x27
 5506 17ee 66000000 		.4byte	.LVL99
 5507 17f2 D8290000 		.4byte	0x29d8
 5508 17f6 26       		.uleb128 0x26
 5509 17f7 72000000 		.4byte	.LVL100
 5510 17fb 12290000 		.4byte	0x2912
 5511 17ff 09180000 		.4byte	0x1809
 5512 1803 25       		.uleb128 0x25
 5513 1804 01       		.uleb128 0x1
 5514 1805 51       		.byte	0x51
 5515 1806 01       		.uleb128 0x1
 5516 1807 31       		.byte	0x31
 5517 1808 00       		.byte	0
 5518 1809 24       		.uleb128 0x24
 5519 180a 7C000000 		.4byte	.LVL101
 5520 180e DB280000 		.4byte	0x28db
 5521 1812 25       		.uleb128 0x25
 5522 1813 01       		.uleb128 0x1
 5523 1814 51       		.byte	0x51
 5524 1815 01       		.uleb128 0x1
 5525 1816 31       		.byte	0x31
 5526 1817 00       		.byte	0
 5527 1818 00       		.byte	0
 5528 1819 28       		.uleb128 0x28
 5529 181a 91080000 		.4byte	.LASF380
 5530 181e 01       		.byte	0x1
 5531 181f 70       		.byte	0x70
 5532 1820 4C0E0000 		.4byte	0xe4c
 5533 1824 00000000 		.4byte	.LFB164
 5534 1828 1C000000 		.4byte	.LFE164-.LFB164
 5535 182c 01       		.uleb128 0x1
 5536 182d 9C       		.byte	0x9c
 5537 182e 7F180000 		.4byte	0x187f
 5538 1832 29       		.uleb128 0x29
 5539 1833 A70D0000 		.4byte	.LASF157
 5540 1837 01       		.byte	0x1
 5541 1838 70       		.byte	0x70
 5542 1839 4C0E0000 		.4byte	0xe4c
 5543 183d F2030000 		.4byte	.LLST28
 5544 1841 2A       		.uleb128 0x2a
 5545 1842 6F626A00 		.ascii	"obj\000"
 5546 1846 01       		.byte	0x1
 5547 1847 73       		.byte	0x73
 5548 1848 4C0E0000 		.4byte	0xe4c
 5549 184c 1E040000 		.4byte	.LLST29
 5550 1850 26       		.uleb128 0x26
 5551 1851 0C000000 		.4byte	.LVL105
 5552 1855 1D290000 		.4byte	0x291d
 5553 1859 6E180000 		.4byte	0x186e
 5554 185d 25       		.uleb128 0x25
 5555 185e 01       		.uleb128 0x1
 5556 185f 50       		.byte	0x50
 5557 1860 05       		.uleb128 0x5
 5558 1861 03       		.byte	0x3
 5559 1862 38000000 		.4byte	.LANCHOR0+56
 5560 1866 25       		.uleb128 0x25
 5561 1867 01       		.uleb128 0x1
ARM GAS  C:\Users\haske\AppData\Local\Temp\ccp0JrPn.s 			page 118


 5562 1868 51       		.byte	0x51
 5563 1869 03       		.uleb128 0x3
 5564 186a F3       		.byte	0xf3
 5565 186b 01       		.uleb128 0x1
 5566 186c 50       		.byte	0x50
 5567 186d 00       		.byte	0
 5568 186e 24       		.uleb128 0x24
 5569 186f 12000000 		.4byte	.LVL107
 5570 1873 28290000 		.4byte	0x2928
 5571 1877 25       		.uleb128 0x25
 5572 1878 01       		.uleb128 0x1
 5573 1879 50       		.byte	0x50
 5574 187a 02       		.uleb128 0x2
 5575 187b 74       		.byte	0x74
 5576 187c 00       		.sleb128 0
 5577 187d 00       		.byte	0
 5578 187e 00       		.byte	0
 5579 187f 28       		.uleb128 0x28
 5580 1880 37140000 		.4byte	.LASF381
 5581 1884 01       		.byte	0x1
 5582 1885 78       		.byte	0x78
 5583 1886 4C0E0000 		.4byte	0xe4c
 5584 188a 00000000 		.4byte	.LFB165
 5585 188e 4C000000 		.4byte	.LFE165-.LFB165
 5586 1892 01       		.uleb128 0x1
 5587 1893 9C       		.byte	0x9c
 5588 1894 34190000 		.4byte	0x1934
 5589 1898 29       		.uleb128 0x29
 5590 1899 A70D0000 		.4byte	.LASF157
 5591 189d 01       		.byte	0x1
 5592 189e 78       		.byte	0x78
 5593 189f 4C0E0000 		.4byte	0xe4c
 5594 18a3 47040000 		.4byte	.LLST30
 5595 18a7 29       		.uleb128 0x29
 5596 18a8 E71D0000 		.4byte	.LASF352
 5597 18ac 01       		.byte	0x1
 5598 18ad 78       		.byte	0x78
 5599 18ae F2020000 		.4byte	0x2f2
 5600 18b2 73040000 		.4byte	.LLST31
 5601 18b6 2A       		.uleb128 0x2a
 5602 18b7 6F626A00 		.ascii	"obj\000"
 5603 18bb 01       		.byte	0x1
 5604 18bc 7B       		.byte	0x7b
 5605 18bd 4C0E0000 		.4byte	0xe4c
 5606 18c1 9F040000 		.4byte	.LLST32
 5607 18c5 2B       		.uleb128 0x2b
 5608 18c6 F1140000 		.4byte	.LASF331
 5609 18ca 01       		.byte	0x1
 5610 18cb 7E       		.byte	0x7e
 5611 18cc 23150000 		.4byte	0x1523
 5612 18d0 BD040000 		.4byte	.LLST33
 5613 18d4 26       		.uleb128 0x26
 5614 18d5 0E000000 		.4byte	.LVL112
 5615 18d9 1D290000 		.4byte	0x291d
 5616 18dd F2180000 		.4byte	0x18f2
 5617 18e1 25       		.uleb128 0x25
 5618 18e2 01       		.uleb128 0x1
ARM GAS  C:\Users\haske\AppData\Local\Temp\ccp0JrPn.s 			page 119


 5619 18e3 50       		.byte	0x50
 5620 18e4 05       		.uleb128 0x5
 5621 18e5 03       		.byte	0x3
 5622 18e6 54000000 		.4byte	.LANCHOR0+84
 5623 18ea 25       		.uleb128 0x25
 5624 18eb 01       		.uleb128 0x1
 5625 18ec 51       		.byte	0x51
 5626 18ed 03       		.uleb128 0x3
 5627 18ee F3       		.byte	0xf3
 5628 18ef 01       		.uleb128 0x1
 5629 18f0 50       		.byte	0x50
 5630 18f1 00       		.byte	0
 5631 18f2 26       		.uleb128 0x26
 5632 18f3 14000000 		.4byte	.LVL114
 5633 18f7 28290000 		.4byte	0x2928
 5634 18fb 06190000 		.4byte	0x1906
 5635 18ff 25       		.uleb128 0x25
 5636 1900 01       		.uleb128 0x1
 5637 1901 50       		.byte	0x50
 5638 1902 02       		.uleb128 0x2
 5639 1903 74       		.byte	0x74
 5640 1904 00       		.sleb128 0
 5641 1905 00       		.byte	0
 5642 1906 26       		.uleb128 0x26
 5643 1907 1E000000 		.4byte	.LVL115
 5644 190b E4290000 		.4byte	0x29e4
 5645 190f 1A190000 		.4byte	0x191a
 5646 1913 25       		.uleb128 0x25
 5647 1914 01       		.uleb128 0x1
 5648 1915 50       		.byte	0x50
 5649 1916 02       		.uleb128 0x2
 5650 1917 75       		.byte	0x75
 5651 1918 00       		.sleb128 0
 5652 1919 00       		.byte	0
 5653 191a 27       		.uleb128 0x27
 5654 191b 24000000 		.4byte	.LVL116
 5655 191f EF290000 		.4byte	0x29ef
 5656 1923 24       		.uleb128 0x24
 5657 1924 36000000 		.4byte	.LVL117
 5658 1928 FA290000 		.4byte	0x29fa
 5659 192c 25       		.uleb128 0x25
 5660 192d 01       		.uleb128 0x1
 5661 192e 51       		.byte	0x51
 5662 192f 02       		.uleb128 0x2
 5663 1930 75       		.byte	0x75
 5664 1931 00       		.sleb128 0
 5665 1932 00       		.byte	0
 5666 1933 00       		.byte	0
 5667 1934 28       		.uleb128 0x28
 5668 1935 33200000 		.4byte	.LASF382
 5669 1939 01       		.byte	0x1
 5670 193a 8C       		.byte	0x8c
 5671 193b 4C0E0000 		.4byte	0xe4c
 5672 193f 00000000 		.4byte	.LFB166
 5673 1943 1C000000 		.4byte	.LFE166-.LFB166
 5674 1947 01       		.uleb128 0x1
 5675 1948 9C       		.byte	0x9c
ARM GAS  C:\Users\haske\AppData\Local\Temp\ccp0JrPn.s 			page 120


 5676 1949 9A190000 		.4byte	0x199a
 5677 194d 29       		.uleb128 0x29
 5678 194e A70D0000 		.4byte	.LASF157
 5679 1952 01       		.byte	0x1
 5680 1953 8C       		.byte	0x8c
 5681 1954 4C0E0000 		.4byte	0xe4c
 5682 1958 D0040000 		.4byte	.LLST34
 5683 195c 2A       		.uleb128 0x2a
 5684 195d 6F626A00 		.ascii	"obj\000"
 5685 1961 01       		.byte	0x1
 5686 1962 8F       		.byte	0x8f
 5687 1963 4C0E0000 		.4byte	0xe4c
 5688 1967 FC040000 		.4byte	.LLST35
 5689 196b 26       		.uleb128 0x26
 5690 196c 0C000000 		.4byte	.LVL122
 5691 1970 1D290000 		.4byte	0x291d
 5692 1974 89190000 		.4byte	0x1989
 5693 1978 25       		.uleb128 0x25
 5694 1979 01       		.uleb128 0x1
 5695 197a 50       		.byte	0x50
 5696 197b 05       		.uleb128 0x5
 5697 197c 03       		.byte	0x3
 5698 197d 70000000 		.4byte	.LANCHOR0+112
 5699 1981 25       		.uleb128 0x25
 5700 1982 01       		.uleb128 0x1
 5701 1983 51       		.byte	0x51
 5702 1984 03       		.uleb128 0x3
 5703 1985 F3       		.byte	0xf3
 5704 1986 01       		.uleb128 0x1
 5705 1987 50       		.byte	0x50
 5706 1988 00       		.byte	0
 5707 1989 24       		.uleb128 0x24
 5708 198a 12000000 		.4byte	.LVL124
 5709 198e 28290000 		.4byte	0x2928
 5710 1992 25       		.uleb128 0x25
 5711 1993 01       		.uleb128 0x1
 5712 1994 50       		.byte	0x50
 5713 1995 02       		.uleb128 0x2
 5714 1996 74       		.byte	0x74
 5715 1997 00       		.sleb128 0
 5716 1998 00       		.byte	0
 5717 1999 00       		.byte	0
 5718 199a 28       		.uleb128 0x28
 5719 199b 611F0000 		.4byte	.LASF383
 5720 199f 01       		.byte	0x1
 5721 19a0 94       		.byte	0x94
 5722 19a1 4C0E0000 		.4byte	0xe4c
 5723 19a5 00000000 		.4byte	.LFB167
 5724 19a9 1C000000 		.4byte	.LFE167-.LFB167
 5725 19ad 01       		.uleb128 0x1
 5726 19ae 9C       		.byte	0x9c
 5727 19af 001A0000 		.4byte	0x1a00
 5728 19b3 29       		.uleb128 0x29
 5729 19b4 A70D0000 		.4byte	.LASF157
 5730 19b8 01       		.byte	0x1
 5731 19b9 94       		.byte	0x94
 5732 19ba 4C0E0000 		.4byte	0xe4c
ARM GAS  C:\Users\haske\AppData\Local\Temp\ccp0JrPn.s 			page 121


 5733 19be 25050000 		.4byte	.LLST36
 5734 19c2 2A       		.uleb128 0x2a
 5735 19c3 6F626A00 		.ascii	"obj\000"
 5736 19c7 01       		.byte	0x1
 5737 19c8 97       		.byte	0x97
 5738 19c9 4C0E0000 		.4byte	0xe4c
 5739 19cd 51050000 		.4byte	.LLST37
 5740 19d1 26       		.uleb128 0x26
 5741 19d2 0C000000 		.4byte	.LVL128
 5742 19d6 1D290000 		.4byte	0x291d
 5743 19da EF190000 		.4byte	0x19ef
 5744 19de 25       		.uleb128 0x25
 5745 19df 01       		.uleb128 0x1
 5746 19e0 50       		.byte	0x50
 5747 19e1 05       		.uleb128 0x5
 5748 19e2 03       		.byte	0x3
 5749 19e3 8C000000 		.4byte	.LANCHOR1+12
 5750 19e7 25       		.uleb128 0x25
 5751 19e8 01       		.uleb128 0x1
 5752 19e9 51       		.byte	0x51
 5753 19ea 03       		.uleb128 0x3
 5754 19eb F3       		.byte	0xf3
 5755 19ec 01       		.uleb128 0x1
 5756 19ed 50       		.byte	0x50
 5757 19ee 00       		.byte	0
 5758 19ef 24       		.uleb128 0x24
 5759 19f0 12000000 		.4byte	.LVL130
 5760 19f4 28290000 		.4byte	0x2928
 5761 19f8 25       		.uleb128 0x25
 5762 19f9 01       		.uleb128 0x1
 5763 19fa 50       		.byte	0x50
 5764 19fb 02       		.uleb128 0x2
 5765 19fc 74       		.byte	0x74
 5766 19fd 00       		.sleb128 0
 5767 19fe 00       		.byte	0
 5768 19ff 00       		.byte	0
 5769 1a00 28       		.uleb128 0x28
 5770 1a01 AE0D0000 		.4byte	.LASF384
 5771 1a05 01       		.byte	0x1
 5772 1a06 9C       		.byte	0x9c
 5773 1a07 4C0E0000 		.4byte	0xe4c
 5774 1a0b 00000000 		.4byte	.LFB168
 5775 1a0f 1C000000 		.4byte	.LFE168-.LFB168
 5776 1a13 01       		.uleb128 0x1
 5777 1a14 9C       		.byte	0x9c
 5778 1a15 661A0000 		.4byte	0x1a66
 5779 1a19 29       		.uleb128 0x29
 5780 1a1a A70D0000 		.4byte	.LASF157
 5781 1a1e 01       		.byte	0x1
 5782 1a1f 9C       		.byte	0x9c
 5783 1a20 4C0E0000 		.4byte	0xe4c
 5784 1a24 7A050000 		.4byte	.LLST38
 5785 1a28 2A       		.uleb128 0x2a
 5786 1a29 6F626A00 		.ascii	"obj\000"
 5787 1a2d 01       		.byte	0x1
 5788 1a2e 9F       		.byte	0x9f
 5789 1a2f 4C0E0000 		.4byte	0xe4c
ARM GAS  C:\Users\haske\AppData\Local\Temp\ccp0JrPn.s 			page 122


 5790 1a33 A6050000 		.4byte	.LLST39
 5791 1a37 26       		.uleb128 0x26
 5792 1a38 0C000000 		.4byte	.LVL134
 5793 1a3c 1D290000 		.4byte	0x291d
 5794 1a40 551A0000 		.4byte	0x1a55
 5795 1a44 25       		.uleb128 0x25
 5796 1a45 01       		.uleb128 0x1
 5797 1a46 50       		.byte	0x50
 5798 1a47 05       		.uleb128 0x5
 5799 1a48 03       		.byte	0x3
 5800 1a49 A8000000 		.4byte	.LANCHOR1+40
 5801 1a4d 25       		.uleb128 0x25
 5802 1a4e 01       		.uleb128 0x1
 5803 1a4f 51       		.byte	0x51
 5804 1a50 03       		.uleb128 0x3
 5805 1a51 F3       		.byte	0xf3
 5806 1a52 01       		.uleb128 0x1
 5807 1a53 50       		.byte	0x50
 5808 1a54 00       		.byte	0
 5809 1a55 24       		.uleb128 0x24
 5810 1a56 12000000 		.4byte	.LVL136
 5811 1a5a 28290000 		.4byte	0x2928
 5812 1a5e 25       		.uleb128 0x25
 5813 1a5f 01       		.uleb128 0x1
 5814 1a60 50       		.byte	0x50
 5815 1a61 02       		.uleb128 0x2
 5816 1a62 74       		.byte	0x74
 5817 1a63 00       		.sleb128 0
 5818 1a64 00       		.byte	0
 5819 1a65 00       		.byte	0
 5820 1a66 2C       		.uleb128 0x2c
 5821 1a67 A8150000 		.4byte	.LASF385
 5822 1a6b 01       		.byte	0x1
 5823 1a6c 4F01     		.2byte	0x14f
 5824 1a6e 00000000 		.4byte	.LFB172
 5825 1a72 34000000 		.4byte	.LFE172-.LFB172
 5826 1a76 01       		.uleb128 0x1
 5827 1a77 9C       		.byte	0x9c
 5828 1a78 D11A0000 		.4byte	0x1ad1
 5829 1a7c 22       		.uleb128 0x22
 5830 1a7d 6F626A00 		.ascii	"obj\000"
 5831 1a81 01       		.byte	0x1
 5832 1a82 4F01     		.2byte	0x14f
 5833 1a84 4C0E0000 		.4byte	0xe4c
 5834 1a88 CF050000 		.4byte	.LLST40
 5835 1a8c 21       		.uleb128 0x21
 5836 1a8d 91200000 		.4byte	.LASF349
 5837 1a91 01       		.byte	0x1
 5838 1a92 4F01     		.2byte	0x14f
 5839 1a94 F80D0000 		.4byte	0xdf8
 5840 1a98 FB050000 		.4byte	.LLST41
 5841 1a9c 23       		.uleb128 0x23
 5842 1a9d 1E050000 		.4byte	.LASF330
 5843 1aa1 01       		.byte	0x1
 5844 1aa2 5301     		.2byte	0x153
 5845 1aa4 82100000 		.4byte	0x1082
 5846 1aa8 1C060000 		.4byte	.LLST42
ARM GAS  C:\Users\haske\AppData\Local\Temp\ccp0JrPn.s 			page 123


 5847 1aac 26       		.uleb128 0x26
 5848 1aad 26000000 		.4byte	.LVL141
 5849 1ab1 44160000 		.4byte	0x1644
 5850 1ab5 C01A0000 		.4byte	0x1ac0
 5851 1ab9 25       		.uleb128 0x25
 5852 1aba 01       		.uleb128 0x1
 5853 1abb 50       		.byte	0x50
 5854 1abc 02       		.uleb128 0x2
 5855 1abd 74       		.byte	0x74
 5856 1abe 00       		.sleb128 0
 5857 1abf 00       		.byte	0
 5858 1ac0 24       		.uleb128 0x24
 5859 1ac1 32000000 		.4byte	.LVL142
 5860 1ac5 33170000 		.4byte	0x1733
 5861 1ac9 25       		.uleb128 0x25
 5862 1aca 01       		.uleb128 0x1
 5863 1acb 50       		.byte	0x50
 5864 1acc 02       		.uleb128 0x2
 5865 1acd 74       		.byte	0x74
 5866 1ace 00       		.sleb128 0
 5867 1acf 00       		.byte	0
 5868 1ad0 00       		.byte	0
 5869 1ad1 2C       		.uleb128 0x2c
 5870 1ad2 1C0A0000 		.4byte	.LASF386
 5871 1ad6 01       		.byte	0x1
 5872 1ad7 6801     		.2byte	0x168
 5873 1ad9 00000000 		.4byte	.LFB174
 5874 1add 70000000 		.4byte	.LFE174-.LFB174
 5875 1ae1 01       		.uleb128 0x1
 5876 1ae2 9C       		.byte	0x9c
 5877 1ae3 2E1C0000 		.4byte	0x1c2e
 5878 1ae7 21       		.uleb128 0x21
 5879 1ae8 1E050000 		.4byte	.LASF330
 5880 1aec 01       		.byte	0x1
 5881 1aed 6801     		.2byte	0x168
 5882 1aef 4C0E0000 		.4byte	0xe4c
 5883 1af3 48060000 		.4byte	.LLST43
 5884 1af7 22       		.uleb128 0x22
 5885 1af8 6F626A00 		.ascii	"obj\000"
 5886 1afc 01       		.byte	0x1
 5887 1afd 6801     		.2byte	0x168
 5888 1aff 4C0E0000 		.4byte	0xe4c
 5889 1b03 74060000 		.4byte	.LLST44
 5890 1b07 21       		.uleb128 0x21
 5891 1b08 F1140000 		.4byte	.LASF331
 5892 1b0c 01       		.byte	0x1
 5893 1b0d 6801     		.2byte	0x168
 5894 1b0f 4C0E0000 		.4byte	0xe4c
 5895 1b13 A0060000 		.4byte	.LLST45
 5896 1b17 23       		.uleb128 0x23
 5897 1b18 CE170000 		.4byte	.LASF376
 5898 1b1c 01       		.byte	0x1
 5899 1b1d 7601     		.2byte	0x176
 5900 1b1f 7C150000 		.4byte	0x157c
 5901 1b23 CC060000 		.4byte	.LLST46
 5902 1b27 26       		.uleb128 0x26
 5903 1b28 10000000 		.4byte	.LVL147
ARM GAS  C:\Users\haske\AppData\Local\Temp\ccp0JrPn.s 			page 124


 5904 1b2c 12290000 		.4byte	0x2912
 5905 1b30 401B0000 		.4byte	0x1b40
 5906 1b34 25       		.uleb128 0x25
 5907 1b35 01       		.uleb128 0x1
 5908 1b36 50       		.byte	0x50
 5909 1b37 02       		.uleb128 0x2
 5910 1b38 74       		.byte	0x74
 5911 1b39 00       		.sleb128 0
 5912 1b3a 25       		.uleb128 0x25
 5913 1b3b 01       		.uleb128 0x1
 5914 1b3c 51       		.byte	0x51
 5915 1b3d 01       		.uleb128 0x1
 5916 1b3e 32       		.byte	0x32
 5917 1b3f 00       		.byte	0
 5918 1b40 26       		.uleb128 0x26
 5919 1b41 18000000 		.4byte	.LVL148
 5920 1b45 DB280000 		.4byte	0x28db
 5921 1b49 591B0000 		.4byte	0x1b59
 5922 1b4d 25       		.uleb128 0x25
 5923 1b4e 01       		.uleb128 0x1
 5924 1b4f 50       		.byte	0x50
 5925 1b50 02       		.uleb128 0x2
 5926 1b51 74       		.byte	0x74
 5927 1b52 00       		.sleb128 0
 5928 1b53 25       		.uleb128 0x25
 5929 1b54 01       		.uleb128 0x1
 5930 1b55 51       		.byte	0x51
 5931 1b56 01       		.uleb128 0x1
 5932 1b57 40       		.byte	0x40
 5933 1b58 00       		.byte	0
 5934 1b59 26       		.uleb128 0x26
 5935 1b5a 22000000 		.4byte	.LVL149
 5936 1b5e 12290000 		.4byte	0x2912
 5937 1b62 741B0000 		.4byte	0x1b74
 5938 1b66 25       		.uleb128 0x25
 5939 1b67 01       		.uleb128 0x1
 5940 1b68 50       		.byte	0x50
 5941 1b69 02       		.uleb128 0x2
 5942 1b6a 74       		.byte	0x74
 5943 1b6b 00       		.sleb128 0
 5944 1b6c 25       		.uleb128 0x25
 5945 1b6d 01       		.uleb128 0x1
 5946 1b6e 51       		.byte	0x51
 5947 1b6f 03       		.uleb128 0x3
 5948 1b70 0A       		.byte	0xa
 5949 1b71 0004     		.2byte	0x400
 5950 1b73 00       		.byte	0
 5951 1b74 26       		.uleb128 0x26
 5952 1b75 2A000000 		.4byte	.LVL150
 5953 1b79 052A0000 		.4byte	0x2a05
 5954 1b7d 911B0000 		.4byte	0x1b91
 5955 1b81 25       		.uleb128 0x25
 5956 1b82 01       		.uleb128 0x1
 5957 1b83 50       		.byte	0x50
 5958 1b84 02       		.uleb128 0x2
 5959 1b85 74       		.byte	0x74
 5960 1b86 00       		.sleb128 0
ARM GAS  C:\Users\haske\AppData\Local\Temp\ccp0JrPn.s 			page 125


 5961 1b87 25       		.uleb128 0x25
 5962 1b88 01       		.uleb128 0x1
 5963 1b89 51       		.byte	0x51
 5964 1b8a 05       		.uleb128 0x5
 5965 1b8b 03       		.byte	0x3
 5966 1b8c 00000000 		.4byte	lv_menu_load_page_event_cb
 5967 1b90 00       		.byte	0
 5968 1b91 26       		.uleb128 0x26
 5969 1b92 38000000 		.4byte	.LVL151
 5970 1b96 102A0000 		.4byte	0x2a10
 5971 1b9a B01B0000 		.4byte	0x1bb0
 5972 1b9e 25       		.uleb128 0x25
 5973 1b9f 01       		.uleb128 0x1
 5974 1ba0 50       		.byte	0x50
 5975 1ba1 02       		.uleb128 0x2
 5976 1ba2 74       		.byte	0x74
 5977 1ba3 00       		.sleb128 0
 5978 1ba4 25       		.uleb128 0x25
 5979 1ba5 01       		.uleb128 0x1
 5980 1ba6 51       		.byte	0x51
 5981 1ba7 02       		.uleb128 0x2
 5982 1ba8 08       		.byte	0x8
 5983 1ba9 21       		.byte	0x21
 5984 1baa 25       		.uleb128 0x25
 5985 1bab 01       		.uleb128 0x1
 5986 1bac 52       		.byte	0x52
 5987 1bad 01       		.uleb128 0x1
 5988 1bae 30       		.byte	0x30
 5989 1baf 00       		.byte	0
 5990 1bb0 26       		.uleb128 0x26
 5991 1bb1 40000000 		.4byte	.LVL152
 5992 1bb5 052A0000 		.4byte	0x2a05
 5993 1bb9 CD1B0000 		.4byte	0x1bcd
 5994 1bbd 25       		.uleb128 0x25
 5995 1bbe 01       		.uleb128 0x1
 5996 1bbf 50       		.byte	0x50
 5997 1bc0 02       		.uleb128 0x2
 5998 1bc1 74       		.byte	0x74
 5999 1bc2 00       		.sleb128 0
 6000 1bc3 25       		.uleb128 0x25
 6001 1bc4 01       		.uleb128 0x1
 6002 1bc5 51       		.byte	0x51
 6003 1bc6 05       		.uleb128 0x5
 6004 1bc7 03       		.byte	0x3
 6005 1bc8 00000000 		.4byte	lv_menu_obj_del_event_cb
 6006 1bcc 00       		.byte	0
 6007 1bcd 26       		.uleb128 0x26
 6008 1bce 46000000 		.4byte	.LVL153
 6009 1bd2 EF290000 		.4byte	0x29ef
 6010 1bd6 E01B0000 		.4byte	0x1be0
 6011 1bda 25       		.uleb128 0x25
 6012 1bdb 01       		.uleb128 0x1
 6013 1bdc 50       		.byte	0x50
 6014 1bdd 01       		.uleb128 0x1
 6015 1bde 38       		.byte	0x38
 6016 1bdf 00       		.byte	0
 6017 1be0 26       		.uleb128 0x26
ARM GAS  C:\Users\haske\AppData\Local\Temp\ccp0JrPn.s 			page 126


 6018 1be1 58000000 		.4byte	.LVL156
 6019 1be5 5F290000 		.4byte	0x295f
 6020 1be9 081C0000 		.4byte	0x1c08
 6021 1bed 25       		.uleb128 0x25
 6022 1bee 01       		.uleb128 0x1
 6023 1bef 50       		.byte	0x50
 6024 1bf0 02       		.uleb128 0x2
 6025 1bf1 74       		.byte	0x74
 6026 1bf2 00       		.sleb128 0
 6027 1bf3 25       		.uleb128 0x25
 6028 1bf4 01       		.uleb128 0x1
 6029 1bf5 51       		.byte	0x51
 6030 1bf6 05       		.uleb128 0x5
 6031 1bf7 03       		.byte	0x3
 6032 1bf8 00000000 		.4byte	lv_menu_load_page_event_cb
 6033 1bfc 25       		.uleb128 0x25
 6034 1bfd 01       		.uleb128 0x1
 6035 1bfe 52       		.byte	0x52
 6036 1bff 01       		.uleb128 0x1
 6037 1c00 37       		.byte	0x37
 6038 1c01 25       		.uleb128 0x25
 6039 1c02 01       		.uleb128 0x1
 6040 1c03 53       		.byte	0x53
 6041 1c04 02       		.uleb128 0x2
 6042 1c05 75       		.byte	0x75
 6043 1c06 00       		.sleb128 0
 6044 1c07 00       		.byte	0
 6045 1c08 24       		.uleb128 0x24
 6046 1c09 64000000 		.4byte	.LVL157
 6047 1c0d 5F290000 		.4byte	0x295f
 6048 1c11 25       		.uleb128 0x25
 6049 1c12 01       		.uleb128 0x1
 6050 1c13 50       		.byte	0x50
 6051 1c14 02       		.uleb128 0x2
 6052 1c15 74       		.byte	0x74
 6053 1c16 00       		.sleb128 0
 6054 1c17 25       		.uleb128 0x25
 6055 1c18 01       		.uleb128 0x1
 6056 1c19 51       		.byte	0x51
 6057 1c1a 05       		.uleb128 0x5
 6058 1c1b 03       		.byte	0x3
 6059 1c1c 00000000 		.4byte	lv_menu_obj_del_event_cb
 6060 1c20 25       		.uleb128 0x25
 6061 1c21 01       		.uleb128 0x1
 6062 1c22 52       		.byte	0x52
 6063 1c23 02       		.uleb128 0x2
 6064 1c24 08       		.byte	0x8
 6065 1c25 21       		.byte	0x21
 6066 1c26 25       		.uleb128 0x25
 6067 1c27 01       		.uleb128 0x1
 6068 1c28 53       		.byte	0x53
 6069 1c29 02       		.uleb128 0x2
 6070 1c2a 75       		.byte	0x75
 6071 1c2b 00       		.sleb128 0
 6072 1c2c 00       		.byte	0
 6073 1c2d 00       		.byte	0
 6074 1c2e 2D       		.uleb128 0x2d
ARM GAS  C:\Users\haske\AppData\Local\Temp\ccp0JrPn.s 			page 127


 6075 1c2f 020D0000 		.4byte	.LASF387
 6076 1c33 01       		.byte	0x1
 6077 1c34 8101     		.2byte	0x181
 6078 1c36 4C0E0000 		.4byte	0xe4c
 6079 1c3a 00000000 		.4byte	.LFB175
 6080 1c3e 04000000 		.4byte	.LFE175-.LFB175
 6081 1c42 01       		.uleb128 0x1
 6082 1c43 9C       		.byte	0x9c
 6083 1c44 691C0000 		.4byte	0x1c69
 6084 1c48 22       		.uleb128 0x22
 6085 1c49 6F626A00 		.ascii	"obj\000"
 6086 1c4d 01       		.byte	0x1
 6087 1c4e 8101     		.2byte	0x181
 6088 1c50 4C0E0000 		.4byte	0xe4c
 6089 1c54 F5060000 		.4byte	.LLST47
 6090 1c58 23       		.uleb128 0x23
 6091 1c59 1E050000 		.4byte	.LASF330
 6092 1c5d 01       		.byte	0x1
 6093 1c5e 8501     		.2byte	0x185
 6094 1c60 82100000 		.4byte	0x1082
 6095 1c64 16070000 		.4byte	.LLST48
 6096 1c68 00       		.byte	0
 6097 1c69 2D       		.uleb128 0x2d
 6098 1c6a 1F040000 		.4byte	.LASF388
 6099 1c6e 01       		.byte	0x1
 6100 1c6f 8901     		.2byte	0x189
 6101 1c71 4C0E0000 		.4byte	0xe4c
 6102 1c75 00000000 		.4byte	.LFB176
 6103 1c79 04000000 		.4byte	.LFE176-.LFB176
 6104 1c7d 01       		.uleb128 0x1
 6105 1c7e 9C       		.byte	0x9c
 6106 1c7f A41C0000 		.4byte	0x1ca4
 6107 1c83 22       		.uleb128 0x22
 6108 1c84 6F626A00 		.ascii	"obj\000"
 6109 1c88 01       		.byte	0x1
 6110 1c89 8901     		.2byte	0x189
 6111 1c8b 4C0E0000 		.4byte	0xe4c
 6112 1c8f 37070000 		.4byte	.LLST49
 6113 1c93 23       		.uleb128 0x23
 6114 1c94 1E050000 		.4byte	.LASF330
 6115 1c98 01       		.byte	0x1
 6116 1c99 8D01     		.2byte	0x18d
 6117 1c9b 82100000 		.4byte	0x1082
 6118 1c9f 58070000 		.4byte	.LLST50
 6119 1ca3 00       		.byte	0
 6120 1ca4 20       		.uleb128 0x20
 6121 1ca5 8D170000 		.4byte	.LASF389
 6122 1ca9 01       		.byte	0x1
 6123 1caa E402     		.2byte	0x2e4
 6124 1cac 00000000 		.4byte	.LFB194
 6125 1cb0 64000000 		.4byte	.LFE194-.LFB194
 6126 1cb4 01       		.uleb128 0x1
 6127 1cb5 9C       		.byte	0x9c
 6128 1cb6 A01D0000 		.4byte	0x1da0
 6129 1cba 22       		.uleb128 0x22
 6130 1cbb 6500     		.ascii	"e\000"
 6131 1cbd 01       		.byte	0x1
ARM GAS  C:\Users\haske\AppData\Local\Temp\ccp0JrPn.s 			page 128


 6132 1cbe E402     		.2byte	0x2e4
 6133 1cc0 960C0000 		.4byte	0xc96
 6134 1cc4 79070000 		.4byte	.LLST51
 6135 1cc8 2E       		.uleb128 0x2e
 6136 1cc9 6F626A00 		.ascii	"obj\000"
 6137 1ccd 01       		.byte	0x1
 6138 1cce E602     		.2byte	0x2e6
 6139 1cd0 4C0E0000 		.4byte	0xe4c
 6140 1cd4 9A070000 		.4byte	.LLST52
 6141 1cd8 23       		.uleb128 0x23
 6142 1cd9 1E050000 		.4byte	.LASF330
 6143 1cdd 01       		.byte	0x1
 6144 1cde E702     		.2byte	0x2e7
 6145 1ce0 82100000 		.4byte	0x1082
 6146 1ce4 9A070000 		.4byte	.LLST52
 6147 1ce8 23       		.uleb128 0x23
 6148 1ce9 94030000 		.4byte	.LASF335
 6149 1ced 01       		.byte	0x1
 6150 1cee E902     		.2byte	0x2e9
 6151 1cf0 23150000 		.4byte	0x1523
 6152 1cf4 B8070000 		.4byte	.LLST54
 6153 1cf8 23       		.uleb128 0x23
 6154 1cf9 2C030000 		.4byte	.LASF340
 6155 1cfd 01       		.byte	0x1
 6156 1cfe F402     		.2byte	0x2f4
 6157 1d00 23150000 		.4byte	0x1523
 6158 1d04 D6070000 		.4byte	.LLST55
 6159 1d08 26       		.uleb128 0x26
 6160 1d09 06000000 		.4byte	.LVL167
 6161 1d0d 96290000 		.4byte	0x2996
 6162 1d11 1D1D0000 		.4byte	0x1d1d
 6163 1d15 25       		.uleb128 0x25
 6164 1d16 01       		.uleb128 0x1
 6165 1d17 50       		.byte	0x50
 6166 1d18 03       		.uleb128 0x3
 6167 1d19 F3       		.byte	0xf3
 6168 1d1a 01       		.uleb128 0x1
 6169 1d1b 50       		.byte	0x50
 6170 1d1c 00       		.byte	0
 6171 1d1d 26       		.uleb128 0x26
 6172 1d1e 0C000000 		.4byte	.LVL169
 6173 1d22 2E1C0000 		.4byte	0x1c2e
 6174 1d26 311D0000 		.4byte	0x1d31
 6175 1d2a 25       		.uleb128 0x25
 6176 1d2b 01       		.uleb128 0x1
 6177 1d2c 50       		.byte	0x50
 6178 1d2d 02       		.uleb128 0x2
 6179 1d2e 74       		.byte	0x74
 6180 1d2f 00       		.sleb128 0
 6181 1d30 00       		.byte	0
 6182 1d31 27       		.uleb128 0x27
 6183 1d32 22000000 		.4byte	.LVL171
 6184 1d36 1B2A0000 		.4byte	0x2a1b
 6185 1d3a 26       		.uleb128 0x26
 6186 1d3b 2A000000 		.4byte	.LVL172
 6187 1d3f DB280000 		.4byte	0x28db
 6188 1d43 4D1D0000 		.4byte	0x1d4d
ARM GAS  C:\Users\haske\AppData\Local\Temp\ccp0JrPn.s 			page 129


 6189 1d47 25       		.uleb128 0x25
 6190 1d48 01       		.uleb128 0x1
 6191 1d49 51       		.byte	0x51
 6192 1d4a 01       		.uleb128 0x1
 6193 1d4b 31       		.byte	0x31
 6194 1d4c 00       		.byte	0
 6195 1d4d 26       		.uleb128 0x26
 6196 1d4e 34000000 		.4byte	.LVL175
 6197 1d52 12290000 		.4byte	0x2912
 6198 1d56 601D0000 		.4byte	0x1d60
 6199 1d5a 25       		.uleb128 0x25
 6200 1d5b 01       		.uleb128 0x1
 6201 1d5c 51       		.byte	0x51
 6202 1d5d 01       		.uleb128 0x1
 6203 1d5e 31       		.byte	0x31
 6204 1d5f 00       		.byte	0
 6205 1d60 26       		.uleb128 0x26
 6206 1d61 3A000000 		.4byte	.LVL176
 6207 1d65 691C0000 		.4byte	0x1c69
 6208 1d69 741D0000 		.4byte	0x1d74
 6209 1d6d 25       		.uleb128 0x25
 6210 1d6e 01       		.uleb128 0x1
 6211 1d6f 50       		.byte	0x50
 6212 1d70 02       		.uleb128 0x2
 6213 1d71 74       		.byte	0x74
 6214 1d72 00       		.sleb128 0
 6215 1d73 00       		.byte	0
 6216 1d74 27       		.uleb128 0x27
 6217 1d75 50000000 		.4byte	.LVL178
 6218 1d79 1B2A0000 		.4byte	0x2a1b
 6219 1d7d 26       		.uleb128 0x26
 6220 1d7e 58000000 		.4byte	.LVL179
 6221 1d82 DB280000 		.4byte	0x28db
 6222 1d86 901D0000 		.4byte	0x1d90
 6223 1d8a 25       		.uleb128 0x25
 6224 1d8b 01       		.uleb128 0x1
 6225 1d8c 51       		.byte	0x51
 6226 1d8d 01       		.uleb128 0x1
 6227 1d8e 31       		.byte	0x31
 6228 1d8f 00       		.byte	0
 6229 1d90 24       		.uleb128 0x24
 6230 1d91 62000000 		.4byte	.LVL182
 6231 1d95 12290000 		.4byte	0x2912
 6232 1d99 25       		.uleb128 0x25
 6233 1d9a 01       		.uleb128 0x1
 6234 1d9b 51       		.byte	0x51
 6235 1d9c 01       		.uleb128 0x1
 6236 1d9d 31       		.byte	0x31
 6237 1d9e 00       		.byte	0
 6238 1d9f 00       		.byte	0
 6239 1da0 2D       		.uleb128 0x2d
 6240 1da1 00020000 		.4byte	.LASF390
 6241 1da5 01       		.byte	0x1
 6242 1da6 9101     		.2byte	0x191
 6243 1da8 4C0E0000 		.4byte	0xe4c
 6244 1dac 00000000 		.4byte	.LFB177
 6245 1db0 04000000 		.4byte	.LFE177-.LFB177
ARM GAS  C:\Users\haske\AppData\Local\Temp\ccp0JrPn.s 			page 130


 6246 1db4 01       		.uleb128 0x1
 6247 1db5 9C       		.byte	0x9c
 6248 1db6 DB1D0000 		.4byte	0x1ddb
 6249 1dba 22       		.uleb128 0x22
 6250 1dbb 6F626A00 		.ascii	"obj\000"
 6251 1dbf 01       		.byte	0x1
 6252 1dc0 9101     		.2byte	0x191
 6253 1dc2 4C0E0000 		.4byte	0xe4c
 6254 1dc6 F4070000 		.4byte	.LLST56
 6255 1dca 23       		.uleb128 0x23
 6256 1dcb 1E050000 		.4byte	.LASF330
 6257 1dcf 01       		.byte	0x1
 6258 1dd0 9501     		.2byte	0x195
 6259 1dd2 82100000 		.4byte	0x1082
 6260 1dd6 15080000 		.4byte	.LLST57
 6261 1dda 00       		.byte	0
 6262 1ddb 2D       		.uleb128 0x2d
 6263 1ddc BB020000 		.4byte	.LASF391
 6264 1de0 01       		.byte	0x1
 6265 1de1 9901     		.2byte	0x199
 6266 1de3 4C0E0000 		.4byte	0xe4c
 6267 1de7 00000000 		.4byte	.LFB178
 6268 1deb 04000000 		.4byte	.LFE178-.LFB178
 6269 1def 01       		.uleb128 0x1
 6270 1df0 9C       		.byte	0x9c
 6271 1df1 161E0000 		.4byte	0x1e16
 6272 1df5 22       		.uleb128 0x22
 6273 1df6 6F626A00 		.ascii	"obj\000"
 6274 1dfa 01       		.byte	0x1
 6275 1dfb 9901     		.2byte	0x199
 6276 1dfd 4C0E0000 		.4byte	0xe4c
 6277 1e01 36080000 		.4byte	.LLST58
 6278 1e05 23       		.uleb128 0x23
 6279 1e06 1E050000 		.4byte	.LASF330
 6280 1e0a 01       		.byte	0x1
 6281 1e0b 9D01     		.2byte	0x19d
 6282 1e0d 82100000 		.4byte	0x1082
 6283 1e11 57080000 		.4byte	.LLST59
 6284 1e15 00       		.byte	0
 6285 1e16 2D       		.uleb128 0x2d
 6286 1e17 05010000 		.4byte	.LASF392
 6287 1e1b 01       		.byte	0x1
 6288 1e1c A101     		.2byte	0x1a1
 6289 1e1e 4C0E0000 		.4byte	0xe4c
 6290 1e22 00000000 		.4byte	.LFB179
 6291 1e26 04000000 		.4byte	.LFE179-.LFB179
 6292 1e2a 01       		.uleb128 0x1
 6293 1e2b 9C       		.byte	0x9c
 6294 1e2c 511E0000 		.4byte	0x1e51
 6295 1e30 22       		.uleb128 0x22
 6296 1e31 6F626A00 		.ascii	"obj\000"
 6297 1e35 01       		.byte	0x1
 6298 1e36 A101     		.2byte	0x1a1
 6299 1e38 4C0E0000 		.4byte	0xe4c
 6300 1e3c 78080000 		.4byte	.LLST60
 6301 1e40 23       		.uleb128 0x23
 6302 1e41 1E050000 		.4byte	.LASF330
ARM GAS  C:\Users\haske\AppData\Local\Temp\ccp0JrPn.s 			page 131


 6303 1e45 01       		.byte	0x1
 6304 1e46 A501     		.2byte	0x1a5
 6305 1e48 82100000 		.4byte	0x1082
 6306 1e4c 99080000 		.4byte	.LLST61
 6307 1e50 00       		.byte	0
 6308 1e51 2D       		.uleb128 0x2d
 6309 1e52 D1150000 		.4byte	.LASF393
 6310 1e56 01       		.byte	0x1
 6311 1e57 A901     		.2byte	0x1a9
 6312 1e59 4C0E0000 		.4byte	0xe4c
 6313 1e5d 00000000 		.4byte	.LFB180
 6314 1e61 04000000 		.4byte	.LFE180-.LFB180
 6315 1e65 01       		.uleb128 0x1
 6316 1e66 9C       		.byte	0x9c
 6317 1e67 8C1E0000 		.4byte	0x1e8c
 6318 1e6b 22       		.uleb128 0x22
 6319 1e6c 6F626A00 		.ascii	"obj\000"
 6320 1e70 01       		.byte	0x1
 6321 1e71 A901     		.2byte	0x1a9
 6322 1e73 4C0E0000 		.4byte	0xe4c
 6323 1e77 BA080000 		.4byte	.LLST62
 6324 1e7b 23       		.uleb128 0x23
 6325 1e7c 1E050000 		.4byte	.LASF330
 6326 1e80 01       		.byte	0x1
 6327 1e81 AD01     		.2byte	0x1ad
 6328 1e83 82100000 		.4byte	0x1082
 6329 1e87 DB080000 		.4byte	.LLST63
 6330 1e8b 00       		.byte	0
 6331 1e8c 2D       		.uleb128 0x2d
 6332 1e8d B91B0000 		.4byte	.LASF394
 6333 1e91 01       		.byte	0x1
 6334 1e92 B101     		.2byte	0x1b1
 6335 1e94 9F020000 		.4byte	0x29f
 6336 1e98 00000000 		.4byte	.LFB181
 6337 1e9c 24000000 		.4byte	.LFE181-.LFB181
 6338 1ea0 01       		.uleb128 0x1
 6339 1ea1 9C       		.byte	0x9c
 6340 1ea2 C51E0000 		.4byte	0x1ec5
 6341 1ea6 21       		.uleb128 0x21
 6342 1ea7 1E050000 		.4byte	.LASF330
 6343 1eab 01       		.byte	0x1
 6344 1eac B101     		.2byte	0x1b1
 6345 1eae 4C0E0000 		.4byte	0xe4c
 6346 1eb2 FC080000 		.4byte	.LLST64
 6347 1eb6 2F       		.uleb128 0x2f
 6348 1eb7 6F626A00 		.ascii	"obj\000"
 6349 1ebb 01       		.byte	0x1
 6350 1ebc B101     		.2byte	0x1b1
 6351 1ebe 4C0E0000 		.4byte	0xe4c
 6352 1ec2 01       		.uleb128 0x1
 6353 1ec3 51       		.byte	0x51
 6354 1ec4 00       		.byte	0
 6355 1ec5 2C       		.uleb128 0x2c
 6356 1ec6 8F0B0000 		.4byte	.LASF395
 6357 1eca 01       		.byte	0x1
 6358 1ecb C001     		.2byte	0x1c0
 6359 1ecd 00000000 		.4byte	.LFB182
ARM GAS  C:\Users\haske\AppData\Local\Temp\ccp0JrPn.s 			page 132


 6360 1ed1 12000000 		.4byte	.LFE182-.LFB182
 6361 1ed5 01       		.uleb128 0x1
 6362 1ed6 9C       		.byte	0x9c
 6363 1ed7 1D1F0000 		.4byte	0x1f1d
 6364 1edb 22       		.uleb128 0x22
 6365 1edc 6F626A00 		.ascii	"obj\000"
 6366 1ee0 01       		.byte	0x1
 6367 1ee1 C001     		.2byte	0x1c0
 6368 1ee3 4C0E0000 		.4byte	0xe4c
 6369 1ee7 68090000 		.4byte	.LLST65
 6370 1eeb 23       		.uleb128 0x23
 6371 1eec 1E050000 		.4byte	.LASF330
 6372 1ef0 01       		.byte	0x1
 6373 1ef1 C401     		.2byte	0x1c4
 6374 1ef3 82100000 		.4byte	0x1082
 6375 1ef7 94090000 		.4byte	.LLST66
 6376 1efb 23       		.uleb128 0x23
 6377 1efc 5E040000 		.4byte	.LASF345
 6378 1f00 01       		.byte	0x1
 6379 1f01 C501     		.2byte	0x1c5
 6380 1f03 88100000 		.4byte	0x1088
 6381 1f07 C0090000 		.4byte	.LLST67
 6382 1f0b 24       		.uleb128 0x24
 6383 1f0c 0A000000 		.4byte	.LVL203
 6384 1f10 C5280000 		.4byte	0x28c5
 6385 1f14 25       		.uleb128 0x25
 6386 1f15 01       		.uleb128 0x1
 6387 1f16 50       		.byte	0x50
 6388 1f17 03       		.uleb128 0x3
 6389 1f18 74       		.byte	0x74
 6390 1f19 D400     		.sleb128 84
 6391 1f1b 00       		.byte	0
 6392 1f1c 00       		.byte	0
 6393 1f1d 30       		.uleb128 0x30
 6394 1f1e 57160000 		.4byte	.LASF396
 6395 1f22 01       		.byte	0x1
 6396 1f23 C0       		.byte	0xc0
 6397 1f24 00000000 		.4byte	.LFB170
 6398 1f28 FE000000 		.4byte	.LFE170-.LFB170
 6399 1f2c 01       		.uleb128 0x1
 6400 1f2d 9C       		.byte	0x9c
 6401 1f2e 06210000 		.4byte	0x2106
 6402 1f32 31       		.uleb128 0x31
 6403 1f33 6F626A00 		.ascii	"obj\000"
 6404 1f37 01       		.byte	0x1
 6405 1f38 C0       		.byte	0xc0
 6406 1f39 4C0E0000 		.4byte	0xe4c
 6407 1f3d F1090000 		.4byte	.LLST68
 6408 1f41 29       		.uleb128 0x29
 6409 1f42 F1140000 		.4byte	.LASF331
 6410 1f46 01       		.byte	0x1
 6411 1f47 C0       		.byte	0xc0
 6412 1f48 4C0E0000 		.4byte	0xe4c
 6413 1f4c 1D0A0000 		.4byte	.LLST69
 6414 1f50 2B       		.uleb128 0x2b
 6415 1f51 1E050000 		.4byte	.LASF330
 6416 1f55 01       		.byte	0x1
ARM GAS  C:\Users\haske\AppData\Local\Temp\ccp0JrPn.s 			page 133


 6417 1f56 C4       		.byte	0xc4
 6418 1f57 82100000 		.4byte	0x1082
 6419 1f5b 490A0000 		.4byte	.LLST70
 6420 1f5f 32       		.uleb128 0x32
 6421 1f60 16000000 		.4byte	.LBB2
 6422 1f64 20000000 		.4byte	.LBE2-.LBB2
 6423 1f68 B01F0000 		.4byte	0x1fb0
 6424 1f6c 2B       		.uleb128 0x2b
 6425 1f6d 5E040000 		.4byte	.LASF345
 6426 1f71 01       		.byte	0x1
 6427 1f72 CD       		.byte	0xcd
 6428 1f73 88100000 		.4byte	0x1088
 6429 1f77 750A0000 		.4byte	.LLST71
 6430 1f7b 2B       		.uleb128 0x2b
 6431 1f7c 6F150000 		.4byte	.LASF397
 6432 1f80 01       		.byte	0x1
 6433 1f81 CE       		.byte	0xce
 6434 1f82 06210000 		.4byte	0x2106
 6435 1f86 960A0000 		.4byte	.LLST72
 6436 1f8a 26       		.uleb128 0x26
 6437 1f8b 1E000000 		.4byte	.LVL211
 6438 1f8f 262A0000 		.4byte	0x2a26
 6439 1f93 9F1F0000 		.4byte	0x1f9f
 6440 1f97 25       		.uleb128 0x25
 6441 1f98 01       		.uleb128 0x1
 6442 1f99 50       		.byte	0x50
 6443 1f9a 03       		.uleb128 0x3
 6444 1f9b 74       		.byte	0x74
 6445 1f9c D400     		.sleb128 84
 6446 1f9e 00       		.byte	0
 6447 1f9f 24       		.uleb128 0x24
 6448 1fa0 36000000 		.4byte	.LVL213
 6449 1fa4 AC290000 		.4byte	0x29ac
 6450 1fa8 25       		.uleb128 0x25
 6451 1fa9 01       		.uleb128 0x1
 6452 1faa 50       		.byte	0x50
 6453 1fab 02       		.uleb128 0x2
 6454 1fac 75       		.byte	0x75
 6455 1fad 00       		.sleb128 0
 6456 1fae 00       		.byte	0
 6457 1faf 00       		.byte	0
 6458 1fb0 27       		.uleb128 0x27
 6459 1fb1 12000000 		.4byte	.LVL209
 6460 1fb5 AC290000 		.4byte	0x29ac
 6461 1fb9 26       		.uleb128 0x26
 6462 1fba 3E000000 		.4byte	.LVL215
 6463 1fbe C51E0000 		.4byte	0x1ec5
 6464 1fc2 CD1F0000 		.4byte	0x1fcd
 6465 1fc6 25       		.uleb128 0x25
 6466 1fc7 01       		.uleb128 0x1
 6467 1fc8 50       		.byte	0x50
 6468 1fc9 02       		.uleb128 0x2
 6469 1fca 74       		.byte	0x74
 6470 1fcb 00       		.sleb128 0
 6471 1fcc 00       		.byte	0
 6472 1fcd 26       		.uleb128 0x26
 6473 1fce 52000000 		.4byte	.LVL216
ARM GAS  C:\Users\haske\AppData\Local\Temp\ccp0JrPn.s 			page 134


 6474 1fd2 312A0000 		.4byte	0x2a31
 6475 1fd6 E01F0000 		.4byte	0x1fe0
 6476 1fda 25       		.uleb128 0x25
 6477 1fdb 01       		.uleb128 0x1
 6478 1fdc 51       		.byte	0x51
 6479 1fdd 01       		.uleb128 0x1
 6480 1fde 31       		.byte	0x31
 6481 1fdf 00       		.byte	0
 6482 1fe0 26       		.uleb128 0x26
 6483 1fe1 5A000000 		.4byte	.LVL217
 6484 1fe5 3C2A0000 		.4byte	0x2a3c
 6485 1fe9 F31F0000 		.4byte	0x1ff3
 6486 1fed 25       		.uleb128 0x25
 6487 1fee 01       		.uleb128 0x1
 6488 1fef 51       		.byte	0x51
 6489 1ff0 01       		.uleb128 0x1
 6490 1ff1 31       		.byte	0x31
 6491 1ff2 00       		.byte	0
 6492 1ff3 26       		.uleb128 0x26
 6493 1ff4 74000000 		.4byte	.LVL218
 6494 1ff8 DB280000 		.4byte	0x28db
 6495 1ffc 06200000 		.4byte	0x2006
 6496 2000 25       		.uleb128 0x25
 6497 2001 01       		.uleb128 0x1
 6498 2002 51       		.byte	0x51
 6499 2003 01       		.uleb128 0x1
 6500 2004 31       		.byte	0x31
 6501 2005 00       		.byte	0
 6502 2006 26       		.uleb128 0x26
 6503 2007 7C000000 		.4byte	.LVL219
 6504 200b 12290000 		.4byte	0x2912
 6505 200f 19200000 		.4byte	0x2019
 6506 2013 25       		.uleb128 0x25
 6507 2014 01       		.uleb128 0x1
 6508 2015 51       		.byte	0x51
 6509 2016 01       		.uleb128 0x1
 6510 2017 32       		.byte	0x32
 6511 2018 00       		.byte	0
 6512 2019 26       		.uleb128 0x26
 6513 201a 86000000 		.4byte	.LVL220
 6514 201e 12290000 		.4byte	0x2912
 6515 2022 2C200000 		.4byte	0x202c
 6516 2026 25       		.uleb128 0x25
 6517 2027 01       		.uleb128 0x1
 6518 2028 51       		.byte	0x51
 6519 2029 01       		.uleb128 0x1
 6520 202a 31       		.byte	0x31
 6521 202b 00       		.byte	0
 6522 202c 26       		.uleb128 0x26
 6523 202d 8E000000 		.4byte	.LVL221
 6524 2031 DB280000 		.4byte	0x28db
 6525 2035 3F200000 		.4byte	0x203f
 6526 2039 25       		.uleb128 0x25
 6527 203a 01       		.uleb128 0x1
 6528 203b 51       		.byte	0x51
 6529 203c 01       		.uleb128 0x1
 6530 203d 32       		.byte	0x32
ARM GAS  C:\Users\haske\AppData\Local\Temp\ccp0JrPn.s 			page 135


 6531 203e 00       		.byte	0
 6532 203f 26       		.uleb128 0x26
 6533 2040 9E000000 		.4byte	.LVL222
 6534 2044 DB280000 		.4byte	0x28db
 6535 2048 52200000 		.4byte	0x2052
 6536 204c 25       		.uleb128 0x25
 6537 204d 01       		.uleb128 0x1
 6538 204e 51       		.byte	0x51
 6539 204f 01       		.uleb128 0x1
 6540 2050 31       		.byte	0x31
 6541 2051 00       		.byte	0
 6542 2052 26       		.uleb128 0x26
 6543 2053 A6000000 		.4byte	.LVL223
 6544 2057 12290000 		.4byte	0x2912
 6545 205b 65200000 		.4byte	0x2065
 6546 205f 25       		.uleb128 0x25
 6547 2060 01       		.uleb128 0x1
 6548 2061 51       		.byte	0x51
 6549 2062 01       		.uleb128 0x1
 6550 2063 32       		.byte	0x32
 6551 2064 00       		.byte	0
 6552 2065 26       		.uleb128 0x26
 6553 2066 B0000000 		.4byte	.LVL224
 6554 206a 12290000 		.4byte	0x2912
 6555 206e 78200000 		.4byte	0x2078
 6556 2072 25       		.uleb128 0x25
 6557 2073 01       		.uleb128 0x1
 6558 2074 51       		.byte	0x51
 6559 2075 01       		.uleb128 0x1
 6560 2076 31       		.byte	0x31
 6561 2077 00       		.byte	0
 6562 2078 26       		.uleb128 0x26
 6563 2079 B8000000 		.4byte	.LVL225
 6564 207d DB280000 		.4byte	0x28db
 6565 2081 8B200000 		.4byte	0x208b
 6566 2085 25       		.uleb128 0x25
 6567 2086 01       		.uleb128 0x1
 6568 2087 51       		.byte	0x51
 6569 2088 01       		.uleb128 0x1
 6570 2089 32       		.byte	0x32
 6571 208a 00       		.byte	0
 6572 208b 26       		.uleb128 0x26
 6573 208c D2000000 		.4byte	.LVL226
 6574 2090 DB280000 		.4byte	0x28db
 6575 2094 9E200000 		.4byte	0x209e
 6576 2098 25       		.uleb128 0x25
 6577 2099 01       		.uleb128 0x1
 6578 209a 51       		.byte	0x51
 6579 209b 01       		.uleb128 0x1
 6580 209c 31       		.byte	0x31
 6581 209d 00       		.byte	0
 6582 209e 26       		.uleb128 0x26
 6583 209f DA000000 		.4byte	.LVL227
 6584 20a3 12290000 		.4byte	0x2912
 6585 20a7 B1200000 		.4byte	0x20b1
 6586 20ab 25       		.uleb128 0x25
 6587 20ac 01       		.uleb128 0x1
ARM GAS  C:\Users\haske\AppData\Local\Temp\ccp0JrPn.s 			page 136


 6588 20ad 51       		.byte	0x51
 6589 20ae 01       		.uleb128 0x1
 6590 20af 32       		.byte	0x32
 6591 20b0 00       		.byte	0
 6592 20b1 26       		.uleb128 0x26
 6593 20b2 E4000000 		.4byte	.LVL228
 6594 20b6 12290000 		.4byte	0x2912
 6595 20ba C4200000 		.4byte	0x20c4
 6596 20be 25       		.uleb128 0x25
 6597 20bf 01       		.uleb128 0x1
 6598 20c0 51       		.byte	0x51
 6599 20c1 01       		.uleb128 0x1
 6600 20c2 31       		.byte	0x31
 6601 20c3 00       		.byte	0
 6602 20c4 26       		.uleb128 0x26
 6603 20c5 EC000000 		.4byte	.LVL229
 6604 20c9 DB280000 		.4byte	0x28db
 6605 20cd D7200000 		.4byte	0x20d7
 6606 20d1 25       		.uleb128 0x25
 6607 20d2 01       		.uleb128 0x1
 6608 20d3 51       		.byte	0x51
 6609 20d4 01       		.uleb128 0x1
 6610 20d5 32       		.byte	0x32
 6611 20d6 00       		.byte	0
 6612 20d7 26       		.uleb128 0x26
 6613 20d8 F6000000 		.4byte	.LVL230
 6614 20dc 102A0000 		.4byte	0x2a10
 6615 20e0 F5200000 		.4byte	0x20f5
 6616 20e4 25       		.uleb128 0x25
 6617 20e5 01       		.uleb128 0x1
 6618 20e6 50       		.byte	0x50
 6619 20e7 02       		.uleb128 0x2
 6620 20e8 74       		.byte	0x74
 6621 20e9 00       		.sleb128 0
 6622 20ea 25       		.uleb128 0x25
 6623 20eb 01       		.uleb128 0x1
 6624 20ec 51       		.byte	0x51
 6625 20ed 01       		.uleb128 0x1
 6626 20ee 4C       		.byte	0x4c
 6627 20ef 25       		.uleb128 0x25
 6628 20f0 01       		.uleb128 0x1
 6629 20f1 52       		.byte	0x52
 6630 20f2 01       		.uleb128 0x1
 6631 20f3 30       		.byte	0x30
 6632 20f4 00       		.byte	0
 6633 20f5 24       		.uleb128 0x24
 6634 20f6 FC000000 		.4byte	.LVL231
 6635 20fa 44160000 		.4byte	0x1644
 6636 20fe 25       		.uleb128 0x25
 6637 20ff 01       		.uleb128 0x1
 6638 2100 50       		.byte	0x50
 6639 2101 02       		.uleb128 0x2
 6640 2102 74       		.byte	0x74
 6641 2103 00       		.sleb128 0
 6642 2104 00       		.byte	0
 6643 2105 00       		.byte	0
 6644 2106 0B       		.uleb128 0xb
ARM GAS  C:\Users\haske\AppData\Local\Temp\ccp0JrPn.s 			page 137


 6645 2107 04       		.byte	0x4
 6646 2108 720E0000 		.4byte	0xe72
 6647 210c 20       		.uleb128 0x20
 6648 210d 77010000 		.4byte	.LASF398
 6649 2111 01       		.byte	0x1
 6650 2112 BD02     		.2byte	0x2bd
 6651 2114 00000000 		.4byte	.LFB193
 6652 2118 88000000 		.4byte	.LFE193-.LFB193
 6653 211c 01       		.uleb128 0x1
 6654 211d 9C       		.byte	0x9c
 6655 211e 8B220000 		.4byte	0x228b
 6656 2122 22       		.uleb128 0x22
 6657 2123 6500     		.ascii	"e\000"
 6658 2125 01       		.byte	0x1
 6659 2126 BD02     		.2byte	0x2bd
 6660 2128 960C0000 		.4byte	0xc96
 6661 212c A90A0000 		.4byte	.LLST73
 6662 2130 23       		.uleb128 0x23
 6663 2131 DC180000 		.4byte	.LASF248
 6664 2135 01       		.byte	0x1
 6665 2136 BF02     		.2byte	0x2bf
 6666 2138 800C0000 		.4byte	0xc80
 6667 213c D50A0000 		.4byte	.LLST74
 6668 2140 32       		.uleb128 0x32
 6669 2141 0C000000 		.4byte	.LBB3
 6670 2145 7A000000 		.4byte	.LBE3-.LBB3
 6671 2149 7A220000 		.4byte	0x227a
 6672 214d 2E       		.uleb128 0x2e
 6673 214e 6F626A00 		.ascii	"obj\000"
 6674 2152 01       		.byte	0x1
 6675 2153 C202     		.2byte	0x2c2
 6676 2155 4C0E0000 		.4byte	0xe4c
 6677 2159 E80A0000 		.4byte	.LLST75
 6678 215d 23       		.uleb128 0x23
 6679 215e 1E050000 		.4byte	.LASF330
 6680 2162 01       		.byte	0x1
 6681 2163 C302     		.2byte	0x2c3
 6682 2165 82100000 		.4byte	0x1082
 6683 2169 060B0000 		.4byte	.LLST76
 6684 216d 23       		.uleb128 0x23
 6685 216e 5E040000 		.4byte	.LASF345
 6686 2172 01       		.byte	0x1
 6687 2173 CB02     		.2byte	0x2cb
 6688 2175 88100000 		.4byte	0x1088
 6689 2179 240B0000 		.4byte	.LLST77
 6690 217d 23       		.uleb128 0x23
 6691 217e A2000000 		.4byte	.LASF399
 6692 2182 01       		.byte	0x1
 6693 2183 CE02     		.2byte	0x2ce
 6694 2185 06210000 		.4byte	0x2106
 6695 2189 370B0000 		.4byte	.LLST78
 6696 218d 23       		.uleb128 0x23
 6697 218e 2D140000 		.4byte	.LASF400
 6698 2192 01       		.byte	0x1
 6699 2193 D102     		.2byte	0x2d1
 6700 2195 06210000 		.4byte	0x2106
 6701 2199 600B0000 		.4byte	.LLST79
ARM GAS  C:\Users\haske\AppData\Local\Temp\ccp0JrPn.s 			page 138


 6702 219d 26       		.uleb128 0x26
 6703 219e 12000000 		.4byte	.LVL237
 6704 21a2 482A0000 		.4byte	0x2a48
 6705 21a6 B1210000 		.4byte	0x21b1
 6706 21aa 25       		.uleb128 0x25
 6707 21ab 01       		.uleb128 0x1
 6708 21ac 50       		.byte	0x50
 6709 21ad 02       		.uleb128 0x2
 6710 21ae 74       		.byte	0x74
 6711 21af 00       		.sleb128 0
 6712 21b0 00       		.byte	0
 6713 21b1 26       		.uleb128 0x26
 6714 21b2 1A000000 		.4byte	.LVL240
 6715 21b6 96290000 		.4byte	0x2996
 6716 21ba C5210000 		.4byte	0x21c5
 6717 21be 25       		.uleb128 0x25
 6718 21bf 01       		.uleb128 0x1
 6719 21c0 50       		.byte	0x50
 6720 21c1 02       		.uleb128 0x2
 6721 21c2 74       		.byte	0x74
 6722 21c3 00       		.sleb128 0
 6723 21c4 00       		.byte	0
 6724 21c5 26       		.uleb128 0x26
 6725 21c6 38000000 		.4byte	.LVL243
 6726 21ca 8C1E0000 		.4byte	0x1e8c
 6727 21ce DF210000 		.4byte	0x21df
 6728 21d2 25       		.uleb128 0x25
 6729 21d3 01       		.uleb128 0x1
 6730 21d4 50       		.byte	0x50
 6731 21d5 02       		.uleb128 0x2
 6732 21d6 74       		.byte	0x74
 6733 21d7 00       		.sleb128 0
 6734 21d8 25       		.uleb128 0x25
 6735 21d9 01       		.uleb128 0x1
 6736 21da 51       		.byte	0x51
 6737 21db 02       		.uleb128 0x2
 6738 21dc 75       		.byte	0x75
 6739 21dd 00       		.sleb128 0
 6740 21de 00       		.byte	0
 6741 21df 26       		.uleb128 0x26
 6742 21e0 46000000 		.4byte	.LVL246
 6743 21e4 532A0000 		.4byte	0x2a53
 6744 21e8 F3210000 		.4byte	0x21f3
 6745 21ec 25       		.uleb128 0x25
 6746 21ed 01       		.uleb128 0x1
 6747 21ee 50       		.byte	0x50
 6748 21ef 02       		.uleb128 0x2
 6749 21f0 75       		.byte	0x75
 6750 21f1 00       		.sleb128 0
 6751 21f2 00       		.byte	0
 6752 21f3 26       		.uleb128 0x26
 6753 21f4 50000000 		.4byte	.LVL249
 6754 21f8 5E2A0000 		.4byte	0x2a5e
 6755 21fc 0D220000 		.4byte	0x220d
 6756 2200 25       		.uleb128 0x25
 6757 2201 01       		.uleb128 0x1
 6758 2202 50       		.byte	0x50
ARM GAS  C:\Users\haske\AppData\Local\Temp\ccp0JrPn.s 			page 139


 6759 2203 02       		.uleb128 0x2
 6760 2204 75       		.byte	0x75
 6761 2205 00       		.sleb128 0
 6762 2206 25       		.uleb128 0x25
 6763 2207 01       		.uleb128 0x1
 6764 2208 51       		.byte	0x51
 6765 2209 02       		.uleb128 0x2
 6766 220a 77       		.byte	0x77
 6767 220b 00       		.sleb128 0
 6768 220c 00       		.byte	0
 6769 220d 26       		.uleb128 0x26
 6770 220e 5C000000 		.4byte	.LVL252
 6771 2212 692A0000 		.4byte	0x2a69
 6772 2216 27220000 		.4byte	0x2227
 6773 221a 25       		.uleb128 0x25
 6774 221b 01       		.uleb128 0x1
 6775 221c 50       		.byte	0x50
 6776 221d 02       		.uleb128 0x2
 6777 221e 75       		.byte	0x75
 6778 221f 00       		.sleb128 0
 6779 2220 25       		.uleb128 0x25
 6780 2221 01       		.uleb128 0x1
 6781 2222 51       		.byte	0x51
 6782 2223 02       		.uleb128 0x2
 6783 2224 77       		.byte	0x77
 6784 2225 00       		.sleb128 0
 6785 2226 00       		.byte	0
 6786 2227 26       		.uleb128 0x26
 6787 2228 62000000 		.4byte	.LVL253
 6788 222c 8B290000 		.4byte	0x298b
 6789 2230 3B220000 		.4byte	0x223b
 6790 2234 25       		.uleb128 0x25
 6791 2235 01       		.uleb128 0x1
 6792 2236 50       		.byte	0x50
 6793 2237 02       		.uleb128 0x2
 6794 2238 77       		.byte	0x77
 6795 2239 00       		.sleb128 0
 6796 223a 00       		.byte	0
 6797 223b 26       		.uleb128 0x26
 6798 223c 72000000 		.4byte	.LVL255
 6799 2240 692A0000 		.4byte	0x2a69
 6800 2244 55220000 		.4byte	0x2255
 6801 2248 25       		.uleb128 0x25
 6802 2249 01       		.uleb128 0x1
 6803 224a 50       		.byte	0x50
 6804 224b 02       		.uleb128 0x2
 6805 224c 75       		.byte	0x75
 6806 224d 00       		.sleb128 0
 6807 224e 25       		.uleb128 0x25
 6808 224f 01       		.uleb128 0x1
 6809 2250 51       		.byte	0x51
 6810 2251 02       		.uleb128 0x2
 6811 2252 76       		.byte	0x76
 6812 2253 00       		.sleb128 0
 6813 2254 00       		.byte	0
 6814 2255 26       		.uleb128 0x26
 6815 2256 80000000 		.4byte	.LVL256
ARM GAS  C:\Users\haske\AppData\Local\Temp\ccp0JrPn.s 			page 140


 6816 225a 1D1F0000 		.4byte	0x1f1d
 6817 225e 69220000 		.4byte	0x2269
 6818 2262 25       		.uleb128 0x25
 6819 2263 01       		.uleb128 0x1
 6820 2264 50       		.byte	0x50
 6821 2265 02       		.uleb128 0x2
 6822 2266 74       		.byte	0x74
 6823 2267 00       		.sleb128 0
 6824 2268 00       		.byte	0
 6825 2269 24       		.uleb128 0x24
 6826 226a 86000000 		.4byte	.LVL257
 6827 226e 8B290000 		.4byte	0x298b
 6828 2272 25       		.uleb128 0x25
 6829 2273 01       		.uleb128 0x1
 6830 2274 50       		.byte	0x50
 6831 2275 02       		.uleb128 0x2
 6832 2276 76       		.byte	0x76
 6833 2277 00       		.sleb128 0
 6834 2278 00       		.byte	0
 6835 2279 00       		.byte	0
 6836 227a 24       		.uleb128 0x24
 6837 227b 08000000 		.4byte	.LVL235
 6838 227f 742A0000 		.4byte	0x2a74
 6839 2283 25       		.uleb128 0x25
 6840 2284 01       		.uleb128 0x1
 6841 2285 50       		.byte	0x50
 6842 2286 02       		.uleb128 0x2
 6843 2287 74       		.byte	0x74
 6844 2288 00       		.sleb128 0
 6845 2289 00       		.byte	0
 6846 228a 00       		.byte	0
 6847 228b 33       		.uleb128 0x33
 6848 228c 0A0A0000 		.4byte	.LASF401
 6849 2290 01       		.byte	0x1
 6850 2291 A4       		.byte	0xa4
 6851 2292 00000000 		.4byte	.LFB169
 6852 2296 38000000 		.4byte	.LFE169-.LFB169
 6853 229a 01       		.uleb128 0x1
 6854 229b 9C       		.byte	0x9c
 6855 229c 44230000 		.4byte	0x2344
 6856 22a0 31       		.uleb128 0x31
 6857 22a1 6F626A00 		.ascii	"obj\000"
 6858 22a5 01       		.byte	0x1
 6859 22a6 A4       		.byte	0xa4
 6860 22a7 4C0E0000 		.4byte	0xe4c
 6861 22ab 7E0B0000 		.4byte	.LLST80
 6862 22af 2B       		.uleb128 0x2b
 6863 22b0 1E050000 		.4byte	.LASF330
 6864 22b4 01       		.byte	0x1
 6865 22b5 A8       		.byte	0xa8
 6866 22b6 82100000 		.4byte	0x1082
 6867 22ba B80B0000 		.4byte	.LLST81
 6868 22be 2B       		.uleb128 0x2b
 6869 22bf 5E040000 		.4byte	.LASF345
 6870 22c3 01       		.byte	0x1
 6871 22c4 A9       		.byte	0xa9
 6872 22c5 88100000 		.4byte	0x1088
ARM GAS  C:\Users\haske\AppData\Local\Temp\ccp0JrPn.s 			page 141


 6873 22c9 F20B0000 		.4byte	.LLST82
 6874 22cd 2B       		.uleb128 0x2b
 6875 22ce A2000000 		.4byte	.LASF399
 6876 22d2 01       		.byte	0x1
 6877 22d3 AC       		.byte	0xac
 6878 22d4 06210000 		.4byte	0x2106
 6879 22d8 150C0000 		.4byte	.LLST83
 6880 22dc 2B       		.uleb128 0x2b
 6881 22dd F1140000 		.4byte	.LASF331
 6882 22e1 01       		.byte	0x1
 6883 22e2 AE       		.byte	0xae
 6884 22e3 4C0E0000 		.4byte	0xe4c
 6885 22e7 540C0000 		.4byte	.LLST84
 6886 22eb 26       		.uleb128 0x26
 6887 22ec 0E000000 		.4byte	.LVL262
 6888 22f0 532A0000 		.4byte	0x2a53
 6889 22f4 FF220000 		.4byte	0x22ff
 6890 22f8 25       		.uleb128 0x25
 6891 22f9 01       		.uleb128 0x1
 6892 22fa 50       		.byte	0x50
 6893 22fb 02       		.uleb128 0x2
 6894 22fc 76       		.byte	0x76
 6895 22fd 00       		.sleb128 0
 6896 22fe 00       		.byte	0
 6897 22ff 26       		.uleb128 0x26
 6898 2300 1C000000 		.4byte	.LVL266
 6899 2304 692A0000 		.4byte	0x2a69
 6900 2308 19230000 		.4byte	0x2319
 6901 230c 25       		.uleb128 0x25
 6902 230d 01       		.uleb128 0x1
 6903 230e 50       		.byte	0x50
 6904 230f 02       		.uleb128 0x2
 6905 2310 76       		.byte	0x76
 6906 2311 00       		.sleb128 0
 6907 2312 25       		.uleb128 0x25
 6908 2313 01       		.uleb128 0x1
 6909 2314 51       		.byte	0x51
 6910 2315 02       		.uleb128 0x2
 6911 2316 75       		.byte	0x75
 6912 2317 00       		.sleb128 0
 6913 2318 00       		.byte	0
 6914 2319 26       		.uleb128 0x26
 6915 231a 22000000 		.4byte	.LVL267
 6916 231e 8B290000 		.4byte	0x298b
 6917 2322 2D230000 		.4byte	0x232d
 6918 2326 25       		.uleb128 0x25
 6919 2327 01       		.uleb128 0x1
 6920 2328 50       		.byte	0x50
 6921 2329 02       		.uleb128 0x2
 6922 232a 75       		.byte	0x75
 6923 232b 00       		.sleb128 0
 6924 232c 00       		.byte	0
 6925 232d 24       		.uleb128 0x24
 6926 232e 36000000 		.4byte	.LVL270
 6927 2332 1D1F0000 		.4byte	0x1f1d
 6928 2336 25       		.uleb128 0x25
 6929 2337 01       		.uleb128 0x1
ARM GAS  C:\Users\haske\AppData\Local\Temp\ccp0JrPn.s 			page 142


 6930 2338 50       		.byte	0x50
 6931 2339 02       		.uleb128 0x2
 6932 233a 74       		.byte	0x74
 6933 233b 00       		.sleb128 0
 6934 233c 25       		.uleb128 0x25
 6935 233d 01       		.uleb128 0x1
 6936 233e 51       		.byte	0x51
 6937 233f 02       		.uleb128 0x2
 6938 2340 77       		.byte	0x77
 6939 2341 00       		.sleb128 0
 6940 2342 00       		.byte	0
 6941 2343 00       		.byte	0
 6942 2344 2C       		.uleb128 0x2c
 6943 2345 470F0000 		.4byte	.LASF402
 6944 2349 01       		.byte	0x1
 6945 234a 1001     		.2byte	0x110
 6946 234c 00000000 		.4byte	.LFB171
 6947 2350 30010000 		.4byte	.LFE171-.LFB171
 6948 2354 01       		.uleb128 0x1
 6949 2355 9C       		.byte	0x9c
 6950 2356 64260000 		.4byte	0x2664
 6951 235a 22       		.uleb128 0x22
 6952 235b 6F626A00 		.ascii	"obj\000"
 6953 235f 01       		.byte	0x1
 6954 2360 1001     		.2byte	0x110
 6955 2362 4C0E0000 		.4byte	0xe4c
 6956 2366 8A0C0000 		.4byte	.LLST85
 6957 236a 21       		.uleb128 0x21
 6958 236b F1140000 		.4byte	.LASF331
 6959 236f 01       		.byte	0x1
 6960 2370 1001     		.2byte	0x110
 6961 2372 4C0E0000 		.4byte	0xe4c
 6962 2376 CC0C0000 		.4byte	.LLST86
 6963 237a 23       		.uleb128 0x23
 6964 237b 1E050000 		.4byte	.LASF330
 6965 237f 01       		.byte	0x1
 6966 2380 1401     		.2byte	0x114
 6967 2382 82100000 		.4byte	0x1082
 6968 2386 0E0D0000 		.4byte	.LLST87
 6969 238a 32       		.uleb128 0x32
 6970 238b 10000000 		.4byte	.LBB4
 6971 238f CE000000 		.4byte	.LBE4-.LBB4
 6972 2393 19260000 		.4byte	0x2619
 6973 2397 23       		.uleb128 0x23
 6974 2398 04140000 		.4byte	.LASF403
 6975 239c 01       		.byte	0x1
 6976 239d 1B01     		.2byte	0x11b
 6977 239f 4C0E0000 		.4byte	0xe4c
 6978 23a3 500D0000 		.4byte	.LLST88
 6979 23a7 23       		.uleb128 0x23
 6980 23a8 E6160000 		.4byte	.LASF341
 6981 23ac 01       		.byte	0x1
 6982 23ad 2401     		.2byte	0x124
 6983 23af 4C0E0000 		.4byte	0xe4c
 6984 23b3 6E0D0000 		.4byte	.LLST89
 6985 23b7 23       		.uleb128 0x23
 6986 23b8 E51F0000 		.4byte	.LASF342
ARM GAS  C:\Users\haske\AppData\Local\Temp\ccp0JrPn.s 			page 143


 6987 23bc 01       		.byte	0x1
 6988 23bd 2D01     		.2byte	0x12d
 6989 23bf 4C0E0000 		.4byte	0xe4c
 6990 23c3 8C0D0000 		.4byte	.LLST90
 6991 23c7 23       		.uleb128 0x23
 6992 23c8 4C190000 		.4byte	.LASF404
 6993 23cc 01       		.byte	0x1
 6994 23cd 3301     		.2byte	0x133
 6995 23cf 4C0E0000 		.4byte	0xe4c
 6996 23d3 AA0D0000 		.4byte	.LLST91
 6997 23d7 23       		.uleb128 0x23
 6998 23d8 4E180000 		.4byte	.LASF343
 6999 23dc 01       		.byte	0x1
 7000 23dd 3601     		.2byte	0x136
 7001 23df 4C0E0000 		.4byte	0xe4c
 7002 23e3 BD0D0000 		.4byte	.LLST92
 7003 23e7 26       		.uleb128 0x26
 7004 23e8 1C000000 		.4byte	.LVL279
 7005 23ec 1D290000 		.4byte	0x291d
 7006 23f0 02240000 		.4byte	0x2402
 7007 23f4 25       		.uleb128 0x25
 7008 23f5 01       		.uleb128 0x1
 7009 23f6 50       		.byte	0x50
 7010 23f7 03       		.uleb128 0x3
 7011 23f8 76       		.byte	0x76
 7012 23f9 C400     		.sleb128 68
 7013 23fb 25       		.uleb128 0x25
 7014 23fc 01       		.uleb128 0x1
 7015 23fd 51       		.byte	0x51
 7016 23fe 02       		.uleb128 0x2
 7017 23ff 74       		.byte	0x74
 7018 2400 00       		.sleb128 0
 7019 2401 00       		.byte	0
 7020 2402 26       		.uleb128 0x26
 7021 2403 22000000 		.4byte	.LVL281
 7022 2407 28290000 		.4byte	0x2928
 7023 240b 16240000 		.4byte	0x2416
 7024 240f 25       		.uleb128 0x25
 7025 2410 01       		.uleb128 0x1
 7026 2411 50       		.byte	0x50
 7027 2412 02       		.uleb128 0x2
 7028 2413 75       		.byte	0x75
 7029 2414 00       		.sleb128 0
 7030 2415 00       		.byte	0
 7031 2416 26       		.uleb128 0x26
 7032 2417 2A000000 		.4byte	.LVL282
 7033 241b B7290000 		.4byte	0x29b7
 7034 241f 2F240000 		.4byte	0x242f
 7035 2423 25       		.uleb128 0x25
 7036 2424 01       		.uleb128 0x1
 7037 2425 50       		.byte	0x50
 7038 2426 02       		.uleb128 0x2
 7039 2427 75       		.byte	0x75
 7040 2428 00       		.sleb128 0
 7041 2429 25       		.uleb128 0x25
 7042 242a 01       		.uleb128 0x1
 7043 242b 51       		.byte	0x51
ARM GAS  C:\Users\haske\AppData\Local\Temp\ccp0JrPn.s 			page 144


 7044 242c 01       		.uleb128 0x1
 7045 242d 31       		.byte	0x31
 7046 242e 00       		.byte	0
 7047 242f 26       		.uleb128 0x26
 7048 2430 34000000 		.4byte	.LVL283
 7049 2434 49290000 		.4byte	0x2949
 7050 2438 51240000 		.4byte	0x2451
 7051 243c 25       		.uleb128 0x25
 7052 243d 01       		.uleb128 0x1
 7053 243e 50       		.byte	0x50
 7054 243f 02       		.uleb128 0x2
 7055 2440 75       		.byte	0x75
 7056 2441 00       		.sleb128 0
 7057 2442 25       		.uleb128 0x25
 7058 2443 01       		.uleb128 0x1
 7059 2444 51       		.byte	0x51
 7060 2445 03       		.uleb128 0x3
 7061 2446 0A       		.byte	0xa
 7062 2447 1E20     		.2byte	0x201e
 7063 2449 25       		.uleb128 0x25
 7064 244a 01       		.uleb128 0x1
 7065 244b 52       		.byte	0x52
 7066 244c 03       		.uleb128 0x3
 7067 244d 0A       		.byte	0xa
 7068 244e 6420     		.2byte	0x2064
 7069 2450 00       		.byte	0
 7070 2451 26       		.uleb128 0x26
 7071 2452 3C000000 		.4byte	.LVL284
 7072 2456 D0280000 		.4byte	0x28d0
 7073 245a 6A240000 		.4byte	0x246a
 7074 245e 25       		.uleb128 0x25
 7075 245f 01       		.uleb128 0x1
 7076 2460 50       		.byte	0x50
 7077 2461 02       		.uleb128 0x2
 7078 2462 75       		.byte	0x75
 7079 2463 00       		.sleb128 0
 7080 2464 25       		.uleb128 0x25
 7081 2465 01       		.uleb128 0x1
 7082 2466 51       		.byte	0x51
 7083 2467 01       		.uleb128 0x1
 7084 2468 31       		.byte	0x31
 7085 2469 00       		.byte	0
 7086 246a 26       		.uleb128 0x26
 7087 246b 46000000 		.4byte	.LVL285
 7088 246f 12290000 		.4byte	0x2912
 7089 2473 85240000 		.4byte	0x2485
 7090 2477 25       		.uleb128 0x25
 7091 2478 01       		.uleb128 0x1
 7092 2479 50       		.byte	0x50
 7093 247a 02       		.uleb128 0x2
 7094 247b 75       		.byte	0x75
 7095 247c 00       		.sleb128 0
 7096 247d 25       		.uleb128 0x25
 7097 247e 01       		.uleb128 0x1
 7098 247f 51       		.byte	0x51
 7099 2480 03       		.uleb128 0x3
 7100 2481 0A       		.byte	0xa
ARM GAS  C:\Users\haske\AppData\Local\Temp\ccp0JrPn.s 			page 145


 7101 2482 0040     		.2byte	0x4000
 7102 2484 00       		.byte	0
 7103 2485 26       		.uleb128 0x26
 7104 2486 4E000000 		.4byte	.LVL286
 7105 248a DB280000 		.4byte	0x28db
 7106 248e 9E240000 		.4byte	0x249e
 7107 2492 25       		.uleb128 0x25
 7108 2493 01       		.uleb128 0x1
 7109 2494 50       		.byte	0x50
 7110 2495 02       		.uleb128 0x2
 7111 2496 75       		.byte	0x75
 7112 2497 00       		.sleb128 0
 7113 2498 25       		.uleb128 0x25
 7114 2499 01       		.uleb128 0x1
 7115 249a 51       		.byte	0x51
 7116 249b 01       		.uleb128 0x1
 7117 249c 32       		.byte	0x32
 7118 249d 00       		.byte	0
 7119 249e 26       		.uleb128 0x26
 7120 249f 5A000000 		.4byte	.LVL287
 7121 24a3 1D290000 		.4byte	0x291d
 7122 24a7 B9240000 		.4byte	0x24b9
 7123 24ab 25       		.uleb128 0x25
 7124 24ac 01       		.uleb128 0x1
 7125 24ad 50       		.byte	0x50
 7126 24ae 03       		.uleb128 0x3
 7127 24af 76       		.byte	0x76
 7128 24b0 E000     		.sleb128 96
 7129 24b2 25       		.uleb128 0x25
 7130 24b3 01       		.uleb128 0x1
 7131 24b4 51       		.byte	0x51
 7132 24b5 02       		.uleb128 0x2
 7133 24b6 75       		.byte	0x75
 7134 24b7 00       		.sleb128 0
 7135 24b8 00       		.byte	0
 7136 24b9 26       		.uleb128 0x26
 7137 24ba 60000000 		.4byte	.LVL289
 7138 24be 28290000 		.4byte	0x2928
 7139 24c2 CD240000 		.4byte	0x24cd
 7140 24c6 25       		.uleb128 0x25
 7141 24c7 01       		.uleb128 0x1
 7142 24c8 50       		.byte	0x50
 7143 24c9 02       		.uleb128 0x2
 7144 24ca 75       		.byte	0x75
 7145 24cb 00       		.sleb128 0
 7146 24cc 00       		.byte	0
 7147 24cd 26       		.uleb128 0x26
 7148 24ce 6A000000 		.4byte	.LVL290
 7149 24d2 49290000 		.4byte	0x2949
 7150 24d6 EF240000 		.4byte	0x24ef
 7151 24da 25       		.uleb128 0x25
 7152 24db 01       		.uleb128 0x1
 7153 24dc 50       		.byte	0x50
 7154 24dd 02       		.uleb128 0x2
 7155 24de 75       		.byte	0x75
 7156 24df 00       		.sleb128 0
 7157 24e0 25       		.uleb128 0x25
ARM GAS  C:\Users\haske\AppData\Local\Temp\ccp0JrPn.s 			page 146


 7158 24e1 01       		.uleb128 0x1
 7159 24e2 51       		.byte	0x51
 7160 24e3 03       		.uleb128 0x3
 7161 24e4 0A       		.byte	0xa
 7162 24e5 6420     		.2byte	0x2064
 7163 24e7 25       		.uleb128 0x25
 7164 24e8 01       		.uleb128 0x1
 7165 24e9 52       		.byte	0x52
 7166 24ea 03       		.uleb128 0x3
 7167 24eb 0A       		.byte	0xa
 7168 24ec D127     		.2byte	0x27d1
 7169 24ee 00       		.byte	0
 7170 24ef 26       		.uleb128 0x26
 7171 24f0 72000000 		.4byte	.LVL291
 7172 24f4 D0280000 		.4byte	0x28d0
 7173 24f8 08250000 		.4byte	0x2508
 7174 24fc 25       		.uleb128 0x25
 7175 24fd 01       		.uleb128 0x1
 7176 24fe 50       		.byte	0x50
 7177 24ff 02       		.uleb128 0x2
 7178 2500 75       		.byte	0x75
 7179 2501 00       		.sleb128 0
 7180 2502 25       		.uleb128 0x25
 7181 2503 01       		.uleb128 0x1
 7182 2504 51       		.byte	0x51
 7183 2505 01       		.uleb128 0x1
 7184 2506 30       		.byte	0x30
 7185 2507 00       		.byte	0
 7186 2508 26       		.uleb128 0x26
 7187 2509 7E000000 		.4byte	.LVL292
 7188 250d E6280000 		.4byte	0x28e6
 7189 2511 2B250000 		.4byte	0x252b
 7190 2515 25       		.uleb128 0x25
 7191 2516 01       		.uleb128 0x1
 7192 2517 50       		.byte	0x50
 7193 2518 02       		.uleb128 0x2
 7194 2519 75       		.byte	0x75
 7195 251a 00       		.sleb128 0
 7196 251b 25       		.uleb128 0x25
 7197 251c 01       		.uleb128 0x1
 7198 251d 51       		.byte	0x51
 7199 251e 01       		.uleb128 0x1
 7200 251f 30       		.byte	0x30
 7201 2520 25       		.uleb128 0x25
 7202 2521 01       		.uleb128 0x1
 7203 2522 52       		.byte	0x52
 7204 2523 01       		.uleb128 0x1
 7205 2524 32       		.byte	0x32
 7206 2525 25       		.uleb128 0x25
 7207 2526 01       		.uleb128 0x1
 7208 2527 53       		.byte	0x53
 7209 2528 01       		.uleb128 0x1
 7210 2529 32       		.byte	0x32
 7211 252a 00       		.byte	0
 7212 252b 26       		.uleb128 0x26
 7213 252c 86000000 		.4byte	.LVL293
 7214 2530 DB280000 		.4byte	0x28db
ARM GAS  C:\Users\haske\AppData\Local\Temp\ccp0JrPn.s 			page 147


 7215 2534 44250000 		.4byte	0x2544
 7216 2538 25       		.uleb128 0x25
 7217 2539 01       		.uleb128 0x1
 7218 253a 50       		.byte	0x50
 7219 253b 02       		.uleb128 0x2
 7220 253c 75       		.byte	0x75
 7221 253d 00       		.sleb128 0
 7222 253e 25       		.uleb128 0x25
 7223 253f 01       		.uleb128 0x1
 7224 2540 51       		.byte	0x51
 7225 2541 01       		.uleb128 0x1
 7226 2542 32       		.byte	0x32
 7227 2543 00       		.byte	0
 7228 2544 26       		.uleb128 0x26
 7229 2545 90000000 		.4byte	.LVL294
 7230 2549 12290000 		.4byte	0x2912
 7231 254d 5F250000 		.4byte	0x255f
 7232 2551 25       		.uleb128 0x25
 7233 2552 01       		.uleb128 0x1
 7234 2553 50       		.byte	0x50
 7235 2554 02       		.uleb128 0x2
 7236 2555 75       		.byte	0x75
 7237 2556 00       		.sleb128 0
 7238 2557 25       		.uleb128 0x25
 7239 2558 01       		.uleb128 0x1
 7240 2559 51       		.byte	0x51
 7241 255a 03       		.uleb128 0x3
 7242 255b 0A       		.byte	0xa
 7243 255c 0040     		.2byte	0x4000
 7244 255e 00       		.byte	0
 7245 255f 26       		.uleb128 0x26
 7246 2560 98000000 		.4byte	.LVL295
 7247 2564 54290000 		.4byte	0x2954
 7248 2568 73250000 		.4byte	0x2573
 7249 256c 25       		.uleb128 0x25
 7250 256d 01       		.uleb128 0x1
 7251 256e 50       		.byte	0x50
 7252 256f 02       		.uleb128 0x2
 7253 2570 75       		.byte	0x75
 7254 2571 00       		.sleb128 0
 7255 2572 00       		.byte	0
 7256 2573 26       		.uleb128 0x26
 7257 2574 A4000000 		.4byte	.LVL297
 7258 2578 5F290000 		.4byte	0x295f
 7259 257c 9B250000 		.4byte	0x259b
 7260 2580 25       		.uleb128 0x25
 7261 2581 01       		.uleb128 0x1
 7262 2582 50       		.byte	0x50
 7263 2583 02       		.uleb128 0x2
 7264 2584 75       		.byte	0x75
 7265 2585 00       		.sleb128 0
 7266 2586 25       		.uleb128 0x25
 7267 2587 01       		.uleb128 0x1
 7268 2588 51       		.byte	0x51
 7269 2589 05       		.uleb128 0x5
 7270 258a 03       		.byte	0x3
 7271 258b 00000000 		.4byte	lv_menu_back_event_cb
ARM GAS  C:\Users\haske\AppData\Local\Temp\ccp0JrPn.s 			page 148


 7272 258f 25       		.uleb128 0x25
 7273 2590 01       		.uleb128 0x1
 7274 2591 52       		.byte	0x52
 7275 2592 01       		.uleb128 0x1
 7276 2593 37       		.byte	0x37
 7277 2594 25       		.uleb128 0x25
 7278 2595 01       		.uleb128 0x1
 7279 2596 53       		.byte	0x53
 7280 2597 02       		.uleb128 0x2
 7281 2598 74       		.byte	0x74
 7282 2599 00       		.sleb128 0
 7283 259a 00       		.byte	0
 7284 259b 26       		.uleb128 0x26
 7285 259c AE000000 		.4byte	.LVL298
 7286 25a0 12290000 		.4byte	0x2912
 7287 25a4 B6250000 		.4byte	0x25b6
 7288 25a8 25       		.uleb128 0x25
 7289 25a9 01       		.uleb128 0x1
 7290 25aa 50       		.byte	0x50
 7291 25ab 02       		.uleb128 0x2
 7292 25ac 75       		.byte	0x75
 7293 25ad 00       		.sleb128 0
 7294 25ae 25       		.uleb128 0x25
 7295 25af 01       		.uleb128 0x1
 7296 25b0 51       		.byte	0x51
 7297 25b1 03       		.uleb128 0x3
 7298 25b2 0A       		.byte	0xa
 7299 25b3 0040     		.2byte	0x4000
 7300 25b5 00       		.byte	0
 7301 25b6 26       		.uleb128 0x26
 7302 25b7 B6000000 		.4byte	.LVL299
 7303 25bb D0280000 		.4byte	0x28d0
 7304 25bf CF250000 		.4byte	0x25cf
 7305 25c3 25       		.uleb128 0x25
 7306 25c4 01       		.uleb128 0x1
 7307 25c5 50       		.byte	0x50
 7308 25c6 02       		.uleb128 0x2
 7309 25c7 75       		.byte	0x75
 7310 25c8 00       		.sleb128 0
 7311 25c9 25       		.uleb128 0x25
 7312 25ca 01       		.uleb128 0x1
 7313 25cb 51       		.byte	0x51
 7314 25cc 01       		.uleb128 0x1
 7315 25cd 30       		.byte	0x30
 7316 25ce 00       		.byte	0
 7317 25cf 26       		.uleb128 0x26
 7318 25d0 BE000000 		.4byte	.LVL300
 7319 25d4 6A290000 		.4byte	0x296a
 7320 25d8 E3250000 		.4byte	0x25e3
 7321 25dc 25       		.uleb128 0x25
 7322 25dd 01       		.uleb128 0x1
 7323 25de 50       		.byte	0x50
 7324 25df 02       		.uleb128 0x2
 7325 25e0 75       		.byte	0x75
 7326 25e1 00       		.sleb128 0
 7327 25e2 00       		.byte	0
 7328 25e3 26       		.uleb128 0x26
ARM GAS  C:\Users\haske\AppData\Local\Temp\ccp0JrPn.s 			page 149


 7329 25e4 C4000000 		.4byte	.LVL301
 7330 25e8 75290000 		.4byte	0x2975
 7331 25ec FA250000 		.4byte	0x25fa
 7332 25f0 25       		.uleb128 0x25
 7333 25f1 01       		.uleb128 0x1
 7334 25f2 51       		.byte	0x51
 7335 25f3 05       		.uleb128 0x5
 7336 25f4 03       		.byte	0x3
 7337 25f5 00000000 		.4byte	.LC3
 7338 25f9 00       		.byte	0
 7339 25fa 27       		.uleb128 0x27
 7340 25fb CA000000 		.4byte	.LVL302
 7341 25ff 80290000 		.4byte	0x2980
 7342 2603 24       		.uleb128 0x24
 7343 2604 D2000000 		.4byte	.LVL304
 7344 2608 12290000 		.4byte	0x2912
 7345 260c 25       		.uleb128 0x25
 7346 260d 01       		.uleb128 0x1
 7347 260e 50       		.byte	0x50
 7348 260f 02       		.uleb128 0x2
 7349 2610 75       		.byte	0x75
 7350 2611 00       		.sleb128 0
 7351 2612 25       		.uleb128 0x25
 7352 2613 01       		.uleb128 0x1
 7353 2614 51       		.byte	0x51
 7354 2615 01       		.uleb128 0x1
 7355 2616 31       		.byte	0x31
 7356 2617 00       		.byte	0
 7357 2618 00       		.byte	0
 7358 2619 26       		.uleb128 0x26
 7359 261a E6000000 		.4byte	.LVL306
 7360 261e AC290000 		.4byte	0x29ac
 7361 2622 2D260000 		.4byte	0x262d
 7362 2626 25       		.uleb128 0x25
 7363 2627 01       		.uleb128 0x1
 7364 2628 50       		.byte	0x50
 7365 2629 02       		.uleb128 0x2
 7366 262a 77       		.byte	0x77
 7367 262b 00       		.sleb128 0
 7368 262c 00       		.byte	0
 7369 262d 26       		.uleb128 0x26
 7370 262e EC000000 		.4byte	.LVL307
 7371 2632 33170000 		.4byte	0x1733
 7372 2636 41260000 		.4byte	0x2641
 7373 263a 25       		.uleb128 0x25
 7374 263b 01       		.uleb128 0x1
 7375 263c 50       		.byte	0x50
 7376 263d 02       		.uleb128 0x2
 7377 263e 74       		.byte	0x74
 7378 263f 00       		.sleb128 0
 7379 2640 00       		.byte	0
 7380 2641 27       		.uleb128 0x27
 7381 2642 FE000000 		.4byte	.LVL311
 7382 2646 AC290000 		.4byte	0x29ac
 7383 264a 27       		.uleb128 0x27
 7384 264b 04010000 		.4byte	.LVL312
 7385 264f 7F2A0000 		.4byte	0x2a7f
ARM GAS  C:\Users\haske\AppData\Local\Temp\ccp0JrPn.s 			page 150


 7386 2653 24       		.uleb128 0x24
 7387 2654 16010000 		.4byte	.LVL313
 7388 2658 8B220000 		.4byte	0x228b
 7389 265c 25       		.uleb128 0x25
 7390 265d 01       		.uleb128 0x1
 7391 265e 50       		.byte	0x50
 7392 265f 02       		.uleb128 0x2
 7393 2660 74       		.byte	0x74
 7394 2661 00       		.sleb128 0
 7395 2662 00       		.byte	0
 7396 2663 00       		.byte	0
 7397 2664 2C       		.uleb128 0x2c
 7398 2665 8D010000 		.4byte	.LASF405
 7399 2669 01       		.byte	0x1
 7400 266a 5C01     		.2byte	0x15c
 7401 266c 00000000 		.4byte	.LFB173
 7402 2670 26000000 		.4byte	.LFE173-.LFB173
 7403 2674 01       		.uleb128 0x1
 7404 2675 9C       		.byte	0x9c
 7405 2676 BC260000 		.4byte	0x26bc
 7406 267a 22       		.uleb128 0x22
 7407 267b 6F626A00 		.ascii	"obj\000"
 7408 267f 01       		.byte	0x1
 7409 2680 5C01     		.2byte	0x15c
 7410 2682 4C0E0000 		.4byte	0xe4c
 7411 2686 DB0D0000 		.4byte	.LLST93
 7412 268a 21       		.uleb128 0x21
 7413 268b 9D060000 		.4byte	.LASF350
 7414 268f 01       		.byte	0x1
 7415 2690 5C01     		.2byte	0x15c
 7416 2692 1C0E0000 		.4byte	0xe1c
 7417 2696 FC0D0000 		.4byte	.LLST94
 7418 269a 23       		.uleb128 0x23
 7419 269b 1E050000 		.4byte	.LASF330
 7420 269f 01       		.byte	0x1
 7421 26a0 6001     		.2byte	0x160
 7422 26a2 82100000 		.4byte	0x1082
 7423 26a6 1D0E0000 		.4byte	.LLST95
 7424 26aa 24       		.uleb128 0x24
 7425 26ab 24000000 		.4byte	.LVL319
 7426 26af 8B220000 		.4byte	0x228b
 7427 26b3 25       		.uleb128 0x25
 7428 26b4 01       		.uleb128 0x1
 7429 26b5 50       		.byte	0x50
 7430 26b6 03       		.uleb128 0x3
 7431 26b7 F3       		.byte	0xf3
 7432 26b8 01       		.uleb128 0x1
 7433 26b9 50       		.byte	0x50
 7434 26ba 00       		.byte	0
 7435 26bb 00       		.byte	0
 7436 26bc 20       		.uleb128 0x20
 7437 26bd F8110000 		.4byte	.LASF406
 7438 26c1 01       		.byte	0x1
 7439 26c2 8E02     		.2byte	0x28e
 7440 26c4 00000000 		.4byte	.LFB191
 7441 26c8 78000000 		.4byte	.LFE191-.LFB191
 7442 26cc 01       		.uleb128 0x1
ARM GAS  C:\Users\haske\AppData\Local\Temp\ccp0JrPn.s 			page 151


 7443 26cd 9C       		.byte	0x9c
 7444 26ce D4270000 		.4byte	0x27d4
 7445 26d2 22       		.uleb128 0x22
 7446 26d3 6500     		.ascii	"e\000"
 7447 26d5 01       		.byte	0x1
 7448 26d6 8E02     		.2byte	0x28e
 7449 26d8 960C0000 		.4byte	0xc96
 7450 26dc 3E0E0000 		.4byte	.LLST96
 7451 26e0 2E       		.uleb128 0x2e
 7452 26e1 6F626A00 		.ascii	"obj\000"
 7453 26e5 01       		.byte	0x1
 7454 26e6 9002     		.2byte	0x290
 7455 26e8 4C0E0000 		.4byte	0xe4c
 7456 26ec 6A0E0000 		.4byte	.LLST97
 7457 26f0 23       		.uleb128 0x23
 7458 26f1 CE170000 		.4byte	.LASF376
 7459 26f5 01       		.byte	0x1
 7460 26f6 9102     		.2byte	0x291
 7461 26f8 7C150000 		.4byte	0x157c
 7462 26fc 880E0000 		.4byte	.LLST98
 7463 2700 23       		.uleb128 0x23
 7464 2701 1E050000 		.4byte	.LASF330
 7465 2705 01       		.byte	0x1
 7466 2706 9202     		.2byte	0x292
 7467 2708 82100000 		.4byte	0x1082
 7468 270c A60E0000 		.4byte	.LLST99
 7469 2710 23       		.uleb128 0x23
 7470 2711 F1140000 		.4byte	.LASF331
 7471 2715 01       		.byte	0x1
 7472 2716 9302     		.2byte	0x293
 7473 2718 4C0E0000 		.4byte	0xe4c
 7474 271c B90E0000 		.4byte	.LLST100
 7475 2720 34       		.uleb128 0x34
 7476 2721 00000000 		.4byte	.Ldebug_ranges0+0
 7477 2725 76270000 		.4byte	0x2776
 7478 2729 23       		.uleb128 0x23
 7479 272a 35020000 		.4byte	.LASF339
 7480 272e 01       		.byte	0x1
 7481 272f 9702     		.2byte	0x297
 7482 2731 9F020000 		.4byte	0x29f
 7483 2735 CC0E0000 		.4byte	.LLST101
 7484 2739 23       		.uleb128 0x23
 7485 273a A70D0000 		.4byte	.LASF157
 7486 273e 01       		.byte	0x1
 7487 273f 9802     		.2byte	0x298
 7488 2741 4C0E0000 		.4byte	0xe4c
 7489 2745 DF0E0000 		.4byte	.LLST102
 7490 2749 27       		.uleb128 0x27
 7491 274a 2A000000 		.4byte	.LVL328
 7492 274e A1290000 		.4byte	0x29a1
 7493 2752 26       		.uleb128 0x26
 7494 2753 50000000 		.4byte	.LVL333
 7495 2757 3C2A0000 		.4byte	0x2a3c
 7496 275b 65270000 		.4byte	0x2765
 7497 275f 25       		.uleb128 0x25
 7498 2760 01       		.uleb128 0x1
 7499 2761 51       		.byte	0x51
ARM GAS  C:\Users\haske\AppData\Local\Temp\ccp0JrPn.s 			page 152


 7500 2762 01       		.uleb128 0x1
 7501 2763 31       		.byte	0x31
 7502 2764 00       		.byte	0
 7503 2765 24       		.uleb128 0x24
 7504 2766 56000000 		.4byte	.LVL334
 7505 276a C51E0000 		.4byte	0x1ec5
 7506 276e 25       		.uleb128 0x25
 7507 276f 01       		.uleb128 0x1
 7508 2770 50       		.byte	0x50
 7509 2771 02       		.uleb128 0x2
 7510 2772 74       		.byte	0x74
 7511 2773 00       		.sleb128 0
 7512 2774 00       		.byte	0
 7513 2775 00       		.byte	0
 7514 2776 26       		.uleb128 0x26
 7515 2777 08000000 		.4byte	.LVL321
 7516 277b 482A0000 		.4byte	0x2a48
 7517 277f 8A270000 		.4byte	0x278a
 7518 2783 25       		.uleb128 0x25
 7519 2784 01       		.uleb128 0x1
 7520 2785 50       		.byte	0x50
 7521 2786 02       		.uleb128 0x2
 7522 2787 74       		.byte	0x74
 7523 2788 00       		.sleb128 0
 7524 2789 00       		.byte	0
 7525 278a 26       		.uleb128 0x26
 7526 278b 10000000 		.4byte	.LVL324
 7527 278f 96290000 		.4byte	0x2996
 7528 2793 9E270000 		.4byte	0x279e
 7529 2797 25       		.uleb128 0x25
 7530 2798 01       		.uleb128 0x1
 7531 2799 50       		.byte	0x50
 7532 279a 02       		.uleb128 0x2
 7533 279b 74       		.byte	0x74
 7534 279c 00       		.sleb128 0
 7535 279d 00       		.byte	0
 7536 279e 26       		.uleb128 0x26
 7537 279f 60000000 		.4byte	.LVL335
 7538 27a3 1D1F0000 		.4byte	0x1f1d
 7539 27a7 B8270000 		.4byte	0x27b8
 7540 27ab 25       		.uleb128 0x25
 7541 27ac 01       		.uleb128 0x1
 7542 27ad 50       		.byte	0x50
 7543 27ae 02       		.uleb128 0x2
 7544 27af 74       		.byte	0x74
 7545 27b0 00       		.sleb128 0
 7546 27b1 25       		.uleb128 0x25
 7547 27b2 01       		.uleb128 0x1
 7548 27b3 51       		.byte	0x51
 7549 27b4 02       		.uleb128 0x2
 7550 27b5 76       		.byte	0x76
 7551 27b6 00       		.sleb128 0
 7552 27b7 00       		.byte	0
 7553 27b8 27       		.uleb128 0x27
 7554 27b9 64000000 		.4byte	.LVL336
 7555 27bd 8A2A0000 		.4byte	0x2a8a
 7556 27c1 27       		.uleb128 0x27
ARM GAS  C:\Users\haske\AppData\Local\Temp\ccp0JrPn.s 			page 153


 7557 27c2 72000000 		.4byte	.LVL337
 7558 27c6 8A2A0000 		.4byte	0x2a8a
 7559 27ca 27       		.uleb128 0x27
 7560 27cb 76000000 		.4byte	.LVL338
 7561 27cf 952A0000 		.4byte	0x2a95
 7562 27d3 00       		.byte	0
 7563 27d4 35       		.uleb128 0x35
 7564 27d5 DE190000 		.4byte	.LASF407
 7565 27d9 05       		.byte	0x5
 7566 27da 94       		.byte	0x94
 7567 27db 55070000 		.4byte	0x755
 7568 27df 35       		.uleb128 0x35
 7569 27e0 A5180000 		.4byte	.LASF408
 7570 27e4 08       		.byte	0x8
 7571 27e5 95       		.byte	0x95
 7572 27e6 BD0D0000 		.4byte	0xdbd
 7573 27ea 36       		.uleb128 0x36
 7574 27eb 68160000 		.4byte	.LASF409
 7575 27ef 01       		.byte	0x1
 7576 27f0 26       		.byte	0x26
 7577 27f1 BD0D0000 		.4byte	0xdbd
 7578 27f5 05       		.uleb128 0x5
 7579 27f6 03       		.byte	0x3
 7580 27f7 00000000 		.4byte	lv_menu_class
 7581 27fb 36       		.uleb128 0x36
 7582 27fc 781F0000 		.4byte	.LASF410
 7583 2800 01       		.byte	0x1
 7584 2801 2E       		.byte	0x2e
 7585 2802 BD0D0000 		.4byte	0xdbd
 7586 2806 05       		.uleb128 0x5
 7587 2807 03       		.byte	0x3
 7588 2808 00000000 		.4byte	lv_menu_page_class
 7589 280c 36       		.uleb128 0x36
 7590 280d E3080000 		.4byte	.LASF411
 7591 2811 01       		.byte	0x1
 7592 2812 37       		.byte	0x37
 7593 2813 BD0D0000 		.4byte	0xdbd
 7594 2817 05       		.uleb128 0x5
 7595 2818 03       		.byte	0x3
 7596 2819 00000000 		.4byte	lv_menu_cont_class
 7597 281d 36       		.uleb128 0x36
 7598 281e 42150000 		.4byte	.LASF412
 7599 2822 01       		.byte	0x1
 7600 2823 3E       		.byte	0x3e
 7601 2824 BD0D0000 		.4byte	0xdbd
 7602 2828 05       		.uleb128 0x5
 7603 2829 03       		.byte	0x3
 7604 282a 00000000 		.4byte	lv_menu_section_class
 7605 282e 36       		.uleb128 0x36
 7606 282f 4B140000 		.4byte	.LASF413
 7607 2833 01       		.byte	0x1
 7608 2834 45       		.byte	0x45
 7609 2835 BD0D0000 		.4byte	0xdbd
 7610 2839 05       		.uleb128 0x5
 7611 283a 03       		.byte	0x3
 7612 283b 00000000 		.4byte	lv_menu_separator_class
 7613 283f 36       		.uleb128 0x36
ARM GAS  C:\Users\haske\AppData\Local\Temp\ccp0JrPn.s 			page 154


 7614 2840 981B0000 		.4byte	.LASF414
 7615 2844 01       		.byte	0x1
 7616 2845 4B       		.byte	0x4b
 7617 2846 BD0D0000 		.4byte	0xdbd
 7618 284a 05       		.uleb128 0x5
 7619 284b 03       		.byte	0x3
 7620 284c 00000000 		.4byte	lv_menu_sidebar_cont_class
 7621 2850 36       		.uleb128 0x36
 7622 2851 AF0B0000 		.4byte	.LASF415
 7623 2855 01       		.byte	0x1
 7624 2856 4F       		.byte	0x4f
 7625 2857 BD0D0000 		.4byte	0xdbd
 7626 285b 05       		.uleb128 0x5
 7627 285c 03       		.byte	0x3
 7628 285d 00000000 		.4byte	lv_menu_main_cont_class
 7629 2861 36       		.uleb128 0x36
 7630 2862 6A130000 		.4byte	.LASF416
 7631 2866 01       		.byte	0x1
 7632 2867 57       		.byte	0x57
 7633 2868 BD0D0000 		.4byte	0xdbd
 7634 286c 05       		.uleb128 0x5
 7635 286d 03       		.byte	0x3
 7636 286e 00000000 		.4byte	lv_menu_sidebar_header_cont_class
 7637 2872 36       		.uleb128 0x36
 7638 2873 FD1F0000 		.4byte	.LASF417
 7639 2877 01       		.byte	0x1
 7640 2878 53       		.byte	0x53
 7641 2879 BD0D0000 		.4byte	0xdbd
 7642 287d 05       		.uleb128 0x5
 7643 287e 03       		.byte	0x3
 7644 287f 00000000 		.4byte	lv_menu_main_header_cont_class
 7645 2883 35       		.uleb128 0x35
 7646 2884 951E0000 		.4byte	.LASF418
 7647 2888 10       		.byte	0x10
 7648 2889 3C       		.byte	0x3c
 7649 288a CE000000 		.4byte	0xce
 7650 288e 35       		.uleb128 0x35
 7651 288f C70D0000 		.4byte	.LASF419
 7652 2893 10       		.byte	0x10
 7653 2894 3D       		.byte	0x3d
 7654 2895 C3050000 		.4byte	0x5c3
 7655 2899 35       		.uleb128 0x35
 7656 289a 84040000 		.4byte	.LASF420
 7657 289e 10       		.byte	0x10
 7658 289f 3E       		.byte	0x3e
 7659 28a0 C3050000 		.4byte	0x5c3
 7660 28a4 35       		.uleb128 0x35
 7661 28a5 C0080000 		.4byte	.LASF421
 7662 28a9 10       		.byte	0x10
 7663 28aa 3F       		.byte	0x3f
 7664 28ab C3050000 		.4byte	0x5c3
 7665 28af 35       		.uleb128 0x35
 7666 28b0 78060000 		.4byte	.LASF422
 7667 28b4 10       		.byte	0x10
 7668 28b5 40       		.byte	0x40
 7669 28b6 C3050000 		.4byte	0x5c3
 7670 28ba 35       		.uleb128 0x35
ARM GAS  C:\Users\haske\AppData\Local\Temp\ccp0JrPn.s 			page 155


 7671 28bb DC020000 		.4byte	.LASF423
 7672 28bf 10       		.byte	0x10
 7673 28c0 41       		.byte	0x41
 7674 28c1 C3050000 		.4byte	0x5c3
 7675 28c5 37       		.uleb128 0x37
 7676 28c6 57000000 		.4byte	.LASF424
 7677 28ca 57000000 		.4byte	.LASF424
 7678 28ce 09       		.byte	0x9
 7679 28cf 53       		.byte	0x53
 7680 28d0 37       		.uleb128 0x37
 7681 28d1 90180000 		.4byte	.LASF425
 7682 28d5 90180000 		.4byte	.LASF425
 7683 28d9 10       		.byte	0x10
 7684 28da 52       		.byte	0x52
 7685 28db 37       		.uleb128 0x37
 7686 28dc C6130000 		.4byte	.LASF426
 7687 28e0 C6130000 		.4byte	.LASF426
 7688 28e4 08       		.byte	0x8
 7689 28e5 F3       		.byte	0xf3
 7690 28e6 37       		.uleb128 0x37
 7691 28e7 73000000 		.4byte	.LASF427
 7692 28eb 73000000 		.4byte	.LASF427
 7693 28ef 10       		.byte	0x10
 7694 28f0 5B       		.byte	0x5b
 7695 28f1 37       		.uleb128 0x37
 7696 28f2 B1030000 		.4byte	.LASF428
 7697 28f6 B1030000 		.4byte	.LASF428
 7698 28fa 11       		.byte	0x11
 7699 28fb 86       		.byte	0x86
 7700 28fc 37       		.uleb128 0x37
 7701 28fd 3E080000 		.4byte	.LASF429
 7702 2901 3E080000 		.4byte	.LASF429
 7703 2905 09       		.byte	0x9
 7704 2906 2F       		.byte	0x2f
 7705 2907 37       		.uleb128 0x37
 7706 2908 12190000 		.4byte	.LASF430
 7707 290c 12190000 		.4byte	.LASF430
 7708 2910 08       		.byte	0x8
 7709 2911 E0       		.byte	0xe0
 7710 2912 37       		.uleb128 0x37
 7711 2913 D8110000 		.4byte	.LASF431
 7712 2917 D8110000 		.4byte	.LASF431
 7713 291b 08       		.byte	0x8
 7714 291c EC       		.byte	0xec
 7715 291d 37       		.uleb128 0x37
 7716 291e 9D130000 		.4byte	.LASF432
 7717 2922 9D130000 		.4byte	.LASF432
 7718 2926 0D       		.byte	0xd
 7719 2927 4B       		.byte	0x4b
 7720 2928 37       		.uleb128 0x37
 7721 2929 590B0000 		.4byte	.LASF433
 7722 292d 590B0000 		.4byte	.LASF433
 7723 2931 0D       		.byte	0xd
 7724 2932 4D       		.byte	0x4d
 7725 2933 37       		.uleb128 0x37
 7726 2934 4B0A0000 		.4byte	.LASF434
 7727 2938 4B0A0000 		.4byte	.LASF434
ARM GAS  C:\Users\haske\AppData\Local\Temp\ccp0JrPn.s 			page 156


 7728 293c 11       		.byte	0x11
 7729 293d 71       		.byte	0x71
 7730 293e 37       		.uleb128 0x37
 7731 293f F0100000 		.4byte	.LASF435
 7732 2943 F0100000 		.4byte	.LASF435
 7733 2947 10       		.byte	0x10
 7734 2948 63       		.byte	0x63
 7735 2949 37       		.uleb128 0x37
 7736 294a EC1C0000 		.4byte	.LASF436
 7737 294e EC1C0000 		.4byte	.LASF436
 7738 2952 11       		.byte	0x11
 7739 2953 52       		.byte	0x52
 7740 2954 37       		.uleb128 0x37
 7741 2955 0B1A0000 		.4byte	.LASF437
 7742 2959 0B1A0000 		.4byte	.LASF437
 7743 295d 12       		.byte	0x12
 7744 295e 2C       		.byte	0x2c
 7745 295f 37       		.uleb128 0x37
 7746 2960 721D0000 		.4byte	.LASF438
 7747 2964 721D0000 		.4byte	.LASF438
 7748 2968 0E       		.byte	0xe
 7749 2969 ED       		.byte	0xed
 7750 296a 37       		.uleb128 0x37
 7751 296b 401D0000 		.4byte	.LASF439
 7752 296f 401D0000 		.4byte	.LASF439
 7753 2973 13       		.byte	0x13
 7754 2974 53       		.byte	0x53
 7755 2975 37       		.uleb128 0x37
 7756 2976 87140000 		.4byte	.LASF440
 7757 297a 87140000 		.4byte	.LASF440
 7758 297e 13       		.byte	0x13
 7759 297f 60       		.byte	0x60
 7760 2980 37       		.uleb128 0x37
 7761 2981 E30E0000 		.4byte	.LASF441
 7762 2985 E30E0000 		.4byte	.LASF441
 7763 2989 14       		.byte	0x14
 7764 298a 5A       		.byte	0x5a
 7765 298b 37       		.uleb128 0x37
 7766 298c 20010000 		.4byte	.LASF442
 7767 2990 20010000 		.4byte	.LASF442
 7768 2994 15       		.byte	0x15
 7769 2995 50       		.byte	0x50
 7770 2996 37       		.uleb128 0x37
 7771 2997 D3000000 		.4byte	.LASF443
 7772 299b D3000000 		.4byte	.LASF443
 7773 299f 0E       		.byte	0xe
 7774 29a0 BE       		.byte	0xbe
 7775 29a1 37       		.uleb128 0x37
 7776 29a2 10150000 		.4byte	.LASF444
 7777 29a6 10150000 		.4byte	.LASF444
 7778 29aa 16       		.byte	0x16
 7779 29ab 7D       		.byte	0x7d
 7780 29ac 37       		.uleb128 0x37
 7781 29ad F5030000 		.4byte	.LASF445
 7782 29b1 F5030000 		.4byte	.LASF445
 7783 29b5 16       		.byte	0x16
 7784 29b6 56       		.byte	0x56
ARM GAS  C:\Users\haske\AppData\Local\Temp\ccp0JrPn.s 			page 157


 7785 29b7 37       		.uleb128 0x37
 7786 29b8 56020000 		.4byte	.LASF446
 7787 29bc 56020000 		.4byte	.LASF446
 7788 29c0 16       		.byte	0x16
 7789 29c1 68       		.byte	0x68
 7790 29c2 37       		.uleb128 0x37
 7791 29c3 C2000000 		.4byte	.LASF447
 7792 29c7 C2000000 		.4byte	.LASF447
 7793 29cb 11       		.byte	0x11
 7794 29cc 59       		.byte	0x59
 7795 29cd 37       		.uleb128 0x37
 7796 29ce DB100000 		.4byte	.LASF448
 7797 29d2 DB100000 		.4byte	.LASF448
 7798 29d6 11       		.byte	0x11
 7799 29d7 99       		.byte	0x99
 7800 29d8 38       		.uleb128 0x38
 7801 29d9 891A0000 		.4byte	.LASF449
 7802 29dd 891A0000 		.4byte	.LASF449
 7803 29e1 11       		.byte	0x11
 7804 29e2 3401     		.2byte	0x134
 7805 29e4 37       		.uleb128 0x37
 7806 29e5 911B0000 		.4byte	.LASF450
 7807 29e9 911B0000 		.4byte	.LASF450
 7808 29ed 17       		.byte	0x17
 7809 29ee 21       		.byte	0x21
 7810 29ef 37       		.uleb128 0x37
 7811 29f0 C4180000 		.4byte	.LASF451
 7812 29f4 C4180000 		.4byte	.LASF451
 7813 29f8 15       		.byte	0x15
 7814 29f9 4A       		.byte	0x4a
 7815 29fa 37       		.uleb128 0x37
 7816 29fb 9C0F0000 		.4byte	.LASF452
 7817 29ff 9C0F0000 		.4byte	.LASF452
 7818 2a03 17       		.byte	0x17
 7819 2a04 1E       		.byte	0x1e
 7820 2a05 37       		.uleb128 0x37
 7821 2a06 4A1F0000 		.4byte	.LASF453
 7822 2a0a 4A1F0000 		.4byte	.LASF453
 7823 2a0e 0E       		.byte	0xe
 7824 2a0f F6       		.byte	0xf6
 7825 2a10 37       		.uleb128 0x37
 7826 2a11 50040000 		.4byte	.LASF454
 7827 2a15 50040000 		.4byte	.LASF454
 7828 2a19 0E       		.byte	0xe
 7829 2a1a 92       		.byte	0x92
 7830 2a1b 37       		.uleb128 0x37
 7831 2a1c 2E1D0000 		.4byte	.LASF455
 7832 2a20 2E1D0000 		.4byte	.LASF455
 7833 2a24 14       		.byte	0x14
 7834 2a25 65       		.byte	0x65
 7835 2a26 37       		.uleb128 0x37
 7836 2a27 F80D0000 		.4byte	.LASF456
 7837 2a2b F80D0000 		.4byte	.LASF456
 7838 2a2f 09       		.byte	0x9
 7839 2a30 36       		.byte	0x36
 7840 2a31 37       		.uleb128 0x37
 7841 2a32 B5130000 		.4byte	.LASF457
ARM GAS  C:\Users\haske\AppData\Local\Temp\ccp0JrPn.s 			page 158


 7842 2a36 B5130000 		.4byte	.LASF457
 7843 2a3a 08       		.byte	0x8
 7844 2a3b FC       		.byte	0xfc
 7845 2a3c 38       		.uleb128 0x38
 7846 2a3d 4E0E0000 		.4byte	.LASF458
 7847 2a41 4E0E0000 		.4byte	.LASF458
 7848 2a45 08       		.byte	0x8
 7849 2a46 0401     		.2byte	0x104
 7850 2a48 37       		.uleb128 0x37
 7851 2a49 AB0E0000 		.4byte	.LASF459
 7852 2a4d AB0E0000 		.4byte	.LASF459
 7853 2a51 0E       		.byte	0xe
 7854 2a52 A1       		.byte	0xa1
 7855 2a53 37       		.uleb128 0x37
 7856 2a54 111F0000 		.4byte	.LASF460
 7857 2a58 111F0000 		.4byte	.LASF460
 7858 2a5c 09       		.byte	0x9
 7859 2a5d 64       		.byte	0x64
 7860 2a5e 37       		.uleb128 0x37
 7861 2a5f 63180000 		.4byte	.LASF461
 7862 2a63 63180000 		.4byte	.LASF461
 7863 2a67 09       		.byte	0x9
 7864 2a68 73       		.byte	0x73
 7865 2a69 37       		.uleb128 0x37
 7866 2a6a 4A060000 		.4byte	.LASF462
 7867 2a6e 4A060000 		.4byte	.LASF462
 7868 2a72 09       		.byte	0x9
 7869 2a73 4D       		.byte	0x4d
 7870 2a74 37       		.uleb128 0x37
 7871 2a75 1A130000 		.4byte	.LASF463
 7872 2a79 1A130000 		.4byte	.LASF463
 7873 2a7d 0E       		.byte	0xe
 7874 2a7e B0       		.byte	0xb0
 7875 2a7f 37       		.uleb128 0x37
 7876 2a80 AB1D0000 		.4byte	.LASF464
 7877 2a84 AB1D0000 		.4byte	.LASF464
 7878 2a88 16       		.byte	0x16
 7879 2a89 31       		.byte	0x31
 7880 2a8a 37       		.uleb128 0x37
 7881 2a8b DA0D0000 		.4byte	.LASF465
 7882 2a8f DA0D0000 		.4byte	.LASF465
 7883 2a93 0A       		.byte	0xa
 7884 2a94 76       		.byte	0x76
 7885 2a95 37       		.uleb128 0x37
 7886 2a96 D11F0000 		.4byte	.LASF466
 7887 2a9a D11F0000 		.4byte	.LASF466
 7888 2a9e 0A       		.byte	0xa
 7889 2a9f 9C       		.byte	0x9c
 7890 2aa0 00       		.byte	0
 7891              		.section	.debug_abbrev,"",%progbits
 7892              	.Ldebug_abbrev0:
 7893 0000 01       		.uleb128 0x1
 7894 0001 11       		.uleb128 0x11
 7895 0002 01       		.byte	0x1
 7896 0003 25       		.uleb128 0x25
 7897 0004 0E       		.uleb128 0xe
 7898 0005 13       		.uleb128 0x13
ARM GAS  C:\Users\haske\AppData\Local\Temp\ccp0JrPn.s 			page 159


 7899 0006 0B       		.uleb128 0xb
 7900 0007 03       		.uleb128 0x3
 7901 0008 0E       		.uleb128 0xe
 7902 0009 1B       		.uleb128 0x1b
 7903 000a 0E       		.uleb128 0xe
 7904 000b 55       		.uleb128 0x55
 7905 000c 17       		.uleb128 0x17
 7906 000d 11       		.uleb128 0x11
 7907 000e 01       		.uleb128 0x1
 7908 000f 10       		.uleb128 0x10
 7909 0010 17       		.uleb128 0x17
 7910 0011 00       		.byte	0
 7911 0012 00       		.byte	0
 7912 0013 02       		.uleb128 0x2
 7913 0014 16       		.uleb128 0x16
 7914 0015 00       		.byte	0
 7915 0016 03       		.uleb128 0x3
 7916 0017 0E       		.uleb128 0xe
 7917 0018 3A       		.uleb128 0x3a
 7918 0019 0B       		.uleb128 0xb
 7919 001a 3B       		.uleb128 0x3b
 7920 001b 0B       		.uleb128 0xb
 7921 001c 49       		.uleb128 0x49
 7922 001d 13       		.uleb128 0x13
 7923 001e 00       		.byte	0
 7924 001f 00       		.byte	0
 7925 0020 03       		.uleb128 0x3
 7926 0021 24       		.uleb128 0x24
 7927 0022 00       		.byte	0
 7928 0023 0B       		.uleb128 0xb
 7929 0024 0B       		.uleb128 0xb
 7930 0025 3E       		.uleb128 0x3e
 7931 0026 0B       		.uleb128 0xb
 7932 0027 03       		.uleb128 0x3
 7933 0028 0E       		.uleb128 0xe
 7934 0029 00       		.byte	0
 7935 002a 00       		.byte	0
 7936 002b 04       		.uleb128 0x4
 7937 002c 24       		.uleb128 0x24
 7938 002d 00       		.byte	0
 7939 002e 0B       		.uleb128 0xb
 7940 002f 0B       		.uleb128 0xb
 7941 0030 3E       		.uleb128 0x3e
 7942 0031 0B       		.uleb128 0xb
 7943 0032 03       		.uleb128 0x3
 7944 0033 08       		.uleb128 0x8
 7945 0034 00       		.byte	0
 7946 0035 00       		.byte	0
 7947 0036 05       		.uleb128 0x5
 7948 0037 13       		.uleb128 0x13
 7949 0038 01       		.byte	0x1
 7950 0039 0B       		.uleb128 0xb
 7951 003a 0B       		.uleb128 0xb
 7952 003b 3A       		.uleb128 0x3a
 7953 003c 0B       		.uleb128 0xb
 7954 003d 3B       		.uleb128 0x3b
 7955 003e 0B       		.uleb128 0xb
ARM GAS  C:\Users\haske\AppData\Local\Temp\ccp0JrPn.s 			page 160


 7956 003f 01       		.uleb128 0x1
 7957 0040 13       		.uleb128 0x13
 7958 0041 00       		.byte	0
 7959 0042 00       		.byte	0
 7960 0043 06       		.uleb128 0x6
 7961 0044 0D       		.uleb128 0xd
 7962 0045 00       		.byte	0
 7963 0046 03       		.uleb128 0x3
 7964 0047 08       		.uleb128 0x8
 7965 0048 3A       		.uleb128 0x3a
 7966 0049 0B       		.uleb128 0xb
 7967 004a 3B       		.uleb128 0x3b
 7968 004b 0B       		.uleb128 0xb
 7969 004c 49       		.uleb128 0x49
 7970 004d 13       		.uleb128 0x13
 7971 004e 38       		.uleb128 0x38
 7972 004f 0B       		.uleb128 0xb
 7973 0050 00       		.byte	0
 7974 0051 00       		.byte	0
 7975 0052 07       		.uleb128 0x7
 7976 0053 0D       		.uleb128 0xd
 7977 0054 00       		.byte	0
 7978 0055 03       		.uleb128 0x3
 7979 0056 0E       		.uleb128 0xe
 7980 0057 3A       		.uleb128 0x3a
 7981 0058 0B       		.uleb128 0xb
 7982 0059 3B       		.uleb128 0x3b
 7983 005a 0B       		.uleb128 0xb
 7984 005b 49       		.uleb128 0x49
 7985 005c 13       		.uleb128 0x13
 7986 005d 38       		.uleb128 0x38
 7987 005e 0B       		.uleb128 0xb
 7988 005f 00       		.byte	0
 7989 0060 00       		.byte	0
 7990 0061 08       		.uleb128 0x8
 7991 0062 0D       		.uleb128 0xd
 7992 0063 00       		.byte	0
 7993 0064 03       		.uleb128 0x3
 7994 0065 08       		.uleb128 0x8
 7995 0066 3A       		.uleb128 0x3a
 7996 0067 0B       		.uleb128 0xb
 7997 0068 3B       		.uleb128 0x3b
 7998 0069 0B       		.uleb128 0xb
 7999 006a 49       		.uleb128 0x49
 8000 006b 13       		.uleb128 0x13
 8001 006c 0B       		.uleb128 0xb
 8002 006d 0B       		.uleb128 0xb
 8003 006e 0D       		.uleb128 0xd
 8004 006f 0B       		.uleb128 0xb
 8005 0070 0C       		.uleb128 0xc
 8006 0071 0B       		.uleb128 0xb
 8007 0072 38       		.uleb128 0x38
 8008 0073 0B       		.uleb128 0xb
 8009 0074 00       		.byte	0
 8010 0075 00       		.byte	0
 8011 0076 09       		.uleb128 0x9
 8012 0077 0D       		.uleb128 0xd
ARM GAS  C:\Users\haske\AppData\Local\Temp\ccp0JrPn.s 			page 161


 8013 0078 00       		.byte	0
 8014 0079 03       		.uleb128 0x3
 8015 007a 0E       		.uleb128 0xe
 8016 007b 3A       		.uleb128 0x3a
 8017 007c 0B       		.uleb128 0xb
 8018 007d 3B       		.uleb128 0x3b
 8019 007e 0B       		.uleb128 0xb
 8020 007f 49       		.uleb128 0x49
 8021 0080 13       		.uleb128 0x13
 8022 0081 0B       		.uleb128 0xb
 8023 0082 0B       		.uleb128 0xb
 8024 0083 0D       		.uleb128 0xd
 8025 0084 0B       		.uleb128 0xb
 8026 0085 0C       		.uleb128 0xc
 8027 0086 0B       		.uleb128 0xb
 8028 0087 38       		.uleb128 0x38
 8029 0088 0B       		.uleb128 0xb
 8030 0089 00       		.byte	0
 8031 008a 00       		.byte	0
 8032 008b 0A       		.uleb128 0xa
 8033 008c 13       		.uleb128 0x13
 8034 008d 01       		.byte	0x1
 8035 008e 03       		.uleb128 0x3
 8036 008f 0E       		.uleb128 0xe
 8037 0090 0B       		.uleb128 0xb
 8038 0091 0B       		.uleb128 0xb
 8039 0092 3A       		.uleb128 0x3a
 8040 0093 0B       		.uleb128 0xb
 8041 0094 3B       		.uleb128 0x3b
 8042 0095 0B       		.uleb128 0xb
 8043 0096 01       		.uleb128 0x1
 8044 0097 13       		.uleb128 0x13
 8045 0098 00       		.byte	0
 8046 0099 00       		.byte	0
 8047 009a 0B       		.uleb128 0xb
 8048 009b 0F       		.uleb128 0xf
 8049 009c 00       		.byte	0
 8050 009d 0B       		.uleb128 0xb
 8051 009e 0B       		.uleb128 0xb
 8052 009f 49       		.uleb128 0x49
 8053 00a0 13       		.uleb128 0x13
 8054 00a1 00       		.byte	0
 8055 00a2 00       		.byte	0
 8056 00a3 0C       		.uleb128 0xc
 8057 00a4 26       		.uleb128 0x26
 8058 00a5 00       		.byte	0
 8059 00a6 49       		.uleb128 0x49
 8060 00a7 13       		.uleb128 0x13
 8061 00a8 00       		.byte	0
 8062 00a9 00       		.byte	0
 8063 00aa 0D       		.uleb128 0xd
 8064 00ab 15       		.uleb128 0x15
 8065 00ac 01       		.byte	0x1
 8066 00ad 27       		.uleb128 0x27
 8067 00ae 19       		.uleb128 0x19
 8068 00af 49       		.uleb128 0x49
 8069 00b0 13       		.uleb128 0x13
ARM GAS  C:\Users\haske\AppData\Local\Temp\ccp0JrPn.s 			page 162


 8070 00b1 01       		.uleb128 0x1
 8071 00b2 13       		.uleb128 0x13
 8072 00b3 00       		.byte	0
 8073 00b4 00       		.byte	0
 8074 00b5 0E       		.uleb128 0xe
 8075 00b6 05       		.uleb128 0x5
 8076 00b7 00       		.byte	0
 8077 00b8 49       		.uleb128 0x49
 8078 00b9 13       		.uleb128 0x13
 8079 00ba 00       		.byte	0
 8080 00bb 00       		.byte	0
 8081 00bc 0F       		.uleb128 0xf
 8082 00bd 26       		.uleb128 0x26
 8083 00be 00       		.byte	0
 8084 00bf 00       		.byte	0
 8085 00c0 00       		.byte	0
 8086 00c1 10       		.uleb128 0x10
 8087 00c2 0F       		.uleb128 0xf
 8088 00c3 00       		.byte	0
 8089 00c4 0B       		.uleb128 0xb
 8090 00c5 0B       		.uleb128 0xb
 8091 00c6 00       		.byte	0
 8092 00c7 00       		.byte	0
 8093 00c8 11       		.uleb128 0x11
 8094 00c9 17       		.uleb128 0x17
 8095 00ca 01       		.byte	0x1
 8096 00cb 0B       		.uleb128 0xb
 8097 00cc 0B       		.uleb128 0xb
 8098 00cd 3A       		.uleb128 0x3a
 8099 00ce 0B       		.uleb128 0xb
 8100 00cf 3B       		.uleb128 0x3b
 8101 00d0 0B       		.uleb128 0xb
 8102 00d1 01       		.uleb128 0x1
 8103 00d2 13       		.uleb128 0x13
 8104 00d3 00       		.byte	0
 8105 00d4 00       		.byte	0
 8106 00d5 12       		.uleb128 0x12
 8107 00d6 0D       		.uleb128 0xd
 8108 00d7 00       		.byte	0
 8109 00d8 03       		.uleb128 0x3
 8110 00d9 08       		.uleb128 0x8
 8111 00da 3A       		.uleb128 0x3a
 8112 00db 0B       		.uleb128 0xb
 8113 00dc 3B       		.uleb128 0x3b
 8114 00dd 0B       		.uleb128 0xb
 8115 00de 49       		.uleb128 0x49
 8116 00df 13       		.uleb128 0x13
 8117 00e0 00       		.byte	0
 8118 00e1 00       		.byte	0
 8119 00e2 13       		.uleb128 0x13
 8120 00e3 0D       		.uleb128 0xd
 8121 00e4 00       		.byte	0
 8122 00e5 03       		.uleb128 0x3
 8123 00e6 0E       		.uleb128 0xe
 8124 00e7 3A       		.uleb128 0x3a
 8125 00e8 0B       		.uleb128 0xb
 8126 00e9 3B       		.uleb128 0x3b
ARM GAS  C:\Users\haske\AppData\Local\Temp\ccp0JrPn.s 			page 163


 8127 00ea 0B       		.uleb128 0xb
 8128 00eb 49       		.uleb128 0x49
 8129 00ec 13       		.uleb128 0x13
 8130 00ed 00       		.byte	0
 8131 00ee 00       		.byte	0
 8132 00ef 14       		.uleb128 0x14
 8133 00f0 04       		.uleb128 0x4
 8134 00f1 01       		.byte	0x1
 8135 00f2 0B       		.uleb128 0xb
 8136 00f3 0B       		.uleb128 0xb
 8137 00f4 49       		.uleb128 0x49
 8138 00f5 13       		.uleb128 0x13
 8139 00f6 3A       		.uleb128 0x3a
 8140 00f7 0B       		.uleb128 0xb
 8141 00f8 3B       		.uleb128 0x3b
 8142 00f9 0B       		.uleb128 0xb
 8143 00fa 01       		.uleb128 0x1
 8144 00fb 13       		.uleb128 0x13
 8145 00fc 00       		.byte	0
 8146 00fd 00       		.byte	0
 8147 00fe 15       		.uleb128 0x15
 8148 00ff 28       		.uleb128 0x28
 8149 0100 00       		.byte	0
 8150 0101 03       		.uleb128 0x3
 8151 0102 0E       		.uleb128 0xe
 8152 0103 1C       		.uleb128 0x1c
 8153 0104 0B       		.uleb128 0xb
 8154 0105 00       		.byte	0
 8155 0106 00       		.byte	0
 8156 0107 16       		.uleb128 0x16
 8157 0108 28       		.uleb128 0x28
 8158 0109 00       		.byte	0
 8159 010a 03       		.uleb128 0x3
 8160 010b 0E       		.uleb128 0xe
 8161 010c 1C       		.uleb128 0x1c
 8162 010d 05       		.uleb128 0x5
 8163 010e 00       		.byte	0
 8164 010f 00       		.byte	0
 8165 0110 17       		.uleb128 0x17
 8166 0111 16       		.uleb128 0x16
 8167 0112 00       		.byte	0
 8168 0113 03       		.uleb128 0x3
 8169 0114 0E       		.uleb128 0xe
 8170 0115 3A       		.uleb128 0x3a
 8171 0116 0B       		.uleb128 0xb
 8172 0117 3B       		.uleb128 0x3b
 8173 0118 05       		.uleb128 0x5
 8174 0119 49       		.uleb128 0x49
 8175 011a 13       		.uleb128 0x13
 8176 011b 00       		.byte	0
 8177 011c 00       		.byte	0
 8178 011d 18       		.uleb128 0x18
 8179 011e 13       		.uleb128 0x13
 8180 011f 01       		.byte	0x1
 8181 0120 0B       		.uleb128 0xb
 8182 0121 0B       		.uleb128 0xb
 8183 0122 3A       		.uleb128 0x3a
ARM GAS  C:\Users\haske\AppData\Local\Temp\ccp0JrPn.s 			page 164


 8184 0123 0B       		.uleb128 0xb
 8185 0124 3B       		.uleb128 0x3b
 8186 0125 05       		.uleb128 0x5
 8187 0126 01       		.uleb128 0x1
 8188 0127 13       		.uleb128 0x13
 8189 0128 00       		.byte	0
 8190 0129 00       		.byte	0
 8191 012a 19       		.uleb128 0x19
 8192 012b 0D       		.uleb128 0xd
 8193 012c 00       		.byte	0
 8194 012d 03       		.uleb128 0x3
 8195 012e 0E       		.uleb128 0xe
 8196 012f 3A       		.uleb128 0x3a
 8197 0130 0B       		.uleb128 0xb
 8198 0131 3B       		.uleb128 0x3b
 8199 0132 05       		.uleb128 0x5
 8200 0133 49       		.uleb128 0x49
 8201 0134 13       		.uleb128 0x13
 8202 0135 38       		.uleb128 0x38
 8203 0136 0B       		.uleb128 0xb
 8204 0137 00       		.byte	0
 8205 0138 00       		.byte	0
 8206 0139 1A       		.uleb128 0x1a
 8207 013a 17       		.uleb128 0x17
 8208 013b 01       		.byte	0x1
 8209 013c 0B       		.uleb128 0xb
 8210 013d 0B       		.uleb128 0xb
 8211 013e 3A       		.uleb128 0x3a
 8212 013f 0B       		.uleb128 0xb
 8213 0140 3B       		.uleb128 0x3b
 8214 0141 05       		.uleb128 0x5
 8215 0142 01       		.uleb128 0x1
 8216 0143 13       		.uleb128 0x13
 8217 0144 00       		.byte	0
 8218 0145 00       		.byte	0
 8219 0146 1B       		.uleb128 0x1b
 8220 0147 0D       		.uleb128 0xd
 8221 0148 00       		.byte	0
 8222 0149 03       		.uleb128 0x3
 8223 014a 0E       		.uleb128 0xe
 8224 014b 3A       		.uleb128 0x3a
 8225 014c 0B       		.uleb128 0xb
 8226 014d 3B       		.uleb128 0x3b
 8227 014e 05       		.uleb128 0x5
 8228 014f 49       		.uleb128 0x49
 8229 0150 13       		.uleb128 0x13
 8230 0151 00       		.byte	0
 8231 0152 00       		.byte	0
 8232 0153 1C       		.uleb128 0x1c
 8233 0154 0D       		.uleb128 0xd
 8234 0155 00       		.byte	0
 8235 0156 03       		.uleb128 0x3
 8236 0157 08       		.uleb128 0x8
 8237 0158 3A       		.uleb128 0x3a
 8238 0159 0B       		.uleb128 0xb
 8239 015a 3B       		.uleb128 0x3b
 8240 015b 05       		.uleb128 0x5
ARM GAS  C:\Users\haske\AppData\Local\Temp\ccp0JrPn.s 			page 165


 8241 015c 49       		.uleb128 0x49
 8242 015d 13       		.uleb128 0x13
 8243 015e 38       		.uleb128 0x38
 8244 015f 0B       		.uleb128 0xb
 8245 0160 00       		.byte	0
 8246 0161 00       		.byte	0
 8247 0162 1D       		.uleb128 0x1d
 8248 0163 28       		.uleb128 0x28
 8249 0164 00       		.byte	0
 8250 0165 03       		.uleb128 0x3
 8251 0166 0E       		.uleb128 0xe
 8252 0167 1C       		.uleb128 0x1c
 8253 0168 06       		.uleb128 0x6
 8254 0169 00       		.byte	0
 8255 016a 00       		.byte	0
 8256 016b 1E       		.uleb128 0x1e
 8257 016c 15       		.uleb128 0x15
 8258 016d 01       		.byte	0x1
 8259 016e 27       		.uleb128 0x27
 8260 016f 19       		.uleb128 0x19
 8261 0170 01       		.uleb128 0x1
 8262 0171 13       		.uleb128 0x13
 8263 0172 00       		.byte	0
 8264 0173 00       		.byte	0
 8265 0174 1F       		.uleb128 0x1f
 8266 0175 13       		.uleb128 0x13
 8267 0176 00       		.byte	0
 8268 0177 03       		.uleb128 0x3
 8269 0178 0E       		.uleb128 0xe
 8270 0179 3C       		.uleb128 0x3c
 8271 017a 19       		.uleb128 0x19
 8272 017b 00       		.byte	0
 8273 017c 00       		.byte	0
 8274 017d 20       		.uleb128 0x20
 8275 017e 2E       		.uleb128 0x2e
 8276 017f 01       		.byte	0x1
 8277 0180 03       		.uleb128 0x3
 8278 0181 0E       		.uleb128 0xe
 8279 0182 3A       		.uleb128 0x3a
 8280 0183 0B       		.uleb128 0xb
 8281 0184 3B       		.uleb128 0x3b
 8282 0185 05       		.uleb128 0x5
 8283 0186 27       		.uleb128 0x27
 8284 0187 19       		.uleb128 0x19
 8285 0188 11       		.uleb128 0x11
 8286 0189 01       		.uleb128 0x1
 8287 018a 12       		.uleb128 0x12
 8288 018b 06       		.uleb128 0x6
 8289 018c 40       		.uleb128 0x40
 8290 018d 18       		.uleb128 0x18
 8291 018e 9742     		.uleb128 0x2117
 8292 0190 19       		.uleb128 0x19
 8293 0191 01       		.uleb128 0x1
 8294 0192 13       		.uleb128 0x13
 8295 0193 00       		.byte	0
 8296 0194 00       		.byte	0
 8297 0195 21       		.uleb128 0x21
ARM GAS  C:\Users\haske\AppData\Local\Temp\ccp0JrPn.s 			page 166


 8298 0196 05       		.uleb128 0x5
 8299 0197 00       		.byte	0
 8300 0198 03       		.uleb128 0x3
 8301 0199 0E       		.uleb128 0xe
 8302 019a 3A       		.uleb128 0x3a
 8303 019b 0B       		.uleb128 0xb
 8304 019c 3B       		.uleb128 0x3b
 8305 019d 05       		.uleb128 0x5
 8306 019e 49       		.uleb128 0x49
 8307 019f 13       		.uleb128 0x13
 8308 01a0 02       		.uleb128 0x2
 8309 01a1 17       		.uleb128 0x17
 8310 01a2 00       		.byte	0
 8311 01a3 00       		.byte	0
 8312 01a4 22       		.uleb128 0x22
 8313 01a5 05       		.uleb128 0x5
 8314 01a6 00       		.byte	0
 8315 01a7 03       		.uleb128 0x3
 8316 01a8 08       		.uleb128 0x8
 8317 01a9 3A       		.uleb128 0x3a
 8318 01aa 0B       		.uleb128 0xb
 8319 01ab 3B       		.uleb128 0x3b
 8320 01ac 05       		.uleb128 0x5
 8321 01ad 49       		.uleb128 0x49
 8322 01ae 13       		.uleb128 0x13
 8323 01af 02       		.uleb128 0x2
 8324 01b0 17       		.uleb128 0x17
 8325 01b1 00       		.byte	0
 8326 01b2 00       		.byte	0
 8327 01b3 23       		.uleb128 0x23
 8328 01b4 34       		.uleb128 0x34
 8329 01b5 00       		.byte	0
 8330 01b6 03       		.uleb128 0x3
 8331 01b7 0E       		.uleb128 0xe
 8332 01b8 3A       		.uleb128 0x3a
 8333 01b9 0B       		.uleb128 0xb
 8334 01ba 3B       		.uleb128 0x3b
 8335 01bb 05       		.uleb128 0x5
 8336 01bc 49       		.uleb128 0x49
 8337 01bd 13       		.uleb128 0x13
 8338 01be 02       		.uleb128 0x2
 8339 01bf 17       		.uleb128 0x17
 8340 01c0 00       		.byte	0
 8341 01c1 00       		.byte	0
 8342 01c2 24       		.uleb128 0x24
 8343 01c3 898201   		.uleb128 0x4109
 8344 01c6 01       		.byte	0x1
 8345 01c7 11       		.uleb128 0x11
 8346 01c8 01       		.uleb128 0x1
 8347 01c9 31       		.uleb128 0x31
 8348 01ca 13       		.uleb128 0x13
 8349 01cb 00       		.byte	0
 8350 01cc 00       		.byte	0
 8351 01cd 25       		.uleb128 0x25
 8352 01ce 8A8201   		.uleb128 0x410a
 8353 01d1 00       		.byte	0
 8354 01d2 02       		.uleb128 0x2
ARM GAS  C:\Users\haske\AppData\Local\Temp\ccp0JrPn.s 			page 167


 8355 01d3 18       		.uleb128 0x18
 8356 01d4 9142     		.uleb128 0x2111
 8357 01d6 18       		.uleb128 0x18
 8358 01d7 00       		.byte	0
 8359 01d8 00       		.byte	0
 8360 01d9 26       		.uleb128 0x26
 8361 01da 898201   		.uleb128 0x4109
 8362 01dd 01       		.byte	0x1
 8363 01de 11       		.uleb128 0x11
 8364 01df 01       		.uleb128 0x1
 8365 01e0 31       		.uleb128 0x31
 8366 01e1 13       		.uleb128 0x13
 8367 01e2 01       		.uleb128 0x1
 8368 01e3 13       		.uleb128 0x13
 8369 01e4 00       		.byte	0
 8370 01e5 00       		.byte	0
 8371 01e6 27       		.uleb128 0x27
 8372 01e7 898201   		.uleb128 0x4109
 8373 01ea 00       		.byte	0
 8374 01eb 11       		.uleb128 0x11
 8375 01ec 01       		.uleb128 0x1
 8376 01ed 31       		.uleb128 0x31
 8377 01ee 13       		.uleb128 0x13
 8378 01ef 00       		.byte	0
 8379 01f0 00       		.byte	0
 8380 01f1 28       		.uleb128 0x28
 8381 01f2 2E       		.uleb128 0x2e
 8382 01f3 01       		.byte	0x1
 8383 01f4 3F       		.uleb128 0x3f
 8384 01f5 19       		.uleb128 0x19
 8385 01f6 03       		.uleb128 0x3
 8386 01f7 0E       		.uleb128 0xe
 8387 01f8 3A       		.uleb128 0x3a
 8388 01f9 0B       		.uleb128 0xb
 8389 01fa 3B       		.uleb128 0x3b
 8390 01fb 0B       		.uleb128 0xb
 8391 01fc 27       		.uleb128 0x27
 8392 01fd 19       		.uleb128 0x19
 8393 01fe 49       		.uleb128 0x49
 8394 01ff 13       		.uleb128 0x13
 8395 0200 11       		.uleb128 0x11
 8396 0201 01       		.uleb128 0x1
 8397 0202 12       		.uleb128 0x12
 8398 0203 06       		.uleb128 0x6
 8399 0204 40       		.uleb128 0x40
 8400 0205 18       		.uleb128 0x18
 8401 0206 9742     		.uleb128 0x2117
 8402 0208 19       		.uleb128 0x19
 8403 0209 01       		.uleb128 0x1
 8404 020a 13       		.uleb128 0x13
 8405 020b 00       		.byte	0
 8406 020c 00       		.byte	0
 8407 020d 29       		.uleb128 0x29
 8408 020e 05       		.uleb128 0x5
 8409 020f 00       		.byte	0
 8410 0210 03       		.uleb128 0x3
 8411 0211 0E       		.uleb128 0xe
ARM GAS  C:\Users\haske\AppData\Local\Temp\ccp0JrPn.s 			page 168


 8412 0212 3A       		.uleb128 0x3a
 8413 0213 0B       		.uleb128 0xb
 8414 0214 3B       		.uleb128 0x3b
 8415 0215 0B       		.uleb128 0xb
 8416 0216 49       		.uleb128 0x49
 8417 0217 13       		.uleb128 0x13
 8418 0218 02       		.uleb128 0x2
 8419 0219 17       		.uleb128 0x17
 8420 021a 00       		.byte	0
 8421 021b 00       		.byte	0
 8422 021c 2A       		.uleb128 0x2a
 8423 021d 34       		.uleb128 0x34
 8424 021e 00       		.byte	0
 8425 021f 03       		.uleb128 0x3
 8426 0220 08       		.uleb128 0x8
 8427 0221 3A       		.uleb128 0x3a
 8428 0222 0B       		.uleb128 0xb
 8429 0223 3B       		.uleb128 0x3b
 8430 0224 0B       		.uleb128 0xb
 8431 0225 49       		.uleb128 0x49
 8432 0226 13       		.uleb128 0x13
 8433 0227 02       		.uleb128 0x2
 8434 0228 17       		.uleb128 0x17
 8435 0229 00       		.byte	0
 8436 022a 00       		.byte	0
 8437 022b 2B       		.uleb128 0x2b
 8438 022c 34       		.uleb128 0x34
 8439 022d 00       		.byte	0
 8440 022e 03       		.uleb128 0x3
 8441 022f 0E       		.uleb128 0xe
 8442 0230 3A       		.uleb128 0x3a
 8443 0231 0B       		.uleb128 0xb
 8444 0232 3B       		.uleb128 0x3b
 8445 0233 0B       		.uleb128 0xb
 8446 0234 49       		.uleb128 0x49
 8447 0235 13       		.uleb128 0x13
 8448 0236 02       		.uleb128 0x2
 8449 0237 17       		.uleb128 0x17
 8450 0238 00       		.byte	0
 8451 0239 00       		.byte	0
 8452 023a 2C       		.uleb128 0x2c
 8453 023b 2E       		.uleb128 0x2e
 8454 023c 01       		.byte	0x1
 8455 023d 3F       		.uleb128 0x3f
 8456 023e 19       		.uleb128 0x19
 8457 023f 03       		.uleb128 0x3
 8458 0240 0E       		.uleb128 0xe
 8459 0241 3A       		.uleb128 0x3a
 8460 0242 0B       		.uleb128 0xb
 8461 0243 3B       		.uleb128 0x3b
 8462 0244 05       		.uleb128 0x5
 8463 0245 27       		.uleb128 0x27
 8464 0246 19       		.uleb128 0x19
 8465 0247 11       		.uleb128 0x11
 8466 0248 01       		.uleb128 0x1
 8467 0249 12       		.uleb128 0x12
 8468 024a 06       		.uleb128 0x6
ARM GAS  C:\Users\haske\AppData\Local\Temp\ccp0JrPn.s 			page 169


 8469 024b 40       		.uleb128 0x40
 8470 024c 18       		.uleb128 0x18
 8471 024d 9742     		.uleb128 0x2117
 8472 024f 19       		.uleb128 0x19
 8473 0250 01       		.uleb128 0x1
 8474 0251 13       		.uleb128 0x13
 8475 0252 00       		.byte	0
 8476 0253 00       		.byte	0
 8477 0254 2D       		.uleb128 0x2d
 8478 0255 2E       		.uleb128 0x2e
 8479 0256 01       		.byte	0x1
 8480 0257 3F       		.uleb128 0x3f
 8481 0258 19       		.uleb128 0x19
 8482 0259 03       		.uleb128 0x3
 8483 025a 0E       		.uleb128 0xe
 8484 025b 3A       		.uleb128 0x3a
 8485 025c 0B       		.uleb128 0xb
 8486 025d 3B       		.uleb128 0x3b
 8487 025e 05       		.uleb128 0x5
 8488 025f 27       		.uleb128 0x27
 8489 0260 19       		.uleb128 0x19
 8490 0261 49       		.uleb128 0x49
 8491 0262 13       		.uleb128 0x13
 8492 0263 11       		.uleb128 0x11
 8493 0264 01       		.uleb128 0x1
 8494 0265 12       		.uleb128 0x12
 8495 0266 06       		.uleb128 0x6
 8496 0267 40       		.uleb128 0x40
 8497 0268 18       		.uleb128 0x18
 8498 0269 9742     		.uleb128 0x2117
 8499 026b 19       		.uleb128 0x19
 8500 026c 01       		.uleb128 0x1
 8501 026d 13       		.uleb128 0x13
 8502 026e 00       		.byte	0
 8503 026f 00       		.byte	0
 8504 0270 2E       		.uleb128 0x2e
 8505 0271 34       		.uleb128 0x34
 8506 0272 00       		.byte	0
 8507 0273 03       		.uleb128 0x3
 8508 0274 08       		.uleb128 0x8
 8509 0275 3A       		.uleb128 0x3a
 8510 0276 0B       		.uleb128 0xb
 8511 0277 3B       		.uleb128 0x3b
 8512 0278 05       		.uleb128 0x5
 8513 0279 49       		.uleb128 0x49
 8514 027a 13       		.uleb128 0x13
 8515 027b 02       		.uleb128 0x2
 8516 027c 17       		.uleb128 0x17
 8517 027d 00       		.byte	0
 8518 027e 00       		.byte	0
 8519 027f 2F       		.uleb128 0x2f
 8520 0280 05       		.uleb128 0x5
 8521 0281 00       		.byte	0
 8522 0282 03       		.uleb128 0x3
 8523 0283 08       		.uleb128 0x8
 8524 0284 3A       		.uleb128 0x3a
 8525 0285 0B       		.uleb128 0xb
ARM GAS  C:\Users\haske\AppData\Local\Temp\ccp0JrPn.s 			page 170


 8526 0286 3B       		.uleb128 0x3b
 8527 0287 05       		.uleb128 0x5
 8528 0288 49       		.uleb128 0x49
 8529 0289 13       		.uleb128 0x13
 8530 028a 02       		.uleb128 0x2
 8531 028b 18       		.uleb128 0x18
 8532 028c 00       		.byte	0
 8533 028d 00       		.byte	0
 8534 028e 30       		.uleb128 0x30
 8535 028f 2E       		.uleb128 0x2e
 8536 0290 01       		.byte	0x1
 8537 0291 3F       		.uleb128 0x3f
 8538 0292 19       		.uleb128 0x19
 8539 0293 03       		.uleb128 0x3
 8540 0294 0E       		.uleb128 0xe
 8541 0295 3A       		.uleb128 0x3a
 8542 0296 0B       		.uleb128 0xb
 8543 0297 3B       		.uleb128 0x3b
 8544 0298 0B       		.uleb128 0xb
 8545 0299 27       		.uleb128 0x27
 8546 029a 19       		.uleb128 0x19
 8547 029b 11       		.uleb128 0x11
 8548 029c 01       		.uleb128 0x1
 8549 029d 12       		.uleb128 0x12
 8550 029e 06       		.uleb128 0x6
 8551 029f 40       		.uleb128 0x40
 8552 02a0 18       		.uleb128 0x18
 8553 02a1 9742     		.uleb128 0x2117
 8554 02a3 19       		.uleb128 0x19
 8555 02a4 01       		.uleb128 0x1
 8556 02a5 13       		.uleb128 0x13
 8557 02a6 00       		.byte	0
 8558 02a7 00       		.byte	0
 8559 02a8 31       		.uleb128 0x31
 8560 02a9 05       		.uleb128 0x5
 8561 02aa 00       		.byte	0
 8562 02ab 03       		.uleb128 0x3
 8563 02ac 08       		.uleb128 0x8
 8564 02ad 3A       		.uleb128 0x3a
 8565 02ae 0B       		.uleb128 0xb
 8566 02af 3B       		.uleb128 0x3b
 8567 02b0 0B       		.uleb128 0xb
 8568 02b1 49       		.uleb128 0x49
 8569 02b2 13       		.uleb128 0x13
 8570 02b3 02       		.uleb128 0x2
 8571 02b4 17       		.uleb128 0x17
 8572 02b5 00       		.byte	0
 8573 02b6 00       		.byte	0
 8574 02b7 32       		.uleb128 0x32
 8575 02b8 0B       		.uleb128 0xb
 8576 02b9 01       		.byte	0x1
 8577 02ba 11       		.uleb128 0x11
 8578 02bb 01       		.uleb128 0x1
 8579 02bc 12       		.uleb128 0x12
 8580 02bd 06       		.uleb128 0x6
 8581 02be 01       		.uleb128 0x1
 8582 02bf 13       		.uleb128 0x13
ARM GAS  C:\Users\haske\AppData\Local\Temp\ccp0JrPn.s 			page 171


 8583 02c0 00       		.byte	0
 8584 02c1 00       		.byte	0
 8585 02c2 33       		.uleb128 0x33
 8586 02c3 2E       		.uleb128 0x2e
 8587 02c4 01       		.byte	0x1
 8588 02c5 03       		.uleb128 0x3
 8589 02c6 0E       		.uleb128 0xe
 8590 02c7 3A       		.uleb128 0x3a
 8591 02c8 0B       		.uleb128 0xb
 8592 02c9 3B       		.uleb128 0x3b
 8593 02ca 0B       		.uleb128 0xb
 8594 02cb 27       		.uleb128 0x27
 8595 02cc 19       		.uleb128 0x19
 8596 02cd 11       		.uleb128 0x11
 8597 02ce 01       		.uleb128 0x1
 8598 02cf 12       		.uleb128 0x12
 8599 02d0 06       		.uleb128 0x6
 8600 02d1 40       		.uleb128 0x40
 8601 02d2 18       		.uleb128 0x18
 8602 02d3 9742     		.uleb128 0x2117
 8603 02d5 19       		.uleb128 0x19
 8604 02d6 01       		.uleb128 0x1
 8605 02d7 13       		.uleb128 0x13
 8606 02d8 00       		.byte	0
 8607 02d9 00       		.byte	0
 8608 02da 34       		.uleb128 0x34
 8609 02db 0B       		.uleb128 0xb
 8610 02dc 01       		.byte	0x1
 8611 02dd 55       		.uleb128 0x55
 8612 02de 17       		.uleb128 0x17
 8613 02df 01       		.uleb128 0x1
 8614 02e0 13       		.uleb128 0x13
 8615 02e1 00       		.byte	0
 8616 02e2 00       		.byte	0
 8617 02e3 35       		.uleb128 0x35
 8618 02e4 34       		.uleb128 0x34
 8619 02e5 00       		.byte	0
 8620 02e6 03       		.uleb128 0x3
 8621 02e7 0E       		.uleb128 0xe
 8622 02e8 3A       		.uleb128 0x3a
 8623 02e9 0B       		.uleb128 0xb
 8624 02ea 3B       		.uleb128 0x3b
 8625 02eb 0B       		.uleb128 0xb
 8626 02ec 49       		.uleb128 0x49
 8627 02ed 13       		.uleb128 0x13
 8628 02ee 3F       		.uleb128 0x3f
 8629 02ef 19       		.uleb128 0x19
 8630 02f0 3C       		.uleb128 0x3c
 8631 02f1 19       		.uleb128 0x19
 8632 02f2 00       		.byte	0
 8633 02f3 00       		.byte	0
 8634 02f4 36       		.uleb128 0x36
 8635 02f5 34       		.uleb128 0x34
 8636 02f6 00       		.byte	0
 8637 02f7 03       		.uleb128 0x3
 8638 02f8 0E       		.uleb128 0xe
 8639 02f9 3A       		.uleb128 0x3a
ARM GAS  C:\Users\haske\AppData\Local\Temp\ccp0JrPn.s 			page 172


 8640 02fa 0B       		.uleb128 0xb
 8641 02fb 3B       		.uleb128 0x3b
 8642 02fc 0B       		.uleb128 0xb
 8643 02fd 49       		.uleb128 0x49
 8644 02fe 13       		.uleb128 0x13
 8645 02ff 3F       		.uleb128 0x3f
 8646 0300 19       		.uleb128 0x19
 8647 0301 02       		.uleb128 0x2
 8648 0302 18       		.uleb128 0x18
 8649 0303 00       		.byte	0
 8650 0304 00       		.byte	0
 8651 0305 37       		.uleb128 0x37
 8652 0306 2E       		.uleb128 0x2e
 8653 0307 00       		.byte	0
 8654 0308 3F       		.uleb128 0x3f
 8655 0309 19       		.uleb128 0x19
 8656 030a 3C       		.uleb128 0x3c
 8657 030b 19       		.uleb128 0x19
 8658 030c 6E       		.uleb128 0x6e
 8659 030d 0E       		.uleb128 0xe
 8660 030e 03       		.uleb128 0x3
 8661 030f 0E       		.uleb128 0xe
 8662 0310 3A       		.uleb128 0x3a
 8663 0311 0B       		.uleb128 0xb
 8664 0312 3B       		.uleb128 0x3b
 8665 0313 0B       		.uleb128 0xb
 8666 0314 00       		.byte	0
 8667 0315 00       		.byte	0
 8668 0316 38       		.uleb128 0x38
 8669 0317 2E       		.uleb128 0x2e
 8670 0318 00       		.byte	0
 8671 0319 3F       		.uleb128 0x3f
 8672 031a 19       		.uleb128 0x19
 8673 031b 3C       		.uleb128 0x3c
 8674 031c 19       		.uleb128 0x19
 8675 031d 6E       		.uleb128 0x6e
 8676 031e 0E       		.uleb128 0xe
 8677 031f 03       		.uleb128 0x3
 8678 0320 0E       		.uleb128 0xe
 8679 0321 3A       		.uleb128 0x3a
 8680 0322 0B       		.uleb128 0xb
 8681 0323 3B       		.uleb128 0x3b
 8682 0324 05       		.uleb128 0x5
 8683 0325 00       		.byte	0
 8684 0326 00       		.byte	0
 8685 0327 00       		.byte	0
 8686              		.section	.debug_loc,"",%progbits
 8687              	.Ldebug_loc0:
 8688              	.LLST0:
 8689 0000 00000000 		.4byte	.LVL0
 8690 0004 06000000 		.4byte	.LVL3
 8691 0008 0100     		.2byte	0x1
 8692 000a 50       		.byte	0x50
 8693 000b 06000000 		.4byte	.LVL3
 8694 000f 0C000000 		.4byte	.LFE184
 8695 0013 0400     		.2byte	0x4
 8696 0015 F3       		.byte	0xf3
ARM GAS  C:\Users\haske\AppData\Local\Temp\ccp0JrPn.s 			page 173


 8697 0016 01       		.uleb128 0x1
 8698 0017 50       		.byte	0x50
 8699 0018 9F       		.byte	0x9f
 8700 0019 00000000 		.4byte	0
 8701 001d 00000000 		.4byte	0
 8702              	.LLST1:
 8703 0021 00000000 		.4byte	.LVL0
 8704 0025 04000000 		.4byte	.LVL2
 8705 0029 0100     		.2byte	0x1
 8706 002b 51       		.byte	0x51
 8707 002c 04000000 		.4byte	.LVL2
 8708 0030 09000000 		.4byte	.LVL4-1
 8709 0034 0400     		.2byte	0x4
 8710 0036 71       		.byte	0x71
 8711 0037 AC7F     		.sleb128 -84
 8712 0039 9F       		.byte	0x9f
 8713 003a 09000000 		.4byte	.LVL4-1
 8714 003e 0C000000 		.4byte	.LFE184
 8715 0042 0400     		.2byte	0x4
 8716 0044 F3       		.byte	0xf3
 8717 0045 01       		.uleb128 0x1
 8718 0046 51       		.byte	0x51
 8719 0047 9F       		.byte	0x9f
 8720 0048 00000000 		.4byte	0
 8721 004c 00000000 		.4byte	0
 8722              	.LLST2:
 8723 0050 02000000 		.4byte	.LVL1
 8724 0054 04000000 		.4byte	.LVL2
 8725 0058 0100     		.2byte	0x1
 8726 005a 51       		.byte	0x51
 8727 005b 04000000 		.4byte	.LVL2
 8728 005f 09000000 		.4byte	.LVL4-1
 8729 0063 0400     		.2byte	0x4
 8730 0065 71       		.byte	0x71
 8731 0066 AC7F     		.sleb128 -84
 8732 0068 9F       		.byte	0x9f
 8733 0069 09000000 		.4byte	.LVL4-1
 8734 006d 0C000000 		.4byte	.LFE184
 8735 0071 0400     		.2byte	0x4
 8736 0073 F3       		.byte	0xf3
 8737 0074 01       		.uleb128 0x1
 8738 0075 51       		.byte	0x51
 8739 0076 9F       		.byte	0x9f
 8740 0077 00000000 		.4byte	0
 8741 007b 00000000 		.4byte	0
 8742              	.LLST3:
 8743 007f 06000000 		.4byte	.LVL3
 8744 0083 09000000 		.4byte	.LVL4-1
 8745 0087 0100     		.2byte	0x1
 8746 0089 51       		.byte	0x51
 8747 008a 09000000 		.4byte	.LVL4-1
 8748 008e 0C000000 		.4byte	.LFE184
 8749 0092 0600     		.2byte	0x6
 8750 0094 F3       		.byte	0xf3
 8751 0095 01       		.uleb128 0x1
 8752 0096 51       		.byte	0x51
 8753 0097 23       		.byte	0x23
ARM GAS  C:\Users\haske\AppData\Local\Temp\ccp0JrPn.s 			page 174


 8754 0098 54       		.uleb128 0x54
 8755 0099 9F       		.byte	0x9f
 8756 009a 00000000 		.4byte	0
 8757 009e 00000000 		.4byte	0
 8758              	.LLST4:
 8759 00a2 00000000 		.4byte	.LVL5
 8760 00a6 08000000 		.4byte	.LVL7
 8761 00aa 0100     		.2byte	0x1
 8762 00ac 50       		.byte	0x50
 8763 00ad 08000000 		.4byte	.LVL7
 8764 00b1 16000000 		.4byte	.LFE188
 8765 00b5 0400     		.2byte	0x4
 8766 00b7 F3       		.byte	0xf3
 8767 00b8 01       		.uleb128 0x1
 8768 00b9 50       		.byte	0x50
 8769 00ba 9F       		.byte	0x9f
 8770 00bb 00000000 		.4byte	0
 8771 00bf 00000000 		.4byte	0
 8772              	.LLST5:
 8773 00c3 00000000 		.4byte	.LVL5
 8774 00c7 06000000 		.4byte	.LVL6
 8775 00cb 0100     		.2byte	0x1
 8776 00cd 51       		.byte	0x51
 8777 00ce 06000000 		.4byte	.LVL6
 8778 00d2 14000000 		.4byte	.LVL10
 8779 00d6 0100     		.2byte	0x1
 8780 00d8 54       		.byte	0x54
 8781 00d9 14000000 		.4byte	.LVL10
 8782 00dd 16000000 		.4byte	.LFE188
 8783 00e1 0400     		.2byte	0x4
 8784 00e3 F3       		.byte	0xf3
 8785 00e4 01       		.uleb128 0x1
 8786 00e5 51       		.byte	0x51
 8787 00e6 9F       		.byte	0x9f
 8788 00e7 00000000 		.4byte	0
 8789 00eb 00000000 		.4byte	0
 8790              	.LLST6:
 8791 00ef 00000000 		.4byte	.LVL11
 8792 00f3 08000000 		.4byte	.LVL13
 8793 00f7 0100     		.2byte	0x1
 8794 00f9 50       		.byte	0x50
 8795 00fa 08000000 		.4byte	.LVL13
 8796 00fe 22000000 		.4byte	.LFE187
 8797 0102 0400     		.2byte	0x4
 8798 0104 F3       		.byte	0xf3
 8799 0105 01       		.uleb128 0x1
 8800 0106 50       		.byte	0x50
 8801 0107 9F       		.byte	0x9f
 8802 0108 00000000 		.4byte	0
 8803 010c 00000000 		.4byte	0
 8804              	.LLST7:
 8805 0110 00000000 		.4byte	.LVL11
 8806 0114 06000000 		.4byte	.LVL12
 8807 0118 0100     		.2byte	0x1
 8808 011a 51       		.byte	0x51
 8809 011b 06000000 		.4byte	.LVL12
 8810 011f 20000000 		.4byte	.LVL17
ARM GAS  C:\Users\haske\AppData\Local\Temp\ccp0JrPn.s 			page 175


 8811 0123 0100     		.2byte	0x1
 8812 0125 54       		.byte	0x54
 8813 0126 20000000 		.4byte	.LVL17
 8814 012a 22000000 		.4byte	.LFE187
 8815 012e 0400     		.2byte	0x4
 8816 0130 F3       		.byte	0xf3
 8817 0131 01       		.uleb128 0x1
 8818 0132 51       		.byte	0x51
 8819 0133 9F       		.byte	0x9f
 8820 0134 00000000 		.4byte	0
 8821 0138 00000000 		.4byte	0
 8822              	.LLST8:
 8823 013c 00000000 		.4byte	.LVL18
 8824 0140 0A000000 		.4byte	.LVL20
 8825 0144 0100     		.2byte	0x1
 8826 0146 50       		.byte	0x50
 8827 0147 0A000000 		.4byte	.LVL20
 8828 014b 44010000 		.4byte	.LFE183
 8829 014f 0400     		.2byte	0x4
 8830 0151 F3       		.byte	0xf3
 8831 0152 01       		.uleb128 0x1
 8832 0153 50       		.byte	0x50
 8833 0154 9F       		.byte	0x9f
 8834 0155 00000000 		.4byte	0
 8835 0159 00000000 		.4byte	0
 8836              	.LLST9:
 8837 015d 00000000 		.4byte	.LVL18
 8838 0161 08000000 		.4byte	.LVL19
 8839 0165 0100     		.2byte	0x1
 8840 0167 51       		.byte	0x51
 8841 0168 08000000 		.4byte	.LVL19
 8842 016c 24010000 		.4byte	.LVL53
 8843 0170 0100     		.2byte	0x1
 8844 0172 54       		.byte	0x54
 8845 0173 24010000 		.4byte	.LVL53
 8846 0177 44010000 		.4byte	.LFE183
 8847 017b 0400     		.2byte	0x4
 8848 017d F3       		.byte	0xf3
 8849 017e 01       		.uleb128 0x1
 8850 017f 51       		.byte	0x51
 8851 0180 9F       		.byte	0x9f
 8852 0181 00000000 		.4byte	0
 8853 0185 00000000 		.4byte	0
 8854              	.LLST10:
 8855 0189 16000000 		.4byte	.LVL22
 8856 018d 24010000 		.4byte	.LVL53
 8857 0191 0100     		.2byte	0x1
 8858 0193 54       		.byte	0x54
 8859 0194 24010000 		.4byte	.LVL53
 8860 0198 44010000 		.4byte	.LFE183
 8861 019c 0400     		.2byte	0x4
 8862 019e F3       		.byte	0xf3
 8863 019f 01       		.uleb128 0x1
 8864 01a0 51       		.byte	0x51
 8865 01a1 9F       		.byte	0x9f
 8866 01a2 00000000 		.4byte	0
 8867 01a6 00000000 		.4byte	0
ARM GAS  C:\Users\haske\AppData\Local\Temp\ccp0JrPn.s 			page 176


 8868              	.LLST11:
 8869 01aa 60000000 		.4byte	.LVL27
 8870 01ae 63000000 		.4byte	.LVL28-1
 8871 01b2 0100     		.2byte	0x1
 8872 01b4 50       		.byte	0x50
 8873 01b5 63000000 		.4byte	.LVL28-1
 8874 01b9 9C000000 		.4byte	.LVL35
 8875 01bd 0100     		.2byte	0x1
 8876 01bf 55       		.byte	0x55
 8877 01c0 00000000 		.4byte	0
 8878 01c4 00000000 		.4byte	0
 8879              	.LLST12:
 8880 01c8 9C000000 		.4byte	.LVL35
 8881 01cc 9F000000 		.4byte	.LVL36-1
 8882 01d0 0100     		.2byte	0x1
 8883 01d2 50       		.byte	0x50
 8884 01d3 9F000000 		.4byte	.LVL36-1
 8885 01d7 DA000000 		.4byte	.LVL43
 8886 01db 0100     		.2byte	0x1
 8887 01dd 55       		.byte	0x55
 8888 01de 00000000 		.4byte	0
 8889 01e2 00000000 		.4byte	0
 8890              	.LLST13:
 8891 01e6 DA000000 		.4byte	.LVL43
 8892 01ea E3000000 		.4byte	.LVL44-1
 8893 01ee 0100     		.2byte	0x1
 8894 01f0 50       		.byte	0x50
 8895 01f1 E3000000 		.4byte	.LVL44-1
 8896 01f5 0C010000 		.4byte	.LVL50
 8897 01f9 0100     		.2byte	0x1
 8898 01fb 55       		.byte	0x55
 8899 01fc 00000000 		.4byte	0
 8900 0200 00000000 		.4byte	0
 8901              	.LLST14:
 8902 0204 FE000000 		.4byte	.LVL47
 8903 0208 03010000 		.4byte	.LVL48-1
 8904 020c 0100     		.2byte	0x1
 8905 020e 50       		.byte	0x50
 8906 020f 00000000 		.4byte	0
 8907 0213 00000000 		.4byte	0
 8908              	.LLST15:
 8909 0217 0C010000 		.4byte	.LVL50
 8910 021b 11010000 		.4byte	.LVL51-1
 8911 021f 0100     		.2byte	0x1
 8912 0221 50       		.byte	0x50
 8913 0222 11010000 		.4byte	.LVL51-1
 8914 0226 24010000 		.4byte	.LVL54
 8915 022a 0100     		.2byte	0x1
 8916 022c 55       		.byte	0x55
 8917 022d 00000000 		.4byte	0
 8918 0231 00000000 		.4byte	0
 8919              	.LLST16:
 8920 0235 00000000 		.4byte	.LVL55
 8921 0239 06000000 		.4byte	.LVL57
 8922 023d 0100     		.2byte	0x1
 8923 023f 50       		.byte	0x50
 8924 0240 06000000 		.4byte	.LVL57
ARM GAS  C:\Users\haske\AppData\Local\Temp\ccp0JrPn.s 			page 177


 8925 0244 14000000 		.4byte	.LFE186
 8926 0248 0400     		.2byte	0x4
 8927 024a F3       		.byte	0xf3
 8928 024b 01       		.uleb128 0x1
 8929 024c 50       		.byte	0x50
 8930 024d 9F       		.byte	0x9f
 8931 024e 00000000 		.4byte	0
 8932 0252 00000000 		.4byte	0
 8933              	.LLST17:
 8934 0256 00000000 		.4byte	.LVL55
 8935 025a 0D000000 		.4byte	.LVL58-1
 8936 025e 0100     		.2byte	0x1
 8937 0260 51       		.byte	0x51
 8938 0261 0D000000 		.4byte	.LVL58-1
 8939 0265 12000000 		.4byte	.LVL59
 8940 0269 0100     		.2byte	0x1
 8941 026b 54       		.byte	0x54
 8942 026c 12000000 		.4byte	.LVL59
 8943 0270 14000000 		.4byte	.LFE186
 8944 0274 0400     		.2byte	0x4
 8945 0276 F3       		.byte	0xf3
 8946 0277 01       		.uleb128 0x1
 8947 0278 51       		.byte	0x51
 8948 0279 9F       		.byte	0x9f
 8949 027a 00000000 		.4byte	0
 8950 027e 00000000 		.4byte	0
 8951              	.LLST18:
 8952 0282 04000000 		.4byte	.LVL56
 8953 0286 0D000000 		.4byte	.LVL58-1
 8954 028a 0100     		.2byte	0x1
 8955 028c 51       		.byte	0x51
 8956 028d 0D000000 		.4byte	.LVL58-1
 8957 0291 12000000 		.4byte	.LVL59
 8958 0295 0100     		.2byte	0x1
 8959 0297 54       		.byte	0x54
 8960 0298 12000000 		.4byte	.LVL59
 8961 029c 14000000 		.4byte	.LFE186
 8962 02a0 0400     		.2byte	0x4
 8963 02a2 F3       		.byte	0xf3
 8964 02a3 01       		.uleb128 0x1
 8965 02a4 51       		.byte	0x51
 8966 02a5 9F       		.byte	0x9f
 8967 02a6 00000000 		.4byte	0
 8968 02aa 00000000 		.4byte	0
 8969              	.LLST19:
 8970 02ae 00000000 		.4byte	.LVL60
 8971 02b2 05000000 		.4byte	.LVL61-1
 8972 02b6 0100     		.2byte	0x1
 8973 02b8 50       		.byte	0x50
 8974 02b9 05000000 		.4byte	.LVL61-1
 8975 02bd 0C000000 		.4byte	.LFE192
 8976 02c1 0400     		.2byte	0x4
 8977 02c3 F3       		.byte	0xf3
 8978 02c4 01       		.uleb128 0x1
 8979 02c5 50       		.byte	0x50
 8980 02c6 9F       		.byte	0x9f
 8981 02c7 00000000 		.4byte	0
ARM GAS  C:\Users\haske\AppData\Local\Temp\ccp0JrPn.s 			page 178


 8982 02cb 00000000 		.4byte	0
 8983              	.LLST20:
 8984 02cf 06000000 		.4byte	.LVL61
 8985 02d3 09000000 		.4byte	.LVL62-1
 8986 02d7 0100     		.2byte	0x1
 8987 02d9 50       		.byte	0x50
 8988 02da 00000000 		.4byte	0
 8989 02de 00000000 		.4byte	0
 8990              	.LLST21:
 8991 02e2 00000000 		.4byte	.LVL63
 8992 02e6 06000000 		.4byte	.LVL64
 8993 02ea 0100     		.2byte	0x1
 8994 02ec 50       		.byte	0x50
 8995 02ed 06000000 		.4byte	.LVL64
 8996 02f1 32000000 		.4byte	.LFE185
 8997 02f5 0400     		.2byte	0x4
 8998 02f7 F3       		.byte	0xf3
 8999 02f8 01       		.uleb128 0x1
 9000 02f9 50       		.byte	0x50
 9001 02fa 9F       		.byte	0x9f
 9002 02fb 00000000 		.4byte	0
 9003 02ff 00000000 		.4byte	0
 9004              	.LLST22:
 9005 0303 00000000 		.4byte	.LVL63
 9006 0307 09000000 		.4byte	.LVL65-1
 9007 030b 0100     		.2byte	0x1
 9008 030d 51       		.byte	0x51
 9009 030e 09000000 		.4byte	.LVL65-1
 9010 0312 30000000 		.4byte	.LVL71
 9011 0316 0100     		.2byte	0x1
 9012 0318 54       		.byte	0x54
 9013 0319 30000000 		.4byte	.LVL71
 9014 031d 32000000 		.4byte	.LFE185
 9015 0321 0400     		.2byte	0x4
 9016 0323 F3       		.byte	0xf3
 9017 0324 01       		.uleb128 0x1
 9018 0325 51       		.byte	0x51
 9019 0326 9F       		.byte	0x9f
 9020 0327 00000000 		.4byte	0
 9021 032b 00000000 		.4byte	0
 9022              	.LLST23:
 9023 032f 0A000000 		.4byte	.LVL65
 9024 0333 0E000000 		.4byte	.LVL66
 9025 0337 0100     		.2byte	0x1
 9026 0339 50       		.byte	0x50
 9027 033a 00000000 		.4byte	0
 9028 033e 00000000 		.4byte	0
 9029              	.LLST24:
 9030 0342 00000000 		.4byte	.LVL72
 9031 0346 06000000 		.4byte	.LVL74
 9032 034a 0100     		.2byte	0x1
 9033 034c 50       		.byte	0x50
 9034 034d 06000000 		.4byte	.LVL74
 9035 0351 82000000 		.4byte	.LVL87
 9036 0355 0100     		.2byte	0x1
 9037 0357 54       		.byte	0x54
 9038 0358 82000000 		.4byte	.LVL87
ARM GAS  C:\Users\haske\AppData\Local\Temp\ccp0JrPn.s 			page 179


 9039 035c 84000000 		.4byte	.LFE190
 9040 0360 0400     		.2byte	0x4
 9041 0362 F3       		.byte	0xf3
 9042 0363 01       		.uleb128 0x1
 9043 0364 50       		.byte	0x50
 9044 0365 9F       		.byte	0x9f
 9045 0366 00000000 		.4byte	0
 9046 036a 00000000 		.4byte	0
 9047              	.LLST25:
 9048 036e 04000000 		.4byte	.LVL73
 9049 0372 06000000 		.4byte	.LVL74
 9050 0376 0100     		.2byte	0x1
 9051 0378 50       		.byte	0x50
 9052 0379 06000000 		.4byte	.LVL74
 9053 037d 82000000 		.4byte	.LVL87
 9054 0381 0100     		.2byte	0x1
 9055 0383 54       		.byte	0x54
 9056 0384 82000000 		.4byte	.LVL87
 9057 0388 84000000 		.4byte	.LFE190
 9058 038c 0400     		.2byte	0x4
 9059 038e F3       		.byte	0xf3
 9060 038f 01       		.uleb128 0x1
 9061 0390 50       		.byte	0x50
 9062 0391 9F       		.byte	0x9f
 9063 0392 00000000 		.4byte	0
 9064 0396 00000000 		.4byte	0
 9065              	.LLST26:
 9066 039a 00000000 		.4byte	.LVL88
 9067 039e 06000000 		.4byte	.LVL90
 9068 03a2 0100     		.2byte	0x1
 9069 03a4 50       		.byte	0x50
 9070 03a5 06000000 		.4byte	.LVL90
 9071 03a9 7C000000 		.4byte	.LVL102
 9072 03ad 0100     		.2byte	0x1
 9073 03af 54       		.byte	0x54
 9074 03b0 7C000000 		.4byte	.LVL102
 9075 03b4 7E000000 		.4byte	.LFE189
 9076 03b8 0400     		.2byte	0x4
 9077 03ba F3       		.byte	0xf3
 9078 03bb 01       		.uleb128 0x1
 9079 03bc 50       		.byte	0x50
 9080 03bd 9F       		.byte	0x9f
 9081 03be 00000000 		.4byte	0
 9082 03c2 00000000 		.4byte	0
 9083              	.LLST27:
 9084 03c6 04000000 		.4byte	.LVL89
 9085 03ca 06000000 		.4byte	.LVL90
 9086 03ce 0100     		.2byte	0x1
 9087 03d0 50       		.byte	0x50
 9088 03d1 06000000 		.4byte	.LVL90
 9089 03d5 7C000000 		.4byte	.LVL102
 9090 03d9 0100     		.2byte	0x1
 9091 03db 54       		.byte	0x54
 9092 03dc 7C000000 		.4byte	.LVL102
 9093 03e0 7E000000 		.4byte	.LFE189
 9094 03e4 0400     		.2byte	0x4
 9095 03e6 F3       		.byte	0xf3
ARM GAS  C:\Users\haske\AppData\Local\Temp\ccp0JrPn.s 			page 180


 9096 03e7 01       		.uleb128 0x1
 9097 03e8 50       		.byte	0x50
 9098 03e9 9F       		.byte	0x9f
 9099 03ea 00000000 		.4byte	0
 9100 03ee 00000000 		.4byte	0
 9101              	.LLST28:
 9102 03f2 00000000 		.4byte	.LVL103
 9103 03f6 06000000 		.4byte	.LVL104
 9104 03fa 0100     		.2byte	0x1
 9105 03fc 50       		.byte	0x50
 9106 03fd 06000000 		.4byte	.LVL104
 9107 0401 0B000000 		.4byte	.LVL105-1
 9108 0405 0100     		.2byte	0x1
 9109 0407 51       		.byte	0x51
 9110 0408 0B000000 		.4byte	.LVL105-1
 9111 040c 1C000000 		.4byte	.LFE164
 9112 0410 0400     		.2byte	0x4
 9113 0412 F3       		.byte	0xf3
 9114 0413 01       		.uleb128 0x1
 9115 0414 50       		.byte	0x50
 9116 0415 9F       		.byte	0x9f
 9117 0416 00000000 		.4byte	0
 9118 041a 00000000 		.4byte	0
 9119              	.LLST29:
 9120 041e 0E000000 		.4byte	.LVL106
 9121 0422 11000000 		.4byte	.LVL107-1
 9122 0426 0100     		.2byte	0x1
 9123 0428 50       		.byte	0x50
 9124 0429 11000000 		.4byte	.LVL107-1
 9125 042d 14000000 		.4byte	.LVL108
 9126 0431 0100     		.2byte	0x1
 9127 0433 54       		.byte	0x54
 9128 0434 14000000 		.4byte	.LVL108
 9129 0438 1C000000 		.4byte	.LFE164
 9130 043c 0100     		.2byte	0x1
 9131 043e 50       		.byte	0x50
 9132 043f 00000000 		.4byte	0
 9133 0443 00000000 		.4byte	0
 9134              	.LLST30:
 9135 0447 00000000 		.4byte	.LVL109
 9136 044b 08000000 		.4byte	.LVL111
 9137 044f 0100     		.2byte	0x1
 9138 0451 50       		.byte	0x50
 9139 0452 08000000 		.4byte	.LVL111
 9140 0456 0D000000 		.4byte	.LVL112-1
 9141 045a 0100     		.2byte	0x1
 9142 045c 51       		.byte	0x51
 9143 045d 0D000000 		.4byte	.LVL112-1
 9144 0461 4C000000 		.4byte	.LFE165
 9145 0465 0400     		.2byte	0x4
 9146 0467 F3       		.byte	0xf3
 9147 0468 01       		.uleb128 0x1
 9148 0469 50       		.byte	0x50
 9149 046a 9F       		.byte	0x9f
 9150 046b 00000000 		.4byte	0
 9151 046f 00000000 		.4byte	0
 9152              	.LLST31:
ARM GAS  C:\Users\haske\AppData\Local\Temp\ccp0JrPn.s 			page 181


 9153 0473 00000000 		.4byte	.LVL109
 9154 0477 06000000 		.4byte	.LVL110
 9155 047b 0100     		.2byte	0x1
 9156 047d 51       		.byte	0x51
 9157 047e 06000000 		.4byte	.LVL110
 9158 0482 44000000 		.4byte	.LVL119
 9159 0486 0100     		.2byte	0x1
 9160 0488 55       		.byte	0x55
 9161 0489 44000000 		.4byte	.LVL119
 9162 048d 4C000000 		.4byte	.LFE165
 9163 0491 0400     		.2byte	0x4
 9164 0493 F3       		.byte	0xf3
 9165 0494 01       		.uleb128 0x1
 9166 0495 51       		.byte	0x51
 9167 0496 9F       		.byte	0x9f
 9168 0497 00000000 		.4byte	0
 9169 049b 00000000 		.4byte	0
 9170              	.LLST32:
 9171 049f 10000000 		.4byte	.LVL113
 9172 04a3 13000000 		.4byte	.LVL114-1
 9173 04a7 0100     		.2byte	0x1
 9174 04a9 50       		.byte	0x50
 9175 04aa 13000000 		.4byte	.LVL114-1
 9176 04ae 44000000 		.4byte	.LVL118
 9177 04b2 0100     		.2byte	0x1
 9178 04b4 54       		.byte	0x54
 9179 04b5 00000000 		.4byte	0
 9180 04b9 00000000 		.4byte	0
 9181              	.LLST33:
 9182 04bd 14000000 		.4byte	.LVL114
 9183 04c1 44000000 		.4byte	.LVL118
 9184 04c5 0100     		.2byte	0x1
 9185 04c7 54       		.byte	0x54
 9186 04c8 00000000 		.4byte	0
 9187 04cc 00000000 		.4byte	0
 9188              	.LLST34:
 9189 04d0 00000000 		.4byte	.LVL120
 9190 04d4 06000000 		.4byte	.LVL121
 9191 04d8 0100     		.2byte	0x1
 9192 04da 50       		.byte	0x50
 9193 04db 06000000 		.4byte	.LVL121
 9194 04df 0B000000 		.4byte	.LVL122-1
 9195 04e3 0100     		.2byte	0x1
 9196 04e5 51       		.byte	0x51
 9197 04e6 0B000000 		.4byte	.LVL122-1
 9198 04ea 1C000000 		.4byte	.LFE166
 9199 04ee 0400     		.2byte	0x4
 9200 04f0 F3       		.byte	0xf3
 9201 04f1 01       		.uleb128 0x1
 9202 04f2 50       		.byte	0x50
 9203 04f3 9F       		.byte	0x9f
 9204 04f4 00000000 		.4byte	0
 9205 04f8 00000000 		.4byte	0
 9206              	.LLST35:
 9207 04fc 0E000000 		.4byte	.LVL123
 9208 0500 11000000 		.4byte	.LVL124-1
 9209 0504 0100     		.2byte	0x1
ARM GAS  C:\Users\haske\AppData\Local\Temp\ccp0JrPn.s 			page 182


 9210 0506 50       		.byte	0x50
 9211 0507 11000000 		.4byte	.LVL124-1
 9212 050b 14000000 		.4byte	.LVL125
 9213 050f 0100     		.2byte	0x1
 9214 0511 54       		.byte	0x54
 9215 0512 14000000 		.4byte	.LVL125
 9216 0516 1C000000 		.4byte	.LFE166
 9217 051a 0100     		.2byte	0x1
 9218 051c 50       		.byte	0x50
 9219 051d 00000000 		.4byte	0
 9220 0521 00000000 		.4byte	0
 9221              	.LLST36:
 9222 0525 00000000 		.4byte	.LVL126
 9223 0529 06000000 		.4byte	.LVL127
 9224 052d 0100     		.2byte	0x1
 9225 052f 50       		.byte	0x50
 9226 0530 06000000 		.4byte	.LVL127
 9227 0534 0B000000 		.4byte	.LVL128-1
 9228 0538 0100     		.2byte	0x1
 9229 053a 51       		.byte	0x51
 9230 053b 0B000000 		.4byte	.LVL128-1
 9231 053f 1C000000 		.4byte	.LFE167
 9232 0543 0400     		.2byte	0x4
 9233 0545 F3       		.byte	0xf3
 9234 0546 01       		.uleb128 0x1
 9235 0547 50       		.byte	0x50
 9236 0548 9F       		.byte	0x9f
 9237 0549 00000000 		.4byte	0
 9238 054d 00000000 		.4byte	0
 9239              	.LLST37:
 9240 0551 0E000000 		.4byte	.LVL129
 9241 0555 11000000 		.4byte	.LVL130-1
 9242 0559 0100     		.2byte	0x1
 9243 055b 50       		.byte	0x50
 9244 055c 11000000 		.4byte	.LVL130-1
 9245 0560 14000000 		.4byte	.LVL131
 9246 0564 0100     		.2byte	0x1
 9247 0566 54       		.byte	0x54
 9248 0567 14000000 		.4byte	.LVL131
 9249 056b 1C000000 		.4byte	.LFE167
 9250 056f 0100     		.2byte	0x1
 9251 0571 50       		.byte	0x50
 9252 0572 00000000 		.4byte	0
 9253 0576 00000000 		.4byte	0
 9254              	.LLST38:
 9255 057a 00000000 		.4byte	.LVL132
 9256 057e 06000000 		.4byte	.LVL133
 9257 0582 0100     		.2byte	0x1
 9258 0584 50       		.byte	0x50
 9259 0585 06000000 		.4byte	.LVL133
 9260 0589 0B000000 		.4byte	.LVL134-1
 9261 058d 0100     		.2byte	0x1
 9262 058f 51       		.byte	0x51
 9263 0590 0B000000 		.4byte	.LVL134-1
 9264 0594 1C000000 		.4byte	.LFE168
 9265 0598 0400     		.2byte	0x4
 9266 059a F3       		.byte	0xf3
ARM GAS  C:\Users\haske\AppData\Local\Temp\ccp0JrPn.s 			page 183


 9267 059b 01       		.uleb128 0x1
 9268 059c 50       		.byte	0x50
 9269 059d 9F       		.byte	0x9f
 9270 059e 00000000 		.4byte	0
 9271 05a2 00000000 		.4byte	0
 9272              	.LLST39:
 9273 05a6 0E000000 		.4byte	.LVL135
 9274 05aa 11000000 		.4byte	.LVL136-1
 9275 05ae 0100     		.2byte	0x1
 9276 05b0 50       		.byte	0x50
 9277 05b1 11000000 		.4byte	.LVL136-1
 9278 05b5 14000000 		.4byte	.LVL137
 9279 05b9 0100     		.2byte	0x1
 9280 05bb 54       		.byte	0x54
 9281 05bc 14000000 		.4byte	.LVL137
 9282 05c0 1C000000 		.4byte	.LFE168
 9283 05c4 0100     		.2byte	0x1
 9284 05c6 50       		.byte	0x50
 9285 05c7 00000000 		.4byte	0
 9286 05cb 00000000 		.4byte	0
 9287              	.LLST40:
 9288 05cf 00000000 		.4byte	.LVL138
 9289 05d3 25000000 		.4byte	.LVL141-1
 9290 05d7 0100     		.2byte	0x1
 9291 05d9 50       		.byte	0x50
 9292 05da 25000000 		.4byte	.LVL141-1
 9293 05de 32000000 		.4byte	.LVL143
 9294 05e2 0100     		.2byte	0x1
 9295 05e4 54       		.byte	0x54
 9296 05e5 32000000 		.4byte	.LVL143
 9297 05e9 34000000 		.4byte	.LFE172
 9298 05ed 0400     		.2byte	0x4
 9299 05ef F3       		.byte	0xf3
 9300 05f0 01       		.uleb128 0x1
 9301 05f1 50       		.byte	0x50
 9302 05f2 9F       		.byte	0x9f
 9303 05f3 00000000 		.4byte	0
 9304 05f7 00000000 		.4byte	0
 9305              	.LLST41:
 9306 05fb 00000000 		.4byte	.LVL138
 9307 05ff 16000000 		.4byte	.LVL140
 9308 0603 0100     		.2byte	0x1
 9309 0605 51       		.byte	0x51
 9310 0606 16000000 		.4byte	.LVL140
 9311 060a 34000000 		.4byte	.LFE172
 9312 060e 0400     		.2byte	0x4
 9313 0610 F3       		.byte	0xf3
 9314 0611 01       		.uleb128 0x1
 9315 0612 51       		.byte	0x51
 9316 0613 9F       		.byte	0x9f
 9317 0614 00000000 		.4byte	0
 9318 0618 00000000 		.4byte	0
 9319              	.LLST42:
 9320 061c 04000000 		.4byte	.LVL139
 9321 0620 25000000 		.4byte	.LVL141-1
 9322 0624 0100     		.2byte	0x1
 9323 0626 50       		.byte	0x50
ARM GAS  C:\Users\haske\AppData\Local\Temp\ccp0JrPn.s 			page 184


 9324 0627 25000000 		.4byte	.LVL141-1
 9325 062b 32000000 		.4byte	.LVL143
 9326 062f 0100     		.2byte	0x1
 9327 0631 54       		.byte	0x54
 9328 0632 32000000 		.4byte	.LVL143
 9329 0636 34000000 		.4byte	.LFE172
 9330 063a 0400     		.2byte	0x4
 9331 063c F3       		.byte	0xf3
 9332 063d 01       		.uleb128 0x1
 9333 063e 50       		.byte	0x50
 9334 063f 9F       		.byte	0x9f
 9335 0640 00000000 		.4byte	0
 9336 0644 00000000 		.4byte	0
 9337              	.LLST43:
 9338 0648 00000000 		.4byte	.LVL144
 9339 064c 0C000000 		.4byte	.LVL146
 9340 0650 0100     		.2byte	0x1
 9341 0652 50       		.byte	0x50
 9342 0653 0C000000 		.4byte	.LVL146
 9343 0657 64000000 		.4byte	.LVL161
 9344 065b 0100     		.2byte	0x1
 9345 065d 57       		.byte	0x57
 9346 065e 64000000 		.4byte	.LVL161
 9347 0662 70000000 		.4byte	.LFE174
 9348 0666 0400     		.2byte	0x4
 9349 0668 F3       		.byte	0xf3
 9350 0669 01       		.uleb128 0x1
 9351 066a 50       		.byte	0x50
 9352 066b 9F       		.byte	0x9f
 9353 066c 00000000 		.4byte	0
 9354 0670 00000000 		.4byte	0
 9355              	.LLST44:
 9356 0674 00000000 		.4byte	.LVL144
 9357 0678 0A000000 		.4byte	.LVL145
 9358 067c 0100     		.2byte	0x1
 9359 067e 51       		.byte	0x51
 9360 067f 0A000000 		.4byte	.LVL145
 9361 0683 64000000 		.4byte	.LVL158
 9362 0687 0100     		.2byte	0x1
 9363 0689 54       		.byte	0x54
 9364 068a 64000000 		.4byte	.LVL158
 9365 068e 70000000 		.4byte	.LFE174
 9366 0692 0400     		.2byte	0x4
 9367 0694 F3       		.byte	0xf3
 9368 0695 01       		.uleb128 0x1
 9369 0696 51       		.byte	0x51
 9370 0697 9F       		.byte	0x9f
 9371 0698 00000000 		.4byte	0
 9372 069c 00000000 		.4byte	0
 9373              	.LLST45:
 9374 06a0 00000000 		.4byte	.LVL144
 9375 06a4 0F000000 		.4byte	.LVL147-1
 9376 06a8 0100     		.2byte	0x1
 9377 06aa 52       		.byte	0x52
 9378 06ab 0F000000 		.4byte	.LVL147-1
 9379 06af 64000000 		.4byte	.LVL160
 9380 06b3 0100     		.2byte	0x1
ARM GAS  C:\Users\haske\AppData\Local\Temp\ccp0JrPn.s 			page 185


 9381 06b5 56       		.byte	0x56
 9382 06b6 64000000 		.4byte	.LVL160
 9383 06ba 70000000 		.4byte	.LFE174
 9384 06be 0400     		.2byte	0x4
 9385 06c0 F3       		.byte	0xf3
 9386 06c1 01       		.uleb128 0x1
 9387 06c2 52       		.byte	0x52
 9388 06c3 9F       		.byte	0x9f
 9389 06c4 00000000 		.4byte	0
 9390 06c8 00000000 		.4byte	0
 9391              	.LLST46:
 9392 06cc 48000000 		.4byte	.LVL154
 9393 06d0 54000000 		.4byte	.LVL155
 9394 06d4 0100     		.2byte	0x1
 9395 06d6 50       		.byte	0x50
 9396 06d7 54000000 		.4byte	.LVL155
 9397 06db 57000000 		.4byte	.LVL156-1
 9398 06df 0100     		.2byte	0x1
 9399 06e1 53       		.byte	0x53
 9400 06e2 57000000 		.4byte	.LVL156-1
 9401 06e6 64000000 		.4byte	.LVL159
 9402 06ea 0100     		.2byte	0x1
 9403 06ec 55       		.byte	0x55
 9404 06ed 00000000 		.4byte	0
 9405 06f1 00000000 		.4byte	0
 9406              	.LLST47:
 9407 06f5 00000000 		.4byte	.LVL162
 9408 06f9 02000000 		.4byte	.LVL163
 9409 06fd 0100     		.2byte	0x1
 9410 06ff 50       		.byte	0x50
 9411 0700 02000000 		.4byte	.LVL163
 9412 0704 04000000 		.4byte	.LFE175
 9413 0708 0400     		.2byte	0x4
 9414 070a F3       		.byte	0xf3
 9415 070b 01       		.uleb128 0x1
 9416 070c 50       		.byte	0x50
 9417 070d 9F       		.byte	0x9f
 9418 070e 00000000 		.4byte	0
 9419 0712 00000000 		.4byte	0
 9420              	.LLST48:
 9421 0716 00000000 		.4byte	.LVL162
 9422 071a 02000000 		.4byte	.LVL163
 9423 071e 0100     		.2byte	0x1
 9424 0720 50       		.byte	0x50
 9425 0721 02000000 		.4byte	.LVL163
 9426 0725 04000000 		.4byte	.LFE175
 9427 0729 0400     		.2byte	0x4
 9428 072b F3       		.byte	0xf3
 9429 072c 01       		.uleb128 0x1
 9430 072d 50       		.byte	0x50
 9431 072e 9F       		.byte	0x9f
 9432 072f 00000000 		.4byte	0
 9433 0733 00000000 		.4byte	0
 9434              	.LLST49:
 9435 0737 00000000 		.4byte	.LVL164
 9436 073b 02000000 		.4byte	.LVL165
 9437 073f 0100     		.2byte	0x1
ARM GAS  C:\Users\haske\AppData\Local\Temp\ccp0JrPn.s 			page 186


 9438 0741 50       		.byte	0x50
 9439 0742 02000000 		.4byte	.LVL165
 9440 0746 04000000 		.4byte	.LFE176
 9441 074a 0400     		.2byte	0x4
 9442 074c F3       		.byte	0xf3
 9443 074d 01       		.uleb128 0x1
 9444 074e 50       		.byte	0x50
 9445 074f 9F       		.byte	0x9f
 9446 0750 00000000 		.4byte	0
 9447 0754 00000000 		.4byte	0
 9448              	.LLST50:
 9449 0758 00000000 		.4byte	.LVL164
 9450 075c 02000000 		.4byte	.LVL165
 9451 0760 0100     		.2byte	0x1
 9452 0762 50       		.byte	0x50
 9453 0763 02000000 		.4byte	.LVL165
 9454 0767 04000000 		.4byte	.LFE176
 9455 076b 0400     		.2byte	0x4
 9456 076d F3       		.byte	0xf3
 9457 076e 01       		.uleb128 0x1
 9458 076f 50       		.byte	0x50
 9459 0770 9F       		.byte	0x9f
 9460 0771 00000000 		.4byte	0
 9461 0775 00000000 		.4byte	0
 9462              	.LLST51:
 9463 0779 00000000 		.4byte	.LVL166
 9464 077d 05000000 		.4byte	.LVL167-1
 9465 0781 0100     		.2byte	0x1
 9466 0783 50       		.byte	0x50
 9467 0784 05000000 		.4byte	.LVL167-1
 9468 0788 64000000 		.4byte	.LFE194
 9469 078c 0400     		.2byte	0x4
 9470 078e F3       		.byte	0xf3
 9471 078f 01       		.uleb128 0x1
 9472 0790 50       		.byte	0x50
 9473 0791 9F       		.byte	0x9f
 9474 0792 00000000 		.4byte	0
 9475 0796 00000000 		.4byte	0
 9476              	.LLST52:
 9477 079a 08000000 		.4byte	.LVL168
 9478 079e 0B000000 		.4byte	.LVL169-1
 9479 07a2 0100     		.2byte	0x1
 9480 07a4 50       		.byte	0x50
 9481 07a5 0B000000 		.4byte	.LVL169-1
 9482 07a9 62000000 		.4byte	.LVL183
 9483 07ad 0100     		.2byte	0x1
 9484 07af 54       		.byte	0x54
 9485 07b0 00000000 		.4byte	0
 9486 07b4 00000000 		.4byte	0
 9487              	.LLST54:
 9488 07b8 0C000000 		.4byte	.LVL169
 9489 07bc 1E000000 		.4byte	.LVL170
 9490 07c0 0100     		.2byte	0x1
 9491 07c2 50       		.byte	0x50
 9492 07c3 2C000000 		.4byte	.LVL173
 9493 07c7 30000000 		.4byte	.LVL174
 9494 07cb 0100     		.2byte	0x1
ARM GAS  C:\Users\haske\AppData\Local\Temp\ccp0JrPn.s 			page 187


 9495 07cd 50       		.byte	0x50
 9496 07ce 00000000 		.4byte	0
 9497 07d2 00000000 		.4byte	0
 9498              	.LLST55:
 9499 07d6 3A000000 		.4byte	.LVL176
 9500 07da 4C000000 		.4byte	.LVL177
 9501 07de 0100     		.2byte	0x1
 9502 07e0 50       		.byte	0x50
 9503 07e1 5A000000 		.4byte	.LVL180
 9504 07e5 5E000000 		.4byte	.LVL181
 9505 07e9 0100     		.2byte	0x1
 9506 07eb 50       		.byte	0x50
 9507 07ec 00000000 		.4byte	0
 9508 07f0 00000000 		.4byte	0
 9509              	.LLST56:
 9510 07f4 00000000 		.4byte	.LVL184
 9511 07f8 02000000 		.4byte	.LVL185
 9512 07fc 0100     		.2byte	0x1
 9513 07fe 50       		.byte	0x50
 9514 07ff 02000000 		.4byte	.LVL185
 9515 0803 04000000 		.4byte	.LFE177
 9516 0807 0400     		.2byte	0x4
 9517 0809 F3       		.byte	0xf3
 9518 080a 01       		.uleb128 0x1
 9519 080b 50       		.byte	0x50
 9520 080c 9F       		.byte	0x9f
 9521 080d 00000000 		.4byte	0
 9522 0811 00000000 		.4byte	0
 9523              	.LLST57:
 9524 0815 00000000 		.4byte	.LVL184
 9525 0819 02000000 		.4byte	.LVL185
 9526 081d 0100     		.2byte	0x1
 9527 081f 50       		.byte	0x50
 9528 0820 02000000 		.4byte	.LVL185
 9529 0824 04000000 		.4byte	.LFE177
 9530 0828 0400     		.2byte	0x4
 9531 082a F3       		.byte	0xf3
 9532 082b 01       		.uleb128 0x1
 9533 082c 50       		.byte	0x50
 9534 082d 9F       		.byte	0x9f
 9535 082e 00000000 		.4byte	0
 9536 0832 00000000 		.4byte	0
 9537              	.LLST58:
 9538 0836 00000000 		.4byte	.LVL186
 9539 083a 02000000 		.4byte	.LVL187
 9540 083e 0100     		.2byte	0x1
 9541 0840 50       		.byte	0x50
 9542 0841 02000000 		.4byte	.LVL187
 9543 0845 04000000 		.4byte	.LFE178
 9544 0849 0400     		.2byte	0x4
 9545 084b F3       		.byte	0xf3
 9546 084c 01       		.uleb128 0x1
 9547 084d 50       		.byte	0x50
 9548 084e 9F       		.byte	0x9f
 9549 084f 00000000 		.4byte	0
 9550 0853 00000000 		.4byte	0
 9551              	.LLST59:
ARM GAS  C:\Users\haske\AppData\Local\Temp\ccp0JrPn.s 			page 188


 9552 0857 00000000 		.4byte	.LVL186
 9553 085b 02000000 		.4byte	.LVL187
 9554 085f 0100     		.2byte	0x1
 9555 0861 50       		.byte	0x50
 9556 0862 02000000 		.4byte	.LVL187
 9557 0866 04000000 		.4byte	.LFE178
 9558 086a 0400     		.2byte	0x4
 9559 086c F3       		.byte	0xf3
 9560 086d 01       		.uleb128 0x1
 9561 086e 50       		.byte	0x50
 9562 086f 9F       		.byte	0x9f
 9563 0870 00000000 		.4byte	0
 9564 0874 00000000 		.4byte	0
 9565              	.LLST60:
 9566 0878 00000000 		.4byte	.LVL188
 9567 087c 02000000 		.4byte	.LVL189
 9568 0880 0100     		.2byte	0x1
 9569 0882 50       		.byte	0x50
 9570 0883 02000000 		.4byte	.LVL189
 9571 0887 04000000 		.4byte	.LFE179
 9572 088b 0400     		.2byte	0x4
 9573 088d F3       		.byte	0xf3
 9574 088e 01       		.uleb128 0x1
 9575 088f 50       		.byte	0x50
 9576 0890 9F       		.byte	0x9f
 9577 0891 00000000 		.4byte	0
 9578 0895 00000000 		.4byte	0
 9579              	.LLST61:
 9580 0899 00000000 		.4byte	.LVL188
 9581 089d 02000000 		.4byte	.LVL189
 9582 08a1 0100     		.2byte	0x1
 9583 08a3 50       		.byte	0x50
 9584 08a4 02000000 		.4byte	.LVL189
 9585 08a8 04000000 		.4byte	.LFE179
 9586 08ac 0400     		.2byte	0x4
 9587 08ae F3       		.byte	0xf3
 9588 08af 01       		.uleb128 0x1
 9589 08b0 50       		.byte	0x50
 9590 08b1 9F       		.byte	0x9f
 9591 08b2 00000000 		.4byte	0
 9592 08b6 00000000 		.4byte	0
 9593              	.LLST62:
 9594 08ba 00000000 		.4byte	.LVL190
 9595 08be 02000000 		.4byte	.LVL191
 9596 08c2 0100     		.2byte	0x1
 9597 08c4 50       		.byte	0x50
 9598 08c5 02000000 		.4byte	.LVL191
 9599 08c9 04000000 		.4byte	.LFE180
 9600 08cd 0400     		.2byte	0x4
 9601 08cf F3       		.byte	0xf3
 9602 08d0 01       		.uleb128 0x1
 9603 08d1 50       		.byte	0x50
 9604 08d2 9F       		.byte	0x9f
 9605 08d3 00000000 		.4byte	0
 9606 08d7 00000000 		.4byte	0
 9607              	.LLST63:
 9608 08db 00000000 		.4byte	.LVL190
ARM GAS  C:\Users\haske\AppData\Local\Temp\ccp0JrPn.s 			page 189


 9609 08df 02000000 		.4byte	.LVL191
 9610 08e3 0100     		.2byte	0x1
 9611 08e5 50       		.byte	0x50
 9612 08e6 02000000 		.4byte	.LVL191
 9613 08ea 04000000 		.4byte	.LFE180
 9614 08ee 0400     		.2byte	0x4
 9615 08f0 F3       		.byte	0xf3
 9616 08f1 01       		.uleb128 0x1
 9617 08f2 50       		.byte	0x50
 9618 08f3 9F       		.byte	0x9f
 9619 08f4 00000000 		.4byte	0
 9620 08f8 00000000 		.4byte	0
 9621              	.LLST64:
 9622 08fc 00000000 		.4byte	.LVL192
 9623 0900 16000000 		.4byte	.LVL193
 9624 0904 0100     		.2byte	0x1
 9625 0906 50       		.byte	0x50
 9626 0907 16000000 		.4byte	.LVL193
 9627 090b 18000000 		.4byte	.LVL194
 9628 090f 0400     		.2byte	0x4
 9629 0911 F3       		.byte	0xf3
 9630 0912 01       		.uleb128 0x1
 9631 0913 50       		.byte	0x50
 9632 0914 9F       		.byte	0x9f
 9633 0915 18000000 		.4byte	.LVL194
 9634 0919 1A000000 		.4byte	.LVL195
 9635 091d 0100     		.2byte	0x1
 9636 091f 50       		.byte	0x50
 9637 0920 1A000000 		.4byte	.LVL195
 9638 0924 1C000000 		.4byte	.LVL196
 9639 0928 0400     		.2byte	0x4
 9640 092a F3       		.byte	0xf3
 9641 092b 01       		.uleb128 0x1
 9642 092c 50       		.byte	0x50
 9643 092d 9F       		.byte	0x9f
 9644 092e 1C000000 		.4byte	.LVL196
 9645 0932 1E000000 		.4byte	.LVL197
 9646 0936 0100     		.2byte	0x1
 9647 0938 50       		.byte	0x50
 9648 0939 1E000000 		.4byte	.LVL197
 9649 093d 20000000 		.4byte	.LVL198
 9650 0941 0400     		.2byte	0x4
 9651 0943 F3       		.byte	0xf3
 9652 0944 01       		.uleb128 0x1
 9653 0945 50       		.byte	0x50
 9654 0946 9F       		.byte	0x9f
 9655 0947 20000000 		.4byte	.LVL198
 9656 094b 22000000 		.4byte	.LVL199
 9657 094f 0100     		.2byte	0x1
 9658 0951 50       		.byte	0x50
 9659 0952 22000000 		.4byte	.LVL199
 9660 0956 24000000 		.4byte	.LFE181
 9661 095a 0400     		.2byte	0x4
 9662 095c F3       		.byte	0xf3
 9663 095d 01       		.uleb128 0x1
 9664 095e 50       		.byte	0x50
 9665 095f 9F       		.byte	0x9f
ARM GAS  C:\Users\haske\AppData\Local\Temp\ccp0JrPn.s 			page 190


 9666 0960 00000000 		.4byte	0
 9667 0964 00000000 		.4byte	0
 9668              	.LLST65:
 9669 0968 00000000 		.4byte	.LVL200
 9670 096c 06000000 		.4byte	.LVL202
 9671 0970 0100     		.2byte	0x1
 9672 0972 50       		.byte	0x50
 9673 0973 06000000 		.4byte	.LVL202
 9674 0977 10000000 		.4byte	.LVL204
 9675 097b 0100     		.2byte	0x1
 9676 097d 54       		.byte	0x54
 9677 097e 10000000 		.4byte	.LVL204
 9678 0982 12000000 		.4byte	.LFE182
 9679 0986 0400     		.2byte	0x4
 9680 0988 F3       		.byte	0xf3
 9681 0989 01       		.uleb128 0x1
 9682 098a 50       		.byte	0x50
 9683 098b 9F       		.byte	0x9f
 9684 098c 00000000 		.4byte	0
 9685 0990 00000000 		.4byte	0
 9686              	.LLST66:
 9687 0994 04000000 		.4byte	.LVL201
 9688 0998 06000000 		.4byte	.LVL202
 9689 099c 0100     		.2byte	0x1
 9690 099e 50       		.byte	0x50
 9691 099f 06000000 		.4byte	.LVL202
 9692 09a3 10000000 		.4byte	.LVL204
 9693 09a7 0100     		.2byte	0x1
 9694 09a9 54       		.byte	0x54
 9695 09aa 10000000 		.4byte	.LVL204
 9696 09ae 12000000 		.4byte	.LFE182
 9697 09b2 0400     		.2byte	0x4
 9698 09b4 F3       		.byte	0xf3
 9699 09b5 01       		.uleb128 0x1
 9700 09b6 50       		.byte	0x50
 9701 09b7 9F       		.byte	0x9f
 9702 09b8 00000000 		.4byte	0
 9703 09bc 00000000 		.4byte	0
 9704              	.LLST67:
 9705 09c0 06000000 		.4byte	.LVL202
 9706 09c4 09000000 		.4byte	.LVL203-1
 9707 09c8 0100     		.2byte	0x1
 9708 09ca 50       		.byte	0x50
 9709 09cb 09000000 		.4byte	.LVL203-1
 9710 09cf 10000000 		.4byte	.LVL204
 9711 09d3 0400     		.2byte	0x4
 9712 09d5 74       		.byte	0x74
 9713 09d6 D400     		.sleb128 84
 9714 09d8 9F       		.byte	0x9f
 9715 09d9 10000000 		.4byte	.LVL204
 9716 09dd 12000000 		.4byte	.LFE182
 9717 09e1 0600     		.2byte	0x6
 9718 09e3 F3       		.byte	0xf3
 9719 09e4 01       		.uleb128 0x1
 9720 09e5 50       		.byte	0x50
 9721 09e6 23       		.byte	0x23
 9722 09e7 54       		.uleb128 0x54
ARM GAS  C:\Users\haske\AppData\Local\Temp\ccp0JrPn.s 			page 191


 9723 09e8 9F       		.byte	0x9f
 9724 09e9 00000000 		.4byte	0
 9725 09ed 00000000 		.4byte	0
 9726              	.LLST68:
 9727 09f1 00000000 		.4byte	.LVL205
 9728 09f5 08000000 		.4byte	.LVL207
 9729 09f9 0100     		.2byte	0x1
 9730 09fb 50       		.byte	0x50
 9731 09fc 08000000 		.4byte	.LVL207
 9732 0a00 FC000000 		.4byte	.LVL232
 9733 0a04 0100     		.2byte	0x1
 9734 0a06 54       		.byte	0x54
 9735 0a07 FC000000 		.4byte	.LVL232
 9736 0a0b FE000000 		.4byte	.LFE170
 9737 0a0f 0400     		.2byte	0x4
 9738 0a11 F3       		.byte	0xf3
 9739 0a12 01       		.uleb128 0x1
 9740 0a13 50       		.byte	0x50
 9741 0a14 9F       		.byte	0x9f
 9742 0a15 00000000 		.4byte	0
 9743 0a19 00000000 		.4byte	0
 9744              	.LLST69:
 9745 0a1d 00000000 		.4byte	.LVL205
 9746 0a21 0E000000 		.4byte	.LVL208
 9747 0a25 0100     		.2byte	0x1
 9748 0a27 51       		.byte	0x51
 9749 0a28 0E000000 		.4byte	.LVL208
 9750 0a2c FC000000 		.4byte	.LVL233
 9751 0a30 0100     		.2byte	0x1
 9752 0a32 55       		.byte	0x55
 9753 0a33 FC000000 		.4byte	.LVL233
 9754 0a37 FE000000 		.4byte	.LFE170
 9755 0a3b 0400     		.2byte	0x4
 9756 0a3d F3       		.byte	0xf3
 9757 0a3e 01       		.uleb128 0x1
 9758 0a3f 51       		.byte	0x51
 9759 0a40 9F       		.byte	0x9f
 9760 0a41 00000000 		.4byte	0
 9761 0a45 00000000 		.4byte	0
 9762              	.LLST70:
 9763 0a49 06000000 		.4byte	.LVL206
 9764 0a4d 08000000 		.4byte	.LVL207
 9765 0a51 0100     		.2byte	0x1
 9766 0a53 50       		.byte	0x50
 9767 0a54 08000000 		.4byte	.LVL207
 9768 0a58 FC000000 		.4byte	.LVL232
 9769 0a5c 0100     		.2byte	0x1
 9770 0a5e 54       		.byte	0x54
 9771 0a5f FC000000 		.4byte	.LVL232
 9772 0a63 FE000000 		.4byte	.LFE170
 9773 0a67 0400     		.2byte	0x4
 9774 0a69 F3       		.byte	0xf3
 9775 0a6a 01       		.uleb128 0x1
 9776 0a6b 50       		.byte	0x50
 9777 0a6c 9F       		.byte	0x9f
 9778 0a6d 00000000 		.4byte	0
 9779 0a71 00000000 		.4byte	0
ARM GAS  C:\Users\haske\AppData\Local\Temp\ccp0JrPn.s 			page 192


 9780              	.LLST71:
 9781 0a75 1A000000 		.4byte	.LVL210
 9782 0a79 1D000000 		.4byte	.LVL211-1
 9783 0a7d 0100     		.2byte	0x1
 9784 0a7f 50       		.byte	0x50
 9785 0a80 1D000000 		.4byte	.LVL211-1
 9786 0a84 38000000 		.4byte	.LVL214
 9787 0a88 0400     		.2byte	0x4
 9788 0a8a 74       		.byte	0x74
 9789 0a8b D400     		.sleb128 84
 9790 0a8d 9F       		.byte	0x9f
 9791 0a8e 00000000 		.4byte	0
 9792 0a92 00000000 		.4byte	0
 9793              	.LLST72:
 9794 0a96 1E000000 		.4byte	.LVL211
 9795 0a9a 32000000 		.4byte	.LVL212
 9796 0a9e 0100     		.2byte	0x1
 9797 0aa0 50       		.byte	0x50
 9798 0aa1 00000000 		.4byte	0
 9799 0aa5 00000000 		.4byte	0
 9800              	.LLST73:
 9801 0aa9 00000000 		.4byte	.LVL234
 9802 0aad 07000000 		.4byte	.LVL235-1
 9803 0ab1 0100     		.2byte	0x1
 9804 0ab3 50       		.byte	0x50
 9805 0ab4 07000000 		.4byte	.LVL235-1
 9806 0ab8 1C000000 		.4byte	.LVL241
 9807 0abc 0100     		.2byte	0x1
 9808 0abe 54       		.byte	0x54
 9809 0abf 1C000000 		.4byte	.LVL241
 9810 0ac3 88000000 		.4byte	.LFE193
 9811 0ac7 0400     		.2byte	0x4
 9812 0ac9 F3       		.byte	0xf3
 9813 0aca 01       		.uleb128 0x1
 9814 0acb 50       		.byte	0x50
 9815 0acc 9F       		.byte	0x9f
 9816 0acd 00000000 		.4byte	0
 9817 0ad1 00000000 		.4byte	0
 9818              	.LLST74:
 9819 0ad5 08000000 		.4byte	.LVL235
 9820 0ad9 0E000000 		.4byte	.LVL236
 9821 0add 0100     		.2byte	0x1
 9822 0adf 50       		.byte	0x50
 9823 0ae0 00000000 		.4byte	0
 9824 0ae4 00000000 		.4byte	0
 9825              	.LLST75:
 9826 0ae8 14000000 		.4byte	.LVL238
 9827 0aec 16000000 		.4byte	.LVL239
 9828 0af0 0100     		.2byte	0x1
 9829 0af2 50       		.byte	0x50
 9830 0af3 16000000 		.4byte	.LVL239
 9831 0af7 3E000000 		.4byte	.LVL244
 9832 0afb 0100     		.2byte	0x1
 9833 0afd 55       		.byte	0x55
 9834 0afe 00000000 		.4byte	0
 9835 0b02 00000000 		.4byte	0
 9836              	.LLST76:
ARM GAS  C:\Users\haske\AppData\Local\Temp\ccp0JrPn.s 			page 193


 9837 0b06 1C000000 		.4byte	.LVL241
 9838 0b0a 34000000 		.4byte	.LVL242
 9839 0b0e 0100     		.2byte	0x1
 9840 0b10 50       		.byte	0x50
 9841 0b11 34000000 		.4byte	.LVL242
 9842 0b15 86000000 		.4byte	.LVL257
 9843 0b19 0100     		.2byte	0x1
 9844 0b1b 54       		.byte	0x54
 9845 0b1c 00000000 		.4byte	0
 9846 0b20 00000000 		.4byte	0
 9847              	.LLST77:
 9848 0b24 40000000 		.4byte	.LVL245
 9849 0b28 86000000 		.4byte	.LVL257
 9850 0b2c 0100     		.2byte	0x1
 9851 0b2e 55       		.byte	0x55
 9852 0b2f 00000000 		.4byte	0
 9853 0b33 00000000 		.4byte	0
 9854              	.LLST78:
 9855 0b37 48000000 		.4byte	.LVL247
 9856 0b3b 4C000000 		.4byte	.LVL248
 9857 0b3f 0100     		.2byte	0x1
 9858 0b41 50       		.byte	0x50
 9859 0b42 4C000000 		.4byte	.LVL248
 9860 0b46 4F000000 		.4byte	.LVL249-1
 9861 0b4a 0100     		.2byte	0x1
 9862 0b4c 51       		.byte	0x51
 9863 0b4d 4F000000 		.4byte	.LVL249-1
 9864 0b51 64000000 		.4byte	.LVL254
 9865 0b55 0100     		.2byte	0x1
 9866 0b57 57       		.byte	0x57
 9867 0b58 00000000 		.4byte	0
 9868 0b5c 00000000 		.4byte	0
 9869              	.LLST79:
 9870 0b60 52000000 		.4byte	.LVL250
 9871 0b64 58000000 		.4byte	.LVL251
 9872 0b68 0100     		.2byte	0x1
 9873 0b6a 50       		.byte	0x50
 9874 0b6b 58000000 		.4byte	.LVL251
 9875 0b6f 86000000 		.4byte	.LVL257
 9876 0b73 0100     		.2byte	0x1
 9877 0b75 56       		.byte	0x56
 9878 0b76 00000000 		.4byte	0
 9879 0b7a 00000000 		.4byte	0
 9880              	.LLST80:
 9881 0b7e 00000000 		.4byte	.LVL258
 9882 0b82 0A000000 		.4byte	.LVL261
 9883 0b86 0100     		.2byte	0x1
 9884 0b88 50       		.byte	0x50
 9885 0b89 0A000000 		.4byte	.LVL261
 9886 0b8d 36000000 		.4byte	.LVL271
 9887 0b91 0100     		.2byte	0x1
 9888 0b93 54       		.byte	0x54
 9889 0b94 36000000 		.4byte	.LVL271
 9890 0b98 36000000 		.4byte	.LVL273
 9891 0b9c 0400     		.2byte	0x4
 9892 0b9e 76       		.byte	0x76
 9893 0b9f AC7F     		.sleb128 -84
ARM GAS  C:\Users\haske\AppData\Local\Temp\ccp0JrPn.s 			page 194


 9894 0ba1 9F       		.byte	0x9f
 9895 0ba2 36000000 		.4byte	.LVL273
 9896 0ba6 38000000 		.4byte	.LFE169
 9897 0baa 0400     		.2byte	0x4
 9898 0bac F3       		.byte	0xf3
 9899 0bad 01       		.uleb128 0x1
 9900 0bae 50       		.byte	0x50
 9901 0baf 9F       		.byte	0x9f
 9902 0bb0 00000000 		.4byte	0
 9903 0bb4 00000000 		.4byte	0
 9904              	.LLST81:
 9905 0bb8 04000000 		.4byte	.LVL259
 9906 0bbc 0A000000 		.4byte	.LVL261
 9907 0bc0 0100     		.2byte	0x1
 9908 0bc2 50       		.byte	0x50
 9909 0bc3 0A000000 		.4byte	.LVL261
 9910 0bc7 36000000 		.4byte	.LVL271
 9911 0bcb 0100     		.2byte	0x1
 9912 0bcd 54       		.byte	0x54
 9913 0bce 36000000 		.4byte	.LVL271
 9914 0bd2 36000000 		.4byte	.LVL273
 9915 0bd6 0400     		.2byte	0x4
 9916 0bd8 76       		.byte	0x76
 9917 0bd9 AC7F     		.sleb128 -84
 9918 0bdb 9F       		.byte	0x9f
 9919 0bdc 36000000 		.4byte	.LVL273
 9920 0be0 38000000 		.4byte	.LFE169
 9921 0be4 0400     		.2byte	0x4
 9922 0be6 F3       		.byte	0xf3
 9923 0be7 01       		.uleb128 0x1
 9924 0be8 50       		.byte	0x50
 9925 0be9 9F       		.byte	0x9f
 9926 0bea 00000000 		.4byte	0
 9927 0bee 00000000 		.4byte	0
 9928              	.LLST82:
 9929 0bf2 08000000 		.4byte	.LVL260
 9930 0bf6 36000000 		.4byte	.LVL273
 9931 0bfa 0100     		.2byte	0x1
 9932 0bfc 56       		.byte	0x56
 9933 0bfd 36000000 		.4byte	.LVL273
 9934 0c01 38000000 		.4byte	.LFE169
 9935 0c05 0600     		.2byte	0x6
 9936 0c07 F3       		.byte	0xf3
 9937 0c08 01       		.uleb128 0x1
 9938 0c09 50       		.byte	0x50
 9939 0c0a 23       		.byte	0x23
 9940 0c0b 54       		.uleb128 0x54
 9941 0c0c 9F       		.byte	0x9f
 9942 0c0d 00000000 		.4byte	0
 9943 0c11 00000000 		.4byte	0
 9944              	.LLST83:
 9945 0c15 10000000 		.4byte	.LVL263
 9946 0c19 18000000 		.4byte	.LVL265
 9947 0c1d 0100     		.2byte	0x1
 9948 0c1f 50       		.byte	0x50
 9949 0c20 18000000 		.4byte	.LVL265
 9950 0c24 1B000000 		.4byte	.LVL266-1
ARM GAS  C:\Users\haske\AppData\Local\Temp\ccp0JrPn.s 			page 195


 9951 0c28 0100     		.2byte	0x1
 9952 0c2a 51       		.byte	0x51
 9953 0c2b 1B000000 		.4byte	.LVL266-1
 9954 0c2f 2C000000 		.4byte	.LVL268
 9955 0c33 0100     		.2byte	0x1
 9956 0c35 55       		.byte	0x55
 9957 0c36 2C000000 		.4byte	.LVL268
 9958 0c3a 2E000000 		.4byte	.LVL269
 9959 0c3e 0100     		.2byte	0x1
 9960 0c40 50       		.byte	0x50
 9961 0c41 2E000000 		.4byte	.LVL269
 9962 0c45 36000000 		.4byte	.LVL272
 9963 0c49 0100     		.2byte	0x1
 9964 0c4b 55       		.byte	0x55
 9965 0c4c 00000000 		.4byte	0
 9966 0c50 00000000 		.4byte	0
 9967              	.LLST84:
 9968 0c54 10000000 		.4byte	.LVL263
 9969 0c58 14000000 		.4byte	.LVL264
 9970 0c5c 0200     		.2byte	0x2
 9971 0c5e 30       		.byte	0x30
 9972 0c5f 9F       		.byte	0x9f
 9973 0c60 14000000 		.4byte	.LVL264
 9974 0c64 2C000000 		.4byte	.LVL268
 9975 0c68 0100     		.2byte	0x1
 9976 0c6a 57       		.byte	0x57
 9977 0c6b 2C000000 		.4byte	.LVL268
 9978 0c6f 2E000000 		.4byte	.LVL269
 9979 0c73 0200     		.2byte	0x2
 9980 0c75 30       		.byte	0x30
 9981 0c76 9F       		.byte	0x9f
 9982 0c77 2E000000 		.4byte	.LVL269
 9983 0c7b 36000000 		.4byte	.LVL274
 9984 0c7f 0100     		.2byte	0x1
 9985 0c81 57       		.byte	0x57
 9986 0c82 00000000 		.4byte	0
 9987 0c86 00000000 		.4byte	0
 9988              	.LLST85:
 9989 0c8a 00000000 		.4byte	.LVL275
 9990 0c8e 14000000 		.4byte	.LVL277
 9991 0c92 0100     		.2byte	0x1
 9992 0c94 50       		.byte	0x50
 9993 0c95 14000000 		.4byte	.LVL277
 9994 0c99 EE000000 		.4byte	.LVL308
 9995 0c9d 0100     		.2byte	0x1
 9996 0c9f 54       		.byte	0x54
 9997 0ca0 EE000000 		.4byte	.LVL308
 9998 0ca4 FA000000 		.4byte	.LVL310
 9999 0ca8 0100     		.2byte	0x1
 10000 0caa 50       		.byte	0x50
 10001 0cab FA000000 		.4byte	.LVL310
 10002 0caf 16010000 		.4byte	.LVL314
 10003 0cb3 0100     		.2byte	0x1
 10004 0cb5 54       		.byte	0x54
 10005 0cb6 16010000 		.4byte	.LVL314
 10006 0cba 30010000 		.4byte	.LFE171
 10007 0cbe 0400     		.2byte	0x4
ARM GAS  C:\Users\haske\AppData\Local\Temp\ccp0JrPn.s 			page 196


 10008 0cc0 F3       		.byte	0xf3
 10009 0cc1 01       		.uleb128 0x1
 10010 0cc2 50       		.byte	0x50
 10011 0cc3 9F       		.byte	0x9f
 10012 0cc4 00000000 		.4byte	0
 10013 0cc8 00000000 		.4byte	0
 10014              	.LLST86:
 10015 0ccc 00000000 		.4byte	.LVL275
 10016 0cd0 18000000 		.4byte	.LVL278
 10017 0cd4 0100     		.2byte	0x1
 10018 0cd6 51       		.byte	0x51
 10019 0cd7 18000000 		.4byte	.LVL278
 10020 0cdb EE000000 		.4byte	.LVL308
 10021 0cdf 0100     		.2byte	0x1
 10022 0ce1 57       		.byte	0x57
 10023 0ce2 EE000000 		.4byte	.LVL308
 10024 0ce6 F8000000 		.4byte	.LVL309
 10025 0cea 0100     		.2byte	0x1
 10026 0cec 51       		.byte	0x51
 10027 0ced F8000000 		.4byte	.LVL309
 10028 0cf1 16010000 		.4byte	.LVL315
 10029 0cf5 0100     		.2byte	0x1
 10030 0cf7 57       		.byte	0x57
 10031 0cf8 16010000 		.4byte	.LVL315
 10032 0cfc 30010000 		.4byte	.LFE171
 10033 0d00 0400     		.2byte	0x4
 10034 0d02 F3       		.byte	0xf3
 10035 0d03 01       		.uleb128 0x1
 10036 0d04 51       		.byte	0x51
 10037 0d05 9F       		.byte	0x9f
 10038 0d06 00000000 		.4byte	0
 10039 0d0a 00000000 		.4byte	0
 10040              	.LLST87:
 10041 0d0e 06000000 		.4byte	.LVL276
 10042 0d12 14000000 		.4byte	.LVL277
 10043 0d16 0100     		.2byte	0x1
 10044 0d18 50       		.byte	0x50
 10045 0d19 14000000 		.4byte	.LVL277
 10046 0d1d EE000000 		.4byte	.LVL308
 10047 0d21 0100     		.2byte	0x1
 10048 0d23 54       		.byte	0x54
 10049 0d24 EE000000 		.4byte	.LVL308
 10050 0d28 FA000000 		.4byte	.LVL310
 10051 0d2c 0100     		.2byte	0x1
 10052 0d2e 50       		.byte	0x50
 10053 0d2f FA000000 		.4byte	.LVL310
 10054 0d33 16010000 		.4byte	.LVL314
 10055 0d37 0100     		.2byte	0x1
 10056 0d39 54       		.byte	0x54
 10057 0d3a 16010000 		.4byte	.LVL314
 10058 0d3e 30010000 		.4byte	.LFE171
 10059 0d42 0400     		.2byte	0x4
 10060 0d44 F3       		.byte	0xf3
 10061 0d45 01       		.uleb128 0x1
 10062 0d46 50       		.byte	0x50
 10063 0d47 9F       		.byte	0x9f
 10064 0d48 00000000 		.4byte	0
ARM GAS  C:\Users\haske\AppData\Local\Temp\ccp0JrPn.s 			page 197


 10065 0d4c 00000000 		.4byte	0
 10066              	.LLST88:
 10067 0d50 1E000000 		.4byte	.LVL280
 10068 0d54 21000000 		.4byte	.LVL281-1
 10069 0d58 0100     		.2byte	0x1
 10070 0d5a 50       		.byte	0x50
 10071 0d5b 21000000 		.4byte	.LVL281-1
 10072 0d5f 5C000000 		.4byte	.LVL288
 10073 0d63 0100     		.2byte	0x1
 10074 0d65 55       		.byte	0x55
 10075 0d66 00000000 		.4byte	0
 10076 0d6a 00000000 		.4byte	0
 10077              	.LLST89:
 10078 0d6e 5C000000 		.4byte	.LVL288
 10079 0d72 5F000000 		.4byte	.LVL289-1
 10080 0d76 0100     		.2byte	0x1
 10081 0d78 50       		.byte	0x50
 10082 0d79 5F000000 		.4byte	.LVL289-1
 10083 0d7d 9A000000 		.4byte	.LVL296
 10084 0d81 0100     		.2byte	0x1
 10085 0d83 55       		.byte	0x55
 10086 0d84 00000000 		.4byte	0
 10087 0d88 00000000 		.4byte	0
 10088              	.LLST90:
 10089 0d8c 9A000000 		.4byte	.LVL296
 10090 0d90 A3000000 		.4byte	.LVL297-1
 10091 0d94 0100     		.2byte	0x1
 10092 0d96 50       		.byte	0x50
 10093 0d97 A3000000 		.4byte	.LVL297-1
 10094 0d9b CC000000 		.4byte	.LVL303
 10095 0d9f 0100     		.2byte	0x1
 10096 0da1 55       		.byte	0x55
 10097 0da2 00000000 		.4byte	0
 10098 0da6 00000000 		.4byte	0
 10099              	.LLST91:
 10100 0daa BE000000 		.4byte	.LVL300
 10101 0dae C3000000 		.4byte	.LVL301-1
 10102 0db2 0100     		.2byte	0x1
 10103 0db4 50       		.byte	0x50
 10104 0db5 00000000 		.4byte	0
 10105 0db9 00000000 		.4byte	0
 10106              	.LLST92:
 10107 0dbd CC000000 		.4byte	.LVL303
 10108 0dc1 D1000000 		.4byte	.LVL304-1
 10109 0dc5 0100     		.2byte	0x1
 10110 0dc7 50       		.byte	0x50
 10111 0dc8 D1000000 		.4byte	.LVL304-1
 10112 0dcc DE000000 		.4byte	.LVL305
 10113 0dd0 0100     		.2byte	0x1
 10114 0dd2 55       		.byte	0x55
 10115 0dd3 00000000 		.4byte	0
 10116 0dd7 00000000 		.4byte	0
 10117              	.LLST93:
 10118 0ddb 00000000 		.4byte	.LVL316
 10119 0ddf 23000000 		.4byte	.LVL319-1
 10120 0de3 0100     		.2byte	0x1
 10121 0de5 50       		.byte	0x50
ARM GAS  C:\Users\haske\AppData\Local\Temp\ccp0JrPn.s 			page 198


 10122 0de6 23000000 		.4byte	.LVL319-1
 10123 0dea 26000000 		.4byte	.LFE173
 10124 0dee 0400     		.2byte	0x4
 10125 0df0 F3       		.byte	0xf3
 10126 0df1 01       		.uleb128 0x1
 10127 0df2 50       		.byte	0x50
 10128 0df3 9F       		.byte	0x9f
 10129 0df4 00000000 		.4byte	0
 10130 0df8 00000000 		.4byte	0
 10131              	.LLST94:
 10132 0dfc 00000000 		.4byte	.LVL316
 10133 0e00 14000000 		.4byte	.LVL318
 10134 0e04 0100     		.2byte	0x1
 10135 0e06 51       		.byte	0x51
 10136 0e07 14000000 		.4byte	.LVL318
 10137 0e0b 26000000 		.4byte	.LFE173
 10138 0e0f 0400     		.2byte	0x4
 10139 0e11 F3       		.byte	0xf3
 10140 0e12 01       		.uleb128 0x1
 10141 0e13 51       		.byte	0x51
 10142 0e14 9F       		.byte	0x9f
 10143 0e15 00000000 		.4byte	0
 10144 0e19 00000000 		.4byte	0
 10145              	.LLST95:
 10146 0e1d 02000000 		.4byte	.LVL317
 10147 0e21 23000000 		.4byte	.LVL319-1
 10148 0e25 0100     		.2byte	0x1
 10149 0e27 50       		.byte	0x50
 10150 0e28 23000000 		.4byte	.LVL319-1
 10151 0e2c 26000000 		.4byte	.LFE173
 10152 0e30 0400     		.2byte	0x4
 10153 0e32 F3       		.byte	0xf3
 10154 0e33 01       		.uleb128 0x1
 10155 0e34 50       		.byte	0x50
 10156 0e35 9F       		.byte	0x9f
 10157 0e36 00000000 		.4byte	0
 10158 0e3a 00000000 		.4byte	0
 10159              	.LLST96:
 10160 0e3e 00000000 		.4byte	.LVL320
 10161 0e42 07000000 		.4byte	.LVL321-1
 10162 0e46 0100     		.2byte	0x1
 10163 0e48 50       		.byte	0x50
 10164 0e49 07000000 		.4byte	.LVL321-1
 10165 0e4d 12000000 		.4byte	.LVL325
 10166 0e51 0100     		.2byte	0x1
 10167 0e53 54       		.byte	0x54
 10168 0e54 12000000 		.4byte	.LVL325
 10169 0e58 78000000 		.4byte	.LFE191
 10170 0e5c 0400     		.2byte	0x4
 10171 0e5e F3       		.byte	0xf3
 10172 0e5f 01       		.uleb128 0x1
 10173 0e60 50       		.byte	0x50
 10174 0e61 9F       		.byte	0x9f
 10175 0e62 00000000 		.4byte	0
 10176 0e66 00000000 		.4byte	0
 10177              	.LLST97:
 10178 0e6a 0A000000 		.4byte	.LVL322
ARM GAS  C:\Users\haske\AppData\Local\Temp\ccp0JrPn.s 			page 199


 10179 0e6e 0C000000 		.4byte	.LVL323
 10180 0e72 0100     		.2byte	0x1
 10181 0e74 50       		.byte	0x50
 10182 0e75 0C000000 		.4byte	.LVL323
 10183 0e79 76000000 		.4byte	.LVL340
 10184 0e7d 0100     		.2byte	0x1
 10185 0e7f 55       		.byte	0x55
 10186 0e80 00000000 		.4byte	0
 10187 0e84 00000000 		.4byte	0
 10188              	.LLST98:
 10189 0e88 10000000 		.4byte	.LVL324
 10190 0e8c 1C000000 		.4byte	.LVL327
 10191 0e90 0100     		.2byte	0x1
 10192 0e92 50       		.byte	0x50
 10193 0e93 2C000000 		.4byte	.LVL329
 10194 0e97 2E000000 		.4byte	.LVL330
 10195 0e9b 0100     		.2byte	0x1
 10196 0e9d 50       		.byte	0x50
 10197 0e9e 00000000 		.4byte	0
 10198 0ea2 00000000 		.4byte	0
 10199              	.LLST99:
 10200 0ea6 12000000 		.4byte	.LVL325
 10201 0eaa 76000000 		.4byte	.LVL339
 10202 0eae 0100     		.2byte	0x1
 10203 0eb0 54       		.byte	0x54
 10204 0eb1 00000000 		.4byte	0
 10205 0eb5 00000000 		.4byte	0
 10206              	.LLST100:
 10207 0eb9 14000000 		.4byte	.LVL326
 10208 0ebd 76000000 		.4byte	.LVL341
 10209 0ec1 0100     		.2byte	0x1
 10210 0ec3 56       		.byte	0x56
 10211 0ec4 00000000 		.4byte	0
 10212 0ec8 00000000 		.4byte	0
 10213              	.LLST101:
 10214 0ecc 3C000000 		.4byte	.LVL331
 10215 0ed0 4F000000 		.4byte	.LVL333-1
 10216 0ed4 0100     		.2byte	0x1
 10217 0ed6 53       		.byte	0x53
 10218 0ed7 00000000 		.4byte	0
 10219 0edb 00000000 		.4byte	0
 10220              	.LLST102:
 10221 0edf 1C000000 		.4byte	.LVL327
 10222 0ee3 29000000 		.4byte	.LVL328-1
 10223 0ee7 0100     		.2byte	0x1
 10224 0ee9 50       		.byte	0x50
 10225 0eea 2A000000 		.4byte	.LVL328
 10226 0eee 2C000000 		.4byte	.LVL329
 10227 0ef2 0100     		.2byte	0x1
 10228 0ef4 50       		.byte	0x50
 10229 0ef5 2E000000 		.4byte	.LVL330
 10230 0ef9 42000000 		.4byte	.LVL332
 10231 0efd 0100     		.2byte	0x1
 10232 0eff 50       		.byte	0x50
 10233 0f00 00000000 		.4byte	0
 10234 0f04 00000000 		.4byte	0
 10235              		.section	.debug_aranges,"",%progbits
ARM GAS  C:\Users\haske\AppData\Local\Temp\ccp0JrPn.s 			page 200


 10236 0000 0C010000 		.4byte	0x10c
 10237 0004 0200     		.2byte	0x2
 10238 0006 00000000 		.4byte	.Ldebug_info0
 10239 000a 04       		.byte	0x4
 10240 000b 00       		.byte	0
 10241 000c 0000     		.2byte	0
 10242 000e 0000     		.2byte	0
 10243 0010 00000000 		.4byte	.LFB184
 10244 0014 0C000000 		.4byte	.LFE184-.LFB184
 10245 0018 00000000 		.4byte	.LFB188
 10246 001c 16000000 		.4byte	.LFE188-.LFB188
 10247 0020 00000000 		.4byte	.LFB187
 10248 0024 22000000 		.4byte	.LFE187-.LFB187
 10249 0028 00000000 		.4byte	.LFB183
 10250 002c 44010000 		.4byte	.LFE183-.LFB183
 10251 0030 00000000 		.4byte	.LFB186
 10252 0034 14000000 		.4byte	.LFE186-.LFB186
 10253 0038 00000000 		.4byte	.LFB192
 10254 003c 0C000000 		.4byte	.LFE192-.LFB192
 10255 0040 00000000 		.4byte	.LFB185
 10256 0044 32000000 		.4byte	.LFE185-.LFB185
 10257 0048 00000000 		.4byte	.LFB190
 10258 004c 84000000 		.4byte	.LFE190-.LFB190
 10259 0050 00000000 		.4byte	.LFB189
 10260 0054 7E000000 		.4byte	.LFE189-.LFB189
 10261 0058 00000000 		.4byte	.LFB164
 10262 005c 1C000000 		.4byte	.LFE164-.LFB164
 10263 0060 00000000 		.4byte	.LFB165
 10264 0064 4C000000 		.4byte	.LFE165-.LFB165
 10265 0068 00000000 		.4byte	.LFB166
 10266 006c 1C000000 		.4byte	.LFE166-.LFB166
 10267 0070 00000000 		.4byte	.LFB167
 10268 0074 1C000000 		.4byte	.LFE167-.LFB167
 10269 0078 00000000 		.4byte	.LFB168
 10270 007c 1C000000 		.4byte	.LFE168-.LFB168
 10271 0080 00000000 		.4byte	.LFB172
 10272 0084 34000000 		.4byte	.LFE172-.LFB172
 10273 0088 00000000 		.4byte	.LFB174
 10274 008c 70000000 		.4byte	.LFE174-.LFB174
 10275 0090 00000000 		.4byte	.LFB175
 10276 0094 04000000 		.4byte	.LFE175-.LFB175
 10277 0098 00000000 		.4byte	.LFB176
 10278 009c 04000000 		.4byte	.LFE176-.LFB176
 10279 00a0 00000000 		.4byte	.LFB194
 10280 00a4 64000000 		.4byte	.LFE194-.LFB194
 10281 00a8 00000000 		.4byte	.LFB177
 10282 00ac 04000000 		.4byte	.LFE177-.LFB177
 10283 00b0 00000000 		.4byte	.LFB178
 10284 00b4 04000000 		.4byte	.LFE178-.LFB178
 10285 00b8 00000000 		.4byte	.LFB179
 10286 00bc 04000000 		.4byte	.LFE179-.LFB179
 10287 00c0 00000000 		.4byte	.LFB180
 10288 00c4 04000000 		.4byte	.LFE180-.LFB180
 10289 00c8 00000000 		.4byte	.LFB181
 10290 00cc 24000000 		.4byte	.LFE181-.LFB181
 10291 00d0 00000000 		.4byte	.LFB182
 10292 00d4 12000000 		.4byte	.LFE182-.LFB182
ARM GAS  C:\Users\haske\AppData\Local\Temp\ccp0JrPn.s 			page 201


 10293 00d8 00000000 		.4byte	.LFB170
 10294 00dc FE000000 		.4byte	.LFE170-.LFB170
 10295 00e0 00000000 		.4byte	.LFB193
 10296 00e4 88000000 		.4byte	.LFE193-.LFB193
 10297 00e8 00000000 		.4byte	.LFB169
 10298 00ec 38000000 		.4byte	.LFE169-.LFB169
 10299 00f0 00000000 		.4byte	.LFB171
 10300 00f4 30010000 		.4byte	.LFE171-.LFB171
 10301 00f8 00000000 		.4byte	.LFB173
 10302 00fc 26000000 		.4byte	.LFE173-.LFB173
 10303 0100 00000000 		.4byte	.LFB191
 10304 0104 78000000 		.4byte	.LFE191-.LFB191
 10305 0108 00000000 		.4byte	0
 10306 010c 00000000 		.4byte	0
 10307              		.section	.debug_ranges,"",%progbits
 10308              	.Ldebug_ranges0:
 10309 0000 1A000000 		.4byte	.LBB5
 10310 0004 2C000000 		.4byte	.LBE5
 10311 0008 2E000000 		.4byte	.LBB6
 10312 000c 58000000 		.4byte	.LBE6
 10313 0010 00000000 		.4byte	0
 10314 0014 00000000 		.4byte	0
 10315 0018 00000000 		.4byte	.LFB184
 10316 001c 0C000000 		.4byte	.LFE184
 10317 0020 00000000 		.4byte	.LFB188
 10318 0024 16000000 		.4byte	.LFE188
 10319 0028 00000000 		.4byte	.LFB187
 10320 002c 22000000 		.4byte	.LFE187
 10321 0030 00000000 		.4byte	.LFB183
 10322 0034 44010000 		.4byte	.LFE183
 10323 0038 00000000 		.4byte	.LFB186
 10324 003c 14000000 		.4byte	.LFE186
 10325 0040 00000000 		.4byte	.LFB192
 10326 0044 0C000000 		.4byte	.LFE192
 10327 0048 00000000 		.4byte	.LFB185
 10328 004c 32000000 		.4byte	.LFE185
 10329 0050 00000000 		.4byte	.LFB190
 10330 0054 84000000 		.4byte	.LFE190
 10331 0058 00000000 		.4byte	.LFB189
 10332 005c 7E000000 		.4byte	.LFE189
 10333 0060 00000000 		.4byte	.LFB164
 10334 0064 1C000000 		.4byte	.LFE164
 10335 0068 00000000 		.4byte	.LFB165
 10336 006c 4C000000 		.4byte	.LFE165
 10337 0070 00000000 		.4byte	.LFB166
 10338 0074 1C000000 		.4byte	.LFE166
 10339 0078 00000000 		.4byte	.LFB167
 10340 007c 1C000000 		.4byte	.LFE167
 10341 0080 00000000 		.4byte	.LFB168
 10342 0084 1C000000 		.4byte	.LFE168
 10343 0088 00000000 		.4byte	.LFB172
 10344 008c 34000000 		.4byte	.LFE172
 10345 0090 00000000 		.4byte	.LFB174
 10346 0094 70000000 		.4byte	.LFE174
 10347 0098 00000000 		.4byte	.LFB175
 10348 009c 04000000 		.4byte	.LFE175
 10349 00a0 00000000 		.4byte	.LFB176
ARM GAS  C:\Users\haske\AppData\Local\Temp\ccp0JrPn.s 			page 202


 10350 00a4 04000000 		.4byte	.LFE176
 10351 00a8 00000000 		.4byte	.LFB194
 10352 00ac 64000000 		.4byte	.LFE194
 10353 00b0 00000000 		.4byte	.LFB177
 10354 00b4 04000000 		.4byte	.LFE177
 10355 00b8 00000000 		.4byte	.LFB178
 10356 00bc 04000000 		.4byte	.LFE178
 10357 00c0 00000000 		.4byte	.LFB179
 10358 00c4 04000000 		.4byte	.LFE179
 10359 00c8 00000000 		.4byte	.LFB180
 10360 00cc 04000000 		.4byte	.LFE180
 10361 00d0 00000000 		.4byte	.LFB181
 10362 00d4 24000000 		.4byte	.LFE181
 10363 00d8 00000000 		.4byte	.LFB182
 10364 00dc 12000000 		.4byte	.LFE182
 10365 00e0 00000000 		.4byte	.LFB170
 10366 00e4 FE000000 		.4byte	.LFE170
 10367 00e8 00000000 		.4byte	.LFB193
 10368 00ec 88000000 		.4byte	.LFE193
 10369 00f0 00000000 		.4byte	.LFB169
 10370 00f4 38000000 		.4byte	.LFE169
 10371 00f8 00000000 		.4byte	.LFB171
 10372 00fc 30010000 		.4byte	.LFE171
 10373 0100 00000000 		.4byte	.LFB173
 10374 0104 26000000 		.4byte	.LFE173
 10375 0108 00000000 		.4byte	.LFB191
 10376 010c 78000000 		.4byte	.LFE191
 10377 0110 00000000 		.4byte	0
 10378 0114 00000000 		.4byte	0
 10379              		.section	.debug_line,"",%progbits
 10380              	.Ldebug_line0:
 10381 0000 DD070000 		.section	.debug_str,"MS",%progbits,1
 10381      02006604 
 10381      00000201 
 10381      FB0E0D00 
 10381      01010101 
 10382              	.LASF355:
 10383 0000 4C565F46 		.ascii	"LV_FLEX_ALIGN_END\000"
 10383      4C45585F 
 10383      414C4947 
 10383      4E5F454E 
 10383      4400
 10384              	.LASF152:
 10385 0012 70726F70 		.ascii	"prop_cnt\000"
 10385      5F636E74 
 10385      00
 10386              	.LASF15:
 10387 001b 696E7438 		.ascii	"int8_t\000"
 10387      5F7400
 10388              	.LASF123:
 10389 0022 4C565F53 		.ascii	"LV_STYLE_OPA\000"
 10389      54594C45 
 10389      5F4F5041 
 10389      00
 10390              	.LASF323:
 10391 002f 4C565F4D 		.ascii	"LV_MENU_HEADER_TOP_UNFIXED\000"
 10391      454E555F 
ARM GAS  C:\Users\haske\AppData\Local\Temp\ccp0JrPn.s 			page 203


 10391      48454144 
 10391      45525F54 
 10391      4F505F55 
 10392              	.LASF169:
 10393 004a 6C765F6C 		.ascii	"lv_ll_node_t\000"
 10393      6C5F6E6F 
 10393      64655F74 
 10393      00
 10394              	.LASF424:
 10395 0057 5F6C765F 		.ascii	"_lv_ll_clear\000"
 10395      6C6C5F63 
 10395      6C656172 
 10395      00
 10396              	.LASF27:
 10397 0064 6164765F 		.ascii	"adv_w\000"
 10397      7700
 10398              	.LASF45:
 10399 006a 73697A65 		.ascii	"sizetype\000"
 10399      74797065 
 10399      00
 10400              	.LASF427:
 10401 0073 6C765F6F 		.ascii	"lv_obj_set_flex_align\000"
 10401      626A5F73 
 10401      65745F66 
 10401      6C65785F 
 10401      616C6967 
 10402              	.LASF275:
 10403 0089 4C565F45 		.ascii	"LV_EVENT_DRAW_MAIN_BEGIN\000"
 10403      56454E54 
 10403      5F445241 
 10403      575F4D41 
 10403      494E5F42 
 10404              	.LASF399:
 10405 00a2 6163745F 		.ascii	"act_hist\000"
 10405      68697374 
 10405      00
 10406              	.LASF107:
 10407 00ab 4C565F53 		.ascii	"LV_STYLE_LINE_DASH_GAP\000"
 10407      54594C45 
 10407      5F4C494E 
 10407      455F4441 
 10407      53485F47 
 10408              	.LASF447:
 10409 00c2 6C765F6F 		.ascii	"lv_obj_refr_size\000"
 10409      626A5F72 
 10409      6566725F 
 10409      73697A65 
 10409      00
 10410              	.LASF443:
 10411 00d3 6C765F65 		.ascii	"lv_event_get_user_data\000"
 10411      76656E74 
 10411      5F676574 
 10411      5F757365 
 10411      725F6461 
 10412              	.LASF325:
 10413 00ea 6C765F6D 		.ascii	"lv_menu_mode_header_t\000"
 10413      656E755F 
ARM GAS  C:\Users\haske\AppData\Local\Temp\ccp0JrPn.s 			page 204


 10413      6D6F6465 
 10413      5F686561 
 10413      6465725F 
 10414              	.LASF172:
 10415 0100 7461696C 		.ascii	"tail\000"
 10415      00
 10416              	.LASF392:
 10417 0105 6C765F6D 		.ascii	"lv_menu_get_sidebar_header\000"
 10417      656E755F 
 10417      6765745F 
 10417      73696465 
 10417      6261725F 
 10418              	.LASF442:
 10419 0120 6C765F6D 		.ascii	"lv_mem_free\000"
 10419      656D5F66 
 10419      72656500 
 10420              	.LASF114:
 10421 012c 4C565F53 		.ascii	"LV_STYLE_ARC_OPA\000"
 10421      54594C45 
 10421      5F415243 
 10421      5F4F5041 
 10421      00
 10422              	.LASF19:
 10423 013d 696E7433 		.ascii	"int32_t\000"
 10423      325F7400 
 10424              	.LASF228:
 10425 0145 6C765F73 		.ascii	"lv_scrollbar_mode_t\000"
 10425      63726F6C 
 10425      6C626172 
 10425      5F6D6F64 
 10425      655F7400 
 10426              	.LASF327:
 10427 0159 4C565F4D 		.ascii	"LV_MENU_ROOT_BACK_BTN_ENABLED\000"
 10427      454E555F 
 10427      524F4F54 
 10427      5F424143 
 10427      4B5F4254 
 10428              	.LASF398:
 10429 0177 6C765F6D 		.ascii	"lv_menu_back_event_cb\000"
 10429      656E755F 
 10429      6261636B 
 10429      5F657665 
 10429      6E745F63 
 10430              	.LASF405:
 10431 018d 6C765F6D 		.ascii	"lv_menu_set_mode_root_back_btn\000"
 10431      656E755F 
 10431      7365745F 
 10431      6D6F6465 
 10431      5F726F6F 
 10432              	.LASF151:
 10433 01ac 6861735F 		.ascii	"has_group\000"
 10433      67726F75 
 10433      7000
 10434              	.LASF284:
 10435 01b6 4C565F45 		.ascii	"LV_EVENT_INSERT\000"
 10435      56454E54 
 10435      5F494E53 
ARM GAS  C:\Users\haske\AppData\Local\Temp\ccp0JrPn.s 			page 205


 10435      45525400 
 10436              	.LASF23:
 10437 01c6 6C765F70 		.ascii	"lv_point_t\000"
 10437      6F696E74 
 10437      5F7400
 10438              	.LASF35:
 10439 01d1 6C696E65 		.ascii	"line_height\000"
 10439      5F686569 
 10439      67687400 
 10440              	.LASF158:
 10441 01dd 73706563 		.ascii	"spec_attr\000"
 10441      5F617474 
 10441      7200
 10442              	.LASF315:
 10443 01e7 7363726F 		.ascii	"scroll_snap_x\000"
 10443      6C6C5F73 
 10443      6E61705F 
 10443      7800
 10444              	.LASF303:
 10445 01f5 6C765F65 		.ascii	"lv_event_t\000"
 10445      76656E74 
 10445      5F7400
 10446              	.LASF390:
 10447 0200 6C765F6D 		.ascii	"lv_menu_get_main_header\000"
 10447      656E755F 
 10447      6765745F 
 10447      6D61696E 
 10447      5F686561 
 10448              	.LASF289:
 10449 0218 4C565F45 		.ascii	"LV_EVENT_CHILD_CHANGED\000"
 10449      56454E54 
 10449      5F434849 
 10449      4C445F43 
 10449      48414E47 
 10450              	.LASF162:
 10451 022f 73746174 		.ascii	"state\000"
 10451      6500
 10452              	.LASF339:
 10453 0235 73696465 		.ascii	"sidebar\000"
 10453      62617200 
 10454              	.LASF58:
 10455 023d 4C565F53 		.ascii	"LV_STYLE_HEIGHT\000"
 10455      54594C45 
 10455      5F484549 
 10455      47485400 
 10456              	.LASF232:
 10457 024d 69735F6C 		.ascii	"is_local\000"
 10457      6F63616C 
 10457      00
 10458              	.LASF446:
 10459 0256 6C765F6F 		.ascii	"lv_obj_move_to_index\000"
 10459      626A5F6D 
 10459      6F76655F 
 10459      746F5F69 
 10459      6E646578 
 10460              	.LASF78:
 10461 026b 4C565F53 		.ascii	"LV_STYLE_BG_MAIN_STOP\000"
ARM GAS  C:\Users\haske\AppData\Local\Temp\ccp0JrPn.s 			page 206


 10461      54594C45 
 10461      5F42475F 
 10461      4D41494E 
 10461      5F53544F 
 10462              	.LASF237:
 10463 0281 636F6E73 		.ascii	"constructor_cb\000"
 10463      74727563 
 10463      746F725F 
 10463      636200
 10464              	.LASF312:
 10465 0290 6578745F 		.ascii	"ext_click_pad\000"
 10465      636C6963 
 10465      6B5F7061 
 10465      6400
 10466              	.LASF139:
 10467 029e 5F4C565F 		.ascii	"_LV_STYLE_LAST_BUILT_IN_PROP\000"
 10467      5354594C 
 10467      455F4C41 
 10467      53545F42 
 10467      55494C54 
 10468              	.LASF391:
 10469 02bb 6C765F6D 		.ascii	"lv_menu_get_main_header_back_btn\000"
 10469      656E755F 
 10469      6765745F 
 10469      6D61696E 
 10469      5F686561 
 10470              	.LASF423:
 10471 02dc 4C565F53 		.ascii	"LV_STYLE_FLEX_GROW\000"
 10471      54594C45 
 10471      5F464C45 
 10471      585F4752 
 10471      4F5700
 10472              	.LASF267:
 10473 02ef 4C565F45 		.ascii	"LV_EVENT_GESTURE\000"
 10473      56454E54 
 10473      5F474553 
 10473      54555245 
 10473      00
 10474              	.LASF260:
 10475 0300 4C565F45 		.ascii	"LV_EVENT_LONG_PRESSED\000"
 10475      56454E54 
 10475      5F4C4F4E 
 10475      475F5052 
 10475      45535345 
 10476              	.LASF89:
 10477 0316 4C565F53 		.ascii	"LV_STYLE_BORDER_WIDTH\000"
 10477      54594C45 
 10477      5F424F52 
 10477      4445525F 
 10477      57494454 
 10478              	.LASF340:
 10479 032c 73696465 		.ascii	"sidebar_page\000"
 10479      6261725F 
 10479      70616765 
 10479      00
 10480              	.LASF290:
 10481 0339 4C565F45 		.ascii	"LV_EVENT_CHILD_CREATED\000"
ARM GAS  C:\Users\haske\AppData\Local\Temp\ccp0JrPn.s 			page 207


 10481      56454E54 
 10481      5F434849 
 10481      4C445F43 
 10481      52454154 
 10482              	.LASF353:
 10483 0350 6C765F6D 		.ascii	"lv_menu_page_t\000"
 10483      656E755F 
 10483      70616765 
 10483      5F7400
 10484              	.LASF71:
 10485 035f 4C565F53 		.ascii	"LV_STYLE_PAD_COLUMN\000"
 10485      54594C45 
 10485      5F504144 
 10485      5F434F4C 
 10485      554D4E00 
 10486              	.LASF307:
 10487 0373 6368696C 		.ascii	"children\000"
 10487      6472656E 
 10487      00
 10488              	.LASF81:
 10489 037c 4C565F53 		.ascii	"LV_STYLE_BG_DITHER_MODE\000"
 10489      54594C45 
 10489      5F42475F 
 10489      44495448 
 10489      45525F4D 
 10490              	.LASF335:
 10491 0394 6D61696E 		.ascii	"main_page\000"
 10491      5F706167 
 10491      6500
 10492              	.LASF1:
 10493 039e 5F5F7569 		.ascii	"__uint8_t\000"
 10493      6E74385F 
 10493      7400
 10494              	.LASF168:
 10495 03a8 775F6C61 		.ascii	"w_layout\000"
 10495      796F7574 
 10495      00
 10496              	.LASF428:
 10497 03b1 6C765F6F 		.ascii	"lv_obj_set_layout\000"
 10497      626A5F73 
 10497      65745F6C 
 10497      61796F75 
 10497      7400
 10498              	.LASF65:
 10499 03c3 4C565F53 		.ascii	"LV_STYLE_RADIUS\000"
 10499      54594C45 
 10499      5F524144 
 10499      49555300 
 10500              	.LASF164:
 10501 03d3 7363725F 		.ascii	"scr_layout_inv\000"
 10501      6C61796F 
 10501      75745F69 
 10501      6E7600
 10502              	.LASF57:
 10503 03e2 4C565F53 		.ascii	"LV_STYLE_MAX_WIDTH\000"
 10503      54594C45 
 10503      5F4D4158 
ARM GAS  C:\Users\haske\AppData\Local\Temp\ccp0JrPn.s 			page 208


 10503      5F574944 
 10503      544800
 10504              	.LASF445:
 10505 03f5 6C765F6F 		.ascii	"lv_obj_set_parent\000"
 10505      626A5F73 
 10505      65745F70 
 10505      6172656E 
 10505      7400
 10506              	.LASF84:
 10507 0407 4C565F53 		.ascii	"LV_STYLE_BG_IMG_RECOLOR\000"
 10507      54594C45 
 10507      5F42475F 
 10507      494D475F 
 10507      5245434F 
 10508              	.LASF388:
 10509 041f 6C765F6D 		.ascii	"lv_menu_get_cur_sidebar_page\000"
 10509      656E755F 
 10509      6765745F 
 10509      6375725F 
 10509      73696465 
 10510              	.LASF101:
 10511 043c 4C565F53 		.ascii	"LV_STYLE_SHADOW_OPA\000"
 10511      54594C45 
 10511      5F534841 
 10511      444F575F 
 10511      4F504100 
 10512              	.LASF454:
 10513 0450 6C765F65 		.ascii	"lv_event_send\000"
 10513      76656E74 
 10513      5F73656E 
 10513      6400
 10514              	.LASF345:
 10515 045e 68697374 		.ascii	"history_ll\000"
 10515      6F72795F 
 10515      6C6C00
 10516              	.LASF357:
 10517 0469 4C565F46 		.ascii	"LV_FLEX_ALIGN_SPACE_EVENLY\000"
 10517      4C45585F 
 10517      414C4947 
 10517      4E5F5350 
 10517      4143455F 
 10518              	.LASF420:
 10519 0484 4C565F53 		.ascii	"LV_STYLE_FLEX_MAIN_PLACE\000"
 10519      54594C45 
 10519      5F464C45 
 10519      585F4D41 
 10519      494E5F50 
 10520              	.LASF379:
 10521 049d 6C765F6D 		.ascii	"lv_menu_refr_sidebar_header_mode\000"
 10521      656E755F 
 10521      72656672 
 10521      5F736964 
 10521      65626172 
 10522              	.LASF132:
 10523 04be 4C565F53 		.ascii	"LV_STYLE_TRANSFORM_HEIGHT\000"
 10523      54594C45 
 10523      5F545241 
ARM GAS  C:\Users\haske\AppData\Local\Temp\ccp0JrPn.s 			page 209


 10523      4E53464F 
 10523      524D5F48 
 10524              	.LASF202:
 10525 04d8 4C565F4F 		.ascii	"LV_OBJ_FLAG_SCROLLABLE\000"
 10525      424A5F46 
 10525      4C41475F 
 10525      5343524F 
 10525      4C4C4142 
 10526              	.LASF69:
 10527 04ef 4C565F53 		.ascii	"LV_STYLE_PAD_RIGHT\000"
 10527      54594C45 
 10527      5F504144 
 10527      5F524947 
 10527      485400
 10528              	.LASF369:
 10529 0502 6C765F6D 		.ascii	"lv_menu_section_constructor\000"
 10529      656E755F 
 10529      73656374 
 10529      696F6E5F 
 10529      636F6E73 
 10530              	.LASF330:
 10531 051e 6D656E75 		.ascii	"menu\000"
 10531      00
 10532              	.LASF255:
 10533 0523 4C565F45 		.ascii	"LV_EVENT_ALL\000"
 10533      56454E54 
 10533      5F414C4C 
 10533      00
 10534              	.LASF9:
 10535 0530 6C6F6E67 		.ascii	"long int\000"
 10535      20696E74 
 10535      00
 10536              	.LASF129:
 10537 0539 4C565F53 		.ascii	"LV_STYLE_TRANSITION\000"
 10537      54594C45 
 10537      5F545241 
 10537      4E534954 
 10537      494F4E00 
 10538              	.LASF317:
 10539 054d 7363726F 		.ascii	"scroll_dir\000"
 10539      6C6C5F64 
 10539      697200
 10540              	.LASF243:
 10541 0558 67726F75 		.ascii	"group_def\000"
 10541      705F6465 
 10541      6600
 10542              	.LASF85:
 10543 0562 4C565F53 		.ascii	"LV_STYLE_BG_IMG_RECOLOR_OPA\000"
 10543      54594C45 
 10543      5F42475F 
 10543      494D475F 
 10543      5245434F 
 10544              	.LASF188:
 10545 057e 4C565F53 		.ascii	"LV_STATE_HOVERED\000"
 10545      54415445 
 10545      5F484F56 
 10545      45524544 
ARM GAS  C:\Users\haske\AppData\Local\Temp\ccp0JrPn.s 			page 210


 10545      00
 10546              	.LASF186:
 10547 058f 4C565F53 		.ascii	"LV_STATE_FOCUS_KEY\000"
 10547      54415445 
 10547      5F464F43 
 10547      55535F4B 
 10547      455900
 10548              	.LASF197:
 10549 05a2 6C765F73 		.ascii	"lv_state_t\000"
 10549      74617465 
 10549      5F7400
 10550              	.LASF215:
 10551 05ad 4C565F4F 		.ascii	"LV_OBJ_FLAG_ADV_HITTEST\000"
 10551      424A5F46 
 10551      4C41475F 
 10551      4144565F 
 10551      48495454 
 10552              	.LASF334:
 10553 05c5 6D61696E 		.ascii	"main\000"
 10553      00
 10554              	.LASF210:
 10555 05ca 4C565F4F 		.ascii	"LV_OBJ_FLAG_SCROLL_WITH_ARROW\000"
 10555      424A5F46 
 10555      4C41475F 
 10555      5343524F 
 10555      4C4C5F57 
 10556              	.LASF178:
 10557 05e8 65646765 		.ascii	"edge_cb\000"
 10557      5F636200 
 10558              	.LASF86:
 10559 05f0 4C565F53 		.ascii	"LV_STYLE_BG_IMG_TILED\000"
 10559      54594C45 
 10559      5F42475F 
 10559      494D475F 
 10559      54494C45 
 10560              	.LASF171:
 10561 0606 68656164 		.ascii	"head\000"
 10561      00
 10562              	.LASF88:
 10563 060b 4C565F53 		.ascii	"LV_STYLE_BORDER_OPA\000"
 10563      54594C45 
 10563      5F424F52 
 10563      4445525F 
 10563      4F504100 
 10564              	.LASF196:
 10565 061f 4C565F53 		.ascii	"LV_STATE_ANY\000"
 10565      54415445 
 10565      5F414E59 
 10565      00
 10566              	.LASF282:
 10567 062c 4C565F45 		.ascii	"LV_EVENT_DRAW_PART_END\000"
 10567      56454E54 
 10567      5F445241 
 10567      575F5041 
 10567      52545F45 
 10568              	.LASF179:
 10569 0643 66726F7A 		.ascii	"frozen\000"
ARM GAS  C:\Users\haske\AppData\Local\Temp\ccp0JrPn.s 			page 211


 10569      656E00
 10570              	.LASF462:
 10571 064a 5F6C765F 		.ascii	"_lv_ll_remove\000"
 10571      6C6C5F72 
 10571      656D6F76 
 10571      6500
 10572              	.LASF100:
 10573 0658 4C565F53 		.ascii	"LV_STYLE_SHADOW_COLOR\000"
 10573      54594C45 
 10573      5F534841 
 10573      444F575F 
 10573      434F4C4F 
 10574              	.LASF166:
 10575 066e 7374796C 		.ascii	"style_cnt\000"
 10575      655F636E 
 10575      7400
 10576              	.LASF422:
 10577 0678 4C565F53 		.ascii	"LV_STYLE_FLEX_TRACK_PLACE\000"
 10577      54594C45 
 10577      5F464C45 
 10577      585F5452 
 10577      41434B5F 
 10578              	.LASF163:
 10579 0692 6C61796F 		.ascii	"layout_inv\000"
 10579      75745F69 
 10579      6E7600
 10580              	.LASF350:
 10581 069d 6D6F6465 		.ascii	"mode_root_back_btn\000"
 10581      5F726F6F 
 10581      745F6261 
 10581      636B5F62 
 10581      746E00
 10582              	.LASF2:
 10583 06b0 7369676E 		.ascii	"signed char\000"
 10583      65642063 
 10583      68617200 
 10584              	.LASF16:
 10585 06bc 75696E74 		.ascii	"uint8_t\000"
 10585      385F7400 
 10586              	.LASF360:
 10587 06c4 4C565F46 		.ascii	"LV_FLEX_FLOW_ROW\000"
 10587      4C45585F 
 10587      464C4F57 
 10587      5F524F57 
 10587      00
 10588              	.LASF219:
 10589 06d5 4C565F4F 		.ascii	"LV_OBJ_FLAG_LAYOUT_1\000"
 10589      424A5F46 
 10589      4C41475F 
 10589      4C41594F 
 10589      55545F31 
 10590              	.LASF220:
 10591 06ea 4C565F4F 		.ascii	"LV_OBJ_FLAG_LAYOUT_2\000"
 10591      424A5F46 
 10591      4C41475F 
 10591      4C41594F 
 10591      55545F32 
ARM GAS  C:\Users\haske\AppData\Local\Temp\ccp0JrPn.s 			page 212


 10592              	.LASF77:
 10593 06ff 4C565F53 		.ascii	"LV_STYLE_BG_GRAD_DIR\000"
 10593      54594C45 
 10593      5F42475F 
 10593      47524144 
 10593      5F444952 
 10594              	.LASF34:
 10595 0714 6765745F 		.ascii	"get_glyph_bitmap\000"
 10595      676C7970 
 10595      685F6269 
 10595      746D6170 
 10595      00
 10596              	.LASF47:
 10597 0725 626C7565 		.ascii	"blue\000"
 10597      00
 10598              	.LASF208:
 10599 072a 4C565F4F 		.ascii	"LV_OBJ_FLAG_SCROLL_CHAIN\000"
 10599      424A5F46 
 10599      4C41475F 
 10599      5343524F 
 10599      4C4C5F43 
 10600              	.LASF221:
 10601 0743 4C565F4F 		.ascii	"LV_OBJ_FLAG_WIDGET_1\000"
 10601      424A5F46 
 10601      4C41475F 
 10601      57494447 
 10601      45545F31 
 10602              	.LASF222:
 10603 0758 4C565F4F 		.ascii	"LV_OBJ_FLAG_WIDGET_2\000"
 10603      424A5F46 
 10603      4C41475F 
 10603      57494447 
 10603      45545F32 
 10604              	.LASF63:
 10605 076d 4C565F53 		.ascii	"LV_STYLE_ALIGN\000"
 10605      54594C45 
 10605      5F414C49 
 10605      474E00
 10606              	.LASF3:
 10607 077c 756E7369 		.ascii	"unsigned char\000"
 10607      676E6564 
 10607      20636861 
 10607      7200
 10608              	.LASF299:
 10609 078a 4C565F45 		.ascii	"LV_EVENT_GET_SELF_SIZE\000"
 10609      56454E54 
 10609      5F474554 
 10609      5F53454C 
 10609      465F5349 
 10610              	.LASF276:
 10611 07a1 4C565F45 		.ascii	"LV_EVENT_DRAW_MAIN\000"
 10611      56454E54 
 10611      5F445241 
 10611      575F4D41 
 10611      494E00
 10612              	.LASF468:
 10613 07b4 2E2E5C2E 		.ascii	"..\\..\\..\\arduinoLCD\\test\\Pain Drain\\libraries"
ARM GAS  C:\Users\haske\AppData\Local\Temp\ccp0JrPn.s 			page 213


 10613      2E5C2E2E 
 10613      5C617264 
 10613      75696E6F 
 10613      4C43445C 
 10614 07e1 5C6C7667 		.ascii	"\\lvgl\\src\\extra\\widgets\\menu\\lv_menu.c\000"
 10614      6C5C7372 
 10614      635C6578 
 10614      7472615C 
 10614      77696467 
 10615              	.LASF137:
 10616 0808 4C565F53 		.ascii	"LV_STYLE_TRANSFORM_PIVOT_X\000"
 10616      54594C45 
 10616      5F545241 
 10616      4E53464F 
 10616      524D5F50 
 10617              	.LASF138:
 10618 0823 4C565F53 		.ascii	"LV_STYLE_TRANSFORM_PIVOT_Y\000"
 10618      54594C45 
 10618      5F545241 
 10618      4E53464F 
 10618      524D5F50 
 10619              	.LASF429:
 10620 083e 5F6C765F 		.ascii	"_lv_ll_init\000"
 10620      6C6C5F69 
 10620      6E697400 
 10621              	.LASF306:
 10622 084a 6C765F67 		.ascii	"lv_group_t\000"
 10622      726F7570 
 10622      5F7400
 10623              	.LASF320:
 10624 0855 5F6C765F 		.ascii	"_lv_obj_spec_attr_t\000"
 10624      6F626A5F 
 10624      73706563 
 10624      5F617474 
 10624      725F7400 
 10625              	.LASF103:
 10626 0869 4C565F53 		.ascii	"LV_STYLE_IMG_RECOLOR\000"
 10626      54594C45 
 10626      5F494D47 
 10626      5F524543 
 10626      4F4C4F52 
 10627              	.LASF111:
 10628 087e 4C565F53 		.ascii	"LV_STYLE_ARC_WIDTH\000"
 10628      54594C45 
 10628      5F415243 
 10628      5F574944 
 10628      544800
 10629              	.LASF380:
 10630 0891 6C765F6D 		.ascii	"lv_menu_create\000"
 10630      656E755F 
 10630      63726561 
 10630      746500
 10631              	.LASF30:
 10632 08a0 6F66735F 		.ascii	"ofs_x\000"
 10632      7800
 10633              	.LASF31:
 10634 08a6 6F66735F 		.ascii	"ofs_y\000"
ARM GAS  C:\Users\haske\AppData\Local\Temp\ccp0JrPn.s 			page 214


 10634      7900
 10635              	.LASF371:
 10636 08ac 6C765F6D 		.ascii	"lv_menu_constructor\000"
 10636      656E755F 
 10636      636F6E73 
 10636      74727563 
 10636      746F7200 
 10637              	.LASF421:
 10638 08c0 4C565F53 		.ascii	"LV_STYLE_FLEX_CROSS_PLACE\000"
 10638      54594C45 
 10638      5F464C45 
 10638      585F4352 
 10638      4F53535F 
 10639              	.LASF167:
 10640 08da 685F6C61 		.ascii	"h_layout\000"
 10640      796F7574 
 10640      00
 10641              	.LASF411:
 10642 08e3 6C765F6D 		.ascii	"lv_menu_cont_class\000"
 10642      656E755F 
 10642      636F6E74 
 10642      5F636C61 
 10642      737300
 10643              	.LASF329:
 10644 08f6 6C765F6D 		.ascii	"lv_menu_load_page_event_data_t\000"
 10644      656E755F 
 10644      6C6F6164 
 10644      5F706167 
 10644      655F6576 
 10645              	.LASF43:
 10646 0915 5F426F6F 		.ascii	"_Bool\000"
 10646      6C00
 10647              	.LASF314:
 10648 091b 7363726F 		.ascii	"scrollbar_mode\000"
 10648      6C6C6261 
 10648      725F6D6F 
 10648      646500
 10649              	.LASF133:
 10650 092a 4C565F53 		.ascii	"LV_STYLE_TRANSLATE_X\000"
 10650      54594C45 
 10650      5F545241 
 10650      4E534C41 
 10650      54455F58 
 10651              	.LASF134:
 10652 093f 4C565F53 		.ascii	"LV_STYLE_TRANSLATE_Y\000"
 10652      54594C45 
 10652      5F545241 
 10652      4E534C41 
 10652      54455F59 
 10653              	.LASF467:
 10654 0954 474E5520 		.ascii	"GNU C11 5.4.1 20160609 (release) [ARM/embedded-5-br"
 10654      43313120 
 10654      352E342E 
 10654      31203230 
 10654      31363036 
 10655 0987 616E6368 		.ascii	"anch revision 237715] -mcpu=cortex-m0plus -mthumb -"
 10655      20726576 
ARM GAS  C:\Users\haske\AppData\Local\Temp\ccp0JrPn.s 			page 215


 10655      6973696F 
 10655      6E203233 
 10655      37373135 
 10656 09ba 67202D4F 		.ascii	"g -Og -ffunction-sections -ffat-lto-objects\000"
 10656      67202D66 
 10656      66756E63 
 10656      74696F6E 
 10656      2D736563 
 10657              	.LASF252:
 10658 09e6 73746F70 		.ascii	"stop_processing\000"
 10658      5F70726F 
 10658      63657373 
 10658      696E6700 
 10659              	.LASF145:
 10660 09f6 76616C75 		.ascii	"value\000"
 10660      6500
 10661              	.LASF161:
 10662 09fc 666C6167 		.ascii	"flags\000"
 10662      7300
 10663              	.LASF251:
 10664 0a02 64656C65 		.ascii	"deleted\000"
 10664      74656400 
 10665              	.LASF401:
 10666 0a0a 6C765F6D 		.ascii	"lv_menu_refr\000"
 10666      656E755F 
 10666      72656672 
 10666      00
 10667              	.LASF46:
 10668 0a17 63686172 		.ascii	"char\000"
 10668      00
 10669              	.LASF386:
 10670 0a1c 6C765F6D 		.ascii	"lv_menu_set_load_page_event\000"
 10670      656E755F 
 10670      7365745F 
 10670      6C6F6164 
 10670      5F706167 
 10671              	.LASF38:
 10672 0a38 756E6465 		.ascii	"underline_position\000"
 10672      726C696E 
 10672      655F706F 
 10672      73697469 
 10672      6F6E00
 10673              	.LASF434:
 10674 0a4b 6C765F6F 		.ascii	"lv_obj_set_height\000"
 10674      626A5F73 
 10674      65745F68 
 10674      65696768 
 10674      7400
 10675              	.LASF273:
 10676 0a5d 4C565F45 		.ascii	"LV_EVENT_COVER_CHECK\000"
 10676      56454E54 
 10676      5F434F56 
 10676      45525F43 
 10676      4845434B 
 10677              	.LASF72:
 10678 0a72 4C565F53 		.ascii	"LV_STYLE_BASE_DIR\000"
 10678      54594C45 
ARM GAS  C:\Users\haske\AppData\Local\Temp\ccp0JrPn.s 			page 216


 10678      5F424153 
 10678      455F4449 
 10678      5200
 10679              	.LASF94:
 10680 0a84 4C565F53 		.ascii	"LV_STYLE_OUTLINE_OPA\000"
 10680      54594C45 
 10680      5F4F5554 
 10680      4C494E45 
 10680      5F4F5041 
 10681              	.LASF367:
 10682 0a99 4C565F46 		.ascii	"LV_FLEX_FLOW_COLUMN_WRAP_REVERSE\000"
 10682      4C45585F 
 10682      464C4F57 
 10682      5F434F4C 
 10682      554D4E5F 
 10683              	.LASF6:
 10684 0aba 5F5F7569 		.ascii	"__uint16_t\000"
 10684      6E743136 
 10684      5F7400
 10685              	.LASF190:
 10686 0ac5 4C565F53 		.ascii	"LV_STATE_SCROLLED\000"
 10686      54415445 
 10686      5F534352 
 10686      4F4C4C45 
 10686      4400
 10687              	.LASF272:
 10688 0ad7 4C565F45 		.ascii	"LV_EVENT_HIT_TEST\000"
 10688      56454E54 
 10688      5F484954 
 10688      5F544553 
 10688      5400
 10689              	.LASF74:
 10690 0ae9 4C565F53 		.ascii	"LV_STYLE_BG_COLOR\000"
 10690      54594C45 
 10690      5F42475F 
 10690      434F4C4F 
 10690      5200
 10691              	.LASF104:
 10692 0afb 4C565F53 		.ascii	"LV_STYLE_IMG_RECOLOR_OPA\000"
 10692      54594C45 
 10692      5F494D47 
 10692      5F524543 
 10692      4F4C4F52 
 10693              	.LASF130:
 10694 0b14 4C565F53 		.ascii	"LV_STYLE_BLEND_MODE\000"
 10694      54594C45 
 10694      5F424C45 
 10694      4E445F4D 
 10694      4F444500 
 10695              	.LASF25:
 10696 0b28 6C765F64 		.ascii	"lv_dir_t\000"
 10696      69725F74 
 10696      00
 10697              	.LASF294:
 10698 0b31 4C565F45 		.ascii	"LV_EVENT_SCREEN_LOADED\000"
 10698      56454E54 
 10698      5F534352 
ARM GAS  C:\Users\haske\AppData\Local\Temp\ccp0JrPn.s 			page 217


 10698      45454E5F 
 10698      4C4F4144 
 10699              	.LASF144:
 10700 0b48 70726F70 		.ascii	"prop\000"
 10700      00
 10701              	.LASF149:
 10702 0b4d 636F6E73 		.ascii	"const_props\000"
 10702      745F7072 
 10702      6F707300 
 10703              	.LASF433:
 10704 0b59 6C765F6F 		.ascii	"lv_obj_class_init_obj\000"
 10704      626A5F63 
 10704      6C617373 
 10704      5F696E69 
 10704      745F6F62 
 10705              	.LASF234:
 10706 0b6f 5F6C765F 		.ascii	"_lv_obj_style_t\000"
 10706      6F626A5F 
 10706      7374796C 
 10706      655F7400 
 10707              	.LASF187:
 10708 0b7f 4C565F53 		.ascii	"LV_STATE_EDITED\000"
 10708      54415445 
 10708      5F454449 
 10708      54454400 
 10709              	.LASF395:
 10710 0b8f 6C765F6D 		.ascii	"lv_menu_clear_history\000"
 10710      656E755F 
 10710      636C6561 
 10710      725F6869 
 10710      73746F72 
 10711              	.LASF310:
 10712 0ba5 6576656E 		.ascii	"event_dsc\000"
 10712      745F6473 
 10712      6300
 10713              	.LASF415:
 10714 0baf 6C765F6D 		.ascii	"lv_menu_main_cont_class\000"
 10714      656E755F 
 10714      6D61696E 
 10714      5F636F6E 
 10714      745F636C 
 10715              	.LASF370:
 10716 0bc7 6C765F6D 		.ascii	"lv_menu_cont_constructor\000"
 10716      656E755F 
 10716      636F6E74 
 10716      5F636F6E 
 10716      73747275 
 10717              	.LASF346:
 10718 0be0 6375725F 		.ascii	"cur_depth\000"
 10718      64657074 
 10718      6800
 10719              	.LASF106:
 10720 0bea 4C565F53 		.ascii	"LV_STYLE_LINE_DASH_WIDTH\000"
 10720      54594C45 
 10720      5F4C494E 
 10720      455F4441 
 10720      53485F57 
ARM GAS  C:\Users\haske\AppData\Local\Temp\ccp0JrPn.s 			page 218


 10721              	.LASF131:
 10722 0c03 4C565F53 		.ascii	"LV_STYLE_TRANSFORM_WIDTH\000"
 10722      54594C45 
 10722      5F545241 
 10722      4E53464F 
 10722      524D5F57 
 10723              	.LASF309:
 10724 0c1c 67726F75 		.ascii	"group_p\000"
 10724      705F7000 
 10725              	.LASF143:
 10726 0c24 6C765F73 		.ascii	"lv_style_prop_t\000"
 10726      74796C65 
 10726      5F70726F 
 10726      705F7400 
 10727              	.LASF311:
 10728 0c34 7363726F 		.ascii	"scroll\000"
 10728      6C6C00
 10729              	.LASF40:
 10730 0c3b 66616C6C 		.ascii	"fallback\000"
 10730      6261636B 
 10730      00
 10731              	.LASF148:
 10732 0c44 76616C75 		.ascii	"values_and_props\000"
 10732      65735F61 
 10732      6E645F70 
 10732      726F7073 
 10732      00
 10733              	.LASF319:
 10734 0c55 6C617965 		.ascii	"layer_type\000"
 10734      725F7479 
 10734      706500
 10735              	.LASF128:
 10736 0c60 4C565F53 		.ascii	"LV_STYLE_ANIM_SPEED\000"
 10736      54594C45 
 10736      5F414E49 
 10736      4D5F5350 
 10736      45454400 
 10737              	.LASF24:
 10738 0c74 6C765F61 		.ascii	"lv_area_t\000"
 10738      7265615F 
 10738      7400
 10739              	.LASF92:
 10740 0c7e 4C565F53 		.ascii	"LV_STYLE_OUTLINE_WIDTH\000"
 10740      54594C45 
 10740      5F4F5554 
 10740      4C494E45 
 10740      5F574944 
 10741              	.LASF313:
 10742 0c95 6578745F 		.ascii	"ext_draw_size\000"
 10742      64726177 
 10742      5F73697A 
 10742      6500
 10743              	.LASF305:
 10744 0ca3 6C765F67 		.ascii	"lv_group_edge_cb_t\000"
 10744      726F7570 
 10744      5F656467 
 10744      655F6362 
ARM GAS  C:\Users\haske\AppData\Local\Temp\ccp0JrPn.s 			page 219


 10744      5F7400
 10745              	.LASF223:
 10746 0cb6 4C565F4F 		.ascii	"LV_OBJ_FLAG_USER_1\000"
 10746      424A5F46 
 10746      4C41475F 
 10746      55534552 
 10746      5F3100
 10747              	.LASF224:
 10748 0cc9 4C565F4F 		.ascii	"LV_OBJ_FLAG_USER_2\000"
 10748      424A5F46 
 10748      4C41475F 
 10748      55534552 
 10748      5F3200
 10749              	.LASF225:
 10750 0cdc 4C565F4F 		.ascii	"LV_OBJ_FLAG_USER_3\000"
 10750      424A5F46 
 10750      4C41475F 
 10750      55534552 
 10750      5F3300
 10751              	.LASF226:
 10752 0cef 4C565F4F 		.ascii	"LV_OBJ_FLAG_USER_4\000"
 10752      424A5F46 
 10752      4C41475F 
 10752      55534552 
 10752      5F3400
 10753              	.LASF387:
 10754 0d02 6C765F6D 		.ascii	"lv_menu_get_cur_main_page\000"
 10754      656E755F 
 10754      6765745F 
 10754      6375725F 
 10754      6D61696E 
 10755              	.LASF262:
 10756 0d1c 4C565F45 		.ascii	"LV_EVENT_CLICKED\000"
 10756      56454E54 
 10756      5F434C49 
 10756      434B4544 
 10756      00
 10757              	.LASF54:
 10758 0d2d 4C565F53 		.ascii	"LV_STYLE_PROP_INV\000"
 10758      54594C45 
 10758      5F50524F 
 10758      505F494E 
 10758      5600
 10759              	.LASF368:
 10760 0d3f 6C765F6D 		.ascii	"lv_menu_destructor\000"
 10760      656E755F 
 10760      64657374 
 10760      72756374 
 10760      6F7200
 10761              	.LASF120:
 10762 0d52 4C565F53 		.ascii	"LV_STYLE_TEXT_LINE_SPACE\000"
 10762      54594C45 
 10762      5F544558 
 10762      545F4C49 
 10762      4E455F53 
 10763              	.LASF254:
 10764 0d6b 6C765F6F 		.ascii	"lv_obj_class_t\000"
ARM GAS  C:\Users\haske\AppData\Local\Temp\ccp0JrPn.s 			page 220


 10764      626A5F63 
 10764      6C617373 
 10764      5F7400
 10765              	.LASF146:
 10766 0d7a 6C765F73 		.ascii	"lv_style_const_prop_t\000"
 10766      74796C65 
 10766      5F636F6E 
 10766      73745F70 
 10766      726F705F 
 10767              	.LASF277:
 10768 0d90 4C565F45 		.ascii	"LV_EVENT_DRAW_MAIN_END\000"
 10768      56454E54 
 10768      5F445241 
 10768      575F4D41 
 10768      494E5F45 
 10769              	.LASF157:
 10770 0da7 70617265 		.ascii	"parent\000"
 10770      6E7400
 10771              	.LASF384:
 10772 0dae 6C765F6D 		.ascii	"lv_menu_separator_create\000"
 10772      656E755F 
 10772      73657061 
 10772      7261746F 
 10772      725F6372 
 10773              	.LASF419:
 10774 0dc7 4C565F53 		.ascii	"LV_STYLE_FLEX_FLOW\000"
 10774      54594C45 
 10774      5F464C45 
 10774      585F464C 
 10774      4F5700
 10775              	.LASF465:
 10776 0dda 6C765F67 		.ascii	"lv_group_get_default\000"
 10776      726F7570 
 10776      5F676574 
 10776      5F646566 
 10776      61756C74 
 10777              	.LASF233:
 10778 0def 69735F74 		.ascii	"is_trans\000"
 10778      72616E73 
 10778      00
 10779              	.LASF456:
 10780 0df8 5F6C765F 		.ascii	"_lv_ll_ins_head\000"
 10780      6C6C5F69 
 10780      6E735F68 
 10780      65616400 
 10781              	.LASF127:
 10782 0e08 4C565F53 		.ascii	"LV_STYLE_ANIM_TIME\000"
 10782      54594C45 
 10782      5F414E49 
 10782      4D5F5449 
 10782      4D4500
 10783              	.LASF67:
 10784 0e1b 4C565F53 		.ascii	"LV_STYLE_PAD_BOTTOM\000"
 10784      54594C45 
 10784      5F504144 
 10784      5F424F54 
 10784      544F4D00 
ARM GAS  C:\Users\haske\AppData\Local\Temp\ccp0JrPn.s 			page 221


 10785              	.LASF240:
 10786 0e2f 77696474 		.ascii	"width_def\000"
 10786      685F6465 
 10786      6600
 10787              	.LASF217:
 10788 0e39 4C565F4F 		.ascii	"LV_OBJ_FLAG_FLOATING\000"
 10788      424A5F46 
 10788      4C41475F 
 10788      464C4F41 
 10788      54494E47 
 10789              	.LASF458:
 10790 0e4e 6C765F6F 		.ascii	"lv_obj_clear_state\000"
 10790      626A5F63 
 10790      6C656172 
 10790      5F737461 
 10790      746500
 10791              	.LASF207:
 10792 0e61 4C565F4F 		.ascii	"LV_OBJ_FLAG_SCROLL_CHAIN_VER\000"
 10792      424A5F46 
 10792      4C41475F 
 10792      5343524F 
 10792      4C4C5F43 
 10793              	.LASF75:
 10794 0e7e 4C565F53 		.ascii	"LV_STYLE_BG_OPA\000"
 10794      54594C45 
 10794      5F42475F 
 10794      4F504100 
 10795              	.LASF110:
 10796 0e8e 4C565F53 		.ascii	"LV_STYLE_LINE_OPA\000"
 10796      54594C45 
 10796      5F4C494E 
 10796      455F4F50 
 10796      4100
 10797              	.LASF153:
 10798 0ea0 6C765F73 		.ascii	"lv_style_t\000"
 10798      74796C65 
 10798      5F7400
 10799              	.LASF459:
 10800 0eab 6C765F65 		.ascii	"lv_event_get_target\000"
 10800      76656E74 
 10800      5F676574 
 10800      5F746172 
 10800      67657400 
 10801              	.LASF218:
 10802 0ebf 4C565F4F 		.ascii	"LV_OBJ_FLAG_OVERFLOW_VISIBLE\000"
 10802      424A5F46 
 10802      4C41475F 
 10802      4F564552 
 10802      464C4F57 
 10803              	.LASF159:
 10804 0edc 7374796C 		.ascii	"styles\000"
 10804      657300
 10805              	.LASF441:
 10806 0ee3 6C765F6C 		.ascii	"lv_label_create\000"
 10806      6162656C 
 10806      5F637265 
 10806      61746500 
ARM GAS  C:\Users\haske\AppData\Local\Temp\ccp0JrPn.s 			page 222


 10807              	.LASF308:
 10808 0ef3 6368696C 		.ascii	"child_cnt\000"
 10808      645F636E 
 10808      7400
 10809              	.LASF102:
 10810 0efd 4C565F53 		.ascii	"LV_STYLE_IMG_OPA\000"
 10810      54594C45 
 10810      5F494D47 
 10810      5F4F5041 
 10810      00
 10811              	.LASF135:
 10812 0f0e 4C565F53 		.ascii	"LV_STYLE_TRANSFORM_ZOOM\000"
 10812      54594C45 
 10812      5F545241 
 10812      4E53464F 
 10812      524D5F5A 
 10813              	.LASF271:
 10814 0f26 4C565F45 		.ascii	"LV_EVENT_LEAVE\000"
 10814      56454E54 
 10814      5F4C4541 
 10814      564500
 10815              	.LASF11:
 10816 0f35 6C6F6E67 		.ascii	"long unsigned int\000"
 10816      20756E73 
 10816      69676E65 
 10816      6420696E 
 10816      7400
 10817              	.LASF402:
 10818 0f47 6C765F6D 		.ascii	"lv_menu_set_sidebar_page\000"
 10818      656E755F 
 10818      7365745F 
 10818      73696465 
 10818      6261725F 
 10819              	.LASF316:
 10820 0f60 7363726F 		.ascii	"scroll_snap_y\000"
 10820      6C6C5F73 
 10820      6E61705F 
 10820      7900
 10821              	.LASF204:
 10822 0f6e 4C565F4F 		.ascii	"LV_OBJ_FLAG_SCROLL_MOMENTUM\000"
 10822      424A5F46 
 10822      4C41475F 
 10822      5343524F 
 10822      4C4C5F4D 
 10823              	.LASF117:
 10824 0f8a 4C565F53 		.ascii	"LV_STYLE_TEXT_OPA\000"
 10824      54594C45 
 10824      5F544558 
 10824      545F4F50 
 10824      4100
 10825              	.LASF452:
 10826 0f9c 73747263 		.ascii	"strcpy\000"
 10826      707900
 10827              	.LASF249:
 10828 0fa3 70617261 		.ascii	"param\000"
 10828      6D00
 10829              	.LASF246:
ARM GAS  C:\Users\haske\AppData\Local\Temp\ccp0JrPn.s 			page 223


 10830 0fa9 74617267 		.ascii	"target\000"
 10830      657400
 10831              	.LASF242:
 10832 0fb0 65646974 		.ascii	"editable\000"
 10832      61626C65 
 10832      00
 10833              	.LASF213:
 10834 0fb9 4C565F4F 		.ascii	"LV_OBJ_FLAG_EVENT_BUBBLE\000"
 10834      424A5F46 
 10834      4C41475F 
 10834      4556454E 
 10834      545F4255 
 10835              	.LASF26:
 10836 0fd2 7265736F 		.ascii	"resolved_font\000"
 10836      6C766564 
 10836      5F666F6E 
 10836      7400
 10837              	.LASF201:
 10838 0fe0 4C565F4F 		.ascii	"LV_OBJ_FLAG_CHECKABLE\000"
 10838      424A5F46 
 10838      4C41475F 
 10838      43484543 
 10838      4B41424C 
 10839              	.LASF175:
 10840 0ff6 6F626A5F 		.ascii	"obj_ll\000"
 10840      6C6C00
 10841              	.LASF364:
 10842 0ffd 4C565F46 		.ascii	"LV_FLEX_FLOW_ROW_WRAP_REVERSE\000"
 10842      4C45585F 
 10842      464C4F57 
 10842      5F524F57 
 10842      5F575241 
 10843              	.LASF109:
 10844 101b 4C565F53 		.ascii	"LV_STYLE_LINE_COLOR\000"
 10844      54594C45 
 10844      5F4C494E 
 10844      455F434F 
 10844      4C4F5200 
 10845              	.LASF198:
 10846 102f 4C565F4F 		.ascii	"LV_OBJ_FLAG_HIDDEN\000"
 10846      424A5F46 
 10846      4C41475F 
 10846      48494444 
 10846      454E00
 10847              	.LASF70:
 10848 1042 4C565F53 		.ascii	"LV_STYLE_PAD_ROW\000"
 10848      54594C45 
 10848      5F504144 
 10848      5F524F57 
 10848      00
 10849              	.LASF191:
 10850 1053 4C565F53 		.ascii	"LV_STATE_DISABLED\000"
 10850      54415445 
 10850      5F444953 
 10850      41424C45 
 10850      4400
 10851              	.LASF285:
ARM GAS  C:\Users\haske\AppData\Local\Temp\ccp0JrPn.s 			page 224


 10852 1065 4C565F45 		.ascii	"LV_EVENT_REFRESH\000"
 10852      56454E54 
 10852      5F524546 
 10852      52455348 
 10852      00
 10853              	.LASF244:
 10854 1076 696E7374 		.ascii	"instance_size\000"
 10854      616E6365 
 10854      5F73697A 
 10854      6500
 10855              	.LASF332:
 10856 1084 6C765F6D 		.ascii	"lv_menu_history_t\000"
 10856      656E755F 
 10856      68697374 
 10856      6F72795F 
 10856      7400
 10857              	.LASF68:
 10858 1096 4C565F53 		.ascii	"LV_STYLE_PAD_LEFT\000"
 10858      54594C45 
 10858      5F504144 
 10858      5F4C4546 
 10858      5400
 10859              	.LASF291:
 10860 10a8 4C565F45 		.ascii	"LV_EVENT_CHILD_DELETED\000"
 10860      56454E54 
 10860      5F434849 
 10860      4C445F44 
 10860      454C4554 
 10861              	.LASF274:
 10862 10bf 4C565F45 		.ascii	"LV_EVENT_REFR_EXT_DRAW_SIZE\000"
 10862      56454E54 
 10862      5F524546 
 10862      525F4558 
 10862      545F4452 
 10863              	.LASF448:
 10864 10db 6C765F6F 		.ascii	"lv_obj_update_layout\000"
 10864      626A5F75 
 10864      70646174 
 10864      655F6C61 
 10864      796F7574 
 10865              	.LASF435:
 10866 10f0 6C765F6F 		.ascii	"lv_obj_set_flex_grow\000"
 10866      626A5F73 
 10866      65745F66 
 10866      6C65785F 
 10866      67726F77 
 10867              	.LASF377:
 10868 1105 6C765F6D 		.ascii	"lv_menu_page_constructor\000"
 10868      656E755F 
 10868      70616765 
 10868      5F636F6E 
 10868      73747275 
 10869              	.LASF126:
 10870 111e 4C565F53 		.ascii	"LV_STYLE_ANIM\000"
 10870      54594C45 
 10870      5F414E49 
 10870      4D00
ARM GAS  C:\Users\haske\AppData\Local\Temp\ccp0JrPn.s 			page 225


 10871              	.LASF211:
 10872 112c 4C565F4F 		.ascii	"LV_OBJ_FLAG_SNAPPABLE\000"
 10872      424A5F46 
 10872      4C41475F 
 10872      534E4150 
 10872      5041424C 
 10873              	.LASF122:
 10874 1142 4C565F53 		.ascii	"LV_STYLE_TEXT_ALIGN\000"
 10874      54594C45 
 10874      5F544558 
 10874      545F414C 
 10874      49474E00 
 10875              	.LASF378:
 10876 1156 6C765F6D 		.ascii	"lv_menu_refr_main_header_mode\000"
 10876      656E755F 
 10876      72656672 
 10876      5F6D6169 
 10876      6E5F6865 
 10877              	.LASF358:
 10878 1174 4C565F46 		.ascii	"LV_FLEX_ALIGN_SPACE_AROUND\000"
 10878      4C45585F 
 10878      414C4947 
 10878      4E5F5350 
 10878      4143455F 
 10879              	.LASF154:
 10880 118f 5F6C765F 		.ascii	"_lv_font_t\000"
 10880      666F6E74 
 10880      5F7400
 10881              	.LASF10:
 10882 119a 5F5F7569 		.ascii	"__uint32_t\000"
 10882      6E743332 
 10882      5F7400
 10883              	.LASF239:
 10884 11a5 6576656E 		.ascii	"event_cb\000"
 10884      745F6362 
 10884      00
 10885              	.LASF302:
 10886 11ae 6C765F65 		.ascii	"lv_event_code_t\000"
 10886      76656E74 
 10886      5F636F64 
 10886      655F7400 
 10887              	.LASF245:
 10888 11be 5F6C765F 		.ascii	"_lv_event_t\000"
 10888      6576656E 
 10888      745F7400 
 10889              	.LASF12:
 10890 11ca 6C6F6E67 		.ascii	"long long int\000"
 10890      206C6F6E 
 10890      6720696E 
 10890      7400
 10891              	.LASF431:
 10892 11d8 6C765F6F 		.ascii	"lv_obj_add_flag\000"
 10892      626A5F61 
 10892      64645F66 
 10892      6C616700 
 10893              	.LASF266:
 10894 11e8 4C565F45 		.ascii	"LV_EVENT_SCROLL\000"
ARM GAS  C:\Users\haske\AppData\Local\Temp\ccp0JrPn.s 			page 226


 10894      56454E54 
 10894      5F534352 
 10894      4F4C4C00 
 10895              	.LASF406:
 10896 11f8 6C765F6D 		.ascii	"lv_menu_load_page_event_cb\000"
 10896      656E755F 
 10896      6C6F6164 
 10896      5F706167 
 10896      655F6576 
 10897              	.LASF214:
 10898 1213 4C565F4F 		.ascii	"LV_OBJ_FLAG_GESTURE_BUBBLE\000"
 10898      424A5F46 
 10898      4C41475F 
 10898      47455354 
 10898      5552455F 
 10899              	.LASF347:
 10900 122e 70726576 		.ascii	"prev_depth\000"
 10900      5F646570 
 10900      746800
 10901              	.LASF136:
 10902 1239 4C565F53 		.ascii	"LV_STYLE_TRANSFORM_ANGLE\000"
 10902      54594C45 
 10902      5F545241 
 10902      4E53464F 
 10902      524D5F41 
 10903              	.LASF363:
 10904 1252 4C565F46 		.ascii	"LV_FLEX_FLOW_ROW_REVERSE\000"
 10904      4C45585F 
 10904      464C4F57 
 10904      5F524F57 
 10904      5F524556 
 10905              	.LASF124:
 10906 126b 4C565F53 		.ascii	"LV_STYLE_COLOR_FILTER_DSC\000"
 10906      54594C45 
 10906      5F434F4C 
 10906      4F525F46 
 10906      494C5445 
 10907              	.LASF333:
 10908 1285 73746F72 		.ascii	"storage\000"
 10908      61676500 
 10909              	.LASF203:
 10910 128d 4C565F4F 		.ascii	"LV_OBJ_FLAG_SCROLL_ELASTIC\000"
 10910      424A5F46 
 10910      4C41475F 
 10910      5343524F 
 10910      4C4C5F45 
 10911              	.LASF39:
 10912 12a8 756E6465 		.ascii	"underline_thickness\000"
 10912      726C696E 
 10912      655F7468 
 10912      69636B6E 
 10912      65737300 
 10913              	.LASF121:
 10914 12bc 4C565F53 		.ascii	"LV_STYLE_TEXT_DECOR\000"
 10914      54594C45 
 10914      5F544558 
 10914      545F4445 
ARM GAS  C:\Users\haske\AppData\Local\Temp\ccp0JrPn.s 			page 227


 10914      434F5200 
 10915              	.LASF112:
 10916 12d0 4C565F53 		.ascii	"LV_STYLE_ARC_ROUNDED\000"
 10916      54594C45 
 10916      5F415243 
 10916      5F524F55 
 10916      4E444544 
 10917              	.LASF199:
 10918 12e5 4C565F4F 		.ascii	"LV_OBJ_FLAG_CLICKABLE\000"
 10918      424A5F46 
 10918      4C41475F 
 10918      434C4943 
 10918      4B41424C 
 10919              	.LASF165:
 10920 12fb 736B6970 		.ascii	"skip_trans\000"
 10920      5F747261 
 10920      6E7300
 10921              	.LASF116:
 10922 1306 4C565F53 		.ascii	"LV_STYLE_TEXT_COLOR\000"
 10922      54594C45 
 10922      5F544558 
 10922      545F434F 
 10922      4C4F5200 
 10923              	.LASF463:
 10924 131a 6C765F65 		.ascii	"lv_event_get_code\000"
 10924      76656E74 
 10924      5F676574 
 10924      5F636F64 
 10924      6500
 10925              	.LASF288:
 10926 132c 4C565F45 		.ascii	"LV_EVENT_DELETE\000"
 10926      56454E54 
 10926      5F44454C 
 10926      45544500 
 10927              	.LASF156:
 10928 133c 636C6173 		.ascii	"class_p\000"
 10928      735F7000 
 10929              	.LASF278:
 10930 1344 4C565F45 		.ascii	"LV_EVENT_DRAW_POST_BEGIN\000"
 10930      56454E54 
 10930      5F445241 
 10930      575F504F 
 10930      53545F42 
 10931              	.LASF14:
 10932 135d 756E7369 		.ascii	"unsigned int\000"
 10932      676E6564 
 10932      20696E74 
 10932      00
 10933              	.LASF416:
 10934 136a 6C765F6D 		.ascii	"lv_menu_sidebar_header_cont_class\000"
 10934      656E755F 
 10934      73696465 
 10934      6261725F 
 10934      68656164 
 10935              	.LASF53:
 10936 138c 6C765F73 		.ascii	"lv_style_value_t\000"
 10936      74796C65 
ARM GAS  C:\Users\haske\AppData\Local\Temp\ccp0JrPn.s 			page 228


 10936      5F76616C 
 10936      75655F74 
 10936      00
 10937              	.LASF432:
 10938 139d 6C765F6F 		.ascii	"lv_obj_class_create_obj\000"
 10938      626A5F63 
 10938      6C617373 
 10938      5F637265 
 10938      6174655F 
 10939              	.LASF457:
 10940 13b5 6C765F6F 		.ascii	"lv_obj_add_state\000"
 10940      626A5F61 
 10940      64645F73 
 10940      74617465 
 10940      00
 10941              	.LASF426:
 10942 13c6 6C765F6F 		.ascii	"lv_obj_clear_flag\000"
 10942      626A5F63 
 10942      6C656172 
 10942      5F666C61 
 10942      6700
 10943              	.LASF142:
 10944 13d8 5F4C565F 		.ascii	"_LV_STYLE_PROP_CONST\000"
 10944      5354594C 
 10944      455F5052 
 10944      4F505F43 
 10944      4F4E5354 
 10945              	.LASF283:
 10946 13ed 4C565F45 		.ascii	"LV_EVENT_VALUE_CHANGED\000"
 10946      56454E54 
 10946      5F56414C 
 10946      55455F43 
 10946      48414E47 
 10947              	.LASF403:
 10948 1404 73696465 		.ascii	"sidebar_cont\000"
 10948      6261725F 
 10948      636F6E74 
 10948      00
 10949              	.LASF209:
 10950 1411 4C565F4F 		.ascii	"LV_OBJ_FLAG_SCROLL_ON_FOCUS\000"
 10950      424A5F46 
 10950      4C41475F 
 10950      5343524F 
 10950      4C4C5F4F 
 10951              	.LASF400:
 10952 142d 70726576 		.ascii	"prev_hist\000"
 10952      5F686973 
 10952      7400
 10953              	.LASF381:
 10954 1437 6C765F6D 		.ascii	"lv_menu_page_create\000"
 10954      656E755F 
 10954      70616765 
 10954      5F637265 
 10954      61746500 
 10955              	.LASF413:
 10956 144b 6C765F6D 		.ascii	"lv_menu_separator_class\000"
 10956      656E755F 
ARM GAS  C:\Users\haske\AppData\Local\Temp\ccp0JrPn.s 			page 229


 10956      73657061 
 10956      7261746F 
 10956      725F636C 
 10957              	.LASF64:
 10958 1463 4C565F53 		.ascii	"LV_STYLE_LAYOUT\000"
 10958      54594C45 
 10958      5F4C4159 
 10958      4F555400 
 10959              	.LASF42:
 10960 1473 6C765F66 		.ascii	"lv_font_glyph_dsc_t\000"
 10960      6F6E745F 
 10960      676C7970 
 10960      685F6473 
 10960      635F7400 
 10961              	.LASF440:
 10962 1487 6C765F69 		.ascii	"lv_img_set_src\000"
 10962      6D675F73 
 10962      65745F73 
 10962      726300
 10963              	.LASF293:
 10964 1496 4C565F45 		.ascii	"LV_EVENT_SCREEN_LOAD_START\000"
 10964      56454E54 
 10964      5F534352 
 10964      45454E5F 
 10964      4C4F4144 
 10965              	.LASF253:
 10966 14b1 73746F70 		.ascii	"stop_bubbling\000"
 10966      5F627562 
 10966      626C696E 
 10966      6700
 10967              	.LASF96:
 10968 14bf 4C565F53 		.ascii	"LV_STYLE_SHADOW_WIDTH\000"
 10968      54594C45 
 10968      5F534841 
 10968      444F575F 
 10968      57494454 
 10969              	.LASF372:
 10970 14d5 6D61696E 		.ascii	"main_cont\000"
 10970      5F636F6E 
 10970      7400
 10971              	.LASF257:
 10972 14df 4C565F45 		.ascii	"LV_EVENT_PRESSING\000"
 10972      56454E54 
 10972      5F505245 
 10972      5353494E 
 10972      4700
 10973              	.LASF331:
 10974 14f1 70616765 		.ascii	"page\000"
 10974      00
 10975              	.LASF216:
 10976 14f6 4C565F4F 		.ascii	"LV_OBJ_FLAG_IGNORE_LAYOUT\000"
 10976      424A5F46 
 10976      4C41475F 
 10976      49474E4F 
 10976      52455F4C 
 10977              	.LASF444:
 10978 1510 6C765F6F 		.ascii	"lv_obj_get_parent\000"
ARM GAS  C:\Users\haske\AppData\Local\Temp\ccp0JrPn.s 			page 230


 10978      626A5F67 
 10978      65745F70 
 10978      6172656E 
 10978      7400
 10979              	.LASF73:
 10980 1522 4C565F53 		.ascii	"LV_STYLE_CLIP_CORNER\000"
 10980      54594C45 
 10980      5F434C49 
 10980      505F434F 
 10980      524E4552 
 10981              	.LASF236:
 10982 1537 62617365 		.ascii	"base_class\000"
 10982      5F636C61 
 10982      737300
 10983              	.LASF412:
 10984 1542 6C765F6D 		.ascii	"lv_menu_section_class\000"
 10984      656E755F 
 10984      73656374 
 10984      696F6E5F 
 10984      636C6173 
 10985              	.LASF259:
 10986 1558 4C565F45 		.ascii	"LV_EVENT_SHORT_CLICKED\000"
 10986      56454E54 
 10986      5F53484F 
 10986      52545F43 
 10986      4C49434B 
 10987              	.LASF397:
 10988 156f 6E65775F 		.ascii	"new_node\000"
 10988      6E6F6465 
 10988      00
 10989              	.LASF351:
 10990 1578 6C765F6D 		.ascii	"lv_menu_t\000"
 10990      656E755F 
 10990      7400
 10991              	.LASF261:
 10992 1582 4C565F45 		.ascii	"LV_EVENT_LONG_PRESSED_REPEAT\000"
 10992      56454E54 
 10992      5F4C4F4E 
 10992      475F5052 
 10992      45535345 
 10993              	.LASF177:
 10994 159f 666F6375 		.ascii	"focus_cb\000"
 10994      735F6362 
 10994      00
 10995              	.LASF385:
 10996 15a8 6C765F6D 		.ascii	"lv_menu_set_mode_header\000"
 10996      656E755F 
 10996      7365745F 
 10996      6D6F6465 
 10996      5F686561 
 10997              	.LASF189:
 10998 15c0 4C565F53 		.ascii	"LV_STATE_PRESSED\000"
 10998      54415445 
 10998      5F505245 
 10998      53534544 
 10998      00
 10999              	.LASF393:
ARM GAS  C:\Users\haske\AppData\Local\Temp\ccp0JrPn.s 			page 231


 11000 15d1 6C765F6D 		.ascii	"lv_menu_get_sidebar_header_back_btn\000"
 11000      656E755F 
 11000      6765745F 
 11000      73696465 
 11000      6261725F 
 11001              	.LASF125:
 11002 15f5 4C565F53 		.ascii	"LV_STYLE_COLOR_FILTER_OPA\000"
 11002      54594C45 
 11002      5F434F4C 
 11002      4F525F46 
 11002      494C5445 
 11003              	.LASF326:
 11004 160f 4C565F4D 		.ascii	"LV_MENU_ROOT_BACK_BTN_DISABLED\000"
 11004      454E555F 
 11004      524F4F54 
 11004      5F424143 
 11004      4B5F4254 
 11005              	.LASF21:
 11006 162e 6C6F6E67 		.ascii	"long double\000"
 11006      20646F75 
 11006      626C6500 
 11007              	.LASF230:
 11008 163a 7374796C 		.ascii	"style\000"
 11008      6500
 11009              	.LASF229:
 11010 1640 6C765F73 		.ascii	"lv_scroll_snap_t\000"
 11010      63726F6C 
 11010      6C5F736E 
 11010      61705F74 
 11010      00
 11011              	.LASF37:
 11012 1651 73756270 		.ascii	"subpx\000"
 11012      7800
 11013              	.LASF396:
 11014 1657 6C765F6D 		.ascii	"lv_menu_set_page\000"
 11014      656E755F 
 11014      7365745F 
 11014      70616765 
 11014      00
 11015              	.LASF409:
 11016 1668 6C765F6D 		.ascii	"lv_menu_class\000"
 11016      656E755F 
 11016      636C6173 
 11016      7300
 11017              	.LASF256:
 11018 1676 4C565F45 		.ascii	"LV_EVENT_PRESSED\000"
 11018      56454E54 
 11018      5F505245 
 11018      53534544 
 11018      00
 11019              	.LASF287:
 11020 1687 4C565F45 		.ascii	"LV_EVENT_CANCEL\000"
 11020      56454E54 
 11020      5F43414E 
 11020      43454C00 
 11021              	.LASF87:
 11022 1697 4C565F53 		.ascii	"LV_STYLE_BORDER_COLOR\000"
ARM GAS  C:\Users\haske\AppData\Local\Temp\ccp0JrPn.s 			page 232


 11022      54594C45 
 11022      5F424F52 
 11022      4445525F 
 11022      434F4C4F 
 11023              	.LASF322:
 11024 16ad 4C565F4D 		.ascii	"LV_MENU_HEADER_TOP_FIXED\000"
 11024      454E555F 
 11024      48454144 
 11024      45525F54 
 11024      4F505F46 
 11025              	.LASF0:
 11026 16c6 5F5F696E 		.ascii	"__int8_t\000"
 11026      74385F74 
 11026      00
 11027              	.LASF300:
 11028 16cf 5F4C565F 		.ascii	"_LV_EVENT_LAST\000"
 11028      4556454E 
 11028      545F4C41 
 11028      535400
 11029              	.LASF180:
 11030 16de 65646974 		.ascii	"editing\000"
 11030      696E6700 
 11031              	.LASF341:
 11032 16e6 73696465 		.ascii	"sidebar_header\000"
 11032      6261725F 
 11032      68656164 
 11032      657200
 11033              	.LASF13:
 11034 16f5 6C6F6E67 		.ascii	"long long unsigned int\000"
 11034      206C6F6E 
 11034      6720756E 
 11034      7369676E 
 11034      65642069 
 11035              	.LASF295:
 11036 170c 4C565F45 		.ascii	"LV_EVENT_SCREEN_UNLOADED\000"
 11036      56454E54 
 11036      5F534352 
 11036      45454E5F 
 11036      554E4C4F 
 11037              	.LASF79:
 11038 1725 4C565F53 		.ascii	"LV_STYLE_BG_GRAD_STOP\000"
 11038      54594C45 
 11038      5F42475F 
 11038      47524144 
 11038      5F53544F 
 11039              	.LASF90:
 11040 173b 4C565F53 		.ascii	"LV_STYLE_BORDER_SIDE\000"
 11040      54594C45 
 11040      5F424F52 
 11040      4445525F 
 11040      53494445 
 11041              	.LASF304:
 11042 1750 6C765F67 		.ascii	"lv_group_focus_cb_t\000"
 11042      726F7570 
 11042      5F666F63 
 11042      75735F63 
 11042      625F7400 
ARM GAS  C:\Users\haske\AppData\Local\Temp\ccp0JrPn.s 			page 233


 11043              	.LASF235:
 11044 1764 5F6C765F 		.ascii	"_lv_obj_class_t\000"
 11044      6F626A5F 
 11044      636C6173 
 11044      735F7400 
 11045              	.LASF18:
 11046 1774 75696E74 		.ascii	"uint16_t\000"
 11046      31365F74 
 11046      00
 11047              	.LASF182:
 11048 177d 77726170 		.ascii	"wrap\000"
 11048      00
 11049              	.LASF51:
 11050 1782 6C765F63 		.ascii	"lv_color_t\000"
 11050      6F6C6F72 
 11050      5F7400
 11051              	.LASF389:
 11052 178d 6C765F6D 		.ascii	"lv_menu_value_changed_event_cb\000"
 11052      656E755F 
 11052      76616C75 
 11052      655F6368 
 11052      616E6765 
 11053              	.LASF55:
 11054 17ac 4C565F53 		.ascii	"LV_STYLE_WIDTH\000"
 11054      54594C45 
 11054      5F574944 
 11054      544800
 11055              	.LASF56:
 11056 17bb 4C565F53 		.ascii	"LV_STYLE_MIN_WIDTH\000"
 11056      54594C45 
 11056      5F4D494E 
 11056      5F574944 
 11056      544800
 11057              	.LASF376:
 11058 17ce 6576656E 		.ascii	"event_data\000"
 11058      745F6461 
 11058      746100
 11059              	.LASF97:
 11060 17d9 4C565F53 		.ascii	"LV_STYLE_SHADOW_OFS_X\000"
 11060      54594C45 
 11060      5F534841 
 11060      444F575F 
 11060      4F46535F 
 11061              	.LASF98:
 11062 17ef 4C565F53 		.ascii	"LV_STYLE_SHADOW_OFS_Y\000"
 11062      54594C45 
 11062      5F534841 
 11062      444F575F 
 11062      4F46535F 
 11063              	.LASF82:
 11064 1805 4C565F53 		.ascii	"LV_STYLE_BG_IMG_SRC\000"
 11064      54594C45 
 11064      5F42475F 
 11064      494D475F 
 11064      53524300 
 11065              	.LASF375:
 11066 1819 6C765F6D 		.ascii	"lv_menu_obj_del_event_cb\000"
ARM GAS  C:\Users\haske\AppData\Local\Temp\ccp0JrPn.s 			page 234


 11066      656E755F 
 11066      6F626A5F 
 11066      64656C5F 
 11066      6576656E 
 11067              	.LASF115:
 11068 1832 4C565F53 		.ascii	"LV_STYLE_ARC_IMG_SRC\000"
 11068      54594C45 
 11068      5F415243 
 11068      5F494D47 
 11068      5F535243 
 11069              	.LASF147:
 11070 1847 76616C75 		.ascii	"value1\000"
 11070      653100
 11071              	.LASF343:
 11072 184e 73696465 		.ascii	"sidebar_header_title\000"
 11072      6261725F 
 11072      68656164 
 11072      65725F74 
 11072      69746C65 
 11073              	.LASF461:
 11074 1863 5F6C765F 		.ascii	"_lv_ll_get_next\000"
 11074      6C6C5F67 
 11074      65745F6E 
 11074      65787400 
 11075              	.LASF4:
 11076 1873 5F5F696E 		.ascii	"__int16_t\000"
 11076      7431365F 
 11076      7400
 11077              	.LASF118:
 11078 187d 4C565F53 		.ascii	"LV_STYLE_TEXT_FONT\000"
 11078      54594C45 
 11078      5F544558 
 11078      545F464F 
 11078      4E5400
 11079              	.LASF425:
 11080 1890 6C765F6F 		.ascii	"lv_obj_set_flex_flow\000"
 11080      626A5F73 
 11080      65745F66 
 11080      6C65785F 
 11080      666C6F77 
 11081              	.LASF408:
 11082 18a5 6C765F6F 		.ascii	"lv_obj_class\000"
 11082      626A5F63 
 11082      6C617373 
 11082      00
 11083              	.LASF141:
 11084 18b2 4C565F53 		.ascii	"LV_STYLE_PROP_ANY\000"
 11084      54594C45 
 11084      5F50524F 
 11084      505F414E 
 11084      5900
 11085              	.LASF451:
 11086 18c4 6C765F6D 		.ascii	"lv_mem_alloc\000"
 11086      656D5F61 
 11086      6C6C6F63 
 11086      00
 11087              	.LASF49:
ARM GAS  C:\Users\haske\AppData\Local\Temp\ccp0JrPn.s 			page 235


 11088 18d1 66756C6C 		.ascii	"full\000"
 11088      00
 11089              	.LASF52:
 11090 18d6 636F6C6F 		.ascii	"color\000"
 11090      7200
 11091              	.LASF248:
 11092 18dc 636F6465 		.ascii	"code\000"
 11092      00
 11093              	.LASF301:
 11094 18e1 4C565F45 		.ascii	"LV_EVENT_PREPROCESS\000"
 11094      56454E54 
 11094      5F505245 
 11094      50524F43 
 11094      45535300 
 11095              	.LASF321:
 11096 18f5 6C765F6F 		.ascii	"lv_obj_t\000"
 11096      626A5F74 
 11096      00
 11097              	.LASF361:
 11098 18fe 4C565F46 		.ascii	"LV_FLEX_FLOW_COLUMN\000"
 11098      4C45585F 
 11098      464C4F57 
 11098      5F434F4C 
 11098      554D4E00 
 11099              	.LASF430:
 11100 1912 6C765F6F 		.ascii	"lv_obj_create\000"
 11100      626A5F63 
 11100      72656174 
 11100      6500
 11101              	.LASF238:
 11102 1920 64657374 		.ascii	"destructor_cb\000"
 11102      72756374 
 11102      6F725F63 
 11102      6200
 11103              	.LASF155:
 11104 192e 5F6C765F 		.ascii	"_lv_obj_t\000"
 11104      6F626A5F 
 11104      7400
 11105              	.LASF60:
 11106 1938 4C565F53 		.ascii	"LV_STYLE_MAX_HEIGHT\000"
 11106      54594C45 
 11106      5F4D4158 
 11106      5F484549 
 11106      47485400 
 11107              	.LASF404:
 11108 194c 73696465 		.ascii	"sidebar_header_back_icon\000"
 11108      6261725F 
 11108      68656164 
 11108      65725F62 
 11108      61636B5F 
 11109              	.LASF200:
 11110 1965 4C565F4F 		.ascii	"LV_OBJ_FLAG_CLICK_FOCUSABLE\000"
 11110      424A5F46 
 11110      4C41475F 
 11110      434C4943 
 11110      4B5F464F 
 11111              	.LASF76:
ARM GAS  C:\Users\haske\AppData\Local\Temp\ccp0JrPn.s 			page 236


 11112 1981 4C565F53 		.ascii	"LV_STYLE_BG_GRAD_COLOR\000"
 11112      54594C45 
 11112      5F42475F 
 11112      47524144 
 11112      5F434F4C 
 11113              	.LASF29:
 11114 1998 626F785F 		.ascii	"box_h\000"
 11114      6800
 11115              	.LASF183:
 11116 199e 4C565F53 		.ascii	"LV_STATE_DEFAULT\000"
 11116      54415445 
 11116      5F444546 
 11116      41554C54 
 11116      00
 11117              	.LASF50:
 11118 19af 6C765F63 		.ascii	"lv_color16_t\000"
 11118      6F6C6F72 
 11118      31365F74 
 11118      00
 11119              	.LASF28:
 11120 19bc 626F785F 		.ascii	"box_w\000"
 11120      7700
 11121              	.LASF5:
 11122 19c2 73686F72 		.ascii	"short int\000"
 11122      7420696E 
 11122      7400
 11123              	.LASF36:
 11124 19cc 62617365 		.ascii	"base_line\000"
 11124      5F6C696E 
 11124      6500
 11125              	.LASF173:
 11126 19d6 6C765F6C 		.ascii	"lv_ll_t\000"
 11126      6C5F7400 
 11127              	.LASF407:
 11128 19de 6C765F66 		.ascii	"lv_font_montserrat_14\000"
 11128      6F6E745F 
 11128      6D6F6E74 
 11128      73657272 
 11128      61745F31 
 11129              	.LASF212:
 11130 19f4 4C565F4F 		.ascii	"LV_OBJ_FLAG_PRESS_LOCK\000"
 11130      424A5F46 
 11130      4C41475F 
 11130      50524553 
 11130      535F4C4F 
 11131              	.LASF437:
 11132 1a0b 6C765F62 		.ascii	"lv_btn_create\000"
 11132      746E5F63 
 11132      72656174 
 11132      6500
 11133              	.LASF373:
 11134 1a19 6D61696E 		.ascii	"main_header_back_icon\000"
 11134      5F686561 
 11134      6465725F 
 11134      6261636B 
 11134      5F69636F 
 11135              	.LASF280:
ARM GAS  C:\Users\haske\AppData\Local\Temp\ccp0JrPn.s 			page 237


 11136 1a2f 4C565F45 		.ascii	"LV_EVENT_DRAW_POST_END\000"
 11136      56454E54 
 11136      5F445241 
 11136      575F504F 
 11136      53545F45 
 11137              	.LASF281:
 11138 1a46 4C565F45 		.ascii	"LV_EVENT_DRAW_PART_BEGIN\000"
 11138      56454E54 
 11138      5F445241 
 11138      575F5041 
 11138      52545F42 
 11139              	.LASF113:
 11140 1a5f 4C565F53 		.ascii	"LV_STYLE_ARC_COLOR\000"
 11140      54594C45 
 11140      5F415243 
 11140      5F434F4C 
 11140      4F5200
 11141              	.LASF247:
 11142 1a72 63757272 		.ascii	"current_target\000"
 11142      656E745F 
 11142      74617267 
 11142      657400
 11143              	.LASF17:
 11144 1a81 696E7431 		.ascii	"int16_t\000"
 11144      365F7400 
 11145              	.LASF449:
 11146 1a89 6C765F6F 		.ascii	"lv_obj_get_content_height\000"
 11146      626A5F67 
 11146      65745F63 
 11146      6F6E7465 
 11146      6E745F68 
 11147              	.LASF359:
 11148 1aa3 4C565F46 		.ascii	"LV_FLEX_ALIGN_SPACE_BETWEEN\000"
 11148      4C45585F 
 11148      414C4947 
 11148      4E5F5350 
 11148      4143455F 
 11149              	.LASF160:
 11150 1abf 636F6F72 		.ascii	"coords\000"
 11150      647300
 11151              	.LASF184:
 11152 1ac6 4C565F53 		.ascii	"LV_STATE_CHECKED\000"
 11152      54415445 
 11152      5F434845 
 11152      434B4544 
 11152      00
 11153              	.LASF140:
 11154 1ad7 5F4C565F 		.ascii	"_LV_STYLE_NUM_BUILT_IN_PROPS\000"
 11154      5354594C 
 11154      455F4E55 
 11154      4D5F4255 
 11154      494C545F 
 11155              	.LASF66:
 11156 1af4 4C565F53 		.ascii	"LV_STYLE_PAD_TOP\000"
 11156      54594C45 
 11156      5F504144 
 11156      5F544F50 
ARM GAS  C:\Users\haske\AppData\Local\Temp\ccp0JrPn.s 			page 238


 11156      00
 11157              	.LASF374:
 11158 1b05 6C765F6D 		.ascii	"lv_menu_page_destructor\000"
 11158      656E755F 
 11158      70616765 
 11158      5F646573 
 11158      74727563 
 11159              	.LASF83:
 11160 1b1d 4C565F53 		.ascii	"LV_STYLE_BG_IMG_OPA\000"
 11160      54594C45 
 11160      5F42475F 
 11160      494D475F 
 11160      4F504100 
 11161              	.LASF105:
 11162 1b31 4C565F53 		.ascii	"LV_STYLE_LINE_WIDTH\000"
 11162      54594C45 
 11162      5F4C494E 
 11162      455F5749 
 11162      44544800 
 11163              	.LASF270:
 11164 1b45 4C565F45 		.ascii	"LV_EVENT_DEFOCUSED\000"
 11164      56454E54 
 11164      5F444546 
 11164      4F435553 
 11164      454400
 11165              	.LASF469:
 11166 1b58 433A5C50 		.ascii	"C:\\Projects\\PainDrain\\firmware\\PainDrain\\PainD"
 11166      726F6A65 
 11166      6374735C 
 11166      5061696E 
 11166      44726169 
 11167 1b86 7261696E 		.ascii	"rain.cydsn\000"
 11167      2E637964 
 11167      736E00
 11168              	.LASF450:
 11169 1b91 7374726C 		.ascii	"strlen\000"
 11169      656E00
 11170              	.LASF414:
 11171 1b98 6C765F6D 		.ascii	"lv_menu_sidebar_cont_class\000"
 11171      656E755F 
 11171      73696465 
 11171      6261725F 
 11171      636F6E74 
 11172              	.LASF150:
 11173 1bb3 70726F70 		.ascii	"prop1\000"
 11173      3100
 11174              	.LASF394:
 11175 1bb9 6C765F6D 		.ascii	"lv_menu_back_btn_is_root\000"
 11175      656E755F 
 11175      6261636B 
 11175      5F62746E 
 11175      5F69735F 
 11176              	.LASF265:
 11177 1bd2 4C565F45 		.ascii	"LV_EVENT_SCROLL_END\000"
 11177      56454E54 
 11177      5F534352 
 11177      4F4C4C5F 
ARM GAS  C:\Users\haske\AppData\Local\Temp\ccp0JrPn.s 			page 239


 11177      454E4400 
 11178              	.LASF328:
 11179 1be6 6C765F6D 		.ascii	"lv_menu_mode_root_back_btn_t\000"
 11179      656E755F 
 11179      6D6F6465 
 11179      5F726F6F 
 11179      745F6261 
 11180              	.LASF59:
 11181 1c03 4C565F53 		.ascii	"LV_STYLE_MIN_HEIGHT\000"
 11181      54594C45 
 11181      5F4D494E 
 11181      5F484549 
 11181      47485400 
 11182              	.LASF192:
 11183 1c17 4C565F53 		.ascii	"LV_STATE_USER_1\000"
 11183      54415445 
 11183      5F555345 
 11183      525F3100 
 11184              	.LASF193:
 11185 1c27 4C565F53 		.ascii	"LV_STATE_USER_2\000"
 11185      54415445 
 11185      5F555345 
 11185      525F3200 
 11186              	.LASF194:
 11187 1c37 4C565F53 		.ascii	"LV_STATE_USER_3\000"
 11187      54415445 
 11187      5F555345 
 11187      525F3300 
 11188              	.LASF195:
 11189 1c47 4C565F53 		.ascii	"LV_STATE_USER_4\000"
 11189      54415445 
 11189      5F555345 
 11189      525F3400 
 11190              	.LASF348:
 11191 1c57 73696465 		.ascii	"sidebar_generated\000"
 11191      6261725F 
 11191      67656E65 
 11191      72617465 
 11191      6400
 11192              	.LASF91:
 11193 1c69 4C565F53 		.ascii	"LV_STYLE_BORDER_POST\000"
 11193      54594C45 
 11193      5F424F52 
 11193      4445525F 
 11193      504F5354 
 11194              	.LASF61:
 11195 1c7e 4C565F53 		.ascii	"LV_STYLE_X\000"
 11195      54594C45 
 11195      5F5800
 11196              	.LASF62:
 11197 1c89 4C565F53 		.ascii	"LV_STYLE_Y\000"
 11197      54594C45 
 11197      5F5900
 11198              	.LASF108:
 11199 1c94 4C565F53 		.ascii	"LV_STYLE_LINE_ROUNDED\000"
 11199      54594C45 
 11199      5F4C494E 
ARM GAS  C:\Users\haske\AppData\Local\Temp\ccp0JrPn.s 			page 240


 11199      455F524F 
 11199      554E4445 
 11200              	.LASF297:
 11201 1caa 4C565F45 		.ascii	"LV_EVENT_STYLE_CHANGED\000"
 11201      56454E54 
 11201      5F535459 
 11201      4C455F43 
 11201      48414E47 
 11202              	.LASF286:
 11203 1cc1 4C565F45 		.ascii	"LV_EVENT_READY\000"
 11203      56454E54 
 11203      5F524541 
 11203      445900
 11204              	.LASF279:
 11205 1cd0 4C565F45 		.ascii	"LV_EVENT_DRAW_POST\000"
 11205      56454E54 
 11205      5F445241 
 11205      575F504F 
 11205      535400
 11206              	.LASF20:
 11207 1ce3 75696E74 		.ascii	"uint32_t\000"
 11207      33325F74 
 11207      00
 11208              	.LASF436:
 11209 1cec 6C765F6F 		.ascii	"lv_obj_set_size\000"
 11209      626A5F73 
 11209      65745F73 
 11209      697A6500 
 11210              	.LASF206:
 11211 1cfc 4C565F4F 		.ascii	"LV_OBJ_FLAG_SCROLL_CHAIN_HOR\000"
 11211      424A5F46 
 11211      4C41475F 
 11211      5343524F 
 11211      4C4C5F43 
 11212              	.LASF356:
 11213 1d19 4C565F46 		.ascii	"LV_FLEX_ALIGN_CENTER\000"
 11213      4C45585F 
 11213      414C4947 
 11213      4E5F4345 
 11213      4E544552 
 11214              	.LASF455:
 11215 1d2e 6C765F6C 		.ascii	"lv_label_set_text\000"
 11215      6162656C 
 11215      5F736574 
 11215      5F746578 
 11215      7400
 11216              	.LASF439:
 11217 1d40 6C765F69 		.ascii	"lv_img_create\000"
 11217      6D675F63 
 11217      72656174 
 11217      6500
 11218              	.LASF227:
 11219 1d4e 6C765F6F 		.ascii	"lv_obj_flag_t\000"
 11219      626A5F66 
 11219      6C61675F 
 11219      7400
 11220              	.LASF296:
ARM GAS  C:\Users\haske\AppData\Local\Temp\ccp0JrPn.s 			page 241


 11221 1d5c 4C565F45 		.ascii	"LV_EVENT_SIZE_CHANGED\000"
 11221      56454E54 
 11221      5F53495A 
 11221      455F4348 
 11221      414E4745 
 11222              	.LASF438:
 11223 1d72 6C765F6F 		.ascii	"lv_obj_add_event_cb\000"
 11223      626A5F61 
 11223      64645F65 
 11223      76656E74 
 11223      5F636200 
 11224              	.LASF337:
 11225 1d86 6D61696E 		.ascii	"main_header_back_btn\000"
 11225      5F686561 
 11225      6465725F 
 11225      6261636B 
 11225      5F62746E 
 11226              	.LASF48:
 11227 1d9b 67726565 		.ascii	"green\000"
 11227      6E00
 11228              	.LASF44:
 11229 1da1 6C765F66 		.ascii	"lv_font_t\000"
 11229      6F6E745F 
 11229      7400
 11230              	.LASF464:
 11231 1dab 6C765F6F 		.ascii	"lv_obj_del\000"
 11231      626A5F64 
 11231      656C00
 11232              	.LASF365:
 11233 1db6 4C565F46 		.ascii	"LV_FLEX_FLOW_COLUMN_WRAP\000"
 11233      4C45585F 
 11233      464C4F57 
 11233      5F434F4C 
 11233      554D4E5F 
 11234              	.LASF298:
 11235 1dcf 4C565F45 		.ascii	"LV_EVENT_LAYOUT_CHANGED\000"
 11235      56454E54 
 11235      5F4C4159 
 11235      4F55545F 
 11235      4348414E 
 11236              	.LASF352:
 11237 1de7 7469746C 		.ascii	"title\000"
 11237      6500
 11238              	.LASF362:
 11239 1ded 4C565F46 		.ascii	"LV_FLEX_FLOW_ROW_WRAP\000"
 11239      4C45585F 
 11239      464C4F57 
 11239      5F524F57 
 11239      5F575241 
 11240              	.LASF7:
 11241 1e03 73686F72 		.ascii	"short unsigned int\000"
 11241      7420756E 
 11241      7369676E 
 11241      65642069 
 11241      6E7400
 11242              	.LASF268:
 11243 1e16 4C565F45 		.ascii	"LV_EVENT_KEY\000"
ARM GAS  C:\Users\haske\AppData\Local\Temp\ccp0JrPn.s 			page 242


 11243      56454E54 
 11243      5F4B4559 
 11243      00
 11244              	.LASF22:
 11245 1e23 6C765F63 		.ascii	"lv_coord_t\000"
 11245      6F6F7264 
 11245      5F7400
 11246              	.LASF366:
 11247 1e2e 4C565F46 		.ascii	"LV_FLEX_FLOW_COLUMN_REVERSE\000"
 11247      4C45585F 
 11247      464C4F57 
 11247      5F434F4C 
 11247      554D4E5F 
 11248              	.LASF264:
 11249 1e4a 4C565F45 		.ascii	"LV_EVENT_SCROLL_BEGIN\000"
 11249      56454E54 
 11249      5F534352 
 11249      4F4C4C5F 
 11249      42454749 
 11250              	.LASF93:
 11251 1e60 4C565F53 		.ascii	"LV_STYLE_OUTLINE_COLOR\000"
 11251      54594C45 
 11251      5F4F5554 
 11251      4C494E45 
 11251      5F434F4C 
 11252              	.LASF41:
 11253 1e77 75736572 		.ascii	"user_data\000"
 11253      5F646174 
 11253      6100
 11254              	.LASF258:
 11255 1e81 4C565F45 		.ascii	"LV_EVENT_PRESS_LOST\000"
 11255      56454E54 
 11255      5F505245 
 11255      53535F4C 
 11255      4F535400 
 11256              	.LASF418:
 11257 1e95 4C565F4C 		.ascii	"LV_LAYOUT_FLEX\000"
 11257      41594F55 
 11257      545F464C 
 11257      455800
 11258              	.LASF470:
 11259 1ea4 5F6C765F 		.ascii	"_lv_event_dsc_t\000"
 11259      6576656E 
 11259      745F6473 
 11259      635F7400 
 11260              	.LASF99:
 11261 1eb4 4C565F53 		.ascii	"LV_STYLE_SHADOW_SPREAD\000"
 11261      54594C45 
 11261      5F534841 
 11261      444F575F 
 11261      53505245 
 11262              	.LASF338:
 11263 1ecb 6D61696E 		.ascii	"main_header_title\000"
 11263      5F686561 
 11263      6465725F 
 11263      7469746C 
 11263      6500
ARM GAS  C:\Users\haske\AppData\Local\Temp\ccp0JrPn.s 			page 243


 11264              	.LASF324:
 11265 1edd 4C565F4D 		.ascii	"LV_MENU_HEADER_BOTTOM_FIXED\000"
 11265      454E555F 
 11265      48454144 
 11265      45525F42 
 11265      4F54544F 
 11266              	.LASF33:
 11267 1ef9 6765745F 		.ascii	"get_glyph_dsc\000"
 11267      676C7970 
 11267      685F6473 
 11267      6300
 11268              	.LASF8:
 11269 1f07 5F5F696E 		.ascii	"__int32_t\000"
 11269      7433325F 
 11269      7400
 11270              	.LASF460:
 11271 1f11 5F6C765F 		.ascii	"_lv_ll_get_head\000"
 11271      6C6C5F67 
 11271      65745F68 
 11271      65616400 
 11272              	.LASF231:
 11273 1f21 73656C65 		.ascii	"selector\000"
 11273      63746F72 
 11273      00
 11274              	.LASF269:
 11275 1f2a 4C565F45 		.ascii	"LV_EVENT_FOCUSED\000"
 11275      56454E54 
 11275      5F464F43 
 11275      55534544 
 11275      00
 11276              	.LASF181:
 11277 1f3b 7265666F 		.ascii	"refocus_policy\000"
 11277      6375735F 
 11277      706F6C69 
 11277      637900
 11278              	.LASF453:
 11279 1f4a 6C765F6F 		.ascii	"lv_obj_remove_event_cb\000"
 11279      626A5F72 
 11279      656D6F76 
 11279      655F6576 
 11279      656E745F 
 11280              	.LASF383:
 11281 1f61 6C765F6D 		.ascii	"lv_menu_section_create\000"
 11281      656E755F 
 11281      73656374 
 11281      696F6E5F 
 11281      63726561 
 11282              	.LASF410:
 11283 1f78 6C765F6D 		.ascii	"lv_menu_page_class\000"
 11283      656E755F 
 11283      70616765 
 11283      5F636C61 
 11283      737300
 11284              	.LASF185:
 11285 1f8b 4C565F53 		.ascii	"LV_STATE_FOCUSED\000"
 11285      54415445 
 11285      5F464F43 
ARM GAS  C:\Users\haske\AppData\Local\Temp\ccp0JrPn.s 			page 244


 11285      55534544 
 11285      00
 11286              	.LASF241:
 11287 1f9c 68656967 		.ascii	"height_def\000"
 11287      68745F64 
 11287      656600
 11288              	.LASF292:
 11289 1fa7 4C565F45 		.ascii	"LV_EVENT_SCREEN_UNLOAD_START\000"
 11289      56454E54 
 11289      5F534352 
 11289      45454E5F 
 11289      554E4C4F 
 11290              	.LASF344:
 11291 1fc4 73656C65 		.ascii	"selected_tab\000"
 11291      63746564 
 11291      5F746162 
 11291      00
 11292              	.LASF466:
 11293 1fd1 6C765F67 		.ascii	"lv_group_focus_next\000"
 11293      726F7570 
 11293      5F666F63 
 11293      75735F6E 
 11293      65787400 
 11294              	.LASF342:
 11295 1fe5 73696465 		.ascii	"sidebar_header_back_btn\000"
 11295      6261725F 
 11295      68656164 
 11295      65725F62 
 11295      61636B5F 
 11296              	.LASF417:
 11297 1ffd 6C765F6D 		.ascii	"lv_menu_main_header_cont_class\000"
 11297      656E755F 
 11297      6D61696E 
 11297      5F686561 
 11297      6465725F 
 11298              	.LASF205:
 11299 201c 4C565F4F 		.ascii	"LV_OBJ_FLAG_SCROLL_ONE\000"
 11299      424A5F46 
 11299      4C41475F 
 11299      5343524F 
 11299      4C4C5F4F 
 11300              	.LASF382:
 11301 2033 6C765F6D 		.ascii	"lv_menu_cont_create\000"
 11301      656E755F 
 11301      636F6E74 
 11301      5F637265 
 11301      61746500 
 11302              	.LASF250:
 11303 2047 70726576 		.ascii	"prev\000"
 11303      00
 11304              	.LASF170:
 11305 204c 6E5F7369 		.ascii	"n_size\000"
 11305      7A6500
 11306              	.LASF174:
 11307 2053 5F6C765F 		.ascii	"_lv_group_t\000"
 11307      67726F75 
 11307      705F7400 
ARM GAS  C:\Users\haske\AppData\Local\Temp\ccp0JrPn.s 			page 245


 11308              	.LASF80:
 11309 205f 4C565F53 		.ascii	"LV_STYLE_BG_GRAD\000"
 11309      54594C45 
 11309      5F42475F 
 11309      47524144 
 11309      00
 11310              	.LASF263:
 11311 2070 4C565F45 		.ascii	"LV_EVENT_RELEASED\000"
 11311      56454E54 
 11311      5F52454C 
 11311      45415345 
 11311      4400
 11312              	.LASF32:
 11313 2082 69735F70 		.ascii	"is_placeholder\000"
 11313      6C616365 
 11313      686F6C64 
 11313      657200
 11314              	.LASF349:
 11315 2091 6D6F6465 		.ascii	"mode_header\000"
 11315      5F686561 
 11315      64657200 
 11316              	.LASF95:
 11317 209d 4C565F53 		.ascii	"LV_STYLE_OUTLINE_PAD\000"
 11317      54594C45 
 11317      5F4F5554 
 11317      4C494E45 
 11317      5F504144 
 11318              	.LASF336:
 11319 20b2 6D61696E 		.ascii	"main_header\000"
 11319      5F686561 
 11319      64657200 
 11320              	.LASF176:
 11321 20be 6F626A5F 		.ascii	"obj_focus\000"
 11321      666F6375 
 11321      7300
 11322              	.LASF119:
 11323 20c8 4C565F53 		.ascii	"LV_STYLE_TEXT_LETTER_SPACE\000"
 11323      54594C45 
 11323      5F544558 
 11323      545F4C45 
 11323      54544552 
 11324              	.LASF354:
 11325 20e3 4C565F46 		.ascii	"LV_FLEX_ALIGN_START\000"
 11325      4C45585F 
 11325      414C4947 
 11325      4E5F5354 
 11325      41525400 
 11326              	.LASF318:
 11327 20f7 6576656E 		.ascii	"event_dsc_cnt\000"
 11327      745F6473 
 11327      635F636E 
 11327      7400
 11328              		.ident	"GCC: (GNU Tools for ARM Embedded Processors) 5.4.1 20160609 (release) [ARM/embedded-5-bran
