ARM GAS  C:\Users\haske\AppData\Local\Temp\ccNao93W.s 			page 1


   1              		.syntax unified
   2              		.cpu cortex-m0plus
   3              		.fpu softvfp
   4              		.eabi_attribute 20, 1
   5              		.eabi_attribute 21, 1
   6              		.eabi_attribute 23, 3
   7              		.eabi_attribute 24, 1
   8              		.eabi_attribute 25, 1
   9              		.eabi_attribute 26, 1
  10              		.eabi_attribute 30, 1
  11              		.eabi_attribute 34, 0
  12              		.eabi_attribute 18, 4
  13              		.thumb
  14              		.syntax unified
  15              		.file	"lv_msgbox.c"
  16              		.text
  17              	.Ltext0:
  18              		.cfi_sections	.debug_frame
  19              		.global	__aeabi_idiv
  20              		.section	.text.lv_msgbox_create,"ax",%progbits
  21              		.align	2
  22              		.global	lv_msgbox_create
  23              		.code	16
  24              		.thumb_func
  25              		.type	lv_msgbox_create, %function
  26              	lv_msgbox_create:
  27              	.LFB202:
  28              		.file 1 "..\\..\\..\\arduinoLCD\\test\\Pain Drain\\libraries\\lvgl\\src\\extra\\widgets\\msgbox\\l
   1:..\..\..\arduinoLCD\test\Pain Drain\libraries\lvgl\src\extra\widgets\msgbox/lv_msgbox.c **** /**
   2:..\..\..\arduinoLCD\test\Pain Drain\libraries\lvgl\src\extra\widgets\msgbox/lv_msgbox.c ****  * @file lv_msgbox.c
   3:..\..\..\arduinoLCD\test\Pain Drain\libraries\lvgl\src\extra\widgets\msgbox/lv_msgbox.c ****  *
   4:..\..\..\arduinoLCD\test\Pain Drain\libraries\lvgl\src\extra\widgets\msgbox/lv_msgbox.c ****  */
   5:..\..\..\arduinoLCD\test\Pain Drain\libraries\lvgl\src\extra\widgets\msgbox/lv_msgbox.c **** 
   6:..\..\..\arduinoLCD\test\Pain Drain\libraries\lvgl\src\extra\widgets\msgbox/lv_msgbox.c **** /*********************
   7:..\..\..\arduinoLCD\test\Pain Drain\libraries\lvgl\src\extra\widgets\msgbox/lv_msgbox.c ****  *      INCLUDES
   8:..\..\..\arduinoLCD\test\Pain Drain\libraries\lvgl\src\extra\widgets\msgbox/lv_msgbox.c ****  *********************/
   9:..\..\..\arduinoLCD\test\Pain Drain\libraries\lvgl\src\extra\widgets\msgbox/lv_msgbox.c **** #include "lv_msgbox.h"
  10:..\..\..\arduinoLCD\test\Pain Drain\libraries\lvgl\src\extra\widgets\msgbox/lv_msgbox.c **** #if LV_USE_MSGBOX
  11:..\..\..\arduinoLCD\test\Pain Drain\libraries\lvgl\src\extra\widgets\msgbox/lv_msgbox.c **** 
  12:..\..\..\arduinoLCD\test\Pain Drain\libraries\lvgl\src\extra\widgets\msgbox/lv_msgbox.c **** #include "../../../misc/lv_assert.h"
  13:..\..\..\arduinoLCD\test\Pain Drain\libraries\lvgl\src\extra\widgets\msgbox/lv_msgbox.c **** 
  14:..\..\..\arduinoLCD\test\Pain Drain\libraries\lvgl\src\extra\widgets\msgbox/lv_msgbox.c **** /*********************
  15:..\..\..\arduinoLCD\test\Pain Drain\libraries\lvgl\src\extra\widgets\msgbox/lv_msgbox.c ****  *      DEFINES
  16:..\..\..\arduinoLCD\test\Pain Drain\libraries\lvgl\src\extra\widgets\msgbox/lv_msgbox.c ****  *********************/
  17:..\..\..\arduinoLCD\test\Pain Drain\libraries\lvgl\src\extra\widgets\msgbox/lv_msgbox.c **** #define LV_MSGBOX_FLAG_AUTO_PARENT  LV_OBJ_FLAG_WIDGET_1        /*Mark that the parent was automati
  18:..\..\..\arduinoLCD\test\Pain Drain\libraries\lvgl\src\extra\widgets\msgbox/lv_msgbox.c **** #define MY_CLASS    &lv_msgbox_class
  19:..\..\..\arduinoLCD\test\Pain Drain\libraries\lvgl\src\extra\widgets\msgbox/lv_msgbox.c **** 
  20:..\..\..\arduinoLCD\test\Pain Drain\libraries\lvgl\src\extra\widgets\msgbox/lv_msgbox.c **** /**********************
  21:..\..\..\arduinoLCD\test\Pain Drain\libraries\lvgl\src\extra\widgets\msgbox/lv_msgbox.c ****  *      TYPEDEFS
  22:..\..\..\arduinoLCD\test\Pain Drain\libraries\lvgl\src\extra\widgets\msgbox/lv_msgbox.c ****  **********************/
  23:..\..\..\arduinoLCD\test\Pain Drain\libraries\lvgl\src\extra\widgets\msgbox/lv_msgbox.c **** 
  24:..\..\..\arduinoLCD\test\Pain Drain\libraries\lvgl\src\extra\widgets\msgbox/lv_msgbox.c **** /**********************
  25:..\..\..\arduinoLCD\test\Pain Drain\libraries\lvgl\src\extra\widgets\msgbox/lv_msgbox.c ****  *  STATIC PROTOTYPES
  26:..\..\..\arduinoLCD\test\Pain Drain\libraries\lvgl\src\extra\widgets\msgbox/lv_msgbox.c ****  **********************/
  27:..\..\..\arduinoLCD\test\Pain Drain\libraries\lvgl\src\extra\widgets\msgbox/lv_msgbox.c **** static void msgbox_close_click_event_cb(lv_event_t * e);
  28:..\..\..\arduinoLCD\test\Pain Drain\libraries\lvgl\src\extra\widgets\msgbox/lv_msgbox.c **** 
  29:..\..\..\arduinoLCD\test\Pain Drain\libraries\lvgl\src\extra\widgets\msgbox/lv_msgbox.c **** /**********************
ARM GAS  C:\Users\haske\AppData\Local\Temp\ccNao93W.s 			page 2


  30:..\..\..\arduinoLCD\test\Pain Drain\libraries\lvgl\src\extra\widgets\msgbox/lv_msgbox.c ****  *  STATIC VARIABLES
  31:..\..\..\arduinoLCD\test\Pain Drain\libraries\lvgl\src\extra\widgets\msgbox/lv_msgbox.c ****  **********************/
  32:..\..\..\arduinoLCD\test\Pain Drain\libraries\lvgl\src\extra\widgets\msgbox/lv_msgbox.c **** const lv_obj_class_t lv_msgbox_class = {
  33:..\..\..\arduinoLCD\test\Pain Drain\libraries\lvgl\src\extra\widgets\msgbox/lv_msgbox.c ****     .base_class = &lv_obj_class,
  34:..\..\..\arduinoLCD\test\Pain Drain\libraries\lvgl\src\extra\widgets\msgbox/lv_msgbox.c ****     .width_def = LV_DPI_DEF * 2,
  35:..\..\..\arduinoLCD\test\Pain Drain\libraries\lvgl\src\extra\widgets\msgbox/lv_msgbox.c ****     .height_def = LV_SIZE_CONTENT,
  36:..\..\..\arduinoLCD\test\Pain Drain\libraries\lvgl\src\extra\widgets\msgbox/lv_msgbox.c ****     .instance_size = sizeof(lv_msgbox_t)
  37:..\..\..\arduinoLCD\test\Pain Drain\libraries\lvgl\src\extra\widgets\msgbox/lv_msgbox.c **** };
  38:..\..\..\arduinoLCD\test\Pain Drain\libraries\lvgl\src\extra\widgets\msgbox/lv_msgbox.c **** 
  39:..\..\..\arduinoLCD\test\Pain Drain\libraries\lvgl\src\extra\widgets\msgbox/lv_msgbox.c **** const lv_obj_class_t lv_msgbox_content_class = {
  40:..\..\..\arduinoLCD\test\Pain Drain\libraries\lvgl\src\extra\widgets\msgbox/lv_msgbox.c ****     .base_class = &lv_obj_class,
  41:..\..\..\arduinoLCD\test\Pain Drain\libraries\lvgl\src\extra\widgets\msgbox/lv_msgbox.c ****     .width_def = LV_PCT(100),
  42:..\..\..\arduinoLCD\test\Pain Drain\libraries\lvgl\src\extra\widgets\msgbox/lv_msgbox.c ****     .height_def = LV_SIZE_CONTENT,
  43:..\..\..\arduinoLCD\test\Pain Drain\libraries\lvgl\src\extra\widgets\msgbox/lv_msgbox.c ****     .instance_size = sizeof(lv_obj_t)
  44:..\..\..\arduinoLCD\test\Pain Drain\libraries\lvgl\src\extra\widgets\msgbox/lv_msgbox.c **** };
  45:..\..\..\arduinoLCD\test\Pain Drain\libraries\lvgl\src\extra\widgets\msgbox/lv_msgbox.c **** 
  46:..\..\..\arduinoLCD\test\Pain Drain\libraries\lvgl\src\extra\widgets\msgbox/lv_msgbox.c **** const lv_obj_class_t lv_msgbox_backdrop_class = {
  47:..\..\..\arduinoLCD\test\Pain Drain\libraries\lvgl\src\extra\widgets\msgbox/lv_msgbox.c ****     .base_class = &lv_obj_class,
  48:..\..\..\arduinoLCD\test\Pain Drain\libraries\lvgl\src\extra\widgets\msgbox/lv_msgbox.c ****     .width_def = LV_PCT(100),
  49:..\..\..\arduinoLCD\test\Pain Drain\libraries\lvgl\src\extra\widgets\msgbox/lv_msgbox.c ****     .height_def = LV_PCT(100),
  50:..\..\..\arduinoLCD\test\Pain Drain\libraries\lvgl\src\extra\widgets\msgbox/lv_msgbox.c ****     .instance_size = sizeof(lv_obj_t)
  51:..\..\..\arduinoLCD\test\Pain Drain\libraries\lvgl\src\extra\widgets\msgbox/lv_msgbox.c **** };
  52:..\..\..\arduinoLCD\test\Pain Drain\libraries\lvgl\src\extra\widgets\msgbox/lv_msgbox.c **** 
  53:..\..\..\arduinoLCD\test\Pain Drain\libraries\lvgl\src\extra\widgets\msgbox/lv_msgbox.c **** /**********************
  54:..\..\..\arduinoLCD\test\Pain Drain\libraries\lvgl\src\extra\widgets\msgbox/lv_msgbox.c ****  *      MACROS
  55:..\..\..\arduinoLCD\test\Pain Drain\libraries\lvgl\src\extra\widgets\msgbox/lv_msgbox.c ****  **********************/
  56:..\..\..\arduinoLCD\test\Pain Drain\libraries\lvgl\src\extra\widgets\msgbox/lv_msgbox.c **** 
  57:..\..\..\arduinoLCD\test\Pain Drain\libraries\lvgl\src\extra\widgets\msgbox/lv_msgbox.c **** /**********************
  58:..\..\..\arduinoLCD\test\Pain Drain\libraries\lvgl\src\extra\widgets\msgbox/lv_msgbox.c ****  *   GLOBAL FUNCTIONS
  59:..\..\..\arduinoLCD\test\Pain Drain\libraries\lvgl\src\extra\widgets\msgbox/lv_msgbox.c ****  **********************/
  60:..\..\..\arduinoLCD\test\Pain Drain\libraries\lvgl\src\extra\widgets\msgbox/lv_msgbox.c **** 
  61:..\..\..\arduinoLCD\test\Pain Drain\libraries\lvgl\src\extra\widgets\msgbox/lv_msgbox.c **** lv_obj_t * lv_msgbox_create(lv_obj_t * parent, const char * title, const char * txt, const char * b
  62:..\..\..\arduinoLCD\test\Pain Drain\libraries\lvgl\src\extra\widgets\msgbox/lv_msgbox.c ****                             bool add_close_btn)
  63:..\..\..\arduinoLCD\test\Pain Drain\libraries\lvgl\src\extra\widgets\msgbox/lv_msgbox.c **** {
  29              		.loc 1 63 0
  30              		.cfi_startproc
  31              		@ args = 4, pretend = 0, frame = 0
  32              		@ frame_needed = 0, uses_anonymous_args = 0
  33              	.LVL0:
  34 0000 F8B5     		push	{r3, r4, r5, r6, r7, lr}
  35              		.cfi_def_cfa_offset 24
  36              		.cfi_offset 3, -24
  37              		.cfi_offset 4, -20
  38              		.cfi_offset 5, -16
  39              		.cfi_offset 6, -12
  40              		.cfi_offset 7, -8
  41              		.cfi_offset 14, -4
  42 0002 4F46     		mov	r7, r9
  43 0004 4646     		mov	r6, r8
  44 0006 C0B4     		push	{r6, r7}
  45              		.cfi_def_cfa_offset 32
  46              		.cfi_offset 8, -32
  47              		.cfi_offset 9, -28
  48 0008 0400     		movs	r4, r0
  49 000a 0D00     		movs	r5, r1
  50 000c 9046     		mov	r8, r2
  51 000e 1E00     		movs	r6, r3
ARM GAS  C:\Users\haske\AppData\Local\Temp\ccNao93W.s 			page 3


  52 0010 08AB     		add	r3, sp, #32
  53              	.LVL1:
  54 0012 1F78     		ldrb	r7, [r3]
  55              	.LVL2:
  64:..\..\..\arduinoLCD\test\Pain Drain\libraries\lvgl\src\extra\widgets\msgbox/lv_msgbox.c ****     LV_LOG_INFO("begin");
  65:..\..\..\arduinoLCD\test\Pain Drain\libraries\lvgl\src\extra\widgets\msgbox/lv_msgbox.c ****     bool auto_parent = false;
  66:..\..\..\arduinoLCD\test\Pain Drain\libraries\lvgl\src\extra\widgets\msgbox/lv_msgbox.c ****     if(parent == NULL) {
  56              		.loc 1 66 0
  57 0014 0028     		cmp	r0, #0
  58 0016 19D1     		bne	.L22
  59              	.LVL3:
  60              	.LBB18:
  61              	.LBB19:
  62              		.file 2 "c:\\projects\\paindrain\\arduinolcd\\test\\pain drain\\libraries\\lvgl\\src/core/lv_disp.
   1:c:\projects\paindrain\arduinolcd\test\pain drain\libraries\lvgl\src/core\lv_disp.h **** /**
   2:c:\projects\paindrain\arduinolcd\test\pain drain\libraries\lvgl\src/core\lv_disp.h ****  * @file lv_disp.h
   3:c:\projects\paindrain\arduinolcd\test\pain drain\libraries\lvgl\src/core\lv_disp.h ****  *
   4:c:\projects\paindrain\arduinolcd\test\pain drain\libraries\lvgl\src/core\lv_disp.h ****  */
   5:c:\projects\paindrain\arduinolcd\test\pain drain\libraries\lvgl\src/core\lv_disp.h **** 
   6:c:\projects\paindrain\arduinolcd\test\pain drain\libraries\lvgl\src/core\lv_disp.h **** #ifndef LV_DISP_H
   7:c:\projects\paindrain\arduinolcd\test\pain drain\libraries\lvgl\src/core\lv_disp.h **** #define LV_DISP_H
   8:c:\projects\paindrain\arduinolcd\test\pain drain\libraries\lvgl\src/core\lv_disp.h **** 
   9:c:\projects\paindrain\arduinolcd\test\pain drain\libraries\lvgl\src/core\lv_disp.h **** #ifdef __cplusplus
  10:c:\projects\paindrain\arduinolcd\test\pain drain\libraries\lvgl\src/core\lv_disp.h **** extern "C" {
  11:c:\projects\paindrain\arduinolcd\test\pain drain\libraries\lvgl\src/core\lv_disp.h **** #endif
  12:c:\projects\paindrain\arduinolcd\test\pain drain\libraries\lvgl\src/core\lv_disp.h **** 
  13:c:\projects\paindrain\arduinolcd\test\pain drain\libraries\lvgl\src/core\lv_disp.h **** /*********************
  14:c:\projects\paindrain\arduinolcd\test\pain drain\libraries\lvgl\src/core\lv_disp.h ****  *      INCLUDES
  15:c:\projects\paindrain\arduinolcd\test\pain drain\libraries\lvgl\src/core\lv_disp.h ****  *********************/
  16:c:\projects\paindrain\arduinolcd\test\pain drain\libraries\lvgl\src/core\lv_disp.h **** #include "../hal/lv_hal.h"
  17:c:\projects\paindrain\arduinolcd\test\pain drain\libraries\lvgl\src/core\lv_disp.h **** #include "lv_obj.h"
  18:c:\projects\paindrain\arduinolcd\test\pain drain\libraries\lvgl\src/core\lv_disp.h **** #include "lv_theme.h"
  19:c:\projects\paindrain\arduinolcd\test\pain drain\libraries\lvgl\src/core\lv_disp.h **** 
  20:c:\projects\paindrain\arduinolcd\test\pain drain\libraries\lvgl\src/core\lv_disp.h **** /*********************
  21:c:\projects\paindrain\arduinolcd\test\pain drain\libraries\lvgl\src/core\lv_disp.h ****  *      DEFINES
  22:c:\projects\paindrain\arduinolcd\test\pain drain\libraries\lvgl\src/core\lv_disp.h ****  *********************/
  23:c:\projects\paindrain\arduinolcd\test\pain drain\libraries\lvgl\src/core\lv_disp.h **** 
  24:c:\projects\paindrain\arduinolcd\test\pain drain\libraries\lvgl\src/core\lv_disp.h **** /**********************
  25:c:\projects\paindrain\arduinolcd\test\pain drain\libraries\lvgl\src/core\lv_disp.h ****  *      TYPEDEFS
  26:c:\projects\paindrain\arduinolcd\test\pain drain\libraries\lvgl\src/core\lv_disp.h ****  **********************/
  27:c:\projects\paindrain\arduinolcd\test\pain drain\libraries\lvgl\src/core\lv_disp.h **** 
  28:c:\projects\paindrain\arduinolcd\test\pain drain\libraries\lvgl\src/core\lv_disp.h **** typedef enum {
  29:c:\projects\paindrain\arduinolcd\test\pain drain\libraries\lvgl\src/core\lv_disp.h ****     LV_SCR_LOAD_ANIM_NONE,
  30:c:\projects\paindrain\arduinolcd\test\pain drain\libraries\lvgl\src/core\lv_disp.h ****     LV_SCR_LOAD_ANIM_OVER_LEFT,
  31:c:\projects\paindrain\arduinolcd\test\pain drain\libraries\lvgl\src/core\lv_disp.h ****     LV_SCR_LOAD_ANIM_OVER_RIGHT,
  32:c:\projects\paindrain\arduinolcd\test\pain drain\libraries\lvgl\src/core\lv_disp.h ****     LV_SCR_LOAD_ANIM_OVER_TOP,
  33:c:\projects\paindrain\arduinolcd\test\pain drain\libraries\lvgl\src/core\lv_disp.h ****     LV_SCR_LOAD_ANIM_OVER_BOTTOM,
  34:c:\projects\paindrain\arduinolcd\test\pain drain\libraries\lvgl\src/core\lv_disp.h ****     LV_SCR_LOAD_ANIM_MOVE_LEFT,
  35:c:\projects\paindrain\arduinolcd\test\pain drain\libraries\lvgl\src/core\lv_disp.h ****     LV_SCR_LOAD_ANIM_MOVE_RIGHT,
  36:c:\projects\paindrain\arduinolcd\test\pain drain\libraries\lvgl\src/core\lv_disp.h ****     LV_SCR_LOAD_ANIM_MOVE_TOP,
  37:c:\projects\paindrain\arduinolcd\test\pain drain\libraries\lvgl\src/core\lv_disp.h ****     LV_SCR_LOAD_ANIM_MOVE_BOTTOM,
  38:c:\projects\paindrain\arduinolcd\test\pain drain\libraries\lvgl\src/core\lv_disp.h ****     LV_SCR_LOAD_ANIM_FADE_IN,
  39:c:\projects\paindrain\arduinolcd\test\pain drain\libraries\lvgl\src/core\lv_disp.h ****     LV_SCR_LOAD_ANIM_FADE_ON = LV_SCR_LOAD_ANIM_FADE_IN, /*For backward compatibility*/
  40:c:\projects\paindrain\arduinolcd\test\pain drain\libraries\lvgl\src/core\lv_disp.h ****     LV_SCR_LOAD_ANIM_FADE_OUT,
  41:c:\projects\paindrain\arduinolcd\test\pain drain\libraries\lvgl\src/core\lv_disp.h ****     LV_SCR_LOAD_ANIM_OUT_LEFT,
  42:c:\projects\paindrain\arduinolcd\test\pain drain\libraries\lvgl\src/core\lv_disp.h ****     LV_SCR_LOAD_ANIM_OUT_RIGHT,
  43:c:\projects\paindrain\arduinolcd\test\pain drain\libraries\lvgl\src/core\lv_disp.h ****     LV_SCR_LOAD_ANIM_OUT_TOP,
ARM GAS  C:\Users\haske\AppData\Local\Temp\ccNao93W.s 			page 4


  44:c:\projects\paindrain\arduinolcd\test\pain drain\libraries\lvgl\src/core\lv_disp.h ****     LV_SCR_LOAD_ANIM_OUT_BOTTOM,
  45:c:\projects\paindrain\arduinolcd\test\pain drain\libraries\lvgl\src/core\lv_disp.h **** } lv_scr_load_anim_t;
  46:c:\projects\paindrain\arduinolcd\test\pain drain\libraries\lvgl\src/core\lv_disp.h **** 
  47:c:\projects\paindrain\arduinolcd\test\pain drain\libraries\lvgl\src/core\lv_disp.h **** /**********************
  48:c:\projects\paindrain\arduinolcd\test\pain drain\libraries\lvgl\src/core\lv_disp.h ****  * GLOBAL PROTOTYPES
  49:c:\projects\paindrain\arduinolcd\test\pain drain\libraries\lvgl\src/core\lv_disp.h ****  **********************/
  50:c:\projects\paindrain\arduinolcd\test\pain drain\libraries\lvgl\src/core\lv_disp.h **** 
  51:c:\projects\paindrain\arduinolcd\test\pain drain\libraries\lvgl\src/core\lv_disp.h **** /**
  52:c:\projects\paindrain\arduinolcd\test\pain drain\libraries\lvgl\src/core\lv_disp.h ****  * Return with a pointer to the active screen
  53:c:\projects\paindrain\arduinolcd\test\pain drain\libraries\lvgl\src/core\lv_disp.h ****  * @param disp pointer to display which active screen should be get. (NULL to use the default
  54:c:\projects\paindrain\arduinolcd\test\pain drain\libraries\lvgl\src/core\lv_disp.h ****  * screen)
  55:c:\projects\paindrain\arduinolcd\test\pain drain\libraries\lvgl\src/core\lv_disp.h ****  * @return pointer to the active screen object (loaded by 'lv_scr_load()')
  56:c:\projects\paindrain\arduinolcd\test\pain drain\libraries\lvgl\src/core\lv_disp.h ****  */
  57:c:\projects\paindrain\arduinolcd\test\pain drain\libraries\lvgl\src/core\lv_disp.h **** lv_obj_t * lv_disp_get_scr_act(lv_disp_t * disp);
  58:c:\projects\paindrain\arduinolcd\test\pain drain\libraries\lvgl\src/core\lv_disp.h **** 
  59:c:\projects\paindrain\arduinolcd\test\pain drain\libraries\lvgl\src/core\lv_disp.h **** /**
  60:c:\projects\paindrain\arduinolcd\test\pain drain\libraries\lvgl\src/core\lv_disp.h ****  * Return with a pointer to the previous screen. Only used during screen transitions.
  61:c:\projects\paindrain\arduinolcd\test\pain drain\libraries\lvgl\src/core\lv_disp.h ****  * @param disp pointer to display which previous screen should be get. (NULL to use the default
  62:c:\projects\paindrain\arduinolcd\test\pain drain\libraries\lvgl\src/core\lv_disp.h ****  * screen)
  63:c:\projects\paindrain\arduinolcd\test\pain drain\libraries\lvgl\src/core\lv_disp.h ****  * @return pointer to the previous screen object or NULL if not used now
  64:c:\projects\paindrain\arduinolcd\test\pain drain\libraries\lvgl\src/core\lv_disp.h ****  */
  65:c:\projects\paindrain\arduinolcd\test\pain drain\libraries\lvgl\src/core\lv_disp.h **** lv_obj_t * lv_disp_get_scr_prev(lv_disp_t * disp);
  66:c:\projects\paindrain\arduinolcd\test\pain drain\libraries\lvgl\src/core\lv_disp.h **** 
  67:c:\projects\paindrain\arduinolcd\test\pain drain\libraries\lvgl\src/core\lv_disp.h **** /**
  68:c:\projects\paindrain\arduinolcd\test\pain drain\libraries\lvgl\src/core\lv_disp.h ****  * Make a screen active
  69:c:\projects\paindrain\arduinolcd\test\pain drain\libraries\lvgl\src/core\lv_disp.h ****  * @param scr pointer to a screen
  70:c:\projects\paindrain\arduinolcd\test\pain drain\libraries\lvgl\src/core\lv_disp.h ****  */
  71:c:\projects\paindrain\arduinolcd\test\pain drain\libraries\lvgl\src/core\lv_disp.h **** void lv_disp_load_scr(lv_obj_t * scr);
  72:c:\projects\paindrain\arduinolcd\test\pain drain\libraries\lvgl\src/core\lv_disp.h **** 
  73:c:\projects\paindrain\arduinolcd\test\pain drain\libraries\lvgl\src/core\lv_disp.h **** /**
  74:c:\projects\paindrain\arduinolcd\test\pain drain\libraries\lvgl\src/core\lv_disp.h ****  * Return with the top layer. (Same on every screen and it is above the normal screen layer)
  75:c:\projects\paindrain\arduinolcd\test\pain drain\libraries\lvgl\src/core\lv_disp.h ****  * @param disp pointer to display which top layer should be get. (NULL to use the default screen)
  76:c:\projects\paindrain\arduinolcd\test\pain drain\libraries\lvgl\src/core\lv_disp.h ****  * @return pointer to the top layer object (transparent screen sized lv_obj)
  77:c:\projects\paindrain\arduinolcd\test\pain drain\libraries\lvgl\src/core\lv_disp.h ****  */
  78:c:\projects\paindrain\arduinolcd\test\pain drain\libraries\lvgl\src/core\lv_disp.h **** lv_obj_t * lv_disp_get_layer_top(lv_disp_t * disp);
  79:c:\projects\paindrain\arduinolcd\test\pain drain\libraries\lvgl\src/core\lv_disp.h **** 
  80:c:\projects\paindrain\arduinolcd\test\pain drain\libraries\lvgl\src/core\lv_disp.h **** /**
  81:c:\projects\paindrain\arduinolcd\test\pain drain\libraries\lvgl\src/core\lv_disp.h ****  * Return with the sys. layer. (Same on every screen and it is above the normal screen and the top
  82:c:\projects\paindrain\arduinolcd\test\pain drain\libraries\lvgl\src/core\lv_disp.h ****  * layer)
  83:c:\projects\paindrain\arduinolcd\test\pain drain\libraries\lvgl\src/core\lv_disp.h ****  * @param disp pointer to display which sys. layer should be retrieved. (NULL to use the default sc
  84:c:\projects\paindrain\arduinolcd\test\pain drain\libraries\lvgl\src/core\lv_disp.h ****  * @return pointer to the sys layer object (transparent screen sized lv_obj)
  85:c:\projects\paindrain\arduinolcd\test\pain drain\libraries\lvgl\src/core\lv_disp.h ****  */
  86:c:\projects\paindrain\arduinolcd\test\pain drain\libraries\lvgl\src/core\lv_disp.h **** lv_obj_t * lv_disp_get_layer_sys(lv_disp_t * disp);
  87:c:\projects\paindrain\arduinolcd\test\pain drain\libraries\lvgl\src/core\lv_disp.h **** 
  88:c:\projects\paindrain\arduinolcd\test\pain drain\libraries\lvgl\src/core\lv_disp.h **** /**
  89:c:\projects\paindrain\arduinolcd\test\pain drain\libraries\lvgl\src/core\lv_disp.h ****  * Set the theme of a display
  90:c:\projects\paindrain\arduinolcd\test\pain drain\libraries\lvgl\src/core\lv_disp.h ****  * @param disp pointer to a display
  91:c:\projects\paindrain\arduinolcd\test\pain drain\libraries\lvgl\src/core\lv_disp.h ****  */
  92:c:\projects\paindrain\arduinolcd\test\pain drain\libraries\lvgl\src/core\lv_disp.h **** void lv_disp_set_theme(lv_disp_t * disp, lv_theme_t * th);
  93:c:\projects\paindrain\arduinolcd\test\pain drain\libraries\lvgl\src/core\lv_disp.h **** 
  94:c:\projects\paindrain\arduinolcd\test\pain drain\libraries\lvgl\src/core\lv_disp.h **** /**
  95:c:\projects\paindrain\arduinolcd\test\pain drain\libraries\lvgl\src/core\lv_disp.h ****  * Get the theme of a display
  96:c:\projects\paindrain\arduinolcd\test\pain drain\libraries\lvgl\src/core\lv_disp.h ****  * @param disp pointer to a display
  97:c:\projects\paindrain\arduinolcd\test\pain drain\libraries\lvgl\src/core\lv_disp.h ****  * @return the display's theme (can be NULL)
  98:c:\projects\paindrain\arduinolcd\test\pain drain\libraries\lvgl\src/core\lv_disp.h ****  */
  99:c:\projects\paindrain\arduinolcd\test\pain drain\libraries\lvgl\src/core\lv_disp.h **** lv_theme_t * lv_disp_get_theme(lv_disp_t * disp);
 100:c:\projects\paindrain\arduinolcd\test\pain drain\libraries\lvgl\src/core\lv_disp.h **** 
ARM GAS  C:\Users\haske\AppData\Local\Temp\ccNao93W.s 			page 5


 101:c:\projects\paindrain\arduinolcd\test\pain drain\libraries\lvgl\src/core\lv_disp.h **** /**
 102:c:\projects\paindrain\arduinolcd\test\pain drain\libraries\lvgl\src/core\lv_disp.h ****  * Set the background color of a display
 103:c:\projects\paindrain\arduinolcd\test\pain drain\libraries\lvgl\src/core\lv_disp.h ****  * @param disp pointer to a display
 104:c:\projects\paindrain\arduinolcd\test\pain drain\libraries\lvgl\src/core\lv_disp.h ****  * @param color color of the background
 105:c:\projects\paindrain\arduinolcd\test\pain drain\libraries\lvgl\src/core\lv_disp.h ****  */
 106:c:\projects\paindrain\arduinolcd\test\pain drain\libraries\lvgl\src/core\lv_disp.h **** void lv_disp_set_bg_color(lv_disp_t * disp, lv_color_t color);
 107:c:\projects\paindrain\arduinolcd\test\pain drain\libraries\lvgl\src/core\lv_disp.h **** 
 108:c:\projects\paindrain\arduinolcd\test\pain drain\libraries\lvgl\src/core\lv_disp.h **** /**
 109:c:\projects\paindrain\arduinolcd\test\pain drain\libraries\lvgl\src/core\lv_disp.h ****  * Set the background image of a display
 110:c:\projects\paindrain\arduinolcd\test\pain drain\libraries\lvgl\src/core\lv_disp.h ****  * @param disp pointer to a display
 111:c:\projects\paindrain\arduinolcd\test\pain drain\libraries\lvgl\src/core\lv_disp.h ****  * @param img_src path to file or pointer to an `lv_img_dsc_t` variable
 112:c:\projects\paindrain\arduinolcd\test\pain drain\libraries\lvgl\src/core\lv_disp.h ****  */
 113:c:\projects\paindrain\arduinolcd\test\pain drain\libraries\lvgl\src/core\lv_disp.h **** void lv_disp_set_bg_image(lv_disp_t * disp, const void  * img_src);
 114:c:\projects\paindrain\arduinolcd\test\pain drain\libraries\lvgl\src/core\lv_disp.h **** 
 115:c:\projects\paindrain\arduinolcd\test\pain drain\libraries\lvgl\src/core\lv_disp.h **** /**
 116:c:\projects\paindrain\arduinolcd\test\pain drain\libraries\lvgl\src/core\lv_disp.h ****  * Set opacity of the background
 117:c:\projects\paindrain\arduinolcd\test\pain drain\libraries\lvgl\src/core\lv_disp.h ****  * @param disp pointer to a display
 118:c:\projects\paindrain\arduinolcd\test\pain drain\libraries\lvgl\src/core\lv_disp.h ****  * @param opa opacity (0..255)
 119:c:\projects\paindrain\arduinolcd\test\pain drain\libraries\lvgl\src/core\lv_disp.h ****  */
 120:c:\projects\paindrain\arduinolcd\test\pain drain\libraries\lvgl\src/core\lv_disp.h **** void lv_disp_set_bg_opa(lv_disp_t * disp, lv_opa_t opa);
 121:c:\projects\paindrain\arduinolcd\test\pain drain\libraries\lvgl\src/core\lv_disp.h **** 
 122:c:\projects\paindrain\arduinolcd\test\pain drain\libraries\lvgl\src/core\lv_disp.h **** /**
 123:c:\projects\paindrain\arduinolcd\test\pain drain\libraries\lvgl\src/core\lv_disp.h ****  * Switch screen with animation
 124:c:\projects\paindrain\arduinolcd\test\pain drain\libraries\lvgl\src/core\lv_disp.h ****  * @param scr pointer to the new screen to load
 125:c:\projects\paindrain\arduinolcd\test\pain drain\libraries\lvgl\src/core\lv_disp.h ****  * @param anim_type type of the animation from `lv_scr_load_anim_t`, e.g. `LV_SCR_LOAD_ANIM_MOVE_LE
 126:c:\projects\paindrain\arduinolcd\test\pain drain\libraries\lvgl\src/core\lv_disp.h ****  * @param time time of the animation
 127:c:\projects\paindrain\arduinolcd\test\pain drain\libraries\lvgl\src/core\lv_disp.h ****  * @param delay delay before the transition
 128:c:\projects\paindrain\arduinolcd\test\pain drain\libraries\lvgl\src/core\lv_disp.h ****  * @param auto_del true: automatically delete the old screen
 129:c:\projects\paindrain\arduinolcd\test\pain drain\libraries\lvgl\src/core\lv_disp.h ****  */
 130:c:\projects\paindrain\arduinolcd\test\pain drain\libraries\lvgl\src/core\lv_disp.h **** void lv_scr_load_anim(lv_obj_t * scr, lv_scr_load_anim_t anim_type, uint32_t time, uint32_t delay, 
 131:c:\projects\paindrain\arduinolcd\test\pain drain\libraries\lvgl\src/core\lv_disp.h **** 
 132:c:\projects\paindrain\arduinolcd\test\pain drain\libraries\lvgl\src/core\lv_disp.h **** /**
 133:c:\projects\paindrain\arduinolcd\test\pain drain\libraries\lvgl\src/core\lv_disp.h ****  * Get elapsed time since last user activity on a display (e.g. click)
 134:c:\projects\paindrain\arduinolcd\test\pain drain\libraries\lvgl\src/core\lv_disp.h ****  * @param disp pointer to a display (NULL to get the overall smallest inactivity)
 135:c:\projects\paindrain\arduinolcd\test\pain drain\libraries\lvgl\src/core\lv_disp.h ****  * @return elapsed ticks (milliseconds) since the last activity
 136:c:\projects\paindrain\arduinolcd\test\pain drain\libraries\lvgl\src/core\lv_disp.h ****  */
 137:c:\projects\paindrain\arduinolcd\test\pain drain\libraries\lvgl\src/core\lv_disp.h **** uint32_t lv_disp_get_inactive_time(const lv_disp_t * disp);
 138:c:\projects\paindrain\arduinolcd\test\pain drain\libraries\lvgl\src/core\lv_disp.h **** 
 139:c:\projects\paindrain\arduinolcd\test\pain drain\libraries\lvgl\src/core\lv_disp.h **** /**
 140:c:\projects\paindrain\arduinolcd\test\pain drain\libraries\lvgl\src/core\lv_disp.h ****  * Manually trigger an activity on a display
 141:c:\projects\paindrain\arduinolcd\test\pain drain\libraries\lvgl\src/core\lv_disp.h ****  * @param disp pointer to a display (NULL to use the default display)
 142:c:\projects\paindrain\arduinolcd\test\pain drain\libraries\lvgl\src/core\lv_disp.h ****  */
 143:c:\projects\paindrain\arduinolcd\test\pain drain\libraries\lvgl\src/core\lv_disp.h **** void lv_disp_trig_activity(lv_disp_t * disp);
 144:c:\projects\paindrain\arduinolcd\test\pain drain\libraries\lvgl\src/core\lv_disp.h **** 
 145:c:\projects\paindrain\arduinolcd\test\pain drain\libraries\lvgl\src/core\lv_disp.h **** /**
 146:c:\projects\paindrain\arduinolcd\test\pain drain\libraries\lvgl\src/core\lv_disp.h ****  * Clean any CPU cache that is related to the display.
 147:c:\projects\paindrain\arduinolcd\test\pain drain\libraries\lvgl\src/core\lv_disp.h ****  * @param disp pointer to a display (NULL to use the default display)
 148:c:\projects\paindrain\arduinolcd\test\pain drain\libraries\lvgl\src/core\lv_disp.h ****  */
 149:c:\projects\paindrain\arduinolcd\test\pain drain\libraries\lvgl\src/core\lv_disp.h **** void lv_disp_clean_dcache(lv_disp_t * disp);
 150:c:\projects\paindrain\arduinolcd\test\pain drain\libraries\lvgl\src/core\lv_disp.h **** 
 151:c:\projects\paindrain\arduinolcd\test\pain drain\libraries\lvgl\src/core\lv_disp.h **** /**
 152:c:\projects\paindrain\arduinolcd\test\pain drain\libraries\lvgl\src/core\lv_disp.h ****  * Temporarily enable and disable the invalidation of the display.
 153:c:\projects\paindrain\arduinolcd\test\pain drain\libraries\lvgl\src/core\lv_disp.h ****  * @param disp pointer to a display (NULL to use the default display)
 154:c:\projects\paindrain\arduinolcd\test\pain drain\libraries\lvgl\src/core\lv_disp.h ****  * @param en true: enable invalidation; false: invalidation
 155:c:\projects\paindrain\arduinolcd\test\pain drain\libraries\lvgl\src/core\lv_disp.h ****  */
 156:c:\projects\paindrain\arduinolcd\test\pain drain\libraries\lvgl\src/core\lv_disp.h **** void lv_disp_enable_invalidation(lv_disp_t * disp, bool en);
 157:c:\projects\paindrain\arduinolcd\test\pain drain\libraries\lvgl\src/core\lv_disp.h **** 
ARM GAS  C:\Users\haske\AppData\Local\Temp\ccNao93W.s 			page 6


 158:c:\projects\paindrain\arduinolcd\test\pain drain\libraries\lvgl\src/core\lv_disp.h **** /**
 159:c:\projects\paindrain\arduinolcd\test\pain drain\libraries\lvgl\src/core\lv_disp.h ****  * Get display invalidation is enabled.
 160:c:\projects\paindrain\arduinolcd\test\pain drain\libraries\lvgl\src/core\lv_disp.h ****  * @param disp pointer to a display (NULL to use the default display)
 161:c:\projects\paindrain\arduinolcd\test\pain drain\libraries\lvgl\src/core\lv_disp.h ****  * @return return true if invalidation is enabled
 162:c:\projects\paindrain\arduinolcd\test\pain drain\libraries\lvgl\src/core\lv_disp.h ****  */
 163:c:\projects\paindrain\arduinolcd\test\pain drain\libraries\lvgl\src/core\lv_disp.h **** bool lv_disp_is_invalidation_enabled(lv_disp_t * disp);
 164:c:\projects\paindrain\arduinolcd\test\pain drain\libraries\lvgl\src/core\lv_disp.h **** 
 165:c:\projects\paindrain\arduinolcd\test\pain drain\libraries\lvgl\src/core\lv_disp.h **** /**
 166:c:\projects\paindrain\arduinolcd\test\pain drain\libraries\lvgl\src/core\lv_disp.h ****  * Get a pointer to the screen refresher timer to
 167:c:\projects\paindrain\arduinolcd\test\pain drain\libraries\lvgl\src/core\lv_disp.h ****  * modify its parameters with `lv_timer_...` functions.
 168:c:\projects\paindrain\arduinolcd\test\pain drain\libraries\lvgl\src/core\lv_disp.h ****  * @param disp pointer to a display
 169:c:\projects\paindrain\arduinolcd\test\pain drain\libraries\lvgl\src/core\lv_disp.h ****  * @return pointer to the display refresher timer. (NULL on error)
 170:c:\projects\paindrain\arduinolcd\test\pain drain\libraries\lvgl\src/core\lv_disp.h ****  */
 171:c:\projects\paindrain\arduinolcd\test\pain drain\libraries\lvgl\src/core\lv_disp.h **** lv_timer_t * _lv_disp_get_refr_timer(lv_disp_t * disp);
 172:c:\projects\paindrain\arduinolcd\test\pain drain\libraries\lvgl\src/core\lv_disp.h **** 
 173:c:\projects\paindrain\arduinolcd\test\pain drain\libraries\lvgl\src/core\lv_disp.h **** /*------------------------------------------------
 174:c:\projects\paindrain\arduinolcd\test\pain drain\libraries\lvgl\src/core\lv_disp.h ****  * To improve backward compatibility
 175:c:\projects\paindrain\arduinolcd\test\pain drain\libraries\lvgl\src/core\lv_disp.h ****  * Recommended only if you have one display
 176:c:\projects\paindrain\arduinolcd\test\pain drain\libraries\lvgl\src/core\lv_disp.h ****  *------------------------------------------------*/
 177:c:\projects\paindrain\arduinolcd\test\pain drain\libraries\lvgl\src/core\lv_disp.h **** 
 178:c:\projects\paindrain\arduinolcd\test\pain drain\libraries\lvgl\src/core\lv_disp.h **** /**
 179:c:\projects\paindrain\arduinolcd\test\pain drain\libraries\lvgl\src/core\lv_disp.h ****  * Get the active screen of the default display
 180:c:\projects\paindrain\arduinolcd\test\pain drain\libraries\lvgl\src/core\lv_disp.h ****  * @return pointer to the active screen
 181:c:\projects\paindrain\arduinolcd\test\pain drain\libraries\lvgl\src/core\lv_disp.h ****  */
 182:c:\projects\paindrain\arduinolcd\test\pain drain\libraries\lvgl\src/core\lv_disp.h **** static inline lv_obj_t * lv_scr_act(void)
 183:c:\projects\paindrain\arduinolcd\test\pain drain\libraries\lvgl\src/core\lv_disp.h **** {
 184:c:\projects\paindrain\arduinolcd\test\pain drain\libraries\lvgl\src/core\lv_disp.h ****     return lv_disp_get_scr_act(lv_disp_get_default());
 185:c:\projects\paindrain\arduinolcd\test\pain drain\libraries\lvgl\src/core\lv_disp.h **** }
 186:c:\projects\paindrain\arduinolcd\test\pain drain\libraries\lvgl\src/core\lv_disp.h **** 
 187:c:\projects\paindrain\arduinolcd\test\pain drain\libraries\lvgl\src/core\lv_disp.h **** /**
 188:c:\projects\paindrain\arduinolcd\test\pain drain\libraries\lvgl\src/core\lv_disp.h ****  * Get the top layer  of the default display
 189:c:\projects\paindrain\arduinolcd\test\pain drain\libraries\lvgl\src/core\lv_disp.h ****  * @return pointer to the top layer
 190:c:\projects\paindrain\arduinolcd\test\pain drain\libraries\lvgl\src/core\lv_disp.h ****  */
 191:c:\projects\paindrain\arduinolcd\test\pain drain\libraries\lvgl\src/core\lv_disp.h **** static inline lv_obj_t * lv_layer_top(void)
 192:c:\projects\paindrain\arduinolcd\test\pain drain\libraries\lvgl\src/core\lv_disp.h **** {
 193:c:\projects\paindrain\arduinolcd\test\pain drain\libraries\lvgl\src/core\lv_disp.h ****     return lv_disp_get_layer_top(lv_disp_get_default());
  63              		.loc 2 193 0
  64 0018 FFF7FEFF 		bl	lv_disp_get_default
  65              	.LVL4:
  66 001c FFF7FEFF 		bl	lv_disp_get_layer_top
  67              	.LVL5:
  68 0020 0100     		movs	r1, r0
  69              	.LBE19:
  70              	.LBE18:
  67:..\..\..\arduinoLCD\test\Pain Drain\libraries\lvgl\src\extra\widgets\msgbox/lv_msgbox.c ****         auto_parent = true;
  68:..\..\..\arduinoLCD\test\Pain Drain\libraries\lvgl\src\extra\widgets\msgbox/lv_msgbox.c ****         parent = lv_obj_class_create_obj(&lv_msgbox_backdrop_class, lv_layer_top());
  71              		.loc 1 68 0
  72 0022 8648     		ldr	r0, .L32
  73 0024 FFF7FEFF 		bl	lv_obj_class_create_obj
  74              	.LVL6:
  75 0028 041E     		subs	r4, r0, #0
  76              	.LVL7:
  69:..\..\..\arduinoLCD\test\Pain Drain\libraries\lvgl\src\extra\widgets\msgbox/lv_msgbox.c ****         LV_ASSERT_MALLOC(parent);
  77              		.loc 1 69 0
  78 002a 00D1     		bne	.L3
  79              	.L4:
  80 002c FEE7     		b	.L4
ARM GAS  C:\Users\haske\AppData\Local\Temp\ccNao93W.s 			page 7


  81              	.L3:
  70:..\..\..\arduinoLCD\test\Pain Drain\libraries\lvgl\src\extra\widgets\msgbox/lv_msgbox.c ****         lv_obj_class_init_obj(parent);
  82              		.loc 1 70 0
  83 002e FFF7FEFF 		bl	lv_obj_class_init_obj
  84              	.LVL8:
  71:..\..\..\arduinoLCD\test\Pain Drain\libraries\lvgl\src\extra\widgets\msgbox/lv_msgbox.c ****         lv_obj_clear_flag(parent, LV_OBJ_FLAG_IGNORE_LAYOUT);
  85              		.loc 1 71 0
  86 0032 8021     		movs	r1, #128
  87 0034 8902     		lsls	r1, r1, #10
  88 0036 2000     		movs	r0, r4
  89 0038 FFF7FEFF 		bl	lv_obj_clear_flag
  90              	.LVL9:
  72:..\..\..\arduinoLCD\test\Pain Drain\libraries\lvgl\src\extra\widgets\msgbox/lv_msgbox.c ****         lv_obj_set_size(parent, LV_PCT(100), LV_PCT(100));
  91              		.loc 1 72 0
  92 003c 8049     		ldr	r1, .L32+4
  93 003e 0A00     		movs	r2, r1
  94 0040 2000     		movs	r0, r4
  95 0042 FFF7FEFF 		bl	lv_obj_set_size
  96              	.LVL10:
  67:..\..\..\arduinoLCD\test\Pain Drain\libraries\lvgl\src\extra\widgets\msgbox/lv_msgbox.c ****         parent = lv_obj_class_create_obj(&lv_msgbox_backdrop_class, lv_layer_top());
  97              		.loc 1 67 0
  98 0046 0123     		movs	r3, #1
  99 0048 9946     		mov	r9, r3
 100 004a 01E0     		b	.L2
 101              	.LVL11:
 102              	.L22:
  65:..\..\..\arduinoLCD\test\Pain Drain\libraries\lvgl\src\extra\widgets\msgbox/lv_msgbox.c ****     if(parent == NULL) {
 103              		.loc 1 65 0
 104 004c 0023     		movs	r3, #0
 105              	.LVL12:
 106 004e 9946     		mov	r9, r3
 107              	.LVL13:
 108              	.L2:
  73:..\..\..\arduinoLCD\test\Pain Drain\libraries\lvgl\src\extra\widgets\msgbox/lv_msgbox.c ****     }
  74:..\..\..\arduinoLCD\test\Pain Drain\libraries\lvgl\src\extra\widgets\msgbox/lv_msgbox.c **** 
  75:..\..\..\arduinoLCD\test\Pain Drain\libraries\lvgl\src\extra\widgets\msgbox/lv_msgbox.c ****     lv_obj_t * obj = lv_obj_class_create_obj(&lv_msgbox_class, parent);
 109              		.loc 1 75 0
 110 0050 2100     		movs	r1, r4
 111 0052 7A48     		ldr	r0, .L32
 112 0054 1C30     		adds	r0, r0, #28
 113 0056 FFF7FEFF 		bl	lv_obj_class_create_obj
 114              	.LVL14:
 115 005a 041E     		subs	r4, r0, #0
 116              	.LVL15:
  76:..\..\..\arduinoLCD\test\Pain Drain\libraries\lvgl\src\extra\widgets\msgbox/lv_msgbox.c ****     LV_ASSERT_MALLOC(obj);
 117              		.loc 1 76 0
 118 005c 00D1     		bne	.L5
 119              	.L6:
 120 005e FEE7     		b	.L6
 121              	.L5:
  77:..\..\..\arduinoLCD\test\Pain Drain\libraries\lvgl\src\extra\widgets\msgbox/lv_msgbox.c ****     if(obj == NULL) return NULL;
 122              		.loc 1 77 0
 123 0060 0028     		cmp	r0, #0
 124 0062 00D1     		bne	.LCB113
 125 0064 E3E0     		b	.L23	@long jump
 126              	.LCB113:
  78:..\..\..\arduinoLCD\test\Pain Drain\libraries\lvgl\src\extra\widgets\msgbox/lv_msgbox.c ****     lv_obj_class_init_obj(obj);
ARM GAS  C:\Users\haske\AppData\Local\Temp\ccNao93W.s 			page 8


 127              		.loc 1 78 0
 128 0066 FFF7FEFF 		bl	lv_obj_class_init_obj
 129              	.LVL16:
  79:..\..\..\arduinoLCD\test\Pain Drain\libraries\lvgl\src\extra\widgets\msgbox/lv_msgbox.c ****     lv_msgbox_t * mbox = (lv_msgbox_t *)obj;
  80:..\..\..\arduinoLCD\test\Pain Drain\libraries\lvgl\src\extra\widgets\msgbox/lv_msgbox.c **** 
  81:..\..\..\arduinoLCD\test\Pain Drain\libraries\lvgl\src\extra\widgets\msgbox/lv_msgbox.c ****     if(auto_parent) lv_obj_add_flag(obj, LV_MSGBOX_FLAG_AUTO_PARENT);
 130              		.loc 1 81 0
 131 006a 4B46     		mov	r3, r9
 132 006c 002B     		cmp	r3, #0
 133 006e 04D0     		beq	.L8
 134              		.loc 1 81 0 is_stmt 0 discriminator 1
 135 0070 8021     		movs	r1, #128
 136 0072 8904     		lsls	r1, r1, #18
 137 0074 2000     		movs	r0, r4
 138 0076 FFF7FEFF 		bl	lv_obj_add_flag
 139              	.LVL17:
 140              	.L8:
  82:..\..\..\arduinoLCD\test\Pain Drain\libraries\lvgl\src\extra\widgets\msgbox/lv_msgbox.c **** 
  83:..\..\..\arduinoLCD\test\Pain Drain\libraries\lvgl\src\extra\widgets\msgbox/lv_msgbox.c ****     lv_obj_set_flex_flow(obj, LV_FLEX_FLOW_ROW_WRAP);
 141              		.loc 1 83 0 is_stmt 1
 142 007a 0421     		movs	r1, #4
 143 007c 2000     		movs	r0, r4
 144 007e FFF7FEFF 		bl	lv_obj_set_flex_flow
 145              	.LVL18:
  84:..\..\..\arduinoLCD\test\Pain Drain\libraries\lvgl\src\extra\widgets\msgbox/lv_msgbox.c **** 
  85:..\..\..\arduinoLCD\test\Pain Drain\libraries\lvgl\src\extra\widgets\msgbox/lv_msgbox.c ****     bool has_title = title && strlen(title) > 0;
 146              		.loc 1 85 0
 147 0082 002D     		cmp	r5, #0
 148 0084 03D0     		beq	.L24
 149              		.loc 1 85 0 is_stmt 0 discriminator 1
 150 0086 2B78     		ldrb	r3, [r5]
 151 0088 002B     		cmp	r3, #0
 152 008a 02D1     		bne	.L25
 153 008c 02E0     		b	.L9
 154              	.L24:
 155              		.loc 1 85 0
 156 008e 0023     		movs	r3, #0
 157 0090 00E0     		b	.L9
 158              	.L25:
 159 0092 0123     		movs	r3, #1
 160              	.L9:
 161              		.loc 1 85 0 discriminator 6
 162 0094 9946     		mov	r9, r3
 163              	.LVL19:
  86:..\..\..\arduinoLCD\test\Pain Drain\libraries\lvgl\src\extra\widgets\msgbox/lv_msgbox.c **** 
  87:..\..\..\arduinoLCD\test\Pain Drain\libraries\lvgl\src\extra\widgets\msgbox/lv_msgbox.c ****     /*When a close button is required, we need the empty label as spacer to push the button to the 
  88:..\..\..\arduinoLCD\test\Pain Drain\libraries\lvgl\src\extra\widgets\msgbox/lv_msgbox.c ****     if(add_close_btn || has_title) {
 164              		.loc 1 88 0 is_stmt 1 discriminator 6
 165 0096 002F     		cmp	r7, #0
 166 0098 01D1     		bne	.L10
 167              		.loc 1 88 0 is_stmt 0 discriminator 1
 168 009a 002B     		cmp	r3, #0
 169 009c 1AD0     		beq	.L11
 170              	.L10:
  89:..\..\..\arduinoLCD\test\Pain Drain\libraries\lvgl\src\extra\widgets\msgbox/lv_msgbox.c ****         mbox->title = lv_label_create(obj);
 171              		.loc 1 89 0 is_stmt 1
 172 009e 2000     		movs	r0, r4
ARM GAS  C:\Users\haske\AppData\Local\Temp\ccNao93W.s 			page 9


 173 00a0 FFF7FEFF 		bl	lv_label_create
 174              	.LVL20:
 175 00a4 6062     		str	r0, [r4, #36]
  90:..\..\..\arduinoLCD\test\Pain Drain\libraries\lvgl\src\extra\widgets\msgbox/lv_msgbox.c ****         lv_label_set_text(mbox->title, has_title ? title : "");
 176              		.loc 1 90 0
 177 00a6 4B46     		mov	r3, r9
 178 00a8 002B     		cmp	r3, #0
 179 00aa 01D1     		bne	.L26
 180 00ac 6549     		ldr	r1, .L32+8
 181 00ae 00E0     		b	.L12
 182              	.L26:
 183 00b0 2900     		movs	r1, r5
 184              	.L12:
 185              		.loc 1 90 0 is_stmt 0 discriminator 4
 186 00b2 FFF7FEFF 		bl	lv_label_set_text
 187              	.LVL21:
  91:..\..\..\arduinoLCD\test\Pain Drain\libraries\lvgl\src\extra\widgets\msgbox/lv_msgbox.c ****         lv_label_set_long_mode(mbox->title, LV_LABEL_LONG_SCROLL_CIRCULAR);
 188              		.loc 1 91 0 is_stmt 1 discriminator 4
 189 00b6 0321     		movs	r1, #3
 190 00b8 606A     		ldr	r0, [r4, #36]
 191 00ba FFF7FEFF 		bl	lv_label_set_long_mode
 192              	.LVL22:
  92:..\..\..\arduinoLCD\test\Pain Drain\libraries\lvgl\src\extra\widgets\msgbox/lv_msgbox.c ****         if(add_close_btn) lv_obj_set_flex_grow(mbox->title, 1);
 193              		.loc 1 92 0 discriminator 4
 194 00be 002F     		cmp	r7, #0
 195 00c0 04D0     		beq	.L13
 196              		.loc 1 92 0 is_stmt 0 discriminator 1
 197 00c2 0121     		movs	r1, #1
 198 00c4 606A     		ldr	r0, [r4, #36]
 199 00c6 FFF7FEFF 		bl	lv_obj_set_flex_grow
 200              	.LVL23:
 201 00ca 03E0     		b	.L11
 202              	.L13:
  93:..\..\..\arduinoLCD\test\Pain Drain\libraries\lvgl\src\extra\widgets\msgbox/lv_msgbox.c ****         else lv_obj_set_width(mbox->title, LV_PCT(100));
 203              		.loc 1 93 0 is_stmt 1
 204 00cc 5C49     		ldr	r1, .L32+4
 205 00ce 606A     		ldr	r0, [r4, #36]
 206 00d0 FFF7FEFF 		bl	lv_obj_set_width
 207              	.LVL24:
 208              	.L11:
  94:..\..\..\arduinoLCD\test\Pain Drain\libraries\lvgl\src\extra\widgets\msgbox/lv_msgbox.c ****     }
  95:..\..\..\arduinoLCD\test\Pain Drain\libraries\lvgl\src\extra\widgets\msgbox/lv_msgbox.c **** 
  96:..\..\..\arduinoLCD\test\Pain Drain\libraries\lvgl\src\extra\widgets\msgbox/lv_msgbox.c ****     if(add_close_btn) {
 209              		.loc 1 96 0
 210 00d4 002F     		cmp	r7, #0
 211 00d6 56D0     		beq	.L14
 212              	.LBB20:
  97:..\..\..\arduinoLCD\test\Pain Drain\libraries\lvgl\src\extra\widgets\msgbox/lv_msgbox.c ****         mbox->close_btn = lv_btn_create(obj);
 213              		.loc 1 97 0
 214 00d8 2000     		movs	r0, r4
 215 00da FFF7FEFF 		bl	lv_btn_create
 216              	.LVL25:
 217 00de 0500     		movs	r5, r0
 218              	.LVL26:
 219 00e0 A062     		str	r0, [r4, #40]
  98:..\..\..\arduinoLCD\test\Pain Drain\libraries\lvgl\src\extra\widgets\msgbox/lv_msgbox.c ****         lv_obj_set_ext_click_area(mbox->close_btn, LV_DPX(10));
 220              		.loc 1 98 0
ARM GAS  C:\Users\haske\AppData\Local\Temp\ccNao93W.s 			page 10


 221 00e2 0020     		movs	r0, #0
 222 00e4 FFF7FEFF 		bl	lv_disp_get_dpi
 223              	.LVL27:
 224 00e8 8300     		lsls	r3, r0, #2
 225 00ea 1818     		adds	r0, r3, r0
 226 00ec 4300     		lsls	r3, r0, #1
 227 00ee 5033     		adds	r3, r3, #80
 228 00f0 4022     		movs	r2, #64
 229 00f2 FF32     		adds	r2, r2, #255
 230 00f4 9342     		cmp	r3, r2
 231 00f6 0BDD     		ble	.L27
 232              		.loc 1 98 0 is_stmt 0 discriminator 1
 233 00f8 0020     		movs	r0, #0
 234 00fa FFF7FEFF 		bl	lv_disp_get_dpi
 235              	.LVL28:
 236 00fe 8300     		lsls	r3, r0, #2
 237 0100 1B18     		adds	r3, r3, r0
 238 0102 5800     		lsls	r0, r3, #1
 239 0104 5030     		adds	r0, r0, #80
 240 0106 A021     		movs	r1, #160
 241 0108 FFF7FEFF 		bl	__aeabi_idiv
 242              	.LVL29:
 243 010c 01B2     		sxth	r1, r0
 244 010e 00E0     		b	.L15
 245              	.L27:
 246              		.loc 1 98 0
 247 0110 0121     		movs	r1, #1
 248              	.L15:
 249              		.loc 1 98 0 discriminator 4
 250 0112 2800     		movs	r0, r5
 251 0114 FFF7FEFF 		bl	lv_obj_set_ext_click_area
 252              	.LVL30:
  99:..\..\..\arduinoLCD\test\Pain Drain\libraries\lvgl\src\extra\widgets\msgbox/lv_msgbox.c ****         lv_obj_add_event_cb(mbox->close_btn, msgbox_close_click_event_cb, LV_EVENT_CLICKED, NULL);
 253              		.loc 1 99 0 is_stmt 1 discriminator 4
 254 0118 0023     		movs	r3, #0
 255 011a 0722     		movs	r2, #7
 256 011c 4A49     		ldr	r1, .L32+12
 257 011e A06A     		ldr	r0, [r4, #40]
 258 0120 FFF7FEFF 		bl	lv_obj_add_event_cb
 259              	.LVL31:
 100:..\..\..\arduinoLCD\test\Pain Drain\libraries\lvgl\src\extra\widgets\msgbox/lv_msgbox.c ****         lv_obj_t * label = lv_label_create(mbox->close_btn);
 260              		.loc 1 100 0 discriminator 4
 261 0124 A06A     		ldr	r0, [r4, #40]
 262 0126 FFF7FEFF 		bl	lv_label_create
 263              	.LVL32:
 264 012a 0500     		movs	r5, r0
 265              	.LVL33:
 101:..\..\..\arduinoLCD\test\Pain Drain\libraries\lvgl\src\extra\widgets\msgbox/lv_msgbox.c ****         lv_label_set_text(label, LV_SYMBOL_CLOSE);
 266              		.loc 1 101 0 discriminator 4
 267 012c 4749     		ldr	r1, .L32+16
 268 012e FFF7FEFF 		bl	lv_label_set_text
 269              	.LVL34:
 270              	.LBB21:
 271              	.LBB22:
 272              		.file 3 "c:\\projects\\paindrain\\arduinolcd\\test\\pain drain\\libraries\\lvgl\\src/core/lv_obj_s
   1:c:\projects\paindrain\arduinolcd\test\pain drain\libraries\lvgl\src/core\lv_obj_style_gen.h **** static inline lv_coord_t lv_obj_get_style_width(const struct _lv_obj_t * obj, uint32_t part)
   2:c:\projects\paindrain\arduinolcd\test\pain drain\libraries\lvgl\src/core\lv_obj_style_gen.h **** {
ARM GAS  C:\Users\haske\AppData\Local\Temp\ccNao93W.s 			page 11


   3:c:\projects\paindrain\arduinolcd\test\pain drain\libraries\lvgl\src/core\lv_obj_style_gen.h ****     lv_style_value_t v = lv_obj_get_style_prop(obj, part, LV_STYLE_WIDTH);
   4:c:\projects\paindrain\arduinolcd\test\pain drain\libraries\lvgl\src/core\lv_obj_style_gen.h ****     return (lv_coord_t)v.num;
   5:c:\projects\paindrain\arduinolcd\test\pain drain\libraries\lvgl\src/core\lv_obj_style_gen.h **** }
   6:c:\projects\paindrain\arduinolcd\test\pain drain\libraries\lvgl\src/core\lv_obj_style_gen.h **** 
   7:c:\projects\paindrain\arduinolcd\test\pain drain\libraries\lvgl\src/core\lv_obj_style_gen.h **** static inline lv_coord_t lv_obj_get_style_min_width(const struct _lv_obj_t * obj, uint32_t part)
   8:c:\projects\paindrain\arduinolcd\test\pain drain\libraries\lvgl\src/core\lv_obj_style_gen.h **** {
   9:c:\projects\paindrain\arduinolcd\test\pain drain\libraries\lvgl\src/core\lv_obj_style_gen.h ****     lv_style_value_t v = lv_obj_get_style_prop(obj, part, LV_STYLE_MIN_WIDTH);
  10:c:\projects\paindrain\arduinolcd\test\pain drain\libraries\lvgl\src/core\lv_obj_style_gen.h ****     return (lv_coord_t)v.num;
  11:c:\projects\paindrain\arduinolcd\test\pain drain\libraries\lvgl\src/core\lv_obj_style_gen.h **** }
  12:c:\projects\paindrain\arduinolcd\test\pain drain\libraries\lvgl\src/core\lv_obj_style_gen.h **** 
  13:c:\projects\paindrain\arduinolcd\test\pain drain\libraries\lvgl\src/core\lv_obj_style_gen.h **** static inline lv_coord_t lv_obj_get_style_max_width(const struct _lv_obj_t * obj, uint32_t part)
  14:c:\projects\paindrain\arduinolcd\test\pain drain\libraries\lvgl\src/core\lv_obj_style_gen.h **** {
  15:c:\projects\paindrain\arduinolcd\test\pain drain\libraries\lvgl\src/core\lv_obj_style_gen.h ****     lv_style_value_t v = lv_obj_get_style_prop(obj, part, LV_STYLE_MAX_WIDTH);
  16:c:\projects\paindrain\arduinolcd\test\pain drain\libraries\lvgl\src/core\lv_obj_style_gen.h ****     return (lv_coord_t)v.num;
  17:c:\projects\paindrain\arduinolcd\test\pain drain\libraries\lvgl\src/core\lv_obj_style_gen.h **** }
  18:c:\projects\paindrain\arduinolcd\test\pain drain\libraries\lvgl\src/core\lv_obj_style_gen.h **** 
  19:c:\projects\paindrain\arduinolcd\test\pain drain\libraries\lvgl\src/core\lv_obj_style_gen.h **** static inline lv_coord_t lv_obj_get_style_height(const struct _lv_obj_t * obj, uint32_t part)
  20:c:\projects\paindrain\arduinolcd\test\pain drain\libraries\lvgl\src/core\lv_obj_style_gen.h **** {
  21:c:\projects\paindrain\arduinolcd\test\pain drain\libraries\lvgl\src/core\lv_obj_style_gen.h ****     lv_style_value_t v = lv_obj_get_style_prop(obj, part, LV_STYLE_HEIGHT);
  22:c:\projects\paindrain\arduinolcd\test\pain drain\libraries\lvgl\src/core\lv_obj_style_gen.h ****     return (lv_coord_t)v.num;
  23:c:\projects\paindrain\arduinolcd\test\pain drain\libraries\lvgl\src/core\lv_obj_style_gen.h **** }
  24:c:\projects\paindrain\arduinolcd\test\pain drain\libraries\lvgl\src/core\lv_obj_style_gen.h **** 
  25:c:\projects\paindrain\arduinolcd\test\pain drain\libraries\lvgl\src/core\lv_obj_style_gen.h **** static inline lv_coord_t lv_obj_get_style_min_height(const struct _lv_obj_t * obj, uint32_t part)
  26:c:\projects\paindrain\arduinolcd\test\pain drain\libraries\lvgl\src/core\lv_obj_style_gen.h **** {
  27:c:\projects\paindrain\arduinolcd\test\pain drain\libraries\lvgl\src/core\lv_obj_style_gen.h ****     lv_style_value_t v = lv_obj_get_style_prop(obj, part, LV_STYLE_MIN_HEIGHT);
  28:c:\projects\paindrain\arduinolcd\test\pain drain\libraries\lvgl\src/core\lv_obj_style_gen.h ****     return (lv_coord_t)v.num;
  29:c:\projects\paindrain\arduinolcd\test\pain drain\libraries\lvgl\src/core\lv_obj_style_gen.h **** }
  30:c:\projects\paindrain\arduinolcd\test\pain drain\libraries\lvgl\src/core\lv_obj_style_gen.h **** 
  31:c:\projects\paindrain\arduinolcd\test\pain drain\libraries\lvgl\src/core\lv_obj_style_gen.h **** static inline lv_coord_t lv_obj_get_style_max_height(const struct _lv_obj_t * obj, uint32_t part)
  32:c:\projects\paindrain\arduinolcd\test\pain drain\libraries\lvgl\src/core\lv_obj_style_gen.h **** {
  33:c:\projects\paindrain\arduinolcd\test\pain drain\libraries\lvgl\src/core\lv_obj_style_gen.h ****     lv_style_value_t v = lv_obj_get_style_prop(obj, part, LV_STYLE_MAX_HEIGHT);
  34:c:\projects\paindrain\arduinolcd\test\pain drain\libraries\lvgl\src/core\lv_obj_style_gen.h ****     return (lv_coord_t)v.num;
  35:c:\projects\paindrain\arduinolcd\test\pain drain\libraries\lvgl\src/core\lv_obj_style_gen.h **** }
  36:c:\projects\paindrain\arduinolcd\test\pain drain\libraries\lvgl\src/core\lv_obj_style_gen.h **** 
  37:c:\projects\paindrain\arduinolcd\test\pain drain\libraries\lvgl\src/core\lv_obj_style_gen.h **** static inline lv_coord_t lv_obj_get_style_x(const struct _lv_obj_t * obj, uint32_t part)
  38:c:\projects\paindrain\arduinolcd\test\pain drain\libraries\lvgl\src/core\lv_obj_style_gen.h **** {
  39:c:\projects\paindrain\arduinolcd\test\pain drain\libraries\lvgl\src/core\lv_obj_style_gen.h ****     lv_style_value_t v = lv_obj_get_style_prop(obj, part, LV_STYLE_X);
  40:c:\projects\paindrain\arduinolcd\test\pain drain\libraries\lvgl\src/core\lv_obj_style_gen.h ****     return (lv_coord_t)v.num;
  41:c:\projects\paindrain\arduinolcd\test\pain drain\libraries\lvgl\src/core\lv_obj_style_gen.h **** }
  42:c:\projects\paindrain\arduinolcd\test\pain drain\libraries\lvgl\src/core\lv_obj_style_gen.h **** 
  43:c:\projects\paindrain\arduinolcd\test\pain drain\libraries\lvgl\src/core\lv_obj_style_gen.h **** static inline lv_coord_t lv_obj_get_style_y(const struct _lv_obj_t * obj, uint32_t part)
  44:c:\projects\paindrain\arduinolcd\test\pain drain\libraries\lvgl\src/core\lv_obj_style_gen.h **** {
  45:c:\projects\paindrain\arduinolcd\test\pain drain\libraries\lvgl\src/core\lv_obj_style_gen.h ****     lv_style_value_t v = lv_obj_get_style_prop(obj, part, LV_STYLE_Y);
  46:c:\projects\paindrain\arduinolcd\test\pain drain\libraries\lvgl\src/core\lv_obj_style_gen.h ****     return (lv_coord_t)v.num;
  47:c:\projects\paindrain\arduinolcd\test\pain drain\libraries\lvgl\src/core\lv_obj_style_gen.h **** }
  48:c:\projects\paindrain\arduinolcd\test\pain drain\libraries\lvgl\src/core\lv_obj_style_gen.h **** 
  49:c:\projects\paindrain\arduinolcd\test\pain drain\libraries\lvgl\src/core\lv_obj_style_gen.h **** static inline lv_align_t lv_obj_get_style_align(const struct _lv_obj_t * obj, uint32_t part)
  50:c:\projects\paindrain\arduinolcd\test\pain drain\libraries\lvgl\src/core\lv_obj_style_gen.h **** {
  51:c:\projects\paindrain\arduinolcd\test\pain drain\libraries\lvgl\src/core\lv_obj_style_gen.h ****     lv_style_value_t v = lv_obj_get_style_prop(obj, part, LV_STYLE_ALIGN);
  52:c:\projects\paindrain\arduinolcd\test\pain drain\libraries\lvgl\src/core\lv_obj_style_gen.h ****     return (lv_align_t)v.num;
  53:c:\projects\paindrain\arduinolcd\test\pain drain\libraries\lvgl\src/core\lv_obj_style_gen.h **** }
  54:c:\projects\paindrain\arduinolcd\test\pain drain\libraries\lvgl\src/core\lv_obj_style_gen.h **** 
  55:c:\projects\paindrain\arduinolcd\test\pain drain\libraries\lvgl\src/core\lv_obj_style_gen.h **** static inline lv_coord_t lv_obj_get_style_transform_width(const struct _lv_obj_t * obj, uint32_t pa
  56:c:\projects\paindrain\arduinolcd\test\pain drain\libraries\lvgl\src/core\lv_obj_style_gen.h **** {
  57:c:\projects\paindrain\arduinolcd\test\pain drain\libraries\lvgl\src/core\lv_obj_style_gen.h ****     lv_style_value_t v = lv_obj_get_style_prop(obj, part, LV_STYLE_TRANSFORM_WIDTH);
  58:c:\projects\paindrain\arduinolcd\test\pain drain\libraries\lvgl\src/core\lv_obj_style_gen.h ****     return (lv_coord_t)v.num;
  59:c:\projects\paindrain\arduinolcd\test\pain drain\libraries\lvgl\src/core\lv_obj_style_gen.h **** }
ARM GAS  C:\Users\haske\AppData\Local\Temp\ccNao93W.s 			page 12


  60:c:\projects\paindrain\arduinolcd\test\pain drain\libraries\lvgl\src/core\lv_obj_style_gen.h **** 
  61:c:\projects\paindrain\arduinolcd\test\pain drain\libraries\lvgl\src/core\lv_obj_style_gen.h **** static inline lv_coord_t lv_obj_get_style_transform_height(const struct _lv_obj_t * obj, uint32_t p
  62:c:\projects\paindrain\arduinolcd\test\pain drain\libraries\lvgl\src/core\lv_obj_style_gen.h **** {
  63:c:\projects\paindrain\arduinolcd\test\pain drain\libraries\lvgl\src/core\lv_obj_style_gen.h ****     lv_style_value_t v = lv_obj_get_style_prop(obj, part, LV_STYLE_TRANSFORM_HEIGHT);
  64:c:\projects\paindrain\arduinolcd\test\pain drain\libraries\lvgl\src/core\lv_obj_style_gen.h ****     return (lv_coord_t)v.num;
  65:c:\projects\paindrain\arduinolcd\test\pain drain\libraries\lvgl\src/core\lv_obj_style_gen.h **** }
  66:c:\projects\paindrain\arduinolcd\test\pain drain\libraries\lvgl\src/core\lv_obj_style_gen.h **** 
  67:c:\projects\paindrain\arduinolcd\test\pain drain\libraries\lvgl\src/core\lv_obj_style_gen.h **** static inline lv_coord_t lv_obj_get_style_translate_x(const struct _lv_obj_t * obj, uint32_t part)
  68:c:\projects\paindrain\arduinolcd\test\pain drain\libraries\lvgl\src/core\lv_obj_style_gen.h **** {
  69:c:\projects\paindrain\arduinolcd\test\pain drain\libraries\lvgl\src/core\lv_obj_style_gen.h ****     lv_style_value_t v = lv_obj_get_style_prop(obj, part, LV_STYLE_TRANSLATE_X);
  70:c:\projects\paindrain\arduinolcd\test\pain drain\libraries\lvgl\src/core\lv_obj_style_gen.h ****     return (lv_coord_t)v.num;
  71:c:\projects\paindrain\arduinolcd\test\pain drain\libraries\lvgl\src/core\lv_obj_style_gen.h **** }
  72:c:\projects\paindrain\arduinolcd\test\pain drain\libraries\lvgl\src/core\lv_obj_style_gen.h **** 
  73:c:\projects\paindrain\arduinolcd\test\pain drain\libraries\lvgl\src/core\lv_obj_style_gen.h **** static inline lv_coord_t lv_obj_get_style_translate_y(const struct _lv_obj_t * obj, uint32_t part)
  74:c:\projects\paindrain\arduinolcd\test\pain drain\libraries\lvgl\src/core\lv_obj_style_gen.h **** {
  75:c:\projects\paindrain\arduinolcd\test\pain drain\libraries\lvgl\src/core\lv_obj_style_gen.h ****     lv_style_value_t v = lv_obj_get_style_prop(obj, part, LV_STYLE_TRANSLATE_Y);
  76:c:\projects\paindrain\arduinolcd\test\pain drain\libraries\lvgl\src/core\lv_obj_style_gen.h ****     return (lv_coord_t)v.num;
  77:c:\projects\paindrain\arduinolcd\test\pain drain\libraries\lvgl\src/core\lv_obj_style_gen.h **** }
  78:c:\projects\paindrain\arduinolcd\test\pain drain\libraries\lvgl\src/core\lv_obj_style_gen.h **** 
  79:c:\projects\paindrain\arduinolcd\test\pain drain\libraries\lvgl\src/core\lv_obj_style_gen.h **** static inline lv_coord_t lv_obj_get_style_transform_zoom(const struct _lv_obj_t * obj, uint32_t par
  80:c:\projects\paindrain\arduinolcd\test\pain drain\libraries\lvgl\src/core\lv_obj_style_gen.h **** {
  81:c:\projects\paindrain\arduinolcd\test\pain drain\libraries\lvgl\src/core\lv_obj_style_gen.h ****     lv_style_value_t v = lv_obj_get_style_prop(obj, part, LV_STYLE_TRANSFORM_ZOOM);
  82:c:\projects\paindrain\arduinolcd\test\pain drain\libraries\lvgl\src/core\lv_obj_style_gen.h ****     return (lv_coord_t)v.num;
  83:c:\projects\paindrain\arduinolcd\test\pain drain\libraries\lvgl\src/core\lv_obj_style_gen.h **** }
  84:c:\projects\paindrain\arduinolcd\test\pain drain\libraries\lvgl\src/core\lv_obj_style_gen.h **** 
  85:c:\projects\paindrain\arduinolcd\test\pain drain\libraries\lvgl\src/core\lv_obj_style_gen.h **** static inline lv_coord_t lv_obj_get_style_transform_angle(const struct _lv_obj_t * obj, uint32_t pa
  86:c:\projects\paindrain\arduinolcd\test\pain drain\libraries\lvgl\src/core\lv_obj_style_gen.h **** {
  87:c:\projects\paindrain\arduinolcd\test\pain drain\libraries\lvgl\src/core\lv_obj_style_gen.h ****     lv_style_value_t v = lv_obj_get_style_prop(obj, part, LV_STYLE_TRANSFORM_ANGLE);
  88:c:\projects\paindrain\arduinolcd\test\pain drain\libraries\lvgl\src/core\lv_obj_style_gen.h ****     return (lv_coord_t)v.num;
  89:c:\projects\paindrain\arduinolcd\test\pain drain\libraries\lvgl\src/core\lv_obj_style_gen.h **** }
  90:c:\projects\paindrain\arduinolcd\test\pain drain\libraries\lvgl\src/core\lv_obj_style_gen.h **** 
  91:c:\projects\paindrain\arduinolcd\test\pain drain\libraries\lvgl\src/core\lv_obj_style_gen.h **** static inline lv_coord_t lv_obj_get_style_transform_pivot_x(const struct _lv_obj_t * obj, uint32_t 
  92:c:\projects\paindrain\arduinolcd\test\pain drain\libraries\lvgl\src/core\lv_obj_style_gen.h **** {
  93:c:\projects\paindrain\arduinolcd\test\pain drain\libraries\lvgl\src/core\lv_obj_style_gen.h ****     lv_style_value_t v = lv_obj_get_style_prop(obj, part, LV_STYLE_TRANSFORM_PIVOT_X);
  94:c:\projects\paindrain\arduinolcd\test\pain drain\libraries\lvgl\src/core\lv_obj_style_gen.h ****     return (lv_coord_t)v.num;
  95:c:\projects\paindrain\arduinolcd\test\pain drain\libraries\lvgl\src/core\lv_obj_style_gen.h **** }
  96:c:\projects\paindrain\arduinolcd\test\pain drain\libraries\lvgl\src/core\lv_obj_style_gen.h **** 
  97:c:\projects\paindrain\arduinolcd\test\pain drain\libraries\lvgl\src/core\lv_obj_style_gen.h **** static inline lv_coord_t lv_obj_get_style_transform_pivot_y(const struct _lv_obj_t * obj, uint32_t 
  98:c:\projects\paindrain\arduinolcd\test\pain drain\libraries\lvgl\src/core\lv_obj_style_gen.h **** {
  99:c:\projects\paindrain\arduinolcd\test\pain drain\libraries\lvgl\src/core\lv_obj_style_gen.h ****     lv_style_value_t v = lv_obj_get_style_prop(obj, part, LV_STYLE_TRANSFORM_PIVOT_Y);
 100:c:\projects\paindrain\arduinolcd\test\pain drain\libraries\lvgl\src/core\lv_obj_style_gen.h ****     return (lv_coord_t)v.num;
 101:c:\projects\paindrain\arduinolcd\test\pain drain\libraries\lvgl\src/core\lv_obj_style_gen.h **** }
 102:c:\projects\paindrain\arduinolcd\test\pain drain\libraries\lvgl\src/core\lv_obj_style_gen.h **** 
 103:c:\projects\paindrain\arduinolcd\test\pain drain\libraries\lvgl\src/core\lv_obj_style_gen.h **** static inline lv_coord_t lv_obj_get_style_pad_top(const struct _lv_obj_t * obj, uint32_t part)
 104:c:\projects\paindrain\arduinolcd\test\pain drain\libraries\lvgl\src/core\lv_obj_style_gen.h **** {
 105:c:\projects\paindrain\arduinolcd\test\pain drain\libraries\lvgl\src/core\lv_obj_style_gen.h ****     lv_style_value_t v = lv_obj_get_style_prop(obj, part, LV_STYLE_PAD_TOP);
 106:c:\projects\paindrain\arduinolcd\test\pain drain\libraries\lvgl\src/core\lv_obj_style_gen.h ****     return (lv_coord_t)v.num;
 107:c:\projects\paindrain\arduinolcd\test\pain drain\libraries\lvgl\src/core\lv_obj_style_gen.h **** }
 108:c:\projects\paindrain\arduinolcd\test\pain drain\libraries\lvgl\src/core\lv_obj_style_gen.h **** 
 109:c:\projects\paindrain\arduinolcd\test\pain drain\libraries\lvgl\src/core\lv_obj_style_gen.h **** static inline lv_coord_t lv_obj_get_style_pad_bottom(const struct _lv_obj_t * obj, uint32_t part)
 110:c:\projects\paindrain\arduinolcd\test\pain drain\libraries\lvgl\src/core\lv_obj_style_gen.h **** {
 111:c:\projects\paindrain\arduinolcd\test\pain drain\libraries\lvgl\src/core\lv_obj_style_gen.h ****     lv_style_value_t v = lv_obj_get_style_prop(obj, part, LV_STYLE_PAD_BOTTOM);
 112:c:\projects\paindrain\arduinolcd\test\pain drain\libraries\lvgl\src/core\lv_obj_style_gen.h ****     return (lv_coord_t)v.num;
 113:c:\projects\paindrain\arduinolcd\test\pain drain\libraries\lvgl\src/core\lv_obj_style_gen.h **** }
 114:c:\projects\paindrain\arduinolcd\test\pain drain\libraries\lvgl\src/core\lv_obj_style_gen.h **** 
 115:c:\projects\paindrain\arduinolcd\test\pain drain\libraries\lvgl\src/core\lv_obj_style_gen.h **** static inline lv_coord_t lv_obj_get_style_pad_left(const struct _lv_obj_t * obj, uint32_t part)
 116:c:\projects\paindrain\arduinolcd\test\pain drain\libraries\lvgl\src/core\lv_obj_style_gen.h **** {
ARM GAS  C:\Users\haske\AppData\Local\Temp\ccNao93W.s 			page 13


 117:c:\projects\paindrain\arduinolcd\test\pain drain\libraries\lvgl\src/core\lv_obj_style_gen.h ****     lv_style_value_t v = lv_obj_get_style_prop(obj, part, LV_STYLE_PAD_LEFT);
 118:c:\projects\paindrain\arduinolcd\test\pain drain\libraries\lvgl\src/core\lv_obj_style_gen.h ****     return (lv_coord_t)v.num;
 119:c:\projects\paindrain\arduinolcd\test\pain drain\libraries\lvgl\src/core\lv_obj_style_gen.h **** }
 120:c:\projects\paindrain\arduinolcd\test\pain drain\libraries\lvgl\src/core\lv_obj_style_gen.h **** 
 121:c:\projects\paindrain\arduinolcd\test\pain drain\libraries\lvgl\src/core\lv_obj_style_gen.h **** static inline lv_coord_t lv_obj_get_style_pad_right(const struct _lv_obj_t * obj, uint32_t part)
 122:c:\projects\paindrain\arduinolcd\test\pain drain\libraries\lvgl\src/core\lv_obj_style_gen.h **** {
 123:c:\projects\paindrain\arduinolcd\test\pain drain\libraries\lvgl\src/core\lv_obj_style_gen.h ****     lv_style_value_t v = lv_obj_get_style_prop(obj, part, LV_STYLE_PAD_RIGHT);
 124:c:\projects\paindrain\arduinolcd\test\pain drain\libraries\lvgl\src/core\lv_obj_style_gen.h ****     return (lv_coord_t)v.num;
 125:c:\projects\paindrain\arduinolcd\test\pain drain\libraries\lvgl\src/core\lv_obj_style_gen.h **** }
 126:c:\projects\paindrain\arduinolcd\test\pain drain\libraries\lvgl\src/core\lv_obj_style_gen.h **** 
 127:c:\projects\paindrain\arduinolcd\test\pain drain\libraries\lvgl\src/core\lv_obj_style_gen.h **** static inline lv_coord_t lv_obj_get_style_pad_row(const struct _lv_obj_t * obj, uint32_t part)
 128:c:\projects\paindrain\arduinolcd\test\pain drain\libraries\lvgl\src/core\lv_obj_style_gen.h **** {
 129:c:\projects\paindrain\arduinolcd\test\pain drain\libraries\lvgl\src/core\lv_obj_style_gen.h ****     lv_style_value_t v = lv_obj_get_style_prop(obj, part, LV_STYLE_PAD_ROW);
 130:c:\projects\paindrain\arduinolcd\test\pain drain\libraries\lvgl\src/core\lv_obj_style_gen.h ****     return (lv_coord_t)v.num;
 131:c:\projects\paindrain\arduinolcd\test\pain drain\libraries\lvgl\src/core\lv_obj_style_gen.h **** }
 132:c:\projects\paindrain\arduinolcd\test\pain drain\libraries\lvgl\src/core\lv_obj_style_gen.h **** 
 133:c:\projects\paindrain\arduinolcd\test\pain drain\libraries\lvgl\src/core\lv_obj_style_gen.h **** static inline lv_coord_t lv_obj_get_style_pad_column(const struct _lv_obj_t * obj, uint32_t part)
 134:c:\projects\paindrain\arduinolcd\test\pain drain\libraries\lvgl\src/core\lv_obj_style_gen.h **** {
 135:c:\projects\paindrain\arduinolcd\test\pain drain\libraries\lvgl\src/core\lv_obj_style_gen.h ****     lv_style_value_t v = lv_obj_get_style_prop(obj, part, LV_STYLE_PAD_COLUMN);
 136:c:\projects\paindrain\arduinolcd\test\pain drain\libraries\lvgl\src/core\lv_obj_style_gen.h ****     return (lv_coord_t)v.num;
 137:c:\projects\paindrain\arduinolcd\test\pain drain\libraries\lvgl\src/core\lv_obj_style_gen.h **** }
 138:c:\projects\paindrain\arduinolcd\test\pain drain\libraries\lvgl\src/core\lv_obj_style_gen.h **** 
 139:c:\projects\paindrain\arduinolcd\test\pain drain\libraries\lvgl\src/core\lv_obj_style_gen.h **** static inline lv_color_t lv_obj_get_style_bg_color(const struct _lv_obj_t * obj, uint32_t part)
 140:c:\projects\paindrain\arduinolcd\test\pain drain\libraries\lvgl\src/core\lv_obj_style_gen.h **** {
 141:c:\projects\paindrain\arduinolcd\test\pain drain\libraries\lvgl\src/core\lv_obj_style_gen.h ****     lv_style_value_t v = lv_obj_get_style_prop(obj, part, LV_STYLE_BG_COLOR);
 142:c:\projects\paindrain\arduinolcd\test\pain drain\libraries\lvgl\src/core\lv_obj_style_gen.h ****     return v.color;
 143:c:\projects\paindrain\arduinolcd\test\pain drain\libraries\lvgl\src/core\lv_obj_style_gen.h **** }
 144:c:\projects\paindrain\arduinolcd\test\pain drain\libraries\lvgl\src/core\lv_obj_style_gen.h **** 
 145:c:\projects\paindrain\arduinolcd\test\pain drain\libraries\lvgl\src/core\lv_obj_style_gen.h **** static inline lv_color_t lv_obj_get_style_bg_color_filtered(const struct _lv_obj_t * obj, uint32_t 
 146:c:\projects\paindrain\arduinolcd\test\pain drain\libraries\lvgl\src/core\lv_obj_style_gen.h **** {
 147:c:\projects\paindrain\arduinolcd\test\pain drain\libraries\lvgl\src/core\lv_obj_style_gen.h ****     lv_style_value_t v = _lv_obj_style_apply_color_filter(obj, part, lv_obj_get_style_prop(obj, par
 148:c:\projects\paindrain\arduinolcd\test\pain drain\libraries\lvgl\src/core\lv_obj_style_gen.h ****     return v.color;
 149:c:\projects\paindrain\arduinolcd\test\pain drain\libraries\lvgl\src/core\lv_obj_style_gen.h **** }
 150:c:\projects\paindrain\arduinolcd\test\pain drain\libraries\lvgl\src/core\lv_obj_style_gen.h **** 
 151:c:\projects\paindrain\arduinolcd\test\pain drain\libraries\lvgl\src/core\lv_obj_style_gen.h **** static inline lv_opa_t lv_obj_get_style_bg_opa(const struct _lv_obj_t * obj, uint32_t part)
 152:c:\projects\paindrain\arduinolcd\test\pain drain\libraries\lvgl\src/core\lv_obj_style_gen.h **** {
 153:c:\projects\paindrain\arduinolcd\test\pain drain\libraries\lvgl\src/core\lv_obj_style_gen.h ****     lv_style_value_t v = lv_obj_get_style_prop(obj, part, LV_STYLE_BG_OPA);
 154:c:\projects\paindrain\arduinolcd\test\pain drain\libraries\lvgl\src/core\lv_obj_style_gen.h ****     return (lv_opa_t)v.num;
 155:c:\projects\paindrain\arduinolcd\test\pain drain\libraries\lvgl\src/core\lv_obj_style_gen.h **** }
 156:c:\projects\paindrain\arduinolcd\test\pain drain\libraries\lvgl\src/core\lv_obj_style_gen.h **** 
 157:c:\projects\paindrain\arduinolcd\test\pain drain\libraries\lvgl\src/core\lv_obj_style_gen.h **** static inline lv_color_t lv_obj_get_style_bg_grad_color(const struct _lv_obj_t * obj, uint32_t part
 158:c:\projects\paindrain\arduinolcd\test\pain drain\libraries\lvgl\src/core\lv_obj_style_gen.h **** {
 159:c:\projects\paindrain\arduinolcd\test\pain drain\libraries\lvgl\src/core\lv_obj_style_gen.h ****     lv_style_value_t v = lv_obj_get_style_prop(obj, part, LV_STYLE_BG_GRAD_COLOR);
 160:c:\projects\paindrain\arduinolcd\test\pain drain\libraries\lvgl\src/core\lv_obj_style_gen.h ****     return v.color;
 161:c:\projects\paindrain\arduinolcd\test\pain drain\libraries\lvgl\src/core\lv_obj_style_gen.h **** }
 162:c:\projects\paindrain\arduinolcd\test\pain drain\libraries\lvgl\src/core\lv_obj_style_gen.h **** 
 163:c:\projects\paindrain\arduinolcd\test\pain drain\libraries\lvgl\src/core\lv_obj_style_gen.h **** static inline lv_color_t lv_obj_get_style_bg_grad_color_filtered(const struct _lv_obj_t * obj, uint
 164:c:\projects\paindrain\arduinolcd\test\pain drain\libraries\lvgl\src/core\lv_obj_style_gen.h **** {
 165:c:\projects\paindrain\arduinolcd\test\pain drain\libraries\lvgl\src/core\lv_obj_style_gen.h ****     lv_style_value_t v = _lv_obj_style_apply_color_filter(obj, part, lv_obj_get_style_prop(obj, par
 166:c:\projects\paindrain\arduinolcd\test\pain drain\libraries\lvgl\src/core\lv_obj_style_gen.h ****     return v.color;
 167:c:\projects\paindrain\arduinolcd\test\pain drain\libraries\lvgl\src/core\lv_obj_style_gen.h **** }
 168:c:\projects\paindrain\arduinolcd\test\pain drain\libraries\lvgl\src/core\lv_obj_style_gen.h **** 
 169:c:\projects\paindrain\arduinolcd\test\pain drain\libraries\lvgl\src/core\lv_obj_style_gen.h **** static inline lv_grad_dir_t lv_obj_get_style_bg_grad_dir(const struct _lv_obj_t * obj, uint32_t par
 170:c:\projects\paindrain\arduinolcd\test\pain drain\libraries\lvgl\src/core\lv_obj_style_gen.h **** {
 171:c:\projects\paindrain\arduinolcd\test\pain drain\libraries\lvgl\src/core\lv_obj_style_gen.h ****     lv_style_value_t v = lv_obj_get_style_prop(obj, part, LV_STYLE_BG_GRAD_DIR);
 172:c:\projects\paindrain\arduinolcd\test\pain drain\libraries\lvgl\src/core\lv_obj_style_gen.h ****     return (lv_grad_dir_t)v.num;
 173:c:\projects\paindrain\arduinolcd\test\pain drain\libraries\lvgl\src/core\lv_obj_style_gen.h **** }
ARM GAS  C:\Users\haske\AppData\Local\Temp\ccNao93W.s 			page 14


 174:c:\projects\paindrain\arduinolcd\test\pain drain\libraries\lvgl\src/core\lv_obj_style_gen.h **** 
 175:c:\projects\paindrain\arduinolcd\test\pain drain\libraries\lvgl\src/core\lv_obj_style_gen.h **** static inline lv_coord_t lv_obj_get_style_bg_main_stop(const struct _lv_obj_t * obj, uint32_t part)
 176:c:\projects\paindrain\arduinolcd\test\pain drain\libraries\lvgl\src/core\lv_obj_style_gen.h **** {
 177:c:\projects\paindrain\arduinolcd\test\pain drain\libraries\lvgl\src/core\lv_obj_style_gen.h ****     lv_style_value_t v = lv_obj_get_style_prop(obj, part, LV_STYLE_BG_MAIN_STOP);
 178:c:\projects\paindrain\arduinolcd\test\pain drain\libraries\lvgl\src/core\lv_obj_style_gen.h ****     return (lv_coord_t)v.num;
 179:c:\projects\paindrain\arduinolcd\test\pain drain\libraries\lvgl\src/core\lv_obj_style_gen.h **** }
 180:c:\projects\paindrain\arduinolcd\test\pain drain\libraries\lvgl\src/core\lv_obj_style_gen.h **** 
 181:c:\projects\paindrain\arduinolcd\test\pain drain\libraries\lvgl\src/core\lv_obj_style_gen.h **** static inline lv_coord_t lv_obj_get_style_bg_grad_stop(const struct _lv_obj_t * obj, uint32_t part)
 182:c:\projects\paindrain\arduinolcd\test\pain drain\libraries\lvgl\src/core\lv_obj_style_gen.h **** {
 183:c:\projects\paindrain\arduinolcd\test\pain drain\libraries\lvgl\src/core\lv_obj_style_gen.h ****     lv_style_value_t v = lv_obj_get_style_prop(obj, part, LV_STYLE_BG_GRAD_STOP);
 184:c:\projects\paindrain\arduinolcd\test\pain drain\libraries\lvgl\src/core\lv_obj_style_gen.h ****     return (lv_coord_t)v.num;
 185:c:\projects\paindrain\arduinolcd\test\pain drain\libraries\lvgl\src/core\lv_obj_style_gen.h **** }
 186:c:\projects\paindrain\arduinolcd\test\pain drain\libraries\lvgl\src/core\lv_obj_style_gen.h **** 
 187:c:\projects\paindrain\arduinolcd\test\pain drain\libraries\lvgl\src/core\lv_obj_style_gen.h **** static inline const lv_grad_dsc_t * lv_obj_get_style_bg_grad(const struct _lv_obj_t * obj, uint32_t
 188:c:\projects\paindrain\arduinolcd\test\pain drain\libraries\lvgl\src/core\lv_obj_style_gen.h **** {
 189:c:\projects\paindrain\arduinolcd\test\pain drain\libraries\lvgl\src/core\lv_obj_style_gen.h ****     lv_style_value_t v = lv_obj_get_style_prop(obj, part, LV_STYLE_BG_GRAD);
 190:c:\projects\paindrain\arduinolcd\test\pain drain\libraries\lvgl\src/core\lv_obj_style_gen.h ****     return (const lv_grad_dsc_t *)v.ptr;
 191:c:\projects\paindrain\arduinolcd\test\pain drain\libraries\lvgl\src/core\lv_obj_style_gen.h **** }
 192:c:\projects\paindrain\arduinolcd\test\pain drain\libraries\lvgl\src/core\lv_obj_style_gen.h **** 
 193:c:\projects\paindrain\arduinolcd\test\pain drain\libraries\lvgl\src/core\lv_obj_style_gen.h **** static inline lv_dither_mode_t lv_obj_get_style_bg_dither_mode(const struct _lv_obj_t * obj, uint32
 194:c:\projects\paindrain\arduinolcd\test\pain drain\libraries\lvgl\src/core\lv_obj_style_gen.h **** {
 195:c:\projects\paindrain\arduinolcd\test\pain drain\libraries\lvgl\src/core\lv_obj_style_gen.h ****     lv_style_value_t v = lv_obj_get_style_prop(obj, part, LV_STYLE_BG_DITHER_MODE);
 196:c:\projects\paindrain\arduinolcd\test\pain drain\libraries\lvgl\src/core\lv_obj_style_gen.h ****     return (lv_dither_mode_t)v.num;
 197:c:\projects\paindrain\arduinolcd\test\pain drain\libraries\lvgl\src/core\lv_obj_style_gen.h **** }
 198:c:\projects\paindrain\arduinolcd\test\pain drain\libraries\lvgl\src/core\lv_obj_style_gen.h **** 
 199:c:\projects\paindrain\arduinolcd\test\pain drain\libraries\lvgl\src/core\lv_obj_style_gen.h **** static inline const void * lv_obj_get_style_bg_img_src(const struct _lv_obj_t * obj, uint32_t part)
 200:c:\projects\paindrain\arduinolcd\test\pain drain\libraries\lvgl\src/core\lv_obj_style_gen.h **** {
 201:c:\projects\paindrain\arduinolcd\test\pain drain\libraries\lvgl\src/core\lv_obj_style_gen.h ****     lv_style_value_t v = lv_obj_get_style_prop(obj, part, LV_STYLE_BG_IMG_SRC);
 202:c:\projects\paindrain\arduinolcd\test\pain drain\libraries\lvgl\src/core\lv_obj_style_gen.h ****     return (const void *)v.ptr;
 203:c:\projects\paindrain\arduinolcd\test\pain drain\libraries\lvgl\src/core\lv_obj_style_gen.h **** }
 204:c:\projects\paindrain\arduinolcd\test\pain drain\libraries\lvgl\src/core\lv_obj_style_gen.h **** 
 205:c:\projects\paindrain\arduinolcd\test\pain drain\libraries\lvgl\src/core\lv_obj_style_gen.h **** static inline lv_opa_t lv_obj_get_style_bg_img_opa(const struct _lv_obj_t * obj, uint32_t part)
 206:c:\projects\paindrain\arduinolcd\test\pain drain\libraries\lvgl\src/core\lv_obj_style_gen.h **** {
 207:c:\projects\paindrain\arduinolcd\test\pain drain\libraries\lvgl\src/core\lv_obj_style_gen.h ****     lv_style_value_t v = lv_obj_get_style_prop(obj, part, LV_STYLE_BG_IMG_OPA);
 208:c:\projects\paindrain\arduinolcd\test\pain drain\libraries\lvgl\src/core\lv_obj_style_gen.h ****     return (lv_opa_t)v.num;
 209:c:\projects\paindrain\arduinolcd\test\pain drain\libraries\lvgl\src/core\lv_obj_style_gen.h **** }
 210:c:\projects\paindrain\arduinolcd\test\pain drain\libraries\lvgl\src/core\lv_obj_style_gen.h **** 
 211:c:\projects\paindrain\arduinolcd\test\pain drain\libraries\lvgl\src/core\lv_obj_style_gen.h **** static inline lv_color_t lv_obj_get_style_bg_img_recolor(const struct _lv_obj_t * obj, uint32_t par
 212:c:\projects\paindrain\arduinolcd\test\pain drain\libraries\lvgl\src/core\lv_obj_style_gen.h **** {
 213:c:\projects\paindrain\arduinolcd\test\pain drain\libraries\lvgl\src/core\lv_obj_style_gen.h ****     lv_style_value_t v = lv_obj_get_style_prop(obj, part, LV_STYLE_BG_IMG_RECOLOR);
 214:c:\projects\paindrain\arduinolcd\test\pain drain\libraries\lvgl\src/core\lv_obj_style_gen.h ****     return v.color;
 215:c:\projects\paindrain\arduinolcd\test\pain drain\libraries\lvgl\src/core\lv_obj_style_gen.h **** }
 216:c:\projects\paindrain\arduinolcd\test\pain drain\libraries\lvgl\src/core\lv_obj_style_gen.h **** 
 217:c:\projects\paindrain\arduinolcd\test\pain drain\libraries\lvgl\src/core\lv_obj_style_gen.h **** static inline lv_color_t lv_obj_get_style_bg_img_recolor_filtered(const struct _lv_obj_t * obj, uin
 218:c:\projects\paindrain\arduinolcd\test\pain drain\libraries\lvgl\src/core\lv_obj_style_gen.h **** {
 219:c:\projects\paindrain\arduinolcd\test\pain drain\libraries\lvgl\src/core\lv_obj_style_gen.h ****     lv_style_value_t v = _lv_obj_style_apply_color_filter(obj, part, lv_obj_get_style_prop(obj, par
 220:c:\projects\paindrain\arduinolcd\test\pain drain\libraries\lvgl\src/core\lv_obj_style_gen.h ****     return v.color;
 221:c:\projects\paindrain\arduinolcd\test\pain drain\libraries\lvgl\src/core\lv_obj_style_gen.h **** }
 222:c:\projects\paindrain\arduinolcd\test\pain drain\libraries\lvgl\src/core\lv_obj_style_gen.h **** 
 223:c:\projects\paindrain\arduinolcd\test\pain drain\libraries\lvgl\src/core\lv_obj_style_gen.h **** static inline lv_opa_t lv_obj_get_style_bg_img_recolor_opa(const struct _lv_obj_t * obj, uint32_t p
 224:c:\projects\paindrain\arduinolcd\test\pain drain\libraries\lvgl\src/core\lv_obj_style_gen.h **** {
 225:c:\projects\paindrain\arduinolcd\test\pain drain\libraries\lvgl\src/core\lv_obj_style_gen.h ****     lv_style_value_t v = lv_obj_get_style_prop(obj, part, LV_STYLE_BG_IMG_RECOLOR_OPA);
 226:c:\projects\paindrain\arduinolcd\test\pain drain\libraries\lvgl\src/core\lv_obj_style_gen.h ****     return (lv_opa_t)v.num;
 227:c:\projects\paindrain\arduinolcd\test\pain drain\libraries\lvgl\src/core\lv_obj_style_gen.h **** }
 228:c:\projects\paindrain\arduinolcd\test\pain drain\libraries\lvgl\src/core\lv_obj_style_gen.h **** 
 229:c:\projects\paindrain\arduinolcd\test\pain drain\libraries\lvgl\src/core\lv_obj_style_gen.h **** static inline bool lv_obj_get_style_bg_img_tiled(const struct _lv_obj_t * obj, uint32_t part)
 230:c:\projects\paindrain\arduinolcd\test\pain drain\libraries\lvgl\src/core\lv_obj_style_gen.h **** {
ARM GAS  C:\Users\haske\AppData\Local\Temp\ccNao93W.s 			page 15


 231:c:\projects\paindrain\arduinolcd\test\pain drain\libraries\lvgl\src/core\lv_obj_style_gen.h ****     lv_style_value_t v = lv_obj_get_style_prop(obj, part, LV_STYLE_BG_IMG_TILED);
 232:c:\projects\paindrain\arduinolcd\test\pain drain\libraries\lvgl\src/core\lv_obj_style_gen.h ****     return (bool)v.num;
 233:c:\projects\paindrain\arduinolcd\test\pain drain\libraries\lvgl\src/core\lv_obj_style_gen.h **** }
 234:c:\projects\paindrain\arduinolcd\test\pain drain\libraries\lvgl\src/core\lv_obj_style_gen.h **** 
 235:c:\projects\paindrain\arduinolcd\test\pain drain\libraries\lvgl\src/core\lv_obj_style_gen.h **** static inline lv_color_t lv_obj_get_style_border_color(const struct _lv_obj_t * obj, uint32_t part)
 236:c:\projects\paindrain\arduinolcd\test\pain drain\libraries\lvgl\src/core\lv_obj_style_gen.h **** {
 237:c:\projects\paindrain\arduinolcd\test\pain drain\libraries\lvgl\src/core\lv_obj_style_gen.h ****     lv_style_value_t v = lv_obj_get_style_prop(obj, part, LV_STYLE_BORDER_COLOR);
 238:c:\projects\paindrain\arduinolcd\test\pain drain\libraries\lvgl\src/core\lv_obj_style_gen.h ****     return v.color;
 239:c:\projects\paindrain\arduinolcd\test\pain drain\libraries\lvgl\src/core\lv_obj_style_gen.h **** }
 240:c:\projects\paindrain\arduinolcd\test\pain drain\libraries\lvgl\src/core\lv_obj_style_gen.h **** 
 241:c:\projects\paindrain\arduinolcd\test\pain drain\libraries\lvgl\src/core\lv_obj_style_gen.h **** static inline lv_color_t lv_obj_get_style_border_color_filtered(const struct _lv_obj_t * obj, uint3
 242:c:\projects\paindrain\arduinolcd\test\pain drain\libraries\lvgl\src/core\lv_obj_style_gen.h **** {
 243:c:\projects\paindrain\arduinolcd\test\pain drain\libraries\lvgl\src/core\lv_obj_style_gen.h ****     lv_style_value_t v = _lv_obj_style_apply_color_filter(obj, part, lv_obj_get_style_prop(obj, par
 244:c:\projects\paindrain\arduinolcd\test\pain drain\libraries\lvgl\src/core\lv_obj_style_gen.h ****     return v.color;
 245:c:\projects\paindrain\arduinolcd\test\pain drain\libraries\lvgl\src/core\lv_obj_style_gen.h **** }
 246:c:\projects\paindrain\arduinolcd\test\pain drain\libraries\lvgl\src/core\lv_obj_style_gen.h **** 
 247:c:\projects\paindrain\arduinolcd\test\pain drain\libraries\lvgl\src/core\lv_obj_style_gen.h **** static inline lv_opa_t lv_obj_get_style_border_opa(const struct _lv_obj_t * obj, uint32_t part)
 248:c:\projects\paindrain\arduinolcd\test\pain drain\libraries\lvgl\src/core\lv_obj_style_gen.h **** {
 249:c:\projects\paindrain\arduinolcd\test\pain drain\libraries\lvgl\src/core\lv_obj_style_gen.h ****     lv_style_value_t v = lv_obj_get_style_prop(obj, part, LV_STYLE_BORDER_OPA);
 250:c:\projects\paindrain\arduinolcd\test\pain drain\libraries\lvgl\src/core\lv_obj_style_gen.h ****     return (lv_opa_t)v.num;
 251:c:\projects\paindrain\arduinolcd\test\pain drain\libraries\lvgl\src/core\lv_obj_style_gen.h **** }
 252:c:\projects\paindrain\arduinolcd\test\pain drain\libraries\lvgl\src/core\lv_obj_style_gen.h **** 
 253:c:\projects\paindrain\arduinolcd\test\pain drain\libraries\lvgl\src/core\lv_obj_style_gen.h **** static inline lv_coord_t lv_obj_get_style_border_width(const struct _lv_obj_t * obj, uint32_t part)
 254:c:\projects\paindrain\arduinolcd\test\pain drain\libraries\lvgl\src/core\lv_obj_style_gen.h **** {
 255:c:\projects\paindrain\arduinolcd\test\pain drain\libraries\lvgl\src/core\lv_obj_style_gen.h ****     lv_style_value_t v = lv_obj_get_style_prop(obj, part, LV_STYLE_BORDER_WIDTH);
 256:c:\projects\paindrain\arduinolcd\test\pain drain\libraries\lvgl\src/core\lv_obj_style_gen.h ****     return (lv_coord_t)v.num;
 257:c:\projects\paindrain\arduinolcd\test\pain drain\libraries\lvgl\src/core\lv_obj_style_gen.h **** }
 258:c:\projects\paindrain\arduinolcd\test\pain drain\libraries\lvgl\src/core\lv_obj_style_gen.h **** 
 259:c:\projects\paindrain\arduinolcd\test\pain drain\libraries\lvgl\src/core\lv_obj_style_gen.h **** static inline lv_border_side_t lv_obj_get_style_border_side(const struct _lv_obj_t * obj, uint32_t 
 260:c:\projects\paindrain\arduinolcd\test\pain drain\libraries\lvgl\src/core\lv_obj_style_gen.h **** {
 261:c:\projects\paindrain\arduinolcd\test\pain drain\libraries\lvgl\src/core\lv_obj_style_gen.h ****     lv_style_value_t v = lv_obj_get_style_prop(obj, part, LV_STYLE_BORDER_SIDE);
 262:c:\projects\paindrain\arduinolcd\test\pain drain\libraries\lvgl\src/core\lv_obj_style_gen.h ****     return (lv_border_side_t)v.num;
 263:c:\projects\paindrain\arduinolcd\test\pain drain\libraries\lvgl\src/core\lv_obj_style_gen.h **** }
 264:c:\projects\paindrain\arduinolcd\test\pain drain\libraries\lvgl\src/core\lv_obj_style_gen.h **** 
 265:c:\projects\paindrain\arduinolcd\test\pain drain\libraries\lvgl\src/core\lv_obj_style_gen.h **** static inline bool lv_obj_get_style_border_post(const struct _lv_obj_t * obj, uint32_t part)
 266:c:\projects\paindrain\arduinolcd\test\pain drain\libraries\lvgl\src/core\lv_obj_style_gen.h **** {
 267:c:\projects\paindrain\arduinolcd\test\pain drain\libraries\lvgl\src/core\lv_obj_style_gen.h ****     lv_style_value_t v = lv_obj_get_style_prop(obj, part, LV_STYLE_BORDER_POST);
 268:c:\projects\paindrain\arduinolcd\test\pain drain\libraries\lvgl\src/core\lv_obj_style_gen.h ****     return (bool)v.num;
 269:c:\projects\paindrain\arduinolcd\test\pain drain\libraries\lvgl\src/core\lv_obj_style_gen.h **** }
 270:c:\projects\paindrain\arduinolcd\test\pain drain\libraries\lvgl\src/core\lv_obj_style_gen.h **** 
 271:c:\projects\paindrain\arduinolcd\test\pain drain\libraries\lvgl\src/core\lv_obj_style_gen.h **** static inline lv_coord_t lv_obj_get_style_outline_width(const struct _lv_obj_t * obj, uint32_t part
 272:c:\projects\paindrain\arduinolcd\test\pain drain\libraries\lvgl\src/core\lv_obj_style_gen.h **** {
 273:c:\projects\paindrain\arduinolcd\test\pain drain\libraries\lvgl\src/core\lv_obj_style_gen.h ****     lv_style_value_t v = lv_obj_get_style_prop(obj, part, LV_STYLE_OUTLINE_WIDTH);
 274:c:\projects\paindrain\arduinolcd\test\pain drain\libraries\lvgl\src/core\lv_obj_style_gen.h ****     return (lv_coord_t)v.num;
 275:c:\projects\paindrain\arduinolcd\test\pain drain\libraries\lvgl\src/core\lv_obj_style_gen.h **** }
 276:c:\projects\paindrain\arduinolcd\test\pain drain\libraries\lvgl\src/core\lv_obj_style_gen.h **** 
 277:c:\projects\paindrain\arduinolcd\test\pain drain\libraries\lvgl\src/core\lv_obj_style_gen.h **** static inline lv_color_t lv_obj_get_style_outline_color(const struct _lv_obj_t * obj, uint32_t part
 278:c:\projects\paindrain\arduinolcd\test\pain drain\libraries\lvgl\src/core\lv_obj_style_gen.h **** {
 279:c:\projects\paindrain\arduinolcd\test\pain drain\libraries\lvgl\src/core\lv_obj_style_gen.h ****     lv_style_value_t v = lv_obj_get_style_prop(obj, part, LV_STYLE_OUTLINE_COLOR);
 280:c:\projects\paindrain\arduinolcd\test\pain drain\libraries\lvgl\src/core\lv_obj_style_gen.h ****     return v.color;
 281:c:\projects\paindrain\arduinolcd\test\pain drain\libraries\lvgl\src/core\lv_obj_style_gen.h **** }
 282:c:\projects\paindrain\arduinolcd\test\pain drain\libraries\lvgl\src/core\lv_obj_style_gen.h **** 
 283:c:\projects\paindrain\arduinolcd\test\pain drain\libraries\lvgl\src/core\lv_obj_style_gen.h **** static inline lv_color_t lv_obj_get_style_outline_color_filtered(const struct _lv_obj_t * obj, uint
 284:c:\projects\paindrain\arduinolcd\test\pain drain\libraries\lvgl\src/core\lv_obj_style_gen.h **** {
 285:c:\projects\paindrain\arduinolcd\test\pain drain\libraries\lvgl\src/core\lv_obj_style_gen.h ****     lv_style_value_t v = _lv_obj_style_apply_color_filter(obj, part, lv_obj_get_style_prop(obj, par
 286:c:\projects\paindrain\arduinolcd\test\pain drain\libraries\lvgl\src/core\lv_obj_style_gen.h ****     return v.color;
 287:c:\projects\paindrain\arduinolcd\test\pain drain\libraries\lvgl\src/core\lv_obj_style_gen.h **** }
ARM GAS  C:\Users\haske\AppData\Local\Temp\ccNao93W.s 			page 16


 288:c:\projects\paindrain\arduinolcd\test\pain drain\libraries\lvgl\src/core\lv_obj_style_gen.h **** 
 289:c:\projects\paindrain\arduinolcd\test\pain drain\libraries\lvgl\src/core\lv_obj_style_gen.h **** static inline lv_opa_t lv_obj_get_style_outline_opa(const struct _lv_obj_t * obj, uint32_t part)
 290:c:\projects\paindrain\arduinolcd\test\pain drain\libraries\lvgl\src/core\lv_obj_style_gen.h **** {
 291:c:\projects\paindrain\arduinolcd\test\pain drain\libraries\lvgl\src/core\lv_obj_style_gen.h ****     lv_style_value_t v = lv_obj_get_style_prop(obj, part, LV_STYLE_OUTLINE_OPA);
 292:c:\projects\paindrain\arduinolcd\test\pain drain\libraries\lvgl\src/core\lv_obj_style_gen.h ****     return (lv_opa_t)v.num;
 293:c:\projects\paindrain\arduinolcd\test\pain drain\libraries\lvgl\src/core\lv_obj_style_gen.h **** }
 294:c:\projects\paindrain\arduinolcd\test\pain drain\libraries\lvgl\src/core\lv_obj_style_gen.h **** 
 295:c:\projects\paindrain\arduinolcd\test\pain drain\libraries\lvgl\src/core\lv_obj_style_gen.h **** static inline lv_coord_t lv_obj_get_style_outline_pad(const struct _lv_obj_t * obj, uint32_t part)
 296:c:\projects\paindrain\arduinolcd\test\pain drain\libraries\lvgl\src/core\lv_obj_style_gen.h **** {
 297:c:\projects\paindrain\arduinolcd\test\pain drain\libraries\lvgl\src/core\lv_obj_style_gen.h ****     lv_style_value_t v = lv_obj_get_style_prop(obj, part, LV_STYLE_OUTLINE_PAD);
 298:c:\projects\paindrain\arduinolcd\test\pain drain\libraries\lvgl\src/core\lv_obj_style_gen.h ****     return (lv_coord_t)v.num;
 299:c:\projects\paindrain\arduinolcd\test\pain drain\libraries\lvgl\src/core\lv_obj_style_gen.h **** }
 300:c:\projects\paindrain\arduinolcd\test\pain drain\libraries\lvgl\src/core\lv_obj_style_gen.h **** 
 301:c:\projects\paindrain\arduinolcd\test\pain drain\libraries\lvgl\src/core\lv_obj_style_gen.h **** static inline lv_coord_t lv_obj_get_style_shadow_width(const struct _lv_obj_t * obj, uint32_t part)
 302:c:\projects\paindrain\arduinolcd\test\pain drain\libraries\lvgl\src/core\lv_obj_style_gen.h **** {
 303:c:\projects\paindrain\arduinolcd\test\pain drain\libraries\lvgl\src/core\lv_obj_style_gen.h ****     lv_style_value_t v = lv_obj_get_style_prop(obj, part, LV_STYLE_SHADOW_WIDTH);
 304:c:\projects\paindrain\arduinolcd\test\pain drain\libraries\lvgl\src/core\lv_obj_style_gen.h ****     return (lv_coord_t)v.num;
 305:c:\projects\paindrain\arduinolcd\test\pain drain\libraries\lvgl\src/core\lv_obj_style_gen.h **** }
 306:c:\projects\paindrain\arduinolcd\test\pain drain\libraries\lvgl\src/core\lv_obj_style_gen.h **** 
 307:c:\projects\paindrain\arduinolcd\test\pain drain\libraries\lvgl\src/core\lv_obj_style_gen.h **** static inline lv_coord_t lv_obj_get_style_shadow_ofs_x(const struct _lv_obj_t * obj, uint32_t part)
 308:c:\projects\paindrain\arduinolcd\test\pain drain\libraries\lvgl\src/core\lv_obj_style_gen.h **** {
 309:c:\projects\paindrain\arduinolcd\test\pain drain\libraries\lvgl\src/core\lv_obj_style_gen.h ****     lv_style_value_t v = lv_obj_get_style_prop(obj, part, LV_STYLE_SHADOW_OFS_X);
 310:c:\projects\paindrain\arduinolcd\test\pain drain\libraries\lvgl\src/core\lv_obj_style_gen.h ****     return (lv_coord_t)v.num;
 311:c:\projects\paindrain\arduinolcd\test\pain drain\libraries\lvgl\src/core\lv_obj_style_gen.h **** }
 312:c:\projects\paindrain\arduinolcd\test\pain drain\libraries\lvgl\src/core\lv_obj_style_gen.h **** 
 313:c:\projects\paindrain\arduinolcd\test\pain drain\libraries\lvgl\src/core\lv_obj_style_gen.h **** static inline lv_coord_t lv_obj_get_style_shadow_ofs_y(const struct _lv_obj_t * obj, uint32_t part)
 314:c:\projects\paindrain\arduinolcd\test\pain drain\libraries\lvgl\src/core\lv_obj_style_gen.h **** {
 315:c:\projects\paindrain\arduinolcd\test\pain drain\libraries\lvgl\src/core\lv_obj_style_gen.h ****     lv_style_value_t v = lv_obj_get_style_prop(obj, part, LV_STYLE_SHADOW_OFS_Y);
 316:c:\projects\paindrain\arduinolcd\test\pain drain\libraries\lvgl\src/core\lv_obj_style_gen.h ****     return (lv_coord_t)v.num;
 317:c:\projects\paindrain\arduinolcd\test\pain drain\libraries\lvgl\src/core\lv_obj_style_gen.h **** }
 318:c:\projects\paindrain\arduinolcd\test\pain drain\libraries\lvgl\src/core\lv_obj_style_gen.h **** 
 319:c:\projects\paindrain\arduinolcd\test\pain drain\libraries\lvgl\src/core\lv_obj_style_gen.h **** static inline lv_coord_t lv_obj_get_style_shadow_spread(const struct _lv_obj_t * obj, uint32_t part
 320:c:\projects\paindrain\arduinolcd\test\pain drain\libraries\lvgl\src/core\lv_obj_style_gen.h **** {
 321:c:\projects\paindrain\arduinolcd\test\pain drain\libraries\lvgl\src/core\lv_obj_style_gen.h ****     lv_style_value_t v = lv_obj_get_style_prop(obj, part, LV_STYLE_SHADOW_SPREAD);
 322:c:\projects\paindrain\arduinolcd\test\pain drain\libraries\lvgl\src/core\lv_obj_style_gen.h ****     return (lv_coord_t)v.num;
 323:c:\projects\paindrain\arduinolcd\test\pain drain\libraries\lvgl\src/core\lv_obj_style_gen.h **** }
 324:c:\projects\paindrain\arduinolcd\test\pain drain\libraries\lvgl\src/core\lv_obj_style_gen.h **** 
 325:c:\projects\paindrain\arduinolcd\test\pain drain\libraries\lvgl\src/core\lv_obj_style_gen.h **** static inline lv_color_t lv_obj_get_style_shadow_color(const struct _lv_obj_t * obj, uint32_t part)
 326:c:\projects\paindrain\arduinolcd\test\pain drain\libraries\lvgl\src/core\lv_obj_style_gen.h **** {
 327:c:\projects\paindrain\arduinolcd\test\pain drain\libraries\lvgl\src/core\lv_obj_style_gen.h ****     lv_style_value_t v = lv_obj_get_style_prop(obj, part, LV_STYLE_SHADOW_COLOR);
 328:c:\projects\paindrain\arduinolcd\test\pain drain\libraries\lvgl\src/core\lv_obj_style_gen.h ****     return v.color;
 329:c:\projects\paindrain\arduinolcd\test\pain drain\libraries\lvgl\src/core\lv_obj_style_gen.h **** }
 330:c:\projects\paindrain\arduinolcd\test\pain drain\libraries\lvgl\src/core\lv_obj_style_gen.h **** 
 331:c:\projects\paindrain\arduinolcd\test\pain drain\libraries\lvgl\src/core\lv_obj_style_gen.h **** static inline lv_color_t lv_obj_get_style_shadow_color_filtered(const struct _lv_obj_t * obj, uint3
 332:c:\projects\paindrain\arduinolcd\test\pain drain\libraries\lvgl\src/core\lv_obj_style_gen.h **** {
 333:c:\projects\paindrain\arduinolcd\test\pain drain\libraries\lvgl\src/core\lv_obj_style_gen.h ****     lv_style_value_t v = _lv_obj_style_apply_color_filter(obj, part, lv_obj_get_style_prop(obj, par
 334:c:\projects\paindrain\arduinolcd\test\pain drain\libraries\lvgl\src/core\lv_obj_style_gen.h ****     return v.color;
 335:c:\projects\paindrain\arduinolcd\test\pain drain\libraries\lvgl\src/core\lv_obj_style_gen.h **** }
 336:c:\projects\paindrain\arduinolcd\test\pain drain\libraries\lvgl\src/core\lv_obj_style_gen.h **** 
 337:c:\projects\paindrain\arduinolcd\test\pain drain\libraries\lvgl\src/core\lv_obj_style_gen.h **** static inline lv_opa_t lv_obj_get_style_shadow_opa(const struct _lv_obj_t * obj, uint32_t part)
 338:c:\projects\paindrain\arduinolcd\test\pain drain\libraries\lvgl\src/core\lv_obj_style_gen.h **** {
 339:c:\projects\paindrain\arduinolcd\test\pain drain\libraries\lvgl\src/core\lv_obj_style_gen.h ****     lv_style_value_t v = lv_obj_get_style_prop(obj, part, LV_STYLE_SHADOW_OPA);
 340:c:\projects\paindrain\arduinolcd\test\pain drain\libraries\lvgl\src/core\lv_obj_style_gen.h ****     return (lv_opa_t)v.num;
 341:c:\projects\paindrain\arduinolcd\test\pain drain\libraries\lvgl\src/core\lv_obj_style_gen.h **** }
 342:c:\projects\paindrain\arduinolcd\test\pain drain\libraries\lvgl\src/core\lv_obj_style_gen.h **** 
 343:c:\projects\paindrain\arduinolcd\test\pain drain\libraries\lvgl\src/core\lv_obj_style_gen.h **** static inline lv_opa_t lv_obj_get_style_img_opa(const struct _lv_obj_t * obj, uint32_t part)
 344:c:\projects\paindrain\arduinolcd\test\pain drain\libraries\lvgl\src/core\lv_obj_style_gen.h **** {
ARM GAS  C:\Users\haske\AppData\Local\Temp\ccNao93W.s 			page 17


 345:c:\projects\paindrain\arduinolcd\test\pain drain\libraries\lvgl\src/core\lv_obj_style_gen.h ****     lv_style_value_t v = lv_obj_get_style_prop(obj, part, LV_STYLE_IMG_OPA);
 346:c:\projects\paindrain\arduinolcd\test\pain drain\libraries\lvgl\src/core\lv_obj_style_gen.h ****     return (lv_opa_t)v.num;
 347:c:\projects\paindrain\arduinolcd\test\pain drain\libraries\lvgl\src/core\lv_obj_style_gen.h **** }
 348:c:\projects\paindrain\arduinolcd\test\pain drain\libraries\lvgl\src/core\lv_obj_style_gen.h **** 
 349:c:\projects\paindrain\arduinolcd\test\pain drain\libraries\lvgl\src/core\lv_obj_style_gen.h **** static inline lv_color_t lv_obj_get_style_img_recolor(const struct _lv_obj_t * obj, uint32_t part)
 350:c:\projects\paindrain\arduinolcd\test\pain drain\libraries\lvgl\src/core\lv_obj_style_gen.h **** {
 351:c:\projects\paindrain\arduinolcd\test\pain drain\libraries\lvgl\src/core\lv_obj_style_gen.h ****     lv_style_value_t v = lv_obj_get_style_prop(obj, part, LV_STYLE_IMG_RECOLOR);
 352:c:\projects\paindrain\arduinolcd\test\pain drain\libraries\lvgl\src/core\lv_obj_style_gen.h ****     return v.color;
 353:c:\projects\paindrain\arduinolcd\test\pain drain\libraries\lvgl\src/core\lv_obj_style_gen.h **** }
 354:c:\projects\paindrain\arduinolcd\test\pain drain\libraries\lvgl\src/core\lv_obj_style_gen.h **** 
 355:c:\projects\paindrain\arduinolcd\test\pain drain\libraries\lvgl\src/core\lv_obj_style_gen.h **** static inline lv_color_t lv_obj_get_style_img_recolor_filtered(const struct _lv_obj_t * obj, uint32
 356:c:\projects\paindrain\arduinolcd\test\pain drain\libraries\lvgl\src/core\lv_obj_style_gen.h **** {
 357:c:\projects\paindrain\arduinolcd\test\pain drain\libraries\lvgl\src/core\lv_obj_style_gen.h ****     lv_style_value_t v = _lv_obj_style_apply_color_filter(obj, part, lv_obj_get_style_prop(obj, par
 358:c:\projects\paindrain\arduinolcd\test\pain drain\libraries\lvgl\src/core\lv_obj_style_gen.h ****     return v.color;
 359:c:\projects\paindrain\arduinolcd\test\pain drain\libraries\lvgl\src/core\lv_obj_style_gen.h **** }
 360:c:\projects\paindrain\arduinolcd\test\pain drain\libraries\lvgl\src/core\lv_obj_style_gen.h **** 
 361:c:\projects\paindrain\arduinolcd\test\pain drain\libraries\lvgl\src/core\lv_obj_style_gen.h **** static inline lv_opa_t lv_obj_get_style_img_recolor_opa(const struct _lv_obj_t * obj, uint32_t part
 362:c:\projects\paindrain\arduinolcd\test\pain drain\libraries\lvgl\src/core\lv_obj_style_gen.h **** {
 363:c:\projects\paindrain\arduinolcd\test\pain drain\libraries\lvgl\src/core\lv_obj_style_gen.h ****     lv_style_value_t v = lv_obj_get_style_prop(obj, part, LV_STYLE_IMG_RECOLOR_OPA);
 364:c:\projects\paindrain\arduinolcd\test\pain drain\libraries\lvgl\src/core\lv_obj_style_gen.h ****     return (lv_opa_t)v.num;
 365:c:\projects\paindrain\arduinolcd\test\pain drain\libraries\lvgl\src/core\lv_obj_style_gen.h **** }
 366:c:\projects\paindrain\arduinolcd\test\pain drain\libraries\lvgl\src/core\lv_obj_style_gen.h **** 
 367:c:\projects\paindrain\arduinolcd\test\pain drain\libraries\lvgl\src/core\lv_obj_style_gen.h **** static inline lv_coord_t lv_obj_get_style_line_width(const struct _lv_obj_t * obj, uint32_t part)
 368:c:\projects\paindrain\arduinolcd\test\pain drain\libraries\lvgl\src/core\lv_obj_style_gen.h **** {
 369:c:\projects\paindrain\arduinolcd\test\pain drain\libraries\lvgl\src/core\lv_obj_style_gen.h ****     lv_style_value_t v = lv_obj_get_style_prop(obj, part, LV_STYLE_LINE_WIDTH);
 370:c:\projects\paindrain\arduinolcd\test\pain drain\libraries\lvgl\src/core\lv_obj_style_gen.h ****     return (lv_coord_t)v.num;
 371:c:\projects\paindrain\arduinolcd\test\pain drain\libraries\lvgl\src/core\lv_obj_style_gen.h **** }
 372:c:\projects\paindrain\arduinolcd\test\pain drain\libraries\lvgl\src/core\lv_obj_style_gen.h **** 
 373:c:\projects\paindrain\arduinolcd\test\pain drain\libraries\lvgl\src/core\lv_obj_style_gen.h **** static inline lv_coord_t lv_obj_get_style_line_dash_width(const struct _lv_obj_t * obj, uint32_t pa
 374:c:\projects\paindrain\arduinolcd\test\pain drain\libraries\lvgl\src/core\lv_obj_style_gen.h **** {
 375:c:\projects\paindrain\arduinolcd\test\pain drain\libraries\lvgl\src/core\lv_obj_style_gen.h ****     lv_style_value_t v = lv_obj_get_style_prop(obj, part, LV_STYLE_LINE_DASH_WIDTH);
 376:c:\projects\paindrain\arduinolcd\test\pain drain\libraries\lvgl\src/core\lv_obj_style_gen.h ****     return (lv_coord_t)v.num;
 377:c:\projects\paindrain\arduinolcd\test\pain drain\libraries\lvgl\src/core\lv_obj_style_gen.h **** }
 378:c:\projects\paindrain\arduinolcd\test\pain drain\libraries\lvgl\src/core\lv_obj_style_gen.h **** 
 379:c:\projects\paindrain\arduinolcd\test\pain drain\libraries\lvgl\src/core\lv_obj_style_gen.h **** static inline lv_coord_t lv_obj_get_style_line_dash_gap(const struct _lv_obj_t * obj, uint32_t part
 380:c:\projects\paindrain\arduinolcd\test\pain drain\libraries\lvgl\src/core\lv_obj_style_gen.h **** {
 381:c:\projects\paindrain\arduinolcd\test\pain drain\libraries\lvgl\src/core\lv_obj_style_gen.h ****     lv_style_value_t v = lv_obj_get_style_prop(obj, part, LV_STYLE_LINE_DASH_GAP);
 382:c:\projects\paindrain\arduinolcd\test\pain drain\libraries\lvgl\src/core\lv_obj_style_gen.h ****     return (lv_coord_t)v.num;
 383:c:\projects\paindrain\arduinolcd\test\pain drain\libraries\lvgl\src/core\lv_obj_style_gen.h **** }
 384:c:\projects\paindrain\arduinolcd\test\pain drain\libraries\lvgl\src/core\lv_obj_style_gen.h **** 
 385:c:\projects\paindrain\arduinolcd\test\pain drain\libraries\lvgl\src/core\lv_obj_style_gen.h **** static inline bool lv_obj_get_style_line_rounded(const struct _lv_obj_t * obj, uint32_t part)
 386:c:\projects\paindrain\arduinolcd\test\pain drain\libraries\lvgl\src/core\lv_obj_style_gen.h **** {
 387:c:\projects\paindrain\arduinolcd\test\pain drain\libraries\lvgl\src/core\lv_obj_style_gen.h ****     lv_style_value_t v = lv_obj_get_style_prop(obj, part, LV_STYLE_LINE_ROUNDED);
 388:c:\projects\paindrain\arduinolcd\test\pain drain\libraries\lvgl\src/core\lv_obj_style_gen.h ****     return (bool)v.num;
 389:c:\projects\paindrain\arduinolcd\test\pain drain\libraries\lvgl\src/core\lv_obj_style_gen.h **** }
 390:c:\projects\paindrain\arduinolcd\test\pain drain\libraries\lvgl\src/core\lv_obj_style_gen.h **** 
 391:c:\projects\paindrain\arduinolcd\test\pain drain\libraries\lvgl\src/core\lv_obj_style_gen.h **** static inline lv_color_t lv_obj_get_style_line_color(const struct _lv_obj_t * obj, uint32_t part)
 392:c:\projects\paindrain\arduinolcd\test\pain drain\libraries\lvgl\src/core\lv_obj_style_gen.h **** {
 393:c:\projects\paindrain\arduinolcd\test\pain drain\libraries\lvgl\src/core\lv_obj_style_gen.h ****     lv_style_value_t v = lv_obj_get_style_prop(obj, part, LV_STYLE_LINE_COLOR);
 394:c:\projects\paindrain\arduinolcd\test\pain drain\libraries\lvgl\src/core\lv_obj_style_gen.h ****     return v.color;
 395:c:\projects\paindrain\arduinolcd\test\pain drain\libraries\lvgl\src/core\lv_obj_style_gen.h **** }
 396:c:\projects\paindrain\arduinolcd\test\pain drain\libraries\lvgl\src/core\lv_obj_style_gen.h **** 
 397:c:\projects\paindrain\arduinolcd\test\pain drain\libraries\lvgl\src/core\lv_obj_style_gen.h **** static inline lv_color_t lv_obj_get_style_line_color_filtered(const struct _lv_obj_t * obj, uint32_
 398:c:\projects\paindrain\arduinolcd\test\pain drain\libraries\lvgl\src/core\lv_obj_style_gen.h **** {
 399:c:\projects\paindrain\arduinolcd\test\pain drain\libraries\lvgl\src/core\lv_obj_style_gen.h ****     lv_style_value_t v = _lv_obj_style_apply_color_filter(obj, part, lv_obj_get_style_prop(obj, par
 400:c:\projects\paindrain\arduinolcd\test\pain drain\libraries\lvgl\src/core\lv_obj_style_gen.h ****     return v.color;
 401:c:\projects\paindrain\arduinolcd\test\pain drain\libraries\lvgl\src/core\lv_obj_style_gen.h **** }
ARM GAS  C:\Users\haske\AppData\Local\Temp\ccNao93W.s 			page 18


 402:c:\projects\paindrain\arduinolcd\test\pain drain\libraries\lvgl\src/core\lv_obj_style_gen.h **** 
 403:c:\projects\paindrain\arduinolcd\test\pain drain\libraries\lvgl\src/core\lv_obj_style_gen.h **** static inline lv_opa_t lv_obj_get_style_line_opa(const struct _lv_obj_t * obj, uint32_t part)
 404:c:\projects\paindrain\arduinolcd\test\pain drain\libraries\lvgl\src/core\lv_obj_style_gen.h **** {
 405:c:\projects\paindrain\arduinolcd\test\pain drain\libraries\lvgl\src/core\lv_obj_style_gen.h ****     lv_style_value_t v = lv_obj_get_style_prop(obj, part, LV_STYLE_LINE_OPA);
 406:c:\projects\paindrain\arduinolcd\test\pain drain\libraries\lvgl\src/core\lv_obj_style_gen.h ****     return (lv_opa_t)v.num;
 407:c:\projects\paindrain\arduinolcd\test\pain drain\libraries\lvgl\src/core\lv_obj_style_gen.h **** }
 408:c:\projects\paindrain\arduinolcd\test\pain drain\libraries\lvgl\src/core\lv_obj_style_gen.h **** 
 409:c:\projects\paindrain\arduinolcd\test\pain drain\libraries\lvgl\src/core\lv_obj_style_gen.h **** static inline lv_coord_t lv_obj_get_style_arc_width(const struct _lv_obj_t * obj, uint32_t part)
 410:c:\projects\paindrain\arduinolcd\test\pain drain\libraries\lvgl\src/core\lv_obj_style_gen.h **** {
 411:c:\projects\paindrain\arduinolcd\test\pain drain\libraries\lvgl\src/core\lv_obj_style_gen.h ****     lv_style_value_t v = lv_obj_get_style_prop(obj, part, LV_STYLE_ARC_WIDTH);
 412:c:\projects\paindrain\arduinolcd\test\pain drain\libraries\lvgl\src/core\lv_obj_style_gen.h ****     return (lv_coord_t)v.num;
 413:c:\projects\paindrain\arduinolcd\test\pain drain\libraries\lvgl\src/core\lv_obj_style_gen.h **** }
 414:c:\projects\paindrain\arduinolcd\test\pain drain\libraries\lvgl\src/core\lv_obj_style_gen.h **** 
 415:c:\projects\paindrain\arduinolcd\test\pain drain\libraries\lvgl\src/core\lv_obj_style_gen.h **** static inline bool lv_obj_get_style_arc_rounded(const struct _lv_obj_t * obj, uint32_t part)
 416:c:\projects\paindrain\arduinolcd\test\pain drain\libraries\lvgl\src/core\lv_obj_style_gen.h **** {
 417:c:\projects\paindrain\arduinolcd\test\pain drain\libraries\lvgl\src/core\lv_obj_style_gen.h ****     lv_style_value_t v = lv_obj_get_style_prop(obj, part, LV_STYLE_ARC_ROUNDED);
 418:c:\projects\paindrain\arduinolcd\test\pain drain\libraries\lvgl\src/core\lv_obj_style_gen.h ****     return (bool)v.num;
 419:c:\projects\paindrain\arduinolcd\test\pain drain\libraries\lvgl\src/core\lv_obj_style_gen.h **** }
 420:c:\projects\paindrain\arduinolcd\test\pain drain\libraries\lvgl\src/core\lv_obj_style_gen.h **** 
 421:c:\projects\paindrain\arduinolcd\test\pain drain\libraries\lvgl\src/core\lv_obj_style_gen.h **** static inline lv_color_t lv_obj_get_style_arc_color(const struct _lv_obj_t * obj, uint32_t part)
 422:c:\projects\paindrain\arduinolcd\test\pain drain\libraries\lvgl\src/core\lv_obj_style_gen.h **** {
 423:c:\projects\paindrain\arduinolcd\test\pain drain\libraries\lvgl\src/core\lv_obj_style_gen.h ****     lv_style_value_t v = lv_obj_get_style_prop(obj, part, LV_STYLE_ARC_COLOR);
 424:c:\projects\paindrain\arduinolcd\test\pain drain\libraries\lvgl\src/core\lv_obj_style_gen.h ****     return v.color;
 425:c:\projects\paindrain\arduinolcd\test\pain drain\libraries\lvgl\src/core\lv_obj_style_gen.h **** }
 426:c:\projects\paindrain\arduinolcd\test\pain drain\libraries\lvgl\src/core\lv_obj_style_gen.h **** 
 427:c:\projects\paindrain\arduinolcd\test\pain drain\libraries\lvgl\src/core\lv_obj_style_gen.h **** static inline lv_color_t lv_obj_get_style_arc_color_filtered(const struct _lv_obj_t * obj, uint32_t
 428:c:\projects\paindrain\arduinolcd\test\pain drain\libraries\lvgl\src/core\lv_obj_style_gen.h **** {
 429:c:\projects\paindrain\arduinolcd\test\pain drain\libraries\lvgl\src/core\lv_obj_style_gen.h ****     lv_style_value_t v = _lv_obj_style_apply_color_filter(obj, part, lv_obj_get_style_prop(obj, par
 430:c:\projects\paindrain\arduinolcd\test\pain drain\libraries\lvgl\src/core\lv_obj_style_gen.h ****     return v.color;
 431:c:\projects\paindrain\arduinolcd\test\pain drain\libraries\lvgl\src/core\lv_obj_style_gen.h **** }
 432:c:\projects\paindrain\arduinolcd\test\pain drain\libraries\lvgl\src/core\lv_obj_style_gen.h **** 
 433:c:\projects\paindrain\arduinolcd\test\pain drain\libraries\lvgl\src/core\lv_obj_style_gen.h **** static inline lv_opa_t lv_obj_get_style_arc_opa(const struct _lv_obj_t * obj, uint32_t part)
 434:c:\projects\paindrain\arduinolcd\test\pain drain\libraries\lvgl\src/core\lv_obj_style_gen.h **** {
 435:c:\projects\paindrain\arduinolcd\test\pain drain\libraries\lvgl\src/core\lv_obj_style_gen.h ****     lv_style_value_t v = lv_obj_get_style_prop(obj, part, LV_STYLE_ARC_OPA);
 436:c:\projects\paindrain\arduinolcd\test\pain drain\libraries\lvgl\src/core\lv_obj_style_gen.h ****     return (lv_opa_t)v.num;
 437:c:\projects\paindrain\arduinolcd\test\pain drain\libraries\lvgl\src/core\lv_obj_style_gen.h **** }
 438:c:\projects\paindrain\arduinolcd\test\pain drain\libraries\lvgl\src/core\lv_obj_style_gen.h **** 
 439:c:\projects\paindrain\arduinolcd\test\pain drain\libraries\lvgl\src/core\lv_obj_style_gen.h **** static inline const void * lv_obj_get_style_arc_img_src(const struct _lv_obj_t * obj, uint32_t part
 440:c:\projects\paindrain\arduinolcd\test\pain drain\libraries\lvgl\src/core\lv_obj_style_gen.h **** {
 441:c:\projects\paindrain\arduinolcd\test\pain drain\libraries\lvgl\src/core\lv_obj_style_gen.h ****     lv_style_value_t v = lv_obj_get_style_prop(obj, part, LV_STYLE_ARC_IMG_SRC);
 442:c:\projects\paindrain\arduinolcd\test\pain drain\libraries\lvgl\src/core\lv_obj_style_gen.h ****     return (const void *)v.ptr;
 443:c:\projects\paindrain\arduinolcd\test\pain drain\libraries\lvgl\src/core\lv_obj_style_gen.h **** }
 444:c:\projects\paindrain\arduinolcd\test\pain drain\libraries\lvgl\src/core\lv_obj_style_gen.h **** 
 445:c:\projects\paindrain\arduinolcd\test\pain drain\libraries\lvgl\src/core\lv_obj_style_gen.h **** static inline lv_color_t lv_obj_get_style_text_color(const struct _lv_obj_t * obj, uint32_t part)
 446:c:\projects\paindrain\arduinolcd\test\pain drain\libraries\lvgl\src/core\lv_obj_style_gen.h **** {
 447:c:\projects\paindrain\arduinolcd\test\pain drain\libraries\lvgl\src/core\lv_obj_style_gen.h ****     lv_style_value_t v = lv_obj_get_style_prop(obj, part, LV_STYLE_TEXT_COLOR);
 448:c:\projects\paindrain\arduinolcd\test\pain drain\libraries\lvgl\src/core\lv_obj_style_gen.h ****     return v.color;
 449:c:\projects\paindrain\arduinolcd\test\pain drain\libraries\lvgl\src/core\lv_obj_style_gen.h **** }
 450:c:\projects\paindrain\arduinolcd\test\pain drain\libraries\lvgl\src/core\lv_obj_style_gen.h **** 
 451:c:\projects\paindrain\arduinolcd\test\pain drain\libraries\lvgl\src/core\lv_obj_style_gen.h **** static inline lv_color_t lv_obj_get_style_text_color_filtered(const struct _lv_obj_t * obj, uint32_
 452:c:\projects\paindrain\arduinolcd\test\pain drain\libraries\lvgl\src/core\lv_obj_style_gen.h **** {
 453:c:\projects\paindrain\arduinolcd\test\pain drain\libraries\lvgl\src/core\lv_obj_style_gen.h ****     lv_style_value_t v = _lv_obj_style_apply_color_filter(obj, part, lv_obj_get_style_prop(obj, par
 454:c:\projects\paindrain\arduinolcd\test\pain drain\libraries\lvgl\src/core\lv_obj_style_gen.h ****     return v.color;
 455:c:\projects\paindrain\arduinolcd\test\pain drain\libraries\lvgl\src/core\lv_obj_style_gen.h **** }
 456:c:\projects\paindrain\arduinolcd\test\pain drain\libraries\lvgl\src/core\lv_obj_style_gen.h **** 
 457:c:\projects\paindrain\arduinolcd\test\pain drain\libraries\lvgl\src/core\lv_obj_style_gen.h **** static inline lv_opa_t lv_obj_get_style_text_opa(const struct _lv_obj_t * obj, uint32_t part)
 458:c:\projects\paindrain\arduinolcd\test\pain drain\libraries\lvgl\src/core\lv_obj_style_gen.h **** {
ARM GAS  C:\Users\haske\AppData\Local\Temp\ccNao93W.s 			page 19


 459:c:\projects\paindrain\arduinolcd\test\pain drain\libraries\lvgl\src/core\lv_obj_style_gen.h ****     lv_style_value_t v = lv_obj_get_style_prop(obj, part, LV_STYLE_TEXT_OPA);
 460:c:\projects\paindrain\arduinolcd\test\pain drain\libraries\lvgl\src/core\lv_obj_style_gen.h ****     return (lv_opa_t)v.num;
 461:c:\projects\paindrain\arduinolcd\test\pain drain\libraries\lvgl\src/core\lv_obj_style_gen.h **** }
 462:c:\projects\paindrain\arduinolcd\test\pain drain\libraries\lvgl\src/core\lv_obj_style_gen.h **** 
 463:c:\projects\paindrain\arduinolcd\test\pain drain\libraries\lvgl\src/core\lv_obj_style_gen.h **** static inline const lv_font_t * lv_obj_get_style_text_font(const struct _lv_obj_t * obj, uint32_t p
 464:c:\projects\paindrain\arduinolcd\test\pain drain\libraries\lvgl\src/core\lv_obj_style_gen.h **** {
 465:c:\projects\paindrain\arduinolcd\test\pain drain\libraries\lvgl\src/core\lv_obj_style_gen.h ****     lv_style_value_t v = lv_obj_get_style_prop(obj, part, LV_STYLE_TEXT_FONT);
 273              		.loc 3 465 0 discriminator 4
 274 0132 5722     		movs	r2, #87
 275 0134 0021     		movs	r1, #0
 276 0136 A06A     		ldr	r0, [r4, #40]
 277 0138 FFF7FEFF 		bl	lv_obj_get_style_prop
 278              	.LVL35:
 279              	.LBE22:
 280              	.LBE21:
 102:..\..\..\arduinoLCD\test\Pain Drain\libraries\lvgl\src\extra\widgets\msgbox/lv_msgbox.c ****         const lv_font_t * font = lv_obj_get_style_text_font(mbox->close_btn, LV_PART_MAIN);
 103:..\..\..\arduinoLCD\test\Pain Drain\libraries\lvgl\src\extra\widgets\msgbox/lv_msgbox.c ****         lv_coord_t close_btn_size = lv_font_get_line_height(font) + LV_DPX(10);
 281              		.loc 1 103 0 discriminator 4
 282 013c 0789     		ldrh	r7, [r0, #8]
 283 013e 0020     		movs	r0, #0
 284              	.LVL36:
 285 0140 FFF7FEFF 		bl	lv_disp_get_dpi
 286              	.LVL37:
 287 0144 8300     		lsls	r3, r0, #2
 288 0146 1818     		adds	r0, r3, r0
 289 0148 4300     		lsls	r3, r0, #1
 290 014a 5033     		adds	r3, r3, #80
 291 014c 4022     		movs	r2, #64
 292 014e FF32     		adds	r2, r2, #255
 293 0150 9342     		cmp	r3, r2
 294 0152 0BDD     		ble	.L28
 295              		.loc 1 103 0 is_stmt 0 discriminator 1
 296 0154 0020     		movs	r0, #0
 297 0156 FFF7FEFF 		bl	lv_disp_get_dpi
 298              	.LVL38:
 299 015a 8300     		lsls	r3, r0, #2
 300 015c 1B18     		adds	r3, r3, r0
 301 015e 5800     		lsls	r0, r3, #1
 302 0160 5030     		adds	r0, r0, #80
 303 0162 A021     		movs	r1, #160
 304 0164 FFF7FEFF 		bl	__aeabi_idiv
 305              	.LVL39:
 306 0168 81B2     		uxth	r1, r0
 307 016a 00E0     		b	.L16
 308              	.L28:
 309              		.loc 1 103 0
 310 016c 0121     		movs	r1, #1
 311              	.L16:
 312              		.loc 1 103 0 discriminator 4
 313 016e C919     		adds	r1, r1, r7
 314 0170 09B2     		sxth	r1, r1
 315              	.LVL40:
 104:..\..\..\arduinoLCD\test\Pain Drain\libraries\lvgl\src\extra\widgets\msgbox/lv_msgbox.c ****         lv_obj_set_size(mbox->close_btn, close_btn_size, close_btn_size);
 316              		.loc 1 104 0 is_stmt 1 discriminator 4
 317 0172 0A00     		movs	r2, r1
 318 0174 A06A     		ldr	r0, [r4, #40]
 319 0176 FFF7FEFF 		bl	lv_obj_set_size
ARM GAS  C:\Users\haske\AppData\Local\Temp\ccNao93W.s 			page 20


 320              	.LVL41:
 105:..\..\..\arduinoLCD\test\Pain Drain\libraries\lvgl\src\extra\widgets\msgbox/lv_msgbox.c ****         lv_obj_align(label, LV_ALIGN_CENTER, 0, 0);
 321              		.loc 1 105 0 discriminator 4
 322 017a 0023     		movs	r3, #0
 323 017c 0022     		movs	r2, #0
 324 017e 0921     		movs	r1, #9
 325 0180 2800     		movs	r0, r5
 326 0182 FFF7FEFF 		bl	lv_obj_align
 327              	.LVL42:
 328              	.L14:
 329              	.LBE20:
 106:..\..\..\arduinoLCD\test\Pain Drain\libraries\lvgl\src\extra\widgets\msgbox/lv_msgbox.c ****     }
 107:..\..\..\arduinoLCD\test\Pain Drain\libraries\lvgl\src\extra\widgets\msgbox/lv_msgbox.c **** 
 108:..\..\..\arduinoLCD\test\Pain Drain\libraries\lvgl\src\extra\widgets\msgbox/lv_msgbox.c ****     mbox->content = lv_obj_class_create_obj(&lv_msgbox_content_class, obj);
 330              		.loc 1 108 0
 331 0186 2100     		movs	r1, r4
 332 0188 2C48     		ldr	r0, .L32
 333 018a 3830     		adds	r0, r0, #56
 334 018c FFF7FEFF 		bl	lv_obj_class_create_obj
 335              	.LVL43:
 336 0190 E062     		str	r0, [r4, #44]
 109:..\..\..\arduinoLCD\test\Pain Drain\libraries\lvgl\src\extra\widgets\msgbox/lv_msgbox.c **** 
 110:..\..\..\arduinoLCD\test\Pain Drain\libraries\lvgl\src\extra\widgets\msgbox/lv_msgbox.c ****     bool has_txt = txt && strlen(txt) > 0;
 337              		.loc 1 110 0
 338 0192 4346     		mov	r3, r8
 339 0194 002B     		cmp	r3, #0
 340 0196 03D0     		beq	.L29
 341              	.LVL44:
 342              		.loc 1 110 0 is_stmt 0 discriminator 1
 343 0198 1B78     		ldrb	r3, [r3]
 344              	.LVL45:
 345 019a 002B     		cmp	r3, #0
 346 019c 02D1     		bne	.L30
 347 019e 02E0     		b	.L17
 348              	.LVL46:
 349              	.L29:
 350              		.loc 1 110 0
 351 01a0 0023     		movs	r3, #0
 352              	.LVL47:
 353 01a2 00E0     		b	.L17
 354              	.L30:
 355 01a4 0123     		movs	r3, #1
 356              	.L17:
 357              	.LVL48:
 111:..\..\..\arduinoLCD\test\Pain Drain\libraries\lvgl\src\extra\widgets\msgbox/lv_msgbox.c ****     if(has_txt) {
 358              		.loc 1 111 0 is_stmt 1 discriminator 6
 359 01a6 002B     		cmp	r3, #0
 360 01a8 0DD0     		beq	.L18
 112:..\..\..\arduinoLCD\test\Pain Drain\libraries\lvgl\src\extra\widgets\msgbox/lv_msgbox.c ****         mbox->text = lv_label_create(mbox->content);
 361              		.loc 1 112 0
 362 01aa FFF7FEFF 		bl	lv_label_create
 363              	.LVL49:
 364 01ae 2063     		str	r0, [r4, #48]
 113:..\..\..\arduinoLCD\test\Pain Drain\libraries\lvgl\src\extra\widgets\msgbox/lv_msgbox.c ****         lv_label_set_text(mbox->text, txt);
 365              		.loc 1 113 0
 366 01b0 4146     		mov	r1, r8
 367 01b2 FFF7FEFF 		bl	lv_label_set_text
ARM GAS  C:\Users\haske\AppData\Local\Temp\ccNao93W.s 			page 21


 368              	.LVL50:
 114:..\..\..\arduinoLCD\test\Pain Drain\libraries\lvgl\src\extra\widgets\msgbox/lv_msgbox.c ****         lv_label_set_long_mode(mbox->text, LV_LABEL_LONG_WRAP);
 369              		.loc 1 114 0
 370 01b6 0021     		movs	r1, #0
 371 01b8 206B     		ldr	r0, [r4, #48]
 372 01ba FFF7FEFF 		bl	lv_label_set_long_mode
 373              	.LVL51:
 115:..\..\..\arduinoLCD\test\Pain Drain\libraries\lvgl\src\extra\widgets\msgbox/lv_msgbox.c ****         lv_obj_set_width(mbox->text, lv_pct(100));
 374              		.loc 1 115 0
 375 01be 2049     		ldr	r1, .L32+4
 376 01c0 206B     		ldr	r0, [r4, #48]
 377 01c2 FFF7FEFF 		bl	lv_obj_set_width
 378              	.LVL52:
 379              	.L18:
 116:..\..\..\arduinoLCD\test\Pain Drain\libraries\lvgl\src\extra\widgets\msgbox/lv_msgbox.c ****     }
 117:..\..\..\arduinoLCD\test\Pain Drain\libraries\lvgl\src\extra\widgets\msgbox/lv_msgbox.c **** 
 118:..\..\..\arduinoLCD\test\Pain Drain\libraries\lvgl\src\extra\widgets\msgbox/lv_msgbox.c ****     if(btn_txts) {
 380              		.loc 1 118 0
 381 01c6 002E     		cmp	r6, #0
 382 01c8 33D0     		beq	.L31
 383              	.LBB23:
 119:..\..\..\arduinoLCD\test\Pain Drain\libraries\lvgl\src\extra\widgets\msgbox/lv_msgbox.c ****         mbox->btns = lv_btnmatrix_create(obj);
 384              		.loc 1 119 0
 385 01ca 2000     		movs	r0, r4
 386 01cc FFF7FEFF 		bl	lv_btnmatrix_create
 387              	.LVL53:
 388 01d0 6063     		str	r0, [r4, #52]
 120:..\..\..\arduinoLCD\test\Pain Drain\libraries\lvgl\src\extra\widgets\msgbox/lv_msgbox.c ****         lv_btnmatrix_set_map(mbox->btns, btn_txts);
 389              		.loc 1 120 0
 390 01d2 3100     		movs	r1, r6
 391 01d4 FFF7FEFF 		bl	lv_btnmatrix_set_map
 392              	.LVL54:
 121:..\..\..\arduinoLCD\test\Pain Drain\libraries\lvgl\src\extra\widgets\msgbox/lv_msgbox.c ****         lv_btnmatrix_set_btn_ctrl_all(mbox->btns, LV_BTNMATRIX_CTRL_CLICK_TRIG | LV_BTNMATRIX_CTRL_
 393              		.loc 1 121 0
 394 01d8 8821     		movs	r1, #136
 395 01da 4900     		lsls	r1, r1, #1
 396 01dc 606B     		ldr	r0, [r4, #52]
 397 01de FFF7FEFF 		bl	lv_btnmatrix_set_btn_ctrl_all
 398              	.LVL55:
 122:..\..\..\arduinoLCD\test\Pain Drain\libraries\lvgl\src\extra\widgets\msgbox/lv_msgbox.c **** 
 123:..\..\..\arduinoLCD\test\Pain Drain\libraries\lvgl\src\extra\widgets\msgbox/lv_msgbox.c ****         uint32_t btn_cnt = 0;
 399              		.loc 1 123 0
 400 01e2 0025     		movs	r5, #0
 124:..\..\..\arduinoLCD\test\Pain Drain\libraries\lvgl\src\extra\widgets\msgbox/lv_msgbox.c ****         while(btn_txts[btn_cnt] && btn_txts[btn_cnt][0] != '\0') {
 401              		.loc 1 124 0
 402 01e4 00E0     		b	.L19
 403              	.LVL56:
 404              	.L21:
 125:..\..\..\arduinoLCD\test\Pain Drain\libraries\lvgl\src\extra\widgets\msgbox/lv_msgbox.c ****             btn_cnt++;
 405              		.loc 1 125 0
 406 01e6 0135     		adds	r5, r5, #1
 407              	.LVL57:
 408              	.L19:
 124:..\..\..\arduinoLCD\test\Pain Drain\libraries\lvgl\src\extra\widgets\msgbox/lv_msgbox.c ****         while(btn_txts[btn_cnt] && btn_txts[btn_cnt][0] != '\0') {
 409              		.loc 1 124 0
 410 01e8 AB00     		lsls	r3, r5, #2
 411 01ea 9B59     		ldr	r3, [r3, r6]
ARM GAS  C:\Users\haske\AppData\Local\Temp\ccNao93W.s 			page 22


 412 01ec 002B     		cmp	r3, #0
 413 01ee 02D0     		beq	.L20
 124:..\..\..\arduinoLCD\test\Pain Drain\libraries\lvgl\src\extra\widgets\msgbox/lv_msgbox.c ****         while(btn_txts[btn_cnt] && btn_txts[btn_cnt][0] != '\0') {
 414              		.loc 1 124 0 is_stmt 0 discriminator 1
 415 01f0 1B78     		ldrb	r3, [r3]
 416 01f2 002B     		cmp	r3, #0
 417 01f4 F7D1     		bne	.L21
 418              	.L20:
 419              	.LVL58:
 420              	.LBB24:
 421              	.LBB25:
 422              		.loc 3 465 0 is_stmt 1
 423 01f6 5722     		movs	r2, #87
 424 01f8 A021     		movs	r1, #160
 425 01fa C902     		lsls	r1, r1, #11
 426 01fc 606B     		ldr	r0, [r4, #52]
 427 01fe FFF7FEFF 		bl	lv_obj_get_style_prop
 428              	.LVL59:
 429              	.LBE25:
 430              	.LBE24:
 431              	.LBB26:
 432              	.LBB27:
 433              		.file 4 "c:\\projects\\paindrain\\arduinolcd\\test\\pain drain\\libraries\\lvgl\\src\\font\\lv_fon
   1:c:\projects\paindrain\arduinolcd\test\pain drain\libraries\lvgl\src\font\lv_font.h **** /**
   2:c:\projects\paindrain\arduinolcd\test\pain drain\libraries\lvgl\src\font\lv_font.h ****  * @file lv_font.h
   3:c:\projects\paindrain\arduinolcd\test\pain drain\libraries\lvgl\src\font\lv_font.h ****  *
   4:c:\projects\paindrain\arduinolcd\test\pain drain\libraries\lvgl\src\font\lv_font.h ****  */
   5:c:\projects\paindrain\arduinolcd\test\pain drain\libraries\lvgl\src\font\lv_font.h **** 
   6:c:\projects\paindrain\arduinolcd\test\pain drain\libraries\lvgl\src\font\lv_font.h **** #ifndef LV_FONT_H
   7:c:\projects\paindrain\arduinolcd\test\pain drain\libraries\lvgl\src\font\lv_font.h **** #define LV_FONT_H
   8:c:\projects\paindrain\arduinolcd\test\pain drain\libraries\lvgl\src\font\lv_font.h **** 
   9:c:\projects\paindrain\arduinolcd\test\pain drain\libraries\lvgl\src\font\lv_font.h **** #ifdef __cplusplus
  10:c:\projects\paindrain\arduinolcd\test\pain drain\libraries\lvgl\src\font\lv_font.h **** extern "C" {
  11:c:\projects\paindrain\arduinolcd\test\pain drain\libraries\lvgl\src\font\lv_font.h **** #endif
  12:c:\projects\paindrain\arduinolcd\test\pain drain\libraries\lvgl\src\font\lv_font.h **** 
  13:c:\projects\paindrain\arduinolcd\test\pain drain\libraries\lvgl\src\font\lv_font.h **** /*********************
  14:c:\projects\paindrain\arduinolcd\test\pain drain\libraries\lvgl\src\font\lv_font.h ****  *      INCLUDES
  15:c:\projects\paindrain\arduinolcd\test\pain drain\libraries\lvgl\src\font\lv_font.h ****  *********************/
  16:c:\projects\paindrain\arduinolcd\test\pain drain\libraries\lvgl\src\font\lv_font.h **** #include "../lv_conf_internal.h"
  17:c:\projects\paindrain\arduinolcd\test\pain drain\libraries\lvgl\src\font\lv_font.h **** #include <stdint.h>
  18:c:\projects\paindrain\arduinolcd\test\pain drain\libraries\lvgl\src\font\lv_font.h **** #include <stddef.h>
  19:c:\projects\paindrain\arduinolcd\test\pain drain\libraries\lvgl\src\font\lv_font.h **** #include <stdbool.h>
  20:c:\projects\paindrain\arduinolcd\test\pain drain\libraries\lvgl\src\font\lv_font.h **** 
  21:c:\projects\paindrain\arduinolcd\test\pain drain\libraries\lvgl\src\font\lv_font.h **** #include "lv_symbol_def.h"
  22:c:\projects\paindrain\arduinolcd\test\pain drain\libraries\lvgl\src\font\lv_font.h **** #include "../misc/lv_area.h"
  23:c:\projects\paindrain\arduinolcd\test\pain drain\libraries\lvgl\src\font\lv_font.h **** 
  24:c:\projects\paindrain\arduinolcd\test\pain drain\libraries\lvgl\src\font\lv_font.h **** /*********************
  25:c:\projects\paindrain\arduinolcd\test\pain drain\libraries\lvgl\src\font\lv_font.h ****  *      DEFINES
  26:c:\projects\paindrain\arduinolcd\test\pain drain\libraries\lvgl\src\font\lv_font.h ****  *********************/
  27:c:\projects\paindrain\arduinolcd\test\pain drain\libraries\lvgl\src\font\lv_font.h **** 
  28:c:\projects\paindrain\arduinolcd\test\pain drain\libraries\lvgl\src\font\lv_font.h **** /* imgfont identifier */
  29:c:\projects\paindrain\arduinolcd\test\pain drain\libraries\lvgl\src\font\lv_font.h **** #define LV_IMGFONT_BPP 9
  30:c:\projects\paindrain\arduinolcd\test\pain drain\libraries\lvgl\src\font\lv_font.h **** 
  31:c:\projects\paindrain\arduinolcd\test\pain drain\libraries\lvgl\src\font\lv_font.h **** /**********************
  32:c:\projects\paindrain\arduinolcd\test\pain drain\libraries\lvgl\src\font\lv_font.h ****  *      TYPEDEFS
  33:c:\projects\paindrain\arduinolcd\test\pain drain\libraries\lvgl\src\font\lv_font.h ****  **********************/
  34:c:\projects\paindrain\arduinolcd\test\pain drain\libraries\lvgl\src\font\lv_font.h **** 
ARM GAS  C:\Users\haske\AppData\Local\Temp\ccNao93W.s 			page 23


  35:c:\projects\paindrain\arduinolcd\test\pain drain\libraries\lvgl\src\font\lv_font.h **** /*------------------
  36:c:\projects\paindrain\arduinolcd\test\pain drain\libraries\lvgl\src\font\lv_font.h ****  * General types
  37:c:\projects\paindrain\arduinolcd\test\pain drain\libraries\lvgl\src\font\lv_font.h ****  *-----------------*/
  38:c:\projects\paindrain\arduinolcd\test\pain drain\libraries\lvgl\src\font\lv_font.h **** 
  39:c:\projects\paindrain\arduinolcd\test\pain drain\libraries\lvgl\src\font\lv_font.h **** struct _lv_font_t;
  40:c:\projects\paindrain\arduinolcd\test\pain drain\libraries\lvgl\src\font\lv_font.h **** /** Describes the properties of a glyph.*/
  41:c:\projects\paindrain\arduinolcd\test\pain drain\libraries\lvgl\src\font\lv_font.h **** typedef struct {
  42:c:\projects\paindrain\arduinolcd\test\pain drain\libraries\lvgl\src\font\lv_font.h ****     const struct _lv_font_t *
  43:c:\projects\paindrain\arduinolcd\test\pain drain\libraries\lvgl\src\font\lv_font.h ****         resolved_font; /**< Pointer to a font where the glyph was actually found after handling fal
  44:c:\projects\paindrain\arduinolcd\test\pain drain\libraries\lvgl\src\font\lv_font.h ****     uint16_t adv_w; /**< The glyph needs this space. Draw the next glyph after this width.*/
  45:c:\projects\paindrain\arduinolcd\test\pain drain\libraries\lvgl\src\font\lv_font.h ****     uint16_t box_w; /**< Width of the glyph's bounding box*/
  46:c:\projects\paindrain\arduinolcd\test\pain drain\libraries\lvgl\src\font\lv_font.h ****     uint16_t box_h; /**< Height of the glyph's bounding box*/
  47:c:\projects\paindrain\arduinolcd\test\pain drain\libraries\lvgl\src\font\lv_font.h ****     int16_t ofs_x;  /**< x offset of the bounding box*/
  48:c:\projects\paindrain\arduinolcd\test\pain drain\libraries\lvgl\src\font\lv_font.h ****     int16_t ofs_y;  /**< y offset of the bounding box*/
  49:c:\projects\paindrain\arduinolcd\test\pain drain\libraries\lvgl\src\font\lv_font.h ****     uint8_t bpp: 4;  /**< Bit-per-pixel: 1, 2, 4, 8*/
  50:c:\projects\paindrain\arduinolcd\test\pain drain\libraries\lvgl\src\font\lv_font.h ****     uint8_t is_placeholder: 1; /** Glyph is missing. But placeholder will still be displayed */
  51:c:\projects\paindrain\arduinolcd\test\pain drain\libraries\lvgl\src\font\lv_font.h **** } lv_font_glyph_dsc_t;
  52:c:\projects\paindrain\arduinolcd\test\pain drain\libraries\lvgl\src\font\lv_font.h **** 
  53:c:\projects\paindrain\arduinolcd\test\pain drain\libraries\lvgl\src\font\lv_font.h **** /** The bitmaps might be upscaled by 3 to achieve subpixel rendering.*/
  54:c:\projects\paindrain\arduinolcd\test\pain drain\libraries\lvgl\src\font\lv_font.h **** enum {
  55:c:\projects\paindrain\arduinolcd\test\pain drain\libraries\lvgl\src\font\lv_font.h ****     LV_FONT_SUBPX_NONE,
  56:c:\projects\paindrain\arduinolcd\test\pain drain\libraries\lvgl\src\font\lv_font.h ****     LV_FONT_SUBPX_HOR,
  57:c:\projects\paindrain\arduinolcd\test\pain drain\libraries\lvgl\src\font\lv_font.h ****     LV_FONT_SUBPX_VER,
  58:c:\projects\paindrain\arduinolcd\test\pain drain\libraries\lvgl\src\font\lv_font.h ****     LV_FONT_SUBPX_BOTH,
  59:c:\projects\paindrain\arduinolcd\test\pain drain\libraries\lvgl\src\font\lv_font.h **** };
  60:c:\projects\paindrain\arduinolcd\test\pain drain\libraries\lvgl\src\font\lv_font.h **** 
  61:c:\projects\paindrain\arduinolcd\test\pain drain\libraries\lvgl\src\font\lv_font.h **** typedef uint8_t lv_font_subpx_t;
  62:c:\projects\paindrain\arduinolcd\test\pain drain\libraries\lvgl\src\font\lv_font.h **** 
  63:c:\projects\paindrain\arduinolcd\test\pain drain\libraries\lvgl\src\font\lv_font.h **** /** Describe the properties of a font*/
  64:c:\projects\paindrain\arduinolcd\test\pain drain\libraries\lvgl\src\font\lv_font.h **** typedef struct _lv_font_t {
  65:c:\projects\paindrain\arduinolcd\test\pain drain\libraries\lvgl\src\font\lv_font.h ****     /** Get a glyph's descriptor from a font*/
  66:c:\projects\paindrain\arduinolcd\test\pain drain\libraries\lvgl\src\font\lv_font.h ****     bool (*get_glyph_dsc)(const struct _lv_font_t *, lv_font_glyph_dsc_t *, uint32_t letter, uint32
  67:c:\projects\paindrain\arduinolcd\test\pain drain\libraries\lvgl\src\font\lv_font.h **** 
  68:c:\projects\paindrain\arduinolcd\test\pain drain\libraries\lvgl\src\font\lv_font.h ****     /** Get a glyph's bitmap from a font*/
  69:c:\projects\paindrain\arduinolcd\test\pain drain\libraries\lvgl\src\font\lv_font.h ****     const uint8_t * (*get_glyph_bitmap)(const struct _lv_font_t *, uint32_t);
  70:c:\projects\paindrain\arduinolcd\test\pain drain\libraries\lvgl\src\font\lv_font.h **** 
  71:c:\projects\paindrain\arduinolcd\test\pain drain\libraries\lvgl\src\font\lv_font.h ****     /*Pointer to the font in a font pack (must have the same line height)*/
  72:c:\projects\paindrain\arduinolcd\test\pain drain\libraries\lvgl\src\font\lv_font.h ****     lv_coord_t line_height;         /**< The real line height where any text fits*/
  73:c:\projects\paindrain\arduinolcd\test\pain drain\libraries\lvgl\src\font\lv_font.h ****     lv_coord_t base_line;           /**< Base line measured from the top of the line_height*/
  74:c:\projects\paindrain\arduinolcd\test\pain drain\libraries\lvgl\src\font\lv_font.h ****     uint8_t subpx  : 2;             /**< An element of `lv_font_subpx_t`*/
  75:c:\projects\paindrain\arduinolcd\test\pain drain\libraries\lvgl\src\font\lv_font.h **** 
  76:c:\projects\paindrain\arduinolcd\test\pain drain\libraries\lvgl\src\font\lv_font.h ****     int8_t underline_position;      /**< Distance between the top of the underline and base line (<
  77:c:\projects\paindrain\arduinolcd\test\pain drain\libraries\lvgl\src\font\lv_font.h ****     int8_t underline_thickness;     /**< Thickness of the underline*/
  78:c:\projects\paindrain\arduinolcd\test\pain drain\libraries\lvgl\src\font\lv_font.h **** 
  79:c:\projects\paindrain\arduinolcd\test\pain drain\libraries\lvgl\src\font\lv_font.h ****     const void * dsc;               /**< Store implementation specific or run_time data or caching 
  80:c:\projects\paindrain\arduinolcd\test\pain drain\libraries\lvgl\src\font\lv_font.h ****     const struct _lv_font_t * fallback;   /**< Fallback font for missing glyph. Resolved recursivel
  81:c:\projects\paindrain\arduinolcd\test\pain drain\libraries\lvgl\src\font\lv_font.h **** #if LV_USE_USER_DATA
  82:c:\projects\paindrain\arduinolcd\test\pain drain\libraries\lvgl\src\font\lv_font.h ****     void * user_data;               /**< Custom user data for font.*/
  83:c:\projects\paindrain\arduinolcd\test\pain drain\libraries\lvgl\src\font\lv_font.h **** #endif
  84:c:\projects\paindrain\arduinolcd\test\pain drain\libraries\lvgl\src\font\lv_font.h **** } lv_font_t;
  85:c:\projects\paindrain\arduinolcd\test\pain drain\libraries\lvgl\src\font\lv_font.h **** 
  86:c:\projects\paindrain\arduinolcd\test\pain drain\libraries\lvgl\src\font\lv_font.h **** /**********************
  87:c:\projects\paindrain\arduinolcd\test\pain drain\libraries\lvgl\src\font\lv_font.h ****  * GLOBAL PROTOTYPES
  88:c:\projects\paindrain\arduinolcd\test\pain drain\libraries\lvgl\src\font\lv_font.h ****  **********************/
  89:c:\projects\paindrain\arduinolcd\test\pain drain\libraries\lvgl\src\font\lv_font.h **** 
  90:c:\projects\paindrain\arduinolcd\test\pain drain\libraries\lvgl\src\font\lv_font.h **** /**
  91:c:\projects\paindrain\arduinolcd\test\pain drain\libraries\lvgl\src\font\lv_font.h ****  * Return with the bitmap of a font.
ARM GAS  C:\Users\haske\AppData\Local\Temp\ccNao93W.s 			page 24


  92:c:\projects\paindrain\arduinolcd\test\pain drain\libraries\lvgl\src\font\lv_font.h ****  * @param font_p pointer to a font
  93:c:\projects\paindrain\arduinolcd\test\pain drain\libraries\lvgl\src\font\lv_font.h ****  * @param letter a UNICODE character code
  94:c:\projects\paindrain\arduinolcd\test\pain drain\libraries\lvgl\src\font\lv_font.h ****  * @return pointer to the bitmap of the letter
  95:c:\projects\paindrain\arduinolcd\test\pain drain\libraries\lvgl\src\font\lv_font.h ****  */
  96:c:\projects\paindrain\arduinolcd\test\pain drain\libraries\lvgl\src\font\lv_font.h **** const uint8_t * lv_font_get_glyph_bitmap(const lv_font_t * font_p, uint32_t letter);
  97:c:\projects\paindrain\arduinolcd\test\pain drain\libraries\lvgl\src\font\lv_font.h **** 
  98:c:\projects\paindrain\arduinolcd\test\pain drain\libraries\lvgl\src\font\lv_font.h **** /**
  99:c:\projects\paindrain\arduinolcd\test\pain drain\libraries\lvgl\src\font\lv_font.h ****  * Get the descriptor of a glyph
 100:c:\projects\paindrain\arduinolcd\test\pain drain\libraries\lvgl\src\font\lv_font.h ****  * @param font_p pointer to font
 101:c:\projects\paindrain\arduinolcd\test\pain drain\libraries\lvgl\src\font\lv_font.h ****  * @param dsc_out store the result descriptor here
 102:c:\projects\paindrain\arduinolcd\test\pain drain\libraries\lvgl\src\font\lv_font.h ****  * @param letter a UNICODE letter code
 103:c:\projects\paindrain\arduinolcd\test\pain drain\libraries\lvgl\src\font\lv_font.h ****  * @param letter_next the next letter after `letter`. Used for kerning
 104:c:\projects\paindrain\arduinolcd\test\pain drain\libraries\lvgl\src\font\lv_font.h ****  * @return true: descriptor is successfully loaded into `dsc_out`.
 105:c:\projects\paindrain\arduinolcd\test\pain drain\libraries\lvgl\src\font\lv_font.h ****  *         false: the letter was not found, no data is loaded to `dsc_out`
 106:c:\projects\paindrain\arduinolcd\test\pain drain\libraries\lvgl\src\font\lv_font.h ****  */
 107:c:\projects\paindrain\arduinolcd\test\pain drain\libraries\lvgl\src\font\lv_font.h **** bool lv_font_get_glyph_dsc(const lv_font_t * font_p, lv_font_glyph_dsc_t * dsc_out, uint32_t letter
 108:c:\projects\paindrain\arduinolcd\test\pain drain\libraries\lvgl\src\font\lv_font.h ****                            uint32_t letter_next);
 109:c:\projects\paindrain\arduinolcd\test\pain drain\libraries\lvgl\src\font\lv_font.h **** 
 110:c:\projects\paindrain\arduinolcd\test\pain drain\libraries\lvgl\src\font\lv_font.h **** /**
 111:c:\projects\paindrain\arduinolcd\test\pain drain\libraries\lvgl\src\font\lv_font.h ****  * Get the width of a glyph with kerning
 112:c:\projects\paindrain\arduinolcd\test\pain drain\libraries\lvgl\src\font\lv_font.h ****  * @param font pointer to a font
 113:c:\projects\paindrain\arduinolcd\test\pain drain\libraries\lvgl\src\font\lv_font.h ****  * @param letter a UNICODE letter
 114:c:\projects\paindrain\arduinolcd\test\pain drain\libraries\lvgl\src\font\lv_font.h ****  * @param letter_next the next letter after `letter`. Used for kerning
 115:c:\projects\paindrain\arduinolcd\test\pain drain\libraries\lvgl\src\font\lv_font.h ****  * @return the width of the glyph
 116:c:\projects\paindrain\arduinolcd\test\pain drain\libraries\lvgl\src\font\lv_font.h ****  */
 117:c:\projects\paindrain\arduinolcd\test\pain drain\libraries\lvgl\src\font\lv_font.h **** uint16_t lv_font_get_glyph_width(const lv_font_t * font, uint32_t letter, uint32_t letter_next);
 118:c:\projects\paindrain\arduinolcd\test\pain drain\libraries\lvgl\src\font\lv_font.h **** 
 119:c:\projects\paindrain\arduinolcd\test\pain drain\libraries\lvgl\src\font\lv_font.h **** /**
 120:c:\projects\paindrain\arduinolcd\test\pain drain\libraries\lvgl\src\font\lv_font.h ****  * Get the line height of a font. All characters fit into this height
 121:c:\projects\paindrain\arduinolcd\test\pain drain\libraries\lvgl\src\font\lv_font.h ****  * @param font_p pointer to a font
 122:c:\projects\paindrain\arduinolcd\test\pain drain\libraries\lvgl\src\font\lv_font.h ****  * @return the height of a font
 123:c:\projects\paindrain\arduinolcd\test\pain drain\libraries\lvgl\src\font\lv_font.h ****  */
 124:c:\projects\paindrain\arduinolcd\test\pain drain\libraries\lvgl\src\font\lv_font.h **** static inline lv_coord_t lv_font_get_line_height(const lv_font_t * font_p)
 125:c:\projects\paindrain\arduinolcd\test\pain drain\libraries\lvgl\src\font\lv_font.h **** {
 126:c:\projects\paindrain\arduinolcd\test\pain drain\libraries\lvgl\src\font\lv_font.h ****     return font_p->line_height;
 434              		.loc 4 126 0
 435 0202 0823     		movs	r3, #8
 436 0204 C25E     		ldrsh	r2, [r0, r3]
 437              	.LBE27:
 438              	.LBE26:
 126:..\..\..\arduinoLCD\test\Pain Drain\libraries\lvgl\src\extra\widgets\msgbox/lv_msgbox.c ****         }
 127:..\..\..\arduinoLCD\test\Pain Drain\libraries\lvgl\src\extra\widgets\msgbox/lv_msgbox.c **** 
 128:..\..\..\arduinoLCD\test\Pain Drain\libraries\lvgl\src\extra\widgets\msgbox/lv_msgbox.c ****         const lv_font_t * font = lv_obj_get_style_text_font(mbox->btns, LV_PART_ITEMS);
 129:..\..\..\arduinoLCD\test\Pain Drain\libraries\lvgl\src\extra\widgets\msgbox/lv_msgbox.c ****         lv_coord_t btn_h = lv_font_get_line_height(font) + LV_DPI_DEF / 10;
 439              		.loc 1 129 0
 440 0206 0D32     		adds	r2, r2, #13
 441 0208 12B2     		sxth	r2, r2
 442              	.LVL60:
 130:..\..\..\arduinoLCD\test\Pain Drain\libraries\lvgl\src\extra\widgets\msgbox/lv_msgbox.c ****         lv_obj_set_size(mbox->btns, btn_cnt * (2 * LV_DPI_DEF / 3), btn_h);
 443              		.loc 1 130 0
 444 020a 5621     		movs	r1, #86
 445 020c 6943     		muls	r1, r5
 446 020e 09B2     		sxth	r1, r1
 447 0210 606B     		ldr	r0, [r4, #52]
 448              	.LVL61:
 449 0212 FFF7FEFF 		bl	lv_obj_set_size
 450              	.LVL62:
ARM GAS  C:\Users\haske\AppData\Local\Temp\ccNao93W.s 			page 25


 131:..\..\..\arduinoLCD\test\Pain Drain\libraries\lvgl\src\extra\widgets\msgbox/lv_msgbox.c ****         lv_obj_set_style_max_width(mbox->btns, lv_pct(100), 0);
 451              		.loc 1 131 0
 452 0216 0022     		movs	r2, #0
 453 0218 0949     		ldr	r1, .L32+4
 454 021a 606B     		ldr	r0, [r4, #52]
 455 021c FFF7FEFF 		bl	lv_obj_set_style_max_width
 456              	.LVL63:
 132:..\..\..\arduinoLCD\test\Pain Drain\libraries\lvgl\src\extra\widgets\msgbox/lv_msgbox.c ****         lv_obj_add_flag(mbox->btns, LV_OBJ_FLAG_EVENT_BUBBLE);    /*To see the event directly on th
 457              		.loc 1 132 0
 458 0220 8021     		movs	r1, #128
 459 0222 C901     		lsls	r1, r1, #7
 460 0224 606B     		ldr	r0, [r4, #52]
 461 0226 FFF7FEFF 		bl	lv_obj_add_flag
 462              	.LVL64:
 463              	.LBE23:
 133:..\..\..\arduinoLCD\test\Pain Drain\libraries\lvgl\src\extra\widgets\msgbox/lv_msgbox.c ****     }
 134:..\..\..\arduinoLCD\test\Pain Drain\libraries\lvgl\src\extra\widgets\msgbox/lv_msgbox.c **** 
 135:..\..\..\arduinoLCD\test\Pain Drain\libraries\lvgl\src\extra\widgets\msgbox/lv_msgbox.c ****     return obj;
 464              		.loc 1 135 0
 465 022a 2000     		movs	r0, r4
 466 022c 02E0     		b	.L7
 467              	.LVL65:
 468              	.L23:
  77:..\..\..\arduinoLCD\test\Pain Drain\libraries\lvgl\src\extra\widgets\msgbox/lv_msgbox.c ****     lv_obj_class_init_obj(obj);
 469              		.loc 1 77 0
 470 022e 0020     		movs	r0, #0
 471              	.LVL66:
 472 0230 00E0     		b	.L7
 473              	.LVL67:
 474              	.L31:
 475              		.loc 1 135 0
 476 0232 2000     		movs	r0, r4
 477              	.LVL68:
 478              	.L7:
 136:..\..\..\arduinoLCD\test\Pain Drain\libraries\lvgl\src\extra\widgets\msgbox/lv_msgbox.c **** }
 479              		.loc 1 136 0
 480              		@ sp needed
 481              	.LVL69:
 482              	.LVL70:
 483              	.LVL71:
 484 0234 0CBC     		pop	{r2, r3}
 485 0236 9046     		mov	r8, r2
 486 0238 9946     		mov	r9, r3
 487 023a F8BD     		pop	{r3, r4, r5, r6, r7, pc}
 488              	.L33:
 489              		.align	2
 490              	.L32:
 491 023c 00000000 		.word	.LANCHOR0
 492 0240 64200000 		.word	8292
 493 0244 00000000 		.word	.LC0
 494 0248 00000000 		.word	msgbox_close_click_event_cb
 495 024c 04000000 		.word	.LC4
 496              		.cfi_endproc
 497              	.LFE202:
 498              		.size	lv_msgbox_create, .-lv_msgbox_create
 499              		.section	.text.lv_msgbox_get_title,"ax",%progbits
 500              		.align	2
ARM GAS  C:\Users\haske\AppData\Local\Temp\ccNao93W.s 			page 26


 501              		.global	lv_msgbox_get_title
 502              		.code	16
 503              		.thumb_func
 504              		.type	lv_msgbox_get_title, %function
 505              	lv_msgbox_get_title:
 506              	.LFB203:
 137:..\..\..\arduinoLCD\test\Pain Drain\libraries\lvgl\src\extra\widgets\msgbox/lv_msgbox.c **** 
 138:..\..\..\arduinoLCD\test\Pain Drain\libraries\lvgl\src\extra\widgets\msgbox/lv_msgbox.c **** 
 139:..\..\..\arduinoLCD\test\Pain Drain\libraries\lvgl\src\extra\widgets\msgbox/lv_msgbox.c **** lv_obj_t * lv_msgbox_get_title(lv_obj_t * obj)
 140:..\..\..\arduinoLCD\test\Pain Drain\libraries\lvgl\src\extra\widgets\msgbox/lv_msgbox.c **** {
 507              		.loc 1 140 0
 508              		.cfi_startproc
 509              		@ args = 0, pretend = 0, frame = 0
 510              		@ frame_needed = 0, uses_anonymous_args = 0
 511              		@ link register save eliminated.
 512              	.LVL72:
 141:..\..\..\arduinoLCD\test\Pain Drain\libraries\lvgl\src\extra\widgets\msgbox/lv_msgbox.c ****     LV_ASSERT_OBJ(obj, MY_CLASS);
 142:..\..\..\arduinoLCD\test\Pain Drain\libraries\lvgl\src\extra\widgets\msgbox/lv_msgbox.c ****     lv_msgbox_t * mbox = (lv_msgbox_t *)obj;
 143:..\..\..\arduinoLCD\test\Pain Drain\libraries\lvgl\src\extra\widgets\msgbox/lv_msgbox.c ****     return mbox->title;
 513              		.loc 1 143 0
 514 0000 406A     		ldr	r0, [r0, #36]
 515              	.LVL73:
 144:..\..\..\arduinoLCD\test\Pain Drain\libraries\lvgl\src\extra\widgets\msgbox/lv_msgbox.c **** }
 516              		.loc 1 144 0
 517              		@ sp needed
 518 0002 7047     		bx	lr
 519              		.cfi_endproc
 520              	.LFE203:
 521              		.size	lv_msgbox_get_title, .-lv_msgbox_get_title
 522              		.section	.text.lv_msgbox_get_close_btn,"ax",%progbits
 523              		.align	2
 524              		.global	lv_msgbox_get_close_btn
 525              		.code	16
 526              		.thumb_func
 527              		.type	lv_msgbox_get_close_btn, %function
 528              	lv_msgbox_get_close_btn:
 529              	.LFB204:
 145:..\..\..\arduinoLCD\test\Pain Drain\libraries\lvgl\src\extra\widgets\msgbox/lv_msgbox.c **** 
 146:..\..\..\arduinoLCD\test\Pain Drain\libraries\lvgl\src\extra\widgets\msgbox/lv_msgbox.c **** lv_obj_t * lv_msgbox_get_close_btn(lv_obj_t * obj)
 147:..\..\..\arduinoLCD\test\Pain Drain\libraries\lvgl\src\extra\widgets\msgbox/lv_msgbox.c **** {
 530              		.loc 1 147 0
 531              		.cfi_startproc
 532              		@ args = 0, pretend = 0, frame = 0
 533              		@ frame_needed = 0, uses_anonymous_args = 0
 534              		@ link register save eliminated.
 535              	.LVL74:
 148:..\..\..\arduinoLCD\test\Pain Drain\libraries\lvgl\src\extra\widgets\msgbox/lv_msgbox.c ****     LV_ASSERT_OBJ(obj, MY_CLASS);
 149:..\..\..\arduinoLCD\test\Pain Drain\libraries\lvgl\src\extra\widgets\msgbox/lv_msgbox.c ****     lv_msgbox_t * mbox = (lv_msgbox_t *)obj;
 150:..\..\..\arduinoLCD\test\Pain Drain\libraries\lvgl\src\extra\widgets\msgbox/lv_msgbox.c ****     return mbox->close_btn;
 536              		.loc 1 150 0
 537 0000 806A     		ldr	r0, [r0, #40]
 538              	.LVL75:
 151:..\..\..\arduinoLCD\test\Pain Drain\libraries\lvgl\src\extra\widgets\msgbox/lv_msgbox.c **** }
 539              		.loc 1 151 0
 540              		@ sp needed
 541 0002 7047     		bx	lr
 542              		.cfi_endproc
ARM GAS  C:\Users\haske\AppData\Local\Temp\ccNao93W.s 			page 27


 543              	.LFE204:
 544              		.size	lv_msgbox_get_close_btn, .-lv_msgbox_get_close_btn
 545              		.section	.text.lv_msgbox_get_text,"ax",%progbits
 546              		.align	2
 547              		.global	lv_msgbox_get_text
 548              		.code	16
 549              		.thumb_func
 550              		.type	lv_msgbox_get_text, %function
 551              	lv_msgbox_get_text:
 552              	.LFB205:
 152:..\..\..\arduinoLCD\test\Pain Drain\libraries\lvgl\src\extra\widgets\msgbox/lv_msgbox.c **** 
 153:..\..\..\arduinoLCD\test\Pain Drain\libraries\lvgl\src\extra\widgets\msgbox/lv_msgbox.c **** lv_obj_t * lv_msgbox_get_text(lv_obj_t * obj)
 154:..\..\..\arduinoLCD\test\Pain Drain\libraries\lvgl\src\extra\widgets\msgbox/lv_msgbox.c **** {
 553              		.loc 1 154 0
 554              		.cfi_startproc
 555              		@ args = 0, pretend = 0, frame = 0
 556              		@ frame_needed = 0, uses_anonymous_args = 0
 557              		@ link register save eliminated.
 558              	.LVL76:
 155:..\..\..\arduinoLCD\test\Pain Drain\libraries\lvgl\src\extra\widgets\msgbox/lv_msgbox.c ****     LV_ASSERT_OBJ(obj, MY_CLASS);
 156:..\..\..\arduinoLCD\test\Pain Drain\libraries\lvgl\src\extra\widgets\msgbox/lv_msgbox.c ****     lv_msgbox_t * mbox = (lv_msgbox_t *)obj;
 157:..\..\..\arduinoLCD\test\Pain Drain\libraries\lvgl\src\extra\widgets\msgbox/lv_msgbox.c ****     return mbox->text;
 559              		.loc 1 157 0
 560 0000 006B     		ldr	r0, [r0, #48]
 561              	.LVL77:
 158:..\..\..\arduinoLCD\test\Pain Drain\libraries\lvgl\src\extra\widgets\msgbox/lv_msgbox.c **** }
 562              		.loc 1 158 0
 563              		@ sp needed
 564 0002 7047     		bx	lr
 565              		.cfi_endproc
 566              	.LFE205:
 567              		.size	lv_msgbox_get_text, .-lv_msgbox_get_text
 568              		.section	.text.lv_msgbox_get_content,"ax",%progbits
 569              		.align	2
 570              		.global	lv_msgbox_get_content
 571              		.code	16
 572              		.thumb_func
 573              		.type	lv_msgbox_get_content, %function
 574              	lv_msgbox_get_content:
 575              	.LFB206:
 159:..\..\..\arduinoLCD\test\Pain Drain\libraries\lvgl\src\extra\widgets\msgbox/lv_msgbox.c **** 
 160:..\..\..\arduinoLCD\test\Pain Drain\libraries\lvgl\src\extra\widgets\msgbox/lv_msgbox.c **** lv_obj_t * lv_msgbox_get_content(lv_obj_t * obj)
 161:..\..\..\arduinoLCD\test\Pain Drain\libraries\lvgl\src\extra\widgets\msgbox/lv_msgbox.c **** {
 576              		.loc 1 161 0
 577              		.cfi_startproc
 578              		@ args = 0, pretend = 0, frame = 0
 579              		@ frame_needed = 0, uses_anonymous_args = 0
 580              		@ link register save eliminated.
 581              	.LVL78:
 162:..\..\..\arduinoLCD\test\Pain Drain\libraries\lvgl\src\extra\widgets\msgbox/lv_msgbox.c ****     LV_ASSERT_OBJ(obj, MY_CLASS);
 163:..\..\..\arduinoLCD\test\Pain Drain\libraries\lvgl\src\extra\widgets\msgbox/lv_msgbox.c ****     lv_msgbox_t * mbox = (lv_msgbox_t *)obj;
 164:..\..\..\arduinoLCD\test\Pain Drain\libraries\lvgl\src\extra\widgets\msgbox/lv_msgbox.c ****     return mbox->content;
 582              		.loc 1 164 0
 583 0000 C06A     		ldr	r0, [r0, #44]
 584              	.LVL79:
 165:..\..\..\arduinoLCD\test\Pain Drain\libraries\lvgl\src\extra\widgets\msgbox/lv_msgbox.c **** }
 585              		.loc 1 165 0
ARM GAS  C:\Users\haske\AppData\Local\Temp\ccNao93W.s 			page 28


 586              		@ sp needed
 587 0002 7047     		bx	lr
 588              		.cfi_endproc
 589              	.LFE206:
 590              		.size	lv_msgbox_get_content, .-lv_msgbox_get_content
 591              		.section	.text.lv_msgbox_get_btns,"ax",%progbits
 592              		.align	2
 593              		.global	lv_msgbox_get_btns
 594              		.code	16
 595              		.thumb_func
 596              		.type	lv_msgbox_get_btns, %function
 597              	lv_msgbox_get_btns:
 598              	.LFB207:
 166:..\..\..\arduinoLCD\test\Pain Drain\libraries\lvgl\src\extra\widgets\msgbox/lv_msgbox.c **** 
 167:..\..\..\arduinoLCD\test\Pain Drain\libraries\lvgl\src\extra\widgets\msgbox/lv_msgbox.c **** lv_obj_t * lv_msgbox_get_btns(lv_obj_t * obj)
 168:..\..\..\arduinoLCD\test\Pain Drain\libraries\lvgl\src\extra\widgets\msgbox/lv_msgbox.c **** {
 599              		.loc 1 168 0
 600              		.cfi_startproc
 601              		@ args = 0, pretend = 0, frame = 0
 602              		@ frame_needed = 0, uses_anonymous_args = 0
 603              		@ link register save eliminated.
 604              	.LVL80:
 169:..\..\..\arduinoLCD\test\Pain Drain\libraries\lvgl\src\extra\widgets\msgbox/lv_msgbox.c ****     LV_ASSERT_OBJ(obj, MY_CLASS);
 170:..\..\..\arduinoLCD\test\Pain Drain\libraries\lvgl\src\extra\widgets\msgbox/lv_msgbox.c ****     lv_msgbox_t * mbox = (lv_msgbox_t *)obj;
 171:..\..\..\arduinoLCD\test\Pain Drain\libraries\lvgl\src\extra\widgets\msgbox/lv_msgbox.c ****     return mbox->btns;
 605              		.loc 1 171 0
 606 0000 406B     		ldr	r0, [r0, #52]
 607              	.LVL81:
 172:..\..\..\arduinoLCD\test\Pain Drain\libraries\lvgl\src\extra\widgets\msgbox/lv_msgbox.c **** }
 608              		.loc 1 172 0
 609              		@ sp needed
 610 0002 7047     		bx	lr
 611              		.cfi_endproc
 612              	.LFE207:
 613              		.size	lv_msgbox_get_btns, .-lv_msgbox_get_btns
 614              		.section	.text.lv_msgbox_get_active_btn,"ax",%progbits
 615              		.align	2
 616              		.global	lv_msgbox_get_active_btn
 617              		.code	16
 618              		.thumb_func
 619              		.type	lv_msgbox_get_active_btn, %function
 620              	lv_msgbox_get_active_btn:
 621              	.LFB208:
 173:..\..\..\arduinoLCD\test\Pain Drain\libraries\lvgl\src\extra\widgets\msgbox/lv_msgbox.c **** 
 174:..\..\..\arduinoLCD\test\Pain Drain\libraries\lvgl\src\extra\widgets\msgbox/lv_msgbox.c **** uint16_t lv_msgbox_get_active_btn(lv_obj_t * mbox)
 175:..\..\..\arduinoLCD\test\Pain Drain\libraries\lvgl\src\extra\widgets\msgbox/lv_msgbox.c **** {
 622              		.loc 1 175 0
 623              		.cfi_startproc
 624              		@ args = 0, pretend = 0, frame = 0
 625              		@ frame_needed = 0, uses_anonymous_args = 0
 626              	.LVL82:
 627 0000 10B5     		push	{r4, lr}
 628              		.cfi_def_cfa_offset 8
 629              		.cfi_offset 4, -8
 630              		.cfi_offset 14, -4
 176:..\..\..\arduinoLCD\test\Pain Drain\libraries\lvgl\src\extra\widgets\msgbox/lv_msgbox.c ****     lv_obj_t * btnm = lv_msgbox_get_btns(mbox);
 631              		.loc 1 176 0
ARM GAS  C:\Users\haske\AppData\Local\Temp\ccNao93W.s 			page 29


 632 0002 FFF7FEFF 		bl	lv_msgbox_get_btns
 633              	.LVL83:
 177:..\..\..\arduinoLCD\test\Pain Drain\libraries\lvgl\src\extra\widgets\msgbox/lv_msgbox.c ****     return lv_btnmatrix_get_selected_btn(btnm);
 634              		.loc 1 177 0
 635 0006 FFF7FEFF 		bl	lv_btnmatrix_get_selected_btn
 636              	.LVL84:
 178:..\..\..\arduinoLCD\test\Pain Drain\libraries\lvgl\src\extra\widgets\msgbox/lv_msgbox.c **** }
 637              		.loc 1 178 0
 638              		@ sp needed
 639 000a 10BD     		pop	{r4, pc}
 640              		.cfi_endproc
 641              	.LFE208:
 642              		.size	lv_msgbox_get_active_btn, .-lv_msgbox_get_active_btn
 643              		.section	.text.lv_msgbox_get_active_btn_text,"ax",%progbits
 644              		.align	2
 645              		.global	lv_msgbox_get_active_btn_text
 646              		.code	16
 647              		.thumb_func
 648              		.type	lv_msgbox_get_active_btn_text, %function
 649              	lv_msgbox_get_active_btn_text:
 650              	.LFB209:
 179:..\..\..\arduinoLCD\test\Pain Drain\libraries\lvgl\src\extra\widgets\msgbox/lv_msgbox.c **** 
 180:..\..\..\arduinoLCD\test\Pain Drain\libraries\lvgl\src\extra\widgets\msgbox/lv_msgbox.c **** const char * lv_msgbox_get_active_btn_text(lv_obj_t * mbox)
 181:..\..\..\arduinoLCD\test\Pain Drain\libraries\lvgl\src\extra\widgets\msgbox/lv_msgbox.c **** {
 651              		.loc 1 181 0
 652              		.cfi_startproc
 653              		@ args = 0, pretend = 0, frame = 0
 654              		@ frame_needed = 0, uses_anonymous_args = 0
 655              	.LVL85:
 656 0000 10B5     		push	{r4, lr}
 657              		.cfi_def_cfa_offset 8
 658              		.cfi_offset 4, -8
 659              		.cfi_offset 14, -4
 182:..\..\..\arduinoLCD\test\Pain Drain\libraries\lvgl\src\extra\widgets\msgbox/lv_msgbox.c ****     lv_obj_t * btnm = lv_msgbox_get_btns(mbox);
 660              		.loc 1 182 0
 661 0002 FFF7FEFF 		bl	lv_msgbox_get_btns
 662              	.LVL86:
 663 0006 0400     		movs	r4, r0
 664              	.LVL87:
 183:..\..\..\arduinoLCD\test\Pain Drain\libraries\lvgl\src\extra\widgets\msgbox/lv_msgbox.c ****     return lv_btnmatrix_get_btn_text(btnm, lv_btnmatrix_get_selected_btn(btnm));
 665              		.loc 1 183 0
 666 0008 FFF7FEFF 		bl	lv_btnmatrix_get_selected_btn
 667              	.LVL88:
 668 000c 0100     		movs	r1, r0
 669 000e 2000     		movs	r0, r4
 670 0010 FFF7FEFF 		bl	lv_btnmatrix_get_btn_text
 671              	.LVL89:
 184:..\..\..\arduinoLCD\test\Pain Drain\libraries\lvgl\src\extra\widgets\msgbox/lv_msgbox.c **** }
 672              		.loc 1 184 0
 673              		@ sp needed
 674              	.LVL90:
 675 0014 10BD     		pop	{r4, pc}
 676              		.cfi_endproc
 677              	.LFE209:
 678              		.size	lv_msgbox_get_active_btn_text, .-lv_msgbox_get_active_btn_text
 679 0016 C046     		.section	.text.lv_msgbox_close,"ax",%progbits
 680              		.align	2
ARM GAS  C:\Users\haske\AppData\Local\Temp\ccNao93W.s 			page 30


 681              		.global	lv_msgbox_close
 682              		.code	16
 683              		.thumb_func
 684              		.type	lv_msgbox_close, %function
 685              	lv_msgbox_close:
 686              	.LFB210:
 185:..\..\..\arduinoLCD\test\Pain Drain\libraries\lvgl\src\extra\widgets\msgbox/lv_msgbox.c **** 
 186:..\..\..\arduinoLCD\test\Pain Drain\libraries\lvgl\src\extra\widgets\msgbox/lv_msgbox.c **** void lv_msgbox_close(lv_obj_t * mbox)
 187:..\..\..\arduinoLCD\test\Pain Drain\libraries\lvgl\src\extra\widgets\msgbox/lv_msgbox.c **** {
 687              		.loc 1 187 0
 688              		.cfi_startproc
 689              		@ args = 0, pretend = 0, frame = 0
 690              		@ frame_needed = 0, uses_anonymous_args = 0
 691              	.LVL91:
 692 0000 10B5     		push	{r4, lr}
 693              		.cfi_def_cfa_offset 8
 694              		.cfi_offset 4, -8
 695              		.cfi_offset 14, -4
 696 0002 0400     		movs	r4, r0
 188:..\..\..\arduinoLCD\test\Pain Drain\libraries\lvgl\src\extra\widgets\msgbox/lv_msgbox.c ****     if(lv_obj_has_flag(mbox, LV_MSGBOX_FLAG_AUTO_PARENT)) lv_obj_del(lv_obj_get_parent(mbox));
 697              		.loc 1 188 0
 698 0004 8021     		movs	r1, #128
 699 0006 8904     		lsls	r1, r1, #18
 700 0008 FFF7FEFF 		bl	lv_obj_has_flag
 701              	.LVL92:
 702 000c 0028     		cmp	r0, #0
 703 000e 05D0     		beq	.L42
 704              		.loc 1 188 0 is_stmt 0 discriminator 1
 705 0010 2000     		movs	r0, r4
 706 0012 FFF7FEFF 		bl	lv_obj_get_parent
 707              	.LVL93:
 708 0016 FFF7FEFF 		bl	lv_obj_del
 709              	.LVL94:
 710 001a 02E0     		b	.L41
 711              	.L42:
 189:..\..\..\arduinoLCD\test\Pain Drain\libraries\lvgl\src\extra\widgets\msgbox/lv_msgbox.c ****     else lv_obj_del(mbox);
 712              		.loc 1 189 0 is_stmt 1
 713 001c 2000     		movs	r0, r4
 714 001e FFF7FEFF 		bl	lv_obj_del
 715              	.LVL95:
 716              	.L41:
 190:..\..\..\arduinoLCD\test\Pain Drain\libraries\lvgl\src\extra\widgets\msgbox/lv_msgbox.c **** }
 717              		.loc 1 190 0
 718              		@ sp needed
 719              	.LVL96:
 720 0022 10BD     		pop	{r4, pc}
 721              		.cfi_endproc
 722              	.LFE210:
 723              		.size	lv_msgbox_close, .-lv_msgbox_close
 724              		.section	.text.msgbox_close_click_event_cb,"ax",%progbits
 725              		.align	2
 726              		.code	16
 727              		.thumb_func
 728              		.type	msgbox_close_click_event_cb, %function
 729              	msgbox_close_click_event_cb:
 730              	.LFB212:
 191:..\..\..\arduinoLCD\test\Pain Drain\libraries\lvgl\src\extra\widgets\msgbox/lv_msgbox.c **** 
ARM GAS  C:\Users\haske\AppData\Local\Temp\ccNao93W.s 			page 31


 192:..\..\..\arduinoLCD\test\Pain Drain\libraries\lvgl\src\extra\widgets\msgbox/lv_msgbox.c **** void lv_msgbox_close_async(lv_obj_t * dialog)
 193:..\..\..\arduinoLCD\test\Pain Drain\libraries\lvgl\src\extra\widgets\msgbox/lv_msgbox.c **** {
 194:..\..\..\arduinoLCD\test\Pain Drain\libraries\lvgl\src\extra\widgets\msgbox/lv_msgbox.c ****     if(lv_obj_has_flag(dialog, LV_MSGBOX_FLAG_AUTO_PARENT)) lv_obj_del_async(lv_obj_get_parent(dial
 195:..\..\..\arduinoLCD\test\Pain Drain\libraries\lvgl\src\extra\widgets\msgbox/lv_msgbox.c ****     else lv_obj_del_async(dialog);
 196:..\..\..\arduinoLCD\test\Pain Drain\libraries\lvgl\src\extra\widgets\msgbox/lv_msgbox.c **** }
 197:..\..\..\arduinoLCD\test\Pain Drain\libraries\lvgl\src\extra\widgets\msgbox/lv_msgbox.c **** 
 198:..\..\..\arduinoLCD\test\Pain Drain\libraries\lvgl\src\extra\widgets\msgbox/lv_msgbox.c **** /**********************
 199:..\..\..\arduinoLCD\test\Pain Drain\libraries\lvgl\src\extra\widgets\msgbox/lv_msgbox.c ****  *   STATIC FUNCTIONS
 200:..\..\..\arduinoLCD\test\Pain Drain\libraries\lvgl\src\extra\widgets\msgbox/lv_msgbox.c ****  **********************/
 201:..\..\..\arduinoLCD\test\Pain Drain\libraries\lvgl\src\extra\widgets\msgbox/lv_msgbox.c **** 
 202:..\..\..\arduinoLCD\test\Pain Drain\libraries\lvgl\src\extra\widgets\msgbox/lv_msgbox.c **** static void msgbox_close_click_event_cb(lv_event_t * e)
 203:..\..\..\arduinoLCD\test\Pain Drain\libraries\lvgl\src\extra\widgets\msgbox/lv_msgbox.c **** {
 731              		.loc 1 203 0
 732              		.cfi_startproc
 733              		@ args = 0, pretend = 0, frame = 0
 734              		@ frame_needed = 0, uses_anonymous_args = 0
 735              	.LVL97:
 736 0000 10B5     		push	{r4, lr}
 737              		.cfi_def_cfa_offset 8
 738              		.cfi_offset 4, -8
 739              		.cfi_offset 14, -4
 204:..\..\..\arduinoLCD\test\Pain Drain\libraries\lvgl\src\extra\widgets\msgbox/lv_msgbox.c ****     lv_obj_t * btn = lv_event_get_target(e);
 740              		.loc 1 204 0
 741 0002 FFF7FEFF 		bl	lv_event_get_target
 742              	.LVL98:
 205:..\..\..\arduinoLCD\test\Pain Drain\libraries\lvgl\src\extra\widgets\msgbox/lv_msgbox.c ****     lv_obj_t * mbox = lv_obj_get_parent(btn);
 743              		.loc 1 205 0
 744 0006 FFF7FEFF 		bl	lv_obj_get_parent
 745              	.LVL99:
 206:..\..\..\arduinoLCD\test\Pain Drain\libraries\lvgl\src\extra\widgets\msgbox/lv_msgbox.c ****     lv_msgbox_close(mbox);
 746              		.loc 1 206 0
 747 000a FFF7FEFF 		bl	lv_msgbox_close
 748              	.LVL100:
 207:..\..\..\arduinoLCD\test\Pain Drain\libraries\lvgl\src\extra\widgets\msgbox/lv_msgbox.c **** }
 749              		.loc 1 207 0
 750              		@ sp needed
 751 000e 10BD     		pop	{r4, pc}
 752              		.cfi_endproc
 753              	.LFE212:
 754              		.size	msgbox_close_click_event_cb, .-msgbox_close_click_event_cb
 755              		.section	.text.lv_msgbox_close_async,"ax",%progbits
 756              		.align	2
 757              		.global	lv_msgbox_close_async
 758              		.code	16
 759              		.thumb_func
 760              		.type	lv_msgbox_close_async, %function
 761              	lv_msgbox_close_async:
 762              	.LFB211:
 193:..\..\..\arduinoLCD\test\Pain Drain\libraries\lvgl\src\extra\widgets\msgbox/lv_msgbox.c ****     if(lv_obj_has_flag(dialog, LV_MSGBOX_FLAG_AUTO_PARENT)) lv_obj_del_async(lv_obj_get_parent(dial
 763              		.loc 1 193 0
 764              		.cfi_startproc
 765              		@ args = 0, pretend = 0, frame = 0
 766              		@ frame_needed = 0, uses_anonymous_args = 0
 767              	.LVL101:
 768 0000 10B5     		push	{r4, lr}
 769              		.cfi_def_cfa_offset 8
 770              		.cfi_offset 4, -8
ARM GAS  C:\Users\haske\AppData\Local\Temp\ccNao93W.s 			page 32


 771              		.cfi_offset 14, -4
 772 0002 0400     		movs	r4, r0
 194:..\..\..\arduinoLCD\test\Pain Drain\libraries\lvgl\src\extra\widgets\msgbox/lv_msgbox.c ****     else lv_obj_del_async(dialog);
 773              		.loc 1 194 0
 774 0004 8021     		movs	r1, #128
 775 0006 8904     		lsls	r1, r1, #18
 776 0008 FFF7FEFF 		bl	lv_obj_has_flag
 777              	.LVL102:
 778 000c 0028     		cmp	r0, #0
 779 000e 05D0     		beq	.L46
 194:..\..\..\arduinoLCD\test\Pain Drain\libraries\lvgl\src\extra\widgets\msgbox/lv_msgbox.c ****     else lv_obj_del_async(dialog);
 780              		.loc 1 194 0 is_stmt 0 discriminator 1
 781 0010 2000     		movs	r0, r4
 782 0012 FFF7FEFF 		bl	lv_obj_get_parent
 783              	.LVL103:
 784 0016 FFF7FEFF 		bl	lv_obj_del_async
 785              	.LVL104:
 786 001a 02E0     		b	.L45
 787              	.L46:
 195:..\..\..\arduinoLCD\test\Pain Drain\libraries\lvgl\src\extra\widgets\msgbox/lv_msgbox.c **** }
 788              		.loc 1 195 0 is_stmt 1
 789 001c 2000     		movs	r0, r4
 790 001e FFF7FEFF 		bl	lv_obj_del_async
 791              	.LVL105:
 792              	.L45:
 196:..\..\..\arduinoLCD\test\Pain Drain\libraries\lvgl\src\extra\widgets\msgbox/lv_msgbox.c **** 
 793              		.loc 1 196 0
 794              		@ sp needed
 795              	.LVL106:
 796 0022 10BD     		pop	{r4, pc}
 797              		.cfi_endproc
 798              	.LFE211:
 799              		.size	lv_msgbox_close_async, .-lv_msgbox_close_async
 800              		.global	lv_msgbox_backdrop_class
 801              		.global	lv_msgbox_content_class
 802              		.global	lv_msgbox_class
 803              		.section	.rodata
 804              		.align	2
 805              		.set	.LANCHOR0,. + 0
 806              		.type	lv_msgbox_backdrop_class, %object
 807              		.size	lv_msgbox_backdrop_class, 28
 808              	lv_msgbox_backdrop_class:
 809 0000 00000000 		.word	lv_obj_class
 810 0004 00000000 		.space	16
 810      00000000 
 810      00000000 
 810      00000000 
 811 0014 6420     		.short	8292
 812 0016 6420     		.short	8292
 813 0018 40       		.byte	64
 814 0019 02       		.byte	2
 815 001a 00       		.byte	0
 816 001b 00       		.space	1
 817              		.type	lv_msgbox_class, %object
 818              		.size	lv_msgbox_class, 28
 819              	lv_msgbox_class:
 820 001c 00000000 		.word	lv_obj_class
ARM GAS  C:\Users\haske\AppData\Local\Temp\ccNao93W.s 			page 33


 821 0020 00000000 		.space	16
 821      00000000 
 821      00000000 
 821      00000000 
 822 0030 0401     		.short	260
 823 0032 D127     		.short	10193
 824 0034 80       		.byte	128
 825 0035 03       		.byte	3
 826 0036 00       		.byte	0
 827 0037 00       		.space	1
 828              		.type	lv_msgbox_content_class, %object
 829              		.size	lv_msgbox_content_class, 28
 830              	lv_msgbox_content_class:
 831 0038 00000000 		.word	lv_obj_class
 832 003c 00000000 		.space	16
 832      00000000 
 832      00000000 
 832      00000000 
 833 004c 6420     		.short	8292
 834 004e D127     		.short	10193
 835 0050 40       		.byte	64
 836 0051 02       		.byte	2
 837 0052 00       		.byte	0
 838 0053 00       		.space	1
 839              		.section	.rodata.str1.4,"aMS",%progbits,1
 840              		.align	2
 841              	.LC0:
 842 0000 00       		.ascii	"\000"
 843 0001 000000   		.space	3
 844              	.LC4:
 845 0004 EF808D00 		.ascii	"\357\200\215\000"
 846              		.text
 847              	.Letext0:
 848              		.file 5 "c:\\program files (x86)\\cypress\\psoc creator\\4.4\\psoc creator\\import\\gnu\\arm\\5.4.
 849              		.file 6 "c:\\program files (x86)\\cypress\\psoc creator\\4.4\\psoc creator\\import\\gnu\\arm\\5.4.
 850              		.file 7 "c:\\projects\\paindrain\\arduinolcd\\test\\pain drain\\libraries\\lvgl\\src\\misc\\lv_are
 851              		.file 8 "c:\\projects\\paindrain\\arduinolcd\\test\\pain drain\\libraries\\lvgl\\src\\misc\\lv_col
 852              		.file 9 "c:\\projects\\paindrain\\arduinolcd\\test\\pain drain\\libraries\\lvgl\\src\\misc\\lv_sty
 853              		.file 10 "c:\\projects\\paindrain\\arduinolcd\\test\\pain drain\\libraries\\lvgl\\src/core/lv_obj.
 854              		.file 11 "c:\\projects\\paindrain\\arduinolcd\\test\\pain drain\\libraries\\lvgl\\src\\misc\\lv_ll
 855              		.file 12 "c:\\projects\\paindrain\\arduinolcd\\test\\pain drain\\libraries\\lvgl\\src/core/lv_grou
 856              		.file 13 "c:\\projects\\paindrain\\arduinolcd\\test\\pain drain\\libraries\\lvgl\\src/core/lv_obj_
 857              		.file 14 "c:\\projects\\paindrain\\arduinolcd\\test\\pain drain\\libraries\\lvgl\\src/core/lv_obj_
 858              		.file 15 "c:\\projects\\paindrain\\arduinolcd\\test\\pain drain\\libraries\\lvgl\\src/core/lv_obj_
 859              		.file 16 "c:\\projects\\paindrain\\arduinolcd\\test\\pain drain\\libraries\\lvgl\\src/core/lv_even
 860              		.file 17 "c:\\projects\\paindrain\\arduinolcd\\test\\pain drain\\libraries\\lvgl\\src/widgets/lv_l
 861              		.file 18 "c:\\projects\\paindrain\\arduinolcd\\test\\pain drain\\libraries\\lvgl\\src/widgets/lv_b
 862              		.file 19 "c:\\projects\\paindrain\\arduinolcd\\test\\pain drain\\libraries\\lvgl\\src/widgets/lv_b
 863              		.file 20 "c:\\projects\\paindrain\\arduinolcd\\test\\pain drain\\libraries\\lvgl\\src/extra/layout
 864              		.file 21 "c:\\projects\\paindrain\\arduinolcd\\test\\pain drain\\libraries\\lvgl\\src/extra/widget
 865              		.file 22 "..\\..\\..\\arduinoLCD\\test\\Pain Drain\\libraries\\lvgl\\src\\extra\\widgets\\msgbox\\
 866              		.file 23 "c:\\projects\\paindrain\\arduinolcd\\test\\pain drain\\libraries\\lvgl\\src/extra/layout
 867              		.file 24 "c:\\projects\\paindrain\\arduinolcd\\test\\pain drain\\libraries\\lvgl\\src/hal/lv_hal_d
 868              		.file 25 "c:\\projects\\paindrain\\arduinolcd\\test\\pain drain\\libraries\\lvgl\\src/widgets/lv_b
 869              		.file 26 "c:\\projects\\paindrain\\arduinolcd\\test\\pain drain\\libraries\\lvgl\\src\\core\\lv_ob
 870              		.file 27 "c:\\projects\\paindrain\\arduinolcd\\test\\pain drain\\libraries\\lvgl\\src/core/lv_obj_