ARM GAS  C:\Users\haske\AppData\Local\Temp\ccU9uRZG.s 			page 1


   1              		.syntax unified
   2              		.cpu cortex-m0plus
   3              		.fpu softvfp
   4              		.eabi_attribute 20, 1
   5              		.eabi_attribute 21, 1
   6              		.eabi_attribute 23, 3
   7              		.eabi_attribute 24, 1
   8              		.eabi_attribute 25, 1
   9              		.eabi_attribute 26, 1
  10              		.eabi_attribute 30, 1
  11              		.eabi_attribute 34, 0
  12              		.eabi_attribute 18, 4
  13              		.thumb
  14              		.syntax unified
  15              		.file	"lv_obj_tree.c"
  16              		.text
  17              	.Ltext0:
  18              		.cfi_sections	.debug_frame
  19              		.section	.text.lv_obj_del_delayed,"ax",%progbits
  20              		.align	2
  21              		.global	lv_obj_del_delayed
  22              		.code	16
  23              		.thumb_func
  24              		.type	lv_obj_del_delayed, %function
  25              	lv_obj_del_delayed:
  26              	.LFB161:
  27              		.file 1 "..\\..\\..\\arduinoLCD\\test\\Pain Drain\\libraries\\lvgl\\src\\core\\lv_obj_tree.c"
   1:..\..\..\arduinoLCD\test\Pain Drain\libraries\lvgl\src\core/lv_obj_tree.c **** /**
   2:..\..\..\arduinoLCD\test\Pain Drain\libraries\lvgl\src\core/lv_obj_tree.c ****  * @file lv_obj_tree.c
   3:..\..\..\arduinoLCD\test\Pain Drain\libraries\lvgl\src\core/lv_obj_tree.c ****  *
   4:..\..\..\arduinoLCD\test\Pain Drain\libraries\lvgl\src\core/lv_obj_tree.c ****  */
   5:..\..\..\arduinoLCD\test\Pain Drain\libraries\lvgl\src\core/lv_obj_tree.c **** 
   6:..\..\..\arduinoLCD\test\Pain Drain\libraries\lvgl\src\core/lv_obj_tree.c **** /*********************
   7:..\..\..\arduinoLCD\test\Pain Drain\libraries\lvgl\src\core/lv_obj_tree.c ****  *      INCLUDES
   8:..\..\..\arduinoLCD\test\Pain Drain\libraries\lvgl\src\core/lv_obj_tree.c ****  *********************/
   9:..\..\..\arduinoLCD\test\Pain Drain\libraries\lvgl\src\core/lv_obj_tree.c **** #include <stdlib.h>
  10:..\..\..\arduinoLCD\test\Pain Drain\libraries\lvgl\src\core/lv_obj_tree.c **** 
  11:..\..\..\arduinoLCD\test\Pain Drain\libraries\lvgl\src\core/lv_obj_tree.c **** #include "lv_obj.h"
  12:..\..\..\arduinoLCD\test\Pain Drain\libraries\lvgl\src\core/lv_obj_tree.c **** #include "lv_indev.h"
  13:..\..\..\arduinoLCD\test\Pain Drain\libraries\lvgl\src\core/lv_obj_tree.c **** #include "../misc/lv_anim.h"
  14:..\..\..\arduinoLCD\test\Pain Drain\libraries\lvgl\src\core/lv_obj_tree.c **** #include "../misc/lv_gc.h"
  15:..\..\..\arduinoLCD\test\Pain Drain\libraries\lvgl\src\core/lv_obj_tree.c **** #include "../misc/lv_async.h"
  16:..\..\..\arduinoLCD\test\Pain Drain\libraries\lvgl\src\core/lv_obj_tree.c **** 
  17:..\..\..\arduinoLCD\test\Pain Drain\libraries\lvgl\src\core/lv_obj_tree.c **** /*********************
  18:..\..\..\arduinoLCD\test\Pain Drain\libraries\lvgl\src\core/lv_obj_tree.c ****  *      DEFINES
  19:..\..\..\arduinoLCD\test\Pain Drain\libraries\lvgl\src\core/lv_obj_tree.c ****  *********************/
  20:..\..\..\arduinoLCD\test\Pain Drain\libraries\lvgl\src\core/lv_obj_tree.c **** #define MY_CLASS &lv_obj_class
  21:..\..\..\arduinoLCD\test\Pain Drain\libraries\lvgl\src\core/lv_obj_tree.c **** 
  22:..\..\..\arduinoLCD\test\Pain Drain\libraries\lvgl\src\core/lv_obj_tree.c **** /**********************
  23:..\..\..\arduinoLCD\test\Pain Drain\libraries\lvgl\src\core/lv_obj_tree.c ****  *      TYPEDEFS
  24:..\..\..\arduinoLCD\test\Pain Drain\libraries\lvgl\src\core/lv_obj_tree.c ****  **********************/
  25:..\..\..\arduinoLCD\test\Pain Drain\libraries\lvgl\src\core/lv_obj_tree.c **** 
  26:..\..\..\arduinoLCD\test\Pain Drain\libraries\lvgl\src\core/lv_obj_tree.c **** /**********************
  27:..\..\..\arduinoLCD\test\Pain Drain\libraries\lvgl\src\core/lv_obj_tree.c ****  *  STATIC PROTOTYPES
  28:..\..\..\arduinoLCD\test\Pain Drain\libraries\lvgl\src\core/lv_obj_tree.c ****  **********************/
  29:..\..\..\arduinoLCD\test\Pain Drain\libraries\lvgl\src\core/lv_obj_tree.c **** static void lv_obj_del_async_cb(void * obj);
  30:..\..\..\arduinoLCD\test\Pain Drain\libraries\lvgl\src\core/lv_obj_tree.c **** static void obj_del_core(lv_obj_t * obj);
ARM GAS  C:\Users\haske\AppData\Local\Temp\ccU9uRZG.s 			page 2


  31:..\..\..\arduinoLCD\test\Pain Drain\libraries\lvgl\src\core/lv_obj_tree.c **** static lv_obj_tree_walk_res_t walk_core(lv_obj_t * obj, lv_obj_tree_walk_cb_t cb, void * user_data)
  32:..\..\..\arduinoLCD\test\Pain Drain\libraries\lvgl\src\core/lv_obj_tree.c **** 
  33:..\..\..\arduinoLCD\test\Pain Drain\libraries\lvgl\src\core/lv_obj_tree.c **** /**********************
  34:..\..\..\arduinoLCD\test\Pain Drain\libraries\lvgl\src\core/lv_obj_tree.c ****  *  STATIC VARIABLES
  35:..\..\..\arduinoLCD\test\Pain Drain\libraries\lvgl\src\core/lv_obj_tree.c ****  **********************/
  36:..\..\..\arduinoLCD\test\Pain Drain\libraries\lvgl\src\core/lv_obj_tree.c **** 
  37:..\..\..\arduinoLCD\test\Pain Drain\libraries\lvgl\src\core/lv_obj_tree.c **** /**********************
  38:..\..\..\arduinoLCD\test\Pain Drain\libraries\lvgl\src\core/lv_obj_tree.c ****  *      MACROS
  39:..\..\..\arduinoLCD\test\Pain Drain\libraries\lvgl\src\core/lv_obj_tree.c ****  **********************/
  40:..\..\..\arduinoLCD\test\Pain Drain\libraries\lvgl\src\core/lv_obj_tree.c **** 
  41:..\..\..\arduinoLCD\test\Pain Drain\libraries\lvgl\src\core/lv_obj_tree.c **** /**********************
  42:..\..\..\arduinoLCD\test\Pain Drain\libraries\lvgl\src\core/lv_obj_tree.c ****  *   GLOBAL FUNCTIONS
  43:..\..\..\arduinoLCD\test\Pain Drain\libraries\lvgl\src\core/lv_obj_tree.c ****  **********************/
  44:..\..\..\arduinoLCD\test\Pain Drain\libraries\lvgl\src\core/lv_obj_tree.c **** 
  45:..\..\..\arduinoLCD\test\Pain Drain\libraries\lvgl\src\core/lv_obj_tree.c **** void lv_obj_del(lv_obj_t * obj)
  46:..\..\..\arduinoLCD\test\Pain Drain\libraries\lvgl\src\core/lv_obj_tree.c **** {
  47:..\..\..\arduinoLCD\test\Pain Drain\libraries\lvgl\src\core/lv_obj_tree.c ****     LV_LOG_TRACE("begin (delete %p)", (void *)obj);
  48:..\..\..\arduinoLCD\test\Pain Drain\libraries\lvgl\src\core/lv_obj_tree.c ****     LV_ASSERT_OBJ(obj, MY_CLASS);
  49:..\..\..\arduinoLCD\test\Pain Drain\libraries\lvgl\src\core/lv_obj_tree.c ****     lv_obj_invalidate(obj);
  50:..\..\..\arduinoLCD\test\Pain Drain\libraries\lvgl\src\core/lv_obj_tree.c **** 
  51:..\..\..\arduinoLCD\test\Pain Drain\libraries\lvgl\src\core/lv_obj_tree.c ****     lv_obj_t * par = lv_obj_get_parent(obj);
  52:..\..\..\arduinoLCD\test\Pain Drain\libraries\lvgl\src\core/lv_obj_tree.c ****     if(par) {
  53:..\..\..\arduinoLCD\test\Pain Drain\libraries\lvgl\src\core/lv_obj_tree.c ****         lv_obj_scrollbar_invalidate(par);
  54:..\..\..\arduinoLCD\test\Pain Drain\libraries\lvgl\src\core/lv_obj_tree.c ****     }
  55:..\..\..\arduinoLCD\test\Pain Drain\libraries\lvgl\src\core/lv_obj_tree.c **** 
  56:..\..\..\arduinoLCD\test\Pain Drain\libraries\lvgl\src\core/lv_obj_tree.c ****     lv_disp_t * disp = NULL;
  57:..\..\..\arduinoLCD\test\Pain Drain\libraries\lvgl\src\core/lv_obj_tree.c ****     bool act_scr_del = false;
  58:..\..\..\arduinoLCD\test\Pain Drain\libraries\lvgl\src\core/lv_obj_tree.c ****     if(par == NULL) {
  59:..\..\..\arduinoLCD\test\Pain Drain\libraries\lvgl\src\core/lv_obj_tree.c ****         disp = lv_obj_get_disp(obj);
  60:..\..\..\arduinoLCD\test\Pain Drain\libraries\lvgl\src\core/lv_obj_tree.c ****         if(!disp) return;   /*Shouldn't happen*/
  61:..\..\..\arduinoLCD\test\Pain Drain\libraries\lvgl\src\core/lv_obj_tree.c ****         if(disp->act_scr == obj) act_scr_del = true;
  62:..\..\..\arduinoLCD\test\Pain Drain\libraries\lvgl\src\core/lv_obj_tree.c ****     }
  63:..\..\..\arduinoLCD\test\Pain Drain\libraries\lvgl\src\core/lv_obj_tree.c **** 
  64:..\..\..\arduinoLCD\test\Pain Drain\libraries\lvgl\src\core/lv_obj_tree.c ****     obj_del_core(obj);
  65:..\..\..\arduinoLCD\test\Pain Drain\libraries\lvgl\src\core/lv_obj_tree.c **** 
  66:..\..\..\arduinoLCD\test\Pain Drain\libraries\lvgl\src\core/lv_obj_tree.c ****     /*Call the ancestor's event handler to the parent to notify it about the child delete*/
  67:..\..\..\arduinoLCD\test\Pain Drain\libraries\lvgl\src\core/lv_obj_tree.c ****     if(par) {
  68:..\..\..\arduinoLCD\test\Pain Drain\libraries\lvgl\src\core/lv_obj_tree.c ****         lv_obj_update_layout(par);
  69:..\..\..\arduinoLCD\test\Pain Drain\libraries\lvgl\src\core/lv_obj_tree.c ****         lv_obj_readjust_scroll(par, LV_ANIM_OFF);
  70:..\..\..\arduinoLCD\test\Pain Drain\libraries\lvgl\src\core/lv_obj_tree.c ****         lv_obj_scrollbar_invalidate(par);
  71:..\..\..\arduinoLCD\test\Pain Drain\libraries\lvgl\src\core/lv_obj_tree.c ****         lv_event_send(par, LV_EVENT_CHILD_CHANGED, NULL);
  72:..\..\..\arduinoLCD\test\Pain Drain\libraries\lvgl\src\core/lv_obj_tree.c ****         lv_event_send(par, LV_EVENT_CHILD_DELETED, NULL);
  73:..\..\..\arduinoLCD\test\Pain Drain\libraries\lvgl\src\core/lv_obj_tree.c ****     }
  74:..\..\..\arduinoLCD\test\Pain Drain\libraries\lvgl\src\core/lv_obj_tree.c **** 
  75:..\..\..\arduinoLCD\test\Pain Drain\libraries\lvgl\src\core/lv_obj_tree.c ****     /*Handle if the active screen was deleted*/
  76:..\..\..\arduinoLCD\test\Pain Drain\libraries\lvgl\src\core/lv_obj_tree.c ****     if(act_scr_del) {
  77:..\..\..\arduinoLCD\test\Pain Drain\libraries\lvgl\src\core/lv_obj_tree.c ****         LV_LOG_WARN("the active screen was deleted");
  78:..\..\..\arduinoLCD\test\Pain Drain\libraries\lvgl\src\core/lv_obj_tree.c ****         disp->act_scr = NULL;
  79:..\..\..\arduinoLCD\test\Pain Drain\libraries\lvgl\src\core/lv_obj_tree.c ****     }
  80:..\..\..\arduinoLCD\test\Pain Drain\libraries\lvgl\src\core/lv_obj_tree.c **** 
  81:..\..\..\arduinoLCD\test\Pain Drain\libraries\lvgl\src\core/lv_obj_tree.c ****     LV_ASSERT_MEM_INTEGRITY();
  82:..\..\..\arduinoLCD\test\Pain Drain\libraries\lvgl\src\core/lv_obj_tree.c ****     LV_LOG_TRACE("finished (delete %p)", (void *)obj);
  83:..\..\..\arduinoLCD\test\Pain Drain\libraries\lvgl\src\core/lv_obj_tree.c **** }
  84:..\..\..\arduinoLCD\test\Pain Drain\libraries\lvgl\src\core/lv_obj_tree.c **** 
  85:..\..\..\arduinoLCD\test\Pain Drain\libraries\lvgl\src\core/lv_obj_tree.c **** void lv_obj_clean(lv_obj_t * obj)
  86:..\..\..\arduinoLCD\test\Pain Drain\libraries\lvgl\src\core/lv_obj_tree.c **** {
  87:..\..\..\arduinoLCD\test\Pain Drain\libraries\lvgl\src\core/lv_obj_tree.c ****     LV_LOG_TRACE("begin (delete %p)", (void *)obj);
ARM GAS  C:\Users\haske\AppData\Local\Temp\ccU9uRZG.s 			page 3


  88:..\..\..\arduinoLCD\test\Pain Drain\libraries\lvgl\src\core/lv_obj_tree.c ****     LV_ASSERT_OBJ(obj, MY_CLASS);
  89:..\..\..\arduinoLCD\test\Pain Drain\libraries\lvgl\src\core/lv_obj_tree.c **** 
  90:..\..\..\arduinoLCD\test\Pain Drain\libraries\lvgl\src\core/lv_obj_tree.c ****     lv_obj_invalidate(obj);
  91:..\..\..\arduinoLCD\test\Pain Drain\libraries\lvgl\src\core/lv_obj_tree.c **** 
  92:..\..\..\arduinoLCD\test\Pain Drain\libraries\lvgl\src\core/lv_obj_tree.c ****     lv_obj_t * child = lv_obj_get_child(obj, 0);
  93:..\..\..\arduinoLCD\test\Pain Drain\libraries\lvgl\src\core/lv_obj_tree.c ****     while(child) {
  94:..\..\..\arduinoLCD\test\Pain Drain\libraries\lvgl\src\core/lv_obj_tree.c ****         obj_del_core(child);
  95:..\..\..\arduinoLCD\test\Pain Drain\libraries\lvgl\src\core/lv_obj_tree.c ****         child = lv_obj_get_child(obj, 0);
  96:..\..\..\arduinoLCD\test\Pain Drain\libraries\lvgl\src\core/lv_obj_tree.c ****     }
  97:..\..\..\arduinoLCD\test\Pain Drain\libraries\lvgl\src\core/lv_obj_tree.c ****     /*Just to remove scroll animations if any*/
  98:..\..\..\arduinoLCD\test\Pain Drain\libraries\lvgl\src\core/lv_obj_tree.c ****     lv_obj_scroll_to(obj, 0, 0, LV_ANIM_OFF);
  99:..\..\..\arduinoLCD\test\Pain Drain\libraries\lvgl\src\core/lv_obj_tree.c ****     if(obj->spec_attr) {
 100:..\..\..\arduinoLCD\test\Pain Drain\libraries\lvgl\src\core/lv_obj_tree.c ****         obj->spec_attr->scroll.x = 0;
 101:..\..\..\arduinoLCD\test\Pain Drain\libraries\lvgl\src\core/lv_obj_tree.c ****         obj->spec_attr->scroll.y = 0;
 102:..\..\..\arduinoLCD\test\Pain Drain\libraries\lvgl\src\core/lv_obj_tree.c ****     }
 103:..\..\..\arduinoLCD\test\Pain Drain\libraries\lvgl\src\core/lv_obj_tree.c **** 
 104:..\..\..\arduinoLCD\test\Pain Drain\libraries\lvgl\src\core/lv_obj_tree.c ****     LV_ASSERT_MEM_INTEGRITY();
 105:..\..\..\arduinoLCD\test\Pain Drain\libraries\lvgl\src\core/lv_obj_tree.c **** 
 106:..\..\..\arduinoLCD\test\Pain Drain\libraries\lvgl\src\core/lv_obj_tree.c ****     LV_LOG_TRACE("finished (delete %p)", (void *)obj);
 107:..\..\..\arduinoLCD\test\Pain Drain\libraries\lvgl\src\core/lv_obj_tree.c **** }
 108:..\..\..\arduinoLCD\test\Pain Drain\libraries\lvgl\src\core/lv_obj_tree.c **** 
 109:..\..\..\arduinoLCD\test\Pain Drain\libraries\lvgl\src\core/lv_obj_tree.c **** void lv_obj_del_delayed(lv_obj_t * obj, uint32_t delay_ms)
 110:..\..\..\arduinoLCD\test\Pain Drain\libraries\lvgl\src\core/lv_obj_tree.c **** {
  28              		.loc 1 110 0
  29              		.cfi_startproc
  30              		@ args = 0, pretend = 0, frame = 72
  31              		@ frame_needed = 0, uses_anonymous_args = 0
  32              	.LVL0:
  33 0000 30B5     		push	{r4, r5, lr}
  34              		.cfi_def_cfa_offset 12
  35              		.cfi_offset 4, -12
  36              		.cfi_offset 5, -8
  37              		.cfi_offset 14, -4
  38 0002 93B0     		sub	sp, sp, #76
  39              		.cfi_def_cfa_offset 88
  40 0004 0500     		movs	r5, r0
  41 0006 0C00     		movs	r4, r1
 111:..\..\..\arduinoLCD\test\Pain Drain\libraries\lvgl\src\core/lv_obj_tree.c ****     lv_anim_t a;
 112:..\..\..\arduinoLCD\test\Pain Drain\libraries\lvgl\src\core/lv_obj_tree.c ****     lv_anim_init(&a);
  42              		.loc 1 112 0
  43 0008 01A8     		add	r0, sp, #4
  44              	.LVL1:
  45 000a FFF7FEFF 		bl	lv_anim_init
  46              	.LVL2:
  47              	.LBB12:
  48              	.LBB13:
  49              		.file 2 "..\\..\\..\\arduinoLCD\\test\\Pain Drain\\libraries\\lvgl\\src\\core\\../misc/lv_anim.h"
   1:..\..\..\arduinoLCD\test\Pain Drain\libraries\lvgl\src\core\../misc/lv_anim.h **** /**
   2:..\..\..\arduinoLCD\test\Pain Drain\libraries\lvgl\src\core\../misc/lv_anim.h ****  * @file lv_anim.h
   3:..\..\..\arduinoLCD\test\Pain Drain\libraries\lvgl\src\core\../misc/lv_anim.h ****  *
   4:..\..\..\arduinoLCD\test\Pain Drain\libraries\lvgl\src\core\../misc/lv_anim.h ****  */
   5:..\..\..\arduinoLCD\test\Pain Drain\libraries\lvgl\src\core\../misc/lv_anim.h **** 
   6:..\..\..\arduinoLCD\test\Pain Drain\libraries\lvgl\src\core\../misc/lv_anim.h **** #ifndef LV_ANIM_H
   7:..\..\..\arduinoLCD\test\Pain Drain\libraries\lvgl\src\core\../misc/lv_anim.h **** #define LV_ANIM_H
   8:..\..\..\arduinoLCD\test\Pain Drain\libraries\lvgl\src\core\../misc/lv_anim.h **** 
   9:..\..\..\arduinoLCD\test\Pain Drain\libraries\lvgl\src\core\../misc/lv_anim.h **** #ifdef __cplusplus
  10:..\..\..\arduinoLCD\test\Pain Drain\libraries\lvgl\src\core\../misc/lv_anim.h **** extern "C" {
ARM GAS  C:\Users\haske\AppData\Local\Temp\ccU9uRZG.s 			page 4


  11:..\..\..\arduinoLCD\test\Pain Drain\libraries\lvgl\src\core\../misc/lv_anim.h **** #endif
  12:..\..\..\arduinoLCD\test\Pain Drain\libraries\lvgl\src\core\../misc/lv_anim.h **** 
  13:..\..\..\arduinoLCD\test\Pain Drain\libraries\lvgl\src\core\../misc/lv_anim.h **** /*********************
  14:..\..\..\arduinoLCD\test\Pain Drain\libraries\lvgl\src\core\../misc/lv_anim.h ****  *      INCLUDES
  15:..\..\..\arduinoLCD\test\Pain Drain\libraries\lvgl\src\core\../misc/lv_anim.h ****  *********************/
  16:..\..\..\arduinoLCD\test\Pain Drain\libraries\lvgl\src\core\../misc/lv_anim.h **** #include "../lv_conf_internal.h"
  17:..\..\..\arduinoLCD\test\Pain Drain\libraries\lvgl\src\core\../misc/lv_anim.h **** 
  18:..\..\..\arduinoLCD\test\Pain Drain\libraries\lvgl\src\core\../misc/lv_anim.h **** #include <stdint.h>
  19:..\..\..\arduinoLCD\test\Pain Drain\libraries\lvgl\src\core\../misc/lv_anim.h **** #include <stdbool.h>
  20:..\..\..\arduinoLCD\test\Pain Drain\libraries\lvgl\src\core\../misc/lv_anim.h **** #include <stddef.h>
  21:..\..\..\arduinoLCD\test\Pain Drain\libraries\lvgl\src\core\../misc/lv_anim.h **** 
  22:..\..\..\arduinoLCD\test\Pain Drain\libraries\lvgl\src\core\../misc/lv_anim.h **** /*********************
  23:..\..\..\arduinoLCD\test\Pain Drain\libraries\lvgl\src\core\../misc/lv_anim.h ****  *      DEFINES
  24:..\..\..\arduinoLCD\test\Pain Drain\libraries\lvgl\src\core\../misc/lv_anim.h ****  *********************/
  25:..\..\..\arduinoLCD\test\Pain Drain\libraries\lvgl\src\core\../misc/lv_anim.h **** 
  26:..\..\..\arduinoLCD\test\Pain Drain\libraries\lvgl\src\core\../misc/lv_anim.h **** #define LV_ANIM_REPEAT_INFINITE      0xFFFF
  27:..\..\..\arduinoLCD\test\Pain Drain\libraries\lvgl\src\core\../misc/lv_anim.h **** #define LV_ANIM_PLAYTIME_INFINITE    0xFFFFFFFF
  28:..\..\..\arduinoLCD\test\Pain Drain\libraries\lvgl\src\core\../misc/lv_anim.h **** 
  29:..\..\..\arduinoLCD\test\Pain Drain\libraries\lvgl\src\core\../misc/lv_anim.h **** LV_EXPORT_CONST_INT(LV_ANIM_REPEAT_INFINITE);
  30:..\..\..\arduinoLCD\test\Pain Drain\libraries\lvgl\src\core\../misc/lv_anim.h **** LV_EXPORT_CONST_INT(LV_ANIM_PLAYTIME_INFINITE);
  31:..\..\..\arduinoLCD\test\Pain Drain\libraries\lvgl\src\core\../misc/lv_anim.h **** 
  32:..\..\..\arduinoLCD\test\Pain Drain\libraries\lvgl\src\core\../misc/lv_anim.h **** /**********************
  33:..\..\..\arduinoLCD\test\Pain Drain\libraries\lvgl\src\core\../misc/lv_anim.h ****  *      TYPEDEFS
  34:..\..\..\arduinoLCD\test\Pain Drain\libraries\lvgl\src\core\../misc/lv_anim.h ****  **********************/
  35:..\..\..\arduinoLCD\test\Pain Drain\libraries\lvgl\src\core\../misc/lv_anim.h **** 
  36:..\..\..\arduinoLCD\test\Pain Drain\libraries\lvgl\src\core\../misc/lv_anim.h **** /** Can be used to indicate if animations are enabled or disabled in a case*/
  37:..\..\..\arduinoLCD\test\Pain Drain\libraries\lvgl\src\core\../misc/lv_anim.h **** typedef enum {
  38:..\..\..\arduinoLCD\test\Pain Drain\libraries\lvgl\src\core\../misc/lv_anim.h ****     LV_ANIM_OFF,
  39:..\..\..\arduinoLCD\test\Pain Drain\libraries\lvgl\src\core\../misc/lv_anim.h ****     LV_ANIM_ON,
  40:..\..\..\arduinoLCD\test\Pain Drain\libraries\lvgl\src\core\../misc/lv_anim.h **** } lv_anim_enable_t;
  41:..\..\..\arduinoLCD\test\Pain Drain\libraries\lvgl\src\core\../misc/lv_anim.h **** 
  42:..\..\..\arduinoLCD\test\Pain Drain\libraries\lvgl\src\core\../misc/lv_anim.h **** struct _lv_anim_t;
  43:..\..\..\arduinoLCD\test\Pain Drain\libraries\lvgl\src\core\../misc/lv_anim.h **** struct _lv_timer_t;
  44:..\..\..\arduinoLCD\test\Pain Drain\libraries\lvgl\src\core\../misc/lv_anim.h **** 
  45:..\..\..\arduinoLCD\test\Pain Drain\libraries\lvgl\src\core\../misc/lv_anim.h **** /** Get the current value during an animation*/
  46:..\..\..\arduinoLCD\test\Pain Drain\libraries\lvgl\src\core\../misc/lv_anim.h **** typedef int32_t (*lv_anim_path_cb_t)(const struct _lv_anim_t *);
  47:..\..\..\arduinoLCD\test\Pain Drain\libraries\lvgl\src\core\../misc/lv_anim.h **** 
  48:..\..\..\arduinoLCD\test\Pain Drain\libraries\lvgl\src\core\../misc/lv_anim.h **** /** Generic prototype of "animator" functions.
  49:..\..\..\arduinoLCD\test\Pain Drain\libraries\lvgl\src\core\../misc/lv_anim.h ****  * First parameter is the variable to animate.
  50:..\..\..\arduinoLCD\test\Pain Drain\libraries\lvgl\src\core\../misc/lv_anim.h ****  * Second parameter is the value to set.
  51:..\..\..\arduinoLCD\test\Pain Drain\libraries\lvgl\src\core\../misc/lv_anim.h ****  * Compatible with `lv_xxx_set_yyy(obj, value)` functions
  52:..\..\..\arduinoLCD\test\Pain Drain\libraries\lvgl\src\core\../misc/lv_anim.h ****  * The `x` in `_xcb_t` means it's not a fully generic prototype because
  53:..\..\..\arduinoLCD\test\Pain Drain\libraries\lvgl\src\core\../misc/lv_anim.h ****  * it doesn't receive `lv_anim_t *` as its first argument*/
  54:..\..\..\arduinoLCD\test\Pain Drain\libraries\lvgl\src\core\../misc/lv_anim.h **** typedef void (*lv_anim_exec_xcb_t)(void *, int32_t);
  55:..\..\..\arduinoLCD\test\Pain Drain\libraries\lvgl\src\core\../misc/lv_anim.h **** 
  56:..\..\..\arduinoLCD\test\Pain Drain\libraries\lvgl\src\core\../misc/lv_anim.h **** /** Same as `lv_anim_exec_xcb_t` but receives `lv_anim_t *` as the first parameter.
  57:..\..\..\arduinoLCD\test\Pain Drain\libraries\lvgl\src\core\../misc/lv_anim.h ****  * It's more consistent but less convenient. Might be used by binding generator functions.*/
  58:..\..\..\arduinoLCD\test\Pain Drain\libraries\lvgl\src\core\../misc/lv_anim.h **** typedef void (*lv_anim_custom_exec_cb_t)(struct _lv_anim_t *, int32_t);
  59:..\..\..\arduinoLCD\test\Pain Drain\libraries\lvgl\src\core\../misc/lv_anim.h **** 
  60:..\..\..\arduinoLCD\test\Pain Drain\libraries\lvgl\src\core\../misc/lv_anim.h **** /** Callback to call when the animation is ready*/
  61:..\..\..\arduinoLCD\test\Pain Drain\libraries\lvgl\src\core\../misc/lv_anim.h **** typedef void (*lv_anim_ready_cb_t)(struct _lv_anim_t *);
  62:..\..\..\arduinoLCD\test\Pain Drain\libraries\lvgl\src\core\../misc/lv_anim.h **** 
  63:..\..\..\arduinoLCD\test\Pain Drain\libraries\lvgl\src\core\../misc/lv_anim.h **** /** Callback to call when the animation really stars (considering `delay`)*/
  64:..\..\..\arduinoLCD\test\Pain Drain\libraries\lvgl\src\core\../misc/lv_anim.h **** typedef void (*lv_anim_start_cb_t)(struct _lv_anim_t *);
  65:..\..\..\arduinoLCD\test\Pain Drain\libraries\lvgl\src\core\../misc/lv_anim.h **** 
  66:..\..\..\arduinoLCD\test\Pain Drain\libraries\lvgl\src\core\../misc/lv_anim.h **** /** Callback used when the animation values are relative to get the current value*/
  67:..\..\..\arduinoLCD\test\Pain Drain\libraries\lvgl\src\core\../misc/lv_anim.h **** typedef int32_t (*lv_anim_get_value_cb_t)(struct _lv_anim_t *);
ARM GAS  C:\Users\haske\AppData\Local\Temp\ccU9uRZG.s 			page 5


  68:..\..\..\arduinoLCD\test\Pain Drain\libraries\lvgl\src\core\../misc/lv_anim.h **** 
  69:..\..\..\arduinoLCD\test\Pain Drain\libraries\lvgl\src\core\../misc/lv_anim.h **** /** Callback used when the animation is deleted*/
  70:..\..\..\arduinoLCD\test\Pain Drain\libraries\lvgl\src\core\../misc/lv_anim.h **** typedef void (*lv_anim_deleted_cb_t)(struct _lv_anim_t *);
  71:..\..\..\arduinoLCD\test\Pain Drain\libraries\lvgl\src\core\../misc/lv_anim.h **** 
  72:..\..\..\arduinoLCD\test\Pain Drain\libraries\lvgl\src\core\../misc/lv_anim.h **** /** Describes an animation*/
  73:..\..\..\arduinoLCD\test\Pain Drain\libraries\lvgl\src\core\../misc/lv_anim.h **** typedef struct _lv_anim_t {
  74:..\..\..\arduinoLCD\test\Pain Drain\libraries\lvgl\src\core\../misc/lv_anim.h ****     void * var;                          /**<Variable to animate*/
  75:..\..\..\arduinoLCD\test\Pain Drain\libraries\lvgl\src\core\../misc/lv_anim.h ****     lv_anim_exec_xcb_t exec_cb;          /**< Function to execute to animate*/
  76:..\..\..\arduinoLCD\test\Pain Drain\libraries\lvgl\src\core\../misc/lv_anim.h ****     lv_anim_start_cb_t start_cb;         /**< Call it when the animation is starts (considering `de
  77:..\..\..\arduinoLCD\test\Pain Drain\libraries\lvgl\src\core\../misc/lv_anim.h ****     lv_anim_ready_cb_t ready_cb;         /**< Call it when the animation is ready*/
  78:..\..\..\arduinoLCD\test\Pain Drain\libraries\lvgl\src\core\../misc/lv_anim.h ****     lv_anim_deleted_cb_t deleted_cb;     /**< Call it when the animation is deleted*/
  79:..\..\..\arduinoLCD\test\Pain Drain\libraries\lvgl\src\core\../misc/lv_anim.h ****     lv_anim_get_value_cb_t get_value_cb; /**< Get the current value in relative mode*/
  80:..\..\..\arduinoLCD\test\Pain Drain\libraries\lvgl\src\core\../misc/lv_anim.h **** #if LV_USE_USER_DATA
  81:..\..\..\arduinoLCD\test\Pain Drain\libraries\lvgl\src\core\../misc/lv_anim.h ****     void * user_data; /**< Custom user data*/
  82:..\..\..\arduinoLCD\test\Pain Drain\libraries\lvgl\src\core\../misc/lv_anim.h **** #endif
  83:..\..\..\arduinoLCD\test\Pain Drain\libraries\lvgl\src\core\../misc/lv_anim.h ****     lv_anim_path_cb_t path_cb;         /**< Describe the path (curve) of animations*/
  84:..\..\..\arduinoLCD\test\Pain Drain\libraries\lvgl\src\core\../misc/lv_anim.h ****     int32_t start_value;               /**< Start value*/
  85:..\..\..\arduinoLCD\test\Pain Drain\libraries\lvgl\src\core\../misc/lv_anim.h ****     int32_t current_value;             /**< Current value*/
  86:..\..\..\arduinoLCD\test\Pain Drain\libraries\lvgl\src\core\../misc/lv_anim.h ****     int32_t end_value;                 /**< End value*/
  87:..\..\..\arduinoLCD\test\Pain Drain\libraries\lvgl\src\core\../misc/lv_anim.h ****     int32_t time;                /**< Animation time in ms*/
  88:..\..\..\arduinoLCD\test\Pain Drain\libraries\lvgl\src\core\../misc/lv_anim.h ****     int32_t act_time;            /**< Current time in animation. Set to negative to make delay.*/
  89:..\..\..\arduinoLCD\test\Pain Drain\libraries\lvgl\src\core\../misc/lv_anim.h ****     uint32_t playback_delay;     /**< Wait before play back*/
  90:..\..\..\arduinoLCD\test\Pain Drain\libraries\lvgl\src\core\../misc/lv_anim.h ****     uint32_t playback_time;      /**< Duration of playback animation*/
  91:..\..\..\arduinoLCD\test\Pain Drain\libraries\lvgl\src\core\../misc/lv_anim.h ****     uint32_t repeat_delay;       /**< Wait before repeat*/
  92:..\..\..\arduinoLCD\test\Pain Drain\libraries\lvgl\src\core\../misc/lv_anim.h ****     uint16_t repeat_cnt;         /**< Repeat count for the animation*/
  93:..\..\..\arduinoLCD\test\Pain Drain\libraries\lvgl\src\core\../misc/lv_anim.h ****     uint8_t early_apply  : 1;    /**< 1: Apply start value immediately even is there is `delay`*/
  94:..\..\..\arduinoLCD\test\Pain Drain\libraries\lvgl\src\core\../misc/lv_anim.h **** 
  95:..\..\..\arduinoLCD\test\Pain Drain\libraries\lvgl\src\core\../misc/lv_anim.h ****     /*Animation system use these - user shouldn't set*/
  96:..\..\..\arduinoLCD\test\Pain Drain\libraries\lvgl\src\core\../misc/lv_anim.h ****     uint8_t playback_now : 1; /**< Play back is in progress*/
  97:..\..\..\arduinoLCD\test\Pain Drain\libraries\lvgl\src\core\../misc/lv_anim.h ****     uint8_t run_round : 1;    /**< Indicates the animation has run in this round*/
  98:..\..\..\arduinoLCD\test\Pain Drain\libraries\lvgl\src\core\../misc/lv_anim.h ****     uint8_t start_cb_called : 1;    /**< Indicates that the `start_cb` was already called*/
  99:..\..\..\arduinoLCD\test\Pain Drain\libraries\lvgl\src\core\../misc/lv_anim.h **** } lv_anim_t;
 100:..\..\..\arduinoLCD\test\Pain Drain\libraries\lvgl\src\core\../misc/lv_anim.h **** 
 101:..\..\..\arduinoLCD\test\Pain Drain\libraries\lvgl\src\core\../misc/lv_anim.h **** /**********************
 102:..\..\..\arduinoLCD\test\Pain Drain\libraries\lvgl\src\core\../misc/lv_anim.h ****  * GLOBAL PROTOTYPES
 103:..\..\..\arduinoLCD\test\Pain Drain\libraries\lvgl\src\core\../misc/lv_anim.h ****  **********************/
 104:..\..\..\arduinoLCD\test\Pain Drain\libraries\lvgl\src\core\../misc/lv_anim.h **** 
 105:..\..\..\arduinoLCD\test\Pain Drain\libraries\lvgl\src\core\../misc/lv_anim.h **** /**
 106:..\..\..\arduinoLCD\test\Pain Drain\libraries\lvgl\src\core\../misc/lv_anim.h ****  * Init. the animation module
 107:..\..\..\arduinoLCD\test\Pain Drain\libraries\lvgl\src\core\../misc/lv_anim.h ****  */
 108:..\..\..\arduinoLCD\test\Pain Drain\libraries\lvgl\src\core\../misc/lv_anim.h **** void _lv_anim_core_init(void);
 109:..\..\..\arduinoLCD\test\Pain Drain\libraries\lvgl\src\core\../misc/lv_anim.h **** 
 110:..\..\..\arduinoLCD\test\Pain Drain\libraries\lvgl\src\core\../misc/lv_anim.h **** /**
 111:..\..\..\arduinoLCD\test\Pain Drain\libraries\lvgl\src\core\../misc/lv_anim.h ****  * Initialize an animation variable.
 112:..\..\..\arduinoLCD\test\Pain Drain\libraries\lvgl\src\core\../misc/lv_anim.h ****  * E.g.:
 113:..\..\..\arduinoLCD\test\Pain Drain\libraries\lvgl\src\core\../misc/lv_anim.h ****  * lv_anim_t a;
 114:..\..\..\arduinoLCD\test\Pain Drain\libraries\lvgl\src\core\../misc/lv_anim.h ****  * lv_anim_init(&a);
 115:..\..\..\arduinoLCD\test\Pain Drain\libraries\lvgl\src\core\../misc/lv_anim.h ****  * lv_anim_set_...(&a);
 116:..\..\..\arduinoLCD\test\Pain Drain\libraries\lvgl\src\core\../misc/lv_anim.h ****  * lv_anim_start(&a);
 117:..\..\..\arduinoLCD\test\Pain Drain\libraries\lvgl\src\core\../misc/lv_anim.h ****  * @param a     pointer to an `lv_anim_t` variable to initialize
 118:..\..\..\arduinoLCD\test\Pain Drain\libraries\lvgl\src\core\../misc/lv_anim.h ****  */
 119:..\..\..\arduinoLCD\test\Pain Drain\libraries\lvgl\src\core\../misc/lv_anim.h **** void lv_anim_init(lv_anim_t * a);
 120:..\..\..\arduinoLCD\test\Pain Drain\libraries\lvgl\src\core\../misc/lv_anim.h **** 
 121:..\..\..\arduinoLCD\test\Pain Drain\libraries\lvgl\src\core\../misc/lv_anim.h **** /**
 122:..\..\..\arduinoLCD\test\Pain Drain\libraries\lvgl\src\core\../misc/lv_anim.h ****  * Set a variable to animate
 123:..\..\..\arduinoLCD\test\Pain Drain\libraries\lvgl\src\core\../misc/lv_anim.h ****  * @param a     pointer to an initialized `lv_anim_t` variable
 124:..\..\..\arduinoLCD\test\Pain Drain\libraries\lvgl\src\core\../misc/lv_anim.h ****  * @param var   pointer to a variable to animate
ARM GAS  C:\Users\haske\AppData\Local\Temp\ccU9uRZG.s 			page 6


 125:..\..\..\arduinoLCD\test\Pain Drain\libraries\lvgl\src\core\../misc/lv_anim.h ****  */
 126:..\..\..\arduinoLCD\test\Pain Drain\libraries\lvgl\src\core\../misc/lv_anim.h **** static inline void lv_anim_set_var(lv_anim_t * a, void * var)
 127:..\..\..\arduinoLCD\test\Pain Drain\libraries\lvgl\src\core\../misc/lv_anim.h **** {
 128:..\..\..\arduinoLCD\test\Pain Drain\libraries\lvgl\src\core\../misc/lv_anim.h ****     a->var = var;
  50              		.loc 2 128 0
  51 000e 0195     		str	r5, [sp, #4]
  52              	.LVL3:
  53              	.LBE13:
  54              	.LBE12:
  55              	.LBB14:
  56              	.LBB15:
 129:..\..\..\arduinoLCD\test\Pain Drain\libraries\lvgl\src\core\../misc/lv_anim.h **** }
 130:..\..\..\arduinoLCD\test\Pain Drain\libraries\lvgl\src\core\../misc/lv_anim.h **** 
 131:..\..\..\arduinoLCD\test\Pain Drain\libraries\lvgl\src\core\../misc/lv_anim.h **** /**
 132:..\..\..\arduinoLCD\test\Pain Drain\libraries\lvgl\src\core\../misc/lv_anim.h ****  * Set a function to animate `var`
 133:..\..\..\arduinoLCD\test\Pain Drain\libraries\lvgl\src\core\../misc/lv_anim.h ****  * @param a         pointer to an initialized `lv_anim_t` variable
 134:..\..\..\arduinoLCD\test\Pain Drain\libraries\lvgl\src\core\../misc/lv_anim.h ****  * @param exec_cb   a function to execute during animation
 135:..\..\..\arduinoLCD\test\Pain Drain\libraries\lvgl\src\core\../misc/lv_anim.h ****  *                  LVGL's built-in functions can be used.
 136:..\..\..\arduinoLCD\test\Pain Drain\libraries\lvgl\src\core\../misc/lv_anim.h ****  *                  E.g. lv_obj_set_x
 137:..\..\..\arduinoLCD\test\Pain Drain\libraries\lvgl\src\core\../misc/lv_anim.h ****  */
 138:..\..\..\arduinoLCD\test\Pain Drain\libraries\lvgl\src\core\../misc/lv_anim.h **** static inline void lv_anim_set_exec_cb(lv_anim_t * a, lv_anim_exec_xcb_t exec_cb)
 139:..\..\..\arduinoLCD\test\Pain Drain\libraries\lvgl\src\core\../misc/lv_anim.h **** {
 140:..\..\..\arduinoLCD\test\Pain Drain\libraries\lvgl\src\core\../misc/lv_anim.h ****     a->exec_cb = exec_cb;
  57              		.loc 2 140 0
  58 0010 0023     		movs	r3, #0
  59 0012 0293     		str	r3, [sp, #8]
  60              	.LVL4:
  61              	.LBE15:
  62              	.LBE14:
  63              	.LBB16:
  64              	.LBB17:
 141:..\..\..\arduinoLCD\test\Pain Drain\libraries\lvgl\src\core\../misc/lv_anim.h **** }
 142:..\..\..\arduinoLCD\test\Pain Drain\libraries\lvgl\src\core\../misc/lv_anim.h **** 
 143:..\..\..\arduinoLCD\test\Pain Drain\libraries\lvgl\src\core\../misc/lv_anim.h **** /**
 144:..\..\..\arduinoLCD\test\Pain Drain\libraries\lvgl\src\core\../misc/lv_anim.h ****  * Set the duration of an animation
 145:..\..\..\arduinoLCD\test\Pain Drain\libraries\lvgl\src\core\../misc/lv_anim.h ****  * @param a         pointer to an initialized `lv_anim_t` variable
 146:..\..\..\arduinoLCD\test\Pain Drain\libraries\lvgl\src\core\../misc/lv_anim.h ****  * @param duration  duration of the animation in milliseconds
 147:..\..\..\arduinoLCD\test\Pain Drain\libraries\lvgl\src\core\../misc/lv_anim.h ****  */
 148:..\..\..\arduinoLCD\test\Pain Drain\libraries\lvgl\src\core\../misc/lv_anim.h **** static inline void lv_anim_set_time(lv_anim_t * a, uint32_t duration)
 149:..\..\..\arduinoLCD\test\Pain Drain\libraries\lvgl\src\core\../misc/lv_anim.h **** {
 150:..\..\..\arduinoLCD\test\Pain Drain\libraries\lvgl\src\core\../misc/lv_anim.h ****     a->time = duration;
  65              		.loc 2 150 0
  66 0014 0133     		adds	r3, r3, #1
  67 0016 0C93     		str	r3, [sp, #48]
  68              	.LVL5:
  69              	.LBE17:
  70              	.LBE16:
  71              	.LBB18:
  72              	.LBB19:
 151:..\..\..\arduinoLCD\test\Pain Drain\libraries\lvgl\src\core\../misc/lv_anim.h **** }
 152:..\..\..\arduinoLCD\test\Pain Drain\libraries\lvgl\src\core\../misc/lv_anim.h **** 
 153:..\..\..\arduinoLCD\test\Pain Drain\libraries\lvgl\src\core\../misc/lv_anim.h **** /**
 154:..\..\..\arduinoLCD\test\Pain Drain\libraries\lvgl\src\core\../misc/lv_anim.h ****  * Set a delay before starting the animation
 155:..\..\..\arduinoLCD\test\Pain Drain\libraries\lvgl\src\core\../misc/lv_anim.h ****  * @param a         pointer to an initialized `lv_anim_t` variable
 156:..\..\..\arduinoLCD\test\Pain Drain\libraries\lvgl\src\core\../misc/lv_anim.h ****  * @param delay     delay before the animation in milliseconds
 157:..\..\..\arduinoLCD\test\Pain Drain\libraries\lvgl\src\core\../misc/lv_anim.h ****  */
 158:..\..\..\arduinoLCD\test\Pain Drain\libraries\lvgl\src\core\../misc/lv_anim.h **** static inline void lv_anim_set_delay(lv_anim_t * a, uint32_t delay)
ARM GAS  C:\Users\haske\AppData\Local\Temp\ccU9uRZG.s 			page 7


 159:..\..\..\arduinoLCD\test\Pain Drain\libraries\lvgl\src\core\../misc/lv_anim.h **** {
 160:..\..\..\arduinoLCD\test\Pain Drain\libraries\lvgl\src\core\../misc/lv_anim.h ****     a->act_time = -(int32_t)(delay);
  73              		.loc 2 160 0
  74 0018 6442     		rsbs	r4, r4, #0
  75              	.LVL6:
  76 001a 0D94     		str	r4, [sp, #52]
  77              	.LVL7:
  78              	.LBE19:
  79              	.LBE18:
  80              	.LBB20:
  81              	.LBB21:
 161:..\..\..\arduinoLCD\test\Pain Drain\libraries\lvgl\src\core\../misc/lv_anim.h **** }
 162:..\..\..\arduinoLCD\test\Pain Drain\libraries\lvgl\src\core\../misc/lv_anim.h **** 
 163:..\..\..\arduinoLCD\test\Pain Drain\libraries\lvgl\src\core\../misc/lv_anim.h **** /**
 164:..\..\..\arduinoLCD\test\Pain Drain\libraries\lvgl\src\core\../misc/lv_anim.h ****  * Set the start and end values of an animation
 165:..\..\..\arduinoLCD\test\Pain Drain\libraries\lvgl\src\core\../misc/lv_anim.h ****  * @param a         pointer to an initialized `lv_anim_t` variable
 166:..\..\..\arduinoLCD\test\Pain Drain\libraries\lvgl\src\core\../misc/lv_anim.h ****  * @param start     the start value
 167:..\..\..\arduinoLCD\test\Pain Drain\libraries\lvgl\src\core\../misc/lv_anim.h ****  * @param end       the end value
 168:..\..\..\arduinoLCD\test\Pain Drain\libraries\lvgl\src\core\../misc/lv_anim.h ****  */
 169:..\..\..\arduinoLCD\test\Pain Drain\libraries\lvgl\src\core\../misc/lv_anim.h **** static inline void lv_anim_set_values(lv_anim_t * a, int32_t start, int32_t end)
 170:..\..\..\arduinoLCD\test\Pain Drain\libraries\lvgl\src\core\../misc/lv_anim.h **** {
 171:..\..\..\arduinoLCD\test\Pain Drain\libraries\lvgl\src\core\../misc/lv_anim.h ****     a->start_value = start;
 172:..\..\..\arduinoLCD\test\Pain Drain\libraries\lvgl\src\core\../misc/lv_anim.h ****     a->current_value = start;
 173:..\..\..\arduinoLCD\test\Pain Drain\libraries\lvgl\src\core\../misc/lv_anim.h ****     a->end_value = end;
 174:..\..\..\arduinoLCD\test\Pain Drain\libraries\lvgl\src\core\../misc/lv_anim.h **** }
 175:..\..\..\arduinoLCD\test\Pain Drain\libraries\lvgl\src\core\../misc/lv_anim.h **** 
 176:..\..\..\arduinoLCD\test\Pain Drain\libraries\lvgl\src\core\../misc/lv_anim.h **** /**
 177:..\..\..\arduinoLCD\test\Pain Drain\libraries\lvgl\src\core\../misc/lv_anim.h ****  * Similar to `lv_anim_set_exec_cb` but `lv_anim_custom_exec_cb_t` receives
 178:..\..\..\arduinoLCD\test\Pain Drain\libraries\lvgl\src\core\../misc/lv_anim.h ****  * `lv_anim_t * ` as its first parameter instead of `void *`.
 179:..\..\..\arduinoLCD\test\Pain Drain\libraries\lvgl\src\core\../misc/lv_anim.h ****  * This function might be used when LVGL is bound to other languages because
 180:..\..\..\arduinoLCD\test\Pain Drain\libraries\lvgl\src\core\../misc/lv_anim.h ****  * it's more consistent to have `lv_anim_t *` as first parameter.
 181:..\..\..\arduinoLCD\test\Pain Drain\libraries\lvgl\src\core\../misc/lv_anim.h ****  * The variable to animate can be stored in the animation's `user_data`
 182:..\..\..\arduinoLCD\test\Pain Drain\libraries\lvgl\src\core\../misc/lv_anim.h ****  * @param a         pointer to an initialized `lv_anim_t` variable
 183:..\..\..\arduinoLCD\test\Pain Drain\libraries\lvgl\src\core\../misc/lv_anim.h ****  * @param exec_cb   a function to execute.
 184:..\..\..\arduinoLCD\test\Pain Drain\libraries\lvgl\src\core\../misc/lv_anim.h ****  */
 185:..\..\..\arduinoLCD\test\Pain Drain\libraries\lvgl\src\core\../misc/lv_anim.h **** static inline void lv_anim_set_custom_exec_cb(lv_anim_t * a, lv_anim_custom_exec_cb_t exec_cb)
 186:..\..\..\arduinoLCD\test\Pain Drain\libraries\lvgl\src\core\../misc/lv_anim.h **** {
 187:..\..\..\arduinoLCD\test\Pain Drain\libraries\lvgl\src\core\../misc/lv_anim.h ****     a->var     = a;
 188:..\..\..\arduinoLCD\test\Pain Drain\libraries\lvgl\src\core\../misc/lv_anim.h ****     a->exec_cb = (lv_anim_exec_xcb_t)exec_cb;
 189:..\..\..\arduinoLCD\test\Pain Drain\libraries\lvgl\src\core\../misc/lv_anim.h **** }
 190:..\..\..\arduinoLCD\test\Pain Drain\libraries\lvgl\src\core\../misc/lv_anim.h **** 
 191:..\..\..\arduinoLCD\test\Pain Drain\libraries\lvgl\src\core\../misc/lv_anim.h **** /**
 192:..\..\..\arduinoLCD\test\Pain Drain\libraries\lvgl\src\core\../misc/lv_anim.h ****  * Set the path (curve) of the animation.
 193:..\..\..\arduinoLCD\test\Pain Drain\libraries\lvgl\src\core\../misc/lv_anim.h ****  * @param a         pointer to an initialized `lv_anim_t` variable
 194:..\..\..\arduinoLCD\test\Pain Drain\libraries\lvgl\src\core\../misc/lv_anim.h ****  * @param path_cb a function to set the current value of the animation.
 195:..\..\..\arduinoLCD\test\Pain Drain\libraries\lvgl\src\core\../misc/lv_anim.h ****  */
 196:..\..\..\arduinoLCD\test\Pain Drain\libraries\lvgl\src\core\../misc/lv_anim.h **** static inline void lv_anim_set_path_cb(lv_anim_t * a, lv_anim_path_cb_t path_cb)
 197:..\..\..\arduinoLCD\test\Pain Drain\libraries\lvgl\src\core\../misc/lv_anim.h **** {
 198:..\..\..\arduinoLCD\test\Pain Drain\libraries\lvgl\src\core\../misc/lv_anim.h ****     a->path_cb = path_cb;
 199:..\..\..\arduinoLCD\test\Pain Drain\libraries\lvgl\src\core\../misc/lv_anim.h **** }
 200:..\..\..\arduinoLCD\test\Pain Drain\libraries\lvgl\src\core\../misc/lv_anim.h **** 
 201:..\..\..\arduinoLCD\test\Pain Drain\libraries\lvgl\src\core\../misc/lv_anim.h **** /**
 202:..\..\..\arduinoLCD\test\Pain Drain\libraries\lvgl\src\core\../misc/lv_anim.h ****  * Set a function call when the animation really starts (considering `delay`)
 203:..\..\..\arduinoLCD\test\Pain Drain\libraries\lvgl\src\core\../misc/lv_anim.h ****  * @param a         pointer to an initialized `lv_anim_t` variable
 204:..\..\..\arduinoLCD\test\Pain Drain\libraries\lvgl\src\core\../misc/lv_anim.h ****  * @param start_cb  a function call when the animation starts
 205:..\..\..\arduinoLCD\test\Pain Drain\libraries\lvgl\src\core\../misc/lv_anim.h ****  */
 206:..\..\..\arduinoLCD\test\Pain Drain\libraries\lvgl\src\core\../misc/lv_anim.h **** static inline void lv_anim_set_start_cb(lv_anim_t * a, lv_anim_start_cb_t start_cb)
ARM GAS  C:\Users\haske\AppData\Local\Temp\ccU9uRZG.s 			page 8


 207:..\..\..\arduinoLCD\test\Pain Drain\libraries\lvgl\src\core\../misc/lv_anim.h **** {
 208:..\..\..\arduinoLCD\test\Pain Drain\libraries\lvgl\src\core\../misc/lv_anim.h ****     a->start_cb = start_cb;
 209:..\..\..\arduinoLCD\test\Pain Drain\libraries\lvgl\src\core\../misc/lv_anim.h **** }
 210:..\..\..\arduinoLCD\test\Pain Drain\libraries\lvgl\src\core\../misc/lv_anim.h **** 
 211:..\..\..\arduinoLCD\test\Pain Drain\libraries\lvgl\src\core\../misc/lv_anim.h **** /**
 212:..\..\..\arduinoLCD\test\Pain Drain\libraries\lvgl\src\core\../misc/lv_anim.h ****  * Set a function to use the current value of the variable and make start and end value
 213:..\..\..\arduinoLCD\test\Pain Drain\libraries\lvgl\src\core\../misc/lv_anim.h ****  * relative to the returned current value.
 214:..\..\..\arduinoLCD\test\Pain Drain\libraries\lvgl\src\core\../misc/lv_anim.h ****  * @param a             pointer to an initialized `lv_anim_t` variable
 215:..\..\..\arduinoLCD\test\Pain Drain\libraries\lvgl\src\core\../misc/lv_anim.h ****  * @param get_value_cb  a function call when the animation starts
 216:..\..\..\arduinoLCD\test\Pain Drain\libraries\lvgl\src\core\../misc/lv_anim.h ****  */
 217:..\..\..\arduinoLCD\test\Pain Drain\libraries\lvgl\src\core\../misc/lv_anim.h **** static inline void lv_anim_set_get_value_cb(lv_anim_t * a, lv_anim_get_value_cb_t get_value_cb)
 218:..\..\..\arduinoLCD\test\Pain Drain\libraries\lvgl\src\core\../misc/lv_anim.h **** {
 219:..\..\..\arduinoLCD\test\Pain Drain\libraries\lvgl\src\core\../misc/lv_anim.h ****     a->get_value_cb = get_value_cb;
 220:..\..\..\arduinoLCD\test\Pain Drain\libraries\lvgl\src\core\../misc/lv_anim.h **** }
 221:..\..\..\arduinoLCD\test\Pain Drain\libraries\lvgl\src\core\../misc/lv_anim.h **** 
 222:..\..\..\arduinoLCD\test\Pain Drain\libraries\lvgl\src\core\../misc/lv_anim.h **** /**
 223:..\..\..\arduinoLCD\test\Pain Drain\libraries\lvgl\src\core\../misc/lv_anim.h ****  * Set a function call when the animation is ready
 224:..\..\..\arduinoLCD\test\Pain Drain\libraries\lvgl\src\core\../misc/lv_anim.h ****  * @param a         pointer to an initialized `lv_anim_t` variable
 225:..\..\..\arduinoLCD\test\Pain Drain\libraries\lvgl\src\core\../misc/lv_anim.h ****  * @param ready_cb  a function call when the animation is ready
 226:..\..\..\arduinoLCD\test\Pain Drain\libraries\lvgl\src\core\../misc/lv_anim.h ****  */
 227:..\..\..\arduinoLCD\test\Pain Drain\libraries\lvgl\src\core\../misc/lv_anim.h **** static inline void lv_anim_set_ready_cb(lv_anim_t * a, lv_anim_ready_cb_t ready_cb)
 228:..\..\..\arduinoLCD\test\Pain Drain\libraries\lvgl\src\core\../misc/lv_anim.h **** {
 229:..\..\..\arduinoLCD\test\Pain Drain\libraries\lvgl\src\core\../misc/lv_anim.h ****     a->ready_cb = ready_cb;
  82              		.loc 2 229 0
  83 001c 034B     		ldr	r3, .L2
  84 001e 0493     		str	r3, [sp, #16]
  85              	.LVL8:
  86              	.LBE21:
  87              	.LBE20:
 113:..\..\..\arduinoLCD\test\Pain Drain\libraries\lvgl\src\core/lv_obj_tree.c ****     lv_anim_set_var(&a, obj);
 114:..\..\..\arduinoLCD\test\Pain Drain\libraries\lvgl\src\core/lv_obj_tree.c ****     lv_anim_set_exec_cb(&a, NULL);
 115:..\..\..\arduinoLCD\test\Pain Drain\libraries\lvgl\src\core/lv_obj_tree.c ****     lv_anim_set_time(&a, 1);
 116:..\..\..\arduinoLCD\test\Pain Drain\libraries\lvgl\src\core/lv_obj_tree.c ****     lv_anim_set_delay(&a, delay_ms);
 117:..\..\..\arduinoLCD\test\Pain Drain\libraries\lvgl\src\core/lv_obj_tree.c ****     lv_anim_set_ready_cb(&a, lv_obj_del_anim_ready_cb);
 118:..\..\..\arduinoLCD\test\Pain Drain\libraries\lvgl\src\core/lv_obj_tree.c ****     lv_anim_start(&a);
  88              		.loc 1 118 0
  89 0020 01A8     		add	r0, sp, #4
  90 0022 FFF7FEFF 		bl	lv_anim_start
  91              	.LVL9:
 119:..\..\..\arduinoLCD\test\Pain Drain\libraries\lvgl\src\core/lv_obj_tree.c **** }
  92              		.loc 1 119 0
  93 0026 13B0     		add	sp, sp, #76
  94              		@ sp needed
  95              	.LVL10:
  96              	.LVL11:
  97 0028 30BD     		pop	{r4, r5, pc}
  98              	.L3:
  99 002a C046     		.align	2
 100              	.L2:
 101 002c 00000000 		.word	lv_obj_del_anim_ready_cb
 102              		.cfi_endproc
 103              	.LFE161:
 104              		.size	lv_obj_del_delayed, .-lv_obj_del_delayed
 105              		.section	.text.lv_obj_del_async,"ax",%progbits
 106              		.align	2
 107              		.global	lv_obj_del_async
 108              		.code	16
ARM GAS  C:\Users\haske\AppData\Local\Temp\ccU9uRZG.s 			page 9


 109              		.thumb_func
 110              		.type	lv_obj_del_async, %function
 111              	lv_obj_del_async:
 112              	.LFB163:
 120:..\..\..\arduinoLCD\test\Pain Drain\libraries\lvgl\src\core/lv_obj_tree.c **** 
 121:..\..\..\arduinoLCD\test\Pain Drain\libraries\lvgl\src\core/lv_obj_tree.c **** void lv_obj_del_anim_ready_cb(lv_anim_t * a)
 122:..\..\..\arduinoLCD\test\Pain Drain\libraries\lvgl\src\core/lv_obj_tree.c **** {
 123:..\..\..\arduinoLCD\test\Pain Drain\libraries\lvgl\src\core/lv_obj_tree.c ****     lv_obj_del(a->var);
 124:..\..\..\arduinoLCD\test\Pain Drain\libraries\lvgl\src\core/lv_obj_tree.c **** }
 125:..\..\..\arduinoLCD\test\Pain Drain\libraries\lvgl\src\core/lv_obj_tree.c **** 
 126:..\..\..\arduinoLCD\test\Pain Drain\libraries\lvgl\src\core/lv_obj_tree.c **** void lv_obj_del_async(lv_obj_t * obj)
 127:..\..\..\arduinoLCD\test\Pain Drain\libraries\lvgl\src\core/lv_obj_tree.c **** {
 113              		.loc 1 127 0
 114              		.cfi_startproc
 115              		@ args = 0, pretend = 0, frame = 0
 116              		@ frame_needed = 0, uses_anonymous_args = 0
 117              	.LVL12:
 118 0000 10B5     		push	{r4, lr}
 119              		.cfi_def_cfa_offset 8
 120              		.cfi_offset 4, -8
 121              		.cfi_offset 14, -4
 122 0002 0100     		movs	r1, r0
 128:..\..\..\arduinoLCD\test\Pain Drain\libraries\lvgl\src\core/lv_obj_tree.c ****     LV_ASSERT_OBJ(obj, MY_CLASS);
 129:..\..\..\arduinoLCD\test\Pain Drain\libraries\lvgl\src\core/lv_obj_tree.c ****     lv_async_call(lv_obj_del_async_cb, obj);
 123              		.loc 1 129 0
 124 0004 0148     		ldr	r0, .L5
 125              	.LVL13:
 126 0006 FFF7FEFF 		bl	lv_async_call
 127              	.LVL14:
 130:..\..\..\arduinoLCD\test\Pain Drain\libraries\lvgl\src\core/lv_obj_tree.c **** }
 128              		.loc 1 130 0
 129              		@ sp needed
 130 000a 10BD     		pop	{r4, pc}
 131              	.L6:
 132              		.align	2
 133              	.L5:
 134 000c 00000000 		.word	lv_obj_del_async_cb
 135              		.cfi_endproc
 136              	.LFE163:
 137              		.size	lv_obj_del_async, .-lv_obj_del_async
 138              		.section	.text.lv_obj_get_parent,"ax",%progbits
 139              		.align	2
 140              		.global	lv_obj_get_parent
 141              		.code	16
 142              		.thumb_func
 143              		.type	lv_obj_get_parent, %function
 144              	lv_obj_get_parent:
 145              	.LFB169:
 131:..\..\..\arduinoLCD\test\Pain Drain\libraries\lvgl\src\core/lv_obj_tree.c **** 
 132:..\..\..\arduinoLCD\test\Pain Drain\libraries\lvgl\src\core/lv_obj_tree.c **** void lv_obj_set_parent(lv_obj_t * obj, lv_obj_t * parent)
 133:..\..\..\arduinoLCD\test\Pain Drain\libraries\lvgl\src\core/lv_obj_tree.c **** {
 134:..\..\..\arduinoLCD\test\Pain Drain\libraries\lvgl\src\core/lv_obj_tree.c ****     LV_ASSERT_OBJ(obj, MY_CLASS);
 135:..\..\..\arduinoLCD\test\Pain Drain\libraries\lvgl\src\core/lv_obj_tree.c ****     LV_ASSERT_OBJ(parent, MY_CLASS);
 136:..\..\..\arduinoLCD\test\Pain Drain\libraries\lvgl\src\core/lv_obj_tree.c **** 
 137:..\..\..\arduinoLCD\test\Pain Drain\libraries\lvgl\src\core/lv_obj_tree.c ****     if(obj->parent == NULL) {
 138:..\..\..\arduinoLCD\test\Pain Drain\libraries\lvgl\src\core/lv_obj_tree.c ****         LV_LOG_WARN("Can't set the parent of a screen");
 139:..\..\..\arduinoLCD\test\Pain Drain\libraries\lvgl\src\core/lv_obj_tree.c ****         return;
ARM GAS  C:\Users\haske\AppData\Local\Temp\ccU9uRZG.s 			page 10


 140:..\..\..\arduinoLCD\test\Pain Drain\libraries\lvgl\src\core/lv_obj_tree.c ****     }
 141:..\..\..\arduinoLCD\test\Pain Drain\libraries\lvgl\src\core/lv_obj_tree.c **** 
 142:..\..\..\arduinoLCD\test\Pain Drain\libraries\lvgl\src\core/lv_obj_tree.c ****     if(parent == NULL) {
 143:..\..\..\arduinoLCD\test\Pain Drain\libraries\lvgl\src\core/lv_obj_tree.c ****         LV_LOG_WARN("Can't set parent == NULL to an object");
 144:..\..\..\arduinoLCD\test\Pain Drain\libraries\lvgl\src\core/lv_obj_tree.c ****         return;
 145:..\..\..\arduinoLCD\test\Pain Drain\libraries\lvgl\src\core/lv_obj_tree.c ****     }
 146:..\..\..\arduinoLCD\test\Pain Drain\libraries\lvgl\src\core/lv_obj_tree.c **** 
 147:..\..\..\arduinoLCD\test\Pain Drain\libraries\lvgl\src\core/lv_obj_tree.c ****     lv_obj_invalidate(obj);
 148:..\..\..\arduinoLCD\test\Pain Drain\libraries\lvgl\src\core/lv_obj_tree.c **** 
 149:..\..\..\arduinoLCD\test\Pain Drain\libraries\lvgl\src\core/lv_obj_tree.c ****     lv_obj_allocate_spec_attr(parent);
 150:..\..\..\arduinoLCD\test\Pain Drain\libraries\lvgl\src\core/lv_obj_tree.c **** 
 151:..\..\..\arduinoLCD\test\Pain Drain\libraries\lvgl\src\core/lv_obj_tree.c ****     lv_obj_t * old_parent = obj->parent;
 152:..\..\..\arduinoLCD\test\Pain Drain\libraries\lvgl\src\core/lv_obj_tree.c ****     /*Remove the object from the old parent's child list*/
 153:..\..\..\arduinoLCD\test\Pain Drain\libraries\lvgl\src\core/lv_obj_tree.c ****     int32_t i;
 154:..\..\..\arduinoLCD\test\Pain Drain\libraries\lvgl\src\core/lv_obj_tree.c ****     for(i = lv_obj_get_index(obj); i <= (int32_t)lv_obj_get_child_cnt(old_parent) - 2; i++) {
 155:..\..\..\arduinoLCD\test\Pain Drain\libraries\lvgl\src\core/lv_obj_tree.c ****         old_parent->spec_attr->children[i] = old_parent->spec_attr->children[i + 1];
 156:..\..\..\arduinoLCD\test\Pain Drain\libraries\lvgl\src\core/lv_obj_tree.c ****     }
 157:..\..\..\arduinoLCD\test\Pain Drain\libraries\lvgl\src\core/lv_obj_tree.c ****     old_parent->spec_attr->child_cnt--;
 158:..\..\..\arduinoLCD\test\Pain Drain\libraries\lvgl\src\core/lv_obj_tree.c ****     if(old_parent->spec_attr->child_cnt) {
 159:..\..\..\arduinoLCD\test\Pain Drain\libraries\lvgl\src\core/lv_obj_tree.c ****         old_parent->spec_attr->children = lv_mem_realloc(old_parent->spec_attr->children,
 160:..\..\..\arduinoLCD\test\Pain Drain\libraries\lvgl\src\core/lv_obj_tree.c ****                                                          old_parent->spec_attr->child_cnt * (sizeof
 161:..\..\..\arduinoLCD\test\Pain Drain\libraries\lvgl\src\core/lv_obj_tree.c ****     }
 162:..\..\..\arduinoLCD\test\Pain Drain\libraries\lvgl\src\core/lv_obj_tree.c ****     else {
 163:..\..\..\arduinoLCD\test\Pain Drain\libraries\lvgl\src\core/lv_obj_tree.c ****         lv_mem_free(old_parent->spec_attr->children);
 164:..\..\..\arduinoLCD\test\Pain Drain\libraries\lvgl\src\core/lv_obj_tree.c ****         old_parent->spec_attr->children = NULL;
 165:..\..\..\arduinoLCD\test\Pain Drain\libraries\lvgl\src\core/lv_obj_tree.c ****     }
 166:..\..\..\arduinoLCD\test\Pain Drain\libraries\lvgl\src\core/lv_obj_tree.c **** 
 167:..\..\..\arduinoLCD\test\Pain Drain\libraries\lvgl\src\core/lv_obj_tree.c ****     /*Add the child to the new parent as the last (newest child)*/
 168:..\..\..\arduinoLCD\test\Pain Drain\libraries\lvgl\src\core/lv_obj_tree.c ****     parent->spec_attr->child_cnt++;
 169:..\..\..\arduinoLCD\test\Pain Drain\libraries\lvgl\src\core/lv_obj_tree.c ****     parent->spec_attr->children = lv_mem_realloc(parent->spec_attr->children,
 170:..\..\..\arduinoLCD\test\Pain Drain\libraries\lvgl\src\core/lv_obj_tree.c ****                                                  parent->spec_attr->child_cnt * (sizeof(lv_obj_t *)
 171:..\..\..\arduinoLCD\test\Pain Drain\libraries\lvgl\src\core/lv_obj_tree.c ****     parent->spec_attr->children[lv_obj_get_child_cnt(parent) - 1] = obj;
 172:..\..\..\arduinoLCD\test\Pain Drain\libraries\lvgl\src\core/lv_obj_tree.c **** 
 173:..\..\..\arduinoLCD\test\Pain Drain\libraries\lvgl\src\core/lv_obj_tree.c ****     obj->parent = parent;
 174:..\..\..\arduinoLCD\test\Pain Drain\libraries\lvgl\src\core/lv_obj_tree.c **** 
 175:..\..\..\arduinoLCD\test\Pain Drain\libraries\lvgl\src\core/lv_obj_tree.c ****     /*Notify the original parent because one of its children is lost*/
 176:..\..\..\arduinoLCD\test\Pain Drain\libraries\lvgl\src\core/lv_obj_tree.c ****     lv_obj_readjust_scroll(old_parent, LV_ANIM_OFF);
 177:..\..\..\arduinoLCD\test\Pain Drain\libraries\lvgl\src\core/lv_obj_tree.c ****     lv_obj_scrollbar_invalidate(old_parent);
 178:..\..\..\arduinoLCD\test\Pain Drain\libraries\lvgl\src\core/lv_obj_tree.c ****     lv_event_send(old_parent, LV_EVENT_CHILD_CHANGED, obj);
 179:..\..\..\arduinoLCD\test\Pain Drain\libraries\lvgl\src\core/lv_obj_tree.c ****     lv_event_send(old_parent, LV_EVENT_CHILD_DELETED, NULL);
 180:..\..\..\arduinoLCD\test\Pain Drain\libraries\lvgl\src\core/lv_obj_tree.c **** 
 181:..\..\..\arduinoLCD\test\Pain Drain\libraries\lvgl\src\core/lv_obj_tree.c ****     /*Notify the new parent about the child*/
 182:..\..\..\arduinoLCD\test\Pain Drain\libraries\lvgl\src\core/lv_obj_tree.c ****     lv_event_send(parent, LV_EVENT_CHILD_CHANGED, obj);
 183:..\..\..\arduinoLCD\test\Pain Drain\libraries\lvgl\src\core/lv_obj_tree.c ****     lv_event_send(parent, LV_EVENT_CHILD_CREATED, NULL);
 184:..\..\..\arduinoLCD\test\Pain Drain\libraries\lvgl\src\core/lv_obj_tree.c **** 
 185:..\..\..\arduinoLCD\test\Pain Drain\libraries\lvgl\src\core/lv_obj_tree.c ****     lv_obj_mark_layout_as_dirty(obj);
 186:..\..\..\arduinoLCD\test\Pain Drain\libraries\lvgl\src\core/lv_obj_tree.c **** 
 187:..\..\..\arduinoLCD\test\Pain Drain\libraries\lvgl\src\core/lv_obj_tree.c ****     lv_obj_invalidate(obj);
 188:..\..\..\arduinoLCD\test\Pain Drain\libraries\lvgl\src\core/lv_obj_tree.c **** }
 189:..\..\..\arduinoLCD\test\Pain Drain\libraries\lvgl\src\core/lv_obj_tree.c **** 
 190:..\..\..\arduinoLCD\test\Pain Drain\libraries\lvgl\src\core/lv_obj_tree.c **** void lv_obj_move_to_index(lv_obj_t * obj, int32_t index)
 191:..\..\..\arduinoLCD\test\Pain Drain\libraries\lvgl\src\core/lv_obj_tree.c **** {
 192:..\..\..\arduinoLCD\test\Pain Drain\libraries\lvgl\src\core/lv_obj_tree.c ****     LV_ASSERT_OBJ(obj, MY_CLASS);
 193:..\..\..\arduinoLCD\test\Pain Drain\libraries\lvgl\src\core/lv_obj_tree.c **** 
 194:..\..\..\arduinoLCD\test\Pain Drain\libraries\lvgl\src\core/lv_obj_tree.c ****     if(index < 0) {
 195:..\..\..\arduinoLCD\test\Pain Drain\libraries\lvgl\src\core/lv_obj_tree.c ****         index = lv_obj_get_child_cnt(lv_obj_get_parent(obj)) + index;
 196:..\..\..\arduinoLCD\test\Pain Drain\libraries\lvgl\src\core/lv_obj_tree.c ****     }
ARM GAS  C:\Users\haske\AppData\Local\Temp\ccU9uRZG.s 			page 11


 197:..\..\..\arduinoLCD\test\Pain Drain\libraries\lvgl\src\core/lv_obj_tree.c **** 
 198:..\..\..\arduinoLCD\test\Pain Drain\libraries\lvgl\src\core/lv_obj_tree.c ****     const int32_t old_index = lv_obj_get_index(obj);
 199:..\..\..\arduinoLCD\test\Pain Drain\libraries\lvgl\src\core/lv_obj_tree.c **** 
 200:..\..\..\arduinoLCD\test\Pain Drain\libraries\lvgl\src\core/lv_obj_tree.c ****     lv_obj_t * parent = lv_obj_get_parent(obj);
 201:..\..\..\arduinoLCD\test\Pain Drain\libraries\lvgl\src\core/lv_obj_tree.c **** 
 202:..\..\..\arduinoLCD\test\Pain Drain\libraries\lvgl\src\core/lv_obj_tree.c ****     if(index < 0) return;
 203:..\..\..\arduinoLCD\test\Pain Drain\libraries\lvgl\src\core/lv_obj_tree.c ****     if(index >= (int32_t) lv_obj_get_child_cnt(parent)) return;
 204:..\..\..\arduinoLCD\test\Pain Drain\libraries\lvgl\src\core/lv_obj_tree.c ****     if(index == old_index) return;
 205:..\..\..\arduinoLCD\test\Pain Drain\libraries\lvgl\src\core/lv_obj_tree.c **** 
 206:..\..\..\arduinoLCD\test\Pain Drain\libraries\lvgl\src\core/lv_obj_tree.c ****     int32_t i = old_index;
 207:..\..\..\arduinoLCD\test\Pain Drain\libraries\lvgl\src\core/lv_obj_tree.c ****     if(index < old_index) {
 208:..\..\..\arduinoLCD\test\Pain Drain\libraries\lvgl\src\core/lv_obj_tree.c ****         while(i > index)  {
 209:..\..\..\arduinoLCD\test\Pain Drain\libraries\lvgl\src\core/lv_obj_tree.c ****             parent->spec_attr->children[i] = parent->spec_attr->children[i - 1];
 210:..\..\..\arduinoLCD\test\Pain Drain\libraries\lvgl\src\core/lv_obj_tree.c ****             i--;
 211:..\..\..\arduinoLCD\test\Pain Drain\libraries\lvgl\src\core/lv_obj_tree.c ****         }
 212:..\..\..\arduinoLCD\test\Pain Drain\libraries\lvgl\src\core/lv_obj_tree.c ****     }
 213:..\..\..\arduinoLCD\test\Pain Drain\libraries\lvgl\src\core/lv_obj_tree.c ****     else {
 214:..\..\..\arduinoLCD\test\Pain Drain\libraries\lvgl\src\core/lv_obj_tree.c ****         while(i < index) {
 215:..\..\..\arduinoLCD\test\Pain Drain\libraries\lvgl\src\core/lv_obj_tree.c ****             parent->spec_attr->children[i] = parent->spec_attr->children[i + 1];
 216:..\..\..\arduinoLCD\test\Pain Drain\libraries\lvgl\src\core/lv_obj_tree.c ****             i++;
 217:..\..\..\arduinoLCD\test\Pain Drain\libraries\lvgl\src\core/lv_obj_tree.c ****         }
 218:..\..\..\arduinoLCD\test\Pain Drain\libraries\lvgl\src\core/lv_obj_tree.c ****     }
 219:..\..\..\arduinoLCD\test\Pain Drain\libraries\lvgl\src\core/lv_obj_tree.c **** 
 220:..\..\..\arduinoLCD\test\Pain Drain\libraries\lvgl\src\core/lv_obj_tree.c ****     parent->spec_attr->children[index] = obj;
 221:..\..\..\arduinoLCD\test\Pain Drain\libraries\lvgl\src\core/lv_obj_tree.c ****     lv_event_send(parent, LV_EVENT_CHILD_CHANGED, NULL);
 222:..\..\..\arduinoLCD\test\Pain Drain\libraries\lvgl\src\core/lv_obj_tree.c ****     lv_obj_invalidate(parent);
 223:..\..\..\arduinoLCD\test\Pain Drain\libraries\lvgl\src\core/lv_obj_tree.c **** }
 224:..\..\..\arduinoLCD\test\Pain Drain\libraries\lvgl\src\core/lv_obj_tree.c **** 
 225:..\..\..\arduinoLCD\test\Pain Drain\libraries\lvgl\src\core/lv_obj_tree.c **** void lv_obj_swap(lv_obj_t * obj1, lv_obj_t * obj2)
 226:..\..\..\arduinoLCD\test\Pain Drain\libraries\lvgl\src\core/lv_obj_tree.c **** {
 227:..\..\..\arduinoLCD\test\Pain Drain\libraries\lvgl\src\core/lv_obj_tree.c ****     LV_ASSERT_OBJ(obj1, MY_CLASS);
 228:..\..\..\arduinoLCD\test\Pain Drain\libraries\lvgl\src\core/lv_obj_tree.c ****     LV_ASSERT_OBJ(obj2, MY_CLASS);
 229:..\..\..\arduinoLCD\test\Pain Drain\libraries\lvgl\src\core/lv_obj_tree.c **** 
 230:..\..\..\arduinoLCD\test\Pain Drain\libraries\lvgl\src\core/lv_obj_tree.c ****     lv_obj_t * parent = lv_obj_get_parent(obj1);
 231:..\..\..\arduinoLCD\test\Pain Drain\libraries\lvgl\src\core/lv_obj_tree.c ****     lv_obj_t * parent2 = lv_obj_get_parent(obj2);
 232:..\..\..\arduinoLCD\test\Pain Drain\libraries\lvgl\src\core/lv_obj_tree.c **** 
 233:..\..\..\arduinoLCD\test\Pain Drain\libraries\lvgl\src\core/lv_obj_tree.c ****     uint_fast32_t index1 = lv_obj_get_index(obj1);
 234:..\..\..\arduinoLCD\test\Pain Drain\libraries\lvgl\src\core/lv_obj_tree.c ****     uint_fast32_t index2 = lv_obj_get_index(obj2);
 235:..\..\..\arduinoLCD\test\Pain Drain\libraries\lvgl\src\core/lv_obj_tree.c **** 
 236:..\..\..\arduinoLCD\test\Pain Drain\libraries\lvgl\src\core/lv_obj_tree.c ****     lv_event_send(parent2, LV_EVENT_CHILD_DELETED, obj2);
 237:..\..\..\arduinoLCD\test\Pain Drain\libraries\lvgl\src\core/lv_obj_tree.c ****     lv_event_send(parent, LV_EVENT_CHILD_DELETED, obj1);
 238:..\..\..\arduinoLCD\test\Pain Drain\libraries\lvgl\src\core/lv_obj_tree.c **** 
 239:..\..\..\arduinoLCD\test\Pain Drain\libraries\lvgl\src\core/lv_obj_tree.c ****     parent->spec_attr->children[index1] = obj2;
 240:..\..\..\arduinoLCD\test\Pain Drain\libraries\lvgl\src\core/lv_obj_tree.c ****     parent2->spec_attr->children[index2] = obj1;
 241:..\..\..\arduinoLCD\test\Pain Drain\libraries\lvgl\src\core/lv_obj_tree.c **** 
 242:..\..\..\arduinoLCD\test\Pain Drain\libraries\lvgl\src\core/lv_obj_tree.c ****     lv_event_send(parent, LV_EVENT_CHILD_CHANGED, obj2);
 243:..\..\..\arduinoLCD\test\Pain Drain\libraries\lvgl\src\core/lv_obj_tree.c ****     lv_event_send(parent, LV_EVENT_CHILD_CREATED, obj2);
 244:..\..\..\arduinoLCD\test\Pain Drain\libraries\lvgl\src\core/lv_obj_tree.c ****     lv_event_send(parent2, LV_EVENT_CHILD_CHANGED, obj1);
 245:..\..\..\arduinoLCD\test\Pain Drain\libraries\lvgl\src\core/lv_obj_tree.c ****     lv_event_send(parent2, LV_EVENT_CHILD_CREATED, obj1);
 246:..\..\..\arduinoLCD\test\Pain Drain\libraries\lvgl\src\core/lv_obj_tree.c **** 
 247:..\..\..\arduinoLCD\test\Pain Drain\libraries\lvgl\src\core/lv_obj_tree.c ****     lv_obj_invalidate(parent);
 248:..\..\..\arduinoLCD\test\Pain Drain\libraries\lvgl\src\core/lv_obj_tree.c **** 
 249:..\..\..\arduinoLCD\test\Pain Drain\libraries\lvgl\src\core/lv_obj_tree.c ****     if(parent != parent2) {
 250:..\..\..\arduinoLCD\test\Pain Drain\libraries\lvgl\src\core/lv_obj_tree.c ****         lv_obj_invalidate(parent2);
 251:..\..\..\arduinoLCD\test\Pain Drain\libraries\lvgl\src\core/lv_obj_tree.c ****     }
 252:..\..\..\arduinoLCD\test\Pain Drain\libraries\lvgl\src\core/lv_obj_tree.c ****     lv_group_swap_obj(obj1, obj2);
 253:..\..\..\arduinoLCD\test\Pain Drain\libraries\lvgl\src\core/lv_obj_tree.c **** }
ARM GAS  C:\Users\haske\AppData\Local\Temp\ccU9uRZG.s 			page 12


 254:..\..\..\arduinoLCD\test\Pain Drain\libraries\lvgl\src\core/lv_obj_tree.c **** 
 255:..\..\..\arduinoLCD\test\Pain Drain\libraries\lvgl\src\core/lv_obj_tree.c **** lv_obj_t * lv_obj_get_screen(const lv_obj_t * obj)
 256:..\..\..\arduinoLCD\test\Pain Drain\libraries\lvgl\src\core/lv_obj_tree.c **** {
 257:..\..\..\arduinoLCD\test\Pain Drain\libraries\lvgl\src\core/lv_obj_tree.c ****     LV_ASSERT_OBJ(obj, MY_CLASS);
 258:..\..\..\arduinoLCD\test\Pain Drain\libraries\lvgl\src\core/lv_obj_tree.c **** 
 259:..\..\..\arduinoLCD\test\Pain Drain\libraries\lvgl\src\core/lv_obj_tree.c ****     const lv_obj_t * par = obj;
 260:..\..\..\arduinoLCD\test\Pain Drain\libraries\lvgl\src\core/lv_obj_tree.c ****     const lv_obj_t * act_par;
 261:..\..\..\arduinoLCD\test\Pain Drain\libraries\lvgl\src\core/lv_obj_tree.c **** 
 262:..\..\..\arduinoLCD\test\Pain Drain\libraries\lvgl\src\core/lv_obj_tree.c ****     do {
 263:..\..\..\arduinoLCD\test\Pain Drain\libraries\lvgl\src\core/lv_obj_tree.c ****         act_par = par;
 264:..\..\..\arduinoLCD\test\Pain Drain\libraries\lvgl\src\core/lv_obj_tree.c ****         par = lv_obj_get_parent(act_par);
 265:..\..\..\arduinoLCD\test\Pain Drain\libraries\lvgl\src\core/lv_obj_tree.c ****     } while(par != NULL);
 266:..\..\..\arduinoLCD\test\Pain Drain\libraries\lvgl\src\core/lv_obj_tree.c **** 
 267:..\..\..\arduinoLCD\test\Pain Drain\libraries\lvgl\src\core/lv_obj_tree.c ****     return (lv_obj_t *)act_par;
 268:..\..\..\arduinoLCD\test\Pain Drain\libraries\lvgl\src\core/lv_obj_tree.c **** }
 269:..\..\..\arduinoLCD\test\Pain Drain\libraries\lvgl\src\core/lv_obj_tree.c **** 
 270:..\..\..\arduinoLCD\test\Pain Drain\libraries\lvgl\src\core/lv_obj_tree.c **** lv_disp_t * lv_obj_get_disp(const lv_obj_t * obj)
 271:..\..\..\arduinoLCD\test\Pain Drain\libraries\lvgl\src\core/lv_obj_tree.c **** {
 272:..\..\..\arduinoLCD\test\Pain Drain\libraries\lvgl\src\core/lv_obj_tree.c ****     LV_ASSERT_OBJ(obj, MY_CLASS);
 273:..\..\..\arduinoLCD\test\Pain Drain\libraries\lvgl\src\core/lv_obj_tree.c **** 
 274:..\..\..\arduinoLCD\test\Pain Drain\libraries\lvgl\src\core/lv_obj_tree.c ****     const lv_obj_t * scr;
 275:..\..\..\arduinoLCD\test\Pain Drain\libraries\lvgl\src\core/lv_obj_tree.c **** 
 276:..\..\..\arduinoLCD\test\Pain Drain\libraries\lvgl\src\core/lv_obj_tree.c ****     if(obj->parent == NULL) scr = obj;  /*`obj` is a screen*/
 277:..\..\..\arduinoLCD\test\Pain Drain\libraries\lvgl\src\core/lv_obj_tree.c ****     else scr = lv_obj_get_screen(obj);  /*get the screen of `obj`*/
 278:..\..\..\arduinoLCD\test\Pain Drain\libraries\lvgl\src\core/lv_obj_tree.c **** 
 279:..\..\..\arduinoLCD\test\Pain Drain\libraries\lvgl\src\core/lv_obj_tree.c ****     lv_disp_t * d;
 280:..\..\..\arduinoLCD\test\Pain Drain\libraries\lvgl\src\core/lv_obj_tree.c ****     _LV_LL_READ(&LV_GC_ROOT(_lv_disp_ll), d) {
 281:..\..\..\arduinoLCD\test\Pain Drain\libraries\lvgl\src\core/lv_obj_tree.c ****         uint32_t i;
 282:..\..\..\arduinoLCD\test\Pain Drain\libraries\lvgl\src\core/lv_obj_tree.c ****         for(i = 0; i < d->screen_cnt; i++) {
 283:..\..\..\arduinoLCD\test\Pain Drain\libraries\lvgl\src\core/lv_obj_tree.c ****             if(d->screens[i] == scr) return d;
 284:..\..\..\arduinoLCD\test\Pain Drain\libraries\lvgl\src\core/lv_obj_tree.c ****         }
 285:..\..\..\arduinoLCD\test\Pain Drain\libraries\lvgl\src\core/lv_obj_tree.c ****     }
 286:..\..\..\arduinoLCD\test\Pain Drain\libraries\lvgl\src\core/lv_obj_tree.c **** 
 287:..\..\..\arduinoLCD\test\Pain Drain\libraries\lvgl\src\core/lv_obj_tree.c ****     LV_LOG_WARN("No screen found");
 288:..\..\..\arduinoLCD\test\Pain Drain\libraries\lvgl\src\core/lv_obj_tree.c ****     return NULL;
 289:..\..\..\arduinoLCD\test\Pain Drain\libraries\lvgl\src\core/lv_obj_tree.c **** }
 290:..\..\..\arduinoLCD\test\Pain Drain\libraries\lvgl\src\core/lv_obj_tree.c **** 
 291:..\..\..\arduinoLCD\test\Pain Drain\libraries\lvgl\src\core/lv_obj_tree.c **** lv_obj_t * lv_obj_get_parent(const lv_obj_t * obj)
 292:..\..\..\arduinoLCD\test\Pain Drain\libraries\lvgl\src\core/lv_obj_tree.c **** {
 146              		.loc 1 292 0
 147              		.cfi_startproc
 148              		@ args = 0, pretend = 0, frame = 0
 149              		@ frame_needed = 0, uses_anonymous_args = 0
 150              		@ link register save eliminated.
 151              	.LVL15:
 293:..\..\..\arduinoLCD\test\Pain Drain\libraries\lvgl\src\core/lv_obj_tree.c ****     if(obj == NULL) return NULL;
 152              		.loc 1 293 0
 153 0000 0028     		cmp	r0, #0
 154 0002 01D0     		beq	.L9
 294:..\..\..\arduinoLCD\test\Pain Drain\libraries\lvgl\src\core/lv_obj_tree.c ****     LV_ASSERT_OBJ(obj, MY_CLASS);
 295:..\..\..\arduinoLCD\test\Pain Drain\libraries\lvgl\src\core/lv_obj_tree.c **** 
 296:..\..\..\arduinoLCD\test\Pain Drain\libraries\lvgl\src\core/lv_obj_tree.c ****     return obj->parent;
 155              		.loc 1 296 0
 156 0004 4068     		ldr	r0, [r0, #4]
 157              	.LVL16:
 158 0006 00E0     		b	.L8
 159              	.LVL17:
ARM GAS  C:\Users\haske\AppData\Local\Temp\ccU9uRZG.s 			page 13


 160              	.L9:
 293:..\..\..\arduinoLCD\test\Pain Drain\libraries\lvgl\src\core/lv_obj_tree.c ****     if(obj == NULL) return NULL;
 161              		.loc 1 293 0
 162 0008 0020     		movs	r0, #0
 163              	.LVL18:
 164              	.L8:
 297:..\..\..\arduinoLCD\test\Pain Drain\libraries\lvgl\src\core/lv_obj_tree.c **** }
 165              		.loc 1 297 0
 166              		@ sp needed
 167 000a 7047     		bx	lr
 168              		.cfi_endproc
 169              	.LFE169:
 170              		.size	lv_obj_get_parent, .-lv_obj_get_parent
 171              		.section	.text.lv_obj_get_screen,"ax",%progbits
 172              		.align	2
 173              		.global	lv_obj_get_screen
 174              		.code	16
 175              		.thumb_func
 176              		.type	lv_obj_get_screen, %function
 177              	lv_obj_get_screen:
 178              	.LFB167:
 256:..\..\..\arduinoLCD\test\Pain Drain\libraries\lvgl\src\core/lv_obj_tree.c ****     LV_ASSERT_OBJ(obj, MY_CLASS);
 179              		.loc 1 256 0
 180              		.cfi_startproc
 181              		@ args = 0, pretend = 0, frame = 0
 182              		@ frame_needed = 0, uses_anonymous_args = 0
 183              	.LVL19:
 184 0000 10B5     		push	{r4, lr}
 185              		.cfi_def_cfa_offset 8
 186              		.cfi_offset 4, -8
 187              		.cfi_offset 14, -4
 188 0002 0400     		movs	r4, r0
 189              	.LVL20:
 190 0004 00E0     		b	.L11
 191              	.LVL21:
 192              	.L12:
 264:..\..\..\arduinoLCD\test\Pain Drain\libraries\lvgl\src\core/lv_obj_tree.c ****     } while(par != NULL);
 193              		.loc 1 264 0
 194 0006 0400     		movs	r4, r0
 195              	.LVL22:
 196              	.L11:
 264:..\..\..\arduinoLCD\test\Pain Drain\libraries\lvgl\src\core/lv_obj_tree.c ****     } while(par != NULL);
 197              		.loc 1 264 0 is_stmt 0 discriminator 1
 198 0008 2000     		movs	r0, r4
 199 000a FFF7FEFF 		bl	lv_obj_get_parent
 200              	.LVL23:
 265:..\..\..\arduinoLCD\test\Pain Drain\libraries\lvgl\src\core/lv_obj_tree.c **** 
 201              		.loc 1 265 0 is_stmt 1 discriminator 1
 202 000e 0028     		cmp	r0, #0
 203 0010 F9D1     		bne	.L12
 268:..\..\..\arduinoLCD\test\Pain Drain\libraries\lvgl\src\core/lv_obj_tree.c **** 
 204              		.loc 1 268 0
 205 0012 2000     		movs	r0, r4
 206              	.LVL24:
 207              		@ sp needed
 208              	.LVL25:
 209 0014 10BD     		pop	{r4, pc}
ARM GAS  C:\Users\haske\AppData\Local\Temp\ccU9uRZG.s 			page 14


 210              		.cfi_endproc
 211              	.LFE167:
 212              		.size	lv_obj_get_screen, .-lv_obj_get_screen
 213 0016 C046     		.section	.text.lv_obj_get_disp,"ax",%progbits
 214              		.align	2
 215              		.global	lv_obj_get_disp
 216              		.code	16
 217              		.thumb_func
 218              		.type	lv_obj_get_disp, %function
 219              	lv_obj_get_disp:
 220              	.LFB168:
 271:..\..\..\arduinoLCD\test\Pain Drain\libraries\lvgl\src\core/lv_obj_tree.c ****     LV_ASSERT_OBJ(obj, MY_CLASS);
 221              		.loc 1 271 0
 222              		.cfi_startproc
 223              		@ args = 0, pretend = 0, frame = 0
 224              		@ frame_needed = 0, uses_anonymous_args = 0
 225              	.LVL26:
 226 0000 10B5     		push	{r4, lr}
 227              		.cfi_def_cfa_offset 8
 228              		.cfi_offset 4, -8
 229              		.cfi_offset 14, -4
 230 0002 0400     		movs	r4, r0
 276:..\..\..\arduinoLCD\test\Pain Drain\libraries\lvgl\src\core/lv_obj_tree.c ****     else scr = lv_obj_get_screen(obj);  /*get the screen of `obj`*/
 231              		.loc 1 276 0
 232 0004 4368     		ldr	r3, [r0, #4]
 233 0006 002B     		cmp	r3, #0
 234 0008 02D0     		beq	.L14
 277:..\..\..\arduinoLCD\test\Pain Drain\libraries\lvgl\src\core/lv_obj_tree.c **** 
 235              		.loc 1 277 0
 236 000a FFF7FEFF 		bl	lv_obj_get_screen
 237              	.LVL27:
 238 000e 0400     		movs	r4, r0
 239              	.LVL28:
 240              	.L14:
 280:..\..\..\arduinoLCD\test\Pain Drain\libraries\lvgl\src\core/lv_obj_tree.c ****         uint32_t i;
 241              		.loc 1 280 0
 242 0010 0A48     		ldr	r0, .L21
 243 0012 FFF7FEFF 		bl	_lv_ll_get_head
 244              	.LVL29:
 245 0016 0EE0     		b	.L15
 246              	.LVL30:
 247              	.L17:
 248              	.LBB22:
 283:..\..\..\arduinoLCD\test\Pain Drain\libraries\lvgl\src\core/lv_obj_tree.c ****         }
 249              		.loc 1 283 0
 250 0018 9A00     		lsls	r2, r3, #2
 251 001a C168     		ldr	r1, [r0, #12]
 252 001c 5258     		ldr	r2, [r2, r1]
 253 001e 9442     		cmp	r4, r2
 254 0020 0BD0     		beq	.L16
 282:..\..\..\arduinoLCD\test\Pain Drain\libraries\lvgl\src\core/lv_obj_tree.c ****             if(d->screens[i] == scr) return d;
 255              		.loc 1 282 0 discriminator 2
 256 0022 0133     		adds	r3, r3, #1
 257              	.LVL31:
 258 0024 00E0     		b	.L18
 259              	.LVL32:
 260              	.L20:
ARM GAS  C:\Users\haske\AppData\Local\Temp\ccU9uRZG.s 			page 15


 261              	.LBE22:
 262 0026 0023     		movs	r3, #0
 263              	.L18:
 264              	.LVL33:
 265              	.LBB23:
 282:..\..\..\arduinoLCD\test\Pain Drain\libraries\lvgl\src\core/lv_obj_tree.c ****             if(d->screens[i] == scr) return d;
 266              		.loc 1 282 0 is_stmt 0 discriminator 1
 267 0028 426A     		ldr	r2, [r0, #36]
 268 002a 9342     		cmp	r3, r2
 269 002c F4D3     		bcc	.L17
 270              	.LBE23:
 280:..\..\..\arduinoLCD\test\Pain Drain\libraries\lvgl\src\core/lv_obj_tree.c ****         uint32_t i;
 271              		.loc 1 280 0 is_stmt 1 discriminator 2
 272 002e 0100     		movs	r1, r0
 273 0030 0248     		ldr	r0, .L21
 274              	.LVL34:
 275 0032 FFF7FEFF 		bl	_lv_ll_get_next
 276              	.LVL35:
 277              	.L15:
 280:..\..\..\arduinoLCD\test\Pain Drain\libraries\lvgl\src\core/lv_obj_tree.c ****         uint32_t i;
 278              		.loc 1 280 0 is_stmt 0 discriminator 1
 279 0036 0028     		cmp	r0, #0
 280 0038 F5D1     		bne	.L20
 281              	.L16:
 289:..\..\..\arduinoLCD\test\Pain Drain\libraries\lvgl\src\core/lv_obj_tree.c **** 
 282              		.loc 1 289 0 is_stmt 1
 283              		@ sp needed
 284              	.LVL36:
 285 003a 10BD     		pop	{r4, pc}
 286              	.L22:
 287              		.align	2
 288              	.L21:
 289 003c 00000000 		.word	_lv_disp_ll
 290              		.cfi_endproc
 291              	.LFE168:
 292              		.size	lv_obj_get_disp, .-lv_obj_get_disp
 293              		.section	.text.lv_obj_get_child,"ax",%progbits
 294              		.align	2
 295              		.global	lv_obj_get_child
 296              		.code	16
 297              		.thumb_func
 298              		.type	lv_obj_get_child, %function
 299              	lv_obj_get_child:
 300              	.LFB170:
 298:..\..\..\arduinoLCD\test\Pain Drain\libraries\lvgl\src\core/lv_obj_tree.c **** 
 299:..\..\..\arduinoLCD\test\Pain Drain\libraries\lvgl\src\core/lv_obj_tree.c **** lv_obj_t * lv_obj_get_child(const lv_obj_t * obj, int32_t id)
 300:..\..\..\arduinoLCD\test\Pain Drain\libraries\lvgl\src\core/lv_obj_tree.c **** {
 301              		.loc 1 300 0
 302              		.cfi_startproc
 303              		@ args = 0, pretend = 0, frame = 0
 304              		@ frame_needed = 0, uses_anonymous_args = 0
 305              		@ link register save eliminated.
 306              	.LVL37:
 301:..\..\..\arduinoLCD\test\Pain Drain\libraries\lvgl\src\core/lv_obj_tree.c ****     LV_ASSERT_OBJ(obj, MY_CLASS);
 302:..\..\..\arduinoLCD\test\Pain Drain\libraries\lvgl\src\core/lv_obj_tree.c **** 
 303:..\..\..\arduinoLCD\test\Pain Drain\libraries\lvgl\src\core/lv_obj_tree.c ****     if(obj->spec_attr == NULL) return NULL;
 307              		.loc 1 303 0
ARM GAS  C:\Users\haske\AppData\Local\Temp\ccU9uRZG.s 			page 16


 308 0000 8368     		ldr	r3, [r0, #8]
 309 0002 002B     		cmp	r3, #0
 310 0004 0FD0     		beq	.L27
 304:..\..\..\arduinoLCD\test\Pain Drain\libraries\lvgl\src\core/lv_obj_tree.c **** 
 305:..\..\..\arduinoLCD\test\Pain Drain\libraries\lvgl\src\core/lv_obj_tree.c ****     uint32_t idu;
 306:..\..\..\arduinoLCD\test\Pain Drain\libraries\lvgl\src\core/lv_obj_tree.c ****     if(id < 0) {
 311              		.loc 1 306 0
 312 0006 0029     		cmp	r1, #0
 313 0008 05DA     		bge	.L25
 307:..\..\..\arduinoLCD\test\Pain Drain\libraries\lvgl\src\core/lv_obj_tree.c ****         id = obj->spec_attr->child_cnt + id;
 314              		.loc 1 307 0
 315 000a 5A68     		ldr	r2, [r3, #4]
 316 000c 9446     		mov	ip, r2
 317 000e 6144     		add	r1, r1, ip
 318              	.LVL38:
 319 0010 0A1E     		subs	r2, r1, #0
 320              	.LVL39:
 308:..\..\..\arduinoLCD\test\Pain Drain\libraries\lvgl\src\core/lv_obj_tree.c ****         if(id < 0) return NULL;
 321              		.loc 1 308 0
 322 0012 01DA     		bge	.L26
 323 0014 09E0     		b	.L28
 324              	.L25:
 309:..\..\..\arduinoLCD\test\Pain Drain\libraries\lvgl\src\core/lv_obj_tree.c ****         idu = (uint32_t) id;
 310:..\..\..\arduinoLCD\test\Pain Drain\libraries\lvgl\src\core/lv_obj_tree.c ****     }
 311:..\..\..\arduinoLCD\test\Pain Drain\libraries\lvgl\src\core/lv_obj_tree.c ****     else {
 312:..\..\..\arduinoLCD\test\Pain Drain\libraries\lvgl\src\core/lv_obj_tree.c ****         idu = id;
 325              		.loc 1 312 0
 326 0016 0A00     		movs	r2, r1
 327              	.LVL40:
 328              	.L26:
 313:..\..\..\arduinoLCD\test\Pain Drain\libraries\lvgl\src\core/lv_obj_tree.c ****     }
 314:..\..\..\arduinoLCD\test\Pain Drain\libraries\lvgl\src\core/lv_obj_tree.c **** 
 315:..\..\..\arduinoLCD\test\Pain Drain\libraries\lvgl\src\core/lv_obj_tree.c ****     if(idu >= obj->spec_attr->child_cnt) return NULL;
 329              		.loc 1 315 0
 330 0018 5868     		ldr	r0, [r3, #4]
 331              	.LVL41:
 332 001a 8242     		cmp	r2, r0
 333 001c 07D2     		bcs	.L29
 316:..\..\..\arduinoLCD\test\Pain Drain\libraries\lvgl\src\core/lv_obj_tree.c ****     else return obj->spec_attr->children[id];
 334              		.loc 1 316 0
 335 001e 1B68     		ldr	r3, [r3]
 336 0020 8900     		lsls	r1, r1, #2
 337              	.LVL42:
 338 0022 5858     		ldr	r0, [r3, r1]
 339 0024 04E0     		b	.L24
 340              	.LVL43:
 341              	.L27:
 303:..\..\..\arduinoLCD\test\Pain Drain\libraries\lvgl\src\core/lv_obj_tree.c **** 
 342              		.loc 1 303 0
 343 0026 0020     		movs	r0, #0
 344              	.LVL44:
 345 0028 02E0     		b	.L24
 346              	.LVL45:
 347              	.L28:
 308:..\..\..\arduinoLCD\test\Pain Drain\libraries\lvgl\src\core/lv_obj_tree.c ****         idu = (uint32_t) id;
 348              		.loc 1 308 0
 349 002a 0020     		movs	r0, #0
ARM GAS  C:\Users\haske\AppData\Local\Temp\ccU9uRZG.s 			page 17


 350              	.LVL46:
 351 002c 00E0     		b	.L24
 352              	.LVL47:
 353              	.L29:
 315:..\..\..\arduinoLCD\test\Pain Drain\libraries\lvgl\src\core/lv_obj_tree.c ****     else return obj->spec_attr->children[id];
 354              		.loc 1 315 0
 355 002e 0020     		movs	r0, #0
 356              	.LVL48:
 357              	.L24:
 317:..\..\..\arduinoLCD\test\Pain Drain\libraries\lvgl\src\core/lv_obj_tree.c **** }
 358              		.loc 1 317 0
 359              		@ sp needed
 360 0030 7047     		bx	lr
 361              		.cfi_endproc
 362              	.LFE170:
 363              		.size	lv_obj_get_child, .-lv_obj_get_child
 364 0032 C046     		.section	.text.lv_obj_get_child_cnt,"ax",%progbits
 365              		.align	2
 366              		.global	lv_obj_get_child_cnt
 367              		.code	16
 368              		.thumb_func
 369              		.type	lv_obj_get_child_cnt, %function
 370              	lv_obj_get_child_cnt:
 371              	.LFB171:
 318:..\..\..\arduinoLCD\test\Pain Drain\libraries\lvgl\src\core/lv_obj_tree.c **** 
 319:..\..\..\arduinoLCD\test\Pain Drain\libraries\lvgl\src\core/lv_obj_tree.c **** uint32_t lv_obj_get_child_cnt(const lv_obj_t * obj)
 320:..\..\..\arduinoLCD\test\Pain Drain\libraries\lvgl\src\core/lv_obj_tree.c **** {
 372              		.loc 1 320 0
 373              		.cfi_startproc
 374              		@ args = 0, pretend = 0, frame = 0
 375              		@ frame_needed = 0, uses_anonymous_args = 0
 376              		@ link register save eliminated.
 377              	.LVL49:
 321:..\..\..\arduinoLCD\test\Pain Drain\libraries\lvgl\src\core/lv_obj_tree.c ****     LV_ASSERT_OBJ(obj, MY_CLASS);
 322:..\..\..\arduinoLCD\test\Pain Drain\libraries\lvgl\src\core/lv_obj_tree.c ****     if(obj->spec_attr == NULL) return 0;
 378              		.loc 1 322 0
 379 0000 8368     		ldr	r3, [r0, #8]
 380 0002 002B     		cmp	r3, #0
 381 0004 01D0     		beq	.L32
 323:..\..\..\arduinoLCD\test\Pain Drain\libraries\lvgl\src\core/lv_obj_tree.c ****     return obj->spec_attr->child_cnt;
 382              		.loc 1 323 0
 383 0006 5868     		ldr	r0, [r3, #4]
 384              	.LVL50:
 385 0008 00E0     		b	.L31
 386              	.LVL51:
 387              	.L32:
 322:..\..\..\arduinoLCD\test\Pain Drain\libraries\lvgl\src\core/lv_obj_tree.c ****     return obj->spec_attr->child_cnt;
 388              		.loc 1 322 0
 389 000a 0020     		movs	r0, #0
 390              	.LVL52:
 391              	.L31:
 324:..\..\..\arduinoLCD\test\Pain Drain\libraries\lvgl\src\core/lv_obj_tree.c **** }
 392              		.loc 1 324 0
 393              		@ sp needed
 394 000c 7047     		bx	lr
 395              		.cfi_endproc
 396              	.LFE171:
ARM GAS  C:\Users\haske\AppData\Local\Temp\ccU9uRZG.s 			page 18


 397              		.size	lv_obj_get_child_cnt, .-lv_obj_get_child_cnt
 398 000e C046     		.section	.text.walk_core,"ax",%progbits
 399              		.align	2
 400              		.code	16
 401              		.thumb_func
 402              		.type	walk_core, %function
 403              	walk_core:
 404              	.LFB176:
 325:..\..\..\arduinoLCD\test\Pain Drain\libraries\lvgl\src\core/lv_obj_tree.c **** 
 326:..\..\..\arduinoLCD\test\Pain Drain\libraries\lvgl\src\core/lv_obj_tree.c **** uint32_t lv_obj_get_index(const lv_obj_t * obj)
 327:..\..\..\arduinoLCD\test\Pain Drain\libraries\lvgl\src\core/lv_obj_tree.c **** {
 328:..\..\..\arduinoLCD\test\Pain Drain\libraries\lvgl\src\core/lv_obj_tree.c ****     LV_ASSERT_OBJ(obj, MY_CLASS);
 329:..\..\..\arduinoLCD\test\Pain Drain\libraries\lvgl\src\core/lv_obj_tree.c **** 
 330:..\..\..\arduinoLCD\test\Pain Drain\libraries\lvgl\src\core/lv_obj_tree.c ****     lv_obj_t * parent = lv_obj_get_parent(obj);
 331:..\..\..\arduinoLCD\test\Pain Drain\libraries\lvgl\src\core/lv_obj_tree.c ****     if(parent == NULL) return 0;
 332:..\..\..\arduinoLCD\test\Pain Drain\libraries\lvgl\src\core/lv_obj_tree.c **** 
 333:..\..\..\arduinoLCD\test\Pain Drain\libraries\lvgl\src\core/lv_obj_tree.c ****     uint32_t i = 0;
 334:..\..\..\arduinoLCD\test\Pain Drain\libraries\lvgl\src\core/lv_obj_tree.c ****     for(i = 0; i < lv_obj_get_child_cnt(parent); i++) {
 335:..\..\..\arduinoLCD\test\Pain Drain\libraries\lvgl\src\core/lv_obj_tree.c ****         if(lv_obj_get_child(parent, i) == obj) return i;
 336:..\..\..\arduinoLCD\test\Pain Drain\libraries\lvgl\src\core/lv_obj_tree.c ****     }
 337:..\..\..\arduinoLCD\test\Pain Drain\libraries\lvgl\src\core/lv_obj_tree.c **** 
 338:..\..\..\arduinoLCD\test\Pain Drain\libraries\lvgl\src\core/lv_obj_tree.c ****     return 0xFFFFFFFF; /*Shouldn't happen*/
 339:..\..\..\arduinoLCD\test\Pain Drain\libraries\lvgl\src\core/lv_obj_tree.c **** }
 340:..\..\..\arduinoLCD\test\Pain Drain\libraries\lvgl\src\core/lv_obj_tree.c **** 
 341:..\..\..\arduinoLCD\test\Pain Drain\libraries\lvgl\src\core/lv_obj_tree.c **** void lv_obj_tree_walk(lv_obj_t * start_obj, lv_obj_tree_walk_cb_t cb, void * user_data)
 342:..\..\..\arduinoLCD\test\Pain Drain\libraries\lvgl\src\core/lv_obj_tree.c **** {
 343:..\..\..\arduinoLCD\test\Pain Drain\libraries\lvgl\src\core/lv_obj_tree.c ****     walk_core(start_obj, cb, user_data);
 344:..\..\..\arduinoLCD\test\Pain Drain\libraries\lvgl\src\core/lv_obj_tree.c **** }
 345:..\..\..\arduinoLCD\test\Pain Drain\libraries\lvgl\src\core/lv_obj_tree.c **** 
 346:..\..\..\arduinoLCD\test\Pain Drain\libraries\lvgl\src\core/lv_obj_tree.c **** /**********************
 347:..\..\..\arduinoLCD\test\Pain Drain\libraries\lvgl\src\core/lv_obj_tree.c ****  *   STATIC FUNCTIONS
 348:..\..\..\arduinoLCD\test\Pain Drain\libraries\lvgl\src\core/lv_obj_tree.c ****  **********************/
 349:..\..\..\arduinoLCD\test\Pain Drain\libraries\lvgl\src\core/lv_obj_tree.c **** 
 350:..\..\..\arduinoLCD\test\Pain Drain\libraries\lvgl\src\core/lv_obj_tree.c **** static void lv_obj_del_async_cb(void * obj)
 351:..\..\..\arduinoLCD\test\Pain Drain\libraries\lvgl\src\core/lv_obj_tree.c **** {
 352:..\..\..\arduinoLCD\test\Pain Drain\libraries\lvgl\src\core/lv_obj_tree.c ****     LV_ASSERT_OBJ(obj, MY_CLASS);
 353:..\..\..\arduinoLCD\test\Pain Drain\libraries\lvgl\src\core/lv_obj_tree.c **** 
 354:..\..\..\arduinoLCD\test\Pain Drain\libraries\lvgl\src\core/lv_obj_tree.c ****     lv_obj_del(obj);
 355:..\..\..\arduinoLCD\test\Pain Drain\libraries\lvgl\src\core/lv_obj_tree.c **** }
 356:..\..\..\arduinoLCD\test\Pain Drain\libraries\lvgl\src\core/lv_obj_tree.c **** 
 357:..\..\..\arduinoLCD\test\Pain Drain\libraries\lvgl\src\core/lv_obj_tree.c **** static void obj_del_core(lv_obj_t * obj)
 358:..\..\..\arduinoLCD\test\Pain Drain\libraries\lvgl\src\core/lv_obj_tree.c **** {
 359:..\..\..\arduinoLCD\test\Pain Drain\libraries\lvgl\src\core/lv_obj_tree.c ****     /*Let the user free the resources used in `LV_EVENT_DELETE`*/
 360:..\..\..\arduinoLCD\test\Pain Drain\libraries\lvgl\src\core/lv_obj_tree.c ****     lv_res_t res = lv_event_send(obj, LV_EVENT_DELETE, NULL);
 361:..\..\..\arduinoLCD\test\Pain Drain\libraries\lvgl\src\core/lv_obj_tree.c ****     if(res == LV_RES_INV) return;
 362:..\..\..\arduinoLCD\test\Pain Drain\libraries\lvgl\src\core/lv_obj_tree.c **** 
 363:..\..\..\arduinoLCD\test\Pain Drain\libraries\lvgl\src\core/lv_obj_tree.c ****     /*Recursively delete the children*/
 364:..\..\..\arduinoLCD\test\Pain Drain\libraries\lvgl\src\core/lv_obj_tree.c ****     lv_obj_t * child = lv_obj_get_child(obj, 0);
 365:..\..\..\arduinoLCD\test\Pain Drain\libraries\lvgl\src\core/lv_obj_tree.c ****     while(child) {
 366:..\..\..\arduinoLCD\test\Pain Drain\libraries\lvgl\src\core/lv_obj_tree.c ****         obj_del_core(child);
 367:..\..\..\arduinoLCD\test\Pain Drain\libraries\lvgl\src\core/lv_obj_tree.c ****         child = lv_obj_get_child(obj, 0);
 368:..\..\..\arduinoLCD\test\Pain Drain\libraries\lvgl\src\core/lv_obj_tree.c ****     }
 369:..\..\..\arduinoLCD\test\Pain Drain\libraries\lvgl\src\core/lv_obj_tree.c **** 
 370:..\..\..\arduinoLCD\test\Pain Drain\libraries\lvgl\src\core/lv_obj_tree.c ****     lv_group_t * group = lv_obj_get_group(obj);
 371:..\..\..\arduinoLCD\test\Pain Drain\libraries\lvgl\src\core/lv_obj_tree.c **** 
 372:..\..\..\arduinoLCD\test\Pain Drain\libraries\lvgl\src\core/lv_obj_tree.c ****     /*Reset all input devices if the object to delete is used*/
 373:..\..\..\arduinoLCD\test\Pain Drain\libraries\lvgl\src\core/lv_obj_tree.c ****     lv_indev_t * indev = lv_indev_get_next(NULL);
ARM GAS  C:\Users\haske\AppData\Local\Temp\ccU9uRZG.s 			page 19


 374:..\..\..\arduinoLCD\test\Pain Drain\libraries\lvgl\src\core/lv_obj_tree.c ****     while(indev) {
 375:..\..\..\arduinoLCD\test\Pain Drain\libraries\lvgl\src\core/lv_obj_tree.c ****         if(indev->proc.types.pointer.act_obj == obj || indev->proc.types.pointer.last_obj == obj) {
 376:..\..\..\arduinoLCD\test\Pain Drain\libraries\lvgl\src\core/lv_obj_tree.c ****             lv_indev_reset(indev, obj);
 377:..\..\..\arduinoLCD\test\Pain Drain\libraries\lvgl\src\core/lv_obj_tree.c ****         }
 378:..\..\..\arduinoLCD\test\Pain Drain\libraries\lvgl\src\core/lv_obj_tree.c ****         if(indev->proc.types.pointer.last_pressed == obj) {
 379:..\..\..\arduinoLCD\test\Pain Drain\libraries\lvgl\src\core/lv_obj_tree.c ****             indev->proc.types.pointer.last_pressed = NULL;
 380:..\..\..\arduinoLCD\test\Pain Drain\libraries\lvgl\src\core/lv_obj_tree.c ****         }
 381:..\..\..\arduinoLCD\test\Pain Drain\libraries\lvgl\src\core/lv_obj_tree.c **** 
 382:..\..\..\arduinoLCD\test\Pain Drain\libraries\lvgl\src\core/lv_obj_tree.c ****         if(indev->group == group && obj == lv_indev_get_obj_act()) {
 383:..\..\..\arduinoLCD\test\Pain Drain\libraries\lvgl\src\core/lv_obj_tree.c ****             lv_indev_reset(indev, obj);
 384:..\..\..\arduinoLCD\test\Pain Drain\libraries\lvgl\src\core/lv_obj_tree.c ****         }
 385:..\..\..\arduinoLCD\test\Pain Drain\libraries\lvgl\src\core/lv_obj_tree.c ****         indev = lv_indev_get_next(indev);
 386:..\..\..\arduinoLCD\test\Pain Drain\libraries\lvgl\src\core/lv_obj_tree.c ****     }
 387:..\..\..\arduinoLCD\test\Pain Drain\libraries\lvgl\src\core/lv_obj_tree.c **** 
 388:..\..\..\arduinoLCD\test\Pain Drain\libraries\lvgl\src\core/lv_obj_tree.c ****     /*All children deleted. Now clean up the object specific data*/
 389:..\..\..\arduinoLCD\test\Pain Drain\libraries\lvgl\src\core/lv_obj_tree.c ****     _lv_obj_destruct(obj);
 390:..\..\..\arduinoLCD\test\Pain Drain\libraries\lvgl\src\core/lv_obj_tree.c **** 
 391:..\..\..\arduinoLCD\test\Pain Drain\libraries\lvgl\src\core/lv_obj_tree.c ****     /*Remove the screen for the screen list*/
 392:..\..\..\arduinoLCD\test\Pain Drain\libraries\lvgl\src\core/lv_obj_tree.c ****     if(obj->parent == NULL) {
 393:..\..\..\arduinoLCD\test\Pain Drain\libraries\lvgl\src\core/lv_obj_tree.c ****         lv_disp_t * disp = lv_obj_get_disp(obj);
 394:..\..\..\arduinoLCD\test\Pain Drain\libraries\lvgl\src\core/lv_obj_tree.c ****         uint32_t i;
 395:..\..\..\arduinoLCD\test\Pain Drain\libraries\lvgl\src\core/lv_obj_tree.c ****         /*Find the screen in the list*/
 396:..\..\..\arduinoLCD\test\Pain Drain\libraries\lvgl\src\core/lv_obj_tree.c ****         for(i = 0; i < disp->screen_cnt; i++) {
 397:..\..\..\arduinoLCD\test\Pain Drain\libraries\lvgl\src\core/lv_obj_tree.c ****             if(disp->screens[i] == obj) break;
 398:..\..\..\arduinoLCD\test\Pain Drain\libraries\lvgl\src\core/lv_obj_tree.c ****         }
 399:..\..\..\arduinoLCD\test\Pain Drain\libraries\lvgl\src\core/lv_obj_tree.c **** 
 400:..\..\..\arduinoLCD\test\Pain Drain\libraries\lvgl\src\core/lv_obj_tree.c ****         uint32_t id = i;
 401:..\..\..\arduinoLCD\test\Pain Drain\libraries\lvgl\src\core/lv_obj_tree.c ****         for(i = id; i < disp->screen_cnt - 1; i++) {
 402:..\..\..\arduinoLCD\test\Pain Drain\libraries\lvgl\src\core/lv_obj_tree.c ****             disp->screens[i] = disp->screens[i + 1];
 403:..\..\..\arduinoLCD\test\Pain Drain\libraries\lvgl\src\core/lv_obj_tree.c ****         }
 404:..\..\..\arduinoLCD\test\Pain Drain\libraries\lvgl\src\core/lv_obj_tree.c ****         disp->screen_cnt--;
 405:..\..\..\arduinoLCD\test\Pain Drain\libraries\lvgl\src\core/lv_obj_tree.c ****         disp->screens = lv_mem_realloc(disp->screens, disp->screen_cnt * sizeof(lv_obj_t *));
 406:..\..\..\arduinoLCD\test\Pain Drain\libraries\lvgl\src\core/lv_obj_tree.c ****     }
 407:..\..\..\arduinoLCD\test\Pain Drain\libraries\lvgl\src\core/lv_obj_tree.c ****     /*Remove the object from the child list of its parent*/
 408:..\..\..\arduinoLCD\test\Pain Drain\libraries\lvgl\src\core/lv_obj_tree.c ****     else {
 409:..\..\..\arduinoLCD\test\Pain Drain\libraries\lvgl\src\core/lv_obj_tree.c ****         uint32_t id = lv_obj_get_index(obj);
 410:..\..\..\arduinoLCD\test\Pain Drain\libraries\lvgl\src\core/lv_obj_tree.c ****         uint32_t i;
 411:..\..\..\arduinoLCD\test\Pain Drain\libraries\lvgl\src\core/lv_obj_tree.c ****         for(i = id; i < obj->parent->spec_attr->child_cnt - 1; i++) {
 412:..\..\..\arduinoLCD\test\Pain Drain\libraries\lvgl\src\core/lv_obj_tree.c ****             obj->parent->spec_attr->children[i] = obj->parent->spec_attr->children[i + 1];
 413:..\..\..\arduinoLCD\test\Pain Drain\libraries\lvgl\src\core/lv_obj_tree.c ****         }
 414:..\..\..\arduinoLCD\test\Pain Drain\libraries\lvgl\src\core/lv_obj_tree.c ****         obj->parent->spec_attr->child_cnt--;
 415:..\..\..\arduinoLCD\test\Pain Drain\libraries\lvgl\src\core/lv_obj_tree.c ****         obj->parent->spec_attr->children = lv_mem_realloc(obj->parent->spec_attr->children,
 416:..\..\..\arduinoLCD\test\Pain Drain\libraries\lvgl\src\core/lv_obj_tree.c ****                                                           obj->parent->spec_attr->child_cnt * sizeo
 417:..\..\..\arduinoLCD\test\Pain Drain\libraries\lvgl\src\core/lv_obj_tree.c ****     }
 418:..\..\..\arduinoLCD\test\Pain Drain\libraries\lvgl\src\core/lv_obj_tree.c **** 
 419:..\..\..\arduinoLCD\test\Pain Drain\libraries\lvgl\src\core/lv_obj_tree.c ****     /*Free the object itself*/
 420:..\..\..\arduinoLCD\test\Pain Drain\libraries\lvgl\src\core/lv_obj_tree.c ****     lv_mem_free(obj);
 421:..\..\..\arduinoLCD\test\Pain Drain\libraries\lvgl\src\core/lv_obj_tree.c **** }
 422:..\..\..\arduinoLCD\test\Pain Drain\libraries\lvgl\src\core/lv_obj_tree.c **** 
 423:..\..\..\arduinoLCD\test\Pain Drain\libraries\lvgl\src\core/lv_obj_tree.c **** 
 424:..\..\..\arduinoLCD\test\Pain Drain\libraries\lvgl\src\core/lv_obj_tree.c **** static lv_obj_tree_walk_res_t walk_core(lv_obj_t * obj, lv_obj_tree_walk_cb_t cb, void * user_data)
 425:..\..\..\arduinoLCD\test\Pain Drain\libraries\lvgl\src\core/lv_obj_tree.c **** {
 405              		.loc 1 425 0
 406              		.cfi_startproc
 407              		@ args = 0, pretend = 0, frame = 0
 408              		@ frame_needed = 0, uses_anonymous_args = 0
 409              	.LVL53:
ARM GAS  C:\Users\haske\AppData\Local\Temp\ccU9uRZG.s 			page 20


 410 0000 F8B5     		push	{r3, r4, r5, r6, r7, lr}
 411              		.cfi_def_cfa_offset 24
 412              		.cfi_offset 3, -24
 413              		.cfi_offset 4, -20
 414              		.cfi_offset 5, -16
 415              		.cfi_offset 6, -12
 416              		.cfi_offset 7, -8
 417              		.cfi_offset 14, -4
 418 0002 0500     		movs	r5, r0
 419 0004 0E00     		movs	r6, r1
 420 0006 1700     		movs	r7, r2
 421              	.LVL54:
 426:..\..\..\arduinoLCD\test\Pain Drain\libraries\lvgl\src\core/lv_obj_tree.c ****     lv_obj_tree_walk_res_t res = LV_OBJ_TREE_WALK_NEXT;
 427:..\..\..\arduinoLCD\test\Pain Drain\libraries\lvgl\src\core/lv_obj_tree.c **** 
 428:..\..\..\arduinoLCD\test\Pain Drain\libraries\lvgl\src\core/lv_obj_tree.c ****     if(obj == NULL) {
 422              		.loc 1 428 0
 423 0008 0028     		cmp	r0, #0
 424 000a 19D1     		bne	.L34
 425              	.LBB24:
 429:..\..\..\arduinoLCD\test\Pain Drain\libraries\lvgl\src\core/lv_obj_tree.c ****         lv_disp_t * disp = lv_disp_get_next(NULL);
 426              		.loc 1 429 0
 427 000c 0020     		movs	r0, #0
 428              	.LVL55:
 429 000e FFF7FEFF 		bl	lv_disp_get_next
 430              	.LVL56:
 431 0012 0500     		movs	r5, r0
 432              	.LVL57:
 430:..\..\..\arduinoLCD\test\Pain Drain\libraries\lvgl\src\core/lv_obj_tree.c ****         while(disp) {
 433              		.loc 1 430 0
 434 0014 10E0     		b	.L35
 435              	.LVL58:
 436              	.L36:
 437              	.LBB25:
 431:..\..\..\arduinoLCD\test\Pain Drain\libraries\lvgl\src\core/lv_obj_tree.c ****             uint32_t i;
 432:..\..\..\arduinoLCD\test\Pain Drain\libraries\lvgl\src\core/lv_obj_tree.c ****             for(i = 0; i < disp->screen_cnt; i++) {
 433:..\..\..\arduinoLCD\test\Pain Drain\libraries\lvgl\src\core/lv_obj_tree.c ****                 walk_core(disp->screens[i], cb, user_data);
 438              		.loc 1 433 0 discriminator 3
 439 0016 A300     		lsls	r3, r4, #2
 440 0018 EA68     		ldr	r2, [r5, #12]
 441 001a D058     		ldr	r0, [r2, r3]
 442 001c 3A00     		movs	r2, r7
 443 001e 3100     		movs	r1, r6
 444 0020 FFF7EEFF 		bl	walk_core
 445              	.LVL59:
 432:..\..\..\arduinoLCD\test\Pain Drain\libraries\lvgl\src\core/lv_obj_tree.c ****                 walk_core(disp->screens[i], cb, user_data);
 446              		.loc 1 432 0 discriminator 3
 447 0024 0134     		adds	r4, r4, #1
 448              	.LVL60:
 449 0026 00E0     		b	.L37
 450              	.LVL61:
 451              	.L41:
 452              	.LBE25:
 453 0028 0024     		movs	r4, #0
 454              	.LVL62:
 455              	.L37:
 456              	.LBB26:
 432:..\..\..\arduinoLCD\test\Pain Drain\libraries\lvgl\src\core/lv_obj_tree.c ****                 walk_core(disp->screens[i], cb, user_data);
ARM GAS  C:\Users\haske\AppData\Local\Temp\ccU9uRZG.s 			page 21


 457              		.loc 1 432 0 is_stmt 0 discriminator 1
 458 002a 6B6A     		ldr	r3, [r5, #36]
 459 002c 9C42     		cmp	r4, r3
 460 002e F2D3     		bcc	.L36
 434:..\..\..\arduinoLCD\test\Pain Drain\libraries\lvgl\src\core/lv_obj_tree.c ****             }
 435:..\..\..\arduinoLCD\test\Pain Drain\libraries\lvgl\src\core/lv_obj_tree.c ****             disp = lv_disp_get_next(disp);
 461              		.loc 1 435 0 is_stmt 1
 462 0030 2800     		movs	r0, r5
 463 0032 FFF7FEFF 		bl	lv_disp_get_next
 464              	.LVL63:
 465 0036 0500     		movs	r5, r0
 466              	.LVL64:
 467              	.L35:
 468              	.LBE26:
 430:..\..\..\arduinoLCD\test\Pain Drain\libraries\lvgl\src\core/lv_obj_tree.c ****             uint32_t i;
 469              		.loc 1 430 0
 470 0038 002D     		cmp	r5, #0
 471 003a F5D1     		bne	.L41
 436:..\..\..\arduinoLCD\test\Pain Drain\libraries\lvgl\src\core/lv_obj_tree.c ****         }
 437:..\..\..\arduinoLCD\test\Pain Drain\libraries\lvgl\src\core/lv_obj_tree.c ****         return LV_OBJ_TREE_WALK_END;    /*The value doesn't matter as it wasn't called recursively*
 472              		.loc 1 437 0
 473 003c 0220     		movs	r0, #2
 474              	.LVL65:
 475 003e 1EE0     		b	.L38
 476              	.LVL66:
 477              	.L34:
 478              	.LBE24:
 438:..\..\..\arduinoLCD\test\Pain Drain\libraries\lvgl\src\core/lv_obj_tree.c ****     }
 439:..\..\..\arduinoLCD\test\Pain Drain\libraries\lvgl\src\core/lv_obj_tree.c **** 
 440:..\..\..\arduinoLCD\test\Pain Drain\libraries\lvgl\src\core/lv_obj_tree.c ****     res = cb(obj, user_data);
 479              		.loc 1 440 0
 480 0040 1100     		movs	r1, r2
 481              	.LVL67:
 482 0042 B047     		blx	r6
 483              	.LVL68:
 441:..\..\..\arduinoLCD\test\Pain Drain\libraries\lvgl\src\core/lv_obj_tree.c **** 
 442:..\..\..\arduinoLCD\test\Pain Drain\libraries\lvgl\src\core/lv_obj_tree.c ****     if(res == LV_OBJ_TREE_WALK_END) return LV_OBJ_TREE_WALK_END;
 484              		.loc 1 442 0
 485 0044 0228     		cmp	r0, #2
 486 0046 17D0     		beq	.L42
 443:..\..\..\arduinoLCD\test\Pain Drain\libraries\lvgl\src\core/lv_obj_tree.c **** 
 444:..\..\..\arduinoLCD\test\Pain Drain\libraries\lvgl\src\core/lv_obj_tree.c ****     if(res != LV_OBJ_TREE_WALK_SKIP_CHILDREN) {
 487              		.loc 1 444 0
 488 0048 0128     		cmp	r0, #1
 489 004a 0DD1     		bne	.L43
 445:..\..\..\arduinoLCD\test\Pain Drain\libraries\lvgl\src\core/lv_obj_tree.c ****         uint32_t i;
 446:..\..\..\arduinoLCD\test\Pain Drain\libraries\lvgl\src\core/lv_obj_tree.c ****         for(i = 0; i < lv_obj_get_child_cnt(obj); i++) {
 447:..\..\..\arduinoLCD\test\Pain Drain\libraries\lvgl\src\core/lv_obj_tree.c ****             res = walk_core(lv_obj_get_child(obj, i), cb, user_data);
 448:..\..\..\arduinoLCD\test\Pain Drain\libraries\lvgl\src\core/lv_obj_tree.c ****             if(res == LV_OBJ_TREE_WALK_END) return LV_OBJ_TREE_WALK_END;
 449:..\..\..\arduinoLCD\test\Pain Drain\libraries\lvgl\src\core/lv_obj_tree.c ****         }
 450:..\..\..\arduinoLCD\test\Pain Drain\libraries\lvgl\src\core/lv_obj_tree.c ****     }
 451:..\..\..\arduinoLCD\test\Pain Drain\libraries\lvgl\src\core/lv_obj_tree.c ****     return LV_OBJ_TREE_WALK_NEXT;
 490              		.loc 1 451 0
 491 004c 0020     		movs	r0, #0
 492              	.LVL69:
 493 004e 16E0     		b	.L38
 494              	.LVL70:
ARM GAS  C:\Users\haske\AppData\Local\Temp\ccU9uRZG.s 			page 22


 495              	.L40:
 496              	.LBB27:
 447:..\..\..\arduinoLCD\test\Pain Drain\libraries\lvgl\src\core/lv_obj_tree.c ****             if(res == LV_OBJ_TREE_WALK_END) return LV_OBJ_TREE_WALK_END;
 497              		.loc 1 447 0
 498 0050 2100     		movs	r1, r4
 499 0052 2800     		movs	r0, r5
 500 0054 FFF7FEFF 		bl	lv_obj_get_child
 501              	.LVL71:
 502 0058 3A00     		movs	r2, r7
 503 005a 3100     		movs	r1, r6
 504 005c FFF7D0FF 		bl	walk_core
 505              	.LVL72:
 448:..\..\..\arduinoLCD\test\Pain Drain\libraries\lvgl\src\core/lv_obj_tree.c ****         }
 506              		.loc 1 448 0
 507 0060 0228     		cmp	r0, #2
 508 0062 0BD0     		beq	.L44
 446:..\..\..\arduinoLCD\test\Pain Drain\libraries\lvgl\src\core/lv_obj_tree.c ****             res = walk_core(lv_obj_get_child(obj, i), cb, user_data);
 509              		.loc 1 446 0 discriminator 2
 510 0064 0134     		adds	r4, r4, #1
 511              	.LVL73:
 512 0066 00E0     		b	.L39
 513              	.LVL74:
 514              	.L43:
 515              	.LBE27:
 516 0068 0024     		movs	r4, #0
 517              	.LVL75:
 518              	.L39:
 519              	.LBB28:
 446:..\..\..\arduinoLCD\test\Pain Drain\libraries\lvgl\src\core/lv_obj_tree.c ****             res = walk_core(lv_obj_get_child(obj, i), cb, user_data);
 520              		.loc 1 446 0 is_stmt 0 discriminator 1
 521 006a 2800     		movs	r0, r5
 522 006c FFF7FEFF 		bl	lv_obj_get_child_cnt
 523              	.LVL76:
 524 0070 8442     		cmp	r4, r0
 525 0072 EDD3     		bcc	.L40
 526              	.LBE28:
 527              		.loc 1 451 0 is_stmt 1
 528 0074 0020     		movs	r0, #0
 529              	.LBB29:
 530 0076 02E0     		b	.L38
 531              	.LVL77:
 532              	.L42:
 533              	.LBE29:
 442:..\..\..\arduinoLCD\test\Pain Drain\libraries\lvgl\src\core/lv_obj_tree.c **** 
 534              		.loc 1 442 0
 535 0078 0220     		movs	r0, #2
 536              	.LVL78:
 537 007a 00E0     		b	.L38
 538              	.LVL79:
 539              	.L44:
 540              	.LBB30:
 448:..\..\..\arduinoLCD\test\Pain Drain\libraries\lvgl\src\core/lv_obj_tree.c ****         }
 541              		.loc 1 448 0
 542 007c 0220     		movs	r0, #2
 543              	.LVL80:
 544              	.L38:
 545              	.LBE30:
ARM GAS  C:\Users\haske\AppData\Local\Temp\ccU9uRZG.s 			page 23


 452:..\..\..\arduinoLCD\test\Pain Drain\libraries\lvgl\src\core/lv_obj_tree.c **** }
 546              		.loc 1 452 0
 547              		@ sp needed
 548              	.LVL81:
 549              	.LVL82:
 550 007e F8BD     		pop	{r3, r4, r5, r6, r7, pc}
 551              		.cfi_endproc
 552              	.LFE176:
 553              		.size	walk_core, .-walk_core
 554              		.section	.text.lv_obj_get_index,"ax",%progbits
 555              		.align	2
 556              		.global	lv_obj_get_index
 557              		.code	16
 558              		.thumb_func
 559              		.type	lv_obj_get_index, %function
 560              	lv_obj_get_index:
 561              	.LFB172:
 327:..\..\..\arduinoLCD\test\Pain Drain\libraries\lvgl\src\core/lv_obj_tree.c ****     LV_ASSERT_OBJ(obj, MY_CLASS);
 562              		.loc 1 327 0
 563              		.cfi_startproc
 564              		@ args = 0, pretend = 0, frame = 0
 565              		@ frame_needed = 0, uses_anonymous_args = 0
 566              	.LVL83:
 567 0000 70B5     		push	{r4, r5, r6, lr}
 568              		.cfi_def_cfa_offset 16
 569              		.cfi_offset 4, -16
 570              		.cfi_offset 5, -12
 571              		.cfi_offset 6, -8
 572              		.cfi_offset 14, -4
 573 0002 0600     		movs	r6, r0
 330:..\..\..\arduinoLCD\test\Pain Drain\libraries\lvgl\src\core/lv_obj_tree.c ****     if(parent == NULL) return 0;
 574              		.loc 1 330 0
 575 0004 FFF7FEFF 		bl	lv_obj_get_parent
 576              	.LVL84:
 577 0008 051E     		subs	r5, r0, #0
 578              	.LVL85:
 331:..\..\..\arduinoLCD\test\Pain Drain\libraries\lvgl\src\core/lv_obj_tree.c **** 
 579              		.loc 1 331 0
 580 000a 10D0     		beq	.L49
 581 000c 0024     		movs	r4, #0
 582 000e 06E0     		b	.L47
 583              	.LVL86:
 584              	.L48:
 335:..\..\..\arduinoLCD\test\Pain Drain\libraries\lvgl\src\core/lv_obj_tree.c ****     }
 585              		.loc 1 335 0
 586 0010 2100     		movs	r1, r4
 587 0012 2800     		movs	r0, r5
 588 0014 FFF7FEFF 		bl	lv_obj_get_child
 589              	.LVL87:
 590 0018 8642     		cmp	r6, r0
 591 001a 0AD0     		beq	.L50
 334:..\..\..\arduinoLCD\test\Pain Drain\libraries\lvgl\src\core/lv_obj_tree.c ****         if(lv_obj_get_child(parent, i) == obj) return i;
 592              		.loc 1 334 0 discriminator 2
 593 001c 0134     		adds	r4, r4, #1
 594              	.LVL88:
 595              	.L47:
 334:..\..\..\arduinoLCD\test\Pain Drain\libraries\lvgl\src\core/lv_obj_tree.c ****         if(lv_obj_get_child(parent, i) == obj) return i;
ARM GAS  C:\Users\haske\AppData\Local\Temp\ccU9uRZG.s 			page 24


 596              		.loc 1 334 0 is_stmt 0 discriminator 1
 597 001e 2800     		movs	r0, r5
 598 0020 FFF7FEFF 		bl	lv_obj_get_child_cnt
 599              	.LVL89:
 600 0024 8442     		cmp	r4, r0
 601 0026 F3D3     		bcc	.L48
 338:..\..\..\arduinoLCD\test\Pain Drain\libraries\lvgl\src\core/lv_obj_tree.c **** }
 602              		.loc 1 338 0 is_stmt 1
 603 0028 0120     		movs	r0, #1
 604 002a 4042     		rsbs	r0, r0, #0
 605 002c 02E0     		b	.L46
 606              	.LVL90:
 607              	.L49:
 331:..\..\..\arduinoLCD\test\Pain Drain\libraries\lvgl\src\core/lv_obj_tree.c **** 
 608              		.loc 1 331 0
 609 002e 0020     		movs	r0, #0
 610              	.LVL91:
 611 0030 00E0     		b	.L46
 612              	.LVL92:
 613              	.L50:
 335:..\..\..\arduinoLCD\test\Pain Drain\libraries\lvgl\src\core/lv_obj_tree.c ****     }
 614              		.loc 1 335 0
 615 0032 2000     		movs	r0, r4
 616              	.LVL93:
 617              	.L46:
 339:..\..\..\arduinoLCD\test\Pain Drain\libraries\lvgl\src\core/lv_obj_tree.c **** 
 618              		.loc 1 339 0
 619              		@ sp needed
 620              	.LVL94:
 621              	.LVL95:
 622 0034 70BD     		pop	{r4, r5, r6, pc}
 623              		.cfi_endproc
 624              	.LFE172:
 625              		.size	lv_obj_get_index, .-lv_obj_get_index
 626 0036 C046     		.section	.text.obj_del_core,"ax",%progbits
 627              		.align	2
 628              		.code	16
 629              		.thumb_func
 630              		.type	obj_del_core, %function
 631              	obj_del_core:
 632              	.LFB175:
 358:..\..\..\arduinoLCD\test\Pain Drain\libraries\lvgl\src\core/lv_obj_tree.c ****     /*Let the user free the resources used in `LV_EVENT_DELETE`*/
 633              		.loc 1 358 0
 634              		.cfi_startproc
 635              		@ args = 0, pretend = 0, frame = 0
 636              		@ frame_needed = 0, uses_anonymous_args = 0
 637              	.LVL96:
 638 0000 70B5     		push	{r4, r5, r6, lr}
 639              		.cfi_def_cfa_offset 16
 640              		.cfi_offset 4, -16
 641              		.cfi_offset 5, -12
 642              		.cfi_offset 6, -8
 643              		.cfi_offset 14, -4
 644 0002 0500     		movs	r5, r0
 360:..\..\..\arduinoLCD\test\Pain Drain\libraries\lvgl\src\core/lv_obj_tree.c ****     if(res == LV_RES_INV) return;
 645              		.loc 1 360 0
 646 0004 0022     		movs	r2, #0
ARM GAS  C:\Users\haske\AppData\Local\Temp\ccU9uRZG.s 			page 25


 647 0006 2121     		movs	r1, #33
 648 0008 FFF7FEFF 		bl	lv_event_send
 649              	.LVL97:
 361:..\..\..\arduinoLCD\test\Pain Drain\libraries\lvgl\src\core/lv_obj_tree.c **** 
 650              		.loc 1 361 0
 651 000c 0028     		cmp	r0, #0
 652 000e 78D0     		beq	.L51
 364:..\..\..\arduinoLCD\test\Pain Drain\libraries\lvgl\src\core/lv_obj_tree.c ****     while(child) {
 653              		.loc 1 364 0
 654 0010 0021     		movs	r1, #0
 655 0012 2800     		movs	r0, r5
 656              	.LVL98:
 657 0014 FFF7FEFF 		bl	lv_obj_get_child
 658              	.LVL99:
 365:..\..\..\arduinoLCD\test\Pain Drain\libraries\lvgl\src\core/lv_obj_tree.c ****         obj_del_core(child);
 659              		.loc 1 365 0
 660 0018 05E0     		b	.L53
 661              	.L54:
 366:..\..\..\arduinoLCD\test\Pain Drain\libraries\lvgl\src\core/lv_obj_tree.c ****         child = lv_obj_get_child(obj, 0);
 662              		.loc 1 366 0
 663 001a FFF7F1FF 		bl	obj_del_core
 664              	.LVL100:
 367:..\..\..\arduinoLCD\test\Pain Drain\libraries\lvgl\src\core/lv_obj_tree.c ****     }
 665              		.loc 1 367 0
 666 001e 0021     		movs	r1, #0
 667 0020 2800     		movs	r0, r5
 668 0022 FFF7FEFF 		bl	lv_obj_get_child
 669              	.LVL101:
 670              	.L53:
 365:..\..\..\arduinoLCD\test\Pain Drain\libraries\lvgl\src\core/lv_obj_tree.c ****         obj_del_core(child);
 671              		.loc 1 365 0
 672 0026 0028     		cmp	r0, #0
 673 0028 F7D1     		bne	.L54
 370:..\..\..\arduinoLCD\test\Pain Drain\libraries\lvgl\src\core/lv_obj_tree.c **** 
 674              		.loc 1 370 0
 675 002a 2800     		movs	r0, r5
 676              	.LVL102:
 677 002c FFF7FEFF 		bl	lv_obj_get_group
 678              	.LVL103:
 679 0030 0600     		movs	r6, r0
 680              	.LVL104:
 373:..\..\..\arduinoLCD\test\Pain Drain\libraries\lvgl\src\core/lv_obj_tree.c ****     while(indev) {
 681              		.loc 1 373 0
 682 0032 0020     		movs	r0, #0
 683              	.LVL105:
 684 0034 FFF7FEFF 		bl	lv_indev_get_next
 685              	.LVL106:
 686 0038 0400     		movs	r4, r0
 687              	.LVL107:
 374:..\..\..\arduinoLCD\test\Pain Drain\libraries\lvgl\src\core/lv_obj_tree.c ****         if(indev->proc.types.pointer.act_obj == obj || indev->proc.types.pointer.last_obj == obj) {
 688              		.loc 1 374 0
 689 003a 1DE0     		b	.L55
 690              	.L60:
 375:..\..\..\arduinoLCD\test\Pain Drain\libraries\lvgl\src\core/lv_obj_tree.c ****             lv_indev_reset(indev, obj);
 691              		.loc 1 375 0
 692 003c A36A     		ldr	r3, [r4, #40]
 693 003e 9D42     		cmp	r5, r3
ARM GAS  C:\Users\haske\AppData\Local\Temp\ccU9uRZG.s 			page 26


 694 0040 02D0     		beq	.L56
 375:..\..\..\arduinoLCD\test\Pain Drain\libraries\lvgl\src\core/lv_obj_tree.c ****             lv_indev_reset(indev, obj);
 695              		.loc 1 375 0 is_stmt 0 discriminator 1
 696 0042 E36A     		ldr	r3, [r4, #44]
 697 0044 9D42     		cmp	r5, r3
 698 0046 03D1     		bne	.L57
 699              	.L56:
 376:..\..\..\arduinoLCD\test\Pain Drain\libraries\lvgl\src\core/lv_obj_tree.c ****         }
 700              		.loc 1 376 0 is_stmt 1
 701 0048 2900     		movs	r1, r5
 702 004a 2000     		movs	r0, r4
 703              	.LVL108:
 704 004c FFF7FEFF 		bl	lv_indev_reset
 705              	.LVL109:
 706              	.L57:
 378:..\..\..\arduinoLCD\test\Pain Drain\libraries\lvgl\src\core/lv_obj_tree.c ****             indev->proc.types.pointer.last_pressed = NULL;
 707              		.loc 1 378 0
 708 0050 636B     		ldr	r3, [r4, #52]
 709 0052 9D42     		cmp	r5, r3
 710 0054 01D1     		bne	.L58
 379:..\..\..\arduinoLCD\test\Pain Drain\libraries\lvgl\src\core/lv_obj_tree.c ****         }
 711              		.loc 1 379 0
 712 0056 0023     		movs	r3, #0
 713 0058 6363     		str	r3, [r4, #52]
 714              	.L58:
 382:..\..\..\arduinoLCD\test\Pain Drain\libraries\lvgl\src\core/lv_obj_tree.c ****             lv_indev_reset(indev, obj);
 715              		.loc 1 382 0
 716 005a 636D     		ldr	r3, [r4, #84]
 717 005c 9E42     		cmp	r6, r3
 718 005e 07D1     		bne	.L59
 382:..\..\..\arduinoLCD\test\Pain Drain\libraries\lvgl\src\core/lv_obj_tree.c ****             lv_indev_reset(indev, obj);
 719              		.loc 1 382 0 is_stmt 0 discriminator 1
 720 0060 FFF7FEFF 		bl	lv_indev_get_obj_act
 721              	.LVL110:
 722 0064 8542     		cmp	r5, r0
 723 0066 03D1     		bne	.L59
 383:..\..\..\arduinoLCD\test\Pain Drain\libraries\lvgl\src\core/lv_obj_tree.c ****         }
 724              		.loc 1 383 0 is_stmt 1
 725 0068 2900     		movs	r1, r5
 726 006a 2000     		movs	r0, r4
 727 006c FFF7FEFF 		bl	lv_indev_reset
 728              	.LVL111:
 729              	.L59:
 385:..\..\..\arduinoLCD\test\Pain Drain\libraries\lvgl\src\core/lv_obj_tree.c ****     }
 730              		.loc 1 385 0
 731 0070 2000     		movs	r0, r4
 732 0072 FFF7FEFF 		bl	lv_indev_get_next
 733              	.LVL112:
 734 0076 0400     		movs	r4, r0
 735              	.LVL113:
 736              	.L55:
 374:..\..\..\arduinoLCD\test\Pain Drain\libraries\lvgl\src\core/lv_obj_tree.c ****         if(indev->proc.types.pointer.act_obj == obj || indev->proc.types.pointer.last_obj == obj) {
 737              		.loc 1 374 0
 738 0078 002C     		cmp	r4, #0
 739 007a DFD1     		bne	.L60
 389:..\..\..\arduinoLCD\test\Pain Drain\libraries\lvgl\src\core/lv_obj_tree.c **** 
 740              		.loc 1 389 0
ARM GAS  C:\Users\haske\AppData\Local\Temp\ccU9uRZG.s 			page 27


 741 007c 2800     		movs	r0, r5
 742              	.LVL114:
 743 007e FFF7FEFF 		bl	_lv_obj_destruct
 744              	.LVL115:
 392:..\..\..\arduinoLCD\test\Pain Drain\libraries\lvgl\src\core/lv_obj_tree.c ****         lv_disp_t * disp = lv_obj_get_disp(obj);
 745              		.loc 1 392 0
 746 0082 6B68     		ldr	r3, [r5, #4]
 747 0084 002B     		cmp	r3, #0
 748 0086 20D1     		bne	.L61
 749              	.LBB31:
 393:..\..\..\arduinoLCD\test\Pain Drain\libraries\lvgl\src\core/lv_obj_tree.c ****         uint32_t i;
 750              		.loc 1 393 0
 751 0088 2800     		movs	r0, r5
 752 008a FFF7FEFF 		bl	lv_obj_get_disp
 753              	.LVL116:
 754 008e 0400     		movs	r4, r0
 755              	.LVL117:
 396:..\..\..\arduinoLCD\test\Pain Drain\libraries\lvgl\src\core/lv_obj_tree.c ****             if(disp->screens[i] == obj) break;
 756              		.loc 1 396 0
 757 0090 0023     		movs	r3, #0
 758 0092 05E0     		b	.L62
 759              	.LVL118:
 760              	.L64:
 397:..\..\..\arduinoLCD\test\Pain Drain\libraries\lvgl\src\core/lv_obj_tree.c ****         }
 761              		.loc 1 397 0
 762 0094 9A00     		lsls	r2, r3, #2
 763 0096 E168     		ldr	r1, [r4, #12]
 764 0098 5258     		ldr	r2, [r2, r1]
 765 009a 9542     		cmp	r5, r2
 766 009c 0AD0     		beq	.L63
 396:..\..\..\arduinoLCD\test\Pain Drain\libraries\lvgl\src\core/lv_obj_tree.c ****             if(disp->screens[i] == obj) break;
 767              		.loc 1 396 0 discriminator 2
 768 009e 0133     		adds	r3, r3, #1
 769              	.LVL119:
 770              	.L62:
 396:..\..\..\arduinoLCD\test\Pain Drain\libraries\lvgl\src\core/lv_obj_tree.c ****             if(disp->screens[i] == obj) break;
 771              		.loc 1 396 0 is_stmt 0 discriminator 1
 772 00a0 626A     		ldr	r2, [r4, #36]
 773 00a2 9342     		cmp	r3, r2
 774 00a4 F6D3     		bcc	.L64
 775 00a6 05E0     		b	.L63
 776              	.LVL120:
 777              	.L65:
 402:..\..\..\arduinoLCD\test\Pain Drain\libraries\lvgl\src\core/lv_obj_tree.c ****         }
 778              		.loc 1 402 0 is_stmt 1 discriminator 3
 779 00a8 E268     		ldr	r2, [r4, #12]
 780 00aa 9900     		lsls	r1, r3, #2
 781 00ac 0133     		adds	r3, r3, #1
 782              	.LVL121:
 783 00ae 9800     		lsls	r0, r3, #2
 784 00b0 8058     		ldr	r0, [r0, r2]
 785 00b2 5050     		str	r0, [r2, r1]
 786              	.LVL122:
 787              	.L63:
 401:..\..\..\arduinoLCD\test\Pain Drain\libraries\lvgl\src\core/lv_obj_tree.c ****             disp->screens[i] = disp->screens[i + 1];
 788              		.loc 1 401 0 discriminator 1
 789 00b4 626A     		ldr	r2, [r4, #36]
ARM GAS  C:\Users\haske\AppData\Local\Temp\ccU9uRZG.s 			page 28


 790 00b6 511E     		subs	r1, r2, #1
 791 00b8 8B42     		cmp	r3, r1
 792 00ba F5D3     		bcc	.L65
 404:..\..\..\arduinoLCD\test\Pain Drain\libraries\lvgl\src\core/lv_obj_tree.c ****         disp->screens = lv_mem_realloc(disp->screens, disp->screen_cnt * sizeof(lv_obj_t *));
 793              		.loc 1 404 0
 794 00bc 6162     		str	r1, [r4, #36]
 405:..\..\..\arduinoLCD\test\Pain Drain\libraries\lvgl\src\core/lv_obj_tree.c ****     }
 795              		.loc 1 405 0
 796 00be 8900     		lsls	r1, r1, #2
 797 00c0 E068     		ldr	r0, [r4, #12]
 798 00c2 FFF7FEFF 		bl	lv_mem_realloc
 799              	.LVL123:
 800 00c6 E060     		str	r0, [r4, #12]
 801              	.LBE31:
 802 00c8 18E0     		b	.L66
 803              	.LVL124:
 804              	.L61:
 805              	.LBB32:
 409:..\..\..\arduinoLCD\test\Pain Drain\libraries\lvgl\src\core/lv_obj_tree.c ****         uint32_t i;
 806              		.loc 1 409 0
 807 00ca 2800     		movs	r0, r5
 808 00cc FFF7FEFF 		bl	lv_obj_get_index
 809              	.LVL125:
 411:..\..\..\arduinoLCD\test\Pain Drain\libraries\lvgl\src\core/lv_obj_tree.c ****             obj->parent->spec_attr->children[i] = obj->parent->spec_attr->children[i + 1];
 810              		.loc 1 411 0
 811 00d0 05E0     		b	.L67
 812              	.LVL126:
 813              	.L68:
 412:..\..\..\arduinoLCD\test\Pain Drain\libraries\lvgl\src\core/lv_obj_tree.c ****         }
 814              		.loc 1 412 0 discriminator 3
 815 00d2 1368     		ldr	r3, [r2]
 816 00d4 8200     		lsls	r2, r0, #2
 817 00d6 0130     		adds	r0, r0, #1
 818              	.LVL127:
 819 00d8 8100     		lsls	r1, r0, #2
 820 00da C958     		ldr	r1, [r1, r3]
 821 00dc 9950     		str	r1, [r3, r2]
 822              	.LVL128:
 823              	.L67:
 411:..\..\..\arduinoLCD\test\Pain Drain\libraries\lvgl\src\core/lv_obj_tree.c ****             obj->parent->spec_attr->children[i] = obj->parent->spec_attr->children[i + 1];
 824              		.loc 1 411 0 discriminator 1
 825 00de 6B68     		ldr	r3, [r5, #4]
 826 00e0 9A68     		ldr	r2, [r3, #8]
 827 00e2 5368     		ldr	r3, [r2, #4]
 828 00e4 013B     		subs	r3, r3, #1
 829 00e6 9842     		cmp	r0, r3
 830 00e8 F3D3     		bcc	.L68
 414:..\..\..\arduinoLCD\test\Pain Drain\libraries\lvgl\src\core/lv_obj_tree.c ****         obj->parent->spec_attr->children = lv_mem_realloc(obj->parent->spec_attr->children,
 831              		.loc 1 414 0
 832 00ea 5360     		str	r3, [r2, #4]
 415:..\..\..\arduinoLCD\test\Pain Drain\libraries\lvgl\src\core/lv_obj_tree.c ****                                                           obj->parent->spec_attr->child_cnt * sizeo
 833              		.loc 1 415 0
 834 00ec 6B68     		ldr	r3, [r5, #4]
 835 00ee 9C68     		ldr	r4, [r3, #8]
 836              	.LVL129:
 416:..\..\..\arduinoLCD\test\Pain Drain\libraries\lvgl\src\core/lv_obj_tree.c ****     }
 837              		.loc 1 416 0
ARM GAS  C:\Users\haske\AppData\Local\Temp\ccU9uRZG.s 			page 29


 838 00f0 6368     		ldr	r3, [r4, #4]
 839 00f2 9900     		lsls	r1, r3, #2
 415:..\..\..\arduinoLCD\test\Pain Drain\libraries\lvgl\src\core/lv_obj_tree.c ****                                                           obj->parent->spec_attr->child_cnt * sizeo
 840              		.loc 1 415 0
 841 00f4 2068     		ldr	r0, [r4]
 842              	.LVL130:
 843 00f6 FFF7FEFF 		bl	lv_mem_realloc
 844              	.LVL131:
 845 00fa 2060     		str	r0, [r4]
 846              	.L66:
 847              	.LBE32:
 420:..\..\..\arduinoLCD\test\Pain Drain\libraries\lvgl\src\core/lv_obj_tree.c **** }
 848              		.loc 1 420 0
 849 00fc 2800     		movs	r0, r5
 850 00fe FFF7FEFF 		bl	lv_mem_free
 851              	.LVL132:
 852              	.L51:
 421:..\..\..\arduinoLCD\test\Pain Drain\libraries\lvgl\src\core/lv_obj_tree.c **** 
 853              		.loc 1 421 0
 854              		@ sp needed
 855              	.LVL133:
 856 0102 70BD     		pop	{r4, r5, r6, pc}
 857              		.cfi_endproc
 858              	.LFE175:
 859              		.size	obj_del_core, .-obj_del_core
 860              		.section	.text.lv_obj_del,"ax",%progbits
 861              		.align	2
 862              		.global	lv_obj_del
 863              		.code	16
 864              		.thumb_func
 865              		.type	lv_obj_del, %function
 866              	lv_obj_del:
 867              	.LFB159:
  46:..\..\..\arduinoLCD\test\Pain Drain\libraries\lvgl\src\core/lv_obj_tree.c ****     LV_LOG_TRACE("begin (delete %p)", (void *)obj);
 868              		.loc 1 46 0
 869              		.cfi_startproc
 870              		@ args = 0, pretend = 0, frame = 0
 871              		@ frame_needed = 0, uses_anonymous_args = 0
 872              	.LVL134:
 873 0000 F8B5     		push	{r3, r4, r5, r6, r7, lr}
 874              		.cfi_def_cfa_offset 24
 875              		.cfi_offset 3, -24
 876              		.cfi_offset 4, -20
 877              		.cfi_offset 5, -16
 878              		.cfi_offset 6, -12
 879              		.cfi_offset 7, -8
 880              		.cfi_offset 14, -4
 881 0002 0500     		movs	r5, r0
  49:..\..\..\arduinoLCD\test\Pain Drain\libraries\lvgl\src\core/lv_obj_tree.c **** 
 882              		.loc 1 49 0
 883 0004 FFF7FEFF 		bl	lv_obj_invalidate
 884              	.LVL135:
  51:..\..\..\arduinoLCD\test\Pain Drain\libraries\lvgl\src\core/lv_obj_tree.c ****     if(par) {
 885              		.loc 1 51 0
 886 0008 2800     		movs	r0, r5
 887 000a FFF7FEFF 		bl	lv_obj_get_parent
 888              	.LVL136:
ARM GAS  C:\Users\haske\AppData\Local\Temp\ccU9uRZG.s 			page 30


 889 000e 041E     		subs	r4, r0, #0
 890              	.LVL137:
  52:..\..\..\arduinoLCD\test\Pain Drain\libraries\lvgl\src\core/lv_obj_tree.c ****         lv_obj_scrollbar_invalidate(par);
 891              		.loc 1 52 0
 892 0010 01D0     		beq	.L70
  53:..\..\..\arduinoLCD\test\Pain Drain\libraries\lvgl\src\core/lv_obj_tree.c ****     }
 893              		.loc 1 53 0
 894 0012 FFF7FEFF 		bl	lv_obj_scrollbar_invalidate
 895              	.LVL138:
 896              	.L70:
  58:..\..\..\arduinoLCD\test\Pain Drain\libraries\lvgl\src\core/lv_obj_tree.c ****         disp = lv_obj_get_disp(obj);
 897              		.loc 1 58 0
 898 0016 002C     		cmp	r4, #0
 899 0018 09D1     		bne	.L74
  59:..\..\..\arduinoLCD\test\Pain Drain\libraries\lvgl\src\core/lv_obj_tree.c ****         if(!disp) return;   /*Shouldn't happen*/
 900              		.loc 1 59 0
 901 001a 2800     		movs	r0, r5
 902 001c FFF7FEFF 		bl	lv_obj_get_disp
 903              	.LVL139:
 904 0020 071E     		subs	r7, r0, #0
 905              	.LVL140:
  60:..\..\..\arduinoLCD\test\Pain Drain\libraries\lvgl\src\core/lv_obj_tree.c ****         if(disp->act_scr == obj) act_scr_del = true;
 906              		.loc 1 60 0
 907 0022 25D0     		beq	.L69
  61:..\..\..\arduinoLCD\test\Pain Drain\libraries\lvgl\src\core/lv_obj_tree.c ****     }
 908              		.loc 1 61 0
 909 0024 0369     		ldr	r3, [r0, #16]
 910 0026 9D42     		cmp	r5, r3
 911 0028 04D0     		beq	.L75
  57:..\..\..\arduinoLCD\test\Pain Drain\libraries\lvgl\src\core/lv_obj_tree.c ****     if(par == NULL) {
 912              		.loc 1 57 0
 913 002a 0026     		movs	r6, #0
 914 002c 03E0     		b	.L71
 915              	.LVL141:
 916              	.L74:
 917 002e 0026     		movs	r6, #0
  56:..\..\..\arduinoLCD\test\Pain Drain\libraries\lvgl\src\core/lv_obj_tree.c ****     bool act_scr_del = false;
 918              		.loc 1 56 0
 919 0030 0027     		movs	r7, #0
 920 0032 00E0     		b	.L71
 921              	.LVL142:
 922              	.L75:
  61:..\..\..\arduinoLCD\test\Pain Drain\libraries\lvgl\src\core/lv_obj_tree.c ****     }
 923              		.loc 1 61 0
 924 0034 0126     		movs	r6, #1
 925              	.LVL143:
 926              	.L71:
  64:..\..\..\arduinoLCD\test\Pain Drain\libraries\lvgl\src\core/lv_obj_tree.c **** 
 927              		.loc 1 64 0
 928 0036 2800     		movs	r0, r5
 929 0038 FFF7FEFF 		bl	obj_del_core
 930              	.LVL144:
  67:..\..\..\arduinoLCD\test\Pain Drain\libraries\lvgl\src\core/lv_obj_tree.c ****         lv_obj_update_layout(par);
 931              		.loc 1 67 0
 932 003c 002C     		cmp	r4, #0
 933 003e 13D0     		beq	.L73
  68:..\..\..\arduinoLCD\test\Pain Drain\libraries\lvgl\src\core/lv_obj_tree.c ****         lv_obj_readjust_scroll(par, LV_ANIM_OFF);
ARM GAS  C:\Users\haske\AppData\Local\Temp\ccU9uRZG.s 			page 31


 934              		.loc 1 68 0
 935 0040 2000     		movs	r0, r4
 936 0042 FFF7FEFF 		bl	lv_obj_update_layout
 937              	.LVL145:
  69:..\..\..\arduinoLCD\test\Pain Drain\libraries\lvgl\src\core/lv_obj_tree.c ****         lv_obj_scrollbar_invalidate(par);
 938              		.loc 1 69 0
 939 0046 0021     		movs	r1, #0
 940 0048 2000     		movs	r0, r4
 941 004a FFF7FEFF 		bl	lv_obj_readjust_scroll
 942              	.LVL146:
  70:..\..\..\arduinoLCD\test\Pain Drain\libraries\lvgl\src\core/lv_obj_tree.c ****         lv_event_send(par, LV_EVENT_CHILD_CHANGED, NULL);
 943              		.loc 1 70 0
 944 004e 2000     		movs	r0, r4
 945 0050 FFF7FEFF 		bl	lv_obj_scrollbar_invalidate
 946              	.LVL147:
  71:..\..\..\arduinoLCD\test\Pain Drain\libraries\lvgl\src\core/lv_obj_tree.c ****         lv_event_send(par, LV_EVENT_CHILD_DELETED, NULL);
 947              		.loc 1 71 0
 948 0054 0022     		movs	r2, #0
 949 0056 2221     		movs	r1, #34
 950 0058 2000     		movs	r0, r4
 951 005a FFF7FEFF 		bl	lv_event_send
 952              	.LVL148:
  72:..\..\..\arduinoLCD\test\Pain Drain\libraries\lvgl\src\core/lv_obj_tree.c ****     }
 953              		.loc 1 72 0
 954 005e 0022     		movs	r2, #0
 955 0060 2421     		movs	r1, #36
 956 0062 2000     		movs	r0, r4
 957 0064 FFF7FEFF 		bl	lv_event_send
 958              	.LVL149:
 959              	.L73:
  76:..\..\..\arduinoLCD\test\Pain Drain\libraries\lvgl\src\core/lv_obj_tree.c ****         LV_LOG_WARN("the active screen was deleted");
 960              		.loc 1 76 0
 961 0068 002E     		cmp	r6, #0
 962 006a 01D0     		beq	.L69
  78:..\..\..\arduinoLCD\test\Pain Drain\libraries\lvgl\src\core/lv_obj_tree.c ****     }
 963              		.loc 1 78 0
 964 006c 0023     		movs	r3, #0
 965 006e 3B61     		str	r3, [r7, #16]
 966              	.LVL150:
 967              	.L69:
  83:..\..\..\arduinoLCD\test\Pain Drain\libraries\lvgl\src\core/lv_obj_tree.c **** 
 968              		.loc 1 83 0
 969              		@ sp needed
 970              	.LVL151:
 971              	.LVL152:
 972              	.LVL153:
 973 0070 F8BD     		pop	{r3, r4, r5, r6, r7, pc}
 974              		.cfi_endproc
 975              	.LFE159:
 976              		.size	lv_obj_del, .-lv_obj_del
 977 0072 C046     		.section	.text.lv_obj_del_anim_ready_cb,"ax",%progbits
 978              		.align	2
 979              		.global	lv_obj_del_anim_ready_cb
 980              		.code	16
 981              		.thumb_func
 982              		.type	lv_obj_del_anim_ready_cb, %function
 983              	lv_obj_del_anim_ready_cb:
ARM GAS  C:\Users\haske\AppData\Local\Temp\ccU9uRZG.s 			page 32


 984              	.LFB162:
 122:..\..\..\arduinoLCD\test\Pain Drain\libraries\lvgl\src\core/lv_obj_tree.c ****     lv_obj_del(a->var);
 985              		.loc 1 122 0
 986              		.cfi_startproc
 987              		@ args = 0, pretend = 0, frame = 0
 988              		@ frame_needed = 0, uses_anonymous_args = 0
 989              	.LVL154:
 990 0000 10B5     		push	{r4, lr}
 991              		.cfi_def_cfa_offset 8
 992              		.cfi_offset 4, -8
 993              		.cfi_offset 14, -4
 123:..\..\..\arduinoLCD\test\Pain Drain\libraries\lvgl\src\core/lv_obj_tree.c **** }
 994              		.loc 1 123 0
 995 0002 0068     		ldr	r0, [r0]
 996              	.LVL155:
 997 0004 FFF7FEFF 		bl	lv_obj_del
 998              	.LVL156:
 124:..\..\..\arduinoLCD\test\Pain Drain\libraries\lvgl\src\core/lv_obj_tree.c **** 
 999              		.loc 1 124 0
 1000              		@ sp needed
 1001 0008 10BD     		pop	{r4, pc}
 1002              		.cfi_endproc
 1003              	.LFE162:
 1004              		.size	lv_obj_del_anim_ready_cb, .-lv_obj_del_anim_ready_cb
 1005 000a C046     		.section	.text.lv_obj_del_async_cb,"ax",%progbits
 1006              		.align	2
 1007              		.code	16
 1008              		.thumb_func
 1009              		.type	lv_obj_del_async_cb, %function
 1010              	lv_obj_del_async_cb:
 1011              	.LFB174:
 351:..\..\..\arduinoLCD\test\Pain Drain\libraries\lvgl\src\core/lv_obj_tree.c ****     LV_ASSERT_OBJ(obj, MY_CLASS);
 1012              		.loc 1 351 0
 1013              		.cfi_startproc
 1014              		@ args = 0, pretend = 0, frame = 0
 1015              		@ frame_needed = 0, uses_anonymous_args = 0
 1016              	.LVL157:
 1017 0000 10B5     		push	{r4, lr}
 1018              		.cfi_def_cfa_offset 8
 1019              		.cfi_offset 4, -8
 1020              		.cfi_offset 14, -4
 354:..\..\..\arduinoLCD\test\Pain Drain\libraries\lvgl\src\core/lv_obj_tree.c **** }
 1021              		.loc 1 354 0
 1022 0002 FFF7FEFF 		bl	lv_obj_del
 1023              	.LVL158:
 355:..\..\..\arduinoLCD\test\Pain Drain\libraries\lvgl\src\core/lv_obj_tree.c **** 
 1024              		.loc 1 355 0
 1025              		@ sp needed
 1026 0006 10BD     		pop	{r4, pc}
 1027              		.cfi_endproc
 1028              	.LFE174:
 1029              		.size	lv_obj_del_async_cb, .-lv_obj_del_async_cb
 1030              		.section	.text.lv_obj_clean,"ax",%progbits
 1031              		.align	2
 1032              		.global	lv_obj_clean
 1033              		.code	16
 1034              		.thumb_func
ARM GAS  C:\Users\haske\AppData\Local\Temp\ccU9uRZG.s 			page 33


 1035              		.type	lv_obj_clean, %function
 1036              	lv_obj_clean:
 1037              	.LFB160:
  86:..\..\..\arduinoLCD\test\Pain Drain\libraries\lvgl\src\core/lv_obj_tree.c ****     LV_LOG_TRACE("begin (delete %p)", (void *)obj);
 1038              		.loc 1 86 0
 1039              		.cfi_startproc
 1040              		@ args = 0, pretend = 0, frame = 0
 1041              		@ frame_needed = 0, uses_anonymous_args = 0
 1042              	.LVL159:
 1043 0000 10B5     		push	{r4, lr}
 1044              		.cfi_def_cfa_offset 8
 1045              		.cfi_offset 4, -8
 1046              		.cfi_offset 14, -4
 1047 0002 0400     		movs	r4, r0
  90:..\..\..\arduinoLCD\test\Pain Drain\libraries\lvgl\src\core/lv_obj_tree.c **** 
 1048              		.loc 1 90 0
 1049 0004 FFF7FEFF 		bl	lv_obj_invalidate
 1050              	.LVL160:
  92:..\..\..\arduinoLCD\test\Pain Drain\libraries\lvgl\src\core/lv_obj_tree.c ****     while(child) {
 1051              		.loc 1 92 0
 1052 0008 0021     		movs	r1, #0
 1053 000a 2000     		movs	r0, r4
 1054 000c FFF7FEFF 		bl	lv_obj_get_child
 1055              	.LVL161:
  93:..\..\..\arduinoLCD\test\Pain Drain\libraries\lvgl\src\core/lv_obj_tree.c ****         obj_del_core(child);
 1056              		.loc 1 93 0
 1057 0010 05E0     		b	.L79
 1058              	.L80:
  94:..\..\..\arduinoLCD\test\Pain Drain\libraries\lvgl\src\core/lv_obj_tree.c ****         child = lv_obj_get_child(obj, 0);
 1059              		.loc 1 94 0
 1060 0012 FFF7FEFF 		bl	obj_del_core
 1061              	.LVL162:
  95:..\..\..\arduinoLCD\test\Pain Drain\libraries\lvgl\src\core/lv_obj_tree.c ****     }
 1062              		.loc 1 95 0
 1063 0016 0021     		movs	r1, #0
 1064 0018 2000     		movs	r0, r4
 1065 001a FFF7FEFF 		bl	lv_obj_get_child
 1066              	.LVL163:
 1067              	.L79:
  93:..\..\..\arduinoLCD\test\Pain Drain\libraries\lvgl\src\core/lv_obj_tree.c ****         obj_del_core(child);
 1068              		.loc 1 93 0
 1069 001e 0028     		cmp	r0, #0
 1070 0020 F7D1     		bne	.L80
  98:..\..\..\arduinoLCD\test\Pain Drain\libraries\lvgl\src\core/lv_obj_tree.c ****     if(obj->spec_attr) {
 1071              		.loc 1 98 0
 1072 0022 0023     		movs	r3, #0
 1073 0024 0022     		movs	r2, #0
 1074 0026 0021     		movs	r1, #0
 1075 0028 2000     		movs	r0, r4
 1076              	.LVL164:
 1077 002a FFF7FEFF 		bl	lv_obj_scroll_to
 1078              	.LVL165:
  99:..\..\..\arduinoLCD\test\Pain Drain\libraries\lvgl\src\core/lv_obj_tree.c ****         obj->spec_attr->scroll.x = 0;
 1079              		.loc 1 99 0
 1080 002e A368     		ldr	r3, [r4, #8]
 1081 0030 002B     		cmp	r3, #0
 1082 0032 03D0     		beq	.L78
ARM GAS  C:\Users\haske\AppData\Local\Temp\ccU9uRZG.s 			page 34


 100:..\..\..\arduinoLCD\test\Pain Drain\libraries\lvgl\src\core/lv_obj_tree.c ****         obj->spec_attr->scroll.y = 0;
 1083              		.loc 1 100 0
 1084 0034 0022     		movs	r2, #0
 1085 0036 1A82     		strh	r2, [r3, #16]
 101:..\..\..\arduinoLCD\test\Pain Drain\libraries\lvgl\src\core/lv_obj_tree.c ****     }
 1086              		.loc 1 101 0
 1087 0038 A368     		ldr	r3, [r4, #8]
 1088 003a 5A82     		strh	r2, [r3, #18]
 1089              	.L78:
 107:..\..\..\arduinoLCD\test\Pain Drain\libraries\lvgl\src\core/lv_obj_tree.c **** 
 1090              		.loc 1 107 0
 1091              		@ sp needed
 1092              	.LVL166:
 1093 003c 10BD     		pop	{r4, pc}
 1094              		.cfi_endproc
 1095              	.LFE160:
 1096              		.size	lv_obj_clean, .-lv_obj_clean
 1097 003e C046     		.section	.text.lv_obj_set_parent,"ax",%progbits
 1098              		.align	2
 1099              		.global	lv_obj_set_parent
 1100              		.code	16
 1101              		.thumb_func
 1102              		.type	lv_obj_set_parent, %function
 1103              	lv_obj_set_parent:
 1104              	.LFB164:
 133:..\..\..\arduinoLCD\test\Pain Drain\libraries\lvgl\src\core/lv_obj_tree.c ****     LV_ASSERT_OBJ(obj, MY_CLASS);
 1105              		.loc 1 133 0
 1106              		.cfi_startproc
 1107              		@ args = 0, pretend = 0, frame = 0
 1108              		@ frame_needed = 0, uses_anonymous_args = 0
 1109              	.LVL167:
 1110 0000 F8B5     		push	{r3, r4, r5, r6, r7, lr}
 1111              		.cfi_def_cfa_offset 24
 1112              		.cfi_offset 3, -24
 1113              		.cfi_offset 4, -20
 1114              		.cfi_offset 5, -16
 1115              		.cfi_offset 6, -12
 1116              		.cfi_offset 7, -8
 1117              		.cfi_offset 14, -4
 1118 0002 0600     		movs	r6, r0
 1119 0004 0F00     		movs	r7, r1
 137:..\..\..\arduinoLCD\test\Pain Drain\libraries\lvgl\src\core/lv_obj_tree.c ****         LV_LOG_WARN("Can't set the parent of a screen");
 1120              		.loc 1 137 0
 1121 0006 4368     		ldr	r3, [r0, #4]
 1122 0008 002B     		cmp	r3, #0
 1123 000a 64D0     		beq	.L82
 142:..\..\..\arduinoLCD\test\Pain Drain\libraries\lvgl\src\core/lv_obj_tree.c ****         LV_LOG_WARN("Can't set parent == NULL to an object");
 1124              		.loc 1 142 0
 1125 000c 0029     		cmp	r1, #0
 1126 000e 62D0     		beq	.L82
 147:..\..\..\arduinoLCD\test\Pain Drain\libraries\lvgl\src\core/lv_obj_tree.c **** 
 1127              		.loc 1 147 0
 1128 0010 FFF7FEFF 		bl	lv_obj_invalidate
 1129              	.LVL168:
 149:..\..\..\arduinoLCD\test\Pain Drain\libraries\lvgl\src\core/lv_obj_tree.c **** 
 1130              		.loc 1 149 0
 1131 0014 3800     		movs	r0, r7
ARM GAS  C:\Users\haske\AppData\Local\Temp\ccU9uRZG.s 			page 35


 1132 0016 FFF7FEFF 		bl	lv_obj_allocate_spec_attr
 1133              	.LVL169:
 151:..\..\..\arduinoLCD\test\Pain Drain\libraries\lvgl\src\core/lv_obj_tree.c ****     /*Remove the object from the old parent's child list*/
 1134              		.loc 1 151 0
 1135 001a 7568     		ldr	r5, [r6, #4]
 1136              	.LVL170:
 154:..\..\..\arduinoLCD\test\Pain Drain\libraries\lvgl\src\core/lv_obj_tree.c ****         old_parent->spec_attr->children[i] = old_parent->spec_attr->children[i + 1];
 1137              		.loc 1 154 0
 1138 001c 3000     		movs	r0, r6
 1139 001e FFF7FEFF 		bl	lv_obj_get_index
 1140              	.LVL171:
 1141 0022 0400     		movs	r4, r0
 1142              	.LVL172:
 1143 0024 06E0     		b	.L84
 1144              	.LVL173:
 1145              	.L85:
 155:..\..\..\arduinoLCD\test\Pain Drain\libraries\lvgl\src\core/lv_obj_tree.c ****     }
 1146              		.loc 1 155 0 discriminator 3
 1147 0026 AB68     		ldr	r3, [r5, #8]
 1148 0028 1B68     		ldr	r3, [r3]
 1149 002a A200     		lsls	r2, r4, #2
 1150 002c 0134     		adds	r4, r4, #1
 1151              	.LVL174:
 1152 002e A100     		lsls	r1, r4, #2
 1153 0030 C958     		ldr	r1, [r1, r3]
 1154 0032 9950     		str	r1, [r3, r2]
 1155              	.LVL175:
 1156              	.L84:
 154:..\..\..\arduinoLCD\test\Pain Drain\libraries\lvgl\src\core/lv_obj_tree.c ****         old_parent->spec_attr->children[i] = old_parent->spec_attr->children[i + 1];
 1157              		.loc 1 154 0 discriminator 1
 1158 0034 2800     		movs	r0, r5
 1159 0036 FFF7FEFF 		bl	lv_obj_get_child_cnt
 1160              	.LVL176:
 1161 003a 0238     		subs	r0, r0, #2
 1162 003c 8442     		cmp	r4, r0
 1163 003e F2DD     		ble	.L85
 157:..\..\..\arduinoLCD\test\Pain Drain\libraries\lvgl\src\core/lv_obj_tree.c ****     if(old_parent->spec_attr->child_cnt) {
 1164              		.loc 1 157 0
 1165 0040 AA68     		ldr	r2, [r5, #8]
 1166 0042 5368     		ldr	r3, [r2, #4]
 1167 0044 013B     		subs	r3, r3, #1
 1168 0046 5360     		str	r3, [r2, #4]
 158:..\..\..\arduinoLCD\test\Pain Drain\libraries\lvgl\src\core/lv_obj_tree.c ****         old_parent->spec_attr->children = lv_mem_realloc(old_parent->spec_attr->children,
 1169              		.loc 1 158 0
 1170 0048 AC68     		ldr	r4, [r5, #8]
 1171              	.LVL177:
 1172 004a 6168     		ldr	r1, [r4, #4]
 1173 004c 0029     		cmp	r1, #0
 1174 004e 05D0     		beq	.L86
 160:..\..\..\arduinoLCD\test\Pain Drain\libraries\lvgl\src\core/lv_obj_tree.c ****     }
 1175              		.loc 1 160 0
 1176 0050 8900     		lsls	r1, r1, #2
 159:..\..\..\arduinoLCD\test\Pain Drain\libraries\lvgl\src\core/lv_obj_tree.c ****                                                          old_parent->spec_attr->child_cnt * (sizeof
 1177              		.loc 1 159 0
 1178 0052 2068     		ldr	r0, [r4]
 1179 0054 FFF7FEFF 		bl	lv_mem_realloc
 1180              	.LVL178:
ARM GAS  C:\Users\haske\AppData\Local\Temp\ccU9uRZG.s 			page 36


 1181 0058 2060     		str	r0, [r4]
 1182 005a 05E0     		b	.L87
 1183              	.L86:
 163:..\..\..\arduinoLCD\test\Pain Drain\libraries\lvgl\src\core/lv_obj_tree.c ****         old_parent->spec_attr->children = NULL;
 1184              		.loc 1 163 0
 1185 005c 2068     		ldr	r0, [r4]
 1186 005e FFF7FEFF 		bl	lv_mem_free
 1187              	.LVL179:
 164:..\..\..\arduinoLCD\test\Pain Drain\libraries\lvgl\src\core/lv_obj_tree.c ****     }
 1188              		.loc 1 164 0
 1189 0062 AB68     		ldr	r3, [r5, #8]
 1190 0064 0022     		movs	r2, #0
 1191 0066 1A60     		str	r2, [r3]
 1192              	.L87:
 168:..\..\..\arduinoLCD\test\Pain Drain\libraries\lvgl\src\core/lv_obj_tree.c ****     parent->spec_attr->children = lv_mem_realloc(parent->spec_attr->children,
 1193              		.loc 1 168 0
 1194 0068 BA68     		ldr	r2, [r7, #8]
 1195 006a 5368     		ldr	r3, [r2, #4]
 1196 006c 0133     		adds	r3, r3, #1
 1197 006e 5360     		str	r3, [r2, #4]
 169:..\..\..\arduinoLCD\test\Pain Drain\libraries\lvgl\src\core/lv_obj_tree.c ****                                                  parent->spec_attr->child_cnt * (sizeof(lv_obj_t *)
 1198              		.loc 1 169 0
 1199 0070 BC68     		ldr	r4, [r7, #8]
 170:..\..\..\arduinoLCD\test\Pain Drain\libraries\lvgl\src\core/lv_obj_tree.c ****     parent->spec_attr->children[lv_obj_get_child_cnt(parent) - 1] = obj;
 1200              		.loc 1 170 0
 1201 0072 6368     		ldr	r3, [r4, #4]
 1202 0074 9900     		lsls	r1, r3, #2
 169:..\..\..\arduinoLCD\test\Pain Drain\libraries\lvgl\src\core/lv_obj_tree.c ****                                                  parent->spec_attr->child_cnt * (sizeof(lv_obj_t *)
 1203              		.loc 1 169 0
 1204 0076 2068     		ldr	r0, [r4]
 1205 0078 FFF7FEFF 		bl	lv_mem_realloc
 1206              	.LVL180:
 1207 007c 2060     		str	r0, [r4]
 171:..\..\..\arduinoLCD\test\Pain Drain\libraries\lvgl\src\core/lv_obj_tree.c **** 
 1208              		.loc 1 171 0
 1209 007e BB68     		ldr	r3, [r7, #8]
 1210 0080 1C68     		ldr	r4, [r3]
 1211 0082 3800     		movs	r0, r7
 1212 0084 FFF7FEFF 		bl	lv_obj_get_child_cnt
 1213              	.LVL181:
 1214 0088 134B     		ldr	r3, .L88
 1215 008a 9C46     		mov	ip, r3
 1216 008c 6044     		add	r0, r0, ip
 1217 008e 8000     		lsls	r0, r0, #2
 1218 0090 2650     		str	r6, [r4, r0]
 173:..\..\..\arduinoLCD\test\Pain Drain\libraries\lvgl\src\core/lv_obj_tree.c **** 
 1219              		.loc 1 173 0
 1220 0092 7760     		str	r7, [r6, #4]
 176:..\..\..\arduinoLCD\test\Pain Drain\libraries\lvgl\src\core/lv_obj_tree.c ****     lv_obj_scrollbar_invalidate(old_parent);
 1221              		.loc 1 176 0
 1222 0094 0021     		movs	r1, #0
 1223 0096 2800     		movs	r0, r5
 1224 0098 FFF7FEFF 		bl	lv_obj_readjust_scroll
 1225              	.LVL182:
 177:..\..\..\arduinoLCD\test\Pain Drain\libraries\lvgl\src\core/lv_obj_tree.c ****     lv_event_send(old_parent, LV_EVENT_CHILD_CHANGED, obj);
 1226              		.loc 1 177 0
 1227 009c 2800     		movs	r0, r5
ARM GAS  C:\Users\haske\AppData\Local\Temp\ccU9uRZG.s 			page 37


 1228 009e FFF7FEFF 		bl	lv_obj_scrollbar_invalidate
 1229              	.LVL183:
 178:..\..\..\arduinoLCD\test\Pain Drain\libraries\lvgl\src\core/lv_obj_tree.c ****     lv_event_send(old_parent, LV_EVENT_CHILD_DELETED, NULL);
 1230              		.loc 1 178 0
 1231 00a2 3200     		movs	r2, r6
 1232 00a4 2221     		movs	r1, #34
 1233 00a6 2800     		movs	r0, r5
 1234 00a8 FFF7FEFF 		bl	lv_event_send
 1235              	.LVL184:
 179:..\..\..\arduinoLCD\test\Pain Drain\libraries\lvgl\src\core/lv_obj_tree.c **** 
 1236              		.loc 1 179 0
 1237 00ac 0022     		movs	r2, #0
 1238 00ae 2421     		movs	r1, #36
 1239 00b0 2800     		movs	r0, r5
 1240 00b2 FFF7FEFF 		bl	lv_event_send
 1241              	.LVL185:
 182:..\..\..\arduinoLCD\test\Pain Drain\libraries\lvgl\src\core/lv_obj_tree.c ****     lv_event_send(parent, LV_EVENT_CHILD_CREATED, NULL);
 1242              		.loc 1 182 0
 1243 00b6 3200     		movs	r2, r6
 1244 00b8 2221     		movs	r1, #34
 1245 00ba 3800     		movs	r0, r7
 1246 00bc FFF7FEFF 		bl	lv_event_send
 1247              	.LVL186:
 183:..\..\..\arduinoLCD\test\Pain Drain\libraries\lvgl\src\core/lv_obj_tree.c **** 
 1248              		.loc 1 183 0
 1249 00c0 0022     		movs	r2, #0
 1250 00c2 2321     		movs	r1, #35
 1251 00c4 3800     		movs	r0, r7
 1252 00c6 FFF7FEFF 		bl	lv_event_send
 1253              	.LVL187:
 185:..\..\..\arduinoLCD\test\Pain Drain\libraries\lvgl\src\core/lv_obj_tree.c **** 
 1254              		.loc 1 185 0
 1255 00ca 3000     		movs	r0, r6
 1256 00cc FFF7FEFF 		bl	lv_obj_mark_layout_as_dirty
 1257              	.LVL188:
 187:..\..\..\arduinoLCD\test\Pain Drain\libraries\lvgl\src\core/lv_obj_tree.c **** }
 1258              		.loc 1 187 0
 1259 00d0 3000     		movs	r0, r6
 1260 00d2 FFF7FEFF 		bl	lv_obj_invalidate
 1261              	.LVL189:
 1262              	.L82:
 188:..\..\..\arduinoLCD\test\Pain Drain\libraries\lvgl\src\core/lv_obj_tree.c **** 
 1263              		.loc 1 188 0
 1264              		@ sp needed
 1265              	.LVL190:
 1266              	.LVL191:
 1267 00d6 F8BD     		pop	{r3, r4, r5, r6, r7, pc}
 1268              	.L89:
 1269              		.align	2
 1270              	.L88:
 1271 00d8 FFFFFF3F 		.word	1073741823
 1272              		.cfi_endproc
 1273              	.LFE164:
 1274              		.size	lv_obj_set_parent, .-lv_obj_set_parent
 1275              		.section	.text.lv_obj_move_to_index,"ax",%progbits
 1276              		.align	2
 1277              		.global	lv_obj_move_to_index
ARM GAS  C:\Users\haske\AppData\Local\Temp\ccU9uRZG.s 			page 38


 1278              		.code	16
 1279              		.thumb_func
 1280              		.type	lv_obj_move_to_index, %function
 1281              	lv_obj_move_to_index:
 1282              	.LFB165:
 191:..\..\..\arduinoLCD\test\Pain Drain\libraries\lvgl\src\core/lv_obj_tree.c ****     LV_ASSERT_OBJ(obj, MY_CLASS);
 1283              		.loc 1 191 0
 1284              		.cfi_startproc
 1285              		@ args = 0, pretend = 0, frame = 0
 1286              		@ frame_needed = 0, uses_anonymous_args = 0
 1287              	.LVL192:
 1288 0000 F8B5     		push	{r3, r4, r5, r6, r7, lr}
 1289              		.cfi_def_cfa_offset 24
 1290              		.cfi_offset 3, -24
 1291              		.cfi_offset 4, -20
 1292              		.cfi_offset 5, -16
 1293              		.cfi_offset 6, -12
 1294              		.cfi_offset 7, -8
 1295              		.cfi_offset 14, -4
 1296 0002 0500     		movs	r5, r0
 1297 0004 0E1E     		subs	r6, r1, #0
 194:..\..\..\arduinoLCD\test\Pain Drain\libraries\lvgl\src\core/lv_obj_tree.c ****         index = lv_obj_get_child_cnt(lv_obj_get_parent(obj)) + index;
 1298              		.loc 1 194 0
 1299 0006 04DA     		bge	.L91
 195:..\..\..\arduinoLCD\test\Pain Drain\libraries\lvgl\src\core/lv_obj_tree.c ****     }
 1300              		.loc 1 195 0
 1301 0008 FFF7FEFF 		bl	lv_obj_get_parent
 1302              	.LVL193:
 1303 000c FFF7FEFF 		bl	lv_obj_get_child_cnt
 1304              	.LVL194:
 1305 0010 3618     		adds	r6, r6, r0
 1306              	.LVL195:
 1307              	.L91:
 198:..\..\..\arduinoLCD\test\Pain Drain\libraries\lvgl\src\core/lv_obj_tree.c **** 
 1308              		.loc 1 198 0
 1309 0012 2800     		movs	r0, r5
 1310 0014 FFF7FEFF 		bl	lv_obj_get_index
 1311              	.LVL196:
 1312 0018 0400     		movs	r4, r0
 1313              	.LVL197:
 200:..\..\..\arduinoLCD\test\Pain Drain\libraries\lvgl\src\core/lv_obj_tree.c **** 
 1314              		.loc 1 200 0
 1315 001a 2800     		movs	r0, r5
 1316              	.LVL198:
 1317 001c FFF7FEFF 		bl	lv_obj_get_parent
 1318              	.LVL199:
 1319 0020 0700     		movs	r7, r0
 1320              	.LVL200:
 202:..\..\..\arduinoLCD\test\Pain Drain\libraries\lvgl\src\core/lv_obj_tree.c ****     if(index >= (int32_t) lv_obj_get_child_cnt(parent)) return;
 1321              		.loc 1 202 0
 1322 0022 002E     		cmp	r6, #0
 1323 0024 28DB     		blt	.L90
 203:..\..\..\arduinoLCD\test\Pain Drain\libraries\lvgl\src\core/lv_obj_tree.c ****     if(index == old_index) return;
 1324              		.loc 1 203 0
 1325 0026 FFF7FEFF 		bl	lv_obj_get_child_cnt
 1326              	.LVL201:
 1327 002a 8642     		cmp	r6, r0
ARM GAS  C:\Users\haske\AppData\Local\Temp\ccU9uRZG.s 			page 39


 1328 002c 24DA     		bge	.L90
 204:..\..\..\arduinoLCD\test\Pain Drain\libraries\lvgl\src\core/lv_obj_tree.c **** 
 1329              		.loc 1 204 0
 1330 002e A642     		cmp	r6, r4
 1331 0030 22D0     		beq	.L90
 1332              	.LVL202:
 207:..\..\..\arduinoLCD\test\Pain Drain\libraries\lvgl\src\core/lv_obj_tree.c ****         while(i > index)  {
 1333              		.loc 1 207 0
 1334 0032 09DB     		blt	.L93
 1335 0034 12E0     		b	.L94
 1336              	.LVL203:
 1337              	.L95:
 209:..\..\..\arduinoLCD\test\Pain Drain\libraries\lvgl\src\core/lv_obj_tree.c ****             i--;
 1338              		.loc 1 209 0
 1339 0036 BB68     		ldr	r3, [r7, #8]
 1340 0038 1A68     		ldr	r2, [r3]
 1341 003a A100     		lsls	r1, r4, #2
 1342 003c 0F4B     		ldr	r3, .L98
 1343 003e E318     		adds	r3, r4, r3
 1344 0040 9B00     		lsls	r3, r3, #2
 1345 0042 9B58     		ldr	r3, [r3, r2]
 1346 0044 5350     		str	r3, [r2, r1]
 210:..\..\..\arduinoLCD\test\Pain Drain\libraries\lvgl\src\core/lv_obj_tree.c ****         }
 1347              		.loc 1 210 0
 1348 0046 013C     		subs	r4, r4, #1
 1349              	.LVL204:
 1350              	.L93:
 208:..\..\..\arduinoLCD\test\Pain Drain\libraries\lvgl\src\core/lv_obj_tree.c ****             parent->spec_attr->children[i] = parent->spec_attr->children[i - 1];
 1351              		.loc 1 208 0
 1352 0048 A642     		cmp	r6, r4
 1353 004a F4DB     		blt	.L95
 1354 004c 08E0     		b	.L96
 1355              	.L97:
 215:..\..\..\arduinoLCD\test\Pain Drain\libraries\lvgl\src\core/lv_obj_tree.c ****             i++;
 1356              		.loc 1 215 0
 1357 004e BB68     		ldr	r3, [r7, #8]
 1358 0050 1B68     		ldr	r3, [r3]
 1359 0052 A200     		lsls	r2, r4, #2
 1360 0054 0134     		adds	r4, r4, #1
 1361              	.LVL205:
 1362 0056 A100     		lsls	r1, r4, #2
 1363 0058 C958     		ldr	r1, [r1, r3]
 1364 005a 9950     		str	r1, [r3, r2]
 1365              	.LVL206:
 1366              	.L94:
 214:..\..\..\arduinoLCD\test\Pain Drain\libraries\lvgl\src\core/lv_obj_tree.c ****             parent->spec_attr->children[i] = parent->spec_attr->children[i + 1];
 1367              		.loc 1 214 0
 1368 005c A642     		cmp	r6, r4
 1369 005e F6DC     		bgt	.L97
 1370              	.L96:
 220:..\..\..\arduinoLCD\test\Pain Drain\libraries\lvgl\src\core/lv_obj_tree.c ****     lv_event_send(parent, LV_EVENT_CHILD_CHANGED, NULL);
 1371              		.loc 1 220 0
 1372 0060 BB68     		ldr	r3, [r7, #8]
 1373 0062 1B68     		ldr	r3, [r3]
 1374 0064 B100     		lsls	r1, r6, #2
 1375 0066 5D50     		str	r5, [r3, r1]
 221:..\..\..\arduinoLCD\test\Pain Drain\libraries\lvgl\src\core/lv_obj_tree.c ****     lv_obj_invalidate(parent);
ARM GAS  C:\Users\haske\AppData\Local\Temp\ccU9uRZG.s 			page 40


 1376              		.loc 1 221 0
 1377 0068 0022     		movs	r2, #0
 1378 006a 2221     		movs	r1, #34
 1379 006c 3800     		movs	r0, r7
 1380 006e FFF7FEFF 		bl	lv_event_send
 1381              	.LVL207:
 222:..\..\..\arduinoLCD\test\Pain Drain\libraries\lvgl\src\core/lv_obj_tree.c **** }
 1382              		.loc 1 222 0
 1383 0072 3800     		movs	r0, r7
 1384 0074 FFF7FEFF 		bl	lv_obj_invalidate
 1385              	.LVL208:
 1386              	.L90:
 223:..\..\..\arduinoLCD\test\Pain Drain\libraries\lvgl\src\core/lv_obj_tree.c **** 
 1387              		.loc 1 223 0
 1388              		@ sp needed
 1389              	.LVL209:
 1390              	.LVL210:
 1391              	.LVL211:
 1392 0078 F8BD     		pop	{r3, r4, r5, r6, r7, pc}
 1393              	.L99:
 1394 007a C046     		.align	2
 1395              	.L98:
 1396 007c FFFFFF3F 		.word	1073741823
 1397              		.cfi_endproc
 1398              	.LFE165:
 1399              		.size	lv_obj_move_to_index, .-lv_obj_move_to_index
 1400              		.section	.text.lv_obj_swap,"ax",%progbits
 1401              		.align	2
 1402              		.global	lv_obj_swap
 1403              		.code	16
 1404              		.thumb_func
 1405              		.type	lv_obj_swap, %function
 1406              	lv_obj_swap:
 1407              	.LFB166:
 226:..\..\..\arduinoLCD\test\Pain Drain\libraries\lvgl\src\core/lv_obj_tree.c ****     LV_ASSERT_OBJ(obj1, MY_CLASS);
 1408              		.loc 1 226 0
 1409              		.cfi_startproc
 1410              		@ args = 0, pretend = 0, frame = 0
 1411              		@ frame_needed = 0, uses_anonymous_args = 0
 1412              	.LVL212:
 1413 0000 F8B5     		push	{r3, r4, r5, r6, r7, lr}
 1414              		.cfi_def_cfa_offset 24
 1415              		.cfi_offset 3, -24
 1416              		.cfi_offset 4, -20
 1417              		.cfi_offset 5, -16
 1418              		.cfi_offset 6, -12
 1419              		.cfi_offset 7, -8
 1420              		.cfi_offset 14, -4
 1421 0002 4F46     		mov	r7, r9
 1422 0004 4646     		mov	r6, r8
 1423 0006 C0B4     		push	{r6, r7}
 1424              		.cfi_def_cfa_offset 32
 1425              		.cfi_offset 8, -32
 1426              		.cfi_offset 9, -28
 1427 0008 0400     		movs	r4, r0
 1428 000a 0D00     		movs	r5, r1
 230:..\..\..\arduinoLCD\test\Pain Drain\libraries\lvgl\src\core/lv_obj_tree.c ****     lv_obj_t * parent2 = lv_obj_get_parent(obj2);
ARM GAS  C:\Users\haske\AppData\Local\Temp\ccU9uRZG.s 			page 41


 1429              		.loc 1 230 0
 1430 000c FFF7FEFF 		bl	lv_obj_get_parent
 1431              	.LVL213:
 1432 0010 0600     		movs	r6, r0
 1433              	.LVL214:
 231:..\..\..\arduinoLCD\test\Pain Drain\libraries\lvgl\src\core/lv_obj_tree.c **** 
 1434              		.loc 1 231 0
 1435 0012 2800     		movs	r0, r5
 1436              	.LVL215:
 1437 0014 FFF7FEFF 		bl	lv_obj_get_parent
 1438              	.LVL216:
 1439 0018 0700     		movs	r7, r0
 1440              	.LVL217:
 233:..\..\..\arduinoLCD\test\Pain Drain\libraries\lvgl\src\core/lv_obj_tree.c ****     uint_fast32_t index2 = lv_obj_get_index(obj2);
 1441              		.loc 1 233 0
 1442 001a 2000     		movs	r0, r4
 1443              	.LVL218:
 1444 001c FFF7FEFF 		bl	lv_obj_get_index
 1445              	.LVL219:
 1446 0020 8146     		mov	r9, r0
 1447              	.LVL220:
 234:..\..\..\arduinoLCD\test\Pain Drain\libraries\lvgl\src\core/lv_obj_tree.c **** 
 1448              		.loc 1 234 0
 1449 0022 2800     		movs	r0, r5
 1450              	.LVL221:
 1451 0024 FFF7FEFF 		bl	lv_obj_get_index
 1452              	.LVL222:
 1453 0028 8046     		mov	r8, r0
 1454              	.LVL223:
 236:..\..\..\arduinoLCD\test\Pain Drain\libraries\lvgl\src\core/lv_obj_tree.c ****     lv_event_send(parent, LV_EVENT_CHILD_DELETED, obj1);
 1455              		.loc 1 236 0
 1456 002a 2A00     		movs	r2, r5
 1457 002c 2421     		movs	r1, #36
 1458 002e 3800     		movs	r0, r7
 1459              	.LVL224:
 1460 0030 FFF7FEFF 		bl	lv_event_send
 1461              	.LVL225:
 237:..\..\..\arduinoLCD\test\Pain Drain\libraries\lvgl\src\core/lv_obj_tree.c **** 
 1462              		.loc 1 237 0
 1463 0034 2200     		movs	r2, r4
 1464 0036 2421     		movs	r1, #36
 1465 0038 3000     		movs	r0, r6
 1466 003a FFF7FEFF 		bl	lv_event_send
 1467              	.LVL226:
 239:..\..\..\arduinoLCD\test\Pain Drain\libraries\lvgl\src\core/lv_obj_tree.c ****     parent2->spec_attr->children[index2] = obj1;
 1468              		.loc 1 239 0
 1469 003e B368     		ldr	r3, [r6, #8]
 1470 0040 1A68     		ldr	r2, [r3]
 1471 0042 4B46     		mov	r3, r9
 1472 0044 9B00     		lsls	r3, r3, #2
 1473 0046 D550     		str	r5, [r2, r3]
 240:..\..\..\arduinoLCD\test\Pain Drain\libraries\lvgl\src\core/lv_obj_tree.c **** 
 1474              		.loc 1 240 0
 1475 0048 BB68     		ldr	r3, [r7, #8]
 1476 004a 1A68     		ldr	r2, [r3]
 1477 004c 4346     		mov	r3, r8
 1478 004e 9B00     		lsls	r3, r3, #2
ARM GAS  C:\Users\haske\AppData\Local\Temp\ccU9uRZG.s 			page 42


 1479 0050 D450     		str	r4, [r2, r3]
 242:..\..\..\arduinoLCD\test\Pain Drain\libraries\lvgl\src\core/lv_obj_tree.c ****     lv_event_send(parent, LV_EVENT_CHILD_CREATED, obj2);
 1480              		.loc 1 242 0
 1481 0052 2A00     		movs	r2, r5
 1482 0054 2221     		movs	r1, #34
 1483 0056 3000     		movs	r0, r6
 1484 0058 FFF7FEFF 		bl	lv_event_send
 1485              	.LVL227:
 243:..\..\..\arduinoLCD\test\Pain Drain\libraries\lvgl\src\core/lv_obj_tree.c ****     lv_event_send(parent2, LV_EVENT_CHILD_CHANGED, obj1);
 1486              		.loc 1 243 0
 1487 005c 2A00     		movs	r2, r5
 1488 005e 2321     		movs	r1, #35
 1489 0060 3000     		movs	r0, r6
 1490 0062 FFF7FEFF 		bl	lv_event_send
 1491              	.LVL228:
 244:..\..\..\arduinoLCD\test\Pain Drain\libraries\lvgl\src\core/lv_obj_tree.c ****     lv_event_send(parent2, LV_EVENT_CHILD_CREATED, obj1);
 1492              		.loc 1 244 0
 1493 0066 2200     		movs	r2, r4
 1494 0068 2221     		movs	r1, #34
 1495 006a 3800     		movs	r0, r7
 1496 006c FFF7FEFF 		bl	lv_event_send
 1497              	.LVL229:
 245:..\..\..\arduinoLCD\test\Pain Drain\libraries\lvgl\src\core/lv_obj_tree.c **** 
 1498              		.loc 1 245 0
 1499 0070 2200     		movs	r2, r4
 1500 0072 2321     		movs	r1, #35
 1501 0074 3800     		movs	r0, r7
 1502 0076 FFF7FEFF 		bl	lv_event_send
 1503              	.LVL230:
 247:..\..\..\arduinoLCD\test\Pain Drain\libraries\lvgl\src\core/lv_obj_tree.c **** 
 1504              		.loc 1 247 0
 1505 007a 3000     		movs	r0, r6
 1506 007c FFF7FEFF 		bl	lv_obj_invalidate
 1507              	.LVL231:
 249:..\..\..\arduinoLCD\test\Pain Drain\libraries\lvgl\src\core/lv_obj_tree.c ****         lv_obj_invalidate(parent2);
 1508              		.loc 1 249 0
 1509 0080 BE42     		cmp	r6, r7
 1510 0082 02D0     		beq	.L101
 250:..\..\..\arduinoLCD\test\Pain Drain\libraries\lvgl\src\core/lv_obj_tree.c ****     }
 1511              		.loc 1 250 0
 1512 0084 3800     		movs	r0, r7
 1513 0086 FFF7FEFF 		bl	lv_obj_invalidate
 1514              	.LVL232:
 1515              	.L101:
 252:..\..\..\arduinoLCD\test\Pain Drain\libraries\lvgl\src\core/lv_obj_tree.c **** }
 1516              		.loc 1 252 0
 1517 008a 2900     		movs	r1, r5
 1518 008c 2000     		movs	r0, r4
 1519 008e FFF7FEFF 		bl	lv_group_swap_obj
 1520              	.LVL233:
 253:..\..\..\arduinoLCD\test\Pain Drain\libraries\lvgl\src\core/lv_obj_tree.c **** 
 1521              		.loc 1 253 0
 1522              		@ sp needed
 1523              	.LVL234:
 1524              	.LVL235:
 1525              	.LVL236:
 1526              	.LVL237:
ARM GAS  C:\Users\haske\AppData\Local\Temp\ccU9uRZG.s 			page 43


 1527              	.LVL238:
 1528              	.LVL239:
 1529 0092 0CBC     		pop	{r2, r3}
 1530 0094 9046     		mov	r8, r2
 1531 0096 9946     		mov	r9, r3
 1532 0098 F8BD     		pop	{r3, r4, r5, r6, r7, pc}
 1533              		.cfi_endproc
 1534              	.LFE166:
 1535              		.size	lv_obj_swap, .-lv_obj_swap
 1536 009a C046     		.section	.text.lv_obj_tree_walk,"ax",%progbits
 1537              		.align	2
 1538              		.global	lv_obj_tree_walk
 1539              		.code	16
 1540              		.thumb_func
 1541              		.type	lv_obj_tree_walk, %function
 1542              	lv_obj_tree_walk:
 1543              	.LFB173:
 342:..\..\..\arduinoLCD\test\Pain Drain\libraries\lvgl\src\core/lv_obj_tree.c ****     walk_core(start_obj, cb, user_data);
 1544              		.loc 1 342 0
 1545              		.cfi_startproc
 1546              		@ args = 0, pretend = 0, frame = 0
 1547              		@ frame_needed = 0, uses_anonymous_args = 0
 1548              	.LVL240:
 1549 0000 10B5     		push	{r4, lr}
 1550              		.cfi_def_cfa_offset 8
 1551              		.cfi_offset 4, -8
 1552              		.cfi_offset 14, -4
 343:..\..\..\arduinoLCD\test\Pain Drain\libraries\lvgl\src\core/lv_obj_tree.c **** }
 1553              		.loc 1 343 0
 1554 0002 FFF7FEFF 		bl	walk_core
 1555              	.LVL241:
 344:..\..\..\arduinoLCD\test\Pain Drain\libraries\lvgl\src\core/lv_obj_tree.c **** 
 1556              		.loc 1 344 0
 1557              		@ sp needed
 1558 0006 10BD     		pop	{r4, pc}
 1559              		.cfi_endproc
 1560              	.LFE173:
 1561              		.size	lv_obj_tree_walk, .-lv_obj_tree_walk
 1562              		.text
 1563              	.Letext0:
 1564              		.file 3 "c:\\program files (x86)\\cypress\\psoc creator\\4.4\\psoc creator\\import\\gnu\\arm\\5.4.
 1565              		.file 4 "c:\\program files (x86)\\cypress\\psoc creator\\4.4\\psoc creator\\import\\gnu\\arm\\5.4.
 1566              		.file 5 "c:\\program files (x86)\\cypress\\psoc creator\\4.4\\psoc creator\\import\\gnu\\arm\\5.4.
 1567              		.file 6 "c:\\program files (x86)\\cypress\\psoc creator\\4.4\\psoc creator\\import\\gnu\\arm\\5.4.
 1568              		.file 7 "c:\\projects\\paindrain\\arduinolcd\\test\\pain drain\\libraries\\lvgl\\src\\misc\\lv_are
 1569              		.file 8 "c:\\projects\\paindrain\\arduinolcd\\test\\pain drain\\libraries\\lvgl\\src\\font\\lv_fon
 1570              		.file 9 "..\\..\\..\\arduinoLCD\\test\\Pain Drain\\libraries\\lvgl\\src\\core\\../misc/lv_types.h"
 1571              		.file 10 "..\\..\\..\\arduinoLCD\\test\\Pain Drain\\libraries\\lvgl\\src\\core\\../misc/lv_color.h
 1572              		.file 11 "..\\..\\..\\arduinoLCD\\test\\Pain Drain\\libraries\\lvgl\\src\\core\\../misc/lv_txt.h"
 1573              		.file 12 "..\\..\\..\\arduinoLCD\\test\\Pain Drain\\libraries\\lvgl\\src\\core\\../misc/lv_bidi.h"
 1574              		.file 13 "..\\..\\..\\arduinoLCD\\test\\Pain Drain\\libraries\\lvgl\\src\\core\\../misc/lv_style.h
 1575              		.file 14 "c:\\projects\\paindrain\\arduinolcd\\test\\pain drain\\libraries\\lvgl\\src\\draw\\lv_im
 1576              		.file 15 "..\\..\\..\\arduinoLCD\\test\\Pain Drain\\libraries\\lvgl\\src\\core\\lv_obj.h"
 1577              		.file 16 "c:\\projects\\paindrain\\arduinolcd\\test\\pain drain\\libraries\\lvgl\\src\\draw\\lv_dr
 1578              		.file 17 "c:\\projects\\paindrain\\arduinolcd\\test\\pain drain\\libraries\\lvgl\\src\\draw\\lv_dr
 1579              		.file 18 "c:\\projects\\paindrain\\arduinolcd\\test\\pain drain\\libraries\\lvgl\\src\\draw\\lv_dr
 1580              		.file 19 "c:\\projects\\paindrain\\arduinolcd\\test\\pain drain\\libraries\\lvgl\\src\\draw\\lv_dr
ARM GAS  C:\Users\haske\AppData\Local\Temp\ccU9uRZG.s 			page 44


 1581              		.file 20 "c:\\projects\\paindrain\\arduinolcd\\test\\pain drain\\libraries\\lvgl\\src\\draw\\lv_dr
 1582              		.file 21 "c:\\projects\\paindrain\\arduinolcd\\test\\pain drain\\libraries\\lvgl\\src\\draw\\lv_dr
 1583              		.file 22 "c:\\projects\\paindrain\\arduinolcd\\test\\pain drain\\libraries\\lvgl\\src\\draw\\lv_dr
 1584              		.file 23 "c:\\projects\\paindrain\\arduinolcd\\test\\pain drain\\libraries\\lvgl\\src\\misc\\lv_ll
 1585              		.file 24 "c:\\projects\\paindrain\\arduinolcd\\test\\pain drain\\libraries\\lvgl\\src\\misc\\lv_ti
 1586              		.file 25 "..\\..\\..\\arduinoLCD\\test\\Pain Drain\\libraries\\lvgl\\src\\core\\../hal/lv_hal_disp
 1587              		.file 26 "..\\..\\..\\arduinoLCD\\test\\Pain Drain\\libraries\\lvgl\\src\\core\\../hal/lv_hal_inde
 1588              		.file 27 "..\\..\\..\\arduinoLCD\\test\\Pain Drain\\libraries\\lvgl\\src\\core\\lv_group.h"
 1589              		.file 28 "..\\..\\..\\arduinoLCD\\test\\Pain Drain\\libraries\\lvgl\\src\\core\\lv_obj_tree.h"
 1590              		.file 29 "..\\..\\..\\arduinoLCD\\test\\Pain Drain\\libraries\\lvgl\\src\\core\\lv_obj_scroll.h"
 1591              		.file 30 "..\\..\\..\\arduinoLCD\\test\\Pain Drain\\libraries\\lvgl\\src\\core\\lv_obj_style.h"
 1592              		.file 31 "..\\..\\..\\arduinoLCD\\test\\Pain Drain\\libraries\\lvgl\\src\\core\\lv_obj_class.h"
 1593              		.file 32 "..\\..\\..\\arduinoLCD\\test\\Pain Drain\\libraries\\lvgl\\src\\core\\lv_event.h"
 1594              		.file 33 "..\\..\\..\\arduinoLCD\\test\\Pain Drain\\libraries\\lvgl\\src\\core\\../misc/lv_gc.h"
 1595              		.file 34 "..\\..\\..\\arduinoLCD\\test\\Pain Drain\\libraries\\lvgl\\src\\core\\../misc/lv_async.h
 1596              		.file 35 "..\\..\\..\\arduinoLCD\\test\\Pain Drain\\libraries\\lvgl\\src\\core\\../misc/lv_mem.h"
 1597              		.file 36 "..\\..\\..\\arduinoLCD\\test\\Pain Drain\\libraries\\lvgl\\src\\core\\lv_indev.h"
 1598              		.file 37 "c:\\projects\\paindrain\\arduinolcd\\test\\pain drain\\libraries\\lvgl\\src\\core\\lv_ob
 1599              		.section	.debug_info,"",%progbits
 1600              	.Ldebug_info0:
 1601 0000 2C2F0000 		.4byte	0x2f2c
 1602 0004 0400     		.2byte	0x4
 1603 0006 00000000 		.4byte	.Ldebug_abbrev0
 1604 000a 04       		.byte	0x4
 1605 000b 01       		.uleb128 0x1
 1606 000c 31090000 		.4byte	.LASF615
 1607 0010 0C       		.byte	0xc
 1608 0011 190E0000 		.4byte	.LASF616
 1609 0015 631E0000 		.4byte	.LASF617
 1610 0019 58000000 		.4byte	.Ldebug_ranges0+0x58
 1611 001d 00000000 		.4byte	0
 1612 0021 00000000 		.4byte	.Ldebug_line0
 1613 0025 02       		.uleb128 0x2
 1614 0026 67000000 		.4byte	.LASF3
 1615 002a 03       		.byte	0x3
 1616 002b D8       		.byte	0xd8
 1617 002c 30000000 		.4byte	0x30
 1618 0030 03       		.uleb128 0x3
 1619 0031 04       		.byte	0x4
 1620 0032 07       		.byte	0x7
 1621 0033 20140000 		.4byte	.LASF0
 1622 0037 04       		.uleb128 0x4
 1623 0038 04       		.byte	0x4
 1624 0039 05       		.byte	0x5
 1625 003a 696E7400 		.ascii	"int\000"
 1626 003e 03       		.uleb128 0x3
 1627 003f 08       		.byte	0x8
 1628 0040 05       		.byte	0x5
 1629 0041 72120000 		.4byte	.LASF1
 1630 0045 03       		.uleb128 0x3
 1631 0046 08       		.byte	0x8
 1632 0047 04       		.byte	0x4
 1633 0048 FF160000 		.4byte	.LASF2
 1634 004c 02       		.uleb128 0x2
 1635 004d 59180000 		.4byte	.LASF4
 1636 0051 04       		.byte	0x4
 1637 0052 1B       		.byte	0x1b
ARM GAS  C:\Users\haske\AppData\Local\Temp\ccU9uRZG.s 			page 45


 1638 0053 57000000 		.4byte	0x57
 1639 0057 03       		.uleb128 0x3
 1640 0058 01       		.byte	0x1
 1641 0059 06       		.byte	0x6
 1642 005a D2060000 		.4byte	.LASF5
 1643 005e 02       		.uleb128 0x2
 1644 005f EC030000 		.4byte	.LASF6
 1645 0063 04       		.byte	0x4
 1646 0064 1D       		.byte	0x1d
 1647 0065 69000000 		.4byte	0x69
 1648 0069 03       		.uleb128 0x3
 1649 006a 01       		.byte	0x1
 1650 006b 08       		.byte	0x8
 1651 006c 8F070000 		.4byte	.LASF7
 1652 0070 02       		.uleb128 0x2
 1653 0071 C81A0000 		.4byte	.LASF8
 1654 0075 04       		.byte	0x4
 1655 0076 29       		.byte	0x29
 1656 0077 7B000000 		.4byte	0x7b
 1657 007b 03       		.uleb128 0x3
 1658 007c 02       		.byte	0x2
 1659 007d 05       		.byte	0x5
 1660 007e AF1C0000 		.4byte	.LASF9
 1661 0082 02       		.uleb128 0x2
 1662 0083 E60A0000 		.4byte	.LASF10
 1663 0087 04       		.byte	0x4
 1664 0088 2B       		.byte	0x2b
 1665 0089 8D000000 		.4byte	0x8d
 1666 008d 03       		.uleb128 0x3
 1667 008e 02       		.byte	0x2
 1668 008f 07       		.byte	0x7
 1669 0090 B1200000 		.4byte	.LASF11
 1670 0094 02       		.uleb128 0x2
 1671 0095 86210000 		.4byte	.LASF12
 1672 0099 04       		.byte	0x4
 1673 009a 3F       		.byte	0x3f
 1674 009b 9F000000 		.4byte	0x9f
 1675 009f 03       		.uleb128 0x3
 1676 00a0 04       		.byte	0x4
 1677 00a1 05       		.byte	0x5
 1678 00a2 FD040000 		.4byte	.LASF13
 1679 00a6 02       		.uleb128 0x2
 1680 00a7 32120000 		.4byte	.LASF14
 1681 00ab 04       		.byte	0x4
 1682 00ac 41       		.byte	0x41
 1683 00ad B1000000 		.4byte	0xb1
 1684 00b1 03       		.uleb128 0x3
 1685 00b2 04       		.byte	0x4
 1686 00b3 07       		.byte	0x7
 1687 00b4 A20F0000 		.4byte	.LASF15
 1688 00b8 03       		.uleb128 0x3
 1689 00b9 08       		.byte	0x8
 1690 00ba 07       		.byte	0x7
 1691 00bb B7180000 		.4byte	.LASF16
 1692 00bf 03       		.uleb128 0x3
 1693 00c0 04       		.byte	0x4
 1694 00c1 07       		.byte	0x7
ARM GAS  C:\Users\haske\AppData\Local\Temp\ccU9uRZG.s 			page 46


 1695 00c2 8A000000 		.4byte	.LASF17
 1696 00c6 05       		.uleb128 0x5
 1697 00c7 04       		.byte	0x4
 1698 00c8 03       		.uleb128 0x3
 1699 00c9 01       		.byte	0x1
 1700 00ca 08       		.byte	0x8
 1701 00cb F5090000 		.4byte	.LASF18
 1702 00cf 06       		.uleb128 0x6
 1703 00d0 04       		.byte	0x4
 1704 00d1 D5000000 		.4byte	0xd5
 1705 00d5 07       		.uleb128 0x7
 1706 00d6 02       		.uleb128 0x2
 1707 00d7 09000000 		.4byte	.LASF19
 1708 00db 05       		.byte	0x5
 1709 00dc 14       		.byte	0x14
 1710 00dd 4C000000 		.4byte	0x4c
 1711 00e1 02       		.uleb128 0x2
 1712 00e2 DE060000 		.4byte	.LASF20
 1713 00e6 05       		.byte	0x5
 1714 00e7 18       		.byte	0x18
 1715 00e8 5E000000 		.4byte	0x5e
 1716 00ec 02       		.uleb128 0x2
 1717 00ed 721D0000 		.4byte	.LASF21
 1718 00f1 05       		.byte	0x5
 1719 00f2 20       		.byte	0x20
 1720 00f3 70000000 		.4byte	0x70
 1721 00f7 02       		.uleb128 0x2
 1722 00f8 3A190000 		.4byte	.LASF22
 1723 00fc 05       		.byte	0x5
 1724 00fd 24       		.byte	0x24
 1725 00fe 82000000 		.4byte	0x82
 1726 0102 02       		.uleb128 0x2
 1727 0103 41010000 		.4byte	.LASF23
 1728 0107 05       		.byte	0x5
 1729 0108 2C       		.byte	0x2c
 1730 0109 94000000 		.4byte	0x94
 1731 010d 02       		.uleb128 0x2
 1732 010e F81F0000 		.4byte	.LASF24
 1733 0112 05       		.byte	0x5
 1734 0113 30       		.byte	0x30
 1735 0114 A6000000 		.4byte	0xa6
 1736 0118 02       		.uleb128 0x2
 1737 0119 D2030000 		.4byte	.LASF25
 1738 011d 06       		.byte	0x6
 1739 011e 48       		.byte	0x48
 1740 011f 30000000 		.4byte	0x30
 1741 0123 02       		.uleb128 0x2
 1742 0124 D1200000 		.4byte	.LASF26
 1743 0128 07       		.byte	0x7
 1744 0129 1B       		.byte	0x1b
 1745 012a EC000000 		.4byte	0xec
 1746 012e 08       		.uleb128 0x8
 1747 012f 04       		.byte	0x4
 1748 0130 07       		.byte	0x7
 1749 0131 25       		.byte	0x25
 1750 0132 4B010000 		.4byte	0x14b
 1751 0136 09       		.uleb128 0x9
ARM GAS  C:\Users\haske\AppData\Local\Temp\ccU9uRZG.s 			page 47


 1752 0137 7800     		.ascii	"x\000"
 1753 0139 07       		.byte	0x7
 1754 013a 26       		.byte	0x26
 1755 013b 23010000 		.4byte	0x123
 1756 013f 00       		.byte	0
 1757 0140 09       		.uleb128 0x9
 1758 0141 7900     		.ascii	"y\000"
 1759 0143 07       		.byte	0x7
 1760 0144 27       		.byte	0x27
 1761 0145 23010000 		.4byte	0x123
 1762 0149 02       		.byte	0x2
 1763 014a 00       		.byte	0
 1764 014b 02       		.uleb128 0x2
 1765 014c 7E010000 		.4byte	.LASF27
 1766 0150 07       		.byte	0x7
 1767 0151 28       		.byte	0x28
 1768 0152 2E010000 		.4byte	0x12e
 1769 0156 08       		.uleb128 0x8
 1770 0157 08       		.byte	0x8
 1771 0158 07       		.byte	0x7
 1772 0159 2B       		.byte	0x2b
 1773 015a 8B010000 		.4byte	0x18b
 1774 015e 09       		.uleb128 0x9
 1775 015f 783100   		.ascii	"x1\000"
 1776 0162 07       		.byte	0x7
 1777 0163 2C       		.byte	0x2c
 1778 0164 23010000 		.4byte	0x123
 1779 0168 00       		.byte	0
 1780 0169 09       		.uleb128 0x9
 1781 016a 793100   		.ascii	"y1\000"
 1782 016d 07       		.byte	0x7
 1783 016e 2D       		.byte	0x2d
 1784 016f 23010000 		.4byte	0x123
 1785 0173 02       		.byte	0x2
 1786 0174 09       		.uleb128 0x9
 1787 0175 783200   		.ascii	"x2\000"
 1788 0178 07       		.byte	0x7
 1789 0179 2E       		.byte	0x2e
 1790 017a 23010000 		.4byte	0x123
 1791 017e 04       		.byte	0x4
 1792 017f 09       		.uleb128 0x9
 1793 0180 793200   		.ascii	"y2\000"
 1794 0183 07       		.byte	0x7
 1795 0184 2F       		.byte	0x2f
 1796 0185 23010000 		.4byte	0x123
 1797 0189 06       		.byte	0x6
 1798 018a 00       		.byte	0
 1799 018b 02       		.uleb128 0x2
 1800 018c E70C0000 		.4byte	.LASF28
 1801 0190 07       		.byte	0x7
 1802 0191 30       		.byte	0x30
 1803 0192 56010000 		.4byte	0x156
 1804 0196 02       		.uleb128 0x2
 1805 0197 9F0B0000 		.4byte	.LASF29
 1806 019b 07       		.byte	0x7
 1807 019c 59       		.byte	0x59
 1808 019d E1000000 		.4byte	0xe1
ARM GAS  C:\Users\haske\AppData\Local\Temp\ccU9uRZG.s 			page 48


 1809 01a1 08       		.uleb128 0x8
 1810 01a2 10       		.byte	0x10
 1811 01a3 08       		.byte	0x8
 1812 01a4 29       		.byte	0x29
 1813 01a5 10020000 		.4byte	0x210
 1814 01a9 0A       		.uleb128 0xa
 1815 01aa 5C100000 		.4byte	.LASF30
 1816 01ae 08       		.byte	0x8
 1817 01af 2B       		.byte	0x2b
 1818 01b0 98020000 		.4byte	0x298
 1819 01b4 00       		.byte	0
 1820 01b5 0A       		.uleb128 0xa
 1821 01b6 6E000000 		.4byte	.LASF31
 1822 01ba 08       		.byte	0x8
 1823 01bb 2C       		.byte	0x2c
 1824 01bc F7000000 		.4byte	0xf7
 1825 01c0 04       		.byte	0x4
 1826 01c1 0A       		.uleb128 0xa
 1827 01c2 A91C0000 		.4byte	.LASF32
 1828 01c6 08       		.byte	0x8
 1829 01c7 2D       		.byte	0x2d
 1830 01c8 F7000000 		.4byte	0xf7
 1831 01cc 06       		.byte	0x6
 1832 01cd 0A       		.uleb128 0xa
 1833 01ce 741C0000 		.4byte	.LASF33
 1834 01d2 08       		.byte	0x8
 1835 01d3 2E       		.byte	0x2e
 1836 01d4 F7000000 		.4byte	0xf7
 1837 01d8 08       		.byte	0x8
 1838 01d9 0A       		.uleb128 0xa
 1839 01da 74080000 		.4byte	.LASF34
 1840 01de 08       		.byte	0x8
 1841 01df 2F       		.byte	0x2f
 1842 01e0 EC000000 		.4byte	0xec
 1843 01e4 0A       		.byte	0xa
 1844 01e5 0A       		.uleb128 0xa
 1845 01e6 7A080000 		.4byte	.LASF35
 1846 01ea 08       		.byte	0x8
 1847 01eb 30       		.byte	0x30
 1848 01ec EC000000 		.4byte	0xec
 1849 01f0 0C       		.byte	0xc
 1850 01f1 0B       		.uleb128 0xb
 1851 01f2 62707000 		.ascii	"bpp\000"
 1852 01f6 08       		.byte	0x8
 1853 01f7 31       		.byte	0x31
 1854 01f8 E1000000 		.4byte	0xe1
 1855 01fc 01       		.byte	0x1
 1856 01fd 04       		.byte	0x4
 1857 01fe 04       		.byte	0x4
 1858 01ff 0E       		.byte	0xe
 1859 0200 0C       		.uleb128 0xc
 1860 0201 D4220000 		.4byte	.LASF36
 1861 0205 08       		.byte	0x8
 1862 0206 32       		.byte	0x32
 1863 0207 E1000000 		.4byte	0xe1
 1864 020b 01       		.byte	0x1
 1865 020c 01       		.byte	0x1
ARM GAS  C:\Users\haske\AppData\Local\Temp\ccU9uRZG.s 			page 49


 1866 020d 03       		.byte	0x3
 1867 020e 0E       		.byte	0xe
 1868 020f 00       		.byte	0
 1869 0210 0D       		.uleb128 0xd
 1870 0211 1F120000 		.4byte	.LASF61
 1871 0215 1C       		.byte	0x1c
 1872 0216 08       		.byte	0x8
 1873 0217 40       		.byte	0x40
 1874 0218 98020000 		.4byte	0x298
 1875 021c 0A       		.uleb128 0xa
 1876 021d 78210000 		.4byte	.LASF37
 1877 0221 08       		.byte	0x8
 1878 0222 42       		.byte	0x42
 1879 0223 D9020000 		.4byte	0x2d9
 1880 0227 00       		.byte	0
 1881 0228 0A       		.uleb128 0xa
 1882 0229 2F070000 		.4byte	.LASF38
 1883 022d 08       		.byte	0x8
 1884 022e 45       		.byte	0x45
 1885 022f FE020000 		.4byte	0x2fe
 1886 0233 04       		.byte	0x4
 1887 0234 0A       		.uleb128 0xa
 1888 0235 AD010000 		.4byte	.LASF39
 1889 0239 08       		.byte	0x8
 1890 023a 48       		.byte	0x48
 1891 023b 23010000 		.4byte	0x123
 1892 023f 08       		.byte	0x8
 1893 0240 0A       		.uleb128 0xa
 1894 0241 B91C0000 		.4byte	.LASF40
 1895 0245 08       		.byte	0x8
 1896 0246 49       		.byte	0x49
 1897 0247 23010000 		.4byte	0x123
 1898 024b 0A       		.byte	0xa
 1899 024c 0C       		.uleb128 0xc
 1900 024d 66170000 		.4byte	.LASF41
 1901 0251 08       		.byte	0x8
 1902 0252 4A       		.byte	0x4a
 1903 0253 E1000000 		.4byte	0xe1
 1904 0257 01       		.byte	0x1
 1905 0258 02       		.byte	0x2
 1906 0259 06       		.byte	0x6
 1907 025a 0C       		.byte	0xc
 1908 025b 0A       		.uleb128 0xa
 1909 025c 3C0A0000 		.4byte	.LASF42
 1910 0260 08       		.byte	0x8
 1911 0261 4C       		.byte	0x4c
 1912 0262 D6000000 		.4byte	0xd6
 1913 0266 0D       		.byte	0xd
 1914 0267 0A       		.uleb128 0xa
 1915 0268 3A130000 		.4byte	.LASF43
 1916 026c 08       		.byte	0x8
 1917 026d 4D       		.byte	0x4d
 1918 026e D6000000 		.4byte	0xd6
 1919 0272 0E       		.byte	0xe
 1920 0273 09       		.uleb128 0x9
 1921 0274 64736300 		.ascii	"dsc\000"
 1922 0278 08       		.byte	0x8
ARM GAS  C:\Users\haske\AppData\Local\Temp\ccU9uRZG.s 			page 50


 1923 0279 4F       		.byte	0x4f
 1924 027a CF000000 		.4byte	0xcf
 1925 027e 10       		.byte	0x10
 1926 027f 0A       		.uleb128 0xa
 1927 0280 7D0C0000 		.4byte	.LASF44
 1928 0284 08       		.byte	0x8
 1929 0285 50       		.byte	0x50
 1930 0286 98020000 		.4byte	0x298
 1931 028a 14       		.byte	0x14
 1932 028b 0A       		.uleb128 0xa
 1933 028c 0F210000 		.4byte	.LASF45
 1934 0290 08       		.byte	0x8
 1935 0291 52       		.byte	0x52
 1936 0292 C6000000 		.4byte	0xc6
 1937 0296 18       		.byte	0x18
 1938 0297 00       		.byte	0
 1939 0298 06       		.uleb128 0x6
 1940 0299 04       		.byte	0x4
 1941 029a 9E020000 		.4byte	0x29e
 1942 029e 0E       		.uleb128 0xe
 1943 029f 10020000 		.4byte	0x210
 1944 02a3 02       		.uleb128 0x2
 1945 02a4 B1150000 		.4byte	.LASF46
 1946 02a8 08       		.byte	0x8
 1947 02a9 33       		.byte	0x33
 1948 02aa A1010000 		.4byte	0x1a1
 1949 02ae 0F       		.uleb128 0xf
 1950 02af CC020000 		.4byte	0x2cc
 1951 02b3 CC020000 		.4byte	0x2cc
 1952 02b7 10       		.uleb128 0x10
 1953 02b8 98020000 		.4byte	0x298
 1954 02bc 10       		.uleb128 0x10
 1955 02bd D3020000 		.4byte	0x2d3
 1956 02c1 10       		.uleb128 0x10
 1957 02c2 0D010000 		.4byte	0x10d
 1958 02c6 10       		.uleb128 0x10
 1959 02c7 0D010000 		.4byte	0x10d
 1960 02cb 00       		.byte	0
 1961 02cc 03       		.uleb128 0x3
 1962 02cd 01       		.byte	0x1
 1963 02ce 02       		.byte	0x2
 1964 02cf D8080000 		.4byte	.LASF47
 1965 02d3 06       		.uleb128 0x6
 1966 02d4 04       		.byte	0x4
 1967 02d5 A3020000 		.4byte	0x2a3
 1968 02d9 06       		.uleb128 0x6
 1969 02da 04       		.byte	0x4
 1970 02db AE020000 		.4byte	0x2ae
 1971 02df 0F       		.uleb128 0xf
 1972 02e0 F3020000 		.4byte	0x2f3
 1973 02e4 F3020000 		.4byte	0x2f3
 1974 02e8 10       		.uleb128 0x10
 1975 02e9 98020000 		.4byte	0x298
 1976 02ed 10       		.uleb128 0x10
 1977 02ee 0D010000 		.4byte	0x10d
 1978 02f2 00       		.byte	0
 1979 02f3 06       		.uleb128 0x6
ARM GAS  C:\Users\haske\AppData\Local\Temp\ccU9uRZG.s 			page 51


 1980 02f4 04       		.byte	0x4
 1981 02f5 F9020000 		.4byte	0x2f9
 1982 02f9 0E       		.uleb128 0xe
 1983 02fa E1000000 		.4byte	0xe1
 1984 02fe 06       		.uleb128 0x6
 1985 02ff 04       		.byte	0x4
 1986 0300 DF020000 		.4byte	0x2df
 1987 0304 02       		.uleb128 0x2
 1988 0305 5E200000 		.4byte	.LASF48
 1989 0309 08       		.byte	0x8
 1990 030a 54       		.byte	0x54
 1991 030b 10020000 		.4byte	0x210
 1992 030f 11       		.uleb128 0x11
 1993 0310 01       		.byte	0x1
 1994 0311 69000000 		.4byte	0x69
 1995 0315 09       		.byte	0x9
 1996 0316 2A       		.byte	0x2a
 1997 0317 28030000 		.4byte	0x328
 1998 031b 12       		.uleb128 0x12
 1999 031c 9D020000 		.4byte	.LASF49
 2000 0320 00       		.byte	0
 2001 0321 12       		.uleb128 0x12
 2002 0322 43190000 		.4byte	.LASF50
 2003 0326 01       		.byte	0x1
 2004 0327 00       		.byte	0
 2005 0328 02       		.uleb128 0x2
 2006 0329 D4160000 		.4byte	.LASF51
 2007 032d 09       		.byte	0x9
 2008 032e 2F       		.byte	0x2f
 2009 032f E1000000 		.4byte	0xe1
 2010 0333 08       		.uleb128 0x8
 2011 0334 02       		.byte	0x2
 2012 0335 0A       		.byte	0xa
 2013 0336 D1       		.byte	0xd1
 2014 0337 69030000 		.4byte	0x369
 2015 033b 0C       		.uleb128 0xc
 2016 033c 53070000 		.4byte	.LASF52
 2017 0340 0A       		.byte	0xa
 2018 0341 D3       		.byte	0xd3
 2019 0342 F7000000 		.4byte	0xf7
 2020 0346 02       		.byte	0x2
 2021 0347 05       		.byte	0x5
 2022 0348 0B       		.byte	0xb
 2023 0349 00       		.byte	0
 2024 034a 0C       		.uleb128 0xc
 2025 034b 58200000 		.4byte	.LASF53
 2026 034f 0A       		.byte	0xa
 2027 0350 D4       		.byte	0xd4
 2028 0351 F7000000 		.4byte	0xf7
 2029 0355 02       		.byte	0x2
 2030 0356 06       		.byte	0x6
 2031 0357 05       		.byte	0x5
 2032 0358 00       		.byte	0
 2033 0359 0B       		.uleb128 0xb
 2034 035a 72656400 		.ascii	"red\000"
 2035 035e 0A       		.byte	0xa
 2036 035f D5       		.byte	0xd5
ARM GAS  C:\Users\haske\AppData\Local\Temp\ccU9uRZG.s 			page 52


 2037 0360 F7000000 		.4byte	0xf7
 2038 0364 02       		.byte	0x2
 2039 0365 05       		.byte	0x5
 2040 0366 00       		.byte	0
 2041 0367 00       		.byte	0
 2042 0368 00       		.byte	0
 2043 0369 13       		.uleb128 0x13
 2044 036a 02       		.byte	0x2
 2045 036b 0A       		.byte	0xa
 2046 036c D0       		.byte	0xd0
 2047 036d 87030000 		.4byte	0x387
 2048 0371 14       		.uleb128 0x14
 2049 0372 636800   		.ascii	"ch\000"
 2050 0375 0A       		.byte	0xa
 2051 0376 DC       		.byte	0xdc
 2052 0377 33030000 		.4byte	0x333
 2053 037b 15       		.uleb128 0x15
 2054 037c 431B0000 		.4byte	.LASF54
 2055 0380 0A       		.byte	0xa
 2056 0381 DD       		.byte	0xdd
 2057 0382 F7000000 		.4byte	0xf7
 2058 0386 00       		.byte	0
 2059 0387 02       		.uleb128 0x2
 2060 0388 9C1C0000 		.4byte	.LASF55
 2061 038c 0A       		.byte	0xa
 2062 038d DE       		.byte	0xde
 2063 038e 69030000 		.4byte	0x369
 2064 0392 02       		.uleb128 0x2
 2065 0393 65190000 		.4byte	.LASF56
 2066 0397 0A       		.byte	0xa
 2067 0398 EB       		.byte	0xeb
 2068 0399 87030000 		.4byte	0x387
 2069 039d 02       		.uleb128 0x2
 2070 039e 1F010000 		.4byte	.LASF57
 2071 03a2 0A       		.byte	0xa
 2072 03a3 F5       		.byte	0xf5
 2073 03a4 E1000000 		.4byte	0xe1
 2074 03a8 11       		.uleb128 0x11
 2075 03a9 01       		.byte	0x1
 2076 03aa 69000000 		.4byte	0x69
 2077 03ae 02       		.byte	0x2
 2078 03af 25       		.byte	0x25
 2079 03b0 C1030000 		.4byte	0x3c1
 2080 03b4 12       		.uleb128 0x12
 2081 03b5 F8060000 		.4byte	.LASF58
 2082 03b9 00       		.byte	0
 2083 03ba 12       		.uleb128 0x12
 2084 03bb D3000000 		.4byte	.LASF59
 2085 03bf 01       		.byte	0x1
 2086 03c0 00       		.byte	0
 2087 03c1 02       		.uleb128 0x2
 2088 03c2 39140000 		.4byte	.LASF60
 2089 03c6 02       		.byte	0x2
 2090 03c7 2E       		.byte	0x2e
 2091 03c8 CC030000 		.4byte	0x3cc
 2092 03cc 06       		.uleb128 0x6
 2093 03cd 04       		.byte	0x4
ARM GAS  C:\Users\haske\AppData\Local\Temp\ccU9uRZG.s 			page 53


 2094 03ce D2030000 		.4byte	0x3d2
 2095 03d2 0F       		.uleb128 0xf
 2096 03d3 02010000 		.4byte	0x102
 2097 03d7 E1030000 		.4byte	0x3e1
 2098 03db 10       		.uleb128 0x10
 2099 03dc E1030000 		.4byte	0x3e1
 2100 03e0 00       		.byte	0
 2101 03e1 06       		.uleb128 0x6
 2102 03e2 04       		.byte	0x4
 2103 03e3 FC040000 		.4byte	0x4fc
 2104 03e7 0D       		.uleb128 0xd
 2105 03e8 79220000 		.4byte	.LASF62
 2106 03ec 44       		.byte	0x44
 2107 03ed 02       		.byte	0x2
 2108 03ee 49       		.byte	0x49
 2109 03ef FC040000 		.4byte	0x4fc
 2110 03f3 09       		.uleb128 0x9
 2111 03f4 76617200 		.ascii	"var\000"
 2112 03f8 02       		.byte	0x2
 2113 03f9 4A       		.byte	0x4a
 2114 03fa C6000000 		.4byte	0xc6
 2115 03fe 00       		.byte	0
 2116 03ff 0A       		.uleb128 0xa
 2117 0400 171A0000 		.4byte	.LASF63
 2118 0404 02       		.byte	0x2
 2119 0405 4B       		.byte	0x4b
 2120 0406 01050000 		.4byte	0x501
 2121 040a 04       		.byte	0x4
 2122 040b 0A       		.uleb128 0xa
 2123 040c 40070000 		.4byte	.LASF64
 2124 0410 02       		.byte	0x2
 2125 0411 4C       		.byte	0x4c
 2126 0412 44050000 		.4byte	0x544
 2127 0416 08       		.byte	0x8
 2128 0417 0A       		.uleb128 0xa
 2129 0418 180C0000 		.4byte	.LASF65
 2130 041c 02       		.byte	0x2
 2131 041d 4D       		.byte	0x4d
 2132 041e 28050000 		.4byte	0x528
 2133 0422 0C       		.byte	0xc
 2134 0423 0A       		.uleb128 0xa
 2135 0424 A9210000 		.4byte	.LASF66
 2136 0428 02       		.byte	0x2
 2137 0429 4E       		.byte	0x4e
 2138 042a 6F050000 		.4byte	0x56f
 2139 042e 10       		.byte	0x10
 2140 042f 0A       		.uleb128 0xa
 2141 0430 BC160000 		.4byte	.LASF67
 2142 0434 02       		.byte	0x2
 2143 0435 4F       		.byte	0x4f
 2144 0436 4F050000 		.4byte	0x54f
 2145 043a 14       		.byte	0x14
 2146 043b 0A       		.uleb128 0xa
 2147 043c 0F210000 		.4byte	.LASF45
 2148 0440 02       		.byte	0x2
 2149 0441 51       		.byte	0x51
 2150 0442 C6000000 		.4byte	0xc6
ARM GAS  C:\Users\haske\AppData\Local\Temp\ccU9uRZG.s 			page 54


 2151 0446 18       		.byte	0x18
 2152 0447 0A       		.uleb128 0xa
 2153 0448 B9010000 		.4byte	.LASF68
 2154 044c 02       		.byte	0x2
 2155 044d 53       		.byte	0x53
 2156 044e C1030000 		.4byte	0x3c1
 2157 0452 1C       		.byte	0x1c
 2158 0453 0A       		.uleb128 0xa
 2159 0454 74070000 		.4byte	.LASF69
 2160 0458 02       		.byte	0x2
 2161 0459 54       		.byte	0x54
 2162 045a 02010000 		.4byte	0x102
 2163 045e 20       		.byte	0x20
 2164 045f 0A       		.uleb128 0xa
 2165 0460 12140000 		.4byte	.LASF70
 2166 0464 02       		.byte	0x2
 2167 0465 55       		.byte	0x55
 2168 0466 02010000 		.4byte	0x102
 2169 046a 24       		.byte	0x24
 2170 046b 0A       		.uleb128 0xa
 2171 046c 4D190000 		.4byte	.LASF71
 2172 0470 02       		.byte	0x2
 2173 0471 56       		.byte	0x56
 2174 0472 02010000 		.4byte	0x102
 2175 0476 28       		.byte	0x28
 2176 0477 0A       		.uleb128 0xa
 2177 0478 621B0000 		.4byte	.LASF72
 2178 047c 02       		.byte	0x2
 2179 047d 57       		.byte	0x57
 2180 047e 02010000 		.4byte	0x102
 2181 0482 2C       		.byte	0x2c
 2182 0483 0A       		.uleb128 0xa
 2183 0484 C31E0000 		.4byte	.LASF73
 2184 0488 02       		.byte	0x2
 2185 0489 58       		.byte	0x58
 2186 048a 02010000 		.4byte	0x102
 2187 048e 30       		.byte	0x30
 2188 048f 0A       		.uleb128 0xa
 2189 0490 9A0E0000 		.4byte	.LASF74
 2190 0494 02       		.byte	0x2
 2191 0495 59       		.byte	0x59
 2192 0496 0D010000 		.4byte	0x10d
 2193 049a 34       		.byte	0x34
 2194 049b 0A       		.uleb128 0xa
 2195 049c 481A0000 		.4byte	.LASF75
 2196 04a0 02       		.byte	0x2
 2197 04a1 5A       		.byte	0x5a
 2198 04a2 0D010000 		.4byte	0x10d
 2199 04a6 38       		.byte	0x38
 2200 04a7 0A       		.uleb128 0xa
 2201 04a8 89160000 		.4byte	.LASF76
 2202 04ac 02       		.byte	0x2
 2203 04ad 5B       		.byte	0x5b
 2204 04ae 0D010000 		.4byte	0x10d
 2205 04b2 3C       		.byte	0x3c
 2206 04b3 0A       		.uleb128 0xa
 2207 04b4 7C170000 		.4byte	.LASF77
ARM GAS  C:\Users\haske\AppData\Local\Temp\ccU9uRZG.s 			page 55


 2208 04b8 02       		.byte	0x2
 2209 04b9 5C       		.byte	0x5c
 2210 04ba F7000000 		.4byte	0xf7
 2211 04be 40       		.byte	0x40
 2212 04bf 0C       		.uleb128 0xc
 2213 04c0 5E060000 		.4byte	.LASF78
 2214 04c4 02       		.byte	0x2
 2215 04c5 5D       		.byte	0x5d
 2216 04c6 E1000000 		.4byte	0xe1
 2217 04ca 01       		.byte	0x1
 2218 04cb 01       		.byte	0x1
 2219 04cc 07       		.byte	0x7
 2220 04cd 42       		.byte	0x42
 2221 04ce 0C       		.uleb128 0xc
 2222 04cf 2D210000 		.4byte	.LASF79
 2223 04d3 02       		.byte	0x2
 2224 04d4 60       		.byte	0x60
 2225 04d5 E1000000 		.4byte	0xe1
 2226 04d9 01       		.byte	0x1
 2227 04da 01       		.byte	0x1
 2228 04db 06       		.byte	0x6
 2229 04dc 42       		.byte	0x42
 2230 04dd 0C       		.uleb128 0xc
 2231 04de 59040000 		.4byte	.LASF80
 2232 04e2 02       		.byte	0x2
 2233 04e3 61       		.byte	0x61
 2234 04e4 E1000000 		.4byte	0xe1
 2235 04e8 01       		.byte	0x1
 2236 04e9 01       		.byte	0x1
 2237 04ea 05       		.byte	0x5
 2238 04eb 42       		.byte	0x42
 2239 04ec 0C       		.uleb128 0xc
 2240 04ed BC100000 		.4byte	.LASF81
 2241 04f1 02       		.byte	0x2
 2242 04f2 62       		.byte	0x62
 2243 04f3 E1000000 		.4byte	0xe1
 2244 04f7 01       		.byte	0x1
 2245 04f8 01       		.byte	0x1
 2246 04f9 04       		.byte	0x4
 2247 04fa 42       		.byte	0x42
 2248 04fb 00       		.byte	0
 2249 04fc 0E       		.uleb128 0xe
 2250 04fd E7030000 		.4byte	0x3e7
 2251 0501 02       		.uleb128 0x2
 2252 0502 130A0000 		.4byte	.LASF82
 2253 0506 02       		.byte	0x2
 2254 0507 36       		.byte	0x36
 2255 0508 0C050000 		.4byte	0x50c
 2256 050c 06       		.uleb128 0x6
 2257 050d 04       		.byte	0x4
 2258 050e 12050000 		.4byte	0x512
 2259 0512 16       		.uleb128 0x16
 2260 0513 22050000 		.4byte	0x522
 2261 0517 10       		.uleb128 0x10
 2262 0518 C6000000 		.4byte	0xc6
 2263 051c 10       		.uleb128 0x10
 2264 051d 02010000 		.4byte	0x102
ARM GAS  C:\Users\haske\AppData\Local\Temp\ccU9uRZG.s 			page 56


 2265 0521 00       		.byte	0
 2266 0522 06       		.uleb128 0x6
 2267 0523 04       		.byte	0x4
 2268 0524 E7030000 		.4byte	0x3e7
 2269 0528 02       		.uleb128 0x2
 2270 0529 E30D0000 		.4byte	.LASF83
 2271 052d 02       		.byte	0x2
 2272 052e 3D       		.byte	0x3d
 2273 052f 33050000 		.4byte	0x533
 2274 0533 06       		.uleb128 0x6
 2275 0534 04       		.byte	0x4
 2276 0535 39050000 		.4byte	0x539
 2277 0539 16       		.uleb128 0x16
 2278 053a 44050000 		.4byte	0x544
 2279 053e 10       		.uleb128 0x10
 2280 053f 22050000 		.4byte	0x522
 2281 0543 00       		.byte	0
 2282 0544 02       		.uleb128 0x2
 2283 0545 7A1C0000 		.4byte	.LASF84
 2284 0549 02       		.byte	0x2
 2285 054a 40       		.byte	0x40
 2286 054b 33050000 		.4byte	0x533
 2287 054f 02       		.uleb128 0x2
 2288 0550 D8010000 		.4byte	.LASF85
 2289 0554 02       		.byte	0x2
 2290 0555 43       		.byte	0x43
 2291 0556 5A050000 		.4byte	0x55a
 2292 055a 06       		.uleb128 0x6
 2293 055b 04       		.byte	0x4
 2294 055c 60050000 		.4byte	0x560
 2295 0560 0F       		.uleb128 0xf
 2296 0561 02010000 		.4byte	0x102
 2297 0565 6F050000 		.4byte	0x56f
 2298 0569 10       		.uleb128 0x10
 2299 056a 22050000 		.4byte	0x522
 2300 056e 00       		.byte	0
 2301 056f 02       		.uleb128 0x2
 2302 0570 62140000 		.4byte	.LASF86
 2303 0574 02       		.byte	0x2
 2304 0575 46       		.byte	0x46
 2305 0576 33050000 		.4byte	0x533
 2306 057a 02       		.uleb128 0x2
 2307 057b 980F0000 		.4byte	.LASF87
 2308 057f 02       		.byte	0x2
 2309 0580 63       		.byte	0x63
 2310 0581 E7030000 		.4byte	0x3e7
 2311 0585 02       		.uleb128 0x2
 2312 0586 DC190000 		.4byte	.LASF88
 2313 058a 0B       		.byte	0xb
 2314 058b 30       		.byte	0x30
 2315 058c E1000000 		.4byte	0xe1
 2316 0590 02       		.uleb128 0x2
 2317 0591 1D130000 		.4byte	.LASF89
 2318 0595 0B       		.byte	0xb
 2319 0596 42       		.byte	0x42
 2320 0597 E1000000 		.4byte	0xe1
 2321 059b 02       		.uleb128 0x2
ARM GAS  C:\Users\haske\AppData\Local\Temp\ccU9uRZG.s 			page 57


 2322 059c 89080000 		.4byte	.LASF90
 2323 05a0 0C       		.byte	0xc
 2324 05a1 2A       		.byte	0x2a
 2325 05a2 E1000000 		.4byte	0xe1
 2326 05a6 02       		.uleb128 0x2
 2327 05a7 460F0000 		.4byte	.LASF91
 2328 05ab 0D       		.byte	0xd
 2329 05ac 5E       		.byte	0x5e
 2330 05ad E1000000 		.4byte	0xe1
 2331 05b1 02       		.uleb128 0x2
 2332 05b2 56120000 		.4byte	.LASF92
 2333 05b6 0D       		.byte	0xd
 2334 05b7 6A       		.byte	0x6a
 2335 05b8 E1000000 		.4byte	0xe1
 2336 05bc 02       		.uleb128 0x2
 2337 05bd DC1B0000 		.4byte	.LASF93
 2338 05c1 0D       		.byte	0xd
 2339 05c2 79       		.byte	0x79
 2340 05c3 E1000000 		.4byte	0xe1
 2341 05c7 02       		.uleb128 0x2
 2342 05c8 B4210000 		.4byte	.LASF94
 2343 05cc 0D       		.byte	0xd
 2344 05cd 84       		.byte	0x84
 2345 05ce E1000000 		.4byte	0xe1
 2346 05d2 02       		.uleb128 0x2
 2347 05d3 11170000 		.4byte	.LASF95
 2348 05d7 0D       		.byte	0xd
 2349 05d8 90       		.byte	0x90
 2350 05d9 E1000000 		.4byte	0xe1
 2351 05dd 08       		.uleb128 0x8
 2352 05de 04       		.byte	0x4
 2353 05df 0D       		.byte	0xd
 2354 05e0 95       		.byte	0x95
 2355 05e1 FE050000 		.4byte	0x5fe
 2356 05e5 0A       		.uleb128 0xa
 2357 05e6 5C1B0000 		.4byte	.LASF96
 2358 05ea 0D       		.byte	0xd
 2359 05eb 96       		.byte	0x96
 2360 05ec 92030000 		.4byte	0x392
 2361 05f0 00       		.byte	0
 2362 05f1 0A       		.uleb128 0xa
 2363 05f2 ED1B0000 		.4byte	.LASF97
 2364 05f6 0D       		.byte	0xd
 2365 05f7 97       		.byte	0x97
 2366 05f8 E1000000 		.4byte	0xe1
 2367 05fc 02       		.byte	0x2
 2368 05fd 00       		.byte	0
 2369 05fe 02       		.uleb128 0x2
 2370 05ff 4B1F0000 		.4byte	.LASF98
 2371 0603 0D       		.byte	0xd
 2372 0604 98       		.byte	0x98
 2373 0605 DD050000 		.4byte	0x5dd
 2374 0609 08       		.uleb128 0x8
 2375 060a 0A       		.byte	0xa
 2376 060b 0D       		.byte	0xd
 2377 060c 9B       		.byte	0x9b
 2378 060d 48060000 		.4byte	0x648
ARM GAS  C:\Users\haske\AppData\Local\Temp\ccU9uRZG.s 			page 58


 2379 0611 0A       		.uleb128 0xa
 2380 0612 751B0000 		.4byte	.LASF99
 2381 0616 0D       		.byte	0xd
 2382 0617 9C       		.byte	0x9c
 2383 0618 48060000 		.4byte	0x648
 2384 061c 00       		.byte	0
 2385 061d 0A       		.uleb128 0xa
 2386 061e CD0A0000 		.4byte	.LASF100
 2387 0622 0D       		.byte	0xd
 2388 0623 9D       		.byte	0x9d
 2389 0624 E1000000 		.4byte	0xe1
 2390 0628 08       		.byte	0x8
 2391 0629 0B       		.uleb128 0xb
 2392 062a 64697200 		.ascii	"dir\000"
 2393 062e 0D       		.byte	0xd
 2394 062f 9E       		.byte	0x9e
 2395 0630 C7050000 		.4byte	0x5c7
 2396 0634 01       		.byte	0x1
 2397 0635 03       		.byte	0x3
 2398 0636 05       		.byte	0x5
 2399 0637 09       		.byte	0x9
 2400 0638 0C       		.uleb128 0xc
 2401 0639 95200000 		.4byte	.LASF101
 2402 063d 0D       		.byte	0xd
 2403 063e A0       		.byte	0xa0
 2404 063f D2050000 		.4byte	0x5d2
 2405 0643 01       		.byte	0x1
 2406 0644 03       		.byte	0x3
 2407 0645 02       		.byte	0x2
 2408 0646 09       		.byte	0x9
 2409 0647 00       		.byte	0
 2410 0648 17       		.uleb128 0x17
 2411 0649 FE050000 		.4byte	0x5fe
 2412 064d 58060000 		.4byte	0x658
 2413 0651 18       		.uleb128 0x18
 2414 0652 BF000000 		.4byte	0xbf
 2415 0656 01       		.byte	0x1
 2416 0657 00       		.byte	0
 2417 0658 02       		.uleb128 0x2
 2418 0659 89220000 		.4byte	.LASF102
 2419 065d 0D       		.byte	0xd
 2420 065e A2       		.byte	0xa2
 2421 065f 09060000 		.4byte	0x609
 2422 0663 13       		.uleb128 0x13
 2423 0664 04       		.byte	0x4
 2424 0665 0D       		.byte	0xd
 2425 0666 A7       		.byte	0xa7
 2426 0667 8D060000 		.4byte	0x68d
 2427 066b 14       		.uleb128 0x14
 2428 066c 6E756D00 		.ascii	"num\000"
 2429 0670 0D       		.byte	0xd
 2430 0671 A8       		.byte	0xa8
 2431 0672 02010000 		.4byte	0x102
 2432 0676 14       		.uleb128 0x14
 2433 0677 70747200 		.ascii	"ptr\000"
 2434 067b 0D       		.byte	0xd
 2435 067c A9       		.byte	0xa9
ARM GAS  C:\Users\haske\AppData\Local\Temp\ccU9uRZG.s 			page 59


 2436 067d CF000000 		.4byte	0xcf
 2437 0681 15       		.uleb128 0x15
 2438 0682 5C1B0000 		.4byte	.LASF96
 2439 0686 0D       		.byte	0xd
 2440 0687 AA       		.byte	0xaa
 2441 0688 92030000 		.4byte	0x392
 2442 068c 00       		.byte	0
 2443 068d 02       		.uleb128 0x2
 2444 068e A0140000 		.4byte	.LASF103
 2445 0692 0D       		.byte	0xd
 2446 0693 AB       		.byte	0xab
 2447 0694 63060000 		.4byte	0x663
 2448 0698 11       		.uleb128 0x11
 2449 0699 02       		.byte	0x2
 2450 069a 8D000000 		.4byte	0x8d
 2451 069e 0D       		.byte	0xd
 2452 069f B2       		.byte	0xb2
 2453 06a0 BD080000 		.4byte	0x8bd
 2454 06a4 12       		.uleb128 0x12
 2455 06a5 560D0000 		.4byte	.LASF104
 2456 06a9 00       		.byte	0
 2457 06aa 12       		.uleb128 0x12
 2458 06ab AD190000 		.4byte	.LASF105
 2459 06af 01       		.byte	0x1
 2460 06b0 12       		.uleb128 0x12
 2461 06b1 C9190000 		.4byte	.LASF106
 2462 06b5 02       		.byte	0x2
 2463 06b6 12       		.uleb128 0x12
 2464 06b7 46040000 		.4byte	.LASF107
 2465 06bb 03       		.byte	0x3
 2466 06bc 12       		.uleb128 0x12
 2467 06bd 47020000 		.4byte	.LASF108
 2468 06c1 04       		.byte	0x4
 2469 06c2 12       		.uleb128 0x12
 2470 06c3 D71E0000 		.4byte	.LASF109
 2471 06c7 05       		.byte	0x5
 2472 06c8 12       		.uleb128 0x12
 2473 06c9 1B1C0000 		.4byte	.LASF110
 2474 06cd 06       		.byte	0x6
 2475 06ce 12       		.uleb128 0x12
 2476 06cf D2110000 		.4byte	.LASF111
 2477 06d3 07       		.byte	0x7
 2478 06d4 12       		.uleb128 0x12
 2479 06d5 5E1F0000 		.4byte	.LASF112
 2480 06d9 08       		.byte	0x8
 2481 06da 12       		.uleb128 0x12
 2482 06db 80070000 		.4byte	.LASF113
 2483 06df 09       		.byte	0x9
 2484 06e0 12       		.uleb128 0x12
 2485 06e1 A1150000 		.4byte	.LASF114
 2486 06e5 0A       		.byte	0xa
 2487 06e6 12       		.uleb128 0x12
 2488 06e7 1F040000 		.4byte	.LASF115
 2489 06eb 0B       		.byte	0xb
 2490 06ec 12       		.uleb128 0x12
 2491 06ed E21D0000 		.4byte	.LASF116
 2492 06f1 10       		.byte	0x10
ARM GAS  C:\Users\haske\AppData\Local\Temp\ccU9uRZG.s 			page 60


 2493 06f2 12       		.uleb128 0x12
 2494 06f3 BC0E0000 		.4byte	.LASF117
 2495 06f7 11       		.byte	0x11
 2496 06f8 12       		.uleb128 0x12
 2497 06f9 F9100000 		.4byte	.LASF118
 2498 06fd 12       		.byte	0x12
 2499 06fe 12       		.uleb128 0x12
 2500 06ff CA040000 		.4byte	.LASF119
 2501 0703 13       		.byte	0x13
 2502 0704 12       		.uleb128 0x12
 2503 0705 8E100000 		.4byte	.LASF120
 2504 0709 14       		.byte	0x14
 2505 070a 12       		.uleb128 0x12
 2506 070b 87030000 		.4byte	.LASF121
 2507 070f 15       		.byte	0x15
 2508 0710 12       		.uleb128 0x12
 2509 0711 9C0A0000 		.4byte	.LASF122
 2510 0715 16       		.byte	0x16
 2511 0716 12       		.uleb128 0x12
 2512 0717 36160000 		.4byte	.LASF123
 2513 071b 17       		.byte	0x17
 2514 071c 12       		.uleb128 0x12
 2515 071d 4E0B0000 		.4byte	.LASF124
 2516 0721 20       		.byte	0x20
 2517 0722 12       		.uleb128 0x12
 2518 0723 E30E0000 		.4byte	.LASF125
 2519 0727 21       		.byte	0x21
 2520 0728 12       		.uleb128 0x12
 2521 0729 541C0000 		.4byte	.LASF126
 2522 072d 22       		.byte	0x22
 2523 072e 12       		.uleb128 0x12
 2524 072f 1A070000 		.4byte	.LASF127
 2525 0733 23       		.byte	0x23
 2526 0734 12       		.uleb128 0x12
 2527 0735 180F0000 		.4byte	.LASF128
 2528 0739 24       		.byte	0x24
 2529 073a 12       		.uleb128 0x12
 2530 073b D8180000 		.4byte	.LASF129
 2531 073f 25       		.byte	0x25
 2532 0740 12       		.uleb128 0x12
 2533 0741 B1220000 		.4byte	.LASF130
 2534 0745 26       		.byte	0x26
 2535 0746 12       		.uleb128 0x12
 2536 0747 BA030000 		.4byte	.LASF131
 2537 074b 27       		.byte	0x27
 2538 074c 12       		.uleb128 0x12
 2539 074d 341A0000 		.4byte	.LASF132
 2540 0751 28       		.byte	0x28
 2541 0752 12       		.uleb128 0x12
 2542 0753 281E0000 		.4byte	.LASF133
 2543 0757 29       		.byte	0x29
 2544 0758 12       		.uleb128 0x12
 2545 0759 6B040000 		.4byte	.LASF134
 2546 075d 2A       		.byte	0x2a
 2547 075e 12       		.uleb128 0x12
 2548 075f 47050000 		.4byte	.LASF135
 2549 0763 2B       		.byte	0x2b
ARM GAS  C:\Users\haske\AppData\Local\Temp\ccU9uRZG.s 			page 61


 2550 0764 12       		.uleb128 0x12
 2551 0765 B9050000 		.4byte	.LASF136
 2552 0769 2C       		.byte	0x2c
 2553 076a 12       		.uleb128 0x12
 2554 076b FE170000 		.4byte	.LASF137
 2555 076f 30       		.byte	0x30
 2556 0770 12       		.uleb128 0x12
 2557 0771 FE050000 		.4byte	.LASF138
 2558 0775 31       		.byte	0x31
 2559 0776 12       		.uleb128 0x12
 2560 0777 2B030000 		.4byte	.LASF139
 2561 077b 32       		.byte	0x32
 2562 077c 12       		.uleb128 0x12
 2563 077d EE180000 		.4byte	.LASF140
 2564 0781 33       		.byte	0x33
 2565 0782 12       		.uleb128 0x12
 2566 0783 241F0000 		.4byte	.LASF141
 2567 0787 34       		.byte	0x34
 2568 0788 12       		.uleb128 0x12
 2569 0789 FC0C0000 		.4byte	.LASF142
 2570 078d 35       		.byte	0x35
 2571 078e 12       		.uleb128 0x12
 2572 078f F8200000 		.4byte	.LASF143
 2573 0793 36       		.byte	0x36
 2574 0794 12       		.uleb128 0x12
 2575 0795 B80A0000 		.4byte	.LASF144
 2576 0799 37       		.byte	0x37
 2577 079a 12       		.uleb128 0x12
 2578 079b E3220000 		.4byte	.LASF145
 2579 079f 38       		.byte	0x38
 2580 07a0 12       		.uleb128 0x12
 2581 07a1 FC150000 		.4byte	.LASF146
 2582 07a5 40       		.byte	0x40
 2583 07a6 12       		.uleb128 0x12
 2584 07a7 011A0000 		.4byte	.LASF147
 2585 07ab 41       		.byte	0x41
 2586 07ac 12       		.uleb128 0x12
 2587 07ad 19110000 		.4byte	.LASF148
 2588 07b1 42       		.byte	0x42
 2589 07b2 12       		.uleb128 0x12
 2590 07b3 4A210000 		.4byte	.LASF149
 2591 07b7 43       		.byte	0x43
 2592 07b8 12       		.uleb128 0x12
 2593 07b9 A7060000 		.4byte	.LASF150
 2594 07bd 44       		.byte	0x44
 2595 07be 12       		.uleb128 0x12
 2596 07bf 83040000 		.4byte	.LASF151
 2597 07c3 45       		.byte	0x45
 2598 07c4 12       		.uleb128 0x12
 2599 07c5 600F0000 		.4byte	.LASF152
 2600 07c9 46       		.byte	0x46
 2601 07ca 12       		.uleb128 0x12
 2602 07cb 43080000 		.4byte	.LASF153
 2603 07cf 47       		.byte	0x47
 2604 07d0 12       		.uleb128 0x12
 2605 07d1 600B0000 		.4byte	.LASF154
 2606 07d5 48       		.byte	0x48
ARM GAS  C:\Users\haske\AppData\Local\Temp\ccU9uRZG.s 			page 62


 2607 07d6 12       		.uleb128 0x12
 2608 07d7 3C1E0000 		.4byte	.LASF155
 2609 07db 49       		.byte	0x49
 2610 07dc 12       		.uleb128 0x12
 2611 07dd FF0B0000 		.4byte	.LASF156
 2612 07e1 4A       		.byte	0x4a
 2613 07e2 12       		.uleb128 0x12
 2614 07e3 BC000000 		.4byte	.LASF157
 2615 07e7 4B       		.byte	0x4b
 2616 07e8 12       		.uleb128 0x12
 2617 07e9 691F0000 		.4byte	.LASF158
 2618 07ed 4C       		.byte	0x4c
 2619 07ee 12       		.uleb128 0x12
 2620 07ef 7A100000 		.4byte	.LASF159
 2621 07f3 4D       		.byte	0x4d
 2622 07f4 12       		.uleb128 0x12
 2623 07f5 F30E0000 		.4byte	.LASF160
 2624 07f9 4E       		.byte	0x4e
 2625 07fa 12       		.uleb128 0x12
 2626 07fb 61080000 		.4byte	.LASF161
 2627 07ff 50       		.byte	0x50
 2628 0800 12       		.uleb128 0x12
 2629 0801 7E130000 		.4byte	.LASF162
 2630 0805 51       		.byte	0x51
 2631 0806 12       		.uleb128 0x12
 2632 0807 501D0000 		.4byte	.LASF163
 2633 080b 52       		.byte	0x52
 2634 080c 12       		.uleb128 0x12
 2635 080d 28010000 		.4byte	.LASF164
 2636 0811 53       		.byte	0x53
 2637 0812 12       		.uleb128 0x12
 2638 0813 6D1A0000 		.4byte	.LASF165
 2639 0817 54       		.byte	0x54
 2640 0818 12       		.uleb128 0x12
 2641 0819 E6130000 		.4byte	.LASF166
 2642 081d 55       		.byte	0x55
 2643 081e 12       		.uleb128 0x12
 2644 081f CE0F0000 		.4byte	.LASF167
 2645 0823 56       		.byte	0x56
 2646 0824 12       		.uleb128 0x12
 2647 0825 DF1A0000 		.4byte	.LASF168
 2648 0829 57       		.byte	0x57
 2649 082a 12       		.uleb128 0x12
 2650 082b 18230000 		.4byte	.LASF169
 2651 082f 58       		.byte	0x58
 2652 0830 12       		.uleb128 0x12
 2653 0831 680D0000 		.4byte	.LASF170
 2654 0835 59       		.byte	0x59
 2655 0836 12       		.uleb128 0x12
 2656 0837 4E130000 		.4byte	.LASF171
 2657 083b 5A       		.byte	0x5a
 2658 083c 12       		.uleb128 0x12
 2659 083d F6110000 		.4byte	.LASF172
 2660 0841 5B       		.byte	0x5b
 2661 0842 12       		.uleb128 0x12
 2662 0843 10000000 		.4byte	.LASF173
 2663 0847 60       		.byte	0x60
ARM GAS  C:\Users\haske\AppData\Local\Temp\ccU9uRZG.s 			page 63


 2664 0848 12       		.uleb128 0x12
 2665 0849 03130000 		.4byte	.LASF174
 2666 084d 61       		.byte	0x61
 2667 084e 12       		.uleb128 0x12
 2668 084f DD160000 		.4byte	.LASF175
 2669 0853 62       		.byte	0x62
 2670 0854 12       		.uleb128 0x12
 2671 0855 C4110000 		.4byte	.LASF176
 2672 0859 63       		.byte	0x63
 2673 085a 12       		.uleb128 0x12
 2674 085b 870E0000 		.4byte	.LASF177
 2675 085f 64       		.byte	0x64
 2676 0860 12       		.uleb128 0x12
 2677 0861 D30C0000 		.4byte	.LASF178
 2678 0865 65       		.byte	0x65
 2679 0866 12       		.uleb128 0x12
 2680 0867 06050000 		.4byte	.LASF179
 2681 086b 66       		.byte	0x66
 2682 086c 12       		.uleb128 0x12
 2683 086d 8B0B0000 		.4byte	.LASF180
 2684 0871 67       		.byte	0x67
 2685 0872 12       		.uleb128 0x12
 2686 0873 2E0C0000 		.4byte	.LASF181
 2687 0877 68       		.byte	0x68
 2688 0878 12       		.uleb128 0x12
 2689 0879 B0040000 		.4byte	.LASF182
 2690 087d 69       		.byte	0x69
 2691 087e 12       		.uleb128 0x12
 2692 087f 07090000 		.4byte	.LASF183
 2693 0883 6A       		.byte	0x6a
 2694 0884 12       		.uleb128 0x12
 2695 0885 1C090000 		.4byte	.LASF184
 2696 0889 6B       		.byte	0x6b
 2697 088a 12       		.uleb128 0x12
 2698 088b 710F0000 		.4byte	.LASF185
 2699 088f 6C       		.byte	0x6c
 2700 0890 12       		.uleb128 0x12
 2701 0891 BF120000 		.4byte	.LASF186
 2702 0895 6D       		.byte	0x6d
 2703 0896 12       		.uleb128 0x12
 2704 0897 EA070000 		.4byte	.LASF187
 2705 089b 6E       		.byte	0x6e
 2706 089c 12       		.uleb128 0x12
 2707 089d 05080000 		.4byte	.LASF188
 2708 08a1 6F       		.byte	0x6f
 2709 08a2 12       		.uleb128 0x12
 2710 08a3 C8020000 		.4byte	.LASF189
 2711 08a7 6F       		.byte	0x6f
 2712 08a8 12       		.uleb128 0x12
 2713 08a9 C51D0000 		.4byte	.LASF190
 2714 08ad 70       		.byte	0x70
 2715 08ae 19       		.uleb128 0x19
 2716 08af 311B0000 		.4byte	.LASF191
 2717 08b3 FFFF     		.2byte	0xffff
 2718 08b5 19       		.uleb128 0x19
 2719 08b6 CD140000 		.4byte	.LASF192
 2720 08ba FFFF     		.2byte	0xffff
ARM GAS  C:\Users\haske\AppData\Local\Temp\ccU9uRZG.s 			page 64


 2721 08bc 00       		.byte	0
 2722 08bd 1A       		.uleb128 0x1a
 2723 08be 5A0C0000 		.4byte	.LASF193
 2724 08c2 0D       		.byte	0xd
 2725 08c3 1C01     		.2byte	0x11c
 2726 08c5 98060000 		.4byte	0x698
 2727 08c9 1B       		.uleb128 0x1b
 2728 08ca 08       		.byte	0x8
 2729 08cb 0D       		.byte	0xd
 2730 08cc 3601     		.2byte	0x136
 2731 08ce ED080000 		.4byte	0x8ed
 2732 08d2 1C       		.uleb128 0x1c
 2733 08d3 BF0B0000 		.4byte	.LASF194
 2734 08d7 0D       		.byte	0xd
 2735 08d8 3701     		.2byte	0x137
 2736 08da BD080000 		.4byte	0x8bd
 2737 08de 00       		.byte	0
 2738 08df 1C       		.uleb128 0x1c
 2739 08e0 D3090000 		.4byte	.LASF195
 2740 08e4 0D       		.byte	0xd
 2741 08e5 3801     		.2byte	0x138
 2742 08e7 8D060000 		.4byte	0x68d
 2743 08eb 04       		.byte	0x4
 2744 08ec 00       		.byte	0
 2745 08ed 1A       		.uleb128 0x1a
 2746 08ee 900D0000 		.4byte	.LASF196
 2747 08f2 0D       		.byte	0xd
 2748 08f3 3901     		.2byte	0x139
 2749 08f5 C9080000 		.4byte	0x8c9
 2750 08f9 1D       		.uleb128 0x1d
 2751 08fa 04       		.byte	0x4
 2752 08fb 0D       		.byte	0xd
 2753 08fc 4601     		.2byte	0x146
 2754 08fe 27090000 		.4byte	0x927
 2755 0902 1E       		.uleb128 0x1e
 2756 0903 821A0000 		.4byte	.LASF197
 2757 0907 0D       		.byte	0xd
 2758 0908 4701     		.2byte	0x147
 2759 090a 8D060000 		.4byte	0x68d
 2760 090e 1E       		.uleb128 0x1e
 2761 090f 860C0000 		.4byte	.LASF198
 2762 0913 0D       		.byte	0xd
 2763 0914 4801     		.2byte	0x148
 2764 0916 27090000 		.4byte	0x927
 2765 091a 1E       		.uleb128 0x1e
 2766 091b C40B0000 		.4byte	.LASF199
 2767 091f 0D       		.byte	0xd
 2768 0920 4901     		.2byte	0x149
 2769 0922 2D090000 		.4byte	0x92d
 2770 0926 00       		.byte	0
 2771 0927 06       		.uleb128 0x6
 2772 0928 04       		.byte	0x4
 2773 0929 E1000000 		.4byte	0xe1
 2774 092d 06       		.uleb128 0x6
 2775 092e 04       		.byte	0x4
 2776 092f 33090000 		.4byte	0x933
 2777 0933 0E       		.uleb128 0xe
ARM GAS  C:\Users\haske\AppData\Local\Temp\ccU9uRZG.s 			page 65


 2778 0934 ED080000 		.4byte	0x8ed
 2779 0938 1B       		.uleb128 0x1b
 2780 0939 08       		.byte	0x8
 2781 093a 0D       		.byte	0xd
 2782 093b 3E01     		.2byte	0x13e
 2783 093d 76090000 		.4byte	0x976
 2784 0941 1F       		.uleb128 0x1f
 2785 0942 765F7000 		.ascii	"v_p\000"
 2786 0946 0D       		.byte	0xd
 2787 0947 4A01     		.2byte	0x14a
 2788 0949 F9080000 		.4byte	0x8f9
 2789 094d 00       		.byte	0
 2790 094e 1C       		.uleb128 0x1c
 2791 094f 9C1E0000 		.4byte	.LASF200
 2792 0953 0D       		.byte	0xd
 2793 0954 4C01     		.2byte	0x14c
 2794 0956 F7000000 		.4byte	0xf7
 2795 095a 04       		.byte	0x4
 2796 095b 1C       		.uleb128 0x1c
 2797 095c 5D010000 		.4byte	.LASF201
 2798 0960 0D       		.byte	0xd
 2799 0961 4D01     		.2byte	0x14d
 2800 0963 E1000000 		.4byte	0xe1
 2801 0967 06       		.byte	0x6
 2802 0968 1C       		.uleb128 0x1c
 2803 0969 00000000 		.4byte	.LASF202
 2804 096d 0D       		.byte	0xd
 2805 096e 4E01     		.2byte	0x14e
 2806 0970 E1000000 		.4byte	0xe1
 2807 0974 07       		.byte	0x7
 2808 0975 00       		.byte	0
 2809 0976 1A       		.uleb128 0x1a
 2810 0977 050F0000 		.4byte	.LASF203
 2811 097b 0D       		.byte	0xd
 2812 097c 4F01     		.2byte	0x14f
 2813 097e 38090000 		.4byte	0x938
 2814 0982 02       		.uleb128 0x2
 2815 0983 C20F0000 		.4byte	.LASF204
 2816 0987 0E       		.byte	0xe
 2817 0988 69       		.byte	0x69
 2818 0989 E1000000 		.4byte	0xe1
 2819 098d 06       		.uleb128 0x6
 2820 098e 04       		.byte	0x4
 2821 098f 93090000 		.4byte	0x993
 2822 0993 0D       		.uleb128 0xd
 2823 0994 F21B0000 		.4byte	.LASF205
 2824 0998 24       		.byte	0x24
 2825 0999 0F       		.byte	0xf
 2826 099a AE       		.byte	0xae
 2827 099b 5A0A0000 		.4byte	0xa5a
 2828 099f 0A       		.uleb128 0xa
 2829 09a0 0A140000 		.4byte	.LASF206
 2830 09a4 0F       		.byte	0xf
 2831 09a5 AF       		.byte	0xaf
 2832 09a6 BD1F0000 		.4byte	0x1fbd
 2833 09aa 00       		.byte	0
 2834 09ab 0A       		.uleb128 0xa
ARM GAS  C:\Users\haske\AppData\Local\Temp\ccU9uRZG.s 			page 66


 2835 09ac C50D0000 		.4byte	.LASF207
 2836 09b0 0F       		.byte	0xf
 2837 09b1 B0       		.byte	0xb0
 2838 09b2 8D090000 		.4byte	0x98d
 2839 09b6 04       		.byte	0x4
 2840 09b7 0A       		.uleb128 0xa
 2841 09b8 AE0A0000 		.4byte	.LASF208
 2842 09bc 0F       		.byte	0xf
 2843 09bd B1       		.byte	0xb1
 2844 09be C81F0000 		.4byte	0x1fc8
 2845 09c2 08       		.byte	0x8
 2846 09c3 0A       		.uleb128 0xa
 2847 09c4 2E0F0000 		.4byte	.LASF209
 2848 09c8 0F       		.byte	0xf
 2849 09c9 B2       		.byte	0xb2
 2850 09ca CE1F0000 		.4byte	0x1fce
 2851 09ce 0C       		.byte	0xc
 2852 09cf 0A       		.uleb128 0xa
 2853 09d0 0F210000 		.4byte	.LASF45
 2854 09d4 0F       		.byte	0xf
 2855 09d5 B4       		.byte	0xb4
 2856 09d6 C6000000 		.4byte	0xc6
 2857 09da 10       		.byte	0x10
 2858 09db 0A       		.uleb128 0xa
 2859 09dc A41D0000 		.4byte	.LASF210
 2860 09e0 0F       		.byte	0xf
 2861 09e1 B6       		.byte	0xb6
 2862 09e2 8B010000 		.4byte	0x18b
 2863 09e6 14       		.byte	0x14
 2864 09e7 0A       		.uleb128 0xa
 2865 09e8 D9090000 		.4byte	.LASF211
 2866 09ec 0F       		.byte	0xf
 2867 09ed B7       		.byte	0xb7
 2868 09ee 551B0000 		.4byte	0x1b55
 2869 09f2 1C       		.byte	0x1c
 2870 09f3 0A       		.uleb128 0xa
 2871 09f4 41020000 		.4byte	.LASF212
 2872 09f8 0F       		.byte	0xf
 2873 09f9 B8       		.byte	0xb8
 2874 09fa 4A1B0000 		.4byte	0x1b4a
 2875 09fe 20       		.byte	0x20
 2876 09ff 0C       		.uleb128 0xc
 2877 0a00 C7060000 		.4byte	.LASF213
 2878 0a04 0F       		.byte	0xf
 2879 0a05 B9       		.byte	0xb9
 2880 0a06 F7000000 		.4byte	0xf7
 2881 0a0a 02       		.byte	0x2
 2882 0a0b 01       		.byte	0x1
 2883 0a0c 0F       		.byte	0xf
 2884 0a0d 22       		.byte	0x22
 2885 0a0e 0C       		.uleb128 0xc
 2886 0a0f 37040000 		.4byte	.LASF214
 2887 0a13 0F       		.byte	0xf
 2888 0a14 BA       		.byte	0xba
 2889 0a15 F7000000 		.4byte	0xf7
 2890 0a19 02       		.byte	0x2
 2891 0a1a 01       		.byte	0x1
ARM GAS  C:\Users\haske\AppData\Local\Temp\ccU9uRZG.s 			page 67


 2892 0a1b 0E       		.byte	0xe
 2893 0a1c 22       		.byte	0x22
 2894 0a1d 0C       		.uleb128 0xc
 2895 0a1e B0130000 		.4byte	.LASF215
 2896 0a22 0F       		.byte	0xf
 2897 0a23 BB       		.byte	0xbb
 2898 0a24 F7000000 		.4byte	0xf7
 2899 0a28 02       		.byte	0x2
 2900 0a29 01       		.byte	0x1
 2901 0a2a 0D       		.byte	0xd
 2902 0a2b 22       		.byte	0x22
 2903 0a2c 0C       		.uleb128 0xc
 2904 0a2d BD060000 		.4byte	.LASF216
 2905 0a31 0F       		.byte	0xf
 2906 0a32 BC       		.byte	0xbc
 2907 0a33 F7000000 		.4byte	0xf7
 2908 0a37 02       		.byte	0x2
 2909 0a38 06       		.byte	0x6
 2910 0a39 07       		.byte	0x7
 2911 0a3a 22       		.byte	0x22
 2912 0a3b 0C       		.uleb128 0xc
 2913 0a3c C1080000 		.4byte	.LASF217
 2914 0a40 0F       		.byte	0xf
 2915 0a41 BD       		.byte	0xbd
 2916 0a42 F7000000 		.4byte	0xf7
 2917 0a46 02       		.byte	0x2
 2918 0a47 01       		.byte	0x1
 2919 0a48 06       		.byte	0x6
 2920 0a49 22       		.byte	0x22
 2921 0a4a 0C       		.uleb128 0xc
 2922 0a4b F6030000 		.4byte	.LASF218
 2923 0a4f 0F       		.byte	0xf
 2924 0a50 BE       		.byte	0xbe
 2925 0a51 F7000000 		.4byte	0xf7
 2926 0a55 02       		.byte	0x2
 2927 0a56 01       		.byte	0x1
 2928 0a57 05       		.byte	0x5
 2929 0a58 22       		.byte	0x22
 2930 0a59 00       		.byte	0
 2931 0a5a 06       		.uleb128 0x6
 2932 0a5b 04       		.byte	0x4
 2933 0a5c 92030000 		.4byte	0x392
 2934 0a60 08       		.uleb128 0x8
 2935 0a61 38       		.byte	0x38
 2936 0a62 10       		.byte	0x10
 2937 0a63 20       		.byte	0x20
 2938 0a64 A70B0000 		.4byte	0xba7
 2939 0a68 0A       		.uleb128 0xa
 2940 0a69 9D010000 		.4byte	.LASF219
 2941 0a6d 10       		.byte	0x10
 2942 0a6e 21       		.byte	0x21
 2943 0a6f 23010000 		.4byte	0x123
 2944 0a73 00       		.byte	0
 2945 0a74 0A       		.uleb128 0xa
 2946 0a75 FF030000 		.4byte	.LASF220
 2947 0a79 10       		.byte	0x10
 2948 0a7a 22       		.byte	0x22
ARM GAS  C:\Users\haske\AppData\Local\Temp\ccU9uRZG.s 			page 68


 2949 0a7b A6050000 		.4byte	0x5a6
 2950 0a7f 02       		.byte	0x2
 2951 0a80 0A       		.uleb128 0xa
 2952 0a81 63050000 		.4byte	.LASF221
 2953 0a85 10       		.byte	0x10
 2954 0a86 25       		.byte	0x25
 2955 0a87 9D030000 		.4byte	0x39d
 2956 0a8b 03       		.byte	0x3
 2957 0a8c 0A       		.uleb128 0xa
 2958 0a8d A4010000 		.4byte	.LASF222
 2959 0a91 10       		.byte	0x10
 2960 0a92 26       		.byte	0x26
 2961 0a93 92030000 		.4byte	0x392
 2962 0a97 04       		.byte	0x4
 2963 0a98 0A       		.uleb128 0xa
 2964 0a99 0C1F0000 		.4byte	.LASF223
 2965 0a9d 10       		.byte	0x10
 2966 0a9e 27       		.byte	0x27
 2967 0a9f 58060000 		.4byte	0x658
 2968 0aa3 06       		.byte	0x6
 2969 0aa4 0A       		.uleb128 0xa
 2970 0aa5 20030000 		.4byte	.LASF224
 2971 0aa9 10       		.byte	0x10
 2972 0aaa 2A       		.byte	0x2a
 2973 0aab CF000000 		.4byte	0xcf
 2974 0aaf 10       		.byte	0x10
 2975 0ab0 0A       		.uleb128 0xa
 2976 0ab1 59220000 		.4byte	.LASF225
 2977 0ab5 10       		.byte	0x10
 2978 0ab6 2B       		.byte	0x2b
 2979 0ab7 CF000000 		.4byte	0xcf
 2980 0abb 14       		.byte	0x14
 2981 0abc 0A       		.uleb128 0xa
 2982 0abd 8D1C0000 		.4byte	.LASF226
 2983 0ac1 10       		.byte	0x10
 2984 0ac2 2C       		.byte	0x2c
 2985 0ac3 92030000 		.4byte	0x392
 2986 0ac7 18       		.byte	0x18
 2987 0ac8 0A       		.uleb128 0xa
 2988 0ac9 58070000 		.4byte	.LASF227
 2989 0acd 10       		.byte	0x10
 2990 0ace 2D       		.byte	0x2d
 2991 0acf 9D030000 		.4byte	0x39d
 2992 0ad3 1A       		.byte	0x1a
 2993 0ad4 0A       		.uleb128 0xa
 2994 0ad5 87170000 		.4byte	.LASF228
 2995 0ad9 10       		.byte	0x10
 2996 0ada 2E       		.byte	0x2e
 2997 0adb 9D030000 		.4byte	0x39d
 2998 0adf 1B       		.byte	0x1b
 2999 0ae0 0A       		.uleb128 0xa
 3000 0ae1 0D070000 		.4byte	.LASF229
 3001 0ae5 10       		.byte	0x10
 3002 0ae6 2F       		.byte	0x2f
 3003 0ae7 E1000000 		.4byte	0xe1
 3004 0aeb 1C       		.byte	0x1c
 3005 0aec 0A       		.uleb128 0xa
ARM GAS  C:\Users\haske\AppData\Local\Temp\ccU9uRZG.s 			page 69


 3006 0aed 7E0B0000 		.4byte	.LASF230
 3007 0af1 10       		.byte	0x10
 3008 0af2 32       		.byte	0x32
 3009 0af3 92030000 		.4byte	0x392
 3010 0af7 1E       		.byte	0x1e
 3011 0af8 0A       		.uleb128 0xa
 3012 0af9 BC190000 		.4byte	.LASF231
 3013 0afd 10       		.byte	0x10
 3014 0afe 33       		.byte	0x33
 3015 0aff 23010000 		.4byte	0x123
 3016 0b03 20       		.byte	0x20
 3017 0b04 0A       		.uleb128 0xa
 3018 0b05 CC1E0000 		.4byte	.LASF232
 3019 0b09 10       		.byte	0x10
 3020 0b0a 34       		.byte	0x34
 3021 0b0b 9D030000 		.4byte	0x39d
 3022 0b0f 22       		.byte	0x22
 3023 0b10 0C       		.uleb128 0xc
 3024 0b11 E00B0000 		.4byte	.LASF233
 3025 0b15 10       		.byte	0x10
 3026 0b16 35       		.byte	0x35
 3027 0b17 E1000000 		.4byte	0xe1
 3028 0b1b 01       		.byte	0x1
 3029 0b1c 01       		.byte	0x1
 3030 0b1d 07       		.byte	0x7
 3031 0b1e 23       		.byte	0x23
 3032 0b1f 0C       		.uleb128 0xc
 3033 0b20 E0030000 		.4byte	.LASF234
 3034 0b24 10       		.byte	0x10
 3035 0b25 36       		.byte	0x36
 3036 0b26 BC050000 		.4byte	0x5bc
 3037 0b2a 01       		.byte	0x1
 3038 0b2b 05       		.byte	0x5
 3039 0b2c 02       		.byte	0x2
 3040 0b2d 23       		.byte	0x23
 3041 0b2e 0A       		.uleb128 0xa
 3042 0b2f 99060000 		.4byte	.LASF235
 3043 0b33 10       		.byte	0x10
 3044 0b34 39       		.byte	0x39
 3045 0b35 92030000 		.4byte	0x392
 3046 0b39 24       		.byte	0x24
 3047 0b3a 0A       		.uleb128 0xa
 3048 0b3b EE150000 		.4byte	.LASF236
 3049 0b3f 10       		.byte	0x10
 3050 0b40 3A       		.byte	0x3a
 3051 0b41 23010000 		.4byte	0x123
 3052 0b45 26       		.byte	0x26
 3053 0b46 0A       		.uleb128 0xa
 3054 0b47 230B0000 		.4byte	.LASF237
 3055 0b4b 10       		.byte	0x10
 3056 0b4c 3B       		.byte	0x3b
 3057 0b4d 23010000 		.4byte	0x123
 3058 0b51 28       		.byte	0x28
 3059 0b52 0A       		.uleb128 0xa
 3060 0b53 3A150000 		.4byte	.LASF238
 3061 0b57 10       		.byte	0x10
 3062 0b58 3C       		.byte	0x3c
ARM GAS  C:\Users\haske\AppData\Local\Temp\ccU9uRZG.s 			page 70


 3063 0b59 9D030000 		.4byte	0x39d
 3064 0b5d 2A       		.byte	0x2a
 3065 0b5e 0A       		.uleb128 0xa
 3066 0b5f 80120000 		.4byte	.LASF239
 3067 0b63 10       		.byte	0x10
 3068 0b64 3F       		.byte	0x3f
 3069 0b65 92030000 		.4byte	0x392
 3070 0b69 2C       		.byte	0x2c
 3071 0b6a 0A       		.uleb128 0xa
 3072 0b6b 42200000 		.4byte	.LASF240
 3073 0b6f 10       		.byte	0x10
 3074 0b70 40       		.byte	0x40
 3075 0b71 23010000 		.4byte	0x123
 3076 0b75 2E       		.byte	0x2e
 3077 0b76 0A       		.uleb128 0xa
 3078 0b77 210C0000 		.4byte	.LASF241
 3079 0b7b 10       		.byte	0x10
 3080 0b7c 41       		.byte	0x41
 3081 0b7d 23010000 		.4byte	0x123
 3082 0b81 30       		.byte	0x30
 3083 0b82 0A       		.uleb128 0xa
 3084 0b83 6C220000 		.4byte	.LASF242
 3085 0b87 10       		.byte	0x10
 3086 0b88 42       		.byte	0x42
 3087 0b89 23010000 		.4byte	0x123
 3088 0b8d 32       		.byte	0x32
 3089 0b8e 0A       		.uleb128 0xa
 3090 0b8f 790E0000 		.4byte	.LASF243
 3091 0b93 10       		.byte	0x10
 3092 0b94 43       		.byte	0x43
 3093 0b95 23010000 		.4byte	0x123
 3094 0b99 34       		.byte	0x34
 3095 0b9a 0A       		.uleb128 0xa
 3096 0b9b 451D0000 		.4byte	.LASF244
 3097 0b9f 10       		.byte	0x10
 3098 0ba0 44       		.byte	0x44
 3099 0ba1 9D030000 		.4byte	0x39d
 3100 0ba5 36       		.byte	0x36
 3101 0ba6 00       		.byte	0
 3102 0ba7 02       		.uleb128 0x2
 3103 0ba8 27190000 		.4byte	.LASF245
 3104 0bac 10       		.byte	0x10
 3105 0bad 45       		.byte	0x45
 3106 0bae 600A0000 		.4byte	0xa60
 3107 0bb2 08       		.uleb128 0x8
 3108 0bb3 20       		.byte	0x20
 3109 0bb4 11       		.byte	0x11
 3110 0bb5 1E       		.byte	0x1e
 3111 0bb6 810C0000 		.4byte	0xc81
 3112 0bba 0A       		.uleb128 0xa
 3113 0bbb FC1B0000 		.4byte	.LASF246
 3114 0bbf 11       		.byte	0x11
 3115 0bc0 1F       		.byte	0x1f
 3116 0bc1 810C0000 		.4byte	0xc81
 3117 0bc5 00       		.byte	0
 3118 0bc6 0A       		.uleb128 0xa
 3119 0bc7 DB1F0000 		.4byte	.LASF247
ARM GAS  C:\Users\haske\AppData\Local\Temp\ccU9uRZG.s 			page 71


 3120 0bcb 11       		.byte	0x11
 3121 0bcc 20       		.byte	0x20
 3122 0bcd 0D010000 		.4byte	0x10d
 3123 0bd1 04       		.byte	0x4
 3124 0bd2 0A       		.uleb128 0xa
 3125 0bd3 C5140000 		.4byte	.LASF248
 3126 0bd7 11       		.byte	0x11
 3127 0bd8 21       		.byte	0x21
 3128 0bd9 0D010000 		.4byte	0x10d
 3129 0bdd 08       		.byte	0x8
 3130 0bde 0A       		.uleb128 0xa
 3131 0bdf 5C1B0000 		.4byte	.LASF96
 3132 0be3 11       		.byte	0x11
 3133 0be4 22       		.byte	0x22
 3134 0be5 92030000 		.4byte	0x392
 3135 0be9 0C       		.byte	0xc
 3136 0bea 0A       		.uleb128 0xa
 3137 0beb 4F220000 		.4byte	.LASF249
 3138 0bef 11       		.byte	0x11
 3139 0bf0 23       		.byte	0x23
 3140 0bf1 92030000 		.4byte	0x392
 3141 0bf5 0E       		.byte	0xe
 3142 0bf6 0A       		.uleb128 0xa
 3143 0bf7 94050000 		.4byte	.LASF250
 3144 0bfb 11       		.byte	0x11
 3145 0bfc 24       		.byte	0x24
 3146 0bfd 92030000 		.4byte	0x392
 3147 0c01 10       		.byte	0x10
 3148 0c02 0A       		.uleb128 0xa
 3149 0c03 841B0000 		.4byte	.LASF251
 3150 0c07 11       		.byte	0x11
 3151 0c08 25       		.byte	0x25
 3152 0c09 23010000 		.4byte	0x123
 3153 0c0d 12       		.byte	0x12
 3154 0c0e 0A       		.uleb128 0xa
 3155 0c0f 011C0000 		.4byte	.LASF252
 3156 0c13 11       		.byte	0x11
 3157 0c14 26       		.byte	0x26
 3158 0c15 23010000 		.4byte	0x123
 3159 0c19 14       		.byte	0x14
 3160 0c1a 0A       		.uleb128 0xa
 3161 0c1b 74080000 		.4byte	.LASF34
 3162 0c1f 11       		.byte	0x11
 3163 0c20 27       		.byte	0x27
 3164 0c21 23010000 		.4byte	0x123
 3165 0c25 16       		.byte	0x16
 3166 0c26 0A       		.uleb128 0xa
 3167 0c27 7A080000 		.4byte	.LASF35
 3168 0c2b 11       		.byte	0x11
 3169 0c2c 28       		.byte	0x28
 3170 0c2d 23010000 		.4byte	0x123
 3171 0c31 18       		.byte	0x18
 3172 0c32 09       		.uleb128 0x9
 3173 0c33 6F706100 		.ascii	"opa\000"
 3174 0c37 11       		.byte	0x11
 3175 0c38 29       		.byte	0x29
 3176 0c39 9D030000 		.4byte	0x39d
ARM GAS  C:\Users\haske\AppData\Local\Temp\ccU9uRZG.s 			page 72


 3177 0c3d 1A       		.byte	0x1a
 3178 0c3e 0A       		.uleb128 0xa
 3179 0c3f C1010000 		.4byte	.LASF253
 3180 0c43 11       		.byte	0x11
 3181 0c44 2A       		.byte	0x2a
 3182 0c45 9B050000 		.4byte	0x59b
 3183 0c49 1B       		.byte	0x1b
 3184 0c4a 0A       		.uleb128 0xa
 3185 0c4b 78130000 		.4byte	.LASF254
 3186 0c4f 11       		.byte	0x11
 3187 0c50 2B       		.byte	0x2b
 3188 0c51 90050000 		.4byte	0x590
 3189 0c55 1C       		.byte	0x1c
 3190 0c56 0A       		.uleb128 0xa
 3191 0c57 FE140000 		.4byte	.LASF255
 3192 0c5b 11       		.byte	0x11
 3193 0c5c 2C       		.byte	0x2c
 3194 0c5d 85050000 		.4byte	0x585
 3195 0c61 1D       		.byte	0x1d
 3196 0c62 0C       		.uleb128 0xc
 3197 0c63 B21A0000 		.4byte	.LASF256
 3198 0c67 11       		.byte	0x11
 3199 0c68 2D       		.byte	0x2d
 3200 0c69 B1050000 		.4byte	0x5b1
 3201 0c6d 01       		.byte	0x1
 3202 0c6e 03       		.byte	0x3
 3203 0c6f 05       		.byte	0x5
 3204 0c70 1E       		.byte	0x1e
 3205 0c71 0C       		.uleb128 0xc
 3206 0c72 FF030000 		.4byte	.LASF220
 3207 0c76 11       		.byte	0x11
 3208 0c77 2E       		.byte	0x2e
 3209 0c78 A6050000 		.4byte	0x5a6
 3210 0c7c 01       		.byte	0x1
 3211 0c7d 03       		.byte	0x3
 3212 0c7e 02       		.byte	0x2
 3213 0c7f 1E       		.byte	0x1e
 3214 0c80 00       		.byte	0
 3215 0c81 06       		.uleb128 0x6
 3216 0c82 04       		.byte	0x4
 3217 0c83 870C0000 		.4byte	0xc87
 3218 0c87 0E       		.uleb128 0xe
 3219 0c88 04030000 		.4byte	0x304
 3220 0c8c 02       		.uleb128 0x2
 3221 0c8d 75050000 		.4byte	.LASF257
 3222 0c91 11       		.byte	0x11
 3223 0c92 2F       		.byte	0x2f
 3224 0c93 B20B0000 		.4byte	0xbb2
 3225 0c97 08       		.uleb128 0x8
 3226 0c98 18       		.byte	0x18
 3227 0c99 12       		.byte	0x12
 3228 0c9a 20       		.byte	0x20
 3229 0c9b 120D0000 		.4byte	0xd12
 3230 0c9f 0A       		.uleb128 0xa
 3231 0ca0 F3100000 		.4byte	.LASF258
 3232 0ca4 12       		.byte	0x12
 3233 0ca5 22       		.byte	0x22
ARM GAS  C:\Users\haske\AppData\Local\Temp\ccU9uRZG.s 			page 73


 3234 0ca6 EC000000 		.4byte	0xec
 3235 0caa 00       		.byte	0
 3236 0cab 0A       		.uleb128 0xa
 3237 0cac 64020000 		.4byte	.LASF259
 3238 0cb0 12       		.byte	0x12
 3239 0cb1 23       		.byte	0x23
 3240 0cb2 F7000000 		.4byte	0xf7
 3241 0cb6 02       		.byte	0x2
 3242 0cb7 0A       		.uleb128 0xa
 3243 0cb8 671A0000 		.4byte	.LASF260
 3244 0cbc 12       		.byte	0x12
 3245 0cbd 24       		.byte	0x24
 3246 0cbe 4B010000 		.4byte	0x14b
 3247 0cc2 04       		.byte	0x4
 3248 0cc3 0A       		.uleb128 0xa
 3249 0cc4 CC100000 		.4byte	.LASF261
 3250 0cc8 12       		.byte	0x12
 3251 0cc9 26       		.byte	0x26
 3252 0cca 92030000 		.4byte	0x392
 3253 0cce 08       		.byte	0x8
 3254 0ccf 0A       		.uleb128 0xa
 3255 0cd0 95150000 		.4byte	.LASF262
 3256 0cd4 12       		.byte	0x12
 3257 0cd5 27       		.byte	0x27
 3258 0cd6 9D030000 		.4byte	0x39d
 3259 0cda 0A       		.byte	0xa
 3260 0cdb 09       		.uleb128 0x9
 3261 0cdc 6F706100 		.ascii	"opa\000"
 3262 0ce0 12       		.byte	0x12
 3263 0ce1 29       		.byte	0x29
 3264 0ce2 9D030000 		.4byte	0x39d
 3265 0ce6 0B       		.byte	0xb
 3266 0ce7 0C       		.uleb128 0xc
 3267 0ce8 FF030000 		.4byte	.LASF220
 3268 0cec 12       		.byte	0x12
 3269 0ced 2A       		.byte	0x2a
 3270 0cee A6050000 		.4byte	0x5a6
 3271 0cf2 01       		.byte	0x1
 3272 0cf3 04       		.byte	0x4
 3273 0cf4 04       		.byte	0x4
 3274 0cf5 0C       		.byte	0xc
 3275 0cf6 0A       		.uleb128 0xa
 3276 0cf7 8C150000 		.4byte	.LASF263
 3277 0cfb 12       		.byte	0x12
 3278 0cfc 2C       		.byte	0x2c
 3279 0cfd 02010000 		.4byte	0x102
 3280 0d01 10       		.byte	0x10
 3281 0d02 0C       		.uleb128 0xc
 3282 0d03 4B160000 		.4byte	.LASF264
 3283 0d07 12       		.byte	0x12
 3284 0d08 2D       		.byte	0x2d
 3285 0d09 E1000000 		.4byte	0xe1
 3286 0d0d 01       		.byte	0x1
 3287 0d0e 01       		.byte	0x1
 3288 0d0f 07       		.byte	0x7
 3289 0d10 14       		.byte	0x14
 3290 0d11 00       		.byte	0
ARM GAS  C:\Users\haske\AppData\Local\Temp\ccU9uRZG.s 			page 74


 3291 0d12 02       		.uleb128 0x2
 3292 0d13 FA090000 		.4byte	.LASF265
 3293 0d17 12       		.byte	0x12
 3294 0d18 2E       		.byte	0x2e
 3295 0d19 970C0000 		.4byte	0xc97
 3296 0d1d 08       		.uleb128 0x8
 3297 0d1e 0A       		.byte	0xa
 3298 0d1f 13       		.byte	0x13
 3299 0d20 1C       		.byte	0x1c
 3300 0d21 9E0D0000 		.4byte	0xd9e
 3301 0d25 0A       		.uleb128 0xa
 3302 0d26 5C1B0000 		.4byte	.LASF96
 3303 0d2a 13       		.byte	0x13
 3304 0d2b 1D       		.byte	0x1d
 3305 0d2c 92030000 		.4byte	0x392
 3306 0d30 00       		.byte	0
 3307 0d31 0A       		.uleb128 0xa
 3308 0d32 95120000 		.4byte	.LASF266
 3309 0d36 13       		.byte	0x13
 3310 0d37 1E       		.byte	0x1e
 3311 0d38 23010000 		.4byte	0x123
 3312 0d3c 02       		.byte	0x2
 3313 0d3d 0A       		.uleb128 0xa
 3314 0d3e 1A100000 		.4byte	.LASF267
 3315 0d42 13       		.byte	0x13
 3316 0d43 1F       		.byte	0x1f
 3317 0d44 23010000 		.4byte	0x123
 3318 0d48 04       		.byte	0x4
 3319 0d49 0A       		.uleb128 0xa
 3320 0d4a 630A0000 		.4byte	.LASF268
 3321 0d4e 13       		.byte	0x13
 3322 0d4f 20       		.byte	0x20
 3323 0d50 23010000 		.4byte	0x123
 3324 0d54 06       		.byte	0x6
 3325 0d55 09       		.uleb128 0x9
 3326 0d56 6F706100 		.ascii	"opa\000"
 3327 0d5a 13       		.byte	0x13
 3328 0d5b 21       		.byte	0x21
 3329 0d5c 9D030000 		.4byte	0x39d
 3330 0d60 08       		.byte	0x8
 3331 0d61 0C       		.uleb128 0xc
 3332 0d62 FF030000 		.4byte	.LASF220
 3333 0d66 13       		.byte	0x13
 3334 0d67 22       		.byte	0x22
 3335 0d68 A6050000 		.4byte	0x5a6
 3336 0d6c 01       		.byte	0x1
 3337 0d6d 02       		.byte	0x2
 3338 0d6e 06       		.byte	0x6
 3339 0d6f 09       		.byte	0x9
 3340 0d70 0C       		.uleb128 0xc
 3341 0d71 6A0C0000 		.4byte	.LASF269
 3342 0d75 13       		.byte	0x13
 3343 0d76 23       		.byte	0x23
 3344 0d77 E1000000 		.4byte	0xe1
 3345 0d7b 01       		.byte	0x1
 3346 0d7c 01       		.byte	0x1
 3347 0d7d 05       		.byte	0x5
ARM GAS  C:\Users\haske\AppData\Local\Temp\ccU9uRZG.s 			page 75


 3348 0d7e 09       		.byte	0x9
 3349 0d7f 0C       		.uleb128 0xc
 3350 0d80 D90D0000 		.4byte	.LASF270
 3351 0d84 13       		.byte	0x13
 3352 0d85 24       		.byte	0x24
 3353 0d86 E1000000 		.4byte	0xe1
 3354 0d8a 01       		.byte	0x1
 3355 0d8b 01       		.byte	0x1
 3356 0d8c 04       		.byte	0x4
 3357 0d8d 09       		.byte	0x9
 3358 0d8e 0C       		.uleb128 0xc
 3359 0d8f 39010000 		.4byte	.LASF271
 3360 0d93 13       		.byte	0x13
 3361 0d94 25       		.byte	0x25
 3362 0d95 E1000000 		.4byte	0xe1
 3363 0d99 01       		.byte	0x1
 3364 0d9a 01       		.byte	0x1
 3365 0d9b 03       		.byte	0x3
 3366 0d9c 09       		.byte	0x9
 3367 0d9d 00       		.byte	0
 3368 0d9e 02       		.uleb128 0x2
 3369 0d9f D7070000 		.4byte	.LASF272
 3370 0da3 13       		.byte	0x13
 3371 0da4 26       		.byte	0x26
 3372 0da5 1D0D0000 		.4byte	0xd1d
 3373 0da9 08       		.uleb128 0x8
 3374 0daa 10       		.byte	0x10
 3375 0dab 14       		.byte	0x14
 3376 0dac 1C       		.byte	0x1c
 3377 0dad 180E0000 		.4byte	0xe18
 3378 0db1 0A       		.uleb128 0xa
 3379 0db2 5C1B0000 		.4byte	.LASF96
 3380 0db6 14       		.byte	0x14
 3381 0db7 1D       		.byte	0x1d
 3382 0db8 92030000 		.4byte	0x392
 3383 0dbc 00       		.byte	0
 3384 0dbd 0A       		.uleb128 0xa
 3385 0dbe 95120000 		.4byte	.LASF266
 3386 0dc2 14       		.byte	0x14
 3387 0dc3 1E       		.byte	0x1e
 3388 0dc4 23010000 		.4byte	0x123
 3389 0dc8 02       		.byte	0x2
 3390 0dc9 0A       		.uleb128 0xa
 3391 0dca E00F0000 		.4byte	.LASF273
 3392 0dce 14       		.byte	0x14
 3393 0dcf 1F       		.byte	0x1f
 3394 0dd0 F7000000 		.4byte	0xf7
 3395 0dd4 04       		.byte	0x4
 3396 0dd5 0A       		.uleb128 0xa
 3397 0dd6 49070000 		.4byte	.LASF274
 3398 0dda 14       		.byte	0x14
 3399 0ddb 20       		.byte	0x20
 3400 0ddc F7000000 		.4byte	0xf7
 3401 0de0 06       		.byte	0x6
 3402 0de1 0A       		.uleb128 0xa
 3403 0de2 F60D0000 		.4byte	.LASF275
 3404 0de6 14       		.byte	0x14
ARM GAS  C:\Users\haske\AppData\Local\Temp\ccU9uRZG.s 			page 76


 3405 0de7 21       		.byte	0x21
 3406 0de8 CF000000 		.4byte	0xcf
 3407 0dec 08       		.byte	0x8
 3408 0ded 09       		.uleb128 0x9
 3409 0dee 6F706100 		.ascii	"opa\000"
 3410 0df2 14       		.byte	0x14
 3411 0df3 22       		.byte	0x22
 3412 0df4 9D030000 		.4byte	0x39d
 3413 0df8 0C       		.byte	0xc
 3414 0df9 0C       		.uleb128 0xc
 3415 0dfa FF030000 		.4byte	.LASF220
 3416 0dfe 14       		.byte	0x14
 3417 0dff 23       		.byte	0x23
 3418 0e00 A6050000 		.4byte	0x5a6
 3419 0e04 01       		.byte	0x1
 3420 0e05 02       		.byte	0x2
 3421 0e06 06       		.byte	0x6
 3422 0e07 0D       		.byte	0xd
 3423 0e08 0C       		.uleb128 0xc
 3424 0e09 C0020000 		.4byte	.LASF276
 3425 0e0d 14       		.byte	0x14
 3426 0e0e 24       		.byte	0x24
 3427 0e0f E1000000 		.4byte	0xe1
 3428 0e13 01       		.byte	0x1
 3429 0e14 01       		.byte	0x1
 3430 0e15 05       		.byte	0x5
 3431 0e16 0D       		.byte	0xd
 3432 0e17 00       		.byte	0
 3433 0e18 02       		.uleb128 0x2
 3434 0e19 421C0000 		.4byte	.LASF277
 3435 0e1d 14       		.byte	0x14
 3436 0e1e 25       		.byte	0x25
 3437 0e1f A90D0000 		.4byte	0xda9
 3438 0e23 06       		.uleb128 0x6
 3439 0e24 04       		.byte	0x4
 3440 0e25 9D030000 		.4byte	0x39d
 3441 0e29 11       		.uleb128 0x11
 3442 0e2a 01       		.byte	0x1
 3443 0e2b 69000000 		.4byte	0x69
 3444 0e2f 15       		.byte	0x15
 3445 0e30 1C       		.byte	0x1c
 3446 0e31 480E0000 		.4byte	0xe48
 3447 0e35 12       		.uleb128 0x12
 3448 0e36 EB120000 		.4byte	.LASF278
 3449 0e3a 00       		.byte	0
 3450 0e3b 12       		.uleb128 0x12
 3451 0e3c FD010000 		.4byte	.LASF279
 3452 0e40 01       		.byte	0x1
 3453 0e41 12       		.uleb128 0x12
 3454 0e42 9A170000 		.4byte	.LASF280
 3455 0e46 02       		.byte	0x2
 3456 0e47 00       		.byte	0
 3457 0e48 02       		.uleb128 0x2
 3458 0e49 DF090000 		.4byte	.LASF281
 3459 0e4d 15       		.byte	0x15
 3460 0e4e 20       		.byte	0x20
 3461 0e4f 290E0000 		.4byte	0xe29
ARM GAS  C:\Users\haske\AppData\Local\Temp\ccU9uRZG.s 			page 77


 3462 0e53 08       		.uleb128 0x8
 3463 0e54 10       		.byte	0x10
 3464 0e55 16       		.byte	0x16
 3465 0e56 33       		.byte	0x33
 3466 0e57 8C0E0000 		.4byte	0xe8c
 3467 0e5b 0A       		.uleb128 0xa
 3468 0e5c 96140000 		.4byte	.LASF282
 3469 0e60 16       		.byte	0x16
 3470 0e61 34       		.byte	0x34
 3471 0e62 8C0E0000 		.4byte	0xe8c
 3472 0e66 00       		.byte	0
 3473 0e67 0A       		.uleb128 0xa
 3474 0e68 B3100000 		.4byte	.LASF283
 3475 0e6c 16       		.byte	0x16
 3476 0e6d 35       		.byte	0x35
 3477 0e6e 970E0000 		.4byte	0xe97
 3478 0e72 04       		.byte	0x4
 3479 0e73 09       		.uleb128 0x9
 3480 0e74 62756600 		.ascii	"buf\000"
 3481 0e78 16       		.byte	0x16
 3482 0e79 36       		.byte	0x36
 3483 0e7a C6000000 		.4byte	0xc6
 3484 0e7e 08       		.byte	0x8
 3485 0e7f 0A       		.uleb128 0xa
 3486 0e80 961D0000 		.4byte	.LASF284
 3487 0e84 16       		.byte	0x16
 3488 0e85 37       		.byte	0x37
 3489 0e86 CC020000 		.4byte	0x2cc
 3490 0e8a 0C       		.byte	0xc
 3491 0e8b 00       		.byte	0
 3492 0e8c 06       		.uleb128 0x6
 3493 0e8d 04       		.byte	0x4
 3494 0e8e 920E0000 		.4byte	0xe92
 3495 0e92 0E       		.uleb128 0xe
 3496 0e93 8B010000 		.4byte	0x18b
 3497 0e97 06       		.uleb128 0x6
 3498 0e98 04       		.byte	0x4
 3499 0e99 8B010000 		.4byte	0x18b
 3500 0e9d 0D       		.uleb128 0xd
 3501 0e9e 25150000 		.4byte	.LASF285
 3502 0ea2 28       		.byte	0x28
 3503 0ea3 16       		.byte	0x16
 3504 0ea4 2D       		.byte	0x2d
 3505 0ea5 F20E0000 		.4byte	0xef2
 3506 0ea9 0A       		.uleb128 0xa
 3507 0eaa E2140000 		.4byte	.LASF286
 3508 0eae 16       		.byte	0x16
 3509 0eaf 2E       		.byte	0x2e
 3510 0eb0 8B010000 		.4byte	0x18b
 3511 0eb4 00       		.byte	0
 3512 0eb5 0A       		.uleb128 0xa
 3513 0eb6 58080000 		.4byte	.LASF287
 3514 0eba 16       		.byte	0x16
 3515 0ebb 2F       		.byte	0x2f
 3516 0ebc 8B010000 		.4byte	0x18b
 3517 0ec0 08       		.byte	0x8
 3518 0ec1 0A       		.uleb128 0xa
ARM GAS  C:\Users\haske\AppData\Local\Temp\ccU9uRZG.s 			page 78


 3519 0ec2 50150000 		.4byte	.LASF288
 3520 0ec6 16       		.byte	0x16
 3521 0ec7 30       		.byte	0x30
 3522 0ec8 23010000 		.4byte	0x123
 3523 0ecc 10       		.byte	0x10
 3524 0ecd 0A       		.uleb128 0xa
 3525 0ece 91180000 		.4byte	.LASF289
 3526 0ed2 16       		.byte	0x16
 3527 0ed3 31       		.byte	0x31
 3528 0ed4 23010000 		.4byte	0x123
 3529 0ed8 12       		.byte	0x12
 3530 0ed9 09       		.uleb128 0x9
 3531 0eda 62756600 		.ascii	"buf\000"
 3532 0ede 16       		.byte	0x16
 3533 0edf 32       		.byte	0x32
 3534 0ee0 C6000000 		.4byte	0xc6
 3535 0ee4 14       		.byte	0x14
 3536 0ee5 0A       		.uleb128 0xa
 3537 0ee6 FE080000 		.4byte	.LASF290
 3538 0eea 16       		.byte	0x16
 3539 0eeb 38       		.byte	0x38
 3540 0eec 530E0000 		.4byte	0xe53
 3541 0ef0 18       		.byte	0x18
 3542 0ef1 00       		.byte	0
 3543 0ef2 02       		.uleb128 0x2
 3544 0ef3 481B0000 		.4byte	.LASF291
 3545 0ef7 16       		.byte	0x16
 3546 0ef8 39       		.byte	0x39
 3547 0ef9 9D0E0000 		.4byte	0xe9d
 3548 0efd 0D       		.uleb128 0xd
 3549 0efe E5020000 		.4byte	.LASF292
 3550 0f02 54       		.byte	0x54
 3551 0f03 16       		.byte	0x16
 3552 0f04 3B       		.byte	0x3b
 3553 0f05 06100000 		.4byte	0x1006
 3554 0f09 09       		.uleb128 0x9
 3555 0f0a 62756600 		.ascii	"buf\000"
 3556 0f0e 16       		.byte	0x16
 3557 0f0f 3F       		.byte	0x3f
 3558 0f10 C6000000 		.4byte	0xc6
 3559 0f14 00       		.byte	0
 3560 0f15 0A       		.uleb128 0xa
 3561 0f16 B3100000 		.4byte	.LASF283
 3562 0f1a 16       		.byte	0x16
 3563 0f1b 44       		.byte	0x44
 3564 0f1c 970E0000 		.4byte	0xe97
 3565 0f20 04       		.byte	0x4
 3566 0f21 0A       		.uleb128 0xa
 3567 0f22 96140000 		.4byte	.LASF282
 3568 0f26 16       		.byte	0x16
 3569 0f27 49       		.byte	0x49
 3570 0f28 8C0E0000 		.4byte	0xe8c
 3571 0f2c 08       		.byte	0x8
 3572 0f2d 0A       		.uleb128 0xa
 3573 0f2e A8020000 		.4byte	.LASF293
 3574 0f32 16       		.byte	0x16
 3575 0f33 4B       		.byte	0x4b
ARM GAS  C:\Users\haske\AppData\Local\Temp\ccU9uRZG.s 			page 79


 3576 0f34 17100000 		.4byte	0x1017
 3577 0f38 0C       		.byte	0xc
 3578 0f39 0A       		.uleb128 0xa
 3579 0f3a 72020000 		.4byte	.LASF294
 3580 0f3e 16       		.byte	0x16
 3581 0f3f 4D       		.byte	0x4d
 3582 0f40 3D100000 		.4byte	0x103d
 3583 0f44 10       		.byte	0x10
 3584 0f45 0A       		.uleb128 0xa
 3585 0f46 71100000 		.4byte	.LASF295
 3586 0f4a 16       		.byte	0x16
 3587 0f4b 4F       		.byte	0x4f
 3588 0f4c 7D100000 		.4byte	0x107d
 3589 0f50 14       		.byte	0x14
 3590 0f51 0A       		.uleb128 0xa
 3591 0f52 A5110000 		.4byte	.LASF296
 3592 0f56 16       		.byte	0x16
 3593 0f57 52       		.byte	0x52
 3594 0f58 AD100000 		.4byte	0x10ad
 3595 0f5c 18       		.byte	0x18
 3596 0f5d 0A       		.uleb128 0xa
 3597 0f5e 421F0000 		.4byte	.LASF297
 3598 0f62 16       		.byte	0x16
 3599 0f63 55       		.byte	0x55
 3600 0f64 D1100000 		.4byte	0x10d1
 3601 0f68 1C       		.byte	0x1c
 3602 0f69 0A       		.uleb128 0xa
 3603 0f6a 70190000 		.4byte	.LASF298
 3604 0f6e 16       		.byte	0x16
 3605 0f6f 58       		.byte	0x58
 3606 0f70 FC100000 		.4byte	0x10fc
 3607 0f74 20       		.byte	0x20
 3608 0f75 0A       		.uleb128 0xa
 3609 0f76 E6060000 		.4byte	.LASF299
 3610 0f7a 16       		.byte	0x16
 3611 0f7b 5C       		.byte	0x5c
 3612 0f7c 27110000 		.4byte	0x1127
 3613 0f80 24       		.byte	0x24
 3614 0f81 0A       		.uleb128 0xa
 3615 0f82 A81F0000 		.4byte	.LASF300
 3616 0f86 16       		.byte	0x16
 3617 0f87 60       		.byte	0x60
 3618 0f88 47110000 		.4byte	0x1147
 3619 0f8c 28       		.byte	0x28
 3620 0f8d 0A       		.uleb128 0xa
 3621 0f8e 6C0A0000 		.4byte	.LASF301
 3622 0f92 16       		.byte	0x16
 3623 0f93 71       		.byte	0x71
 3624 0f94 85110000 		.4byte	0x1185
 3625 0f98 2C       		.byte	0x2c
 3626 0f99 0A       		.uleb128 0xa
 3627 0f9a 0B010000 		.4byte	.LASF302
 3628 0f9e 16       		.byte	0x16
 3629 0f9f 78       		.byte	0x78
 3630 0fa0 3D100000 		.4byte	0x103d
 3631 0fa4 30       		.byte	0x30
 3632 0fa5 0A       		.uleb128 0xa
ARM GAS  C:\Users\haske\AppData\Local\Temp\ccU9uRZG.s 			page 80


 3633 0fa6 6C170000 		.4byte	.LASF303
 3634 0faa 16       		.byte	0x16
 3635 0fab 7D       		.byte	0x7d
 3636 0fac 17100000 		.4byte	0x1017
 3637 0fb0 34       		.byte	0x34
 3638 0fb1 0A       		.uleb128 0xa
 3639 0fb2 80060000 		.4byte	.LASF304
 3640 0fb6 16       		.byte	0x16
 3641 0fb7 8D       		.byte	0x8d
 3642 0fb8 B4110000 		.4byte	0x11b4
 3643 0fbc 38       		.byte	0x38
 3644 0fbd 0A       		.uleb128 0xa
 3645 0fbe F10C0000 		.4byte	.LASF305
 3646 0fc2 16       		.byte	0x16
 3647 0fc3 99       		.byte	0x99
 3648 0fc4 D9110000 		.4byte	0x11d9
 3649 0fc8 3C       		.byte	0x3c
 3650 0fc9 0A       		.uleb128 0xa
 3651 0fca D21A0000 		.4byte	.LASF306
 3652 0fce 16       		.byte	0x16
 3653 0fcf A3       		.byte	0xa3
 3654 0fd0 F4110000 		.4byte	0x11f4
 3655 0fd4 40       		.byte	0x40
 3656 0fd5 0A       		.uleb128 0xa
 3657 0fd6 A71B0000 		.4byte	.LASF307
 3658 0fda 16       		.byte	0x16
 3659 0fdb AC       		.byte	0xac
 3660 0fdc 0F120000 		.4byte	0x120f
 3661 0fe0 44       		.byte	0x44
 3662 0fe1 0A       		.uleb128 0xa
 3663 0fe2 0C100000 		.4byte	.LASF308
 3664 0fe6 16       		.byte	0x16
 3665 0fe7 B5       		.byte	0xb5
 3666 0fe8 2B120000 		.4byte	0x122b
 3667 0fec 48       		.byte	0x48
 3668 0fed 0A       		.uleb128 0xa
 3669 0fee 4F0A0000 		.4byte	.LASF309
 3670 0ff2 16       		.byte	0x16
 3671 0ff3 BA       		.byte	0xba
 3672 0ff4 25000000 		.4byte	0x25
 3673 0ff8 4C       		.byte	0x4c
 3674 0ff9 0A       		.uleb128 0xa
 3675 0ffa 0F210000 		.4byte	.LASF45
 3676 0ffe 16       		.byte	0x16
 3677 0fff BD       		.byte	0xbd
 3678 1000 C6000000 		.4byte	0xc6
 3679 1004 50       		.byte	0x50
 3680 1005 00       		.byte	0
 3681 1006 16       		.uleb128 0x16
 3682 1007 11100000 		.4byte	0x1011
 3683 100b 10       		.uleb128 0x10
 3684 100c 11100000 		.4byte	0x1011
 3685 1010 00       		.byte	0
 3686 1011 06       		.uleb128 0x6
 3687 1012 04       		.byte	0x4
 3688 1013 FD0E0000 		.4byte	0xefd
 3689 1017 06       		.uleb128 0x6
ARM GAS  C:\Users\haske\AppData\Local\Temp\ccU9uRZG.s 			page 81


 3690 1018 04       		.byte	0x4
 3691 1019 06100000 		.4byte	0x1006
 3692 101d 16       		.uleb128 0x16
 3693 101e 32100000 		.4byte	0x1032
 3694 1022 10       		.uleb128 0x10
 3695 1023 11100000 		.4byte	0x1011
 3696 1027 10       		.uleb128 0x10
 3697 1028 32100000 		.4byte	0x1032
 3698 102c 10       		.uleb128 0x10
 3699 102d 8C0E0000 		.4byte	0xe8c
 3700 1031 00       		.byte	0
 3701 1032 06       		.uleb128 0x6
 3702 1033 04       		.byte	0x4
 3703 1034 38100000 		.4byte	0x1038
 3704 1038 0E       		.uleb128 0xe
 3705 1039 A70B0000 		.4byte	0xba7
 3706 103d 06       		.uleb128 0x6
 3707 103e 04       		.byte	0x4
 3708 103f 1D100000 		.4byte	0x101d
 3709 1043 16       		.uleb128 0x16
 3710 1044 67100000 		.4byte	0x1067
 3711 1048 10       		.uleb128 0x10
 3712 1049 11100000 		.4byte	0x1011
 3713 104d 10       		.uleb128 0x10
 3714 104e 67100000 		.4byte	0x1067
 3715 1052 10       		.uleb128 0x10
 3716 1053 72100000 		.4byte	0x1072
 3717 1057 10       		.uleb128 0x10
 3718 1058 F7000000 		.4byte	0xf7
 3719 105c 10       		.uleb128 0x10
 3720 105d F7000000 		.4byte	0xf7
 3721 1061 10       		.uleb128 0x10
 3722 1062 F7000000 		.4byte	0xf7
 3723 1066 00       		.byte	0
 3724 1067 06       		.uleb128 0x6
 3725 1068 04       		.byte	0x4
 3726 1069 6D100000 		.4byte	0x106d
 3727 106d 0E       		.uleb128 0xe
 3728 106e 180E0000 		.4byte	0xe18
 3729 1072 06       		.uleb128 0x6
 3730 1073 04       		.byte	0x4
 3731 1074 78100000 		.4byte	0x1078
 3732 1078 0E       		.uleb128 0xe
 3733 1079 4B010000 		.4byte	0x14b
 3734 107d 06       		.uleb128 0x6
 3735 107e 04       		.byte	0x4
 3736 107f 43100000 		.4byte	0x1043
 3737 1083 16       		.uleb128 0x16
 3738 1084 A2100000 		.4byte	0x10a2
 3739 1088 10       		.uleb128 0x10
 3740 1089 11100000 		.4byte	0x1011
 3741 108d 10       		.uleb128 0x10
 3742 108e A2100000 		.4byte	0x10a2
 3743 1092 10       		.uleb128 0x10
 3744 1093 8C0E0000 		.4byte	0xe8c
 3745 1097 10       		.uleb128 0x10
 3746 1098 F3020000 		.4byte	0x2f3
ARM GAS  C:\Users\haske\AppData\Local\Temp\ccU9uRZG.s 			page 82


 3747 109c 10       		.uleb128 0x10
 3748 109d 82090000 		.4byte	0x982
 3749 10a1 00       		.byte	0
 3750 10a2 06       		.uleb128 0x6
 3751 10a3 04       		.byte	0x4
 3752 10a4 A8100000 		.4byte	0x10a8
 3753 10a8 0E       		.uleb128 0xe
 3754 10a9 120D0000 		.4byte	0xd12
 3755 10ad 06       		.uleb128 0x6
 3756 10ae 04       		.byte	0x4
 3757 10af 83100000 		.4byte	0x1083
 3758 10b3 0F       		.uleb128 0xf
 3759 10b4 28030000 		.4byte	0x328
 3760 10b8 D1100000 		.4byte	0x10d1
 3761 10bc 10       		.uleb128 0x10
 3762 10bd 11100000 		.4byte	0x1011
 3763 10c1 10       		.uleb128 0x10
 3764 10c2 A2100000 		.4byte	0x10a2
 3765 10c6 10       		.uleb128 0x10
 3766 10c7 8C0E0000 		.4byte	0xe8c
 3767 10cb 10       		.uleb128 0x10
 3768 10cc CF000000 		.4byte	0xcf
 3769 10d0 00       		.byte	0
 3770 10d1 06       		.uleb128 0x6
 3771 10d2 04       		.byte	0x4
 3772 10d3 B3100000 		.4byte	0x10b3
 3773 10d7 16       		.uleb128 0x16
 3774 10d8 F1100000 		.4byte	0x10f1
 3775 10dc 10       		.uleb128 0x10
 3776 10dd 11100000 		.4byte	0x1011
 3777 10e1 10       		.uleb128 0x10
 3778 10e2 F1100000 		.4byte	0x10f1
 3779 10e6 10       		.uleb128 0x10
 3780 10e7 72100000 		.4byte	0x1072
 3781 10eb 10       		.uleb128 0x10
 3782 10ec 0D010000 		.4byte	0x10d
 3783 10f0 00       		.byte	0
 3784 10f1 06       		.uleb128 0x6
 3785 10f2 04       		.byte	0x4
 3786 10f3 F7100000 		.4byte	0x10f7
 3787 10f7 0E       		.uleb128 0xe
 3788 10f8 8C0C0000 		.4byte	0xc8c
 3789 10fc 06       		.uleb128 0x6
 3790 10fd 04       		.byte	0x4
 3791 10fe D7100000 		.4byte	0x10d7
 3792 1102 16       		.uleb128 0x16
 3793 1103 1C110000 		.4byte	0x111c
 3794 1107 10       		.uleb128 0x10
 3795 1108 11100000 		.4byte	0x1011
 3796 110c 10       		.uleb128 0x10
 3797 110d 1C110000 		.4byte	0x111c
 3798 1111 10       		.uleb128 0x10
 3799 1112 72100000 		.4byte	0x1072
 3800 1116 10       		.uleb128 0x10
 3801 1117 72100000 		.4byte	0x1072
 3802 111b 00       		.byte	0
 3803 111c 06       		.uleb128 0x6
ARM GAS  C:\Users\haske\AppData\Local\Temp\ccU9uRZG.s 			page 83


 3804 111d 04       		.byte	0x4
 3805 111e 22110000 		.4byte	0x1122
 3806 1122 0E       		.uleb128 0xe
 3807 1123 9E0D0000 		.4byte	0xd9e
 3808 1127 06       		.uleb128 0x6
 3809 1128 04       		.byte	0x4
 3810 1129 02110000 		.4byte	0x1102
 3811 112d 16       		.uleb128 0x16
 3812 112e 47110000 		.4byte	0x1147
 3813 1132 10       		.uleb128 0x10
 3814 1133 11100000 		.4byte	0x1011
 3815 1137 10       		.uleb128 0x10
 3816 1138 32100000 		.4byte	0x1032
 3817 113c 10       		.uleb128 0x10
 3818 113d 72100000 		.4byte	0x1072
 3819 1141 10       		.uleb128 0x10
 3820 1142 F7000000 		.4byte	0xf7
 3821 1146 00       		.byte	0
 3822 1147 06       		.uleb128 0x6
 3823 1148 04       		.byte	0x4
 3824 1149 2D110000 		.4byte	0x112d
 3825 114d 16       		.uleb128 0x16
 3826 114e 85110000 		.4byte	0x1185
 3827 1152 10       		.uleb128 0x10
 3828 1153 11100000 		.4byte	0x1011
 3829 1157 10       		.uleb128 0x10
 3830 1158 8C0E0000 		.4byte	0xe8c
 3831 115c 10       		.uleb128 0x10
 3832 115d CF000000 		.4byte	0xcf
 3833 1161 10       		.uleb128 0x10
 3834 1162 23010000 		.4byte	0x123
 3835 1166 10       		.uleb128 0x10
 3836 1167 23010000 		.4byte	0x123
 3837 116b 10       		.uleb128 0x10
 3838 116c 23010000 		.4byte	0x123
 3839 1170 10       		.uleb128 0x10
 3840 1171 A2100000 		.4byte	0x10a2
 3841 1175 10       		.uleb128 0x10
 3842 1176 82090000 		.4byte	0x982
 3843 117a 10       		.uleb128 0x10
 3844 117b 5A0A0000 		.4byte	0xa5a
 3845 117f 10       		.uleb128 0x10
 3846 1180 230E0000 		.4byte	0xe23
 3847 1184 00       		.byte	0
 3848 1185 06       		.uleb128 0x6
 3849 1186 04       		.byte	0x4
 3850 1187 4D110000 		.4byte	0x114d
 3851 118b 16       		.uleb128 0x16
 3852 118c B4110000 		.4byte	0x11b4
 3853 1190 10       		.uleb128 0x10
 3854 1191 11100000 		.4byte	0x1011
 3855 1195 10       		.uleb128 0x10
 3856 1196 C6000000 		.4byte	0xc6
 3857 119a 10       		.uleb128 0x10
 3858 119b 23010000 		.4byte	0x123
 3859 119f 10       		.uleb128 0x10
 3860 11a0 8C0E0000 		.4byte	0xe8c
ARM GAS  C:\Users\haske\AppData\Local\Temp\ccU9uRZG.s 			page 84


 3861 11a4 10       		.uleb128 0x10
 3862 11a5 C6000000 		.4byte	0xc6
 3863 11a9 10       		.uleb128 0x10
 3864 11aa 23010000 		.4byte	0x123
 3865 11ae 10       		.uleb128 0x10
 3866 11af 8C0E0000 		.4byte	0xe8c
 3867 11b3 00       		.byte	0
 3868 11b4 06       		.uleb128 0x6
 3869 11b5 04       		.byte	0x4
 3870 11b6 8B110000 		.4byte	0x118b
 3871 11ba 0F       		.uleb128 0xf
 3872 11bb D3110000 		.4byte	0x11d3
 3873 11bf D3110000 		.4byte	0x11d3
 3874 11c3 10       		.uleb128 0x10
 3875 11c4 11100000 		.4byte	0x1011
 3876 11c8 10       		.uleb128 0x10
 3877 11c9 D3110000 		.4byte	0x11d3
 3878 11cd 10       		.uleb128 0x10
 3879 11ce 480E0000 		.4byte	0xe48
 3880 11d2 00       		.byte	0
 3881 11d3 06       		.uleb128 0x6
 3882 11d4 04       		.byte	0x4
 3883 11d5 9D0E0000 		.4byte	0xe9d
 3884 11d9 06       		.uleb128 0x6
 3885 11da 04       		.byte	0x4
 3886 11db BA110000 		.4byte	0x11ba
 3887 11df 16       		.uleb128 0x16
 3888 11e0 F4110000 		.4byte	0x11f4
 3889 11e4 10       		.uleb128 0x10
 3890 11e5 11100000 		.4byte	0x1011
 3891 11e9 10       		.uleb128 0x10
 3892 11ea D3110000 		.4byte	0x11d3
 3893 11ee 10       		.uleb128 0x10
 3894 11ef 480E0000 		.4byte	0xe48
 3895 11f3 00       		.byte	0
 3896 11f4 06       		.uleb128 0x6
 3897 11f5 04       		.byte	0x4
 3898 11f6 DF110000 		.4byte	0x11df
 3899 11fa 16       		.uleb128 0x16
 3900 11fb 0F120000 		.4byte	0x120f
 3901 11ff 10       		.uleb128 0x10
 3902 1200 11100000 		.4byte	0x1011
 3903 1204 10       		.uleb128 0x10
 3904 1205 D3110000 		.4byte	0x11d3
 3905 1209 10       		.uleb128 0x10
 3906 120a A2100000 		.4byte	0x10a2
 3907 120e 00       		.byte	0
 3908 120f 06       		.uleb128 0x6
 3909 1210 04       		.byte	0x4
 3910 1211 FA110000 		.4byte	0x11fa
 3911 1215 16       		.uleb128 0x16
 3912 1216 25120000 		.4byte	0x1225
 3913 121a 10       		.uleb128 0x10
 3914 121b 11100000 		.4byte	0x1011
 3915 121f 10       		.uleb128 0x10
 3916 1220 25120000 		.4byte	0x1225
 3917 1224 00       		.byte	0
ARM GAS  C:\Users\haske\AppData\Local\Temp\ccU9uRZG.s 			page 85


 3918 1225 06       		.uleb128 0x6
 3919 1226 04       		.byte	0x4
 3920 1227 F20E0000 		.4byte	0xef2
 3921 122b 06       		.uleb128 0x6
 3922 122c 04       		.byte	0x4
 3923 122d 15120000 		.4byte	0x1215
 3924 1231 02       		.uleb128 0x2
 3925 1232 400B0000 		.4byte	.LASF310
 3926 1236 16       		.byte	0x16
 3927 1237 C0       		.byte	0xc0
 3928 1238 FD0E0000 		.4byte	0xefd
 3929 123c 02       		.uleb128 0x2
 3930 123d 47000000 		.4byte	.LASF311
 3931 1241 17       		.byte	0x17
 3932 1242 1D       		.byte	0x1d
 3933 1243 E1000000 		.4byte	0xe1
 3934 1247 08       		.uleb128 0x8
 3935 1248 0C       		.byte	0xc
 3936 1249 17       		.byte	0x17
 3937 124a 20       		.byte	0x20
 3938 124b 74120000 		.4byte	0x1274
 3939 124f 0A       		.uleb128 0xa
 3940 1250 97220000 		.4byte	.LASF312
 3941 1254 17       		.byte	0x17
 3942 1255 21       		.byte	0x21
 3943 1256 0D010000 		.4byte	0x10d
 3944 125a 00       		.byte	0
 3945 125b 0A       		.uleb128 0xa
 3946 125c F9050000 		.4byte	.LASF313
 3947 1260 17       		.byte	0x17
 3948 1261 22       		.byte	0x22
 3949 1262 74120000 		.4byte	0x1274
 3950 1266 04       		.byte	0x4
 3951 1267 0A       		.uleb128 0xa
 3952 1268 DE000000 		.4byte	.LASF314
 3953 126c 17       		.byte	0x17
 3954 126d 23       		.byte	0x23
 3955 126e 74120000 		.4byte	0x1274
 3956 1272 08       		.byte	0x8
 3957 1273 00       		.byte	0
 3958 1274 06       		.uleb128 0x6
 3959 1275 04       		.byte	0x4
 3960 1276 3C120000 		.4byte	0x123c
 3961 127a 02       		.uleb128 0x2
 3962 127b C91C0000 		.4byte	.LASF315
 3963 127f 17       		.byte	0x17
 3964 1280 24       		.byte	0x24
 3965 1281 47120000 		.4byte	0x1247
 3966 1285 02       		.uleb128 0x2
 3967 1286 B6110000 		.4byte	.LASF316
 3968 128a 18       		.byte	0x18
 3969 128b 27       		.byte	0x27
 3970 128c 90120000 		.4byte	0x1290
 3971 1290 06       		.uleb128 0x6
 3972 1291 04       		.byte	0x4
 3973 1292 96120000 		.4byte	0x1296
 3974 1296 16       		.uleb128 0x16
ARM GAS  C:\Users\haske\AppData\Local\Temp\ccU9uRZG.s 			page 86


 3975 1297 A1120000 		.4byte	0x12a1
 3976 129b 10       		.uleb128 0x10
 3977 129c A1120000 		.4byte	0x12a1
 3978 12a0 00       		.byte	0
 3979 12a1 06       		.uleb128 0x6
 3980 12a2 04       		.byte	0x4
 3981 12a3 A7120000 		.4byte	0x12a7
 3982 12a7 0D       		.uleb128 0xd
 3983 12a8 7C020000 		.4byte	.LASF317
 3984 12ac 18       		.byte	0x18
 3985 12ad 18       		.byte	0x18
 3986 12ae 2C       		.byte	0x2c
 3987 12af FF120000 		.4byte	0x12ff
 3988 12b3 0A       		.uleb128 0xa
 3989 12b4 A01A0000 		.4byte	.LASF318
 3990 12b8 18       		.byte	0x18
 3991 12b9 2D       		.byte	0x2d
 3992 12ba 0D010000 		.4byte	0x10d
 3993 12be 00       		.byte	0
 3994 12bf 0A       		.uleb128 0xa
 3995 12c0 57190000 		.4byte	.LASF319
 3996 12c4 18       		.byte	0x18
 3997 12c5 2E       		.byte	0x2e
 3998 12c6 0D010000 		.4byte	0x10d
 3999 12ca 04       		.byte	0x4
 4000 12cb 0A       		.uleb128 0xa
 4001 12cc C7170000 		.4byte	.LASF320
 4002 12d0 18       		.byte	0x18
 4003 12d1 2F       		.byte	0x2f
 4004 12d2 85120000 		.4byte	0x1285
 4005 12d6 08       		.byte	0x8
 4006 12d7 0A       		.uleb128 0xa
 4007 12d8 0F210000 		.4byte	.LASF45
 4008 12dc 18       		.byte	0x18
 4009 12dd 30       		.byte	0x30
 4010 12de C6000000 		.4byte	0xc6
 4011 12e2 0C       		.byte	0xc
 4012 12e3 0A       		.uleb128 0xa
 4013 12e4 57020000 		.4byte	.LASF321
 4014 12e8 18       		.byte	0x18
 4015 12e9 31       		.byte	0x31
 4016 12ea 02010000 		.4byte	0x102
 4017 12ee 10       		.byte	0x10
 4018 12ef 0C       		.uleb128 0xc
 4019 12f0 7C140000 		.4byte	.LASF322
 4020 12f4 18       		.byte	0x18
 4021 12f5 32       		.byte	0x32
 4022 12f6 0D010000 		.4byte	0x10d
 4023 12fa 04       		.byte	0x4
 4024 12fb 01       		.byte	0x1
 4025 12fc 1F       		.byte	0x1f
 4026 12fd 14       		.byte	0x14
 4027 12fe 00       		.byte	0
 4028 12ff 02       		.uleb128 0x2
 4029 1300 470C0000 		.4byte	.LASF323
 4030 1304 18       		.byte	0x18
 4031 1305 33       		.byte	0x33
ARM GAS  C:\Users\haske\AppData\Local\Temp\ccU9uRZG.s 			page 87


 4032 1306 A7120000 		.4byte	0x12a7
 4033 130a 0D       		.uleb128 0xd
 4034 130b 9F100000 		.4byte	.LASF324
 4035 130f 1C       		.byte	0x1c
 4036 1310 19       		.byte	0x19
 4037 1311 32       		.byte	0x32
 4038 1312 7D130000 		.4byte	0x137d
 4039 1316 0A       		.uleb128 0xa
 4040 1317 B5120000 		.4byte	.LASF325
 4041 131b 19       		.byte	0x19
 4042 131c 33       		.byte	0x33
 4043 131d C6000000 		.4byte	0xc6
 4044 1321 00       		.byte	0
 4045 1322 0A       		.uleb128 0xa
 4046 1323 BA120000 		.4byte	.LASF326
 4047 1327 19       		.byte	0x19
 4048 1328 34       		.byte	0x34
 4049 1329 C6000000 		.4byte	0xc6
 4050 132d 04       		.byte	0x4
 4051 132e 0A       		.uleb128 0xa
 4052 132f F7160000 		.4byte	.LASF327
 4053 1333 19       		.byte	0x19
 4054 1334 37       		.byte	0x37
 4055 1335 C6000000 		.4byte	0xc6
 4056 1339 08       		.byte	0x8
 4057 133a 0A       		.uleb128 0xa
 4058 133b 8C180000 		.4byte	.LASF328
 4059 133f 19       		.byte	0x19
 4060 1340 38       		.byte	0x38
 4061 1341 0D010000 		.4byte	0x10d
 4062 1345 0C       		.byte	0xc
 4063 1346 0A       		.uleb128 0xa
 4064 1347 F60B0000 		.4byte	.LASF329
 4065 134b 19       		.byte	0x19
 4066 134c 3A       		.byte	0x3a
 4067 134d 7D130000 		.4byte	0x137d
 4068 1351 10       		.byte	0x10
 4069 1352 0A       		.uleb128 0xa
 4070 1353 CA080000 		.4byte	.LASF330
 4071 1357 19       		.byte	0x19
 4072 1358 3C       		.byte	0x3c
 4073 1359 7D130000 		.4byte	0x137d
 4074 135d 14       		.byte	0x14
 4075 135e 0C       		.uleb128 0xc
 4076 135f 6A060000 		.4byte	.LASF331
 4077 1363 19       		.byte	0x19
 4078 1364 3D       		.byte	0x3d
 4079 1365 82130000 		.4byte	0x1382
 4080 1369 04       		.byte	0x4
 4081 136a 01       		.byte	0x1
 4082 136b 1F       		.byte	0x1f
 4083 136c 18       		.byte	0x18
 4084 136d 0C       		.uleb128 0xc
 4085 136e 25100000 		.4byte	.LASF332
 4086 1372 19       		.byte	0x19
 4087 1373 3E       		.byte	0x3e
 4088 1374 82130000 		.4byte	0x1382
ARM GAS  C:\Users\haske\AppData\Local\Temp\ccU9uRZG.s 			page 88


 4089 1378 04       		.byte	0x4
 4090 1379 01       		.byte	0x1
 4091 137a 1E       		.byte	0x1e
 4092 137b 18       		.byte	0x18
 4093 137c 00       		.byte	0
 4094 137d 20       		.uleb128 0x20
 4095 137e 37000000 		.4byte	0x37
 4096 1382 20       		.uleb128 0x20
 4097 1383 0D010000 		.4byte	0x10d
 4098 1387 02       		.uleb128 0x2
 4099 1388 54000000 		.4byte	.LASF333
 4100 138c 19       		.byte	0x19
 4101 138d 3F       		.byte	0x3f
 4102 138e 0A130000 		.4byte	0x130a
 4103 1392 0D       		.uleb128 0xd
 4104 1393 E0210000 		.4byte	.LASF334
 4105 1397 50       		.byte	0x50
 4106 1398 19       		.byte	0x19
 4107 1399 4D       		.byte	0x4d
 4108 139a 10150000 		.4byte	0x1510
 4109 139e 0A       		.uleb128 0xa
 4110 139f F0060000 		.4byte	.LASF335
 4111 13a3 19       		.byte	0x19
 4112 13a4 4F       		.byte	0x4f
 4113 13a5 23010000 		.4byte	0x123
 4114 13a9 00       		.byte	0
 4115 13aa 0A       		.uleb128 0xa
 4116 13ab 2F040000 		.4byte	.LASF336
 4117 13af 19       		.byte	0x19
 4118 13b0 50       		.byte	0x50
 4119 13b1 23010000 		.4byte	0x123
 4120 13b5 02       		.byte	0x2
 4121 13b6 0A       		.uleb128 0xa
 4122 13b7 7B180000 		.4byte	.LASF337
 4123 13bb 19       		.byte	0x19
 4124 13bc 53       		.byte	0x53
 4125 13bd 23010000 		.4byte	0x123
 4126 13c1 04       		.byte	0x4
 4127 13c2 0A       		.uleb128 0xa
 4128 13c3 ED080000 		.4byte	.LASF338
 4129 13c7 19       		.byte	0x19
 4130 13c8 55       		.byte	0x55
 4131 13c9 23010000 		.4byte	0x123
 4132 13cd 06       		.byte	0x6
 4133 13ce 0A       		.uleb128 0xa
 4134 13cf 4A100000 		.4byte	.LASF339
 4135 13d3 19       		.byte	0x19
 4136 13d4 57       		.byte	0x57
 4137 13d5 23010000 		.4byte	0x123
 4138 13d9 08       		.byte	0x8
 4139 13da 0A       		.uleb128 0xa
 4140 13db 53100000 		.4byte	.LASF340
 4141 13df 19       		.byte	0x19
 4142 13e0 58       		.byte	0x58
 4143 13e1 23010000 		.4byte	0x123
 4144 13e5 0A       		.byte	0xa
 4145 13e6 0A       		.uleb128 0xa
ARM GAS  C:\Users\haske\AppData\Local\Temp\ccU9uRZG.s 			page 89


 4146 13e7 971A0000 		.4byte	.LASF341
 4147 13eb 19       		.byte	0x19
 4148 13ec 5C       		.byte	0x5c
 4149 13ed 10150000 		.4byte	0x1510
 4150 13f1 0C       		.byte	0xc
 4151 13f2 0C       		.uleb128 0xc
 4152 13f3 7B0A0000 		.4byte	.LASF342
 4153 13f7 19       		.byte	0x19
 4154 13f8 5E       		.byte	0x5e
 4155 13f9 0D010000 		.4byte	0x10d
 4156 13fd 04       		.byte	0x4
 4157 13fe 01       		.byte	0x1
 4158 13ff 1F       		.byte	0x1f
 4159 1400 10       		.byte	0x10
 4160 1401 0C       		.uleb128 0xc
 4161 1402 CC0D0000 		.4byte	.LASF343
 4162 1406 19       		.byte	0x19
 4163 1407 5F       		.byte	0x5f
 4164 1408 0D010000 		.4byte	0x10d
 4165 140c 04       		.byte	0x4
 4166 140d 01       		.byte	0x1
 4167 140e 1E       		.byte	0x1e
 4168 140f 10       		.byte	0x10
 4169 1410 0C       		.uleb128 0xc
 4170 1411 BE0C0000 		.4byte	.LASF344
 4171 1415 19       		.byte	0x19
 4172 1416 60       		.byte	0x60
 4173 1417 0D010000 		.4byte	0x10d
 4174 141b 04       		.byte	0x4
 4175 141c 01       		.byte	0x1
 4176 141d 1D       		.byte	0x1d
 4177 141e 10       		.byte	0x10
 4178 141f 0C       		.uleb128 0xc
 4179 1420 D90A0000 		.4byte	.LASF345
 4180 1424 19       		.byte	0x19
 4181 1425 61       		.byte	0x61
 4182 1426 0D010000 		.4byte	0x10d
 4183 142a 04       		.byte	0x4
 4184 142b 01       		.byte	0x1
 4185 142c 1C       		.byte	0x1c
 4186 142d 10       		.byte	0x10
 4187 142e 0C       		.uleb128 0xc
 4188 142f 1A050000 		.4byte	.LASF346
 4189 1433 19       		.byte	0x19
 4190 1434 62       		.byte	0x62
 4191 1435 0D010000 		.4byte	0x10d
 4192 1439 04       		.byte	0x4
 4193 143a 02       		.byte	0x2
 4194 143b 1A       		.byte	0x1a
 4195 143c 10       		.byte	0x10
 4196 143d 0C       		.uleb128 0xc
 4197 143e 961D0000 		.4byte	.LASF284
 4198 1442 19       		.byte	0x19
 4199 1443 63       		.byte	0x63
 4200 1444 0D010000 		.4byte	0x10d
 4201 1448 04       		.byte	0x4
 4202 1449 01       		.byte	0x1
ARM GAS  C:\Users\haske\AppData\Local\Temp\ccU9uRZG.s 			page 90


 4203 144a 19       		.byte	0x19
 4204 144b 10       		.byte	0x10
 4205 144c 0B       		.uleb128 0xb
 4206 144d 64706900 		.ascii	"dpi\000"
 4207 1451 19       		.byte	0x19
 4208 1452 66       		.byte	0x66
 4209 1453 0D010000 		.4byte	0x10d
 4210 1457 04       		.byte	0x4
 4211 1458 0A       		.byte	0xa
 4212 1459 0F       		.byte	0xf
 4213 145a 10       		.byte	0x10
 4214 145b 0A       		.uleb128 0xa
 4215 145c EF200000 		.4byte	.LASF347
 4216 1460 19       		.byte	0x19
 4217 1461 6A       		.byte	0x6a
 4218 1462 31150000 		.4byte	0x1531
 4219 1466 14       		.byte	0x14
 4220 1467 0A       		.uleb128 0xa
 4221 1468 A71A0000 		.4byte	.LASF348
 4222 146c 19       		.byte	0x19
 4223 146d 6E       		.byte	0x6e
 4224 146e 47150000 		.4byte	0x1547
 4225 1472 18       		.byte	0x18
 4226 1473 0A       		.uleb128 0xa
 4227 1474 A21E0000 		.4byte	.LASF349
 4228 1478 19       		.byte	0x19
 4229 1479 73       		.byte	0x73
 4230 147a 76150000 		.4byte	0x1576
 4231 147e 1C       		.byte	0x1c
 4232 147f 0A       		.uleb128 0xa
 4233 1480 DA0E0000 		.4byte	.LASF350
 4234 1484 19       		.byte	0x19
 4235 1485 76       		.byte	0x76
 4236 1486 91150000 		.4byte	0x1591
 4237 148a 20       		.byte	0x20
 4238 148b 0A       		.uleb128 0xa
 4239 148c A5130000 		.4byte	.LASF351
 4240 1490 19       		.byte	0x19
 4241 1491 7B       		.byte	0x7b
 4242 1492 AC150000 		.4byte	0x15ac
 4243 1496 24       		.byte	0x24
 4244 1497 0A       		.uleb128 0xa
 4245 1498 2A120000 		.4byte	.LASF352
 4246 149c 19       		.byte	0x19
 4247 149d 80       		.byte	0x80
 4248 149e BD150000 		.4byte	0x15bd
 4249 14a2 28       		.byte	0x28
 4250 14a3 0A       		.uleb128 0xa
 4251 14a4 31220000 		.4byte	.LASF353
 4252 14a8 19       		.byte	0x19
 4253 14a9 83       		.byte	0x83
 4254 14aa BD150000 		.4byte	0x15bd
 4255 14ae 2C       		.byte	0x2c
 4256 14af 0A       		.uleb128 0xa
 4257 14b0 24180000 		.4byte	.LASF354
 4258 14b4 19       		.byte	0x19
 4259 14b5 86       		.byte	0x86
ARM GAS  C:\Users\haske\AppData\Local\Temp\ccU9uRZG.s 			page 91


 4260 14b6 BD150000 		.4byte	0x15bd
 4261 14ba 30       		.byte	0x30
 4262 14bb 0A       		.uleb128 0xa
 4263 14bc 14180000 		.4byte	.LASF355
 4264 14c0 19       		.byte	0x19
 4265 14c1 89       		.byte	0x89
 4266 14c2 BD150000 		.4byte	0x15bd
 4267 14c6 34       		.byte	0x34
 4268 14c7 0A       		.uleb128 0xa
 4269 14c8 1D000000 		.4byte	.LASF356
 4270 14cc 19       		.byte	0x19
 4271 14cd 8D       		.byte	0x8d
 4272 14ce 92030000 		.4byte	0x392
 4273 14d2 38       		.byte	0x38
 4274 14d3 0A       		.uleb128 0xa
 4275 14d4 391F0000 		.4byte	.LASF357
 4276 14d8 19       		.byte	0x19
 4277 14d9 8F       		.byte	0x8f
 4278 14da C3150000 		.4byte	0x15c3
 4279 14de 3C       		.byte	0x3c
 4280 14df 0A       		.uleb128 0xa
 4281 14e0 0B110000 		.4byte	.LASF358
 4282 14e4 19       		.byte	0x19
 4283 14e5 90       		.byte	0x90
 4284 14e6 D9150000 		.4byte	0x15d9
 4285 14ea 40       		.byte	0x40
 4286 14eb 0A       		.uleb128 0xa
 4287 14ec 37050000 		.4byte	.LASF359
 4288 14f0 19       		.byte	0x19
 4289 14f1 91       		.byte	0x91
 4290 14f2 D9150000 		.4byte	0x15d9
 4291 14f6 44       		.byte	0x44
 4292 14f7 0A       		.uleb128 0xa
 4293 14f8 CA010000 		.4byte	.LASF360
 4294 14fc 19       		.byte	0x19
 4295 14fd 92       		.byte	0x92
 4296 14fe 25000000 		.4byte	0x25
 4297 1502 48       		.byte	0x48
 4298 1503 0A       		.uleb128 0xa
 4299 1504 0F210000 		.4byte	.LASF45
 4300 1508 19       		.byte	0x19
 4301 1509 95       		.byte	0x95
 4302 150a C6000000 		.4byte	0xc6
 4303 150e 4C       		.byte	0x4c
 4304 150f 00       		.byte	0
 4305 1510 06       		.uleb128 0x6
 4306 1511 04       		.byte	0x4
 4307 1512 87130000 		.4byte	0x1387
 4308 1516 16       		.uleb128 0x16
 4309 1517 2B150000 		.4byte	0x152b
 4310 151b 10       		.uleb128 0x10
 4311 151c 2B150000 		.4byte	0x152b
 4312 1520 10       		.uleb128 0x10
 4313 1521 8C0E0000 		.4byte	0xe8c
 4314 1525 10       		.uleb128 0x10
 4315 1526 5A0A0000 		.4byte	0xa5a
 4316 152a 00       		.byte	0
ARM GAS  C:\Users\haske\AppData\Local\Temp\ccU9uRZG.s 			page 92


 4317 152b 06       		.uleb128 0x6
 4318 152c 04       		.byte	0x4
 4319 152d 92130000 		.4byte	0x1392
 4320 1531 06       		.uleb128 0x6
 4321 1532 04       		.byte	0x4
 4322 1533 16150000 		.4byte	0x1516
 4323 1537 16       		.uleb128 0x16
 4324 1538 47150000 		.4byte	0x1547
 4325 153c 10       		.uleb128 0x10
 4326 153d 2B150000 		.4byte	0x152b
 4327 1541 10       		.uleb128 0x10
 4328 1542 970E0000 		.4byte	0xe97
 4329 1546 00       		.byte	0
 4330 1547 06       		.uleb128 0x6
 4331 1548 04       		.byte	0x4
 4332 1549 37150000 		.4byte	0x1537
 4333 154d 16       		.uleb128 0x16
 4334 154e 76150000 		.4byte	0x1576
 4335 1552 10       		.uleb128 0x10
 4336 1553 2B150000 		.4byte	0x152b
 4337 1557 10       		.uleb128 0x10
 4338 1558 27090000 		.4byte	0x927
 4339 155c 10       		.uleb128 0x10
 4340 155d 23010000 		.4byte	0x123
 4341 1561 10       		.uleb128 0x10
 4342 1562 23010000 		.4byte	0x123
 4343 1566 10       		.uleb128 0x10
 4344 1567 23010000 		.4byte	0x123
 4345 156b 10       		.uleb128 0x10
 4346 156c 92030000 		.4byte	0x392
 4347 1570 10       		.uleb128 0x10
 4348 1571 9D030000 		.4byte	0x39d
 4349 1575 00       		.byte	0
 4350 1576 06       		.uleb128 0x6
 4351 1577 04       		.byte	0x4
 4352 1578 4D150000 		.4byte	0x154d
 4353 157c 16       		.uleb128 0x16
 4354 157d 91150000 		.4byte	0x1591
 4355 1581 10       		.uleb128 0x10
 4356 1582 2B150000 		.4byte	0x152b
 4357 1586 10       		.uleb128 0x10
 4358 1587 27090000 		.4byte	0x927
 4359 158b 10       		.uleb128 0x10
 4360 158c 0D010000 		.4byte	0x10d
 4361 1590 00       		.byte	0
 4362 1591 06       		.uleb128 0x6
 4363 1592 04       		.byte	0x4
 4364 1593 7C150000 		.4byte	0x157c
 4365 1597 16       		.uleb128 0x16
 4366 1598 AC150000 		.4byte	0x15ac
 4367 159c 10       		.uleb128 0x10
 4368 159d 2B150000 		.4byte	0x152b
 4369 15a1 10       		.uleb128 0x10
 4370 15a2 0D010000 		.4byte	0x10d
 4371 15a6 10       		.uleb128 0x10
 4372 15a7 0D010000 		.4byte	0x10d
 4373 15ab 00       		.byte	0
ARM GAS  C:\Users\haske\AppData\Local\Temp\ccU9uRZG.s 			page 93


 4374 15ac 06       		.uleb128 0x6
 4375 15ad 04       		.byte	0x4
 4376 15ae 97150000 		.4byte	0x1597
 4377 15b2 16       		.uleb128 0x16
 4378 15b3 BD150000 		.4byte	0x15bd
 4379 15b7 10       		.uleb128 0x10
 4380 15b8 2B150000 		.4byte	0x152b
 4381 15bc 00       		.byte	0
 4382 15bd 06       		.uleb128 0x6
 4383 15be 04       		.byte	0x4
 4384 15bf B2150000 		.4byte	0x15b2
 4385 15c3 06       		.uleb128 0x6
 4386 15c4 04       		.byte	0x4
 4387 15c5 31120000 		.4byte	0x1231
 4388 15c9 16       		.uleb128 0x16
 4389 15ca D9150000 		.4byte	0x15d9
 4390 15ce 10       		.uleb128 0x10
 4391 15cf 2B150000 		.4byte	0x152b
 4392 15d3 10       		.uleb128 0x10
 4393 15d4 C3150000 		.4byte	0x15c3
 4394 15d8 00       		.byte	0
 4395 15d9 06       		.uleb128 0x6
 4396 15da 04       		.byte	0x4
 4397 15db C9150000 		.4byte	0x15c9
 4398 15df 21       		.uleb128 0x21
 4399 15e0 03150000 		.4byte	.LASF361
 4400 15e4 5C01     		.2byte	0x15c
 4401 15e6 19       		.byte	0x19
 4402 15e7 9E       		.byte	0x9e
 4403 15e8 F6160000 		.4byte	0x16f6
 4404 15ec 0A       		.uleb128 0xa
 4405 15ed 2F1C0000 		.4byte	.LASF362
 4406 15f1 19       		.byte	0x19
 4407 15f2 A0       		.byte	0xa0
 4408 15f3 2B150000 		.4byte	0x152b
 4409 15f7 00       		.byte	0
 4410 15f8 0A       		.uleb128 0xa
 4411 15f9 6A050000 		.4byte	.LASF363
 4412 15fd 19       		.byte	0x19
 4413 15fe A3       		.byte	0xa3
 4414 15ff F6160000 		.4byte	0x16f6
 4415 1603 04       		.byte	0x4
 4416 1604 0A       		.uleb128 0xa
 4417 1605 44100000 		.4byte	.LASF364
 4418 1609 19       		.byte	0x19
 4419 160a A6       		.byte	0xa6
 4420 160b 01170000 		.4byte	0x1701
 4421 160f 08       		.byte	0x8
 4422 1610 0A       		.uleb128 0xa
 4423 1611 63040000 		.4byte	.LASF365
 4424 1615 19       		.byte	0x19
 4425 1616 A9       		.byte	0xa9
 4426 1617 07170000 		.4byte	0x1707
 4427 161b 0C       		.byte	0xc
 4428 161c 0A       		.uleb128 0xa
 4429 161d F8000000 		.4byte	.LASF366
 4430 1621 19       		.byte	0x19
ARM GAS  C:\Users\haske\AppData\Local\Temp\ccU9uRZG.s 			page 94


 4431 1622 AA       		.byte	0xaa
 4432 1623 8D090000 		.4byte	0x98d
 4433 1627 10       		.byte	0x10
 4434 1628 0A       		.uleb128 0xa
 4435 1629 6B1C0000 		.4byte	.LASF367
 4436 162d 19       		.byte	0x19
 4437 162e AB       		.byte	0xab
 4438 162f 8D090000 		.4byte	0x98d
 4439 1633 14       		.byte	0x14
 4440 1634 0A       		.uleb128 0xa
 4441 1635 CF050000 		.4byte	.LASF368
 4442 1639 19       		.byte	0x19
 4443 163a AC       		.byte	0xac
 4444 163b 8D090000 		.4byte	0x98d
 4445 163f 18       		.byte	0x18
 4446 1640 0A       		.uleb128 0xa
 4447 1641 9D070000 		.4byte	.LASF369
 4448 1645 19       		.byte	0x19
 4449 1646 AD       		.byte	0xad
 4450 1647 8D090000 		.4byte	0x98d
 4451 164b 1C       		.byte	0x1c
 4452 164c 0A       		.uleb128 0xa
 4453 164d CE180000 		.4byte	.LASF370
 4454 1651 19       		.byte	0x19
 4455 1652 AE       		.byte	0xae
 4456 1653 8D090000 		.4byte	0x98d
 4457 1657 20       		.byte	0x20
 4458 1658 0A       		.uleb128 0xa
 4459 1659 00010000 		.4byte	.LASF371
 4460 165d 19       		.byte	0x19
 4461 165e AF       		.byte	0xaf
 4462 165f 0D010000 		.4byte	0x10d
 4463 1663 24       		.byte	0x24
 4464 1664 0C       		.uleb128 0xc
 4465 1665 F90F0000 		.4byte	.LASF372
 4466 1669 19       		.byte	0x19
 4467 166a B0       		.byte	0xb0
 4468 166b E1000000 		.4byte	0xe1
 4469 166f 01       		.byte	0x1
 4470 1670 01       		.byte	0x1
 4471 1671 07       		.byte	0x7
 4472 1672 28       		.byte	0x28
 4473 1673 0C       		.uleb128 0xc
 4474 1674 F31D0000 		.4byte	.LASF373
 4475 1678 19       		.byte	0x19
 4476 1679 B2       		.byte	0xb2
 4477 167a E1000000 		.4byte	0xe1
 4478 167e 01       		.byte	0x1
 4479 167f 01       		.byte	0x1
 4480 1680 06       		.byte	0x6
 4481 1681 28       		.byte	0x28
 4482 1682 0C       		.uleb128 0xc
 4483 1683 97080000 		.4byte	.LASF374
 4484 1687 19       		.byte	0x19
 4485 1688 B4       		.byte	0xb4
 4486 1689 E1000000 		.4byte	0xe1
 4487 168d 01       		.byte	0x1
ARM GAS  C:\Users\haske\AppData\Local\Temp\ccU9uRZG.s 			page 95


 4488 168e 01       		.byte	0x1
 4489 168f 05       		.byte	0x5
 4490 1690 28       		.byte	0x28
 4491 1691 0A       		.uleb128 0xa
 4492 1692 63050000 		.4byte	.LASF221
 4493 1696 19       		.byte	0x19
 4494 1697 B6       		.byte	0xb6
 4495 1698 9D030000 		.4byte	0x39d
 4496 169c 29       		.byte	0x29
 4497 169d 0A       		.uleb128 0xa
 4498 169e A4010000 		.4byte	.LASF222
 4499 16a2 19       		.byte	0x19
 4500 16a3 B7       		.byte	0xb7
 4501 16a4 92030000 		.4byte	0x392
 4502 16a8 2A       		.byte	0x2a
 4503 16a9 0A       		.uleb128 0xa
 4504 16aa 0B1E0000 		.4byte	.LASF375
 4505 16ae 19       		.byte	0x19
 4506 16af B8       		.byte	0xb8
 4507 16b0 CF000000 		.4byte	0xcf
 4508 16b4 2C       		.byte	0x2c
 4509 16b5 0A       		.uleb128 0xa
 4510 16b6 46150000 		.4byte	.LASF376
 4511 16ba 19       		.byte	0x19
 4512 16bb BB       		.byte	0xbb
 4513 16bc 0D170000 		.4byte	0x170d
 4514 16c0 30       		.byte	0x30
 4515 16c1 22       		.uleb128 0x22
 4516 16c2 A9050000 		.4byte	.LASF377
 4517 16c6 19       		.byte	0x19
 4518 16c7 BC       		.byte	0xbc
 4519 16c8 1D170000 		.4byte	0x171d
 4520 16cc 3001     		.2byte	0x130
 4521 16ce 22       		.uleb128 0x22
 4522 16cf C31C0000 		.4byte	.LASF378
 4523 16d3 19       		.byte	0x19
 4524 16d4 BD       		.byte	0xbd
 4525 16d5 F7000000 		.4byte	0xf7
 4526 16d9 5001     		.2byte	0x150
 4527 16db 22       		.uleb128 0x22
 4528 16dc 7A1D0000 		.4byte	.LASF379
 4529 16e0 19       		.byte	0x19
 4530 16e1 BE       		.byte	0xbe
 4531 16e2 02010000 		.4byte	0x102
 4532 16e6 5401     		.2byte	0x154
 4533 16e8 22       		.uleb128 0x22
 4534 16e9 EA040000 		.4byte	.LASF380
 4535 16ed 19       		.byte	0x19
 4536 16ee C1       		.byte	0xc1
 4537 16ef 0D010000 		.4byte	0x10d
 4538 16f3 5801     		.2byte	0x158
 4539 16f5 00       		.byte	0
 4540 16f6 06       		.uleb128 0x6
 4541 16f7 04       		.byte	0x4
 4542 16f8 FF120000 		.4byte	0x12ff
 4543 16fc 23       		.uleb128 0x23
 4544 16fd 361C0000 		.4byte	.LASF549
ARM GAS  C:\Users\haske\AppData\Local\Temp\ccU9uRZG.s 			page 96


 4545 1701 06       		.uleb128 0x6
 4546 1702 04       		.byte	0x4
 4547 1703 FC160000 		.4byte	0x16fc
 4548 1707 06       		.uleb128 0x6
 4549 1708 04       		.byte	0x4
 4550 1709 8D090000 		.4byte	0x98d
 4551 170d 17       		.uleb128 0x17
 4552 170e 8B010000 		.4byte	0x18b
 4553 1712 1D170000 		.4byte	0x171d
 4554 1716 18       		.uleb128 0x18
 4555 1717 BF000000 		.4byte	0xbf
 4556 171b 1F       		.byte	0x1f
 4557 171c 00       		.byte	0
 4558 171d 17       		.uleb128 0x17
 4559 171e E1000000 		.4byte	0xe1
 4560 1722 2D170000 		.4byte	0x172d
 4561 1726 18       		.uleb128 0x18
 4562 1727 BF000000 		.4byte	0xbf
 4563 172b 1F       		.byte	0x1f
 4564 172c 00       		.byte	0
 4565 172d 02       		.uleb128 0x2
 4566 172e 93000000 		.4byte	.LASF381
 4567 1732 19       		.byte	0x19
 4568 1733 C2       		.byte	0xc2
 4569 1734 DF150000 		.4byte	0x15df
 4570 1738 11       		.uleb128 0x11
 4571 1739 01       		.byte	0x1
 4572 173a 69000000 		.4byte	0x69
 4573 173e 1A       		.byte	0x1a
 4574 173f 3E       		.byte	0x3e
 4575 1740 63170000 		.4byte	0x1763
 4576 1744 12       		.uleb128 0x12
 4577 1745 DC200000 		.4byte	.LASF382
 4578 1749 00       		.byte	0
 4579 174a 12       		.uleb128 0x12
 4580 174b 3E170000 		.4byte	.LASF383
 4581 174f 01       		.byte	0x1
 4582 1750 12       		.uleb128 0x12
 4583 1751 1F1A0000 		.4byte	.LASF384
 4584 1755 02       		.byte	0x2
 4585 1756 12       		.uleb128 0x12
 4586 1757 0A120000 		.4byte	.LASF385
 4587 175b 03       		.byte	0x3
 4588 175c 12       		.uleb128 0x12
 4589 175d 74000000 		.4byte	.LASF386
 4590 1761 04       		.byte	0x4
 4591 1762 00       		.byte	0
 4592 1763 02       		.uleb128 0x2
 4593 1764 E6110000 		.4byte	.LASF387
 4594 1768 1A       		.byte	0x1a
 4595 1769 44       		.byte	0x44
 4596 176a 38170000 		.4byte	0x1738
 4597 176e 11       		.uleb128 0x11
 4598 176f 01       		.byte	0x1
 4599 1770 69000000 		.4byte	0x69
 4600 1774 1A       		.byte	0x1a
 4601 1775 47       		.byte	0x47
ARM GAS  C:\Users\haske\AppData\Local\Temp\ccU9uRZG.s 			page 97


 4602 1776 87170000 		.4byte	0x1787
 4603 177a 12       		.uleb128 0x12
 4604 177b 2B080000 		.4byte	.LASF388
 4605 177f 00       		.byte	0
 4606 1780 12       		.uleb128 0x12
 4607 1781 79110000 		.4byte	.LASF389
 4608 1785 01       		.byte	0x1
 4609 1786 00       		.byte	0
 4610 1787 02       		.uleb128 0x2
 4611 1788 AD0C0000 		.4byte	.LASF390
 4612 178c 1A       		.byte	0x1a
 4613 178d 4A       		.byte	0x4a
 4614 178e 6E170000 		.4byte	0x176e
 4615 1792 08       		.uleb128 0x8
 4616 1793 10       		.byte	0x10
 4617 1794 1A       		.byte	0x1a
 4618 1795 4D       		.byte	0x4d
 4619 1796 E3170000 		.4byte	0x17e3
 4620 179a 0A       		.uleb128 0xa
 4621 179b B4030000 		.4byte	.LASF391
 4622 179f 1A       		.byte	0x1a
 4623 17a0 4E       		.byte	0x4e
 4624 17a1 4B010000 		.4byte	0x14b
 4625 17a5 00       		.byte	0
 4626 17a6 09       		.uleb128 0x9
 4627 17a7 6B657900 		.ascii	"key\000"
 4628 17ab 1A       		.byte	0x1a
 4629 17ac 4F       		.byte	0x4f
 4630 17ad 0D010000 		.4byte	0x10d
 4631 17b1 04       		.byte	0x4
 4632 17b2 0A       		.uleb128 0xa
 4633 17b3 0C0A0000 		.4byte	.LASF392
 4634 17b7 1A       		.byte	0x1a
 4635 17b8 50       		.byte	0x50
 4636 17b9 0D010000 		.4byte	0x10d
 4637 17bd 08       		.byte	0x8
 4638 17be 0A       		.uleb128 0xa
 4639 17bf BC140000 		.4byte	.LASF393
 4640 17c3 1A       		.byte	0x1a
 4641 17c4 51       		.byte	0x51
 4642 17c5 EC000000 		.4byte	0xec
 4643 17c9 0C       		.byte	0xc
 4644 17ca 0A       		.uleb128 0xa
 4645 17cb 41020000 		.4byte	.LASF212
 4646 17cf 1A       		.byte	0x1a
 4647 17d0 53       		.byte	0x53
 4648 17d1 87170000 		.4byte	0x1787
 4649 17d5 0E       		.byte	0xe
 4650 17d6 0A       		.uleb128 0xa
 4651 17d7 350F0000 		.4byte	.LASF394
 4652 17db 1A       		.byte	0x1a
 4653 17dc 54       		.byte	0x54
 4654 17dd CC020000 		.4byte	0x2cc
 4655 17e1 0F       		.byte	0xf
 4656 17e2 00       		.byte	0
 4657 17e3 02       		.uleb128 0x2
 4658 17e4 141F0000 		.4byte	.LASF395
ARM GAS  C:\Users\haske\AppData\Local\Temp\ccU9uRZG.s 			page 98


 4659 17e8 1A       		.byte	0x1a
 4660 17e9 55       		.byte	0x55
 4661 17ea 92170000 		.4byte	0x1792
 4662 17ee 0D       		.uleb128 0xd
 4663 17ef 9B030000 		.4byte	.LASF396
 4664 17f3 20       		.byte	0x20
 4665 17f4 1A       		.byte	0x1a
 4666 17f5 58       		.byte	0x58
 4667 17f6 8B180000 		.4byte	0x188b
 4668 17fa 0A       		.uleb128 0xa
 4669 17fb F4020000 		.4byte	.LASF397
 4670 17ff 1A       		.byte	0x1a
 4671 1800 5B       		.byte	0x5b
 4672 1801 63170000 		.4byte	0x1763
 4673 1805 00       		.byte	0
 4674 1806 0A       		.uleb128 0xa
 4675 1807 23060000 		.4byte	.LASF398
 4676 180b 1A       		.byte	0x1a
 4677 180c 5E       		.byte	0x5e
 4678 180d A7180000 		.4byte	0x18a7
 4679 1811 04       		.byte	0x4
 4680 1812 0A       		.uleb128 0xa
 4681 1813 BB170000 		.4byte	.LASF399
 4682 1817 1A       		.byte	0x1a
 4683 1818 62       		.byte	0x62
 4684 1819 BD180000 		.4byte	0x18bd
 4685 181d 08       		.byte	0x8
 4686 181e 0A       		.uleb128 0xa
 4687 181f 0F210000 		.4byte	.LASF45
 4688 1823 1A       		.byte	0x1a
 4689 1824 65       		.byte	0x65
 4690 1825 C6000000 		.4byte	0xc6
 4691 1829 0C       		.byte	0xc
 4692 182a 0A       		.uleb128 0xa
 4693 182b 77140000 		.4byte	.LASF400
 4694 182f 1A       		.byte	0x1a
 4695 1830 69       		.byte	0x69
 4696 1831 C3180000 		.4byte	0x18c3
 4697 1835 10       		.byte	0x10
 4698 1836 0A       		.uleb128 0xa
 4699 1837 C9160000 		.4byte	.LASF401
 4700 183b 1A       		.byte	0x1a
 4701 183c 6C       		.byte	0x6c
 4702 183d F6160000 		.4byte	0x16f6
 4703 1841 14       		.byte	0x14
 4704 1842 0A       		.uleb128 0xa
 4705 1843 0E1C0000 		.4byte	.LASF402
 4706 1847 1A       		.byte	0x1a
 4707 1848 6F       		.byte	0x6f
 4708 1849 E1000000 		.4byte	0xe1
 4709 184d 18       		.byte	0x18
 4710 184e 0A       		.uleb128 0xa
 4711 184f D0170000 		.4byte	.LASF403
 4712 1853 1A       		.byte	0x1a
 4713 1854 72       		.byte	0x72
 4714 1855 E1000000 		.4byte	0xe1
 4715 1859 19       		.byte	0x19
ARM GAS  C:\Users\haske\AppData\Local\Temp\ccU9uRZG.s 			page 99


 4716 185a 0A       		.uleb128 0xa
 4717 185b 80200000 		.4byte	.LASF404
 4718 185f 1A       		.byte	0x1a
 4719 1860 75       		.byte	0x75
 4720 1861 E1000000 		.4byte	0xe1
 4721 1865 1A       		.byte	0x1a
 4722 1866 0A       		.uleb128 0xa
 4723 1867 41220000 		.4byte	.LASF405
 4724 186b 1A       		.byte	0x1a
 4725 186c 78       		.byte	0x78
 4726 186d E1000000 		.4byte	0xe1
 4727 1871 1B       		.byte	0x1b
 4728 1872 0A       		.uleb128 0xa
 4729 1873 A7180000 		.4byte	.LASF406
 4730 1877 1A       		.byte	0x1a
 4731 1878 7B       		.byte	0x7b
 4732 1879 F7000000 		.4byte	0xf7
 4733 187d 1C       		.byte	0x1c
 4734 187e 0A       		.uleb128 0xa
 4735 187f AC1E0000 		.4byte	.LASF407
 4736 1883 1A       		.byte	0x1a
 4737 1884 7E       		.byte	0x7e
 4738 1885 F7000000 		.4byte	0xf7
 4739 1889 1E       		.byte	0x1e
 4740 188a 00       		.byte	0
 4741 188b 16       		.uleb128 0x16
 4742 188c 9B180000 		.4byte	0x189b
 4743 1890 10       		.uleb128 0x10
 4744 1891 9B180000 		.4byte	0x189b
 4745 1895 10       		.uleb128 0x10
 4746 1896 A1180000 		.4byte	0x18a1
 4747 189a 00       		.byte	0
 4748 189b 06       		.uleb128 0x6
 4749 189c 04       		.byte	0x4
 4750 189d EE170000 		.4byte	0x17ee
 4751 18a1 06       		.uleb128 0x6
 4752 18a2 04       		.byte	0x4
 4753 18a3 E3170000 		.4byte	0x17e3
 4754 18a7 06       		.uleb128 0x6
 4755 18a8 04       		.byte	0x4
 4756 18a9 8B180000 		.4byte	0x188b
 4757 18ad 16       		.uleb128 0x16
 4758 18ae BD180000 		.4byte	0x18bd
 4759 18b2 10       		.uleb128 0x10
 4760 18b3 9B180000 		.4byte	0x189b
 4761 18b7 10       		.uleb128 0x10
 4762 18b8 E1000000 		.4byte	0xe1
 4763 18bc 00       		.byte	0
 4764 18bd 06       		.uleb128 0x6
 4765 18be 04       		.byte	0x4
 4766 18bf AD180000 		.4byte	0x18ad
 4767 18c3 06       		.uleb128 0x6
 4768 18c4 04       		.byte	0x4
 4769 18c5 DF150000 		.4byte	0x15df
 4770 18c9 08       		.uleb128 0x8
 4771 18ca 40       		.byte	0x40
 4772 18cb 1A       		.byte	0x1a
ARM GAS  C:\Users\haske\AppData\Local\Temp\ccU9uRZG.s 			page 100


 4773 18cc 8D       		.byte	0x8d
 4774 18cd A7190000 		.4byte	0x19a7
 4775 18d1 0A       		.uleb128 0xa
 4776 18d2 E11C0000 		.4byte	.LASF408
 4777 18d6 1A       		.byte	0x1a
 4778 18d7 8F       		.byte	0x8f
 4779 18d8 4B010000 		.4byte	0x14b
 4780 18dc 00       		.byte	0
 4781 18dd 0A       		.uleb128 0xa
 4782 18de 2D140000 		.4byte	.LASF409
 4783 18e2 1A       		.byte	0x1a
 4784 18e3 90       		.byte	0x90
 4785 18e4 4B010000 		.4byte	0x14b
 4786 18e8 04       		.byte	0x4
 4787 18e9 0A       		.uleb128 0xa
 4788 18ea D8120000 		.4byte	.LASF410
 4789 18ee 1A       		.byte	0x1a
 4790 18ef 91       		.byte	0x91
 4791 18f0 4B010000 		.4byte	0x14b
 4792 18f4 08       		.byte	0x8
 4793 18f5 0A       		.uleb128 0xa
 4794 18f6 C2210000 		.4byte	.LASF411
 4795 18fa 1A       		.byte	0x1a
 4796 18fb 92       		.byte	0x92
 4797 18fc 4B010000 		.4byte	0x14b
 4798 1900 0C       		.byte	0xc
 4799 1901 0A       		.uleb128 0xa
 4800 1902 09230000 		.4byte	.LASF412
 4801 1906 1A       		.byte	0x1a
 4802 1907 93       		.byte	0x93
 4803 1908 4B010000 		.4byte	0x14b
 4804 190c 10       		.byte	0x10
 4805 190d 0A       		.uleb128 0xa
 4806 190e B1140000 		.4byte	.LASF413
 4807 1912 1A       		.byte	0x1a
 4808 1913 94       		.byte	0x94
 4809 1914 4B010000 		.4byte	0x14b
 4810 1918 14       		.byte	0x14
 4811 1919 0A       		.uleb128 0xa
 4812 191a 47180000 		.4byte	.LASF414
 4813 191e 1A       		.byte	0x1a
 4814 191f 95       		.byte	0x95
 4815 1920 4B010000 		.4byte	0x14b
 4816 1924 18       		.byte	0x18
 4817 1925 0A       		.uleb128 0xa
 4818 1926 EB190000 		.4byte	.LASF415
 4819 192a 1A       		.byte	0x1a
 4820 192b 96       		.byte	0x96
 4821 192c 4B010000 		.4byte	0x14b
 4822 1930 1C       		.byte	0x1c
 4823 1931 0A       		.uleb128 0xa
 4824 1932 E3120000 		.4byte	.LASF416
 4825 1936 1A       		.byte	0x1a
 4826 1937 97       		.byte	0x97
 4827 1938 8D090000 		.4byte	0x98d
 4828 193c 20       		.byte	0x20
 4829 193d 0A       		.uleb128 0xa
ARM GAS  C:\Users\haske\AppData\Local\Temp\ccU9uRZG.s 			page 101


 4830 193e DD110000 		.4byte	.LASF417
 4831 1942 1A       		.byte	0x1a
 4832 1943 98       		.byte	0x98
 4833 1944 8D090000 		.4byte	0x98d
 4834 1948 24       		.byte	0x24
 4835 1949 0A       		.uleb128 0xa
 4836 194a A5040000 		.4byte	.LASF418
 4837 194e 1A       		.byte	0x1a
 4838 194f 99       		.byte	0x99
 4839 1950 8D090000 		.4byte	0x98d
 4840 1954 28       		.byte	0x28
 4841 1955 0A       		.uleb128 0xa
 4842 1956 8C060000 		.4byte	.LASF419
 4843 195a 1A       		.byte	0x1a
 4844 195b 9A       		.byte	0x9a
 4845 195c 8D090000 		.4byte	0x98d
 4846 1960 2C       		.byte	0x2c
 4847 1961 0A       		.uleb128 0xa
 4848 1962 F10A0000 		.4byte	.LASF420
 4849 1966 1A       		.byte	0x1a
 4850 1967 9B       		.byte	0x9b
 4851 1968 8B010000 		.4byte	0x18b
 4852 196c 30       		.byte	0x30
 4853 196d 0A       		.uleb128 0xa
 4854 196e 74060000 		.4byte	.LASF421
 4855 1972 1A       		.byte	0x1a
 4856 1973 9D       		.byte	0x9d
 4857 1974 4B010000 		.4byte	0x14b
 4858 1978 38       		.byte	0x38
 4859 1979 0C       		.uleb128 0xc
 4860 197a 22050000 		.4byte	.LASF422
 4861 197e 1A       		.byte	0x1a
 4862 197f 9F       		.byte	0x9f
 4863 1980 96010000 		.4byte	0x196
 4864 1984 01       		.byte	0x1
 4865 1985 04       		.byte	0x4
 4866 1986 04       		.byte	0x4
 4867 1987 3C       		.byte	0x3c
 4868 1988 0C       		.uleb128 0xc
 4869 1989 9B1B0000 		.4byte	.LASF423
 4870 198d 1A       		.byte	0x1a
 4871 198e A0       		.byte	0xa0
 4872 198f 96010000 		.4byte	0x196
 4873 1993 01       		.byte	0x1
 4874 1994 04       		.byte	0x4
 4875 1995 00       		.byte	0
 4876 1996 3C       		.byte	0x3c
 4877 1997 0C       		.uleb128 0xc
 4878 1998 B31B0000 		.4byte	.LASF424
 4879 199c 1A       		.byte	0x1a
 4880 199d A1       		.byte	0xa1
 4881 199e E1000000 		.4byte	0xe1
 4882 19a2 01       		.byte	0x1
 4883 19a3 01       		.byte	0x1
 4884 19a4 07       		.byte	0x7
 4885 19a5 3D       		.byte	0x3d
 4886 19a6 00       		.byte	0
ARM GAS  C:\Users\haske\AppData\Local\Temp\ccU9uRZG.s 			page 102


 4887 19a7 08       		.uleb128 0x8
 4888 19a8 08       		.byte	0x8
 4889 19a9 1A       		.byte	0x1a
 4890 19aa A3       		.byte	0xa3
 4891 19ab C8190000 		.4byte	0x19c8
 4892 19af 0A       		.uleb128 0xa
 4893 19b0 33170000 		.4byte	.LASF425
 4894 19b4 1A       		.byte	0x1a
 4895 19b5 A5       		.byte	0xa5
 4896 19b6 87170000 		.4byte	0x1787
 4897 19ba 00       		.byte	0
 4898 19bb 0A       		.uleb128 0xa
 4899 19bc 7B1B0000 		.4byte	.LASF426
 4900 19c0 1A       		.byte	0x1a
 4901 19c1 A6       		.byte	0xa6
 4902 19c2 0D010000 		.4byte	0x10d
 4903 19c6 04       		.byte	0x4
 4904 19c7 00       		.byte	0
 4905 19c8 13       		.uleb128 0x13
 4906 19c9 40       		.byte	0x40
 4907 19ca 1A       		.byte	0x1a
 4908 19cb 8C       		.byte	0x8c
 4909 19cc E7190000 		.4byte	0x19e7
 4910 19d0 15       		.uleb128 0x15
 4911 19d1 BD0D0000 		.4byte	.LASF427
 4912 19d5 1A       		.byte	0x1a
 4913 19d6 A2       		.byte	0xa2
 4914 19d7 C9180000 		.4byte	0x18c9
 4915 19db 15       		.uleb128 0x15
 4916 19dc 2D1D0000 		.4byte	.LASF428
 4917 19e0 1A       		.byte	0x1a
 4918 19e1 A7       		.byte	0xa7
 4919 19e2 A7190000 		.4byte	0x19a7
 4920 19e6 00       		.byte	0
 4921 19e7 0D       		.uleb128 0xd
 4922 19e8 62180000 		.4byte	.LASF429
 4923 19ec 4C       		.byte	0x4c
 4924 19ed 1A       		.byte	0x1a
 4925 19ee 84       		.byte	0x84
 4926 19ef 601A0000 		.4byte	0x1a60
 4927 19f3 0A       		.uleb128 0xa
 4928 19f4 41020000 		.4byte	.LASF212
 4929 19f8 1A       		.byte	0x1a
 4930 19f9 85       		.byte	0x85
 4931 19fa 87170000 		.4byte	0x1787
 4932 19fe 00       		.byte	0
 4933 19ff 0C       		.uleb128 0xc
 4934 1a00 EF210000 		.4byte	.LASF430
 4935 1a04 1A       		.byte	0x1a
 4936 1a05 87       		.byte	0x87
 4937 1a06 E1000000 		.4byte	0xe1
 4938 1a0a 01       		.byte	0x1
 4939 1a0b 01       		.byte	0x1
 4940 1a0c 07       		.byte	0x7
 4941 1a0d 01       		.byte	0x1
 4942 1a0e 0C       		.uleb128 0xc
 4943 1a0f 95190000 		.4byte	.LASF431
ARM GAS  C:\Users\haske\AppData\Local\Temp\ccU9uRZG.s 			page 103


 4944 1a13 1A       		.byte	0x1a
 4945 1a14 88       		.byte	0x88
 4946 1a15 E1000000 		.4byte	0xe1
 4947 1a19 01       		.byte	0x1
 4948 1a1a 01       		.byte	0x1
 4949 1a1b 06       		.byte	0x6
 4950 1a1c 01       		.byte	0x1
 4951 1a1d 0C       		.uleb128 0xc
 4952 1a1e 4F200000 		.4byte	.LASF432
 4953 1a22 1A       		.byte	0x1a
 4954 1a23 89       		.byte	0x89
 4955 1a24 E1000000 		.4byte	0xe1
 4956 1a28 01       		.byte	0x1
 4957 1a29 01       		.byte	0x1
 4958 1a2a 05       		.byte	0x5
 4959 1a2b 01       		.byte	0x1
 4960 1a2c 0C       		.uleb128 0xc
 4961 1a2d A90E0000 		.4byte	.LASF433
 4962 1a31 1A       		.byte	0x1a
 4963 1a32 8A       		.byte	0x8a
 4964 1a33 E1000000 		.4byte	0xe1
 4965 1a37 01       		.byte	0x1
 4966 1a38 01       		.byte	0x1
 4967 1a39 04       		.byte	0x4
 4968 1a3a 01       		.byte	0x1
 4969 1a3b 0A       		.uleb128 0xa
 4970 1a3c A7070000 		.4byte	.LASF434
 4971 1a40 1A       		.byte	0x1a
 4972 1a41 A8       		.byte	0xa8
 4973 1a42 C8190000 		.4byte	0x19c8
 4974 1a46 04       		.byte	0x4
 4975 1a47 0A       		.uleb128 0xa
 4976 1a48 54170000 		.4byte	.LASF435
 4977 1a4c 1A       		.byte	0x1a
 4978 1a4d AA       		.byte	0xaa
 4979 1a4e 0D010000 		.4byte	0x10d
 4980 1a52 44       		.byte	0x44
 4981 1a53 0A       		.uleb128 0xa
 4982 1a54 63150000 		.4byte	.LASF436
 4983 1a58 1A       		.byte	0x1a
 4984 1a59 AB       		.byte	0xab
 4985 1a5a 0D010000 		.4byte	0x10d
 4986 1a5e 48       		.byte	0x48
 4987 1a5f 00       		.byte	0
 4988 1a60 02       		.uleb128 0x2
 4989 1a61 62180000 		.4byte	.LASF429
 4990 1a65 1A       		.byte	0x1a
 4991 1a66 AC       		.byte	0xac
 4992 1a67 E7190000 		.4byte	0x19e7
 4993 1a6b 0D       		.uleb128 0xd
 4994 1a6c 8F1B0000 		.4byte	.LASF437
 4995 1a70 5C       		.byte	0x5c
 4996 1a71 1A       		.byte	0x1a
 4997 1a72 B0       		.byte	0xb0
 4998 1a73 B41A0000 		.4byte	0x1ab4
 4999 1a77 0A       		.uleb128 0xa
 5000 1a78 2F1C0000 		.4byte	.LASF362
ARM GAS  C:\Users\haske\AppData\Local\Temp\ccU9uRZG.s 			page 104


 5001 1a7c 1A       		.byte	0x1a
 5002 1a7d B1       		.byte	0xb1
 5003 1a7e 9B180000 		.4byte	0x189b
 5004 1a82 00       		.byte	0
 5005 1a83 0A       		.uleb128 0xa
 5006 1a84 790B0000 		.4byte	.LASF438
 5007 1a88 1A       		.byte	0x1a
 5008 1a89 B2       		.byte	0xb2
 5009 1a8a 601A0000 		.4byte	0x1a60
 5010 1a8e 04       		.byte	0x4
 5011 1a8f 0A       		.uleb128 0xa
 5012 1a90 9E220000 		.4byte	.LASF439
 5013 1a94 1A       		.byte	0x1a
 5014 1a95 B3       		.byte	0xb3
 5015 1a96 8D090000 		.4byte	0x98d
 5016 1a9a 50       		.byte	0x50
 5017 1a9b 0A       		.uleb128 0xa
 5018 1a9c 46110000 		.4byte	.LASF440
 5019 1aa0 1A       		.byte	0x1a
 5020 1aa1 B4       		.byte	0xb4
 5021 1aa2 391B0000 		.4byte	0x1b39
 5022 1aa6 54       		.byte	0x54
 5023 1aa7 0A       		.uleb128 0xa
 5024 1aa8 6E0E0000 		.4byte	.LASF441
 5025 1aac 1A       		.byte	0x1a
 5026 1aad B5       		.byte	0xb5
 5027 1aae 72100000 		.4byte	0x1072
 5028 1ab2 58       		.byte	0x58
 5029 1ab3 00       		.byte	0
 5030 1ab4 0D       		.uleb128 0xd
 5031 1ab5 A5220000 		.4byte	.LASF442
 5032 1ab9 20       		.byte	0x20
 5033 1aba 1B       		.byte	0x1b
 5034 1abb 3B       		.byte	0x3b
 5035 1abc 391B0000 		.4byte	0x1b39
 5036 1ac0 0A       		.uleb128 0xa
 5037 1ac1 6A100000 		.4byte	.LASF443
 5038 1ac5 1B       		.byte	0x1b
 5039 1ac6 3C       		.byte	0x3c
 5040 1ac7 7A120000 		.4byte	0x127a
 5041 1acb 00       		.byte	0
 5042 1acc 0A       		.uleb128 0xa
 5043 1acd 0E230000 		.4byte	.LASF444
 5044 1ad1 1B       		.byte	0x1b
 5045 1ad2 3D       		.byte	0x3d
 5046 1ad3 07170000 		.4byte	0x1707
 5047 1ad7 0C       		.byte	0xc
 5048 1ad8 0A       		.uleb128 0xa
 5049 1ad9 B3160000 		.4byte	.LASF445
 5050 1add 1B       		.byte	0x1b
 5051 1ade 3F       		.byte	0x3f
 5052 1adf A21E0000 		.4byte	0x1ea2
 5053 1ae3 10       		.byte	0x10
 5054 1ae4 0A       		.uleb128 0xa
 5055 1ae5 A1050000 		.4byte	.LASF446
 5056 1ae9 1B       		.byte	0x1b
 5057 1aea 40       		.byte	0x40
ARM GAS  C:\Users\haske\AppData\Local\Temp\ccU9uRZG.s 			page 105


 5058 1aeb BE1E0000 		.4byte	0x1ebe
 5059 1aef 14       		.byte	0x14
 5060 1af0 0A       		.uleb128 0xa
 5061 1af1 0F210000 		.4byte	.LASF45
 5062 1af5 1B       		.byte	0x1b
 5063 1af6 45       		.byte	0x45
 5064 1af7 C6000000 		.4byte	0xc6
 5065 1afb 18       		.byte	0x18
 5066 1afc 0C       		.uleb128 0xc
 5067 1afd 77010000 		.4byte	.LASF447
 5068 1b01 1B       		.byte	0x1b
 5069 1b02 48       		.byte	0x48
 5070 1b03 E1000000 		.4byte	0xe1
 5071 1b07 01       		.byte	0x1
 5072 1b08 01       		.byte	0x1
 5073 1b09 07       		.byte	0x7
 5074 1b0a 1C       		.byte	0x1c
 5075 1b0b 0C       		.uleb128 0xc
 5076 1b0c 73180000 		.4byte	.LASF448
 5077 1b10 1B       		.byte	0x1b
 5078 1b11 49       		.byte	0x49
 5079 1b12 E1000000 		.4byte	0xe1
 5080 1b16 01       		.byte	0x1
 5081 1b17 01       		.byte	0x1
 5082 1b18 06       		.byte	0x6
 5083 1b19 1C       		.byte	0x1c
 5084 1b1a 0C       		.uleb128 0xc
 5085 1b1b D1210000 		.4byte	.LASF449
 5086 1b1f 1B       		.byte	0x1b
 5087 1b20 4A       		.byte	0x4a
 5088 1b21 E1000000 		.4byte	0xe1
 5089 1b25 01       		.byte	0x1
 5090 1b26 01       		.byte	0x1
 5091 1b27 05       		.byte	0x5
 5092 1b28 1C       		.byte	0x1c
 5093 1b29 0C       		.uleb128 0xc
 5094 1b2a 60190000 		.4byte	.LASF450
 5095 1b2e 1B       		.byte	0x1b
 5096 1b2f 4C       		.byte	0x4c
 5097 1b30 E1000000 		.4byte	0xe1
 5098 1b34 01       		.byte	0x1
 5099 1b35 01       		.byte	0x1
 5100 1b36 04       		.byte	0x4
 5101 1b37 1C       		.byte	0x1c
 5102 1b38 00       		.byte	0
 5103 1b39 06       		.uleb128 0x6
 5104 1b3a 04       		.byte	0x4
 5105 1b3b B41A0000 		.4byte	0x1ab4
 5106 1b3f 02       		.uleb128 0x2
 5107 1b40 630E0000 		.4byte	.LASF451
 5108 1b44 1A       		.byte	0x1a
 5109 1b45 B7       		.byte	0xb7
 5110 1b46 6B1A0000 		.4byte	0x1a6b
 5111 1b4a 02       		.uleb128 0x2
 5112 1b4b 89050000 		.4byte	.LASF452
 5113 1b4f 0F       		.byte	0xf
 5114 1b50 3C       		.byte	0x3c
ARM GAS  C:\Users\haske\AppData\Local\Temp\ccU9uRZG.s 			page 106


 5115 1b51 F7000000 		.4byte	0xf7
 5116 1b55 02       		.uleb128 0x2
 5117 1b56 1E200000 		.4byte	.LASF453
 5118 1b5a 0F       		.byte	0xf
 5119 1b5b 7D       		.byte	0x7d
 5120 1b5c 0D010000 		.4byte	0x10d
 5121 1b60 11       		.uleb128 0x11
 5122 1b61 01       		.byte	0x1
 5123 1b62 69000000 		.4byte	0x69
 5124 1b66 1C       		.byte	0x1c
 5125 1b67 1F       		.byte	0x1f
 5126 1b68 7F1B0000 		.4byte	0x1b7f
 5127 1b6c 12       		.uleb128 0x12
 5128 1b6d 260A0000 		.4byte	.LASF454
 5129 1b71 00       		.byte	0
 5130 1b72 12       		.uleb128 0x12
 5131 1b73 68030000 		.4byte	.LASF455
 5132 1b77 01       		.byte	0x1
 5133 1b78 12       		.uleb128 0x12
 5134 1b79 32180000 		.4byte	.LASF456
 5135 1b7d 02       		.byte	0x2
 5136 1b7e 00       		.byte	0
 5137 1b7f 02       		.uleb128 0x2
 5138 1b80 61210000 		.4byte	.LASF457
 5139 1b84 1C       		.byte	0x1c
 5140 1b85 23       		.byte	0x23
 5141 1b86 601B0000 		.4byte	0x1b60
 5142 1b8a 02       		.uleb128 0x2
 5143 1b8b 121E0000 		.4byte	.LASF458
 5144 1b8f 1C       		.byte	0x1c
 5145 1b90 25       		.byte	0x25
 5146 1b91 951B0000 		.4byte	0x1b95
 5147 1b95 06       		.uleb128 0x6
 5148 1b96 04       		.byte	0x4
 5149 1b97 9B1B0000 		.4byte	0x1b9b
 5150 1b9b 0F       		.uleb128 0xf
 5151 1b9c 7F1B0000 		.4byte	0x1b7f
 5152 1ba0 AF1B0000 		.4byte	0x1baf
 5153 1ba4 10       		.uleb128 0x10
 5154 1ba5 8D090000 		.4byte	0x98d
 5155 1ba9 10       		.uleb128 0x10
 5156 1baa C6000000 		.4byte	0xc6
 5157 1bae 00       		.byte	0
 5158 1baf 02       		.uleb128 0x2
 5159 1bb0 49010000 		.4byte	.LASF459
 5160 1bb4 1D       		.byte	0x1d
 5161 1bb5 26       		.byte	0x26
 5162 1bb6 E1000000 		.4byte	0xe1
 5163 1bba 02       		.uleb128 0x2
 5164 1bbb 22170000 		.4byte	.LASF460
 5165 1bbf 1D       		.byte	0x1d
 5166 1bc0 30       		.byte	0x30
 5167 1bc1 E1000000 		.4byte	0xe1
 5168 1bc5 08       		.uleb128 0x8
 5169 1bc6 08       		.byte	0x8
 5170 1bc7 1E       		.byte	0x1e
 5171 1bc8 27       		.byte	0x27
ARM GAS  C:\Users\haske\AppData\Local\Temp\ccU9uRZG.s 			page 107


 5172 1bc9 071C0000 		.4byte	0x1c07
 5173 1bcd 0A       		.uleb128 0xa
 5174 1bce 0B170000 		.4byte	.LASF461
 5175 1bd2 1E       		.byte	0x1e
 5176 1bd3 28       		.byte	0x28
 5177 1bd4 071C0000 		.4byte	0x1c07
 5178 1bd8 00       		.byte	0
 5179 1bd9 0C       		.uleb128 0xc
 5180 1bda A0210000 		.4byte	.LASF462
 5181 1bde 1E       		.byte	0x1e
 5182 1bdf 29       		.byte	0x29
 5183 1be0 0D010000 		.4byte	0x10d
 5184 1be4 04       		.byte	0x4
 5185 1be5 18       		.byte	0x18
 5186 1be6 08       		.byte	0x8
 5187 1be7 04       		.byte	0x4
 5188 1be8 0C       		.uleb128 0xc
 5189 1be9 69020000 		.4byte	.LASF463
 5190 1bed 1E       		.byte	0x1e
 5191 1bee 2A       		.byte	0x2a
 5192 1bef 0D010000 		.4byte	0x10d
 5193 1bf3 04       		.byte	0x4
 5194 1bf4 01       		.byte	0x1
 5195 1bf5 07       		.byte	0x7
 5196 1bf6 04       		.byte	0x4
 5197 1bf7 0C       		.uleb128 0xc
 5198 1bf8 FE0D0000 		.4byte	.LASF464
 5199 1bfc 1E       		.byte	0x1e
 5200 1bfd 2B       		.byte	0x2b
 5201 1bfe 0D010000 		.4byte	0x10d
 5202 1c02 04       		.byte	0x4
 5203 1c03 01       		.byte	0x1
 5204 1c04 06       		.byte	0x6
 5205 1c05 04       		.byte	0x4
 5206 1c06 00       		.byte	0
 5207 1c07 06       		.uleb128 0x6
 5208 1c08 04       		.byte	0x4
 5209 1c09 76090000 		.4byte	0x976
 5210 1c0d 02       		.uleb128 0x2
 5211 1c0e D00B0000 		.4byte	.LASF465
 5212 1c12 1E       		.byte	0x1e
 5213 1c13 2C       		.byte	0x2c
 5214 1c14 C51B0000 		.4byte	0x1bc5
 5215 1c18 0D       		.uleb128 0xd
 5216 1c19 17190000 		.4byte	.LASF466
 5217 1c1d 1C       		.byte	0x1c
 5218 1c1e 1F       		.byte	0x1f
 5219 1c1f 31       		.byte	0x31
 5220 1c20 A61C0000 		.4byte	0x1ca6
 5221 1c24 0A       		.uleb128 0xa
 5222 1c25 55160000 		.4byte	.LASF467
 5223 1c29 1F       		.byte	0x1f
 5224 1c2a 32       		.byte	0x32
 5225 1c2b A61C0000 		.4byte	0x1ca6
 5226 1c2f 00       		.byte	0
 5227 1c30 0A       		.uleb128 0xa
 5228 1c31 B1020000 		.4byte	.LASF468
ARM GAS  C:\Users\haske\AppData\Local\Temp\ccU9uRZG.s 			page 108


 5229 1c35 1F       		.byte	0x1f
 5230 1c36 33       		.byte	0x33
 5231 1c37 491D0000 		.4byte	0x1d49
 5232 1c3b 04       		.byte	0x4
 5233 1c3c 0A       		.uleb128 0xa
 5234 1c3d CE1B0000 		.4byte	.LASF469
 5235 1c41 1F       		.byte	0x1f
 5236 1c42 34       		.byte	0x34
 5237 1c43 491D0000 		.4byte	0x1d49
 5238 1c47 08       		.byte	0x8
 5239 1c48 0A       		.uleb128 0xa
 5240 1c49 0F210000 		.4byte	.LASF45
 5241 1c4d 1F       		.byte	0x1f
 5242 1c4e 36       		.byte	0x36
 5243 1c4f C6000000 		.4byte	0xc6
 5244 1c53 0C       		.byte	0xc
 5245 1c54 0A       		.uleb128 0xa
 5246 1c55 3D120000 		.4byte	.LASF470
 5247 1c59 1F       		.byte	0x1f
 5248 1c5a 38       		.byte	0x38
 5249 1c5b 5F1D0000 		.4byte	0x1d5f
 5250 1c5f 10       		.byte	0x10
 5251 1c60 0A       		.uleb128 0xa
 5252 1c61 D00E0000 		.4byte	.LASF471
 5253 1c65 1F       		.byte	0x1f
 5254 1c66 3A       		.byte	0x3a
 5255 1c67 23010000 		.4byte	0x123
 5256 1c6b 14       		.byte	0x14
 5257 1c6c 0A       		.uleb128 0xa
 5258 1c6d FC210000 		.4byte	.LASF472
 5259 1c71 1F       		.byte	0x1f
 5260 1c72 3B       		.byte	0x3b
 5261 1c73 23010000 		.4byte	0x123
 5262 1c77 16       		.byte	0x16
 5263 1c78 0C       		.uleb128 0xc
 5264 1c79 3B100000 		.4byte	.LASF473
 5265 1c7d 1F       		.byte	0x1f
 5266 1c7e 3C       		.byte	0x3c
 5267 1c7f 0D010000 		.4byte	0x10d
 5268 1c83 04       		.byte	0x4
 5269 1c84 02       		.byte	0x2
 5270 1c85 1E       		.byte	0x1e
 5271 1c86 18       		.byte	0x18
 5272 1c87 0C       		.uleb128 0xc
 5273 1c88 2D050000 		.4byte	.LASF474
 5274 1c8c 1F       		.byte	0x1f
 5275 1c8d 3D       		.byte	0x3d
 5276 1c8e 0D010000 		.4byte	0x10d
 5277 1c92 04       		.byte	0x4
 5278 1c93 02       		.byte	0x2
 5279 1c94 1C       		.byte	0x1c
 5280 1c95 18       		.byte	0x18
 5281 1c96 0C       		.uleb128 0xc
 5282 1c97 E5100000 		.4byte	.LASF475
 5283 1c9b 1F       		.byte	0x1f
 5284 1c9c 3E       		.byte	0x3e
 5285 1c9d 0D010000 		.4byte	0x10d
ARM GAS  C:\Users\haske\AppData\Local\Temp\ccU9uRZG.s 			page 109


 5286 1ca1 04       		.byte	0x4
 5287 1ca2 10       		.byte	0x10
 5288 1ca3 0C       		.byte	0xc
 5289 1ca4 18       		.byte	0x18
 5290 1ca5 00       		.byte	0
 5291 1ca6 06       		.uleb128 0x6
 5292 1ca7 04       		.byte	0x4
 5293 1ca8 AC1C0000 		.4byte	0x1cac
 5294 1cac 0E       		.uleb128 0xe
 5295 1cad 181C0000 		.4byte	0x1c18
 5296 1cb1 06       		.uleb128 0x6
 5297 1cb2 04       		.byte	0x4
 5298 1cb3 B71C0000 		.4byte	0x1cb7
 5299 1cb7 0D       		.uleb128 0xd
 5300 1cb8 66120000 		.4byte	.LASF476
 5301 1cbc 1C       		.byte	0x1c
 5302 1cbd 20       		.byte	0x20
 5303 1cbe 5E       		.byte	0x5e
 5304 1cbf 391D0000 		.4byte	0x1d39
 5305 1cc3 0A       		.uleb128 0xa
 5306 1cc4 F20F0000 		.4byte	.LASF477
 5307 1cc8 20       		.byte	0x20
 5308 1cc9 5F       		.byte	0x5f
 5309 1cca 8D090000 		.4byte	0x98d
 5310 1cce 00       		.byte	0
 5311 1ccf 0A       		.uleb128 0xa
 5312 1cd0 631D0000 		.4byte	.LASF478
 5313 1cd4 20       		.byte	0x20
 5314 1cd5 60       		.byte	0x60
 5315 1cd6 8D090000 		.4byte	0x98d
 5316 1cda 04       		.byte	0x4
 5317 1cdb 0A       		.uleb128 0xa
 5318 1cdc 61170000 		.4byte	.LASF479
 5319 1ce0 20       		.byte	0x20
 5320 1ce1 61       		.byte	0x61
 5321 1ce2 971E0000 		.4byte	0x1e97
 5322 1ce6 08       		.byte	0x8
 5323 1ce7 0A       		.uleb128 0xa
 5324 1ce8 0F210000 		.4byte	.LASF45
 5325 1cec 20       		.byte	0x20
 5326 1ced 62       		.byte	0x62
 5327 1cee C6000000 		.4byte	0xc6
 5328 1cf2 0C       		.byte	0xc
 5329 1cf3 0A       		.uleb128 0xa
 5330 1cf4 EC0F0000 		.4byte	.LASF480
 5331 1cf8 20       		.byte	0x20
 5332 1cf9 63       		.byte	0x63
 5333 1cfa C6000000 		.4byte	0xc6
 5334 1cfe 10       		.byte	0x10
 5335 1cff 0A       		.uleb128 0xa
 5336 1d00 84220000 		.4byte	.LASF481
 5337 1d04 20       		.byte	0x20
 5338 1d05 64       		.byte	0x64
 5339 1d06 B11C0000 		.4byte	0x1cb1
 5340 1d0a 14       		.byte	0x14
 5341 1d0b 0C       		.uleb128 0xc
 5342 1d0c 8D120000 		.4byte	.LASF482
ARM GAS  C:\Users\haske\AppData\Local\Temp\ccU9uRZG.s 			page 110


 5343 1d10 20       		.byte	0x20
 5344 1d11 65       		.byte	0x65
 5345 1d12 E1000000 		.4byte	0xe1
 5346 1d16 01       		.byte	0x1
 5347 1d17 01       		.byte	0x1
 5348 1d18 07       		.byte	0x7
 5349 1d19 18       		.byte	0x18
 5350 1d1a 0C       		.uleb128 0xc
 5351 1d1b C3090000 		.4byte	.LASF483
 5352 1d1f 20       		.byte	0x20
 5353 1d20 66       		.byte	0x66
 5354 1d21 E1000000 		.4byte	0xe1
 5355 1d25 01       		.byte	0x1
 5356 1d26 01       		.byte	0x1
 5357 1d27 06       		.byte	0x6
 5358 1d28 18       		.byte	0x18
 5359 1d29 0C       		.uleb128 0xc
 5360 1d2a E0150000 		.4byte	.LASF484
 5361 1d2e 20       		.byte	0x20
 5362 1d2f 67       		.byte	0x67
 5363 1d30 E1000000 		.4byte	0xe1
 5364 1d34 01       		.byte	0x1
 5365 1d35 01       		.byte	0x1
 5366 1d36 05       		.byte	0x5
 5367 1d37 18       		.byte	0x18
 5368 1d38 00       		.byte	0
 5369 1d39 16       		.uleb128 0x16
 5370 1d3a 491D0000 		.4byte	0x1d49
 5371 1d3e 10       		.uleb128 0x10
 5372 1d3f A61C0000 		.4byte	0x1ca6
 5373 1d43 10       		.uleb128 0x10
 5374 1d44 8D090000 		.4byte	0x98d
 5375 1d48 00       		.byte	0
 5376 1d49 06       		.uleb128 0x6
 5377 1d4a 04       		.byte	0x4
 5378 1d4b 391D0000 		.4byte	0x1d39
 5379 1d4f 16       		.uleb128 0x16
 5380 1d50 5F1D0000 		.4byte	0x1d5f
 5381 1d54 10       		.uleb128 0x10
 5382 1d55 A61C0000 		.4byte	0x1ca6
 5383 1d59 10       		.uleb128 0x10
 5384 1d5a B11C0000 		.4byte	0x1cb1
 5385 1d5e 00       		.byte	0
 5386 1d5f 06       		.uleb128 0x6
 5387 1d60 04       		.byte	0x4
 5388 1d61 4F1D0000 		.4byte	0x1d4f
 5389 1d65 02       		.uleb128 0x2
 5390 1d66 810D0000 		.4byte	.LASF485
 5391 1d6a 1F       		.byte	0x1f
 5392 1d6b 3F       		.byte	0x3f
 5393 1d6c 181C0000 		.4byte	0x1c18
 5394 1d70 11       		.uleb128 0x11
 5395 1d71 01       		.byte	0x1
 5396 1d72 69000000 		.4byte	0x69
 5397 1d76 20       		.byte	0x20
 5398 1d77 20       		.byte	0x20
 5399 1d78 971E0000 		.4byte	0x1e97
ARM GAS  C:\Users\haske\AppData\Local\Temp\ccU9uRZG.s 			page 111


 5400 1d7c 12       		.uleb128 0x12
 5401 1d7d DD040000 		.4byte	.LASF486
 5402 1d81 00       		.byte	0
 5403 1d82 12       		.uleb128 0x12
 5404 1d83 DD170000 		.4byte	.LASF487
 5405 1d87 01       		.byte	0x1
 5406 1d88 12       		.uleb128 0x12
 5407 1d89 12160000 		.4byte	.LASF488
 5408 1d8d 02       		.byte	0x2
 5409 1d8e 12       		.uleb128 0x12
 5410 1d8f 19210000 		.4byte	.LASF489
 5411 1d93 03       		.byte	0x3
 5412 1d94 12       		.uleb128 0x12
 5413 1d95 60160000 		.4byte	.LASF490
 5414 1d99 04       		.byte	0x4
 5415 1d9a 12       		.uleb128 0x12
 5416 1d9b 0A030000 		.4byte	.LASF491
 5417 1d9f 05       		.byte	0x5
 5418 1da0 12       		.uleb128 0x12
 5419 1da1 96160000 		.4byte	.LASF492
 5420 1da5 06       		.byte	0x6
 5421 1da6 12       		.uleb128 0x12
 5422 1da7 450D0000 		.4byte	.LASF493
 5423 1dab 07       		.byte	0x7
 5424 1dac 12       		.uleb128 0x12
 5425 1dad C2220000 		.4byte	.LASF494
 5426 1db1 08       		.byte	0x8
 5427 1db2 12       		.uleb128 0x12
 5428 1db3 62130000 		.4byte	.LASF495
 5429 1db7 09       		.byte	0x9
 5430 1db8 12       		.uleb128 0x12
 5431 1db9 89010000 		.4byte	.LASF496
 5432 1dbd 0A       		.byte	0xa
 5433 1dbe 12       		.uleb128 0x12
 5434 1dbf 9B120000 		.4byte	.LASF497
 5435 1dc3 0B       		.byte	0xb
 5436 1dc4 12       		.uleb128 0x12
 5437 1dc5 F9020000 		.4byte	.LASF498
 5438 1dc9 0C       		.byte	0xc
 5439 1dca 12       		.uleb128 0x12
 5440 1dcb C4200000 		.4byte	.LASF499
 5441 1dcf 0D       		.byte	0xd
 5442 1dd0 12       		.uleb128 0x12
 5443 1dd1 63070000 		.4byte	.LASF500
 5444 1dd5 0E       		.byte	0xe
 5445 1dd6 12       		.uleb128 0x12
 5446 1dd7 501E0000 		.4byte	.LASF501
 5447 1ddb 0F       		.byte	0xf
 5448 1ddc 12       		.uleb128 0x12
 5449 1ddd 890F0000 		.4byte	.LASF502
 5450 1de1 10       		.byte	0x10
 5451 1de2 12       		.uleb128 0x12
 5452 1de3 FD0A0000 		.4byte	.LASF503
 5453 1de7 11       		.byte	0x11
 5454 1de8 12       		.uleb128 0x12
 5455 1de9 870A0000 		.4byte	.LASF504
 5456 1ded 12       		.byte	0x12
ARM GAS  C:\Users\haske\AppData\Local\Temp\ccU9uRZG.s 			page 112


 5457 1dee 12       		.uleb128 0x12
 5458 1def 5D110000 		.4byte	.LASF505
 5459 1df3 13       		.byte	0x13
 5460 1df4 12       		.uleb128 0x12
 5461 1df5 9D000000 		.4byte	.LASF506
 5462 1df9 14       		.byte	0x14
 5463 1dfa 12       		.uleb128 0x12
 5464 1dfb C4070000 		.4byte	.LASF507
 5465 1dff 15       		.byte	0x15
 5466 1e00 12       		.uleb128 0x12
 5467 1e01 A60D0000 		.4byte	.LASF508
 5468 1e05 16       		.byte	0x16
 5469 1e06 12       		.uleb128 0x12
 5470 1e07 7C190000 		.4byte	.LASF509
 5471 1e0b 17       		.byte	0x17
 5472 1e0c 12       		.uleb128 0x12
 5473 1e0d E51F0000 		.4byte	.LASF510
 5474 1e11 18       		.byte	0x18
 5475 1e12 12       		.uleb128 0x12
 5476 1e13 FD1C0000 		.4byte	.LASF511
 5477 1e17 19       		.byte	0x19
 5478 1e18 12       		.uleb128 0x12
 5479 1e19 141D0000 		.4byte	.LASF512
 5480 1e1d 1A       		.byte	0x1a
 5481 1e1e 12       		.uleb128 0x12
 5482 1e1f 47060000 		.4byte	.LASF513
 5483 1e23 1B       		.byte	0x1b
 5484 1e24 12       		.uleb128 0x12
 5485 1e25 0E150000 		.4byte	.LASF514
 5486 1e29 1C       		.byte	0x1c
 5487 1e2a 12       		.uleb128 0x12
 5488 1e2b 67010000 		.4byte	.LASF515
 5489 1e2f 1D       		.byte	0x1d
 5490 1e30 12       		.uleb128 0x12
 5491 1e31 D4100000 		.4byte	.LASF516
 5492 1e35 1E       		.byte	0x1e
 5493 1e36 12       		.uleb128 0x12
 5494 1e37 CC1F0000 		.4byte	.LASF517
 5495 1e3b 1F       		.byte	0x1f
 5496 1e3c 12       		.uleb128 0x12
 5497 1e3d EE170000 		.4byte	.LASF518
 5498 1e41 20       		.byte	0x20
 5499 1e42 12       		.uleb128 0x12
 5500 1e43 FA130000 		.4byte	.LASF519
 5501 1e47 21       		.byte	0x21
 5502 1e48 12       		.uleb128 0x12
 5503 1e49 2A020000 		.4byte	.LASF520
 5504 1e4d 22       		.byte	0x22
 5505 1e4e 12       		.uleb128 0x12
 5506 1e4f 51030000 		.4byte	.LASF521
 5507 1e53 23       		.byte	0x23
 5508 1e54 12       		.uleb128 0x12
 5509 1e55 2F110000 		.4byte	.LASF522
 5510 1e59 24       		.byte	0x24
 5511 1e5a 12       		.uleb128 0x12
 5512 1e5b 07220000 		.4byte	.LASF523
 5513 1e5f 25       		.byte	0x25
ARM GAS  C:\Users\haske\AppData\Local\Temp\ccU9uRZG.s 			page 113


 5514 1e60 12       		.uleb128 0x12
 5515 1e61 C5150000 		.4byte	.LASF524
 5516 1e65 26       		.byte	0x26
 5517 1e66 12       		.uleb128 0x12
 5518 1e67 A80B0000 		.4byte	.LASF525
 5519 1e6b 27       		.byte	0x27
 5520 1e6c 12       		.uleb128 0x12
 5521 1e6d 071B0000 		.4byte	.LASF526
 5522 1e71 28       		.byte	0x28
 5523 1e72 12       		.uleb128 0x12
 5524 1e73 2C200000 		.4byte	.LASF527
 5525 1e77 29       		.byte	0x29
 5526 1e78 12       		.uleb128 0x12
 5527 1e79 B51F0000 		.4byte	.LASF528
 5528 1e7d 2A       		.byte	0x2a
 5529 1e7e 12       		.uleb128 0x12
 5530 1e7f 68200000 		.4byte	.LASF529
 5531 1e83 2B       		.byte	0x2b
 5532 1e84 12       		.uleb128 0x12
 5533 1e85 AD070000 		.4byte	.LASF530
 5534 1e89 2C       		.byte	0x2c
 5535 1e8a 12       		.uleb128 0x12
 5536 1e8b FC1D0000 		.4byte	.LASF531
 5537 1e8f 2D       		.byte	0x2d
 5538 1e90 12       		.uleb128 0x12
 5539 1e91 78150000 		.4byte	.LASF532
 5540 1e95 80       		.byte	0x80
 5541 1e96 00       		.byte	0
 5542 1e97 02       		.uleb128 0x2
 5543 1e98 46120000 		.4byte	.LASF533
 5544 1e9c 20       		.byte	0x20
 5545 1e9d 5C       		.byte	0x5c
 5546 1e9e 701D0000 		.4byte	0x1d70
 5547 1ea2 02       		.uleb128 0x2
 5548 1ea3 03190000 		.4byte	.LASF534
 5549 1ea7 1B       		.byte	0x1b
 5550 1ea8 34       		.byte	0x34
 5551 1ea9 AD1E0000 		.4byte	0x1ead
 5552 1ead 06       		.uleb128 0x6
 5553 1eae 04       		.byte	0x4
 5554 1eaf B31E0000 		.4byte	0x1eb3
 5555 1eb3 16       		.uleb128 0x16
 5556 1eb4 BE1E0000 		.4byte	0x1ebe
 5557 1eb8 10       		.uleb128 0x10
 5558 1eb9 391B0000 		.4byte	0x1b39
 5559 1ebd 00       		.byte	0
 5560 1ebe 02       		.uleb128 0x2
 5561 1ebf 320D0000 		.4byte	.LASF535
 5562 1ec3 1B       		.byte	0x1b
 5563 1ec4 35       		.byte	0x35
 5564 1ec5 C91E0000 		.4byte	0x1ec9
 5565 1ec9 06       		.uleb128 0x6
 5566 1eca 04       		.byte	0x4
 5567 1ecb CF1E0000 		.4byte	0x1ecf
 5568 1ecf 16       		.uleb128 0x16
 5569 1ed0 DF1E0000 		.4byte	0x1edf
 5570 1ed4 10       		.uleb128 0x10
ARM GAS  C:\Users\haske\AppData\Local\Temp\ccU9uRZG.s 			page 114


 5571 1ed5 391B0000 		.4byte	0x1b39
 5572 1ed9 10       		.uleb128 0x10
 5573 1eda CC020000 		.4byte	0x2cc
 5574 1ede 00       		.byte	0
 5575 1edf 02       		.uleb128 0x2
 5576 1ee0 20080000 		.4byte	.LASF536
 5577 1ee4 1B       		.byte	0x1b
 5578 1ee5 4E       		.byte	0x4e
 5579 1ee6 B41A0000 		.4byte	0x1ab4
 5580 1eea 08       		.uleb128 0x8
 5581 1eeb 1C       		.byte	0x1c
 5582 1eec 0F       		.byte	0xf
 5583 1eed 9B       		.byte	0x9b
 5584 1eee A11F0000 		.4byte	0x1fa1
 5585 1ef2 0A       		.uleb128 0xa
 5586 1ef3 AB030000 		.4byte	.LASF537
 5587 1ef7 0F       		.byte	0xf
 5588 1ef8 9C       		.byte	0x9c
 5589 1ef9 07170000 		.4byte	0x1707
 5590 1efd 00       		.byte	0
 5591 1efe 0A       		.uleb128 0xa
 5592 1eff 560F0000 		.4byte	.LASF538
 5593 1f03 0F       		.byte	0xf
 5594 1f04 9D       		.byte	0x9d
 5595 1f05 0D010000 		.4byte	0x10d
 5596 1f09 04       		.byte	0x4
 5597 1f0a 0A       		.uleb128 0xa
 5598 1f0b 520C0000 		.4byte	.LASF539
 5599 1f0f 0F       		.byte	0xf
 5600 1f10 9E       		.byte	0x9e
 5601 1f11 A11F0000 		.4byte	0x1fa1
 5602 1f15 08       		.byte	0x8
 5603 1f16 0A       		.uleb128 0xa
 5604 1f17 EC0B0000 		.4byte	.LASF540
 5605 1f1b 0F       		.byte	0xf
 5606 1f1c A0       		.byte	0xa0
 5607 1f1d AC1F0000 		.4byte	0x1fac
 5608 1f21 0C       		.byte	0xc
 5609 1f22 0A       		.uleb128 0xa
 5610 1f23 760C0000 		.4byte	.LASF541
 5611 1f27 0F       		.byte	0xf
 5612 1f28 A1       		.byte	0xa1
 5613 1f29 4B010000 		.4byte	0x14b
 5614 1f2d 10       		.byte	0x10
 5615 1f2e 0A       		.uleb128 0xa
 5616 1f2f AB1D0000 		.4byte	.LASF542
 5617 1f33 0F       		.byte	0xf
 5618 1f34 A3       		.byte	0xa3
 5619 1f35 23010000 		.4byte	0x123
 5620 1f39 14       		.byte	0x14
 5621 1f3a 0A       		.uleb128 0xa
 5622 1f3b 240D0000 		.4byte	.LASF543
 5623 1f3f 0F       		.byte	0xf
 5624 1f40 A4       		.byte	0xa4
 5625 1f41 23010000 		.4byte	0x123
 5626 1f45 16       		.byte	0x16
 5627 1f46 0C       		.uleb128 0xc
ARM GAS  C:\Users\haske\AppData\Local\Temp\ccU9uRZG.s 			page 115


 5628 1f47 DE080000 		.4byte	.LASF544
 5629 1f4b 0F       		.byte	0xf
 5630 1f4c A6       		.byte	0xa6
 5631 1f4d AF1B0000 		.4byte	0x1baf
 5632 1f51 01       		.byte	0x1
 5633 1f52 02       		.byte	0x2
 5634 1f53 06       		.byte	0x6
 5635 1f54 18       		.byte	0x18
 5636 1f55 0C       		.uleb128 0xc
 5637 1f56 EF010000 		.4byte	.LASF545
 5638 1f5a 0F       		.byte	0xf
 5639 1f5b A7       		.byte	0xa7
 5640 1f5c BA1B0000 		.4byte	0x1bba
 5641 1f60 01       		.byte	0x1
 5642 1f61 02       		.byte	0x2
 5643 1f62 04       		.byte	0x4
 5644 1f63 18       		.byte	0x18
 5645 1f64 0C       		.uleb128 0xc
 5646 1f65 B40F0000 		.4byte	.LASF546
 5647 1f69 0F       		.byte	0xf
 5648 1f6a A8       		.byte	0xa8
 5649 1f6b BA1B0000 		.4byte	0x1bba
 5650 1f6f 01       		.byte	0x1
 5651 1f70 02       		.byte	0x2
 5652 1f71 02       		.byte	0x2
 5653 1f72 18       		.byte	0x18
 5654 1f73 0C       		.uleb128 0xc
 5655 1f74 22050000 		.4byte	.LASF422
 5656 1f78 0F       		.byte	0xf
 5657 1f79 A9       		.byte	0xa9
 5658 1f7a 96010000 		.4byte	0x196
 5659 1f7e 01       		.byte	0x1
 5660 1f7f 04       		.byte	0x4
 5661 1f80 04       		.byte	0x4
 5662 1f81 19       		.byte	0x19
 5663 1f82 0C       		.uleb128 0xc
 5664 1f83 3C230000 		.4byte	.LASF547
 5665 1f87 0F       		.byte	0xf
 5666 1f88 AA       		.byte	0xaa
 5667 1f89 E1000000 		.4byte	0xe1
 5668 1f8d 01       		.byte	0x1
 5669 1f8e 06       		.byte	0x6
 5670 1f8f 02       		.byte	0x2
 5671 1f90 1A       		.byte	0x1a
 5672 1f91 0C       		.uleb128 0xc
 5673 1f92 C80C0000 		.4byte	.LASF548
 5674 1f96 0F       		.byte	0xf
 5675 1f97 AB       		.byte	0xab
 5676 1f98 E1000000 		.4byte	0xe1
 5677 1f9c 01       		.byte	0x1
 5678 1f9d 02       		.byte	0x2
 5679 1f9e 00       		.byte	0
 5680 1f9f 1A       		.byte	0x1a
 5681 1fa0 00       		.byte	0
 5682 1fa1 06       		.uleb128 0x6
 5683 1fa2 04       		.byte	0x4
 5684 1fa3 DF1E0000 		.4byte	0x1edf
ARM GAS  C:\Users\haske\AppData\Local\Temp\ccU9uRZG.s 			page 116


 5685 1fa7 23       		.uleb128 0x23
 5686 1fa8 3A210000 		.4byte	.LASF550
 5687 1fac 06       		.uleb128 0x6
 5688 1fad 04       		.byte	0x4
 5689 1fae A71F0000 		.4byte	0x1fa7
 5690 1fb2 02       		.uleb128 0x2
 5691 1fb3 0F0B0000 		.4byte	.LASF551
 5692 1fb7 0F       		.byte	0xf
 5693 1fb8 AC       		.byte	0xac
 5694 1fb9 EA1E0000 		.4byte	0x1eea
 5695 1fbd 06       		.uleb128 0x6
 5696 1fbe 04       		.byte	0x4
 5697 1fbf C31F0000 		.4byte	0x1fc3
 5698 1fc3 0E       		.uleb128 0xe
 5699 1fc4 651D0000 		.4byte	0x1d65
 5700 1fc8 06       		.uleb128 0x6
 5701 1fc9 04       		.byte	0x4
 5702 1fca B21F0000 		.4byte	0x1fb2
 5703 1fce 06       		.uleb128 0x6
 5704 1fcf 04       		.byte	0x4
 5705 1fd0 0D1C0000 		.4byte	0x1c0d
 5706 1fd4 02       		.uleb128 0x2
 5707 1fd5 33230000 		.4byte	.LASF552
 5708 1fd9 0F       		.byte	0xf
 5709 1fda BF       		.byte	0xbf
 5710 1fdb 93090000 		.4byte	0x993
 5711 1fdf 24       		.uleb128 0x24
 5712 1fe0 E3000000 		.4byte	.LASF553
 5713 1fe4 02       		.byte	0x2
 5714 1fe5 E3       		.byte	0xe3
 5715 1fe6 03       		.byte	0x3
 5716 1fe7 00200000 		.4byte	0x2000
 5717 1feb 25       		.uleb128 0x25
 5718 1fec 6100     		.ascii	"a\000"
 5719 1fee 02       		.byte	0x2
 5720 1fef E3       		.byte	0xe3
 5721 1ff0 00200000 		.4byte	0x2000
 5722 1ff4 26       		.uleb128 0x26
 5723 1ff5 180C0000 		.4byte	.LASF65
 5724 1ff9 02       		.byte	0x2
 5725 1ffa E3       		.byte	0xe3
 5726 1ffb 28050000 		.4byte	0x528
 5727 1fff 00       		.byte	0
 5728 2000 06       		.uleb128 0x6
 5729 2001 04       		.byte	0x4
 5730 2002 7A050000 		.4byte	0x57a
 5731 2006 24       		.uleb128 0x24
 5732 2007 EC140000 		.4byte	.LASF554
 5733 200b 02       		.byte	0x2
 5734 200c 9E       		.byte	0x9e
 5735 200d 03       		.byte	0x3
 5736 200e 27200000 		.4byte	0x2027
 5737 2012 25       		.uleb128 0x25
 5738 2013 6100     		.ascii	"a\000"
 5739 2015 02       		.byte	0x2
 5740 2016 9E       		.byte	0x9e
 5741 2017 00200000 		.4byte	0x2000
ARM GAS  C:\Users\haske\AppData\Local\Temp\ccU9uRZG.s 			page 117


 5742 201b 26       		.uleb128 0x26
 5743 201c 4B030000 		.4byte	.LASF555
 5744 2020 02       		.byte	0x2
 5745 2021 9E       		.byte	0x9e
 5746 2022 0D010000 		.4byte	0x10d
 5747 2026 00       		.byte	0
 5748 2027 24       		.uleb128 0x24
 5749 2028 4C110000 		.4byte	.LASF556
 5750 202c 02       		.byte	0x2
 5751 202d 94       		.byte	0x94
 5752 202e 03       		.byte	0x3
 5753 202f 48200000 		.4byte	0x2048
 5754 2033 25       		.uleb128 0x25
 5755 2034 6100     		.ascii	"a\000"
 5756 2036 02       		.byte	0x2
 5757 2037 94       		.byte	0x94
 5758 2038 00200000 		.4byte	0x2000
 5759 203c 26       		.uleb128 0x26
 5760 203d 04070000 		.4byte	.LASF557
 5761 2041 02       		.byte	0x2
 5762 2042 94       		.byte	0x94
 5763 2043 0D010000 		.4byte	0x10d
 5764 2047 00       		.byte	0
 5765 2048 24       		.uleb128 0x24
 5766 2049 EB1E0000 		.4byte	.LASF558
 5767 204d 02       		.byte	0x2
 5768 204e 8A       		.byte	0x8a
 5769 204f 03       		.byte	0x3
 5770 2050 69200000 		.4byte	0x2069
 5771 2054 25       		.uleb128 0x25
 5772 2055 6100     		.ascii	"a\000"
 5773 2057 02       		.byte	0x2
 5774 2058 8A       		.byte	0x8a
 5775 2059 00200000 		.4byte	0x2000
 5776 205d 26       		.uleb128 0x26
 5777 205e 171A0000 		.4byte	.LASF63
 5778 2062 02       		.byte	0x2
 5779 2063 8A       		.byte	0x8a
 5780 2064 01050000 		.4byte	0x501
 5781 2068 00       		.byte	0
 5782 2069 24       		.uleb128 0x24
 5783 206a 1A020000 		.4byte	.LASF559
 5784 206e 02       		.byte	0x2
 5785 206f 7E       		.byte	0x7e
 5786 2070 03       		.byte	0x3
 5787 2071 8A200000 		.4byte	0x208a
 5788 2075 25       		.uleb128 0x25
 5789 2076 6100     		.ascii	"a\000"
 5790 2078 02       		.byte	0x2
 5791 2079 7E       		.byte	0x7e
 5792 207a 00200000 		.4byte	0x2000
 5793 207e 25       		.uleb128 0x25
 5794 207f 76617200 		.ascii	"var\000"
 5795 2083 02       		.byte	0x2
 5796 2084 7E       		.byte	0x7e
 5797 2085 C6000000 		.4byte	0xc6
 5798 2089 00       		.byte	0
ARM GAS  C:\Users\haske\AppData\Local\Temp\ccU9uRZG.s 			page 118


 5799 208a 27       		.uleb128 0x27
 5800 208b 83140000 		.4byte	.LASF561
 5801 208f 01       		.byte	0x1
 5802 2090 6D       		.byte	0x6d
 5803 2091 00000000 		.4byte	.LFB161
 5804 2095 30000000 		.4byte	.LFE161-.LFB161
 5805 2099 01       		.uleb128 0x1
 5806 209a 9C       		.byte	0x9c
 5807 209b AF210000 		.4byte	0x21af
 5808 209f 28       		.uleb128 0x28
 5809 20a0 6F626A00 		.ascii	"obj\000"
 5810 20a4 01       		.byte	0x1
 5811 20a5 6D       		.byte	0x6d
 5812 20a6 AF210000 		.4byte	0x21af
 5813 20aa 00000000 		.4byte	.LLST0
 5814 20ae 29       		.uleb128 0x29
 5815 20af 80080000 		.4byte	.LASF560
 5816 20b3 01       		.byte	0x1
 5817 20b4 6D       		.byte	0x6d
 5818 20b5 0D010000 		.4byte	0x10d
 5819 20b9 2C000000 		.4byte	.LLST1
 5820 20bd 2A       		.uleb128 0x2a
 5821 20be 6100     		.ascii	"a\000"
 5822 20c0 01       		.byte	0x1
 5823 20c1 6F       		.byte	0x6f
 5824 20c2 7A050000 		.4byte	0x57a
 5825 20c6 03       		.uleb128 0x3
 5826 20c7 91       		.byte	0x91
 5827 20c8 AC7F     		.sleb128 -84
 5828 20ca 2B       		.uleb128 0x2b
 5829 20cb 69200000 		.4byte	0x2069
 5830 20cf 0E000000 		.4byte	.LBB12
 5831 20d3 02000000 		.4byte	.LBE12-.LBB12
 5832 20d7 01       		.byte	0x1
 5833 20d8 71       		.byte	0x71
 5834 20d9 F0200000 		.4byte	0x20f0
 5835 20dd 2C       		.uleb128 0x2c
 5836 20de 7E200000 		.4byte	0x207e
 5837 20e2 66000000 		.4byte	.LLST2
 5838 20e6 2C       		.uleb128 0x2c
 5839 20e7 75200000 		.4byte	0x2075
 5840 20eb 79000000 		.4byte	.LLST3
 5841 20ef 00       		.byte	0
 5842 20f0 2B       		.uleb128 0x2b
 5843 20f1 48200000 		.4byte	0x2048
 5844 20f5 10000000 		.4byte	.LBB14
 5845 20f9 04000000 		.4byte	.LBE14-.LBB14
 5846 20fd 01       		.byte	0x1
 5847 20fe 72       		.byte	0x72
 5848 20ff 16210000 		.4byte	0x2116
 5849 2103 2C       		.uleb128 0x2c
 5850 2104 5D200000 		.4byte	0x205d
 5851 2108 8F000000 		.4byte	.LLST4
 5852 210c 2C       		.uleb128 0x2c
 5853 210d 54200000 		.4byte	0x2054
 5854 2111 A3000000 		.4byte	.LLST5
 5855 2115 00       		.byte	0
ARM GAS  C:\Users\haske\AppData\Local\Temp\ccU9uRZG.s 			page 119


 5856 2116 2B       		.uleb128 0x2b
 5857 2117 27200000 		.4byte	0x2027
 5858 211b 14000000 		.4byte	.LBB16
 5859 211f 04000000 		.4byte	.LBE16-.LBB16
 5860 2123 01       		.byte	0x1
 5861 2124 73       		.byte	0x73
 5862 2125 3C210000 		.4byte	0x213c
 5863 2129 2C       		.uleb128 0x2c
 5864 212a 3C200000 		.4byte	0x203c
 5865 212e B9000000 		.4byte	.LLST6
 5866 2132 2C       		.uleb128 0x2c
 5867 2133 33200000 		.4byte	0x2033
 5868 2137 CD000000 		.4byte	.LLST7
 5869 213b 00       		.byte	0
 5870 213c 2B       		.uleb128 0x2b
 5871 213d 06200000 		.4byte	0x2006
 5872 2141 18000000 		.4byte	.LBB18
 5873 2145 04000000 		.4byte	.LBE18-.LBB18
 5874 2149 01       		.byte	0x1
 5875 214a 74       		.byte	0x74
 5876 214b 62210000 		.4byte	0x2162
 5877 214f 2C       		.uleb128 0x2c
 5878 2150 1B200000 		.4byte	0x201b
 5879 2154 E3000000 		.4byte	.LLST8
 5880 2158 2C       		.uleb128 0x2c
 5881 2159 12200000 		.4byte	0x2012
 5882 215d 04010000 		.4byte	.LLST9
 5883 2161 00       		.byte	0
 5884 2162 2B       		.uleb128 0x2b
 5885 2163 DF1F0000 		.4byte	0x1fdf
 5886 2167 1C000000 		.4byte	.LBB20
 5887 216b 04000000 		.4byte	.LBE20-.LBB20
 5888 216f 01       		.byte	0x1
 5889 2170 75       		.byte	0x75
 5890 2171 88210000 		.4byte	0x2188
 5891 2175 2C       		.uleb128 0x2c
 5892 2176 F41F0000 		.4byte	0x1ff4
 5893 217a 1A010000 		.4byte	.LLST10
 5894 217e 2C       		.uleb128 0x2c
 5895 217f EB1F0000 		.4byte	0x1feb
 5896 2183 32010000 		.4byte	.LLST11
 5897 2187 00       		.byte	0
 5898 2188 2D       		.uleb128 0x2d
 5899 2189 0E000000 		.4byte	.LVL2
 5900 218d 362E0000 		.4byte	0x2e36
 5901 2191 9D210000 		.4byte	0x219d
 5902 2195 2E       		.uleb128 0x2e
 5903 2196 01       		.uleb128 0x1
 5904 2197 50       		.byte	0x50
 5905 2198 03       		.uleb128 0x3
 5906 2199 91       		.byte	0x91
 5907 219a AC7F     		.sleb128 -84
 5908 219c 00       		.byte	0
 5909 219d 2F       		.uleb128 0x2f
 5910 219e 26000000 		.4byte	.LVL9
 5911 21a2 412E0000 		.4byte	0x2e41
 5912 21a6 2E       		.uleb128 0x2e
ARM GAS  C:\Users\haske\AppData\Local\Temp\ccU9uRZG.s 			page 120


 5913 21a7 01       		.uleb128 0x1
 5914 21a8 50       		.byte	0x50
 5915 21a9 03       		.uleb128 0x3
 5916 21aa 91       		.byte	0x91
 5917 21ab AC7F     		.sleb128 -84
 5918 21ad 00       		.byte	0
 5919 21ae 00       		.byte	0
 5920 21af 06       		.uleb128 0x6
 5921 21b0 04       		.byte	0x4
 5922 21b1 D41F0000 		.4byte	0x1fd4
 5923 21b5 27       		.uleb128 0x27
 5924 21b6 130D0000 		.4byte	.LASF562
 5925 21ba 01       		.byte	0x1
 5926 21bb 7E       		.byte	0x7e
 5927 21bc 00000000 		.4byte	.LFB163
 5928 21c0 10000000 		.4byte	.LFE163-.LFB163
 5929 21c4 01       		.uleb128 0x1
 5930 21c5 9C       		.byte	0x9c
 5931 21c6 F4210000 		.4byte	0x21f4
 5932 21ca 28       		.uleb128 0x28
 5933 21cb 6F626A00 		.ascii	"obj\000"
 5934 21cf 01       		.byte	0x1
 5935 21d0 7E       		.byte	0x7e
 5936 21d1 AF210000 		.4byte	0x21af
 5937 21d5 48010000 		.4byte	.LLST12
 5938 21d9 2F       		.uleb128 0x2f
 5939 21da 0A000000 		.4byte	.LVL14
 5940 21de 4D2E0000 		.4byte	0x2e4d
 5941 21e2 2E       		.uleb128 0x2e
 5942 21e3 01       		.uleb128 0x1
 5943 21e4 50       		.byte	0x50
 5944 21e5 05       		.uleb128 0x5
 5945 21e6 03       		.byte	0x3
 5946 21e7 00000000 		.4byte	lv_obj_del_async_cb
 5947 21eb 2E       		.uleb128 0x2e
 5948 21ec 01       		.uleb128 0x1
 5949 21ed 51       		.byte	0x51
 5950 21ee 03       		.uleb128 0x3
 5951 21ef F3       		.byte	0xf3
 5952 21f0 01       		.uleb128 0x1
 5953 21f1 50       		.byte	0x50
 5954 21f2 00       		.byte	0
 5955 21f3 00       		.byte	0
 5956 21f4 30       		.uleb128 0x30
 5957 21f5 24160000 		.4byte	.LASF563
 5958 21f9 01       		.byte	0x1
 5959 21fa 2301     		.2byte	0x123
 5960 21fc AF210000 		.4byte	0x21af
 5961 2200 00000000 		.4byte	.LFB169
 5962 2204 0C000000 		.4byte	.LFE169-.LFB169
 5963 2208 01       		.uleb128 0x1
 5964 2209 9C       		.byte	0x9c
 5965 220a 1F220000 		.4byte	0x221f
 5966 220e 31       		.uleb128 0x31
 5967 220f 6F626A00 		.ascii	"obj\000"
 5968 2213 01       		.byte	0x1
 5969 2214 2301     		.2byte	0x123
ARM GAS  C:\Users\haske\AppData\Local\Temp\ccU9uRZG.s 			page 121


 5970 2216 1F220000 		.4byte	0x221f
 5971 221a 74010000 		.4byte	.LLST13
 5972 221e 00       		.byte	0
 5973 221f 06       		.uleb128 0x6
 5974 2220 04       		.byte	0x4
 5975 2221 25220000 		.4byte	0x2225
 5976 2225 0E       		.uleb128 0xe
 5977 2226 D41F0000 		.4byte	0x1fd4
 5978 222a 32       		.uleb128 0x32
 5979 222b E7050000 		.4byte	.LASF564
 5980 222f 01       		.byte	0x1
 5981 2230 FF       		.byte	0xff
 5982 2231 AF210000 		.4byte	0x21af
 5983 2235 00000000 		.4byte	.LFB167
 5984 2239 16000000 		.4byte	.LFE167-.LFB167
 5985 223d 01       		.uleb128 0x1
 5986 223e 9C       		.byte	0x9c
 5987 223f 83220000 		.4byte	0x2283
 5988 2243 28       		.uleb128 0x28
 5989 2244 6F626A00 		.ascii	"obj\000"
 5990 2248 01       		.byte	0x1
 5991 2249 FF       		.byte	0xff
 5992 224a 1F220000 		.4byte	0x221f
 5993 224e AE010000 		.4byte	.LLST14
 5994 2252 33       		.uleb128 0x33
 5995 2253 70617200 		.ascii	"par\000"
 5996 2257 01       		.byte	0x1
 5997 2258 0301     		.2byte	0x103
 5998 225a 1F220000 		.4byte	0x221f
 5999 225e CF010000 		.4byte	.LLST15
 6000 2262 34       		.uleb128 0x34
 6001 2263 070E0000 		.4byte	.LASF565
 6002 2267 01       		.byte	0x1
 6003 2268 0401     		.2byte	0x104
 6004 226a 1F220000 		.4byte	0x221f
 6005 226e F8010000 		.4byte	.LLST16
 6006 2272 2F       		.uleb128 0x2f
 6007 2273 0E000000 		.4byte	.LVL23
 6008 2277 F4210000 		.4byte	0x21f4
 6009 227b 2E       		.uleb128 0x2e
 6010 227c 01       		.uleb128 0x1
 6011 227d 50       		.byte	0x50
 6012 227e 02       		.uleb128 0x2
 6013 227f 74       		.byte	0x74
 6014 2280 00       		.sleb128 0
 6015 2281 00       		.byte	0
 6016 2282 00       		.byte	0
 6017 2283 30       		.uleb128 0x30
 6018 2284 D11C0000 		.4byte	.LASF566
 6019 2288 01       		.byte	0x1
 6020 2289 0E01     		.2byte	0x10e
 6021 228b 0A230000 		.4byte	0x230a
 6022 228f 00000000 		.4byte	.LFB168
 6023 2293 40000000 		.4byte	.LFE168-.LFB168
 6024 2297 01       		.uleb128 0x1
 6025 2298 9C       		.byte	0x9c
 6026 2299 0A230000 		.4byte	0x230a
ARM GAS  C:\Users\haske\AppData\Local\Temp\ccU9uRZG.s 			page 122


 6027 229d 31       		.uleb128 0x31
 6028 229e 6F626A00 		.ascii	"obj\000"
 6029 22a2 01       		.byte	0x1
 6030 22a3 0E01     		.2byte	0x10e
 6031 22a5 1F220000 		.4byte	0x221f
 6032 22a9 2C020000 		.4byte	.LLST17
 6033 22ad 33       		.uleb128 0x33
 6034 22ae 73637200 		.ascii	"scr\000"
 6035 22b2 01       		.byte	0x1
 6036 22b3 1201     		.2byte	0x112
 6037 22b5 1F220000 		.4byte	0x221f
 6038 22b9 58020000 		.4byte	.LLST18
 6039 22bd 33       		.uleb128 0x33
 6040 22be 6400     		.ascii	"d\000"
 6041 22c0 01       		.byte	0x1
 6042 22c1 1701     		.2byte	0x117
 6043 22c3 0A230000 		.4byte	0x230a
 6044 22c7 6B020000 		.4byte	.LLST19
 6045 22cb 35       		.uleb128 0x35
 6046 22cc 00000000 		.4byte	.Ldebug_ranges0+0
 6047 22d0 E3220000 		.4byte	0x22e3
 6048 22d4 33       		.uleb128 0x33
 6049 22d5 6900     		.ascii	"i\000"
 6050 22d7 01       		.byte	0x1
 6051 22d8 1901     		.2byte	0x119
 6052 22da 0D010000 		.4byte	0x10d
 6053 22de 94020000 		.4byte	.LLST20
 6054 22e2 00       		.byte	0
 6055 22e3 2D       		.uleb128 0x2d
 6056 22e4 0E000000 		.4byte	.LVL27
 6057 22e8 2A220000 		.4byte	0x222a
 6058 22ec F7220000 		.4byte	0x22f7
 6059 22f0 2E       		.uleb128 0x2e
 6060 22f1 01       		.uleb128 0x1
 6061 22f2 50       		.byte	0x50
 6062 22f3 02       		.uleb128 0x2
 6063 22f4 74       		.byte	0x74
 6064 22f5 00       		.sleb128 0
 6065 22f6 00       		.byte	0
 6066 22f7 36       		.uleb128 0x36
 6067 22f8 16000000 		.4byte	.LVL29
 6068 22fc 582E0000 		.4byte	0x2e58
 6069 2300 36       		.uleb128 0x36
 6070 2301 36000000 		.4byte	.LVL35
 6071 2305 632E0000 		.4byte	0x2e63
 6072 2309 00       		.byte	0
 6073 230a 06       		.uleb128 0x6
 6074 230b 04       		.byte	0x4
 6075 230c 2D170000 		.4byte	0x172d
 6076 2310 30       		.uleb128 0x30
 6077 2311 851D0000 		.4byte	.LASF567
 6078 2315 01       		.byte	0x1
 6079 2316 2B01     		.2byte	0x12b
 6080 2318 AF210000 		.4byte	0x21af
 6081 231c 00000000 		.4byte	.LFB170
 6082 2320 32000000 		.4byte	.LFE170-.LFB170
 6083 2324 01       		.uleb128 0x1
ARM GAS  C:\Users\haske\AppData\Local\Temp\ccU9uRZG.s 			page 123


 6084 2325 9C       		.byte	0x9c
 6085 2326 5A230000 		.4byte	0x235a
 6086 232a 31       		.uleb128 0x31
 6087 232b 6F626A00 		.ascii	"obj\000"
 6088 232f 01       		.byte	0x1
 6089 2330 2B01     		.2byte	0x12b
 6090 2332 1F220000 		.4byte	0x221f
 6091 2336 B2020000 		.4byte	.LLST21
 6092 233a 31       		.uleb128 0x31
 6093 233b 696400   		.ascii	"id\000"
 6094 233e 01       		.byte	0x1
 6095 233f 2B01     		.2byte	0x12b
 6096 2341 02010000 		.4byte	0x102
 6097 2345 05030000 		.4byte	.LLST22
 6098 2349 33       		.uleb128 0x33
 6099 234a 69647500 		.ascii	"idu\000"
 6100 234e 01       		.byte	0x1
 6101 234f 3101     		.2byte	0x131
 6102 2351 0D010000 		.4byte	0x10d
 6103 2355 47030000 		.4byte	.LLST23
 6104 2359 00       		.byte	0
 6105 235a 30       		.uleb128 0x30
 6106 235b F21A0000 		.4byte	.LASF568
 6107 235f 01       		.byte	0x1
 6108 2360 3F01     		.2byte	0x13f
 6109 2362 0D010000 		.4byte	0x10d
 6110 2366 00000000 		.4byte	.LFB171
 6111 236a 0E000000 		.4byte	.LFE171-.LFB171
 6112 236e 01       		.uleb128 0x1
 6113 236f 9C       		.byte	0x9c
 6114 2370 85230000 		.4byte	0x2385
 6115 2374 31       		.uleb128 0x31
 6116 2375 6F626A00 		.ascii	"obj\000"
 6117 2379 01       		.byte	0x1
 6118 237a 3F01     		.2byte	0x13f
 6119 237c 1F220000 		.4byte	0x221f
 6120 2380 70030000 		.4byte	.LLST24
 6121 2384 00       		.byte	0
 6122 2385 37       		.uleb128 0x37
 6123 2386 9C200000 		.4byte	.LASF618
 6124 238a 01       		.byte	0x1
 6125 238b A801     		.2byte	0x1a8
 6126 238d 7F1B0000 		.4byte	0x1b7f
 6127 2391 00000000 		.4byte	.LFB176
 6128 2395 80000000 		.4byte	.LFE176-.LFB176
 6129 2399 01       		.uleb128 0x1
 6130 239a 9C       		.byte	0x9c
 6131 239b B6240000 		.4byte	0x24b6
 6132 239f 31       		.uleb128 0x31
 6133 23a0 6F626A00 		.ascii	"obj\000"
 6134 23a4 01       		.byte	0x1
 6135 23a5 A801     		.2byte	0x1a8
 6136 23a7 AF210000 		.4byte	0x21af
 6137 23ab AA030000 		.4byte	.LLST25
 6138 23af 31       		.uleb128 0x31
 6139 23b0 636200   		.ascii	"cb\000"
 6140 23b3 01       		.byte	0x1
ARM GAS  C:\Users\haske\AppData\Local\Temp\ccU9uRZG.s 			page 124


 6141 23b4 A801     		.2byte	0x1a8
 6142 23b6 8A1B0000 		.4byte	0x1b8a
 6143 23ba FA030000 		.4byte	.LLST26
 6144 23be 38       		.uleb128 0x38
 6145 23bf 0F210000 		.4byte	.LASF45
 6146 23c3 01       		.byte	0x1
 6147 23c4 A801     		.2byte	0x1a8
 6148 23c6 C6000000 		.4byte	0xc6
 6149 23ca 3C040000 		.4byte	.LLST27
 6150 23ce 33       		.uleb128 0x33
 6151 23cf 72657300 		.ascii	"res\000"
 6152 23d3 01       		.byte	0x1
 6153 23d4 AA01     		.2byte	0x1aa
 6154 23d6 7F1B0000 		.4byte	0x1b7f
 6155 23da 7E040000 		.4byte	.LLST28
 6156 23de 39       		.uleb128 0x39
 6157 23df 0C000000 		.4byte	.LBB24
 6158 23e3 34000000 		.4byte	.LBE24-.LBB24
 6159 23e7 4D240000 		.4byte	0x244d
 6160 23eb 34       		.uleb128 0x34
 6161 23ec 77140000 		.4byte	.LASF400
 6162 23f0 01       		.byte	0x1
 6163 23f1 AD01     		.2byte	0x1ad
 6164 23f3 0A230000 		.4byte	0x230a
 6165 23f7 BE040000 		.4byte	.LLST29
 6166 23fb 35       		.uleb128 0x35
 6167 23fc 18000000 		.4byte	.Ldebug_ranges0+0x18
 6168 2400 3D240000 		.4byte	0x243d
 6169 2404 33       		.uleb128 0x33
 6170 2405 6900     		.ascii	"i\000"
 6171 2407 01       		.byte	0x1
 6172 2408 AF01     		.2byte	0x1af
 6173 240a 0D010000 		.4byte	0x10d
 6174 240e 08050000 		.4byte	.LLST30
 6175 2412 2D       		.uleb128 0x2d
 6176 2413 24000000 		.4byte	.LVL59
 6177 2417 85230000 		.4byte	0x2385
 6178 241b 2C240000 		.4byte	0x242c
 6179 241f 2E       		.uleb128 0x2e
 6180 2420 01       		.uleb128 0x1
 6181 2421 51       		.byte	0x51
 6182 2422 02       		.uleb128 0x2
 6183 2423 76       		.byte	0x76
 6184 2424 00       		.sleb128 0
 6185 2425 2E       		.uleb128 0x2e
 6186 2426 01       		.uleb128 0x1
 6187 2427 52       		.byte	0x52
 6188 2428 02       		.uleb128 0x2
 6189 2429 77       		.byte	0x77
 6190 242a 00       		.sleb128 0
 6191 242b 00       		.byte	0
 6192 242c 2F       		.uleb128 0x2f
 6193 242d 36000000 		.4byte	.LVL63
 6194 2431 6E2E0000 		.4byte	0x2e6e
 6195 2435 2E       		.uleb128 0x2e
 6196 2436 01       		.uleb128 0x1
 6197 2437 50       		.byte	0x50
ARM GAS  C:\Users\haske\AppData\Local\Temp\ccU9uRZG.s 			page 125


 6198 2438 02       		.uleb128 0x2
 6199 2439 75       		.byte	0x75
 6200 243a 00       		.sleb128 0
 6201 243b 00       		.byte	0
 6202 243c 00       		.byte	0
 6203 243d 2F       		.uleb128 0x2f
 6204 243e 12000000 		.4byte	.LVL56
 6205 2442 6E2E0000 		.4byte	0x2e6e
 6206 2446 2E       		.uleb128 0x2e
 6207 2447 01       		.uleb128 0x1
 6208 2448 50       		.byte	0x50
 6209 2449 01       		.uleb128 0x1
 6210 244a 30       		.byte	0x30
 6211 244b 00       		.byte	0
 6212 244c 00       		.byte	0
 6213 244d 35       		.uleb128 0x35
 6214 244e 30000000 		.4byte	.Ldebug_ranges0+0x30
 6215 2452 A9240000 		.4byte	0x24a9
 6216 2456 33       		.uleb128 0x33
 6217 2457 6900     		.ascii	"i\000"
 6218 2459 01       		.byte	0x1
 6219 245a BD01     		.2byte	0x1bd
 6220 245c 0D010000 		.4byte	0x10d
 6221 2460 26050000 		.4byte	.LLST31
 6222 2464 2D       		.uleb128 0x2d
 6223 2465 58000000 		.4byte	.LVL71
 6224 2469 10230000 		.4byte	0x2310
 6225 246d 7E240000 		.4byte	0x247e
 6226 2471 2E       		.uleb128 0x2e
 6227 2472 01       		.uleb128 0x1
 6228 2473 50       		.byte	0x50
 6229 2474 02       		.uleb128 0x2
 6230 2475 75       		.byte	0x75
 6231 2476 00       		.sleb128 0
 6232 2477 2E       		.uleb128 0x2e
 6233 2478 01       		.uleb128 0x1
 6234 2479 51       		.byte	0x51
 6235 247a 02       		.uleb128 0x2
 6236 247b 74       		.byte	0x74
 6237 247c 00       		.sleb128 0
 6238 247d 00       		.byte	0
 6239 247e 2D       		.uleb128 0x2d
 6240 247f 60000000 		.4byte	.LVL72
 6241 2483 85230000 		.4byte	0x2385
 6242 2487 98240000 		.4byte	0x2498
 6243 248b 2E       		.uleb128 0x2e
 6244 248c 01       		.uleb128 0x1
 6245 248d 51       		.byte	0x51
 6246 248e 02       		.uleb128 0x2
 6247 248f 76       		.byte	0x76
 6248 2490 00       		.sleb128 0
 6249 2491 2E       		.uleb128 0x2e
 6250 2492 01       		.uleb128 0x1
 6251 2493 52       		.byte	0x52
 6252 2494 02       		.uleb128 0x2
 6253 2495 77       		.byte	0x77
 6254 2496 00       		.sleb128 0
ARM GAS  C:\Users\haske\AppData\Local\Temp\ccU9uRZG.s 			page 126


 6255 2497 00       		.byte	0
 6256 2498 2F       		.uleb128 0x2f
 6257 2499 70000000 		.4byte	.LVL76
 6258 249d 5A230000 		.4byte	0x235a
 6259 24a1 2E       		.uleb128 0x2e
 6260 24a2 01       		.uleb128 0x1
 6261 24a3 50       		.byte	0x50
 6262 24a4 02       		.uleb128 0x2
 6263 24a5 75       		.byte	0x75
 6264 24a6 00       		.sleb128 0
 6265 24a7 00       		.byte	0
 6266 24a8 00       		.byte	0
 6267 24a9 3A       		.uleb128 0x3a
 6268 24aa 44000000 		.4byte	.LVL68
 6269 24ae 2E       		.uleb128 0x2e
 6270 24af 01       		.uleb128 0x1
 6271 24b0 51       		.byte	0x51
 6272 24b1 02       		.uleb128 0x2
 6273 24b2 77       		.byte	0x77
 6274 24b3 00       		.sleb128 0
 6275 24b4 00       		.byte	0
 6276 24b5 00       		.byte	0
 6277 24b6 30       		.uleb128 0x30
 6278 24b7 2F0B0000 		.4byte	.LASF569
 6279 24bb 01       		.byte	0x1
 6280 24bc 4601     		.2byte	0x146
 6281 24be 0D010000 		.4byte	0x10d
 6282 24c2 00000000 		.4byte	.LFB172
 6283 24c6 36000000 		.4byte	.LFE172-.LFB172
 6284 24ca 01       		.uleb128 0x1
 6285 24cb 9C       		.byte	0x9c
 6286 24cc 3D250000 		.4byte	0x253d
 6287 24d0 31       		.uleb128 0x31
 6288 24d1 6F626A00 		.ascii	"obj\000"
 6289 24d5 01       		.byte	0x1
 6290 24d6 4601     		.2byte	0x146
 6291 24d8 1F220000 		.4byte	0x221f
 6292 24dc 4F050000 		.4byte	.LLST32
 6293 24e0 34       		.uleb128 0x34
 6294 24e1 C50D0000 		.4byte	.LASF207
 6295 24e5 01       		.byte	0x1
 6296 24e6 4A01     		.2byte	0x14a
 6297 24e8 AF210000 		.4byte	0x21af
 6298 24ec 7B050000 		.4byte	.LLST33
 6299 24f0 33       		.uleb128 0x33
 6300 24f1 6900     		.ascii	"i\000"
 6301 24f3 01       		.byte	0x1
 6302 24f4 4D01     		.2byte	0x14d
 6303 24f6 0D010000 		.4byte	0x10d
 6304 24fa AF050000 		.4byte	.LLST34
 6305 24fe 2D       		.uleb128 0x2d
 6306 24ff 08000000 		.4byte	.LVL84
 6307 2503 F4210000 		.4byte	0x21f4
 6308 2507 12250000 		.4byte	0x2512
 6309 250b 2E       		.uleb128 0x2e
 6310 250c 01       		.uleb128 0x1
 6311 250d 50       		.byte	0x50
ARM GAS  C:\Users\haske\AppData\Local\Temp\ccU9uRZG.s 			page 127


 6312 250e 02       		.uleb128 0x2
 6313 250f 76       		.byte	0x76
 6314 2510 00       		.sleb128 0
 6315 2511 00       		.byte	0
 6316 2512 2D       		.uleb128 0x2d
 6317 2513 18000000 		.4byte	.LVL87
 6318 2517 10230000 		.4byte	0x2310
 6319 251b 2C250000 		.4byte	0x252c
 6320 251f 2E       		.uleb128 0x2e
 6321 2520 01       		.uleb128 0x1
 6322 2521 50       		.byte	0x50
 6323 2522 02       		.uleb128 0x2
 6324 2523 75       		.byte	0x75
 6325 2524 00       		.sleb128 0
 6326 2525 2E       		.uleb128 0x2e
 6327 2526 01       		.uleb128 0x1
 6328 2527 51       		.byte	0x51
 6329 2528 02       		.uleb128 0x2
 6330 2529 74       		.byte	0x74
 6331 252a 00       		.sleb128 0
 6332 252b 00       		.byte	0
 6333 252c 2F       		.uleb128 0x2f
 6334 252d 24000000 		.4byte	.LVL89
 6335 2531 5A230000 		.4byte	0x235a
 6336 2535 2E       		.uleb128 0x2e
 6337 2536 01       		.uleb128 0x1
 6338 2537 50       		.byte	0x50
 6339 2538 02       		.uleb128 0x2
 6340 2539 75       		.byte	0x75
 6341 253a 00       		.sleb128 0
 6342 253b 00       		.byte	0
 6343 253c 00       		.byte	0
 6344 253d 3B       		.uleb128 0x3b
 6345 253e 2D130000 		.4byte	.LASF575
 6346 2542 01       		.byte	0x1
 6347 2543 6501     		.2byte	0x165
 6348 2545 00000000 		.4byte	.LFB175
 6349 2549 04010000 		.4byte	.LFE175-.LFB175
 6350 254d 01       		.uleb128 0x1
 6351 254e 9C       		.byte	0x9c
 6352 254f 36270000 		.4byte	0x2736
 6353 2553 31       		.uleb128 0x31
 6354 2554 6F626A00 		.ascii	"obj\000"
 6355 2558 01       		.byte	0x1
 6356 2559 6501     		.2byte	0x165
 6357 255b AF210000 		.4byte	0x21af
 6358 255f CD050000 		.4byte	.LLST35
 6359 2563 33       		.uleb128 0x33
 6360 2564 72657300 		.ascii	"res\000"
 6361 2568 01       		.byte	0x1
 6362 2569 6801     		.2byte	0x168
 6363 256b 28030000 		.4byte	0x328
 6364 256f F9050000 		.4byte	.LLST36
 6365 2573 34       		.uleb128 0x34
 6366 2574 B6000000 		.4byte	.LASF570
 6367 2578 01       		.byte	0x1
 6368 2579 6C01     		.2byte	0x16c
ARM GAS  C:\Users\haske\AppData\Local\Temp\ccU9uRZG.s 			page 128


 6369 257b AF210000 		.4byte	0x21af
 6370 257f 0C060000 		.4byte	.LLST37
 6371 2583 34       		.uleb128 0x34
 6372 2584 46110000 		.4byte	.LASF440
 6373 2588 01       		.byte	0x1
 6374 2589 7201     		.2byte	0x172
 6375 258b A11F0000 		.4byte	0x1fa1
 6376 258f 2A060000 		.4byte	.LLST38
 6377 2593 34       		.uleb128 0x34
 6378 2594 B91D0000 		.4byte	.LASF571
 6379 2598 01       		.byte	0x1
 6380 2599 7501     		.2byte	0x175
 6381 259b 36270000 		.4byte	0x2736
 6382 259f 48060000 		.4byte	.LLST39
 6383 25a3 39       		.uleb128 0x39
 6384 25a4 88000000 		.4byte	.LBB31
 6385 25a8 40000000 		.4byte	.LBE31-.LBB31
 6386 25ac F7250000 		.4byte	0x25f7
 6387 25b0 34       		.uleb128 0x34
 6388 25b1 77140000 		.4byte	.LASF400
 6389 25b5 01       		.byte	0x1
 6390 25b6 8901     		.2byte	0x189
 6391 25b8 0A230000 		.4byte	0x230a
 6392 25bc 87060000 		.4byte	.LLST40
 6393 25c0 33       		.uleb128 0x33
 6394 25c1 6900     		.ascii	"i\000"
 6395 25c3 01       		.byte	0x1
 6396 25c4 8A01     		.2byte	0x18a
 6397 25c6 0D010000 		.4byte	0x10d
 6398 25ca A5060000 		.4byte	.LLST41
 6399 25ce 3C       		.uleb128 0x3c
 6400 25cf 696400   		.ascii	"id\000"
 6401 25d2 01       		.byte	0x1
 6402 25d3 9001     		.2byte	0x190
 6403 25d5 0D010000 		.4byte	0x10d
 6404 25d9 2D       		.uleb128 0x2d
 6405 25da 8E000000 		.4byte	.LVL116
 6406 25de 83220000 		.4byte	0x2283
 6407 25e2 ED250000 		.4byte	0x25ed
 6408 25e6 2E       		.uleb128 0x2e
 6409 25e7 01       		.uleb128 0x1
 6410 25e8 50       		.byte	0x50
 6411 25e9 02       		.uleb128 0x2
 6412 25ea 75       		.byte	0x75
 6413 25eb 00       		.sleb128 0
 6414 25ec 00       		.byte	0
 6415 25ed 36       		.uleb128 0x36
 6416 25ee C6000000 		.4byte	.LVL123
 6417 25f2 7A2E0000 		.4byte	0x2e7a
 6418 25f6 00       		.byte	0
 6419 25f7 39       		.uleb128 0x39
 6420 25f8 CA000000 		.4byte	.LBB32
 6421 25fc 32000000 		.4byte	.LBE32-.LBB32
 6422 2600 3F260000 		.4byte	0x263f
 6423 2604 33       		.uleb128 0x33
 6424 2605 696400   		.ascii	"id\000"
 6425 2608 01       		.byte	0x1
ARM GAS  C:\Users\haske\AppData\Local\Temp\ccU9uRZG.s 			page 129


 6426 2609 9901     		.2byte	0x199
 6427 260b 0D010000 		.4byte	0x10d
 6428 260f DC060000 		.4byte	.LLST42
 6429 2613 33       		.uleb128 0x33
 6430 2614 6900     		.ascii	"i\000"
 6431 2616 01       		.byte	0x1
 6432 2617 9A01     		.2byte	0x19a
 6433 2619 0D010000 		.4byte	0x10d
 6434 261d EF060000 		.4byte	.LLST43
 6435 2621 2D       		.uleb128 0x2d
 6436 2622 D0000000 		.4byte	.LVL125
 6437 2626 B6240000 		.4byte	0x24b6
 6438 262a 35260000 		.4byte	0x2635
 6439 262e 2E       		.uleb128 0x2e
 6440 262f 01       		.uleb128 0x1
 6441 2630 50       		.byte	0x50
 6442 2631 02       		.uleb128 0x2
 6443 2632 75       		.byte	0x75
 6444 2633 00       		.sleb128 0
 6445 2634 00       		.byte	0
 6446 2635 36       		.uleb128 0x36
 6447 2636 FA000000 		.4byte	.LVL131
 6448 263a 7A2E0000 		.4byte	0x2e7a
 6449 263e 00       		.byte	0
 6450 263f 2D       		.uleb128 0x2d
 6451 2640 0C000000 		.4byte	.LVL97
 6452 2644 852E0000 		.4byte	0x2e85
 6453 2648 5E260000 		.4byte	0x265e
 6454 264c 2E       		.uleb128 0x2e
 6455 264d 01       		.uleb128 0x1
 6456 264e 50       		.byte	0x50
 6457 264f 02       		.uleb128 0x2
 6458 2650 75       		.byte	0x75
 6459 2651 00       		.sleb128 0
 6460 2652 2E       		.uleb128 0x2e
 6461 2653 01       		.uleb128 0x1
 6462 2654 51       		.byte	0x51
 6463 2655 02       		.uleb128 0x2
 6464 2656 08       		.byte	0x8
 6465 2657 21       		.byte	0x21
 6466 2658 2E       		.uleb128 0x2e
 6467 2659 01       		.uleb128 0x1
 6468 265a 52       		.byte	0x52
 6469 265b 01       		.uleb128 0x1
 6470 265c 30       		.byte	0x30
 6471 265d 00       		.byte	0
 6472 265e 2D       		.uleb128 0x2d
 6473 265f 18000000 		.4byte	.LVL99
 6474 2663 10230000 		.4byte	0x2310
 6475 2667 77260000 		.4byte	0x2677
 6476 266b 2E       		.uleb128 0x2e
 6477 266c 01       		.uleb128 0x1
 6478 266d 50       		.byte	0x50
 6479 266e 02       		.uleb128 0x2
 6480 266f 75       		.byte	0x75
 6481 2670 00       		.sleb128 0
 6482 2671 2E       		.uleb128 0x2e
ARM GAS  C:\Users\haske\AppData\Local\Temp\ccU9uRZG.s 			page 130


 6483 2672 01       		.uleb128 0x1
 6484 2673 51       		.byte	0x51
 6485 2674 01       		.uleb128 0x1
 6486 2675 30       		.byte	0x30
 6487 2676 00       		.byte	0
 6488 2677 36       		.uleb128 0x36
 6489 2678 1E000000 		.4byte	.LVL100
 6490 267c 3D250000 		.4byte	0x253d
 6491 2680 2D       		.uleb128 0x2d
 6492 2681 26000000 		.4byte	.LVL101
 6493 2685 10230000 		.4byte	0x2310
 6494 2689 99260000 		.4byte	0x2699
 6495 268d 2E       		.uleb128 0x2e
 6496 268e 01       		.uleb128 0x1
 6497 268f 50       		.byte	0x50
 6498 2690 02       		.uleb128 0x2
 6499 2691 75       		.byte	0x75
 6500 2692 00       		.sleb128 0
 6501 2693 2E       		.uleb128 0x2e
 6502 2694 01       		.uleb128 0x1
 6503 2695 51       		.byte	0x51
 6504 2696 01       		.uleb128 0x1
 6505 2697 30       		.byte	0x30
 6506 2698 00       		.byte	0
 6507 2699 2D       		.uleb128 0x2d
 6508 269a 30000000 		.4byte	.LVL103
 6509 269e 902E0000 		.4byte	0x2e90
 6510 26a2 AD260000 		.4byte	0x26ad
 6511 26a6 2E       		.uleb128 0x2e
 6512 26a7 01       		.uleb128 0x1
 6513 26a8 50       		.byte	0x50
 6514 26a9 02       		.uleb128 0x2
 6515 26aa 75       		.byte	0x75
 6516 26ab 00       		.sleb128 0
 6517 26ac 00       		.byte	0
 6518 26ad 2D       		.uleb128 0x2d
 6519 26ae 38000000 		.4byte	.LVL106
 6520 26b2 9C2E0000 		.4byte	0x2e9c
 6521 26b6 C0260000 		.4byte	0x26c0
 6522 26ba 2E       		.uleb128 0x2e
 6523 26bb 01       		.uleb128 0x1
 6524 26bc 50       		.byte	0x50
 6525 26bd 01       		.uleb128 0x1
 6526 26be 30       		.byte	0x30
 6527 26bf 00       		.byte	0
 6528 26c0 2D       		.uleb128 0x2d
 6529 26c1 50000000 		.4byte	.LVL109
 6530 26c5 A72E0000 		.4byte	0x2ea7
 6531 26c9 DA260000 		.4byte	0x26da
 6532 26cd 2E       		.uleb128 0x2e
 6533 26ce 01       		.uleb128 0x1
 6534 26cf 50       		.byte	0x50
 6535 26d0 02       		.uleb128 0x2
 6536 26d1 74       		.byte	0x74
 6537 26d2 00       		.sleb128 0
 6538 26d3 2E       		.uleb128 0x2e
 6539 26d4 01       		.uleb128 0x1
ARM GAS  C:\Users\haske\AppData\Local\Temp\ccU9uRZG.s 			page 131


 6540 26d5 51       		.byte	0x51
 6541 26d6 02       		.uleb128 0x2
 6542 26d7 75       		.byte	0x75
 6543 26d8 00       		.sleb128 0
 6544 26d9 00       		.byte	0
 6545 26da 36       		.uleb128 0x36
 6546 26db 64000000 		.4byte	.LVL110
 6547 26df B22E0000 		.4byte	0x2eb2
 6548 26e3 2D       		.uleb128 0x2d
 6549 26e4 70000000 		.4byte	.LVL111
 6550 26e8 A72E0000 		.4byte	0x2ea7
 6551 26ec FD260000 		.4byte	0x26fd
 6552 26f0 2E       		.uleb128 0x2e
 6553 26f1 01       		.uleb128 0x1
 6554 26f2 50       		.byte	0x50
 6555 26f3 02       		.uleb128 0x2
 6556 26f4 74       		.byte	0x74
 6557 26f5 00       		.sleb128 0
 6558 26f6 2E       		.uleb128 0x2e
 6559 26f7 01       		.uleb128 0x1
 6560 26f8 51       		.byte	0x51
 6561 26f9 02       		.uleb128 0x2
 6562 26fa 75       		.byte	0x75
 6563 26fb 00       		.sleb128 0
 6564 26fc 00       		.byte	0
 6565 26fd 2D       		.uleb128 0x2d
 6566 26fe 76000000 		.4byte	.LVL112
 6567 2702 9C2E0000 		.4byte	0x2e9c
 6568 2706 11270000 		.4byte	0x2711
 6569 270a 2E       		.uleb128 0x2e
 6570 270b 01       		.uleb128 0x1
 6571 270c 50       		.byte	0x50
 6572 270d 02       		.uleb128 0x2
 6573 270e 74       		.byte	0x74
 6574 270f 00       		.sleb128 0
 6575 2710 00       		.byte	0
 6576 2711 2D       		.uleb128 0x2d
 6577 2712 82000000 		.4byte	.LVL115
 6578 2716 BD2E0000 		.4byte	0x2ebd
 6579 271a 25270000 		.4byte	0x2725
 6580 271e 2E       		.uleb128 0x2e
 6581 271f 01       		.uleb128 0x1
 6582 2720 50       		.byte	0x50
 6583 2721 02       		.uleb128 0x2
 6584 2722 75       		.byte	0x75
 6585 2723 00       		.sleb128 0
 6586 2724 00       		.byte	0
 6587 2725 2F       		.uleb128 0x2f
 6588 2726 02010000 		.4byte	.LVL132
 6589 272a C82E0000 		.4byte	0x2ec8
 6590 272e 2E       		.uleb128 0x2e
 6591 272f 01       		.uleb128 0x1
 6592 2730 50       		.byte	0x50
 6593 2731 02       		.uleb128 0x2
 6594 2732 75       		.byte	0x75
 6595 2733 00       		.sleb128 0
 6596 2734 00       		.byte	0
ARM GAS  C:\Users\haske\AppData\Local\Temp\ccU9uRZG.s 			page 132


 6597 2735 00       		.byte	0
 6598 2736 06       		.uleb128 0x6
 6599 2737 04       		.byte	0x4
 6600 2738 3F1B0000 		.4byte	0x1b3f
 6601 273c 27       		.uleb128 0x27
 6602 273d A6200000 		.4byte	.LASF572
 6603 2741 01       		.byte	0x1
 6604 2742 2D       		.byte	0x2d
 6605 2743 00000000 		.4byte	.LFB159
 6606 2747 72000000 		.4byte	.LFE159-.LFB159
 6607 274b 01       		.uleb128 0x1
 6608 274c 9C       		.byte	0x9c
 6609 274d 6D280000 		.4byte	0x286d
 6610 2751 28       		.uleb128 0x28
 6611 2752 6F626A00 		.ascii	"obj\000"
 6612 2756 01       		.byte	0x1
 6613 2757 2D       		.byte	0x2d
 6614 2758 AF210000 		.4byte	0x21af
 6615 275c 1A070000 		.4byte	.LLST44
 6616 2760 3D       		.uleb128 0x3d
 6617 2761 70617200 		.ascii	"par\000"
 6618 2765 01       		.byte	0x1
 6619 2766 33       		.byte	0x33
 6620 2767 AF210000 		.4byte	0x21af
 6621 276b 46070000 		.4byte	.LLST45
 6622 276f 3E       		.uleb128 0x3e
 6623 2770 77140000 		.4byte	.LASF400
 6624 2774 01       		.byte	0x1
 6625 2775 38       		.byte	0x38
 6626 2776 0A230000 		.4byte	0x230a
 6627 277a 64070000 		.4byte	.LLST46
 6628 277e 3E       		.uleb128 0x3e
 6629 277f A1190000 		.4byte	.LASF573
 6630 2783 01       		.byte	0x1
 6631 2784 39       		.byte	0x39
 6632 2785 CC020000 		.4byte	0x2cc
 6633 2789 A5070000 		.4byte	.LLST47
 6634 278d 2D       		.uleb128 0x2d
 6635 278e 08000000 		.4byte	.LVL135
 6636 2792 D32E0000 		.4byte	0x2ed3
 6637 2796 A1270000 		.4byte	0x27a1
 6638 279a 2E       		.uleb128 0x2e
 6639 279b 01       		.uleb128 0x1
 6640 279c 50       		.byte	0x50
 6641 279d 02       		.uleb128 0x2
 6642 279e 75       		.byte	0x75
 6643 279f 00       		.sleb128 0
 6644 27a0 00       		.byte	0
 6645 27a1 2D       		.uleb128 0x2d
 6646 27a2 0E000000 		.4byte	.LVL136
 6647 27a6 F4210000 		.4byte	0x21f4
 6648 27aa B5270000 		.4byte	0x27b5
 6649 27ae 2E       		.uleb128 0x2e
 6650 27af 01       		.uleb128 0x1
 6651 27b0 50       		.byte	0x50
 6652 27b1 02       		.uleb128 0x2
 6653 27b2 75       		.byte	0x75
ARM GAS  C:\Users\haske\AppData\Local\Temp\ccU9uRZG.s 			page 133


 6654 27b3 00       		.sleb128 0
 6655 27b4 00       		.byte	0
 6656 27b5 2D       		.uleb128 0x2d
 6657 27b6 16000000 		.4byte	.LVL138
 6658 27ba DF2E0000 		.4byte	0x2edf
 6659 27be C9270000 		.4byte	0x27c9
 6660 27c2 2E       		.uleb128 0x2e
 6661 27c3 01       		.uleb128 0x1
 6662 27c4 50       		.byte	0x50
 6663 27c5 02       		.uleb128 0x2
 6664 27c6 74       		.byte	0x74
 6665 27c7 00       		.sleb128 0
 6666 27c8 00       		.byte	0
 6667 27c9 2D       		.uleb128 0x2d
 6668 27ca 20000000 		.4byte	.LVL139
 6669 27ce 83220000 		.4byte	0x2283
 6670 27d2 DD270000 		.4byte	0x27dd
 6671 27d6 2E       		.uleb128 0x2e
 6672 27d7 01       		.uleb128 0x1
 6673 27d8 50       		.byte	0x50
 6674 27d9 02       		.uleb128 0x2
 6675 27da 75       		.byte	0x75
 6676 27db 00       		.sleb128 0
 6677 27dc 00       		.byte	0
 6678 27dd 2D       		.uleb128 0x2d
 6679 27de 3C000000 		.4byte	.LVL144
 6680 27e2 3D250000 		.4byte	0x253d
 6681 27e6 F1270000 		.4byte	0x27f1
 6682 27ea 2E       		.uleb128 0x2e
 6683 27eb 01       		.uleb128 0x1
 6684 27ec 50       		.byte	0x50
 6685 27ed 02       		.uleb128 0x2
 6686 27ee 75       		.byte	0x75
 6687 27ef 00       		.sleb128 0
 6688 27f0 00       		.byte	0
 6689 27f1 2D       		.uleb128 0x2d
 6690 27f2 46000000 		.4byte	.LVL145
 6691 27f6 EB2E0000 		.4byte	0x2eeb
 6692 27fa 05280000 		.4byte	0x2805
 6693 27fe 2E       		.uleb128 0x2e
 6694 27ff 01       		.uleb128 0x1
 6695 2800 50       		.byte	0x50
 6696 2801 02       		.uleb128 0x2
 6697 2802 74       		.byte	0x74
 6698 2803 00       		.sleb128 0
 6699 2804 00       		.byte	0
 6700 2805 2D       		.uleb128 0x2d
 6701 2806 4E000000 		.4byte	.LVL146
 6702 280a F62E0000 		.4byte	0x2ef6
 6703 280e 1E280000 		.4byte	0x281e
 6704 2812 2E       		.uleb128 0x2e
 6705 2813 01       		.uleb128 0x1
 6706 2814 50       		.byte	0x50
 6707 2815 02       		.uleb128 0x2
 6708 2816 74       		.byte	0x74
 6709 2817 00       		.sleb128 0
 6710 2818 2E       		.uleb128 0x2e
ARM GAS  C:\Users\haske\AppData\Local\Temp\ccU9uRZG.s 			page 134


 6711 2819 01       		.uleb128 0x1
 6712 281a 51       		.byte	0x51
 6713 281b 01       		.uleb128 0x1
 6714 281c 30       		.byte	0x30
 6715 281d 00       		.byte	0
 6716 281e 2D       		.uleb128 0x2d
 6717 281f 54000000 		.4byte	.LVL147
 6718 2823 DF2E0000 		.4byte	0x2edf
 6719 2827 32280000 		.4byte	0x2832
 6720 282b 2E       		.uleb128 0x2e
 6721 282c 01       		.uleb128 0x1
 6722 282d 50       		.byte	0x50
 6723 282e 02       		.uleb128 0x2
 6724 282f 74       		.byte	0x74
 6725 2830 00       		.sleb128 0
 6726 2831 00       		.byte	0
 6727 2832 2D       		.uleb128 0x2d
 6728 2833 5E000000 		.4byte	.LVL148
 6729 2837 852E0000 		.4byte	0x2e85
 6730 283b 51280000 		.4byte	0x2851
 6731 283f 2E       		.uleb128 0x2e
 6732 2840 01       		.uleb128 0x1
 6733 2841 50       		.byte	0x50
 6734 2842 02       		.uleb128 0x2
 6735 2843 74       		.byte	0x74
 6736 2844 00       		.sleb128 0
 6737 2845 2E       		.uleb128 0x2e
 6738 2846 01       		.uleb128 0x1
 6739 2847 51       		.byte	0x51
 6740 2848 02       		.uleb128 0x2
 6741 2849 08       		.byte	0x8
 6742 284a 22       		.byte	0x22
 6743 284b 2E       		.uleb128 0x2e
 6744 284c 01       		.uleb128 0x1
 6745 284d 52       		.byte	0x52
 6746 284e 01       		.uleb128 0x1
 6747 284f 30       		.byte	0x30
 6748 2850 00       		.byte	0
 6749 2851 2F       		.uleb128 0x2f
 6750 2852 68000000 		.4byte	.LVL149
 6751 2856 852E0000 		.4byte	0x2e85
 6752 285a 2E       		.uleb128 0x2e
 6753 285b 01       		.uleb128 0x1
 6754 285c 50       		.byte	0x50
 6755 285d 02       		.uleb128 0x2
 6756 285e 74       		.byte	0x74
 6757 285f 00       		.sleb128 0
 6758 2860 2E       		.uleb128 0x2e
 6759 2861 01       		.uleb128 0x1
 6760 2862 51       		.byte	0x51
 6761 2863 02       		.uleb128 0x2
 6762 2864 08       		.byte	0x8
 6763 2865 24       		.byte	0x24
 6764 2866 2E       		.uleb128 0x2e
 6765 2867 01       		.uleb128 0x1
 6766 2868 52       		.byte	0x52
 6767 2869 01       		.uleb128 0x1
ARM GAS  C:\Users\haske\AppData\Local\Temp\ccU9uRZG.s 			page 135


 6768 286a 30       		.byte	0x30
 6769 286b 00       		.byte	0
 6770 286c 00       		.byte	0
 6771 286d 27       		.uleb128 0x27
 6772 286e 2E000000 		.4byte	.LASF574
 6773 2872 01       		.byte	0x1
 6774 2873 79       		.byte	0x79
 6775 2874 00000000 		.4byte	.LFB162
 6776 2878 0A000000 		.4byte	.LFE162-.LFB162
 6777 287c 01       		.uleb128 0x1
 6778 287d 9C       		.byte	0x9c
 6779 287e 99280000 		.4byte	0x2899
 6780 2882 28       		.uleb128 0x28
 6781 2883 6100     		.ascii	"a\000"
 6782 2885 01       		.byte	0x1
 6783 2886 79       		.byte	0x79
 6784 2887 00200000 		.4byte	0x2000
 6785 288b C4070000 		.4byte	.LLST48
 6786 288f 36       		.uleb128 0x36
 6787 2890 08000000 		.4byte	.LVL156
 6788 2894 3C270000 		.4byte	0x273c
 6789 2898 00       		.byte	0
 6790 2899 3B       		.uleb128 0x3b
 6791 289a AD080000 		.4byte	.LASF576
 6792 289e 01       		.byte	0x1
 6793 289f 5E01     		.2byte	0x15e
 6794 28a1 00000000 		.4byte	.LFB174
 6795 28a5 08000000 		.4byte	.LFE174-.LFB174
 6796 28a9 01       		.uleb128 0x1
 6797 28aa 9C       		.byte	0x9c
 6798 28ab D1280000 		.4byte	0x28d1
 6799 28af 31       		.uleb128 0x31
 6800 28b0 6F626A00 		.ascii	"obj\000"
 6801 28b4 01       		.byte	0x1
 6802 28b5 5E01     		.2byte	0x15e
 6803 28b7 C6000000 		.4byte	0xc6
 6804 28bb E5070000 		.4byte	.LLST49
 6805 28bf 2F       		.uleb128 0x2f
 6806 28c0 06000000 		.4byte	.LVL158
 6807 28c4 3C270000 		.4byte	0x273c
 6808 28c8 2E       		.uleb128 0x2e
 6809 28c9 01       		.uleb128 0x1
 6810 28ca 50       		.byte	0x50
 6811 28cb 03       		.uleb128 0x3
 6812 28cc F3       		.byte	0xf3
 6813 28cd 01       		.uleb128 0x1
 6814 28ce 50       		.byte	0x50
 6815 28cf 00       		.byte	0
 6816 28d0 00       		.byte	0
 6817 28d1 27       		.uleb128 0x27
 6818 28d2 24220000 		.4byte	.LASF577
 6819 28d6 01       		.byte	0x1
 6820 28d7 55       		.byte	0x55
 6821 28d8 00000000 		.4byte	.LFB160
 6822 28dc 3E000000 		.4byte	.LFE160-.LFB160
 6823 28e0 01       		.uleb128 0x1
 6824 28e1 9C       		.byte	0x9c
ARM GAS  C:\Users\haske\AppData\Local\Temp\ccU9uRZG.s 			page 136


 6825 28e2 73290000 		.4byte	0x2973
 6826 28e6 28       		.uleb128 0x28
 6827 28e7 6F626A00 		.ascii	"obj\000"
 6828 28eb 01       		.byte	0x1
 6829 28ec 55       		.byte	0x55
 6830 28ed AF210000 		.4byte	0x21af
 6831 28f1 06080000 		.4byte	.LLST50
 6832 28f5 3E       		.uleb128 0x3e
 6833 28f6 B6000000 		.4byte	.LASF570
 6834 28fa 01       		.byte	0x1
 6835 28fb 5C       		.byte	0x5c
 6836 28fc AF210000 		.4byte	0x21af
 6837 2900 32080000 		.4byte	.LLST51
 6838 2904 2D       		.uleb128 0x2d
 6839 2905 08000000 		.4byte	.LVL160
 6840 2909 D32E0000 		.4byte	0x2ed3
 6841 290d 18290000 		.4byte	0x2918
 6842 2911 2E       		.uleb128 0x2e
 6843 2912 01       		.uleb128 0x1
 6844 2913 50       		.byte	0x50
 6845 2914 02       		.uleb128 0x2
 6846 2915 74       		.byte	0x74
 6847 2916 00       		.sleb128 0
 6848 2917 00       		.byte	0
 6849 2918 2D       		.uleb128 0x2d
 6850 2919 10000000 		.4byte	.LVL161
 6851 291d 10230000 		.4byte	0x2310
 6852 2921 31290000 		.4byte	0x2931
 6853 2925 2E       		.uleb128 0x2e
 6854 2926 01       		.uleb128 0x1
 6855 2927 50       		.byte	0x50
 6856 2928 02       		.uleb128 0x2
 6857 2929 74       		.byte	0x74
 6858 292a 00       		.sleb128 0
 6859 292b 2E       		.uleb128 0x2e
 6860 292c 01       		.uleb128 0x1
 6861 292d 51       		.byte	0x51
 6862 292e 01       		.uleb128 0x1
 6863 292f 30       		.byte	0x30
 6864 2930 00       		.byte	0
 6865 2931 36       		.uleb128 0x36
 6866 2932 16000000 		.4byte	.LVL162
 6867 2936 3D250000 		.4byte	0x253d
 6868 293a 2D       		.uleb128 0x2d
 6869 293b 1E000000 		.4byte	.LVL163
 6870 293f 10230000 		.4byte	0x2310
 6871 2943 53290000 		.4byte	0x2953
 6872 2947 2E       		.uleb128 0x2e
 6873 2948 01       		.uleb128 0x1
 6874 2949 50       		.byte	0x50
 6875 294a 02       		.uleb128 0x2
 6876 294b 74       		.byte	0x74
 6877 294c 00       		.sleb128 0
 6878 294d 2E       		.uleb128 0x2e
 6879 294e 01       		.uleb128 0x1
 6880 294f 51       		.byte	0x51
 6881 2950 01       		.uleb128 0x1
ARM GAS  C:\Users\haske\AppData\Local\Temp\ccU9uRZG.s 			page 137


 6882 2951 30       		.byte	0x30
 6883 2952 00       		.byte	0
 6884 2953 2F       		.uleb128 0x2f
 6885 2954 2E000000 		.4byte	.LVL165
 6886 2958 022F0000 		.4byte	0x2f02
 6887 295c 2E       		.uleb128 0x2e
 6888 295d 01       		.uleb128 0x1
 6889 295e 50       		.byte	0x50
 6890 295f 02       		.uleb128 0x2
 6891 2960 74       		.byte	0x74
 6892 2961 00       		.sleb128 0
 6893 2962 2E       		.uleb128 0x2e
 6894 2963 01       		.uleb128 0x1
 6895 2964 51       		.byte	0x51
 6896 2965 01       		.uleb128 0x1
 6897 2966 30       		.byte	0x30
 6898 2967 2E       		.uleb128 0x2e
 6899 2968 01       		.uleb128 0x1
 6900 2969 52       		.byte	0x52
 6901 296a 01       		.uleb128 0x1
 6902 296b 30       		.byte	0x30
 6903 296c 2E       		.uleb128 0x2e
 6904 296d 01       		.uleb128 0x1
 6905 296e 53       		.byte	0x53
 6906 296f 01       		.uleb128 0x1
 6907 2970 30       		.byte	0x30
 6908 2971 00       		.byte	0
 6909 2972 00       		.byte	0
 6910 2973 27       		.uleb128 0x27
 6911 2974 93130000 		.4byte	.LASF578
 6912 2978 01       		.byte	0x1
 6913 2979 84       		.byte	0x84
 6914 297a 00000000 		.4byte	.LFB164
 6915 297e DC000000 		.4byte	.LFE164-.LFB164
 6916 2982 01       		.uleb128 0x1
 6917 2983 9C       		.byte	0x9c
 6918 2984 112B0000 		.4byte	0x2b11
 6919 2988 28       		.uleb128 0x28
 6920 2989 6F626A00 		.ascii	"obj\000"
 6921 298d 01       		.byte	0x1
 6922 298e 84       		.byte	0x84
 6923 298f AF210000 		.4byte	0x21af
 6924 2993 50080000 		.4byte	.LLST52
 6925 2997 29       		.uleb128 0x29
 6926 2998 C50D0000 		.4byte	.LASF207
 6927 299c 01       		.byte	0x1
 6928 299d 84       		.byte	0x84
 6929 299e AF210000 		.4byte	0x21af
 6930 29a2 7C080000 		.4byte	.LLST53
 6931 29a6 3E       		.uleb128 0x3e
 6932 29a7 13200000 		.4byte	.LASF579
 6933 29ab 01       		.byte	0x1
 6934 29ac 97       		.byte	0x97
 6935 29ad AF210000 		.4byte	0x21af
 6936 29b1 A8080000 		.4byte	.LLST54
 6937 29b5 3D       		.uleb128 0x3d
 6938 29b6 6900     		.ascii	"i\000"
ARM GAS  C:\Users\haske\AppData\Local\Temp\ccU9uRZG.s 			page 138


 6939 29b8 01       		.byte	0x1
 6940 29b9 99       		.byte	0x99
 6941 29ba 02010000 		.4byte	0x102
 6942 29be BB080000 		.4byte	.LLST55
 6943 29c2 2D       		.uleb128 0x2d
 6944 29c3 14000000 		.4byte	.LVL168
 6945 29c7 D32E0000 		.4byte	0x2ed3
 6946 29cb D6290000 		.4byte	0x29d6
 6947 29cf 2E       		.uleb128 0x2e
 6948 29d0 01       		.uleb128 0x1
 6949 29d1 50       		.byte	0x50
 6950 29d2 02       		.uleb128 0x2
 6951 29d3 76       		.byte	0x76
 6952 29d4 00       		.sleb128 0
 6953 29d5 00       		.byte	0
 6954 29d6 2D       		.uleb128 0x2d
 6955 29d7 1A000000 		.4byte	.LVL169
 6956 29db 0D2F0000 		.4byte	0x2f0d
 6957 29df EA290000 		.4byte	0x29ea
 6958 29e3 2E       		.uleb128 0x2e
 6959 29e4 01       		.uleb128 0x1
 6960 29e5 50       		.byte	0x50
 6961 29e6 02       		.uleb128 0x2
 6962 29e7 77       		.byte	0x77
 6963 29e8 00       		.sleb128 0
 6964 29e9 00       		.byte	0
 6965 29ea 2D       		.uleb128 0x2d
 6966 29eb 22000000 		.4byte	.LVL171
 6967 29ef B6240000 		.4byte	0x24b6
 6968 29f3 FE290000 		.4byte	0x29fe
 6969 29f7 2E       		.uleb128 0x2e
 6970 29f8 01       		.uleb128 0x1
 6971 29f9 50       		.byte	0x50
 6972 29fa 02       		.uleb128 0x2
 6973 29fb 76       		.byte	0x76
 6974 29fc 00       		.sleb128 0
 6975 29fd 00       		.byte	0
 6976 29fe 2D       		.uleb128 0x2d
 6977 29ff 3A000000 		.4byte	.LVL176
 6978 2a03 5A230000 		.4byte	0x235a
 6979 2a07 122A0000 		.4byte	0x2a12
 6980 2a0b 2E       		.uleb128 0x2e
 6981 2a0c 01       		.uleb128 0x1
 6982 2a0d 50       		.byte	0x50
 6983 2a0e 02       		.uleb128 0x2
 6984 2a0f 75       		.byte	0x75
 6985 2a10 00       		.sleb128 0
 6986 2a11 00       		.byte	0
 6987 2a12 36       		.uleb128 0x36
 6988 2a13 58000000 		.4byte	.LVL178
 6989 2a17 7A2E0000 		.4byte	0x2e7a
 6990 2a1b 36       		.uleb128 0x36
 6991 2a1c 62000000 		.4byte	.LVL179
 6992 2a20 C82E0000 		.4byte	0x2ec8
 6993 2a24 36       		.uleb128 0x36
 6994 2a25 7C000000 		.4byte	.LVL180
 6995 2a29 7A2E0000 		.4byte	0x2e7a
ARM GAS  C:\Users\haske\AppData\Local\Temp\ccU9uRZG.s 			page 139


 6996 2a2d 2D       		.uleb128 0x2d
 6997 2a2e 88000000 		.4byte	.LVL181
 6998 2a32 5A230000 		.4byte	0x235a
 6999 2a36 412A0000 		.4byte	0x2a41
 7000 2a3a 2E       		.uleb128 0x2e
 7001 2a3b 01       		.uleb128 0x1
 7002 2a3c 50       		.byte	0x50
 7003 2a3d 02       		.uleb128 0x2
 7004 2a3e 77       		.byte	0x77
 7005 2a3f 00       		.sleb128 0
 7006 2a40 00       		.byte	0
 7007 2a41 2D       		.uleb128 0x2d
 7008 2a42 9C000000 		.4byte	.LVL182
 7009 2a46 F62E0000 		.4byte	0x2ef6
 7010 2a4a 5A2A0000 		.4byte	0x2a5a
 7011 2a4e 2E       		.uleb128 0x2e
 7012 2a4f 01       		.uleb128 0x1
 7013 2a50 50       		.byte	0x50
 7014 2a51 02       		.uleb128 0x2
 7015 2a52 75       		.byte	0x75
 7016 2a53 00       		.sleb128 0
 7017 2a54 2E       		.uleb128 0x2e
 7018 2a55 01       		.uleb128 0x1
 7019 2a56 51       		.byte	0x51
 7020 2a57 01       		.uleb128 0x1
 7021 2a58 30       		.byte	0x30
 7022 2a59 00       		.byte	0
 7023 2a5a 2D       		.uleb128 0x2d
 7024 2a5b A2000000 		.4byte	.LVL183
 7025 2a5f DF2E0000 		.4byte	0x2edf
 7026 2a63 6E2A0000 		.4byte	0x2a6e
 7027 2a67 2E       		.uleb128 0x2e
 7028 2a68 01       		.uleb128 0x1
 7029 2a69 50       		.byte	0x50
 7030 2a6a 02       		.uleb128 0x2
 7031 2a6b 75       		.byte	0x75
 7032 2a6c 00       		.sleb128 0
 7033 2a6d 00       		.byte	0
 7034 2a6e 2D       		.uleb128 0x2d
 7035 2a6f AC000000 		.4byte	.LVL184
 7036 2a73 852E0000 		.4byte	0x2e85
 7037 2a77 8E2A0000 		.4byte	0x2a8e
 7038 2a7b 2E       		.uleb128 0x2e
 7039 2a7c 01       		.uleb128 0x1
 7040 2a7d 50       		.byte	0x50
 7041 2a7e 02       		.uleb128 0x2
 7042 2a7f 75       		.byte	0x75
 7043 2a80 00       		.sleb128 0
 7044 2a81 2E       		.uleb128 0x2e
 7045 2a82 01       		.uleb128 0x1
 7046 2a83 51       		.byte	0x51
 7047 2a84 02       		.uleb128 0x2
 7048 2a85 08       		.byte	0x8
 7049 2a86 22       		.byte	0x22
 7050 2a87 2E       		.uleb128 0x2e
 7051 2a88 01       		.uleb128 0x1
 7052 2a89 52       		.byte	0x52
ARM GAS  C:\Users\haske\AppData\Local\Temp\ccU9uRZG.s 			page 140


 7053 2a8a 02       		.uleb128 0x2
 7054 2a8b 76       		.byte	0x76
 7055 2a8c 00       		.sleb128 0
 7056 2a8d 00       		.byte	0
 7057 2a8e 2D       		.uleb128 0x2d
 7058 2a8f B6000000 		.4byte	.LVL185
 7059 2a93 852E0000 		.4byte	0x2e85
 7060 2a97 AD2A0000 		.4byte	0x2aad
 7061 2a9b 2E       		.uleb128 0x2e
 7062 2a9c 01       		.uleb128 0x1
 7063 2a9d 50       		.byte	0x50
 7064 2a9e 02       		.uleb128 0x2
 7065 2a9f 75       		.byte	0x75
 7066 2aa0 00       		.sleb128 0
 7067 2aa1 2E       		.uleb128 0x2e
 7068 2aa2 01       		.uleb128 0x1
 7069 2aa3 51       		.byte	0x51
 7070 2aa4 02       		.uleb128 0x2
 7071 2aa5 08       		.byte	0x8
 7072 2aa6 24       		.byte	0x24
 7073 2aa7 2E       		.uleb128 0x2e
 7074 2aa8 01       		.uleb128 0x1
 7075 2aa9 52       		.byte	0x52
 7076 2aaa 01       		.uleb128 0x1
 7077 2aab 30       		.byte	0x30
 7078 2aac 00       		.byte	0
 7079 2aad 2D       		.uleb128 0x2d
 7080 2aae C0000000 		.4byte	.LVL186
 7081 2ab2 852E0000 		.4byte	0x2e85
 7082 2ab6 CD2A0000 		.4byte	0x2acd
 7083 2aba 2E       		.uleb128 0x2e
 7084 2abb 01       		.uleb128 0x1
 7085 2abc 50       		.byte	0x50
 7086 2abd 02       		.uleb128 0x2
 7087 2abe 77       		.byte	0x77
 7088 2abf 00       		.sleb128 0
 7089 2ac0 2E       		.uleb128 0x2e
 7090 2ac1 01       		.uleb128 0x1
 7091 2ac2 51       		.byte	0x51
 7092 2ac3 02       		.uleb128 0x2
 7093 2ac4 08       		.byte	0x8
 7094 2ac5 22       		.byte	0x22
 7095 2ac6 2E       		.uleb128 0x2e
 7096 2ac7 01       		.uleb128 0x1
 7097 2ac8 52       		.byte	0x52
 7098 2ac9 02       		.uleb128 0x2
 7099 2aca 76       		.byte	0x76
 7100 2acb 00       		.sleb128 0
 7101 2acc 00       		.byte	0
 7102 2acd 2D       		.uleb128 0x2d
 7103 2ace CA000000 		.4byte	.LVL187
 7104 2ad2 852E0000 		.4byte	0x2e85
 7105 2ad6 EC2A0000 		.4byte	0x2aec
 7106 2ada 2E       		.uleb128 0x2e
 7107 2adb 01       		.uleb128 0x1
 7108 2adc 50       		.byte	0x50
 7109 2add 02       		.uleb128 0x2
ARM GAS  C:\Users\haske\AppData\Local\Temp\ccU9uRZG.s 			page 141


 7110 2ade 77       		.byte	0x77
 7111 2adf 00       		.sleb128 0
 7112 2ae0 2E       		.uleb128 0x2e
 7113 2ae1 01       		.uleb128 0x1
 7114 2ae2 51       		.byte	0x51
 7115 2ae3 02       		.uleb128 0x2
 7116 2ae4 08       		.byte	0x8
 7117 2ae5 23       		.byte	0x23
 7118 2ae6 2E       		.uleb128 0x2e
 7119 2ae7 01       		.uleb128 0x1
 7120 2ae8 52       		.byte	0x52
 7121 2ae9 01       		.uleb128 0x1
 7122 2aea 30       		.byte	0x30
 7123 2aeb 00       		.byte	0
 7124 2aec 2D       		.uleb128 0x2d
 7125 2aed D0000000 		.4byte	.LVL188
 7126 2af1 192F0000 		.4byte	0x2f19
 7127 2af5 002B0000 		.4byte	0x2b00
 7128 2af9 2E       		.uleb128 0x2e
 7129 2afa 01       		.uleb128 0x1
 7130 2afb 50       		.byte	0x50
 7131 2afc 02       		.uleb128 0x2
 7132 2afd 76       		.byte	0x76
 7133 2afe 00       		.sleb128 0
 7134 2aff 00       		.byte	0
 7135 2b00 2F       		.uleb128 0x2f
 7136 2b01 D6000000 		.4byte	.LVL189
 7137 2b05 D32E0000 		.4byte	0x2ed3
 7138 2b09 2E       		.uleb128 0x2e
 7139 2b0a 01       		.uleb128 0x1
 7140 2b0b 50       		.byte	0x50
 7141 2b0c 02       		.uleb128 0x2
 7142 2b0d 76       		.byte	0x76
 7143 2b0e 00       		.sleb128 0
 7144 2b0f 00       		.byte	0
 7145 2b10 00       		.byte	0
 7146 2b11 27       		.uleb128 0x27
 7147 2b12 88020000 		.4byte	.LASF580
 7148 2b16 01       		.byte	0x1
 7149 2b17 BE       		.byte	0xbe
 7150 2b18 00000000 		.4byte	.LFB165
 7151 2b1c 80000000 		.4byte	.LFE165-.LFB165
 7152 2b20 01       		.uleb128 0x1
 7153 2b21 9C       		.byte	0x9c
 7154 2b22 F82B0000 		.4byte	0x2bf8
 7155 2b26 28       		.uleb128 0x28
 7156 2b27 6F626A00 		.ascii	"obj\000"
 7157 2b2b 01       		.byte	0x1
 7158 2b2c BE       		.byte	0xbe
 7159 2b2d AF210000 		.4byte	0x21af
 7160 2b31 F1080000 		.4byte	.LLST56
 7161 2b35 29       		.uleb128 0x29
 7162 2b36 BF1D0000 		.4byte	.LASF581
 7163 2b3a 01       		.byte	0x1
 7164 2b3b BE       		.byte	0xbe
 7165 2b3c 02010000 		.4byte	0x102
 7166 2b40 1D090000 		.4byte	.LLST57
ARM GAS  C:\Users\haske\AppData\Local\Temp\ccU9uRZG.s 			page 142


 7167 2b44 3E       		.uleb128 0x3e
 7168 2b45 41030000 		.4byte	.LASF582
 7169 2b49 01       		.byte	0x1
 7170 2b4a C6       		.byte	0xc6
 7171 2b4b F82B0000 		.4byte	0x2bf8
 7172 2b4f 3B090000 		.4byte	.LLST58
 7173 2b53 3E       		.uleb128 0x3e
 7174 2b54 C50D0000 		.4byte	.LASF207
 7175 2b58 01       		.byte	0x1
 7176 2b59 C8       		.byte	0xc8
 7177 2b5a AF210000 		.4byte	0x21af
 7178 2b5e 59090000 		.4byte	.LLST59
 7179 2b62 3D       		.uleb128 0x3d
 7180 2b63 6900     		.ascii	"i\000"
 7181 2b65 01       		.byte	0x1
 7182 2b66 CE       		.byte	0xce
 7183 2b67 02010000 		.4byte	0x102
 7184 2b6b 77090000 		.4byte	.LLST60
 7185 2b6f 2D       		.uleb128 0x2d
 7186 2b70 0C000000 		.4byte	.LVL193
 7187 2b74 F4210000 		.4byte	0x21f4
 7188 2b78 832B0000 		.4byte	0x2b83
 7189 2b7c 2E       		.uleb128 0x2e
 7190 2b7d 01       		.uleb128 0x1
 7191 2b7e 50       		.byte	0x50
 7192 2b7f 02       		.uleb128 0x2
 7193 2b80 75       		.byte	0x75
 7194 2b81 00       		.sleb128 0
 7195 2b82 00       		.byte	0
 7196 2b83 36       		.uleb128 0x36
 7197 2b84 10000000 		.4byte	.LVL194
 7198 2b88 5A230000 		.4byte	0x235a
 7199 2b8c 2D       		.uleb128 0x2d
 7200 2b8d 18000000 		.4byte	.LVL196
 7201 2b91 B6240000 		.4byte	0x24b6
 7202 2b95 A02B0000 		.4byte	0x2ba0
 7203 2b99 2E       		.uleb128 0x2e
 7204 2b9a 01       		.uleb128 0x1
 7205 2b9b 50       		.byte	0x50
 7206 2b9c 02       		.uleb128 0x2
 7207 2b9d 75       		.byte	0x75
 7208 2b9e 00       		.sleb128 0
 7209 2b9f 00       		.byte	0
 7210 2ba0 2D       		.uleb128 0x2d
 7211 2ba1 20000000 		.4byte	.LVL199
 7212 2ba5 F4210000 		.4byte	0x21f4
 7213 2ba9 B42B0000 		.4byte	0x2bb4
 7214 2bad 2E       		.uleb128 0x2e
 7215 2bae 01       		.uleb128 0x1
 7216 2baf 50       		.byte	0x50
 7217 2bb0 02       		.uleb128 0x2
 7218 2bb1 75       		.byte	0x75
 7219 2bb2 00       		.sleb128 0
 7220 2bb3 00       		.byte	0
 7221 2bb4 2D       		.uleb128 0x2d
 7222 2bb5 2A000000 		.4byte	.LVL201
 7223 2bb9 5A230000 		.4byte	0x235a
ARM GAS  C:\Users\haske\AppData\Local\Temp\ccU9uRZG.s 			page 143


 7224 2bbd C82B0000 		.4byte	0x2bc8
 7225 2bc1 2E       		.uleb128 0x2e
 7226 2bc2 01       		.uleb128 0x1
 7227 2bc3 50       		.byte	0x50
 7228 2bc4 02       		.uleb128 0x2
 7229 2bc5 77       		.byte	0x77
 7230 2bc6 00       		.sleb128 0
 7231 2bc7 00       		.byte	0
 7232 2bc8 2D       		.uleb128 0x2d
 7233 2bc9 72000000 		.4byte	.LVL207
 7234 2bcd 852E0000 		.4byte	0x2e85
 7235 2bd1 E72B0000 		.4byte	0x2be7
 7236 2bd5 2E       		.uleb128 0x2e
 7237 2bd6 01       		.uleb128 0x1
 7238 2bd7 50       		.byte	0x50
 7239 2bd8 02       		.uleb128 0x2
 7240 2bd9 77       		.byte	0x77
 7241 2bda 00       		.sleb128 0
 7242 2bdb 2E       		.uleb128 0x2e
 7243 2bdc 01       		.uleb128 0x1
 7244 2bdd 51       		.byte	0x51
 7245 2bde 02       		.uleb128 0x2
 7246 2bdf 08       		.byte	0x8
 7247 2be0 22       		.byte	0x22
 7248 2be1 2E       		.uleb128 0x2e
 7249 2be2 01       		.uleb128 0x1
 7250 2be3 52       		.byte	0x52
 7251 2be4 01       		.uleb128 0x1
 7252 2be5 30       		.byte	0x30
 7253 2be6 00       		.byte	0
 7254 2be7 2F       		.uleb128 0x2f
 7255 2be8 78000000 		.4byte	.LVL208
 7256 2bec D32E0000 		.4byte	0x2ed3
 7257 2bf0 2E       		.uleb128 0x2e
 7258 2bf1 01       		.uleb128 0x1
 7259 2bf2 50       		.byte	0x50
 7260 2bf3 02       		.uleb128 0x2
 7261 2bf4 77       		.byte	0x77
 7262 2bf5 00       		.sleb128 0
 7263 2bf6 00       		.byte	0
 7264 2bf7 00       		.byte	0
 7265 2bf8 0E       		.uleb128 0xe
 7266 2bf9 02010000 		.4byte	0x102
 7267 2bfd 27       		.uleb128 0x27
 7268 2bfe 2F100000 		.4byte	.LASF583
 7269 2c02 01       		.byte	0x1
 7270 2c03 E1       		.byte	0xe1
 7271 2c04 00000000 		.4byte	.LFB166
 7272 2c08 9A000000 		.4byte	.LFE166-.LFB166
 7273 2c0c 01       		.uleb128 0x1
 7274 2c0d 9C       		.byte	0x9c
 7275 2c0e BB2D0000 		.4byte	0x2dbb
 7276 2c12 29       		.uleb128 0x29
 7277 2c13 0F0E0000 		.4byte	.LASF584
 7278 2c17 01       		.byte	0x1
 7279 2c18 E1       		.byte	0xe1
 7280 2c19 AF210000 		.4byte	0x21af
ARM GAS  C:\Users\haske\AppData\Local\Temp\ccU9uRZG.s 			page 144


 7281 2c1d A2090000 		.4byte	.LLST61
 7282 2c21 29       		.uleb128 0x29
 7283 2c22 140E0000 		.4byte	.LASF585
 7284 2c26 01       		.byte	0x1
 7285 2c27 E1       		.byte	0xe1
 7286 2c28 AF210000 		.4byte	0x21af
 7287 2c2c CE090000 		.4byte	.LLST62
 7288 2c30 3E       		.uleb128 0x3e
 7289 2c31 C50D0000 		.4byte	.LASF207
 7290 2c35 01       		.byte	0x1
 7291 2c36 E6       		.byte	0xe6
 7292 2c37 AF210000 		.4byte	0x21af
 7293 2c3b FA090000 		.4byte	.LLST63
 7294 2c3f 3E       		.uleb128 0x3e
 7295 2c40 100F0000 		.4byte	.LASF586
 7296 2c44 01       		.byte	0x1
 7297 2c45 E7       		.byte	0xe7
 7298 2c46 AF210000 		.4byte	0x21af
 7299 2c4a 180A0000 		.4byte	.LLST64
 7300 2c4e 3E       		.uleb128 0x3e
 7301 2c4f C01B0000 		.4byte	.LASF587
 7302 2c53 01       		.byte	0x1
 7303 2c54 E9       		.byte	0xe9
 7304 2c55 18010000 		.4byte	0x118
 7305 2c59 360A0000 		.4byte	.LLST65
 7306 2c5d 3E       		.uleb128 0x3e
 7307 2c5e C71B0000 		.4byte	.LASF588
 7308 2c62 01       		.byte	0x1
 7309 2c63 EA       		.byte	0xea
 7310 2c64 18010000 		.4byte	0x118
 7311 2c68 540A0000 		.4byte	.LLST66
 7312 2c6c 2D       		.uleb128 0x2d
 7313 2c6d 10000000 		.4byte	.LVL213
 7314 2c71 F4210000 		.4byte	0x21f4
 7315 2c75 802C0000 		.4byte	0x2c80
 7316 2c79 2E       		.uleb128 0x2e
 7317 2c7a 01       		.uleb128 0x1
 7318 2c7b 50       		.byte	0x50
 7319 2c7c 02       		.uleb128 0x2
 7320 2c7d 74       		.byte	0x74
 7321 2c7e 00       		.sleb128 0
 7322 2c7f 00       		.byte	0
 7323 2c80 2D       		.uleb128 0x2d
 7324 2c81 18000000 		.4byte	.LVL216
 7325 2c85 F4210000 		.4byte	0x21f4
 7326 2c89 942C0000 		.4byte	0x2c94
 7327 2c8d 2E       		.uleb128 0x2e
 7328 2c8e 01       		.uleb128 0x1
 7329 2c8f 50       		.byte	0x50
 7330 2c90 02       		.uleb128 0x2
 7331 2c91 75       		.byte	0x75
 7332 2c92 00       		.sleb128 0
 7333 2c93 00       		.byte	0
 7334 2c94 2D       		.uleb128 0x2d
 7335 2c95 20000000 		.4byte	.LVL219
 7336 2c99 B6240000 		.4byte	0x24b6
 7337 2c9d A82C0000 		.4byte	0x2ca8
ARM GAS  C:\Users\haske\AppData\Local\Temp\ccU9uRZG.s 			page 145


 7338 2ca1 2E       		.uleb128 0x2e
 7339 2ca2 01       		.uleb128 0x1
 7340 2ca3 50       		.byte	0x50
 7341 2ca4 02       		.uleb128 0x2
 7342 2ca5 74       		.byte	0x74
 7343 2ca6 00       		.sleb128 0
 7344 2ca7 00       		.byte	0
 7345 2ca8 2D       		.uleb128 0x2d
 7346 2ca9 28000000 		.4byte	.LVL222
 7347 2cad B6240000 		.4byte	0x24b6
 7348 2cb1 BC2C0000 		.4byte	0x2cbc
 7349 2cb5 2E       		.uleb128 0x2e
 7350 2cb6 01       		.uleb128 0x1
 7351 2cb7 50       		.byte	0x50
 7352 2cb8 02       		.uleb128 0x2
 7353 2cb9 75       		.byte	0x75
 7354 2cba 00       		.sleb128 0
 7355 2cbb 00       		.byte	0
 7356 2cbc 2D       		.uleb128 0x2d
 7357 2cbd 34000000 		.4byte	.LVL225
 7358 2cc1 852E0000 		.4byte	0x2e85
 7359 2cc5 DC2C0000 		.4byte	0x2cdc
 7360 2cc9 2E       		.uleb128 0x2e
 7361 2cca 01       		.uleb128 0x1
 7362 2ccb 50       		.byte	0x50
 7363 2ccc 02       		.uleb128 0x2
 7364 2ccd 77       		.byte	0x77
 7365 2cce 00       		.sleb128 0
 7366 2ccf 2E       		.uleb128 0x2e
 7367 2cd0 01       		.uleb128 0x1
 7368 2cd1 51       		.byte	0x51
 7369 2cd2 02       		.uleb128 0x2
 7370 2cd3 08       		.byte	0x8
 7371 2cd4 24       		.byte	0x24
 7372 2cd5 2E       		.uleb128 0x2e
 7373 2cd6 01       		.uleb128 0x1
 7374 2cd7 52       		.byte	0x52
 7375 2cd8 02       		.uleb128 0x2
 7376 2cd9 75       		.byte	0x75
 7377 2cda 00       		.sleb128 0
 7378 2cdb 00       		.byte	0
 7379 2cdc 2D       		.uleb128 0x2d
 7380 2cdd 3E000000 		.4byte	.LVL226
 7381 2ce1 852E0000 		.4byte	0x2e85
 7382 2ce5 FC2C0000 		.4byte	0x2cfc
 7383 2ce9 2E       		.uleb128 0x2e
 7384 2cea 01       		.uleb128 0x1
 7385 2ceb 50       		.byte	0x50
 7386 2cec 02       		.uleb128 0x2
 7387 2ced 76       		.byte	0x76
 7388 2cee 00       		.sleb128 0
 7389 2cef 2E       		.uleb128 0x2e
 7390 2cf0 01       		.uleb128 0x1
 7391 2cf1 51       		.byte	0x51
 7392 2cf2 02       		.uleb128 0x2
 7393 2cf3 08       		.byte	0x8
 7394 2cf4 24       		.byte	0x24
ARM GAS  C:\Users\haske\AppData\Local\Temp\ccU9uRZG.s 			page 146


 7395 2cf5 2E       		.uleb128 0x2e
 7396 2cf6 01       		.uleb128 0x1
 7397 2cf7 52       		.byte	0x52
 7398 2cf8 02       		.uleb128 0x2
 7399 2cf9 74       		.byte	0x74
 7400 2cfa 00       		.sleb128 0
 7401 2cfb 00       		.byte	0
 7402 2cfc 2D       		.uleb128 0x2d
 7403 2cfd 5C000000 		.4byte	.LVL227
 7404 2d01 852E0000 		.4byte	0x2e85
 7405 2d05 1C2D0000 		.4byte	0x2d1c
 7406 2d09 2E       		.uleb128 0x2e
 7407 2d0a 01       		.uleb128 0x1
 7408 2d0b 50       		.byte	0x50
 7409 2d0c 02       		.uleb128 0x2
 7410 2d0d 76       		.byte	0x76
 7411 2d0e 00       		.sleb128 0
 7412 2d0f 2E       		.uleb128 0x2e
 7413 2d10 01       		.uleb128 0x1
 7414 2d11 51       		.byte	0x51
 7415 2d12 02       		.uleb128 0x2
 7416 2d13 08       		.byte	0x8
 7417 2d14 22       		.byte	0x22
 7418 2d15 2E       		.uleb128 0x2e
 7419 2d16 01       		.uleb128 0x1
 7420 2d17 52       		.byte	0x52
 7421 2d18 02       		.uleb128 0x2
 7422 2d19 75       		.byte	0x75
 7423 2d1a 00       		.sleb128 0
 7424 2d1b 00       		.byte	0
 7425 2d1c 2D       		.uleb128 0x2d
 7426 2d1d 66000000 		.4byte	.LVL228
 7427 2d21 852E0000 		.4byte	0x2e85
 7428 2d25 3C2D0000 		.4byte	0x2d3c
 7429 2d29 2E       		.uleb128 0x2e
 7430 2d2a 01       		.uleb128 0x1
 7431 2d2b 50       		.byte	0x50
 7432 2d2c 02       		.uleb128 0x2
 7433 2d2d 76       		.byte	0x76
 7434 2d2e 00       		.sleb128 0
 7435 2d2f 2E       		.uleb128 0x2e
 7436 2d30 01       		.uleb128 0x1
 7437 2d31 51       		.byte	0x51
 7438 2d32 02       		.uleb128 0x2
 7439 2d33 08       		.byte	0x8
 7440 2d34 23       		.byte	0x23
 7441 2d35 2E       		.uleb128 0x2e
 7442 2d36 01       		.uleb128 0x1
 7443 2d37 52       		.byte	0x52
 7444 2d38 02       		.uleb128 0x2
 7445 2d39 75       		.byte	0x75
 7446 2d3a 00       		.sleb128 0
 7447 2d3b 00       		.byte	0
 7448 2d3c 2D       		.uleb128 0x2d
 7449 2d3d 70000000 		.4byte	.LVL229
 7450 2d41 852E0000 		.4byte	0x2e85
 7451 2d45 5C2D0000 		.4byte	0x2d5c
ARM GAS  C:\Users\haske\AppData\Local\Temp\ccU9uRZG.s 			page 147


 7452 2d49 2E       		.uleb128 0x2e
 7453 2d4a 01       		.uleb128 0x1
 7454 2d4b 50       		.byte	0x50
 7455 2d4c 02       		.uleb128 0x2
 7456 2d4d 77       		.byte	0x77
 7457 2d4e 00       		.sleb128 0
 7458 2d4f 2E       		.uleb128 0x2e
 7459 2d50 01       		.uleb128 0x1
 7460 2d51 51       		.byte	0x51
 7461 2d52 02       		.uleb128 0x2
 7462 2d53 08       		.byte	0x8
 7463 2d54 22       		.byte	0x22
 7464 2d55 2E       		.uleb128 0x2e
 7465 2d56 01       		.uleb128 0x1
 7466 2d57 52       		.byte	0x52
 7467 2d58 02       		.uleb128 0x2
 7468 2d59 74       		.byte	0x74
 7469 2d5a 00       		.sleb128 0
 7470 2d5b 00       		.byte	0
 7471 2d5c 2D       		.uleb128 0x2d
 7472 2d5d 7A000000 		.4byte	.LVL230
 7473 2d61 852E0000 		.4byte	0x2e85
 7474 2d65 7C2D0000 		.4byte	0x2d7c
 7475 2d69 2E       		.uleb128 0x2e
 7476 2d6a 01       		.uleb128 0x1
 7477 2d6b 50       		.byte	0x50
 7478 2d6c 02       		.uleb128 0x2
 7479 2d6d 77       		.byte	0x77
 7480 2d6e 00       		.sleb128 0
 7481 2d6f 2E       		.uleb128 0x2e
 7482 2d70 01       		.uleb128 0x1
 7483 2d71 51       		.byte	0x51
 7484 2d72 02       		.uleb128 0x2
 7485 2d73 08       		.byte	0x8
 7486 2d74 23       		.byte	0x23
 7487 2d75 2E       		.uleb128 0x2e
 7488 2d76 01       		.uleb128 0x1
 7489 2d77 52       		.byte	0x52
 7490 2d78 02       		.uleb128 0x2
 7491 2d79 74       		.byte	0x74
 7492 2d7a 00       		.sleb128 0
 7493 2d7b 00       		.byte	0
 7494 2d7c 2D       		.uleb128 0x2d
 7495 2d7d 80000000 		.4byte	.LVL231
 7496 2d81 D32E0000 		.4byte	0x2ed3
 7497 2d85 902D0000 		.4byte	0x2d90
 7498 2d89 2E       		.uleb128 0x2e
 7499 2d8a 01       		.uleb128 0x1
 7500 2d8b 50       		.byte	0x50
 7501 2d8c 02       		.uleb128 0x2
 7502 2d8d 76       		.byte	0x76
 7503 2d8e 00       		.sleb128 0
 7504 2d8f 00       		.byte	0
 7505 2d90 2D       		.uleb128 0x2d
 7506 2d91 8A000000 		.4byte	.LVL232
 7507 2d95 D32E0000 		.4byte	0x2ed3
 7508 2d99 A42D0000 		.4byte	0x2da4
ARM GAS  C:\Users\haske\AppData\Local\Temp\ccU9uRZG.s 			page 148


 7509 2d9d 2E       		.uleb128 0x2e
 7510 2d9e 01       		.uleb128 0x1
 7511 2d9f 50       		.byte	0x50
 7512 2da0 02       		.uleb128 0x2
 7513 2da1 77       		.byte	0x77
 7514 2da2 00       		.sleb128 0
 7515 2da3 00       		.byte	0
 7516 2da4 2F       		.uleb128 0x2f
 7517 2da5 92000000 		.4byte	.LVL233
 7518 2da9 242F0000 		.4byte	0x2f24
 7519 2dad 2E       		.uleb128 0x2e
 7520 2dae 01       		.uleb128 0x1
 7521 2daf 50       		.byte	0x50
 7522 2db0 02       		.uleb128 0x2
 7523 2db1 74       		.byte	0x74
 7524 2db2 00       		.sleb128 0
 7525 2db3 2E       		.uleb128 0x2e
 7526 2db4 01       		.uleb128 0x1
 7527 2db5 51       		.byte	0x51
 7528 2db6 02       		.uleb128 0x2
 7529 2db7 75       		.byte	0x75
 7530 2db8 00       		.sleb128 0
 7531 2db9 00       		.byte	0
 7532 2dba 00       		.byte	0
 7533 2dbb 3F       		.uleb128 0x3f
 7534 2dbc 201B0000 		.4byte	.LASF589
 7535 2dc0 01       		.byte	0x1
 7536 2dc1 5501     		.2byte	0x155
 7537 2dc3 00000000 		.4byte	.LFB173
 7538 2dc7 08000000 		.4byte	.LFE173-.LFB173
 7539 2dcb 01       		.uleb128 0x1
 7540 2dcc 9C       		.byte	0x9c
 7541 2dcd 202E0000 		.4byte	0x2e20
 7542 2dd1 38       		.uleb128 0x38
 7543 2dd2 AB120000 		.4byte	.LASF590
 7544 2dd6 01       		.byte	0x1
 7545 2dd7 5501     		.2byte	0x155
 7546 2dd9 AF210000 		.4byte	0x21af
 7547 2ddd 720A0000 		.4byte	.LLST67
 7548 2de1 31       		.uleb128 0x31
 7549 2de2 636200   		.ascii	"cb\000"
 7550 2de5 01       		.byte	0x1
 7551 2de6 5501     		.2byte	0x155
 7552 2de8 8A1B0000 		.4byte	0x1b8a
 7553 2dec 930A0000 		.4byte	.LLST68
 7554 2df0 38       		.uleb128 0x38
 7555 2df1 0F210000 		.4byte	.LASF45
 7556 2df5 01       		.byte	0x1
 7557 2df6 5501     		.2byte	0x155
 7558 2df8 C6000000 		.4byte	0xc6
 7559 2dfc B40A0000 		.4byte	.LLST69
 7560 2e00 2F       		.uleb128 0x2f
 7561 2e01 06000000 		.4byte	.LVL241
 7562 2e05 85230000 		.4byte	0x2385
 7563 2e09 2E       		.uleb128 0x2e
 7564 2e0a 01       		.uleb128 0x1
 7565 2e0b 50       		.byte	0x50
ARM GAS  C:\Users\haske\AppData\Local\Temp\ccU9uRZG.s 			page 149


 7566 2e0c 03       		.uleb128 0x3
 7567 2e0d F3       		.byte	0xf3
 7568 2e0e 01       		.uleb128 0x1
 7569 2e0f 50       		.byte	0x50
 7570 2e10 2E       		.uleb128 0x2e
 7571 2e11 01       		.uleb128 0x1
 7572 2e12 51       		.byte	0x51
 7573 2e13 03       		.uleb128 0x3
 7574 2e14 F3       		.byte	0xf3
 7575 2e15 01       		.uleb128 0x1
 7576 2e16 51       		.byte	0x51
 7577 2e17 2E       		.uleb128 0x2e
 7578 2e18 01       		.uleb128 0x1
 7579 2e19 52       		.byte	0x52
 7580 2e1a 03       		.uleb128 0x3
 7581 2e1b F3       		.byte	0xf3
 7582 2e1c 01       		.uleb128 0x1
 7583 2e1d 52       		.byte	0x52
 7584 2e1e 00       		.byte	0
 7585 2e1f 00       		.byte	0
 7586 2e20 40       		.uleb128 0x40
 7587 2e21 970C0000 		.4byte	.LASF591
 7588 2e25 08       		.byte	0x8
 7589 2e26 94       		.byte	0x94
 7590 2e27 870C0000 		.4byte	0xc87
 7591 2e2b 40       		.uleb128 0x40
 7592 2e2c DB050000 		.4byte	.LASF592
 7593 2e30 21       		.byte	0x21
 7594 2e31 4C       		.byte	0x4c
 7595 2e32 7A120000 		.4byte	0x127a
 7596 2e36 41       		.uleb128 0x41
 7597 2e37 FF1E0000 		.4byte	.LASF593
 7598 2e3b FF1E0000 		.4byte	.LASF593
 7599 2e3f 02       		.byte	0x2
 7600 2e40 77       		.byte	0x77
 7601 2e41 42       		.uleb128 0x42
 7602 2e42 671B0000 		.4byte	.LASF594
 7603 2e46 671B0000 		.4byte	.LASF594
 7604 2e4a 02       		.byte	0x2
 7605 2e4b 3601     		.2byte	0x136
 7606 2e4d 41       		.uleb128 0x41
 7607 2e4e 891A0000 		.4byte	.LASF595
 7608 2e52 891A0000 		.4byte	.LASF595
 7609 2e56 22       		.byte	0x22
 7610 2e57 2C       		.byte	0x2c
 7611 2e58 41       		.uleb128 0x41
 7612 2e59 90210000 		.4byte	.LASF596
 7613 2e5d 90210000 		.4byte	.LASF596
 7614 2e61 17       		.byte	0x17
 7615 2e62 64       		.byte	0x64
 7616 2e63 41       		.uleb128 0x41
 7617 2e64 B81A0000 		.4byte	.LASF597
 7618 2e68 B81A0000 		.4byte	.LASF597
 7619 2e6c 17       		.byte	0x17
 7620 2e6d 73       		.byte	0x73
 7621 2e6e 42       		.uleb128 0x42
 7622 2e6f 12060000 		.4byte	.LASF598
ARM GAS  C:\Users\haske\AppData\Local\Temp\ccU9uRZG.s 			page 150


 7623 2e73 12060000 		.4byte	.LASF598
 7624 2e77 19       		.byte	0x19
 7625 2e78 6001     		.2byte	0x160
 7626 2e7a 41       		.uleb128 0x41
 7627 2e7b 991F0000 		.4byte	.LASF599
 7628 2e7f 991F0000 		.4byte	.LASF599
 7629 2e83 23       		.byte	0x23
 7630 2e84 59       		.byte	0x59
 7631 2e85 41       		.uleb128 0x41
 7632 2e86 97040000 		.4byte	.LASF600
 7633 2e8a 97040000 		.4byte	.LASF600
 7634 2e8e 20       		.byte	0x20
 7635 2e8f 92       		.byte	0x92
 7636 2e90 42       		.uleb128 0x42
 7637 2e91 F8220000 		.4byte	.LASF601
 7638 2e95 F8220000 		.4byte	.LASF601
 7639 2e99 0F       		.byte	0xf
 7640 2e9a 3A01     		.2byte	0x13a
 7641 2e9c 41       		.uleb128 0x41
 7642 2e9d 77160000 		.4byte	.LASF602
 7643 2ea1 77160000 		.4byte	.LASF602
 7644 2ea5 1A       		.byte	0x1a
 7645 2ea6 DF       		.byte	0xdf
 7646 2ea7 41       		.uleb128 0x41
 7647 2ea8 BB130000 		.4byte	.LASF603
 7648 2eac BB130000 		.4byte	.LASF603
 7649 2eb0 24       		.byte	0x24
 7650 2eb1 40       		.byte	0x40
 7651 2eb2 41       		.uleb128 0x41
 7652 2eb3 0A040000 		.4byte	.LASF604
 7653 2eb7 0A040000 		.4byte	.LASF604
 7654 2ebb 24       		.byte	0x24
 7655 2ebc 96       		.byte	0x96
 7656 2ebd 41       		.uleb128 0x41
 7657 2ebe 341D0000 		.4byte	.LASF605
 7658 2ec2 341D0000 		.4byte	.LASF605
 7659 2ec6 1F       		.byte	0x1f
 7660 2ec7 4F       		.byte	0x4f
 7661 2ec8 41       		.uleb128 0x41
 7662 2ec9 13010000 		.4byte	.LASF606
 7663 2ecd 13010000 		.4byte	.LASF606
 7664 2ed1 23       		.byte	0x23
 7665 2ed2 50       		.byte	0x50
 7666 2ed3 42       		.uleb128 0x42
 7667 2ed4 01200000 		.4byte	.LASF607
 7668 2ed8 01200000 		.4byte	.LASF607
 7669 2edc 25       		.byte	0x25
 7670 2edd 7D01     		.2byte	0x17d
 7671 2edf 42       		.uleb128 0x42
 7672 2ee0 CA130000 		.4byte	.LASF608
 7673 2ee4 CA130000 		.4byte	.LASF608
 7674 2ee8 1D       		.byte	0x1d
 7675 2ee9 2201     		.2byte	0x122
 7676 2eeb 41       		.uleb128 0x41
 7677 2eec 90110000 		.4byte	.LASF609
 7678 2ef0 90110000 		.4byte	.LASF609
 7679 2ef4 25       		.byte	0x25
ARM GAS  C:\Users\haske\AppData\Local\Temp\ccU9uRZG.s 			page 151


 7680 2ef5 99       		.byte	0x99
 7681 2ef6 42       		.uleb128 0x42
 7682 2ef7 4B140000 		.4byte	.LASF610
 7683 2efb 4B140000 		.4byte	.LASF610
 7684 2eff 1D       		.byte	0x1d
 7685 2f00 2901     		.2byte	0x129
 7686 2f02 41       		.uleb128 0x41
 7687 2f03 561A0000 		.4byte	.LASF611
 7688 2f07 561A0000 		.4byte	.LASF611
 7689 2f0b 1D       		.byte	0x1d
 7690 2f0c D8       		.byte	0xd8
 7691 2f0d 42       		.uleb128 0x42
 7692 2f0e 7F1F0000 		.4byte	.LASF612
 7693 2f12 7F1F0000 		.4byte	.LASF612
 7694 2f16 0F       		.byte	0xf
 7695 2f17 5001     		.2byte	0x150
 7696 2f19 41       		.uleb128 0x41
 7697 2f1a 2B060000 		.4byte	.LASF613
 7698 2f1e 2B060000 		.4byte	.LASF613
 7699 2f22 25       		.byte	0x25
 7700 2f23 93       		.byte	0x93
 7701 2f24 41       		.uleb128 0x41
 7702 2f25 EB1C0000 		.4byte	.LASF614
 7703 2f29 EB1C0000 		.4byte	.LASF614
 7704 2f2d 1B       		.byte	0x1b
 7705 2f2e 84       		.byte	0x84
 7706 2f2f 00       		.byte	0
 7707              		.section	.debug_abbrev,"",%progbits
 7708              	.Ldebug_abbrev0:
 7709 0000 01       		.uleb128 0x1
 7710 0001 11       		.uleb128 0x11
 7711 0002 01       		.byte	0x1
 7712 0003 25       		.uleb128 0x25
 7713 0004 0E       		.uleb128 0xe
 7714 0005 13       		.uleb128 0x13
 7715 0006 0B       		.uleb128 0xb
 7716 0007 03       		.uleb128 0x3
 7717 0008 0E       		.uleb128 0xe
 7718 0009 1B       		.uleb128 0x1b
 7719 000a 0E       		.uleb128 0xe
 7720 000b 55       		.uleb128 0x55
 7721 000c 17       		.uleb128 0x17
 7722 000d 11       		.uleb128 0x11
 7723 000e 01       		.uleb128 0x1
 7724 000f 10       		.uleb128 0x10
 7725 0010 17       		.uleb128 0x17
 7726 0011 00       		.byte	0
 7727 0012 00       		.byte	0
 7728 0013 02       		.uleb128 0x2
 7729 0014 16       		.uleb128 0x16
 7730 0015 00       		.byte	0
 7731 0016 03       		.uleb128 0x3
 7732 0017 0E       		.uleb128 0xe
 7733 0018 3A       		.uleb128 0x3a
 7734 0019 0B       		.uleb128 0xb
 7735 001a 3B       		.uleb128 0x3b
 7736 001b 0B       		.uleb128 0xb
ARM GAS  C:\Users\haske\AppData\Local\Temp\ccU9uRZG.s 			page 152


 7737 001c 49       		.uleb128 0x49
 7738 001d 13       		.uleb128 0x13
 7739 001e 00       		.byte	0
 7740 001f 00       		.byte	0
 7741 0020 03       		.uleb128 0x3
 7742 0021 24       		.uleb128 0x24
 7743 0022 00       		.byte	0
 7744 0023 0B       		.uleb128 0xb
 7745 0024 0B       		.uleb128 0xb
 7746 0025 3E       		.uleb128 0x3e
 7747 0026 0B       		.uleb128 0xb
 7748 0027 03       		.uleb128 0x3
 7749 0028 0E       		.uleb128 0xe
 7750 0029 00       		.byte	0
 7751 002a 00       		.byte	0
 7752 002b 04       		.uleb128 0x4
 7753 002c 24       		.uleb128 0x24
 7754 002d 00       		.byte	0
 7755 002e 0B       		.uleb128 0xb
 7756 002f 0B       		.uleb128 0xb
 7757 0030 3E       		.uleb128 0x3e
 7758 0031 0B       		.uleb128 0xb
 7759 0032 03       		.uleb128 0x3
 7760 0033 08       		.uleb128 0x8
 7761 0034 00       		.byte	0
 7762 0035 00       		.byte	0
 7763 0036 05       		.uleb128 0x5
 7764 0037 0F       		.uleb128 0xf
 7765 0038 00       		.byte	0
 7766 0039 0B       		.uleb128 0xb
 7767 003a 0B       		.uleb128 0xb
 7768 003b 00       		.byte	0
 7769 003c 00       		.byte	0
 7770 003d 06       		.uleb128 0x6
 7771 003e 0F       		.uleb128 0xf
 7772 003f 00       		.byte	0
 7773 0040 0B       		.uleb128 0xb
 7774 0041 0B       		.uleb128 0xb
 7775 0042 49       		.uleb128 0x49
 7776 0043 13       		.uleb128 0x13
 7777 0044 00       		.byte	0
 7778 0045 00       		.byte	0
 7779 0046 07       		.uleb128 0x7
 7780 0047 26       		.uleb128 0x26
 7781 0048 00       		.byte	0
 7782 0049 00       		.byte	0
 7783 004a 00       		.byte	0
 7784 004b 08       		.uleb128 0x8
 7785 004c 13       		.uleb128 0x13
 7786 004d 01       		.byte	0x1
 7787 004e 0B       		.uleb128 0xb
 7788 004f 0B       		.uleb128 0xb
 7789 0050 3A       		.uleb128 0x3a
 7790 0051 0B       		.uleb128 0xb
 7791 0052 3B       		.uleb128 0x3b
 7792 0053 0B       		.uleb128 0xb
 7793 0054 01       		.uleb128 0x1
ARM GAS  C:\Users\haske\AppData\Local\Temp\ccU9uRZG.s 			page 153


 7794 0055 13       		.uleb128 0x13
 7795 0056 00       		.byte	0
 7796 0057 00       		.byte	0
 7797 0058 09       		.uleb128 0x9
 7798 0059 0D       		.uleb128 0xd
 7799 005a 00       		.byte	0
 7800 005b 03       		.uleb128 0x3
 7801 005c 08       		.uleb128 0x8
 7802 005d 3A       		.uleb128 0x3a
 7803 005e 0B       		.uleb128 0xb
 7804 005f 3B       		.uleb128 0x3b
 7805 0060 0B       		.uleb128 0xb
 7806 0061 49       		.uleb128 0x49
 7807 0062 13       		.uleb128 0x13
 7808 0063 38       		.uleb128 0x38
 7809 0064 0B       		.uleb128 0xb
 7810 0065 00       		.byte	0
 7811 0066 00       		.byte	0
 7812 0067 0A       		.uleb128 0xa
 7813 0068 0D       		.uleb128 0xd
 7814 0069 00       		.byte	0
 7815 006a 03       		.uleb128 0x3
 7816 006b 0E       		.uleb128 0xe
 7817 006c 3A       		.uleb128 0x3a
 7818 006d 0B       		.uleb128 0xb
 7819 006e 3B       		.uleb128 0x3b
 7820 006f 0B       		.uleb128 0xb
 7821 0070 49       		.uleb128 0x49
 7822 0071 13       		.uleb128 0x13
 7823 0072 38       		.uleb128 0x38
 7824 0073 0B       		.uleb128 0xb
 7825 0074 00       		.byte	0
 7826 0075 00       		.byte	0
 7827 0076 0B       		.uleb128 0xb
 7828 0077 0D       		.uleb128 0xd
 7829 0078 00       		.byte	0
 7830 0079 03       		.uleb128 0x3
 7831 007a 08       		.uleb128 0x8
 7832 007b 3A       		.uleb128 0x3a
 7833 007c 0B       		.uleb128 0xb
 7834 007d 3B       		.uleb128 0x3b
 7835 007e 0B       		.uleb128 0xb
 7836 007f 49       		.uleb128 0x49
 7837 0080 13       		.uleb128 0x13
 7838 0081 0B       		.uleb128 0xb
 7839 0082 0B       		.uleb128 0xb
 7840 0083 0D       		.uleb128 0xd
 7841 0084 0B       		.uleb128 0xb
 7842 0085 0C       		.uleb128 0xc
 7843 0086 0B       		.uleb128 0xb
 7844 0087 38       		.uleb128 0x38
 7845 0088 0B       		.uleb128 0xb
 7846 0089 00       		.byte	0
 7847 008a 00       		.byte	0
 7848 008b 0C       		.uleb128 0xc
 7849 008c 0D       		.uleb128 0xd
 7850 008d 00       		.byte	0
ARM GAS  C:\Users\haske\AppData\Local\Temp\ccU9uRZG.s 			page 154


 7851 008e 03       		.uleb128 0x3
 7852 008f 0E       		.uleb128 0xe
 7853 0090 3A       		.uleb128 0x3a
 7854 0091 0B       		.uleb128 0xb
 7855 0092 3B       		.uleb128 0x3b
 7856 0093 0B       		.uleb128 0xb
 7857 0094 49       		.uleb128 0x49
 7858 0095 13       		.uleb128 0x13
 7859 0096 0B       		.uleb128 0xb
 7860 0097 0B       		.uleb128 0xb
 7861 0098 0D       		.uleb128 0xd
 7862 0099 0B       		.uleb128 0xb
 7863 009a 0C       		.uleb128 0xc
 7864 009b 0B       		.uleb128 0xb
 7865 009c 38       		.uleb128 0x38
 7866 009d 0B       		.uleb128 0xb
 7867 009e 00       		.byte	0
 7868 009f 00       		.byte	0
 7869 00a0 0D       		.uleb128 0xd
 7870 00a1 13       		.uleb128 0x13
 7871 00a2 01       		.byte	0x1
 7872 00a3 03       		.uleb128 0x3
 7873 00a4 0E       		.uleb128 0xe
 7874 00a5 0B       		.uleb128 0xb
 7875 00a6 0B       		.uleb128 0xb
 7876 00a7 3A       		.uleb128 0x3a
 7877 00a8 0B       		.uleb128 0xb
 7878 00a9 3B       		.uleb128 0x3b
 7879 00aa 0B       		.uleb128 0xb
 7880 00ab 01       		.uleb128 0x1
 7881 00ac 13       		.uleb128 0x13
 7882 00ad 00       		.byte	0
 7883 00ae 00       		.byte	0
 7884 00af 0E       		.uleb128 0xe
 7885 00b0 26       		.uleb128 0x26
 7886 00b1 00       		.byte	0
 7887 00b2 49       		.uleb128 0x49
 7888 00b3 13       		.uleb128 0x13
 7889 00b4 00       		.byte	0
 7890 00b5 00       		.byte	0
 7891 00b6 0F       		.uleb128 0xf
 7892 00b7 15       		.uleb128 0x15
 7893 00b8 01       		.byte	0x1
 7894 00b9 27       		.uleb128 0x27
 7895 00ba 19       		.uleb128 0x19
 7896 00bb 49       		.uleb128 0x49
 7897 00bc 13       		.uleb128 0x13
 7898 00bd 01       		.uleb128 0x1
 7899 00be 13       		.uleb128 0x13
 7900 00bf 00       		.byte	0
 7901 00c0 00       		.byte	0
 7902 00c1 10       		.uleb128 0x10
 7903 00c2 05       		.uleb128 0x5
 7904 00c3 00       		.byte	0
 7905 00c4 49       		.uleb128 0x49
 7906 00c5 13       		.uleb128 0x13
 7907 00c6 00       		.byte	0
ARM GAS  C:\Users\haske\AppData\Local\Temp\ccU9uRZG.s 			page 155


 7908 00c7 00       		.byte	0
 7909 00c8 11       		.uleb128 0x11
 7910 00c9 04       		.uleb128 0x4
 7911 00ca 01       		.byte	0x1
 7912 00cb 0B       		.uleb128 0xb
 7913 00cc 0B       		.uleb128 0xb
 7914 00cd 49       		.uleb128 0x49
 7915 00ce 13       		.uleb128 0x13
 7916 00cf 3A       		.uleb128 0x3a
 7917 00d0 0B       		.uleb128 0xb
 7918 00d1 3B       		.uleb128 0x3b
 7919 00d2 0B       		.uleb128 0xb
 7920 00d3 01       		.uleb128 0x1
 7921 00d4 13       		.uleb128 0x13
 7922 00d5 00       		.byte	0
 7923 00d6 00       		.byte	0
 7924 00d7 12       		.uleb128 0x12
 7925 00d8 28       		.uleb128 0x28
 7926 00d9 00       		.byte	0
 7927 00da 03       		.uleb128 0x3
 7928 00db 0E       		.uleb128 0xe
 7929 00dc 1C       		.uleb128 0x1c
 7930 00dd 0B       		.uleb128 0xb
 7931 00de 00       		.byte	0
 7932 00df 00       		.byte	0
 7933 00e0 13       		.uleb128 0x13
 7934 00e1 17       		.uleb128 0x17
 7935 00e2 01       		.byte	0x1
 7936 00e3 0B       		.uleb128 0xb
 7937 00e4 0B       		.uleb128 0xb
 7938 00e5 3A       		.uleb128 0x3a
 7939 00e6 0B       		.uleb128 0xb
 7940 00e7 3B       		.uleb128 0x3b
 7941 00e8 0B       		.uleb128 0xb
 7942 00e9 01       		.uleb128 0x1
 7943 00ea 13       		.uleb128 0x13
 7944 00eb 00       		.byte	0
 7945 00ec 00       		.byte	0
 7946 00ed 14       		.uleb128 0x14
 7947 00ee 0D       		.uleb128 0xd
 7948 00ef 00       		.byte	0
 7949 00f0 03       		.uleb128 0x3
 7950 00f1 08       		.uleb128 0x8
 7951 00f2 3A       		.uleb128 0x3a
 7952 00f3 0B       		.uleb128 0xb
 7953 00f4 3B       		.uleb128 0x3b
 7954 00f5 0B       		.uleb128 0xb
 7955 00f6 49       		.uleb128 0x49
 7956 00f7 13       		.uleb128 0x13
 7957 00f8 00       		.byte	0
 7958 00f9 00       		.byte	0
 7959 00fa 15       		.uleb128 0x15
 7960 00fb 0D       		.uleb128 0xd
 7961 00fc 00       		.byte	0
 7962 00fd 03       		.uleb128 0x3
 7963 00fe 0E       		.uleb128 0xe
 7964 00ff 3A       		.uleb128 0x3a
ARM GAS  C:\Users\haske\AppData\Local\Temp\ccU9uRZG.s 			page 156


 7965 0100 0B       		.uleb128 0xb
 7966 0101 3B       		.uleb128 0x3b
 7967 0102 0B       		.uleb128 0xb
 7968 0103 49       		.uleb128 0x49
 7969 0104 13       		.uleb128 0x13
 7970 0105 00       		.byte	0
 7971 0106 00       		.byte	0
 7972 0107 16       		.uleb128 0x16
 7973 0108 15       		.uleb128 0x15
 7974 0109 01       		.byte	0x1
 7975 010a 27       		.uleb128 0x27
 7976 010b 19       		.uleb128 0x19
 7977 010c 01       		.uleb128 0x1
 7978 010d 13       		.uleb128 0x13
 7979 010e 00       		.byte	0
 7980 010f 00       		.byte	0
 7981 0110 17       		.uleb128 0x17
 7982 0111 01       		.uleb128 0x1
 7983 0112 01       		.byte	0x1
 7984 0113 49       		.uleb128 0x49
 7985 0114 13       		.uleb128 0x13
 7986 0115 01       		.uleb128 0x1
 7987 0116 13       		.uleb128 0x13
 7988 0117 00       		.byte	0
 7989 0118 00       		.byte	0
 7990 0119 18       		.uleb128 0x18
 7991 011a 21       		.uleb128 0x21
 7992 011b 00       		.byte	0
 7993 011c 49       		.uleb128 0x49
 7994 011d 13       		.uleb128 0x13
 7995 011e 2F       		.uleb128 0x2f
 7996 011f 0B       		.uleb128 0xb
 7997 0120 00       		.byte	0
 7998 0121 00       		.byte	0
 7999 0122 19       		.uleb128 0x19
 8000 0123 28       		.uleb128 0x28
 8001 0124 00       		.byte	0
 8002 0125 03       		.uleb128 0x3
 8003 0126 0E       		.uleb128 0xe
 8004 0127 1C       		.uleb128 0x1c
 8005 0128 05       		.uleb128 0x5
 8006 0129 00       		.byte	0
 8007 012a 00       		.byte	0
 8008 012b 1A       		.uleb128 0x1a
 8009 012c 16       		.uleb128 0x16
 8010 012d 00       		.byte	0
 8011 012e 03       		.uleb128 0x3
 8012 012f 0E       		.uleb128 0xe
 8013 0130 3A       		.uleb128 0x3a
 8014 0131 0B       		.uleb128 0xb
 8015 0132 3B       		.uleb128 0x3b
 8016 0133 05       		.uleb128 0x5
 8017 0134 49       		.uleb128 0x49
 8018 0135 13       		.uleb128 0x13
 8019 0136 00       		.byte	0
 8020 0137 00       		.byte	0
 8021 0138 1B       		.uleb128 0x1b
ARM GAS  C:\Users\haske\AppData\Local\Temp\ccU9uRZG.s 			page 157


 8022 0139 13       		.uleb128 0x13
 8023 013a 01       		.byte	0x1
 8024 013b 0B       		.uleb128 0xb
 8025 013c 0B       		.uleb128 0xb
 8026 013d 3A       		.uleb128 0x3a
 8027 013e 0B       		.uleb128 0xb
 8028 013f 3B       		.uleb128 0x3b
 8029 0140 05       		.uleb128 0x5
 8030 0141 01       		.uleb128 0x1
 8031 0142 13       		.uleb128 0x13
 8032 0143 00       		.byte	0
 8033 0144 00       		.byte	0
 8034 0145 1C       		.uleb128 0x1c
 8035 0146 0D       		.uleb128 0xd
 8036 0147 00       		.byte	0
 8037 0148 03       		.uleb128 0x3
 8038 0149 0E       		.uleb128 0xe
 8039 014a 3A       		.uleb128 0x3a
 8040 014b 0B       		.uleb128 0xb
 8041 014c 3B       		.uleb128 0x3b
 8042 014d 05       		.uleb128 0x5
 8043 014e 49       		.uleb128 0x49
 8044 014f 13       		.uleb128 0x13
 8045 0150 38       		.uleb128 0x38
 8046 0151 0B       		.uleb128 0xb
 8047 0152 00       		.byte	0
 8048 0153 00       		.byte	0
 8049 0154 1D       		.uleb128 0x1d
 8050 0155 17       		.uleb128 0x17
 8051 0156 01       		.byte	0x1
 8052 0157 0B       		.uleb128 0xb
 8053 0158 0B       		.uleb128 0xb
 8054 0159 3A       		.uleb128 0x3a
 8055 015a 0B       		.uleb128 0xb
 8056 015b 3B       		.uleb128 0x3b
 8057 015c 05       		.uleb128 0x5
 8058 015d 01       		.uleb128 0x1
 8059 015e 13       		.uleb128 0x13
 8060 015f 00       		.byte	0
 8061 0160 00       		.byte	0
 8062 0161 1E       		.uleb128 0x1e
 8063 0162 0D       		.uleb128 0xd
 8064 0163 00       		.byte	0
 8065 0164 03       		.uleb128 0x3
 8066 0165 0E       		.uleb128 0xe
 8067 0166 3A       		.uleb128 0x3a
 8068 0167 0B       		.uleb128 0xb
 8069 0168 3B       		.uleb128 0x3b
 8070 0169 05       		.uleb128 0x5
 8071 016a 49       		.uleb128 0x49
 8072 016b 13       		.uleb128 0x13
 8073 016c 00       		.byte	0
 8074 016d 00       		.byte	0
 8075 016e 1F       		.uleb128 0x1f
 8076 016f 0D       		.uleb128 0xd
 8077 0170 00       		.byte	0
 8078 0171 03       		.uleb128 0x3
ARM GAS  C:\Users\haske\AppData\Local\Temp\ccU9uRZG.s 			page 158


 8079 0172 08       		.uleb128 0x8
 8080 0173 3A       		.uleb128 0x3a
 8081 0174 0B       		.uleb128 0xb
 8082 0175 3B       		.uleb128 0x3b
 8083 0176 05       		.uleb128 0x5
 8084 0177 49       		.uleb128 0x49
 8085 0178 13       		.uleb128 0x13
 8086 0179 38       		.uleb128 0x38
 8087 017a 0B       		.uleb128 0xb
 8088 017b 00       		.byte	0
 8089 017c 00       		.byte	0
 8090 017d 20       		.uleb128 0x20
 8091 017e 35       		.uleb128 0x35
 8092 017f 00       		.byte	0
 8093 0180 49       		.uleb128 0x49
 8094 0181 13       		.uleb128 0x13
 8095 0182 00       		.byte	0
 8096 0183 00       		.byte	0
 8097 0184 21       		.uleb128 0x21
 8098 0185 13       		.uleb128 0x13
 8099 0186 01       		.byte	0x1
 8100 0187 03       		.uleb128 0x3
 8101 0188 0E       		.uleb128 0xe
 8102 0189 0B       		.uleb128 0xb
 8103 018a 05       		.uleb128 0x5
 8104 018b 3A       		.uleb128 0x3a
 8105 018c 0B       		.uleb128 0xb
 8106 018d 3B       		.uleb128 0x3b
 8107 018e 0B       		.uleb128 0xb
 8108 018f 01       		.uleb128 0x1
 8109 0190 13       		.uleb128 0x13
 8110 0191 00       		.byte	0
 8111 0192 00       		.byte	0
 8112 0193 22       		.uleb128 0x22
 8113 0194 0D       		.uleb128 0xd
 8114 0195 00       		.byte	0
 8115 0196 03       		.uleb128 0x3
 8116 0197 0E       		.uleb128 0xe
 8117 0198 3A       		.uleb128 0x3a
 8118 0199 0B       		.uleb128 0xb
 8119 019a 3B       		.uleb128 0x3b
 8120 019b 0B       		.uleb128 0xb
 8121 019c 49       		.uleb128 0x49
 8122 019d 13       		.uleb128 0x13
 8123 019e 38       		.uleb128 0x38
 8124 019f 05       		.uleb128 0x5
 8125 01a0 00       		.byte	0
 8126 01a1 00       		.byte	0
 8127 01a2 23       		.uleb128 0x23
 8128 01a3 13       		.uleb128 0x13
 8129 01a4 00       		.byte	0
 8130 01a5 03       		.uleb128 0x3
 8131 01a6 0E       		.uleb128 0xe
 8132 01a7 3C       		.uleb128 0x3c
 8133 01a8 19       		.uleb128 0x19
 8134 01a9 00       		.byte	0
 8135 01aa 00       		.byte	0
ARM GAS  C:\Users\haske\AppData\Local\Temp\ccU9uRZG.s 			page 159


 8136 01ab 24       		.uleb128 0x24
 8137 01ac 2E       		.uleb128 0x2e
 8138 01ad 01       		.byte	0x1
 8139 01ae 03       		.uleb128 0x3
 8140 01af 0E       		.uleb128 0xe
 8141 01b0 3A       		.uleb128 0x3a
 8142 01b1 0B       		.uleb128 0xb
 8143 01b2 3B       		.uleb128 0x3b
 8144 01b3 0B       		.uleb128 0xb
 8145 01b4 27       		.uleb128 0x27
 8146 01b5 19       		.uleb128 0x19
 8147 01b6 20       		.uleb128 0x20
 8148 01b7 0B       		.uleb128 0xb
 8149 01b8 01       		.uleb128 0x1
 8150 01b9 13       		.uleb128 0x13
 8151 01ba 00       		.byte	0
 8152 01bb 00       		.byte	0
 8153 01bc 25       		.uleb128 0x25
 8154 01bd 05       		.uleb128 0x5
 8155 01be 00       		.byte	0
 8156 01bf 03       		.uleb128 0x3
 8157 01c0 08       		.uleb128 0x8
 8158 01c1 3A       		.uleb128 0x3a
 8159 01c2 0B       		.uleb128 0xb
 8160 01c3 3B       		.uleb128 0x3b
 8161 01c4 0B       		.uleb128 0xb
 8162 01c5 49       		.uleb128 0x49
 8163 01c6 13       		.uleb128 0x13
 8164 01c7 00       		.byte	0
 8165 01c8 00       		.byte	0
 8166 01c9 26       		.uleb128 0x26
 8167 01ca 05       		.uleb128 0x5
 8168 01cb 00       		.byte	0
 8169 01cc 03       		.uleb128 0x3
 8170 01cd 0E       		.uleb128 0xe
 8171 01ce 3A       		.uleb128 0x3a
 8172 01cf 0B       		.uleb128 0xb
 8173 01d0 3B       		.uleb128 0x3b
 8174 01d1 0B       		.uleb128 0xb
 8175 01d2 49       		.uleb128 0x49
 8176 01d3 13       		.uleb128 0x13
 8177 01d4 00       		.byte	0
 8178 01d5 00       		.byte	0
 8179 01d6 27       		.uleb128 0x27
 8180 01d7 2E       		.uleb128 0x2e
 8181 01d8 01       		.byte	0x1
 8182 01d9 3F       		.uleb128 0x3f
 8183 01da 19       		.uleb128 0x19
 8184 01db 03       		.uleb128 0x3
 8185 01dc 0E       		.uleb128 0xe
 8186 01dd 3A       		.uleb128 0x3a
 8187 01de 0B       		.uleb128 0xb
 8188 01df 3B       		.uleb128 0x3b
 8189 01e0 0B       		.uleb128 0xb
 8190 01e1 27       		.uleb128 0x27
 8191 01e2 19       		.uleb128 0x19
 8192 01e3 11       		.uleb128 0x11
ARM GAS  C:\Users\haske\AppData\Local\Temp\ccU9uRZG.s 			page 160


 8193 01e4 01       		.uleb128 0x1
 8194 01e5 12       		.uleb128 0x12
 8195 01e6 06       		.uleb128 0x6
 8196 01e7 40       		.uleb128 0x40
 8197 01e8 18       		.uleb128 0x18
 8198 01e9 9742     		.uleb128 0x2117
 8199 01eb 19       		.uleb128 0x19
 8200 01ec 01       		.uleb128 0x1
 8201 01ed 13       		.uleb128 0x13
 8202 01ee 00       		.byte	0
 8203 01ef 00       		.byte	0
 8204 01f0 28       		.uleb128 0x28
 8205 01f1 05       		.uleb128 0x5
 8206 01f2 00       		.byte	0
 8207 01f3 03       		.uleb128 0x3
 8208 01f4 08       		.uleb128 0x8
 8209 01f5 3A       		.uleb128 0x3a
 8210 01f6 0B       		.uleb128 0xb
 8211 01f7 3B       		.uleb128 0x3b
 8212 01f8 0B       		.uleb128 0xb
 8213 01f9 49       		.uleb128 0x49
 8214 01fa 13       		.uleb128 0x13
 8215 01fb 02       		.uleb128 0x2
 8216 01fc 17       		.uleb128 0x17
 8217 01fd 00       		.byte	0
 8218 01fe 00       		.byte	0
 8219 01ff 29       		.uleb128 0x29
 8220 0200 05       		.uleb128 0x5
 8221 0201 00       		.byte	0
 8222 0202 03       		.uleb128 0x3
 8223 0203 0E       		.uleb128 0xe
 8224 0204 3A       		.uleb128 0x3a
 8225 0205 0B       		.uleb128 0xb
 8226 0206 3B       		.uleb128 0x3b
 8227 0207 0B       		.uleb128 0xb
 8228 0208 49       		.uleb128 0x49
 8229 0209 13       		.uleb128 0x13
 8230 020a 02       		.uleb128 0x2
 8231 020b 17       		.uleb128 0x17
 8232 020c 00       		.byte	0
 8233 020d 00       		.byte	0
 8234 020e 2A       		.uleb128 0x2a
 8235 020f 34       		.uleb128 0x34
 8236 0210 00       		.byte	0
 8237 0211 03       		.uleb128 0x3
 8238 0212 08       		.uleb128 0x8
 8239 0213 3A       		.uleb128 0x3a
 8240 0214 0B       		.uleb128 0xb
 8241 0215 3B       		.uleb128 0x3b
 8242 0216 0B       		.uleb128 0xb
 8243 0217 49       		.uleb128 0x49
 8244 0218 13       		.uleb128 0x13
 8245 0219 02       		.uleb128 0x2
 8246 021a 18       		.uleb128 0x18
 8247 021b 00       		.byte	0
 8248 021c 00       		.byte	0
 8249 021d 2B       		.uleb128 0x2b
ARM GAS  C:\Users\haske\AppData\Local\Temp\ccU9uRZG.s 			page 161


 8250 021e 1D       		.uleb128 0x1d
 8251 021f 01       		.byte	0x1
 8252 0220 31       		.uleb128 0x31
 8253 0221 13       		.uleb128 0x13
 8254 0222 11       		.uleb128 0x11
 8255 0223 01       		.uleb128 0x1
 8256 0224 12       		.uleb128 0x12
 8257 0225 06       		.uleb128 0x6
 8258 0226 58       		.uleb128 0x58
 8259 0227 0B       		.uleb128 0xb
 8260 0228 59       		.uleb128 0x59
 8261 0229 0B       		.uleb128 0xb
 8262 022a 01       		.uleb128 0x1
 8263 022b 13       		.uleb128 0x13
 8264 022c 00       		.byte	0
 8265 022d 00       		.byte	0
 8266 022e 2C       		.uleb128 0x2c
 8267 022f 05       		.uleb128 0x5
 8268 0230 00       		.byte	0
 8269 0231 31       		.uleb128 0x31
 8270 0232 13       		.uleb128 0x13
 8271 0233 02       		.uleb128 0x2
 8272 0234 17       		.uleb128 0x17
 8273 0235 00       		.byte	0
 8274 0236 00       		.byte	0
 8275 0237 2D       		.uleb128 0x2d
 8276 0238 898201   		.uleb128 0x4109
 8277 023b 01       		.byte	0x1
 8278 023c 11       		.uleb128 0x11
 8279 023d 01       		.uleb128 0x1
 8280 023e 31       		.uleb128 0x31
 8281 023f 13       		.uleb128 0x13
 8282 0240 01       		.uleb128 0x1
 8283 0241 13       		.uleb128 0x13
 8284 0242 00       		.byte	0
 8285 0243 00       		.byte	0
 8286 0244 2E       		.uleb128 0x2e
 8287 0245 8A8201   		.uleb128 0x410a
 8288 0248 00       		.byte	0
 8289 0249 02       		.uleb128 0x2
 8290 024a 18       		.uleb128 0x18
 8291 024b 9142     		.uleb128 0x2111
 8292 024d 18       		.uleb128 0x18
 8293 024e 00       		.byte	0
 8294 024f 00       		.byte	0
 8295 0250 2F       		.uleb128 0x2f
 8296 0251 898201   		.uleb128 0x4109
 8297 0254 01       		.byte	0x1
 8298 0255 11       		.uleb128 0x11
 8299 0256 01       		.uleb128 0x1
 8300 0257 31       		.uleb128 0x31
 8301 0258 13       		.uleb128 0x13
 8302 0259 00       		.byte	0
 8303 025a 00       		.byte	0
 8304 025b 30       		.uleb128 0x30
 8305 025c 2E       		.uleb128 0x2e
 8306 025d 01       		.byte	0x1
ARM GAS  C:\Users\haske\AppData\Local\Temp\ccU9uRZG.s 			page 162


 8307 025e 3F       		.uleb128 0x3f
 8308 025f 19       		.uleb128 0x19
 8309 0260 03       		.uleb128 0x3
 8310 0261 0E       		.uleb128 0xe
 8311 0262 3A       		.uleb128 0x3a
 8312 0263 0B       		.uleb128 0xb
 8313 0264 3B       		.uleb128 0x3b
 8314 0265 05       		.uleb128 0x5
 8315 0266 27       		.uleb128 0x27
 8316 0267 19       		.uleb128 0x19
 8317 0268 49       		.uleb128 0x49
 8318 0269 13       		.uleb128 0x13
 8319 026a 11       		.uleb128 0x11
 8320 026b 01       		.uleb128 0x1
 8321 026c 12       		.uleb128 0x12
 8322 026d 06       		.uleb128 0x6
 8323 026e 40       		.uleb128 0x40
 8324 026f 18       		.uleb128 0x18
 8325 0270 9742     		.uleb128 0x2117
 8326 0272 19       		.uleb128 0x19
 8327 0273 01       		.uleb128 0x1
 8328 0274 13       		.uleb128 0x13
 8329 0275 00       		.byte	0
 8330 0276 00       		.byte	0
 8331 0277 31       		.uleb128 0x31
 8332 0278 05       		.uleb128 0x5
 8333 0279 00       		.byte	0
 8334 027a 03       		.uleb128 0x3
 8335 027b 08       		.uleb128 0x8
 8336 027c 3A       		.uleb128 0x3a
 8337 027d 0B       		.uleb128 0xb
 8338 027e 3B       		.uleb128 0x3b
 8339 027f 05       		.uleb128 0x5
 8340 0280 49       		.uleb128 0x49
 8341 0281 13       		.uleb128 0x13
 8342 0282 02       		.uleb128 0x2
 8343 0283 17       		.uleb128 0x17
 8344 0284 00       		.byte	0
 8345 0285 00       		.byte	0
 8346 0286 32       		.uleb128 0x32
 8347 0287 2E       		.uleb128 0x2e
 8348 0288 01       		.byte	0x1
 8349 0289 3F       		.uleb128 0x3f
 8350 028a 19       		.uleb128 0x19
 8351 028b 03       		.uleb128 0x3
 8352 028c 0E       		.uleb128 0xe
 8353 028d 3A       		.uleb128 0x3a
 8354 028e 0B       		.uleb128 0xb
 8355 028f 3B       		.uleb128 0x3b
 8356 0290 0B       		.uleb128 0xb
 8357 0291 27       		.uleb128 0x27
 8358 0292 19       		.uleb128 0x19
 8359 0293 49       		.uleb128 0x49
 8360 0294 13       		.uleb128 0x13
 8361 0295 11       		.uleb128 0x11
 8362 0296 01       		.uleb128 0x1
 8363 0297 12       		.uleb128 0x12
ARM GAS  C:\Users\haske\AppData\Local\Temp\ccU9uRZG.s 			page 163


 8364 0298 06       		.uleb128 0x6
 8365 0299 40       		.uleb128 0x40
 8366 029a 18       		.uleb128 0x18
 8367 029b 9742     		.uleb128 0x2117
 8368 029d 19       		.uleb128 0x19
 8369 029e 01       		.uleb128 0x1
 8370 029f 13       		.uleb128 0x13
 8371 02a0 00       		.byte	0
 8372 02a1 00       		.byte	0
 8373 02a2 33       		.uleb128 0x33
 8374 02a3 34       		.uleb128 0x34
 8375 02a4 00       		.byte	0
 8376 02a5 03       		.uleb128 0x3
 8377 02a6 08       		.uleb128 0x8
 8378 02a7 3A       		.uleb128 0x3a
 8379 02a8 0B       		.uleb128 0xb
 8380 02a9 3B       		.uleb128 0x3b
 8381 02aa 05       		.uleb128 0x5
 8382 02ab 49       		.uleb128 0x49
 8383 02ac 13       		.uleb128 0x13
 8384 02ad 02       		.uleb128 0x2
 8385 02ae 17       		.uleb128 0x17
 8386 02af 00       		.byte	0
 8387 02b0 00       		.byte	0
 8388 02b1 34       		.uleb128 0x34
 8389 02b2 34       		.uleb128 0x34
 8390 02b3 00       		.byte	0
 8391 02b4 03       		.uleb128 0x3
 8392 02b5 0E       		.uleb128 0xe
 8393 02b6 3A       		.uleb128 0x3a
 8394 02b7 0B       		.uleb128 0xb
 8395 02b8 3B       		.uleb128 0x3b
 8396 02b9 05       		.uleb128 0x5
 8397 02ba 49       		.uleb128 0x49
 8398 02bb 13       		.uleb128 0x13
 8399 02bc 02       		.uleb128 0x2
 8400 02bd 17       		.uleb128 0x17
 8401 02be 00       		.byte	0
 8402 02bf 00       		.byte	0
 8403 02c0 35       		.uleb128 0x35
 8404 02c1 0B       		.uleb128 0xb
 8405 02c2 01       		.byte	0x1
 8406 02c3 55       		.uleb128 0x55
 8407 02c4 17       		.uleb128 0x17
 8408 02c5 01       		.uleb128 0x1
 8409 02c6 13       		.uleb128 0x13
 8410 02c7 00       		.byte	0
 8411 02c8 00       		.byte	0
 8412 02c9 36       		.uleb128 0x36
 8413 02ca 898201   		.uleb128 0x4109
 8414 02cd 00       		.byte	0
 8415 02ce 11       		.uleb128 0x11
 8416 02cf 01       		.uleb128 0x1
 8417 02d0 31       		.uleb128 0x31
 8418 02d1 13       		.uleb128 0x13
 8419 02d2 00       		.byte	0
 8420 02d3 00       		.byte	0
ARM GAS  C:\Users\haske\AppData\Local\Temp\ccU9uRZG.s 			page 164


 8421 02d4 37       		.uleb128 0x37
 8422 02d5 2E       		.uleb128 0x2e
 8423 02d6 01       		.byte	0x1
 8424 02d7 03       		.uleb128 0x3
 8425 02d8 0E       		.uleb128 0xe
 8426 02d9 3A       		.uleb128 0x3a
 8427 02da 0B       		.uleb128 0xb
 8428 02db 3B       		.uleb128 0x3b
 8429 02dc 05       		.uleb128 0x5
 8430 02dd 27       		.uleb128 0x27
 8431 02de 19       		.uleb128 0x19
 8432 02df 49       		.uleb128 0x49
 8433 02e0 13       		.uleb128 0x13
 8434 02e1 11       		.uleb128 0x11
 8435 02e2 01       		.uleb128 0x1
 8436 02e3 12       		.uleb128 0x12
 8437 02e4 06       		.uleb128 0x6
 8438 02e5 40       		.uleb128 0x40
 8439 02e6 18       		.uleb128 0x18
 8440 02e7 9742     		.uleb128 0x2117
 8441 02e9 19       		.uleb128 0x19
 8442 02ea 01       		.uleb128 0x1
 8443 02eb 13       		.uleb128 0x13
 8444 02ec 00       		.byte	0
 8445 02ed 00       		.byte	0
 8446 02ee 38       		.uleb128 0x38
 8447 02ef 05       		.uleb128 0x5
 8448 02f0 00       		.byte	0
 8449 02f1 03       		.uleb128 0x3
 8450 02f2 0E       		.uleb128 0xe
 8451 02f3 3A       		.uleb128 0x3a
 8452 02f4 0B       		.uleb128 0xb
 8453 02f5 3B       		.uleb128 0x3b
 8454 02f6 05       		.uleb128 0x5
 8455 02f7 49       		.uleb128 0x49
 8456 02f8 13       		.uleb128 0x13
 8457 02f9 02       		.uleb128 0x2
 8458 02fa 17       		.uleb128 0x17
 8459 02fb 00       		.byte	0
 8460 02fc 00       		.byte	0
 8461 02fd 39       		.uleb128 0x39
 8462 02fe 0B       		.uleb128 0xb
 8463 02ff 01       		.byte	0x1
 8464 0300 11       		.uleb128 0x11
 8465 0301 01       		.uleb128 0x1
 8466 0302 12       		.uleb128 0x12
 8467 0303 06       		.uleb128 0x6
 8468 0304 01       		.uleb128 0x1
 8469 0305 13       		.uleb128 0x13
 8470 0306 00       		.byte	0
 8471 0307 00       		.byte	0
 8472 0308 3A       		.uleb128 0x3a
 8473 0309 898201   		.uleb128 0x4109
 8474 030c 01       		.byte	0x1
 8475 030d 11       		.uleb128 0x11
 8476 030e 01       		.uleb128 0x1
 8477 030f 00       		.byte	0
ARM GAS  C:\Users\haske\AppData\Local\Temp\ccU9uRZG.s 			page 165


 8478 0310 00       		.byte	0
 8479 0311 3B       		.uleb128 0x3b
 8480 0312 2E       		.uleb128 0x2e
 8481 0313 01       		.byte	0x1
 8482 0314 03       		.uleb128 0x3
 8483 0315 0E       		.uleb128 0xe
 8484 0316 3A       		.uleb128 0x3a
 8485 0317 0B       		.uleb128 0xb
 8486 0318 3B       		.uleb128 0x3b
 8487 0319 05       		.uleb128 0x5
 8488 031a 27       		.uleb128 0x27
 8489 031b 19       		.uleb128 0x19
 8490 031c 11       		.uleb128 0x11
 8491 031d 01       		.uleb128 0x1
 8492 031e 12       		.uleb128 0x12
 8493 031f 06       		.uleb128 0x6
 8494 0320 40       		.uleb128 0x40
 8495 0321 18       		.uleb128 0x18
 8496 0322 9742     		.uleb128 0x2117
 8497 0324 19       		.uleb128 0x19
 8498 0325 01       		.uleb128 0x1
 8499 0326 13       		.uleb128 0x13
 8500 0327 00       		.byte	0
 8501 0328 00       		.byte	0
 8502 0329 3C       		.uleb128 0x3c
 8503 032a 34       		.uleb128 0x34
 8504 032b 00       		.byte	0
 8505 032c 03       		.uleb128 0x3
 8506 032d 08       		.uleb128 0x8
 8507 032e 3A       		.uleb128 0x3a
 8508 032f 0B       		.uleb128 0xb
 8509 0330 3B       		.uleb128 0x3b
 8510 0331 05       		.uleb128 0x5
 8511 0332 49       		.uleb128 0x49
 8512 0333 13       		.uleb128 0x13
 8513 0334 00       		.byte	0
 8514 0335 00       		.byte	0
 8515 0336 3D       		.uleb128 0x3d
 8516 0337 34       		.uleb128 0x34
 8517 0338 00       		.byte	0
 8518 0339 03       		.uleb128 0x3
 8519 033a 08       		.uleb128 0x8
 8520 033b 3A       		.uleb128 0x3a
 8521 033c 0B       		.uleb128 0xb
 8522 033d 3B       		.uleb128 0x3b
 8523 033e 0B       		.uleb128 0xb
 8524 033f 49       		.uleb128 0x49
 8525 0340 13       		.uleb128 0x13
 8526 0341 02       		.uleb128 0x2
 8527 0342 17       		.uleb128 0x17
 8528 0343 00       		.byte	0
 8529 0344 00       		.byte	0
 8530 0345 3E       		.uleb128 0x3e
 8531 0346 34       		.uleb128 0x34
 8532 0347 00       		.byte	0
 8533 0348 03       		.uleb128 0x3
 8534 0349 0E       		.uleb128 0xe
ARM GAS  C:\Users\haske\AppData\Local\Temp\ccU9uRZG.s 			page 166


 8535 034a 3A       		.uleb128 0x3a
 8536 034b 0B       		.uleb128 0xb
 8537 034c 3B       		.uleb128 0x3b
 8538 034d 0B       		.uleb128 0xb
 8539 034e 49       		.uleb128 0x49
 8540 034f 13       		.uleb128 0x13
 8541 0350 02       		.uleb128 0x2
 8542 0351 17       		.uleb128 0x17
 8543 0352 00       		.byte	0
 8544 0353 00       		.byte	0
 8545 0354 3F       		.uleb128 0x3f
 8546 0355 2E       		.uleb128 0x2e
 8547 0356 01       		.byte	0x1
 8548 0357 3F       		.uleb128 0x3f
 8549 0358 19       		.uleb128 0x19
 8550 0359 03       		.uleb128 0x3
 8551 035a 0E       		.uleb128 0xe
 8552 035b 3A       		.uleb128 0x3a
 8553 035c 0B       		.uleb128 0xb
 8554 035d 3B       		.uleb128 0x3b
 8555 035e 05       		.uleb128 0x5
 8556 035f 27       		.uleb128 0x27
 8557 0360 19       		.uleb128 0x19
 8558 0361 11       		.uleb128 0x11
 8559 0362 01       		.uleb128 0x1
 8560 0363 12       		.uleb128 0x12
 8561 0364 06       		.uleb128 0x6
 8562 0365 40       		.uleb128 0x40
 8563 0366 18       		.uleb128 0x18
 8564 0367 9742     		.uleb128 0x2117
 8565 0369 19       		.uleb128 0x19
 8566 036a 01       		.uleb128 0x1
 8567 036b 13       		.uleb128 0x13
 8568 036c 00       		.byte	0
 8569 036d 00       		.byte	0
 8570 036e 40       		.uleb128 0x40
 8571 036f 34       		.uleb128 0x34
 8572 0370 00       		.byte	0
 8573 0371 03       		.uleb128 0x3
 8574 0372 0E       		.uleb128 0xe
 8575 0373 3A       		.uleb128 0x3a
 8576 0374 0B       		.uleb128 0xb
 8577 0375 3B       		.uleb128 0x3b
 8578 0376 0B       		.uleb128 0xb
 8579 0377 49       		.uleb128 0x49
 8580 0378 13       		.uleb128 0x13
 8581 0379 3F       		.uleb128 0x3f
 8582 037a 19       		.uleb128 0x19
 8583 037b 3C       		.uleb128 0x3c
 8584 037c 19       		.uleb128 0x19
 8585 037d 00       		.byte	0
 8586 037e 00       		.byte	0
 8587 037f 41       		.uleb128 0x41
 8588 0380 2E       		.uleb128 0x2e
 8589 0381 00       		.byte	0
 8590 0382 3F       		.uleb128 0x3f
 8591 0383 19       		.uleb128 0x19
ARM GAS  C:\Users\haske\AppData\Local\Temp\ccU9uRZG.s 			page 167


 8592 0384 3C       		.uleb128 0x3c
 8593 0385 19       		.uleb128 0x19
 8594 0386 6E       		.uleb128 0x6e
 8595 0387 0E       		.uleb128 0xe
 8596 0388 03       		.uleb128 0x3
 8597 0389 0E       		.uleb128 0xe
 8598 038a 3A       		.uleb128 0x3a
 8599 038b 0B       		.uleb128 0xb
 8600 038c 3B       		.uleb128 0x3b
 8601 038d 0B       		.uleb128 0xb
 8602 038e 00       		.byte	0
 8603 038f 00       		.byte	0
 8604 0390 42       		.uleb128 0x42
 8605 0391 2E       		.uleb128 0x2e
 8606 0392 00       		.byte	0
 8607 0393 3F       		.uleb128 0x3f
 8608 0394 19       		.uleb128 0x19
 8609 0395 3C       		.uleb128 0x3c
 8610 0396 19       		.uleb128 0x19
 8611 0397 6E       		.uleb128 0x6e
 8612 0398 0E       		.uleb128 0xe
 8613 0399 03       		.uleb128 0x3
 8614 039a 0E       		.uleb128 0xe
 8615 039b 3A       		.uleb128 0x3a
 8616 039c 0B       		.uleb128 0xb
 8617 039d 3B       		.uleb128 0x3b
 8618 039e 05       		.uleb128 0x5
 8619 039f 00       		.byte	0
 8620 03a0 00       		.byte	0
 8621 03a1 00       		.byte	0
 8622              		.section	.debug_loc,"",%progbits
 8623              	.Ldebug_loc0:
 8624              	.LLST0:
 8625 0000 00000000 		.4byte	.LVL0
 8626 0004 0A000000 		.4byte	.LVL1
 8627 0008 0100     		.2byte	0x1
 8628 000a 50       		.byte	0x50
 8629 000b 0A000000 		.4byte	.LVL1
 8630 000f 28000000 		.4byte	.LVL11
 8631 0013 0100     		.2byte	0x1
 8632 0015 55       		.byte	0x55
 8633 0016 28000000 		.4byte	.LVL11
 8634 001a 30000000 		.4byte	.LFE161
 8635 001e 0400     		.2byte	0x4
 8636 0020 F3       		.byte	0xf3
 8637 0021 01       		.uleb128 0x1
 8638 0022 50       		.byte	0x50
 8639 0023 9F       		.byte	0x9f
 8640 0024 00000000 		.4byte	0
 8641 0028 00000000 		.4byte	0
 8642              	.LLST1:
 8643 002c 00000000 		.4byte	.LVL0
 8644 0030 0D000000 		.4byte	.LVL2-1
 8645 0034 0100     		.2byte	0x1
 8646 0036 51       		.byte	0x51
 8647 0037 0D000000 		.4byte	.LVL2-1
 8648 003b 1A000000 		.4byte	.LVL6
ARM GAS  C:\Users\haske\AppData\Local\Temp\ccU9uRZG.s 			page 168


 8649 003f 0100     		.2byte	0x1
 8650 0041 54       		.byte	0x54
 8651 0042 1A000000 		.4byte	.LVL6
 8652 0046 28000000 		.4byte	.LVL10
 8653 004a 0400     		.2byte	0x4
 8654 004c 74       		.byte	0x74
 8655 004d 00       		.sleb128 0
 8656 004e 1F       		.byte	0x1f
 8657 004f 9F       		.byte	0x9f
 8658 0050 28000000 		.4byte	.LVL10
 8659 0054 30000000 		.4byte	.LFE161
 8660 0058 0400     		.2byte	0x4
 8661 005a F3       		.byte	0xf3
 8662 005b 01       		.uleb128 0x1
 8663 005c 51       		.byte	0x51
 8664 005d 9F       		.byte	0x9f
 8665 005e 00000000 		.4byte	0
 8666 0062 00000000 		.4byte	0
 8667              	.LLST2:
 8668 0066 0E000000 		.4byte	.LVL2
 8669 006a 10000000 		.4byte	.LVL3
 8670 006e 0100     		.2byte	0x1
 8671 0070 55       		.byte	0x55
 8672 0071 00000000 		.4byte	0
 8673 0075 00000000 		.4byte	0
 8674              	.LLST3:
 8675 0079 0E000000 		.4byte	.LVL2
 8676 007d 10000000 		.4byte	.LVL3
 8677 0081 0400     		.2byte	0x4
 8678 0083 91       		.byte	0x91
 8679 0084 AC7F     		.sleb128 -84
 8680 0086 9F       		.byte	0x9f
 8681 0087 00000000 		.4byte	0
 8682 008b 00000000 		.4byte	0
 8683              	.LLST4:
 8684 008f 10000000 		.4byte	.LVL3
 8685 0093 14000000 		.4byte	.LVL4
 8686 0097 0200     		.2byte	0x2
 8687 0099 30       		.byte	0x30
 8688 009a 9F       		.byte	0x9f
 8689 009b 00000000 		.4byte	0
 8690 009f 00000000 		.4byte	0
 8691              	.LLST5:
 8692 00a3 10000000 		.4byte	.LVL3
 8693 00a7 14000000 		.4byte	.LVL4
 8694 00ab 0400     		.2byte	0x4
 8695 00ad 91       		.byte	0x91
 8696 00ae AC7F     		.sleb128 -84
 8697 00b0 9F       		.byte	0x9f
 8698 00b1 00000000 		.4byte	0
 8699 00b5 00000000 		.4byte	0
 8700              	.LLST6:
 8701 00b9 14000000 		.4byte	.LVL4
 8702 00bd 18000000 		.4byte	.LVL5
 8703 00c1 0200     		.2byte	0x2
 8704 00c3 31       		.byte	0x31
 8705 00c4 9F       		.byte	0x9f
ARM GAS  C:\Users\haske\AppData\Local\Temp\ccU9uRZG.s 			page 169


 8706 00c5 00000000 		.4byte	0
 8707 00c9 00000000 		.4byte	0
 8708              	.LLST7:
 8709 00cd 14000000 		.4byte	.LVL4
 8710 00d1 18000000 		.4byte	.LVL5
 8711 00d5 0400     		.2byte	0x4
 8712 00d7 91       		.byte	0x91
 8713 00d8 AC7F     		.sleb128 -84
 8714 00da 9F       		.byte	0x9f
 8715 00db 00000000 		.4byte	0
 8716 00df 00000000 		.4byte	0
 8717              	.LLST8:
 8718 00e3 18000000 		.4byte	.LVL5
 8719 00e7 1A000000 		.4byte	.LVL6
 8720 00eb 0100     		.2byte	0x1
 8721 00ed 54       		.byte	0x54
 8722 00ee 1A000000 		.4byte	.LVL6
 8723 00f2 1C000000 		.4byte	.LVL7
 8724 00f6 0400     		.2byte	0x4
 8725 00f8 74       		.byte	0x74
 8726 00f9 00       		.sleb128 0
 8727 00fa 1F       		.byte	0x1f
 8728 00fb 9F       		.byte	0x9f
 8729 00fc 00000000 		.4byte	0
 8730 0100 00000000 		.4byte	0
 8731              	.LLST9:
 8732 0104 18000000 		.4byte	.LVL5
 8733 0108 1C000000 		.4byte	.LVL7
 8734 010c 0400     		.2byte	0x4
 8735 010e 91       		.byte	0x91
 8736 010f AC7F     		.sleb128 -84
 8737 0111 9F       		.byte	0x9f
 8738 0112 00000000 		.4byte	0
 8739 0116 00000000 		.4byte	0
 8740              	.LLST10:
 8741 011a 1C000000 		.4byte	.LVL7
 8742 011e 20000000 		.4byte	.LVL8
 8743 0122 0600     		.2byte	0x6
 8744 0124 03       		.byte	0x3
 8745 0125 00000000 		.4byte	lv_obj_del_anim_ready_cb
 8746 0129 9F       		.byte	0x9f
 8747 012a 00000000 		.4byte	0
 8748 012e 00000000 		.4byte	0
 8749              	.LLST11:
 8750 0132 1C000000 		.4byte	.LVL7
 8751 0136 20000000 		.4byte	.LVL8
 8752 013a 0400     		.2byte	0x4
 8753 013c 91       		.byte	0x91
 8754 013d AC7F     		.sleb128 -84
 8755 013f 9F       		.byte	0x9f
 8756 0140 00000000 		.4byte	0
 8757 0144 00000000 		.4byte	0
 8758              	.LLST12:
 8759 0148 00000000 		.4byte	.LVL12
 8760 014c 06000000 		.4byte	.LVL13
 8761 0150 0100     		.2byte	0x1
 8762 0152 50       		.byte	0x50
ARM GAS  C:\Users\haske\AppData\Local\Temp\ccU9uRZG.s 			page 170


 8763 0153 06000000 		.4byte	.LVL13
 8764 0157 09000000 		.4byte	.LVL14-1
 8765 015b 0100     		.2byte	0x1
 8766 015d 51       		.byte	0x51
 8767 015e 09000000 		.4byte	.LVL14-1
 8768 0162 10000000 		.4byte	.LFE163
 8769 0166 0400     		.2byte	0x4
 8770 0168 F3       		.byte	0xf3
 8771 0169 01       		.uleb128 0x1
 8772 016a 50       		.byte	0x50
 8773 016b 9F       		.byte	0x9f
 8774 016c 00000000 		.4byte	0
 8775 0170 00000000 		.4byte	0
 8776              	.LLST13:
 8777 0174 00000000 		.4byte	.LVL15
 8778 0178 06000000 		.4byte	.LVL16
 8779 017c 0100     		.2byte	0x1
 8780 017e 50       		.byte	0x50
 8781 017f 06000000 		.4byte	.LVL16
 8782 0183 08000000 		.4byte	.LVL17
 8783 0187 0400     		.2byte	0x4
 8784 0189 F3       		.byte	0xf3
 8785 018a 01       		.uleb128 0x1
 8786 018b 50       		.byte	0x50
 8787 018c 9F       		.byte	0x9f
 8788 018d 08000000 		.4byte	.LVL17
 8789 0191 0A000000 		.4byte	.LVL18
 8790 0195 0100     		.2byte	0x1
 8791 0197 50       		.byte	0x50
 8792 0198 0A000000 		.4byte	.LVL18
 8793 019c 0C000000 		.4byte	.LFE169
 8794 01a0 0400     		.2byte	0x4
 8795 01a2 F3       		.byte	0xf3
 8796 01a3 01       		.uleb128 0x1
 8797 01a4 50       		.byte	0x50
 8798 01a5 9F       		.byte	0x9f
 8799 01a6 00000000 		.4byte	0
 8800 01aa 00000000 		.4byte	0
 8801              	.LLST14:
 8802 01ae 00000000 		.4byte	.LVL19
 8803 01b2 06000000 		.4byte	.LVL21
 8804 01b6 0100     		.2byte	0x1
 8805 01b8 50       		.byte	0x50
 8806 01b9 06000000 		.4byte	.LVL21
 8807 01bd 16000000 		.4byte	.LFE167
 8808 01c1 0400     		.2byte	0x4
 8809 01c3 F3       		.byte	0xf3
 8810 01c4 01       		.uleb128 0x1
 8811 01c5 50       		.byte	0x50
 8812 01c6 9F       		.byte	0x9f
 8813 01c7 00000000 		.4byte	0
 8814 01cb 00000000 		.4byte	0
 8815              	.LLST15:
 8816 01cf 04000000 		.4byte	.LVL20
 8817 01d3 0D000000 		.4byte	.LVL23-1
 8818 01d7 0100     		.2byte	0x1
 8819 01d9 50       		.byte	0x50
ARM GAS  C:\Users\haske\AppData\Local\Temp\ccU9uRZG.s 			page 171


 8820 01da 0D000000 		.4byte	.LVL23-1
 8821 01de 0E000000 		.4byte	.LVL23
 8822 01e2 0100     		.2byte	0x1
 8823 01e4 54       		.byte	0x54
 8824 01e5 0E000000 		.4byte	.LVL23
 8825 01e9 14000000 		.4byte	.LVL24
 8826 01ed 0100     		.2byte	0x1
 8827 01ef 50       		.byte	0x50
 8828 01f0 00000000 		.4byte	0
 8829 01f4 00000000 		.4byte	0
 8830              	.LLST16:
 8831 01f8 06000000 		.4byte	.LVL21
 8832 01fc 08000000 		.4byte	.LVL22
 8833 0200 0100     		.2byte	0x1
 8834 0202 54       		.byte	0x54
 8835 0203 08000000 		.4byte	.LVL22
 8836 0207 0D000000 		.4byte	.LVL23-1
 8837 020b 0100     		.2byte	0x1
 8838 020d 50       		.byte	0x50
 8839 020e 0D000000 		.4byte	.LVL23-1
 8840 0212 14000000 		.4byte	.LVL25
 8841 0216 0100     		.2byte	0x1
 8842 0218 54       		.byte	0x54
 8843 0219 14000000 		.4byte	.LVL25
 8844 021d 16000000 		.4byte	.LFE167
 8845 0221 0100     		.2byte	0x1
 8846 0223 50       		.byte	0x50
 8847 0224 00000000 		.4byte	0
 8848 0228 00000000 		.4byte	0
 8849              	.LLST17:
 8850 022c 00000000 		.4byte	.LVL26
 8851 0230 0D000000 		.4byte	.LVL27-1
 8852 0234 0100     		.2byte	0x1
 8853 0236 50       		.byte	0x50
 8854 0237 0D000000 		.4byte	.LVL27-1
 8855 023b 10000000 		.4byte	.LVL28
 8856 023f 0100     		.2byte	0x1
 8857 0241 54       		.byte	0x54
 8858 0242 10000000 		.4byte	.LVL28
 8859 0246 40000000 		.4byte	.LFE168
 8860 024a 0400     		.2byte	0x4
 8861 024c F3       		.byte	0xf3
 8862 024d 01       		.uleb128 0x1
 8863 024e 50       		.byte	0x50
 8864 024f 9F       		.byte	0x9f
 8865 0250 00000000 		.4byte	0
 8866 0254 00000000 		.4byte	0
 8867              	.LLST18:
 8868 0258 10000000 		.4byte	.LVL28
 8869 025c 3A000000 		.4byte	.LVL36
 8870 0260 0100     		.2byte	0x1
 8871 0262 54       		.byte	0x54
 8872 0263 00000000 		.4byte	0
 8873 0267 00000000 		.4byte	0
 8874              	.LLST19:
 8875 026b 16000000 		.4byte	.LVL29
 8876 026f 32000000 		.4byte	.LVL34
ARM GAS  C:\Users\haske\AppData\Local\Temp\ccU9uRZG.s 			page 172


 8877 0273 0100     		.2byte	0x1
 8878 0275 50       		.byte	0x50
 8879 0276 32000000 		.4byte	.LVL34
 8880 027a 35000000 		.4byte	.LVL35-1
 8881 027e 0100     		.2byte	0x1
 8882 0280 51       		.byte	0x51
 8883 0281 36000000 		.4byte	.LVL35
 8884 0285 40000000 		.4byte	.LFE168
 8885 0289 0100     		.2byte	0x1
 8886 028b 50       		.byte	0x50
 8887 028c 00000000 		.4byte	0
 8888 0290 00000000 		.4byte	0
 8889              	.LLST20:
 8890 0294 18000000 		.4byte	.LVL30
 8891 0298 26000000 		.4byte	.LVL32
 8892 029c 0100     		.2byte	0x1
 8893 029e 53       		.byte	0x53
 8894 029f 28000000 		.4byte	.LVL33
 8895 02a3 35000000 		.4byte	.LVL35-1
 8896 02a7 0100     		.2byte	0x1
 8897 02a9 53       		.byte	0x53
 8898 02aa 00000000 		.4byte	0
 8899 02ae 00000000 		.4byte	0
 8900              	.LLST21:
 8901 02b2 00000000 		.4byte	.LVL37
 8902 02b6 1A000000 		.4byte	.LVL41
 8903 02ba 0100     		.2byte	0x1
 8904 02bc 50       		.byte	0x50
 8905 02bd 1A000000 		.4byte	.LVL41
 8906 02c1 26000000 		.4byte	.LVL43
 8907 02c5 0400     		.2byte	0x4
 8908 02c7 F3       		.byte	0xf3
 8909 02c8 01       		.uleb128 0x1
 8910 02c9 50       		.byte	0x50
 8911 02ca 9F       		.byte	0x9f
 8912 02cb 26000000 		.4byte	.LVL43
 8913 02cf 28000000 		.4byte	.LVL44
 8914 02d3 0100     		.2byte	0x1
 8915 02d5 50       		.byte	0x50
 8916 02d6 28000000 		.4byte	.LVL44
 8917 02da 2A000000 		.4byte	.LVL45
 8918 02de 0400     		.2byte	0x4
 8919 02e0 F3       		.byte	0xf3
 8920 02e1 01       		.uleb128 0x1
 8921 02e2 50       		.byte	0x50
 8922 02e3 9F       		.byte	0x9f
 8923 02e4 2A000000 		.4byte	.LVL45
 8924 02e8 2C000000 		.4byte	.LVL46
 8925 02ec 0100     		.2byte	0x1
 8926 02ee 50       		.byte	0x50
 8927 02ef 2C000000 		.4byte	.LVL46
 8928 02f3 32000000 		.4byte	.LFE170
 8929 02f7 0400     		.2byte	0x4
 8930 02f9 F3       		.byte	0xf3
 8931 02fa 01       		.uleb128 0x1
 8932 02fb 50       		.byte	0x50
 8933 02fc 9F       		.byte	0x9f
ARM GAS  C:\Users\haske\AppData\Local\Temp\ccU9uRZG.s 			page 173


 8934 02fd 00000000 		.4byte	0
 8935 0301 00000000 		.4byte	0
 8936              	.LLST22:
 8937 0305 00000000 		.4byte	.LVL37
 8938 0309 10000000 		.4byte	.LVL38
 8939 030d 0100     		.2byte	0x1
 8940 030f 51       		.byte	0x51
 8941 0310 10000000 		.4byte	.LVL38
 8942 0314 12000000 		.4byte	.LVL39
 8943 0318 0400     		.2byte	0x4
 8944 031a F3       		.byte	0xf3
 8945 031b 01       		.uleb128 0x1
 8946 031c 51       		.byte	0x51
 8947 031d 9F       		.byte	0x9f
 8948 031e 12000000 		.4byte	.LVL39
 8949 0322 22000000 		.4byte	.LVL42
 8950 0326 0100     		.2byte	0x1
 8951 0328 51       		.byte	0x51
 8952 0329 22000000 		.4byte	.LVL42
 8953 032d 26000000 		.4byte	.LVL43
 8954 0331 0100     		.2byte	0x1
 8955 0333 52       		.byte	0x52
 8956 0334 26000000 		.4byte	.LVL43
 8957 0338 30000000 		.4byte	.LVL48
 8958 033c 0100     		.2byte	0x1
 8959 033e 51       		.byte	0x51
 8960 033f 00000000 		.4byte	0
 8961 0343 00000000 		.4byte	0
 8962              	.LLST23:
 8963 0347 18000000 		.4byte	.LVL40
 8964 034b 22000000 		.4byte	.LVL42
 8965 034f 0100     		.2byte	0x1
 8966 0351 51       		.byte	0x51
 8967 0352 22000000 		.4byte	.LVL42
 8968 0356 26000000 		.4byte	.LVL43
 8969 035a 0100     		.2byte	0x1
 8970 035c 52       		.byte	0x52
 8971 035d 2E000000 		.4byte	.LVL47
 8972 0361 30000000 		.4byte	.LVL48
 8973 0365 0100     		.2byte	0x1
 8974 0367 51       		.byte	0x51
 8975 0368 00000000 		.4byte	0
 8976 036c 00000000 		.4byte	0
 8977              	.LLST24:
 8978 0370 00000000 		.4byte	.LVL49
 8979 0374 08000000 		.4byte	.LVL50
 8980 0378 0100     		.2byte	0x1
 8981 037a 50       		.byte	0x50
 8982 037b 08000000 		.4byte	.LVL50
 8983 037f 0A000000 		.4byte	.LVL51
 8984 0383 0400     		.2byte	0x4
 8985 0385 F3       		.byte	0xf3
 8986 0386 01       		.uleb128 0x1
 8987 0387 50       		.byte	0x50
 8988 0388 9F       		.byte	0x9f
 8989 0389 0A000000 		.4byte	.LVL51
 8990 038d 0C000000 		.4byte	.LVL52
ARM GAS  C:\Users\haske\AppData\Local\Temp\ccU9uRZG.s 			page 174


 8991 0391 0100     		.2byte	0x1
 8992 0393 50       		.byte	0x50
 8993 0394 0C000000 		.4byte	.LVL52
 8994 0398 0E000000 		.4byte	.LFE171
 8995 039c 0400     		.2byte	0x4
 8996 039e F3       		.byte	0xf3
 8997 039f 01       		.uleb128 0x1
 8998 03a0 50       		.byte	0x50
 8999 03a1 9F       		.byte	0x9f
 9000 03a2 00000000 		.4byte	0
 9001 03a6 00000000 		.4byte	0
 9002              	.LLST25:
 9003 03aa 00000000 		.4byte	.LVL53
 9004 03ae 0E000000 		.4byte	.LVL55
 9005 03b2 0100     		.2byte	0x1
 9006 03b4 50       		.byte	0x50
 9007 03b5 0E000000 		.4byte	.LVL55
 9008 03b9 14000000 		.4byte	.LVL57
 9009 03bd 0100     		.2byte	0x1
 9010 03bf 55       		.byte	0x55
 9011 03c0 14000000 		.4byte	.LVL57
 9012 03c4 40000000 		.4byte	.LVL66
 9013 03c8 0400     		.2byte	0x4
 9014 03ca F3       		.byte	0xf3
 9015 03cb 01       		.uleb128 0x1
 9016 03cc 50       		.byte	0x50
 9017 03cd 9F       		.byte	0x9f
 9018 03ce 40000000 		.4byte	.LVL66
 9019 03d2 43000000 		.4byte	.LVL68-1
 9020 03d6 0100     		.2byte	0x1
 9021 03d8 50       		.byte	0x50
 9022 03d9 43000000 		.4byte	.LVL68-1
 9023 03dd 7E000000 		.4byte	.LVL80
 9024 03e1 0100     		.2byte	0x1
 9025 03e3 55       		.byte	0x55
 9026 03e4 7E000000 		.4byte	.LVL80
 9027 03e8 80000000 		.4byte	.LFE176
 9028 03ec 0400     		.2byte	0x4
 9029 03ee F3       		.byte	0xf3
 9030 03ef 01       		.uleb128 0x1
 9031 03f0 50       		.byte	0x50
 9032 03f1 9F       		.byte	0x9f
 9033 03f2 00000000 		.4byte	0
 9034 03f6 00000000 		.4byte	0
 9035              	.LLST26:
 9036 03fa 00000000 		.4byte	.LVL53
 9037 03fe 11000000 		.4byte	.LVL56-1
 9038 0402 0100     		.2byte	0x1
 9039 0404 51       		.byte	0x51
 9040 0405 11000000 		.4byte	.LVL56-1
 9041 0409 40000000 		.4byte	.LVL66
 9042 040d 0100     		.2byte	0x1
 9043 040f 56       		.byte	0x56
 9044 0410 40000000 		.4byte	.LVL66
 9045 0414 42000000 		.4byte	.LVL67
 9046 0418 0100     		.2byte	0x1
 9047 041a 51       		.byte	0x51
ARM GAS  C:\Users\haske\AppData\Local\Temp\ccU9uRZG.s 			page 175


 9048 041b 42000000 		.4byte	.LVL67
 9049 041f 7E000000 		.4byte	.LVL81
 9050 0423 0100     		.2byte	0x1
 9051 0425 56       		.byte	0x56
 9052 0426 7E000000 		.4byte	.LVL81
 9053 042a 80000000 		.4byte	.LFE176
 9054 042e 0400     		.2byte	0x4
 9055 0430 F3       		.byte	0xf3
 9056 0431 01       		.uleb128 0x1
 9057 0432 51       		.byte	0x51
 9058 0433 9F       		.byte	0x9f
 9059 0434 00000000 		.4byte	0
 9060 0438 00000000 		.4byte	0
 9061              	.LLST27:
 9062 043c 00000000 		.4byte	.LVL53
 9063 0440 11000000 		.4byte	.LVL56-1
 9064 0444 0100     		.2byte	0x1
 9065 0446 52       		.byte	0x52
 9066 0447 11000000 		.4byte	.LVL56-1
 9067 044b 40000000 		.4byte	.LVL66
 9068 044f 0100     		.2byte	0x1
 9069 0451 57       		.byte	0x57
 9070 0452 40000000 		.4byte	.LVL66
 9071 0456 43000000 		.4byte	.LVL68-1
 9072 045a 0100     		.2byte	0x1
 9073 045c 52       		.byte	0x52
 9074 045d 43000000 		.4byte	.LVL68-1
 9075 0461 7E000000 		.4byte	.LVL82
 9076 0465 0100     		.2byte	0x1
 9077 0467 57       		.byte	0x57
 9078 0468 7E000000 		.4byte	.LVL82
 9079 046c 80000000 		.4byte	.LFE176
 9080 0470 0400     		.2byte	0x4
 9081 0472 F3       		.byte	0xf3
 9082 0473 01       		.uleb128 0x1
 9083 0474 52       		.byte	0x52
 9084 0475 9F       		.byte	0x9f
 9085 0476 00000000 		.4byte	0
 9086 047a 00000000 		.4byte	0
 9087              	.LLST28:
 9088 047e 08000000 		.4byte	.LVL54
 9089 0482 44000000 		.4byte	.LVL68
 9090 0486 0200     		.2byte	0x2
 9091 0488 30       		.byte	0x30
 9092 0489 9F       		.byte	0x9f
 9093 048a 44000000 		.4byte	.LVL68
 9094 048e 4E000000 		.4byte	.LVL69
 9095 0492 0100     		.2byte	0x1
 9096 0494 50       		.byte	0x50
 9097 0495 60000000 		.4byte	.LVL72
 9098 0499 6A000000 		.4byte	.LVL75
 9099 049d 0100     		.2byte	0x1
 9100 049f 50       		.byte	0x50
 9101 04a0 78000000 		.4byte	.LVL77
 9102 04a4 7A000000 		.4byte	.LVL78
 9103 04a8 0100     		.2byte	0x1
 9104 04aa 50       		.byte	0x50
ARM GAS  C:\Users\haske\AppData\Local\Temp\ccU9uRZG.s 			page 176


 9105 04ab 7C000000 		.4byte	.LVL79
 9106 04af 7E000000 		.4byte	.LVL80
 9107 04b3 0100     		.2byte	0x1
 9108 04b5 50       		.byte	0x50
 9109 04b6 00000000 		.4byte	0
 9110 04ba 00000000 		.4byte	0
 9111              	.LLST29:
 9112 04be 14000000 		.4byte	.LVL57
 9113 04c2 16000000 		.4byte	.LVL58
 9114 04c6 0100     		.2byte	0x1
 9115 04c8 50       		.byte	0x50
 9116 04c9 16000000 		.4byte	.LVL58
 9117 04cd 28000000 		.4byte	.LVL61
 9118 04d1 0100     		.2byte	0x1
 9119 04d3 55       		.byte	0x55
 9120 04d4 28000000 		.4byte	.LVL61
 9121 04d8 2A000000 		.4byte	.LVL62
 9122 04dc 0100     		.2byte	0x1
 9123 04de 50       		.byte	0x50
 9124 04df 2A000000 		.4byte	.LVL62
 9125 04e3 38000000 		.4byte	.LVL64
 9126 04e7 0100     		.2byte	0x1
 9127 04e9 55       		.byte	0x55
 9128 04ea 38000000 		.4byte	.LVL64
 9129 04ee 3E000000 		.4byte	.LVL65
 9130 04f2 0100     		.2byte	0x1
 9131 04f4 50       		.byte	0x50
 9132 04f5 3E000000 		.4byte	.LVL65
 9133 04f9 40000000 		.4byte	.LVL66
 9134 04fd 0100     		.2byte	0x1
 9135 04ff 55       		.byte	0x55
 9136 0500 00000000 		.4byte	0
 9137 0504 00000000 		.4byte	0
 9138              	.LLST30:
 9139 0508 16000000 		.4byte	.LVL58
 9140 050c 28000000 		.4byte	.LVL61
 9141 0510 0100     		.2byte	0x1
 9142 0512 54       		.byte	0x54
 9143 0513 2A000000 		.4byte	.LVL62
 9144 0517 38000000 		.4byte	.LVL64
 9145 051b 0100     		.2byte	0x1
 9146 051d 54       		.byte	0x54
 9147 051e 00000000 		.4byte	0
 9148 0522 00000000 		.4byte	0
 9149              	.LLST31:
 9150 0526 50000000 		.4byte	.LVL70
 9151 052a 68000000 		.4byte	.LVL74
 9152 052e 0100     		.2byte	0x1
 9153 0530 54       		.byte	0x54
 9154 0531 6A000000 		.4byte	.LVL75
 9155 0535 78000000 		.4byte	.LVL77
 9156 0539 0100     		.2byte	0x1
 9157 053b 54       		.byte	0x54
 9158 053c 7C000000 		.4byte	.LVL79
 9159 0540 7E000000 		.4byte	.LVL80
 9160 0544 0100     		.2byte	0x1
 9161 0546 54       		.byte	0x54
ARM GAS  C:\Users\haske\AppData\Local\Temp\ccU9uRZG.s 			page 177


 9162 0547 00000000 		.4byte	0
 9163 054b 00000000 		.4byte	0
 9164              	.LLST32:
 9165 054f 00000000 		.4byte	.LVL83
 9166 0553 07000000 		.4byte	.LVL84-1
 9167 0557 0100     		.2byte	0x1
 9168 0559 50       		.byte	0x50
 9169 055a 07000000 		.4byte	.LVL84-1
 9170 055e 34000000 		.4byte	.LVL95
 9171 0562 0100     		.2byte	0x1
 9172 0564 56       		.byte	0x56
 9173 0565 34000000 		.4byte	.LVL95
 9174 0569 36000000 		.4byte	.LFE172
 9175 056d 0400     		.2byte	0x4
 9176 056f F3       		.byte	0xf3
 9177 0570 01       		.uleb128 0x1
 9178 0571 50       		.byte	0x50
 9179 0572 9F       		.byte	0x9f
 9180 0573 00000000 		.4byte	0
 9181 0577 00000000 		.4byte	0
 9182              	.LLST33:
 9183 057b 0A000000 		.4byte	.LVL85
 9184 057f 10000000 		.4byte	.LVL86
 9185 0583 0100     		.2byte	0x1
 9186 0585 50       		.byte	0x50
 9187 0586 10000000 		.4byte	.LVL86
 9188 058a 2E000000 		.4byte	.LVL90
 9189 058e 0100     		.2byte	0x1
 9190 0590 55       		.byte	0x55
 9191 0591 2E000000 		.4byte	.LVL90
 9192 0595 30000000 		.4byte	.LVL91
 9193 0599 0100     		.2byte	0x1
 9194 059b 50       		.byte	0x50
 9195 059c 30000000 		.4byte	.LVL91
 9196 05a0 34000000 		.4byte	.LVL94
 9197 05a4 0100     		.2byte	0x1
 9198 05a6 55       		.byte	0x55
 9199 05a7 00000000 		.4byte	0
 9200 05ab 00000000 		.4byte	0
 9201              	.LLST34:
 9202 05af 10000000 		.4byte	.LVL86
 9203 05b3 2E000000 		.4byte	.LVL90
 9204 05b7 0100     		.2byte	0x1
 9205 05b9 54       		.byte	0x54
 9206 05ba 32000000 		.4byte	.LVL92
 9207 05be 34000000 		.4byte	.LVL93
 9208 05c2 0100     		.2byte	0x1
 9209 05c4 54       		.byte	0x54
 9210 05c5 00000000 		.4byte	0
 9211 05c9 00000000 		.4byte	0
 9212              	.LLST35:
 9213 05cd 00000000 		.4byte	.LVL96
 9214 05d1 0B000000 		.4byte	.LVL97-1
 9215 05d5 0100     		.2byte	0x1
 9216 05d7 50       		.byte	0x50
 9217 05d8 0B000000 		.4byte	.LVL97-1
 9218 05dc 02010000 		.4byte	.LVL133
ARM GAS  C:\Users\haske\AppData\Local\Temp\ccU9uRZG.s 			page 178


 9219 05e0 0100     		.2byte	0x1
 9220 05e2 55       		.byte	0x55
 9221 05e3 02010000 		.4byte	.LVL133
 9222 05e7 04010000 		.4byte	.LFE175
 9223 05eb 0400     		.2byte	0x4
 9224 05ed F3       		.byte	0xf3
 9225 05ee 01       		.uleb128 0x1
 9226 05ef 50       		.byte	0x50
 9227 05f0 9F       		.byte	0x9f
 9228 05f1 00000000 		.4byte	0
 9229 05f5 00000000 		.4byte	0
 9230              	.LLST36:
 9231 05f9 0C000000 		.4byte	.LVL97
 9232 05fd 14000000 		.4byte	.LVL98
 9233 0601 0100     		.2byte	0x1
 9234 0603 50       		.byte	0x50
 9235 0604 00000000 		.4byte	0
 9236 0608 00000000 		.4byte	0
 9237              	.LLST37:
 9238 060c 18000000 		.4byte	.LVL99
 9239 0610 1D000000 		.4byte	.LVL100-1
 9240 0614 0100     		.2byte	0x1
 9241 0616 50       		.byte	0x50
 9242 0617 26000000 		.4byte	.LVL101
 9243 061b 2C000000 		.4byte	.LVL102
 9244 061f 0100     		.2byte	0x1
 9245 0621 50       		.byte	0x50
 9246 0622 00000000 		.4byte	0
 9247 0626 00000000 		.4byte	0
 9248              	.LLST38:
 9249 062a 32000000 		.4byte	.LVL104
 9250 062e 34000000 		.4byte	.LVL105
 9251 0632 0100     		.2byte	0x1
 9252 0634 50       		.byte	0x50
 9253 0635 34000000 		.4byte	.LVL105
 9254 0639 02010000 		.4byte	.LVL132
 9255 063d 0100     		.2byte	0x1
 9256 063f 56       		.byte	0x56
 9257 0640 00000000 		.4byte	0
 9258 0644 00000000 		.4byte	0
 9259              	.LLST39:
 9260 0648 3A000000 		.4byte	.LVL107
 9261 064c 4C000000 		.4byte	.LVL108
 9262 0650 0100     		.2byte	0x1
 9263 0652 50       		.byte	0x50
 9264 0653 4C000000 		.4byte	.LVL108
 9265 0657 78000000 		.4byte	.LVL113
 9266 065b 0100     		.2byte	0x1
 9267 065d 54       		.byte	0x54
 9268 065e 78000000 		.4byte	.LVL113
 9269 0662 7E000000 		.4byte	.LVL114
 9270 0666 0100     		.2byte	0x1
 9271 0668 50       		.byte	0x50
 9272 0669 7E000000 		.4byte	.LVL114
 9273 066d 90000000 		.4byte	.LVL117
 9274 0671 0100     		.2byte	0x1
 9275 0673 54       		.byte	0x54
ARM GAS  C:\Users\haske\AppData\Local\Temp\ccU9uRZG.s 			page 179


 9276 0674 CA000000 		.4byte	.LVL124
 9277 0678 F0000000 		.4byte	.LVL129
 9278 067c 0100     		.2byte	0x1
 9279 067e 54       		.byte	0x54
 9280 067f 00000000 		.4byte	0
 9281 0683 00000000 		.4byte	0
 9282              	.LLST40:
 9283 0687 90000000 		.4byte	.LVL117
 9284 068b A8000000 		.4byte	.LVL120
 9285 068f 0100     		.2byte	0x1
 9286 0691 50       		.byte	0x50
 9287 0692 A8000000 		.4byte	.LVL120
 9288 0696 CA000000 		.4byte	.LVL124
 9289 069a 0100     		.2byte	0x1
 9290 069c 54       		.byte	0x54
 9291 069d 00000000 		.4byte	0
 9292 06a1 00000000 		.4byte	0
 9293              	.LLST41:
 9294 06a5 90000000 		.4byte	.LVL117
 9295 06a9 94000000 		.4byte	.LVL118
 9296 06ad 0200     		.2byte	0x2
 9297 06af 30       		.byte	0x30
 9298 06b0 9F       		.byte	0x9f
 9299 06b1 94000000 		.4byte	.LVL118
 9300 06b5 AE000000 		.4byte	.LVL121
 9301 06b9 0100     		.2byte	0x1
 9302 06bb 53       		.byte	0x53
 9303 06bc AE000000 		.4byte	.LVL121
 9304 06c0 B4000000 		.4byte	.LVL122
 9305 06c4 0300     		.2byte	0x3
 9306 06c6 73       		.byte	0x73
 9307 06c7 7F       		.sleb128 -1
 9308 06c8 9F       		.byte	0x9f
 9309 06c9 B4000000 		.4byte	.LVL122
 9310 06cd C5000000 		.4byte	.LVL123-1
 9311 06d1 0100     		.2byte	0x1
 9312 06d3 53       		.byte	0x53
 9313 06d4 00000000 		.4byte	0
 9314 06d8 00000000 		.4byte	0
 9315              	.LLST42:
 9316 06dc D0000000 		.4byte	.LVL125
 9317 06e0 D2000000 		.4byte	.LVL126
 9318 06e4 0100     		.2byte	0x1
 9319 06e6 50       		.byte	0x50
 9320 06e7 00000000 		.4byte	0
 9321 06eb 00000000 		.4byte	0
 9322              	.LLST43:
 9323 06ef D0000000 		.4byte	.LVL125
 9324 06f3 D8000000 		.4byte	.LVL127
 9325 06f7 0100     		.2byte	0x1
 9326 06f9 50       		.byte	0x50
 9327 06fa D8000000 		.4byte	.LVL127
 9328 06fe DE000000 		.4byte	.LVL128
 9329 0702 0300     		.2byte	0x3
 9330 0704 70       		.byte	0x70
 9331 0705 7F       		.sleb128 -1
 9332 0706 9F       		.byte	0x9f
ARM GAS  C:\Users\haske\AppData\Local\Temp\ccU9uRZG.s 			page 180


 9333 0707 DE000000 		.4byte	.LVL128
 9334 070b F6000000 		.4byte	.LVL130
 9335 070f 0100     		.2byte	0x1
 9336 0711 50       		.byte	0x50
 9337 0712 00000000 		.4byte	0
 9338 0716 00000000 		.4byte	0
 9339              	.LLST44:
 9340 071a 00000000 		.4byte	.LVL134
 9341 071e 07000000 		.4byte	.LVL135-1
 9342 0722 0100     		.2byte	0x1
 9343 0724 50       		.byte	0x50
 9344 0725 07000000 		.4byte	.LVL135-1
 9345 0729 70000000 		.4byte	.LVL152
 9346 072d 0100     		.2byte	0x1
 9347 072f 55       		.byte	0x55
 9348 0730 70000000 		.4byte	.LVL152
 9349 0734 72000000 		.4byte	.LFE159
 9350 0738 0400     		.2byte	0x4
 9351 073a F3       		.byte	0xf3
 9352 073b 01       		.uleb128 0x1
 9353 073c 50       		.byte	0x50
 9354 073d 9F       		.byte	0x9f
 9355 073e 00000000 		.4byte	0
 9356 0742 00000000 		.4byte	0
 9357              	.LLST45:
 9358 0746 10000000 		.4byte	.LVL137
 9359 074a 15000000 		.4byte	.LVL138-1
 9360 074e 0100     		.2byte	0x1
 9361 0750 50       		.byte	0x50
 9362 0751 15000000 		.4byte	.LVL138-1
 9363 0755 70000000 		.4byte	.LVL151
 9364 0759 0100     		.2byte	0x1
 9365 075b 54       		.byte	0x54
 9366 075c 00000000 		.4byte	0
 9367 0760 00000000 		.4byte	0
 9368              	.LLST46:
 9369 0764 16000000 		.4byte	.LVL138
 9370 0768 22000000 		.4byte	.LVL140
 9371 076c 0200     		.2byte	0x2
 9372 076e 30       		.byte	0x30
 9373 076f 9F       		.byte	0x9f
 9374 0770 22000000 		.4byte	.LVL140
 9375 0774 2E000000 		.4byte	.LVL141
 9376 0778 0100     		.2byte	0x1
 9377 077a 50       		.byte	0x50
 9378 077b 2E000000 		.4byte	.LVL141
 9379 077f 34000000 		.4byte	.LVL142
 9380 0783 0200     		.2byte	0x2
 9381 0785 30       		.byte	0x30
 9382 0786 9F       		.byte	0x9f
 9383 0787 34000000 		.4byte	.LVL142
 9384 078b 36000000 		.4byte	.LVL143
 9385 078f 0100     		.2byte	0x1
 9386 0791 50       		.byte	0x50
 9387 0792 36000000 		.4byte	.LVL143
 9388 0796 70000000 		.4byte	.LVL153
 9389 079a 0100     		.2byte	0x1
ARM GAS  C:\Users\haske\AppData\Local\Temp\ccU9uRZG.s 			page 181


 9390 079c 57       		.byte	0x57
 9391 079d 00000000 		.4byte	0
 9392 07a1 00000000 		.4byte	0
 9393              	.LLST47:
 9394 07a5 16000000 		.4byte	.LVL138
 9395 07a9 36000000 		.4byte	.LVL143
 9396 07ad 0200     		.2byte	0x2
 9397 07af 30       		.byte	0x30
 9398 07b0 9F       		.byte	0x9f
 9399 07b1 36000000 		.4byte	.LVL143
 9400 07b5 70000000 		.4byte	.LVL150
 9401 07b9 0100     		.2byte	0x1
 9402 07bb 56       		.byte	0x56
 9403 07bc 00000000 		.4byte	0
 9404 07c0 00000000 		.4byte	0
 9405              	.LLST48:
 9406 07c4 00000000 		.4byte	.LVL154
 9407 07c8 04000000 		.4byte	.LVL155
 9408 07cc 0100     		.2byte	0x1
 9409 07ce 50       		.byte	0x50
 9410 07cf 04000000 		.4byte	.LVL155
 9411 07d3 0A000000 		.4byte	.LFE162
 9412 07d7 0400     		.2byte	0x4
 9413 07d9 F3       		.byte	0xf3
 9414 07da 01       		.uleb128 0x1
 9415 07db 50       		.byte	0x50
 9416 07dc 9F       		.byte	0x9f
 9417 07dd 00000000 		.4byte	0
 9418 07e1 00000000 		.4byte	0
 9419              	.LLST49:
 9420 07e5 00000000 		.4byte	.LVL157
 9421 07e9 05000000 		.4byte	.LVL158-1
 9422 07ed 0100     		.2byte	0x1
 9423 07ef 50       		.byte	0x50
 9424 07f0 05000000 		.4byte	.LVL158-1
 9425 07f4 08000000 		.4byte	.LFE174
 9426 07f8 0400     		.2byte	0x4
 9427 07fa F3       		.byte	0xf3
 9428 07fb 01       		.uleb128 0x1
 9429 07fc 50       		.byte	0x50
 9430 07fd 9F       		.byte	0x9f
 9431 07fe 00000000 		.4byte	0
 9432 0802 00000000 		.4byte	0
 9433              	.LLST50:
 9434 0806 00000000 		.4byte	.LVL159
 9435 080a 07000000 		.4byte	.LVL160-1
 9436 080e 0100     		.2byte	0x1
 9437 0810 50       		.byte	0x50
 9438 0811 07000000 		.4byte	.LVL160-1
 9439 0815 3C000000 		.4byte	.LVL166
 9440 0819 0100     		.2byte	0x1
 9441 081b 54       		.byte	0x54
 9442 081c 3C000000 		.4byte	.LVL166
 9443 0820 3E000000 		.4byte	.LFE160
 9444 0824 0400     		.2byte	0x4
 9445 0826 F3       		.byte	0xf3
 9446 0827 01       		.uleb128 0x1
ARM GAS  C:\Users\haske\AppData\Local\Temp\ccU9uRZG.s 			page 182


 9447 0828 50       		.byte	0x50
 9448 0829 9F       		.byte	0x9f
 9449 082a 00000000 		.4byte	0
 9450 082e 00000000 		.4byte	0
 9451              	.LLST51:
 9452 0832 10000000 		.4byte	.LVL161
 9453 0836 15000000 		.4byte	.LVL162-1
 9454 083a 0100     		.2byte	0x1
 9455 083c 50       		.byte	0x50
 9456 083d 1E000000 		.4byte	.LVL163
 9457 0841 2A000000 		.4byte	.LVL164
 9458 0845 0100     		.2byte	0x1
 9459 0847 50       		.byte	0x50
 9460 0848 00000000 		.4byte	0
 9461 084c 00000000 		.4byte	0
 9462              	.LLST52:
 9463 0850 00000000 		.4byte	.LVL167
 9464 0854 13000000 		.4byte	.LVL168-1
 9465 0858 0100     		.2byte	0x1
 9466 085a 50       		.byte	0x50
 9467 085b 13000000 		.4byte	.LVL168-1
 9468 085f D6000000 		.4byte	.LVL190
 9469 0863 0100     		.2byte	0x1
 9470 0865 56       		.byte	0x56
 9471 0866 D6000000 		.4byte	.LVL190
 9472 086a DC000000 		.4byte	.LFE164
 9473 086e 0400     		.2byte	0x4
 9474 0870 F3       		.byte	0xf3
 9475 0871 01       		.uleb128 0x1
 9476 0872 50       		.byte	0x50
 9477 0873 9F       		.byte	0x9f
 9478 0874 00000000 		.4byte	0
 9479 0878 00000000 		.4byte	0
 9480              	.LLST53:
 9481 087c 00000000 		.4byte	.LVL167
 9482 0880 13000000 		.4byte	.LVL168-1
 9483 0884 0100     		.2byte	0x1
 9484 0886 51       		.byte	0x51
 9485 0887 13000000 		.4byte	.LVL168-1
 9486 088b D6000000 		.4byte	.LVL191
 9487 088f 0100     		.2byte	0x1
 9488 0891 57       		.byte	0x57
 9489 0892 D6000000 		.4byte	.LVL191
 9490 0896 DC000000 		.4byte	.LFE164
 9491 089a 0400     		.2byte	0x4
 9492 089c F3       		.byte	0xf3
 9493 089d 01       		.uleb128 0x1
 9494 089e 51       		.byte	0x51
 9495 089f 9F       		.byte	0x9f
 9496 08a0 00000000 		.4byte	0
 9497 08a4 00000000 		.4byte	0
 9498              	.LLST54:
 9499 08a8 1C000000 		.4byte	.LVL170
 9500 08ac D6000000 		.4byte	.LVL189
 9501 08b0 0100     		.2byte	0x1
 9502 08b2 55       		.byte	0x55
 9503 08b3 00000000 		.4byte	0
ARM GAS  C:\Users\haske\AppData\Local\Temp\ccU9uRZG.s 			page 183


 9504 08b7 00000000 		.4byte	0
 9505              	.LLST55:
 9506 08bb 24000000 		.4byte	.LVL172
 9507 08bf 26000000 		.4byte	.LVL173
 9508 08c3 0100     		.2byte	0x1
 9509 08c5 50       		.byte	0x50
 9510 08c6 26000000 		.4byte	.LVL173
 9511 08ca 2E000000 		.4byte	.LVL174
 9512 08ce 0100     		.2byte	0x1
 9513 08d0 54       		.byte	0x54
 9514 08d1 2E000000 		.4byte	.LVL174
 9515 08d5 34000000 		.4byte	.LVL175
 9516 08d9 0300     		.2byte	0x3
 9517 08db 74       		.byte	0x74
 9518 08dc 7F       		.sleb128 -1
 9519 08dd 9F       		.byte	0x9f
 9520 08de 34000000 		.4byte	.LVL175
 9521 08e2 4A000000 		.4byte	.LVL177
 9522 08e6 0100     		.2byte	0x1
 9523 08e8 54       		.byte	0x54
 9524 08e9 00000000 		.4byte	0
 9525 08ed 00000000 		.4byte	0
 9526              	.LLST56:
 9527 08f1 00000000 		.4byte	.LVL192
 9528 08f5 0B000000 		.4byte	.LVL193-1
 9529 08f9 0100     		.2byte	0x1
 9530 08fb 50       		.byte	0x50
 9531 08fc 0B000000 		.4byte	.LVL193-1
 9532 0900 78000000 		.4byte	.LVL209
 9533 0904 0100     		.2byte	0x1
 9534 0906 55       		.byte	0x55
 9535 0907 78000000 		.4byte	.LVL209
 9536 090b 80000000 		.4byte	.LFE165
 9537 090f 0400     		.2byte	0x4
 9538 0911 F3       		.byte	0xf3
 9539 0912 01       		.uleb128 0x1
 9540 0913 50       		.byte	0x50
 9541 0914 9F       		.byte	0x9f
 9542 0915 00000000 		.4byte	0
 9543 0919 00000000 		.4byte	0
 9544              	.LLST57:
 9545 091d 00000000 		.4byte	.LVL192
 9546 0921 0B000000 		.4byte	.LVL193-1
 9547 0925 0100     		.2byte	0x1
 9548 0927 51       		.byte	0x51
 9549 0928 0B000000 		.4byte	.LVL193-1
 9550 092c 78000000 		.4byte	.LVL210
 9551 0930 0100     		.2byte	0x1
 9552 0932 56       		.byte	0x56
 9553 0933 00000000 		.4byte	0
 9554 0937 00000000 		.4byte	0
 9555              	.LLST58:
 9556 093b 1A000000 		.4byte	.LVL197
 9557 093f 1C000000 		.4byte	.LVL198
 9558 0943 0100     		.2byte	0x1
 9559 0945 50       		.byte	0x50
 9560 0946 1C000000 		.4byte	.LVL198
ARM GAS  C:\Users\haske\AppData\Local\Temp\ccU9uRZG.s 			page 184


 9561 094a 36000000 		.4byte	.LVL203
 9562 094e 0100     		.2byte	0x1
 9563 0950 54       		.byte	0x54
 9564 0951 00000000 		.4byte	0
 9565 0955 00000000 		.4byte	0
 9566              	.LLST59:
 9567 0959 22000000 		.4byte	.LVL200
 9568 095d 29000000 		.4byte	.LVL201-1
 9569 0961 0100     		.2byte	0x1
 9570 0963 50       		.byte	0x50
 9571 0964 29000000 		.4byte	.LVL201-1
 9572 0968 78000000 		.4byte	.LVL211
 9573 096c 0100     		.2byte	0x1
 9574 096e 57       		.byte	0x57
 9575 096f 00000000 		.4byte	0
 9576 0973 00000000 		.4byte	0
 9577              	.LLST60:
 9578 0977 32000000 		.4byte	.LVL202
 9579 097b 56000000 		.4byte	.LVL205
 9580 097f 0100     		.2byte	0x1
 9581 0981 54       		.byte	0x54
 9582 0982 56000000 		.4byte	.LVL205
 9583 0986 5C000000 		.4byte	.LVL206
 9584 098a 0300     		.2byte	0x3
 9585 098c 74       		.byte	0x74
 9586 098d 7F       		.sleb128 -1
 9587 098e 9F       		.byte	0x9f
 9588 098f 5C000000 		.4byte	.LVL206
 9589 0993 78000000 		.4byte	.LVL208
 9590 0997 0100     		.2byte	0x1
 9591 0999 54       		.byte	0x54
 9592 099a 00000000 		.4byte	0
 9593 099e 00000000 		.4byte	0
 9594              	.LLST61:
 9595 09a2 00000000 		.4byte	.LVL212
 9596 09a6 0F000000 		.4byte	.LVL213-1
 9597 09aa 0100     		.2byte	0x1
 9598 09ac 50       		.byte	0x50
 9599 09ad 0F000000 		.4byte	.LVL213-1
 9600 09b1 92000000 		.4byte	.LVL234
 9601 09b5 0100     		.2byte	0x1
 9602 09b7 54       		.byte	0x54
 9603 09b8 92000000 		.4byte	.LVL234
 9604 09bc 9A000000 		.4byte	.LFE166
 9605 09c0 0400     		.2byte	0x4
 9606 09c2 F3       		.byte	0xf3
 9607 09c3 01       		.uleb128 0x1
 9608 09c4 50       		.byte	0x50
 9609 09c5 9F       		.byte	0x9f
 9610 09c6 00000000 		.4byte	0
 9611 09ca 00000000 		.4byte	0
 9612              	.LLST62:
 9613 09ce 00000000 		.4byte	.LVL212
 9614 09d2 0F000000 		.4byte	.LVL213-1
 9615 09d6 0100     		.2byte	0x1
 9616 09d8 51       		.byte	0x51
 9617 09d9 0F000000 		.4byte	.LVL213-1
ARM GAS  C:\Users\haske\AppData\Local\Temp\ccU9uRZG.s 			page 185


 9618 09dd 92000000 		.4byte	.LVL235
 9619 09e1 0100     		.2byte	0x1
 9620 09e3 55       		.byte	0x55
 9621 09e4 92000000 		.4byte	.LVL235
 9622 09e8 9A000000 		.4byte	.LFE166
 9623 09ec 0400     		.2byte	0x4
 9624 09ee F3       		.byte	0xf3
 9625 09ef 01       		.uleb128 0x1
 9626 09f0 51       		.byte	0x51
 9627 09f1 9F       		.byte	0x9f
 9628 09f2 00000000 		.4byte	0
 9629 09f6 00000000 		.4byte	0
 9630              	.LLST63:
 9631 09fa 12000000 		.4byte	.LVL214
 9632 09fe 14000000 		.4byte	.LVL215
 9633 0a02 0100     		.2byte	0x1
 9634 0a04 50       		.byte	0x50
 9635 0a05 14000000 		.4byte	.LVL215
 9636 0a09 92000000 		.4byte	.LVL236
 9637 0a0d 0100     		.2byte	0x1
 9638 0a0f 56       		.byte	0x56
 9639 0a10 00000000 		.4byte	0
 9640 0a14 00000000 		.4byte	0
 9641              	.LLST64:
 9642 0a18 1A000000 		.4byte	.LVL217
 9643 0a1c 1C000000 		.4byte	.LVL218
 9644 0a20 0100     		.2byte	0x1
 9645 0a22 50       		.byte	0x50
 9646 0a23 1C000000 		.4byte	.LVL218
 9647 0a27 92000000 		.4byte	.LVL237
 9648 0a2b 0100     		.2byte	0x1
 9649 0a2d 57       		.byte	0x57
 9650 0a2e 00000000 		.4byte	0
 9651 0a32 00000000 		.4byte	0
 9652              	.LLST65:
 9653 0a36 22000000 		.4byte	.LVL220
 9654 0a3a 24000000 		.4byte	.LVL221
 9655 0a3e 0100     		.2byte	0x1
 9656 0a40 50       		.byte	0x50
 9657 0a41 24000000 		.4byte	.LVL221
 9658 0a45 92000000 		.4byte	.LVL239
 9659 0a49 0100     		.2byte	0x1
 9660 0a4b 59       		.byte	0x59
 9661 0a4c 00000000 		.4byte	0
 9662 0a50 00000000 		.4byte	0
 9663              	.LLST66:
 9664 0a54 2A000000 		.4byte	.LVL223
 9665 0a58 30000000 		.4byte	.LVL224
 9666 0a5c 0100     		.2byte	0x1
 9667 0a5e 50       		.byte	0x50
 9668 0a5f 30000000 		.4byte	.LVL224
 9669 0a63 92000000 		.4byte	.LVL238
 9670 0a67 0100     		.2byte	0x1
 9671 0a69 58       		.byte	0x58
 9672 0a6a 00000000 		.4byte	0
 9673 0a6e 00000000 		.4byte	0
 9674              	.LLST67:
ARM GAS  C:\Users\haske\AppData\Local\Temp\ccU9uRZG.s 			page 186


 9675 0a72 00000000 		.4byte	.LVL240
 9676 0a76 05000000 		.4byte	.LVL241-1
 9677 0a7a 0100     		.2byte	0x1
 9678 0a7c 50       		.byte	0x50
 9679 0a7d 05000000 		.4byte	.LVL241-1
 9680 0a81 08000000 		.4byte	.LFE173
 9681 0a85 0400     		.2byte	0x4
 9682 0a87 F3       		.byte	0xf3
 9683 0a88 01       		.uleb128 0x1
 9684 0a89 50       		.byte	0x50
 9685 0a8a 9F       		.byte	0x9f
 9686 0a8b 00000000 		.4byte	0
 9687 0a8f 00000000 		.4byte	0
 9688              	.LLST68:
 9689 0a93 00000000 		.4byte	.LVL240
 9690 0a97 05000000 		.4byte	.LVL241-1
 9691 0a9b 0100     		.2byte	0x1
 9692 0a9d 51       		.byte	0x51
 9693 0a9e 05000000 		.4byte	.LVL241-1
 9694 0aa2 08000000 		.4byte	.LFE173
 9695 0aa6 0400     		.2byte	0x4
 9696 0aa8 F3       		.byte	0xf3
 9697 0aa9 01       		.uleb128 0x1
 9698 0aaa 51       		.byte	0x51
 9699 0aab 9F       		.byte	0x9f
 9700 0aac 00000000 		.4byte	0
 9701 0ab0 00000000 		.4byte	0
 9702              	.LLST69:
 9703 0ab4 00000000 		.4byte	.LVL240
 9704 0ab8 05000000 		.4byte	.LVL241-1
 9705 0abc 0100     		.2byte	0x1
 9706 0abe 52       		.byte	0x52
 9707 0abf 05000000 		.4byte	.LVL241-1
 9708 0ac3 08000000 		.4byte	.LFE173
 9709 0ac7 0400     		.2byte	0x4
 9710 0ac9 F3       		.byte	0xf3
 9711 0aca 01       		.uleb128 0x1
 9712 0acb 52       		.byte	0x52
 9713 0acc 9F       		.byte	0x9f
 9714 0acd 00000000 		.4byte	0
 9715 0ad1 00000000 		.4byte	0
 9716              		.section	.debug_aranges,"",%progbits
 9717 0000 A4000000 		.4byte	0xa4
 9718 0004 0200     		.2byte	0x2
 9719 0006 00000000 		.4byte	.Ldebug_info0
 9720 000a 04       		.byte	0x4
 9721 000b 00       		.byte	0
 9722 000c 0000     		.2byte	0
 9723 000e 0000     		.2byte	0
 9724 0010 00000000 		.4byte	.LFB161
 9725 0014 30000000 		.4byte	.LFE161-.LFB161
 9726 0018 00000000 		.4byte	.LFB163
 9727 001c 10000000 		.4byte	.LFE163-.LFB163
 9728 0020 00000000 		.4byte	.LFB169
 9729 0024 0C000000 		.4byte	.LFE169-.LFB169
 9730 0028 00000000 		.4byte	.LFB167
 9731 002c 16000000 		.4byte	.LFE167-.LFB167
ARM GAS  C:\Users\haske\AppData\Local\Temp\ccU9uRZG.s 			page 187


 9732 0030 00000000 		.4byte	.LFB168
 9733 0034 40000000 		.4byte	.LFE168-.LFB168
 9734 0038 00000000 		.4byte	.LFB170
 9735 003c 32000000 		.4byte	.LFE170-.LFB170
 9736 0040 00000000 		.4byte	.LFB171
 9737 0044 0E000000 		.4byte	.LFE171-.LFB171
 9738 0048 00000000 		.4byte	.LFB176
 9739 004c 80000000 		.4byte	.LFE176-.LFB176
 9740 0050 00000000 		.4byte	.LFB172
 9741 0054 36000000 		.4byte	.LFE172-.LFB172
 9742 0058 00000000 		.4byte	.LFB175
 9743 005c 04010000 		.4byte	.LFE175-.LFB175
 9744 0060 00000000 		.4byte	.LFB159
 9745 0064 72000000 		.4byte	.LFE159-.LFB159
 9746 0068 00000000 		.4byte	.LFB162
 9747 006c 0A000000 		.4byte	.LFE162-.LFB162
 9748 0070 00000000 		.4byte	.LFB174
 9749 0074 08000000 		.4byte	.LFE174-.LFB174
 9750 0078 00000000 		.4byte	.LFB160
 9751 007c 3E000000 		.4byte	.LFE160-.LFB160
 9752 0080 00000000 		.4byte	.LFB164
 9753 0084 DC000000 		.4byte	.LFE164-.LFB164
 9754 0088 00000000 		.4byte	.LFB165
 9755 008c 80000000 		.4byte	.LFE165-.LFB165
 9756 0090 00000000 		.4byte	.LFB166
 9757 0094 9A000000 		.4byte	.LFE166-.LFB166
 9758 0098 00000000 		.4byte	.LFB173
 9759 009c 08000000 		.4byte	.LFE173-.LFB173
 9760 00a0 00000000 		.4byte	0
 9761 00a4 00000000 		.4byte	0
 9762              		.section	.debug_ranges,"",%progbits
 9763              	.Ldebug_ranges0:
 9764 0000 18000000 		.4byte	.LBB22
 9765 0004 26000000 		.4byte	.LBE22
 9766 0008 28000000 		.4byte	.LBB23
 9767 000c 2E000000 		.4byte	.LBE23
 9768 0010 00000000 		.4byte	0
 9769 0014 00000000 		.4byte	0
 9770 0018 16000000 		.4byte	.LBB25
 9771 001c 28000000 		.4byte	.LBE25
 9772 0020 2A000000 		.4byte	.LBB26
 9773 0024 38000000 		.4byte	.LBE26
 9774 0028 00000000 		.4byte	0
 9775 002c 00000000 		.4byte	0
 9776 0030 50000000 		.4byte	.LBB27
 9777 0034 68000000 		.4byte	.LBE27
 9778 0038 6A000000 		.4byte	.LBB28
 9779 003c 74000000 		.4byte	.LBE28
 9780 0040 76000000 		.4byte	.LBB29
 9781 0044 78000000 		.4byte	.LBE29
 9782 0048 7C000000 		.4byte	.LBB30
 9783 004c 7E000000 		.4byte	.LBE30
 9784 0050 00000000 		.4byte	0
 9785 0054 00000000 		.4byte	0
 9786 0058 00000000 		.4byte	.LFB161
 9787 005c 30000000 		.4byte	.LFE161
 9788 0060 00000000 		.4byte	.LFB163
ARM GAS  C:\Users\haske\AppData\Local\Temp\ccU9uRZG.s 			page 188


 9789 0064 10000000 		.4byte	.LFE163
 9790 0068 00000000 		.4byte	.LFB169
 9791 006c 0C000000 		.4byte	.LFE169
 9792 0070 00000000 		.4byte	.LFB167
 9793 0074 16000000 		.4byte	.LFE167
 9794 0078 00000000 		.4byte	.LFB168
 9795 007c 40000000 		.4byte	.LFE168
 9796 0080 00000000 		.4byte	.LFB170
 9797 0084 32000000 		.4byte	.LFE170
 9798 0088 00000000 		.4byte	.LFB171
 9799 008c 0E000000 		.4byte	.LFE171
 9800 0090 00000000 		.4byte	.LFB176
 9801 0094 80000000 		.4byte	.LFE176
 9802 0098 00000000 		.4byte	.LFB172
 9803 009c 36000000 		.4byte	.LFE172
 9804 00a0 00000000 		.4byte	.LFB175
 9805 00a4 04010000 		.4byte	.LFE175
 9806 00a8 00000000 		.4byte	.LFB159
 9807 00ac 72000000 		.4byte	.LFE159
 9808 00b0 00000000 		.4byte	.LFB162
 9809 00b4 0A000000 		.4byte	.LFE162
 9810 00b8 00000000 		.4byte	.LFB174
 9811 00bc 08000000 		.4byte	.LFE174
 9812 00c0 00000000 		.4byte	.LFB160
 9813 00c4 3E000000 		.4byte	.LFE160
 9814 00c8 00000000 		.4byte	.LFB164
 9815 00cc DC000000 		.4byte	.LFE164
 9816 00d0 00000000 		.4byte	.LFB165
 9817 00d4 80000000 		.4byte	.LFE165
 9818 00d8 00000000 		.4byte	.LFB166
 9819 00dc 9A000000 		.4byte	.LFE166
 9820 00e0 00000000 		.4byte	.LFB173
 9821 00e4 08000000 		.4byte	.LFE173
 9822 00e8 00000000 		.4byte	0
 9823 00ec 00000000 		.4byte	0
 9824              		.section	.debug_line,"",%progbits
 9825              	.Ldebug_line0:
 9826 0000 67080000 		.section	.debug_str,"MS",%progbits,1
 9826      0200E005 
 9826      00000201 
 9826      FB0E0D00 
 9826      01010101 
 9827              	.LASF202:
 9828 0000 70726F70 		.ascii	"prop_cnt\000"
 9828      5F636E74 
 9828      00
 9829              	.LASF19:
 9830 0009 696E7438 		.ascii	"int8_t\000"
 9830      5F7400
 9831              	.LASF173:
 9832 0010 4C565F53 		.ascii	"LV_STYLE_OPA\000"
 9832      54594C45 
 9832      5F4F5041 
 9832      00
 9833              	.LASF356:
 9834 001d 636F6C6F 		.ascii	"color_chroma_key\000"
 9834      725F6368 
ARM GAS  C:\Users\haske\AppData\Local\Temp\ccU9uRZG.s 			page 189


 9834      726F6D61 
 9834      5F6B6579 
 9834      00
 9835              	.LASF574:
 9836 002e 6C765F6F 		.ascii	"lv_obj_del_anim_ready_cb\000"
 9836      626A5F64 
 9836      656C5F61 
 9836      6E696D5F 
 9836      72656164 
 9837              	.LASF311:
 9838 0047 6C765F6C 		.ascii	"lv_ll_node_t\000"
 9838      6C5F6E6F 
 9838      64655F74 
 9838      00
 9839              	.LASF333:
 9840 0054 6C765F64 		.ascii	"lv_disp_draw_buf_t\000"
 9840      6973705F 
 9840      64726177 
 9840      5F627566 
 9840      5F7400
 9841              	.LASF3:
 9842 0067 73697A65 		.ascii	"size_t\000"
 9842      5F7400
 9843              	.LASF31:
 9844 006e 6164765F 		.ascii	"adv_w\000"
 9844      7700
 9845              	.LASF386:
 9846 0074 4C565F49 		.ascii	"LV_INDEV_TYPE_ENCODER\000"
 9846      4E444556 
 9846      5F545950 
 9846      455F454E 
 9846      434F4445 
 9847              	.LASF17:
 9848 008a 73697A65 		.ascii	"sizetype\000"
 9848      74797065 
 9848      00
 9849              	.LASF381:
 9850 0093 6C765F64 		.ascii	"lv_disp_t\000"
 9850      6973705F 
 9850      7400
 9851              	.LASF506:
 9852 009d 4C565F45 		.ascii	"LV_EVENT_DRAW_MAIN_BEGIN\000"
 9852      56454E54 
 9852      5F445241 
 9852      575F4D41 
 9852      494E5F42 
 9853              	.LASF570:
 9854 00b6 6368696C 		.ascii	"child\000"
 9854      6400
 9855              	.LASF157:
 9856 00bc 4C565F53 		.ascii	"LV_STYLE_LINE_DASH_GAP\000"
 9856      54594C45 
 9856      5F4C494E 
 9856      455F4441 
 9856      53485F47 
 9857              	.LASF59:
 9858 00d3 4C565F41 		.ascii	"LV_ANIM_ON\000"
ARM GAS  C:\Users\haske\AppData\Local\Temp\ccU9uRZG.s 			page 190


 9858      4E494D5F 
 9858      4F4E00
 9859              	.LASF314:
 9860 00de 7461696C 		.ascii	"tail\000"
 9860      00
 9861              	.LASF553:
 9862 00e3 6C765F61 		.ascii	"lv_anim_set_ready_cb\000"
 9862      6E696D5F 
 9862      7365745F 
 9862      72656164 
 9862      795F6362 
 9863              	.LASF366:
 9864 00f8 6163745F 		.ascii	"act_scr\000"
 9864      73637200 
 9865              	.LASF371:
 9866 0100 73637265 		.ascii	"screen_cnt\000"
 9866      656E5F63 
 9866      6E7400
 9867              	.LASF302:
 9868 010b 64726177 		.ascii	"draw_bg\000"
 9868      5F626700 
 9869              	.LASF606:
 9870 0113 6C765F6D 		.ascii	"lv_mem_free\000"
 9870      656D5F66 
 9870      72656500 
 9871              	.LASF57:
 9872 011f 6C765F6F 		.ascii	"lv_opa_t\000"
 9872      70615F74 
 9872      00
 9873              	.LASF164:
 9874 0128 4C565F53 		.ascii	"LV_STYLE_ARC_OPA\000"
 9874      54594C45 
 9874      5F415243 
 9874      5F4F5041 
 9874      00
 9875              	.LASF271:
 9876 0139 7261775F 		.ascii	"raw_end\000"
 9876      656E6400 
 9877              	.LASF23:
 9878 0141 696E7433 		.ascii	"int32_t\000"
 9878      325F7400 
 9879              	.LASF459:
 9880 0149 6C765F73 		.ascii	"lv_scrollbar_mode_t\000"
 9880      63726F6C 
 9880      6C626172 
 9880      5F6D6F64 
 9880      655F7400 
 9881              	.LASF201:
 9882 015d 6861735F 		.ascii	"has_group\000"
 9882      67726F75 
 9882      7000
 9883              	.LASF515:
 9884 0167 4C565F45 		.ascii	"LV_EVENT_INSERT\000"
 9884      56454E54 
 9884      5F494E53 
 9884      45525400 
 9885              	.LASF447:
ARM GAS  C:\Users\haske\AppData\Local\Temp\ccU9uRZG.s 			page 191


 9886 0177 66726F7A 		.ascii	"frozen\000"
 9886      656E00
 9887              	.LASF27:
 9888 017e 6C765F70 		.ascii	"lv_point_t\000"
 9888      6F696E74 
 9888      5F7400
 9889              	.LASF496:
 9890 0189 4C565F45 		.ascii	"LV_EVENT_SCROLL_END\000"
 9890      56454E54 
 9890      5F534352 
 9890      4F4C4C5F 
 9890      454E4400 
 9891              	.LASF219:
 9892 019d 72616469 		.ascii	"radius\000"
 9892      757300
 9893              	.LASF222:
 9894 01a4 62675F63 		.ascii	"bg_color\000"
 9894      6F6C6F72 
 9894      00
 9895              	.LASF39:
 9896 01ad 6C696E65 		.ascii	"line_height\000"
 9896      5F686569 
 9896      67687400 
 9897              	.LASF68:
 9898 01b9 70617468 		.ascii	"path_cb\000"
 9898      5F636200 
 9899              	.LASF253:
 9900 01c1 62696469 		.ascii	"bidi_dir\000"
 9900      5F646972 
 9900      00
 9901              	.LASF360:
 9902 01ca 64726177 		.ascii	"draw_ctx_size\000"
 9902      5F637478 
 9902      5F73697A 
 9902      6500
 9903              	.LASF85:
 9904 01d8 6C765F61 		.ascii	"lv_anim_get_value_cb_t\000"
 9904      6E696D5F 
 9904      6765745F 
 9904      76616C75 
 9904      655F6362 
 9905              	.LASF545:
 9906 01ef 7363726F 		.ascii	"scroll_snap_x\000"
 9906      6C6C5F73 
 9906      6E61705F 
 9906      7800
 9907              	.LASF279:
 9908 01fd 4C565F44 		.ascii	"LV_DRAW_LAYER_FLAG_HAS_ALPHA\000"
 9908      5241575F 
 9908      4C415945 
 9908      525F464C 
 9908      41475F48 
 9909              	.LASF559:
 9910 021a 6C765F61 		.ascii	"lv_anim_set_var\000"
 9910      6E696D5F 
 9910      7365745F 
 9910      76617200 
ARM GAS  C:\Users\haske\AppData\Local\Temp\ccU9uRZG.s 			page 192


 9911              	.LASF520:
 9912 022a 4C565F45 		.ascii	"LV_EVENT_CHILD_CHANGED\000"
 9912      56454E54 
 9912      5F434849 
 9912      4C445F43 
 9912      48414E47 
 9913              	.LASF212:
 9914 0241 73746174 		.ascii	"state\000"
 9914      6500
 9915              	.LASF108:
 9916 0247 4C565F53 		.ascii	"LV_STYLE_HEIGHT\000"
 9916      54594C45 
 9916      5F484549 
 9916      47485400 
 9917              	.LASF321:
 9918 0257 72657065 		.ascii	"repeat_count\000"
 9918      61745F63 
 9918      6F756E74 
 9918      00
 9919              	.LASF259:
 9920 0264 7A6F6F6D 		.ascii	"zoom\000"
 9920      00
 9921              	.LASF463:
 9922 0269 69735F6C 		.ascii	"is_local\000"
 9922      6F63616C 
 9922      00
 9923              	.LASF294:
 9924 0272 64726177 		.ascii	"draw_rect\000"
 9924      5F726563 
 9924      7400
 9925              	.LASF317:
 9926 027c 5F6C765F 		.ascii	"_lv_timer_t\000"
 9926      74696D65 
 9926      725F7400 
 9927              	.LASF580:
 9928 0288 6C765F6F 		.ascii	"lv_obj_move_to_index\000"
 9928      626A5F6D 
 9928      6F76655F 
 9928      746F5F69 
 9928      6E646578 
 9929              	.LASF49:
 9930 029d 4C565F52 		.ascii	"LV_RES_INV\000"
 9930      45535F49 
 9930      4E5600
 9931              	.LASF293:
 9932 02a8 696E6974 		.ascii	"init_buf\000"
 9932      5F627566 
 9932      00
 9933              	.LASF468:
 9934 02b1 636F6E73 		.ascii	"constructor_cb\000"
 9934      74727563 
 9934      746F725F 
 9934      636200
 9935              	.LASF276:
 9936 02c0 726F756E 		.ascii	"rounded\000"
 9936      64656400 
 9937              	.LASF189:
ARM GAS  C:\Users\haske\AppData\Local\Temp\ccU9uRZG.s 			page 193


 9938 02c8 5F4C565F 		.ascii	"_LV_STYLE_LAST_BUILT_IN_PROP\000"
 9938      5354594C 
 9938      455F4C41 
 9938      53545F42 
 9938      55494C54 
 9939              	.LASF292:
 9940 02e5 5F6C765F 		.ascii	"_lv_draw_ctx_t\000"
 9940      64726177 
 9940      5F637478 
 9940      5F7400
 9941              	.LASF397:
 9942 02f4 74797065 		.ascii	"type\000"
 9942      00
 9943              	.LASF498:
 9944 02f9 4C565F45 		.ascii	"LV_EVENT_GESTURE\000"
 9944      56454E54 
 9944      5F474553 
 9944      54555245 
 9944      00
 9945              	.LASF491:
 9946 030a 4C565F45 		.ascii	"LV_EVENT_LONG_PRESSED\000"
 9946      56454E54 
 9946      5F4C4F4E 
 9946      475F5052 
 9946      45535345 
 9947              	.LASF224:
 9948 0320 62675F69 		.ascii	"bg_img_src\000"
 9948      6D675F73 
 9948      726300
 9949              	.LASF139:
 9950 032b 4C565F53 		.ascii	"LV_STYLE_BORDER_WIDTH\000"
 9950      54594C45 
 9950      5F424F52 
 9950      4445525F 
 9950      57494454 
 9951              	.LASF582:
 9952 0341 6F6C645F 		.ascii	"old_index\000"
 9952      696E6465 
 9952      7800
 9953              	.LASF555:
 9954 034b 64656C61 		.ascii	"delay\000"
 9954      7900
 9955              	.LASF521:
 9956 0351 4C565F45 		.ascii	"LV_EVENT_CHILD_CREATED\000"
 9956      56454E54 
 9956      5F434849 
 9956      4C445F43 
 9956      52454154 
 9957              	.LASF455:
 9958 0368 4C565F4F 		.ascii	"LV_OBJ_TREE_WALK_SKIP_CHILDREN\000"
 9958      424A5F54 
 9958      5245455F 
 9958      57414C4B 
 9958      5F534B49 
 9959              	.LASF121:
 9960 0387 4C565F53 		.ascii	"LV_STYLE_PAD_COLUMN\000"
 9960      54594C45 
ARM GAS  C:\Users\haske\AppData\Local\Temp\ccU9uRZG.s 			page 194


 9960      5F504144 
 9960      5F434F4C 
 9960      554D4E00 
 9961              	.LASF396:
 9962 039b 5F6C765F 		.ascii	"_lv_indev_drv_t\000"
 9962      696E6465 
 9962      765F6472 
 9962      765F7400 
 9963              	.LASF537:
 9964 03ab 6368696C 		.ascii	"children\000"
 9964      6472656E 
 9964      00
 9965              	.LASF391:
 9966 03b4 706F696E 		.ascii	"point\000"
 9966      7400
 9967              	.LASF131:
 9968 03ba 4C565F53 		.ascii	"LV_STYLE_BG_DITHER_MODE\000"
 9968      54594C45 
 9968      5F42475F 
 9968      44495448 
 9968      45525F4D 
 9969              	.LASF25:
 9970 03d2 75696E74 		.ascii	"uint_fast32_t\000"
 9970      5F666173 
 9970      7433325F 
 9970      7400
 9971              	.LASF234:
 9972 03e0 626F7264 		.ascii	"border_side\000"
 9972      65725F73 
 9972      69646500 
 9973              	.LASF6:
 9974 03ec 5F5F7569 		.ascii	"__uint8_t\000"
 9974      6E74385F 
 9974      7400
 9975              	.LASF218:
 9976 03f6 775F6C61 		.ascii	"w_layout\000"
 9976      796F7574 
 9976      00
 9977              	.LASF220:
 9978 03ff 626C656E 		.ascii	"blend_mode\000"
 9978      645F6D6F 
 9978      646500
 9979              	.LASF604:
 9980 040a 6C765F69 		.ascii	"lv_indev_get_obj_act\000"
 9980      6E646576 
 9980      5F676574 
 9980      5F6F626A 
 9980      5F616374 
 9981              	.LASF115:
 9982 041f 4C565F53 		.ascii	"LV_STYLE_RADIUS\000"
 9982      54594C45 
 9982      5F524144 
 9982      49555300 
 9983              	.LASF336:
 9984 042f 7665725F 		.ascii	"ver_res\000"
 9984      72657300 
 9985              	.LASF214:
ARM GAS  C:\Users\haske\AppData\Local\Temp\ccU9uRZG.s 			page 195


 9986 0437 7363725F 		.ascii	"scr_layout_inv\000"
 9986      6C61796F 
 9986      75745F69 
 9986      6E7600
 9987              	.LASF107:
 9988 0446 4C565F53 		.ascii	"LV_STYLE_MAX_WIDTH\000"
 9988      54594C45 
 9988      5F4D4158 
 9988      5F574944 
 9988      544800
 9989              	.LASF80:
 9990 0459 72756E5F 		.ascii	"run_round\000"
 9990      726F756E 
 9990      6400
 9991              	.LASF365:
 9992 0463 73637265 		.ascii	"screens\000"
 9992      656E7300 
 9993              	.LASF134:
 9994 046b 4C565F53 		.ascii	"LV_STYLE_BG_IMG_RECOLOR\000"
 9994      54594C45 
 9994      5F42475F 
 9994      494D475F 
 9994      5245434F 
 9995              	.LASF151:
 9996 0483 4C565F53 		.ascii	"LV_STYLE_SHADOW_OPA\000"
 9996      54594C45 
 9996      5F534841 
 9996      444F575F 
 9996      4F504100 
 9997              	.LASF600:
 9998 0497 6C765F65 		.ascii	"lv_event_send\000"
 9998      76656E74 
 9998      5F73656E 
 9998      6400
 9999              	.LASF418:
 10000 04a5 7363726F 		.ascii	"scroll_obj\000"
 10000      6C6C5F6F 
 10000      626A00
 10001              	.LASF182:
 10002 04b0 4C565F53 		.ascii	"LV_STYLE_TRANSFORM_HEIGHT\000"
 10002      54594C45 
 10002      5F545241 
 10002      4E53464F 
 10002      524D5F48 
 10003              	.LASF119:
 10004 04ca 4C565F53 		.ascii	"LV_STYLE_PAD_RIGHT\000"
 10004      54594C45 
 10004      5F504144 
 10004      5F524947 
 10004      485400
 10005              	.LASF486:
 10006 04dd 4C565F45 		.ascii	"LV_EVENT_ALL\000"
 10006      56454E54 
 10006      5F414C4C 
 10006      00
 10007              	.LASF380:
 10008 04ea 6C617374 		.ascii	"last_activity_time\000"
ARM GAS  C:\Users\haske\AppData\Local\Temp\ccU9uRZG.s 			page 196


 10008      5F616374 
 10008      69766974 
 10008      795F7469 
 10008      6D6500
 10009              	.LASF13:
 10010 04fd 6C6F6E67 		.ascii	"long int\000"
 10010      20696E74 
 10010      00
 10011              	.LASF179:
 10012 0506 4C565F53 		.ascii	"LV_STYLE_TRANSITION\000"
 10012      54594C45 
 10012      5F545241 
 10012      4E534954 
 10012      494F4E00 
 10013              	.LASF346:
 10014 051a 726F7461 		.ascii	"rotated\000"
 10014      74656400 
 10015              	.LASF422:
 10016 0522 7363726F 		.ascii	"scroll_dir\000"
 10016      6C6C5F64 
 10016      697200
 10017              	.LASF474:
 10018 052d 67726F75 		.ascii	"group_def\000"
 10018      705F6465 
 10018      6600
 10019              	.LASF359:
 10020 0537 64726177 		.ascii	"draw_ctx_deinit\000"
 10020      5F637478 
 10020      5F646569 
 10020      6E697400 
 10021              	.LASF135:
 10022 0547 4C565F53 		.ascii	"LV_STYLE_BG_IMG_RECOLOR_OPA\000"
 10022      54594C45 
 10022      5F42475F 
 10022      494D475F 
 10022      5245434F 
 10023              	.LASF221:
 10024 0563 62675F6F 		.ascii	"bg_opa\000"
 10024      706100
 10025              	.LASF363:
 10026 056a 72656672 		.ascii	"refr_timer\000"
 10026      5F74696D 
 10026      657200
 10027              	.LASF257:
 10028 0575 6C765F64 		.ascii	"lv_draw_label_dsc_t\000"
 10028      7261775F 
 10028      6C616265 
 10028      6C5F6473 
 10028      635F7400 
 10029              	.LASF452:
 10030 0589 6C765F73 		.ascii	"lv_state_t\000"
 10030      74617465 
 10030      5F7400
 10031              	.LASF250:
 10032 0594 73656C5F 		.ascii	"sel_bg_color\000"
 10032      62675F63 
 10032      6F6C6F72 
ARM GAS  C:\Users\haske\AppData\Local\Temp\ccU9uRZG.s 			page 197


 10032      00
 10033              	.LASF446:
 10034 05a1 65646765 		.ascii	"edge_cb\000"
 10034      5F636200 
 10035              	.LASF377:
 10036 05a9 696E765F 		.ascii	"inv_area_joined\000"
 10036      61726561 
 10036      5F6A6F69 
 10036      6E656400 
 10037              	.LASF136:
 10038 05b9 4C565F53 		.ascii	"LV_STYLE_BG_IMG_TILED\000"
 10038      54594C45 
 10038      5F42475F 
 10038      494D475F 
 10038      54494C45 
 10039              	.LASF368:
 10040 05cf 7363725F 		.ascii	"scr_to_load\000"
 10040      746F5F6C 
 10040      6F616400 
 10041              	.LASF592:
 10042 05db 5F6C765F 		.ascii	"_lv_disp_ll\000"
 10042      64697370 
 10042      5F6C6C00 
 10043              	.LASF564:
 10044 05e7 6C765F6F 		.ascii	"lv_obj_get_screen\000"
 10044      626A5F67 
 10044      65745F73 
 10044      63726565 
 10044      6E00
 10045              	.LASF313:
 10046 05f9 68656164 		.ascii	"head\000"
 10046      00
 10047              	.LASF138:
 10048 05fe 4C565F53 		.ascii	"LV_STYLE_BORDER_OPA\000"
 10048      54594C45 
 10048      5F424F52 
 10048      4445525F 
 10048      4F504100 
 10049              	.LASF598:
 10050 0612 6C765F64 		.ascii	"lv_disp_get_next\000"
 10050      6973705F 
 10050      6765745F 
 10050      6E657874 
 10050      00
 10051              	.LASF398:
 10052 0623 72656164 		.ascii	"read_cb\000"
 10052      5F636200 
 10053              	.LASF613:
 10054 062b 6C765F6F 		.ascii	"lv_obj_mark_layout_as_dirty\000"
 10054      626A5F6D 
 10054      61726B5F 
 10054      6C61796F 
 10054      75745F61 
 10055              	.LASF513:
 10056 0647 4C565F45 		.ascii	"LV_EVENT_DRAW_PART_END\000"
 10056      56454E54 
 10056      5F445241 
ARM GAS  C:\Users\haske\AppData\Local\Temp\ccU9uRZG.s 			page 198


 10056      575F5041 
 10056      52545F45 
 10057              	.LASF78:
 10058 065e 6561726C 		.ascii	"early_apply\000"
 10058      795F6170 
 10058      706C7900 
 10059              	.LASF331:
 10060 066a 6C617374 		.ascii	"last_area\000"
 10060      5F617265 
 10060      6100
 10061              	.LASF421:
 10062 0674 67657374 		.ascii	"gesture_sum\000"
 10062      7572655F 
 10062      73756D00 
 10063              	.LASF304:
 10064 0680 62756666 		.ascii	"buffer_copy\000"
 10064      65725F63 
 10064      6F707900 
 10065              	.LASF419:
 10066 068c 6C617374 		.ascii	"last_pressed\000"
 10066      5F707265 
 10066      73736564 
 10066      00
 10067              	.LASF235:
 10068 0699 6F75746C 		.ascii	"outline_color\000"
 10068      696E655F 
 10068      636F6C6F 
 10068      7200
 10069              	.LASF150:
 10070 06a7 4C565F53 		.ascii	"LV_STYLE_SHADOW_COLOR\000"
 10070      54594C45 
 10070      5F534841 
 10070      444F575F 
 10070      434F4C4F 
 10071              	.LASF216:
 10072 06bd 7374796C 		.ascii	"style_cnt\000"
 10072      655F636E 
 10072      7400
 10073              	.LASF213:
 10074 06c7 6C61796F 		.ascii	"layout_inv\000"
 10074      75745F69 
 10074      6E7600
 10075              	.LASF5:
 10076 06d2 7369676E 		.ascii	"signed char\000"
 10076      65642063 
 10076      68617200 
 10077              	.LASF20:
 10078 06de 75696E74 		.ascii	"uint8_t\000"
 10078      385F7400 
 10079              	.LASF299:
 10080 06e6 64726177 		.ascii	"draw_line\000"
 10080      5F6C696E 
 10080      6500
 10081              	.LASF335:
 10082 06f0 686F725F 		.ascii	"hor_res\000"
 10082      72657300 
 10083              	.LASF58:
ARM GAS  C:\Users\haske\AppData\Local\Temp\ccU9uRZG.s 			page 199


 10084 06f8 4C565F41 		.ascii	"LV_ANIM_OFF\000"
 10084      4E494D5F 
 10084      4F464600 
 10085              	.LASF557:
 10086 0704 64757261 		.ascii	"duration\000"
 10086      74696F6E 
 10086      00
 10087              	.LASF229:
 10088 070d 62675F69 		.ascii	"bg_img_tiled\000"
 10088      6D675F74 
 10088      696C6564 
 10088      00
 10089              	.LASF127:
 10090 071a 4C565F53 		.ascii	"LV_STYLE_BG_GRAD_DIR\000"
 10090      54594C45 
 10090      5F42475F 
 10090      47524144 
 10090      5F444952 
 10091              	.LASF38:
 10092 072f 6765745F 		.ascii	"get_glyph_bitmap\000"
 10092      676C7970 
 10092      685F6269 
 10092      746D6170 
 10092      00
 10093              	.LASF64:
 10094 0740 73746172 		.ascii	"start_cb\000"
 10094      745F6362 
 10094      00
 10095              	.LASF274:
 10096 0749 656E645F 		.ascii	"end_angle\000"
 10096      616E676C 
 10096      6500
 10097              	.LASF52:
 10098 0753 626C7565 		.ascii	"blue\000"
 10098      00
 10099              	.LASF227:
 10100 0758 62675F69 		.ascii	"bg_img_opa\000"
 10100      6D675F6F 
 10100      706100
 10101              	.LASF500:
 10102 0763 4C565F45 		.ascii	"LV_EVENT_FOCUSED\000"
 10102      56454E54 
 10102      5F464F43 
 10102      55534544 
 10102      00
 10103              	.LASF69:
 10104 0774 73746172 		.ascii	"start_value\000"
 10104      745F7661 
 10104      6C756500 
 10105              	.LASF113:
 10106 0780 4C565F53 		.ascii	"LV_STYLE_ALIGN\000"
 10106      54594C45 
 10106      5F414C49 
 10106      474E00
 10107              	.LASF7:
 10108 078f 756E7369 		.ascii	"unsigned char\000"
 10108      676E6564 
ARM GAS  C:\Users\haske\AppData\Local\Temp\ccU9uRZG.s 			page 200


 10108      20636861 
 10108      7200
 10109              	.LASF369:
 10110 079d 746F705F 		.ascii	"top_layer\000"
 10110      6C617965 
 10110      7200
 10111              	.LASF434:
 10112 07a7 74797065 		.ascii	"types\000"
 10112      7300
 10113              	.LASF530:
 10114 07ad 4C565F45 		.ascii	"LV_EVENT_GET_SELF_SIZE\000"
 10114      56454E54 
 10114      5F474554 
 10114      5F53454C 
 10114      465F5349 
 10115              	.LASF507:
 10116 07c4 4C565F45 		.ascii	"LV_EVENT_DRAW_MAIN\000"
 10116      56454E54 
 10116      5F445241 
 10116      575F4D41 
 10116      494E00
 10117              	.LASF272:
 10118 07d7 6C765F64 		.ascii	"lv_draw_line_dsc_t\000"
 10118      7261775F 
 10118      6C696E65 
 10118      5F647363 
 10118      5F7400
 10119              	.LASF187:
 10120 07ea 4C565F53 		.ascii	"LV_STYLE_TRANSFORM_PIVOT_X\000"
 10120      54594C45 
 10120      5F545241 
 10120      4E53464F 
 10120      524D5F50 
 10121              	.LASF188:
 10122 0805 4C565F53 		.ascii	"LV_STYLE_TRANSFORM_PIVOT_Y\000"
 10122      54594C45 
 10122      5F545241 
 10122      4E53464F 
 10122      524D5F50 
 10123              	.LASF536:
 10124 0820 6C765F67 		.ascii	"lv_group_t\000"
 10124      726F7570 
 10124      5F7400
 10125              	.LASF388:
 10126 082b 4C565F49 		.ascii	"LV_INDEV_STATE_RELEASED\000"
 10126      4E444556 
 10126      5F535441 
 10126      54455F52 
 10126      454C4541 
 10127              	.LASF153:
 10128 0843 4C565F53 		.ascii	"LV_STYLE_IMG_RECOLOR\000"
 10128      54594C45 
 10128      5F494D47 
 10128      5F524543 
 10128      4F4C4F52 
 10129              	.LASF287:
 10130 0858 61726561 		.ascii	"area_act\000"
ARM GAS  C:\Users\haske\AppData\Local\Temp\ccU9uRZG.s 			page 201


 10130      5F616374 
 10130      00
 10131              	.LASF161:
 10132 0861 4C565F53 		.ascii	"LV_STYLE_ARC_WIDTH\000"
 10132      54594C45 
 10132      5F415243 
 10132      5F574944 
 10132      544800
 10133              	.LASF34:
 10134 0874 6F66735F 		.ascii	"ofs_x\000"
 10134      7800
 10135              	.LASF35:
 10136 087a 6F66735F 		.ascii	"ofs_y\000"
 10136      7900
 10137              	.LASF560:
 10138 0880 64656C61 		.ascii	"delay_ms\000"
 10138      795F6D73 
 10138      00
 10139              	.LASF90:
 10140 0889 6C765F62 		.ascii	"lv_base_dir_t\000"
 10140      6173655F 
 10140      6469725F 
 10140      7400
 10141              	.LASF374:
 10142 0897 72656E64 		.ascii	"rendering_in_progress\000"
 10142      6572696E 
 10142      675F696E 
 10142      5F70726F 
 10142      67726573 
 10143              	.LASF576:
 10144 08ad 6C765F6F 		.ascii	"lv_obj_del_async_cb\000"
 10144      626A5F64 
 10144      656C5F61 
 10144      73796E63 
 10144      5F636200 
 10145              	.LASF217:
 10146 08c1 685F6C61 		.ascii	"h_layout\000"
 10146      796F7574 
 10146      00
 10147              	.LASF330:
 10148 08ca 666C7573 		.ascii	"flushing_last\000"
 10148      68696E67 
 10148      5F6C6173 
 10148      7400
 10149              	.LASF47:
 10150 08d8 5F426F6F 		.ascii	"_Bool\000"
 10150      6C00
 10151              	.LASF544:
 10152 08de 7363726F 		.ascii	"scrollbar_mode\000"
 10152      6C6C6261 
 10152      725F6D6F 
 10152      646500
 10153              	.LASF338:
 10154 08ed 70687973 		.ascii	"physical_ver_res\000"
 10154      6963616C 
 10154      5F766572 
 10154      5F726573 
ARM GAS  C:\Users\haske\AppData\Local\Temp\ccU9uRZG.s 			page 202


 10154      00
 10155              	.LASF290:
 10156 08fe 6F726967 		.ascii	"original\000"
 10156      696E616C 
 10156      00
 10157              	.LASF183:
 10158 0907 4C565F53 		.ascii	"LV_STYLE_TRANSLATE_X\000"
 10158      54594C45 
 10158      5F545241 
 10158      4E534C41 
 10158      54455F58 
 10159              	.LASF184:
 10160 091c 4C565F53 		.ascii	"LV_STYLE_TRANSLATE_Y\000"
 10160      54594C45 
 10160      5F545241 
 10160      4E534C41 
 10160      54455F59 
 10161              	.LASF615:
 10162 0931 474E5520 		.ascii	"GNU C11 5.4.1 20160609 (release) [ARM/embedded-5-br"
 10162      43313120 
 10162      352E342E 
 10162      31203230 
 10162      31363036 
 10163 0964 616E6368 		.ascii	"anch revision 237715] -mcpu=cortex-m0plus -mthumb -"
 10163      20726576 
 10163      6973696F 
 10163      6E203233 
 10163      37373135 
 10164 0997 67202D4F 		.ascii	"g -Og -ffunction-sections -ffat-lto-objects\000"
 10164      67202D66 
 10164      66756E63 
 10164      74696F6E 
 10164      2D736563 
 10165              	.LASF483:
 10166 09c3 73746F70 		.ascii	"stop_processing\000"
 10166      5F70726F 
 10166      63657373 
 10166      696E6700 
 10167              	.LASF195:
 10168 09d3 76616C75 		.ascii	"value\000"
 10168      6500
 10169              	.LASF211:
 10170 09d9 666C6167 		.ascii	"flags\000"
 10170      7300
 10171              	.LASF281:
 10172 09df 6C765F64 		.ascii	"lv_draw_layer_flags_t\000"
 10172      7261775F 
 10172      6C617965 
 10172      725F666C 
 10172      6167735F 
 10173              	.LASF18:
 10174 09f5 63686172 		.ascii	"char\000"
 10174      00
 10175              	.LASF265:
 10176 09fa 6C765F64 		.ascii	"lv_draw_img_dsc_t\000"
 10176      7261775F 
 10176      696D675F 
ARM GAS  C:\Users\haske\AppData\Local\Temp\ccU9uRZG.s 			page 203


 10176      6473635F 
 10176      7400
 10177              	.LASF392:
 10178 0a0c 62746E5F 		.ascii	"btn_id\000"
 10178      696400
 10179              	.LASF82:
 10180 0a13 6C765F61 		.ascii	"lv_anim_exec_xcb_t\000"
 10180      6E696D5F 
 10180      65786563 
 10180      5F786362 
 10180      5F7400
 10181              	.LASF454:
 10182 0a26 4C565F4F 		.ascii	"LV_OBJ_TREE_WALK_NEXT\000"
 10182      424A5F54 
 10182      5245455F 
 10182      57414C4B 
 10182      5F4E4558 
 10183              	.LASF42:
 10184 0a3c 756E6465 		.ascii	"underline_position\000"
 10184      726C696E 
 10184      655F706F 
 10184      73697469 
 10184      6F6E00
 10185              	.LASF309:
 10186 0a4f 6C617965 		.ascii	"layer_instance_size\000"
 10186      725F696E 
 10186      7374616E 
 10186      63655F73 
 10186      697A6500 
 10187              	.LASF268:
 10188 0a63 64617368 		.ascii	"dash_gap\000"
 10188      5F676170 
 10188      00
 10189              	.LASF301:
 10190 0a6c 64726177 		.ascii	"draw_transform\000"
 10190      5F747261 
 10190      6E73666F 
 10190      726D00
 10191              	.LASF342:
 10192 0a7b 64697265 		.ascii	"direct_mode\000"
 10192      63745F6D 
 10192      6F646500 
 10193              	.LASF504:
 10194 0a87 4C565F45 		.ascii	"LV_EVENT_COVER_CHECK\000"
 10194      56454E54 
 10194      5F434F56 
 10194      45525F43 
 10194      4845434B 
 10195              	.LASF122:
 10196 0a9c 4C565F53 		.ascii	"LV_STYLE_BASE_DIR\000"
 10196      54594C45 
 10196      5F424153 
 10196      455F4449 
 10196      5200
 10197              	.LASF208:
 10198 0aae 73706563 		.ascii	"spec_attr\000"
 10198      5F617474 
ARM GAS  C:\Users\haske\AppData\Local\Temp\ccU9uRZG.s 			page 204


 10198      7200
 10199              	.LASF144:
 10200 0ab8 4C565F53 		.ascii	"LV_STYLE_OUTLINE_OPA\000"
 10200      54594C45 
 10200      5F4F5554 
 10200      4C494E45 
 10200      5F4F5041 
 10201              	.LASF100:
 10202 0acd 73746F70 		.ascii	"stops_count\000"
 10202      735F636F 
 10202      756E7400 
 10203              	.LASF345:
 10204 0ad9 616E7469 		.ascii	"antialiasing\000"
 10204      616C6961 
 10204      73696E67 
 10204      00
 10205              	.LASF10:
 10206 0ae6 5F5F7569 		.ascii	"__uint16_t\000"
 10206      6E743136 
 10206      5F7400
 10207              	.LASF420:
 10208 0af1 7363726F 		.ascii	"scroll_area\000"
 10208      6C6C5F61 
 10208      72656100 
 10209              	.LASF503:
 10210 0afd 4C565F45 		.ascii	"LV_EVENT_HIT_TEST\000"
 10210      56454E54 
 10210      5F484954 
 10210      5F544553 
 10210      5400
 10211              	.LASF551:
 10212 0b0f 5F6C765F 		.ascii	"_lv_obj_spec_attr_t\000"
 10212      6F626A5F 
 10212      73706563 
 10212      5F617474 
 10212      725F7400 
 10213              	.LASF237:
 10214 0b23 6F75746C 		.ascii	"outline_pad\000"
 10214      696E655F 
 10214      70616400 
 10215              	.LASF569:
 10216 0b2f 6C765F6F 		.ascii	"lv_obj_get_index\000"
 10216      626A5F67 
 10216      65745F69 
 10216      6E646578 
 10216      00
 10217              	.LASF310:
 10218 0b40 6C765F64 		.ascii	"lv_draw_ctx_t\000"
 10218      7261775F 
 10218      6374785F 
 10218      7400
 10219              	.LASF124:
 10220 0b4e 4C565F53 		.ascii	"LV_STYLE_BG_COLOR\000"
 10220      54594C45 
 10220      5F42475F 
 10220      434F4C4F 
 10220      5200
ARM GAS  C:\Users\haske\AppData\Local\Temp\ccU9uRZG.s 			page 205


 10221              	.LASF154:
 10222 0b60 4C565F53 		.ascii	"LV_STYLE_IMG_RECOLOR_OPA\000"
 10222      54594C45 
 10222      5F494D47 
 10222      5F524543 
 10222      4F4C4F52 
 10223              	.LASF438:
 10224 0b79 70726F63 		.ascii	"proc\000"
 10224      00
 10225              	.LASF230:
 10226 0b7e 626F7264 		.ascii	"border_color\000"
 10226      65725F63 
 10226      6F6C6F72 
 10226      00
 10227              	.LASF180:
 10228 0b8b 4C565F53 		.ascii	"LV_STYLE_BLEND_MODE\000"
 10228      54594C45 
 10228      5F424C45 
 10228      4E445F4D 
 10228      4F444500 
 10229              	.LASF29:
 10230 0b9f 6C765F64 		.ascii	"lv_dir_t\000"
 10230      69725F74 
 10230      00
 10231              	.LASF525:
 10232 0ba8 4C565F45 		.ascii	"LV_EVENT_SCREEN_LOADED\000"
 10232      56454E54 
 10232      5F534352 
 10232      45454E5F 
 10232      4C4F4144 
 10233              	.LASF194:
 10234 0bbf 70726F70 		.ascii	"prop\000"
 10234      00
 10235              	.LASF199:
 10236 0bc4 636F6E73 		.ascii	"const_props\000"
 10236      745F7072 
 10236      6F707300 
 10237              	.LASF465:
 10238 0bd0 5F6C765F 		.ascii	"_lv_obj_style_t\000"
 10238      6F626A5F 
 10238      7374796C 
 10238      655F7400 
 10239              	.LASF233:
 10240 0be0 626F7264 		.ascii	"border_post\000"
 10240      65725F70 
 10240      6F737400 
 10241              	.LASF540:
 10242 0bec 6576656E 		.ascii	"event_dsc\000"
 10242      745F6473 
 10242      6300
 10243              	.LASF329:
 10244 0bf6 666C7573 		.ascii	"flushing\000"
 10244      68696E67 
 10244      00
 10245              	.LASF156:
 10246 0bff 4C565F53 		.ascii	"LV_STYLE_LINE_DASH_WIDTH\000"
 10246      54594C45 
ARM GAS  C:\Users\haske\AppData\Local\Temp\ccU9uRZG.s 			page 206


 10246      5F4C494E 
 10246      455F4441 
 10246      53485F57 
 10247              	.LASF65:
 10248 0c18 72656164 		.ascii	"ready_cb\000"
 10248      795F6362 
 10248      00
 10249              	.LASF241:
 10250 0c21 73686164 		.ascii	"shadow_ofs_x\000"
 10250      6F775F6F 
 10250      66735F78 
 10250      00
 10251              	.LASF181:
 10252 0c2e 4C565F53 		.ascii	"LV_STYLE_TRANSFORM_WIDTH\000"
 10252      54594C45 
 10252      5F545241 
 10252      4E53464F 
 10252      524D5F57 
 10253              	.LASF323:
 10254 0c47 6C765F74 		.ascii	"lv_timer_t\000"
 10254      696D6572 
 10254      5F7400
 10255              	.LASF539:
 10256 0c52 67726F75 		.ascii	"group_p\000"
 10256      705F7000 
 10257              	.LASF193:
 10258 0c5a 6C765F73 		.ascii	"lv_style_prop_t\000"
 10258      74796C65 
 10258      5F70726F 
 10258      705F7400 
 10259              	.LASF269:
 10260 0c6a 726F756E 		.ascii	"round_start\000"
 10260      645F7374 
 10260      61727400 
 10261              	.LASF541:
 10262 0c76 7363726F 		.ascii	"scroll\000"
 10262      6C6C00
 10263              	.LASF44:
 10264 0c7d 66616C6C 		.ascii	"fallback\000"
 10264      6261636B 
 10264      00
 10265              	.LASF198:
 10266 0c86 76616C75 		.ascii	"values_and_props\000"
 10266      65735F61 
 10266      6E645F70 
 10266      726F7073 
 10266      00
 10267              	.LASF591:
 10268 0c97 6C765F66 		.ascii	"lv_font_montserrat_14\000"
 10268      6F6E745F 
 10268      6D6F6E74 
 10268      73657272 
 10268      61745F31 
 10269              	.LASF390:
 10270 0cad 6C765F69 		.ascii	"lv_indev_state_t\000"
 10270      6E646576 
 10270      5F737461 
ARM GAS  C:\Users\haske\AppData\Local\Temp\ccU9uRZG.s 			page 207


 10270      74655F74 
 10270      00
 10271              	.LASF344:
 10272 0cbe 73775F72 		.ascii	"sw_rotate\000"
 10272      6F746174 
 10272      6500
 10273              	.LASF548:
 10274 0cc8 6C617965 		.ascii	"layer_type\000"
 10274      725F7479 
 10274      706500
 10275              	.LASF178:
 10276 0cd3 4C565F53 		.ascii	"LV_STYLE_ANIM_SPEED\000"
 10276      54594C45 
 10276      5F414E49 
 10276      4D5F5350 
 10276      45454400 
 10277              	.LASF28:
 10278 0ce7 6C765F61 		.ascii	"lv_area_t\000"
 10278      7265615F 
 10278      7400
 10279              	.LASF305:
 10280 0cf1 6C617965 		.ascii	"layer_init\000"
 10280      725F696E 
 10280      697400
 10281              	.LASF142:
 10282 0cfc 4C565F53 		.ascii	"LV_STYLE_OUTLINE_WIDTH\000"
 10282      54594C45 
 10282      5F4F5554 
 10282      4C494E45 
 10282      5F574944 
 10283              	.LASF562:
 10284 0d13 6C765F6F 		.ascii	"lv_obj_del_async\000"
 10284      626A5F64 
 10284      656C5F61 
 10284      73796E63 
 10284      00
 10285              	.LASF543:
 10286 0d24 6578745F 		.ascii	"ext_draw_size\000"
 10286      64726177 
 10286      5F73697A 
 10286      6500
 10287              	.LASF535:
 10288 0d32 6C765F67 		.ascii	"lv_group_edge_cb_t\000"
 10288      726F7570 
 10288      5F656467 
 10288      655F6362 
 10288      5F7400
 10289              	.LASF493:
 10290 0d45 4C565F45 		.ascii	"LV_EVENT_CLICKED\000"
 10290      56454E54 
 10290      5F434C49 
 10290      434B4544 
 10290      00
 10291              	.LASF104:
 10292 0d56 4C565F53 		.ascii	"LV_STYLE_PROP_INV\000"
 10292      54594C45 
 10292      5F50524F 
ARM GAS  C:\Users\haske\AppData\Local\Temp\ccU9uRZG.s 			page 208


 10292      505F494E 
 10292      5600
 10293              	.LASF170:
 10294 0d68 4C565F53 		.ascii	"LV_STYLE_TEXT_LINE_SPACE\000"
 10294      54594C45 
 10294      5F544558 
 10294      545F4C49 
 10294      4E455F53 
 10295              	.LASF485:
 10296 0d81 6C765F6F 		.ascii	"lv_obj_class_t\000"
 10296      626A5F63 
 10296      6C617373 
 10296      5F7400
 10297              	.LASF196:
 10298 0d90 6C765F73 		.ascii	"lv_style_const_prop_t\000"
 10298      74796C65 
 10298      5F636F6E 
 10298      73745F70 
 10298      726F705F 
 10299              	.LASF508:
 10300 0da6 4C565F45 		.ascii	"LV_EVENT_DRAW_MAIN_END\000"
 10300      56454E54 
 10300      5F445241 
 10300      575F4D41 
 10300      494E5F45 
 10301              	.LASF427:
 10302 0dbd 706F696E 		.ascii	"pointer\000"
 10302      74657200 
 10303              	.LASF207:
 10304 0dc5 70617265 		.ascii	"parent\000"
 10304      6E7400
 10305              	.LASF343:
 10306 0dcc 66756C6C 		.ascii	"full_refresh\000"
 10306      5F726566 
 10306      72657368 
 10306      00
 10307              	.LASF270:
 10308 0dd9 726F756E 		.ascii	"round_end\000"
 10308      645F656E 
 10308      6400
 10309              	.LASF83:
 10310 0de3 6C765F61 		.ascii	"lv_anim_ready_cb_t\000"
 10310      6E696D5F 
 10310      72656164 
 10310      795F6362 
 10310      5F7400
 10311              	.LASF275:
 10312 0df6 696D675F 		.ascii	"img_src\000"
 10312      73726300 
 10313              	.LASF464:
 10314 0dfe 69735F74 		.ascii	"is_trans\000"
 10314      72616E73 
 10314      00
 10315              	.LASF565:
 10316 0e07 6163745F 		.ascii	"act_par\000"
 10316      70617200 
 10317              	.LASF584:
ARM GAS  C:\Users\haske\AppData\Local\Temp\ccU9uRZG.s 			page 209


 10318 0e0f 6F626A31 		.ascii	"obj1\000"
 10318      00
 10319              	.LASF585:
 10320 0e14 6F626A32 		.ascii	"obj2\000"
 10320      00
 10321              	.LASF616:
 10322 0e19 2E2E5C2E 		.ascii	"..\\..\\..\\arduinoLCD\\test\\Pain Drain\\libraries"
 10322      2E5C2E2E 
 10322      5C617264 
 10322      75696E6F 
 10322      4C43445C 
 10323 0e46 5C6C7667 		.ascii	"\\lvgl\\src\\core\\lv_obj_tree.c\000"
 10323      6C5C7372 
 10323      635C636F 
 10323      72655C6C 
 10323      765F6F62 
 10324              	.LASF451:
 10325 0e63 6C765F69 		.ascii	"lv_indev_t\000"
 10325      6E646576 
 10325      5F7400
 10326              	.LASF441:
 10327 0e6e 62746E5F 		.ascii	"btn_points\000"
 10327      706F696E 
 10327      747300
 10328              	.LASF243:
 10329 0e79 73686164 		.ascii	"shadow_spread\000"
 10329      6F775F73 
 10329      70726561 
 10329      6400
 10330              	.LASF177:
 10331 0e87 4C565F53 		.ascii	"LV_STYLE_ANIM_TIME\000"
 10331      54594C45 
 10331      5F414E49 
 10331      4D5F5449 
 10331      4D4500
 10332              	.LASF74:
 10333 0e9a 706C6179 		.ascii	"playback_delay\000"
 10333      6261636B 
 10333      5F64656C 
 10333      617900
 10334              	.LASF433:
 10335 0ea9 77616974 		.ascii	"wait_until_release\000"
 10335      5F756E74 
 10335      696C5F72 
 10335      656C6561 
 10335      736500
 10336              	.LASF117:
 10337 0ebc 4C565F53 		.ascii	"LV_STYLE_PAD_BOTTOM\000"
 10337      54594C45 
 10337      5F504144 
 10337      5F424F54 
 10337      544F4D00 
 10338              	.LASF471:
 10339 0ed0 77696474 		.ascii	"width_def\000"
 10339      685F6465 
 10339      6600
 10340              	.LASF350:
ARM GAS  C:\Users\haske\AppData\Local\Temp\ccU9uRZG.s 			page 210


 10341 0eda 636C6561 		.ascii	"clear_cb\000"
 10341      725F6362 
 10341      00
 10342              	.LASF125:
 10343 0ee3 4C565F53 		.ascii	"LV_STYLE_BG_OPA\000"
 10343      54594C45 
 10343      5F42475F 
 10343      4F504100 
 10344              	.LASF160:
 10345 0ef3 4C565F53 		.ascii	"LV_STYLE_LINE_OPA\000"
 10345      54594C45 
 10345      5F4C494E 
 10345      455F4F50 
 10345      4100
 10346              	.LASF203:
 10347 0f05 6C765F73 		.ascii	"lv_style_t\000"
 10347      74796C65 
 10347      5F7400
 10348              	.LASF586:
 10349 0f10 70617265 		.ascii	"parent2\000"
 10349      6E743200 
 10350              	.LASF128:
 10351 0f18 4C565F53 		.ascii	"LV_STYLE_BG_MAIN_STOP\000"
 10351      54594C45 
 10351      5F42475F 
 10351      4D41494E 
 10351      5F53544F 
 10352              	.LASF209:
 10353 0f2e 7374796C 		.ascii	"styles\000"
 10353      657300
 10354              	.LASF394:
 10355 0f35 636F6E74 		.ascii	"continue_reading\000"
 10355      696E7565 
 10355      5F726561 
 10355      64696E67 
 10355      00
 10356              	.LASF91:
 10357 0f46 6C765F62 		.ascii	"lv_blend_mode_t\000"
 10357      6C656E64 
 10357      5F6D6F64 
 10357      655F7400 
 10358              	.LASF538:
 10359 0f56 6368696C 		.ascii	"child_cnt\000"
 10359      645F636E 
 10359      7400
 10360              	.LASF152:
 10361 0f60 4C565F53 		.ascii	"LV_STYLE_IMG_OPA\000"
 10361      54594C45 
 10361      5F494D47 
 10361      5F4F5041 
 10361      00
 10362              	.LASF185:
 10363 0f71 4C565F53 		.ascii	"LV_STYLE_TRANSFORM_ZOOM\000"
 10363      54594C45 
 10363      5F545241 
 10363      4E53464F 
 10363      524D5F5A 
ARM GAS  C:\Users\haske\AppData\Local\Temp\ccU9uRZG.s 			page 211


 10364              	.LASF502:
 10365 0f89 4C565F45 		.ascii	"LV_EVENT_LEAVE\000"
 10365      56454E54 
 10365      5F4C4541 
 10365      564500
 10366              	.LASF87:
 10367 0f98 6C765F61 		.ascii	"lv_anim_t\000"
 10367      6E696D5F 
 10367      7400
 10368              	.LASF15:
 10369 0fa2 6C6F6E67 		.ascii	"long unsigned int\000"
 10369      20756E73 
 10369      69676E65 
 10369      6420696E 
 10369      7400
 10370              	.LASF546:
 10371 0fb4 7363726F 		.ascii	"scroll_snap_y\000"
 10371      6C6C5F73 
 10371      6E61705F 
 10371      7900
 10372              	.LASF204:
 10373 0fc2 6C765F69 		.ascii	"lv_img_cf_t\000"
 10373      6D675F63 
 10373      665F7400 
 10374              	.LASF167:
 10375 0fce 4C565F53 		.ascii	"LV_STYLE_TEXT_OPA\000"
 10375      54594C45 
 10375      5F544558 
 10375      545F4F50 
 10375      4100
 10376              	.LASF273:
 10377 0fe0 73746172 		.ascii	"start_angle\000"
 10377      745F616E 
 10377      676C6500 
 10378              	.LASF480:
 10379 0fec 70617261 		.ascii	"param\000"
 10379      6D00
 10380              	.LASF477:
 10381 0ff2 74617267 		.ascii	"target\000"
 10381      657400
 10382              	.LASF372:
 10383 0ff9 64726177 		.ascii	"draw_prev_over_act\000"
 10383      5F707265 
 10383      765F6F76 
 10383      65725F61 
 10383      637400
 10384              	.LASF308:
 10385 100c 6C617965 		.ascii	"layer_destroy\000"
 10385      725F6465 
 10385      7374726F 
 10385      7900
 10386              	.LASF267:
 10387 101a 64617368 		.ascii	"dash_width\000"
 10387      5F776964 
 10387      746800
 10388              	.LASF332:
 10389 1025 6C617374 		.ascii	"last_part\000"
ARM GAS  C:\Users\haske\AppData\Local\Temp\ccU9uRZG.s 			page 212


 10389      5F706172 
 10389      7400
 10390              	.LASF583:
 10391 102f 6C765F6F 		.ascii	"lv_obj_swap\000"
 10391      626A5F73 
 10391      77617000 
 10392              	.LASF473:
 10393 103b 65646974 		.ascii	"editable\000"
 10393      61626C65 
 10393      00
 10394              	.LASF364:
 10395 1044 7468656D 		.ascii	"theme\000"
 10395      6500
 10396              	.LASF339:
 10397 104a 6F666673 		.ascii	"offset_x\000"
 10397      65745F78 
 10397      00
 10398              	.LASF340:
 10399 1053 6F666673 		.ascii	"offset_y\000"
 10399      65745F79 
 10399      00
 10400              	.LASF30:
 10401 105c 7265736F 		.ascii	"resolved_font\000"
 10401      6C766564 
 10401      5F666F6E 
 10401      7400
 10402              	.LASF443:
 10403 106a 6F626A5F 		.ascii	"obj_ll\000"
 10403      6C6C00
 10404              	.LASF295:
 10405 1071 64726177 		.ascii	"draw_arc\000"
 10405      5F617263 
 10405      00
 10406              	.LASF159:
 10407 107a 4C565F53 		.ascii	"LV_STYLE_LINE_COLOR\000"
 10407      54594C45 
 10407      5F4C494E 
 10407      455F434F 
 10407      4C4F5200 
 10408              	.LASF120:
 10409 108e 4C565F53 		.ascii	"LV_STYLE_PAD_ROW\000"
 10409      54594C45 
 10409      5F504144 
 10409      5F524F57 
 10409      00
 10410              	.LASF324:
 10411 109f 5F6C765F 		.ascii	"_lv_disp_draw_buf_t\000"
 10411      64697370 
 10411      5F647261 
 10411      775F6275 
 10411      665F7400 
 10412              	.LASF283:
 10413 10b3 6275665F 		.ascii	"buf_area\000"
 10413      61726561 
 10413      00
 10414              	.LASF81:
 10415 10bc 73746172 		.ascii	"start_cb_called\000"
ARM GAS  C:\Users\haske\AppData\Local\Temp\ccU9uRZG.s 			page 213


 10415      745F6362 
 10415      5F63616C 
 10415      6C656400 
 10416              	.LASF261:
 10417 10cc 7265636F 		.ascii	"recolor\000"
 10417      6C6F7200 
 10418              	.LASF516:
 10419 10d4 4C565F45 		.ascii	"LV_EVENT_REFRESH\000"
 10419      56454E54 
 10419      5F524546 
 10419      52455348 
 10419      00
 10420              	.LASF475:
 10421 10e5 696E7374 		.ascii	"instance_size\000"
 10421      616E6365 
 10421      5F73697A 
 10421      6500
 10422              	.LASF258:
 10423 10f3 616E676C 		.ascii	"angle\000"
 10423      6500
 10424              	.LASF118:
 10425 10f9 4C565F53 		.ascii	"LV_STYLE_PAD_LEFT\000"
 10425      54594C45 
 10425      5F504144 
 10425      5F4C4546 
 10425      5400
 10426              	.LASF358:
 10427 110b 64726177 		.ascii	"draw_ctx_init\000"
 10427      5F637478 
 10427      5F696E69 
 10427      7400
 10428              	.LASF148:
 10429 1119 4C565F53 		.ascii	"LV_STYLE_SHADOW_OFS_Y\000"
 10429      54594C45 
 10429      5F534841 
 10429      444F575F 
 10429      4F46535F 
 10430              	.LASF522:
 10431 112f 4C565F45 		.ascii	"LV_EVENT_CHILD_DELETED\000"
 10431      56454E54 
 10431      5F434849 
 10431      4C445F44 
 10431      454C4554 
 10432              	.LASF440:
 10433 1146 67726F75 		.ascii	"group\000"
 10433      7000
 10434              	.LASF556:
 10435 114c 6C765F61 		.ascii	"lv_anim_set_time\000"
 10435      6E696D5F 
 10435      7365745F 
 10435      74696D65 
 10435      00
 10436              	.LASF505:
 10437 115d 4C565F45 		.ascii	"LV_EVENT_REFR_EXT_DRAW_SIZE\000"
 10437      56454E54 
 10437      5F524546 
 10437      525F4558 
ARM GAS  C:\Users\haske\AppData\Local\Temp\ccU9uRZG.s 			page 214


 10437      545F4452 
 10438              	.LASF389:
 10439 1179 4C565F49 		.ascii	"LV_INDEV_STATE_PRESSED\000"
 10439      4E444556 
 10439      5F535441 
 10439      54455F50 
 10439      52455353 
 10440              	.LASF609:
 10441 1190 6C765F6F 		.ascii	"lv_obj_update_layout\000"
 10441      626A5F75 
 10441      70646174 
 10441      655F6C61 
 10441      796F7574 
 10442              	.LASF296:
 10443 11a5 64726177 		.ascii	"draw_img_decoded\000"
 10443      5F696D67 
 10443      5F646563 
 10443      6F646564 
 10443      00
 10444              	.LASF316:
 10445 11b6 6C765F74 		.ascii	"lv_timer_cb_t\000"
 10445      696D6572 
 10445      5F63625F 
 10445      7400
 10446              	.LASF176:
 10447 11c4 4C565F53 		.ascii	"LV_STYLE_ANIM\000"
 10447      54594C45 
 10447      5F414E49 
 10447      4D00
 10448              	.LASF111:
 10449 11d2 4C565F53 		.ascii	"LV_STYLE_X\000"
 10449      54594C45 
 10449      5F5800
 10450              	.LASF417:
 10451 11dd 6C617374 		.ascii	"last_obj\000"
 10451      5F6F626A 
 10451      00
 10452              	.LASF387:
 10453 11e6 6C765F69 		.ascii	"lv_indev_type_t\000"
 10453      6E646576 
 10453      5F747970 
 10453      655F7400 
 10454              	.LASF172:
 10455 11f6 4C565F53 		.ascii	"LV_STYLE_TEXT_ALIGN\000"
 10455      54594C45 
 10455      5F544558 
 10455      545F414C 
 10455      49474E00 
 10456              	.LASF385:
 10457 120a 4C565F49 		.ascii	"LV_INDEV_TYPE_BUTTON\000"
 10457      4E444556 
 10457      5F545950 
 10457      455F4255 
 10457      54544F4E 
 10458              	.LASF61:
 10459 121f 5F6C765F 		.ascii	"_lv_font_t\000"
 10459      666F6E74 
ARM GAS  C:\Users\haske\AppData\Local\Temp\ccU9uRZG.s 			page 215


 10459      5F7400
 10460              	.LASF352:
 10461 122a 77616974 		.ascii	"wait_cb\000"
 10461      5F636200 
 10462              	.LASF14:
 10463 1232 5F5F7569 		.ascii	"__uint32_t\000"
 10463      6E743332 
 10463      5F7400
 10464              	.LASF470:
 10465 123d 6576656E 		.ascii	"event_cb\000"
 10465      745F6362 
 10465      00
 10466              	.LASF533:
 10467 1246 6C765F65 		.ascii	"lv_event_code_t\000"
 10467      76656E74 
 10467      5F636F64 
 10467      655F7400 
 10468              	.LASF92:
 10469 1256 6C765F74 		.ascii	"lv_text_decor_t\000"
 10469      6578745F 
 10469      6465636F 
 10469      725F7400 
 10470              	.LASF476:
 10471 1266 5F6C765F 		.ascii	"_lv_event_t\000"
 10471      6576656E 
 10471      745F7400 
 10472              	.LASF1:
 10473 1272 6C6F6E67 		.ascii	"long long int\000"
 10473      206C6F6E 
 10473      6720696E 
 10473      7400
 10474              	.LASF239:
 10475 1280 73686164 		.ascii	"shadow_color\000"
 10475      6F775F63 
 10475      6F6C6F72 
 10475      00
 10476              	.LASF482:
 10477 128d 64656C65 		.ascii	"deleted\000"
 10477      74656400 
 10478              	.LASF266:
 10479 1295 77696474 		.ascii	"width\000"
 10479      6800
 10480              	.LASF497:
 10481 129b 4C565F45 		.ascii	"LV_EVENT_SCROLL\000"
 10481      56454E54 
 10481      5F534352 
 10481      4F4C4C00 
 10482              	.LASF590:
 10483 12ab 73746172 		.ascii	"start_obj\000"
 10483      745F6F62 
 10483      6A00
 10484              	.LASF325:
 10485 12b5 62756631 		.ascii	"buf1\000"
 10485      00
 10486              	.LASF326:
 10487 12ba 62756632 		.ascii	"buf2\000"
 10487      00
ARM GAS  C:\Users\haske\AppData\Local\Temp\ccU9uRZG.s 			page 216


 10488              	.LASF186:
 10489 12bf 4C565F53 		.ascii	"LV_STYLE_TRANSFORM_ANGLE\000"
 10489      54594C45 
 10489      5F545241 
 10489      4E53464F 
 10489      524D5F41 
 10490              	.LASF410:
 10491 12d8 6C617374 		.ascii	"last_point\000"
 10491      5F706F69 
 10491      6E7400
 10492              	.LASF416:
 10493 12e3 6163745F 		.ascii	"act_obj\000"
 10493      6F626A00 
 10494              	.LASF278:
 10495 12eb 4C565F44 		.ascii	"LV_DRAW_LAYER_FLAG_NONE\000"
 10495      5241575F 
 10495      4C415945 
 10495      525F464C 
 10495      41475F4E 
 10496              	.LASF174:
 10497 1303 4C565F53 		.ascii	"LV_STYLE_COLOR_FILTER_DSC\000"
 10497      54594C45 
 10497      5F434F4C 
 10497      4F525F46 
 10497      494C5445 
 10498              	.LASF89:
 10499 131d 6C765F74 		.ascii	"lv_text_align_t\000"
 10499      6578745F 
 10499      616C6967 
 10499      6E5F7400 
 10500              	.LASF575:
 10501 132d 6F626A5F 		.ascii	"obj_del_core\000"
 10501      64656C5F 
 10501      636F7265 
 10501      00
 10502              	.LASF43:
 10503 133a 756E6465 		.ascii	"underline_thickness\000"
 10503      726C696E 
 10503      655F7468 
 10503      69636B6E 
 10503      65737300 
 10504              	.LASF171:
 10505 134e 4C565F53 		.ascii	"LV_STYLE_TEXT_DECOR\000"
 10505      54594C45 
 10505      5F544558 
 10505      545F4445 
 10505      434F5200 
 10506              	.LASF495:
 10507 1362 4C565F45 		.ascii	"LV_EVENT_SCROLL_BEGIN\000"
 10507      56454E54 
 10507      5F534352 
 10507      4F4C4C5F 
 10507      42454749 
 10508              	.LASF254:
 10509 1378 616C6967 		.ascii	"align\000"
 10509      6E00
 10510              	.LASF162:
ARM GAS  C:\Users\haske\AppData\Local\Temp\ccU9uRZG.s 			page 217


 10511 137e 4C565F53 		.ascii	"LV_STYLE_ARC_ROUNDED\000"
 10511      54594C45 
 10511      5F415243 
 10511      5F524F55 
 10511      4E444544 
 10512              	.LASF578:
 10513 1393 6C765F6F 		.ascii	"lv_obj_set_parent\000"
 10513      626A5F73 
 10513      65745F70 
 10513      6172656E 
 10513      7400
 10514              	.LASF351:
 10515 13a5 6D6F6E69 		.ascii	"monitor_cb\000"
 10515      746F725F 
 10515      636200
 10516              	.LASF215:
 10517 13b0 736B6970 		.ascii	"skip_trans\000"
 10517      5F747261 
 10517      6E7300
 10518              	.LASF603:
 10519 13bb 6C765F69 		.ascii	"lv_indev_reset\000"
 10519      6E646576 
 10519      5F726573 
 10519      657400
 10520              	.LASF608:
 10521 13ca 6C765F6F 		.ascii	"lv_obj_scrollbar_invalidate\000"
 10521      626A5F73 
 10521      63726F6C 
 10521      6C626172 
 10521      5F696E76 
 10522              	.LASF166:
 10523 13e6 4C565F53 		.ascii	"LV_STYLE_TEXT_COLOR\000"
 10523      54594C45 
 10523      5F544558 
 10523      545F434F 
 10523      4C4F5200 
 10524              	.LASF519:
 10525 13fa 4C565F45 		.ascii	"LV_EVENT_DELETE\000"
 10525      56454E54 
 10525      5F44454C 
 10525      45544500 
 10526              	.LASF206:
 10527 140a 636C6173 		.ascii	"class_p\000"
 10527      735F7000 
 10528              	.LASF70:
 10529 1412 63757272 		.ascii	"current_value\000"
 10529      656E745F 
 10529      76616C75 
 10529      6500
 10530              	.LASF0:
 10531 1420 756E7369 		.ascii	"unsigned int\000"
 10531      676E6564 
 10531      20696E74 
 10531      00
 10532              	.LASF409:
 10533 142d 696E6465 		.ascii	"indev_point\000"
 10533      765F706F 
ARM GAS  C:\Users\haske\AppData\Local\Temp\ccU9uRZG.s 			page 218


 10533      696E7400 
 10534              	.LASF60:
 10535 1439 6C765F61 		.ascii	"lv_anim_path_cb_t\000"
 10535      6E696D5F 
 10535      70617468 
 10535      5F63625F 
 10535      7400
 10536              	.LASF610:
 10537 144b 6C765F6F 		.ascii	"lv_obj_readjust_scroll\000"
 10537      626A5F72 
 10537      6561646A 
 10537      7573745F 
 10537      7363726F 
 10538              	.LASF86:
 10539 1462 6C765F61 		.ascii	"lv_anim_deleted_cb_t\000"
 10539      6E696D5F 
 10539      64656C65 
 10539      7465645F 
 10539      63625F74 
 10540              	.LASF400:
 10541 1477 64697370 		.ascii	"disp\000"
 10541      00
 10542              	.LASF322:
 10543 147c 70617573 		.ascii	"paused\000"
 10543      656400
 10544              	.LASF561:
 10545 1483 6C765F6F 		.ascii	"lv_obj_del_delayed\000"
 10545      626A5F64 
 10545      656C5F64 
 10545      656C6179 
 10545      656400
 10546              	.LASF282:
 10547 1496 636C6970 		.ascii	"clip_area\000"
 10547      5F617265 
 10547      6100
 10548              	.LASF103:
 10549 14a0 6C765F73 		.ascii	"lv_style_value_t\000"
 10549      74796C65 
 10549      5F76616C 
 10549      75655F74 
 10549      00
 10550              	.LASF413:
 10551 14b1 7363726F 		.ascii	"scroll_sum\000"
 10551      6C6C5F73 
 10551      756D00
 10552              	.LASF393:
 10553 14bc 656E635F 		.ascii	"enc_diff\000"
 10553      64696666 
 10553      00
 10554              	.LASF248:
 10555 14c5 73656C5F 		.ascii	"sel_end\000"
 10555      656E6400 
 10556              	.LASF192:
 10557 14cd 5F4C565F 		.ascii	"_LV_STYLE_PROP_CONST\000"
 10557      5354594C 
 10557      455F5052 
 10557      4F505F43 
ARM GAS  C:\Users\haske\AppData\Local\Temp\ccU9uRZG.s 			page 219


 10557      4F4E5354 
 10558              	.LASF286:
 10559 14e2 61726561 		.ascii	"area_full\000"
 10559      5F66756C 
 10559      6C00
 10560              	.LASF554:
 10561 14ec 6C765F61 		.ascii	"lv_anim_set_delay\000"
 10561      6E696D5F 
 10561      7365745F 
 10561      64656C61 
 10561      7900
 10562              	.LASF255:
 10563 14fe 666C6167 		.ascii	"flag\000"
 10563      00
 10564              	.LASF361:
 10565 1503 5F6C765F 		.ascii	"_lv_disp_t\000"
 10565      64697370 
 10565      5F7400
 10566              	.LASF514:
 10567 150e 4C565F45 		.ascii	"LV_EVENT_VALUE_CHANGED\000"
 10567      56454E54 
 10567      5F56414C 
 10567      55455F43 
 10567      48414E47 
 10568              	.LASF285:
 10569 1525 5F6C765F 		.ascii	"_lv_draw_layer_ctx_t\000"
 10569      64726177 
 10569      5F6C6179 
 10569      65725F63 
 10569      74785F74 
 10570              	.LASF238:
 10571 153a 6F75746C 		.ascii	"outline_opa\000"
 10571      696E655F 
 10571      6F706100 
 10572              	.LASF376:
 10573 1546 696E765F 		.ascii	"inv_areas\000"
 10573      61726561 
 10573      7300
 10574              	.LASF288:
 10575 1550 6D61785F 		.ascii	"max_row_with_alpha\000"
 10575      726F775F 
 10575      77697468 
 10575      5F616C70 
 10575      686100
 10576              	.LASF436:
 10577 1563 6C6F6E67 		.ascii	"longpr_rep_timestamp\000"
 10577      70725F72 
 10577      65705F74 
 10577      696D6573 
 10577      74616D70 
 10578              	.LASF532:
 10579 1578 4C565F45 		.ascii	"LV_EVENT_PREPROCESS\000"
 10579      56454E54 
 10579      5F505245 
 10579      50524F43 
 10579      45535300 
 10580              	.LASF263:
ARM GAS  C:\Users\haske\AppData\Local\Temp\ccU9uRZG.s 			page 220


 10581 158c 6672616D 		.ascii	"frame_id\000"
 10581      655F6964 
 10581      00
 10582              	.LASF262:
 10583 1595 7265636F 		.ascii	"recolor_opa\000"
 10583      6C6F725F 
 10583      6F706100 
 10584              	.LASF114:
 10585 15a1 4C565F53 		.ascii	"LV_STYLE_LAYOUT\000"
 10585      54594C45 
 10585      5F4C4159 
 10585      4F555400 
 10586              	.LASF46:
 10587 15b1 6C765F66 		.ascii	"lv_font_glyph_dsc_t\000"
 10587      6F6E745F 
 10587      676C7970 
 10587      685F6473 
 10587      635F7400 
 10588              	.LASF524:
 10589 15c5 4C565F45 		.ascii	"LV_EVENT_SCREEN_LOAD_START\000"
 10589      56454E54 
 10589      5F534352 
 10589      45454E5F 
 10589      4C4F4144 
 10590              	.LASF484:
 10591 15e0 73746F70 		.ascii	"stop_bubbling\000"
 10591      5F627562 
 10591      626C696E 
 10591      6700
 10592              	.LASF236:
 10593 15ee 6F75746C 		.ascii	"outline_width\000"
 10593      696E655F 
 10593      77696474 
 10593      6800
 10594              	.LASF146:
 10595 15fc 4C565F53 		.ascii	"LV_STYLE_SHADOW_WIDTH\000"
 10595      54594C45 
 10595      5F534841 
 10595      444F575F 
 10595      57494454 
 10596              	.LASF488:
 10597 1612 4C565F45 		.ascii	"LV_EVENT_PRESSING\000"
 10597      56454E54 
 10597      5F505245 
 10597      5353494E 
 10597      4700
 10598              	.LASF563:
 10599 1624 6C765F6F 		.ascii	"lv_obj_get_parent\000"
 10599      626A5F67 
 10599      65745F70 
 10599      6172656E 
 10599      7400
 10600              	.LASF123:
 10601 1636 4C565F53 		.ascii	"LV_STYLE_CLIP_CORNER\000"
 10601      54594C45 
 10601      5F434C49 
 10601      505F434F 
ARM GAS  C:\Users\haske\AppData\Local\Temp\ccU9uRZG.s 			page 221


 10601      524E4552 
 10602              	.LASF264:
 10603 164b 616E7469 		.ascii	"antialias\000"
 10603      616C6961 
 10603      7300
 10604              	.LASF467:
 10605 1655 62617365 		.ascii	"base_class\000"
 10605      5F636C61 
 10605      737300
 10606              	.LASF490:
 10607 1660 4C565F45 		.ascii	"LV_EVENT_SHORT_CLICKED\000"
 10607      56454E54 
 10607      5F53484F 
 10607      52545F43 
 10607      4C49434B 
 10608              	.LASF602:
 10609 1677 6C765F69 		.ascii	"lv_indev_get_next\000"
 10609      6E646576 
 10609      5F676574 
 10609      5F6E6578 
 10609      7400
 10610              	.LASF76:
 10611 1689 72657065 		.ascii	"repeat_delay\000"
 10611      61745F64 
 10611      656C6179 
 10611      00
 10612              	.LASF492:
 10613 1696 4C565F45 		.ascii	"LV_EVENT_LONG_PRESSED_REPEAT\000"
 10613      56454E54 
 10613      5F4C4F4E 
 10613      475F5052 
 10613      45535345 
 10614              	.LASF445:
 10615 16b3 666F6375 		.ascii	"focus_cb\000"
 10615      735F6362 
 10615      00
 10616              	.LASF67:
 10617 16bc 6765745F 		.ascii	"get_value_cb\000"
 10617      76616C75 
 10617      655F6362 
 10617      00
 10618              	.LASF401:
 10619 16c9 72656164 		.ascii	"read_timer\000"
 10619      5F74696D 
 10619      657200
 10620              	.LASF51:
 10621 16d4 6C765F72 		.ascii	"lv_res_t\000"
 10621      65735F74 
 10621      00
 10622              	.LASF175:
 10623 16dd 4C565F53 		.ascii	"LV_STYLE_COLOR_FILTER_OPA\000"
 10623      54594C45 
 10623      5F434F4C 
 10623      4F525F46 
 10623      494C5445 
 10624              	.LASF327:
 10625 16f7 6275665F 		.ascii	"buf_act\000"
ARM GAS  C:\Users\haske\AppData\Local\Temp\ccU9uRZG.s 			page 222


 10625      61637400 
 10626              	.LASF2:
 10627 16ff 6C6F6E67 		.ascii	"long double\000"
 10627      20646F75 
 10627      626C6500 
 10628              	.LASF461:
 10629 170b 7374796C 		.ascii	"style\000"
 10629      6500
 10630              	.LASF95:
 10631 1711 6C765F64 		.ascii	"lv_dither_mode_t\000"
 10631      69746865 
 10631      725F6D6F 
 10631      64655F74 
 10631      00
 10632              	.LASF460:
 10633 1722 6C765F73 		.ascii	"lv_scroll_snap_t\000"
 10633      63726F6C 
 10633      6C5F736E 
 10633      61705F74 
 10633      00
 10634              	.LASF425:
 10635 1733 6C617374 		.ascii	"last_state\000"
 10635      5F737461 
 10635      746500
 10636              	.LASF383:
 10637 173e 4C565F49 		.ascii	"LV_INDEV_TYPE_POINTER\000"
 10637      4E444556 
 10637      5F545950 
 10637      455F504F 
 10637      494E5445 
 10638              	.LASF435:
 10639 1754 70725F74 		.ascii	"pr_timestamp\000"
 10639      696D6573 
 10639      74616D70 
 10639      00
 10640              	.LASF479:
 10641 1761 636F6465 		.ascii	"code\000"
 10641      00
 10642              	.LASF41:
 10643 1766 73756270 		.ascii	"subpx\000"
 10643      7800
 10644              	.LASF303:
 10645 176c 77616974 		.ascii	"wait_for_finish\000"
 10645      5F666F72 
 10645      5F66696E 
 10645      69736800 
 10646              	.LASF77:
 10647 177c 72657065 		.ascii	"repeat_cnt\000"
 10647      61745F63 
 10647      6E7400
 10648              	.LASF228:
 10649 1787 62675F69 		.ascii	"bg_img_recolor_opa\000"
 10649      6D675F72 
 10649      65636F6C 
 10649      6F725F6F 
 10649      706100
 10650              	.LASF280:
ARM GAS  C:\Users\haske\AppData\Local\Temp\ccU9uRZG.s 			page 223


 10651 179a 4C565F44 		.ascii	"LV_DRAW_LAYER_FLAG_CAN_SUBDIVIDE\000"
 10651      5241575F 
 10651      4C415945 
 10651      525F464C 
 10651      41475F43 
 10652              	.LASF399:
 10653 17bb 66656564 		.ascii	"feedback_cb\000"
 10653      6261636B 
 10653      5F636200 
 10654              	.LASF320:
 10655 17c7 74696D65 		.ascii	"timer_cb\000"
 10655      725F6362 
 10655      00
 10656              	.LASF403:
 10657 17d0 7363726F 		.ascii	"scroll_throw\000"
 10657      6C6C5F74 
 10657      68726F77 
 10657      00
 10658              	.LASF487:
 10659 17dd 4C565F45 		.ascii	"LV_EVENT_PRESSED\000"
 10659      56454E54 
 10659      5F505245 
 10659      53534544 
 10659      00
 10660              	.LASF518:
 10661 17ee 4C565F45 		.ascii	"LV_EVENT_CANCEL\000"
 10661      56454E54 
 10661      5F43414E 
 10661      43454C00 
 10662              	.LASF137:
 10663 17fe 4C565F53 		.ascii	"LV_STYLE_BORDER_COLOR\000"
 10663      54594C45 
 10663      5F424F52 
 10663      4445525F 
 10663      434F4C4F 
 10664              	.LASF355:
 10665 1814 72656E64 		.ascii	"render_start_cb\000"
 10665      65725F73 
 10665      74617274 
 10665      5F636200 
 10666              	.LASF354:
 10667 1824 6472765F 		.ascii	"drv_update_cb\000"
 10667      75706461 
 10667      74655F63 
 10667      6200
 10668              	.LASF456:
 10669 1832 4C565F4F 		.ascii	"LV_OBJ_TREE_WALK_END\000"
 10669      424A5F54 
 10669      5245455F 
 10669      57414C4B 
 10669      5F454E44 
 10670              	.LASF414:
 10671 1847 7363726F 		.ascii	"scroll_throw_vect\000"
 10671      6C6C5F74 
 10671      68726F77 
 10671      5F766563 
 10671      7400
ARM GAS  C:\Users\haske\AppData\Local\Temp\ccU9uRZG.s 			page 224


 10672              	.LASF4:
 10673 1859 5F5F696E 		.ascii	"__int8_t\000"
 10673      74385F74 
 10673      00
 10674              	.LASF429:
 10675 1862 5F6C765F 		.ascii	"_lv_indev_proc_t\000"
 10675      696E6465 
 10675      765F7072 
 10675      6F635F74 
 10675      00
 10676              	.LASF448:
 10677 1873 65646974 		.ascii	"editing\000"
 10677      696E6700 
 10678              	.LASF337:
 10679 187b 70687973 		.ascii	"physical_hor_res\000"
 10679      6963616C 
 10679      5F686F72 
 10679      5F726573 
 10679      00
 10680              	.LASF328:
 10681 188c 73697A65 		.ascii	"size\000"
 10681      00
 10682              	.LASF289:
 10683 1891 6D61785F 		.ascii	"max_row_with_no_alpha\000"
 10683      726F775F 
 10683      77697468 
 10683      5F6E6F5F 
 10683      616C7068 
 10684              	.LASF406:
 10685 18a7 6C6F6E67 		.ascii	"long_press_time\000"
 10685      5F707265 
 10685      73735F74 
 10685      696D6500 
 10686              	.LASF16:
 10687 18b7 6C6F6E67 		.ascii	"long long unsigned int\000"
 10687      206C6F6E 
 10687      6720756E 
 10687      7369676E 
 10687      65642069 
 10688              	.LASF370:
 10689 18ce 7379735F 		.ascii	"sys_layer\000"
 10689      6C617965 
 10689      7200
 10690              	.LASF129:
 10691 18d8 4C565F53 		.ascii	"LV_STYLE_BG_GRAD_STOP\000"
 10691      54594C45 
 10691      5F42475F 
 10691      47524144 
 10691      5F53544F 
 10692              	.LASF140:
 10693 18ee 4C565F53 		.ascii	"LV_STYLE_BORDER_SIDE\000"
 10693      54594C45 
 10693      5F424F52 
 10693      4445525F 
 10693      53494445 
 10694              	.LASF534:
 10695 1903 6C765F67 		.ascii	"lv_group_focus_cb_t\000"
ARM GAS  C:\Users\haske\AppData\Local\Temp\ccU9uRZG.s 			page 225


 10695      726F7570 
 10695      5F666F63 
 10695      75735F63 
 10695      625F7400 
 10696              	.LASF466:
 10697 1917 5F6C765F 		.ascii	"_lv_obj_class_t\000"
 10697      6F626A5F 
 10697      636C6173 
 10697      735F7400 
 10698              	.LASF245:
 10699 1927 6C765F64 		.ascii	"lv_draw_rect_dsc_t\000"
 10699      7261775F 
 10699      72656374 
 10699      5F647363 
 10699      5F7400
 10700              	.LASF22:
 10701 193a 75696E74 		.ascii	"uint16_t\000"
 10701      31365F74 
 10701      00
 10702              	.LASF50:
 10703 1943 4C565F52 		.ascii	"LV_RES_OK\000"
 10703      45535F4F 
 10703      4B00
 10704              	.LASF71:
 10705 194d 656E645F 		.ascii	"end_value\000"
 10705      76616C75 
 10705      6500
 10706              	.LASF319:
 10707 1957 6C617374 		.ascii	"last_run\000"
 10707      5F72756E 
 10707      00
 10708              	.LASF450:
 10709 1960 77726170 		.ascii	"wrap\000"
 10709      00
 10710              	.LASF56:
 10711 1965 6C765F63 		.ascii	"lv_color_t\000"
 10711      6F6C6F72 
 10711      5F7400
 10712              	.LASF298:
 10713 1970 64726177 		.ascii	"draw_letter\000"
 10713      5F6C6574 
 10713      74657200 
 10714              	.LASF509:
 10715 197c 4C565F45 		.ascii	"LV_EVENT_DRAW_POST_BEGIN\000"
 10715      56454E54 
 10715      5F445241 
 10715      575F504F 
 10715      53545F42 
 10716              	.LASF431:
 10717 1995 72657365 		.ascii	"reset_query\000"
 10717      745F7175 
 10717      65727900 
 10718              	.LASF573:
 10719 19a1 6163745F 		.ascii	"act_scr_del\000"
 10719      7363725F 
 10719      64656C00 
 10720              	.LASF105:
ARM GAS  C:\Users\haske\AppData\Local\Temp\ccU9uRZG.s 			page 226


 10721 19ad 4C565F53 		.ascii	"LV_STYLE_WIDTH\000"
 10721      54594C45 
 10721      5F574944 
 10721      544800
 10722              	.LASF231:
 10723 19bc 626F7264 		.ascii	"border_width\000"
 10723      65725F77 
 10723      69647468 
 10723      00
 10724              	.LASF106:
 10725 19c9 4C565F53 		.ascii	"LV_STYLE_MIN_WIDTH\000"
 10725      54594C45 
 10725      5F4D494E 
 10725      5F574944 
 10725      544800
 10726              	.LASF88:
 10727 19dc 6C765F74 		.ascii	"lv_text_flag_t\000"
 10727      6578745F 
 10727      666C6167 
 10727      5F7400
 10728              	.LASF415:
 10729 19eb 7363726F 		.ascii	"scroll_throw_vect_ori\000"
 10729      6C6C5F74 
 10729      68726F77 
 10729      5F766563 
 10729      745F6F72 
 10730              	.LASF147:
 10731 1a01 4C565F53 		.ascii	"LV_STYLE_SHADOW_OFS_X\000"
 10731      54594C45 
 10731      5F534841 
 10731      444F575F 
 10731      4F46535F 
 10732              	.LASF63:
 10733 1a17 65786563 		.ascii	"exec_cb\000"
 10733      5F636200 
 10734              	.LASF384:
 10735 1a1f 4C565F49 		.ascii	"LV_INDEV_TYPE_KEYPAD\000"
 10735      4E444556 
 10735      5F545950 
 10735      455F4B45 
 10735      59504144 
 10736              	.LASF132:
 10737 1a34 4C565F53 		.ascii	"LV_STYLE_BG_IMG_SRC\000"
 10737      54594C45 
 10737      5F42475F 
 10737      494D475F 
 10737      53524300 
 10738              	.LASF75:
 10739 1a48 706C6179 		.ascii	"playback_time\000"
 10739      6261636B 
 10739      5F74696D 
 10739      6500
 10740              	.LASF611:
 10741 1a56 6C765F6F 		.ascii	"lv_obj_scroll_to\000"
 10741      626A5F73 
 10741      63726F6C 
 10741      6C5F746F 
ARM GAS  C:\Users\haske\AppData\Local\Temp\ccU9uRZG.s 			page 227


 10741      00
 10742              	.LASF260:
 10743 1a67 7069766F 		.ascii	"pivot\000"
 10743      7400
 10744              	.LASF165:
 10745 1a6d 4C565F53 		.ascii	"LV_STYLE_ARC_IMG_SRC\000"
 10745      54594C45 
 10745      5F415243 
 10745      5F494D47 
 10745      5F535243 
 10746              	.LASF197:
 10747 1a82 76616C75 		.ascii	"value1\000"
 10747      653100
 10748              	.LASF595:
 10749 1a89 6C765F61 		.ascii	"lv_async_call\000"
 10749      73796E63 
 10749      5F63616C 
 10749      6C00
 10750              	.LASF341:
 10751 1a97 64726177 		.ascii	"draw_buf\000"
 10751      5F627566 
 10751      00
 10752              	.LASF318:
 10753 1aa0 70657269 		.ascii	"period\000"
 10753      6F6400
 10754              	.LASF348:
 10755 1aa7 726F756E 		.ascii	"rounder_cb\000"
 10755      6465725F 
 10755      636200
 10756              	.LASF256:
 10757 1ab2 6465636F 		.ascii	"decor\000"
 10757      7200
 10758              	.LASF597:
 10759 1ab8 5F6C765F 		.ascii	"_lv_ll_get_next\000"
 10759      6C6C5F67 
 10759      65745F6E 
 10759      65787400 
 10760              	.LASF8:
 10761 1ac8 5F5F696E 		.ascii	"__int16_t\000"
 10761      7431365F 
 10761      7400
 10762              	.LASF306:
 10763 1ad2 6C617965 		.ascii	"layer_adjust\000"
 10763      725F6164 
 10763      6A757374 
 10763      00
 10764              	.LASF168:
 10765 1adf 4C565F53 		.ascii	"LV_STYLE_TEXT_FONT\000"
 10765      54594C45 
 10765      5F544558 
 10765      545F464F 
 10765      4E5400
 10766              	.LASF568:
 10767 1af2 6C765F6F 		.ascii	"lv_obj_get_child_cnt\000"
 10767      626A5F67 
 10767      65745F63 
 10767      68696C64 
ARM GAS  C:\Users\haske\AppData\Local\Temp\ccU9uRZG.s 			page 228


 10767      5F636E74 
 10768              	.LASF526:
 10769 1b07 4C565F45 		.ascii	"LV_EVENT_SCREEN_UNLOADED\000"
 10769      56454E54 
 10769      5F534352 
 10769      45454E5F 
 10769      554E4C4F 
 10770              	.LASF589:
 10771 1b20 6C765F6F 		.ascii	"lv_obj_tree_walk\000"
 10771      626A5F74 
 10771      7265655F 
 10771      77616C6B 
 10771      00
 10772              	.LASF191:
 10773 1b31 4C565F53 		.ascii	"LV_STYLE_PROP_ANY\000"
 10773      54594C45 
 10773      5F50524F 
 10773      505F414E 
 10773      5900
 10774              	.LASF54:
 10775 1b43 66756C6C 		.ascii	"full\000"
 10775      00
 10776              	.LASF291:
 10777 1b48 6C765F64 		.ascii	"lv_draw_layer_ctx_t\000"
 10777      7261775F 
 10777      6C617965 
 10777      725F6374 
 10777      785F7400 
 10778              	.LASF96:
 10779 1b5c 636F6C6F 		.ascii	"color\000"
 10779      7200
 10780              	.LASF72:
 10781 1b62 74696D65 		.ascii	"time\000"
 10781      00
 10782              	.LASF594:
 10783 1b67 6C765F61 		.ascii	"lv_anim_start\000"
 10783      6E696D5F 
 10783      73746172 
 10783      7400
 10784              	.LASF99:
 10785 1b75 73746F70 		.ascii	"stops\000"
 10785      7300
 10786              	.LASF426:
 10787 1b7b 6C617374 		.ascii	"last_key\000"
 10787      5F6B6579 
 10787      00
 10788              	.LASF251:
 10789 1b84 6C696E65 		.ascii	"line_space\000"
 10789      5F737061 
 10789      636500
 10790              	.LASF437:
 10791 1b8f 5F6C765F 		.ascii	"_lv_indev_t\000"
 10791      696E6465 
 10791      765F7400 
 10792              	.LASF423:
 10793 1b9b 67657374 		.ascii	"gesture_dir\000"
 10793      7572655F 
ARM GAS  C:\Users\haske\AppData\Local\Temp\ccU9uRZG.s 			page 229


 10793      64697200 
 10794              	.LASF307:
 10795 1ba7 6C617965 		.ascii	"layer_blend\000"
 10795      725F626C 
 10795      656E6400 
 10796              	.LASF424:
 10797 1bb3 67657374 		.ascii	"gesture_sent\000"
 10797      7572655F 
 10797      73656E74 
 10797      00
 10798              	.LASF587:
 10799 1bc0 696E6465 		.ascii	"index1\000"
 10799      783100
 10800              	.LASF588:
 10801 1bc7 696E6465 		.ascii	"index2\000"
 10801      783200
 10802              	.LASF469:
 10803 1bce 64657374 		.ascii	"destructor_cb\000"
 10803      72756374 
 10803      6F725F63 
 10803      6200
 10804              	.LASF93:
 10805 1bdc 6C765F62 		.ascii	"lv_border_side_t\000"
 10805      6F726465 
 10805      725F7369 
 10805      64655F74 
 10805      00
 10806              	.LASF97:
 10807 1bed 66726163 		.ascii	"frac\000"
 10807      00
 10808              	.LASF205:
 10809 1bf2 5F6C765F 		.ascii	"_lv_obj_t\000"
 10809      6F626A5F 
 10809      7400
 10810              	.LASF246:
 10811 1bfc 666F6E74 		.ascii	"font\000"
 10811      00
 10812              	.LASF252:
 10813 1c01 6C657474 		.ascii	"letter_space\000"
 10813      65725F73 
 10813      70616365 
 10813      00
 10814              	.LASF402:
 10815 1c0e 7363726F 		.ascii	"scroll_limit\000"
 10815      6C6C5F6C 
 10815      696D6974 
 10815      00
 10816              	.LASF110:
 10817 1c1b 4C565F53 		.ascii	"LV_STYLE_MAX_HEIGHT\000"
 10817      54594C45 
 10817      5F4D4158 
 10817      5F484549 
 10817      47485400 
 10818              	.LASF362:
 10819 1c2f 64726976 		.ascii	"driver\000"
 10819      657200
 10820              	.LASF549:
ARM GAS  C:\Users\haske\AppData\Local\Temp\ccU9uRZG.s 			page 230


 10821 1c36 5F6C765F 		.ascii	"_lv_theme_t\000"
 10821      7468656D 
 10821      655F7400 
 10822              	.LASF277:
 10823 1c42 6C765F64 		.ascii	"lv_draw_arc_dsc_t\000"
 10823      7261775F 
 10823      6172635F 
 10823      6473635F 
 10823      7400
 10824              	.LASF126:
 10825 1c54 4C565F53 		.ascii	"LV_STYLE_BG_GRAD_COLOR\000"
 10825      54594C45 
 10825      5F42475F 
 10825      47524144 
 10825      5F434F4C 
 10826              	.LASF367:
 10827 1c6b 70726576 		.ascii	"prev_scr\000"
 10827      5F736372 
 10827      00
 10828              	.LASF33:
 10829 1c74 626F785F 		.ascii	"box_h\000"
 10829      6800
 10830              	.LASF84:
 10831 1c7a 6C765F61 		.ascii	"lv_anim_start_cb_t\000"
 10831      6E696D5F 
 10831      73746172 
 10831      745F6362 
 10831      5F7400
 10832              	.LASF226:
 10833 1c8d 62675F69 		.ascii	"bg_img_recolor\000"
 10833      6D675F72 
 10833      65636F6C 
 10833      6F7200
 10834              	.LASF55:
 10835 1c9c 6C765F63 		.ascii	"lv_color16_t\000"
 10835      6F6C6F72 
 10835      31365F74 
 10835      00
 10836              	.LASF32:
 10837 1ca9 626F785F 		.ascii	"box_w\000"
 10837      7700
 10838              	.LASF9:
 10839 1caf 73686F72 		.ascii	"short int\000"
 10839      7420696E 
 10839      7400
 10840              	.LASF40:
 10841 1cb9 62617365 		.ascii	"base_line\000"
 10841      5F6C696E 
 10841      6500
 10842              	.LASF378:
 10843 1cc3 696E765F 		.ascii	"inv_p\000"
 10843      7000
 10844              	.LASF315:
 10845 1cc9 6C765F6C 		.ascii	"lv_ll_t\000"
 10845      6C5F7400 
 10846              	.LASF566:
 10847 1cd1 6C765F6F 		.ascii	"lv_obj_get_disp\000"
ARM GAS  C:\Users\haske\AppData\Local\Temp\ccU9uRZG.s 			page 231


 10847      626A5F67 
 10847      65745F64 
 10847      69737000 
 10848              	.LASF408:
 10849 1ce1 6163745F 		.ascii	"act_point\000"
 10849      706F696E 
 10849      7400
 10850              	.LASF614:
 10851 1ceb 6C765F67 		.ascii	"lv_group_swap_obj\000"
 10851      726F7570 
 10851      5F737761 
 10851      705F6F62 
 10851      6A00
 10852              	.LASF511:
 10853 1cfd 4C565F45 		.ascii	"LV_EVENT_DRAW_POST_END\000"
 10853      56454E54 
 10853      5F445241 
 10853      575F504F 
 10853      53545F45 
 10854              	.LASF512:
 10855 1d14 4C565F45 		.ascii	"LV_EVENT_DRAW_PART_BEGIN\000"
 10855      56454E54 
 10855      5F445241 
 10855      575F5041 
 10855      52545F42 
 10856              	.LASF428:
 10857 1d2d 6B657970 		.ascii	"keypad\000"
 10857      616400
 10858              	.LASF605:
 10859 1d34 5F6C765F 		.ascii	"_lv_obj_destruct\000"
 10859      6F626A5F 
 10859      64657374 
 10859      72756374 
 10859      00
 10860              	.LASF244:
 10861 1d45 73686164 		.ascii	"shadow_opa\000"
 10861      6F775F6F 
 10861      706100
 10862              	.LASF163:
 10863 1d50 4C565F53 		.ascii	"LV_STYLE_ARC_COLOR\000"
 10863      54594C45 
 10863      5F415243 
 10863      5F434F4C 
 10863      4F5200
 10864              	.LASF478:
 10865 1d63 63757272 		.ascii	"current_target\000"
 10865      656E745F 
 10865      74617267 
 10865      657400
 10866              	.LASF21:
 10867 1d72 696E7431 		.ascii	"int16_t\000"
 10867      365F7400 
 10868              	.LASF379:
 10869 1d7a 696E765F 		.ascii	"inv_en_cnt\000"
 10869      656E5F63 
 10869      6E7400
 10870              	.LASF567:
ARM GAS  C:\Users\haske\AppData\Local\Temp\ccU9uRZG.s 			page 232


 10871 1d85 6C765F6F 		.ascii	"lv_obj_get_child\000"
 10871      626A5F67 
 10871      65745F63 
 10871      68696C64 
 10871      00
 10872              	.LASF284:
 10873 1d96 73637265 		.ascii	"screen_transp\000"
 10873      656E5F74 
 10873      72616E73 
 10873      7000
 10874              	.LASF210:
 10875 1da4 636F6F72 		.ascii	"coords\000"
 10875      647300
 10876              	.LASF542:
 10877 1dab 6578745F 		.ascii	"ext_click_pad\000"
 10877      636C6963 
 10877      6B5F7061 
 10877      6400
 10878              	.LASF571:
 10879 1db9 696E6465 		.ascii	"indev\000"
 10879      7600
 10880              	.LASF581:
 10881 1dbf 696E6465 		.ascii	"index\000"
 10881      7800
 10882              	.LASF190:
 10883 1dc5 5F4C565F 		.ascii	"_LV_STYLE_NUM_BUILT_IN_PROPS\000"
 10883      5354594C 
 10883      455F4E55 
 10883      4D5F4255 
 10883      494C545F 
 10884              	.LASF116:
 10885 1de2 4C565F53 		.ascii	"LV_STYLE_PAD_TOP\000"
 10885      54594C45 
 10885      5F504144 
 10885      5F544F50 
 10885      00
 10886              	.LASF373:
 10887 1df3 64656C5F 		.ascii	"del_prev\000"
 10887      70726576 
 10887      00
 10888              	.LASF531:
 10889 1dfc 5F4C565F 		.ascii	"_LV_EVENT_LAST\000"
 10889      4556454E 
 10889      545F4C41 
 10889      535400
 10890              	.LASF375:
 10891 1e0b 62675F69 		.ascii	"bg_img\000"
 10891      6D6700
 10892              	.LASF458:
 10893 1e12 6C765F6F 		.ascii	"lv_obj_tree_walk_cb_t\000"
 10893      626A5F74 
 10893      7265655F 
 10893      77616C6B 
 10893      5F63625F 
 10894              	.LASF133:
 10895 1e28 4C565F53 		.ascii	"LV_STYLE_BG_IMG_OPA\000"
 10895      54594C45 
ARM GAS  C:\Users\haske\AppData\Local\Temp\ccU9uRZG.s 			page 233


 10895      5F42475F 
 10895      494D475F 
 10895      4F504100 
 10896              	.LASF155:
 10897 1e3c 4C565F53 		.ascii	"LV_STYLE_LINE_WIDTH\000"
 10897      54594C45 
 10897      5F4C494E 
 10897      455F5749 
 10897      44544800 
 10898              	.LASF501:
 10899 1e50 4C565F45 		.ascii	"LV_EVENT_DEFOCUSED\000"
 10899      56454E54 
 10899      5F444546 
 10899      4F435553 
 10899      454400
 10900              	.LASF617:
 10901 1e63 433A5C50 		.ascii	"C:\\Projects\\PainDrain\\firmware\\PainDrain\\PainD"
 10901      726F6A65 
 10901      6374735C 
 10901      5061696E 
 10901      44726169 
 10902 1e91 7261696E 		.ascii	"rain.cydsn\000"
 10902      2E637964 
 10902      736E00
 10903              	.LASF200:
 10904 1e9c 70726F70 		.ascii	"prop1\000"
 10904      3100
 10905              	.LASF349:
 10906 1ea2 7365745F 		.ascii	"set_px_cb\000"
 10906      70785F63 
 10906      6200
 10907              	.LASF407:
 10908 1eac 6C6F6E67 		.ascii	"long_press_repeat_time\000"
 10908      5F707265 
 10908      73735F72 
 10908      65706561 
 10908      745F7469 
 10909              	.LASF73:
 10910 1ec3 6163745F 		.ascii	"act_time\000"
 10910      74696D65 
 10910      00
 10911              	.LASF232:
 10912 1ecc 626F7264 		.ascii	"border_opa\000"
 10912      65725F6F 
 10912      706100
 10913              	.LASF109:
 10914 1ed7 4C565F53 		.ascii	"LV_STYLE_MIN_HEIGHT\000"
 10914      54594C45 
 10914      5F4D494E 
 10914      5F484549 
 10914      47485400 
 10915              	.LASF558:
 10916 1eeb 6C765F61 		.ascii	"lv_anim_set_exec_cb\000"
 10916      6E696D5F 
 10916      7365745F 
 10916      65786563 
 10916      5F636200 
ARM GAS  C:\Users\haske\AppData\Local\Temp\ccU9uRZG.s 			page 234


 10917              	.LASF593:
 10918 1eff 6C765F61 		.ascii	"lv_anim_init\000"
 10918      6E696D5F 
 10918      696E6974 
 10918      00
 10919              	.LASF223:
 10920 1f0c 62675F67 		.ascii	"bg_grad\000"
 10920      72616400 
 10921              	.LASF395:
 10922 1f14 6C765F69 		.ascii	"lv_indev_data_t\000"
 10922      6E646576 
 10922      5F646174 
 10922      615F7400 
 10923              	.LASF141:
 10924 1f24 4C565F53 		.ascii	"LV_STYLE_BORDER_POST\000"
 10924      54594C45 
 10924      5F424F52 
 10924      4445525F 
 10924      504F5354 
 10925              	.LASF357:
 10926 1f39 64726177 		.ascii	"draw_ctx\000"
 10926      5F637478 
 10926      00
 10927              	.LASF297:
 10928 1f42 64726177 		.ascii	"draw_img\000"
 10928      5F696D67 
 10928      00
 10929              	.LASF98:
 10930 1f4b 6C765F67 		.ascii	"lv_gradient_stop_t\000"
 10930      72616469 
 10930      656E745F 
 10930      73746F70 
 10930      5F7400
 10931              	.LASF112:
 10932 1f5e 4C565F53 		.ascii	"LV_STYLE_Y\000"
 10932      54594C45 
 10932      5F5900
 10933              	.LASF158:
 10934 1f69 4C565F53 		.ascii	"LV_STYLE_LINE_ROUNDED\000"
 10934      54594C45 
 10934      5F4C494E 
 10934      455F524F 
 10934      554E4445 
 10935              	.LASF612:
 10936 1f7f 6C765F6F 		.ascii	"lv_obj_allocate_spec_attr\000"
 10936      626A5F61 
 10936      6C6C6F63 
 10936      6174655F 
 10936      73706563 
 10937              	.LASF599:
 10938 1f99 6C765F6D 		.ascii	"lv_mem_realloc\000"
 10938      656D5F72 
 10938      65616C6C 
 10938      6F6300
 10939              	.LASF300:
 10940 1fa8 64726177 		.ascii	"draw_polygon\000"
 10940      5F706F6C 
ARM GAS  C:\Users\haske\AppData\Local\Temp\ccU9uRZG.s 			page 235


 10940      79676F6E 
 10940      00
 10941              	.LASF528:
 10942 1fb5 4C565F45 		.ascii	"LV_EVENT_STYLE_CHANGED\000"
 10942      56454E54 
 10942      5F535459 
 10942      4C455F43 
 10942      48414E47 
 10943              	.LASF517:
 10944 1fcc 4C565F45 		.ascii	"LV_EVENT_READY\000"
 10944      56454E54 
 10944      5F524541 
 10944      445900
 10945              	.LASF247:
 10946 1fdb 73656C5F 		.ascii	"sel_start\000"
 10946      73746172 
 10946      7400
 10947              	.LASF510:
 10948 1fe5 4C565F45 		.ascii	"LV_EVENT_DRAW_POST\000"
 10948      56454E54 
 10948      5F445241 
 10948      575F504F 
 10948      535400
 10949              	.LASF24:
 10950 1ff8 75696E74 		.ascii	"uint32_t\000"
 10950      33325F74 
 10950      00
 10951              	.LASF607:
 10952 2001 6C765F6F 		.ascii	"lv_obj_invalidate\000"
 10952      626A5F69 
 10952      6E76616C 
 10952      69646174 
 10952      6500
 10953              	.LASF579:
 10954 2013 6F6C645F 		.ascii	"old_parent\000"
 10954      70617265 
 10954      6E7400
 10955              	.LASF453:
 10956 201e 6C765F6F 		.ascii	"lv_obj_flag_t\000"
 10956      626A5F66 
 10956      6C61675F 
 10956      7400
 10957              	.LASF527:
 10958 202c 4C565F45 		.ascii	"LV_EVENT_SIZE_CHANGED\000"
 10958      56454E54 
 10958      5F53495A 
 10958      455F4348 
 10958      414E4745 
 10959              	.LASF240:
 10960 2042 73686164 		.ascii	"shadow_width\000"
 10960      6F775F77 
 10960      69647468 
 10960      00
 10961              	.LASF432:
 10962 204f 64697361 		.ascii	"disabled\000"
 10962      626C6564 
 10962      00
ARM GAS  C:\Users\haske\AppData\Local\Temp\ccU9uRZG.s 			page 236


 10963              	.LASF53:
 10964 2058 67726565 		.ascii	"green\000"
 10964      6E00
 10965              	.LASF48:
 10966 205e 6C765F66 		.ascii	"lv_font_t\000"
 10966      6F6E745F 
 10966      7400
 10967              	.LASF529:
 10968 2068 4C565F45 		.ascii	"LV_EVENT_LAYOUT_CHANGED\000"
 10968      56454E54 
 10968      5F4C4159 
 10968      4F55545F 
 10968      4348414E 
 10969              	.LASF404:
 10970 2080 67657374 		.ascii	"gesture_min_velocity\000"
 10970      7572655F 
 10970      6D696E5F 
 10970      76656C6F 
 10970      63697479 
 10971              	.LASF101:
 10972 2095 64697468 		.ascii	"dither\000"
 10972      657200
 10973              	.LASF618:
 10974 209c 77616C6B 		.ascii	"walk_core\000"
 10974      5F636F72 
 10974      6500
 10975              	.LASF572:
 10976 20a6 6C765F6F 		.ascii	"lv_obj_del\000"
 10976      626A5F64 
 10976      656C00
 10977              	.LASF11:
 10978 20b1 73686F72 		.ascii	"short unsigned int\000"
 10978      7420756E 
 10978      7369676E 
 10978      65642069 
 10978      6E7400
 10979              	.LASF499:
 10980 20c4 4C565F45 		.ascii	"LV_EVENT_KEY\000"
 10980      56454E54 
 10980      5F4B4559 
 10980      00
 10981              	.LASF26:
 10982 20d1 6C765F63 		.ascii	"lv_coord_t\000"
 10982      6F6F7264 
 10982      5F7400
 10983              	.LASF382:
 10984 20dc 4C565F49 		.ascii	"LV_INDEV_TYPE_NONE\000"
 10984      4E444556 
 10984      5F545950 
 10984      455F4E4F 
 10984      4E4500
 10985              	.LASF347:
 10986 20ef 666C7573 		.ascii	"flush_cb\000"
 10986      685F6362 
 10986      00
 10987              	.LASF143:
 10988 20f8 4C565F53 		.ascii	"LV_STYLE_OUTLINE_COLOR\000"
ARM GAS  C:\Users\haske\AppData\Local\Temp\ccU9uRZG.s 			page 237


 10988      54594C45 
 10988      5F4F5554 
 10988      4C494E45 
 10988      5F434F4C 
 10989              	.LASF45:
 10990 210f 75736572 		.ascii	"user_data\000"
 10990      5F646174 
 10990      6100
 10991              	.LASF489:
 10992 2119 4C565F45 		.ascii	"LV_EVENT_PRESS_LOST\000"
 10992      56454E54 
 10992      5F505245 
 10992      53535F4C 
 10992      4F535400 
 10993              	.LASF79:
 10994 212d 706C6179 		.ascii	"playback_now\000"
 10994      6261636B 
 10994      5F6E6F77 
 10994      00
 10995              	.LASF550:
 10996 213a 5F6C765F 		.ascii	"_lv_event_dsc_t\000"
 10996      6576656E 
 10996      745F6473 
 10996      635F7400 
 10997              	.LASF149:
 10998 214a 4C565F53 		.ascii	"LV_STYLE_SHADOW_SPREAD\000"
 10998      54594C45 
 10998      5F534841 
 10998      444F575F 
 10998      53505245 
 10999              	.LASF457:
 11000 2161 6C765F6F 		.ascii	"lv_obj_tree_walk_res_t\000"
 11000      626A5F74 
 11000      7265655F 
 11000      77616C6B 
 11000      5F726573 
 11001              	.LASF37:
 11002 2178 6765745F 		.ascii	"get_glyph_dsc\000"
 11002      676C7970 
 11002      685F6473 
 11002      6300
 11003              	.LASF12:
 11004 2186 5F5F696E 		.ascii	"__int32_t\000"
 11004      7433325F 
 11004      7400
 11005              	.LASF596:
 11006 2190 5F6C765F 		.ascii	"_lv_ll_get_head\000"
 11006      6C6C5F67 
 11006      65745F68 
 11006      65616400 
 11007              	.LASF462:
 11008 21a0 73656C65 		.ascii	"selector\000"
 11008      63746F72 
 11008      00
 11009              	.LASF66:
 11010 21a9 64656C65 		.ascii	"deleted_cb\000"
 11010      7465645F 
ARM GAS  C:\Users\haske\AppData\Local\Temp\ccU9uRZG.s 			page 238


 11010      636200
 11011              	.LASF94:
 11012 21b4 6C765F67 		.ascii	"lv_grad_dir_t\000"
 11012      7261645F 
 11012      6469725F 
 11012      7400
 11013              	.LASF411:
 11014 21c2 6C617374 		.ascii	"last_raw_point\000"
 11014      5F726177 
 11014      5F706F69 
 11014      6E7400
 11015              	.LASF449:
 11016 21d1 7265666F 		.ascii	"refocus_policy\000"
 11016      6375735F 
 11016      706F6C69 
 11016      637900
 11017              	.LASF334:
 11018 21e0 5F6C765F 		.ascii	"_lv_disp_drv_t\000"
 11018      64697370 
 11018      5F647276 
 11018      5F7400
 11019              	.LASF430:
 11020 21ef 6C6F6E67 		.ascii	"long_pr_sent\000"
 11020      5F70725F 
 11020      73656E74 
 11020      00
 11021              	.LASF472:
 11022 21fc 68656967 		.ascii	"height_def\000"
 11022      68745F64 
 11022      656600
 11023              	.LASF523:
 11024 2207 4C565F45 		.ascii	"LV_EVENT_SCREEN_UNLOAD_START\000"
 11024      56454E54 
 11024      5F534352 
 11024      45454E5F 
 11024      554E4C4F 
 11025              	.LASF577:
 11026 2224 6C765F6F 		.ascii	"lv_obj_clean\000"
 11026      626A5F63 
 11026      6C65616E 
 11026      00
 11027              	.LASF353:
 11028 2231 636C6561 		.ascii	"clean_dcache_cb\000"
 11028      6E5F6463 
 11028      61636865 
 11028      5F636200 
 11029              	.LASF405:
 11030 2241 67657374 		.ascii	"gesture_limit\000"
 11030      7572655F 
 11030      6C696D69 
 11030      7400
 11031              	.LASF249:
 11032 224f 73656C5F 		.ascii	"sel_color\000"
 11032      636F6C6F 
 11032      7200
 11033              	.LASF225:
 11034 2259 62675F69 		.ascii	"bg_img_symbol_font\000"
ARM GAS  C:\Users\haske\AppData\Local\Temp\ccU9uRZG.s 			page 239


 11034      6D675F73 
 11034      796D626F 
 11034      6C5F666F 
 11034      6E7400
 11035              	.LASF242:
 11036 226c 73686164 		.ascii	"shadow_ofs_y\000"
 11036      6F775F6F 
 11036      66735F79 
 11036      00
 11037              	.LASF62:
 11038 2279 5F6C765F 		.ascii	"_lv_anim_t\000"
 11038      616E696D 
 11038      5F7400
 11039              	.LASF481:
 11040 2284 70726576 		.ascii	"prev\000"
 11040      00
 11041              	.LASF102:
 11042 2289 6C765F67 		.ascii	"lv_grad_dsc_t\000"
 11042      7261645F 
 11042      6473635F 
 11042      7400
 11043              	.LASF312:
 11044 2297 6E5F7369 		.ascii	"n_size\000"
 11044      7A6500
 11045              	.LASF439:
 11046 229e 63757273 		.ascii	"cursor\000"
 11046      6F7200
 11047              	.LASF442:
 11048 22a5 5F6C765F 		.ascii	"_lv_group_t\000"
 11048      67726F75 
 11048      705F7400 
 11049              	.LASF130:
 11050 22b1 4C565F53 		.ascii	"LV_STYLE_BG_GRAD\000"
 11050      54594C45 
 11050      5F42475F 
 11050      47524144 
 11050      00
 11051              	.LASF494:
 11052 22c2 4C565F45 		.ascii	"LV_EVENT_RELEASED\000"
 11052      56454E54 
 11052      5F52454C 
 11052      45415345 
 11052      4400
 11053              	.LASF36:
 11054 22d4 69735F70 		.ascii	"is_placeholder\000"
 11054      6C616365 
 11054      686F6C64 
 11054      657200
 11055              	.LASF145:
 11056 22e3 4C565F53 		.ascii	"LV_STYLE_OUTLINE_PAD\000"
 11056      54594C45 
 11056      5F4F5554 
 11056      4C494E45 
 11056      5F504144 
 11057              	.LASF601:
 11058 22f8 6C765F6F 		.ascii	"lv_obj_get_group\000"
 11058      626A5F67 
ARM GAS  C:\Users\haske\AppData\Local\Temp\ccU9uRZG.s 			page 240


 11058      65745F67 
 11058      726F7570 
 11058      00
 11059              	.LASF412:
 11060 2309 76656374 		.ascii	"vect\000"
 11060      00
 11061              	.LASF444:
 11062 230e 6F626A5F 		.ascii	"obj_focus\000"
 11062      666F6375 
 11062      7300
 11063              	.LASF169:
 11064 2318 4C565F53 		.ascii	"LV_STYLE_TEXT_LETTER_SPACE\000"
 11064      54594C45 
 11064      5F544558 
 11064      545F4C45 
 11064      54544552 
 11065              	.LASF552:
 11066 2333 6C765F6F 		.ascii	"lv_obj_t\000"
 11066      626A5F74 
 11066      00
 11067              	.LASF547:
 11068 233c 6576656E 		.ascii	"event_dsc_cnt\000"
 11068      745F6473 
 11068      635F636E 
 11068      7400
 11069              		.ident	"GCC: (GNU Tools for ARM Embedded Processors) 5.4.1 20160609 (release) [ARM/embedded-5-bran
