ARM GAS  C:\Users\haske\AppData\Local\Temp\cc4f9rxb.s 			page 1


   1              		.syntax unified
   2              		.cpu cortex-m0plus
   3              		.fpu softvfp
   4              		.eabi_attribute 20, 1
   5              		.eabi_attribute 21, 1
   6              		.eabi_attribute 23, 3
   7              		.eabi_attribute 24, 1
   8              		.eabi_attribute 25, 1
   9              		.eabi_attribute 26, 1
  10              		.eabi_attribute 30, 1
  11              		.eabi_attribute 34, 0
  12              		.eabi_attribute 18, 4
  13              		.thumb
  14              		.syntax unified
  15              		.file	"lv_obj_draw.c"
  16              		.text
  17              	.Ltext0:
  18              		.cfi_sections	.debug_frame
  19              		.section	.text.lv_obj_init_draw_rect_dsc,"ax",%progbits
  20              		.align	2
  21              		.global	lv_obj_init_draw_rect_dsc
  22              		.code	16
  23              		.thumb_func
  24              		.type	lv_obj_init_draw_rect_dsc, %function
  25              	lv_obj_init_draw_rect_dsc:
  26              	.LFB165:
  27              		.file 1 "..\\..\\..\\arduinoLCD\\test\\Pain Drain\\libraries\\lvgl\\src\\core\\lv_obj_draw.c"
   1:..\..\..\arduinoLCD\test\Pain Drain\libraries\lvgl\src\core/lv_obj_draw.c **** /**
   2:..\..\..\arduinoLCD\test\Pain Drain\libraries\lvgl\src\core/lv_obj_draw.c ****  * @file lv_obj_draw.c
   3:..\..\..\arduinoLCD\test\Pain Drain\libraries\lvgl\src\core/lv_obj_draw.c ****  *
   4:..\..\..\arduinoLCD\test\Pain Drain\libraries\lvgl\src\core/lv_obj_draw.c ****  */
   5:..\..\..\arduinoLCD\test\Pain Drain\libraries\lvgl\src\core/lv_obj_draw.c **** 
   6:..\..\..\arduinoLCD\test\Pain Drain\libraries\lvgl\src\core/lv_obj_draw.c **** /*********************
   7:..\..\..\arduinoLCD\test\Pain Drain\libraries\lvgl\src\core/lv_obj_draw.c ****  *      INCLUDES
   8:..\..\..\arduinoLCD\test\Pain Drain\libraries\lvgl\src\core/lv_obj_draw.c ****  *********************/
   9:..\..\..\arduinoLCD\test\Pain Drain\libraries\lvgl\src\core/lv_obj_draw.c **** #include "lv_obj_draw.h"
  10:..\..\..\arduinoLCD\test\Pain Drain\libraries\lvgl\src\core/lv_obj_draw.c **** #include "lv_obj.h"
  11:..\..\..\arduinoLCD\test\Pain Drain\libraries\lvgl\src\core/lv_obj_draw.c **** #include "lv_disp.h"
  12:..\..\..\arduinoLCD\test\Pain Drain\libraries\lvgl\src\core/lv_obj_draw.c **** #include "lv_indev.h"
  13:..\..\..\arduinoLCD\test\Pain Drain\libraries\lvgl\src\core/lv_obj_draw.c **** 
  14:..\..\..\arduinoLCD\test\Pain Drain\libraries\lvgl\src\core/lv_obj_draw.c **** /*********************
  15:..\..\..\arduinoLCD\test\Pain Drain\libraries\lvgl\src\core/lv_obj_draw.c ****  *      DEFINES
  16:..\..\..\arduinoLCD\test\Pain Drain\libraries\lvgl\src\core/lv_obj_draw.c ****  *********************/
  17:..\..\..\arduinoLCD\test\Pain Drain\libraries\lvgl\src\core/lv_obj_draw.c **** #define MY_CLASS &lv_obj_class
  18:..\..\..\arduinoLCD\test\Pain Drain\libraries\lvgl\src\core/lv_obj_draw.c **** 
  19:..\..\..\arduinoLCD\test\Pain Drain\libraries\lvgl\src\core/lv_obj_draw.c **** /**********************
  20:..\..\..\arduinoLCD\test\Pain Drain\libraries\lvgl\src\core/lv_obj_draw.c ****  *      TYPEDEFS
  21:..\..\..\arduinoLCD\test\Pain Drain\libraries\lvgl\src\core/lv_obj_draw.c ****  **********************/
  22:..\..\..\arduinoLCD\test\Pain Drain\libraries\lvgl\src\core/lv_obj_draw.c **** 
  23:..\..\..\arduinoLCD\test\Pain Drain\libraries\lvgl\src\core/lv_obj_draw.c **** /**********************
  24:..\..\..\arduinoLCD\test\Pain Drain\libraries\lvgl\src\core/lv_obj_draw.c ****  *  STATIC PROTOTYPES
  25:..\..\..\arduinoLCD\test\Pain Drain\libraries\lvgl\src\core/lv_obj_draw.c ****  **********************/
  26:..\..\..\arduinoLCD\test\Pain Drain\libraries\lvgl\src\core/lv_obj_draw.c **** 
  27:..\..\..\arduinoLCD\test\Pain Drain\libraries\lvgl\src\core/lv_obj_draw.c **** /**********************
  28:..\..\..\arduinoLCD\test\Pain Drain\libraries\lvgl\src\core/lv_obj_draw.c ****  *  STATIC VARIABLES
  29:..\..\..\arduinoLCD\test\Pain Drain\libraries\lvgl\src\core/lv_obj_draw.c ****  **********************/
  30:..\..\..\arduinoLCD\test\Pain Drain\libraries\lvgl\src\core/lv_obj_draw.c **** 
ARM GAS  C:\Users\haske\AppData\Local\Temp\cc4f9rxb.s 			page 2


  31:..\..\..\arduinoLCD\test\Pain Drain\libraries\lvgl\src\core/lv_obj_draw.c **** /**********************
  32:..\..\..\arduinoLCD\test\Pain Drain\libraries\lvgl\src\core/lv_obj_draw.c ****  *      MACROS
  33:..\..\..\arduinoLCD\test\Pain Drain\libraries\lvgl\src\core/lv_obj_draw.c ****  **********************/
  34:..\..\..\arduinoLCD\test\Pain Drain\libraries\lvgl\src\core/lv_obj_draw.c **** 
  35:..\..\..\arduinoLCD\test\Pain Drain\libraries\lvgl\src\core/lv_obj_draw.c **** /**********************
  36:..\..\..\arduinoLCD\test\Pain Drain\libraries\lvgl\src\core/lv_obj_draw.c ****  *   GLOBAL FUNCTIONS
  37:..\..\..\arduinoLCD\test\Pain Drain\libraries\lvgl\src\core/lv_obj_draw.c ****  **********************/
  38:..\..\..\arduinoLCD\test\Pain Drain\libraries\lvgl\src\core/lv_obj_draw.c **** 
  39:..\..\..\arduinoLCD\test\Pain Drain\libraries\lvgl\src\core/lv_obj_draw.c **** void lv_obj_init_draw_rect_dsc(lv_obj_t * obj, uint32_t part, lv_draw_rect_dsc_t * draw_dsc)
  40:..\..\..\arduinoLCD\test\Pain Drain\libraries\lvgl\src\core/lv_obj_draw.c **** {
  28              		.loc 1 40 0
  29              		.cfi_startproc
  30              		@ args = 0, pretend = 0, frame = 0
  31              		@ frame_needed = 0, uses_anonymous_args = 0
  32              	.LVL0:
  33 0000 F8B5     		push	{r3, r4, r5, r6, r7, lr}
  34              		.cfi_def_cfa_offset 24
  35              		.cfi_offset 3, -24
  36              		.cfi_offset 4, -20
  37              		.cfi_offset 5, -16
  38              		.cfi_offset 6, -12
  39              		.cfi_offset 7, -8
  40              		.cfi_offset 14, -4
  41 0002 0600     		movs	r6, r0
  42 0004 0D00     		movs	r5, r1
  43 0006 1400     		movs	r4, r2
  44              	.LVL1:
  41:..\..\..\arduinoLCD\test\Pain Drain\libraries\lvgl\src\core/lv_obj_draw.c ****     lv_opa_t opa = LV_OPA_COVER;
  42:..\..\..\arduinoLCD\test\Pain Drain\libraries\lvgl\src\core/lv_obj_draw.c ****     if(part != LV_PART_MAIN) {
  45              		.loc 1 42 0
  46 0008 0029     		cmp	r1, #0
  47 000a 0FD0     		beq	.L13
  48              	.LVL2:
  49              	.LBB202:
  50              	.LBB203:
  51              		.file 2 "..\\..\\..\\arduinoLCD\\test\\Pain Drain\\libraries\\lvgl\\src\\core\\lv_obj_style_gen.h"
   1:..\..\..\arduinoLCD\test\Pain Drain\libraries\lvgl\src\core/lv_obj_style_gen.h **** static inline lv_coord_t lv_obj_get_style_width(const struct _lv_obj_t * obj, uint32_t part)
   2:..\..\..\arduinoLCD\test\Pain Drain\libraries\lvgl\src\core/lv_obj_style_gen.h **** {
   3:..\..\..\arduinoLCD\test\Pain Drain\libraries\lvgl\src\core/lv_obj_style_gen.h ****     lv_style_value_t v = lv_obj_get_style_prop(obj, part, LV_STYLE_WIDTH);
   4:..\..\..\arduinoLCD\test\Pain Drain\libraries\lvgl\src\core/lv_obj_style_gen.h ****     return (lv_coord_t)v.num;
   5:..\..\..\arduinoLCD\test\Pain Drain\libraries\lvgl\src\core/lv_obj_style_gen.h **** }
   6:..\..\..\arduinoLCD\test\Pain Drain\libraries\lvgl\src\core/lv_obj_style_gen.h **** 
   7:..\..\..\arduinoLCD\test\Pain Drain\libraries\lvgl\src\core/lv_obj_style_gen.h **** static inline lv_coord_t lv_obj_get_style_min_width(const struct _lv_obj_t * obj, uint32_t part)
   8:..\..\..\arduinoLCD\test\Pain Drain\libraries\lvgl\src\core/lv_obj_style_gen.h **** {
   9:..\..\..\arduinoLCD\test\Pain Drain\libraries\lvgl\src\core/lv_obj_style_gen.h ****     lv_style_value_t v = lv_obj_get_style_prop(obj, part, LV_STYLE_MIN_WIDTH);
  10:..\..\..\arduinoLCD\test\Pain Drain\libraries\lvgl\src\core/lv_obj_style_gen.h ****     return (lv_coord_t)v.num;
  11:..\..\..\arduinoLCD\test\Pain Drain\libraries\lvgl\src\core/lv_obj_style_gen.h **** }
  12:..\..\..\arduinoLCD\test\Pain Drain\libraries\lvgl\src\core/lv_obj_style_gen.h **** 
  13:..\..\..\arduinoLCD\test\Pain Drain\libraries\lvgl\src\core/lv_obj_style_gen.h **** static inline lv_coord_t lv_obj_get_style_max_width(const struct _lv_obj_t * obj, uint32_t part)
  14:..\..\..\arduinoLCD\test\Pain Drain\libraries\lvgl\src\core/lv_obj_style_gen.h **** {
  15:..\..\..\arduinoLCD\test\Pain Drain\libraries\lvgl\src\core/lv_obj_style_gen.h ****     lv_style_value_t v = lv_obj_get_style_prop(obj, part, LV_STYLE_MAX_WIDTH);
  16:..\..\..\arduinoLCD\test\Pain Drain\libraries\lvgl\src\core/lv_obj_style_gen.h ****     return (lv_coord_t)v.num;
  17:..\..\..\arduinoLCD\test\Pain Drain\libraries\lvgl\src\core/lv_obj_style_gen.h **** }
  18:..\..\..\arduinoLCD\test\Pain Drain\libraries\lvgl\src\core/lv_obj_style_gen.h **** 
  19:..\..\..\arduinoLCD\test\Pain Drain\libraries\lvgl\src\core/lv_obj_style_gen.h **** static inline lv_coord_t lv_obj_get_style_height(const struct _lv_obj_t * obj, uint32_t part)
  20:..\..\..\arduinoLCD\test\Pain Drain\libraries\lvgl\src\core/lv_obj_style_gen.h **** {
  21:..\..\..\arduinoLCD\test\Pain Drain\libraries\lvgl\src\core/lv_obj_style_gen.h ****     lv_style_value_t v = lv_obj_get_style_prop(obj, part, LV_STYLE_HEIGHT);
ARM GAS  C:\Users\haske\AppData\Local\Temp\cc4f9rxb.s 			page 3


  22:..\..\..\arduinoLCD\test\Pain Drain\libraries\lvgl\src\core/lv_obj_style_gen.h ****     return (lv_coord_t)v.num;
  23:..\..\..\arduinoLCD\test\Pain Drain\libraries\lvgl\src\core/lv_obj_style_gen.h **** }
  24:..\..\..\arduinoLCD\test\Pain Drain\libraries\lvgl\src\core/lv_obj_style_gen.h **** 
  25:..\..\..\arduinoLCD\test\Pain Drain\libraries\lvgl\src\core/lv_obj_style_gen.h **** static inline lv_coord_t lv_obj_get_style_min_height(const struct _lv_obj_t * obj, uint32_t part)
  26:..\..\..\arduinoLCD\test\Pain Drain\libraries\lvgl\src\core/lv_obj_style_gen.h **** {
  27:..\..\..\arduinoLCD\test\Pain Drain\libraries\lvgl\src\core/lv_obj_style_gen.h ****     lv_style_value_t v = lv_obj_get_style_prop(obj, part, LV_STYLE_MIN_HEIGHT);
  28:..\..\..\arduinoLCD\test\Pain Drain\libraries\lvgl\src\core/lv_obj_style_gen.h ****     return (lv_coord_t)v.num;
  29:..\..\..\arduinoLCD\test\Pain Drain\libraries\lvgl\src\core/lv_obj_style_gen.h **** }
  30:..\..\..\arduinoLCD\test\Pain Drain\libraries\lvgl\src\core/lv_obj_style_gen.h **** 
  31:..\..\..\arduinoLCD\test\Pain Drain\libraries\lvgl\src\core/lv_obj_style_gen.h **** static inline lv_coord_t lv_obj_get_style_max_height(const struct _lv_obj_t * obj, uint32_t part)
  32:..\..\..\arduinoLCD\test\Pain Drain\libraries\lvgl\src\core/lv_obj_style_gen.h **** {
  33:..\..\..\arduinoLCD\test\Pain Drain\libraries\lvgl\src\core/lv_obj_style_gen.h ****     lv_style_value_t v = lv_obj_get_style_prop(obj, part, LV_STYLE_MAX_HEIGHT);
  34:..\..\..\arduinoLCD\test\Pain Drain\libraries\lvgl\src\core/lv_obj_style_gen.h ****     return (lv_coord_t)v.num;
  35:..\..\..\arduinoLCD\test\Pain Drain\libraries\lvgl\src\core/lv_obj_style_gen.h **** }
  36:..\..\..\arduinoLCD\test\Pain Drain\libraries\lvgl\src\core/lv_obj_style_gen.h **** 
  37:..\..\..\arduinoLCD\test\Pain Drain\libraries\lvgl\src\core/lv_obj_style_gen.h **** static inline lv_coord_t lv_obj_get_style_x(const struct _lv_obj_t * obj, uint32_t part)
  38:..\..\..\arduinoLCD\test\Pain Drain\libraries\lvgl\src\core/lv_obj_style_gen.h **** {
  39:..\..\..\arduinoLCD\test\Pain Drain\libraries\lvgl\src\core/lv_obj_style_gen.h ****     lv_style_value_t v = lv_obj_get_style_prop(obj, part, LV_STYLE_X);
  40:..\..\..\arduinoLCD\test\Pain Drain\libraries\lvgl\src\core/lv_obj_style_gen.h ****     return (lv_coord_t)v.num;
  41:..\..\..\arduinoLCD\test\Pain Drain\libraries\lvgl\src\core/lv_obj_style_gen.h **** }
  42:..\..\..\arduinoLCD\test\Pain Drain\libraries\lvgl\src\core/lv_obj_style_gen.h **** 
  43:..\..\..\arduinoLCD\test\Pain Drain\libraries\lvgl\src\core/lv_obj_style_gen.h **** static inline lv_coord_t lv_obj_get_style_y(const struct _lv_obj_t * obj, uint32_t part)
  44:..\..\..\arduinoLCD\test\Pain Drain\libraries\lvgl\src\core/lv_obj_style_gen.h **** {
  45:..\..\..\arduinoLCD\test\Pain Drain\libraries\lvgl\src\core/lv_obj_style_gen.h ****     lv_style_value_t v = lv_obj_get_style_prop(obj, part, LV_STYLE_Y);
  46:..\..\..\arduinoLCD\test\Pain Drain\libraries\lvgl\src\core/lv_obj_style_gen.h ****     return (lv_coord_t)v.num;
  47:..\..\..\arduinoLCD\test\Pain Drain\libraries\lvgl\src\core/lv_obj_style_gen.h **** }
  48:..\..\..\arduinoLCD\test\Pain Drain\libraries\lvgl\src\core/lv_obj_style_gen.h **** 
  49:..\..\..\arduinoLCD\test\Pain Drain\libraries\lvgl\src\core/lv_obj_style_gen.h **** static inline lv_align_t lv_obj_get_style_align(const struct _lv_obj_t * obj, uint32_t part)
  50:..\..\..\arduinoLCD\test\Pain Drain\libraries\lvgl\src\core/lv_obj_style_gen.h **** {
  51:..\..\..\arduinoLCD\test\Pain Drain\libraries\lvgl\src\core/lv_obj_style_gen.h ****     lv_style_value_t v = lv_obj_get_style_prop(obj, part, LV_STYLE_ALIGN);
  52:..\..\..\arduinoLCD\test\Pain Drain\libraries\lvgl\src\core/lv_obj_style_gen.h ****     return (lv_align_t)v.num;
  53:..\..\..\arduinoLCD\test\Pain Drain\libraries\lvgl\src\core/lv_obj_style_gen.h **** }
  54:..\..\..\arduinoLCD\test\Pain Drain\libraries\lvgl\src\core/lv_obj_style_gen.h **** 
  55:..\..\..\arduinoLCD\test\Pain Drain\libraries\lvgl\src\core/lv_obj_style_gen.h **** static inline lv_coord_t lv_obj_get_style_transform_width(const struct _lv_obj_t * obj, uint32_t pa
  56:..\..\..\arduinoLCD\test\Pain Drain\libraries\lvgl\src\core/lv_obj_style_gen.h **** {
  57:..\..\..\arduinoLCD\test\Pain Drain\libraries\lvgl\src\core/lv_obj_style_gen.h ****     lv_style_value_t v = lv_obj_get_style_prop(obj, part, LV_STYLE_TRANSFORM_WIDTH);
  58:..\..\..\arduinoLCD\test\Pain Drain\libraries\lvgl\src\core/lv_obj_style_gen.h ****     return (lv_coord_t)v.num;
  59:..\..\..\arduinoLCD\test\Pain Drain\libraries\lvgl\src\core/lv_obj_style_gen.h **** }
  60:..\..\..\arduinoLCD\test\Pain Drain\libraries\lvgl\src\core/lv_obj_style_gen.h **** 
  61:..\..\..\arduinoLCD\test\Pain Drain\libraries\lvgl\src\core/lv_obj_style_gen.h **** static inline lv_coord_t lv_obj_get_style_transform_height(const struct _lv_obj_t * obj, uint32_t p
  62:..\..\..\arduinoLCD\test\Pain Drain\libraries\lvgl\src\core/lv_obj_style_gen.h **** {
  63:..\..\..\arduinoLCD\test\Pain Drain\libraries\lvgl\src\core/lv_obj_style_gen.h ****     lv_style_value_t v = lv_obj_get_style_prop(obj, part, LV_STYLE_TRANSFORM_HEIGHT);
  64:..\..\..\arduinoLCD\test\Pain Drain\libraries\lvgl\src\core/lv_obj_style_gen.h ****     return (lv_coord_t)v.num;
  65:..\..\..\arduinoLCD\test\Pain Drain\libraries\lvgl\src\core/lv_obj_style_gen.h **** }
  66:..\..\..\arduinoLCD\test\Pain Drain\libraries\lvgl\src\core/lv_obj_style_gen.h **** 
  67:..\..\..\arduinoLCD\test\Pain Drain\libraries\lvgl\src\core/lv_obj_style_gen.h **** static inline lv_coord_t lv_obj_get_style_translate_x(const struct _lv_obj_t * obj, uint32_t part)
  68:..\..\..\arduinoLCD\test\Pain Drain\libraries\lvgl\src\core/lv_obj_style_gen.h **** {
  69:..\..\..\arduinoLCD\test\Pain Drain\libraries\lvgl\src\core/lv_obj_style_gen.h ****     lv_style_value_t v = lv_obj_get_style_prop(obj, part, LV_STYLE_TRANSLATE_X);
  70:..\..\..\arduinoLCD\test\Pain Drain\libraries\lvgl\src\core/lv_obj_style_gen.h ****     return (lv_coord_t)v.num;
  71:..\..\..\arduinoLCD\test\Pain Drain\libraries\lvgl\src\core/lv_obj_style_gen.h **** }
  72:..\..\..\arduinoLCD\test\Pain Drain\libraries\lvgl\src\core/lv_obj_style_gen.h **** 
  73:..\..\..\arduinoLCD\test\Pain Drain\libraries\lvgl\src\core/lv_obj_style_gen.h **** static inline lv_coord_t lv_obj_get_style_translate_y(const struct _lv_obj_t * obj, uint32_t part)
  74:..\..\..\arduinoLCD\test\Pain Drain\libraries\lvgl\src\core/lv_obj_style_gen.h **** {
  75:..\..\..\arduinoLCD\test\Pain Drain\libraries\lvgl\src\core/lv_obj_style_gen.h ****     lv_style_value_t v = lv_obj_get_style_prop(obj, part, LV_STYLE_TRANSLATE_Y);
  76:..\..\..\arduinoLCD\test\Pain Drain\libraries\lvgl\src\core/lv_obj_style_gen.h ****     return (lv_coord_t)v.num;
  77:..\..\..\arduinoLCD\test\Pain Drain\libraries\lvgl\src\core/lv_obj_style_gen.h **** }
  78:..\..\..\arduinoLCD\test\Pain Drain\libraries\lvgl\src\core/lv_obj_style_gen.h **** 
ARM GAS  C:\Users\haske\AppData\Local\Temp\cc4f9rxb.s 			page 4


  79:..\..\..\arduinoLCD\test\Pain Drain\libraries\lvgl\src\core/lv_obj_style_gen.h **** static inline lv_coord_t lv_obj_get_style_transform_zoom(const struct _lv_obj_t * obj, uint32_t par
  80:..\..\..\arduinoLCD\test\Pain Drain\libraries\lvgl\src\core/lv_obj_style_gen.h **** {
  81:..\..\..\arduinoLCD\test\Pain Drain\libraries\lvgl\src\core/lv_obj_style_gen.h ****     lv_style_value_t v = lv_obj_get_style_prop(obj, part, LV_STYLE_TRANSFORM_ZOOM);
  82:..\..\..\arduinoLCD\test\Pain Drain\libraries\lvgl\src\core/lv_obj_style_gen.h ****     return (lv_coord_t)v.num;
  83:..\..\..\arduinoLCD\test\Pain Drain\libraries\lvgl\src\core/lv_obj_style_gen.h **** }
  84:..\..\..\arduinoLCD\test\Pain Drain\libraries\lvgl\src\core/lv_obj_style_gen.h **** 
  85:..\..\..\arduinoLCD\test\Pain Drain\libraries\lvgl\src\core/lv_obj_style_gen.h **** static inline lv_coord_t lv_obj_get_style_transform_angle(const struct _lv_obj_t * obj, uint32_t pa
  86:..\..\..\arduinoLCD\test\Pain Drain\libraries\lvgl\src\core/lv_obj_style_gen.h **** {
  87:..\..\..\arduinoLCD\test\Pain Drain\libraries\lvgl\src\core/lv_obj_style_gen.h ****     lv_style_value_t v = lv_obj_get_style_prop(obj, part, LV_STYLE_TRANSFORM_ANGLE);
  88:..\..\..\arduinoLCD\test\Pain Drain\libraries\lvgl\src\core/lv_obj_style_gen.h ****     return (lv_coord_t)v.num;
  89:..\..\..\arduinoLCD\test\Pain Drain\libraries\lvgl\src\core/lv_obj_style_gen.h **** }
  90:..\..\..\arduinoLCD\test\Pain Drain\libraries\lvgl\src\core/lv_obj_style_gen.h **** 
  91:..\..\..\arduinoLCD\test\Pain Drain\libraries\lvgl\src\core/lv_obj_style_gen.h **** static inline lv_coord_t lv_obj_get_style_transform_pivot_x(const struct _lv_obj_t * obj, uint32_t 
  92:..\..\..\arduinoLCD\test\Pain Drain\libraries\lvgl\src\core/lv_obj_style_gen.h **** {
  93:..\..\..\arduinoLCD\test\Pain Drain\libraries\lvgl\src\core/lv_obj_style_gen.h ****     lv_style_value_t v = lv_obj_get_style_prop(obj, part, LV_STYLE_TRANSFORM_PIVOT_X);
  94:..\..\..\arduinoLCD\test\Pain Drain\libraries\lvgl\src\core/lv_obj_style_gen.h ****     return (lv_coord_t)v.num;
  95:..\..\..\arduinoLCD\test\Pain Drain\libraries\lvgl\src\core/lv_obj_style_gen.h **** }
  96:..\..\..\arduinoLCD\test\Pain Drain\libraries\lvgl\src\core/lv_obj_style_gen.h **** 
  97:..\..\..\arduinoLCD\test\Pain Drain\libraries\lvgl\src\core/lv_obj_style_gen.h **** static inline lv_coord_t lv_obj_get_style_transform_pivot_y(const struct _lv_obj_t * obj, uint32_t 
  98:..\..\..\arduinoLCD\test\Pain Drain\libraries\lvgl\src\core/lv_obj_style_gen.h **** {
  99:..\..\..\arduinoLCD\test\Pain Drain\libraries\lvgl\src\core/lv_obj_style_gen.h ****     lv_style_value_t v = lv_obj_get_style_prop(obj, part, LV_STYLE_TRANSFORM_PIVOT_Y);
 100:..\..\..\arduinoLCD\test\Pain Drain\libraries\lvgl\src\core/lv_obj_style_gen.h ****     return (lv_coord_t)v.num;
 101:..\..\..\arduinoLCD\test\Pain Drain\libraries\lvgl\src\core/lv_obj_style_gen.h **** }
 102:..\..\..\arduinoLCD\test\Pain Drain\libraries\lvgl\src\core/lv_obj_style_gen.h **** 
 103:..\..\..\arduinoLCD\test\Pain Drain\libraries\lvgl\src\core/lv_obj_style_gen.h **** static inline lv_coord_t lv_obj_get_style_pad_top(const struct _lv_obj_t * obj, uint32_t part)
 104:..\..\..\arduinoLCD\test\Pain Drain\libraries\lvgl\src\core/lv_obj_style_gen.h **** {
 105:..\..\..\arduinoLCD\test\Pain Drain\libraries\lvgl\src\core/lv_obj_style_gen.h ****     lv_style_value_t v = lv_obj_get_style_prop(obj, part, LV_STYLE_PAD_TOP);
 106:..\..\..\arduinoLCD\test\Pain Drain\libraries\lvgl\src\core/lv_obj_style_gen.h ****     return (lv_coord_t)v.num;
 107:..\..\..\arduinoLCD\test\Pain Drain\libraries\lvgl\src\core/lv_obj_style_gen.h **** }
 108:..\..\..\arduinoLCD\test\Pain Drain\libraries\lvgl\src\core/lv_obj_style_gen.h **** 
 109:..\..\..\arduinoLCD\test\Pain Drain\libraries\lvgl\src\core/lv_obj_style_gen.h **** static inline lv_coord_t lv_obj_get_style_pad_bottom(const struct _lv_obj_t * obj, uint32_t part)
 110:..\..\..\arduinoLCD\test\Pain Drain\libraries\lvgl\src\core/lv_obj_style_gen.h **** {
 111:..\..\..\arduinoLCD\test\Pain Drain\libraries\lvgl\src\core/lv_obj_style_gen.h ****     lv_style_value_t v = lv_obj_get_style_prop(obj, part, LV_STYLE_PAD_BOTTOM);
 112:..\..\..\arduinoLCD\test\Pain Drain\libraries\lvgl\src\core/lv_obj_style_gen.h ****     return (lv_coord_t)v.num;
 113:..\..\..\arduinoLCD\test\Pain Drain\libraries\lvgl\src\core/lv_obj_style_gen.h **** }
 114:..\..\..\arduinoLCD\test\Pain Drain\libraries\lvgl\src\core/lv_obj_style_gen.h **** 
 115:..\..\..\arduinoLCD\test\Pain Drain\libraries\lvgl\src\core/lv_obj_style_gen.h **** static inline lv_coord_t lv_obj_get_style_pad_left(const struct _lv_obj_t * obj, uint32_t part)
 116:..\..\..\arduinoLCD\test\Pain Drain\libraries\lvgl\src\core/lv_obj_style_gen.h **** {
 117:..\..\..\arduinoLCD\test\Pain Drain\libraries\lvgl\src\core/lv_obj_style_gen.h ****     lv_style_value_t v = lv_obj_get_style_prop(obj, part, LV_STYLE_PAD_LEFT);
 118:..\..\..\arduinoLCD\test\Pain Drain\libraries\lvgl\src\core/lv_obj_style_gen.h ****     return (lv_coord_t)v.num;
 119:..\..\..\arduinoLCD\test\Pain Drain\libraries\lvgl\src\core/lv_obj_style_gen.h **** }
 120:..\..\..\arduinoLCD\test\Pain Drain\libraries\lvgl\src\core/lv_obj_style_gen.h **** 
 121:..\..\..\arduinoLCD\test\Pain Drain\libraries\lvgl\src\core/lv_obj_style_gen.h **** static inline lv_coord_t lv_obj_get_style_pad_right(const struct _lv_obj_t * obj, uint32_t part)
 122:..\..\..\arduinoLCD\test\Pain Drain\libraries\lvgl\src\core/lv_obj_style_gen.h **** {
 123:..\..\..\arduinoLCD\test\Pain Drain\libraries\lvgl\src\core/lv_obj_style_gen.h ****     lv_style_value_t v = lv_obj_get_style_prop(obj, part, LV_STYLE_PAD_RIGHT);
 124:..\..\..\arduinoLCD\test\Pain Drain\libraries\lvgl\src\core/lv_obj_style_gen.h ****     return (lv_coord_t)v.num;
 125:..\..\..\arduinoLCD\test\Pain Drain\libraries\lvgl\src\core/lv_obj_style_gen.h **** }
 126:..\..\..\arduinoLCD\test\Pain Drain\libraries\lvgl\src\core/lv_obj_style_gen.h **** 
 127:..\..\..\arduinoLCD\test\Pain Drain\libraries\lvgl\src\core/lv_obj_style_gen.h **** static inline lv_coord_t lv_obj_get_style_pad_row(const struct _lv_obj_t * obj, uint32_t part)
 128:..\..\..\arduinoLCD\test\Pain Drain\libraries\lvgl\src\core/lv_obj_style_gen.h **** {
 129:..\..\..\arduinoLCD\test\Pain Drain\libraries\lvgl\src\core/lv_obj_style_gen.h ****     lv_style_value_t v = lv_obj_get_style_prop(obj, part, LV_STYLE_PAD_ROW);
 130:..\..\..\arduinoLCD\test\Pain Drain\libraries\lvgl\src\core/lv_obj_style_gen.h ****     return (lv_coord_t)v.num;
 131:..\..\..\arduinoLCD\test\Pain Drain\libraries\lvgl\src\core/lv_obj_style_gen.h **** }
 132:..\..\..\arduinoLCD\test\Pain Drain\libraries\lvgl\src\core/lv_obj_style_gen.h **** 
 133:..\..\..\arduinoLCD\test\Pain Drain\libraries\lvgl\src\core/lv_obj_style_gen.h **** static inline lv_coord_t lv_obj_get_style_pad_column(const struct _lv_obj_t * obj, uint32_t part)
 134:..\..\..\arduinoLCD\test\Pain Drain\libraries\lvgl\src\core/lv_obj_style_gen.h **** {
 135:..\..\..\arduinoLCD\test\Pain Drain\libraries\lvgl\src\core/lv_obj_style_gen.h ****     lv_style_value_t v = lv_obj_get_style_prop(obj, part, LV_STYLE_PAD_COLUMN);
ARM GAS  C:\Users\haske\AppData\Local\Temp\cc4f9rxb.s 			page 5


 136:..\..\..\arduinoLCD\test\Pain Drain\libraries\lvgl\src\core/lv_obj_style_gen.h ****     return (lv_coord_t)v.num;
 137:..\..\..\arduinoLCD\test\Pain Drain\libraries\lvgl\src\core/lv_obj_style_gen.h **** }
 138:..\..\..\arduinoLCD\test\Pain Drain\libraries\lvgl\src\core/lv_obj_style_gen.h **** 
 139:..\..\..\arduinoLCD\test\Pain Drain\libraries\lvgl\src\core/lv_obj_style_gen.h **** static inline lv_color_t lv_obj_get_style_bg_color(const struct _lv_obj_t * obj, uint32_t part)
 140:..\..\..\arduinoLCD\test\Pain Drain\libraries\lvgl\src\core/lv_obj_style_gen.h **** {
 141:..\..\..\arduinoLCD\test\Pain Drain\libraries\lvgl\src\core/lv_obj_style_gen.h ****     lv_style_value_t v = lv_obj_get_style_prop(obj, part, LV_STYLE_BG_COLOR);
 142:..\..\..\arduinoLCD\test\Pain Drain\libraries\lvgl\src\core/lv_obj_style_gen.h ****     return v.color;
 143:..\..\..\arduinoLCD\test\Pain Drain\libraries\lvgl\src\core/lv_obj_style_gen.h **** }
 144:..\..\..\arduinoLCD\test\Pain Drain\libraries\lvgl\src\core/lv_obj_style_gen.h **** 
 145:..\..\..\arduinoLCD\test\Pain Drain\libraries\lvgl\src\core/lv_obj_style_gen.h **** static inline lv_color_t lv_obj_get_style_bg_color_filtered(const struct _lv_obj_t * obj, uint32_t 
 146:..\..\..\arduinoLCD\test\Pain Drain\libraries\lvgl\src\core/lv_obj_style_gen.h **** {
 147:..\..\..\arduinoLCD\test\Pain Drain\libraries\lvgl\src\core/lv_obj_style_gen.h ****     lv_style_value_t v = _lv_obj_style_apply_color_filter(obj, part, lv_obj_get_style_prop(obj, par
 148:..\..\..\arduinoLCD\test\Pain Drain\libraries\lvgl\src\core/lv_obj_style_gen.h ****     return v.color;
 149:..\..\..\arduinoLCD\test\Pain Drain\libraries\lvgl\src\core/lv_obj_style_gen.h **** }
 150:..\..\..\arduinoLCD\test\Pain Drain\libraries\lvgl\src\core/lv_obj_style_gen.h **** 
 151:..\..\..\arduinoLCD\test\Pain Drain\libraries\lvgl\src\core/lv_obj_style_gen.h **** static inline lv_opa_t lv_obj_get_style_bg_opa(const struct _lv_obj_t * obj, uint32_t part)
 152:..\..\..\arduinoLCD\test\Pain Drain\libraries\lvgl\src\core/lv_obj_style_gen.h **** {
 153:..\..\..\arduinoLCD\test\Pain Drain\libraries\lvgl\src\core/lv_obj_style_gen.h ****     lv_style_value_t v = lv_obj_get_style_prop(obj, part, LV_STYLE_BG_OPA);
 154:..\..\..\arduinoLCD\test\Pain Drain\libraries\lvgl\src\core/lv_obj_style_gen.h ****     return (lv_opa_t)v.num;
 155:..\..\..\arduinoLCD\test\Pain Drain\libraries\lvgl\src\core/lv_obj_style_gen.h **** }
 156:..\..\..\arduinoLCD\test\Pain Drain\libraries\lvgl\src\core/lv_obj_style_gen.h **** 
 157:..\..\..\arduinoLCD\test\Pain Drain\libraries\lvgl\src\core/lv_obj_style_gen.h **** static inline lv_color_t lv_obj_get_style_bg_grad_color(const struct _lv_obj_t * obj, uint32_t part
 158:..\..\..\arduinoLCD\test\Pain Drain\libraries\lvgl\src\core/lv_obj_style_gen.h **** {
 159:..\..\..\arduinoLCD\test\Pain Drain\libraries\lvgl\src\core/lv_obj_style_gen.h ****     lv_style_value_t v = lv_obj_get_style_prop(obj, part, LV_STYLE_BG_GRAD_COLOR);
 160:..\..\..\arduinoLCD\test\Pain Drain\libraries\lvgl\src\core/lv_obj_style_gen.h ****     return v.color;
 161:..\..\..\arduinoLCD\test\Pain Drain\libraries\lvgl\src\core/lv_obj_style_gen.h **** }
 162:..\..\..\arduinoLCD\test\Pain Drain\libraries\lvgl\src\core/lv_obj_style_gen.h **** 
 163:..\..\..\arduinoLCD\test\Pain Drain\libraries\lvgl\src\core/lv_obj_style_gen.h **** static inline lv_color_t lv_obj_get_style_bg_grad_color_filtered(const struct _lv_obj_t * obj, uint
 164:..\..\..\arduinoLCD\test\Pain Drain\libraries\lvgl\src\core/lv_obj_style_gen.h **** {
 165:..\..\..\arduinoLCD\test\Pain Drain\libraries\lvgl\src\core/lv_obj_style_gen.h ****     lv_style_value_t v = _lv_obj_style_apply_color_filter(obj, part, lv_obj_get_style_prop(obj, par
 166:..\..\..\arduinoLCD\test\Pain Drain\libraries\lvgl\src\core/lv_obj_style_gen.h ****     return v.color;
 167:..\..\..\arduinoLCD\test\Pain Drain\libraries\lvgl\src\core/lv_obj_style_gen.h **** }
 168:..\..\..\arduinoLCD\test\Pain Drain\libraries\lvgl\src\core/lv_obj_style_gen.h **** 
 169:..\..\..\arduinoLCD\test\Pain Drain\libraries\lvgl\src\core/lv_obj_style_gen.h **** static inline lv_grad_dir_t lv_obj_get_style_bg_grad_dir(const struct _lv_obj_t * obj, uint32_t par
 170:..\..\..\arduinoLCD\test\Pain Drain\libraries\lvgl\src\core/lv_obj_style_gen.h **** {
 171:..\..\..\arduinoLCD\test\Pain Drain\libraries\lvgl\src\core/lv_obj_style_gen.h ****     lv_style_value_t v = lv_obj_get_style_prop(obj, part, LV_STYLE_BG_GRAD_DIR);
 172:..\..\..\arduinoLCD\test\Pain Drain\libraries\lvgl\src\core/lv_obj_style_gen.h ****     return (lv_grad_dir_t)v.num;
 173:..\..\..\arduinoLCD\test\Pain Drain\libraries\lvgl\src\core/lv_obj_style_gen.h **** }
 174:..\..\..\arduinoLCD\test\Pain Drain\libraries\lvgl\src\core/lv_obj_style_gen.h **** 
 175:..\..\..\arduinoLCD\test\Pain Drain\libraries\lvgl\src\core/lv_obj_style_gen.h **** static inline lv_coord_t lv_obj_get_style_bg_main_stop(const struct _lv_obj_t * obj, uint32_t part)
 176:..\..\..\arduinoLCD\test\Pain Drain\libraries\lvgl\src\core/lv_obj_style_gen.h **** {
 177:..\..\..\arduinoLCD\test\Pain Drain\libraries\lvgl\src\core/lv_obj_style_gen.h ****     lv_style_value_t v = lv_obj_get_style_prop(obj, part, LV_STYLE_BG_MAIN_STOP);
 178:..\..\..\arduinoLCD\test\Pain Drain\libraries\lvgl\src\core/lv_obj_style_gen.h ****     return (lv_coord_t)v.num;
 179:..\..\..\arduinoLCD\test\Pain Drain\libraries\lvgl\src\core/lv_obj_style_gen.h **** }
 180:..\..\..\arduinoLCD\test\Pain Drain\libraries\lvgl\src\core/lv_obj_style_gen.h **** 
 181:..\..\..\arduinoLCD\test\Pain Drain\libraries\lvgl\src\core/lv_obj_style_gen.h **** static inline lv_coord_t lv_obj_get_style_bg_grad_stop(const struct _lv_obj_t * obj, uint32_t part)
 182:..\..\..\arduinoLCD\test\Pain Drain\libraries\lvgl\src\core/lv_obj_style_gen.h **** {
 183:..\..\..\arduinoLCD\test\Pain Drain\libraries\lvgl\src\core/lv_obj_style_gen.h ****     lv_style_value_t v = lv_obj_get_style_prop(obj, part, LV_STYLE_BG_GRAD_STOP);
 184:..\..\..\arduinoLCD\test\Pain Drain\libraries\lvgl\src\core/lv_obj_style_gen.h ****     return (lv_coord_t)v.num;
 185:..\..\..\arduinoLCD\test\Pain Drain\libraries\lvgl\src\core/lv_obj_style_gen.h **** }
 186:..\..\..\arduinoLCD\test\Pain Drain\libraries\lvgl\src\core/lv_obj_style_gen.h **** 
 187:..\..\..\arduinoLCD\test\Pain Drain\libraries\lvgl\src\core/lv_obj_style_gen.h **** static inline const lv_grad_dsc_t * lv_obj_get_style_bg_grad(const struct _lv_obj_t * obj, uint32_t
 188:..\..\..\arduinoLCD\test\Pain Drain\libraries\lvgl\src\core/lv_obj_style_gen.h **** {
 189:..\..\..\arduinoLCD\test\Pain Drain\libraries\lvgl\src\core/lv_obj_style_gen.h ****     lv_style_value_t v = lv_obj_get_style_prop(obj, part, LV_STYLE_BG_GRAD);
 190:..\..\..\arduinoLCD\test\Pain Drain\libraries\lvgl\src\core/lv_obj_style_gen.h ****     return (const lv_grad_dsc_t *)v.ptr;
 191:..\..\..\arduinoLCD\test\Pain Drain\libraries\lvgl\src\core/lv_obj_style_gen.h **** }
 192:..\..\..\arduinoLCD\test\Pain Drain\libraries\lvgl\src\core/lv_obj_style_gen.h **** 
ARM GAS  C:\Users\haske\AppData\Local\Temp\cc4f9rxb.s 			page 6


 193:..\..\..\arduinoLCD\test\Pain Drain\libraries\lvgl\src\core/lv_obj_style_gen.h **** static inline lv_dither_mode_t lv_obj_get_style_bg_dither_mode(const struct _lv_obj_t * obj, uint32
 194:..\..\..\arduinoLCD\test\Pain Drain\libraries\lvgl\src\core/lv_obj_style_gen.h **** {
 195:..\..\..\arduinoLCD\test\Pain Drain\libraries\lvgl\src\core/lv_obj_style_gen.h ****     lv_style_value_t v = lv_obj_get_style_prop(obj, part, LV_STYLE_BG_DITHER_MODE);
 196:..\..\..\arduinoLCD\test\Pain Drain\libraries\lvgl\src\core/lv_obj_style_gen.h ****     return (lv_dither_mode_t)v.num;
 197:..\..\..\arduinoLCD\test\Pain Drain\libraries\lvgl\src\core/lv_obj_style_gen.h **** }
 198:..\..\..\arduinoLCD\test\Pain Drain\libraries\lvgl\src\core/lv_obj_style_gen.h **** 
 199:..\..\..\arduinoLCD\test\Pain Drain\libraries\lvgl\src\core/lv_obj_style_gen.h **** static inline const void * lv_obj_get_style_bg_img_src(const struct _lv_obj_t * obj, uint32_t part)
 200:..\..\..\arduinoLCD\test\Pain Drain\libraries\lvgl\src\core/lv_obj_style_gen.h **** {
 201:..\..\..\arduinoLCD\test\Pain Drain\libraries\lvgl\src\core/lv_obj_style_gen.h ****     lv_style_value_t v = lv_obj_get_style_prop(obj, part, LV_STYLE_BG_IMG_SRC);
 202:..\..\..\arduinoLCD\test\Pain Drain\libraries\lvgl\src\core/lv_obj_style_gen.h ****     return (const void *)v.ptr;
 203:..\..\..\arduinoLCD\test\Pain Drain\libraries\lvgl\src\core/lv_obj_style_gen.h **** }
 204:..\..\..\arduinoLCD\test\Pain Drain\libraries\lvgl\src\core/lv_obj_style_gen.h **** 
 205:..\..\..\arduinoLCD\test\Pain Drain\libraries\lvgl\src\core/lv_obj_style_gen.h **** static inline lv_opa_t lv_obj_get_style_bg_img_opa(const struct _lv_obj_t * obj, uint32_t part)
 206:..\..\..\arduinoLCD\test\Pain Drain\libraries\lvgl\src\core/lv_obj_style_gen.h **** {
 207:..\..\..\arduinoLCD\test\Pain Drain\libraries\lvgl\src\core/lv_obj_style_gen.h ****     lv_style_value_t v = lv_obj_get_style_prop(obj, part, LV_STYLE_BG_IMG_OPA);
 208:..\..\..\arduinoLCD\test\Pain Drain\libraries\lvgl\src\core/lv_obj_style_gen.h ****     return (lv_opa_t)v.num;
 209:..\..\..\arduinoLCD\test\Pain Drain\libraries\lvgl\src\core/lv_obj_style_gen.h **** }
 210:..\..\..\arduinoLCD\test\Pain Drain\libraries\lvgl\src\core/lv_obj_style_gen.h **** 
 211:..\..\..\arduinoLCD\test\Pain Drain\libraries\lvgl\src\core/lv_obj_style_gen.h **** static inline lv_color_t lv_obj_get_style_bg_img_recolor(const struct _lv_obj_t * obj, uint32_t par
 212:..\..\..\arduinoLCD\test\Pain Drain\libraries\lvgl\src\core/lv_obj_style_gen.h **** {
 213:..\..\..\arduinoLCD\test\Pain Drain\libraries\lvgl\src\core/lv_obj_style_gen.h ****     lv_style_value_t v = lv_obj_get_style_prop(obj, part, LV_STYLE_BG_IMG_RECOLOR);
 214:..\..\..\arduinoLCD\test\Pain Drain\libraries\lvgl\src\core/lv_obj_style_gen.h ****     return v.color;
 215:..\..\..\arduinoLCD\test\Pain Drain\libraries\lvgl\src\core/lv_obj_style_gen.h **** }
 216:..\..\..\arduinoLCD\test\Pain Drain\libraries\lvgl\src\core/lv_obj_style_gen.h **** 
 217:..\..\..\arduinoLCD\test\Pain Drain\libraries\lvgl\src\core/lv_obj_style_gen.h **** static inline lv_color_t lv_obj_get_style_bg_img_recolor_filtered(const struct _lv_obj_t * obj, uin
 218:..\..\..\arduinoLCD\test\Pain Drain\libraries\lvgl\src\core/lv_obj_style_gen.h **** {
 219:..\..\..\arduinoLCD\test\Pain Drain\libraries\lvgl\src\core/lv_obj_style_gen.h ****     lv_style_value_t v = _lv_obj_style_apply_color_filter(obj, part, lv_obj_get_style_prop(obj, par
 220:..\..\..\arduinoLCD\test\Pain Drain\libraries\lvgl\src\core/lv_obj_style_gen.h ****     return v.color;
 221:..\..\..\arduinoLCD\test\Pain Drain\libraries\lvgl\src\core/lv_obj_style_gen.h **** }
 222:..\..\..\arduinoLCD\test\Pain Drain\libraries\lvgl\src\core/lv_obj_style_gen.h **** 
 223:..\..\..\arduinoLCD\test\Pain Drain\libraries\lvgl\src\core/lv_obj_style_gen.h **** static inline lv_opa_t lv_obj_get_style_bg_img_recolor_opa(const struct _lv_obj_t * obj, uint32_t p
 224:..\..\..\arduinoLCD\test\Pain Drain\libraries\lvgl\src\core/lv_obj_style_gen.h **** {
 225:..\..\..\arduinoLCD\test\Pain Drain\libraries\lvgl\src\core/lv_obj_style_gen.h ****     lv_style_value_t v = lv_obj_get_style_prop(obj, part, LV_STYLE_BG_IMG_RECOLOR_OPA);
 226:..\..\..\arduinoLCD\test\Pain Drain\libraries\lvgl\src\core/lv_obj_style_gen.h ****     return (lv_opa_t)v.num;
 227:..\..\..\arduinoLCD\test\Pain Drain\libraries\lvgl\src\core/lv_obj_style_gen.h **** }
 228:..\..\..\arduinoLCD\test\Pain Drain\libraries\lvgl\src\core/lv_obj_style_gen.h **** 
 229:..\..\..\arduinoLCD\test\Pain Drain\libraries\lvgl\src\core/lv_obj_style_gen.h **** static inline bool lv_obj_get_style_bg_img_tiled(const struct _lv_obj_t * obj, uint32_t part)
 230:..\..\..\arduinoLCD\test\Pain Drain\libraries\lvgl\src\core/lv_obj_style_gen.h **** {
 231:..\..\..\arduinoLCD\test\Pain Drain\libraries\lvgl\src\core/lv_obj_style_gen.h ****     lv_style_value_t v = lv_obj_get_style_prop(obj, part, LV_STYLE_BG_IMG_TILED);
 232:..\..\..\arduinoLCD\test\Pain Drain\libraries\lvgl\src\core/lv_obj_style_gen.h ****     return (bool)v.num;
 233:..\..\..\arduinoLCD\test\Pain Drain\libraries\lvgl\src\core/lv_obj_style_gen.h **** }
 234:..\..\..\arduinoLCD\test\Pain Drain\libraries\lvgl\src\core/lv_obj_style_gen.h **** 
 235:..\..\..\arduinoLCD\test\Pain Drain\libraries\lvgl\src\core/lv_obj_style_gen.h **** static inline lv_color_t lv_obj_get_style_border_color(const struct _lv_obj_t * obj, uint32_t part)
 236:..\..\..\arduinoLCD\test\Pain Drain\libraries\lvgl\src\core/lv_obj_style_gen.h **** {
 237:..\..\..\arduinoLCD\test\Pain Drain\libraries\lvgl\src\core/lv_obj_style_gen.h ****     lv_style_value_t v = lv_obj_get_style_prop(obj, part, LV_STYLE_BORDER_COLOR);
 238:..\..\..\arduinoLCD\test\Pain Drain\libraries\lvgl\src\core/lv_obj_style_gen.h ****     return v.color;
 239:..\..\..\arduinoLCD\test\Pain Drain\libraries\lvgl\src\core/lv_obj_style_gen.h **** }
 240:..\..\..\arduinoLCD\test\Pain Drain\libraries\lvgl\src\core/lv_obj_style_gen.h **** 
 241:..\..\..\arduinoLCD\test\Pain Drain\libraries\lvgl\src\core/lv_obj_style_gen.h **** static inline lv_color_t lv_obj_get_style_border_color_filtered(const struct _lv_obj_t * obj, uint3
 242:..\..\..\arduinoLCD\test\Pain Drain\libraries\lvgl\src\core/lv_obj_style_gen.h **** {
 243:..\..\..\arduinoLCD\test\Pain Drain\libraries\lvgl\src\core/lv_obj_style_gen.h ****     lv_style_value_t v = _lv_obj_style_apply_color_filter(obj, part, lv_obj_get_style_prop(obj, par
 244:..\..\..\arduinoLCD\test\Pain Drain\libraries\lvgl\src\core/lv_obj_style_gen.h ****     return v.color;
 245:..\..\..\arduinoLCD\test\Pain Drain\libraries\lvgl\src\core/lv_obj_style_gen.h **** }
 246:..\..\..\arduinoLCD\test\Pain Drain\libraries\lvgl\src\core/lv_obj_style_gen.h **** 
 247:..\..\..\arduinoLCD\test\Pain Drain\libraries\lvgl\src\core/lv_obj_style_gen.h **** static inline lv_opa_t lv_obj_get_style_border_opa(const struct _lv_obj_t * obj, uint32_t part)
 248:..\..\..\arduinoLCD\test\Pain Drain\libraries\lvgl\src\core/lv_obj_style_gen.h **** {
 249:..\..\..\arduinoLCD\test\Pain Drain\libraries\lvgl\src\core/lv_obj_style_gen.h ****     lv_style_value_t v = lv_obj_get_style_prop(obj, part, LV_STYLE_BORDER_OPA);
ARM GAS  C:\Users\haske\AppData\Local\Temp\cc4f9rxb.s 			page 7


 250:..\..\..\arduinoLCD\test\Pain Drain\libraries\lvgl\src\core/lv_obj_style_gen.h ****     return (lv_opa_t)v.num;
 251:..\..\..\arduinoLCD\test\Pain Drain\libraries\lvgl\src\core/lv_obj_style_gen.h **** }
 252:..\..\..\arduinoLCD\test\Pain Drain\libraries\lvgl\src\core/lv_obj_style_gen.h **** 
 253:..\..\..\arduinoLCD\test\Pain Drain\libraries\lvgl\src\core/lv_obj_style_gen.h **** static inline lv_coord_t lv_obj_get_style_border_width(const struct _lv_obj_t * obj, uint32_t part)
 254:..\..\..\arduinoLCD\test\Pain Drain\libraries\lvgl\src\core/lv_obj_style_gen.h **** {
 255:..\..\..\arduinoLCD\test\Pain Drain\libraries\lvgl\src\core/lv_obj_style_gen.h ****     lv_style_value_t v = lv_obj_get_style_prop(obj, part, LV_STYLE_BORDER_WIDTH);
 256:..\..\..\arduinoLCD\test\Pain Drain\libraries\lvgl\src\core/lv_obj_style_gen.h ****     return (lv_coord_t)v.num;
 257:..\..\..\arduinoLCD\test\Pain Drain\libraries\lvgl\src\core/lv_obj_style_gen.h **** }
 258:..\..\..\arduinoLCD\test\Pain Drain\libraries\lvgl\src\core/lv_obj_style_gen.h **** 
 259:..\..\..\arduinoLCD\test\Pain Drain\libraries\lvgl\src\core/lv_obj_style_gen.h **** static inline lv_border_side_t lv_obj_get_style_border_side(const struct _lv_obj_t * obj, uint32_t 
 260:..\..\..\arduinoLCD\test\Pain Drain\libraries\lvgl\src\core/lv_obj_style_gen.h **** {
 261:..\..\..\arduinoLCD\test\Pain Drain\libraries\lvgl\src\core/lv_obj_style_gen.h ****     lv_style_value_t v = lv_obj_get_style_prop(obj, part, LV_STYLE_BORDER_SIDE);
 262:..\..\..\arduinoLCD\test\Pain Drain\libraries\lvgl\src\core/lv_obj_style_gen.h ****     return (lv_border_side_t)v.num;
 263:..\..\..\arduinoLCD\test\Pain Drain\libraries\lvgl\src\core/lv_obj_style_gen.h **** }
 264:..\..\..\arduinoLCD\test\Pain Drain\libraries\lvgl\src\core/lv_obj_style_gen.h **** 
 265:..\..\..\arduinoLCD\test\Pain Drain\libraries\lvgl\src\core/lv_obj_style_gen.h **** static inline bool lv_obj_get_style_border_post(const struct _lv_obj_t * obj, uint32_t part)
 266:..\..\..\arduinoLCD\test\Pain Drain\libraries\lvgl\src\core/lv_obj_style_gen.h **** {
 267:..\..\..\arduinoLCD\test\Pain Drain\libraries\lvgl\src\core/lv_obj_style_gen.h ****     lv_style_value_t v = lv_obj_get_style_prop(obj, part, LV_STYLE_BORDER_POST);
 268:..\..\..\arduinoLCD\test\Pain Drain\libraries\lvgl\src\core/lv_obj_style_gen.h ****     return (bool)v.num;
 269:..\..\..\arduinoLCD\test\Pain Drain\libraries\lvgl\src\core/lv_obj_style_gen.h **** }
 270:..\..\..\arduinoLCD\test\Pain Drain\libraries\lvgl\src\core/lv_obj_style_gen.h **** 
 271:..\..\..\arduinoLCD\test\Pain Drain\libraries\lvgl\src\core/lv_obj_style_gen.h **** static inline lv_coord_t lv_obj_get_style_outline_width(const struct _lv_obj_t * obj, uint32_t part
 272:..\..\..\arduinoLCD\test\Pain Drain\libraries\lvgl\src\core/lv_obj_style_gen.h **** {
 273:..\..\..\arduinoLCD\test\Pain Drain\libraries\lvgl\src\core/lv_obj_style_gen.h ****     lv_style_value_t v = lv_obj_get_style_prop(obj, part, LV_STYLE_OUTLINE_WIDTH);
 274:..\..\..\arduinoLCD\test\Pain Drain\libraries\lvgl\src\core/lv_obj_style_gen.h ****     return (lv_coord_t)v.num;
 275:..\..\..\arduinoLCD\test\Pain Drain\libraries\lvgl\src\core/lv_obj_style_gen.h **** }
 276:..\..\..\arduinoLCD\test\Pain Drain\libraries\lvgl\src\core/lv_obj_style_gen.h **** 
 277:..\..\..\arduinoLCD\test\Pain Drain\libraries\lvgl\src\core/lv_obj_style_gen.h **** static inline lv_color_t lv_obj_get_style_outline_color(const struct _lv_obj_t * obj, uint32_t part
 278:..\..\..\arduinoLCD\test\Pain Drain\libraries\lvgl\src\core/lv_obj_style_gen.h **** {
 279:..\..\..\arduinoLCD\test\Pain Drain\libraries\lvgl\src\core/lv_obj_style_gen.h ****     lv_style_value_t v = lv_obj_get_style_prop(obj, part, LV_STYLE_OUTLINE_COLOR);
 280:..\..\..\arduinoLCD\test\Pain Drain\libraries\lvgl\src\core/lv_obj_style_gen.h ****     return v.color;
 281:..\..\..\arduinoLCD\test\Pain Drain\libraries\lvgl\src\core/lv_obj_style_gen.h **** }
 282:..\..\..\arduinoLCD\test\Pain Drain\libraries\lvgl\src\core/lv_obj_style_gen.h **** 
 283:..\..\..\arduinoLCD\test\Pain Drain\libraries\lvgl\src\core/lv_obj_style_gen.h **** static inline lv_color_t lv_obj_get_style_outline_color_filtered(const struct _lv_obj_t * obj, uint
 284:..\..\..\arduinoLCD\test\Pain Drain\libraries\lvgl\src\core/lv_obj_style_gen.h **** {
 285:..\..\..\arduinoLCD\test\Pain Drain\libraries\lvgl\src\core/lv_obj_style_gen.h ****     lv_style_value_t v = _lv_obj_style_apply_color_filter(obj, part, lv_obj_get_style_prop(obj, par
 286:..\..\..\arduinoLCD\test\Pain Drain\libraries\lvgl\src\core/lv_obj_style_gen.h ****     return v.color;
 287:..\..\..\arduinoLCD\test\Pain Drain\libraries\lvgl\src\core/lv_obj_style_gen.h **** }
 288:..\..\..\arduinoLCD\test\Pain Drain\libraries\lvgl\src\core/lv_obj_style_gen.h **** 
 289:..\..\..\arduinoLCD\test\Pain Drain\libraries\lvgl\src\core/lv_obj_style_gen.h **** static inline lv_opa_t lv_obj_get_style_outline_opa(const struct _lv_obj_t * obj, uint32_t part)
 290:..\..\..\arduinoLCD\test\Pain Drain\libraries\lvgl\src\core/lv_obj_style_gen.h **** {
 291:..\..\..\arduinoLCD\test\Pain Drain\libraries\lvgl\src\core/lv_obj_style_gen.h ****     lv_style_value_t v = lv_obj_get_style_prop(obj, part, LV_STYLE_OUTLINE_OPA);
 292:..\..\..\arduinoLCD\test\Pain Drain\libraries\lvgl\src\core/lv_obj_style_gen.h ****     return (lv_opa_t)v.num;
 293:..\..\..\arduinoLCD\test\Pain Drain\libraries\lvgl\src\core/lv_obj_style_gen.h **** }
 294:..\..\..\arduinoLCD\test\Pain Drain\libraries\lvgl\src\core/lv_obj_style_gen.h **** 
 295:..\..\..\arduinoLCD\test\Pain Drain\libraries\lvgl\src\core/lv_obj_style_gen.h **** static inline lv_coord_t lv_obj_get_style_outline_pad(const struct _lv_obj_t * obj, uint32_t part)
 296:..\..\..\arduinoLCD\test\Pain Drain\libraries\lvgl\src\core/lv_obj_style_gen.h **** {
 297:..\..\..\arduinoLCD\test\Pain Drain\libraries\lvgl\src\core/lv_obj_style_gen.h ****     lv_style_value_t v = lv_obj_get_style_prop(obj, part, LV_STYLE_OUTLINE_PAD);
 298:..\..\..\arduinoLCD\test\Pain Drain\libraries\lvgl\src\core/lv_obj_style_gen.h ****     return (lv_coord_t)v.num;
 299:..\..\..\arduinoLCD\test\Pain Drain\libraries\lvgl\src\core/lv_obj_style_gen.h **** }
 300:..\..\..\arduinoLCD\test\Pain Drain\libraries\lvgl\src\core/lv_obj_style_gen.h **** 
 301:..\..\..\arduinoLCD\test\Pain Drain\libraries\lvgl\src\core/lv_obj_style_gen.h **** static inline lv_coord_t lv_obj_get_style_shadow_width(const struct _lv_obj_t * obj, uint32_t part)
 302:..\..\..\arduinoLCD\test\Pain Drain\libraries\lvgl\src\core/lv_obj_style_gen.h **** {
 303:..\..\..\arduinoLCD\test\Pain Drain\libraries\lvgl\src\core/lv_obj_style_gen.h ****     lv_style_value_t v = lv_obj_get_style_prop(obj, part, LV_STYLE_SHADOW_WIDTH);
 304:..\..\..\arduinoLCD\test\Pain Drain\libraries\lvgl\src\core/lv_obj_style_gen.h ****     return (lv_coord_t)v.num;
 305:..\..\..\arduinoLCD\test\Pain Drain\libraries\lvgl\src\core/lv_obj_style_gen.h **** }
 306:..\..\..\arduinoLCD\test\Pain Drain\libraries\lvgl\src\core/lv_obj_style_gen.h **** 
ARM GAS  C:\Users\haske\AppData\Local\Temp\cc4f9rxb.s 			page 8


 307:..\..\..\arduinoLCD\test\Pain Drain\libraries\lvgl\src\core/lv_obj_style_gen.h **** static inline lv_coord_t lv_obj_get_style_shadow_ofs_x(const struct _lv_obj_t * obj, uint32_t part)
 308:..\..\..\arduinoLCD\test\Pain Drain\libraries\lvgl\src\core/lv_obj_style_gen.h **** {
 309:..\..\..\arduinoLCD\test\Pain Drain\libraries\lvgl\src\core/lv_obj_style_gen.h ****     lv_style_value_t v = lv_obj_get_style_prop(obj, part, LV_STYLE_SHADOW_OFS_X);
 310:..\..\..\arduinoLCD\test\Pain Drain\libraries\lvgl\src\core/lv_obj_style_gen.h ****     return (lv_coord_t)v.num;
 311:..\..\..\arduinoLCD\test\Pain Drain\libraries\lvgl\src\core/lv_obj_style_gen.h **** }
 312:..\..\..\arduinoLCD\test\Pain Drain\libraries\lvgl\src\core/lv_obj_style_gen.h **** 
 313:..\..\..\arduinoLCD\test\Pain Drain\libraries\lvgl\src\core/lv_obj_style_gen.h **** static inline lv_coord_t lv_obj_get_style_shadow_ofs_y(const struct _lv_obj_t * obj, uint32_t part)
 314:..\..\..\arduinoLCD\test\Pain Drain\libraries\lvgl\src\core/lv_obj_style_gen.h **** {
 315:..\..\..\arduinoLCD\test\Pain Drain\libraries\lvgl\src\core/lv_obj_style_gen.h ****     lv_style_value_t v = lv_obj_get_style_prop(obj, part, LV_STYLE_SHADOW_OFS_Y);
 316:..\..\..\arduinoLCD\test\Pain Drain\libraries\lvgl\src\core/lv_obj_style_gen.h ****     return (lv_coord_t)v.num;
 317:..\..\..\arduinoLCD\test\Pain Drain\libraries\lvgl\src\core/lv_obj_style_gen.h **** }
 318:..\..\..\arduinoLCD\test\Pain Drain\libraries\lvgl\src\core/lv_obj_style_gen.h **** 
 319:..\..\..\arduinoLCD\test\Pain Drain\libraries\lvgl\src\core/lv_obj_style_gen.h **** static inline lv_coord_t lv_obj_get_style_shadow_spread(const struct _lv_obj_t * obj, uint32_t part
 320:..\..\..\arduinoLCD\test\Pain Drain\libraries\lvgl\src\core/lv_obj_style_gen.h **** {
 321:..\..\..\arduinoLCD\test\Pain Drain\libraries\lvgl\src\core/lv_obj_style_gen.h ****     lv_style_value_t v = lv_obj_get_style_prop(obj, part, LV_STYLE_SHADOW_SPREAD);
 322:..\..\..\arduinoLCD\test\Pain Drain\libraries\lvgl\src\core/lv_obj_style_gen.h ****     return (lv_coord_t)v.num;
 323:..\..\..\arduinoLCD\test\Pain Drain\libraries\lvgl\src\core/lv_obj_style_gen.h **** }
 324:..\..\..\arduinoLCD\test\Pain Drain\libraries\lvgl\src\core/lv_obj_style_gen.h **** 
 325:..\..\..\arduinoLCD\test\Pain Drain\libraries\lvgl\src\core/lv_obj_style_gen.h **** static inline lv_color_t lv_obj_get_style_shadow_color(const struct _lv_obj_t * obj, uint32_t part)
 326:..\..\..\arduinoLCD\test\Pain Drain\libraries\lvgl\src\core/lv_obj_style_gen.h **** {
 327:..\..\..\arduinoLCD\test\Pain Drain\libraries\lvgl\src\core/lv_obj_style_gen.h ****     lv_style_value_t v = lv_obj_get_style_prop(obj, part, LV_STYLE_SHADOW_COLOR);
 328:..\..\..\arduinoLCD\test\Pain Drain\libraries\lvgl\src\core/lv_obj_style_gen.h ****     return v.color;
 329:..\..\..\arduinoLCD\test\Pain Drain\libraries\lvgl\src\core/lv_obj_style_gen.h **** }
 330:..\..\..\arduinoLCD\test\Pain Drain\libraries\lvgl\src\core/lv_obj_style_gen.h **** 
 331:..\..\..\arduinoLCD\test\Pain Drain\libraries\lvgl\src\core/lv_obj_style_gen.h **** static inline lv_color_t lv_obj_get_style_shadow_color_filtered(const struct _lv_obj_t * obj, uint3
 332:..\..\..\arduinoLCD\test\Pain Drain\libraries\lvgl\src\core/lv_obj_style_gen.h **** {
 333:..\..\..\arduinoLCD\test\Pain Drain\libraries\lvgl\src\core/lv_obj_style_gen.h ****     lv_style_value_t v = _lv_obj_style_apply_color_filter(obj, part, lv_obj_get_style_prop(obj, par
 334:..\..\..\arduinoLCD\test\Pain Drain\libraries\lvgl\src\core/lv_obj_style_gen.h ****     return v.color;
 335:..\..\..\arduinoLCD\test\Pain Drain\libraries\lvgl\src\core/lv_obj_style_gen.h **** }
 336:..\..\..\arduinoLCD\test\Pain Drain\libraries\lvgl\src\core/lv_obj_style_gen.h **** 
 337:..\..\..\arduinoLCD\test\Pain Drain\libraries\lvgl\src\core/lv_obj_style_gen.h **** static inline lv_opa_t lv_obj_get_style_shadow_opa(const struct _lv_obj_t * obj, uint32_t part)
 338:..\..\..\arduinoLCD\test\Pain Drain\libraries\lvgl\src\core/lv_obj_style_gen.h **** {
 339:..\..\..\arduinoLCD\test\Pain Drain\libraries\lvgl\src\core/lv_obj_style_gen.h ****     lv_style_value_t v = lv_obj_get_style_prop(obj, part, LV_STYLE_SHADOW_OPA);
 340:..\..\..\arduinoLCD\test\Pain Drain\libraries\lvgl\src\core/lv_obj_style_gen.h ****     return (lv_opa_t)v.num;
 341:..\..\..\arduinoLCD\test\Pain Drain\libraries\lvgl\src\core/lv_obj_style_gen.h **** }
 342:..\..\..\arduinoLCD\test\Pain Drain\libraries\lvgl\src\core/lv_obj_style_gen.h **** 
 343:..\..\..\arduinoLCD\test\Pain Drain\libraries\lvgl\src\core/lv_obj_style_gen.h **** static inline lv_opa_t lv_obj_get_style_img_opa(const struct _lv_obj_t * obj, uint32_t part)
 344:..\..\..\arduinoLCD\test\Pain Drain\libraries\lvgl\src\core/lv_obj_style_gen.h **** {
 345:..\..\..\arduinoLCD\test\Pain Drain\libraries\lvgl\src\core/lv_obj_style_gen.h ****     lv_style_value_t v = lv_obj_get_style_prop(obj, part, LV_STYLE_IMG_OPA);
 346:..\..\..\arduinoLCD\test\Pain Drain\libraries\lvgl\src\core/lv_obj_style_gen.h ****     return (lv_opa_t)v.num;
 347:..\..\..\arduinoLCD\test\Pain Drain\libraries\lvgl\src\core/lv_obj_style_gen.h **** }
 348:..\..\..\arduinoLCD\test\Pain Drain\libraries\lvgl\src\core/lv_obj_style_gen.h **** 
 349:..\..\..\arduinoLCD\test\Pain Drain\libraries\lvgl\src\core/lv_obj_style_gen.h **** static inline lv_color_t lv_obj_get_style_img_recolor(const struct _lv_obj_t * obj, uint32_t part)
 350:..\..\..\arduinoLCD\test\Pain Drain\libraries\lvgl\src\core/lv_obj_style_gen.h **** {
 351:..\..\..\arduinoLCD\test\Pain Drain\libraries\lvgl\src\core/lv_obj_style_gen.h ****     lv_style_value_t v = lv_obj_get_style_prop(obj, part, LV_STYLE_IMG_RECOLOR);
 352:..\..\..\arduinoLCD\test\Pain Drain\libraries\lvgl\src\core/lv_obj_style_gen.h ****     return v.color;
 353:..\..\..\arduinoLCD\test\Pain Drain\libraries\lvgl\src\core/lv_obj_style_gen.h **** }
 354:..\..\..\arduinoLCD\test\Pain Drain\libraries\lvgl\src\core/lv_obj_style_gen.h **** 
 355:..\..\..\arduinoLCD\test\Pain Drain\libraries\lvgl\src\core/lv_obj_style_gen.h **** static inline lv_color_t lv_obj_get_style_img_recolor_filtered(const struct _lv_obj_t * obj, uint32
 356:..\..\..\arduinoLCD\test\Pain Drain\libraries\lvgl\src\core/lv_obj_style_gen.h **** {
 357:..\..\..\arduinoLCD\test\Pain Drain\libraries\lvgl\src\core/lv_obj_style_gen.h ****     lv_style_value_t v = _lv_obj_style_apply_color_filter(obj, part, lv_obj_get_style_prop(obj, par
 358:..\..\..\arduinoLCD\test\Pain Drain\libraries\lvgl\src\core/lv_obj_style_gen.h ****     return v.color;
 359:..\..\..\arduinoLCD\test\Pain Drain\libraries\lvgl\src\core/lv_obj_style_gen.h **** }
 360:..\..\..\arduinoLCD\test\Pain Drain\libraries\lvgl\src\core/lv_obj_style_gen.h **** 
 361:..\..\..\arduinoLCD\test\Pain Drain\libraries\lvgl\src\core/lv_obj_style_gen.h **** static inline lv_opa_t lv_obj_get_style_img_recolor_opa(const struct _lv_obj_t * obj, uint32_t part
 362:..\..\..\arduinoLCD\test\Pain Drain\libraries\lvgl\src\core/lv_obj_style_gen.h **** {
 363:..\..\..\arduinoLCD\test\Pain Drain\libraries\lvgl\src\core/lv_obj_style_gen.h ****     lv_style_value_t v = lv_obj_get_style_prop(obj, part, LV_STYLE_IMG_RECOLOR_OPA);
ARM GAS  C:\Users\haske\AppData\Local\Temp\cc4f9rxb.s 			page 9


 364:..\..\..\arduinoLCD\test\Pain Drain\libraries\lvgl\src\core/lv_obj_style_gen.h ****     return (lv_opa_t)v.num;
 365:..\..\..\arduinoLCD\test\Pain Drain\libraries\lvgl\src\core/lv_obj_style_gen.h **** }
 366:..\..\..\arduinoLCD\test\Pain Drain\libraries\lvgl\src\core/lv_obj_style_gen.h **** 
 367:..\..\..\arduinoLCD\test\Pain Drain\libraries\lvgl\src\core/lv_obj_style_gen.h **** static inline lv_coord_t lv_obj_get_style_line_width(const struct _lv_obj_t * obj, uint32_t part)
 368:..\..\..\arduinoLCD\test\Pain Drain\libraries\lvgl\src\core/lv_obj_style_gen.h **** {
 369:..\..\..\arduinoLCD\test\Pain Drain\libraries\lvgl\src\core/lv_obj_style_gen.h ****     lv_style_value_t v = lv_obj_get_style_prop(obj, part, LV_STYLE_LINE_WIDTH);
 370:..\..\..\arduinoLCD\test\Pain Drain\libraries\lvgl\src\core/lv_obj_style_gen.h ****     return (lv_coord_t)v.num;
 371:..\..\..\arduinoLCD\test\Pain Drain\libraries\lvgl\src\core/lv_obj_style_gen.h **** }
 372:..\..\..\arduinoLCD\test\Pain Drain\libraries\lvgl\src\core/lv_obj_style_gen.h **** 
 373:..\..\..\arduinoLCD\test\Pain Drain\libraries\lvgl\src\core/lv_obj_style_gen.h **** static inline lv_coord_t lv_obj_get_style_line_dash_width(const struct _lv_obj_t * obj, uint32_t pa
 374:..\..\..\arduinoLCD\test\Pain Drain\libraries\lvgl\src\core/lv_obj_style_gen.h **** {
 375:..\..\..\arduinoLCD\test\Pain Drain\libraries\lvgl\src\core/lv_obj_style_gen.h ****     lv_style_value_t v = lv_obj_get_style_prop(obj, part, LV_STYLE_LINE_DASH_WIDTH);
 376:..\..\..\arduinoLCD\test\Pain Drain\libraries\lvgl\src\core/lv_obj_style_gen.h ****     return (lv_coord_t)v.num;
 377:..\..\..\arduinoLCD\test\Pain Drain\libraries\lvgl\src\core/lv_obj_style_gen.h **** }
 378:..\..\..\arduinoLCD\test\Pain Drain\libraries\lvgl\src\core/lv_obj_style_gen.h **** 
 379:..\..\..\arduinoLCD\test\Pain Drain\libraries\lvgl\src\core/lv_obj_style_gen.h **** static inline lv_coord_t lv_obj_get_style_line_dash_gap(const struct _lv_obj_t * obj, uint32_t part
 380:..\..\..\arduinoLCD\test\Pain Drain\libraries\lvgl\src\core/lv_obj_style_gen.h **** {
 381:..\..\..\arduinoLCD\test\Pain Drain\libraries\lvgl\src\core/lv_obj_style_gen.h ****     lv_style_value_t v = lv_obj_get_style_prop(obj, part, LV_STYLE_LINE_DASH_GAP);
 382:..\..\..\arduinoLCD\test\Pain Drain\libraries\lvgl\src\core/lv_obj_style_gen.h ****     return (lv_coord_t)v.num;
 383:..\..\..\arduinoLCD\test\Pain Drain\libraries\lvgl\src\core/lv_obj_style_gen.h **** }
 384:..\..\..\arduinoLCD\test\Pain Drain\libraries\lvgl\src\core/lv_obj_style_gen.h **** 
 385:..\..\..\arduinoLCD\test\Pain Drain\libraries\lvgl\src\core/lv_obj_style_gen.h **** static inline bool lv_obj_get_style_line_rounded(const struct _lv_obj_t * obj, uint32_t part)
 386:..\..\..\arduinoLCD\test\Pain Drain\libraries\lvgl\src\core/lv_obj_style_gen.h **** {
 387:..\..\..\arduinoLCD\test\Pain Drain\libraries\lvgl\src\core/lv_obj_style_gen.h ****     lv_style_value_t v = lv_obj_get_style_prop(obj, part, LV_STYLE_LINE_ROUNDED);
 388:..\..\..\arduinoLCD\test\Pain Drain\libraries\lvgl\src\core/lv_obj_style_gen.h ****     return (bool)v.num;
 389:..\..\..\arduinoLCD\test\Pain Drain\libraries\lvgl\src\core/lv_obj_style_gen.h **** }
 390:..\..\..\arduinoLCD\test\Pain Drain\libraries\lvgl\src\core/lv_obj_style_gen.h **** 
 391:..\..\..\arduinoLCD\test\Pain Drain\libraries\lvgl\src\core/lv_obj_style_gen.h **** static inline lv_color_t lv_obj_get_style_line_color(const struct _lv_obj_t * obj, uint32_t part)
 392:..\..\..\arduinoLCD\test\Pain Drain\libraries\lvgl\src\core/lv_obj_style_gen.h **** {
 393:..\..\..\arduinoLCD\test\Pain Drain\libraries\lvgl\src\core/lv_obj_style_gen.h ****     lv_style_value_t v = lv_obj_get_style_prop(obj, part, LV_STYLE_LINE_COLOR);
 394:..\..\..\arduinoLCD\test\Pain Drain\libraries\lvgl\src\core/lv_obj_style_gen.h ****     return v.color;
 395:..\..\..\arduinoLCD\test\Pain Drain\libraries\lvgl\src\core/lv_obj_style_gen.h **** }
 396:..\..\..\arduinoLCD\test\Pain Drain\libraries\lvgl\src\core/lv_obj_style_gen.h **** 
 397:..\..\..\arduinoLCD\test\Pain Drain\libraries\lvgl\src\core/lv_obj_style_gen.h **** static inline lv_color_t lv_obj_get_style_line_color_filtered(const struct _lv_obj_t * obj, uint32_
 398:..\..\..\arduinoLCD\test\Pain Drain\libraries\lvgl\src\core/lv_obj_style_gen.h **** {
 399:..\..\..\arduinoLCD\test\Pain Drain\libraries\lvgl\src\core/lv_obj_style_gen.h ****     lv_style_value_t v = _lv_obj_style_apply_color_filter(obj, part, lv_obj_get_style_prop(obj, par
 400:..\..\..\arduinoLCD\test\Pain Drain\libraries\lvgl\src\core/lv_obj_style_gen.h ****     return v.color;
 401:..\..\..\arduinoLCD\test\Pain Drain\libraries\lvgl\src\core/lv_obj_style_gen.h **** }
 402:..\..\..\arduinoLCD\test\Pain Drain\libraries\lvgl\src\core/lv_obj_style_gen.h **** 
 403:..\..\..\arduinoLCD\test\Pain Drain\libraries\lvgl\src\core/lv_obj_style_gen.h **** static inline lv_opa_t lv_obj_get_style_line_opa(const struct _lv_obj_t * obj, uint32_t part)
 404:..\..\..\arduinoLCD\test\Pain Drain\libraries\lvgl\src\core/lv_obj_style_gen.h **** {
 405:..\..\..\arduinoLCD\test\Pain Drain\libraries\lvgl\src\core/lv_obj_style_gen.h ****     lv_style_value_t v = lv_obj_get_style_prop(obj, part, LV_STYLE_LINE_OPA);
 406:..\..\..\arduinoLCD\test\Pain Drain\libraries\lvgl\src\core/lv_obj_style_gen.h ****     return (lv_opa_t)v.num;
 407:..\..\..\arduinoLCD\test\Pain Drain\libraries\lvgl\src\core/lv_obj_style_gen.h **** }
 408:..\..\..\arduinoLCD\test\Pain Drain\libraries\lvgl\src\core/lv_obj_style_gen.h **** 
 409:..\..\..\arduinoLCD\test\Pain Drain\libraries\lvgl\src\core/lv_obj_style_gen.h **** static inline lv_coord_t lv_obj_get_style_arc_width(const struct _lv_obj_t * obj, uint32_t part)
 410:..\..\..\arduinoLCD\test\Pain Drain\libraries\lvgl\src\core/lv_obj_style_gen.h **** {
 411:..\..\..\arduinoLCD\test\Pain Drain\libraries\lvgl\src\core/lv_obj_style_gen.h ****     lv_style_value_t v = lv_obj_get_style_prop(obj, part, LV_STYLE_ARC_WIDTH);
 412:..\..\..\arduinoLCD\test\Pain Drain\libraries\lvgl\src\core/lv_obj_style_gen.h ****     return (lv_coord_t)v.num;
 413:..\..\..\arduinoLCD\test\Pain Drain\libraries\lvgl\src\core/lv_obj_style_gen.h **** }
 414:..\..\..\arduinoLCD\test\Pain Drain\libraries\lvgl\src\core/lv_obj_style_gen.h **** 
 415:..\..\..\arduinoLCD\test\Pain Drain\libraries\lvgl\src\core/lv_obj_style_gen.h **** static inline bool lv_obj_get_style_arc_rounded(const struct _lv_obj_t * obj, uint32_t part)
 416:..\..\..\arduinoLCD\test\Pain Drain\libraries\lvgl\src\core/lv_obj_style_gen.h **** {
 417:..\..\..\arduinoLCD\test\Pain Drain\libraries\lvgl\src\core/lv_obj_style_gen.h ****     lv_style_value_t v = lv_obj_get_style_prop(obj, part, LV_STYLE_ARC_ROUNDED);
 418:..\..\..\arduinoLCD\test\Pain Drain\libraries\lvgl\src\core/lv_obj_style_gen.h ****     return (bool)v.num;
 419:..\..\..\arduinoLCD\test\Pain Drain\libraries\lvgl\src\core/lv_obj_style_gen.h **** }
 420:..\..\..\arduinoLCD\test\Pain Drain\libraries\lvgl\src\core/lv_obj_style_gen.h **** 
ARM GAS  C:\Users\haske\AppData\Local\Temp\cc4f9rxb.s 			page 10


 421:..\..\..\arduinoLCD\test\Pain Drain\libraries\lvgl\src\core/lv_obj_style_gen.h **** static inline lv_color_t lv_obj_get_style_arc_color(const struct _lv_obj_t * obj, uint32_t part)
 422:..\..\..\arduinoLCD\test\Pain Drain\libraries\lvgl\src\core/lv_obj_style_gen.h **** {
 423:..\..\..\arduinoLCD\test\Pain Drain\libraries\lvgl\src\core/lv_obj_style_gen.h ****     lv_style_value_t v = lv_obj_get_style_prop(obj, part, LV_STYLE_ARC_COLOR);
 424:..\..\..\arduinoLCD\test\Pain Drain\libraries\lvgl\src\core/lv_obj_style_gen.h ****     return v.color;
 425:..\..\..\arduinoLCD\test\Pain Drain\libraries\lvgl\src\core/lv_obj_style_gen.h **** }
 426:..\..\..\arduinoLCD\test\Pain Drain\libraries\lvgl\src\core/lv_obj_style_gen.h **** 
 427:..\..\..\arduinoLCD\test\Pain Drain\libraries\lvgl\src\core/lv_obj_style_gen.h **** static inline lv_color_t lv_obj_get_style_arc_color_filtered(const struct _lv_obj_t * obj, uint32_t
 428:..\..\..\arduinoLCD\test\Pain Drain\libraries\lvgl\src\core/lv_obj_style_gen.h **** {
 429:..\..\..\arduinoLCD\test\Pain Drain\libraries\lvgl\src\core/lv_obj_style_gen.h ****     lv_style_value_t v = _lv_obj_style_apply_color_filter(obj, part, lv_obj_get_style_prop(obj, par
 430:..\..\..\arduinoLCD\test\Pain Drain\libraries\lvgl\src\core/lv_obj_style_gen.h ****     return v.color;
 431:..\..\..\arduinoLCD\test\Pain Drain\libraries\lvgl\src\core/lv_obj_style_gen.h **** }
 432:..\..\..\arduinoLCD\test\Pain Drain\libraries\lvgl\src\core/lv_obj_style_gen.h **** 
 433:..\..\..\arduinoLCD\test\Pain Drain\libraries\lvgl\src\core/lv_obj_style_gen.h **** static inline lv_opa_t lv_obj_get_style_arc_opa(const struct _lv_obj_t * obj, uint32_t part)
 434:..\..\..\arduinoLCD\test\Pain Drain\libraries\lvgl\src\core/lv_obj_style_gen.h **** {
 435:..\..\..\arduinoLCD\test\Pain Drain\libraries\lvgl\src\core/lv_obj_style_gen.h ****     lv_style_value_t v = lv_obj_get_style_prop(obj, part, LV_STYLE_ARC_OPA);
 436:..\..\..\arduinoLCD\test\Pain Drain\libraries\lvgl\src\core/lv_obj_style_gen.h ****     return (lv_opa_t)v.num;
 437:..\..\..\arduinoLCD\test\Pain Drain\libraries\lvgl\src\core/lv_obj_style_gen.h **** }
 438:..\..\..\arduinoLCD\test\Pain Drain\libraries\lvgl\src\core/lv_obj_style_gen.h **** 
 439:..\..\..\arduinoLCD\test\Pain Drain\libraries\lvgl\src\core/lv_obj_style_gen.h **** static inline const void * lv_obj_get_style_arc_img_src(const struct _lv_obj_t * obj, uint32_t part
 440:..\..\..\arduinoLCD\test\Pain Drain\libraries\lvgl\src\core/lv_obj_style_gen.h **** {
 441:..\..\..\arduinoLCD\test\Pain Drain\libraries\lvgl\src\core/lv_obj_style_gen.h ****     lv_style_value_t v = lv_obj_get_style_prop(obj, part, LV_STYLE_ARC_IMG_SRC);
 442:..\..\..\arduinoLCD\test\Pain Drain\libraries\lvgl\src\core/lv_obj_style_gen.h ****     return (const void *)v.ptr;
 443:..\..\..\arduinoLCD\test\Pain Drain\libraries\lvgl\src\core/lv_obj_style_gen.h **** }
 444:..\..\..\arduinoLCD\test\Pain Drain\libraries\lvgl\src\core/lv_obj_style_gen.h **** 
 445:..\..\..\arduinoLCD\test\Pain Drain\libraries\lvgl\src\core/lv_obj_style_gen.h **** static inline lv_color_t lv_obj_get_style_text_color(const struct _lv_obj_t * obj, uint32_t part)
 446:..\..\..\arduinoLCD\test\Pain Drain\libraries\lvgl\src\core/lv_obj_style_gen.h **** {
 447:..\..\..\arduinoLCD\test\Pain Drain\libraries\lvgl\src\core/lv_obj_style_gen.h ****     lv_style_value_t v = lv_obj_get_style_prop(obj, part, LV_STYLE_TEXT_COLOR);
 448:..\..\..\arduinoLCD\test\Pain Drain\libraries\lvgl\src\core/lv_obj_style_gen.h ****     return v.color;
 449:..\..\..\arduinoLCD\test\Pain Drain\libraries\lvgl\src\core/lv_obj_style_gen.h **** }
 450:..\..\..\arduinoLCD\test\Pain Drain\libraries\lvgl\src\core/lv_obj_style_gen.h **** 
 451:..\..\..\arduinoLCD\test\Pain Drain\libraries\lvgl\src\core/lv_obj_style_gen.h **** static inline lv_color_t lv_obj_get_style_text_color_filtered(const struct _lv_obj_t * obj, uint32_
 452:..\..\..\arduinoLCD\test\Pain Drain\libraries\lvgl\src\core/lv_obj_style_gen.h **** {
 453:..\..\..\arduinoLCD\test\Pain Drain\libraries\lvgl\src\core/lv_obj_style_gen.h ****     lv_style_value_t v = _lv_obj_style_apply_color_filter(obj, part, lv_obj_get_style_prop(obj, par
 454:..\..\..\arduinoLCD\test\Pain Drain\libraries\lvgl\src\core/lv_obj_style_gen.h ****     return v.color;
 455:..\..\..\arduinoLCD\test\Pain Drain\libraries\lvgl\src\core/lv_obj_style_gen.h **** }
 456:..\..\..\arduinoLCD\test\Pain Drain\libraries\lvgl\src\core/lv_obj_style_gen.h **** 
 457:..\..\..\arduinoLCD\test\Pain Drain\libraries\lvgl\src\core/lv_obj_style_gen.h **** static inline lv_opa_t lv_obj_get_style_text_opa(const struct _lv_obj_t * obj, uint32_t part)
 458:..\..\..\arduinoLCD\test\Pain Drain\libraries\lvgl\src\core/lv_obj_style_gen.h **** {
 459:..\..\..\arduinoLCD\test\Pain Drain\libraries\lvgl\src\core/lv_obj_style_gen.h ****     lv_style_value_t v = lv_obj_get_style_prop(obj, part, LV_STYLE_TEXT_OPA);
 460:..\..\..\arduinoLCD\test\Pain Drain\libraries\lvgl\src\core/lv_obj_style_gen.h ****     return (lv_opa_t)v.num;
 461:..\..\..\arduinoLCD\test\Pain Drain\libraries\lvgl\src\core/lv_obj_style_gen.h **** }
 462:..\..\..\arduinoLCD\test\Pain Drain\libraries\lvgl\src\core/lv_obj_style_gen.h **** 
 463:..\..\..\arduinoLCD\test\Pain Drain\libraries\lvgl\src\core/lv_obj_style_gen.h **** static inline const lv_font_t * lv_obj_get_style_text_font(const struct _lv_obj_t * obj, uint32_t p
 464:..\..\..\arduinoLCD\test\Pain Drain\libraries\lvgl\src\core/lv_obj_style_gen.h **** {
 465:..\..\..\arduinoLCD\test\Pain Drain\libraries\lvgl\src\core/lv_obj_style_gen.h ****     lv_style_value_t v = lv_obj_get_style_prop(obj, part, LV_STYLE_TEXT_FONT);
 466:..\..\..\arduinoLCD\test\Pain Drain\libraries\lvgl\src\core/lv_obj_style_gen.h ****     return (const lv_font_t *)v.ptr;
 467:..\..\..\arduinoLCD\test\Pain Drain\libraries\lvgl\src\core/lv_obj_style_gen.h **** }
 468:..\..\..\arduinoLCD\test\Pain Drain\libraries\lvgl\src\core/lv_obj_style_gen.h **** 
 469:..\..\..\arduinoLCD\test\Pain Drain\libraries\lvgl\src\core/lv_obj_style_gen.h **** static inline lv_coord_t lv_obj_get_style_text_letter_space(const struct _lv_obj_t * obj, uint32_t 
 470:..\..\..\arduinoLCD\test\Pain Drain\libraries\lvgl\src\core/lv_obj_style_gen.h **** {
 471:..\..\..\arduinoLCD\test\Pain Drain\libraries\lvgl\src\core/lv_obj_style_gen.h ****     lv_style_value_t v = lv_obj_get_style_prop(obj, part, LV_STYLE_TEXT_LETTER_SPACE);
 472:..\..\..\arduinoLCD\test\Pain Drain\libraries\lvgl\src\core/lv_obj_style_gen.h ****     return (lv_coord_t)v.num;
 473:..\..\..\arduinoLCD\test\Pain Drain\libraries\lvgl\src\core/lv_obj_style_gen.h **** }
 474:..\..\..\arduinoLCD\test\Pain Drain\libraries\lvgl\src\core/lv_obj_style_gen.h **** 
 475:..\..\..\arduinoLCD\test\Pain Drain\libraries\lvgl\src\core/lv_obj_style_gen.h **** static inline lv_coord_t lv_obj_get_style_text_line_space(const struct _lv_obj_t * obj, uint32_t pa
 476:..\..\..\arduinoLCD\test\Pain Drain\libraries\lvgl\src\core/lv_obj_style_gen.h **** {
 477:..\..\..\arduinoLCD\test\Pain Drain\libraries\lvgl\src\core/lv_obj_style_gen.h ****     lv_style_value_t v = lv_obj_get_style_prop(obj, part, LV_STYLE_TEXT_LINE_SPACE);
ARM GAS  C:\Users\haske\AppData\Local\Temp\cc4f9rxb.s 			page 11


 478:..\..\..\arduinoLCD\test\Pain Drain\libraries\lvgl\src\core/lv_obj_style_gen.h ****     return (lv_coord_t)v.num;
 479:..\..\..\arduinoLCD\test\Pain Drain\libraries\lvgl\src\core/lv_obj_style_gen.h **** }
 480:..\..\..\arduinoLCD\test\Pain Drain\libraries\lvgl\src\core/lv_obj_style_gen.h **** 
 481:..\..\..\arduinoLCD\test\Pain Drain\libraries\lvgl\src\core/lv_obj_style_gen.h **** static inline lv_text_decor_t lv_obj_get_style_text_decor(const struct _lv_obj_t * obj, uint32_t pa
 482:..\..\..\arduinoLCD\test\Pain Drain\libraries\lvgl\src\core/lv_obj_style_gen.h **** {
 483:..\..\..\arduinoLCD\test\Pain Drain\libraries\lvgl\src\core/lv_obj_style_gen.h ****     lv_style_value_t v = lv_obj_get_style_prop(obj, part, LV_STYLE_TEXT_DECOR);
 484:..\..\..\arduinoLCD\test\Pain Drain\libraries\lvgl\src\core/lv_obj_style_gen.h ****     return (lv_text_decor_t)v.num;
 485:..\..\..\arduinoLCD\test\Pain Drain\libraries\lvgl\src\core/lv_obj_style_gen.h **** }
 486:..\..\..\arduinoLCD\test\Pain Drain\libraries\lvgl\src\core/lv_obj_style_gen.h **** 
 487:..\..\..\arduinoLCD\test\Pain Drain\libraries\lvgl\src\core/lv_obj_style_gen.h **** static inline lv_text_align_t lv_obj_get_style_text_align(const struct _lv_obj_t * obj, uint32_t pa
 488:..\..\..\arduinoLCD\test\Pain Drain\libraries\lvgl\src\core/lv_obj_style_gen.h **** {
 489:..\..\..\arduinoLCD\test\Pain Drain\libraries\lvgl\src\core/lv_obj_style_gen.h ****     lv_style_value_t v = lv_obj_get_style_prop(obj, part, LV_STYLE_TEXT_ALIGN);
 490:..\..\..\arduinoLCD\test\Pain Drain\libraries\lvgl\src\core/lv_obj_style_gen.h ****     return (lv_text_align_t)v.num;
 491:..\..\..\arduinoLCD\test\Pain Drain\libraries\lvgl\src\core/lv_obj_style_gen.h **** }
 492:..\..\..\arduinoLCD\test\Pain Drain\libraries\lvgl\src\core/lv_obj_style_gen.h **** 
 493:..\..\..\arduinoLCD\test\Pain Drain\libraries\lvgl\src\core/lv_obj_style_gen.h **** static inline lv_coord_t lv_obj_get_style_radius(const struct _lv_obj_t * obj, uint32_t part)
 494:..\..\..\arduinoLCD\test\Pain Drain\libraries\lvgl\src\core/lv_obj_style_gen.h **** {
 495:..\..\..\arduinoLCD\test\Pain Drain\libraries\lvgl\src\core/lv_obj_style_gen.h ****     lv_style_value_t v = lv_obj_get_style_prop(obj, part, LV_STYLE_RADIUS);
 496:..\..\..\arduinoLCD\test\Pain Drain\libraries\lvgl\src\core/lv_obj_style_gen.h ****     return (lv_coord_t)v.num;
 497:..\..\..\arduinoLCD\test\Pain Drain\libraries\lvgl\src\core/lv_obj_style_gen.h **** }
 498:..\..\..\arduinoLCD\test\Pain Drain\libraries\lvgl\src\core/lv_obj_style_gen.h **** 
 499:..\..\..\arduinoLCD\test\Pain Drain\libraries\lvgl\src\core/lv_obj_style_gen.h **** static inline bool lv_obj_get_style_clip_corner(const struct _lv_obj_t * obj, uint32_t part)
 500:..\..\..\arduinoLCD\test\Pain Drain\libraries\lvgl\src\core/lv_obj_style_gen.h **** {
 501:..\..\..\arduinoLCD\test\Pain Drain\libraries\lvgl\src\core/lv_obj_style_gen.h ****     lv_style_value_t v = lv_obj_get_style_prop(obj, part, LV_STYLE_CLIP_CORNER);
 502:..\..\..\arduinoLCD\test\Pain Drain\libraries\lvgl\src\core/lv_obj_style_gen.h ****     return (bool)v.num;
 503:..\..\..\arduinoLCD\test\Pain Drain\libraries\lvgl\src\core/lv_obj_style_gen.h **** }
 504:..\..\..\arduinoLCD\test\Pain Drain\libraries\lvgl\src\core/lv_obj_style_gen.h **** 
 505:..\..\..\arduinoLCD\test\Pain Drain\libraries\lvgl\src\core/lv_obj_style_gen.h **** static inline lv_opa_t lv_obj_get_style_opa(const struct _lv_obj_t * obj, uint32_t part)
 506:..\..\..\arduinoLCD\test\Pain Drain\libraries\lvgl\src\core/lv_obj_style_gen.h **** {
 507:..\..\..\arduinoLCD\test\Pain Drain\libraries\lvgl\src\core/lv_obj_style_gen.h ****     lv_style_value_t v = lv_obj_get_style_prop(obj, part, LV_STYLE_OPA);
  52              		.loc 2 507 0
  53 000c 6022     		movs	r2, #96
  54              	.LVL3:
  55 000e FFF7FEFF 		bl	lv_obj_get_style_prop
  56              	.LVL4:
 508:..\..\..\arduinoLCD\test\Pain Drain\libraries\lvgl\src\core/lv_obj_style_gen.h ****     return (lv_opa_t)v.num;
  57              		.loc 2 508 0
  58 0012 C7B2     		uxtb	r7, r0
  59              	.LVL5:
  60              	.LBE203:
  61              	.LBE202:
  43:..\..\..\arduinoLCD\test\Pain Drain\libraries\lvgl\src\core/lv_obj_draw.c ****         opa = lv_obj_get_style_opa(obj, part);
  44:..\..\..\arduinoLCD\test\Pain Drain\libraries\lvgl\src\core/lv_obj_draw.c ****         if(opa <= LV_OPA_MIN) {
  62              		.loc 1 44 0
  63 0014 022F     		cmp	r7, #2
  64 0016 0AD8     		bhi	.L2
  45:..\..\..\arduinoLCD\test\Pain Drain\libraries\lvgl\src\core/lv_obj_draw.c ****             draw_dsc->bg_opa = LV_OPA_TRANSP;
  65              		.loc 1 45 0
  66 0018 0023     		movs	r3, #0
  67 001a E370     		strb	r3, [r4, #3]
  46:..\..\..\arduinoLCD\test\Pain Drain\libraries\lvgl\src\core/lv_obj_draw.c ****             draw_dsc->bg_img_opa = LV_OPA_TRANSP;
  68              		.loc 1 46 0
  69 001c A376     		strb	r3, [r4, #26]
  47:..\..\..\arduinoLCD\test\Pain Drain\libraries\lvgl\src\core/lv_obj_draw.c ****             draw_dsc->border_opa = LV_OPA_TRANSP;
  70              		.loc 1 47 0
  71 001e 2222     		movs	r2, #34
  72 0020 A354     		strb	r3, [r4, r2]
ARM GAS  C:\Users\haske\AppData\Local\Temp\cc4f9rxb.s 			page 12


  48:..\..\..\arduinoLCD\test\Pain Drain\libraries\lvgl\src\core/lv_obj_draw.c ****             draw_dsc->outline_opa = LV_OPA_TRANSP;
  73              		.loc 1 48 0
  74 0022 0832     		adds	r2, r2, #8
  75 0024 A354     		strb	r3, [r4, r2]
  49:..\..\..\arduinoLCD\test\Pain Drain\libraries\lvgl\src\core/lv_obj_draw.c ****             draw_dsc->shadow_opa = LV_OPA_TRANSP;
  76              		.loc 1 49 0
  77 0026 0C32     		adds	r2, r2, #12
  78 0028 A354     		strb	r3, [r4, r2]
  50:..\..\..\arduinoLCD\test\Pain Drain\libraries\lvgl\src\core/lv_obj_draw.c ****             return;
  79              		.loc 1 50 0
  80 002a 57E1     		b	.L1
  81              	.LVL6:
  82              	.L13:
  41:..\..\..\arduinoLCD\test\Pain Drain\libraries\lvgl\src\core/lv_obj_draw.c ****     if(part != LV_PART_MAIN) {
  83              		.loc 1 41 0
  84 002c FF27     		movs	r7, #255
  85              	.LVL7:
  86              	.L2:
  51:..\..\..\arduinoLCD\test\Pain Drain\libraries\lvgl\src\core/lv_obj_draw.c ****         }
  52:..\..\..\arduinoLCD\test\Pain Drain\libraries\lvgl\src\core/lv_obj_draw.c ****     }
  53:..\..\..\arduinoLCD\test\Pain Drain\libraries\lvgl\src\core/lv_obj_draw.c **** 
  54:..\..\..\arduinoLCD\test\Pain Drain\libraries\lvgl\src\core/lv_obj_draw.c **** #if LV_DRAW_COMPLEX
  55:..\..\..\arduinoLCD\test\Pain Drain\libraries\lvgl\src\core/lv_obj_draw.c ****     if(part != LV_PART_MAIN) draw_dsc->blend_mode = lv_obj_get_style_blend_mode(obj, part);
  87              		.loc 1 55 0
  88 002e 002D     		cmp	r5, #0
  89 0030 05D0     		beq	.L4
  90              	.LVL8:
  91              	.LBB204:
  92              	.LBB205:
 509:..\..\..\arduinoLCD\test\Pain Drain\libraries\lvgl\src\core/lv_obj_style_gen.h **** }
 510:..\..\..\arduinoLCD\test\Pain Drain\libraries\lvgl\src\core/lv_obj_style_gen.h **** 
 511:..\..\..\arduinoLCD\test\Pain Drain\libraries\lvgl\src\core/lv_obj_style_gen.h **** static inline const lv_color_filter_dsc_t * lv_obj_get_style_color_filter_dsc(const struct _lv_obj_
 512:..\..\..\arduinoLCD\test\Pain Drain\libraries\lvgl\src\core/lv_obj_style_gen.h **** {
 513:..\..\..\arduinoLCD\test\Pain Drain\libraries\lvgl\src\core/lv_obj_style_gen.h ****     lv_style_value_t v = lv_obj_get_style_prop(obj, part, LV_STYLE_COLOR_FILTER_DSC);
 514:..\..\..\arduinoLCD\test\Pain Drain\libraries\lvgl\src\core/lv_obj_style_gen.h ****     return (const lv_color_filter_dsc_t *)v.ptr;
 515:..\..\..\arduinoLCD\test\Pain Drain\libraries\lvgl\src\core/lv_obj_style_gen.h **** }
 516:..\..\..\arduinoLCD\test\Pain Drain\libraries\lvgl\src\core/lv_obj_style_gen.h **** 
 517:..\..\..\arduinoLCD\test\Pain Drain\libraries\lvgl\src\core/lv_obj_style_gen.h **** static inline lv_opa_t lv_obj_get_style_color_filter_opa(const struct _lv_obj_t * obj, uint32_t par
 518:..\..\..\arduinoLCD\test\Pain Drain\libraries\lvgl\src\core/lv_obj_style_gen.h **** {
 519:..\..\..\arduinoLCD\test\Pain Drain\libraries\lvgl\src\core/lv_obj_style_gen.h ****     lv_style_value_t v = lv_obj_get_style_prop(obj, part, LV_STYLE_COLOR_FILTER_OPA);
 520:..\..\..\arduinoLCD\test\Pain Drain\libraries\lvgl\src\core/lv_obj_style_gen.h ****     return (lv_opa_t)v.num;
 521:..\..\..\arduinoLCD\test\Pain Drain\libraries\lvgl\src\core/lv_obj_style_gen.h **** }
 522:..\..\..\arduinoLCD\test\Pain Drain\libraries\lvgl\src\core/lv_obj_style_gen.h **** 
 523:..\..\..\arduinoLCD\test\Pain Drain\libraries\lvgl\src\core/lv_obj_style_gen.h **** static inline const lv_anim_t * lv_obj_get_style_anim(const struct _lv_obj_t * obj, uint32_t part)
 524:..\..\..\arduinoLCD\test\Pain Drain\libraries\lvgl\src\core/lv_obj_style_gen.h **** {
 525:..\..\..\arduinoLCD\test\Pain Drain\libraries\lvgl\src\core/lv_obj_style_gen.h ****     lv_style_value_t v = lv_obj_get_style_prop(obj, part, LV_STYLE_ANIM);
 526:..\..\..\arduinoLCD\test\Pain Drain\libraries\lvgl\src\core/lv_obj_style_gen.h ****     return (const lv_anim_t *)v.ptr;
 527:..\..\..\arduinoLCD\test\Pain Drain\libraries\lvgl\src\core/lv_obj_style_gen.h **** }
 528:..\..\..\arduinoLCD\test\Pain Drain\libraries\lvgl\src\core/lv_obj_style_gen.h **** 
 529:..\..\..\arduinoLCD\test\Pain Drain\libraries\lvgl\src\core/lv_obj_style_gen.h **** static inline uint32_t lv_obj_get_style_anim_time(const struct _lv_obj_t * obj, uint32_t part)
 530:..\..\..\arduinoLCD\test\Pain Drain\libraries\lvgl\src\core/lv_obj_style_gen.h **** {
 531:..\..\..\arduinoLCD\test\Pain Drain\libraries\lvgl\src\core/lv_obj_style_gen.h ****     lv_style_value_t v = lv_obj_get_style_prop(obj, part, LV_STYLE_ANIM_TIME);
 532:..\..\..\arduinoLCD\test\Pain Drain\libraries\lvgl\src\core/lv_obj_style_gen.h ****     return (uint32_t)v.num;
 533:..\..\..\arduinoLCD\test\Pain Drain\libraries\lvgl\src\core/lv_obj_style_gen.h **** }
 534:..\..\..\arduinoLCD\test\Pain Drain\libraries\lvgl\src\core/lv_obj_style_gen.h **** 
 535:..\..\..\arduinoLCD\test\Pain Drain\libraries\lvgl\src\core/lv_obj_style_gen.h **** static inline uint32_t lv_obj_get_style_anim_speed(const struct _lv_obj_t * obj, uint32_t part)
 536:..\..\..\arduinoLCD\test\Pain Drain\libraries\lvgl\src\core/lv_obj_style_gen.h **** {
ARM GAS  C:\Users\haske\AppData\Local\Temp\cc4f9rxb.s 			page 13


 537:..\..\..\arduinoLCD\test\Pain Drain\libraries\lvgl\src\core/lv_obj_style_gen.h ****     lv_style_value_t v = lv_obj_get_style_prop(obj, part, LV_STYLE_ANIM_SPEED);
 538:..\..\..\arduinoLCD\test\Pain Drain\libraries\lvgl\src\core/lv_obj_style_gen.h ****     return (uint32_t)v.num;
 539:..\..\..\arduinoLCD\test\Pain Drain\libraries\lvgl\src\core/lv_obj_style_gen.h **** }
 540:..\..\..\arduinoLCD\test\Pain Drain\libraries\lvgl\src\core/lv_obj_style_gen.h **** 
 541:..\..\..\arduinoLCD\test\Pain Drain\libraries\lvgl\src\core/lv_obj_style_gen.h **** static inline const lv_style_transition_dsc_t * lv_obj_get_style_transition(const struct _lv_obj_t 
 542:..\..\..\arduinoLCD\test\Pain Drain\libraries\lvgl\src\core/lv_obj_style_gen.h **** {
 543:..\..\..\arduinoLCD\test\Pain Drain\libraries\lvgl\src\core/lv_obj_style_gen.h ****     lv_style_value_t v = lv_obj_get_style_prop(obj, part, LV_STYLE_TRANSITION);
 544:..\..\..\arduinoLCD\test\Pain Drain\libraries\lvgl\src\core/lv_obj_style_gen.h ****     return (const lv_style_transition_dsc_t *)v.ptr;
 545:..\..\..\arduinoLCD\test\Pain Drain\libraries\lvgl\src\core/lv_obj_style_gen.h **** }
 546:..\..\..\arduinoLCD\test\Pain Drain\libraries\lvgl\src\core/lv_obj_style_gen.h **** 
 547:..\..\..\arduinoLCD\test\Pain Drain\libraries\lvgl\src\core/lv_obj_style_gen.h **** static inline lv_blend_mode_t lv_obj_get_style_blend_mode(const struct _lv_obj_t * obj, uint32_t pa
 548:..\..\..\arduinoLCD\test\Pain Drain\libraries\lvgl\src\core/lv_obj_style_gen.h **** {
 549:..\..\..\arduinoLCD\test\Pain Drain\libraries\lvgl\src\core/lv_obj_style_gen.h ****     lv_style_value_t v = lv_obj_get_style_prop(obj, part, LV_STYLE_BLEND_MODE);
  93              		.loc 2 549 0
  94 0032 6722     		movs	r2, #103
  95 0034 2900     		movs	r1, r5
  96 0036 3000     		movs	r0, r6
  97 0038 FFF7FEFF 		bl	lv_obj_get_style_prop
  98              	.LVL9:
  99              	.LBE205:
 100              	.LBE204:
 101              		.loc 1 55 0
 102 003c A070     		strb	r0, [r4, #2]
 103              	.L4:
 104              	.LVL10:
 105              	.LBB206:
 106              	.LBB207:
 495:..\..\..\arduinoLCD\test\Pain Drain\libraries\lvgl\src\core/lv_obj_style_gen.h ****     return (lv_coord_t)v.num;
 107              		.loc 2 495 0
 108 003e 0B22     		movs	r2, #11
 109 0040 2900     		movs	r1, r5
 110 0042 3000     		movs	r0, r6
 111 0044 FFF7FEFF 		bl	lv_obj_get_style_prop
 112              	.LVL11:
 113              	.LBE207:
 114              	.LBE206:
  56:..\..\..\arduinoLCD\test\Pain Drain\libraries\lvgl\src\core/lv_obj_draw.c **** 
  57:..\..\..\arduinoLCD\test\Pain Drain\libraries\lvgl\src\core/lv_obj_draw.c ****     draw_dsc->radius = lv_obj_get_style_radius(obj, part);
 115              		.loc 1 57 0
 116 0048 2080     		strh	r0, [r4]
  58:..\..\..\arduinoLCD\test\Pain Drain\libraries\lvgl\src\core/lv_obj_draw.c **** 
  59:..\..\..\arduinoLCD\test\Pain Drain\libraries\lvgl\src\core/lv_obj_draw.c ****     if(draw_dsc->bg_opa != LV_OPA_TRANSP) {
 117              		.loc 1 59 0
 118 004a E378     		ldrb	r3, [r4, #3]
 119 004c 002B     		cmp	r3, #0
 120 004e 61D0     		beq	.L5
 121              	.LVL12:
 122              	.LBB208:
 123              	.LBB209:
 153:..\..\..\arduinoLCD\test\Pain Drain\libraries\lvgl\src\core/lv_obj_style_gen.h ****     return (lv_opa_t)v.num;
 124              		.loc 2 153 0
 125 0050 2122     		movs	r2, #33
 126 0052 2900     		movs	r1, r5
 127 0054 3000     		movs	r0, r6
 128 0056 FFF7FEFF 		bl	lv_obj_get_style_prop
 129              	.LVL13:
 154:..\..\..\arduinoLCD\test\Pain Drain\libraries\lvgl\src\core/lv_obj_style_gen.h **** }
ARM GAS  C:\Users\haske\AppData\Local\Temp\cc4f9rxb.s 			page 14


 130              		.loc 2 154 0
 131 005a C0B2     		uxtb	r0, r0
 132              	.LVL14:
 133              	.LBE209:
 134              	.LBE208:
  60:..\..\..\arduinoLCD\test\Pain Drain\libraries\lvgl\src\core/lv_obj_draw.c ****         draw_dsc->bg_opa = lv_obj_get_style_bg_opa(obj, part);
 135              		.loc 1 60 0
 136 005c E070     		strb	r0, [r4, #3]
  61:..\..\..\arduinoLCD\test\Pain Drain\libraries\lvgl\src\core/lv_obj_draw.c ****         if(draw_dsc->bg_opa > LV_OPA_MIN) {
 137              		.loc 1 61 0
 138 005e 0228     		cmp	r0, #2
 139 0060 58D9     		bls	.L5
 140              	.LVL15:
 141              	.LBB210:
 142              	.LBB211:
 143              	.LBB212:
 147:..\..\..\arduinoLCD\test\Pain Drain\libraries\lvgl\src\core/lv_obj_style_gen.h ****     return v.color;
 144              		.loc 2 147 0
 145 0062 2022     		movs	r2, #32
 146 0064 2900     		movs	r1, r5
 147 0066 3000     		movs	r0, r6
 148 0068 FFF7FEFF 		bl	lv_obj_get_style_prop
 149              	.LVL16:
 150 006c 0200     		movs	r2, r0
 151 006e 2900     		movs	r1, r5
 152 0070 3000     		movs	r0, r6
 153 0072 FFF7FEFF 		bl	_lv_obj_style_apply_color_filter
 154              	.LVL17:
 155              	.LBE212:
 156              	.LBE211:
  62:..\..\..\arduinoLCD\test\Pain Drain\libraries\lvgl\src\core/lv_obj_draw.c ****             draw_dsc->bg_color = lv_obj_get_style_bg_color_filtered(obj, part);
 157              		.loc 1 62 0
 158 0076 A080     		strh	r0, [r4, #4]
 159              	.LVL18:
 160              	.LBB213:
 161              	.LBB214:
 189:..\..\..\arduinoLCD\test\Pain Drain\libraries\lvgl\src\core/lv_obj_style_gen.h ****     return (const lv_grad_dsc_t *)v.ptr;
 162              		.loc 2 189 0
 163 0078 2622     		movs	r2, #38
 164 007a 2900     		movs	r1, r5
 165 007c 3000     		movs	r0, r6
 166 007e FFF7FEFF 		bl	lv_obj_get_style_prop
 167              	.LVL19:
 168              	.LBE214:
 169              	.LBE213:
  63:..\..\..\arduinoLCD\test\Pain Drain\libraries\lvgl\src\core/lv_obj_draw.c ****             const lv_grad_dsc_t * grad = lv_obj_get_style_bg_grad(obj, part);
  64:..\..\..\arduinoLCD\test\Pain Drain\libraries\lvgl\src\core/lv_obj_draw.c ****             if(grad && grad->dir != LV_GRAD_DIR_NONE) {
 170              		.loc 1 64 0
 171 0082 0028     		cmp	r0, #0
 172 0084 09D0     		beq	.L6
 173              		.loc 1 64 0 is_stmt 0 discriminator 1
 174 0086 437A     		ldrb	r3, [r0, #9]
 175 0088 5B07     		lsls	r3, r3, #29
 176 008a 06D0     		beq	.L6
  65:..\..\..\arduinoLCD\test\Pain Drain\libraries\lvgl\src\core/lv_obj_draw.c ****                 lv_memcpy(&draw_dsc->bg_grad, grad, sizeof(*grad));
 177              		.loc 1 65 0 is_stmt 1
 178 008c A31D     		adds	r3, r4, #6
ARM GAS  C:\Users\haske\AppData\Local\Temp\cc4f9rxb.s 			page 15


 179 008e 0A22     		movs	r2, #10
 180 0090 0100     		movs	r1, r0
 181 0092 1800     		movs	r0, r3
 182 0094 FFF7FEFF 		bl	lv_memcpy
 183              	.LVL20:
 184 0098 3CE0     		b	.L5
 185              	.L6:
 186              	.LVL21:
 187              	.LBB215:
 188              	.LBB216:
 171:..\..\..\arduinoLCD\test\Pain Drain\libraries\lvgl\src\core/lv_obj_style_gen.h ****     return (lv_grad_dir_t)v.num;
 189              		.loc 2 171 0
 190 009a 2322     		movs	r2, #35
 191 009c 2900     		movs	r1, r5
 192 009e 3000     		movs	r0, r6
 193 00a0 FFF7FEFF 		bl	lv_obj_get_style_prop
 194              	.LVL22:
 195              	.LBE216:
 196              	.LBE215:
  66:..\..\..\arduinoLCD\test\Pain Drain\libraries\lvgl\src\core/lv_obj_draw.c ****             }
  67:..\..\..\arduinoLCD\test\Pain Drain\libraries\lvgl\src\core/lv_obj_draw.c ****             else {
  68:..\..\..\arduinoLCD\test\Pain Drain\libraries\lvgl\src\core/lv_obj_draw.c ****                 draw_dsc->bg_grad.dir = lv_obj_get_style_bg_grad_dir(obj, part);
 197              		.loc 1 68 0
 198 00a4 0722     		movs	r2, #7
 199              	.LVL23:
 200 00a6 1040     		ands	r0, r2
 201              	.LVL24:
 202 00a8 E37B     		ldrb	r3, [r4, #15]
 203 00aa 0721     		movs	r1, #7
 204 00ac 8B43     		bics	r3, r1
 205 00ae 1843     		orrs	r0, r3
 206 00b0 E073     		strb	r0, [r4, #15]
  69:..\..\..\arduinoLCD\test\Pain Drain\libraries\lvgl\src\core/lv_obj_draw.c ****                 if(draw_dsc->bg_grad.dir != LV_GRAD_DIR_NONE) {
 207              		.loc 1 69 0
 208 00b2 0242     		tst	r2, r0
 209 00b4 21D0     		beq	.L7
 210              	.LVL25:
 211              	.LBB217:
 212              	.LBB218:
 147:..\..\..\arduinoLCD\test\Pain Drain\libraries\lvgl\src\core/lv_obj_style_gen.h ****     return v.color;
 213              		.loc 2 147 0
 214 00b6 1932     		adds	r2, r2, #25
 215 00b8 2900     		movs	r1, r5
 216 00ba 3000     		movs	r0, r6
 217 00bc FFF7FEFF 		bl	lv_obj_get_style_prop
 218              	.LVL26:
 219 00c0 0200     		movs	r2, r0
 220 00c2 2900     		movs	r1, r5
 221 00c4 3000     		movs	r0, r6
 222 00c6 FFF7FEFF 		bl	_lv_obj_style_apply_color_filter
 223              	.LVL27:
 224              	.LBE218:
 225              	.LBE217:
  70:..\..\..\arduinoLCD\test\Pain Drain\libraries\lvgl\src\core/lv_obj_draw.c ****                     draw_dsc->bg_grad.stops[0].color = lv_obj_get_style_bg_color_filtered(obj, part
 226              		.loc 1 70 0
 227 00ca E080     		strh	r0, [r4, #6]
 228              	.LVL28:
ARM GAS  C:\Users\haske\AppData\Local\Temp\cc4f9rxb.s 			page 16


 229              	.LBB219:
 230              	.LBB220:
 165:..\..\..\arduinoLCD\test\Pain Drain\libraries\lvgl\src\core/lv_obj_style_gen.h ****     return v.color;
 231              		.loc 2 165 0
 232 00cc 2222     		movs	r2, #34
 233 00ce 2900     		movs	r1, r5
 234 00d0 3000     		movs	r0, r6
 235 00d2 FFF7FEFF 		bl	lv_obj_get_style_prop
 236              	.LVL29:
 237 00d6 0200     		movs	r2, r0
 238 00d8 2900     		movs	r1, r5
 239 00da 3000     		movs	r0, r6
 240 00dc FFF7FEFF 		bl	_lv_obj_style_apply_color_filter
 241              	.LVL30:
 242              	.LBE220:
 243              	.LBE219:
  71:..\..\..\arduinoLCD\test\Pain Drain\libraries\lvgl\src\core/lv_obj_draw.c ****                     draw_dsc->bg_grad.stops[1].color = lv_obj_get_style_bg_grad_color_filtered(obj,
 244              		.loc 1 71 0
 245 00e0 6081     		strh	r0, [r4, #10]
 246              	.LVL31:
 247              	.LBB221:
 248              	.LBB222:
 177:..\..\..\arduinoLCD\test\Pain Drain\libraries\lvgl\src\core/lv_obj_style_gen.h ****     return (lv_coord_t)v.num;
 249              		.loc 2 177 0
 250 00e2 2422     		movs	r2, #36
 251 00e4 2900     		movs	r1, r5
 252 00e6 3000     		movs	r0, r6
 253 00e8 FFF7FEFF 		bl	lv_obj_get_style_prop
 254              	.LVL32:
 255              	.LBE222:
 256              	.LBE221:
  72:..\..\..\arduinoLCD\test\Pain Drain\libraries\lvgl\src\core/lv_obj_draw.c ****                     draw_dsc->bg_grad.stops[0].frac = lv_obj_get_style_bg_main_stop(obj, part);
 257              		.loc 1 72 0
 258 00ec 2072     		strb	r0, [r4, #8]
 259              	.LVL33:
 260              	.LBB223:
 261              	.LBB224:
 183:..\..\..\arduinoLCD\test\Pain Drain\libraries\lvgl\src\core/lv_obj_style_gen.h ****     return (lv_coord_t)v.num;
 262              		.loc 2 183 0
 263 00ee 2522     		movs	r2, #37
 264 00f0 2900     		movs	r1, r5
 265 00f2 3000     		movs	r0, r6
 266 00f4 FFF7FEFF 		bl	lv_obj_get_style_prop
 267              	.LVL34:
 268              	.LBE224:
 269              	.LBE223:
  73:..\..\..\arduinoLCD\test\Pain Drain\libraries\lvgl\src\core/lv_obj_draw.c ****                     draw_dsc->bg_grad.stops[1].frac = lv_obj_get_style_bg_grad_stop(obj, part);
 270              		.loc 1 73 0
 271 00f8 2073     		strb	r0, [r4, #12]
 272              	.L7:
 273              	.LVL35:
 274              	.LBB225:
 275              	.LBB226:
 195:..\..\..\arduinoLCD\test\Pain Drain\libraries\lvgl\src\core/lv_obj_style_gen.h ****     return (lv_dither_mode_t)v.num;
 276              		.loc 2 195 0
 277 00fa 2722     		movs	r2, #39
 278 00fc 2900     		movs	r1, r5
ARM GAS  C:\Users\haske\AppData\Local\Temp\cc4f9rxb.s 			page 17


 279 00fe 3000     		movs	r0, r6
 280 0100 FFF7FEFF 		bl	lv_obj_get_style_prop
 281              	.LVL36:
 282              	.LBE226:
 283              	.LBE225:
  74:..\..\..\arduinoLCD\test\Pain Drain\libraries\lvgl\src\core/lv_obj_draw.c ****                 }
  75:..\..\..\arduinoLCD\test\Pain Drain\libraries\lvgl\src\core/lv_obj_draw.c ****                 draw_dsc->bg_grad.dither = lv_obj_get_style_bg_dither_mode(obj, part);
 284              		.loc 1 75 0
 285 0104 0723     		movs	r3, #7
 286              	.LVL37:
 287 0106 1840     		ands	r0, r3
 288              	.LVL38:
 289 0108 C300     		lsls	r3, r0, #3
 290 010a E07B     		ldrb	r0, [r4, #15]
 291 010c 3822     		movs	r2, #56
 292 010e 9043     		bics	r0, r2
 293 0110 1843     		orrs	r0, r3
 294 0112 E073     		strb	r0, [r4, #15]
 295              	.L5:
 296              	.LVL39:
 297              	.LBE210:
 298              	.LBB227:
 299              	.LBB228:
 255:..\..\..\arduinoLCD\test\Pain Drain\libraries\lvgl\src\core/lv_obj_style_gen.h ****     return (lv_coord_t)v.num;
 300              		.loc 2 255 0
 301 0114 3222     		movs	r2, #50
 302 0116 2900     		movs	r1, r5
 303 0118 3000     		movs	r0, r6
 304 011a FFF7FEFF 		bl	lv_obj_get_style_prop
 305              	.LVL40:
 256:..\..\..\arduinoLCD\test\Pain Drain\libraries\lvgl\src\core/lv_obj_style_gen.h **** }
 306              		.loc 2 256 0
 307 011e 00B2     		sxth	r0, r0
 308              	.LVL41:
 309              	.LBE228:
 310              	.LBE227:
  76:..\..\..\arduinoLCD\test\Pain Drain\libraries\lvgl\src\core/lv_obj_draw.c ****             }
  77:..\..\..\arduinoLCD\test\Pain Drain\libraries\lvgl\src\core/lv_obj_draw.c ****         }
  78:..\..\..\arduinoLCD\test\Pain Drain\libraries\lvgl\src\core/lv_obj_draw.c ****     }
  79:..\..\..\arduinoLCD\test\Pain Drain\libraries\lvgl\src\core/lv_obj_draw.c **** 
  80:..\..\..\arduinoLCD\test\Pain Drain\libraries\lvgl\src\core/lv_obj_draw.c ****     draw_dsc->border_width = lv_obj_get_style_border_width(obj, part);
 311              		.loc 1 80 0
 312 0120 2084     		strh	r0, [r4, #32]
  81:..\..\..\arduinoLCD\test\Pain Drain\libraries\lvgl\src\core/lv_obj_draw.c ****     if(draw_dsc->border_width) {
 313              		.loc 1 81 0
 314 0122 0028     		cmp	r0, #0
 315 0124 26D0     		beq	.L8
  82:..\..\..\arduinoLCD\test\Pain Drain\libraries\lvgl\src\core/lv_obj_draw.c ****         if(draw_dsc->border_opa != LV_OPA_TRANSP) {
 316              		.loc 1 82 0
 317 0126 2223     		movs	r3, #34
 318 0128 E35C     		ldrb	r3, [r4, r3]
 319 012a 002B     		cmp	r3, #0
 320 012c 22D0     		beq	.L8
 321              	.LVL42:
 322              	.LBB229:
 323              	.LBB230:
 249:..\..\..\arduinoLCD\test\Pain Drain\libraries\lvgl\src\core/lv_obj_style_gen.h ****     return (lv_opa_t)v.num;
ARM GAS  C:\Users\haske\AppData\Local\Temp\cc4f9rxb.s 			page 18


 324              		.loc 2 249 0
 325 012e 3122     		movs	r2, #49
 326 0130 2900     		movs	r1, r5
 327 0132 3000     		movs	r0, r6
 328 0134 FFF7FEFF 		bl	lv_obj_get_style_prop
 329              	.LVL43:
 250:..\..\..\arduinoLCD\test\Pain Drain\libraries\lvgl\src\core/lv_obj_style_gen.h **** }
 330              		.loc 2 250 0
 331 0138 C0B2     		uxtb	r0, r0
 332              	.LVL44:
 333              	.LBE230:
 334              	.LBE229:
  83:..\..\..\arduinoLCD\test\Pain Drain\libraries\lvgl\src\core/lv_obj_draw.c ****             draw_dsc->border_opa = lv_obj_get_style_border_opa(obj, part);
 335              		.loc 1 83 0
 336 013a 2223     		movs	r3, #34
 337 013c E054     		strb	r0, [r4, r3]
  84:..\..\..\arduinoLCD\test\Pain Drain\libraries\lvgl\src\core/lv_obj_draw.c ****             if(draw_dsc->border_opa > LV_OPA_MIN) {
 338              		.loc 1 84 0
 339 013e 0228     		cmp	r0, #2
 340 0140 18D9     		bls	.L8
 341              	.LVL45:
 342              	.LBB231:
 343              	.LBB232:
 261:..\..\..\arduinoLCD\test\Pain Drain\libraries\lvgl\src\core/lv_obj_style_gen.h ****     return (lv_border_side_t)v.num;
 344              		.loc 2 261 0
 345 0142 3322     		movs	r2, #51
 346 0144 2900     		movs	r1, r5
 347 0146 3000     		movs	r0, r6
 348 0148 FFF7FEFF 		bl	lv_obj_get_style_prop
 349              	.LVL46:
 350              	.LBE232:
 351              	.LBE231:
  85:..\..\..\arduinoLCD\test\Pain Drain\libraries\lvgl\src\core/lv_obj_draw.c ****                 draw_dsc->border_side = lv_obj_get_style_border_side(obj, part);
 352              		.loc 1 85 0
 353 014c 2322     		movs	r2, #35
 354 014e 1F23     		movs	r3, #31
 355              	.LVL47:
 356 0150 1840     		ands	r0, r3
 357              	.LVL48:
 358 0152 4300     		lsls	r3, r0, #1
 359 0154 A05C     		ldrb	r0, [r4, r2]
 360 0156 3E21     		movs	r1, #62
 361 0158 8843     		bics	r0, r1
 362 015a 1843     		orrs	r0, r3
 363 015c A054     		strb	r0, [r4, r2]
 364              	.LVL49:
 365              	.LBB233:
 366              	.LBB234:
 243:..\..\..\arduinoLCD\test\Pain Drain\libraries\lvgl\src\core/lv_obj_style_gen.h ****     return v.color;
 367              		.loc 2 243 0
 368 015e 0D32     		adds	r2, r2, #13
 369 0160 2900     		movs	r1, r5
 370 0162 3000     		movs	r0, r6
 371 0164 FFF7FEFF 		bl	lv_obj_get_style_prop
 372              	.LVL50:
 373 0168 0200     		movs	r2, r0
 374 016a 2900     		movs	r1, r5
ARM GAS  C:\Users\haske\AppData\Local\Temp\cc4f9rxb.s 			page 19


 375 016c 3000     		movs	r0, r6
 376 016e FFF7FEFF 		bl	_lv_obj_style_apply_color_filter
 377              	.LVL51:
 378              	.LBE234:
 379              	.LBE233:
  86:..\..\..\arduinoLCD\test\Pain Drain\libraries\lvgl\src\core/lv_obj_draw.c ****                 draw_dsc->border_color = lv_obj_get_style_border_color_filtered(obj, part);
 380              		.loc 1 86 0
 381 0172 E083     		strh	r0, [r4, #30]
 382              	.L8:
 383              	.LVL52:
 384              	.LBB235:
 385              	.LBB236:
 273:..\..\..\arduinoLCD\test\Pain Drain\libraries\lvgl\src\core/lv_obj_style_gen.h ****     return (lv_coord_t)v.num;
 386              		.loc 2 273 0
 387 0174 3522     		movs	r2, #53
 388 0176 2900     		movs	r1, r5
 389 0178 3000     		movs	r0, r6
 390 017a FFF7FEFF 		bl	lv_obj_get_style_prop
 391              	.LVL53:
 274:..\..\..\arduinoLCD\test\Pain Drain\libraries\lvgl\src\core/lv_obj_style_gen.h **** }
 392              		.loc 2 274 0
 393 017e 00B2     		sxth	r0, r0
 394              	.LVL54:
 395              	.LBE236:
 396              	.LBE235:
  87:..\..\..\arduinoLCD\test\Pain Drain\libraries\lvgl\src\core/lv_obj_draw.c ****             }
  88:..\..\..\arduinoLCD\test\Pain Drain\libraries\lvgl\src\core/lv_obj_draw.c ****         }
  89:..\..\..\arduinoLCD\test\Pain Drain\libraries\lvgl\src\core/lv_obj_draw.c ****     }
  90:..\..\..\arduinoLCD\test\Pain Drain\libraries\lvgl\src\core/lv_obj_draw.c **** 
  91:..\..\..\arduinoLCD\test\Pain Drain\libraries\lvgl\src\core/lv_obj_draw.c ****     draw_dsc->outline_width = lv_obj_get_style_outline_width(obj, part);
 397              		.loc 1 91 0
 398 0180 E084     		strh	r0, [r4, #38]
  92:..\..\..\arduinoLCD\test\Pain Drain\libraries\lvgl\src\core/lv_obj_draw.c ****     if(draw_dsc->outline_width) {
 399              		.loc 1 92 0
 400 0182 0028     		cmp	r0, #0
 401 0184 1ED0     		beq	.L9
  93:..\..\..\arduinoLCD\test\Pain Drain\libraries\lvgl\src\core/lv_obj_draw.c ****         if(draw_dsc->outline_opa != LV_OPA_TRANSP) {
 402              		.loc 1 93 0
 403 0186 2A23     		movs	r3, #42
 404 0188 E35C     		ldrb	r3, [r4, r3]
 405 018a 002B     		cmp	r3, #0
 406 018c 1AD0     		beq	.L9
 407              	.LVL55:
 408              	.LBB237:
 409              	.LBB238:
 291:..\..\..\arduinoLCD\test\Pain Drain\libraries\lvgl\src\core/lv_obj_style_gen.h ****     return (lv_opa_t)v.num;
 410              		.loc 2 291 0
 411 018e 3722     		movs	r2, #55
 412 0190 2900     		movs	r1, r5
 413 0192 3000     		movs	r0, r6
 414 0194 FFF7FEFF 		bl	lv_obj_get_style_prop
 415              	.LVL56:
 292:..\..\..\arduinoLCD\test\Pain Drain\libraries\lvgl\src\core/lv_obj_style_gen.h **** }
 416              		.loc 2 292 0
 417 0198 C0B2     		uxtb	r0, r0
 418              	.LVL57:
 419              	.LBE238:
ARM GAS  C:\Users\haske\AppData\Local\Temp\cc4f9rxb.s 			page 20


 420              	.LBE237:
  94:..\..\..\arduinoLCD\test\Pain Drain\libraries\lvgl\src\core/lv_obj_draw.c ****             draw_dsc->outline_opa = lv_obj_get_style_outline_opa(obj, part);
 421              		.loc 1 94 0
 422 019a 2A23     		movs	r3, #42
 423 019c E054     		strb	r0, [r4, r3]
  95:..\..\..\arduinoLCD\test\Pain Drain\libraries\lvgl\src\core/lv_obj_draw.c ****             if(draw_dsc->outline_opa > LV_OPA_MIN) {
 424              		.loc 1 95 0
 425 019e 0228     		cmp	r0, #2
 426 01a0 10D9     		bls	.L9
 427              	.LVL58:
 428              	.LBB239:
 429              	.LBB240:
 297:..\..\..\arduinoLCD\test\Pain Drain\libraries\lvgl\src\core/lv_obj_style_gen.h ****     return (lv_coord_t)v.num;
 430              		.loc 2 297 0
 431 01a2 3822     		movs	r2, #56
 432 01a4 2900     		movs	r1, r5
 433 01a6 3000     		movs	r0, r6
 434 01a8 FFF7FEFF 		bl	lv_obj_get_style_prop
 435              	.LVL59:
 436              	.LBE240:
 437              	.LBE239:
  96:..\..\..\arduinoLCD\test\Pain Drain\libraries\lvgl\src\core/lv_obj_draw.c ****                 draw_dsc->outline_pad = lv_obj_get_style_outline_pad(obj, part);
 438              		.loc 1 96 0
 439 01ac 2085     		strh	r0, [r4, #40]
 440              	.LVL60:
 441              	.LBB241:
 442              	.LBB242:
 285:..\..\..\arduinoLCD\test\Pain Drain\libraries\lvgl\src\core/lv_obj_style_gen.h ****     return v.color;
 443              		.loc 2 285 0
 444 01ae 3622     		movs	r2, #54
 445 01b0 2900     		movs	r1, r5
 446 01b2 3000     		movs	r0, r6
 447 01b4 FFF7FEFF 		bl	lv_obj_get_style_prop
 448              	.LVL61:
 449 01b8 0200     		movs	r2, r0
 450 01ba 2900     		movs	r1, r5
 451 01bc 3000     		movs	r0, r6
 452 01be FFF7FEFF 		bl	_lv_obj_style_apply_color_filter
 453              	.LVL62:
 454              	.LBE242:
 455              	.LBE241:
  97:..\..\..\arduinoLCD\test\Pain Drain\libraries\lvgl\src\core/lv_obj_draw.c ****                 draw_dsc->outline_color = lv_obj_get_style_outline_color_filtered(obj, part);
 456              		.loc 1 97 0
 457 01c2 A084     		strh	r0, [r4, #36]
 458              	.L9:
  98:..\..\..\arduinoLCD\test\Pain Drain\libraries\lvgl\src\core/lv_obj_draw.c ****             }
  99:..\..\..\arduinoLCD\test\Pain Drain\libraries\lvgl\src\core/lv_obj_draw.c ****         }
 100:..\..\..\arduinoLCD\test\Pain Drain\libraries\lvgl\src\core/lv_obj_draw.c ****     }
 101:..\..\..\arduinoLCD\test\Pain Drain\libraries\lvgl\src\core/lv_obj_draw.c **** 
 102:..\..\..\arduinoLCD\test\Pain Drain\libraries\lvgl\src\core/lv_obj_draw.c ****     if(draw_dsc->bg_img_opa != LV_OPA_TRANSP) {
 459              		.loc 1 102 0
 460 01c4 A37E     		ldrb	r3, [r4, #26]
 461 01c6 002B     		cmp	r3, #0
 462 01c8 40D0     		beq	.L10
 463              	.LVL63:
 464              	.LBB243:
 465              	.LBB244:
ARM GAS  C:\Users\haske\AppData\Local\Temp\cc4f9rxb.s 			page 21


 201:..\..\..\arduinoLCD\test\Pain Drain\libraries\lvgl\src\core/lv_obj_style_gen.h ****     return (const void *)v.ptr;
 466              		.loc 2 201 0
 467 01ca 2822     		movs	r2, #40
 468 01cc 2900     		movs	r1, r5
 469 01ce 3000     		movs	r0, r6
 470 01d0 FFF7FEFF 		bl	lv_obj_get_style_prop
 471              	.LVL64:
 472              	.LBE244:
 473              	.LBE243:
 103:..\..\..\arduinoLCD\test\Pain Drain\libraries\lvgl\src\core/lv_obj_draw.c ****         draw_dsc->bg_img_src = lv_obj_get_style_bg_img_src(obj, part);
 474              		.loc 1 103 0
 475 01d4 2061     		str	r0, [r4, #16]
 104:..\..\..\arduinoLCD\test\Pain Drain\libraries\lvgl\src\core/lv_obj_draw.c ****         if(draw_dsc->bg_img_src) {
 476              		.loc 1 104 0
 477 01d6 0028     		cmp	r0, #0
 478 01d8 38D0     		beq	.L10
 479              	.LVL65:
 480              	.LBB245:
 481              	.LBB246:
 207:..\..\..\arduinoLCD\test\Pain Drain\libraries\lvgl\src\core/lv_obj_style_gen.h ****     return (lv_opa_t)v.num;
 482              		.loc 2 207 0
 483 01da 2922     		movs	r2, #41
 484 01dc 2900     		movs	r1, r5
 485 01de 3000     		movs	r0, r6
 486              	.LVL66:
 487 01e0 FFF7FEFF 		bl	lv_obj_get_style_prop
 488              	.LVL67:
 208:..\..\..\arduinoLCD\test\Pain Drain\libraries\lvgl\src\core/lv_obj_style_gen.h **** }
 489              		.loc 2 208 0
 490 01e4 C0B2     		uxtb	r0, r0
 491              	.LVL68:
 492              	.LBE246:
 493              	.LBE245:
 105:..\..\..\arduinoLCD\test\Pain Drain\libraries\lvgl\src\core/lv_obj_draw.c ****             draw_dsc->bg_img_opa = lv_obj_get_style_bg_img_opa(obj, part);
 494              		.loc 1 105 0
 495 01e6 A076     		strb	r0, [r4, #26]
 106:..\..\..\arduinoLCD\test\Pain Drain\libraries\lvgl\src\core/lv_obj_draw.c ****             if(draw_dsc->bg_img_opa > LV_OPA_MIN) {
 496              		.loc 1 106 0
 497 01e8 0228     		cmp	r0, #2
 498 01ea 2FD9     		bls	.L10
 107:..\..\..\arduinoLCD\test\Pain Drain\libraries\lvgl\src\core/lv_obj_draw.c ****                 if(lv_img_src_get_type(draw_dsc->bg_img_src) == LV_IMG_SRC_SYMBOL) {
 499              		.loc 1 107 0
 500 01ec 2069     		ldr	r0, [r4, #16]
 501 01ee FFF7FEFF 		bl	lv_img_src_get_type
 502              	.LVL69:
 503 01f2 0228     		cmp	r0, #2
 504 01f4 11D1     		bne	.L11
 505              	.LVL70:
 506              	.LBB247:
 507              	.LBB248:
 465:..\..\..\arduinoLCD\test\Pain Drain\libraries\lvgl\src\core/lv_obj_style_gen.h ****     return (const lv_font_t *)v.ptr;
 508              		.loc 2 465 0
 509 01f6 5722     		movs	r2, #87
 510 01f8 2900     		movs	r1, r5
 511 01fa 3000     		movs	r0, r6
 512 01fc FFF7FEFF 		bl	lv_obj_get_style_prop
 513              	.LVL71:
ARM GAS  C:\Users\haske\AppData\Local\Temp\cc4f9rxb.s 			page 22


 514              	.LBE248:
 515              	.LBE247:
 108:..\..\..\arduinoLCD\test\Pain Drain\libraries\lvgl\src\core/lv_obj_draw.c ****                     draw_dsc->bg_img_symbol_font = lv_obj_get_style_text_font(obj, part);
 516              		.loc 1 108 0
 517 0200 6061     		str	r0, [r4, #20]
 518              	.LVL72:
 519              	.LBB249:
 520              	.LBB250:
 453:..\..\..\arduinoLCD\test\Pain Drain\libraries\lvgl\src\core/lv_obj_style_gen.h ****     return v.color;
 521              		.loc 2 453 0
 522 0202 5522     		movs	r2, #85
 523 0204 2900     		movs	r1, r5
 524 0206 3000     		movs	r0, r6
 525              	.LVL73:
 526 0208 FFF7FEFF 		bl	lv_obj_get_style_prop
 527              	.LVL74:
 528 020c 0200     		movs	r2, r0
 529 020e 2900     		movs	r1, r5
 530 0210 3000     		movs	r0, r6
 531 0212 FFF7FEFF 		bl	_lv_obj_style_apply_color_filter
 532              	.LVL75:
 533              	.LBE250:
 534              	.LBE249:
 109:..\..\..\arduinoLCD\test\Pain Drain\libraries\lvgl\src\core/lv_obj_draw.c ****                     draw_dsc->bg_img_recolor = lv_obj_get_style_text_color_filtered(obj, part);
 535              		.loc 1 109 0
 536 0216 2083     		strh	r0, [r4, #24]
 537 0218 18E0     		b	.L10
 538              	.L11:
 539              	.LVL76:
 540              	.LBB251:
 541              	.LBB252:
 219:..\..\..\arduinoLCD\test\Pain Drain\libraries\lvgl\src\core/lv_obj_style_gen.h ****     return v.color;
 542              		.loc 2 219 0
 543 021a 2A22     		movs	r2, #42
 544 021c 2900     		movs	r1, r5
 545 021e 3000     		movs	r0, r6
 546 0220 FFF7FEFF 		bl	lv_obj_get_style_prop
 547              	.LVL77:
 548 0224 0200     		movs	r2, r0
 549 0226 2900     		movs	r1, r5
 550 0228 3000     		movs	r0, r6
 551 022a FFF7FEFF 		bl	_lv_obj_style_apply_color_filter
 552              	.LVL78:
 553              	.LBE252:
 554              	.LBE251:
 110:..\..\..\arduinoLCD\test\Pain Drain\libraries\lvgl\src\core/lv_obj_draw.c ****                 }
 111:..\..\..\arduinoLCD\test\Pain Drain\libraries\lvgl\src\core/lv_obj_draw.c ****                 else {
 112:..\..\..\arduinoLCD\test\Pain Drain\libraries\lvgl\src\core/lv_obj_draw.c ****                     draw_dsc->bg_img_recolor = lv_obj_get_style_bg_img_recolor_filtered(obj, part);
 555              		.loc 1 112 0
 556 022e 2083     		strh	r0, [r4, #24]
 557              	.LVL79:
 558              	.LBB253:
 559              	.LBB254:
 225:..\..\..\arduinoLCD\test\Pain Drain\libraries\lvgl\src\core/lv_obj_style_gen.h ****     return (lv_opa_t)v.num;
 560              		.loc 2 225 0
 561 0230 2B22     		movs	r2, #43
 562 0232 2900     		movs	r1, r5
ARM GAS  C:\Users\haske\AppData\Local\Temp\cc4f9rxb.s 			page 23


 563 0234 3000     		movs	r0, r6
 564 0236 FFF7FEFF 		bl	lv_obj_get_style_prop
 565              	.LVL80:
 566              	.LBE254:
 567              	.LBE253:
 113:..\..\..\arduinoLCD\test\Pain Drain\libraries\lvgl\src\core/lv_obj_draw.c ****                     draw_dsc->bg_img_recolor_opa = lv_obj_get_style_bg_img_recolor_opa(obj, part);
 568              		.loc 1 113 0
 569 023a E076     		strb	r0, [r4, #27]
 570              	.LVL81:
 571              	.LBB255:
 572              	.LBB256:
 231:..\..\..\arduinoLCD\test\Pain Drain\libraries\lvgl\src\core/lv_obj_style_gen.h ****     return (bool)v.num;
 573              		.loc 2 231 0
 574 023c 2C22     		movs	r2, #44
 575 023e 2900     		movs	r1, r5
 576 0240 3000     		movs	r0, r6
 577 0242 FFF7FEFF 		bl	lv_obj_get_style_prop
 578              	.LVL82:
 232:..\..\..\arduinoLCD\test\Pain Drain\libraries\lvgl\src\core/lv_obj_style_gen.h **** }
 579              		.loc 2 232 0
 580 0246 431E     		subs	r3, r0, #1
 581 0248 9841     		sbcs	r0, r0, r3
 582              	.LVL83:
 583              	.LBE256:
 584              	.LBE255:
 114:..\..\..\arduinoLCD\test\Pain Drain\libraries\lvgl\src\core/lv_obj_draw.c ****                     draw_dsc->bg_img_tiled = lv_obj_get_style_bg_img_tiled(obj, part);
 585              		.loc 1 114 0
 586 024a 2077     		strb	r0, [r4, #28]
 587              	.LVL84:
 588              	.L10:
 115:..\..\..\arduinoLCD\test\Pain Drain\libraries\lvgl\src\core/lv_obj_draw.c ****                 }
 116:..\..\..\arduinoLCD\test\Pain Drain\libraries\lvgl\src\core/lv_obj_draw.c ****             }
 117:..\..\..\arduinoLCD\test\Pain Drain\libraries\lvgl\src\core/lv_obj_draw.c ****         }
 118:..\..\..\arduinoLCD\test\Pain Drain\libraries\lvgl\src\core/lv_obj_draw.c ****     }
 119:..\..\..\arduinoLCD\test\Pain Drain\libraries\lvgl\src\core/lv_obj_draw.c **** 
 120:..\..\..\arduinoLCD\test\Pain Drain\libraries\lvgl\src\core/lv_obj_draw.c ****     if(draw_dsc->shadow_opa) {
 589              		.loc 1 120 0
 590 024c 3623     		movs	r3, #54
 591 024e E35C     		ldrb	r3, [r4, r3]
 592 0250 002B     		cmp	r3, #0
 593 0252 33D0     		beq	.L12
 594              	.LVL85:
 595              	.LBB257:
 596              	.LBB258:
 303:..\..\..\arduinoLCD\test\Pain Drain\libraries\lvgl\src\core/lv_obj_style_gen.h ****     return (lv_coord_t)v.num;
 597              		.loc 2 303 0
 598 0254 4022     		movs	r2, #64
 599 0256 2900     		movs	r1, r5
 600 0258 3000     		movs	r0, r6
 601              	.LVL86:
 602 025a FFF7FEFF 		bl	lv_obj_get_style_prop
 603              	.LVL87:
 304:..\..\..\arduinoLCD\test\Pain Drain\libraries\lvgl\src\core/lv_obj_style_gen.h **** }
 604              		.loc 2 304 0
 605 025e 00B2     		sxth	r0, r0
 606              	.LVL88:
 607              	.LBE258:
ARM GAS  C:\Users\haske\AppData\Local\Temp\cc4f9rxb.s 			page 24


 608              	.LBE257:
 121:..\..\..\arduinoLCD\test\Pain Drain\libraries\lvgl\src\core/lv_obj_draw.c ****         draw_dsc->shadow_width = lv_obj_get_style_shadow_width(obj, part);
 609              		.loc 1 121 0
 610 0260 E085     		strh	r0, [r4, #46]
 122:..\..\..\arduinoLCD\test\Pain Drain\libraries\lvgl\src\core/lv_obj_draw.c ****         if(draw_dsc->shadow_width) {
 611              		.loc 1 122 0
 612 0262 0028     		cmp	r0, #0
 613 0264 2AD0     		beq	.L12
 123:..\..\..\arduinoLCD\test\Pain Drain\libraries\lvgl\src\core/lv_obj_draw.c ****             if(draw_dsc->shadow_opa > LV_OPA_MIN) {
 614              		.loc 1 123 0
 615 0266 3623     		movs	r3, #54
 616 0268 E35C     		ldrb	r3, [r4, r3]
 617 026a 022B     		cmp	r3, #2
 618 026c 26D9     		bls	.L12
 619              	.LVL89:
 620              	.LBB259:
 621              	.LBB260:
 339:..\..\..\arduinoLCD\test\Pain Drain\libraries\lvgl\src\core/lv_obj_style_gen.h ****     return (lv_opa_t)v.num;
 622              		.loc 2 339 0
 623 026e 4522     		movs	r2, #69
 624 0270 2900     		movs	r1, r5
 625 0272 3000     		movs	r0, r6
 626 0274 FFF7FEFF 		bl	lv_obj_get_style_prop
 627              	.LVL90:
 340:..\..\..\arduinoLCD\test\Pain Drain\libraries\lvgl\src\core/lv_obj_style_gen.h **** }
 628              		.loc 2 340 0
 629 0278 C0B2     		uxtb	r0, r0
 630              	.LVL91:
 631              	.LBE260:
 632              	.LBE259:
 124:..\..\..\arduinoLCD\test\Pain Drain\libraries\lvgl\src\core/lv_obj_draw.c ****                 draw_dsc->shadow_opa = lv_obj_get_style_shadow_opa(obj, part);
 633              		.loc 1 124 0
 634 027a 3623     		movs	r3, #54
 635 027c E054     		strb	r0, [r4, r3]
 125:..\..\..\arduinoLCD\test\Pain Drain\libraries\lvgl\src\core/lv_obj_draw.c ****                 if(draw_dsc->shadow_opa > LV_OPA_MIN) {
 636              		.loc 1 125 0
 637 027e 0228     		cmp	r0, #2
 638 0280 1CD9     		bls	.L12
 639              	.LVL92:
 640              	.LBB261:
 641              	.LBB262:
 309:..\..\..\arduinoLCD\test\Pain Drain\libraries\lvgl\src\core/lv_obj_style_gen.h ****     return (lv_coord_t)v.num;
 642              		.loc 2 309 0
 643 0282 4122     		movs	r2, #65
 644 0284 2900     		movs	r1, r5
 645 0286 3000     		movs	r0, r6
 646 0288 FFF7FEFF 		bl	lv_obj_get_style_prop
 647              	.LVL93:
 648              	.LBE262:
 649              	.LBE261:
 126:..\..\..\arduinoLCD\test\Pain Drain\libraries\lvgl\src\core/lv_obj_draw.c ****                     draw_dsc->shadow_ofs_x = lv_obj_get_style_shadow_ofs_x(obj, part);
 650              		.loc 1 126 0
 651 028c 2086     		strh	r0, [r4, #48]
 652              	.LVL94:
 653              	.LBB263:
 654              	.LBB264:
 315:..\..\..\arduinoLCD\test\Pain Drain\libraries\lvgl\src\core/lv_obj_style_gen.h ****     return (lv_coord_t)v.num;
ARM GAS  C:\Users\haske\AppData\Local\Temp\cc4f9rxb.s 			page 25


 655              		.loc 2 315 0
 656 028e 4222     		movs	r2, #66
 657 0290 2900     		movs	r1, r5
 658 0292 3000     		movs	r0, r6
 659 0294 FFF7FEFF 		bl	lv_obj_get_style_prop
 660              	.LVL95:
 661              	.LBE264:
 662              	.LBE263:
 127:..\..\..\arduinoLCD\test\Pain Drain\libraries\lvgl\src\core/lv_obj_draw.c ****                     draw_dsc->shadow_ofs_y = lv_obj_get_style_shadow_ofs_y(obj, part);
 663              		.loc 1 127 0
 664 0298 6086     		strh	r0, [r4, #50]
 665              	.LVL96:
 666              	.LBB265:
 667              	.LBB266:
 321:..\..\..\arduinoLCD\test\Pain Drain\libraries\lvgl\src\core/lv_obj_style_gen.h ****     return (lv_coord_t)v.num;
 668              		.loc 2 321 0
 669 029a 4322     		movs	r2, #67
 670 029c 2900     		movs	r1, r5
 671 029e 3000     		movs	r0, r6
 672 02a0 FFF7FEFF 		bl	lv_obj_get_style_prop
 673              	.LVL97:
 674              	.LBE266:
 675              	.LBE265:
 128:..\..\..\arduinoLCD\test\Pain Drain\libraries\lvgl\src\core/lv_obj_draw.c ****                     draw_dsc->shadow_spread = lv_obj_get_style_shadow_spread(obj, part);
 676              		.loc 1 128 0
 677 02a4 A086     		strh	r0, [r4, #52]
 678              	.LVL98:
 679              	.LBB267:
 680              	.LBB268:
 333:..\..\..\arduinoLCD\test\Pain Drain\libraries\lvgl\src\core/lv_obj_style_gen.h ****     return v.color;
 681              		.loc 2 333 0
 682 02a6 4422     		movs	r2, #68
 683 02a8 2900     		movs	r1, r5
 684 02aa 3000     		movs	r0, r6
 685 02ac FFF7FEFF 		bl	lv_obj_get_style_prop
 686              	.LVL99:
 687 02b0 0200     		movs	r2, r0
 688 02b2 2900     		movs	r1, r5
 689 02b4 3000     		movs	r0, r6
 690 02b6 FFF7FEFF 		bl	_lv_obj_style_apply_color_filter
 691              	.LVL100:
 692              	.LBE268:
 693              	.LBE267:
 129:..\..\..\arduinoLCD\test\Pain Drain\libraries\lvgl\src\core/lv_obj_draw.c ****                     draw_dsc->shadow_color = lv_obj_get_style_shadow_color_filtered(obj, part);
 694              		.loc 1 129 0
 695 02ba A085     		strh	r0, [r4, #44]
 696              	.LVL101:
 697              	.L12:
 130:..\..\..\arduinoLCD\test\Pain Drain\libraries\lvgl\src\core/lv_obj_draw.c ****                 }
 131:..\..\..\arduinoLCD\test\Pain Drain\libraries\lvgl\src\core/lv_obj_draw.c ****             }
 132:..\..\..\arduinoLCD\test\Pain Drain\libraries\lvgl\src\core/lv_obj_draw.c ****         }
 133:..\..\..\arduinoLCD\test\Pain Drain\libraries\lvgl\src\core/lv_obj_draw.c ****     }
 134:..\..\..\arduinoLCD\test\Pain Drain\libraries\lvgl\src\core/lv_obj_draw.c **** 
 135:..\..\..\arduinoLCD\test\Pain Drain\libraries\lvgl\src\core/lv_obj_draw.c **** #else /*LV_DRAW_COMPLEX*/
 136:..\..\..\arduinoLCD\test\Pain Drain\libraries\lvgl\src\core/lv_obj_draw.c ****     if(draw_dsc->bg_opa != LV_OPA_TRANSP) {
 137:..\..\..\arduinoLCD\test\Pain Drain\libraries\lvgl\src\core/lv_obj_draw.c ****         draw_dsc->bg_opa = lv_obj_get_style_bg_opa(obj, part);
 138:..\..\..\arduinoLCD\test\Pain Drain\libraries\lvgl\src\core/lv_obj_draw.c ****         if(draw_dsc->bg_opa > LV_OPA_MIN) {
ARM GAS  C:\Users\haske\AppData\Local\Temp\cc4f9rxb.s 			page 26


 139:..\..\..\arduinoLCD\test\Pain Drain\libraries\lvgl\src\core/lv_obj_draw.c ****             draw_dsc->bg_color = lv_obj_get_style_bg_color_filtered(obj, part);
 140:..\..\..\arduinoLCD\test\Pain Drain\libraries\lvgl\src\core/lv_obj_draw.c ****         }
 141:..\..\..\arduinoLCD\test\Pain Drain\libraries\lvgl\src\core/lv_obj_draw.c ****     }
 142:..\..\..\arduinoLCD\test\Pain Drain\libraries\lvgl\src\core/lv_obj_draw.c **** 
 143:..\..\..\arduinoLCD\test\Pain Drain\libraries\lvgl\src\core/lv_obj_draw.c ****     draw_dsc->border_width = lv_obj_get_style_border_width(obj, part);
 144:..\..\..\arduinoLCD\test\Pain Drain\libraries\lvgl\src\core/lv_obj_draw.c ****     if(draw_dsc->border_width) {
 145:..\..\..\arduinoLCD\test\Pain Drain\libraries\lvgl\src\core/lv_obj_draw.c ****         if(draw_dsc->border_opa != LV_OPA_TRANSP) {
 146:..\..\..\arduinoLCD\test\Pain Drain\libraries\lvgl\src\core/lv_obj_draw.c ****             draw_dsc->border_opa = lv_obj_get_style_border_opa(obj, part);
 147:..\..\..\arduinoLCD\test\Pain Drain\libraries\lvgl\src\core/lv_obj_draw.c ****             if(draw_dsc->border_opa > LV_OPA_MIN) {
 148:..\..\..\arduinoLCD\test\Pain Drain\libraries\lvgl\src\core/lv_obj_draw.c ****                 draw_dsc->border_color = lv_obj_get_style_border_color_filtered(obj, part);
 149:..\..\..\arduinoLCD\test\Pain Drain\libraries\lvgl\src\core/lv_obj_draw.c ****                 draw_dsc->border_side = lv_obj_get_style_border_side(obj, part);
 150:..\..\..\arduinoLCD\test\Pain Drain\libraries\lvgl\src\core/lv_obj_draw.c ****             }
 151:..\..\..\arduinoLCD\test\Pain Drain\libraries\lvgl\src\core/lv_obj_draw.c ****         }
 152:..\..\..\arduinoLCD\test\Pain Drain\libraries\lvgl\src\core/lv_obj_draw.c ****     }
 153:..\..\..\arduinoLCD\test\Pain Drain\libraries\lvgl\src\core/lv_obj_draw.c **** 
 154:..\..\..\arduinoLCD\test\Pain Drain\libraries\lvgl\src\core/lv_obj_draw.c ****     draw_dsc->outline_width = lv_obj_get_style_outline_width(obj, part);
 155:..\..\..\arduinoLCD\test\Pain Drain\libraries\lvgl\src\core/lv_obj_draw.c ****     if(draw_dsc->outline_width) {
 156:..\..\..\arduinoLCD\test\Pain Drain\libraries\lvgl\src\core/lv_obj_draw.c ****         if(draw_dsc->outline_opa != LV_OPA_TRANSP) {
 157:..\..\..\arduinoLCD\test\Pain Drain\libraries\lvgl\src\core/lv_obj_draw.c ****             draw_dsc->outline_opa = lv_obj_get_style_outline_opa(obj, part);
 158:..\..\..\arduinoLCD\test\Pain Drain\libraries\lvgl\src\core/lv_obj_draw.c ****             if(draw_dsc->outline_opa > LV_OPA_MIN) {
 159:..\..\..\arduinoLCD\test\Pain Drain\libraries\lvgl\src\core/lv_obj_draw.c ****                 draw_dsc->outline_pad = lv_obj_get_style_outline_pad(obj, part);
 160:..\..\..\arduinoLCD\test\Pain Drain\libraries\lvgl\src\core/lv_obj_draw.c ****                 draw_dsc->outline_color = lv_obj_get_style_outline_color_filtered(obj, part);
 161:..\..\..\arduinoLCD\test\Pain Drain\libraries\lvgl\src\core/lv_obj_draw.c ****             }
 162:..\..\..\arduinoLCD\test\Pain Drain\libraries\lvgl\src\core/lv_obj_draw.c ****         }
 163:..\..\..\arduinoLCD\test\Pain Drain\libraries\lvgl\src\core/lv_obj_draw.c ****     }
 164:..\..\..\arduinoLCD\test\Pain Drain\libraries\lvgl\src\core/lv_obj_draw.c **** 
 165:..\..\..\arduinoLCD\test\Pain Drain\libraries\lvgl\src\core/lv_obj_draw.c ****     if(draw_dsc->bg_img_opa != LV_OPA_TRANSP) {
 166:..\..\..\arduinoLCD\test\Pain Drain\libraries\lvgl\src\core/lv_obj_draw.c ****         draw_dsc->bg_img_src = lv_obj_get_style_bg_img_src(obj, part);
 167:..\..\..\arduinoLCD\test\Pain Drain\libraries\lvgl\src\core/lv_obj_draw.c ****         if(draw_dsc->bg_img_src) {
 168:..\..\..\arduinoLCD\test\Pain Drain\libraries\lvgl\src\core/lv_obj_draw.c ****             draw_dsc->bg_img_opa = lv_obj_get_style_bg_img_opa(obj, part);
 169:..\..\..\arduinoLCD\test\Pain Drain\libraries\lvgl\src\core/lv_obj_draw.c ****             if(draw_dsc->bg_img_opa > LV_OPA_MIN) {
 170:..\..\..\arduinoLCD\test\Pain Drain\libraries\lvgl\src\core/lv_obj_draw.c ****                 if(lv_img_src_get_type(draw_dsc->bg_img_src) == LV_IMG_SRC_SYMBOL) {
 171:..\..\..\arduinoLCD\test\Pain Drain\libraries\lvgl\src\core/lv_obj_draw.c ****                     draw_dsc->bg_img_symbol_font = lv_obj_get_style_text_font(obj, part);
 172:..\..\..\arduinoLCD\test\Pain Drain\libraries\lvgl\src\core/lv_obj_draw.c ****                     draw_dsc->bg_img_recolor = lv_obj_get_style_text_color_filtered(obj, part);
 173:..\..\..\arduinoLCD\test\Pain Drain\libraries\lvgl\src\core/lv_obj_draw.c ****                 }
 174:..\..\..\arduinoLCD\test\Pain Drain\libraries\lvgl\src\core/lv_obj_draw.c ****                 else {
 175:..\..\..\arduinoLCD\test\Pain Drain\libraries\lvgl\src\core/lv_obj_draw.c ****                     draw_dsc->bg_img_recolor = lv_obj_get_style_bg_img_recolor_filtered(obj, part);
 176:..\..\..\arduinoLCD\test\Pain Drain\libraries\lvgl\src\core/lv_obj_draw.c ****                     draw_dsc->bg_img_recolor_opa = lv_obj_get_style_bg_img_recolor_opa(obj, part);
 177:..\..\..\arduinoLCD\test\Pain Drain\libraries\lvgl\src\core/lv_obj_draw.c ****                     draw_dsc->bg_img_tiled = lv_obj_get_style_bg_img_tiled(obj, part);
 178:..\..\..\arduinoLCD\test\Pain Drain\libraries\lvgl\src\core/lv_obj_draw.c ****                 }
 179:..\..\..\arduinoLCD\test\Pain Drain\libraries\lvgl\src\core/lv_obj_draw.c ****             }
 180:..\..\..\arduinoLCD\test\Pain Drain\libraries\lvgl\src\core/lv_obj_draw.c ****         }
 181:..\..\..\arduinoLCD\test\Pain Drain\libraries\lvgl\src\core/lv_obj_draw.c ****     }
 182:..\..\..\arduinoLCD\test\Pain Drain\libraries\lvgl\src\core/lv_obj_draw.c **** #endif
 183:..\..\..\arduinoLCD\test\Pain Drain\libraries\lvgl\src\core/lv_obj_draw.c **** 
 184:..\..\..\arduinoLCD\test\Pain Drain\libraries\lvgl\src\core/lv_obj_draw.c ****     if(part != LV_PART_MAIN) {
 698              		.loc 1 184 0
 699 02bc 002D     		cmp	r5, #0
 700 02be 0DD0     		beq	.L1
 185:..\..\..\arduinoLCD\test\Pain Drain\libraries\lvgl\src\core/lv_obj_draw.c ****         if(opa < LV_OPA_MAX) {
 701              		.loc 1 185 0
 702 02c0 FC2F     		cmp	r7, #252
 703 02c2 0BD8     		bhi	.L1
 186:..\..\..\arduinoLCD\test\Pain Drain\libraries\lvgl\src\core/lv_obj_draw.c ****             draw_dsc->bg_opa = (opa * draw_dsc->shadow_opa) >> 8;
 704              		.loc 1 186 0
 705 02c4 3622     		movs	r2, #54
 706 02c6 A35C     		ldrb	r3, [r4, r2]
ARM GAS  C:\Users\haske\AppData\Local\Temp\cc4f9rxb.s 			page 27


 707 02c8 7B43     		muls	r3, r7
 708 02ca 1B12     		asrs	r3, r3, #8
 709 02cc DBB2     		uxtb	r3, r3
 710 02ce E370     		strb	r3, [r4, #3]
 187:..\..\..\arduinoLCD\test\Pain Drain\libraries\lvgl\src\core/lv_obj_draw.c ****             draw_dsc->bg_img_opa = (opa * draw_dsc->shadow_opa) >> 8;
 711              		.loc 1 187 0
 712 02d0 A376     		strb	r3, [r4, #26]
 188:..\..\..\arduinoLCD\test\Pain Drain\libraries\lvgl\src\core/lv_obj_draw.c ****             draw_dsc->border_opa = (opa * draw_dsc->shadow_opa) >> 8;
 713              		.loc 1 188 0
 714 02d2 2221     		movs	r1, #34
 715 02d4 6354     		strb	r3, [r4, r1]
 189:..\..\..\arduinoLCD\test\Pain Drain\libraries\lvgl\src\core/lv_obj_draw.c ****             draw_dsc->outline_opa = (opa * draw_dsc->shadow_opa) >> 8;
 716              		.loc 1 189 0
 717 02d6 0831     		adds	r1, r1, #8
 718 02d8 6354     		strb	r3, [r4, r1]
 190:..\..\..\arduinoLCD\test\Pain Drain\libraries\lvgl\src\core/lv_obj_draw.c ****             draw_dsc->shadow_opa = (opa * draw_dsc->shadow_opa) >> 8;
 719              		.loc 1 190 0
 720 02da A354     		strb	r3, [r4, r2]
 721              	.LVL102:
 722              	.L1:
 191:..\..\..\arduinoLCD\test\Pain Drain\libraries\lvgl\src\core/lv_obj_draw.c ****         }
 192:..\..\..\arduinoLCD\test\Pain Drain\libraries\lvgl\src\core/lv_obj_draw.c ****     }
 193:..\..\..\arduinoLCD\test\Pain Drain\libraries\lvgl\src\core/lv_obj_draw.c **** }
 723              		.loc 1 193 0
 724              		@ sp needed
 725              	.LVL103:
 726              	.LVL104:
 727              	.LVL105:
 728 02dc F8BD     		pop	{r3, r4, r5, r6, r7, pc}
 729              		.cfi_endproc
 730              	.LFE165:
 731              		.size	lv_obj_init_draw_rect_dsc, .-lv_obj_init_draw_rect_dsc
 732 02de C046     		.section	.text.lv_obj_init_draw_label_dsc,"ax",%progbits
 733              		.align	2
 734              		.global	lv_obj_init_draw_label_dsc
 735              		.code	16
 736              		.thumb_func
 737              		.type	lv_obj_init_draw_label_dsc, %function
 738              	lv_obj_init_draw_label_dsc:
 739              	.LFB166:
 194:..\..\..\arduinoLCD\test\Pain Drain\libraries\lvgl\src\core/lv_obj_draw.c **** 
 195:..\..\..\arduinoLCD\test\Pain Drain\libraries\lvgl\src\core/lv_obj_draw.c **** void lv_obj_init_draw_label_dsc(lv_obj_t * obj, uint32_t part, lv_draw_label_dsc_t * draw_dsc)
 196:..\..\..\arduinoLCD\test\Pain Drain\libraries\lvgl\src\core/lv_obj_draw.c **** {
 740              		.loc 1 196 0
 741              		.cfi_startproc
 742              		@ args = 0, pretend = 0, frame = 0
 743              		@ frame_needed = 0, uses_anonymous_args = 0
 744              	.LVL106:
 745 0000 70B5     		push	{r4, r5, r6, lr}
 746              		.cfi_def_cfa_offset 16
 747              		.cfi_offset 4, -16
 748              		.cfi_offset 5, -12
 749              		.cfi_offset 6, -8
 750              		.cfi_offset 14, -4
 751 0002 0600     		movs	r6, r0
 752 0004 0C00     		movs	r4, r1
 753 0006 1500     		movs	r5, r2
ARM GAS  C:\Users\haske\AppData\Local\Temp\cc4f9rxb.s 			page 28


 754              	.LVL107:
 755              	.LBB288:
 756              	.LBB289:
 459:..\..\..\arduinoLCD\test\Pain Drain\libraries\lvgl\src\core/lv_obj_style_gen.h ****     return (lv_opa_t)v.num;
 757              		.loc 2 459 0
 758 0008 5622     		movs	r2, #86
 759              	.LVL108:
 760 000a FFF7FEFF 		bl	lv_obj_get_style_prop
 761              	.LVL109:
 460:..\..\..\arduinoLCD\test\Pain Drain\libraries\lvgl\src\core/lv_obj_style_gen.h **** }
 762              		.loc 2 460 0
 763 000e C0B2     		uxtb	r0, r0
 764              	.LVL110:
 765              	.LBE289:
 766              	.LBE288:
 197:..\..\..\arduinoLCD\test\Pain Drain\libraries\lvgl\src\core/lv_obj_draw.c ****     draw_dsc->opa = lv_obj_get_style_text_opa(obj, part);
 767              		.loc 1 197 0
 768 0010 A876     		strb	r0, [r5, #26]
 198:..\..\..\arduinoLCD\test\Pain Drain\libraries\lvgl\src\core/lv_obj_draw.c ****     if(draw_dsc->opa <= LV_OPA_MIN) return;
 769              		.loc 1 198 0
 770 0012 0228     		cmp	r0, #2
 771 0014 52D9     		bls	.L14
 199:..\..\..\arduinoLCD\test\Pain Drain\libraries\lvgl\src\core/lv_obj_draw.c **** 
 200:..\..\..\arduinoLCD\test\Pain Drain\libraries\lvgl\src\core/lv_obj_draw.c ****     if(part != LV_PART_MAIN) {
 772              		.loc 1 200 0
 773 0016 002C     		cmp	r4, #0
 774 0018 12D0     		beq	.L16
 775              	.LVL111:
 776              	.LBB290:
 777              	.LBB291:
 778              	.LBB292:
 507:..\..\..\arduinoLCD\test\Pain Drain\libraries\lvgl\src\core/lv_obj_style_gen.h ****     return (lv_opa_t)v.num;
 779              		.loc 2 507 0
 780 001a 6022     		movs	r2, #96
 781 001c 2100     		movs	r1, r4
 782 001e 3000     		movs	r0, r6
 783 0020 FFF7FEFF 		bl	lv_obj_get_style_prop
 784              	.LVL112:
 508:..\..\..\arduinoLCD\test\Pain Drain\libraries\lvgl\src\core/lv_obj_style_gen.h **** }
 785              		.loc 2 508 0
 786 0024 C3B2     		uxtb	r3, r0
 787              	.LVL113:
 788              	.LBE292:
 789              	.LBE291:
 201:..\..\..\arduinoLCD\test\Pain Drain\libraries\lvgl\src\core/lv_obj_draw.c ****         lv_opa_t opa = lv_obj_get_style_opa(obj, part);
 202:..\..\..\arduinoLCD\test\Pain Drain\libraries\lvgl\src\core/lv_obj_draw.c ****         if(opa <= LV_OPA_MIN) {
 790              		.loc 1 202 0
 791 0026 022B     		cmp	r3, #2
 792 0028 02D8     		bhi	.L17
 203:..\..\..\arduinoLCD\test\Pain Drain\libraries\lvgl\src\core/lv_obj_draw.c ****             draw_dsc->opa = LV_OPA_TRANSP;
 793              		.loc 1 203 0
 794 002a 0023     		movs	r3, #0
 795 002c AB76     		strb	r3, [r5, #26]
 204:..\..\..\arduinoLCD\test\Pain Drain\libraries\lvgl\src\core/lv_obj_draw.c ****             return;
 796              		.loc 1 204 0
 797 002e 45E0     		b	.L14
 798              	.L17:
ARM GAS  C:\Users\haske\AppData\Local\Temp\cc4f9rxb.s 			page 29


 205:..\..\..\arduinoLCD\test\Pain Drain\libraries\lvgl\src\core/lv_obj_draw.c ****         }
 206:..\..\..\arduinoLCD\test\Pain Drain\libraries\lvgl\src\core/lv_obj_draw.c ****         if(opa < LV_OPA_MAX) {
 799              		.loc 1 206 0
 800 0030 FC2B     		cmp	r3, #252
 801 0032 05D8     		bhi	.L16
 207:..\..\..\arduinoLCD\test\Pain Drain\libraries\lvgl\src\core/lv_obj_draw.c ****             draw_dsc->opa = (opa * draw_dsc->opa) >> 8;
 802              		.loc 1 207 0
 803 0034 AB7E     		ldrb	r3, [r5, #26]
 804 0036 FF22     		movs	r2, #255
 805 0038 1040     		ands	r0, r2
 806 003a 5843     		muls	r0, r3
 807 003c 0012     		asrs	r0, r0, #8
 808 003e A876     		strb	r0, [r5, #26]
 809              	.L16:
 810              	.LVL114:
 811              	.LBE290:
 812              	.LBB293:
 813              	.LBB294:
 453:..\..\..\arduinoLCD\test\Pain Drain\libraries\lvgl\src\core/lv_obj_style_gen.h ****     return v.color;
 814              		.loc 2 453 0
 815 0040 5522     		movs	r2, #85
 816 0042 2100     		movs	r1, r4
 817 0044 3000     		movs	r0, r6
 818 0046 FFF7FEFF 		bl	lv_obj_get_style_prop
 819              	.LVL115:
 820 004a 0200     		movs	r2, r0
 821 004c 2100     		movs	r1, r4
 822 004e 3000     		movs	r0, r6
 823 0050 FFF7FEFF 		bl	_lv_obj_style_apply_color_filter
 824              	.LVL116:
 825              	.LBE294:
 826              	.LBE293:
 208:..\..\..\arduinoLCD\test\Pain Drain\libraries\lvgl\src\core/lv_obj_draw.c ****         }
 209:..\..\..\arduinoLCD\test\Pain Drain\libraries\lvgl\src\core/lv_obj_draw.c ****     }
 210:..\..\..\arduinoLCD\test\Pain Drain\libraries\lvgl\src\core/lv_obj_draw.c **** 
 211:..\..\..\arduinoLCD\test\Pain Drain\libraries\lvgl\src\core/lv_obj_draw.c ****     draw_dsc->color = lv_obj_get_style_text_color_filtered(obj, part);
 827              		.loc 1 211 0
 828 0054 A881     		strh	r0, [r5, #12]
 829              	.LVL117:
 830              	.LBB295:
 831              	.LBB296:
 471:..\..\..\arduinoLCD\test\Pain Drain\libraries\lvgl\src\core/lv_obj_style_gen.h ****     return (lv_coord_t)v.num;
 832              		.loc 2 471 0
 833 0056 5822     		movs	r2, #88
 834 0058 2100     		movs	r1, r4
 835 005a 3000     		movs	r0, r6
 836 005c FFF7FEFF 		bl	lv_obj_get_style_prop
 837              	.LVL118:
 838              	.LBE296:
 839              	.LBE295:
 212:..\..\..\arduinoLCD\test\Pain Drain\libraries\lvgl\src\core/lv_obj_draw.c ****     draw_dsc->letter_space = lv_obj_get_style_text_letter_space(obj, part);
 840              		.loc 1 212 0
 841 0060 A882     		strh	r0, [r5, #20]
 842              	.LVL119:
 843              	.LBB297:
 844              	.LBB298:
 477:..\..\..\arduinoLCD\test\Pain Drain\libraries\lvgl\src\core/lv_obj_style_gen.h ****     return (lv_coord_t)v.num;
ARM GAS  C:\Users\haske\AppData\Local\Temp\cc4f9rxb.s 			page 30


 845              		.loc 2 477 0
 846 0062 5922     		movs	r2, #89
 847 0064 2100     		movs	r1, r4
 848 0066 3000     		movs	r0, r6
 849 0068 FFF7FEFF 		bl	lv_obj_get_style_prop
 850              	.LVL120:
 851              	.LBE298:
 852              	.LBE297:
 213:..\..\..\arduinoLCD\test\Pain Drain\libraries\lvgl\src\core/lv_obj_draw.c ****     draw_dsc->line_space = lv_obj_get_style_text_line_space(obj, part);
 853              		.loc 1 213 0
 854 006c 6882     		strh	r0, [r5, #18]
 855              	.LVL121:
 856              	.LBB299:
 857              	.LBB300:
 483:..\..\..\arduinoLCD\test\Pain Drain\libraries\lvgl\src\core/lv_obj_style_gen.h ****     return (lv_text_decor_t)v.num;
 858              		.loc 2 483 0
 859 006e 5A22     		movs	r2, #90
 860 0070 2100     		movs	r1, r4
 861 0072 3000     		movs	r0, r6
 862 0074 FFF7FEFF 		bl	lv_obj_get_style_prop
 863              	.LVL122:
 864              	.LBE300:
 865              	.LBE299:
 214:..\..\..\arduinoLCD\test\Pain Drain\libraries\lvgl\src\core/lv_obj_draw.c ****     draw_dsc->decor = lv_obj_get_style_text_decor(obj, part);
 866              		.loc 1 214 0
 867 0078 0723     		movs	r3, #7
 868              	.LVL123:
 869 007a 1840     		ands	r0, r3
 870              	.LVL124:
 871 007c AB7F     		ldrb	r3, [r5, #30]
 872 007e 0722     		movs	r2, #7
 873 0080 9343     		bics	r3, r2
 874 0082 1843     		orrs	r0, r3
 875 0084 A877     		strb	r0, [r5, #30]
 215:..\..\..\arduinoLCD\test\Pain Drain\libraries\lvgl\src\core/lv_obj_draw.c **** #if LV_DRAW_COMPLEX
 216:..\..\..\arduinoLCD\test\Pain Drain\libraries\lvgl\src\core/lv_obj_draw.c ****     if(part != LV_PART_MAIN) draw_dsc->blend_mode = lv_obj_get_style_blend_mode(obj, part);
 876              		.loc 1 216 0
 877 0086 002C     		cmp	r4, #0
 878 0088 0CD0     		beq	.L18
 879              	.LVL125:
 880              	.LBB301:
 881              	.LBB302:
 882              		.loc 2 549 0
 883 008a 6032     		adds	r2, r2, #96
 884 008c 2100     		movs	r1, r4
 885 008e 3000     		movs	r0, r6
 886 0090 FFF7FEFF 		bl	lv_obj_get_style_prop
 887              	.LVL126:
 888              	.LBE302:
 889              	.LBE301:
 890              		.loc 1 216 0
 891 0094 0723     		movs	r3, #7
 892              	.LVL127:
 893 0096 1840     		ands	r0, r3
 894              	.LVL128:
 895 0098 C300     		lsls	r3, r0, #3
 896 009a A87F     		ldrb	r0, [r5, #30]
ARM GAS  C:\Users\haske\AppData\Local\Temp\cc4f9rxb.s 			page 31


 897 009c 3822     		movs	r2, #56
 898 009e 9043     		bics	r0, r2
 899 00a0 1843     		orrs	r0, r3
 900 00a2 A877     		strb	r0, [r5, #30]
 901              	.L18:
 902              	.LVL129:
 903              	.LBB303:
 904              	.LBB304:
 465:..\..\..\arduinoLCD\test\Pain Drain\libraries\lvgl\src\core/lv_obj_style_gen.h ****     return (const lv_font_t *)v.ptr;
 905              		.loc 2 465 0
 906 00a4 5722     		movs	r2, #87
 907 00a6 2100     		movs	r1, r4
 908 00a8 3000     		movs	r0, r6
 909 00aa FFF7FEFF 		bl	lv_obj_get_style_prop
 910              	.LVL130:
 911              	.LBE304:
 912              	.LBE303:
 217:..\..\..\arduinoLCD\test\Pain Drain\libraries\lvgl\src\core/lv_obj_draw.c **** #endif
 218:..\..\..\arduinoLCD\test\Pain Drain\libraries\lvgl\src\core/lv_obj_draw.c **** 
 219:..\..\..\arduinoLCD\test\Pain Drain\libraries\lvgl\src\core/lv_obj_draw.c ****     draw_dsc->font = lv_obj_get_style_text_font(obj, part);
 913              		.loc 1 219 0
 914 00ae 2860     		str	r0, [r5]
 915              	.LVL131:
 916              	.LBB305:
 917              	.LBB306:
 489:..\..\..\arduinoLCD\test\Pain Drain\libraries\lvgl\src\core/lv_obj_style_gen.h ****     return (lv_text_align_t)v.num;
 918              		.loc 2 489 0
 919 00b0 5B22     		movs	r2, #91
 920 00b2 2100     		movs	r1, r4
 921 00b4 3000     		movs	r0, r6
 922              	.LVL132:
 923 00b6 FFF7FEFF 		bl	lv_obj_get_style_prop
 924              	.LVL133:
 925              	.LBE306:
 926              	.LBE305:
 220:..\..\..\arduinoLCD\test\Pain Drain\libraries\lvgl\src\core/lv_obj_draw.c **** 
 221:..\..\..\arduinoLCD\test\Pain Drain\libraries\lvgl\src\core/lv_obj_draw.c **** #if LV_USE_BIDI
 222:..\..\..\arduinoLCD\test\Pain Drain\libraries\lvgl\src\core/lv_obj_draw.c ****     draw_dsc->bidi_dir = lv_obj_get_style_base_dir(obj, LV_PART_MAIN);
 223:..\..\..\arduinoLCD\test\Pain Drain\libraries\lvgl\src\core/lv_obj_draw.c **** #endif
 224:..\..\..\arduinoLCD\test\Pain Drain\libraries\lvgl\src\core/lv_obj_draw.c **** 
 225:..\..\..\arduinoLCD\test\Pain Drain\libraries\lvgl\src\core/lv_obj_draw.c ****     draw_dsc->align = lv_obj_get_style_text_align(obj, part);
 927              		.loc 1 225 0
 928 00ba 2877     		strb	r0, [r5, #28]
 929              	.L14:
 226:..\..\..\arduinoLCD\test\Pain Drain\libraries\lvgl\src\core/lv_obj_draw.c **** }
 930              		.loc 1 226 0
 931              		@ sp needed
 932              	.LVL134:
 933              	.LVL135:
 934              	.LVL136:
 935 00bc 70BD     		pop	{r4, r5, r6, pc}
 936              		.cfi_endproc
 937              	.LFE166:
 938              		.size	lv_obj_init_draw_label_dsc, .-lv_obj_init_draw_label_dsc
 939 00be C046     		.section	.text.lv_obj_init_draw_img_dsc,"ax",%progbits
 940              		.align	2
 941              		.global	lv_obj_init_draw_img_dsc
ARM GAS  C:\Users\haske\AppData\Local\Temp\cc4f9rxb.s 			page 32


 942              		.code	16
 943              		.thumb_func
 944              		.type	lv_obj_init_draw_img_dsc, %function
 945              	lv_obj_init_draw_img_dsc:
 946              	.LFB167:
 227:..\..\..\arduinoLCD\test\Pain Drain\libraries\lvgl\src\core/lv_obj_draw.c **** 
 228:..\..\..\arduinoLCD\test\Pain Drain\libraries\lvgl\src\core/lv_obj_draw.c **** void lv_obj_init_draw_img_dsc(lv_obj_t * obj, uint32_t part, lv_draw_img_dsc_t * draw_dsc)
 229:..\..\..\arduinoLCD\test\Pain Drain\libraries\lvgl\src\core/lv_obj_draw.c **** {
 947              		.loc 1 229 0
 948              		.cfi_startproc
 949              		@ args = 0, pretend = 0, frame = 0
 950              		@ frame_needed = 0, uses_anonymous_args = 0
 951              	.LVL137:
 952 0000 70B5     		push	{r4, r5, r6, lr}
 953              		.cfi_def_cfa_offset 16
 954              		.cfi_offset 4, -16
 955              		.cfi_offset 5, -12
 956              		.cfi_offset 6, -8
 957              		.cfi_offset 14, -4
 958 0002 0400     		movs	r4, r0
 959 0004 0D00     		movs	r5, r1
 960 0006 1600     		movs	r6, r2
 961              	.LVL138:
 962              	.LBB322:
 963              	.LBB323:
 345:..\..\..\arduinoLCD\test\Pain Drain\libraries\lvgl\src\core/lv_obj_style_gen.h ****     return (lv_opa_t)v.num;
 964              		.loc 2 345 0
 965 0008 4622     		movs	r2, #70
 966              	.LVL139:
 967 000a FFF7FEFF 		bl	lv_obj_get_style_prop
 968              	.LVL140:
 346:..\..\..\arduinoLCD\test\Pain Drain\libraries\lvgl\src\core/lv_obj_style_gen.h **** }
 969              		.loc 2 346 0
 970 000e C0B2     		uxtb	r0, r0
 971              	.LVL141:
 972              	.LBE323:
 973              	.LBE322:
 230:..\..\..\arduinoLCD\test\Pain Drain\libraries\lvgl\src\core/lv_obj_draw.c ****     draw_dsc->opa = lv_obj_get_style_img_opa(obj, part);
 974              		.loc 1 230 0
 975 0010 F072     		strb	r0, [r6, #11]
 231:..\..\..\arduinoLCD\test\Pain Drain\libraries\lvgl\src\core/lv_obj_draw.c ****     if(draw_dsc->opa <= LV_OPA_MIN) return;
 976              		.loc 1 231 0
 977 0012 0228     		cmp	r0, #2
 978 0014 51D9     		bls	.L19
 232:..\..\..\arduinoLCD\test\Pain Drain\libraries\lvgl\src\core/lv_obj_draw.c **** 
 233:..\..\..\arduinoLCD\test\Pain Drain\libraries\lvgl\src\core/lv_obj_draw.c ****     if(part != LV_PART_MAIN) {
 979              		.loc 1 233 0
 980 0016 002D     		cmp	r5, #0
 981 0018 12D0     		beq	.L21
 982              	.LVL142:
 983              	.LBB324:
 984              	.LBB325:
 985              	.LBB326:
 507:..\..\..\arduinoLCD\test\Pain Drain\libraries\lvgl\src\core/lv_obj_style_gen.h ****     return (lv_opa_t)v.num;
 986              		.loc 2 507 0
 987 001a 6022     		movs	r2, #96
 988 001c 2900     		movs	r1, r5
ARM GAS  C:\Users\haske\AppData\Local\Temp\cc4f9rxb.s 			page 33


 989 001e 2000     		movs	r0, r4
 990 0020 FFF7FEFF 		bl	lv_obj_get_style_prop
 991              	.LVL143:
 508:..\..\..\arduinoLCD\test\Pain Drain\libraries\lvgl\src\core/lv_obj_style_gen.h **** }
 992              		.loc 2 508 0
 993 0024 C3B2     		uxtb	r3, r0
 994              	.LVL144:
 995              	.LBE326:
 996              	.LBE325:
 234:..\..\..\arduinoLCD\test\Pain Drain\libraries\lvgl\src\core/lv_obj_draw.c ****         lv_opa_t opa = lv_obj_get_style_opa(obj, part);
 235:..\..\..\arduinoLCD\test\Pain Drain\libraries\lvgl\src\core/lv_obj_draw.c ****         if(opa <= LV_OPA_MIN) {
 997              		.loc 1 235 0
 998 0026 022B     		cmp	r3, #2
 999 0028 02D8     		bhi	.L22
 236:..\..\..\arduinoLCD\test\Pain Drain\libraries\lvgl\src\core/lv_obj_draw.c ****             draw_dsc->opa = LV_OPA_TRANSP;
 1000              		.loc 1 236 0
 1001 002a 0023     		movs	r3, #0
 1002 002c F372     		strb	r3, [r6, #11]
 237:..\..\..\arduinoLCD\test\Pain Drain\libraries\lvgl\src\core/lv_obj_draw.c ****             return;
 1003              		.loc 1 237 0
 1004 002e 44E0     		b	.L19
 1005              	.L22:
 238:..\..\..\arduinoLCD\test\Pain Drain\libraries\lvgl\src\core/lv_obj_draw.c ****         }
 239:..\..\..\arduinoLCD\test\Pain Drain\libraries\lvgl\src\core/lv_obj_draw.c ****         if(opa < LV_OPA_MAX) {
 1006              		.loc 1 239 0
 1007 0030 FC2B     		cmp	r3, #252
 1008 0032 05D8     		bhi	.L21
 240:..\..\..\arduinoLCD\test\Pain Drain\libraries\lvgl\src\core/lv_obj_draw.c ****             draw_dsc->opa = (opa * draw_dsc->opa) >> 8;
 1009              		.loc 1 240 0
 1010 0034 F37A     		ldrb	r3, [r6, #11]
 1011 0036 FF22     		movs	r2, #255
 1012 0038 1040     		ands	r0, r2
 1013 003a 5843     		muls	r0, r3
 1014 003c 0012     		asrs	r0, r0, #8
 1015 003e F072     		strb	r0, [r6, #11]
 1016              	.L21:
 1017              	.LBE324:
 241:..\..\..\arduinoLCD\test\Pain Drain\libraries\lvgl\src\core/lv_obj_draw.c ****         }
 242:..\..\..\arduinoLCD\test\Pain Drain\libraries\lvgl\src\core/lv_obj_draw.c ****     }
 243:..\..\..\arduinoLCD\test\Pain Drain\libraries\lvgl\src\core/lv_obj_draw.c **** 
 244:..\..\..\arduinoLCD\test\Pain Drain\libraries\lvgl\src\core/lv_obj_draw.c ****     draw_dsc->angle = 0;
 1018              		.loc 1 244 0
 1019 0040 0023     		movs	r3, #0
 1020 0042 3380     		strh	r3, [r6]
 245:..\..\..\arduinoLCD\test\Pain Drain\libraries\lvgl\src\core/lv_obj_draw.c ****     draw_dsc->zoom = LV_IMG_ZOOM_NONE;
 1021              		.loc 1 245 0
 1022 0044 0133     		adds	r3, r3, #1
 1023 0046 FF33     		adds	r3, r3, #255
 1024 0048 7380     		strh	r3, [r6, #2]
 1025              	.LVL145:
 1026              	.LBB327:
 1027              	.LBB328:
 1028              		.file 3 "c:\\projects\\paindrain\\arduinolcd\\test\\pain drain\\libraries\\lvgl\\src\\misc\\lv_are
   1:c:\projects\paindrain\arduinolcd\test\pain drain\libraries\lvgl\src\misc\lv_area.h **** /**
   2:c:\projects\paindrain\arduinolcd\test\pain drain\libraries\lvgl\src\misc\lv_area.h ****  * @file lv_area.h
   3:c:\projects\paindrain\arduinolcd\test\pain drain\libraries\lvgl\src\misc\lv_area.h ****  *
   4:c:\projects\paindrain\arduinolcd\test\pain drain\libraries\lvgl\src\misc\lv_area.h ****  */
ARM GAS  C:\Users\haske\AppData\Local\Temp\cc4f9rxb.s 			page 34


   5:c:\projects\paindrain\arduinolcd\test\pain drain\libraries\lvgl\src\misc\lv_area.h **** 
   6:c:\projects\paindrain\arduinolcd\test\pain drain\libraries\lvgl\src\misc\lv_area.h **** #ifndef LV_AREA_H
   7:c:\projects\paindrain\arduinolcd\test\pain drain\libraries\lvgl\src\misc\lv_area.h **** #define LV_AREA_H
   8:c:\projects\paindrain\arduinolcd\test\pain drain\libraries\lvgl\src\misc\lv_area.h **** 
   9:c:\projects\paindrain\arduinolcd\test\pain drain\libraries\lvgl\src\misc\lv_area.h **** #ifdef __cplusplus
  10:c:\projects\paindrain\arduinolcd\test\pain drain\libraries\lvgl\src\misc\lv_area.h **** extern "C" {
  11:c:\projects\paindrain\arduinolcd\test\pain drain\libraries\lvgl\src\misc\lv_area.h **** #endif
  12:c:\projects\paindrain\arduinolcd\test\pain drain\libraries\lvgl\src\misc\lv_area.h **** 
  13:c:\projects\paindrain\arduinolcd\test\pain drain\libraries\lvgl\src\misc\lv_area.h **** /*********************
  14:c:\projects\paindrain\arduinolcd\test\pain drain\libraries\lvgl\src\misc\lv_area.h ****  *      INCLUDES
  15:c:\projects\paindrain\arduinolcd\test\pain drain\libraries\lvgl\src\misc\lv_area.h ****  *********************/
  16:c:\projects\paindrain\arduinolcd\test\pain drain\libraries\lvgl\src\misc\lv_area.h **** #include "../lv_conf_internal.h"
  17:c:\projects\paindrain\arduinolcd\test\pain drain\libraries\lvgl\src\misc\lv_area.h **** #include <stdbool.h>
  18:c:\projects\paindrain\arduinolcd\test\pain drain\libraries\lvgl\src\misc\lv_area.h **** #include <stdint.h>
  19:c:\projects\paindrain\arduinolcd\test\pain drain\libraries\lvgl\src\misc\lv_area.h **** 
  20:c:\projects\paindrain\arduinolcd\test\pain drain\libraries\lvgl\src\misc\lv_area.h **** /*********************
  21:c:\projects\paindrain\arduinolcd\test\pain drain\libraries\lvgl\src\misc\lv_area.h ****  *      DEFINES
  22:c:\projects\paindrain\arduinolcd\test\pain drain\libraries\lvgl\src\misc\lv_area.h ****  *********************/
  23:c:\projects\paindrain\arduinolcd\test\pain drain\libraries\lvgl\src\misc\lv_area.h **** 
  24:c:\projects\paindrain\arduinolcd\test\pain drain\libraries\lvgl\src\misc\lv_area.h **** #if LV_USE_LARGE_COORD
  25:c:\projects\paindrain\arduinolcd\test\pain drain\libraries\lvgl\src\misc\lv_area.h **** typedef int32_t lv_coord_t;
  26:c:\projects\paindrain\arduinolcd\test\pain drain\libraries\lvgl\src\misc\lv_area.h **** #else
  27:c:\projects\paindrain\arduinolcd\test\pain drain\libraries\lvgl\src\misc\lv_area.h **** typedef int16_t lv_coord_t;
  28:c:\projects\paindrain\arduinolcd\test\pain drain\libraries\lvgl\src\misc\lv_area.h **** #endif
  29:c:\projects\paindrain\arduinolcd\test\pain drain\libraries\lvgl\src\misc\lv_area.h **** 
  30:c:\projects\paindrain\arduinolcd\test\pain drain\libraries\lvgl\src\misc\lv_area.h **** /**********************
  31:c:\projects\paindrain\arduinolcd\test\pain drain\libraries\lvgl\src\misc\lv_area.h ****  *      TYPEDEFS
  32:c:\projects\paindrain\arduinolcd\test\pain drain\libraries\lvgl\src\misc\lv_area.h ****  **********************/
  33:c:\projects\paindrain\arduinolcd\test\pain drain\libraries\lvgl\src\misc\lv_area.h **** 
  34:c:\projects\paindrain\arduinolcd\test\pain drain\libraries\lvgl\src\misc\lv_area.h **** /**
  35:c:\projects\paindrain\arduinolcd\test\pain drain\libraries\lvgl\src\misc\lv_area.h ****  * Represents a point on the screen.
  36:c:\projects\paindrain\arduinolcd\test\pain drain\libraries\lvgl\src\misc\lv_area.h ****  */
  37:c:\projects\paindrain\arduinolcd\test\pain drain\libraries\lvgl\src\misc\lv_area.h **** typedef struct {
  38:c:\projects\paindrain\arduinolcd\test\pain drain\libraries\lvgl\src\misc\lv_area.h ****     lv_coord_t x;
  39:c:\projects\paindrain\arduinolcd\test\pain drain\libraries\lvgl\src\misc\lv_area.h ****     lv_coord_t y;
  40:c:\projects\paindrain\arduinolcd\test\pain drain\libraries\lvgl\src\misc\lv_area.h **** } lv_point_t;
  41:c:\projects\paindrain\arduinolcd\test\pain drain\libraries\lvgl\src\misc\lv_area.h **** 
  42:c:\projects\paindrain\arduinolcd\test\pain drain\libraries\lvgl\src\misc\lv_area.h **** /** Represents an area of the screen.*/
  43:c:\projects\paindrain\arduinolcd\test\pain drain\libraries\lvgl\src\misc\lv_area.h **** typedef struct {
  44:c:\projects\paindrain\arduinolcd\test\pain drain\libraries\lvgl\src\misc\lv_area.h ****     lv_coord_t x1;
  45:c:\projects\paindrain\arduinolcd\test\pain drain\libraries\lvgl\src\misc\lv_area.h ****     lv_coord_t y1;
  46:c:\projects\paindrain\arduinolcd\test\pain drain\libraries\lvgl\src\misc\lv_area.h ****     lv_coord_t x2;
  47:c:\projects\paindrain\arduinolcd\test\pain drain\libraries\lvgl\src\misc\lv_area.h ****     lv_coord_t y2;
  48:c:\projects\paindrain\arduinolcd\test\pain drain\libraries\lvgl\src\misc\lv_area.h **** } lv_area_t;
  49:c:\projects\paindrain\arduinolcd\test\pain drain\libraries\lvgl\src\misc\lv_area.h **** 
  50:c:\projects\paindrain\arduinolcd\test\pain drain\libraries\lvgl\src\misc\lv_area.h **** /** Alignments*/
  51:c:\projects\paindrain\arduinolcd\test\pain drain\libraries\lvgl\src\misc\lv_area.h **** enum {
  52:c:\projects\paindrain\arduinolcd\test\pain drain\libraries\lvgl\src\misc\lv_area.h ****     LV_ALIGN_DEFAULT = 0,
  53:c:\projects\paindrain\arduinolcd\test\pain drain\libraries\lvgl\src\misc\lv_area.h ****     LV_ALIGN_TOP_LEFT,
  54:c:\projects\paindrain\arduinolcd\test\pain drain\libraries\lvgl\src\misc\lv_area.h ****     LV_ALIGN_TOP_MID,
  55:c:\projects\paindrain\arduinolcd\test\pain drain\libraries\lvgl\src\misc\lv_area.h ****     LV_ALIGN_TOP_RIGHT,
  56:c:\projects\paindrain\arduinolcd\test\pain drain\libraries\lvgl\src\misc\lv_area.h ****     LV_ALIGN_BOTTOM_LEFT,
  57:c:\projects\paindrain\arduinolcd\test\pain drain\libraries\lvgl\src\misc\lv_area.h ****     LV_ALIGN_BOTTOM_MID,
  58:c:\projects\paindrain\arduinolcd\test\pain drain\libraries\lvgl\src\misc\lv_area.h ****     LV_ALIGN_BOTTOM_RIGHT,
  59:c:\projects\paindrain\arduinolcd\test\pain drain\libraries\lvgl\src\misc\lv_area.h ****     LV_ALIGN_LEFT_MID,
  60:c:\projects\paindrain\arduinolcd\test\pain drain\libraries\lvgl\src\misc\lv_area.h ****     LV_ALIGN_RIGHT_MID,
  61:c:\projects\paindrain\arduinolcd\test\pain drain\libraries\lvgl\src\misc\lv_area.h ****     LV_ALIGN_CENTER,
ARM GAS  C:\Users\haske\AppData\Local\Temp\cc4f9rxb.s 			page 35


  62:c:\projects\paindrain\arduinolcd\test\pain drain\libraries\lvgl\src\misc\lv_area.h **** 
  63:c:\projects\paindrain\arduinolcd\test\pain drain\libraries\lvgl\src\misc\lv_area.h ****     LV_ALIGN_OUT_TOP_LEFT,
  64:c:\projects\paindrain\arduinolcd\test\pain drain\libraries\lvgl\src\misc\lv_area.h ****     LV_ALIGN_OUT_TOP_MID,
  65:c:\projects\paindrain\arduinolcd\test\pain drain\libraries\lvgl\src\misc\lv_area.h ****     LV_ALIGN_OUT_TOP_RIGHT,
  66:c:\projects\paindrain\arduinolcd\test\pain drain\libraries\lvgl\src\misc\lv_area.h ****     LV_ALIGN_OUT_BOTTOM_LEFT,
  67:c:\projects\paindrain\arduinolcd\test\pain drain\libraries\lvgl\src\misc\lv_area.h ****     LV_ALIGN_OUT_BOTTOM_MID,
  68:c:\projects\paindrain\arduinolcd\test\pain drain\libraries\lvgl\src\misc\lv_area.h ****     LV_ALIGN_OUT_BOTTOM_RIGHT,
  69:c:\projects\paindrain\arduinolcd\test\pain drain\libraries\lvgl\src\misc\lv_area.h ****     LV_ALIGN_OUT_LEFT_TOP,
  70:c:\projects\paindrain\arduinolcd\test\pain drain\libraries\lvgl\src\misc\lv_area.h ****     LV_ALIGN_OUT_LEFT_MID,
  71:c:\projects\paindrain\arduinolcd\test\pain drain\libraries\lvgl\src\misc\lv_area.h ****     LV_ALIGN_OUT_LEFT_BOTTOM,
  72:c:\projects\paindrain\arduinolcd\test\pain drain\libraries\lvgl\src\misc\lv_area.h ****     LV_ALIGN_OUT_RIGHT_TOP,
  73:c:\projects\paindrain\arduinolcd\test\pain drain\libraries\lvgl\src\misc\lv_area.h ****     LV_ALIGN_OUT_RIGHT_MID,
  74:c:\projects\paindrain\arduinolcd\test\pain drain\libraries\lvgl\src\misc\lv_area.h ****     LV_ALIGN_OUT_RIGHT_BOTTOM,
  75:c:\projects\paindrain\arduinolcd\test\pain drain\libraries\lvgl\src\misc\lv_area.h **** };
  76:c:\projects\paindrain\arduinolcd\test\pain drain\libraries\lvgl\src\misc\lv_area.h **** typedef uint8_t lv_align_t;
  77:c:\projects\paindrain\arduinolcd\test\pain drain\libraries\lvgl\src\misc\lv_area.h **** 
  78:c:\projects\paindrain\arduinolcd\test\pain drain\libraries\lvgl\src\misc\lv_area.h **** enum {
  79:c:\projects\paindrain\arduinolcd\test\pain drain\libraries\lvgl\src\misc\lv_area.h ****     LV_DIR_NONE     = 0x00,
  80:c:\projects\paindrain\arduinolcd\test\pain drain\libraries\lvgl\src\misc\lv_area.h ****     LV_DIR_LEFT     = (1 << 0),
  81:c:\projects\paindrain\arduinolcd\test\pain drain\libraries\lvgl\src\misc\lv_area.h ****     LV_DIR_RIGHT    = (1 << 1),
  82:c:\projects\paindrain\arduinolcd\test\pain drain\libraries\lvgl\src\misc\lv_area.h ****     LV_DIR_TOP      = (1 << 2),
  83:c:\projects\paindrain\arduinolcd\test\pain drain\libraries\lvgl\src\misc\lv_area.h ****     LV_DIR_BOTTOM   = (1 << 3),
  84:c:\projects\paindrain\arduinolcd\test\pain drain\libraries\lvgl\src\misc\lv_area.h ****     LV_DIR_HOR      = LV_DIR_LEFT | LV_DIR_RIGHT,
  85:c:\projects\paindrain\arduinolcd\test\pain drain\libraries\lvgl\src\misc\lv_area.h ****     LV_DIR_VER      = LV_DIR_TOP | LV_DIR_BOTTOM,
  86:c:\projects\paindrain\arduinolcd\test\pain drain\libraries\lvgl\src\misc\lv_area.h ****     LV_DIR_ALL      = LV_DIR_HOR | LV_DIR_VER,
  87:c:\projects\paindrain\arduinolcd\test\pain drain\libraries\lvgl\src\misc\lv_area.h **** };
  88:c:\projects\paindrain\arduinolcd\test\pain drain\libraries\lvgl\src\misc\lv_area.h **** 
  89:c:\projects\paindrain\arduinolcd\test\pain drain\libraries\lvgl\src\misc\lv_area.h **** typedef uint8_t lv_dir_t;
  90:c:\projects\paindrain\arduinolcd\test\pain drain\libraries\lvgl\src\misc\lv_area.h **** 
  91:c:\projects\paindrain\arduinolcd\test\pain drain\libraries\lvgl\src\misc\lv_area.h **** /**********************
  92:c:\projects\paindrain\arduinolcd\test\pain drain\libraries\lvgl\src\misc\lv_area.h ****  * GLOBAL PROTOTYPES
  93:c:\projects\paindrain\arduinolcd\test\pain drain\libraries\lvgl\src\misc\lv_area.h ****  **********************/
  94:c:\projects\paindrain\arduinolcd\test\pain drain\libraries\lvgl\src\misc\lv_area.h **** 
  95:c:\projects\paindrain\arduinolcd\test\pain drain\libraries\lvgl\src\misc\lv_area.h **** /**
  96:c:\projects\paindrain\arduinolcd\test\pain drain\libraries\lvgl\src\misc\lv_area.h ****  * Initialize an area
  97:c:\projects\paindrain\arduinolcd\test\pain drain\libraries\lvgl\src\misc\lv_area.h ****  * @param area_p pointer to an area
  98:c:\projects\paindrain\arduinolcd\test\pain drain\libraries\lvgl\src\misc\lv_area.h ****  * @param x1 left coordinate of the area
  99:c:\projects\paindrain\arduinolcd\test\pain drain\libraries\lvgl\src\misc\lv_area.h ****  * @param y1 top coordinate of the area
 100:c:\projects\paindrain\arduinolcd\test\pain drain\libraries\lvgl\src\misc\lv_area.h ****  * @param x2 right coordinate of the area
 101:c:\projects\paindrain\arduinolcd\test\pain drain\libraries\lvgl\src\misc\lv_area.h ****  * @param y2 bottom coordinate of the area
 102:c:\projects\paindrain\arduinolcd\test\pain drain\libraries\lvgl\src\misc\lv_area.h ****  */
 103:c:\projects\paindrain\arduinolcd\test\pain drain\libraries\lvgl\src\misc\lv_area.h **** void lv_area_set(lv_area_t * area_p, lv_coord_t x1, lv_coord_t y1, lv_coord_t x2, lv_coord_t y2);
 104:c:\projects\paindrain\arduinolcd\test\pain drain\libraries\lvgl\src\misc\lv_area.h **** 
 105:c:\projects\paindrain\arduinolcd\test\pain drain\libraries\lvgl\src\misc\lv_area.h **** /**
 106:c:\projects\paindrain\arduinolcd\test\pain drain\libraries\lvgl\src\misc\lv_area.h ****  * Copy an area
 107:c:\projects\paindrain\arduinolcd\test\pain drain\libraries\lvgl\src\misc\lv_area.h ****  * @param dest pointer to the destination area
 108:c:\projects\paindrain\arduinolcd\test\pain drain\libraries\lvgl\src\misc\lv_area.h ****  * @param src pointer to the source area
 109:c:\projects\paindrain\arduinolcd\test\pain drain\libraries\lvgl\src\misc\lv_area.h ****  */
 110:c:\projects\paindrain\arduinolcd\test\pain drain\libraries\lvgl\src\misc\lv_area.h **** inline static void lv_area_copy(lv_area_t * dest, const lv_area_t * src)
 111:c:\projects\paindrain\arduinolcd\test\pain drain\libraries\lvgl\src\misc\lv_area.h **** {
 112:c:\projects\paindrain\arduinolcd\test\pain drain\libraries\lvgl\src\misc\lv_area.h ****     dest->x1 = src->x1;
 113:c:\projects\paindrain\arduinolcd\test\pain drain\libraries\lvgl\src\misc\lv_area.h ****     dest->y1 = src->y1;
 114:c:\projects\paindrain\arduinolcd\test\pain drain\libraries\lvgl\src\misc\lv_area.h ****     dest->x2 = src->x2;
 115:c:\projects\paindrain\arduinolcd\test\pain drain\libraries\lvgl\src\misc\lv_area.h ****     dest->y2 = src->y2;
 116:c:\projects\paindrain\arduinolcd\test\pain drain\libraries\lvgl\src\misc\lv_area.h **** }
 117:c:\projects\paindrain\arduinolcd\test\pain drain\libraries\lvgl\src\misc\lv_area.h **** 
 118:c:\projects\paindrain\arduinolcd\test\pain drain\libraries\lvgl\src\misc\lv_area.h **** /**
ARM GAS  C:\Users\haske\AppData\Local\Temp\cc4f9rxb.s 			page 36


 119:c:\projects\paindrain\arduinolcd\test\pain drain\libraries\lvgl\src\misc\lv_area.h ****  * Get the width of an area
 120:c:\projects\paindrain\arduinolcd\test\pain drain\libraries\lvgl\src\misc\lv_area.h ****  * @param area_p pointer to an area
 121:c:\projects\paindrain\arduinolcd\test\pain drain\libraries\lvgl\src\misc\lv_area.h ****  * @return the width of the area (if x1 == x2 -> width = 1)
 122:c:\projects\paindrain\arduinolcd\test\pain drain\libraries\lvgl\src\misc\lv_area.h ****  */
 123:c:\projects\paindrain\arduinolcd\test\pain drain\libraries\lvgl\src\misc\lv_area.h **** static inline lv_coord_t lv_area_get_width(const lv_area_t * area_p)
 124:c:\projects\paindrain\arduinolcd\test\pain drain\libraries\lvgl\src\misc\lv_area.h **** {
 125:c:\projects\paindrain\arduinolcd\test\pain drain\libraries\lvgl\src\misc\lv_area.h ****     return (lv_coord_t)(area_p->x2 - area_p->x1 + 1);
 1029              		.loc 3 125 0
 1030 004a 1822     		movs	r2, #24
 1031 004c A35E     		ldrsh	r3, [r4, r2]
 1032 004e 1421     		movs	r1, #20
 1033 0050 625E     		ldrsh	r2, [r4, r1]
 1034 0052 9B1A     		subs	r3, r3, r2
 1035 0054 0133     		adds	r3, r3, #1
 1036 0056 1BB2     		sxth	r3, r3
 1037              	.LVL146:
 1038              	.LBE328:
 1039              	.LBE327:
 246:..\..\..\arduinoLCD\test\Pain Drain\libraries\lvgl\src\core/lv_obj_draw.c ****     draw_dsc->pivot.x = lv_area_get_width(&obj->coords) / 2;
 1040              		.loc 1 246 0
 1041 0058 DA0F     		lsrs	r2, r3, #31
 1042 005a D318     		adds	r3, r2, r3
 1043 005c 5B10     		asrs	r3, r3, #1
 1044 005e B380     		strh	r3, [r6, #4]
 1045              	.LVL147:
 1046              	.LBB329:
 1047              	.LBB330:
 126:c:\projects\paindrain\arduinolcd\test\pain drain\libraries\lvgl\src\misc\lv_area.h **** }
 127:c:\projects\paindrain\arduinolcd\test\pain drain\libraries\lvgl\src\misc\lv_area.h **** 
 128:c:\projects\paindrain\arduinolcd\test\pain drain\libraries\lvgl\src\misc\lv_area.h **** /**
 129:c:\projects\paindrain\arduinolcd\test\pain drain\libraries\lvgl\src\misc\lv_area.h ****  * Get the height of an area
 130:c:\projects\paindrain\arduinolcd\test\pain drain\libraries\lvgl\src\misc\lv_area.h ****  * @param area_p pointer to an area
 131:c:\projects\paindrain\arduinolcd\test\pain drain\libraries\lvgl\src\misc\lv_area.h ****  * @return the height of the area (if y1 == y2 -> height = 1)
 132:c:\projects\paindrain\arduinolcd\test\pain drain\libraries\lvgl\src\misc\lv_area.h ****  */
 133:c:\projects\paindrain\arduinolcd\test\pain drain\libraries\lvgl\src\misc\lv_area.h **** static inline lv_coord_t lv_area_get_height(const lv_area_t * area_p)
 134:c:\projects\paindrain\arduinolcd\test\pain drain\libraries\lvgl\src\misc\lv_area.h **** {
 135:c:\projects\paindrain\arduinolcd\test\pain drain\libraries\lvgl\src\misc\lv_area.h ****     return (lv_coord_t)(area_p->y2 - area_p->y1 + 1);
 1048              		.loc 3 135 0
 1049 0060 1A22     		movs	r2, #26
 1050 0062 A35E     		ldrsh	r3, [r4, r2]
 1051 0064 1621     		movs	r1, #22
 1052 0066 625E     		ldrsh	r2, [r4, r1]
 1053 0068 9B1A     		subs	r3, r3, r2
 1054 006a 0133     		adds	r3, r3, #1
 1055 006c 1BB2     		sxth	r3, r3
 1056              	.LVL148:
 1057              	.LBE330:
 1058              	.LBE329:
 247:..\..\..\arduinoLCD\test\Pain Drain\libraries\lvgl\src\core/lv_obj_draw.c ****     draw_dsc->pivot.y = lv_area_get_height(&obj->coords) / 2;
 1059              		.loc 1 247 0
 1060 006e DA0F     		lsrs	r2, r3, #31
 1061 0070 D318     		adds	r3, r2, r3
 1062 0072 5B10     		asrs	r3, r3, #1
 1063 0074 F380     		strh	r3, [r6, #6]
 1064              	.LVL149:
 1065              	.LBB331:
 1066              	.LBB332:
ARM GAS  C:\Users\haske\AppData\Local\Temp\cc4f9rxb.s 			page 37


 363:..\..\..\arduinoLCD\test\Pain Drain\libraries\lvgl\src\core/lv_obj_style_gen.h ****     return (lv_opa_t)v.num;
 1067              		.loc 2 363 0
 1068 0076 4822     		movs	r2, #72
 1069 0078 2900     		movs	r1, r5
 1070 007a 2000     		movs	r0, r4
 1071 007c FFF7FEFF 		bl	lv_obj_get_style_prop
 1072              	.LVL150:
 364:..\..\..\arduinoLCD\test\Pain Drain\libraries\lvgl\src\core/lv_obj_style_gen.h **** }
 1073              		.loc 2 364 0
 1074 0080 C0B2     		uxtb	r0, r0
 1075              	.LVL151:
 1076              	.LBE332:
 1077              	.LBE331:
 248:..\..\..\arduinoLCD\test\Pain Drain\libraries\lvgl\src\core/lv_obj_draw.c **** 
 249:..\..\..\arduinoLCD\test\Pain Drain\libraries\lvgl\src\core/lv_obj_draw.c ****     draw_dsc->recolor_opa = lv_obj_get_style_img_recolor_opa(obj, part);
 1078              		.loc 1 249 0
 1079 0082 B072     		strb	r0, [r6, #10]
 250:..\..\..\arduinoLCD\test\Pain Drain\libraries\lvgl\src\core/lv_obj_draw.c ****     if(draw_dsc->recolor_opa > 0) {
 1080              		.loc 1 250 0
 1081 0084 0028     		cmp	r0, #0
 1082 0086 0AD0     		beq	.L23
 1083              	.LVL152:
 1084              	.LBB333:
 1085              	.LBB334:
 357:..\..\..\arduinoLCD\test\Pain Drain\libraries\lvgl\src\core/lv_obj_style_gen.h ****     return v.color;
 1086              		.loc 2 357 0
 1087 0088 4722     		movs	r2, #71
 1088 008a 2900     		movs	r1, r5
 1089 008c 2000     		movs	r0, r4
 1090 008e FFF7FEFF 		bl	lv_obj_get_style_prop
 1091              	.LVL153:
 1092 0092 0200     		movs	r2, r0
 1093 0094 2900     		movs	r1, r5
 1094 0096 2000     		movs	r0, r4
 1095 0098 FFF7FEFF 		bl	_lv_obj_style_apply_color_filter
 1096              	.LVL154:
 1097              	.LBE334:
 1098              	.LBE333:
 251:..\..\..\arduinoLCD\test\Pain Drain\libraries\lvgl\src\core/lv_obj_draw.c ****         draw_dsc->recolor = lv_obj_get_style_img_recolor_filtered(obj, part);
 1099              		.loc 1 251 0
 1100 009c 3081     		strh	r0, [r6, #8]
 1101              	.L23:
 252:..\..\..\arduinoLCD\test\Pain Drain\libraries\lvgl\src\core/lv_obj_draw.c ****     }
 253:..\..\..\arduinoLCD\test\Pain Drain\libraries\lvgl\src\core/lv_obj_draw.c **** #if LV_DRAW_COMPLEX
 254:..\..\..\arduinoLCD\test\Pain Drain\libraries\lvgl\src\core/lv_obj_draw.c ****     if(part != LV_PART_MAIN) draw_dsc->blend_mode = lv_obj_get_style_blend_mode(obj, part);
 1102              		.loc 1 254 0
 1103 009e 002D     		cmp	r5, #0
 1104 00a0 0BD0     		beq	.L19
 1105              	.LVL155:
 1106              	.LBB335:
 1107              	.LBB336:
 1108              		.loc 2 549 0
 1109 00a2 6722     		movs	r2, #103
 1110 00a4 2900     		movs	r1, r5
 1111 00a6 2000     		movs	r0, r4
 1112 00a8 FFF7FEFF 		bl	lv_obj_get_style_prop
 1113              	.LVL156:
ARM GAS  C:\Users\haske\AppData\Local\Temp\cc4f9rxb.s 			page 38


 1114              	.LBE336:
 1115              	.LBE335:
 1116              		.loc 1 254 0
 1117 00ac 0F23     		movs	r3, #15
 1118              	.LVL157:
 1119 00ae 1840     		ands	r0, r3
 1120              	.LVL158:
 1121 00b0 337B     		ldrb	r3, [r6, #12]
 1122 00b2 0F22     		movs	r2, #15
 1123 00b4 9343     		bics	r3, r2
 1124 00b6 1843     		orrs	r0, r3
 1125 00b8 3073     		strb	r0, [r6, #12]
 1126              	.L19:
 255:..\..\..\arduinoLCD\test\Pain Drain\libraries\lvgl\src\core/lv_obj_draw.c **** #endif
 256:..\..\..\arduinoLCD\test\Pain Drain\libraries\lvgl\src\core/lv_obj_draw.c **** }
 1127              		.loc 1 256 0
 1128              		@ sp needed
 1129              	.LVL159:
 1130              	.LVL160:
 1131              	.LVL161:
 1132 00ba 70BD     		pop	{r4, r5, r6, pc}
 1133              		.cfi_endproc
 1134              	.LFE167:
 1135              		.size	lv_obj_init_draw_img_dsc, .-lv_obj_init_draw_img_dsc
 1136              		.section	.text.lv_obj_init_draw_line_dsc,"ax",%progbits
 1137              		.align	2
 1138              		.global	lv_obj_init_draw_line_dsc
 1139              		.code	16
 1140              		.thumb_func
 1141              		.type	lv_obj_init_draw_line_dsc, %function
 1142              	lv_obj_init_draw_line_dsc:
 1143              	.LFB168:
 257:..\..\..\arduinoLCD\test\Pain Drain\libraries\lvgl\src\core/lv_obj_draw.c **** 
 258:..\..\..\arduinoLCD\test\Pain Drain\libraries\lvgl\src\core/lv_obj_draw.c **** void lv_obj_init_draw_line_dsc(lv_obj_t * obj, uint32_t part, lv_draw_line_dsc_t * draw_dsc)
 259:..\..\..\arduinoLCD\test\Pain Drain\libraries\lvgl\src\core/lv_obj_draw.c **** {
 1144              		.loc 1 259 0
 1145              		.cfi_startproc
 1146              		@ args = 0, pretend = 0, frame = 0
 1147              		@ frame_needed = 0, uses_anonymous_args = 0
 1148              	.LVL162:
 1149 0000 70B5     		push	{r4, r5, r6, lr}
 1150              		.cfi_def_cfa_offset 16
 1151              		.cfi_offset 4, -16
 1152              		.cfi_offset 5, -12
 1153              		.cfi_offset 6, -8
 1154              		.cfi_offset 14, -4
 1155 0002 0500     		movs	r5, r0
 1156 0004 0C00     		movs	r4, r1
 1157 0006 1600     		movs	r6, r2
 1158              	.LVL163:
 1159              	.LBB354:
 1160              	.LBB355:
 405:..\..\..\arduinoLCD\test\Pain Drain\libraries\lvgl\src\core/lv_obj_style_gen.h ****     return (lv_opa_t)v.num;
 1161              		.loc 2 405 0
 1162 0008 4E22     		movs	r2, #78
 1163              	.LVL164:
 1164 000a FFF7FEFF 		bl	lv_obj_get_style_prop
ARM GAS  C:\Users\haske\AppData\Local\Temp\cc4f9rxb.s 			page 39


 1165              	.LVL165:
 406:..\..\..\arduinoLCD\test\Pain Drain\libraries\lvgl\src\core/lv_obj_style_gen.h **** }
 1166              		.loc 2 406 0
 1167 000e C0B2     		uxtb	r0, r0
 1168              	.LVL166:
 1169              	.LBE355:
 1170              	.LBE354:
 260:..\..\..\arduinoLCD\test\Pain Drain\libraries\lvgl\src\core/lv_obj_draw.c ****     draw_dsc->opa = lv_obj_get_style_line_opa(obj, part);
 1171              		.loc 1 260 0
 1172 0010 3072     		strb	r0, [r6, #8]
 261:..\..\..\arduinoLCD\test\Pain Drain\libraries\lvgl\src\core/lv_obj_draw.c ****     if(draw_dsc->opa <= LV_OPA_MIN)  return;
 1173              		.loc 1 261 0
 1174 0012 0228     		cmp	r0, #2
 1175 0014 56D9     		bls	.L24
 262:..\..\..\arduinoLCD\test\Pain Drain\libraries\lvgl\src\core/lv_obj_draw.c **** 
 263:..\..\..\arduinoLCD\test\Pain Drain\libraries\lvgl\src\core/lv_obj_draw.c ****     if(part != LV_PART_MAIN) {
 1176              		.loc 1 263 0
 1177 0016 002C     		cmp	r4, #0
 1178 0018 12D0     		beq	.L26
 1179              	.LVL167:
 1180              	.LBB356:
 1181              	.LBB357:
 1182              	.LBB358:
 507:..\..\..\arduinoLCD\test\Pain Drain\libraries\lvgl\src\core/lv_obj_style_gen.h ****     return (lv_opa_t)v.num;
 1183              		.loc 2 507 0
 1184 001a 6022     		movs	r2, #96
 1185 001c 2100     		movs	r1, r4
 1186 001e 2800     		movs	r0, r5
 1187 0020 FFF7FEFF 		bl	lv_obj_get_style_prop
 1188              	.LVL168:
 508:..\..\..\arduinoLCD\test\Pain Drain\libraries\lvgl\src\core/lv_obj_style_gen.h **** }
 1189              		.loc 2 508 0
 1190 0024 C3B2     		uxtb	r3, r0
 1191              	.LVL169:
 1192              	.LBE358:
 1193              	.LBE357:
 264:..\..\..\arduinoLCD\test\Pain Drain\libraries\lvgl\src\core/lv_obj_draw.c ****         lv_opa_t opa = lv_obj_get_style_opa(obj, part);
 265:..\..\..\arduinoLCD\test\Pain Drain\libraries\lvgl\src\core/lv_obj_draw.c ****         if(opa <= LV_OPA_MIN) {
 1194              		.loc 1 265 0
 1195 0026 022B     		cmp	r3, #2
 1196 0028 02D8     		bhi	.L27
 266:..\..\..\arduinoLCD\test\Pain Drain\libraries\lvgl\src\core/lv_obj_draw.c ****             draw_dsc->opa = LV_OPA_TRANSP;
 1197              		.loc 1 266 0
 1198 002a 0023     		movs	r3, #0
 1199 002c 3372     		strb	r3, [r6, #8]
 267:..\..\..\arduinoLCD\test\Pain Drain\libraries\lvgl\src\core/lv_obj_draw.c ****             return;
 1200              		.loc 1 267 0
 1201 002e 49E0     		b	.L24
 1202              	.L27:
 268:..\..\..\arduinoLCD\test\Pain Drain\libraries\lvgl\src\core/lv_obj_draw.c ****         }
 269:..\..\..\arduinoLCD\test\Pain Drain\libraries\lvgl\src\core/lv_obj_draw.c ****         if(opa < LV_OPA_MAX) {
 1203              		.loc 1 269 0
 1204 0030 FC2B     		cmp	r3, #252
 1205 0032 05D8     		bhi	.L26
 270:..\..\..\arduinoLCD\test\Pain Drain\libraries\lvgl\src\core/lv_obj_draw.c ****             draw_dsc->opa = (opa * draw_dsc->opa) >> 8;
 1206              		.loc 1 270 0
 1207 0034 337A     		ldrb	r3, [r6, #8]
ARM GAS  C:\Users\haske\AppData\Local\Temp\cc4f9rxb.s 			page 40


 1208 0036 FF22     		movs	r2, #255
 1209 0038 1040     		ands	r0, r2
 1210 003a 5843     		muls	r0, r3
 1211 003c 0012     		asrs	r0, r0, #8
 1212 003e 3072     		strb	r0, [r6, #8]
 1213              	.L26:
 1214              	.LVL170:
 1215              	.LBE356:
 1216              	.LBB359:
 1217              	.LBB360:
 369:..\..\..\arduinoLCD\test\Pain Drain\libraries\lvgl\src\core/lv_obj_style_gen.h ****     return (lv_coord_t)v.num;
 1218              		.loc 2 369 0
 1219 0040 4922     		movs	r2, #73
 1220 0042 2100     		movs	r1, r4
 1221 0044 2800     		movs	r0, r5
 1222 0046 FFF7FEFF 		bl	lv_obj_get_style_prop
 1223              	.LVL171:
 370:..\..\..\arduinoLCD\test\Pain Drain\libraries\lvgl\src\core/lv_obj_style_gen.h **** }
 1224              		.loc 2 370 0
 1225 004a 00B2     		sxth	r0, r0
 1226              	.LVL172:
 1227              	.LBE360:
 1228              	.LBE359:
 271:..\..\..\arduinoLCD\test\Pain Drain\libraries\lvgl\src\core/lv_obj_draw.c ****         }
 272:..\..\..\arduinoLCD\test\Pain Drain\libraries\lvgl\src\core/lv_obj_draw.c ****     }
 273:..\..\..\arduinoLCD\test\Pain Drain\libraries\lvgl\src\core/lv_obj_draw.c **** 
 274:..\..\..\arduinoLCD\test\Pain Drain\libraries\lvgl\src\core/lv_obj_draw.c ****     draw_dsc->width = lv_obj_get_style_line_width(obj, part);
 1229              		.loc 1 274 0
 1230 004c 7080     		strh	r0, [r6, #2]
 275:..\..\..\arduinoLCD\test\Pain Drain\libraries\lvgl\src\core/lv_obj_draw.c ****     if(draw_dsc->width == 0) return;
 1231              		.loc 1 275 0
 1232 004e 0028     		cmp	r0, #0
 1233 0050 38D0     		beq	.L24
 1234              	.LVL173:
 1235              	.LBB361:
 1236              	.LBB362:
 399:..\..\..\arduinoLCD\test\Pain Drain\libraries\lvgl\src\core/lv_obj_style_gen.h ****     return v.color;
 1237              		.loc 2 399 0
 1238 0052 4D22     		movs	r2, #77
 1239 0054 2100     		movs	r1, r4
 1240 0056 2800     		movs	r0, r5
 1241 0058 FFF7FEFF 		bl	lv_obj_get_style_prop
 1242              	.LVL174:
 1243 005c 0200     		movs	r2, r0
 1244 005e 2100     		movs	r1, r4
 1245 0060 2800     		movs	r0, r5
 1246 0062 FFF7FEFF 		bl	_lv_obj_style_apply_color_filter
 1247              	.LVL175:
 1248              	.LBE362:
 1249              	.LBE361:
 276:..\..\..\arduinoLCD\test\Pain Drain\libraries\lvgl\src\core/lv_obj_draw.c **** 
 277:..\..\..\arduinoLCD\test\Pain Drain\libraries\lvgl\src\core/lv_obj_draw.c ****     draw_dsc->color = lv_obj_get_style_line_color_filtered(obj, part);
 1250              		.loc 1 277 0
 1251 0066 3080     		strh	r0, [r6]
 1252              	.LVL176:
 1253              	.LBB363:
 1254              	.LBB364:
ARM GAS  C:\Users\haske\AppData\Local\Temp\cc4f9rxb.s 			page 41


 375:..\..\..\arduinoLCD\test\Pain Drain\libraries\lvgl\src\core/lv_obj_style_gen.h ****     return (lv_coord_t)v.num;
 1255              		.loc 2 375 0
 1256 0068 4A22     		movs	r2, #74
 1257 006a 2100     		movs	r1, r4
 1258 006c 2800     		movs	r0, r5
 1259 006e FFF7FEFF 		bl	lv_obj_get_style_prop
 1260              	.LVL177:
 376:..\..\..\arduinoLCD\test\Pain Drain\libraries\lvgl\src\core/lv_obj_style_gen.h **** }
 1261              		.loc 2 376 0
 1262 0072 00B2     		sxth	r0, r0
 1263              	.LVL178:
 1264              	.LBE364:
 1265              	.LBE363:
 278:..\..\..\arduinoLCD\test\Pain Drain\libraries\lvgl\src\core/lv_obj_draw.c **** 
 279:..\..\..\arduinoLCD\test\Pain Drain\libraries\lvgl\src\core/lv_obj_draw.c ****     draw_dsc->dash_width = lv_obj_get_style_line_dash_width(obj, part);
 1266              		.loc 1 279 0
 1267 0074 B080     		strh	r0, [r6, #4]
 280:..\..\..\arduinoLCD\test\Pain Drain\libraries\lvgl\src\core/lv_obj_draw.c ****     if(draw_dsc->dash_width) {
 1268              		.loc 1 280 0
 1269 0076 0028     		cmp	r0, #0
 1270 0078 05D0     		beq	.L28
 1271              	.LVL179:
 1272              	.LBB365:
 1273              	.LBB366:
 381:..\..\..\arduinoLCD\test\Pain Drain\libraries\lvgl\src\core/lv_obj_style_gen.h ****     return (lv_coord_t)v.num;
 1274              		.loc 2 381 0
 1275 007a 4B22     		movs	r2, #75
 1276 007c 2100     		movs	r1, r4
 1277 007e 2800     		movs	r0, r5
 1278 0080 FFF7FEFF 		bl	lv_obj_get_style_prop
 1279              	.LVL180:
 1280              	.LBE366:
 1281              	.LBE365:
 281:..\..\..\arduinoLCD\test\Pain Drain\libraries\lvgl\src\core/lv_obj_draw.c ****         draw_dsc->dash_gap = lv_obj_get_style_line_dash_gap(obj, part);
 1282              		.loc 1 281 0
 1283 0084 F080     		strh	r0, [r6, #6]
 1284              	.L28:
 1285              	.LVL181:
 1286              	.LBB367:
 1287              	.LBB368:
 387:..\..\..\arduinoLCD\test\Pain Drain\libraries\lvgl\src\core/lv_obj_style_gen.h ****     return (bool)v.num;
 1288              		.loc 2 387 0
 1289 0086 4C22     		movs	r2, #76
 1290 0088 2100     		movs	r1, r4
 1291 008a 2800     		movs	r0, r5
 1292 008c FFF7FEFF 		bl	lv_obj_get_style_prop
 1293              	.LVL182:
 1294              	.LBE368:
 1295              	.LBE367:
 282:..\..\..\arduinoLCD\test\Pain Drain\libraries\lvgl\src\core/lv_obj_draw.c ****     }
 283:..\..\..\arduinoLCD\test\Pain Drain\libraries\lvgl\src\core/lv_obj_draw.c **** 
 284:..\..\..\arduinoLCD\test\Pain Drain\libraries\lvgl\src\core/lv_obj_draw.c ****     draw_dsc->round_start = lv_obj_get_style_line_rounded(obj, part);
 1296              		.loc 1 284 0
 1297 0090 431E     		subs	r3, r0, #1
 1298 0092 9841     		sbcs	r0, r0, r3
 1299              	.LVL183:
 1300 0094 8200     		lsls	r2, r0, #2
ARM GAS  C:\Users\haske\AppData\Local\Temp\cc4f9rxb.s 			page 42


 1301 0096 737A     		ldrb	r3, [r6, #9]
 1302 0098 0421     		movs	r1, #4
 1303 009a 8B43     		bics	r3, r1
 285:..\..\..\arduinoLCD\test\Pain Drain\libraries\lvgl\src\core/lv_obj_draw.c ****     draw_dsc->round_end = draw_dsc->round_start;
 1304              		.loc 1 285 0
 1305 009c C000     		lsls	r0, r0, #3
 1306 009e 1343     		orrs	r3, r2
 1307 00a0 0822     		movs	r2, #8
 1308 00a2 9343     		bics	r3, r2
 1309 00a4 1843     		orrs	r0, r3
 1310 00a6 7072     		strb	r0, [r6, #9]
 286:..\..\..\arduinoLCD\test\Pain Drain\libraries\lvgl\src\core/lv_obj_draw.c **** 
 287:..\..\..\arduinoLCD\test\Pain Drain\libraries\lvgl\src\core/lv_obj_draw.c **** #if LV_DRAW_COMPLEX
 288:..\..\..\arduinoLCD\test\Pain Drain\libraries\lvgl\src\core/lv_obj_draw.c ****     if(part != LV_PART_MAIN) draw_dsc->blend_mode = lv_obj_get_style_blend_mode(obj, part);
 1311              		.loc 1 288 0
 1312 00a8 002C     		cmp	r4, #0
 1313 00aa 0BD0     		beq	.L24
 1314              	.LVL184:
 1315              	.LBB369:
 1316              	.LBB370:
 1317              		.loc 2 549 0
 1318 00ac 5F32     		adds	r2, r2, #95
 1319 00ae 2100     		movs	r1, r4
 1320 00b0 2800     		movs	r0, r5
 1321 00b2 FFF7FEFF 		bl	lv_obj_get_style_prop
 1322              	.LVL185:
 1323              	.LBE370:
 1324              	.LBE369:
 1325              		.loc 1 288 0
 1326 00b6 0323     		movs	r3, #3
 1327              	.LVL186:
 1328 00b8 1840     		ands	r0, r3
 1329              	.LVL187:
 1330 00ba 737A     		ldrb	r3, [r6, #9]
 1331 00bc 0322     		movs	r2, #3
 1332 00be 9343     		bics	r3, r2
 1333 00c0 1843     		orrs	r0, r3
 1334 00c2 7072     		strb	r0, [r6, #9]
 1335              	.L24:
 289:..\..\..\arduinoLCD\test\Pain Drain\libraries\lvgl\src\core/lv_obj_draw.c **** #endif
 290:..\..\..\arduinoLCD\test\Pain Drain\libraries\lvgl\src\core/lv_obj_draw.c **** }
 1336              		.loc 1 290 0
 1337              		@ sp needed
 1338              	.LVL188:
 1339              	.LVL189:
 1340              	.LVL190:
 1341 00c4 70BD     		pop	{r4, r5, r6, pc}
 1342              		.cfi_endproc
 1343              	.LFE168:
 1344              		.size	lv_obj_init_draw_line_dsc, .-lv_obj_init_draw_line_dsc
 1345 00c6 C046     		.section	.text.lv_obj_init_draw_arc_dsc,"ax",%progbits
 1346              		.align	2
 1347              		.global	lv_obj_init_draw_arc_dsc
 1348              		.code	16
 1349              		.thumb_func
 1350              		.type	lv_obj_init_draw_arc_dsc, %function
 1351              	lv_obj_init_draw_arc_dsc:
ARM GAS  C:\Users\haske\AppData\Local\Temp\cc4f9rxb.s 			page 43


 1352              	.LFB169:
 291:..\..\..\arduinoLCD\test\Pain Drain\libraries\lvgl\src\core/lv_obj_draw.c **** 
 292:..\..\..\arduinoLCD\test\Pain Drain\libraries\lvgl\src\core/lv_obj_draw.c **** void lv_obj_init_draw_arc_dsc(lv_obj_t * obj, uint32_t part, lv_draw_arc_dsc_t * draw_dsc)
 293:..\..\..\arduinoLCD\test\Pain Drain\libraries\lvgl\src\core/lv_obj_draw.c **** {
 1353              		.loc 1 293 0
 1354              		.cfi_startproc
 1355              		@ args = 0, pretend = 0, frame = 0
 1356              		@ frame_needed = 0, uses_anonymous_args = 0
 1357              	.LVL191:
 1358 0000 70B5     		push	{r4, r5, r6, lr}
 1359              		.cfi_def_cfa_offset 16
 1360              		.cfi_offset 4, -16
 1361              		.cfi_offset 5, -12
 1362              		.cfi_offset 6, -8
 1363              		.cfi_offset 14, -4
 1364 0002 0500     		movs	r5, r0
 1365 0004 0C00     		movs	r4, r1
 1366 0006 1600     		movs	r6, r2
 1367              	.LVL192:
 1368              	.LBB386:
 1369              	.LBB387:
 411:..\..\..\arduinoLCD\test\Pain Drain\libraries\lvgl\src\core/lv_obj_style_gen.h ****     return (lv_coord_t)v.num;
 1370              		.loc 2 411 0
 1371 0008 5022     		movs	r2, #80
 1372              	.LVL193:
 1373 000a FFF7FEFF 		bl	lv_obj_get_style_prop
 1374              	.LVL194:
 412:..\..\..\arduinoLCD\test\Pain Drain\libraries\lvgl\src\core/lv_obj_style_gen.h **** }
 1375              		.loc 2 412 0
 1376 000e 00B2     		sxth	r0, r0
 1377              	.LVL195:
 1378              	.LBE387:
 1379              	.LBE386:
 294:..\..\..\arduinoLCD\test\Pain Drain\libraries\lvgl\src\core/lv_obj_draw.c ****     draw_dsc->width = lv_obj_get_style_arc_width(obj, part);
 1380              		.loc 1 294 0
 1381 0010 7080     		strh	r0, [r6, #2]
 295:..\..\..\arduinoLCD\test\Pain Drain\libraries\lvgl\src\core/lv_obj_draw.c ****     if(draw_dsc->width == 0) return;
 1382              		.loc 1 295 0
 1383 0012 0028     		cmp	r0, #0
 1384 0014 49D0     		beq	.L29
 1385              	.LVL196:
 1386              	.LBB388:
 1387              	.LBB389:
 435:..\..\..\arduinoLCD\test\Pain Drain\libraries\lvgl\src\core/lv_obj_style_gen.h ****     return (lv_opa_t)v.num;
 1388              		.loc 2 435 0
 1389 0016 5322     		movs	r2, #83
 1390 0018 2100     		movs	r1, r4
 1391 001a 2800     		movs	r0, r5
 1392 001c FFF7FEFF 		bl	lv_obj_get_style_prop
 1393              	.LVL197:
 436:..\..\..\arduinoLCD\test\Pain Drain\libraries\lvgl\src\core/lv_obj_style_gen.h **** }
 1394              		.loc 2 436 0
 1395 0020 C0B2     		uxtb	r0, r0
 1396              	.LVL198:
 1397              	.LBE389:
 1398              	.LBE388:
 296:..\..\..\arduinoLCD\test\Pain Drain\libraries\lvgl\src\core/lv_obj_draw.c **** 
ARM GAS  C:\Users\haske\AppData\Local\Temp\cc4f9rxb.s 			page 44


 297:..\..\..\arduinoLCD\test\Pain Drain\libraries\lvgl\src\core/lv_obj_draw.c ****     draw_dsc->opa = lv_obj_get_style_arc_opa(obj, part);
 1399              		.loc 1 297 0
 1400 0022 3073     		strb	r0, [r6, #12]
 298:..\..\..\arduinoLCD\test\Pain Drain\libraries\lvgl\src\core/lv_obj_draw.c ****     if(draw_dsc->opa <= LV_OPA_MIN)  return;
 1401              		.loc 1 298 0
 1402 0024 0228     		cmp	r0, #2
 1403 0026 40D9     		bls	.L29
 299:..\..\..\arduinoLCD\test\Pain Drain\libraries\lvgl\src\core/lv_obj_draw.c **** 
 300:..\..\..\arduinoLCD\test\Pain Drain\libraries\lvgl\src\core/lv_obj_draw.c ****     if(part != LV_PART_MAIN) {
 1404              		.loc 1 300 0
 1405 0028 002C     		cmp	r4, #0
 1406 002a 12D0     		beq	.L31
 1407              	.LVL199:
 1408              	.LBB390:
 1409              	.LBB391:
 1410              	.LBB392:
 507:..\..\..\arduinoLCD\test\Pain Drain\libraries\lvgl\src\core/lv_obj_style_gen.h ****     return (lv_opa_t)v.num;
 1411              		.loc 2 507 0
 1412 002c 6022     		movs	r2, #96
 1413 002e 2100     		movs	r1, r4
 1414 0030 2800     		movs	r0, r5
 1415 0032 FFF7FEFF 		bl	lv_obj_get_style_prop
 1416              	.LVL200:
 508:..\..\..\arduinoLCD\test\Pain Drain\libraries\lvgl\src\core/lv_obj_style_gen.h **** }
 1417              		.loc 2 508 0
 1418 0036 C3B2     		uxtb	r3, r0
 1419              	.LVL201:
 1420              	.LBE392:
 1421              	.LBE391:
 301:..\..\..\arduinoLCD\test\Pain Drain\libraries\lvgl\src\core/lv_obj_draw.c ****         lv_opa_t opa = lv_obj_get_style_opa(obj, part);
 302:..\..\..\arduinoLCD\test\Pain Drain\libraries\lvgl\src\core/lv_obj_draw.c ****         if(opa <= LV_OPA_MIN) {
 1422              		.loc 1 302 0
 1423 0038 022B     		cmp	r3, #2
 1424 003a 02D8     		bhi	.L32
 303:..\..\..\arduinoLCD\test\Pain Drain\libraries\lvgl\src\core/lv_obj_draw.c ****             draw_dsc->opa = LV_OPA_TRANSP;
 1425              		.loc 1 303 0
 1426 003c 0023     		movs	r3, #0
 1427 003e 3373     		strb	r3, [r6, #12]
 304:..\..\..\arduinoLCD\test\Pain Drain\libraries\lvgl\src\core/lv_obj_draw.c ****             return;
 1428              		.loc 1 304 0
 1429 0040 33E0     		b	.L29
 1430              	.L32:
 305:..\..\..\arduinoLCD\test\Pain Drain\libraries\lvgl\src\core/lv_obj_draw.c ****         }
 306:..\..\..\arduinoLCD\test\Pain Drain\libraries\lvgl\src\core/lv_obj_draw.c ****         if(opa < LV_OPA_MAX) {
 1431              		.loc 1 306 0
 1432 0042 FC2B     		cmp	r3, #252
 1433 0044 05D8     		bhi	.L31
 307:..\..\..\arduinoLCD\test\Pain Drain\libraries\lvgl\src\core/lv_obj_draw.c ****             draw_dsc->opa = (opa * draw_dsc->opa) >> 8;
 1434              		.loc 1 307 0
 1435 0046 337B     		ldrb	r3, [r6, #12]
 1436 0048 FF22     		movs	r2, #255
 1437 004a 1040     		ands	r0, r2
 1438 004c 5843     		muls	r0, r3
 1439 004e 0012     		asrs	r0, r0, #8
 1440 0050 3073     		strb	r0, [r6, #12]
 1441              	.L31:
 1442              	.LVL202:
ARM GAS  C:\Users\haske\AppData\Local\Temp\cc4f9rxb.s 			page 45


 1443              	.LBE390:
 1444              	.LBB393:
 1445              	.LBB394:
 429:..\..\..\arduinoLCD\test\Pain Drain\libraries\lvgl\src\core/lv_obj_style_gen.h ****     return v.color;
 1446              		.loc 2 429 0
 1447 0052 5222     		movs	r2, #82
 1448 0054 2100     		movs	r1, r4
 1449 0056 2800     		movs	r0, r5
 1450 0058 FFF7FEFF 		bl	lv_obj_get_style_prop
 1451              	.LVL203:
 1452 005c 0200     		movs	r2, r0
 1453 005e 2100     		movs	r1, r4
 1454 0060 2800     		movs	r0, r5
 1455 0062 FFF7FEFF 		bl	_lv_obj_style_apply_color_filter
 1456              	.LVL204:
 1457              	.LBE394:
 1458              	.LBE393:
 308:..\..\..\arduinoLCD\test\Pain Drain\libraries\lvgl\src\core/lv_obj_draw.c ****         }
 309:..\..\..\arduinoLCD\test\Pain Drain\libraries\lvgl\src\core/lv_obj_draw.c ****     }
 310:..\..\..\arduinoLCD\test\Pain Drain\libraries\lvgl\src\core/lv_obj_draw.c **** 
 311:..\..\..\arduinoLCD\test\Pain Drain\libraries\lvgl\src\core/lv_obj_draw.c ****     draw_dsc->color = lv_obj_get_style_arc_color_filtered(obj, part);
 1459              		.loc 1 311 0
 1460 0066 3080     		strh	r0, [r6]
 1461              	.LVL205:
 1462              	.LBB395:
 1463              	.LBB396:
 441:..\..\..\arduinoLCD\test\Pain Drain\libraries\lvgl\src\core/lv_obj_style_gen.h ****     return (const void *)v.ptr;
 1464              		.loc 2 441 0
 1465 0068 5422     		movs	r2, #84
 1466 006a 2100     		movs	r1, r4
 1467 006c 2800     		movs	r0, r5
 1468 006e FFF7FEFF 		bl	lv_obj_get_style_prop
 1469              	.LVL206:
 1470              	.LBE396:
 1471              	.LBE395:
 312:..\..\..\arduinoLCD\test\Pain Drain\libraries\lvgl\src\core/lv_obj_draw.c ****     draw_dsc->img_src = lv_obj_get_style_arc_img_src(obj, part);
 1472              		.loc 1 312 0
 1473 0072 B060     		str	r0, [r6, #8]
 1474              	.LVL207:
 1475              	.LBB397:
 1476              	.LBB398:
 417:..\..\..\arduinoLCD\test\Pain Drain\libraries\lvgl\src\core/lv_obj_style_gen.h ****     return (bool)v.num;
 1477              		.loc 2 417 0
 1478 0074 5122     		movs	r2, #81
 1479 0076 2100     		movs	r1, r4
 1480 0078 2800     		movs	r0, r5
 1481              	.LVL208:
 1482 007a FFF7FEFF 		bl	lv_obj_get_style_prop
 1483              	.LVL209:
 1484              	.LBE398:
 1485              	.LBE397:
 313:..\..\..\arduinoLCD\test\Pain Drain\libraries\lvgl\src\core/lv_obj_draw.c **** 
 314:..\..\..\arduinoLCD\test\Pain Drain\libraries\lvgl\src\core/lv_obj_draw.c ****     draw_dsc->rounded = lv_obj_get_style_arc_rounded(obj, part);
 1486              		.loc 1 314 0
 1487 007e 431E     		subs	r3, r0, #1
 1488 0080 9841     		sbcs	r0, r0, r3
 1489              	.LVL210:
ARM GAS  C:\Users\haske\AppData\Local\Temp\cc4f9rxb.s 			page 46


 1490 0082 8300     		lsls	r3, r0, #2
 1491 0084 707B     		ldrb	r0, [r6, #13]
 1492 0086 0422     		movs	r2, #4
 1493 0088 9043     		bics	r0, r2
 1494 008a 1843     		orrs	r0, r3
 1495 008c 7073     		strb	r0, [r6, #13]
 315:..\..\..\arduinoLCD\test\Pain Drain\libraries\lvgl\src\core/lv_obj_draw.c **** 
 316:..\..\..\arduinoLCD\test\Pain Drain\libraries\lvgl\src\core/lv_obj_draw.c **** #if LV_DRAW_COMPLEX
 317:..\..\..\arduinoLCD\test\Pain Drain\libraries\lvgl\src\core/lv_obj_draw.c ****     if(part != LV_PART_MAIN) draw_dsc->blend_mode = lv_obj_get_style_blend_mode(obj, part);
 1496              		.loc 1 317 0
 1497 008e 002C     		cmp	r4, #0
 1498 0090 0BD0     		beq	.L29
 1499              	.LVL211:
 1500              	.LBB399:
 1501              	.LBB400:
 1502              		.loc 2 549 0
 1503 0092 6332     		adds	r2, r2, #99
 1504 0094 2100     		movs	r1, r4
 1505 0096 2800     		movs	r0, r5
 1506 0098 FFF7FEFF 		bl	lv_obj_get_style_prop
 1507              	.LVL212:
 1508              	.LBE400:
 1509              	.LBE399:
 1510              		.loc 1 317 0
 1511 009c 0323     		movs	r3, #3
 1512              	.LVL213:
 1513 009e 1840     		ands	r0, r3
 1514              	.LVL214:
 1515 00a0 737B     		ldrb	r3, [r6, #13]
 1516 00a2 0322     		movs	r2, #3
 1517 00a4 9343     		bics	r3, r2
 1518 00a6 1843     		orrs	r0, r3
 1519 00a8 7073     		strb	r0, [r6, #13]
 1520              	.L29:
 318:..\..\..\arduinoLCD\test\Pain Drain\libraries\lvgl\src\core/lv_obj_draw.c **** #endif
 319:..\..\..\arduinoLCD\test\Pain Drain\libraries\lvgl\src\core/lv_obj_draw.c **** }
 1521              		.loc 1 319 0
 1522              		@ sp needed
 1523              	.LVL215:
 1524              	.LVL216:
 1525              	.LVL217:
 1526 00aa 70BD     		pop	{r4, r5, r6, pc}
 1527              		.cfi_endproc
 1528              	.LFE169:
 1529              		.size	lv_obj_init_draw_arc_dsc, .-lv_obj_init_draw_arc_dsc
 1530              		.section	.text.lv_obj_calculate_ext_draw_size,"ax",%progbits
 1531              		.align	2
 1532              		.global	lv_obj_calculate_ext_draw_size
 1533              		.code	16
 1534              		.thumb_func
 1535              		.type	lv_obj_calculate_ext_draw_size, %function
 1536              	lv_obj_calculate_ext_draw_size:
 1537              	.LFB170:
 320:..\..\..\arduinoLCD\test\Pain Drain\libraries\lvgl\src\core/lv_obj_draw.c **** 
 321:..\..\..\arduinoLCD\test\Pain Drain\libraries\lvgl\src\core/lv_obj_draw.c **** lv_coord_t lv_obj_calculate_ext_draw_size(lv_obj_t * obj, uint32_t part)
 322:..\..\..\arduinoLCD\test\Pain Drain\libraries\lvgl\src\core/lv_obj_draw.c **** {
 1538              		.loc 1 322 0
ARM GAS  C:\Users\haske\AppData\Local\Temp\cc4f9rxb.s 			page 47


 1539              		.cfi_startproc
 1540              		@ args = 0, pretend = 0, frame = 0
 1541              		@ frame_needed = 0, uses_anonymous_args = 0
 1542              	.LVL218:
 1543 0000 F8B5     		push	{r3, r4, r5, r6, r7, lr}
 1544              		.cfi_def_cfa_offset 24
 1545              		.cfi_offset 3, -24
 1546              		.cfi_offset 4, -20
 1547              		.cfi_offset 5, -16
 1548              		.cfi_offset 6, -12
 1549              		.cfi_offset 7, -8
 1550              		.cfi_offset 14, -4
 1551 0002 0400     		movs	r4, r0
 1552 0004 0D00     		movs	r5, r1
 1553              	.LVL219:
 1554              	.LBB401:
 1555              	.LBB402:
 303:..\..\..\arduinoLCD\test\Pain Drain\libraries\lvgl\src\core/lv_obj_style_gen.h ****     return (lv_coord_t)v.num;
 1556              		.loc 2 303 0
 1557 0006 4022     		movs	r2, #64
 1558 0008 FFF7FEFF 		bl	lv_obj_get_style_prop
 1559              	.LVL220:
 304:..\..\..\arduinoLCD\test\Pain Drain\libraries\lvgl\src\core/lv_obj_style_gen.h **** }
 1560              		.loc 2 304 0
 1561 000c 06B2     		sxth	r6, r0
 1562              	.LVL221:
 1563              	.LBE402:
 1564              	.LBE401:
 323:..\..\..\arduinoLCD\test\Pain Drain\libraries\lvgl\src\core/lv_obj_draw.c ****     lv_coord_t s = 0;
 324:..\..\..\arduinoLCD\test\Pain Drain\libraries\lvgl\src\core/lv_obj_draw.c **** 
 325:..\..\..\arduinoLCD\test\Pain Drain\libraries\lvgl\src\core/lv_obj_draw.c ****     lv_coord_t sh_width = lv_obj_get_style_shadow_width(obj, part);
 326:..\..\..\arduinoLCD\test\Pain Drain\libraries\lvgl\src\core/lv_obj_draw.c ****     if(sh_width) {
 1565              		.loc 1 326 0
 1566 000e 002E     		cmp	r6, #0
 1567 0010 30D0     		beq	.L41
 1568              	.LVL222:
 1569              	.LBB403:
 1570              	.LBB404:
 1571              	.LBB405:
 339:..\..\..\arduinoLCD\test\Pain Drain\libraries\lvgl\src\core/lv_obj_style_gen.h ****     return (lv_opa_t)v.num;
 1572              		.loc 2 339 0
 1573 0012 4522     		movs	r2, #69
 1574 0014 2900     		movs	r1, r5
 1575 0016 2000     		movs	r0, r4
 1576 0018 FFF7FEFF 		bl	lv_obj_get_style_prop
 1577              	.LVL223:
 340:..\..\..\arduinoLCD\test\Pain Drain\libraries\lvgl\src\core/lv_obj_style_gen.h **** }
 1578              		.loc 2 340 0
 1579 001c C0B2     		uxtb	r0, r0
 1580              	.LVL224:
 1581              	.LBE405:
 1582              	.LBE404:
 327:..\..\..\arduinoLCD\test\Pain Drain\libraries\lvgl\src\core/lv_obj_draw.c ****         lv_opa_t sh_opa = lv_obj_get_style_shadow_opa(obj, part);
 328:..\..\..\arduinoLCD\test\Pain Drain\libraries\lvgl\src\core/lv_obj_draw.c ****         if(sh_opa > LV_OPA_MIN) {
 1583              		.loc 1 328 0
 1584 001e 0228     		cmp	r0, #2
 1585 0020 2AD9     		bls	.L42
ARM GAS  C:\Users\haske\AppData\Local\Temp\cc4f9rxb.s 			page 48


 1586              	.LBB406:
 329:..\..\..\arduinoLCD\test\Pain Drain\libraries\lvgl\src\core/lv_obj_draw.c ****             sh_width = sh_width / 2 + 1;    /*The blur adds only half width*/
 1587              		.loc 1 329 0
 1588 0022 F00F     		lsrs	r0, r6, #31
 1589 0024 8619     		adds	r6, r0, r6
 1590 0026 7610     		asrs	r6, r6, #1
 1591 0028 0136     		adds	r6, r6, #1
 1592 002a B6B2     		uxth	r6, r6
 1593              	.LVL225:
 1594              	.LBB407:
 1595              	.LBB408:
 321:..\..\..\arduinoLCD\test\Pain Drain\libraries\lvgl\src\core/lv_obj_style_gen.h ****     return (lv_coord_t)v.num;
 1596              		.loc 2 321 0
 1597 002c 4322     		movs	r2, #67
 1598 002e 2900     		movs	r1, r5
 1599 0030 2000     		movs	r0, r4
 1600 0032 FFF7FEFF 		bl	lv_obj_get_style_prop
 1601              	.LVL226:
 1602              	.LBE408:
 1603              	.LBE407:
 330:..\..\..\arduinoLCD\test\Pain Drain\libraries\lvgl\src\core/lv_obj_draw.c ****             sh_width += lv_obj_get_style_shadow_spread(obj, part);
 1604              		.loc 1 330 0
 1605 0036 3618     		adds	r6, r6, r0
 1606              	.LVL227:
 1607 0038 B6B2     		uxth	r6, r6
 1608              	.LVL228:
 1609              	.LBB409:
 1610              	.LBB410:
 309:..\..\..\arduinoLCD\test\Pain Drain\libraries\lvgl\src\core/lv_obj_style_gen.h ****     return (lv_coord_t)v.num;
 1611              		.loc 2 309 0
 1612 003a 4122     		movs	r2, #65
 1613 003c 2900     		movs	r1, r5
 1614 003e 2000     		movs	r0, r4
 1615              	.LVL229:
 1616 0040 FFF7FEFF 		bl	lv_obj_get_style_prop
 1617              	.LVL230:
 310:..\..\..\arduinoLCD\test\Pain Drain\libraries\lvgl\src\core/lv_obj_style_gen.h **** }
 1618              		.loc 2 310 0
 1619 0044 07B2     		sxth	r7, r0
 1620              	.LVL231:
 1621              	.LBE410:
 1622              	.LBE409:
 1623              	.LBB411:
 1624              	.LBB412:
 315:..\..\..\arduinoLCD\test\Pain Drain\libraries\lvgl\src\core/lv_obj_style_gen.h ****     return (lv_coord_t)v.num;
 1625              		.loc 2 315 0
 1626 0046 4222     		movs	r2, #66
 1627 0048 2900     		movs	r1, r5
 1628 004a 2000     		movs	r0, r4
 1629 004c FFF7FEFF 		bl	lv_obj_get_style_prop
 1630              	.LVL232:
 316:..\..\..\arduinoLCD\test\Pain Drain\libraries\lvgl\src\core/lv_obj_style_gen.h **** }
 1631              		.loc 2 316 0
 1632 0050 03B2     		sxth	r3, r0
 1633              	.LVL233:
 1634              	.LBE412:
 1635              	.LBE411:
ARM GAS  C:\Users\haske\AppData\Local\Temp\cc4f9rxb.s 			page 49


 331:..\..\..\arduinoLCD\test\Pain Drain\libraries\lvgl\src\core/lv_obj_draw.c ****             lv_coord_t sh_ofs_x = lv_obj_get_style_shadow_ofs_x(obj, part);
 332:..\..\..\arduinoLCD\test\Pain Drain\libraries\lvgl\src\core/lv_obj_draw.c ****             lv_coord_t sh_ofs_y = lv_obj_get_style_shadow_ofs_y(obj, part);
 333:..\..\..\arduinoLCD\test\Pain Drain\libraries\lvgl\src\core/lv_obj_draw.c ****             sh_width += LV_MAX(LV_ABS(sh_ofs_x), LV_ABS(sh_ofs_y));
 1636              		.loc 1 333 0
 1637 0052 F917     		asrs	r1, r7, #31
 1638 0054 7A18     		adds	r2, r7, r1
 1639 0056 4A40     		eors	r2, r1
 1640 0058 D917     		asrs	r1, r3, #31
 1641 005a 5B18     		adds	r3, r3, r1
 1642 005c 4B40     		eors	r3, r1
 1643 005e 9342     		cmp	r3, r2
 1644 0060 00DA     		bge	.L35
 1645 0062 1300     		movs	r3, r2
 1646              	.L35:
 1647 0064 F318     		adds	r3, r6, r3
 1648 0066 1AB2     		sxth	r2, r3
 1649              	.LVL234:
 334:..\..\..\arduinoLCD\test\Pain Drain\libraries\lvgl\src\core/lv_obj_draw.c ****             s = LV_MAX(s, sh_width);
 1650              		.loc 1 334 0
 1651 0068 131C     		adds	r3, r2, #0
 1652 006a 002A     		cmp	r2, #0
 1653 006c 00DA     		bge	.L36
 1654 006e 0023     		movs	r3, #0
 1655              	.L36:
 1656 0070 1FB2     		sxth	r7, r3
 1657              	.LVL235:
 1658 0072 02E0     		b	.L34
 1659              	.LVL236:
 1660              	.L41:
 1661              	.LBE406:
 1662              	.LBE403:
 323:..\..\..\arduinoLCD\test\Pain Drain\libraries\lvgl\src\core/lv_obj_draw.c **** 
 1663              		.loc 1 323 0
 1664 0074 0027     		movs	r7, #0
 1665 0076 00E0     		b	.L34
 1666              	.L42:
 1667 0078 0027     		movs	r7, #0
 1668              	.LVL237:
 1669              	.L34:
 1670              	.LBB413:
 1671              	.LBB414:
 273:..\..\..\arduinoLCD\test\Pain Drain\libraries\lvgl\src\core/lv_obj_style_gen.h ****     return (lv_coord_t)v.num;
 1672              		.loc 2 273 0
 1673 007a 3522     		movs	r2, #53
 1674 007c 2900     		movs	r1, r5
 1675 007e 2000     		movs	r0, r4
 1676 0080 FFF7FEFF 		bl	lv_obj_get_style_prop
 1677              	.LVL238:
 274:..\..\..\arduinoLCD\test\Pain Drain\libraries\lvgl\src\core/lv_obj_style_gen.h **** }
 1678              		.loc 2 274 0
 1679 0084 06B2     		sxth	r6, r0
 1680              	.LVL239:
 1681              	.LBE414:
 1682              	.LBE413:
 335:..\..\..\arduinoLCD\test\Pain Drain\libraries\lvgl\src\core/lv_obj_draw.c ****         }
 336:..\..\..\arduinoLCD\test\Pain Drain\libraries\lvgl\src\core/lv_obj_draw.c ****     }
 337:..\..\..\arduinoLCD\test\Pain Drain\libraries\lvgl\src\core/lv_obj_draw.c **** 
ARM GAS  C:\Users\haske\AppData\Local\Temp\cc4f9rxb.s 			page 50


 338:..\..\..\arduinoLCD\test\Pain Drain\libraries\lvgl\src\core/lv_obj_draw.c ****     lv_coord_t outline_width = lv_obj_get_style_outline_width(obj, part);
 339:..\..\..\arduinoLCD\test\Pain Drain\libraries\lvgl\src\core/lv_obj_draw.c ****     if(outline_width) {
 1683              		.loc 1 339 0
 1684 0086 002E     		cmp	r6, #0
 1685 0088 13D0     		beq	.L37
 1686              	.LVL240:
 1687              	.LBB415:
 1688              	.LBB416:
 1689              	.LBB417:
 291:..\..\..\arduinoLCD\test\Pain Drain\libraries\lvgl\src\core/lv_obj_style_gen.h ****     return (lv_opa_t)v.num;
 1690              		.loc 2 291 0
 1691 008a 3722     		movs	r2, #55
 1692 008c 2900     		movs	r1, r5
 1693 008e 2000     		movs	r0, r4
 1694 0090 FFF7FEFF 		bl	lv_obj_get_style_prop
 1695              	.LVL241:
 292:..\..\..\arduinoLCD\test\Pain Drain\libraries\lvgl\src\core/lv_obj_style_gen.h **** }
 1696              		.loc 2 292 0
 1697 0094 C0B2     		uxtb	r0, r0
 1698              	.LVL242:
 1699              	.LBE417:
 1700              	.LBE416:
 340:..\..\..\arduinoLCD\test\Pain Drain\libraries\lvgl\src\core/lv_obj_draw.c ****         lv_opa_t outline_opa = lv_obj_get_style_outline_opa(obj, part);
 341:..\..\..\arduinoLCD\test\Pain Drain\libraries\lvgl\src\core/lv_obj_draw.c ****         if(outline_opa > LV_OPA_MIN) {
 1701              		.loc 1 341 0
 1702 0096 0228     		cmp	r0, #2
 1703 0098 0BD9     		bls	.L37
 1704              	.LVL243:
 1705              	.LBB418:
 1706              	.LBB419:
 1707              	.LBB420:
 297:..\..\..\arduinoLCD\test\Pain Drain\libraries\lvgl\src\core/lv_obj_style_gen.h ****     return (lv_coord_t)v.num;
 1708              		.loc 2 297 0
 1709 009a 3822     		movs	r2, #56
 1710 009c 2900     		movs	r1, r5
 1711 009e 2000     		movs	r0, r4
 1712 00a0 FFF7FEFF 		bl	lv_obj_get_style_prop
 1713              	.LVL244:
 298:..\..\..\arduinoLCD\test\Pain Drain\libraries\lvgl\src\core/lv_obj_style_gen.h **** }
 1714              		.loc 2 298 0
 1715 00a4 00B2     		sxth	r0, r0
 1716              	.LVL245:
 1717              	.LBE420:
 1718              	.LBE419:
 342:..\..\..\arduinoLCD\test\Pain Drain\libraries\lvgl\src\core/lv_obj_draw.c ****             lv_coord_t outline_pad = lv_obj_get_style_outline_pad(obj, part);
 343:..\..\..\arduinoLCD\test\Pain Drain\libraries\lvgl\src\core/lv_obj_draw.c ****             s = LV_MAX(s, outline_pad + outline_width);
 1719              		.loc 1 343 0
 1720 00a6 8619     		adds	r6, r0, r6
 1721 00a8 3B00     		movs	r3, r7
 1722 00aa B742     		cmp	r7, r6
 1723 00ac 00DA     		bge	.L38
 1724 00ae 3300     		movs	r3, r6
 1725              	.L38:
 1726 00b0 1FB2     		sxth	r7, r3
 1727              	.LVL246:
 1728              	.L37:
 1729              	.LBE418:
ARM GAS  C:\Users\haske\AppData\Local\Temp\cc4f9rxb.s 			page 51


 1730              	.LBE415:
 1731              	.LBB421:
 1732              	.LBB422:
  57:..\..\..\arduinoLCD\test\Pain Drain\libraries\lvgl\src\core/lv_obj_style_gen.h ****     return (lv_coord_t)v.num;
 1733              		.loc 2 57 0
 1734 00b2 6822     		movs	r2, #104
 1735 00b4 2900     		movs	r1, r5
 1736 00b6 2000     		movs	r0, r4
 1737 00b8 FFF7FEFF 		bl	lv_obj_get_style_prop
 1738              	.LVL247:
  58:..\..\..\arduinoLCD\test\Pain Drain\libraries\lvgl\src\core/lv_obj_style_gen.h **** }
 1739              		.loc 2 58 0
 1740 00bc 06B2     		sxth	r6, r0
 1741              	.LVL248:
 1742              	.LBE422:
 1743              	.LBE421:
 1744              	.LBB423:
 1745              	.LBB424:
  63:..\..\..\arduinoLCD\test\Pain Drain\libraries\lvgl\src\core/lv_obj_style_gen.h ****     return (lv_coord_t)v.num;
 1746              		.loc 2 63 0
 1747 00be 6922     		movs	r2, #105
 1748 00c0 2900     		movs	r1, r5
 1749 00c2 2000     		movs	r0, r4
 1750 00c4 FFF7FEFF 		bl	lv_obj_get_style_prop
 1751              	.LVL249:
  64:..\..\..\arduinoLCD\test\Pain Drain\libraries\lvgl\src\core/lv_obj_style_gen.h **** }
 1752              		.loc 2 64 0
 1753 00c8 00B2     		sxth	r0, r0
 1754              	.LVL250:
 1755              	.LBE424:
 1756              	.LBE423:
 344:..\..\..\arduinoLCD\test\Pain Drain\libraries\lvgl\src\core/lv_obj_draw.c ****         }
 345:..\..\..\arduinoLCD\test\Pain Drain\libraries\lvgl\src\core/lv_obj_draw.c ****     }
 346:..\..\..\arduinoLCD\test\Pain Drain\libraries\lvgl\src\core/lv_obj_draw.c **** 
 347:..\..\..\arduinoLCD\test\Pain Drain\libraries\lvgl\src\core/lv_obj_draw.c ****     lv_coord_t w = lv_obj_get_style_transform_width(obj, part);
 348:..\..\..\arduinoLCD\test\Pain Drain\libraries\lvgl\src\core/lv_obj_draw.c ****     lv_coord_t h = lv_obj_get_style_transform_height(obj, part);
 349:..\..\..\arduinoLCD\test\Pain Drain\libraries\lvgl\src\core/lv_obj_draw.c ****     lv_coord_t wh = LV_MAX(w, h);
 1757              		.loc 1 349 0
 1758 00ca 031C     		adds	r3, r0, #0
 1759 00cc B042     		cmp	r0, r6
 1760 00ce 00DA     		bge	.L39
 1761 00d0 331C     		adds	r3, r6, #0
 1762              	.L39:
 1763 00d2 1AB2     		sxth	r2, r3
 1764              	.LVL251:
 350:..\..\..\arduinoLCD\test\Pain Drain\libraries\lvgl\src\core/lv_obj_draw.c ****     if(wh > 0) s += wh;
 1765              		.loc 1 350 0
 1766 00d4 002A     		cmp	r2, #0
 1767 00d6 01DD     		ble	.L40
 1768              		.loc 1 350 0 is_stmt 0 discriminator 1
 1769 00d8 FB18     		adds	r3, r7, r3
 1770              	.LVL252:
 1771 00da 1FB2     		sxth	r7, r3
 1772              	.LVL253:
 1773              	.L40:
 351:..\..\..\arduinoLCD\test\Pain Drain\libraries\lvgl\src\core/lv_obj_draw.c **** 
 352:..\..\..\arduinoLCD\test\Pain Drain\libraries\lvgl\src\core/lv_obj_draw.c ****     return s;
ARM GAS  C:\Users\haske\AppData\Local\Temp\cc4f9rxb.s 			page 52


 353:..\..\..\arduinoLCD\test\Pain Drain\libraries\lvgl\src\core/lv_obj_draw.c **** }
 1774              		.loc 1 353 0 is_stmt 1
 1775 00dc 3800     		movs	r0, r7
 1776              		@ sp needed
 1777              	.LVL254:
 1778              	.LVL255:
 1779              	.LVL256:
 1780 00de F8BD     		pop	{r3, r4, r5, r6, r7, pc}
 1781              		.cfi_endproc
 1782              	.LFE170:
 1783              		.size	lv_obj_calculate_ext_draw_size, .-lv_obj_calculate_ext_draw_size
 1784              		.section	.text.lv_obj_draw_dsc_init,"ax",%progbits
 1785              		.align	2
 1786              		.global	lv_obj_draw_dsc_init
 1787              		.code	16
 1788              		.thumb_func
 1789              		.type	lv_obj_draw_dsc_init, %function
 1790              	lv_obj_draw_dsc_init:
 1791              	.LFB171:
 354:..\..\..\arduinoLCD\test\Pain Drain\libraries\lvgl\src\core/lv_obj_draw.c **** 
 355:..\..\..\arduinoLCD\test\Pain Drain\libraries\lvgl\src\core/lv_obj_draw.c **** void lv_obj_draw_dsc_init(lv_obj_draw_part_dsc_t * dsc, lv_draw_ctx_t * draw_ctx)
 356:..\..\..\arduinoLCD\test\Pain Drain\libraries\lvgl\src\core/lv_obj_draw.c **** {
 1792              		.loc 1 356 0
 1793              		.cfi_startproc
 1794              		@ args = 0, pretend = 0, frame = 0
 1795              		@ frame_needed = 0, uses_anonymous_args = 0
 1796              	.LVL257:
 1797 0000 70B5     		push	{r4, r5, r6, lr}
 1798              		.cfi_def_cfa_offset 16
 1799              		.cfi_offset 4, -16
 1800              		.cfi_offset 5, -12
 1801              		.cfi_offset 6, -8
 1802              		.cfi_offset 14, -4
 1803 0002 0400     		movs	r4, r0
 1804 0004 0D00     		movs	r5, r1
 357:..\..\..\arduinoLCD\test\Pain Drain\libraries\lvgl\src\core/lv_obj_draw.c ****     lv_memset_00(dsc, sizeof(lv_obj_draw_part_dsc_t));
 1805              		.loc 1 357 0
 1806 0006 4821     		movs	r1, #72
 1807              	.LVL258:
 1808 0008 FFF7FEFF 		bl	lv_memset_00
 1809              	.LVL259:
 358:..\..\..\arduinoLCD\test\Pain Drain\libraries\lvgl\src\core/lv_obj_draw.c ****     dsc->draw_ctx = draw_ctx;
 1810              		.loc 1 358 0
 1811 000c 2560     		str	r5, [r4]
 359:..\..\..\arduinoLCD\test\Pain Drain\libraries\lvgl\src\core/lv_obj_draw.c **** }
 1812              		.loc 1 359 0
 1813              		@ sp needed
 1814              	.LVL260:
 1815              	.LVL261:
 1816 000e 70BD     		pop	{r4, r5, r6, pc}
 1817              		.cfi_endproc
 1818              	.LFE171:
 1819              		.size	lv_obj_draw_dsc_init, .-lv_obj_draw_dsc_init
 1820              		.section	.text.lv_obj_draw_part_check_type,"ax",%progbits
 1821              		.align	2
 1822              		.global	lv_obj_draw_part_check_type
 1823              		.code	16
ARM GAS  C:\Users\haske\AppData\Local\Temp\cc4f9rxb.s 			page 53


 1824              		.thumb_func
 1825              		.type	lv_obj_draw_part_check_type, %function
 1826              	lv_obj_draw_part_check_type:
 1827              	.LFB172:
 360:..\..\..\arduinoLCD\test\Pain Drain\libraries\lvgl\src\core/lv_obj_draw.c **** 
 361:..\..\..\arduinoLCD\test\Pain Drain\libraries\lvgl\src\core/lv_obj_draw.c **** bool lv_obj_draw_part_check_type(lv_obj_draw_part_dsc_t * dsc, const lv_obj_class_t * class_p, uint
 362:..\..\..\arduinoLCD\test\Pain Drain\libraries\lvgl\src\core/lv_obj_draw.c **** {
 1828              		.loc 1 362 0
 1829              		.cfi_startproc
 1830              		@ args = 0, pretend = 0, frame = 0
 1831              		@ frame_needed = 0, uses_anonymous_args = 0
 1832              		@ link register save eliminated.
 1833              	.LVL262:
 363:..\..\..\arduinoLCD\test\Pain Drain\libraries\lvgl\src\core/lv_obj_draw.c ****     if(dsc->class_p == class_p && dsc->type == type) return true;
 1834              		.loc 1 363 0
 1835 0000 4368     		ldr	r3, [r0, #4]
 1836 0002 8B42     		cmp	r3, r1
 1837 0004 04D1     		bne	.L46
 1838              		.loc 1 363 0 is_stmt 0 discriminator 1
 1839 0006 8368     		ldr	r3, [r0, #8]
 1840 0008 9342     		cmp	r3, r2
 1841 000a 03D0     		beq	.L47
 364:..\..\..\arduinoLCD\test\Pain Drain\libraries\lvgl\src\core/lv_obj_draw.c ****     else return false;
 1842              		.loc 1 364 0 is_stmt 1
 1843 000c 0020     		movs	r0, #0
 1844              	.LVL263:
 1845 000e 02E0     		b	.L45
 1846              	.LVL264:
 1847              	.L46:
 1848 0010 0020     		movs	r0, #0
 1849              	.LVL265:
 1850 0012 00E0     		b	.L45
 1851              	.LVL266:
 1852              	.L47:
 363:..\..\..\arduinoLCD\test\Pain Drain\libraries\lvgl\src\core/lv_obj_draw.c ****     if(dsc->class_p == class_p && dsc->type == type) return true;
 1853              		.loc 1 363 0
 1854 0014 0120     		movs	r0, #1
 1855              	.LVL267:
 1856              	.L45:
 365:..\..\..\arduinoLCD\test\Pain Drain\libraries\lvgl\src\core/lv_obj_draw.c **** }
 1857              		.loc 1 365 0
 1858              		@ sp needed
 1859 0016 7047     		bx	lr
 1860              		.cfi_endproc
 1861              	.LFE172:
 1862              		.size	lv_obj_draw_part_check_type, .-lv_obj_draw_part_check_type
 1863              		.section	.text._lv_obj_get_ext_draw_size,"ax",%progbits
 1864              		.align	2
 1865              		.global	_lv_obj_get_ext_draw_size
 1866              		.code	16
 1867              		.thumb_func
 1868              		.type	_lv_obj_get_ext_draw_size, %function
 1869              	_lv_obj_get_ext_draw_size:
 1870              	.LFB174:
 366:..\..\..\arduinoLCD\test\Pain Drain\libraries\lvgl\src\core/lv_obj_draw.c **** 
 367:..\..\..\arduinoLCD\test\Pain Drain\libraries\lvgl\src\core/lv_obj_draw.c **** void lv_obj_refresh_ext_draw_size(lv_obj_t * obj)
 368:..\..\..\arduinoLCD\test\Pain Drain\libraries\lvgl\src\core/lv_obj_draw.c **** {
ARM GAS  C:\Users\haske\AppData\Local\Temp\cc4f9rxb.s 			page 54


 369:..\..\..\arduinoLCD\test\Pain Drain\libraries\lvgl\src\core/lv_obj_draw.c ****     LV_ASSERT_OBJ(obj, MY_CLASS);
 370:..\..\..\arduinoLCD\test\Pain Drain\libraries\lvgl\src\core/lv_obj_draw.c **** 
 371:..\..\..\arduinoLCD\test\Pain Drain\libraries\lvgl\src\core/lv_obj_draw.c ****     lv_coord_t s_old = _lv_obj_get_ext_draw_size(obj);
 372:..\..\..\arduinoLCD\test\Pain Drain\libraries\lvgl\src\core/lv_obj_draw.c ****     lv_coord_t s_new = 0;
 373:..\..\..\arduinoLCD\test\Pain Drain\libraries\lvgl\src\core/lv_obj_draw.c ****     lv_event_send(obj, LV_EVENT_REFR_EXT_DRAW_SIZE, &s_new);
 374:..\..\..\arduinoLCD\test\Pain Drain\libraries\lvgl\src\core/lv_obj_draw.c **** 
 375:..\..\..\arduinoLCD\test\Pain Drain\libraries\lvgl\src\core/lv_obj_draw.c ****     if(s_new != s_old) lv_obj_invalidate(obj);
 376:..\..\..\arduinoLCD\test\Pain Drain\libraries\lvgl\src\core/lv_obj_draw.c **** 
 377:..\..\..\arduinoLCD\test\Pain Drain\libraries\lvgl\src\core/lv_obj_draw.c ****     /*Store the result if the special attrs already allocated*/
 378:..\..\..\arduinoLCD\test\Pain Drain\libraries\lvgl\src\core/lv_obj_draw.c ****     if(obj->spec_attr) {
 379:..\..\..\arduinoLCD\test\Pain Drain\libraries\lvgl\src\core/lv_obj_draw.c ****         obj->spec_attr->ext_draw_size = s_new;
 380:..\..\..\arduinoLCD\test\Pain Drain\libraries\lvgl\src\core/lv_obj_draw.c ****     }
 381:..\..\..\arduinoLCD\test\Pain Drain\libraries\lvgl\src\core/lv_obj_draw.c ****     /*Allocate spec. attrs. only if the result is not zero.
 382:..\..\..\arduinoLCD\test\Pain Drain\libraries\lvgl\src\core/lv_obj_draw.c ****      *Zero is the default value if the spec. attr. are not defined.*/
 383:..\..\..\arduinoLCD\test\Pain Drain\libraries\lvgl\src\core/lv_obj_draw.c ****     else if(s_new != 0) {
 384:..\..\..\arduinoLCD\test\Pain Drain\libraries\lvgl\src\core/lv_obj_draw.c ****         lv_obj_allocate_spec_attr(obj);
 385:..\..\..\arduinoLCD\test\Pain Drain\libraries\lvgl\src\core/lv_obj_draw.c ****         obj->spec_attr->ext_draw_size = s_new;
 386:..\..\..\arduinoLCD\test\Pain Drain\libraries\lvgl\src\core/lv_obj_draw.c ****     }
 387:..\..\..\arduinoLCD\test\Pain Drain\libraries\lvgl\src\core/lv_obj_draw.c **** 
 388:..\..\..\arduinoLCD\test\Pain Drain\libraries\lvgl\src\core/lv_obj_draw.c ****     if(s_new != s_old) lv_obj_invalidate(obj);
 389:..\..\..\arduinoLCD\test\Pain Drain\libraries\lvgl\src\core/lv_obj_draw.c **** }
 390:..\..\..\arduinoLCD\test\Pain Drain\libraries\lvgl\src\core/lv_obj_draw.c **** 
 391:..\..\..\arduinoLCD\test\Pain Drain\libraries\lvgl\src\core/lv_obj_draw.c **** lv_coord_t _lv_obj_get_ext_draw_size(const lv_obj_t * obj)
 392:..\..\..\arduinoLCD\test\Pain Drain\libraries\lvgl\src\core/lv_obj_draw.c **** {
 1871              		.loc 1 392 0
 1872              		.cfi_startproc
 1873              		@ args = 0, pretend = 0, frame = 0
 1874              		@ frame_needed = 0, uses_anonymous_args = 0
 1875              		@ link register save eliminated.
 1876              	.LVL268:
 393:..\..\..\arduinoLCD\test\Pain Drain\libraries\lvgl\src\core/lv_obj_draw.c ****     if(obj->spec_attr) return obj->spec_attr->ext_draw_size;
 1877              		.loc 1 393 0
 1878 0000 8368     		ldr	r3, [r0, #8]
 1879 0002 002B     		cmp	r3, #0
 1880 0004 02D0     		beq	.L50
 1881              		.loc 1 393 0 is_stmt 0 discriminator 1
 1882 0006 1620     		movs	r0, #22
 1883 0008 185E     		ldrsh	r0, [r3, r0]
 1884              	.LVL269:
 1885 000a 00E0     		b	.L49
 1886              	.LVL270:
 1887              	.L50:
 394:..\..\..\arduinoLCD\test\Pain Drain\libraries\lvgl\src\core/lv_obj_draw.c ****     else return 0;
 1888              		.loc 1 394 0 is_stmt 1
 1889 000c 0020     		movs	r0, #0
 1890              	.LVL271:
 1891              	.L49:
 395:..\..\..\arduinoLCD\test\Pain Drain\libraries\lvgl\src\core/lv_obj_draw.c **** }
 1892              		.loc 1 395 0
 1893              		@ sp needed
 1894 000e 7047     		bx	lr
 1895              		.cfi_endproc
 1896              	.LFE174:
 1897              		.size	_lv_obj_get_ext_draw_size, .-_lv_obj_get_ext_draw_size
 1898              		.section	.text.lv_obj_refresh_ext_draw_size,"ax",%progbits
 1899              		.align	2
 1900              		.global	lv_obj_refresh_ext_draw_size
ARM GAS  C:\Users\haske\AppData\Local\Temp\cc4f9rxb.s 			page 55


 1901              		.code	16
 1902              		.thumb_func
 1903              		.type	lv_obj_refresh_ext_draw_size, %function
 1904              	lv_obj_refresh_ext_draw_size:
 1905              	.LFB173:
 368:..\..\..\arduinoLCD\test\Pain Drain\libraries\lvgl\src\core/lv_obj_draw.c ****     LV_ASSERT_OBJ(obj, MY_CLASS);
 1906              		.loc 1 368 0
 1907              		.cfi_startproc
 1908              		@ args = 0, pretend = 0, frame = 8
 1909              		@ frame_needed = 0, uses_anonymous_args = 0
 1910              	.LVL272:
 1911 0000 70B5     		push	{r4, r5, r6, lr}
 1912              		.cfi_def_cfa_offset 16
 1913              		.cfi_offset 4, -16
 1914              		.cfi_offset 5, -12
 1915              		.cfi_offset 6, -8
 1916              		.cfi_offset 14, -4
 1917 0002 82B0     		sub	sp, sp, #8
 1918              		.cfi_def_cfa_offset 24
 1919 0004 0400     		movs	r4, r0
 371:..\..\..\arduinoLCD\test\Pain Drain\libraries\lvgl\src\core/lv_obj_draw.c ****     lv_coord_t s_new = 0;
 1920              		.loc 1 371 0
 1921 0006 FFF7FEFF 		bl	_lv_obj_get_ext_draw_size
 1922              	.LVL273:
 1923 000a 0500     		movs	r5, r0
 1924              	.LVL274:
 372:..\..\..\arduinoLCD\test\Pain Drain\libraries\lvgl\src\core/lv_obj_draw.c ****     lv_event_send(obj, LV_EVENT_REFR_EXT_DRAW_SIZE, &s_new);
 1925              		.loc 1 372 0
 1926 000c 6B46     		mov	r3, sp
 1927 000e 9E1D     		adds	r6, r3, #6
 1928 0010 0023     		movs	r3, #0
 1929 0012 3380     		strh	r3, [r6]
 373:..\..\..\arduinoLCD\test\Pain Drain\libraries\lvgl\src\core/lv_obj_draw.c **** 
 1930              		.loc 1 373 0
 1931 0014 3200     		movs	r2, r6
 1932 0016 1321     		movs	r1, #19
 1933 0018 2000     		movs	r0, r4
 1934              	.LVL275:
 1935 001a FFF7FEFF 		bl	lv_event_send
 1936              	.LVL276:
 375:..\..\..\arduinoLCD\test\Pain Drain\libraries\lvgl\src\core/lv_obj_draw.c **** 
 1937              		.loc 1 375 0
 1938 001e 0022     		movs	r2, #0
 1939 0020 B35E     		ldrsh	r3, [r6, r2]
 1940 0022 9D42     		cmp	r5, r3
 1941 0024 02D0     		beq	.L52
 375:..\..\..\arduinoLCD\test\Pain Drain\libraries\lvgl\src\core/lv_obj_draw.c **** 
 1942              		.loc 1 375 0 is_stmt 0 discriminator 1
 1943 0026 2000     		movs	r0, r4
 1944 0028 FFF7FEFF 		bl	lv_obj_invalidate
 1945              	.LVL277:
 1946              	.L52:
 378:..\..\..\arduinoLCD\test\Pain Drain\libraries\lvgl\src\core/lv_obj_draw.c ****         obj->spec_attr->ext_draw_size = s_new;
 1947              		.loc 1 378 0 is_stmt 1
 1948 002c A368     		ldr	r3, [r4, #8]
 1949 002e 002B     		cmp	r3, #0
 1950 0030 04D0     		beq	.L53
ARM GAS  C:\Users\haske\AppData\Local\Temp\cc4f9rxb.s 			page 56


 379:..\..\..\arduinoLCD\test\Pain Drain\libraries\lvgl\src\core/lv_obj_draw.c ****     }
 1951              		.loc 1 379 0
 1952 0032 6A46     		mov	r2, sp
 1953 0034 0632     		adds	r2, r2, #6
 1954 0036 1288     		ldrh	r2, [r2]
 1955 0038 DA82     		strh	r2, [r3, #22]
 1956 003a 0DE0     		b	.L54
 1957              	.L53:
 383:..\..\..\arduinoLCD\test\Pain Drain\libraries\lvgl\src\core/lv_obj_draw.c ****         lv_obj_allocate_spec_attr(obj);
 1958              		.loc 1 383 0
 1959 003c 6B46     		mov	r3, sp
 1960 003e 0633     		adds	r3, r3, #6
 1961 0040 0022     		movs	r2, #0
 1962 0042 9B5E     		ldrsh	r3, [r3, r2]
 1963 0044 002B     		cmp	r3, #0
 1964 0046 07D0     		beq	.L54
 384:..\..\..\arduinoLCD\test\Pain Drain\libraries\lvgl\src\core/lv_obj_draw.c ****         obj->spec_attr->ext_draw_size = s_new;
 1965              		.loc 1 384 0
 1966 0048 2000     		movs	r0, r4
 1967 004a FFF7FEFF 		bl	lv_obj_allocate_spec_attr
 1968              	.LVL278:
 385:..\..\..\arduinoLCD\test\Pain Drain\libraries\lvgl\src\core/lv_obj_draw.c ****     }
 1969              		.loc 1 385 0
 1970 004e 6B46     		mov	r3, sp
 1971 0050 0633     		adds	r3, r3, #6
 1972 0052 1B88     		ldrh	r3, [r3]
 1973 0054 A268     		ldr	r2, [r4, #8]
 1974 0056 D382     		strh	r3, [r2, #22]
 1975              	.L54:
 388:..\..\..\arduinoLCD\test\Pain Drain\libraries\lvgl\src\core/lv_obj_draw.c **** }
 1976              		.loc 1 388 0
 1977 0058 6B46     		mov	r3, sp
 1978 005a 0633     		adds	r3, r3, #6
 1979 005c 0022     		movs	r2, #0
 1980 005e 9B5E     		ldrsh	r3, [r3, r2]
 1981 0060 9D42     		cmp	r5, r3
 1982 0062 02D0     		beq	.L51
 388:..\..\..\arduinoLCD\test\Pain Drain\libraries\lvgl\src\core/lv_obj_draw.c **** }
 1983              		.loc 1 388 0 is_stmt 0 discriminator 1
 1984 0064 2000     		movs	r0, r4
 1985 0066 FFF7FEFF 		bl	lv_obj_invalidate
 1986              	.LVL279:
 1987              	.L51:
 389:..\..\..\arduinoLCD\test\Pain Drain\libraries\lvgl\src\core/lv_obj_draw.c **** 
 1988              		.loc 1 389 0 is_stmt 1
 1989 006a 02B0     		add	sp, sp, #8
 1990              		@ sp needed
 1991              	.LVL280:
 1992              	.LVL281:
 1993 006c 70BD     		pop	{r4, r5, r6, pc}
 1994              		.cfi_endproc
 1995              	.LFE173:
 1996              		.size	lv_obj_refresh_ext_draw_size, .-lv_obj_refresh_ext_draw_size
 1997 006e C046     		.section	.text._lv_obj_get_layer_type,"ax",%progbits
 1998              		.align	2
 1999              		.global	_lv_obj_get_layer_type
 2000              		.code	16
ARM GAS  C:\Users\haske\AppData\Local\Temp\cc4f9rxb.s 			page 57


 2001              		.thumb_func
 2002              		.type	_lv_obj_get_layer_type, %function
 2003              	_lv_obj_get_layer_type:
 2004              	.LFB175:
 396:..\..\..\arduinoLCD\test\Pain Drain\libraries\lvgl\src\core/lv_obj_draw.c **** 
 397:..\..\..\arduinoLCD\test\Pain Drain\libraries\lvgl\src\core/lv_obj_draw.c **** lv_layer_type_t _lv_obj_get_layer_type(const lv_obj_t * obj)
 398:..\..\..\arduinoLCD\test\Pain Drain\libraries\lvgl\src\core/lv_obj_draw.c **** {
 2005              		.loc 1 398 0
 2006              		.cfi_startproc
 2007              		@ args = 0, pretend = 0, frame = 0
 2008              		@ frame_needed = 0, uses_anonymous_args = 0
 2009              		@ link register save eliminated.
 2010              	.LVL282:
 399:..\..\..\arduinoLCD\test\Pain Drain\libraries\lvgl\src\core/lv_obj_draw.c **** 
 400:..\..\..\arduinoLCD\test\Pain Drain\libraries\lvgl\src\core/lv_obj_draw.c ****     if(obj->spec_attr) return obj->spec_attr->layer_type;
 2011              		.loc 1 400 0
 2012 0000 8368     		ldr	r3, [r0, #8]
 2013 0002 002B     		cmp	r3, #0
 2014 0004 02D0     		beq	.L58
 2015              		.loc 1 400 0 is_stmt 0 discriminator 1
 2016 0006 987E     		ldrb	r0, [r3, #26]
 2017              	.LVL283:
 2018 0008 8009     		lsrs	r0, r0, #6
 2019 000a 00E0     		b	.L57
 2020              	.LVL284:
 2021              	.L58:
 401:..\..\..\arduinoLCD\test\Pain Drain\libraries\lvgl\src\core/lv_obj_draw.c ****     else return LV_LAYER_TYPE_NONE;
 2022              		.loc 1 401 0 is_stmt 1
 2023 000c 0020     		movs	r0, #0
 2024              	.LVL285:
 2025              	.L57:
 402:..\..\..\arduinoLCD\test\Pain Drain\libraries\lvgl\src\core/lv_obj_draw.c **** }
 2026              		.loc 1 402 0
 2027              		@ sp needed
 2028 000e 7047     		bx	lr
 2029              		.cfi_endproc
 2030              	.LFE175:
 2031              		.size	_lv_obj_get_layer_type, .-_lv_obj_get_layer_type
 2032              		.text
 2033              	.Letext0:
 2034              		.file 4 "c:\\program files (x86)\\cypress\\psoc creator\\4.4\\psoc creator\\import\\gnu\\arm\\5.4.
 2035              		.file 5 "c:\\program files (x86)\\cypress\\psoc creator\\4.4\\psoc creator\\import\\gnu\\arm\\5.4.
 2036              		.file 6 "c:\\program files (x86)\\cypress\\psoc creator\\4.4\\psoc creator\\import\\gnu\\arm\\5.4.
 2037              		.file 7 "c:\\projects\\paindrain\\arduinolcd\\test\\pain drain\\libraries\\lvgl\\src\\font\\lv_fon
 2038              		.file 8 "c:\\projects\\paindrain\\arduinolcd\\test\\pain drain\\libraries\\lvgl\\src\\misc\\lv_typ
 2039              		.file 9 "c:\\projects\\paindrain\\arduinolcd\\test\\pain drain\\libraries\\lvgl\\src\\misc\\lv_col
 2040              		.file 10 "c:\\projects\\paindrain\\arduinolcd\\test\\pain drain\\libraries\\lvgl\\src\\misc\\lv_tx
 2041              		.file 11 "c:\\projects\\paindrain\\arduinolcd\\test\\pain drain\\libraries\\lvgl\\src\\misc\\lv_bi
 2042              		.file 12 "c:\\projects\\paindrain\\arduinolcd\\test\\pain drain\\libraries\\lvgl\\src\\misc\\lv_st
 2043              		.file 13 "..\\..\\..\\arduinoLCD\\test\\Pain Drain\\libraries\\lvgl\\src\\core\\../draw/lv_img_buf
 2044              		.file 14 "..\\..\\..\\arduinoLCD\\test\\Pain Drain\\libraries\\lvgl\\src\\core\\../draw/lv_img_dec
 2045              		.file 15 "..\\..\\..\\arduinoLCD\\test\\Pain Drain\\libraries\\lvgl\\src\\core\\lv_obj.h"
 2046              		.file 16 "..\\..\\..\\arduinoLCD\\test\\Pain Drain\\libraries\\lvgl\\src\\core\\../draw/lv_draw_re
 2047              		.file 17 "..\\..\\..\\arduinoLCD\\test\\Pain Drain\\libraries\\lvgl\\src\\core\\../draw/lv_draw_la
 2048              		.file 18 "..\\..\\..\\arduinoLCD\\test\\Pain Drain\\libraries\\lvgl\\src\\core\\../draw/lv_draw_im
 2049              		.file 19 "..\\..\\..\\arduinoLCD\\test\\Pain Drain\\libraries\\lvgl\\src\\core\\../draw/lv_draw_li
 2050              		.file 20 "..\\..\\..\\arduinoLCD\\test\\Pain Drain\\libraries\\lvgl\\src\\core\\../draw/lv_draw_ar
ARM GAS  C:\Users\haske\AppData\Local\Temp\cc4f9rxb.s 			page 58


 2051              		.file 21 "..\\..\\..\\arduinoLCD\\test\\Pain Drain\\libraries\\lvgl\\src\\core\\../draw/lv_draw_la
 2052              		.file 22 "..\\..\\..\\arduinoLCD\\test\\Pain Drain\\libraries\\lvgl\\src\\core\\../draw/lv_draw.h"
 2053              		.file 23 "..\\..\\..\\arduinoLCD\\test\\Pain Drain\\libraries\\lvgl\\src\\core\\lv_obj_draw.h"
 2054              		.file 24 "..\\..\\..\\arduinoLCD\\test\\Pain Drain\\libraries\\lvgl\\src\\core\\lv_obj_class.h"
 2055              		.file 25 "c:\\projects\\paindrain\\arduinolcd\\test\\pain drain\\libraries\\lvgl\\src\\misc\\lv_ll
 2056              		.file 26 "..\\..\\..\\arduinoLCD\\test\\Pain Drain\\libraries\\lvgl\\src\\core\\lv_group.h"
 2057              		.file 27 "..\\..\\..\\arduinoLCD\\test\\Pain Drain\\libraries\\lvgl\\src\\core\\lv_obj_scroll.h"
 2058              		.file 28 "..\\..\\..\\arduinoLCD\\test\\Pain Drain\\libraries\\lvgl\\src\\core\\lv_obj_style.h"
 2059              		.file 29 "..\\..\\..\\arduinoLCD\\test\\Pain Drain\\libraries\\lvgl\\src\\core\\lv_event.h"
 2060              		.file 30 "c:\\projects\\paindrain\\arduinolcd\\test\\pain drain\\libraries\\lvgl\\src\\misc\\lv_me
 2061              		.file 31 "c:\\projects\\paindrain\\arduinolcd\\test\\pain drain\\libraries\\lvgl\\src\\core\\lv_ob