ARM GAS  C:\Users\haske\AppData\Local\Temp\cc0eRFVw.s 			page 1


   1              		.syntax unified
   2              		.cpu cortex-m0plus
   3              		.fpu softvfp
   4              		.eabi_attribute 20, 1
   5              		.eabi_attribute 21, 1
   6              		.eabi_attribute 23, 3
   7              		.eabi_attribute 24, 1
   8              		.eabi_attribute 25, 1
   9              		.eabi_attribute 26, 1
  10              		.eabi_attribute 30, 1
  11              		.eabi_attribute 34, 0
  12              		.eabi_attribute 18, 4
  13              		.thumb
  14              		.syntax unified
  15              		.file	"lv_obj_style_gen.c"
  16              		.text
  17              	.Ltext0:
  18              		.cfi_sections	.debug_frame
  19              		.section	.text.lv_obj_set_style_width,"ax",%progbits
  20              		.align	2
  21              		.global	lv_obj_set_style_width
  22              		.code	16
  23              		.thumb_func
  24              		.type	lv_obj_set_style_width, %function
  25              	lv_obj_set_style_width:
  26              	.LFB159:
  27              		.file 1 "..\\..\\..\\arduinoLCD\\test\\Pain Drain\\libraries\\lvgl\\src\\core\\lv_obj_style_gen.c"
   1:..\..\..\arduinoLCD\test\Pain Drain\libraries\lvgl\src\core/lv_obj_style_gen.c **** #include "lv_obj.h"
   2:..\..\..\arduinoLCD\test\Pain Drain\libraries\lvgl\src\core/lv_obj_style_gen.c **** 
   3:..\..\..\arduinoLCD\test\Pain Drain\libraries\lvgl\src\core/lv_obj_style_gen.c **** void lv_obj_set_style_width(struct _lv_obj_t * obj, lv_coord_t value, lv_style_selector_t selector)
   4:..\..\..\arduinoLCD\test\Pain Drain\libraries\lvgl\src\core/lv_obj_style_gen.c **** {
  28              		.loc 1 4 0
  29              		.cfi_startproc
  30              		@ args = 0, pretend = 0, frame = 0
  31              		@ frame_needed = 0, uses_anonymous_args = 0
  32              	.LVL0:
  33 0000 10B5     		push	{r4, lr}
  34              		.cfi_def_cfa_offset 8
  35              		.cfi_offset 4, -8
  36              		.cfi_offset 14, -4
  37 0002 1300     		movs	r3, r2
   5:..\..\..\arduinoLCD\test\Pain Drain\libraries\lvgl\src\core/lv_obj_style_gen.c ****     lv_style_value_t v = {
   6:..\..\..\arduinoLCD\test\Pain Drain\libraries\lvgl\src\core/lv_obj_style_gen.c ****         .num = (int32_t)value
   7:..\..\..\arduinoLCD\test\Pain Drain\libraries\lvgl\src\core/lv_obj_style_gen.c ****     };
   8:..\..\..\arduinoLCD\test\Pain Drain\libraries\lvgl\src\core/lv_obj_style_gen.c ****     lv_obj_set_local_style_prop(obj, LV_STYLE_WIDTH, v, selector);
  38              		.loc 1 8 0
  39 0004 0A00     		movs	r2, r1
  40              	.LVL1:
  41 0006 0121     		movs	r1, #1
  42              	.LVL2:
  43 0008 FFF7FEFF 		bl	lv_obj_set_local_style_prop
  44              	.LVL3:
   9:..\..\..\arduinoLCD\test\Pain Drain\libraries\lvgl\src\core/lv_obj_style_gen.c **** }
  45              		.loc 1 9 0
  46              		@ sp needed
  47 000c 10BD     		pop	{r4, pc}
  48              		.cfi_endproc
ARM GAS  C:\Users\haske\AppData\Local\Temp\cc0eRFVw.s 			page 2


  49              	.LFE159:
  50              		.size	lv_obj_set_style_width, .-lv_obj_set_style_width
  51 000e C046     		.section	.text.lv_obj_set_style_min_width,"ax",%progbits
  52              		.align	2
  53              		.global	lv_obj_set_style_min_width
  54              		.code	16
  55              		.thumb_func
  56              		.type	lv_obj_set_style_min_width, %function
  57              	lv_obj_set_style_min_width:
  58              	.LFB160:
  10:..\..\..\arduinoLCD\test\Pain Drain\libraries\lvgl\src\core/lv_obj_style_gen.c **** 
  11:..\..\..\arduinoLCD\test\Pain Drain\libraries\lvgl\src\core/lv_obj_style_gen.c **** void lv_obj_set_style_min_width(struct _lv_obj_t * obj, lv_coord_t value, lv_style_selector_t selec
  12:..\..\..\arduinoLCD\test\Pain Drain\libraries\lvgl\src\core/lv_obj_style_gen.c **** {
  59              		.loc 1 12 0
  60              		.cfi_startproc
  61              		@ args = 0, pretend = 0, frame = 0
  62              		@ frame_needed = 0, uses_anonymous_args = 0
  63              	.LVL4:
  64 0000 10B5     		push	{r4, lr}
  65              		.cfi_def_cfa_offset 8
  66              		.cfi_offset 4, -8
  67              		.cfi_offset 14, -4
  68 0002 1300     		movs	r3, r2
  13:..\..\..\arduinoLCD\test\Pain Drain\libraries\lvgl\src\core/lv_obj_style_gen.c ****     lv_style_value_t v = {
  14:..\..\..\arduinoLCD\test\Pain Drain\libraries\lvgl\src\core/lv_obj_style_gen.c ****         .num = (int32_t)value
  15:..\..\..\arduinoLCD\test\Pain Drain\libraries\lvgl\src\core/lv_obj_style_gen.c ****     };
  16:..\..\..\arduinoLCD\test\Pain Drain\libraries\lvgl\src\core/lv_obj_style_gen.c ****     lv_obj_set_local_style_prop(obj, LV_STYLE_MIN_WIDTH, v, selector);
  69              		.loc 1 16 0
  70 0004 0A00     		movs	r2, r1
  71              	.LVL5:
  72 0006 0221     		movs	r1, #2
  73              	.LVL6:
  74 0008 FFF7FEFF 		bl	lv_obj_set_local_style_prop
  75              	.LVL7:
  17:..\..\..\arduinoLCD\test\Pain Drain\libraries\lvgl\src\core/lv_obj_style_gen.c **** }
  76              		.loc 1 17 0
  77              		@ sp needed
  78 000c 10BD     		pop	{r4, pc}
  79              		.cfi_endproc
  80              	.LFE160:
  81              		.size	lv_obj_set_style_min_width, .-lv_obj_set_style_min_width
  82 000e C046     		.section	.text.lv_obj_set_style_max_width,"ax",%progbits
  83              		.align	2
  84              		.global	lv_obj_set_style_max_width
  85              		.code	16
  86              		.thumb_func
  87              		.type	lv_obj_set_style_max_width, %function
  88              	lv_obj_set_style_max_width:
  89              	.LFB161:
  18:..\..\..\arduinoLCD\test\Pain Drain\libraries\lvgl\src\core/lv_obj_style_gen.c **** 
  19:..\..\..\arduinoLCD\test\Pain Drain\libraries\lvgl\src\core/lv_obj_style_gen.c **** void lv_obj_set_style_max_width(struct _lv_obj_t * obj, lv_coord_t value, lv_style_selector_t selec
  20:..\..\..\arduinoLCD\test\Pain Drain\libraries\lvgl\src\core/lv_obj_style_gen.c **** {
  90              		.loc 1 20 0
  91              		.cfi_startproc
  92              		@ args = 0, pretend = 0, frame = 0
  93              		@ frame_needed = 0, uses_anonymous_args = 0
  94              	.LVL8:
ARM GAS  C:\Users\haske\AppData\Local\Temp\cc0eRFVw.s 			page 3


  95 0000 10B5     		push	{r4, lr}
  96              		.cfi_def_cfa_offset 8
  97              		.cfi_offset 4, -8
  98              		.cfi_offset 14, -4
  99 0002 1300     		movs	r3, r2
  21:..\..\..\arduinoLCD\test\Pain Drain\libraries\lvgl\src\core/lv_obj_style_gen.c ****     lv_style_value_t v = {
  22:..\..\..\arduinoLCD\test\Pain Drain\libraries\lvgl\src\core/lv_obj_style_gen.c ****         .num = (int32_t)value
  23:..\..\..\arduinoLCD\test\Pain Drain\libraries\lvgl\src\core/lv_obj_style_gen.c ****     };
  24:..\..\..\arduinoLCD\test\Pain Drain\libraries\lvgl\src\core/lv_obj_style_gen.c ****     lv_obj_set_local_style_prop(obj, LV_STYLE_MAX_WIDTH, v, selector);
 100              		.loc 1 24 0
 101 0004 0A00     		movs	r2, r1
 102              	.LVL9:
 103 0006 0321     		movs	r1, #3
 104              	.LVL10:
 105 0008 FFF7FEFF 		bl	lv_obj_set_local_style_prop
 106              	.LVL11:
  25:..\..\..\arduinoLCD\test\Pain Drain\libraries\lvgl\src\core/lv_obj_style_gen.c **** }
 107              		.loc 1 25 0
 108              		@ sp needed
 109 000c 10BD     		pop	{r4, pc}
 110              		.cfi_endproc
 111              	.LFE161:
 112              		.size	lv_obj_set_style_max_width, .-lv_obj_set_style_max_width
 113 000e C046     		.section	.text.lv_obj_set_style_height,"ax",%progbits
 114              		.align	2
 115              		.global	lv_obj_set_style_height
 116              		.code	16
 117              		.thumb_func
 118              		.type	lv_obj_set_style_height, %function
 119              	lv_obj_set_style_height:
 120              	.LFB162:
  26:..\..\..\arduinoLCD\test\Pain Drain\libraries\lvgl\src\core/lv_obj_style_gen.c **** 
  27:..\..\..\arduinoLCD\test\Pain Drain\libraries\lvgl\src\core/lv_obj_style_gen.c **** void lv_obj_set_style_height(struct _lv_obj_t * obj, lv_coord_t value, lv_style_selector_t selector
  28:..\..\..\arduinoLCD\test\Pain Drain\libraries\lvgl\src\core/lv_obj_style_gen.c **** {
 121              		.loc 1 28 0
 122              		.cfi_startproc
 123              		@ args = 0, pretend = 0, frame = 0
 124              		@ frame_needed = 0, uses_anonymous_args = 0
 125              	.LVL12:
 126 0000 10B5     		push	{r4, lr}
 127              		.cfi_def_cfa_offset 8
 128              		.cfi_offset 4, -8
 129              		.cfi_offset 14, -4
 130 0002 1300     		movs	r3, r2
  29:..\..\..\arduinoLCD\test\Pain Drain\libraries\lvgl\src\core/lv_obj_style_gen.c ****     lv_style_value_t v = {
  30:..\..\..\arduinoLCD\test\Pain Drain\libraries\lvgl\src\core/lv_obj_style_gen.c ****         .num = (int32_t)value
  31:..\..\..\arduinoLCD\test\Pain Drain\libraries\lvgl\src\core/lv_obj_style_gen.c ****     };
  32:..\..\..\arduinoLCD\test\Pain Drain\libraries\lvgl\src\core/lv_obj_style_gen.c ****     lv_obj_set_local_style_prop(obj, LV_STYLE_HEIGHT, v, selector);
 131              		.loc 1 32 0
 132 0004 0A00     		movs	r2, r1
 133              	.LVL13:
 134 0006 0421     		movs	r1, #4
 135              	.LVL14:
 136 0008 FFF7FEFF 		bl	lv_obj_set_local_style_prop
 137              	.LVL15:
  33:..\..\..\arduinoLCD\test\Pain Drain\libraries\lvgl\src\core/lv_obj_style_gen.c **** }
 138              		.loc 1 33 0
ARM GAS  C:\Users\haske\AppData\Local\Temp\cc0eRFVw.s 			page 4


 139              		@ sp needed
 140 000c 10BD     		pop	{r4, pc}
 141              		.cfi_endproc
 142              	.LFE162:
 143              		.size	lv_obj_set_style_height, .-lv_obj_set_style_height
 144 000e C046     		.section	.text.lv_obj_set_style_min_height,"ax",%progbits
 145              		.align	2
 146              		.global	lv_obj_set_style_min_height
 147              		.code	16
 148              		.thumb_func
 149              		.type	lv_obj_set_style_min_height, %function
 150              	lv_obj_set_style_min_height:
 151              	.LFB163:
  34:..\..\..\arduinoLCD\test\Pain Drain\libraries\lvgl\src\core/lv_obj_style_gen.c **** 
  35:..\..\..\arduinoLCD\test\Pain Drain\libraries\lvgl\src\core/lv_obj_style_gen.c **** void lv_obj_set_style_min_height(struct _lv_obj_t * obj, lv_coord_t value, lv_style_selector_t sele
  36:..\..\..\arduinoLCD\test\Pain Drain\libraries\lvgl\src\core/lv_obj_style_gen.c **** {
 152              		.loc 1 36 0
 153              		.cfi_startproc
 154              		@ args = 0, pretend = 0, frame = 0
 155              		@ frame_needed = 0, uses_anonymous_args = 0
 156              	.LVL16:
 157 0000 10B5     		push	{r4, lr}
 158              		.cfi_def_cfa_offset 8
 159              		.cfi_offset 4, -8
 160              		.cfi_offset 14, -4
 161 0002 1300     		movs	r3, r2
  37:..\..\..\arduinoLCD\test\Pain Drain\libraries\lvgl\src\core/lv_obj_style_gen.c ****     lv_style_value_t v = {
  38:..\..\..\arduinoLCD\test\Pain Drain\libraries\lvgl\src\core/lv_obj_style_gen.c ****         .num = (int32_t)value
  39:..\..\..\arduinoLCD\test\Pain Drain\libraries\lvgl\src\core/lv_obj_style_gen.c ****     };
  40:..\..\..\arduinoLCD\test\Pain Drain\libraries\lvgl\src\core/lv_obj_style_gen.c ****     lv_obj_set_local_style_prop(obj, LV_STYLE_MIN_HEIGHT, v, selector);
 162              		.loc 1 40 0
 163 0004 0A00     		movs	r2, r1
 164              	.LVL17:
 165 0006 0521     		movs	r1, #5
 166              	.LVL18:
 167 0008 FFF7FEFF 		bl	lv_obj_set_local_style_prop
 168              	.LVL19:
  41:..\..\..\arduinoLCD\test\Pain Drain\libraries\lvgl\src\core/lv_obj_style_gen.c **** }
 169              		.loc 1 41 0
 170              		@ sp needed
 171 000c 10BD     		pop	{r4, pc}
 172              		.cfi_endproc
 173              	.LFE163:
 174              		.size	lv_obj_set_style_min_height, .-lv_obj_set_style_min_height
 175 000e C046     		.section	.text.lv_obj_set_style_max_height,"ax",%progbits
 176              		.align	2
 177              		.global	lv_obj_set_style_max_height
 178              		.code	16
 179              		.thumb_func
 180              		.type	lv_obj_set_style_max_height, %function
 181              	lv_obj_set_style_max_height:
 182              	.LFB164:
  42:..\..\..\arduinoLCD\test\Pain Drain\libraries\lvgl\src\core/lv_obj_style_gen.c **** 
  43:..\..\..\arduinoLCD\test\Pain Drain\libraries\lvgl\src\core/lv_obj_style_gen.c **** void lv_obj_set_style_max_height(struct _lv_obj_t * obj, lv_coord_t value, lv_style_selector_t sele
  44:..\..\..\arduinoLCD\test\Pain Drain\libraries\lvgl\src\core/lv_obj_style_gen.c **** {
 183              		.loc 1 44 0
 184              		.cfi_startproc
ARM GAS  C:\Users\haske\AppData\Local\Temp\cc0eRFVw.s 			page 5


 185              		@ args = 0, pretend = 0, frame = 0
 186              		@ frame_needed = 0, uses_anonymous_args = 0
 187              	.LVL20:
 188 0000 10B5     		push	{r4, lr}
 189              		.cfi_def_cfa_offset 8
 190              		.cfi_offset 4, -8
 191              		.cfi_offset 14, -4
 192 0002 1300     		movs	r3, r2
  45:..\..\..\arduinoLCD\test\Pain Drain\libraries\lvgl\src\core/lv_obj_style_gen.c ****     lv_style_value_t v = {
  46:..\..\..\arduinoLCD\test\Pain Drain\libraries\lvgl\src\core/lv_obj_style_gen.c ****         .num = (int32_t)value
  47:..\..\..\arduinoLCD\test\Pain Drain\libraries\lvgl\src\core/lv_obj_style_gen.c ****     };
  48:..\..\..\arduinoLCD\test\Pain Drain\libraries\lvgl\src\core/lv_obj_style_gen.c ****     lv_obj_set_local_style_prop(obj, LV_STYLE_MAX_HEIGHT, v, selector);
 193              		.loc 1 48 0
 194 0004 0A00     		movs	r2, r1
 195              	.LVL21:
 196 0006 0621     		movs	r1, #6
 197              	.LVL22:
 198 0008 FFF7FEFF 		bl	lv_obj_set_local_style_prop
 199              	.LVL23:
  49:..\..\..\arduinoLCD\test\Pain Drain\libraries\lvgl\src\core/lv_obj_style_gen.c **** }
 200              		.loc 1 49 0
 201              		@ sp needed
 202 000c 10BD     		pop	{r4, pc}
 203              		.cfi_endproc
 204              	.LFE164:
 205              		.size	lv_obj_set_style_max_height, .-lv_obj_set_style_max_height
 206 000e C046     		.section	.text.lv_obj_set_style_x,"ax",%progbits
 207              		.align	2
 208              		.global	lv_obj_set_style_x
 209              		.code	16
 210              		.thumb_func
 211              		.type	lv_obj_set_style_x, %function
 212              	lv_obj_set_style_x:
 213              	.LFB165:
  50:..\..\..\arduinoLCD\test\Pain Drain\libraries\lvgl\src\core/lv_obj_style_gen.c **** 
  51:..\..\..\arduinoLCD\test\Pain Drain\libraries\lvgl\src\core/lv_obj_style_gen.c **** void lv_obj_set_style_x(struct _lv_obj_t * obj, lv_coord_t value, lv_style_selector_t selector)
  52:..\..\..\arduinoLCD\test\Pain Drain\libraries\lvgl\src\core/lv_obj_style_gen.c **** {
 214              		.loc 1 52 0
 215              		.cfi_startproc
 216              		@ args = 0, pretend = 0, frame = 0
 217              		@ frame_needed = 0, uses_anonymous_args = 0
 218              	.LVL24:
 219 0000 10B5     		push	{r4, lr}
 220              		.cfi_def_cfa_offset 8
 221              		.cfi_offset 4, -8
 222              		.cfi_offset 14, -4
 223 0002 1300     		movs	r3, r2
  53:..\..\..\arduinoLCD\test\Pain Drain\libraries\lvgl\src\core/lv_obj_style_gen.c ****     lv_style_value_t v = {
  54:..\..\..\arduinoLCD\test\Pain Drain\libraries\lvgl\src\core/lv_obj_style_gen.c ****         .num = (int32_t)value
  55:..\..\..\arduinoLCD\test\Pain Drain\libraries\lvgl\src\core/lv_obj_style_gen.c ****     };
  56:..\..\..\arduinoLCD\test\Pain Drain\libraries\lvgl\src\core/lv_obj_style_gen.c ****     lv_obj_set_local_style_prop(obj, LV_STYLE_X, v, selector);
 224              		.loc 1 56 0
 225 0004 0A00     		movs	r2, r1
 226              	.LVL25:
 227 0006 0721     		movs	r1, #7
 228              	.LVL26:
 229 0008 FFF7FEFF 		bl	lv_obj_set_local_style_prop
ARM GAS  C:\Users\haske\AppData\Local\Temp\cc0eRFVw.s 			page 6


 230              	.LVL27:
  57:..\..\..\arduinoLCD\test\Pain Drain\libraries\lvgl\src\core/lv_obj_style_gen.c **** }
 231              		.loc 1 57 0
 232              		@ sp needed
 233 000c 10BD     		pop	{r4, pc}
 234              		.cfi_endproc
 235              	.LFE165:
 236              		.size	lv_obj_set_style_x, .-lv_obj_set_style_x
 237 000e C046     		.section	.text.lv_obj_set_style_y,"ax",%progbits
 238              		.align	2
 239              		.global	lv_obj_set_style_y
 240              		.code	16
 241              		.thumb_func
 242              		.type	lv_obj_set_style_y, %function
 243              	lv_obj_set_style_y:
 244              	.LFB166:
  58:..\..\..\arduinoLCD\test\Pain Drain\libraries\lvgl\src\core/lv_obj_style_gen.c **** 
  59:..\..\..\arduinoLCD\test\Pain Drain\libraries\lvgl\src\core/lv_obj_style_gen.c **** void lv_obj_set_style_y(struct _lv_obj_t * obj, lv_coord_t value, lv_style_selector_t selector)
  60:..\..\..\arduinoLCD\test\Pain Drain\libraries\lvgl\src\core/lv_obj_style_gen.c **** {
 245              		.loc 1 60 0
 246              		.cfi_startproc
 247              		@ args = 0, pretend = 0, frame = 0
 248              		@ frame_needed = 0, uses_anonymous_args = 0
 249              	.LVL28:
 250 0000 10B5     		push	{r4, lr}
 251              		.cfi_def_cfa_offset 8
 252              		.cfi_offset 4, -8
 253              		.cfi_offset 14, -4
 254 0002 1300     		movs	r3, r2
  61:..\..\..\arduinoLCD\test\Pain Drain\libraries\lvgl\src\core/lv_obj_style_gen.c ****     lv_style_value_t v = {
  62:..\..\..\arduinoLCD\test\Pain Drain\libraries\lvgl\src\core/lv_obj_style_gen.c ****         .num = (int32_t)value
  63:..\..\..\arduinoLCD\test\Pain Drain\libraries\lvgl\src\core/lv_obj_style_gen.c ****     };
  64:..\..\..\arduinoLCD\test\Pain Drain\libraries\lvgl\src\core/lv_obj_style_gen.c ****     lv_obj_set_local_style_prop(obj, LV_STYLE_Y, v, selector);
 255              		.loc 1 64 0
 256 0004 0A00     		movs	r2, r1
 257              	.LVL29:
 258 0006 0821     		movs	r1, #8
 259              	.LVL30:
 260 0008 FFF7FEFF 		bl	lv_obj_set_local_style_prop
 261              	.LVL31:
  65:..\..\..\arduinoLCD\test\Pain Drain\libraries\lvgl\src\core/lv_obj_style_gen.c **** }
 262              		.loc 1 65 0
 263              		@ sp needed
 264 000c 10BD     		pop	{r4, pc}
 265              		.cfi_endproc
 266              	.LFE166:
 267              		.size	lv_obj_set_style_y, .-lv_obj_set_style_y
 268 000e C046     		.section	.text.lv_obj_set_style_align,"ax",%progbits
 269              		.align	2
 270              		.global	lv_obj_set_style_align
 271              		.code	16
 272              		.thumb_func
 273              		.type	lv_obj_set_style_align, %function
 274              	lv_obj_set_style_align:
 275              	.LFB167:
  66:..\..\..\arduinoLCD\test\Pain Drain\libraries\lvgl\src\core/lv_obj_style_gen.c **** 
  67:..\..\..\arduinoLCD\test\Pain Drain\libraries\lvgl\src\core/lv_obj_style_gen.c **** void lv_obj_set_style_align(struct _lv_obj_t * obj, lv_align_t value, lv_style_selector_t selector)
ARM GAS  C:\Users\haske\AppData\Local\Temp\cc0eRFVw.s 			page 7


  68:..\..\..\arduinoLCD\test\Pain Drain\libraries\lvgl\src\core/lv_obj_style_gen.c **** {
 276              		.loc 1 68 0
 277              		.cfi_startproc
 278              		@ args = 0, pretend = 0, frame = 0
 279              		@ frame_needed = 0, uses_anonymous_args = 0
 280              	.LVL32:
 281 0000 10B5     		push	{r4, lr}
 282              		.cfi_def_cfa_offset 8
 283              		.cfi_offset 4, -8
 284              		.cfi_offset 14, -4
 285 0002 1300     		movs	r3, r2
  69:..\..\..\arduinoLCD\test\Pain Drain\libraries\lvgl\src\core/lv_obj_style_gen.c ****     lv_style_value_t v = {
  70:..\..\..\arduinoLCD\test\Pain Drain\libraries\lvgl\src\core/lv_obj_style_gen.c ****         .num = (int32_t)value
  71:..\..\..\arduinoLCD\test\Pain Drain\libraries\lvgl\src\core/lv_obj_style_gen.c ****     };
  72:..\..\..\arduinoLCD\test\Pain Drain\libraries\lvgl\src\core/lv_obj_style_gen.c ****     lv_obj_set_local_style_prop(obj, LV_STYLE_ALIGN, v, selector);
 286              		.loc 1 72 0
 287 0004 0A00     		movs	r2, r1
 288              	.LVL33:
 289 0006 0921     		movs	r1, #9
 290              	.LVL34:
 291 0008 FFF7FEFF 		bl	lv_obj_set_local_style_prop
 292              	.LVL35:
  73:..\..\..\arduinoLCD\test\Pain Drain\libraries\lvgl\src\core/lv_obj_style_gen.c **** }
 293              		.loc 1 73 0
 294              		@ sp needed
 295 000c 10BD     		pop	{r4, pc}
 296              		.cfi_endproc
 297              	.LFE167:
 298              		.size	lv_obj_set_style_align, .-lv_obj_set_style_align
 299 000e C046     		.section	.text.lv_obj_set_style_transform_width,"ax",%progbits
 300              		.align	2
 301              		.global	lv_obj_set_style_transform_width
 302              		.code	16
 303              		.thumb_func
 304              		.type	lv_obj_set_style_transform_width, %function
 305              	lv_obj_set_style_transform_width:
 306              	.LFB168:
  74:..\..\..\arduinoLCD\test\Pain Drain\libraries\lvgl\src\core/lv_obj_style_gen.c **** 
  75:..\..\..\arduinoLCD\test\Pain Drain\libraries\lvgl\src\core/lv_obj_style_gen.c **** void lv_obj_set_style_transform_width(struct _lv_obj_t * obj, lv_coord_t value, lv_style_selector_t
  76:..\..\..\arduinoLCD\test\Pain Drain\libraries\lvgl\src\core/lv_obj_style_gen.c **** {
 307              		.loc 1 76 0
 308              		.cfi_startproc
 309              		@ args = 0, pretend = 0, frame = 0
 310              		@ frame_needed = 0, uses_anonymous_args = 0
 311              	.LVL36:
 312 0000 10B5     		push	{r4, lr}
 313              		.cfi_def_cfa_offset 8
 314              		.cfi_offset 4, -8
 315              		.cfi_offset 14, -4
 316 0002 1300     		movs	r3, r2
  77:..\..\..\arduinoLCD\test\Pain Drain\libraries\lvgl\src\core/lv_obj_style_gen.c ****     lv_style_value_t v = {
  78:..\..\..\arduinoLCD\test\Pain Drain\libraries\lvgl\src\core/lv_obj_style_gen.c ****         .num = (int32_t)value
  79:..\..\..\arduinoLCD\test\Pain Drain\libraries\lvgl\src\core/lv_obj_style_gen.c ****     };
  80:..\..\..\arduinoLCD\test\Pain Drain\libraries\lvgl\src\core/lv_obj_style_gen.c ****     lv_obj_set_local_style_prop(obj, LV_STYLE_TRANSFORM_WIDTH, v, selector);
 317              		.loc 1 80 0
 318 0004 0A00     		movs	r2, r1
 319              	.LVL37:
ARM GAS  C:\Users\haske\AppData\Local\Temp\cc0eRFVw.s 			page 8


 320 0006 6821     		movs	r1, #104
 321              	.LVL38:
 322 0008 FFF7FEFF 		bl	lv_obj_set_local_style_prop
 323              	.LVL39:
  81:..\..\..\arduinoLCD\test\Pain Drain\libraries\lvgl\src\core/lv_obj_style_gen.c **** }
 324              		.loc 1 81 0
 325              		@ sp needed
 326 000c 10BD     		pop	{r4, pc}
 327              		.cfi_endproc
 328              	.LFE168:
 329              		.size	lv_obj_set_style_transform_width, .-lv_obj_set_style_transform_width
 330 000e C046     		.section	.text.lv_obj_set_style_transform_height,"ax",%progbits
 331              		.align	2
 332              		.global	lv_obj_set_style_transform_height
 333              		.code	16
 334              		.thumb_func
 335              		.type	lv_obj_set_style_transform_height, %function
 336              	lv_obj_set_style_transform_height:
 337              	.LFB169:
  82:..\..\..\arduinoLCD\test\Pain Drain\libraries\lvgl\src\core/lv_obj_style_gen.c **** 
  83:..\..\..\arduinoLCD\test\Pain Drain\libraries\lvgl\src\core/lv_obj_style_gen.c **** void lv_obj_set_style_transform_height(struct _lv_obj_t * obj, lv_coord_t value, lv_style_selector_
  84:..\..\..\arduinoLCD\test\Pain Drain\libraries\lvgl\src\core/lv_obj_style_gen.c **** {
 338              		.loc 1 84 0
 339              		.cfi_startproc
 340              		@ args = 0, pretend = 0, frame = 0
 341              		@ frame_needed = 0, uses_anonymous_args = 0
 342              	.LVL40:
 343 0000 10B5     		push	{r4, lr}
 344              		.cfi_def_cfa_offset 8
 345              		.cfi_offset 4, -8
 346              		.cfi_offset 14, -4
 347 0002 1300     		movs	r3, r2
  85:..\..\..\arduinoLCD\test\Pain Drain\libraries\lvgl\src\core/lv_obj_style_gen.c ****     lv_style_value_t v = {
  86:..\..\..\arduinoLCD\test\Pain Drain\libraries\lvgl\src\core/lv_obj_style_gen.c ****         .num = (int32_t)value
  87:..\..\..\arduinoLCD\test\Pain Drain\libraries\lvgl\src\core/lv_obj_style_gen.c ****     };
  88:..\..\..\arduinoLCD\test\Pain Drain\libraries\lvgl\src\core/lv_obj_style_gen.c ****     lv_obj_set_local_style_prop(obj, LV_STYLE_TRANSFORM_HEIGHT, v, selector);
 348              		.loc 1 88 0
 349 0004 0A00     		movs	r2, r1
 350              	.LVL41:
 351 0006 6921     		movs	r1, #105
 352              	.LVL42:
 353 0008 FFF7FEFF 		bl	lv_obj_set_local_style_prop
 354              	.LVL43:
  89:..\..\..\arduinoLCD\test\Pain Drain\libraries\lvgl\src\core/lv_obj_style_gen.c **** }
 355              		.loc 1 89 0
 356              		@ sp needed
 357 000c 10BD     		pop	{r4, pc}
 358              		.cfi_endproc
 359              	.LFE169:
 360              		.size	lv_obj_set_style_transform_height, .-lv_obj_set_style_transform_height
 361 000e C046     		.section	.text.lv_obj_set_style_translate_x,"ax",%progbits
 362              		.align	2
 363              		.global	lv_obj_set_style_translate_x
 364              		.code	16
 365              		.thumb_func
 366              		.type	lv_obj_set_style_translate_x, %function
 367              	lv_obj_set_style_translate_x:
ARM GAS  C:\Users\haske\AppData\Local\Temp\cc0eRFVw.s 			page 9


 368              	.LFB170:
  90:..\..\..\arduinoLCD\test\Pain Drain\libraries\lvgl\src\core/lv_obj_style_gen.c **** 
  91:..\..\..\arduinoLCD\test\Pain Drain\libraries\lvgl\src\core/lv_obj_style_gen.c **** void lv_obj_set_style_translate_x(struct _lv_obj_t * obj, lv_coord_t value, lv_style_selector_t sel
  92:..\..\..\arduinoLCD\test\Pain Drain\libraries\lvgl\src\core/lv_obj_style_gen.c **** {
 369              		.loc 1 92 0
 370              		.cfi_startproc
 371              		@ args = 0, pretend = 0, frame = 0
 372              		@ frame_needed = 0, uses_anonymous_args = 0
 373              	.LVL44:
 374 0000 10B5     		push	{r4, lr}
 375              		.cfi_def_cfa_offset 8
 376              		.cfi_offset 4, -8
 377              		.cfi_offset 14, -4
 378 0002 1300     		movs	r3, r2
  93:..\..\..\arduinoLCD\test\Pain Drain\libraries\lvgl\src\core/lv_obj_style_gen.c ****     lv_style_value_t v = {
  94:..\..\..\arduinoLCD\test\Pain Drain\libraries\lvgl\src\core/lv_obj_style_gen.c ****         .num = (int32_t)value
  95:..\..\..\arduinoLCD\test\Pain Drain\libraries\lvgl\src\core/lv_obj_style_gen.c ****     };
  96:..\..\..\arduinoLCD\test\Pain Drain\libraries\lvgl\src\core/lv_obj_style_gen.c ****     lv_obj_set_local_style_prop(obj, LV_STYLE_TRANSLATE_X, v, selector);
 379              		.loc 1 96 0
 380 0004 0A00     		movs	r2, r1
 381              	.LVL45:
 382 0006 6A21     		movs	r1, #106
 383              	.LVL46:
 384 0008 FFF7FEFF 		bl	lv_obj_set_local_style_prop
 385              	.LVL47:
  97:..\..\..\arduinoLCD\test\Pain Drain\libraries\lvgl\src\core/lv_obj_style_gen.c **** }
 386              		.loc 1 97 0
 387              		@ sp needed
 388 000c 10BD     		pop	{r4, pc}
 389              		.cfi_endproc
 390              	.LFE170:
 391              		.size	lv_obj_set_style_translate_x, .-lv_obj_set_style_translate_x
 392 000e C046     		.section	.text.lv_obj_set_style_translate_y,"ax",%progbits
 393              		.align	2
 394              		.global	lv_obj_set_style_translate_y
 395              		.code	16
 396              		.thumb_func
 397              		.type	lv_obj_set_style_translate_y, %function
 398              	lv_obj_set_style_translate_y:
 399              	.LFB171:
  98:..\..\..\arduinoLCD\test\Pain Drain\libraries\lvgl\src\core/lv_obj_style_gen.c **** 
  99:..\..\..\arduinoLCD\test\Pain Drain\libraries\lvgl\src\core/lv_obj_style_gen.c **** void lv_obj_set_style_translate_y(struct _lv_obj_t * obj, lv_coord_t value, lv_style_selector_t sel
 100:..\..\..\arduinoLCD\test\Pain Drain\libraries\lvgl\src\core/lv_obj_style_gen.c **** {
 400              		.loc 1 100 0
 401              		.cfi_startproc
 402              		@ args = 0, pretend = 0, frame = 0
 403              		@ frame_needed = 0, uses_anonymous_args = 0
 404              	.LVL48:
 405 0000 10B5     		push	{r4, lr}
 406              		.cfi_def_cfa_offset 8
 407              		.cfi_offset 4, -8
 408              		.cfi_offset 14, -4
 409 0002 1300     		movs	r3, r2
 101:..\..\..\arduinoLCD\test\Pain Drain\libraries\lvgl\src\core/lv_obj_style_gen.c ****     lv_style_value_t v = {
 102:..\..\..\arduinoLCD\test\Pain Drain\libraries\lvgl\src\core/lv_obj_style_gen.c ****         .num = (int32_t)value
 103:..\..\..\arduinoLCD\test\Pain Drain\libraries\lvgl\src\core/lv_obj_style_gen.c ****     };
 104:..\..\..\arduinoLCD\test\Pain Drain\libraries\lvgl\src\core/lv_obj_style_gen.c ****     lv_obj_set_local_style_prop(obj, LV_STYLE_TRANSLATE_Y, v, selector);
ARM GAS  C:\Users\haske\AppData\Local\Temp\cc0eRFVw.s 			page 10


 410              		.loc 1 104 0
 411 0004 0A00     		movs	r2, r1
 412              	.LVL49:
 413 0006 6B21     		movs	r1, #107
 414              	.LVL50:
 415 0008 FFF7FEFF 		bl	lv_obj_set_local_style_prop
 416              	.LVL51:
 105:..\..\..\arduinoLCD\test\Pain Drain\libraries\lvgl\src\core/lv_obj_style_gen.c **** }
 417              		.loc 1 105 0
 418              		@ sp needed
 419 000c 10BD     		pop	{r4, pc}
 420              		.cfi_endproc
 421              	.LFE171:
 422              		.size	lv_obj_set_style_translate_y, .-lv_obj_set_style_translate_y
 423 000e C046     		.section	.text.lv_obj_set_style_transform_zoom,"ax",%progbits
 424              		.align	2
 425              		.global	lv_obj_set_style_transform_zoom
 426              		.code	16
 427              		.thumb_func
 428              		.type	lv_obj_set_style_transform_zoom, %function
 429              	lv_obj_set_style_transform_zoom:
 430              	.LFB172:
 106:..\..\..\arduinoLCD\test\Pain Drain\libraries\lvgl\src\core/lv_obj_style_gen.c **** 
 107:..\..\..\arduinoLCD\test\Pain Drain\libraries\lvgl\src\core/lv_obj_style_gen.c **** void lv_obj_set_style_transform_zoom(struct _lv_obj_t * obj, lv_coord_t value, lv_style_selector_t 
 108:..\..\..\arduinoLCD\test\Pain Drain\libraries\lvgl\src\core/lv_obj_style_gen.c **** {
 431              		.loc 1 108 0
 432              		.cfi_startproc
 433              		@ args = 0, pretend = 0, frame = 0
 434              		@ frame_needed = 0, uses_anonymous_args = 0
 435              	.LVL52:
 436 0000 10B5     		push	{r4, lr}
 437              		.cfi_def_cfa_offset 8
 438              		.cfi_offset 4, -8
 439              		.cfi_offset 14, -4
 440 0002 1300     		movs	r3, r2
 109:..\..\..\arduinoLCD\test\Pain Drain\libraries\lvgl\src\core/lv_obj_style_gen.c ****     lv_style_value_t v = {
 110:..\..\..\arduinoLCD\test\Pain Drain\libraries\lvgl\src\core/lv_obj_style_gen.c ****         .num = (int32_t)value
 111:..\..\..\arduinoLCD\test\Pain Drain\libraries\lvgl\src\core/lv_obj_style_gen.c ****     };
 112:..\..\..\arduinoLCD\test\Pain Drain\libraries\lvgl\src\core/lv_obj_style_gen.c ****     lv_obj_set_local_style_prop(obj, LV_STYLE_TRANSFORM_ZOOM, v, selector);
 441              		.loc 1 112 0
 442 0004 0A00     		movs	r2, r1
 443              	.LVL53:
 444 0006 6C21     		movs	r1, #108
 445              	.LVL54:
 446 0008 FFF7FEFF 		bl	lv_obj_set_local_style_prop
 447              	.LVL55:
 113:..\..\..\arduinoLCD\test\Pain Drain\libraries\lvgl\src\core/lv_obj_style_gen.c **** }
 448              		.loc 1 113 0
 449              		@ sp needed
 450 000c 10BD     		pop	{r4, pc}
 451              		.cfi_endproc
 452              	.LFE172:
 453              		.size	lv_obj_set_style_transform_zoom, .-lv_obj_set_style_transform_zoom
 454 000e C046     		.section	.text.lv_obj_set_style_transform_angle,"ax",%progbits
 455              		.align	2
 456              		.global	lv_obj_set_style_transform_angle
 457              		.code	16
ARM GAS  C:\Users\haske\AppData\Local\Temp\cc0eRFVw.s 			page 11


 458              		.thumb_func
 459              		.type	lv_obj_set_style_transform_angle, %function
 460              	lv_obj_set_style_transform_angle:
 461              	.LFB173:
 114:..\..\..\arduinoLCD\test\Pain Drain\libraries\lvgl\src\core/lv_obj_style_gen.c **** 
 115:..\..\..\arduinoLCD\test\Pain Drain\libraries\lvgl\src\core/lv_obj_style_gen.c **** void lv_obj_set_style_transform_angle(struct _lv_obj_t * obj, lv_coord_t value, lv_style_selector_t
 116:..\..\..\arduinoLCD\test\Pain Drain\libraries\lvgl\src\core/lv_obj_style_gen.c **** {
 462              		.loc 1 116 0
 463              		.cfi_startproc
 464              		@ args = 0, pretend = 0, frame = 0
 465              		@ frame_needed = 0, uses_anonymous_args = 0
 466              	.LVL56:
 467 0000 10B5     		push	{r4, lr}
 468              		.cfi_def_cfa_offset 8
 469              		.cfi_offset 4, -8
 470              		.cfi_offset 14, -4
 471 0002 1300     		movs	r3, r2
 117:..\..\..\arduinoLCD\test\Pain Drain\libraries\lvgl\src\core/lv_obj_style_gen.c ****     lv_style_value_t v = {
 118:..\..\..\arduinoLCD\test\Pain Drain\libraries\lvgl\src\core/lv_obj_style_gen.c ****         .num = (int32_t)value
 119:..\..\..\arduinoLCD\test\Pain Drain\libraries\lvgl\src\core/lv_obj_style_gen.c ****     };
 120:..\..\..\arduinoLCD\test\Pain Drain\libraries\lvgl\src\core/lv_obj_style_gen.c ****     lv_obj_set_local_style_prop(obj, LV_STYLE_TRANSFORM_ANGLE, v, selector);
 472              		.loc 1 120 0
 473 0004 0A00     		movs	r2, r1
 474              	.LVL57:
 475 0006 6D21     		movs	r1, #109
 476              	.LVL58:
 477 0008 FFF7FEFF 		bl	lv_obj_set_local_style_prop
 478              	.LVL59:
 121:..\..\..\arduinoLCD\test\Pain Drain\libraries\lvgl\src\core/lv_obj_style_gen.c **** }
 479              		.loc 1 121 0
 480              		@ sp needed
 481 000c 10BD     		pop	{r4, pc}
 482              		.cfi_endproc
 483              	.LFE173:
 484              		.size	lv_obj_set_style_transform_angle, .-lv_obj_set_style_transform_angle
 485 000e C046     		.section	.text.lv_obj_set_style_transform_pivot_x,"ax",%progbits
 486              		.align	2
 487              		.global	lv_obj_set_style_transform_pivot_x
 488              		.code	16
 489              		.thumb_func
 490              		.type	lv_obj_set_style_transform_pivot_x, %function
 491              	lv_obj_set_style_transform_pivot_x:
 492              	.LFB174:
 122:..\..\..\arduinoLCD\test\Pain Drain\libraries\lvgl\src\core/lv_obj_style_gen.c **** 
 123:..\..\..\arduinoLCD\test\Pain Drain\libraries\lvgl\src\core/lv_obj_style_gen.c **** void lv_obj_set_style_transform_pivot_x(struct _lv_obj_t * obj, lv_coord_t value, lv_style_selector
 124:..\..\..\arduinoLCD\test\Pain Drain\libraries\lvgl\src\core/lv_obj_style_gen.c **** {
 493              		.loc 1 124 0
 494              		.cfi_startproc
 495              		@ args = 0, pretend = 0, frame = 0
 496              		@ frame_needed = 0, uses_anonymous_args = 0
 497              	.LVL60:
 498 0000 10B5     		push	{r4, lr}
 499              		.cfi_def_cfa_offset 8
 500              		.cfi_offset 4, -8
 501              		.cfi_offset 14, -4
 502 0002 1300     		movs	r3, r2
 125:..\..\..\arduinoLCD\test\Pain Drain\libraries\lvgl\src\core/lv_obj_style_gen.c ****     lv_style_value_t v = {
ARM GAS  C:\Users\haske\AppData\Local\Temp\cc0eRFVw.s 			page 12


 126:..\..\..\arduinoLCD\test\Pain Drain\libraries\lvgl\src\core/lv_obj_style_gen.c ****         .num = (int32_t)value
 127:..\..\..\arduinoLCD\test\Pain Drain\libraries\lvgl\src\core/lv_obj_style_gen.c ****     };
 128:..\..\..\arduinoLCD\test\Pain Drain\libraries\lvgl\src\core/lv_obj_style_gen.c ****     lv_obj_set_local_style_prop(obj, LV_STYLE_TRANSFORM_PIVOT_X, v, selector);
 503              		.loc 1 128 0
 504 0004 0A00     		movs	r2, r1
 505              	.LVL61:
 506 0006 6E21     		movs	r1, #110
 507              	.LVL62:
 508 0008 FFF7FEFF 		bl	lv_obj_set_local_style_prop
 509              	.LVL63:
 129:..\..\..\arduinoLCD\test\Pain Drain\libraries\lvgl\src\core/lv_obj_style_gen.c **** }
 510              		.loc 1 129 0
 511              		@ sp needed
 512 000c 10BD     		pop	{r4, pc}
 513              		.cfi_endproc
 514              	.LFE174:
 515              		.size	lv_obj_set_style_transform_pivot_x, .-lv_obj_set_style_transform_pivot_x
 516 000e C046     		.section	.text.lv_obj_set_style_transform_pivot_y,"ax",%progbits
 517              		.align	2
 518              		.global	lv_obj_set_style_transform_pivot_y
 519              		.code	16
 520              		.thumb_func
 521              		.type	lv_obj_set_style_transform_pivot_y, %function
 522              	lv_obj_set_style_transform_pivot_y:
 523              	.LFB175:
 130:..\..\..\arduinoLCD\test\Pain Drain\libraries\lvgl\src\core/lv_obj_style_gen.c **** 
 131:..\..\..\arduinoLCD\test\Pain Drain\libraries\lvgl\src\core/lv_obj_style_gen.c **** void lv_obj_set_style_transform_pivot_y(struct _lv_obj_t * obj, lv_coord_t value, lv_style_selector
 132:..\..\..\arduinoLCD\test\Pain Drain\libraries\lvgl\src\core/lv_obj_style_gen.c **** {
 524              		.loc 1 132 0
 525              		.cfi_startproc
 526              		@ args = 0, pretend = 0, frame = 0
 527              		@ frame_needed = 0, uses_anonymous_args = 0
 528              	.LVL64:
 529 0000 10B5     		push	{r4, lr}
 530              		.cfi_def_cfa_offset 8
 531              		.cfi_offset 4, -8
 532              		.cfi_offset 14, -4
 533 0002 1300     		movs	r3, r2
 133:..\..\..\arduinoLCD\test\Pain Drain\libraries\lvgl\src\core/lv_obj_style_gen.c ****     lv_style_value_t v = {
 134:..\..\..\arduinoLCD\test\Pain Drain\libraries\lvgl\src\core/lv_obj_style_gen.c ****         .num = (int32_t)value
 135:..\..\..\arduinoLCD\test\Pain Drain\libraries\lvgl\src\core/lv_obj_style_gen.c ****     };
 136:..\..\..\arduinoLCD\test\Pain Drain\libraries\lvgl\src\core/lv_obj_style_gen.c ****     lv_obj_set_local_style_prop(obj, LV_STYLE_TRANSFORM_PIVOT_Y, v, selector);
 534              		.loc 1 136 0
 535 0004 0A00     		movs	r2, r1
 536              	.LVL65:
 537 0006 6F21     		movs	r1, #111
 538              	.LVL66:
 539 0008 FFF7FEFF 		bl	lv_obj_set_local_style_prop
 540              	.LVL67:
 137:..\..\..\arduinoLCD\test\Pain Drain\libraries\lvgl\src\core/lv_obj_style_gen.c **** }
 541              		.loc 1 137 0
 542              		@ sp needed
 543 000c 10BD     		pop	{r4, pc}
 544              		.cfi_endproc
 545              	.LFE175:
 546              		.size	lv_obj_set_style_transform_pivot_y, .-lv_obj_set_style_transform_pivot_y
 547 000e C046     		.section	.text.lv_obj_set_style_pad_top,"ax",%progbits
ARM GAS  C:\Users\haske\AppData\Local\Temp\cc0eRFVw.s 			page 13


 548              		.align	2
 549              		.global	lv_obj_set_style_pad_top
 550              		.code	16
 551              		.thumb_func
 552              		.type	lv_obj_set_style_pad_top, %function
 553              	lv_obj_set_style_pad_top:
 554              	.LFB176:
 138:..\..\..\arduinoLCD\test\Pain Drain\libraries\lvgl\src\core/lv_obj_style_gen.c **** 
 139:..\..\..\arduinoLCD\test\Pain Drain\libraries\lvgl\src\core/lv_obj_style_gen.c **** void lv_obj_set_style_pad_top(struct _lv_obj_t * obj, lv_coord_t value, lv_style_selector_t selecto
 140:..\..\..\arduinoLCD\test\Pain Drain\libraries\lvgl\src\core/lv_obj_style_gen.c **** {
 555              		.loc 1 140 0
 556              		.cfi_startproc
 557              		@ args = 0, pretend = 0, frame = 0
 558              		@ frame_needed = 0, uses_anonymous_args = 0
 559              	.LVL68:
 560 0000 10B5     		push	{r4, lr}
 561              		.cfi_def_cfa_offset 8
 562              		.cfi_offset 4, -8
 563              		.cfi_offset 14, -4
 564 0002 1300     		movs	r3, r2
 141:..\..\..\arduinoLCD\test\Pain Drain\libraries\lvgl\src\core/lv_obj_style_gen.c ****     lv_style_value_t v = {
 142:..\..\..\arduinoLCD\test\Pain Drain\libraries\lvgl\src\core/lv_obj_style_gen.c ****         .num = (int32_t)value
 143:..\..\..\arduinoLCD\test\Pain Drain\libraries\lvgl\src\core/lv_obj_style_gen.c ****     };
 144:..\..\..\arduinoLCD\test\Pain Drain\libraries\lvgl\src\core/lv_obj_style_gen.c ****     lv_obj_set_local_style_prop(obj, LV_STYLE_PAD_TOP, v, selector);
 565              		.loc 1 144 0
 566 0004 0A00     		movs	r2, r1
 567              	.LVL69:
 568 0006 1021     		movs	r1, #16
 569              	.LVL70:
 570 0008 FFF7FEFF 		bl	lv_obj_set_local_style_prop
 571              	.LVL71:
 145:..\..\..\arduinoLCD\test\Pain Drain\libraries\lvgl\src\core/lv_obj_style_gen.c **** }
 572              		.loc 1 145 0
 573              		@ sp needed
 574 000c 10BD     		pop	{r4, pc}
 575              		.cfi_endproc
 576              	.LFE176:
 577              		.size	lv_obj_set_style_pad_top, .-lv_obj_set_style_pad_top
 578 000e C046     		.section	.text.lv_obj_set_style_pad_bottom,"ax",%progbits
 579              		.align	2
 580              		.global	lv_obj_set_style_pad_bottom
 581              		.code	16
 582              		.thumb_func
 583              		.type	lv_obj_set_style_pad_bottom, %function
 584              	lv_obj_set_style_pad_bottom:
 585              	.LFB177:
 146:..\..\..\arduinoLCD\test\Pain Drain\libraries\lvgl\src\core/lv_obj_style_gen.c **** 
 147:..\..\..\arduinoLCD\test\Pain Drain\libraries\lvgl\src\core/lv_obj_style_gen.c **** void lv_obj_set_style_pad_bottom(struct _lv_obj_t * obj, lv_coord_t value, lv_style_selector_t sele
 148:..\..\..\arduinoLCD\test\Pain Drain\libraries\lvgl\src\core/lv_obj_style_gen.c **** {
 586              		.loc 1 148 0
 587              		.cfi_startproc
 588              		@ args = 0, pretend = 0, frame = 0
 589              		@ frame_needed = 0, uses_anonymous_args = 0
 590              	.LVL72:
 591 0000 10B5     		push	{r4, lr}
 592              		.cfi_def_cfa_offset 8
 593              		.cfi_offset 4, -8
ARM GAS  C:\Users\haske\AppData\Local\Temp\cc0eRFVw.s 			page 14


 594              		.cfi_offset 14, -4
 595 0002 1300     		movs	r3, r2
 149:..\..\..\arduinoLCD\test\Pain Drain\libraries\lvgl\src\core/lv_obj_style_gen.c ****     lv_style_value_t v = {
 150:..\..\..\arduinoLCD\test\Pain Drain\libraries\lvgl\src\core/lv_obj_style_gen.c ****         .num = (int32_t)value
 151:..\..\..\arduinoLCD\test\Pain Drain\libraries\lvgl\src\core/lv_obj_style_gen.c ****     };
 152:..\..\..\arduinoLCD\test\Pain Drain\libraries\lvgl\src\core/lv_obj_style_gen.c ****     lv_obj_set_local_style_prop(obj, LV_STYLE_PAD_BOTTOM, v, selector);
 596              		.loc 1 152 0
 597 0004 0A00     		movs	r2, r1
 598              	.LVL73:
 599 0006 1121     		movs	r1, #17
 600              	.LVL74:
 601 0008 FFF7FEFF 		bl	lv_obj_set_local_style_prop
 602              	.LVL75:
 153:..\..\..\arduinoLCD\test\Pain Drain\libraries\lvgl\src\core/lv_obj_style_gen.c **** }
 603              		.loc 1 153 0
 604              		@ sp needed
 605 000c 10BD     		pop	{r4, pc}
 606              		.cfi_endproc
 607              	.LFE177:
 608              		.size	lv_obj_set_style_pad_bottom, .-lv_obj_set_style_pad_bottom
 609 000e C046     		.section	.text.lv_obj_set_style_pad_left,"ax",%progbits
 610              		.align	2
 611              		.global	lv_obj_set_style_pad_left
 612              		.code	16
 613              		.thumb_func
 614              		.type	lv_obj_set_style_pad_left, %function
 615              	lv_obj_set_style_pad_left:
 616              	.LFB178:
 154:..\..\..\arduinoLCD\test\Pain Drain\libraries\lvgl\src\core/lv_obj_style_gen.c **** 
 155:..\..\..\arduinoLCD\test\Pain Drain\libraries\lvgl\src\core/lv_obj_style_gen.c **** void lv_obj_set_style_pad_left(struct _lv_obj_t * obj, lv_coord_t value, lv_style_selector_t select
 156:..\..\..\arduinoLCD\test\Pain Drain\libraries\lvgl\src\core/lv_obj_style_gen.c **** {
 617              		.loc 1 156 0
 618              		.cfi_startproc
 619              		@ args = 0, pretend = 0, frame = 0
 620              		@ frame_needed = 0, uses_anonymous_args = 0
 621              	.LVL76:
 622 0000 10B5     		push	{r4, lr}
 623              		.cfi_def_cfa_offset 8
 624              		.cfi_offset 4, -8
 625              		.cfi_offset 14, -4
 626 0002 1300     		movs	r3, r2
 157:..\..\..\arduinoLCD\test\Pain Drain\libraries\lvgl\src\core/lv_obj_style_gen.c ****     lv_style_value_t v = {
 158:..\..\..\arduinoLCD\test\Pain Drain\libraries\lvgl\src\core/lv_obj_style_gen.c ****         .num = (int32_t)value
 159:..\..\..\arduinoLCD\test\Pain Drain\libraries\lvgl\src\core/lv_obj_style_gen.c ****     };
 160:..\..\..\arduinoLCD\test\Pain Drain\libraries\lvgl\src\core/lv_obj_style_gen.c ****     lv_obj_set_local_style_prop(obj, LV_STYLE_PAD_LEFT, v, selector);
 627              		.loc 1 160 0
 628 0004 0A00     		movs	r2, r1
 629              	.LVL77:
 630 0006 1221     		movs	r1, #18
 631              	.LVL78:
 632 0008 FFF7FEFF 		bl	lv_obj_set_local_style_prop
 633              	.LVL79:
 161:..\..\..\arduinoLCD\test\Pain Drain\libraries\lvgl\src\core/lv_obj_style_gen.c **** }
 634              		.loc 1 161 0
 635              		@ sp needed
 636 000c 10BD     		pop	{r4, pc}
 637              		.cfi_endproc
ARM GAS  C:\Users\haske\AppData\Local\Temp\cc0eRFVw.s 			page 15


 638              	.LFE178:
 639              		.size	lv_obj_set_style_pad_left, .-lv_obj_set_style_pad_left
 640 000e C046     		.section	.text.lv_obj_set_style_pad_right,"ax",%progbits
 641              		.align	2
 642              		.global	lv_obj_set_style_pad_right
 643              		.code	16
 644              		.thumb_func
 645              		.type	lv_obj_set_style_pad_right, %function
 646              	lv_obj_set_style_pad_right:
 647              	.LFB179:
 162:..\..\..\arduinoLCD\test\Pain Drain\libraries\lvgl\src\core/lv_obj_style_gen.c **** 
 163:..\..\..\arduinoLCD\test\Pain Drain\libraries\lvgl\src\core/lv_obj_style_gen.c **** void lv_obj_set_style_pad_right(struct _lv_obj_t * obj, lv_coord_t value, lv_style_selector_t selec
 164:..\..\..\arduinoLCD\test\Pain Drain\libraries\lvgl\src\core/lv_obj_style_gen.c **** {
 648              		.loc 1 164 0
 649              		.cfi_startproc
 650              		@ args = 0, pretend = 0, frame = 0
 651              		@ frame_needed = 0, uses_anonymous_args = 0
 652              	.LVL80:
 653 0000 10B5     		push	{r4, lr}
 654              		.cfi_def_cfa_offset 8
 655              		.cfi_offset 4, -8
 656              		.cfi_offset 14, -4
 657 0002 1300     		movs	r3, r2
 165:..\..\..\arduinoLCD\test\Pain Drain\libraries\lvgl\src\core/lv_obj_style_gen.c ****     lv_style_value_t v = {
 166:..\..\..\arduinoLCD\test\Pain Drain\libraries\lvgl\src\core/lv_obj_style_gen.c ****         .num = (int32_t)value
 167:..\..\..\arduinoLCD\test\Pain Drain\libraries\lvgl\src\core/lv_obj_style_gen.c ****     };
 168:..\..\..\arduinoLCD\test\Pain Drain\libraries\lvgl\src\core/lv_obj_style_gen.c ****     lv_obj_set_local_style_prop(obj, LV_STYLE_PAD_RIGHT, v, selector);
 658              		.loc 1 168 0
 659 0004 0A00     		movs	r2, r1
 660              	.LVL81:
 661 0006 1321     		movs	r1, #19
 662              	.LVL82:
 663 0008 FFF7FEFF 		bl	lv_obj_set_local_style_prop
 664              	.LVL83:
 169:..\..\..\arduinoLCD\test\Pain Drain\libraries\lvgl\src\core/lv_obj_style_gen.c **** }
 665              		.loc 1 169 0
 666              		@ sp needed
 667 000c 10BD     		pop	{r4, pc}
 668              		.cfi_endproc
 669              	.LFE179:
 670              		.size	lv_obj_set_style_pad_right, .-lv_obj_set_style_pad_right
 671 000e C046     		.section	.text.lv_obj_set_style_pad_row,"ax",%progbits
 672              		.align	2
 673              		.global	lv_obj_set_style_pad_row
 674              		.code	16
 675              		.thumb_func
 676              		.type	lv_obj_set_style_pad_row, %function
 677              	lv_obj_set_style_pad_row:
 678              	.LFB180:
 170:..\..\..\arduinoLCD\test\Pain Drain\libraries\lvgl\src\core/lv_obj_style_gen.c **** 
 171:..\..\..\arduinoLCD\test\Pain Drain\libraries\lvgl\src\core/lv_obj_style_gen.c **** void lv_obj_set_style_pad_row(struct _lv_obj_t * obj, lv_coord_t value, lv_style_selector_t selecto
 172:..\..\..\arduinoLCD\test\Pain Drain\libraries\lvgl\src\core/lv_obj_style_gen.c **** {
 679              		.loc 1 172 0
 680              		.cfi_startproc
 681              		@ args = 0, pretend = 0, frame = 0
 682              		@ frame_needed = 0, uses_anonymous_args = 0
 683              	.LVL84:
ARM GAS  C:\Users\haske\AppData\Local\Temp\cc0eRFVw.s 			page 16


 684 0000 10B5     		push	{r4, lr}
 685              		.cfi_def_cfa_offset 8
 686              		.cfi_offset 4, -8
 687              		.cfi_offset 14, -4
 688 0002 1300     		movs	r3, r2
 173:..\..\..\arduinoLCD\test\Pain Drain\libraries\lvgl\src\core/lv_obj_style_gen.c ****     lv_style_value_t v = {
 174:..\..\..\arduinoLCD\test\Pain Drain\libraries\lvgl\src\core/lv_obj_style_gen.c ****         .num = (int32_t)value
 175:..\..\..\arduinoLCD\test\Pain Drain\libraries\lvgl\src\core/lv_obj_style_gen.c ****     };
 176:..\..\..\arduinoLCD\test\Pain Drain\libraries\lvgl\src\core/lv_obj_style_gen.c ****     lv_obj_set_local_style_prop(obj, LV_STYLE_PAD_ROW, v, selector);
 689              		.loc 1 176 0
 690 0004 0A00     		movs	r2, r1
 691              	.LVL85:
 692 0006 1421     		movs	r1, #20
 693              	.LVL86:
 694 0008 FFF7FEFF 		bl	lv_obj_set_local_style_prop
 695              	.LVL87:
 177:..\..\..\arduinoLCD\test\Pain Drain\libraries\lvgl\src\core/lv_obj_style_gen.c **** }
 696              		.loc 1 177 0
 697              		@ sp needed
 698 000c 10BD     		pop	{r4, pc}
 699              		.cfi_endproc
 700              	.LFE180:
 701              		.size	lv_obj_set_style_pad_row, .-lv_obj_set_style_pad_row
 702 000e C046     		.section	.text.lv_obj_set_style_pad_column,"ax",%progbits
 703              		.align	2
 704              		.global	lv_obj_set_style_pad_column
 705              		.code	16
 706              		.thumb_func
 707              		.type	lv_obj_set_style_pad_column, %function
 708              	lv_obj_set_style_pad_column:
 709              	.LFB181:
 178:..\..\..\arduinoLCD\test\Pain Drain\libraries\lvgl\src\core/lv_obj_style_gen.c **** 
 179:..\..\..\arduinoLCD\test\Pain Drain\libraries\lvgl\src\core/lv_obj_style_gen.c **** void lv_obj_set_style_pad_column(struct _lv_obj_t * obj, lv_coord_t value, lv_style_selector_t sele
 180:..\..\..\arduinoLCD\test\Pain Drain\libraries\lvgl\src\core/lv_obj_style_gen.c **** {
 710              		.loc 1 180 0
 711              		.cfi_startproc
 712              		@ args = 0, pretend = 0, frame = 0
 713              		@ frame_needed = 0, uses_anonymous_args = 0
 714              	.LVL88:
 715 0000 10B5     		push	{r4, lr}
 716              		.cfi_def_cfa_offset 8
 717              		.cfi_offset 4, -8
 718              		.cfi_offset 14, -4
 719 0002 1300     		movs	r3, r2
 181:..\..\..\arduinoLCD\test\Pain Drain\libraries\lvgl\src\core/lv_obj_style_gen.c ****     lv_style_value_t v = {
 182:..\..\..\arduinoLCD\test\Pain Drain\libraries\lvgl\src\core/lv_obj_style_gen.c ****         .num = (int32_t)value
 183:..\..\..\arduinoLCD\test\Pain Drain\libraries\lvgl\src\core/lv_obj_style_gen.c ****     };
 184:..\..\..\arduinoLCD\test\Pain Drain\libraries\lvgl\src\core/lv_obj_style_gen.c ****     lv_obj_set_local_style_prop(obj, LV_STYLE_PAD_COLUMN, v, selector);
 720              		.loc 1 184 0
 721 0004 0A00     		movs	r2, r1
 722              	.LVL89:
 723 0006 1521     		movs	r1, #21
 724              	.LVL90:
 725 0008 FFF7FEFF 		bl	lv_obj_set_local_style_prop
 726              	.LVL91:
 185:..\..\..\arduinoLCD\test\Pain Drain\libraries\lvgl\src\core/lv_obj_style_gen.c **** }
 727              		.loc 1 185 0
ARM GAS  C:\Users\haske\AppData\Local\Temp\cc0eRFVw.s 			page 17


 728              		@ sp needed
 729 000c 10BD     		pop	{r4, pc}
 730              		.cfi_endproc
 731              	.LFE181:
 732              		.size	lv_obj_set_style_pad_column, .-lv_obj_set_style_pad_column
 733 000e C046     		.section	.text.lv_obj_set_style_bg_color,"ax",%progbits
 734              		.align	2
 735              		.global	lv_obj_set_style_bg_color
 736              		.code	16
 737              		.thumb_func
 738              		.type	lv_obj_set_style_bg_color, %function
 739              	lv_obj_set_style_bg_color:
 740              	.LFB182:
 186:..\..\..\arduinoLCD\test\Pain Drain\libraries\lvgl\src\core/lv_obj_style_gen.c **** 
 187:..\..\..\arduinoLCD\test\Pain Drain\libraries\lvgl\src\core/lv_obj_style_gen.c **** void lv_obj_set_style_bg_color(struct _lv_obj_t * obj, lv_color_t value, lv_style_selector_t select
 188:..\..\..\arduinoLCD\test\Pain Drain\libraries\lvgl\src\core/lv_obj_style_gen.c **** {
 741              		.loc 1 188 0
 742              		.cfi_startproc
 743              		@ args = 0, pretend = 0, frame = 0
 744              		@ frame_needed = 0, uses_anonymous_args = 0
 745              	.LVL92:
 746 0000 10B5     		push	{r4, lr}
 747              		.cfi_def_cfa_offset 8
 748              		.cfi_offset 4, -8
 749              		.cfi_offset 14, -4
 750 0002 1300     		movs	r3, r2
 189:..\..\..\arduinoLCD\test\Pain Drain\libraries\lvgl\src\core/lv_obj_style_gen.c ****     lv_style_value_t v = {
 751              		.loc 1 189 0
 752 0004 8AB2     		uxth	r2, r1
 753              	.LVL93:
 190:..\..\..\arduinoLCD\test\Pain Drain\libraries\lvgl\src\core/lv_obj_style_gen.c ****         .color = value
 191:..\..\..\arduinoLCD\test\Pain Drain\libraries\lvgl\src\core/lv_obj_style_gen.c ****     };
 192:..\..\..\arduinoLCD\test\Pain Drain\libraries\lvgl\src\core/lv_obj_style_gen.c ****     lv_obj_set_local_style_prop(obj, LV_STYLE_BG_COLOR, v, selector);
 754              		.loc 1 192 0
 755 0006 2021     		movs	r1, #32
 756 0008 FFF7FEFF 		bl	lv_obj_set_local_style_prop
 757              	.LVL94:
 193:..\..\..\arduinoLCD\test\Pain Drain\libraries\lvgl\src\core/lv_obj_style_gen.c **** }
 758              		.loc 1 193 0
 759              		@ sp needed
 760 000c 10BD     		pop	{r4, pc}
 761              		.cfi_endproc
 762              	.LFE182:
 763              		.size	lv_obj_set_style_bg_color, .-lv_obj_set_style_bg_color
 764 000e C046     		.section	.text.lv_obj_set_style_bg_opa,"ax",%progbits
 765              		.align	2
 766              		.global	lv_obj_set_style_bg_opa
 767              		.code	16
 768              		.thumb_func
 769              		.type	lv_obj_set_style_bg_opa, %function
 770              	lv_obj_set_style_bg_opa:
 771              	.LFB183:
 194:..\..\..\arduinoLCD\test\Pain Drain\libraries\lvgl\src\core/lv_obj_style_gen.c **** 
 195:..\..\..\arduinoLCD\test\Pain Drain\libraries\lvgl\src\core/lv_obj_style_gen.c **** void lv_obj_set_style_bg_opa(struct _lv_obj_t * obj, lv_opa_t value, lv_style_selector_t selector)
 196:..\..\..\arduinoLCD\test\Pain Drain\libraries\lvgl\src\core/lv_obj_style_gen.c **** {
 772              		.loc 1 196 0
 773              		.cfi_startproc
ARM GAS  C:\Users\haske\AppData\Local\Temp\cc0eRFVw.s 			page 18


 774              		@ args = 0, pretend = 0, frame = 0
 775              		@ frame_needed = 0, uses_anonymous_args = 0
 776              	.LVL95:
 777 0000 10B5     		push	{r4, lr}
 778              		.cfi_def_cfa_offset 8
 779              		.cfi_offset 4, -8
 780              		.cfi_offset 14, -4
 781 0002 1300     		movs	r3, r2
 197:..\..\..\arduinoLCD\test\Pain Drain\libraries\lvgl\src\core/lv_obj_style_gen.c ****     lv_style_value_t v = {
 198:..\..\..\arduinoLCD\test\Pain Drain\libraries\lvgl\src\core/lv_obj_style_gen.c ****         .num = (int32_t)value
 199:..\..\..\arduinoLCD\test\Pain Drain\libraries\lvgl\src\core/lv_obj_style_gen.c ****     };
 200:..\..\..\arduinoLCD\test\Pain Drain\libraries\lvgl\src\core/lv_obj_style_gen.c ****     lv_obj_set_local_style_prop(obj, LV_STYLE_BG_OPA, v, selector);
 782              		.loc 1 200 0
 783 0004 0A00     		movs	r2, r1
 784              	.LVL96:
 785 0006 2121     		movs	r1, #33
 786              	.LVL97:
 787 0008 FFF7FEFF 		bl	lv_obj_set_local_style_prop
 788              	.LVL98:
 201:..\..\..\arduinoLCD\test\Pain Drain\libraries\lvgl\src\core/lv_obj_style_gen.c **** }
 789              		.loc 1 201 0
 790              		@ sp needed
 791 000c 10BD     		pop	{r4, pc}
 792              		.cfi_endproc
 793              	.LFE183:
 794              		.size	lv_obj_set_style_bg_opa, .-lv_obj_set_style_bg_opa
 795 000e C046     		.section	.text.lv_obj_set_style_bg_grad_color,"ax",%progbits
 796              		.align	2
 797              		.global	lv_obj_set_style_bg_grad_color
 798              		.code	16
 799              		.thumb_func
 800              		.type	lv_obj_set_style_bg_grad_color, %function
 801              	lv_obj_set_style_bg_grad_color:
 802              	.LFB184:
 202:..\..\..\arduinoLCD\test\Pain Drain\libraries\lvgl\src\core/lv_obj_style_gen.c **** 
 203:..\..\..\arduinoLCD\test\Pain Drain\libraries\lvgl\src\core/lv_obj_style_gen.c **** void lv_obj_set_style_bg_grad_color(struct _lv_obj_t * obj, lv_color_t value, lv_style_selector_t s
 204:..\..\..\arduinoLCD\test\Pain Drain\libraries\lvgl\src\core/lv_obj_style_gen.c **** {
 803              		.loc 1 204 0
 804              		.cfi_startproc
 805              		@ args = 0, pretend = 0, frame = 0
 806              		@ frame_needed = 0, uses_anonymous_args = 0
 807              	.LVL99:
 808 0000 10B5     		push	{r4, lr}
 809              		.cfi_def_cfa_offset 8
 810              		.cfi_offset 4, -8
 811              		.cfi_offset 14, -4
 812 0002 1300     		movs	r3, r2
 205:..\..\..\arduinoLCD\test\Pain Drain\libraries\lvgl\src\core/lv_obj_style_gen.c ****     lv_style_value_t v = {
 813              		.loc 1 205 0
 814 0004 8AB2     		uxth	r2, r1
 815              	.LVL100:
 206:..\..\..\arduinoLCD\test\Pain Drain\libraries\lvgl\src\core/lv_obj_style_gen.c ****         .color = value
 207:..\..\..\arduinoLCD\test\Pain Drain\libraries\lvgl\src\core/lv_obj_style_gen.c ****     };
 208:..\..\..\arduinoLCD\test\Pain Drain\libraries\lvgl\src\core/lv_obj_style_gen.c ****     lv_obj_set_local_style_prop(obj, LV_STYLE_BG_GRAD_COLOR, v, selector);
 816              		.loc 1 208 0
 817 0006 2221     		movs	r1, #34
 818 0008 FFF7FEFF 		bl	lv_obj_set_local_style_prop
ARM GAS  C:\Users\haske\AppData\Local\Temp\cc0eRFVw.s 			page 19


 819              	.LVL101:
 209:..\..\..\arduinoLCD\test\Pain Drain\libraries\lvgl\src\core/lv_obj_style_gen.c **** }
 820              		.loc 1 209 0
 821              		@ sp needed
 822 000c 10BD     		pop	{r4, pc}
 823              		.cfi_endproc
 824              	.LFE184:
 825              		.size	lv_obj_set_style_bg_grad_color, .-lv_obj_set_style_bg_grad_color
 826 000e C046     		.section	.text.lv_obj_set_style_bg_grad_dir,"ax",%progbits
 827              		.align	2
 828              		.global	lv_obj_set_style_bg_grad_dir
 829              		.code	16
 830              		.thumb_func
 831              		.type	lv_obj_set_style_bg_grad_dir, %function
 832              	lv_obj_set_style_bg_grad_dir:
 833              	.LFB185:
 210:..\..\..\arduinoLCD\test\Pain Drain\libraries\lvgl\src\core/lv_obj_style_gen.c **** 
 211:..\..\..\arduinoLCD\test\Pain Drain\libraries\lvgl\src\core/lv_obj_style_gen.c **** void lv_obj_set_style_bg_grad_dir(struct _lv_obj_t * obj, lv_grad_dir_t value, lv_style_selector_t 
 212:..\..\..\arduinoLCD\test\Pain Drain\libraries\lvgl\src\core/lv_obj_style_gen.c **** {
 834              		.loc 1 212 0
 835              		.cfi_startproc
 836              		@ args = 0, pretend = 0, frame = 0
 837              		@ frame_needed = 0, uses_anonymous_args = 0
 838              	.LVL102:
 839 0000 10B5     		push	{r4, lr}
 840              		.cfi_def_cfa_offset 8
 841              		.cfi_offset 4, -8
 842              		.cfi_offset 14, -4
 843 0002 1300     		movs	r3, r2
 213:..\..\..\arduinoLCD\test\Pain Drain\libraries\lvgl\src\core/lv_obj_style_gen.c ****     lv_style_value_t v = {
 214:..\..\..\arduinoLCD\test\Pain Drain\libraries\lvgl\src\core/lv_obj_style_gen.c ****         .num = (int32_t)value
 215:..\..\..\arduinoLCD\test\Pain Drain\libraries\lvgl\src\core/lv_obj_style_gen.c ****     };
 216:..\..\..\arduinoLCD\test\Pain Drain\libraries\lvgl\src\core/lv_obj_style_gen.c ****     lv_obj_set_local_style_prop(obj, LV_STYLE_BG_GRAD_DIR, v, selector);
 844              		.loc 1 216 0
 845 0004 0A00     		movs	r2, r1
 846              	.LVL103:
 847 0006 2321     		movs	r1, #35
 848              	.LVL104:
 849 0008 FFF7FEFF 		bl	lv_obj_set_local_style_prop
 850              	.LVL105:
 217:..\..\..\arduinoLCD\test\Pain Drain\libraries\lvgl\src\core/lv_obj_style_gen.c **** }
 851              		.loc 1 217 0
 852              		@ sp needed
 853 000c 10BD     		pop	{r4, pc}
 854              		.cfi_endproc
 855              	.LFE185:
 856              		.size	lv_obj_set_style_bg_grad_dir, .-lv_obj_set_style_bg_grad_dir
 857 000e C046     		.section	.text.lv_obj_set_style_bg_main_stop,"ax",%progbits
 858              		.align	2
 859              		.global	lv_obj_set_style_bg_main_stop
 860              		.code	16
 861              		.thumb_func
 862              		.type	lv_obj_set_style_bg_main_stop, %function
 863              	lv_obj_set_style_bg_main_stop:
 864              	.LFB186:
 218:..\..\..\arduinoLCD\test\Pain Drain\libraries\lvgl\src\core/lv_obj_style_gen.c **** 
 219:..\..\..\arduinoLCD\test\Pain Drain\libraries\lvgl\src\core/lv_obj_style_gen.c **** void lv_obj_set_style_bg_main_stop(struct _lv_obj_t * obj, lv_coord_t value, lv_style_selector_t se
ARM GAS  C:\Users\haske\AppData\Local\Temp\cc0eRFVw.s 			page 20


 220:..\..\..\arduinoLCD\test\Pain Drain\libraries\lvgl\src\core/lv_obj_style_gen.c **** {
 865              		.loc 1 220 0
 866              		.cfi_startproc
 867              		@ args = 0, pretend = 0, frame = 0
 868              		@ frame_needed = 0, uses_anonymous_args = 0
 869              	.LVL106:
 870 0000 10B5     		push	{r4, lr}
 871              		.cfi_def_cfa_offset 8
 872              		.cfi_offset 4, -8
 873              		.cfi_offset 14, -4
 874 0002 1300     		movs	r3, r2
 221:..\..\..\arduinoLCD\test\Pain Drain\libraries\lvgl\src\core/lv_obj_style_gen.c ****     lv_style_value_t v = {
 222:..\..\..\arduinoLCD\test\Pain Drain\libraries\lvgl\src\core/lv_obj_style_gen.c ****         .num = (int32_t)value
 223:..\..\..\arduinoLCD\test\Pain Drain\libraries\lvgl\src\core/lv_obj_style_gen.c ****     };
 224:..\..\..\arduinoLCD\test\Pain Drain\libraries\lvgl\src\core/lv_obj_style_gen.c ****     lv_obj_set_local_style_prop(obj, LV_STYLE_BG_MAIN_STOP, v, selector);
 875              		.loc 1 224 0
 876 0004 0A00     		movs	r2, r1
 877              	.LVL107:
 878 0006 2421     		movs	r1, #36
 879              	.LVL108:
 880 0008 FFF7FEFF 		bl	lv_obj_set_local_style_prop
 881              	.LVL109:
 225:..\..\..\arduinoLCD\test\Pain Drain\libraries\lvgl\src\core/lv_obj_style_gen.c **** }
 882              		.loc 1 225 0
 883              		@ sp needed
 884 000c 10BD     		pop	{r4, pc}
 885              		.cfi_endproc
 886              	.LFE186:
 887              		.size	lv_obj_set_style_bg_main_stop, .-lv_obj_set_style_bg_main_stop
 888 000e C046     		.section	.text.lv_obj_set_style_bg_grad_stop,"ax",%progbits
 889              		.align	2
 890              		.global	lv_obj_set_style_bg_grad_stop
 891              		.code	16
 892              		.thumb_func
 893              		.type	lv_obj_set_style_bg_grad_stop, %function
 894              	lv_obj_set_style_bg_grad_stop:
 895              	.LFB187:
 226:..\..\..\arduinoLCD\test\Pain Drain\libraries\lvgl\src\core/lv_obj_style_gen.c **** 
 227:..\..\..\arduinoLCD\test\Pain Drain\libraries\lvgl\src\core/lv_obj_style_gen.c **** void lv_obj_set_style_bg_grad_stop(struct _lv_obj_t * obj, lv_coord_t value, lv_style_selector_t se
 228:..\..\..\arduinoLCD\test\Pain Drain\libraries\lvgl\src\core/lv_obj_style_gen.c **** {
 896              		.loc 1 228 0
 897              		.cfi_startproc
 898              		@ args = 0, pretend = 0, frame = 0
 899              		@ frame_needed = 0, uses_anonymous_args = 0
 900              	.LVL110:
 901 0000 10B5     		push	{r4, lr}
 902              		.cfi_def_cfa_offset 8
 903              		.cfi_offset 4, -8
 904              		.cfi_offset 14, -4
 905 0002 1300     		movs	r3, r2
 229:..\..\..\arduinoLCD\test\Pain Drain\libraries\lvgl\src\core/lv_obj_style_gen.c ****     lv_style_value_t v = {
 230:..\..\..\arduinoLCD\test\Pain Drain\libraries\lvgl\src\core/lv_obj_style_gen.c ****         .num = (int32_t)value
 231:..\..\..\arduinoLCD\test\Pain Drain\libraries\lvgl\src\core/lv_obj_style_gen.c ****     };
 232:..\..\..\arduinoLCD\test\Pain Drain\libraries\lvgl\src\core/lv_obj_style_gen.c ****     lv_obj_set_local_style_prop(obj, LV_STYLE_BG_GRAD_STOP, v, selector);
 906              		.loc 1 232 0
 907 0004 0A00     		movs	r2, r1
 908              	.LVL111:
ARM GAS  C:\Users\haske\AppData\Local\Temp\cc0eRFVw.s 			page 21


 909 0006 2521     		movs	r1, #37
 910              	.LVL112:
 911 0008 FFF7FEFF 		bl	lv_obj_set_local_style_prop
 912              	.LVL113:
 233:..\..\..\arduinoLCD\test\Pain Drain\libraries\lvgl\src\core/lv_obj_style_gen.c **** }
 913              		.loc 1 233 0
 914              		@ sp needed
 915 000c 10BD     		pop	{r4, pc}
 916              		.cfi_endproc
 917              	.LFE187:
 918              		.size	lv_obj_set_style_bg_grad_stop, .-lv_obj_set_style_bg_grad_stop
 919 000e C046     		.section	.text.lv_obj_set_style_bg_grad,"ax",%progbits
 920              		.align	2
 921              		.global	lv_obj_set_style_bg_grad
 922              		.code	16
 923              		.thumb_func
 924              		.type	lv_obj_set_style_bg_grad, %function
 925              	lv_obj_set_style_bg_grad:
 926              	.LFB188:
 234:..\..\..\arduinoLCD\test\Pain Drain\libraries\lvgl\src\core/lv_obj_style_gen.c **** 
 235:..\..\..\arduinoLCD\test\Pain Drain\libraries\lvgl\src\core/lv_obj_style_gen.c **** void lv_obj_set_style_bg_grad(struct _lv_obj_t * obj, const lv_grad_dsc_t * value, lv_style_selecto
 236:..\..\..\arduinoLCD\test\Pain Drain\libraries\lvgl\src\core/lv_obj_style_gen.c **** {
 927              		.loc 1 236 0
 928              		.cfi_startproc
 929              		@ args = 0, pretend = 0, frame = 0
 930              		@ frame_needed = 0, uses_anonymous_args = 0
 931              	.LVL114:
 932 0000 10B5     		push	{r4, lr}
 933              		.cfi_def_cfa_offset 8
 934              		.cfi_offset 4, -8
 935              		.cfi_offset 14, -4
 936 0002 1300     		movs	r3, r2
 237:..\..\..\arduinoLCD\test\Pain Drain\libraries\lvgl\src\core/lv_obj_style_gen.c ****     lv_style_value_t v = {
 238:..\..\..\arduinoLCD\test\Pain Drain\libraries\lvgl\src\core/lv_obj_style_gen.c ****         .ptr = value
 239:..\..\..\arduinoLCD\test\Pain Drain\libraries\lvgl\src\core/lv_obj_style_gen.c ****     };
 240:..\..\..\arduinoLCD\test\Pain Drain\libraries\lvgl\src\core/lv_obj_style_gen.c ****     lv_obj_set_local_style_prop(obj, LV_STYLE_BG_GRAD, v, selector);
 937              		.loc 1 240 0
 938 0004 0A00     		movs	r2, r1
 939              	.LVL115:
 940 0006 2621     		movs	r1, #38
 941              	.LVL116:
 942 0008 FFF7FEFF 		bl	lv_obj_set_local_style_prop
 943              	.LVL117:
 241:..\..\..\arduinoLCD\test\Pain Drain\libraries\lvgl\src\core/lv_obj_style_gen.c **** }
 944              		.loc 1 241 0
 945              		@ sp needed
 946 000c 10BD     		pop	{r4, pc}
 947              		.cfi_endproc
 948              	.LFE188:
 949              		.size	lv_obj_set_style_bg_grad, .-lv_obj_set_style_bg_grad
 950 000e C046     		.section	.text.lv_obj_set_style_bg_dither_mode,"ax",%progbits
 951              		.align	2
 952              		.global	lv_obj_set_style_bg_dither_mode
 953              		.code	16
 954              		.thumb_func
 955              		.type	lv_obj_set_style_bg_dither_mode, %function
 956              	lv_obj_set_style_bg_dither_mode:
ARM GAS  C:\Users\haske\AppData\Local\Temp\cc0eRFVw.s 			page 22


 957              	.LFB189:
 242:..\..\..\arduinoLCD\test\Pain Drain\libraries\lvgl\src\core/lv_obj_style_gen.c **** 
 243:..\..\..\arduinoLCD\test\Pain Drain\libraries\lvgl\src\core/lv_obj_style_gen.c **** void lv_obj_set_style_bg_dither_mode(struct _lv_obj_t * obj, lv_dither_mode_t value, lv_style_selec
 244:..\..\..\arduinoLCD\test\Pain Drain\libraries\lvgl\src\core/lv_obj_style_gen.c **** {
 958              		.loc 1 244 0
 959              		.cfi_startproc
 960              		@ args = 0, pretend = 0, frame = 0
 961              		@ frame_needed = 0, uses_anonymous_args = 0
 962              	.LVL118:
 963 0000 10B5     		push	{r4, lr}
 964              		.cfi_def_cfa_offset 8
 965              		.cfi_offset 4, -8
 966              		.cfi_offset 14, -4
 967 0002 1300     		movs	r3, r2
 245:..\..\..\arduinoLCD\test\Pain Drain\libraries\lvgl\src\core/lv_obj_style_gen.c ****     lv_style_value_t v = {
 246:..\..\..\arduinoLCD\test\Pain Drain\libraries\lvgl\src\core/lv_obj_style_gen.c ****         .num = (int32_t)value
 247:..\..\..\arduinoLCD\test\Pain Drain\libraries\lvgl\src\core/lv_obj_style_gen.c ****     };
 248:..\..\..\arduinoLCD\test\Pain Drain\libraries\lvgl\src\core/lv_obj_style_gen.c ****     lv_obj_set_local_style_prop(obj, LV_STYLE_BG_DITHER_MODE, v, selector);
 968              		.loc 1 248 0
 969 0004 0A00     		movs	r2, r1
 970              	.LVL119:
 971 0006 2721     		movs	r1, #39
 972              	.LVL120:
 973 0008 FFF7FEFF 		bl	lv_obj_set_local_style_prop
 974              	.LVL121:
 249:..\..\..\arduinoLCD\test\Pain Drain\libraries\lvgl\src\core/lv_obj_style_gen.c **** }
 975              		.loc 1 249 0
 976              		@ sp needed
 977 000c 10BD     		pop	{r4, pc}
 978              		.cfi_endproc
 979              	.LFE189:
 980              		.size	lv_obj_set_style_bg_dither_mode, .-lv_obj_set_style_bg_dither_mode
 981 000e C046     		.section	.text.lv_obj_set_style_bg_img_src,"ax",%progbits
 982              		.align	2
 983              		.global	lv_obj_set_style_bg_img_src
 984              		.code	16
 985              		.thumb_func
 986              		.type	lv_obj_set_style_bg_img_src, %function
 987              	lv_obj_set_style_bg_img_src:
 988              	.LFB190:
 250:..\..\..\arduinoLCD\test\Pain Drain\libraries\lvgl\src\core/lv_obj_style_gen.c **** 
 251:..\..\..\arduinoLCD\test\Pain Drain\libraries\lvgl\src\core/lv_obj_style_gen.c **** void lv_obj_set_style_bg_img_src(struct _lv_obj_t * obj, const void * value, lv_style_selector_t se
 252:..\..\..\arduinoLCD\test\Pain Drain\libraries\lvgl\src\core/lv_obj_style_gen.c **** {
 989              		.loc 1 252 0
 990              		.cfi_startproc
 991              		@ args = 0, pretend = 0, frame = 0
 992              		@ frame_needed = 0, uses_anonymous_args = 0
 993              	.LVL122:
 994 0000 10B5     		push	{r4, lr}
 995              		.cfi_def_cfa_offset 8
 996              		.cfi_offset 4, -8
 997              		.cfi_offset 14, -4
 998 0002 1300     		movs	r3, r2
 253:..\..\..\arduinoLCD\test\Pain Drain\libraries\lvgl\src\core/lv_obj_style_gen.c ****     lv_style_value_t v = {
 254:..\..\..\arduinoLCD\test\Pain Drain\libraries\lvgl\src\core/lv_obj_style_gen.c ****         .ptr = value
 255:..\..\..\arduinoLCD\test\Pain Drain\libraries\lvgl\src\core/lv_obj_style_gen.c ****     };
 256:..\..\..\arduinoLCD\test\Pain Drain\libraries\lvgl\src\core/lv_obj_style_gen.c ****     lv_obj_set_local_style_prop(obj, LV_STYLE_BG_IMG_SRC, v, selector);
ARM GAS  C:\Users\haske\AppData\Local\Temp\cc0eRFVw.s 			page 23


 999              		.loc 1 256 0
 1000 0004 0A00     		movs	r2, r1
 1001              	.LVL123:
 1002 0006 2821     		movs	r1, #40
 1003              	.LVL124:
 1004 0008 FFF7FEFF 		bl	lv_obj_set_local_style_prop
 1005              	.LVL125:
 257:..\..\..\arduinoLCD\test\Pain Drain\libraries\lvgl\src\core/lv_obj_style_gen.c **** }
 1006              		.loc 1 257 0
 1007              		@ sp needed
 1008 000c 10BD     		pop	{r4, pc}
 1009              		.cfi_endproc
 1010              	.LFE190:
 1011              		.size	lv_obj_set_style_bg_img_src, .-lv_obj_set_style_bg_img_src
 1012 000e C046     		.section	.text.lv_obj_set_style_bg_img_opa,"ax",%progbits
 1013              		.align	2
 1014              		.global	lv_obj_set_style_bg_img_opa
 1015              		.code	16
 1016              		.thumb_func
 1017              		.type	lv_obj_set_style_bg_img_opa, %function
 1018              	lv_obj_set_style_bg_img_opa:
 1019              	.LFB191:
 258:..\..\..\arduinoLCD\test\Pain Drain\libraries\lvgl\src\core/lv_obj_style_gen.c **** 
 259:..\..\..\arduinoLCD\test\Pain Drain\libraries\lvgl\src\core/lv_obj_style_gen.c **** void lv_obj_set_style_bg_img_opa(struct _lv_obj_t * obj, lv_opa_t value, lv_style_selector_t select
 260:..\..\..\arduinoLCD\test\Pain Drain\libraries\lvgl\src\core/lv_obj_style_gen.c **** {
 1020              		.loc 1 260 0
 1021              		.cfi_startproc
 1022              		@ args = 0, pretend = 0, frame = 0
 1023              		@ frame_needed = 0, uses_anonymous_args = 0
 1024              	.LVL126:
 1025 0000 10B5     		push	{r4, lr}
 1026              		.cfi_def_cfa_offset 8
 1027              		.cfi_offset 4, -8
 1028              		.cfi_offset 14, -4
 1029 0002 1300     		movs	r3, r2
 261:..\..\..\arduinoLCD\test\Pain Drain\libraries\lvgl\src\core/lv_obj_style_gen.c ****     lv_style_value_t v = {
 262:..\..\..\arduinoLCD\test\Pain Drain\libraries\lvgl\src\core/lv_obj_style_gen.c ****         .num = (int32_t)value
 263:..\..\..\arduinoLCD\test\Pain Drain\libraries\lvgl\src\core/lv_obj_style_gen.c ****     };
 264:..\..\..\arduinoLCD\test\Pain Drain\libraries\lvgl\src\core/lv_obj_style_gen.c ****     lv_obj_set_local_style_prop(obj, LV_STYLE_BG_IMG_OPA, v, selector);
 1030              		.loc 1 264 0
 1031 0004 0A00     		movs	r2, r1
 1032              	.LVL127:
 1033 0006 2921     		movs	r1, #41
 1034              	.LVL128:
 1035 0008 FFF7FEFF 		bl	lv_obj_set_local_style_prop
 1036              	.LVL129:
 265:..\..\..\arduinoLCD\test\Pain Drain\libraries\lvgl\src\core/lv_obj_style_gen.c **** }
 1037              		.loc 1 265 0
 1038              		@ sp needed
 1039 000c 10BD     		pop	{r4, pc}
 1040              		.cfi_endproc
 1041              	.LFE191:
 1042              		.size	lv_obj_set_style_bg_img_opa, .-lv_obj_set_style_bg_img_opa
 1043 000e C046     		.section	.text.lv_obj_set_style_bg_img_recolor,"ax",%progbits
 1044              		.align	2
 1045              		.global	lv_obj_set_style_bg_img_recolor
 1046              		.code	16
ARM GAS  C:\Users\haske\AppData\Local\Temp\cc0eRFVw.s 			page 24


 1047              		.thumb_func
 1048              		.type	lv_obj_set_style_bg_img_recolor, %function
 1049              	lv_obj_set_style_bg_img_recolor:
 1050              	.LFB192:
 266:..\..\..\arduinoLCD\test\Pain Drain\libraries\lvgl\src\core/lv_obj_style_gen.c **** 
 267:..\..\..\arduinoLCD\test\Pain Drain\libraries\lvgl\src\core/lv_obj_style_gen.c **** void lv_obj_set_style_bg_img_recolor(struct _lv_obj_t * obj, lv_color_t value, lv_style_selector_t 
 268:..\..\..\arduinoLCD\test\Pain Drain\libraries\lvgl\src\core/lv_obj_style_gen.c **** {
 1051              		.loc 1 268 0
 1052              		.cfi_startproc
 1053              		@ args = 0, pretend = 0, frame = 0
 1054              		@ frame_needed = 0, uses_anonymous_args = 0
 1055              	.LVL130:
 1056 0000 10B5     		push	{r4, lr}
 1057              		.cfi_def_cfa_offset 8
 1058              		.cfi_offset 4, -8
 1059              		.cfi_offset 14, -4
 1060 0002 1300     		movs	r3, r2
 269:..\..\..\arduinoLCD\test\Pain Drain\libraries\lvgl\src\core/lv_obj_style_gen.c ****     lv_style_value_t v = {
 1061              		.loc 1 269 0
 1062 0004 8AB2     		uxth	r2, r1
 1063              	.LVL131:
 270:..\..\..\arduinoLCD\test\Pain Drain\libraries\lvgl\src\core/lv_obj_style_gen.c ****         .color = value
 271:..\..\..\arduinoLCD\test\Pain Drain\libraries\lvgl\src\core/lv_obj_style_gen.c ****     };
 272:..\..\..\arduinoLCD\test\Pain Drain\libraries\lvgl\src\core/lv_obj_style_gen.c ****     lv_obj_set_local_style_prop(obj, LV_STYLE_BG_IMG_RECOLOR, v, selector);
 1064              		.loc 1 272 0
 1065 0006 2A21     		movs	r1, #42
 1066 0008 FFF7FEFF 		bl	lv_obj_set_local_style_prop
 1067              	.LVL132:
 273:..\..\..\arduinoLCD\test\Pain Drain\libraries\lvgl\src\core/lv_obj_style_gen.c **** }
 1068              		.loc 1 273 0
 1069              		@ sp needed
 1070 000c 10BD     		pop	{r4, pc}
 1071              		.cfi_endproc
 1072              	.LFE192:
 1073              		.size	lv_obj_set_style_bg_img_recolor, .-lv_obj_set_style_bg_img_recolor
 1074 000e C046     		.section	.text.lv_obj_set_style_bg_img_recolor_opa,"ax",%progbits
 1075              		.align	2
 1076              		.global	lv_obj_set_style_bg_img_recolor_opa
 1077              		.code	16
 1078              		.thumb_func
 1079              		.type	lv_obj_set_style_bg_img_recolor_opa, %function
 1080              	lv_obj_set_style_bg_img_recolor_opa:
 1081              	.LFB193:
 274:..\..\..\arduinoLCD\test\Pain Drain\libraries\lvgl\src\core/lv_obj_style_gen.c **** 
 275:..\..\..\arduinoLCD\test\Pain Drain\libraries\lvgl\src\core/lv_obj_style_gen.c **** void lv_obj_set_style_bg_img_recolor_opa(struct _lv_obj_t * obj, lv_opa_t value, lv_style_selector_
 276:..\..\..\arduinoLCD\test\Pain Drain\libraries\lvgl\src\core/lv_obj_style_gen.c **** {
 1082              		.loc 1 276 0
 1083              		.cfi_startproc
 1084              		@ args = 0, pretend = 0, frame = 0
 1085              		@ frame_needed = 0, uses_anonymous_args = 0
 1086              	.LVL133:
 1087 0000 10B5     		push	{r4, lr}
 1088              		.cfi_def_cfa_offset 8
 1089              		.cfi_offset 4, -8
 1090              		.cfi_offset 14, -4
 1091 0002 1300     		movs	r3, r2
 277:..\..\..\arduinoLCD\test\Pain Drain\libraries\lvgl\src\core/lv_obj_style_gen.c ****     lv_style_value_t v = {
ARM GAS  C:\Users\haske\AppData\Local\Temp\cc0eRFVw.s 			page 25


 278:..\..\..\arduinoLCD\test\Pain Drain\libraries\lvgl\src\core/lv_obj_style_gen.c ****         .num = (int32_t)value
 279:..\..\..\arduinoLCD\test\Pain Drain\libraries\lvgl\src\core/lv_obj_style_gen.c ****     };
 280:..\..\..\arduinoLCD\test\Pain Drain\libraries\lvgl\src\core/lv_obj_style_gen.c ****     lv_obj_set_local_style_prop(obj, LV_STYLE_BG_IMG_RECOLOR_OPA, v, selector);
 1092              		.loc 1 280 0
 1093 0004 0A00     		movs	r2, r1
 1094              	.LVL134:
 1095 0006 2B21     		movs	r1, #43
 1096              	.LVL135:
 1097 0008 FFF7FEFF 		bl	lv_obj_set_local_style_prop
 1098              	.LVL136:
 281:..\..\..\arduinoLCD\test\Pain Drain\libraries\lvgl\src\core/lv_obj_style_gen.c **** }
 1099              		.loc 1 281 0
 1100              		@ sp needed
 1101 000c 10BD     		pop	{r4, pc}
 1102              		.cfi_endproc
 1103              	.LFE193:
 1104              		.size	lv_obj_set_style_bg_img_recolor_opa, .-lv_obj_set_style_bg_img_recolor_opa
 1105 000e C046     		.section	.text.lv_obj_set_style_bg_img_tiled,"ax",%progbits
 1106              		.align	2
 1107              		.global	lv_obj_set_style_bg_img_tiled
 1108              		.code	16
 1109              		.thumb_func
 1110              		.type	lv_obj_set_style_bg_img_tiled, %function
 1111              	lv_obj_set_style_bg_img_tiled:
 1112              	.LFB194:
 282:..\..\..\arduinoLCD\test\Pain Drain\libraries\lvgl\src\core/lv_obj_style_gen.c **** 
 283:..\..\..\arduinoLCD\test\Pain Drain\libraries\lvgl\src\core/lv_obj_style_gen.c **** void lv_obj_set_style_bg_img_tiled(struct _lv_obj_t * obj, bool value, lv_style_selector_t selector
 284:..\..\..\arduinoLCD\test\Pain Drain\libraries\lvgl\src\core/lv_obj_style_gen.c **** {
 1113              		.loc 1 284 0
 1114              		.cfi_startproc
 1115              		@ args = 0, pretend = 0, frame = 0
 1116              		@ frame_needed = 0, uses_anonymous_args = 0
 1117              	.LVL137:
 1118 0000 10B5     		push	{r4, lr}
 1119              		.cfi_def_cfa_offset 8
 1120              		.cfi_offset 4, -8
 1121              		.cfi_offset 14, -4
 1122 0002 1300     		movs	r3, r2
 285:..\..\..\arduinoLCD\test\Pain Drain\libraries\lvgl\src\core/lv_obj_style_gen.c ****     lv_style_value_t v = {
 286:..\..\..\arduinoLCD\test\Pain Drain\libraries\lvgl\src\core/lv_obj_style_gen.c ****         .num = (int32_t)value
 287:..\..\..\arduinoLCD\test\Pain Drain\libraries\lvgl\src\core/lv_obj_style_gen.c ****     };
 288:..\..\..\arduinoLCD\test\Pain Drain\libraries\lvgl\src\core/lv_obj_style_gen.c ****     lv_obj_set_local_style_prop(obj, LV_STYLE_BG_IMG_TILED, v, selector);
 1123              		.loc 1 288 0
 1124 0004 0A00     		movs	r2, r1
 1125              	.LVL138:
 1126 0006 2C21     		movs	r1, #44
 1127              	.LVL139:
 1128 0008 FFF7FEFF 		bl	lv_obj_set_local_style_prop
 1129              	.LVL140:
 289:..\..\..\arduinoLCD\test\Pain Drain\libraries\lvgl\src\core/lv_obj_style_gen.c **** }
 1130              		.loc 1 289 0
 1131              		@ sp needed
 1132 000c 10BD     		pop	{r4, pc}
 1133              		.cfi_endproc
 1134              	.LFE194:
 1135              		.size	lv_obj_set_style_bg_img_tiled, .-lv_obj_set_style_bg_img_tiled
 1136 000e C046     		.section	.text.lv_obj_set_style_border_color,"ax",%progbits
ARM GAS  C:\Users\haske\AppData\Local\Temp\cc0eRFVw.s 			page 26


 1137              		.align	2
 1138              		.global	lv_obj_set_style_border_color
 1139              		.code	16
 1140              		.thumb_func
 1141              		.type	lv_obj_set_style_border_color, %function
 1142              	lv_obj_set_style_border_color:
 1143              	.LFB195:
 290:..\..\..\arduinoLCD\test\Pain Drain\libraries\lvgl\src\core/lv_obj_style_gen.c **** 
 291:..\..\..\arduinoLCD\test\Pain Drain\libraries\lvgl\src\core/lv_obj_style_gen.c **** void lv_obj_set_style_border_color(struct _lv_obj_t * obj, lv_color_t value, lv_style_selector_t se
 292:..\..\..\arduinoLCD\test\Pain Drain\libraries\lvgl\src\core/lv_obj_style_gen.c **** {
 1144              		.loc 1 292 0
 1145              		.cfi_startproc
 1146              		@ args = 0, pretend = 0, frame = 0
 1147              		@ frame_needed = 0, uses_anonymous_args = 0
 1148              	.LVL141:
 1149 0000 10B5     		push	{r4, lr}
 1150              		.cfi_def_cfa_offset 8
 1151              		.cfi_offset 4, -8
 1152              		.cfi_offset 14, -4
 1153 0002 1300     		movs	r3, r2
 293:..\..\..\arduinoLCD\test\Pain Drain\libraries\lvgl\src\core/lv_obj_style_gen.c ****     lv_style_value_t v = {
 1154              		.loc 1 293 0
 1155 0004 8AB2     		uxth	r2, r1
 1156              	.LVL142:
 294:..\..\..\arduinoLCD\test\Pain Drain\libraries\lvgl\src\core/lv_obj_style_gen.c ****         .color = value
 295:..\..\..\arduinoLCD\test\Pain Drain\libraries\lvgl\src\core/lv_obj_style_gen.c ****     };
 296:..\..\..\arduinoLCD\test\Pain Drain\libraries\lvgl\src\core/lv_obj_style_gen.c ****     lv_obj_set_local_style_prop(obj, LV_STYLE_BORDER_COLOR, v, selector);
 1157              		.loc 1 296 0
 1158 0006 3021     		movs	r1, #48
 1159 0008 FFF7FEFF 		bl	lv_obj_set_local_style_prop
 1160              	.LVL143:
 297:..\..\..\arduinoLCD\test\Pain Drain\libraries\lvgl\src\core/lv_obj_style_gen.c **** }
 1161              		.loc 1 297 0
 1162              		@ sp needed
 1163 000c 10BD     		pop	{r4, pc}
 1164              		.cfi_endproc
 1165              	.LFE195:
 1166              		.size	lv_obj_set_style_border_color, .-lv_obj_set_style_border_color
 1167 000e C046     		.section	.text.lv_obj_set_style_border_opa,"ax",%progbits
 1168              		.align	2
 1169              		.global	lv_obj_set_style_border_opa
 1170              		.code	16
 1171              		.thumb_func
 1172              		.type	lv_obj_set_style_border_opa, %function
 1173              	lv_obj_set_style_border_opa:
 1174              	.LFB196:
 298:..\..\..\arduinoLCD\test\Pain Drain\libraries\lvgl\src\core/lv_obj_style_gen.c **** 
 299:..\..\..\arduinoLCD\test\Pain Drain\libraries\lvgl\src\core/lv_obj_style_gen.c **** void lv_obj_set_style_border_opa(struct _lv_obj_t * obj, lv_opa_t value, lv_style_selector_t select
 300:..\..\..\arduinoLCD\test\Pain Drain\libraries\lvgl\src\core/lv_obj_style_gen.c **** {
 1175              		.loc 1 300 0
 1176              		.cfi_startproc
 1177              		@ args = 0, pretend = 0, frame = 0
 1178              		@ frame_needed = 0, uses_anonymous_args = 0
 1179              	.LVL144:
 1180 0000 10B5     		push	{r4, lr}
 1181              		.cfi_def_cfa_offset 8
 1182              		.cfi_offset 4, -8
ARM GAS  C:\Users\haske\AppData\Local\Temp\cc0eRFVw.s 			page 27


 1183              		.cfi_offset 14, -4
 1184 0002 1300     		movs	r3, r2
 301:..\..\..\arduinoLCD\test\Pain Drain\libraries\lvgl\src\core/lv_obj_style_gen.c ****     lv_style_value_t v = {
 302:..\..\..\arduinoLCD\test\Pain Drain\libraries\lvgl\src\core/lv_obj_style_gen.c ****         .num = (int32_t)value
 303:..\..\..\arduinoLCD\test\Pain Drain\libraries\lvgl\src\core/lv_obj_style_gen.c ****     };
 304:..\..\..\arduinoLCD\test\Pain Drain\libraries\lvgl\src\core/lv_obj_style_gen.c ****     lv_obj_set_local_style_prop(obj, LV_STYLE_BORDER_OPA, v, selector);
 1185              		.loc 1 304 0
 1186 0004 0A00     		movs	r2, r1
 1187              	.LVL145:
 1188 0006 3121     		movs	r1, #49
 1189              	.LVL146:
 1190 0008 FFF7FEFF 		bl	lv_obj_set_local_style_prop
 1191              	.LVL147:
 305:..\..\..\arduinoLCD\test\Pain Drain\libraries\lvgl\src\core/lv_obj_style_gen.c **** }
 1192              		.loc 1 305 0
 1193              		@ sp needed
 1194 000c 10BD     		pop	{r4, pc}
 1195              		.cfi_endproc
 1196              	.LFE196:
 1197              		.size	lv_obj_set_style_border_opa, .-lv_obj_set_style_border_opa
 1198 000e C046     		.section	.text.lv_obj_set_style_border_width,"ax",%progbits
 1199              		.align	2
 1200              		.global	lv_obj_set_style_border_width
 1201              		.code	16
 1202              		.thumb_func
 1203              		.type	lv_obj_set_style_border_width, %function
 1204              	lv_obj_set_style_border_width:
 1205              	.LFB197:
 306:..\..\..\arduinoLCD\test\Pain Drain\libraries\lvgl\src\core/lv_obj_style_gen.c **** 
 307:..\..\..\arduinoLCD\test\Pain Drain\libraries\lvgl\src\core/lv_obj_style_gen.c **** void lv_obj_set_style_border_width(struct _lv_obj_t * obj, lv_coord_t value, lv_style_selector_t se
 308:..\..\..\arduinoLCD\test\Pain Drain\libraries\lvgl\src\core/lv_obj_style_gen.c **** {
 1206              		.loc 1 308 0
 1207              		.cfi_startproc
 1208              		@ args = 0, pretend = 0, frame = 0
 1209              		@ frame_needed = 0, uses_anonymous_args = 0
 1210              	.LVL148:
 1211 0000 10B5     		push	{r4, lr}
 1212              		.cfi_def_cfa_offset 8
 1213              		.cfi_offset 4, -8
 1214              		.cfi_offset 14, -4
 1215 0002 1300     		movs	r3, r2
 309:..\..\..\arduinoLCD\test\Pain Drain\libraries\lvgl\src\core/lv_obj_style_gen.c ****     lv_style_value_t v = {
 310:..\..\..\arduinoLCD\test\Pain Drain\libraries\lvgl\src\core/lv_obj_style_gen.c ****         .num = (int32_t)value
 311:..\..\..\arduinoLCD\test\Pain Drain\libraries\lvgl\src\core/lv_obj_style_gen.c ****     };
 312:..\..\..\arduinoLCD\test\Pain Drain\libraries\lvgl\src\core/lv_obj_style_gen.c ****     lv_obj_set_local_style_prop(obj, LV_STYLE_BORDER_WIDTH, v, selector);
 1216              		.loc 1 312 0
 1217 0004 0A00     		movs	r2, r1
 1218              	.LVL149:
 1219 0006 3221     		movs	r1, #50
 1220              	.LVL150:
 1221 0008 FFF7FEFF 		bl	lv_obj_set_local_style_prop
 1222              	.LVL151:
 313:..\..\..\arduinoLCD\test\Pain Drain\libraries\lvgl\src\core/lv_obj_style_gen.c **** }
 1223              		.loc 1 313 0
 1224              		@ sp needed
 1225 000c 10BD     		pop	{r4, pc}
 1226              		.cfi_endproc
ARM GAS  C:\Users\haske\AppData\Local\Temp\cc0eRFVw.s 			page 28


 1227              	.LFE197:
 1228              		.size	lv_obj_set_style_border_width, .-lv_obj_set_style_border_width
 1229 000e C046     		.section	.text.lv_obj_set_style_border_side,"ax",%progbits
 1230              		.align	2
 1231              		.global	lv_obj_set_style_border_side
 1232              		.code	16
 1233              		.thumb_func
 1234              		.type	lv_obj_set_style_border_side, %function
 1235              	lv_obj_set_style_border_side:
 1236              	.LFB198:
 314:..\..\..\arduinoLCD\test\Pain Drain\libraries\lvgl\src\core/lv_obj_style_gen.c **** 
 315:..\..\..\arduinoLCD\test\Pain Drain\libraries\lvgl\src\core/lv_obj_style_gen.c **** void lv_obj_set_style_border_side(struct _lv_obj_t * obj, lv_border_side_t value, lv_style_selector
 316:..\..\..\arduinoLCD\test\Pain Drain\libraries\lvgl\src\core/lv_obj_style_gen.c **** {
 1237              		.loc 1 316 0
 1238              		.cfi_startproc
 1239              		@ args = 0, pretend = 0, frame = 0
 1240              		@ frame_needed = 0, uses_anonymous_args = 0
 1241              	.LVL152:
 1242 0000 10B5     		push	{r4, lr}
 1243              		.cfi_def_cfa_offset 8
 1244              		.cfi_offset 4, -8
 1245              		.cfi_offset 14, -4
 1246 0002 1300     		movs	r3, r2
 317:..\..\..\arduinoLCD\test\Pain Drain\libraries\lvgl\src\core/lv_obj_style_gen.c ****     lv_style_value_t v = {
 318:..\..\..\arduinoLCD\test\Pain Drain\libraries\lvgl\src\core/lv_obj_style_gen.c ****         .num = (int32_t)value
 319:..\..\..\arduinoLCD\test\Pain Drain\libraries\lvgl\src\core/lv_obj_style_gen.c ****     };
 320:..\..\..\arduinoLCD\test\Pain Drain\libraries\lvgl\src\core/lv_obj_style_gen.c ****     lv_obj_set_local_style_prop(obj, LV_STYLE_BORDER_SIDE, v, selector);
 1247              		.loc 1 320 0
 1248 0004 0A00     		movs	r2, r1
 1249              	.LVL153:
 1250 0006 3321     		movs	r1, #51
 1251              	.LVL154:
 1252 0008 FFF7FEFF 		bl	lv_obj_set_local_style_prop
 1253              	.LVL155:
 321:..\..\..\arduinoLCD\test\Pain Drain\libraries\lvgl\src\core/lv_obj_style_gen.c **** }
 1254              		.loc 1 321 0
 1255              		@ sp needed
 1256 000c 10BD     		pop	{r4, pc}
 1257              		.cfi_endproc
 1258              	.LFE198:
 1259              		.size	lv_obj_set_style_border_side, .-lv_obj_set_style_border_side
 1260 000e C046     		.section	.text.lv_obj_set_style_border_post,"ax",%progbits
 1261              		.align	2
 1262              		.global	lv_obj_set_style_border_post
 1263              		.code	16
 1264              		.thumb_func
 1265              		.type	lv_obj_set_style_border_post, %function
 1266              	lv_obj_set_style_border_post:
 1267              	.LFB199:
 322:..\..\..\arduinoLCD\test\Pain Drain\libraries\lvgl\src\core/lv_obj_style_gen.c **** 
 323:..\..\..\arduinoLCD\test\Pain Drain\libraries\lvgl\src\core/lv_obj_style_gen.c **** void lv_obj_set_style_border_post(struct _lv_obj_t * obj, bool value, lv_style_selector_t selector)
 324:..\..\..\arduinoLCD\test\Pain Drain\libraries\lvgl\src\core/lv_obj_style_gen.c **** {
 1268              		.loc 1 324 0
 1269              		.cfi_startproc
 1270              		@ args = 0, pretend = 0, frame = 0
 1271              		@ frame_needed = 0, uses_anonymous_args = 0
 1272              	.LVL156:
ARM GAS  C:\Users\haske\AppData\Local\Temp\cc0eRFVw.s 			page 29


 1273 0000 10B5     		push	{r4, lr}
 1274              		.cfi_def_cfa_offset 8
 1275              		.cfi_offset 4, -8
 1276              		.cfi_offset 14, -4
 1277 0002 1300     		movs	r3, r2
 325:..\..\..\arduinoLCD\test\Pain Drain\libraries\lvgl\src\core/lv_obj_style_gen.c ****     lv_style_value_t v = {
 326:..\..\..\arduinoLCD\test\Pain Drain\libraries\lvgl\src\core/lv_obj_style_gen.c ****         .num = (int32_t)value
 327:..\..\..\arduinoLCD\test\Pain Drain\libraries\lvgl\src\core/lv_obj_style_gen.c ****     };
 328:..\..\..\arduinoLCD\test\Pain Drain\libraries\lvgl\src\core/lv_obj_style_gen.c ****     lv_obj_set_local_style_prop(obj, LV_STYLE_BORDER_POST, v, selector);
 1278              		.loc 1 328 0
 1279 0004 0A00     		movs	r2, r1
 1280              	.LVL157:
 1281 0006 3421     		movs	r1, #52
 1282              	.LVL158:
 1283 0008 FFF7FEFF 		bl	lv_obj_set_local_style_prop
 1284              	.LVL159:
 329:..\..\..\arduinoLCD\test\Pain Drain\libraries\lvgl\src\core/lv_obj_style_gen.c **** }
 1285              		.loc 1 329 0
 1286              		@ sp needed
 1287 000c 10BD     		pop	{r4, pc}
 1288              		.cfi_endproc
 1289              	.LFE199:
 1290              		.size	lv_obj_set_style_border_post, .-lv_obj_set_style_border_post
 1291 000e C046     		.section	.text.lv_obj_set_style_outline_width,"ax",%progbits
 1292              		.align	2
 1293              		.global	lv_obj_set_style_outline_width
 1294              		.code	16
 1295              		.thumb_func
 1296              		.type	lv_obj_set_style_outline_width, %function
 1297              	lv_obj_set_style_outline_width:
 1298              	.LFB200:
 330:..\..\..\arduinoLCD\test\Pain Drain\libraries\lvgl\src\core/lv_obj_style_gen.c **** 
 331:..\..\..\arduinoLCD\test\Pain Drain\libraries\lvgl\src\core/lv_obj_style_gen.c **** void lv_obj_set_style_outline_width(struct _lv_obj_t * obj, lv_coord_t value, lv_style_selector_t s
 332:..\..\..\arduinoLCD\test\Pain Drain\libraries\lvgl\src\core/lv_obj_style_gen.c **** {
 1299              		.loc 1 332 0
 1300              		.cfi_startproc
 1301              		@ args = 0, pretend = 0, frame = 0
 1302              		@ frame_needed = 0, uses_anonymous_args = 0
 1303              	.LVL160:
 1304 0000 10B5     		push	{r4, lr}
 1305              		.cfi_def_cfa_offset 8
 1306              		.cfi_offset 4, -8
 1307              		.cfi_offset 14, -4
 1308 0002 1300     		movs	r3, r2
 333:..\..\..\arduinoLCD\test\Pain Drain\libraries\lvgl\src\core/lv_obj_style_gen.c ****     lv_style_value_t v = {
 334:..\..\..\arduinoLCD\test\Pain Drain\libraries\lvgl\src\core/lv_obj_style_gen.c ****         .num = (int32_t)value
 335:..\..\..\arduinoLCD\test\Pain Drain\libraries\lvgl\src\core/lv_obj_style_gen.c ****     };
 336:..\..\..\arduinoLCD\test\Pain Drain\libraries\lvgl\src\core/lv_obj_style_gen.c ****     lv_obj_set_local_style_prop(obj, LV_STYLE_OUTLINE_WIDTH, v, selector);
 1309              		.loc 1 336 0
 1310 0004 0A00     		movs	r2, r1
 1311              	.LVL161:
 1312 0006 3521     		movs	r1, #53
 1313              	.LVL162:
 1314 0008 FFF7FEFF 		bl	lv_obj_set_local_style_prop
 1315              	.LVL163:
 337:..\..\..\arduinoLCD\test\Pain Drain\libraries\lvgl\src\core/lv_obj_style_gen.c **** }
 1316              		.loc 1 337 0
ARM GAS  C:\Users\haske\AppData\Local\Temp\cc0eRFVw.s 			page 30


 1317              		@ sp needed
 1318 000c 10BD     		pop	{r4, pc}
 1319              		.cfi_endproc
 1320              	.LFE200:
 1321              		.size	lv_obj_set_style_outline_width, .-lv_obj_set_style_outline_width
 1322 000e C046     		.section	.text.lv_obj_set_style_outline_color,"ax",%progbits
 1323              		.align	2
 1324              		.global	lv_obj_set_style_outline_color
 1325              		.code	16
 1326              		.thumb_func
 1327              		.type	lv_obj_set_style_outline_color, %function
 1328              	lv_obj_set_style_outline_color:
 1329              	.LFB201:
 338:..\..\..\arduinoLCD\test\Pain Drain\libraries\lvgl\src\core/lv_obj_style_gen.c **** 
 339:..\..\..\arduinoLCD\test\Pain Drain\libraries\lvgl\src\core/lv_obj_style_gen.c **** void lv_obj_set_style_outline_color(struct _lv_obj_t * obj, lv_color_t value, lv_style_selector_t s
 340:..\..\..\arduinoLCD\test\Pain Drain\libraries\lvgl\src\core/lv_obj_style_gen.c **** {
 1330              		.loc 1 340 0
 1331              		.cfi_startproc
 1332              		@ args = 0, pretend = 0, frame = 0
 1333              		@ frame_needed = 0, uses_anonymous_args = 0
 1334              	.LVL164:
 1335 0000 10B5     		push	{r4, lr}
 1336              		.cfi_def_cfa_offset 8
 1337              		.cfi_offset 4, -8
 1338              		.cfi_offset 14, -4
 1339 0002 1300     		movs	r3, r2
 341:..\..\..\arduinoLCD\test\Pain Drain\libraries\lvgl\src\core/lv_obj_style_gen.c ****     lv_style_value_t v = {
 1340              		.loc 1 341 0
 1341 0004 8AB2     		uxth	r2, r1
 1342              	.LVL165:
 342:..\..\..\arduinoLCD\test\Pain Drain\libraries\lvgl\src\core/lv_obj_style_gen.c ****         .color = value
 343:..\..\..\arduinoLCD\test\Pain Drain\libraries\lvgl\src\core/lv_obj_style_gen.c ****     };
 344:..\..\..\arduinoLCD\test\Pain Drain\libraries\lvgl\src\core/lv_obj_style_gen.c ****     lv_obj_set_local_style_prop(obj, LV_STYLE_OUTLINE_COLOR, v, selector);
 1343              		.loc 1 344 0
 1344 0006 3621     		movs	r1, #54
 1345 0008 FFF7FEFF 		bl	lv_obj_set_local_style_prop
 1346              	.LVL166:
 345:..\..\..\arduinoLCD\test\Pain Drain\libraries\lvgl\src\core/lv_obj_style_gen.c **** }
 1347              		.loc 1 345 0
 1348              		@ sp needed
 1349 000c 10BD     		pop	{r4, pc}
 1350              		.cfi_endproc
 1351              	.LFE201:
 1352              		.size	lv_obj_set_style_outline_color, .-lv_obj_set_style_outline_color
 1353 000e C046     		.section	.text.lv_obj_set_style_outline_opa,"ax",%progbits
 1354              		.align	2
 1355              		.global	lv_obj_set_style_outline_opa
 1356              		.code	16
 1357              		.thumb_func
 1358              		.type	lv_obj_set_style_outline_opa, %function
 1359              	lv_obj_set_style_outline_opa:
 1360              	.LFB202:
 346:..\..\..\arduinoLCD\test\Pain Drain\libraries\lvgl\src\core/lv_obj_style_gen.c **** 
 347:..\..\..\arduinoLCD\test\Pain Drain\libraries\lvgl\src\core/lv_obj_style_gen.c **** void lv_obj_set_style_outline_opa(struct _lv_obj_t * obj, lv_opa_t value, lv_style_selector_t selec
 348:..\..\..\arduinoLCD\test\Pain Drain\libraries\lvgl\src\core/lv_obj_style_gen.c **** {
 1361              		.loc 1 348 0
 1362              		.cfi_startproc
ARM GAS  C:\Users\haske\AppData\Local\Temp\cc0eRFVw.s 			page 31


 1363              		@ args = 0, pretend = 0, frame = 0
 1364              		@ frame_needed = 0, uses_anonymous_args = 0
 1365              	.LVL167:
 1366 0000 10B5     		push	{r4, lr}
 1367              		.cfi_def_cfa_offset 8
 1368              		.cfi_offset 4, -8
 1369              		.cfi_offset 14, -4
 1370 0002 1300     		movs	r3, r2
 349:..\..\..\arduinoLCD\test\Pain Drain\libraries\lvgl\src\core/lv_obj_style_gen.c ****     lv_style_value_t v = {
 350:..\..\..\arduinoLCD\test\Pain Drain\libraries\lvgl\src\core/lv_obj_style_gen.c ****         .num = (int32_t)value
 351:..\..\..\arduinoLCD\test\Pain Drain\libraries\lvgl\src\core/lv_obj_style_gen.c ****     };
 352:..\..\..\arduinoLCD\test\Pain Drain\libraries\lvgl\src\core/lv_obj_style_gen.c ****     lv_obj_set_local_style_prop(obj, LV_STYLE_OUTLINE_OPA, v, selector);
 1371              		.loc 1 352 0
 1372 0004 0A00     		movs	r2, r1
 1373              	.LVL168:
 1374 0006 3721     		movs	r1, #55
 1375              	.LVL169:
 1376 0008 FFF7FEFF 		bl	lv_obj_set_local_style_prop
 1377              	.LVL170:
 353:..\..\..\arduinoLCD\test\Pain Drain\libraries\lvgl\src\core/lv_obj_style_gen.c **** }
 1378              		.loc 1 353 0
 1379              		@ sp needed
 1380 000c 10BD     		pop	{r4, pc}
 1381              		.cfi_endproc
 1382              	.LFE202:
 1383              		.size	lv_obj_set_style_outline_opa, .-lv_obj_set_style_outline_opa
 1384 000e C046     		.section	.text.lv_obj_set_style_outline_pad,"ax",%progbits
 1385              		.align	2
 1386              		.global	lv_obj_set_style_outline_pad
 1387              		.code	16
 1388              		.thumb_func
 1389              		.type	lv_obj_set_style_outline_pad, %function
 1390              	lv_obj_set_style_outline_pad:
 1391              	.LFB203:
 354:..\..\..\arduinoLCD\test\Pain Drain\libraries\lvgl\src\core/lv_obj_style_gen.c **** 
 355:..\..\..\arduinoLCD\test\Pain Drain\libraries\lvgl\src\core/lv_obj_style_gen.c **** void lv_obj_set_style_outline_pad(struct _lv_obj_t * obj, lv_coord_t value, lv_style_selector_t sel
 356:..\..\..\arduinoLCD\test\Pain Drain\libraries\lvgl\src\core/lv_obj_style_gen.c **** {
 1392              		.loc 1 356 0
 1393              		.cfi_startproc
 1394              		@ args = 0, pretend = 0, frame = 0
 1395              		@ frame_needed = 0, uses_anonymous_args = 0
 1396              	.LVL171:
 1397 0000 10B5     		push	{r4, lr}
 1398              		.cfi_def_cfa_offset 8
 1399              		.cfi_offset 4, -8
 1400              		.cfi_offset 14, -4
 1401 0002 1300     		movs	r3, r2
 357:..\..\..\arduinoLCD\test\Pain Drain\libraries\lvgl\src\core/lv_obj_style_gen.c ****     lv_style_value_t v = {
 358:..\..\..\arduinoLCD\test\Pain Drain\libraries\lvgl\src\core/lv_obj_style_gen.c ****         .num = (int32_t)value
 359:..\..\..\arduinoLCD\test\Pain Drain\libraries\lvgl\src\core/lv_obj_style_gen.c ****     };
 360:..\..\..\arduinoLCD\test\Pain Drain\libraries\lvgl\src\core/lv_obj_style_gen.c ****     lv_obj_set_local_style_prop(obj, LV_STYLE_OUTLINE_PAD, v, selector);
 1402              		.loc 1 360 0
 1403 0004 0A00     		movs	r2, r1
 1404              	.LVL172:
 1405 0006 3821     		movs	r1, #56
 1406              	.LVL173:
 1407 0008 FFF7FEFF 		bl	lv_obj_set_local_style_prop
ARM GAS  C:\Users\haske\AppData\Local\Temp\cc0eRFVw.s 			page 32


 1408              	.LVL174:
 361:..\..\..\arduinoLCD\test\Pain Drain\libraries\lvgl\src\core/lv_obj_style_gen.c **** }
 1409              		.loc 1 361 0
 1410              		@ sp needed
 1411 000c 10BD     		pop	{r4, pc}
 1412              		.cfi_endproc
 1413              	.LFE203:
 1414              		.size	lv_obj_set_style_outline_pad, .-lv_obj_set_style_outline_pad
 1415 000e C046     		.section	.text.lv_obj_set_style_shadow_width,"ax",%progbits
 1416              		.align	2
 1417              		.global	lv_obj_set_style_shadow_width
 1418              		.code	16
 1419              		.thumb_func
 1420              		.type	lv_obj_set_style_shadow_width, %function
 1421              	lv_obj_set_style_shadow_width:
 1422              	.LFB204:
 362:..\..\..\arduinoLCD\test\Pain Drain\libraries\lvgl\src\core/lv_obj_style_gen.c **** 
 363:..\..\..\arduinoLCD\test\Pain Drain\libraries\lvgl\src\core/lv_obj_style_gen.c **** void lv_obj_set_style_shadow_width(struct _lv_obj_t * obj, lv_coord_t value, lv_style_selector_t se
 364:..\..\..\arduinoLCD\test\Pain Drain\libraries\lvgl\src\core/lv_obj_style_gen.c **** {
 1423              		.loc 1 364 0
 1424              		.cfi_startproc
 1425              		@ args = 0, pretend = 0, frame = 0
 1426              		@ frame_needed = 0, uses_anonymous_args = 0
 1427              	.LVL175:
 1428 0000 10B5     		push	{r4, lr}
 1429              		.cfi_def_cfa_offset 8
 1430              		.cfi_offset 4, -8
 1431              		.cfi_offset 14, -4
 1432 0002 1300     		movs	r3, r2
 365:..\..\..\arduinoLCD\test\Pain Drain\libraries\lvgl\src\core/lv_obj_style_gen.c ****     lv_style_value_t v = {
 366:..\..\..\arduinoLCD\test\Pain Drain\libraries\lvgl\src\core/lv_obj_style_gen.c ****         .num = (int32_t)value
 367:..\..\..\arduinoLCD\test\Pain Drain\libraries\lvgl\src\core/lv_obj_style_gen.c ****     };
 368:..\..\..\arduinoLCD\test\Pain Drain\libraries\lvgl\src\core/lv_obj_style_gen.c ****     lv_obj_set_local_style_prop(obj, LV_STYLE_SHADOW_WIDTH, v, selector);
 1433              		.loc 1 368 0
 1434 0004 0A00     		movs	r2, r1
 1435              	.LVL176:
 1436 0006 4021     		movs	r1, #64
 1437              	.LVL177:
 1438 0008 FFF7FEFF 		bl	lv_obj_set_local_style_prop
 1439              	.LVL178:
 369:..\..\..\arduinoLCD\test\Pain Drain\libraries\lvgl\src\core/lv_obj_style_gen.c **** }
 1440              		.loc 1 369 0
 1441              		@ sp needed
 1442 000c 10BD     		pop	{r4, pc}
 1443              		.cfi_endproc
 1444              	.LFE204:
 1445              		.size	lv_obj_set_style_shadow_width, .-lv_obj_set_style_shadow_width
 1446 000e C046     		.section	.text.lv_obj_set_style_shadow_ofs_x,"ax",%progbits
 1447              		.align	2
 1448              		.global	lv_obj_set_style_shadow_ofs_x
 1449              		.code	16
 1450              		.thumb_func
 1451              		.type	lv_obj_set_style_shadow_ofs_x, %function
 1452              	lv_obj_set_style_shadow_ofs_x:
 1453              	.LFB205:
 370:..\..\..\arduinoLCD\test\Pain Drain\libraries\lvgl\src\core/lv_obj_style_gen.c **** 
 371:..\..\..\arduinoLCD\test\Pain Drain\libraries\lvgl\src\core/lv_obj_style_gen.c **** void lv_obj_set_style_shadow_ofs_x(struct _lv_obj_t * obj, lv_coord_t value, lv_style_selector_t se
ARM GAS  C:\Users\haske\AppData\Local\Temp\cc0eRFVw.s 			page 33


 372:..\..\..\arduinoLCD\test\Pain Drain\libraries\lvgl\src\core/lv_obj_style_gen.c **** {
 1454              		.loc 1 372 0
 1455              		.cfi_startproc
 1456              		@ args = 0, pretend = 0, frame = 0
 1457              		@ frame_needed = 0, uses_anonymous_args = 0
 1458              	.LVL179:
 1459 0000 10B5     		push	{r4, lr}
 1460              		.cfi_def_cfa_offset 8
 1461              		.cfi_offset 4, -8
 1462              		.cfi_offset 14, -4
 1463 0002 1300     		movs	r3, r2
 373:..\..\..\arduinoLCD\test\Pain Drain\libraries\lvgl\src\core/lv_obj_style_gen.c ****     lv_style_value_t v = {
 374:..\..\..\arduinoLCD\test\Pain Drain\libraries\lvgl\src\core/lv_obj_style_gen.c ****         .num = (int32_t)value
 375:..\..\..\arduinoLCD\test\Pain Drain\libraries\lvgl\src\core/lv_obj_style_gen.c ****     };
 376:..\..\..\arduinoLCD\test\Pain Drain\libraries\lvgl\src\core/lv_obj_style_gen.c ****     lv_obj_set_local_style_prop(obj, LV_STYLE_SHADOW_OFS_X, v, selector);
 1464              		.loc 1 376 0
 1465 0004 0A00     		movs	r2, r1
 1466              	.LVL180:
 1467 0006 4121     		movs	r1, #65
 1468              	.LVL181:
 1469 0008 FFF7FEFF 		bl	lv_obj_set_local_style_prop
 1470              	.LVL182:
 377:..\..\..\arduinoLCD\test\Pain Drain\libraries\lvgl\src\core/lv_obj_style_gen.c **** }
 1471              		.loc 1 377 0
 1472              		@ sp needed
 1473 000c 10BD     		pop	{r4, pc}
 1474              		.cfi_endproc
 1475              	.LFE205:
 1476              		.size	lv_obj_set_style_shadow_ofs_x, .-lv_obj_set_style_shadow_ofs_x
 1477 000e C046     		.section	.text.lv_obj_set_style_shadow_ofs_y,"ax",%progbits
 1478              		.align	2
 1479              		.global	lv_obj_set_style_shadow_ofs_y
 1480              		.code	16
 1481              		.thumb_func
 1482              		.type	lv_obj_set_style_shadow_ofs_y, %function
 1483              	lv_obj_set_style_shadow_ofs_y:
 1484              	.LFB206:
 378:..\..\..\arduinoLCD\test\Pain Drain\libraries\lvgl\src\core/lv_obj_style_gen.c **** 
 379:..\..\..\arduinoLCD\test\Pain Drain\libraries\lvgl\src\core/lv_obj_style_gen.c **** void lv_obj_set_style_shadow_ofs_y(struct _lv_obj_t * obj, lv_coord_t value, lv_style_selector_t se
 380:..\..\..\arduinoLCD\test\Pain Drain\libraries\lvgl\src\core/lv_obj_style_gen.c **** {
 1485              		.loc 1 380 0
 1486              		.cfi_startproc
 1487              		@ args = 0, pretend = 0, frame = 0
 1488              		@ frame_needed = 0, uses_anonymous_args = 0
 1489              	.LVL183:
 1490 0000 10B5     		push	{r4, lr}
 1491              		.cfi_def_cfa_offset 8
 1492              		.cfi_offset 4, -8
 1493              		.cfi_offset 14, -4
 1494 0002 1300     		movs	r3, r2
 381:..\..\..\arduinoLCD\test\Pain Drain\libraries\lvgl\src\core/lv_obj_style_gen.c ****     lv_style_value_t v = {
 382:..\..\..\arduinoLCD\test\Pain Drain\libraries\lvgl\src\core/lv_obj_style_gen.c ****         .num = (int32_t)value
 383:..\..\..\arduinoLCD\test\Pain Drain\libraries\lvgl\src\core/lv_obj_style_gen.c ****     };
 384:..\..\..\arduinoLCD\test\Pain Drain\libraries\lvgl\src\core/lv_obj_style_gen.c ****     lv_obj_set_local_style_prop(obj, LV_STYLE_SHADOW_OFS_Y, v, selector);
 1495              		.loc 1 384 0
 1496 0004 0A00     		movs	r2, r1
 1497              	.LVL184:
ARM GAS  C:\Users\haske\AppData\Local\Temp\cc0eRFVw.s 			page 34


 1498 0006 4221     		movs	r1, #66
 1499              	.LVL185:
 1500 0008 FFF7FEFF 		bl	lv_obj_set_local_style_prop
 1501              	.LVL186:
 385:..\..\..\arduinoLCD\test\Pain Drain\libraries\lvgl\src\core/lv_obj_style_gen.c **** }
 1502              		.loc 1 385 0
 1503              		@ sp needed
 1504 000c 10BD     		pop	{r4, pc}
 1505              		.cfi_endproc
 1506              	.LFE206:
 1507              		.size	lv_obj_set_style_shadow_ofs_y, .-lv_obj_set_style_shadow_ofs_y
 1508 000e C046     		.section	.text.lv_obj_set_style_shadow_spread,"ax",%progbits
 1509              		.align	2
 1510              		.global	lv_obj_set_style_shadow_spread
 1511              		.code	16
 1512              		.thumb_func
 1513              		.type	lv_obj_set_style_shadow_spread, %function
 1514              	lv_obj_set_style_shadow_spread:
 1515              	.LFB207:
 386:..\..\..\arduinoLCD\test\Pain Drain\libraries\lvgl\src\core/lv_obj_style_gen.c **** 
 387:..\..\..\arduinoLCD\test\Pain Drain\libraries\lvgl\src\core/lv_obj_style_gen.c **** void lv_obj_set_style_shadow_spread(struct _lv_obj_t * obj, lv_coord_t value, lv_style_selector_t s
 388:..\..\..\arduinoLCD\test\Pain Drain\libraries\lvgl\src\core/lv_obj_style_gen.c **** {
 1516              		.loc 1 388 0
 1517              		.cfi_startproc
 1518              		@ args = 0, pretend = 0, frame = 0
 1519              		@ frame_needed = 0, uses_anonymous_args = 0
 1520              	.LVL187:
 1521 0000 10B5     		push	{r4, lr}
 1522              		.cfi_def_cfa_offset 8
 1523              		.cfi_offset 4, -8
 1524              		.cfi_offset 14, -4
 1525 0002 1300     		movs	r3, r2
 389:..\..\..\arduinoLCD\test\Pain Drain\libraries\lvgl\src\core/lv_obj_style_gen.c ****     lv_style_value_t v = {
 390:..\..\..\arduinoLCD\test\Pain Drain\libraries\lvgl\src\core/lv_obj_style_gen.c ****         .num = (int32_t)value
 391:..\..\..\arduinoLCD\test\Pain Drain\libraries\lvgl\src\core/lv_obj_style_gen.c ****     };
 392:..\..\..\arduinoLCD\test\Pain Drain\libraries\lvgl\src\core/lv_obj_style_gen.c ****     lv_obj_set_local_style_prop(obj, LV_STYLE_SHADOW_SPREAD, v, selector);
 1526              		.loc 1 392 0
 1527 0004 0A00     		movs	r2, r1
 1528              	.LVL188:
 1529 0006 4321     		movs	r1, #67
 1530              	.LVL189:
 1531 0008 FFF7FEFF 		bl	lv_obj_set_local_style_prop
 1532              	.LVL190:
 393:..\..\..\arduinoLCD\test\Pain Drain\libraries\lvgl\src\core/lv_obj_style_gen.c **** }
 1533              		.loc 1 393 0
 1534              		@ sp needed
 1535 000c 10BD     		pop	{r4, pc}
 1536              		.cfi_endproc
 1537              	.LFE207:
 1538              		.size	lv_obj_set_style_shadow_spread, .-lv_obj_set_style_shadow_spread
 1539 000e C046     		.section	.text.lv_obj_set_style_shadow_color,"ax",%progbits
 1540              		.align	2
 1541              		.global	lv_obj_set_style_shadow_color
 1542              		.code	16
 1543              		.thumb_func
 1544              		.type	lv_obj_set_style_shadow_color, %function
 1545              	lv_obj_set_style_shadow_color:
ARM GAS  C:\Users\haske\AppData\Local\Temp\cc0eRFVw.s 			page 35


 1546              	.LFB208:
 394:..\..\..\arduinoLCD\test\Pain Drain\libraries\lvgl\src\core/lv_obj_style_gen.c **** 
 395:..\..\..\arduinoLCD\test\Pain Drain\libraries\lvgl\src\core/lv_obj_style_gen.c **** void lv_obj_set_style_shadow_color(struct _lv_obj_t * obj, lv_color_t value, lv_style_selector_t se
 396:..\..\..\arduinoLCD\test\Pain Drain\libraries\lvgl\src\core/lv_obj_style_gen.c **** {
 1547              		.loc 1 396 0
 1548              		.cfi_startproc
 1549              		@ args = 0, pretend = 0, frame = 0
 1550              		@ frame_needed = 0, uses_anonymous_args = 0
 1551              	.LVL191:
 1552 0000 10B5     		push	{r4, lr}
 1553              		.cfi_def_cfa_offset 8
 1554              		.cfi_offset 4, -8
 1555              		.cfi_offset 14, -4
 1556 0002 1300     		movs	r3, r2
 397:..\..\..\arduinoLCD\test\Pain Drain\libraries\lvgl\src\core/lv_obj_style_gen.c ****     lv_style_value_t v = {
 1557              		.loc 1 397 0
 1558 0004 8AB2     		uxth	r2, r1
 1559              	.LVL192:
 398:..\..\..\arduinoLCD\test\Pain Drain\libraries\lvgl\src\core/lv_obj_style_gen.c ****         .color = value
 399:..\..\..\arduinoLCD\test\Pain Drain\libraries\lvgl\src\core/lv_obj_style_gen.c ****     };
 400:..\..\..\arduinoLCD\test\Pain Drain\libraries\lvgl\src\core/lv_obj_style_gen.c ****     lv_obj_set_local_style_prop(obj, LV_STYLE_SHADOW_COLOR, v, selector);
 1560              		.loc 1 400 0
 1561 0006 4421     		movs	r1, #68
 1562 0008 FFF7FEFF 		bl	lv_obj_set_local_style_prop
 1563              	.LVL193:
 401:..\..\..\arduinoLCD\test\Pain Drain\libraries\lvgl\src\core/lv_obj_style_gen.c **** }
 1564              		.loc 1 401 0
 1565              		@ sp needed
 1566 000c 10BD     		pop	{r4, pc}
 1567              		.cfi_endproc
 1568              	.LFE208:
 1569              		.size	lv_obj_set_style_shadow_color, .-lv_obj_set_style_shadow_color
 1570 000e C046     		.section	.text.lv_obj_set_style_shadow_opa,"ax",%progbits
 1571              		.align	2
 1572              		.global	lv_obj_set_style_shadow_opa
 1573              		.code	16
 1574              		.thumb_func
 1575              		.type	lv_obj_set_style_shadow_opa, %function
 1576              	lv_obj_set_style_shadow_opa:
 1577              	.LFB209:
 402:..\..\..\arduinoLCD\test\Pain Drain\libraries\lvgl\src\core/lv_obj_style_gen.c **** 
 403:..\..\..\arduinoLCD\test\Pain Drain\libraries\lvgl\src\core/lv_obj_style_gen.c **** void lv_obj_set_style_shadow_opa(struct _lv_obj_t * obj, lv_opa_t value, lv_style_selector_t select
 404:..\..\..\arduinoLCD\test\Pain Drain\libraries\lvgl\src\core/lv_obj_style_gen.c **** {
 1578              		.loc 1 404 0
 1579              		.cfi_startproc
 1580              		@ args = 0, pretend = 0, frame = 0
 1581              		@ frame_needed = 0, uses_anonymous_args = 0
 1582              	.LVL194:
 1583 0000 10B5     		push	{r4, lr}
 1584              		.cfi_def_cfa_offset 8
 1585              		.cfi_offset 4, -8
 1586              		.cfi_offset 14, -4
 1587 0002 1300     		movs	r3, r2
 405:..\..\..\arduinoLCD\test\Pain Drain\libraries\lvgl\src\core/lv_obj_style_gen.c ****     lv_style_value_t v = {
 406:..\..\..\arduinoLCD\test\Pain Drain\libraries\lvgl\src\core/lv_obj_style_gen.c ****         .num = (int32_t)value
 407:..\..\..\arduinoLCD\test\Pain Drain\libraries\lvgl\src\core/lv_obj_style_gen.c ****     };
 408:..\..\..\arduinoLCD\test\Pain Drain\libraries\lvgl\src\core/lv_obj_style_gen.c ****     lv_obj_set_local_style_prop(obj, LV_STYLE_SHADOW_OPA, v, selector);
ARM GAS  C:\Users\haske\AppData\Local\Temp\cc0eRFVw.s 			page 36


 1588              		.loc 1 408 0
 1589 0004 0A00     		movs	r2, r1
 1590              	.LVL195:
 1591 0006 4521     		movs	r1, #69
 1592              	.LVL196:
 1593 0008 FFF7FEFF 		bl	lv_obj_set_local_style_prop
 1594              	.LVL197:
 409:..\..\..\arduinoLCD\test\Pain Drain\libraries\lvgl\src\core/lv_obj_style_gen.c **** }
 1595              		.loc 1 409 0
 1596              		@ sp needed
 1597 000c 10BD     		pop	{r4, pc}
 1598              		.cfi_endproc
 1599              	.LFE209:
 1600              		.size	lv_obj_set_style_shadow_opa, .-lv_obj_set_style_shadow_opa
 1601 000e C046     		.section	.text.lv_obj_set_style_img_opa,"ax",%progbits
 1602              		.align	2
 1603              		.global	lv_obj_set_style_img_opa
 1604              		.code	16
 1605              		.thumb_func
 1606              		.type	lv_obj_set_style_img_opa, %function
 1607              	lv_obj_set_style_img_opa:
 1608              	.LFB210:
 410:..\..\..\arduinoLCD\test\Pain Drain\libraries\lvgl\src\core/lv_obj_style_gen.c **** 
 411:..\..\..\arduinoLCD\test\Pain Drain\libraries\lvgl\src\core/lv_obj_style_gen.c **** void lv_obj_set_style_img_opa(struct _lv_obj_t * obj, lv_opa_t value, lv_style_selector_t selector)
 412:..\..\..\arduinoLCD\test\Pain Drain\libraries\lvgl\src\core/lv_obj_style_gen.c **** {
 1609              		.loc 1 412 0
 1610              		.cfi_startproc
 1611              		@ args = 0, pretend = 0, frame = 0
 1612              		@ frame_needed = 0, uses_anonymous_args = 0
 1613              	.LVL198:
 1614 0000 10B5     		push	{r4, lr}
 1615              		.cfi_def_cfa_offset 8
 1616              		.cfi_offset 4, -8
 1617              		.cfi_offset 14, -4
 1618 0002 1300     		movs	r3, r2
 413:..\..\..\arduinoLCD\test\Pain Drain\libraries\lvgl\src\core/lv_obj_style_gen.c ****     lv_style_value_t v = {
 414:..\..\..\arduinoLCD\test\Pain Drain\libraries\lvgl\src\core/lv_obj_style_gen.c ****         .num = (int32_t)value
 415:..\..\..\arduinoLCD\test\Pain Drain\libraries\lvgl\src\core/lv_obj_style_gen.c ****     };
 416:..\..\..\arduinoLCD\test\Pain Drain\libraries\lvgl\src\core/lv_obj_style_gen.c ****     lv_obj_set_local_style_prop(obj, LV_STYLE_IMG_OPA, v, selector);
 1619              		.loc 1 416 0
 1620 0004 0A00     		movs	r2, r1
 1621              	.LVL199:
 1622 0006 4621     		movs	r1, #70
 1623              	.LVL200:
 1624 0008 FFF7FEFF 		bl	lv_obj_set_local_style_prop
 1625              	.LVL201:
 417:..\..\..\arduinoLCD\test\Pain Drain\libraries\lvgl\src\core/lv_obj_style_gen.c **** }
 1626              		.loc 1 417 0
 1627              		@ sp needed
 1628 000c 10BD     		pop	{r4, pc}
 1629              		.cfi_endproc
 1630              	.LFE210:
 1631              		.size	lv_obj_set_style_img_opa, .-lv_obj_set_style_img_opa
 1632 000e C046     		.section	.text.lv_obj_set_style_img_recolor,"ax",%progbits
 1633              		.align	2
 1634              		.global	lv_obj_set_style_img_recolor
 1635              		.code	16
ARM GAS  C:\Users\haske\AppData\Local\Temp\cc0eRFVw.s 			page 37


 1636              		.thumb_func
 1637              		.type	lv_obj_set_style_img_recolor, %function
 1638              	lv_obj_set_style_img_recolor:
 1639              	.LFB211:
 418:..\..\..\arduinoLCD\test\Pain Drain\libraries\lvgl\src\core/lv_obj_style_gen.c **** 
 419:..\..\..\arduinoLCD\test\Pain Drain\libraries\lvgl\src\core/lv_obj_style_gen.c **** void lv_obj_set_style_img_recolor(struct _lv_obj_t * obj, lv_color_t value, lv_style_selector_t sel
 420:..\..\..\arduinoLCD\test\Pain Drain\libraries\lvgl\src\core/lv_obj_style_gen.c **** {
 1640              		.loc 1 420 0
 1641              		.cfi_startproc
 1642              		@ args = 0, pretend = 0, frame = 0
 1643              		@ frame_needed = 0, uses_anonymous_args = 0
 1644              	.LVL202:
 1645 0000 10B5     		push	{r4, lr}
 1646              		.cfi_def_cfa_offset 8
 1647              		.cfi_offset 4, -8
 1648              		.cfi_offset 14, -4
 1649 0002 1300     		movs	r3, r2
 421:..\..\..\arduinoLCD\test\Pain Drain\libraries\lvgl\src\core/lv_obj_style_gen.c ****     lv_style_value_t v = {
 1650              		.loc 1 421 0
 1651 0004 8AB2     		uxth	r2, r1
 1652              	.LVL203:
 422:..\..\..\arduinoLCD\test\Pain Drain\libraries\lvgl\src\core/lv_obj_style_gen.c ****         .color = value
 423:..\..\..\arduinoLCD\test\Pain Drain\libraries\lvgl\src\core/lv_obj_style_gen.c ****     };
 424:..\..\..\arduinoLCD\test\Pain Drain\libraries\lvgl\src\core/lv_obj_style_gen.c ****     lv_obj_set_local_style_prop(obj, LV_STYLE_IMG_RECOLOR, v, selector);
 1653              		.loc 1 424 0
 1654 0006 4721     		movs	r1, #71
 1655 0008 FFF7FEFF 		bl	lv_obj_set_local_style_prop
 1656              	.LVL204:
 425:..\..\..\arduinoLCD\test\Pain Drain\libraries\lvgl\src\core/lv_obj_style_gen.c **** }
 1657              		.loc 1 425 0
 1658              		@ sp needed
 1659 000c 10BD     		pop	{r4, pc}
 1660              		.cfi_endproc
 1661              	.LFE211:
 1662              		.size	lv_obj_set_style_img_recolor, .-lv_obj_set_style_img_recolor
 1663 000e C046     		.section	.text.lv_obj_set_style_img_recolor_opa,"ax",%progbits
 1664              		.align	2
 1665              		.global	lv_obj_set_style_img_recolor_opa
 1666              		.code	16
 1667              		.thumb_func
 1668              		.type	lv_obj_set_style_img_recolor_opa, %function
 1669              	lv_obj_set_style_img_recolor_opa:
 1670              	.LFB212:
 426:..\..\..\arduinoLCD\test\Pain Drain\libraries\lvgl\src\core/lv_obj_style_gen.c **** 
 427:..\..\..\arduinoLCD\test\Pain Drain\libraries\lvgl\src\core/lv_obj_style_gen.c **** void lv_obj_set_style_img_recolor_opa(struct _lv_obj_t * obj, lv_opa_t value, lv_style_selector_t s
 428:..\..\..\arduinoLCD\test\Pain Drain\libraries\lvgl\src\core/lv_obj_style_gen.c **** {
 1671              		.loc 1 428 0
 1672              		.cfi_startproc
 1673              		@ args = 0, pretend = 0, frame = 0
 1674              		@ frame_needed = 0, uses_anonymous_args = 0
 1675              	.LVL205:
 1676 0000 10B5     		push	{r4, lr}
 1677              		.cfi_def_cfa_offset 8
 1678              		.cfi_offset 4, -8
 1679              		.cfi_offset 14, -4
 1680 0002 1300     		movs	r3, r2
 429:..\..\..\arduinoLCD\test\Pain Drain\libraries\lvgl\src\core/lv_obj_style_gen.c ****     lv_style_value_t v = {
ARM GAS  C:\Users\haske\AppData\Local\Temp\cc0eRFVw.s 			page 38


 430:..\..\..\arduinoLCD\test\Pain Drain\libraries\lvgl\src\core/lv_obj_style_gen.c ****         .num = (int32_t)value
 431:..\..\..\arduinoLCD\test\Pain Drain\libraries\lvgl\src\core/lv_obj_style_gen.c ****     };
 432:..\..\..\arduinoLCD\test\Pain Drain\libraries\lvgl\src\core/lv_obj_style_gen.c ****     lv_obj_set_local_style_prop(obj, LV_STYLE_IMG_RECOLOR_OPA, v, selector);
 1681              		.loc 1 432 0
 1682 0004 0A00     		movs	r2, r1
 1683              	.LVL206:
 1684 0006 4821     		movs	r1, #72
 1685              	.LVL207:
 1686 0008 FFF7FEFF 		bl	lv_obj_set_local_style_prop
 1687              	.LVL208:
 433:..\..\..\arduinoLCD\test\Pain Drain\libraries\lvgl\src\core/lv_obj_style_gen.c **** }
 1688              		.loc 1 433 0
 1689              		@ sp needed
 1690 000c 10BD     		pop	{r4, pc}
 1691              		.cfi_endproc
 1692              	.LFE212:
 1693              		.size	lv_obj_set_style_img_recolor_opa, .-lv_obj_set_style_img_recolor_opa
 1694 000e C046     		.section	.text.lv_obj_set_style_line_width,"ax",%progbits
 1695              		.align	2
 1696              		.global	lv_obj_set_style_line_width
 1697              		.code	16
 1698              		.thumb_func
 1699              		.type	lv_obj_set_style_line_width, %function
 1700              	lv_obj_set_style_line_width:
 1701              	.LFB213:
 434:..\..\..\arduinoLCD\test\Pain Drain\libraries\lvgl\src\core/lv_obj_style_gen.c **** 
 435:..\..\..\arduinoLCD\test\Pain Drain\libraries\lvgl\src\core/lv_obj_style_gen.c **** void lv_obj_set_style_line_width(struct _lv_obj_t * obj, lv_coord_t value, lv_style_selector_t sele
 436:..\..\..\arduinoLCD\test\Pain Drain\libraries\lvgl\src\core/lv_obj_style_gen.c **** {
 1702              		.loc 1 436 0
 1703              		.cfi_startproc
 1704              		@ args = 0, pretend = 0, frame = 0
 1705              		@ frame_needed = 0, uses_anonymous_args = 0
 1706              	.LVL209:
 1707 0000 10B5     		push	{r4, lr}
 1708              		.cfi_def_cfa_offset 8
 1709              		.cfi_offset 4, -8
 1710              		.cfi_offset 14, -4
 1711 0002 1300     		movs	r3, r2
 437:..\..\..\arduinoLCD\test\Pain Drain\libraries\lvgl\src\core/lv_obj_style_gen.c ****     lv_style_value_t v = {
 438:..\..\..\arduinoLCD\test\Pain Drain\libraries\lvgl\src\core/lv_obj_style_gen.c ****         .num = (int32_t)value
 439:..\..\..\arduinoLCD\test\Pain Drain\libraries\lvgl\src\core/lv_obj_style_gen.c ****     };
 440:..\..\..\arduinoLCD\test\Pain Drain\libraries\lvgl\src\core/lv_obj_style_gen.c ****     lv_obj_set_local_style_prop(obj, LV_STYLE_LINE_WIDTH, v, selector);
 1712              		.loc 1 440 0
 1713 0004 0A00     		movs	r2, r1
 1714              	.LVL210:
 1715 0006 4921     		movs	r1, #73
 1716              	.LVL211:
 1717 0008 FFF7FEFF 		bl	lv_obj_set_local_style_prop
 1718              	.LVL212:
 441:..\..\..\arduinoLCD\test\Pain Drain\libraries\lvgl\src\core/lv_obj_style_gen.c **** }
 1719              		.loc 1 441 0
 1720              		@ sp needed
 1721 000c 10BD     		pop	{r4, pc}
 1722              		.cfi_endproc
 1723              	.LFE213:
 1724              		.size	lv_obj_set_style_line_width, .-lv_obj_set_style_line_width
 1725 000e C046     		.section	.text.lv_obj_set_style_line_dash_width,"ax",%progbits
ARM GAS  C:\Users\haske\AppData\Local\Temp\cc0eRFVw.s 			page 39


 1726              		.align	2
 1727              		.global	lv_obj_set_style_line_dash_width
 1728              		.code	16
 1729              		.thumb_func
 1730              		.type	lv_obj_set_style_line_dash_width, %function
 1731              	lv_obj_set_style_line_dash_width:
 1732              	.LFB214:
 442:..\..\..\arduinoLCD\test\Pain Drain\libraries\lvgl\src\core/lv_obj_style_gen.c **** 
 443:..\..\..\arduinoLCD\test\Pain Drain\libraries\lvgl\src\core/lv_obj_style_gen.c **** void lv_obj_set_style_line_dash_width(struct _lv_obj_t * obj, lv_coord_t value, lv_style_selector_t
 444:..\..\..\arduinoLCD\test\Pain Drain\libraries\lvgl\src\core/lv_obj_style_gen.c **** {
 1733              		.loc 1 444 0
 1734              		.cfi_startproc
 1735              		@ args = 0, pretend = 0, frame = 0
 1736              		@ frame_needed = 0, uses_anonymous_args = 0
 1737              	.LVL213:
 1738 0000 10B5     		push	{r4, lr}
 1739              		.cfi_def_cfa_offset 8
 1740              		.cfi_offset 4, -8
 1741              		.cfi_offset 14, -4
 1742 0002 1300     		movs	r3, r2
 445:..\..\..\arduinoLCD\test\Pain Drain\libraries\lvgl\src\core/lv_obj_style_gen.c ****     lv_style_value_t v = {
 446:..\..\..\arduinoLCD\test\Pain Drain\libraries\lvgl\src\core/lv_obj_style_gen.c ****         .num = (int32_t)value
 447:..\..\..\arduinoLCD\test\Pain Drain\libraries\lvgl\src\core/lv_obj_style_gen.c ****     };
 448:..\..\..\arduinoLCD\test\Pain Drain\libraries\lvgl\src\core/lv_obj_style_gen.c ****     lv_obj_set_local_style_prop(obj, LV_STYLE_LINE_DASH_WIDTH, v, selector);
 1743              		.loc 1 448 0
 1744 0004 0A00     		movs	r2, r1
 1745              	.LVL214:
 1746 0006 4A21     		movs	r1, #74
 1747              	.LVL215:
 1748 0008 FFF7FEFF 		bl	lv_obj_set_local_style_prop
 1749              	.LVL216:
 449:..\..\..\arduinoLCD\test\Pain Drain\libraries\lvgl\src\core/lv_obj_style_gen.c **** }
 1750              		.loc 1 449 0
 1751              		@ sp needed
 1752 000c 10BD     		pop	{r4, pc}
 1753              		.cfi_endproc
 1754              	.LFE214:
 1755              		.size	lv_obj_set_style_line_dash_width, .-lv_obj_set_style_line_dash_width
 1756 000e C046     		.section	.text.lv_obj_set_style_line_dash_gap,"ax",%progbits
 1757              		.align	2
 1758              		.global	lv_obj_set_style_line_dash_gap
 1759              		.code	16
 1760              		.thumb_func
 1761              		.type	lv_obj_set_style_line_dash_gap, %function
 1762              	lv_obj_set_style_line_dash_gap:
 1763              	.LFB215:
 450:..\..\..\arduinoLCD\test\Pain Drain\libraries\lvgl\src\core/lv_obj_style_gen.c **** 
 451:..\..\..\arduinoLCD\test\Pain Drain\libraries\lvgl\src\core/lv_obj_style_gen.c **** void lv_obj_set_style_line_dash_gap(struct _lv_obj_t * obj, lv_coord_t value, lv_style_selector_t s
 452:..\..\..\arduinoLCD\test\Pain Drain\libraries\lvgl\src\core/lv_obj_style_gen.c **** {
 1764              		.loc 1 452 0
 1765              		.cfi_startproc
 1766              		@ args = 0, pretend = 0, frame = 0
 1767              		@ frame_needed = 0, uses_anonymous_args = 0
 1768              	.LVL217:
 1769 0000 10B5     		push	{r4, lr}
 1770              		.cfi_def_cfa_offset 8
 1771              		.cfi_offset 4, -8
ARM GAS  C:\Users\haske\AppData\Local\Temp\cc0eRFVw.s 			page 40


 1772              		.cfi_offset 14, -4
 1773 0002 1300     		movs	r3, r2
 453:..\..\..\arduinoLCD\test\Pain Drain\libraries\lvgl\src\core/lv_obj_style_gen.c ****     lv_style_value_t v = {
 454:..\..\..\arduinoLCD\test\Pain Drain\libraries\lvgl\src\core/lv_obj_style_gen.c ****         .num = (int32_t)value
 455:..\..\..\arduinoLCD\test\Pain Drain\libraries\lvgl\src\core/lv_obj_style_gen.c ****     };
 456:..\..\..\arduinoLCD\test\Pain Drain\libraries\lvgl\src\core/lv_obj_style_gen.c ****     lv_obj_set_local_style_prop(obj, LV_STYLE_LINE_DASH_GAP, v, selector);
 1774              		.loc 1 456 0
 1775 0004 0A00     		movs	r2, r1
 1776              	.LVL218:
 1777 0006 4B21     		movs	r1, #75
 1778              	.LVL219:
 1779 0008 FFF7FEFF 		bl	lv_obj_set_local_style_prop
 1780              	.LVL220:
 457:..\..\..\arduinoLCD\test\Pain Drain\libraries\lvgl\src\core/lv_obj_style_gen.c **** }
 1781              		.loc 1 457 0
 1782              		@ sp needed
 1783 000c 10BD     		pop	{r4, pc}
 1784              		.cfi_endproc
 1785              	.LFE215:
 1786              		.size	lv_obj_set_style_line_dash_gap, .-lv_obj_set_style_line_dash_gap
 1787 000e C046     		.section	.text.lv_obj_set_style_line_rounded,"ax",%progbits
 1788              		.align	2
 1789              		.global	lv_obj_set_style_line_rounded
 1790              		.code	16
 1791              		.thumb_func
 1792              		.type	lv_obj_set_style_line_rounded, %function
 1793              	lv_obj_set_style_line_rounded:
 1794              	.LFB216:
 458:..\..\..\arduinoLCD\test\Pain Drain\libraries\lvgl\src\core/lv_obj_style_gen.c **** 
 459:..\..\..\arduinoLCD\test\Pain Drain\libraries\lvgl\src\core/lv_obj_style_gen.c **** void lv_obj_set_style_line_rounded(struct _lv_obj_t * obj, bool value, lv_style_selector_t selector
 460:..\..\..\arduinoLCD\test\Pain Drain\libraries\lvgl\src\core/lv_obj_style_gen.c **** {
 1795              		.loc 1 460 0
 1796              		.cfi_startproc
 1797              		@ args = 0, pretend = 0, frame = 0
 1798              		@ frame_needed = 0, uses_anonymous_args = 0
 1799              	.LVL221:
 1800 0000 10B5     		push	{r4, lr}
 1801              		.cfi_def_cfa_offset 8
 1802              		.cfi_offset 4, -8
 1803              		.cfi_offset 14, -4
 1804 0002 1300     		movs	r3, r2
 461:..\..\..\arduinoLCD\test\Pain Drain\libraries\lvgl\src\core/lv_obj_style_gen.c ****     lv_style_value_t v = {
 462:..\..\..\arduinoLCD\test\Pain Drain\libraries\lvgl\src\core/lv_obj_style_gen.c ****         .num = (int32_t)value
 463:..\..\..\arduinoLCD\test\Pain Drain\libraries\lvgl\src\core/lv_obj_style_gen.c ****     };
 464:..\..\..\arduinoLCD\test\Pain Drain\libraries\lvgl\src\core/lv_obj_style_gen.c ****     lv_obj_set_local_style_prop(obj, LV_STYLE_LINE_ROUNDED, v, selector);
 1805              		.loc 1 464 0
 1806 0004 0A00     		movs	r2, r1
 1807              	.LVL222:
 1808 0006 4C21     		movs	r1, #76
 1809              	.LVL223:
 1810 0008 FFF7FEFF 		bl	lv_obj_set_local_style_prop
 1811              	.LVL224:
 465:..\..\..\arduinoLCD\test\Pain Drain\libraries\lvgl\src\core/lv_obj_style_gen.c **** }
 1812              		.loc 1 465 0
 1813              		@ sp needed
 1814 000c 10BD     		pop	{r4, pc}
 1815              		.cfi_endproc
ARM GAS  C:\Users\haske\AppData\Local\Temp\cc0eRFVw.s 			page 41


 1816              	.LFE216:
 1817              		.size	lv_obj_set_style_line_rounded, .-lv_obj_set_style_line_rounded
 1818 000e C046     		.section	.text.lv_obj_set_style_line_color,"ax",%progbits
 1819              		.align	2
 1820              		.global	lv_obj_set_style_line_color
 1821              		.code	16
 1822              		.thumb_func
 1823              		.type	lv_obj_set_style_line_color, %function
 1824              	lv_obj_set_style_line_color:
 1825              	.LFB217:
 466:..\..\..\arduinoLCD\test\Pain Drain\libraries\lvgl\src\core/lv_obj_style_gen.c **** 
 467:..\..\..\arduinoLCD\test\Pain Drain\libraries\lvgl\src\core/lv_obj_style_gen.c **** void lv_obj_set_style_line_color(struct _lv_obj_t * obj, lv_color_t value, lv_style_selector_t sele
 468:..\..\..\arduinoLCD\test\Pain Drain\libraries\lvgl\src\core/lv_obj_style_gen.c **** {
 1826              		.loc 1 468 0
 1827              		.cfi_startproc
 1828              		@ args = 0, pretend = 0, frame = 0
 1829              		@ frame_needed = 0, uses_anonymous_args = 0
 1830              	.LVL225:
 1831 0000 10B5     		push	{r4, lr}
 1832              		.cfi_def_cfa_offset 8
 1833              		.cfi_offset 4, -8
 1834              		.cfi_offset 14, -4
 1835 0002 1300     		movs	r3, r2
 469:..\..\..\arduinoLCD\test\Pain Drain\libraries\lvgl\src\core/lv_obj_style_gen.c ****     lv_style_value_t v = {
 1836              		.loc 1 469 0
 1837 0004 8AB2     		uxth	r2, r1
 1838              	.LVL226:
 470:..\..\..\arduinoLCD\test\Pain Drain\libraries\lvgl\src\core/lv_obj_style_gen.c ****         .color = value
 471:..\..\..\arduinoLCD\test\Pain Drain\libraries\lvgl\src\core/lv_obj_style_gen.c ****     };
 472:..\..\..\arduinoLCD\test\Pain Drain\libraries\lvgl\src\core/lv_obj_style_gen.c ****     lv_obj_set_local_style_prop(obj, LV_STYLE_LINE_COLOR, v, selector);
 1839              		.loc 1 472 0
 1840 0006 4D21     		movs	r1, #77
 1841 0008 FFF7FEFF 		bl	lv_obj_set_local_style_prop
 1842              	.LVL227:
 473:..\..\..\arduinoLCD\test\Pain Drain\libraries\lvgl\src\core/lv_obj_style_gen.c **** }
 1843              		.loc 1 473 0
 1844              		@ sp needed
 1845 000c 10BD     		pop	{r4, pc}
 1846              		.cfi_endproc
 1847              	.LFE217:
 1848              		.size	lv_obj_set_style_line_color, .-lv_obj_set_style_line_color
 1849 000e C046     		.section	.text.lv_obj_set_style_line_opa,"ax",%progbits
 1850              		.align	2
 1851              		.global	lv_obj_set_style_line_opa
 1852              		.code	16
 1853              		.thumb_func
 1854              		.type	lv_obj_set_style_line_opa, %function
 1855              	lv_obj_set_style_line_opa:
 1856              	.LFB218:
 474:..\..\..\arduinoLCD\test\Pain Drain\libraries\lvgl\src\core/lv_obj_style_gen.c **** 
 475:..\..\..\arduinoLCD\test\Pain Drain\libraries\lvgl\src\core/lv_obj_style_gen.c **** void lv_obj_set_style_line_opa(struct _lv_obj_t * obj, lv_opa_t value, lv_style_selector_t selector
 476:..\..\..\arduinoLCD\test\Pain Drain\libraries\lvgl\src\core/lv_obj_style_gen.c **** {
 1857              		.loc 1 476 0
 1858              		.cfi_startproc
 1859              		@ args = 0, pretend = 0, frame = 0
 1860              		@ frame_needed = 0, uses_anonymous_args = 0
 1861              	.LVL228:
ARM GAS  C:\Users\haske\AppData\Local\Temp\cc0eRFVw.s 			page 42


 1862 0000 10B5     		push	{r4, lr}
 1863              		.cfi_def_cfa_offset 8
 1864              		.cfi_offset 4, -8
 1865              		.cfi_offset 14, -4
 1866 0002 1300     		movs	r3, r2
 477:..\..\..\arduinoLCD\test\Pain Drain\libraries\lvgl\src\core/lv_obj_style_gen.c ****     lv_style_value_t v = {
 478:..\..\..\arduinoLCD\test\Pain Drain\libraries\lvgl\src\core/lv_obj_style_gen.c ****         .num = (int32_t)value
 479:..\..\..\arduinoLCD\test\Pain Drain\libraries\lvgl\src\core/lv_obj_style_gen.c ****     };
 480:..\..\..\arduinoLCD\test\Pain Drain\libraries\lvgl\src\core/lv_obj_style_gen.c ****     lv_obj_set_local_style_prop(obj, LV_STYLE_LINE_OPA, v, selector);
 1867              		.loc 1 480 0
 1868 0004 0A00     		movs	r2, r1
 1869              	.LVL229:
 1870 0006 4E21     		movs	r1, #78
 1871              	.LVL230:
 1872 0008 FFF7FEFF 		bl	lv_obj_set_local_style_prop
 1873              	.LVL231:
 481:..\..\..\arduinoLCD\test\Pain Drain\libraries\lvgl\src\core/lv_obj_style_gen.c **** }
 1874              		.loc 1 481 0
 1875              		@ sp needed
 1876 000c 10BD     		pop	{r4, pc}
 1877              		.cfi_endproc
 1878              	.LFE218:
 1879              		.size	lv_obj_set_style_line_opa, .-lv_obj_set_style_line_opa
 1880 000e C046     		.section	.text.lv_obj_set_style_arc_width,"ax",%progbits
 1881              		.align	2
 1882              		.global	lv_obj_set_style_arc_width
 1883              		.code	16
 1884              		.thumb_func
 1885              		.type	lv_obj_set_style_arc_width, %function
 1886              	lv_obj_set_style_arc_width:
 1887              	.LFB219:
 482:..\..\..\arduinoLCD\test\Pain Drain\libraries\lvgl\src\core/lv_obj_style_gen.c **** 
 483:..\..\..\arduinoLCD\test\Pain Drain\libraries\lvgl\src\core/lv_obj_style_gen.c **** void lv_obj_set_style_arc_width(struct _lv_obj_t * obj, lv_coord_t value, lv_style_selector_t selec
 484:..\..\..\arduinoLCD\test\Pain Drain\libraries\lvgl\src\core/lv_obj_style_gen.c **** {
 1888              		.loc 1 484 0
 1889              		.cfi_startproc
 1890              		@ args = 0, pretend = 0, frame = 0
 1891              		@ frame_needed = 0, uses_anonymous_args = 0
 1892              	.LVL232:
 1893 0000 10B5     		push	{r4, lr}
 1894              		.cfi_def_cfa_offset 8
 1895              		.cfi_offset 4, -8
 1896              		.cfi_offset 14, -4
 1897 0002 1300     		movs	r3, r2
 485:..\..\..\arduinoLCD\test\Pain Drain\libraries\lvgl\src\core/lv_obj_style_gen.c ****     lv_style_value_t v = {
 486:..\..\..\arduinoLCD\test\Pain Drain\libraries\lvgl\src\core/lv_obj_style_gen.c ****         .num = (int32_t)value
 487:..\..\..\arduinoLCD\test\Pain Drain\libraries\lvgl\src\core/lv_obj_style_gen.c ****     };
 488:..\..\..\arduinoLCD\test\Pain Drain\libraries\lvgl\src\core/lv_obj_style_gen.c ****     lv_obj_set_local_style_prop(obj, LV_STYLE_ARC_WIDTH, v, selector);
 1898              		.loc 1 488 0
 1899 0004 0A00     		movs	r2, r1
 1900              	.LVL233:
 1901 0006 5021     		movs	r1, #80
 1902              	.LVL234:
 1903 0008 FFF7FEFF 		bl	lv_obj_set_local_style_prop
 1904              	.LVL235:
 489:..\..\..\arduinoLCD\test\Pain Drain\libraries\lvgl\src\core/lv_obj_style_gen.c **** }
 1905              		.loc 1 489 0
ARM GAS  C:\Users\haske\AppData\Local\Temp\cc0eRFVw.s 			page 43


 1906              		@ sp needed
 1907 000c 10BD     		pop	{r4, pc}
 1908              		.cfi_endproc
 1909              	.LFE219:
 1910              		.size	lv_obj_set_style_arc_width, .-lv_obj_set_style_arc_width
 1911 000e C046     		.section	.text.lv_obj_set_style_arc_rounded,"ax",%progbits
 1912              		.align	2
 1913              		.global	lv_obj_set_style_arc_rounded
 1914              		.code	16
 1915              		.thumb_func
 1916              		.type	lv_obj_set_style_arc_rounded, %function
 1917              	lv_obj_set_style_arc_rounded:
 1918              	.LFB220:
 490:..\..\..\arduinoLCD\test\Pain Drain\libraries\lvgl\src\core/lv_obj_style_gen.c **** 
 491:..\..\..\arduinoLCD\test\Pain Drain\libraries\lvgl\src\core/lv_obj_style_gen.c **** void lv_obj_set_style_arc_rounded(struct _lv_obj_t * obj, bool value, lv_style_selector_t selector)
 492:..\..\..\arduinoLCD\test\Pain Drain\libraries\lvgl\src\core/lv_obj_style_gen.c **** {
 1919              		.loc 1 492 0
 1920              		.cfi_startproc
 1921              		@ args = 0, pretend = 0, frame = 0
 1922              		@ frame_needed = 0, uses_anonymous_args = 0
 1923              	.LVL236:
 1924 0000 10B5     		push	{r4, lr}
 1925              		.cfi_def_cfa_offset 8
 1926              		.cfi_offset 4, -8
 1927              		.cfi_offset 14, -4
 1928 0002 1300     		movs	r3, r2
 493:..\..\..\arduinoLCD\test\Pain Drain\libraries\lvgl\src\core/lv_obj_style_gen.c ****     lv_style_value_t v = {
 494:..\..\..\arduinoLCD\test\Pain Drain\libraries\lvgl\src\core/lv_obj_style_gen.c ****         .num = (int32_t)value
 495:..\..\..\arduinoLCD\test\Pain Drain\libraries\lvgl\src\core/lv_obj_style_gen.c ****     };
 496:..\..\..\arduinoLCD\test\Pain Drain\libraries\lvgl\src\core/lv_obj_style_gen.c ****     lv_obj_set_local_style_prop(obj, LV_STYLE_ARC_ROUNDED, v, selector);
 1929              		.loc 1 496 0
 1930 0004 0A00     		movs	r2, r1
 1931              	.LVL237:
 1932 0006 5121     		movs	r1, #81
 1933              	.LVL238:
 1934 0008 FFF7FEFF 		bl	lv_obj_set_local_style_prop
 1935              	.LVL239:
 497:..\..\..\arduinoLCD\test\Pain Drain\libraries\lvgl\src\core/lv_obj_style_gen.c **** }
 1936              		.loc 1 497 0
 1937              		@ sp needed
 1938 000c 10BD     		pop	{r4, pc}
 1939              		.cfi_endproc
 1940              	.LFE220:
 1941              		.size	lv_obj_set_style_arc_rounded, .-lv_obj_set_style_arc_rounded
 1942 000e C046     		.section	.text.lv_obj_set_style_arc_color,"ax",%progbits
 1943              		.align	2
 1944              		.global	lv_obj_set_style_arc_color
 1945              		.code	16
 1946              		.thumb_func
 1947              		.type	lv_obj_set_style_arc_color, %function
 1948              	lv_obj_set_style_arc_color:
 1949              	.LFB221:
 498:..\..\..\arduinoLCD\test\Pain Drain\libraries\lvgl\src\core/lv_obj_style_gen.c **** 
 499:..\..\..\arduinoLCD\test\Pain Drain\libraries\lvgl\src\core/lv_obj_style_gen.c **** void lv_obj_set_style_arc_color(struct _lv_obj_t * obj, lv_color_t value, lv_style_selector_t selec
 500:..\..\..\arduinoLCD\test\Pain Drain\libraries\lvgl\src\core/lv_obj_style_gen.c **** {
 1950              		.loc 1 500 0
 1951              		.cfi_startproc
ARM GAS  C:\Users\haske\AppData\Local\Temp\cc0eRFVw.s 			page 44


 1952              		@ args = 0, pretend = 0, frame = 0
 1953              		@ frame_needed = 0, uses_anonymous_args = 0
 1954              	.LVL240:
 1955 0000 10B5     		push	{r4, lr}
 1956              		.cfi_def_cfa_offset 8
 1957              		.cfi_offset 4, -8
 1958              		.cfi_offset 14, -4
 1959 0002 1300     		movs	r3, r2
 501:..\..\..\arduinoLCD\test\Pain Drain\libraries\lvgl\src\core/lv_obj_style_gen.c ****     lv_style_value_t v = {
 1960              		.loc 1 501 0
 1961 0004 8AB2     		uxth	r2, r1
 1962              	.LVL241:
 502:..\..\..\arduinoLCD\test\Pain Drain\libraries\lvgl\src\core/lv_obj_style_gen.c ****         .color = value
 503:..\..\..\arduinoLCD\test\Pain Drain\libraries\lvgl\src\core/lv_obj_style_gen.c ****     };
 504:..\..\..\arduinoLCD\test\Pain Drain\libraries\lvgl\src\core/lv_obj_style_gen.c ****     lv_obj_set_local_style_prop(obj, LV_STYLE_ARC_COLOR, v, selector);
 1963              		.loc 1 504 0
 1964 0006 5221     		movs	r1, #82
 1965 0008 FFF7FEFF 		bl	lv_obj_set_local_style_prop
 1966              	.LVL242:
 505:..\..\..\arduinoLCD\test\Pain Drain\libraries\lvgl\src\core/lv_obj_style_gen.c **** }
 1967              		.loc 1 505 0
 1968              		@ sp needed
 1969 000c 10BD     		pop	{r4, pc}
 1970              		.cfi_endproc
 1971              	.LFE221:
 1972              		.size	lv_obj_set_style_arc_color, .-lv_obj_set_style_arc_color
 1973 000e C046     		.section	.text.lv_obj_set_style_arc_opa,"ax",%progbits
 1974              		.align	2
 1975              		.global	lv_obj_set_style_arc_opa
 1976              		.code	16
 1977              		.thumb_func
 1978              		.type	lv_obj_set_style_arc_opa, %function
 1979              	lv_obj_set_style_arc_opa:
 1980              	.LFB222:
 506:..\..\..\arduinoLCD\test\Pain Drain\libraries\lvgl\src\core/lv_obj_style_gen.c **** 
 507:..\..\..\arduinoLCD\test\Pain Drain\libraries\lvgl\src\core/lv_obj_style_gen.c **** void lv_obj_set_style_arc_opa(struct _lv_obj_t * obj, lv_opa_t value, lv_style_selector_t selector)
 508:..\..\..\arduinoLCD\test\Pain Drain\libraries\lvgl\src\core/lv_obj_style_gen.c **** {
 1981              		.loc 1 508 0
 1982              		.cfi_startproc
 1983              		@ args = 0, pretend = 0, frame = 0
 1984              		@ frame_needed = 0, uses_anonymous_args = 0
 1985              	.LVL243:
 1986 0000 10B5     		push	{r4, lr}
 1987              		.cfi_def_cfa_offset 8
 1988              		.cfi_offset 4, -8
 1989              		.cfi_offset 14, -4
 1990 0002 1300     		movs	r3, r2
 509:..\..\..\arduinoLCD\test\Pain Drain\libraries\lvgl\src\core/lv_obj_style_gen.c ****     lv_style_value_t v = {
 510:..\..\..\arduinoLCD\test\Pain Drain\libraries\lvgl\src\core/lv_obj_style_gen.c ****         .num = (int32_t)value
 511:..\..\..\arduinoLCD\test\Pain Drain\libraries\lvgl\src\core/lv_obj_style_gen.c ****     };
 512:..\..\..\arduinoLCD\test\Pain Drain\libraries\lvgl\src\core/lv_obj_style_gen.c ****     lv_obj_set_local_style_prop(obj, LV_STYLE_ARC_OPA, v, selector);
 1991              		.loc 1 512 0
 1992 0004 0A00     		movs	r2, r1
 1993              	.LVL244:
 1994 0006 5321     		movs	r1, #83
 1995              	.LVL245:
 1996 0008 FFF7FEFF 		bl	lv_obj_set_local_style_prop
ARM GAS  C:\Users\haske\AppData\Local\Temp\cc0eRFVw.s 			page 45


 1997              	.LVL246:
 513:..\..\..\arduinoLCD\test\Pain Drain\libraries\lvgl\src\core/lv_obj_style_gen.c **** }
 1998              		.loc 1 513 0
 1999              		@ sp needed
 2000 000c 10BD     		pop	{r4, pc}
 2001              		.cfi_endproc
 2002              	.LFE222:
 2003              		.size	lv_obj_set_style_arc_opa, .-lv_obj_set_style_arc_opa
 2004 000e C046     		.section	.text.lv_obj_set_style_arc_img_src,"ax",%progbits
 2005              		.align	2
 2006              		.global	lv_obj_set_style_arc_img_src
 2007              		.code	16
 2008              		.thumb_func
 2009              		.type	lv_obj_set_style_arc_img_src, %function
 2010              	lv_obj_set_style_arc_img_src:
 2011              	.LFB223:
 514:..\..\..\arduinoLCD\test\Pain Drain\libraries\lvgl\src\core/lv_obj_style_gen.c **** 
 515:..\..\..\arduinoLCD\test\Pain Drain\libraries\lvgl\src\core/lv_obj_style_gen.c **** void lv_obj_set_style_arc_img_src(struct _lv_obj_t * obj, const void * value, lv_style_selector_t s
 516:..\..\..\arduinoLCD\test\Pain Drain\libraries\lvgl\src\core/lv_obj_style_gen.c **** {
 2012              		.loc 1 516 0
 2013              		.cfi_startproc
 2014              		@ args = 0, pretend = 0, frame = 0
 2015              		@ frame_needed = 0, uses_anonymous_args = 0
 2016              	.LVL247:
 2017 0000 10B5     		push	{r4, lr}
 2018              		.cfi_def_cfa_offset 8
 2019              		.cfi_offset 4, -8
 2020              		.cfi_offset 14, -4
 2021 0002 1300     		movs	r3, r2
 517:..\..\..\arduinoLCD\test\Pain Drain\libraries\lvgl\src\core/lv_obj_style_gen.c ****     lv_style_value_t v = {
 518:..\..\..\arduinoLCD\test\Pain Drain\libraries\lvgl\src\core/lv_obj_style_gen.c ****         .ptr = value
 519:..\..\..\arduinoLCD\test\Pain Drain\libraries\lvgl\src\core/lv_obj_style_gen.c ****     };
 520:..\..\..\arduinoLCD\test\Pain Drain\libraries\lvgl\src\core/lv_obj_style_gen.c ****     lv_obj_set_local_style_prop(obj, LV_STYLE_ARC_IMG_SRC, v, selector);
 2022              		.loc 1 520 0
 2023 0004 0A00     		movs	r2, r1
 2024              	.LVL248:
 2025 0006 5421     		movs	r1, #84
 2026              	.LVL249:
 2027 0008 FFF7FEFF 		bl	lv_obj_set_local_style_prop
 2028              	.LVL250:
 521:..\..\..\arduinoLCD\test\Pain Drain\libraries\lvgl\src\core/lv_obj_style_gen.c **** }
 2029              		.loc 1 521 0
 2030              		@ sp needed
 2031 000c 10BD     		pop	{r4, pc}
 2032              		.cfi_endproc
 2033              	.LFE223:
 2034              		.size	lv_obj_set_style_arc_img_src, .-lv_obj_set_style_arc_img_src
 2035 000e C046     		.section	.text.lv_obj_set_style_text_color,"ax",%progbits
 2036              		.align	2
 2037              		.global	lv_obj_set_style_text_color
 2038              		.code	16
 2039              		.thumb_func
 2040              		.type	lv_obj_set_style_text_color, %function
 2041              	lv_obj_set_style_text_color:
 2042              	.LFB224:
 522:..\..\..\arduinoLCD\test\Pain Drain\libraries\lvgl\src\core/lv_obj_style_gen.c **** 
 523:..\..\..\arduinoLCD\test\Pain Drain\libraries\lvgl\src\core/lv_obj_style_gen.c **** void lv_obj_set_style_text_color(struct _lv_obj_t * obj, lv_color_t value, lv_style_selector_t sele
ARM GAS  C:\Users\haske\AppData\Local\Temp\cc0eRFVw.s 			page 46


 524:..\..\..\arduinoLCD\test\Pain Drain\libraries\lvgl\src\core/lv_obj_style_gen.c **** {
 2043              		.loc 1 524 0
 2044              		.cfi_startproc
 2045              		@ args = 0, pretend = 0, frame = 0
 2046              		@ frame_needed = 0, uses_anonymous_args = 0
 2047              	.LVL251:
 2048 0000 10B5     		push	{r4, lr}
 2049              		.cfi_def_cfa_offset 8
 2050              		.cfi_offset 4, -8
 2051              		.cfi_offset 14, -4
 2052 0002 1300     		movs	r3, r2
 525:..\..\..\arduinoLCD\test\Pain Drain\libraries\lvgl\src\core/lv_obj_style_gen.c ****     lv_style_value_t v = {
 2053              		.loc 1 525 0
 2054 0004 8AB2     		uxth	r2, r1
 2055              	.LVL252:
 526:..\..\..\arduinoLCD\test\Pain Drain\libraries\lvgl\src\core/lv_obj_style_gen.c ****         .color = value
 527:..\..\..\arduinoLCD\test\Pain Drain\libraries\lvgl\src\core/lv_obj_style_gen.c ****     };
 528:..\..\..\arduinoLCD\test\Pain Drain\libraries\lvgl\src\core/lv_obj_style_gen.c ****     lv_obj_set_local_style_prop(obj, LV_STYLE_TEXT_COLOR, v, selector);
 2056              		.loc 1 528 0
 2057 0006 5521     		movs	r1, #85
 2058 0008 FFF7FEFF 		bl	lv_obj_set_local_style_prop
 2059              	.LVL253:
 529:..\..\..\arduinoLCD\test\Pain Drain\libraries\lvgl\src\core/lv_obj_style_gen.c **** }
 2060              		.loc 1 529 0
 2061              		@ sp needed
 2062 000c 10BD     		pop	{r4, pc}
 2063              		.cfi_endproc
 2064              	.LFE224:
 2065              		.size	lv_obj_set_style_text_color, .-lv_obj_set_style_text_color
 2066 000e C046     		.section	.text.lv_obj_set_style_text_opa,"ax",%progbits
 2067              		.align	2
 2068              		.global	lv_obj_set_style_text_opa
 2069              		.code	16
 2070              		.thumb_func
 2071              		.type	lv_obj_set_style_text_opa, %function
 2072              	lv_obj_set_style_text_opa:
 2073              	.LFB225:
 530:..\..\..\arduinoLCD\test\Pain Drain\libraries\lvgl\src\core/lv_obj_style_gen.c **** 
 531:..\..\..\arduinoLCD\test\Pain Drain\libraries\lvgl\src\core/lv_obj_style_gen.c **** void lv_obj_set_style_text_opa(struct _lv_obj_t * obj, lv_opa_t value, lv_style_selector_t selector
 532:..\..\..\arduinoLCD\test\Pain Drain\libraries\lvgl\src\core/lv_obj_style_gen.c **** {
 2074              		.loc 1 532 0
 2075              		.cfi_startproc
 2076              		@ args = 0, pretend = 0, frame = 0
 2077              		@ frame_needed = 0, uses_anonymous_args = 0
 2078              	.LVL254:
 2079 0000 10B5     		push	{r4, lr}
 2080              		.cfi_def_cfa_offset 8
 2081              		.cfi_offset 4, -8
 2082              		.cfi_offset 14, -4
 2083 0002 1300     		movs	r3, r2
 533:..\..\..\arduinoLCD\test\Pain Drain\libraries\lvgl\src\core/lv_obj_style_gen.c ****     lv_style_value_t v = {
 534:..\..\..\arduinoLCD\test\Pain Drain\libraries\lvgl\src\core/lv_obj_style_gen.c ****         .num = (int32_t)value
 535:..\..\..\arduinoLCD\test\Pain Drain\libraries\lvgl\src\core/lv_obj_style_gen.c ****     };
 536:..\..\..\arduinoLCD\test\Pain Drain\libraries\lvgl\src\core/lv_obj_style_gen.c ****     lv_obj_set_local_style_prop(obj, LV_STYLE_TEXT_OPA, v, selector);
 2084              		.loc 1 536 0
 2085 0004 0A00     		movs	r2, r1
 2086              	.LVL255:
ARM GAS  C:\Users\haske\AppData\Local\Temp\cc0eRFVw.s 			page 47


 2087 0006 5621     		movs	r1, #86
 2088              	.LVL256:
 2089 0008 FFF7FEFF 		bl	lv_obj_set_local_style_prop
 2090              	.LVL257:
 537:..\..\..\arduinoLCD\test\Pain Drain\libraries\lvgl\src\core/lv_obj_style_gen.c **** }
 2091              		.loc 1 537 0
 2092              		@ sp needed
 2093 000c 10BD     		pop	{r4, pc}
 2094              		.cfi_endproc
 2095              	.LFE225:
 2096              		.size	lv_obj_set_style_text_opa, .-lv_obj_set_style_text_opa
 2097 000e C046     		.section	.text.lv_obj_set_style_text_font,"ax",%progbits
 2098              		.align	2
 2099              		.global	lv_obj_set_style_text_font
 2100              		.code	16
 2101              		.thumb_func
 2102              		.type	lv_obj_set_style_text_font, %function
 2103              	lv_obj_set_style_text_font:
 2104              	.LFB226:
 538:..\..\..\arduinoLCD\test\Pain Drain\libraries\lvgl\src\core/lv_obj_style_gen.c **** 
 539:..\..\..\arduinoLCD\test\Pain Drain\libraries\lvgl\src\core/lv_obj_style_gen.c **** void lv_obj_set_style_text_font(struct _lv_obj_t * obj, const lv_font_t * value, lv_style_selector_
 540:..\..\..\arduinoLCD\test\Pain Drain\libraries\lvgl\src\core/lv_obj_style_gen.c **** {
 2105              		.loc 1 540 0
 2106              		.cfi_startproc
 2107              		@ args = 0, pretend = 0, frame = 0
 2108              		@ frame_needed = 0, uses_anonymous_args = 0
 2109              	.LVL258:
 2110 0000 10B5     		push	{r4, lr}
 2111              		.cfi_def_cfa_offset 8
 2112              		.cfi_offset 4, -8
 2113              		.cfi_offset 14, -4
 2114 0002 1300     		movs	r3, r2
 541:..\..\..\arduinoLCD\test\Pain Drain\libraries\lvgl\src\core/lv_obj_style_gen.c ****     lv_style_value_t v = {
 542:..\..\..\arduinoLCD\test\Pain Drain\libraries\lvgl\src\core/lv_obj_style_gen.c ****         .ptr = value
 543:..\..\..\arduinoLCD\test\Pain Drain\libraries\lvgl\src\core/lv_obj_style_gen.c ****     };
 544:..\..\..\arduinoLCD\test\Pain Drain\libraries\lvgl\src\core/lv_obj_style_gen.c ****     lv_obj_set_local_style_prop(obj, LV_STYLE_TEXT_FONT, v, selector);
 2115              		.loc 1 544 0
 2116 0004 0A00     		movs	r2, r1
 2117              	.LVL259:
 2118 0006 5721     		movs	r1, #87
 2119              	.LVL260:
 2120 0008 FFF7FEFF 		bl	lv_obj_set_local_style_prop
 2121              	.LVL261:
 545:..\..\..\arduinoLCD\test\Pain Drain\libraries\lvgl\src\core/lv_obj_style_gen.c **** }
 2122              		.loc 1 545 0
 2123              		@ sp needed
 2124 000c 10BD     		pop	{r4, pc}
 2125              		.cfi_endproc
 2126              	.LFE226:
 2127              		.size	lv_obj_set_style_text_font, .-lv_obj_set_style_text_font
 2128 000e C046     		.section	.text.lv_obj_set_style_text_letter_space,"ax",%progbits
 2129              		.align	2
 2130              		.global	lv_obj_set_style_text_letter_space
 2131              		.code	16
 2132              		.thumb_func
 2133              		.type	lv_obj_set_style_text_letter_space, %function
 2134              	lv_obj_set_style_text_letter_space:
ARM GAS  C:\Users\haske\AppData\Local\Temp\cc0eRFVw.s 			page 48


 2135              	.LFB227:
 546:..\..\..\arduinoLCD\test\Pain Drain\libraries\lvgl\src\core/lv_obj_style_gen.c **** 
 547:..\..\..\arduinoLCD\test\Pain Drain\libraries\lvgl\src\core/lv_obj_style_gen.c **** void lv_obj_set_style_text_letter_space(struct _lv_obj_t * obj, lv_coord_t value, lv_style_selector
 548:..\..\..\arduinoLCD\test\Pain Drain\libraries\lvgl\src\core/lv_obj_style_gen.c **** {
 2136              		.loc 1 548 0
 2137              		.cfi_startproc
 2138              		@ args = 0, pretend = 0, frame = 0
 2139              		@ frame_needed = 0, uses_anonymous_args = 0
 2140              	.LVL262:
 2141 0000 10B5     		push	{r4, lr}
 2142              		.cfi_def_cfa_offset 8
 2143              		.cfi_offset 4, -8
 2144              		.cfi_offset 14, -4
 2145 0002 1300     		movs	r3, r2
 549:..\..\..\arduinoLCD\test\Pain Drain\libraries\lvgl\src\core/lv_obj_style_gen.c ****     lv_style_value_t v = {
 550:..\..\..\arduinoLCD\test\Pain Drain\libraries\lvgl\src\core/lv_obj_style_gen.c ****         .num = (int32_t)value
 551:..\..\..\arduinoLCD\test\Pain Drain\libraries\lvgl\src\core/lv_obj_style_gen.c ****     };
 552:..\..\..\arduinoLCD\test\Pain Drain\libraries\lvgl\src\core/lv_obj_style_gen.c ****     lv_obj_set_local_style_prop(obj, LV_STYLE_TEXT_LETTER_SPACE, v, selector);
 2146              		.loc 1 552 0
 2147 0004 0A00     		movs	r2, r1
 2148              	.LVL263:
 2149 0006 5821     		movs	r1, #88
 2150              	.LVL264:
 2151 0008 FFF7FEFF 		bl	lv_obj_set_local_style_prop
 2152              	.LVL265:
 553:..\..\..\arduinoLCD\test\Pain Drain\libraries\lvgl\src\core/lv_obj_style_gen.c **** }
 2153              		.loc 1 553 0
 2154              		@ sp needed
 2155 000c 10BD     		pop	{r4, pc}
 2156              		.cfi_endproc
 2157              	.LFE227:
 2158              		.size	lv_obj_set_style_text_letter_space, .-lv_obj_set_style_text_letter_space
 2159 000e C046     		.section	.text.lv_obj_set_style_text_line_space,"ax",%progbits
 2160              		.align	2
 2161              		.global	lv_obj_set_style_text_line_space
 2162              		.code	16
 2163              		.thumb_func
 2164              		.type	lv_obj_set_style_text_line_space, %function
 2165              	lv_obj_set_style_text_line_space:
 2166              	.LFB228:
 554:..\..\..\arduinoLCD\test\Pain Drain\libraries\lvgl\src\core/lv_obj_style_gen.c **** 
 555:..\..\..\arduinoLCD\test\Pain Drain\libraries\lvgl\src\core/lv_obj_style_gen.c **** void lv_obj_set_style_text_line_space(struct _lv_obj_t * obj, lv_coord_t value, lv_style_selector_t
 556:..\..\..\arduinoLCD\test\Pain Drain\libraries\lvgl\src\core/lv_obj_style_gen.c **** {
 2167              		.loc 1 556 0
 2168              		.cfi_startproc
 2169              		@ args = 0, pretend = 0, frame = 0
 2170              		@ frame_needed = 0, uses_anonymous_args = 0
 2171              	.LVL266:
 2172 0000 10B5     		push	{r4, lr}
 2173              		.cfi_def_cfa_offset 8
 2174              		.cfi_offset 4, -8
 2175              		.cfi_offset 14, -4
 2176 0002 1300     		movs	r3, r2
 557:..\..\..\arduinoLCD\test\Pain Drain\libraries\lvgl\src\core/lv_obj_style_gen.c ****     lv_style_value_t v = {
 558:..\..\..\arduinoLCD\test\Pain Drain\libraries\lvgl\src\core/lv_obj_style_gen.c ****         .num = (int32_t)value
 559:..\..\..\arduinoLCD\test\Pain Drain\libraries\lvgl\src\core/lv_obj_style_gen.c ****     };
 560:..\..\..\arduinoLCD\test\Pain Drain\libraries\lvgl\src\core/lv_obj_style_gen.c ****     lv_obj_set_local_style_prop(obj, LV_STYLE_TEXT_LINE_SPACE, v, selector);
ARM GAS  C:\Users\haske\AppData\Local\Temp\cc0eRFVw.s 			page 49


 2177              		.loc 1 560 0
 2178 0004 0A00     		movs	r2, r1
 2179              	.LVL267:
 2180 0006 5921     		movs	r1, #89
 2181              	.LVL268:
 2182 0008 FFF7FEFF 		bl	lv_obj_set_local_style_prop
 2183              	.LVL269:
 561:..\..\..\arduinoLCD\test\Pain Drain\libraries\lvgl\src\core/lv_obj_style_gen.c **** }
 2184              		.loc 1 561 0
 2185              		@ sp needed
 2186 000c 10BD     		pop	{r4, pc}
 2187              		.cfi_endproc
 2188              	.LFE228:
 2189              		.size	lv_obj_set_style_text_line_space, .-lv_obj_set_style_text_line_space
 2190 000e C046     		.section	.text.lv_obj_set_style_text_decor,"ax",%progbits
 2191              		.align	2
 2192              		.global	lv_obj_set_style_text_decor
 2193              		.code	16
 2194              		.thumb_func
 2195              		.type	lv_obj_set_style_text_decor, %function
 2196              	lv_obj_set_style_text_decor:
 2197              	.LFB229:
 562:..\..\..\arduinoLCD\test\Pain Drain\libraries\lvgl\src\core/lv_obj_style_gen.c **** 
 563:..\..\..\arduinoLCD\test\Pain Drain\libraries\lvgl\src\core/lv_obj_style_gen.c **** void lv_obj_set_style_text_decor(struct _lv_obj_t * obj, lv_text_decor_t value, lv_style_selector_t
 564:..\..\..\arduinoLCD\test\Pain Drain\libraries\lvgl\src\core/lv_obj_style_gen.c **** {
 2198              		.loc 1 564 0
 2199              		.cfi_startproc
 2200              		@ args = 0, pretend = 0, frame = 0
 2201              		@ frame_needed = 0, uses_anonymous_args = 0
 2202              	.LVL270:
 2203 0000 10B5     		push	{r4, lr}
 2204              		.cfi_def_cfa_offset 8
 2205              		.cfi_offset 4, -8
 2206              		.cfi_offset 14, -4
 2207 0002 1300     		movs	r3, r2
 565:..\..\..\arduinoLCD\test\Pain Drain\libraries\lvgl\src\core/lv_obj_style_gen.c ****     lv_style_value_t v = {
 566:..\..\..\arduinoLCD\test\Pain Drain\libraries\lvgl\src\core/lv_obj_style_gen.c ****         .num = (int32_t)value
 567:..\..\..\arduinoLCD\test\Pain Drain\libraries\lvgl\src\core/lv_obj_style_gen.c ****     };
 568:..\..\..\arduinoLCD\test\Pain Drain\libraries\lvgl\src\core/lv_obj_style_gen.c ****     lv_obj_set_local_style_prop(obj, LV_STYLE_TEXT_DECOR, v, selector);
 2208              		.loc 1 568 0
 2209 0004 0A00     		movs	r2, r1
 2210              	.LVL271:
 2211 0006 5A21     		movs	r1, #90
 2212              	.LVL272:
 2213 0008 FFF7FEFF 		bl	lv_obj_set_local_style_prop
 2214              	.LVL273:
 569:..\..\..\arduinoLCD\test\Pain Drain\libraries\lvgl\src\core/lv_obj_style_gen.c **** }
 2215              		.loc 1 569 0
 2216              		@ sp needed
 2217 000c 10BD     		pop	{r4, pc}
 2218              		.cfi_endproc
 2219              	.LFE229:
 2220              		.size	lv_obj_set_style_text_decor, .-lv_obj_set_style_text_decor
 2221 000e C046     		.section	.text.lv_obj_set_style_text_align,"ax",%progbits
 2222              		.align	2
 2223              		.global	lv_obj_set_style_text_align
 2224              		.code	16
ARM GAS  C:\Users\haske\AppData\Local\Temp\cc0eRFVw.s 			page 50


 2225              		.thumb_func
 2226              		.type	lv_obj_set_style_text_align, %function
 2227              	lv_obj_set_style_text_align:
 2228              	.LFB230:
 570:..\..\..\arduinoLCD\test\Pain Drain\libraries\lvgl\src\core/lv_obj_style_gen.c **** 
 571:..\..\..\arduinoLCD\test\Pain Drain\libraries\lvgl\src\core/lv_obj_style_gen.c **** void lv_obj_set_style_text_align(struct _lv_obj_t * obj, lv_text_align_t value, lv_style_selector_t
 572:..\..\..\arduinoLCD\test\Pain Drain\libraries\lvgl\src\core/lv_obj_style_gen.c **** {
 2229              		.loc 1 572 0
 2230              		.cfi_startproc
 2231              		@ args = 0, pretend = 0, frame = 0
 2232              		@ frame_needed = 0, uses_anonymous_args = 0
 2233              	.LVL274:
 2234 0000 10B5     		push	{r4, lr}
 2235              		.cfi_def_cfa_offset 8
 2236              		.cfi_offset 4, -8
 2237              		.cfi_offset 14, -4
 2238 0002 1300     		movs	r3, r2
 573:..\..\..\arduinoLCD\test\Pain Drain\libraries\lvgl\src\core/lv_obj_style_gen.c ****     lv_style_value_t v = {
 574:..\..\..\arduinoLCD\test\Pain Drain\libraries\lvgl\src\core/lv_obj_style_gen.c ****         .num = (int32_t)value
 575:..\..\..\arduinoLCD\test\Pain Drain\libraries\lvgl\src\core/lv_obj_style_gen.c ****     };
 576:..\..\..\arduinoLCD\test\Pain Drain\libraries\lvgl\src\core/lv_obj_style_gen.c ****     lv_obj_set_local_style_prop(obj, LV_STYLE_TEXT_ALIGN, v, selector);
 2239              		.loc 1 576 0
 2240 0004 0A00     		movs	r2, r1
 2241              	.LVL275:
 2242 0006 5B21     		movs	r1, #91
 2243              	.LVL276:
 2244 0008 FFF7FEFF 		bl	lv_obj_set_local_style_prop
 2245              	.LVL277:
 577:..\..\..\arduinoLCD\test\Pain Drain\libraries\lvgl\src\core/lv_obj_style_gen.c **** }
 2246              		.loc 1 577 0
 2247              		@ sp needed
 2248 000c 10BD     		pop	{r4, pc}
 2249              		.cfi_endproc
 2250              	.LFE230:
 2251              		.size	lv_obj_set_style_text_align, .-lv_obj_set_style_text_align
 2252 000e C046     		.section	.text.lv_obj_set_style_radius,"ax",%progbits
 2253              		.align	2
 2254              		.global	lv_obj_set_style_radius
 2255              		.code	16
 2256              		.thumb_func
 2257              		.type	lv_obj_set_style_radius, %function
 2258              	lv_obj_set_style_radius:
 2259              	.LFB231:
 578:..\..\..\arduinoLCD\test\Pain Drain\libraries\lvgl\src\core/lv_obj_style_gen.c **** 
 579:..\..\..\arduinoLCD\test\Pain Drain\libraries\lvgl\src\core/lv_obj_style_gen.c **** void lv_obj_set_style_radius(struct _lv_obj_t * obj, lv_coord_t value, lv_style_selector_t selector
 580:..\..\..\arduinoLCD\test\Pain Drain\libraries\lvgl\src\core/lv_obj_style_gen.c **** {
 2260              		.loc 1 580 0
 2261              		.cfi_startproc
 2262              		@ args = 0, pretend = 0, frame = 0
 2263              		@ frame_needed = 0, uses_anonymous_args = 0
 2264              	.LVL278:
 2265 0000 10B5     		push	{r4, lr}
 2266              		.cfi_def_cfa_offset 8
 2267              		.cfi_offset 4, -8
 2268              		.cfi_offset 14, -4
 2269 0002 1300     		movs	r3, r2
 581:..\..\..\arduinoLCD\test\Pain Drain\libraries\lvgl\src\core/lv_obj_style_gen.c ****     lv_style_value_t v = {
ARM GAS  C:\Users\haske\AppData\Local\Temp\cc0eRFVw.s 			page 51


 582:..\..\..\arduinoLCD\test\Pain Drain\libraries\lvgl\src\core/lv_obj_style_gen.c ****         .num = (int32_t)value
 583:..\..\..\arduinoLCD\test\Pain Drain\libraries\lvgl\src\core/lv_obj_style_gen.c ****     };
 584:..\..\..\arduinoLCD\test\Pain Drain\libraries\lvgl\src\core/lv_obj_style_gen.c ****     lv_obj_set_local_style_prop(obj, LV_STYLE_RADIUS, v, selector);
 2270              		.loc 1 584 0
 2271 0004 0A00     		movs	r2, r1
 2272              	.LVL279:
 2273 0006 0B21     		movs	r1, #11
 2274              	.LVL280:
 2275 0008 FFF7FEFF 		bl	lv_obj_set_local_style_prop
 2276              	.LVL281:
 585:..\..\..\arduinoLCD\test\Pain Drain\libraries\lvgl\src\core/lv_obj_style_gen.c **** }
 2277              		.loc 1 585 0
 2278              		@ sp needed
 2279 000c 10BD     		pop	{r4, pc}
 2280              		.cfi_endproc
 2281              	.LFE231:
 2282              		.size	lv_obj_set_style_radius, .-lv_obj_set_style_radius
 2283 000e C046     		.section	.text.lv_obj_set_style_clip_corner,"ax",%progbits
 2284              		.align	2
 2285              		.global	lv_obj_set_style_clip_corner
 2286              		.code	16
 2287              		.thumb_func
 2288              		.type	lv_obj_set_style_clip_corner, %function
 2289              	lv_obj_set_style_clip_corner:
 2290              	.LFB232:
 586:..\..\..\arduinoLCD\test\Pain Drain\libraries\lvgl\src\core/lv_obj_style_gen.c **** 
 587:..\..\..\arduinoLCD\test\Pain Drain\libraries\lvgl\src\core/lv_obj_style_gen.c **** void lv_obj_set_style_clip_corner(struct _lv_obj_t * obj, bool value, lv_style_selector_t selector)
 588:..\..\..\arduinoLCD\test\Pain Drain\libraries\lvgl\src\core/lv_obj_style_gen.c **** {
 2291              		.loc 1 588 0
 2292              		.cfi_startproc
 2293              		@ args = 0, pretend = 0, frame = 0
 2294              		@ frame_needed = 0, uses_anonymous_args = 0
 2295              	.LVL282:
 2296 0000 10B5     		push	{r4, lr}
 2297              		.cfi_def_cfa_offset 8
 2298              		.cfi_offset 4, -8
 2299              		.cfi_offset 14, -4
 2300 0002 1300     		movs	r3, r2
 589:..\..\..\arduinoLCD\test\Pain Drain\libraries\lvgl\src\core/lv_obj_style_gen.c ****     lv_style_value_t v = {
 590:..\..\..\arduinoLCD\test\Pain Drain\libraries\lvgl\src\core/lv_obj_style_gen.c ****         .num = (int32_t)value
 591:..\..\..\arduinoLCD\test\Pain Drain\libraries\lvgl\src\core/lv_obj_style_gen.c ****     };
 592:..\..\..\arduinoLCD\test\Pain Drain\libraries\lvgl\src\core/lv_obj_style_gen.c ****     lv_obj_set_local_style_prop(obj, LV_STYLE_CLIP_CORNER, v, selector);
 2301              		.loc 1 592 0
 2302 0004 0A00     		movs	r2, r1
 2303              	.LVL283:
 2304 0006 1721     		movs	r1, #23
 2305              	.LVL284:
 2306 0008 FFF7FEFF 		bl	lv_obj_set_local_style_prop
 2307              	.LVL285:
 593:..\..\..\arduinoLCD\test\Pain Drain\libraries\lvgl\src\core/lv_obj_style_gen.c **** }
 2308              		.loc 1 593 0
 2309              		@ sp needed
 2310 000c 10BD     		pop	{r4, pc}
 2311              		.cfi_endproc
 2312              	.LFE232:
 2313              		.size	lv_obj_set_style_clip_corner, .-lv_obj_set_style_clip_corner
 2314 000e C046     		.section	.text.lv_obj_set_style_opa,"ax",%progbits
ARM GAS  C:\Users\haske\AppData\Local\Temp\cc0eRFVw.s 			page 52


 2315              		.align	2
 2316              		.global	lv_obj_set_style_opa
 2317              		.code	16
 2318              		.thumb_func
 2319              		.type	lv_obj_set_style_opa, %function
 2320              	lv_obj_set_style_opa:
 2321              	.LFB233:
 594:..\..\..\arduinoLCD\test\Pain Drain\libraries\lvgl\src\core/lv_obj_style_gen.c **** 
 595:..\..\..\arduinoLCD\test\Pain Drain\libraries\lvgl\src\core/lv_obj_style_gen.c **** void lv_obj_set_style_opa(struct _lv_obj_t * obj, lv_opa_t value, lv_style_selector_t selector)
 596:..\..\..\arduinoLCD\test\Pain Drain\libraries\lvgl\src\core/lv_obj_style_gen.c **** {
 2322              		.loc 1 596 0
 2323              		.cfi_startproc
 2324              		@ args = 0, pretend = 0, frame = 0
 2325              		@ frame_needed = 0, uses_anonymous_args = 0
 2326              	.LVL286:
 2327 0000 10B5     		push	{r4, lr}
 2328              		.cfi_def_cfa_offset 8
 2329              		.cfi_offset 4, -8
 2330              		.cfi_offset 14, -4
 2331 0002 1300     		movs	r3, r2
 597:..\..\..\arduinoLCD\test\Pain Drain\libraries\lvgl\src\core/lv_obj_style_gen.c ****     lv_style_value_t v = {
 598:..\..\..\arduinoLCD\test\Pain Drain\libraries\lvgl\src\core/lv_obj_style_gen.c ****         .num = (int32_t)value
 599:..\..\..\arduinoLCD\test\Pain Drain\libraries\lvgl\src\core/lv_obj_style_gen.c ****     };
 600:..\..\..\arduinoLCD\test\Pain Drain\libraries\lvgl\src\core/lv_obj_style_gen.c ****     lv_obj_set_local_style_prop(obj, LV_STYLE_OPA, v, selector);
 2332              		.loc 1 600 0
 2333 0004 0A00     		movs	r2, r1
 2334              	.LVL287:
 2335 0006 6021     		movs	r1, #96
 2336              	.LVL288:
 2337 0008 FFF7FEFF 		bl	lv_obj_set_local_style_prop
 2338              	.LVL289:
 601:..\..\..\arduinoLCD\test\Pain Drain\libraries\lvgl\src\core/lv_obj_style_gen.c **** }
 2339              		.loc 1 601 0
 2340              		@ sp needed
 2341 000c 10BD     		pop	{r4, pc}
 2342              		.cfi_endproc
 2343              	.LFE233:
 2344              		.size	lv_obj_set_style_opa, .-lv_obj_set_style_opa
 2345 000e C046     		.section	.text.lv_obj_set_style_color_filter_dsc,"ax",%progbits
 2346              		.align	2
 2347              		.global	lv_obj_set_style_color_filter_dsc
 2348              		.code	16
 2349              		.thumb_func
 2350              		.type	lv_obj_set_style_color_filter_dsc, %function
 2351              	lv_obj_set_style_color_filter_dsc:
 2352              	.LFB234:
 602:..\..\..\arduinoLCD\test\Pain Drain\libraries\lvgl\src\core/lv_obj_style_gen.c **** 
 603:..\..\..\arduinoLCD\test\Pain Drain\libraries\lvgl\src\core/lv_obj_style_gen.c **** void lv_obj_set_style_color_filter_dsc(struct _lv_obj_t * obj, const lv_color_filter_dsc_t * value,
 604:..\..\..\arduinoLCD\test\Pain Drain\libraries\lvgl\src\core/lv_obj_style_gen.c **** {
 2353              		.loc 1 604 0
 2354              		.cfi_startproc
 2355              		@ args = 0, pretend = 0, frame = 0
 2356              		@ frame_needed = 0, uses_anonymous_args = 0
 2357              	.LVL290:
 2358 0000 10B5     		push	{r4, lr}
 2359              		.cfi_def_cfa_offset 8
 2360              		.cfi_offset 4, -8
ARM GAS  C:\Users\haske\AppData\Local\Temp\cc0eRFVw.s 			page 53


 2361              		.cfi_offset 14, -4
 2362 0002 1300     		movs	r3, r2
 605:..\..\..\arduinoLCD\test\Pain Drain\libraries\lvgl\src\core/lv_obj_style_gen.c ****     lv_style_value_t v = {
 606:..\..\..\arduinoLCD\test\Pain Drain\libraries\lvgl\src\core/lv_obj_style_gen.c ****         .ptr = value
 607:..\..\..\arduinoLCD\test\Pain Drain\libraries\lvgl\src\core/lv_obj_style_gen.c ****     };
 608:..\..\..\arduinoLCD\test\Pain Drain\libraries\lvgl\src\core/lv_obj_style_gen.c ****     lv_obj_set_local_style_prop(obj, LV_STYLE_COLOR_FILTER_DSC, v, selector);
 2363              		.loc 1 608 0
 2364 0004 0A00     		movs	r2, r1
 2365              	.LVL291:
 2366 0006 6121     		movs	r1, #97
 2367              	.LVL292:
 2368 0008 FFF7FEFF 		bl	lv_obj_set_local_style_prop
 2369              	.LVL293:
 609:..\..\..\arduinoLCD\test\Pain Drain\libraries\lvgl\src\core/lv_obj_style_gen.c **** }
 2370              		.loc 1 609 0
 2371              		@ sp needed
 2372 000c 10BD     		pop	{r4, pc}
 2373              		.cfi_endproc
 2374              	.LFE234:
 2375              		.size	lv_obj_set_style_color_filter_dsc, .-lv_obj_set_style_color_filter_dsc
 2376 000e C046     		.section	.text.lv_obj_set_style_color_filter_opa,"ax",%progbits
 2377              		.align	2
 2378              		.global	lv_obj_set_style_color_filter_opa
 2379              		.code	16
 2380              		.thumb_func
 2381              		.type	lv_obj_set_style_color_filter_opa, %function
 2382              	lv_obj_set_style_color_filter_opa:
 2383              	.LFB235:
 610:..\..\..\arduinoLCD\test\Pain Drain\libraries\lvgl\src\core/lv_obj_style_gen.c **** 
 611:..\..\..\arduinoLCD\test\Pain Drain\libraries\lvgl\src\core/lv_obj_style_gen.c **** void lv_obj_set_style_color_filter_opa(struct _lv_obj_t * obj, lv_opa_t value, lv_style_selector_t 
 612:..\..\..\arduinoLCD\test\Pain Drain\libraries\lvgl\src\core/lv_obj_style_gen.c **** {
 2384              		.loc 1 612 0
 2385              		.cfi_startproc
 2386              		@ args = 0, pretend = 0, frame = 0
 2387              		@ frame_needed = 0, uses_anonymous_args = 0
 2388              	.LVL294:
 2389 0000 10B5     		push	{r4, lr}
 2390              		.cfi_def_cfa_offset 8
 2391              		.cfi_offset 4, -8
 2392              		.cfi_offset 14, -4
 2393 0002 1300     		movs	r3, r2
 613:..\..\..\arduinoLCD\test\Pain Drain\libraries\lvgl\src\core/lv_obj_style_gen.c ****     lv_style_value_t v = {
 614:..\..\..\arduinoLCD\test\Pain Drain\libraries\lvgl\src\core/lv_obj_style_gen.c ****         .num = (int32_t)value
 615:..\..\..\arduinoLCD\test\Pain Drain\libraries\lvgl\src\core/lv_obj_style_gen.c ****     };
 616:..\..\..\arduinoLCD\test\Pain Drain\libraries\lvgl\src\core/lv_obj_style_gen.c ****     lv_obj_set_local_style_prop(obj, LV_STYLE_COLOR_FILTER_OPA, v, selector);
 2394              		.loc 1 616 0
 2395 0004 0A00     		movs	r2, r1
 2396              	.LVL295:
 2397 0006 6221     		movs	r1, #98
 2398              	.LVL296:
 2399 0008 FFF7FEFF 		bl	lv_obj_set_local_style_prop
 2400              	.LVL297:
 617:..\..\..\arduinoLCD\test\Pain Drain\libraries\lvgl\src\core/lv_obj_style_gen.c **** }
 2401              		.loc 1 617 0
 2402              		@ sp needed
 2403 000c 10BD     		pop	{r4, pc}
 2404              		.cfi_endproc
ARM GAS  C:\Users\haske\AppData\Local\Temp\cc0eRFVw.s 			page 54


 2405              	.LFE235:
 2406              		.size	lv_obj_set_style_color_filter_opa, .-lv_obj_set_style_color_filter_opa
 2407 000e C046     		.section	.text.lv_obj_set_style_anim,"ax",%progbits
 2408              		.align	2
 2409              		.global	lv_obj_set_style_anim
 2410              		.code	16
 2411              		.thumb_func
 2412              		.type	lv_obj_set_style_anim, %function
 2413              	lv_obj_set_style_anim:
 2414              	.LFB236:
 618:..\..\..\arduinoLCD\test\Pain Drain\libraries\lvgl\src\core/lv_obj_style_gen.c **** 
 619:..\..\..\arduinoLCD\test\Pain Drain\libraries\lvgl\src\core/lv_obj_style_gen.c **** void lv_obj_set_style_anim(struct _lv_obj_t * obj, const lv_anim_t * value, lv_style_selector_t sel
 620:..\..\..\arduinoLCD\test\Pain Drain\libraries\lvgl\src\core/lv_obj_style_gen.c **** {
 2415              		.loc 1 620 0
 2416              		.cfi_startproc
 2417              		@ args = 0, pretend = 0, frame = 0
 2418              		@ frame_needed = 0, uses_anonymous_args = 0
 2419              	.LVL298:
 2420 0000 10B5     		push	{r4, lr}
 2421              		.cfi_def_cfa_offset 8
 2422              		.cfi_offset 4, -8
 2423              		.cfi_offset 14, -4
 2424 0002 1300     		movs	r3, r2
 621:..\..\..\arduinoLCD\test\Pain Drain\libraries\lvgl\src\core/lv_obj_style_gen.c ****     lv_style_value_t v = {
 622:..\..\..\arduinoLCD\test\Pain Drain\libraries\lvgl\src\core/lv_obj_style_gen.c ****         .ptr = value
 623:..\..\..\arduinoLCD\test\Pain Drain\libraries\lvgl\src\core/lv_obj_style_gen.c ****     };
 624:..\..\..\arduinoLCD\test\Pain Drain\libraries\lvgl\src\core/lv_obj_style_gen.c ****     lv_obj_set_local_style_prop(obj, LV_STYLE_ANIM, v, selector);
 2425              		.loc 1 624 0
 2426 0004 0A00     		movs	r2, r1
 2427              	.LVL299:
 2428 0006 6321     		movs	r1, #99
 2429              	.LVL300:
 2430 0008 FFF7FEFF 		bl	lv_obj_set_local_style_prop
 2431              	.LVL301:
 625:..\..\..\arduinoLCD\test\Pain Drain\libraries\lvgl\src\core/lv_obj_style_gen.c **** }
 2432              		.loc 1 625 0
 2433              		@ sp needed
 2434 000c 10BD     		pop	{r4, pc}
 2435              		.cfi_endproc
 2436              	.LFE236:
 2437              		.size	lv_obj_set_style_anim, .-lv_obj_set_style_anim
 2438 000e C046     		.section	.text.lv_obj_set_style_anim_time,"ax",%progbits
 2439              		.align	2
 2440              		.global	lv_obj_set_style_anim_time
 2441              		.code	16
 2442              		.thumb_func
 2443              		.type	lv_obj_set_style_anim_time, %function
 2444              	lv_obj_set_style_anim_time:
 2445              	.LFB237:
 626:..\..\..\arduinoLCD\test\Pain Drain\libraries\lvgl\src\core/lv_obj_style_gen.c **** 
 627:..\..\..\arduinoLCD\test\Pain Drain\libraries\lvgl\src\core/lv_obj_style_gen.c **** void lv_obj_set_style_anim_time(struct _lv_obj_t * obj, uint32_t value, lv_style_selector_t selecto
 628:..\..\..\arduinoLCD\test\Pain Drain\libraries\lvgl\src\core/lv_obj_style_gen.c **** {
 2446              		.loc 1 628 0
 2447              		.cfi_startproc
 2448              		@ args = 0, pretend = 0, frame = 0
 2449              		@ frame_needed = 0, uses_anonymous_args = 0
 2450              	.LVL302:
ARM GAS  C:\Users\haske\AppData\Local\Temp\cc0eRFVw.s 			page 55


 2451 0000 10B5     		push	{r4, lr}
 2452              		.cfi_def_cfa_offset 8
 2453              		.cfi_offset 4, -8
 2454              		.cfi_offset 14, -4
 2455 0002 1300     		movs	r3, r2
 629:..\..\..\arduinoLCD\test\Pain Drain\libraries\lvgl\src\core/lv_obj_style_gen.c ****     lv_style_value_t v = {
 630:..\..\..\arduinoLCD\test\Pain Drain\libraries\lvgl\src\core/lv_obj_style_gen.c ****         .num = (int32_t)value
 631:..\..\..\arduinoLCD\test\Pain Drain\libraries\lvgl\src\core/lv_obj_style_gen.c ****     };
 632:..\..\..\arduinoLCD\test\Pain Drain\libraries\lvgl\src\core/lv_obj_style_gen.c ****     lv_obj_set_local_style_prop(obj, LV_STYLE_ANIM_TIME, v, selector);
 2456              		.loc 1 632 0
 2457 0004 0A00     		movs	r2, r1
 2458              	.LVL303:
 2459 0006 6421     		movs	r1, #100
 2460              	.LVL304:
 2461 0008 FFF7FEFF 		bl	lv_obj_set_local_style_prop
 2462              	.LVL305:
 633:..\..\..\arduinoLCD\test\Pain Drain\libraries\lvgl\src\core/lv_obj_style_gen.c **** }
 2463              		.loc 1 633 0
 2464              		@ sp needed
 2465 000c 10BD     		pop	{r4, pc}
 2466              		.cfi_endproc
 2467              	.LFE237:
 2468              		.size	lv_obj_set_style_anim_time, .-lv_obj_set_style_anim_time
 2469 000e C046     		.section	.text.lv_obj_set_style_anim_speed,"ax",%progbits
 2470              		.align	2
 2471              		.global	lv_obj_set_style_anim_speed
 2472              		.code	16
 2473              		.thumb_func
 2474              		.type	lv_obj_set_style_anim_speed, %function
 2475              	lv_obj_set_style_anim_speed:
 2476              	.LFB238:
 634:..\..\..\arduinoLCD\test\Pain Drain\libraries\lvgl\src\core/lv_obj_style_gen.c **** 
 635:..\..\..\arduinoLCD\test\Pain Drain\libraries\lvgl\src\core/lv_obj_style_gen.c **** void lv_obj_set_style_anim_speed(struct _lv_obj_t * obj, uint32_t value, lv_style_selector_t select
 636:..\..\..\arduinoLCD\test\Pain Drain\libraries\lvgl\src\core/lv_obj_style_gen.c **** {
 2477              		.loc 1 636 0
 2478              		.cfi_startproc
 2479              		@ args = 0, pretend = 0, frame = 0
 2480              		@ frame_needed = 0, uses_anonymous_args = 0
 2481              	.LVL306:
 2482 0000 10B5     		push	{r4, lr}
 2483              		.cfi_def_cfa_offset 8
 2484              		.cfi_offset 4, -8
 2485              		.cfi_offset 14, -4
 2486 0002 1300     		movs	r3, r2
 637:..\..\..\arduinoLCD\test\Pain Drain\libraries\lvgl\src\core/lv_obj_style_gen.c ****     lv_style_value_t v = {
 638:..\..\..\arduinoLCD\test\Pain Drain\libraries\lvgl\src\core/lv_obj_style_gen.c ****         .num = (int32_t)value
 639:..\..\..\arduinoLCD\test\Pain Drain\libraries\lvgl\src\core/lv_obj_style_gen.c ****     };
 640:..\..\..\arduinoLCD\test\Pain Drain\libraries\lvgl\src\core/lv_obj_style_gen.c ****     lv_obj_set_local_style_prop(obj, LV_STYLE_ANIM_SPEED, v, selector);
 2487              		.loc 1 640 0
 2488 0004 0A00     		movs	r2, r1
 2489              	.LVL307:
 2490 0006 6521     		movs	r1, #101
 2491              	.LVL308:
 2492 0008 FFF7FEFF 		bl	lv_obj_set_local_style_prop
 2493              	.LVL309:
 641:..\..\..\arduinoLCD\test\Pain Drain\libraries\lvgl\src\core/lv_obj_style_gen.c **** }
 2494              		.loc 1 641 0
ARM GAS  C:\Users\haske\AppData\Local\Temp\cc0eRFVw.s 			page 56


 2495              		@ sp needed
 2496 000c 10BD     		pop	{r4, pc}
 2497              		.cfi_endproc
 2498              	.LFE238:
 2499              		.size	lv_obj_set_style_anim_speed, .-lv_obj_set_style_anim_speed
 2500 000e C046     		.section	.text.lv_obj_set_style_transition,"ax",%progbits
 2501              		.align	2
 2502              		.global	lv_obj_set_style_transition
 2503              		.code	16
 2504              		.thumb_func
 2505              		.type	lv_obj_set_style_transition, %function
 2506              	lv_obj_set_style_transition:
 2507              	.LFB239:
 642:..\..\..\arduinoLCD\test\Pain Drain\libraries\lvgl\src\core/lv_obj_style_gen.c **** 
 643:..\..\..\arduinoLCD\test\Pain Drain\libraries\lvgl\src\core/lv_obj_style_gen.c **** void lv_obj_set_style_transition(struct _lv_obj_t * obj, const lv_style_transition_dsc_t * value, l
 644:..\..\..\arduinoLCD\test\Pain Drain\libraries\lvgl\src\core/lv_obj_style_gen.c **** {
 2508              		.loc 1 644 0
 2509              		.cfi_startproc
 2510              		@ args = 0, pretend = 0, frame = 0
 2511              		@ frame_needed = 0, uses_anonymous_args = 0
 2512              	.LVL310:
 2513 0000 10B5     		push	{r4, lr}
 2514              		.cfi_def_cfa_offset 8
 2515              		.cfi_offset 4, -8
 2516              		.cfi_offset 14, -4
 2517 0002 1300     		movs	r3, r2
 645:..\..\..\arduinoLCD\test\Pain Drain\libraries\lvgl\src\core/lv_obj_style_gen.c ****     lv_style_value_t v = {
 646:..\..\..\arduinoLCD\test\Pain Drain\libraries\lvgl\src\core/lv_obj_style_gen.c ****         .ptr = value
 647:..\..\..\arduinoLCD\test\Pain Drain\libraries\lvgl\src\core/lv_obj_style_gen.c ****     };
 648:..\..\..\arduinoLCD\test\Pain Drain\libraries\lvgl\src\core/lv_obj_style_gen.c ****     lv_obj_set_local_style_prop(obj, LV_STYLE_TRANSITION, v, selector);
 2518              		.loc 1 648 0
 2519 0004 0A00     		movs	r2, r1
 2520              	.LVL311:
 2521 0006 6621     		movs	r1, #102
 2522              	.LVL312:
 2523 0008 FFF7FEFF 		bl	lv_obj_set_local_style_prop
 2524              	.LVL313:
 649:..\..\..\arduinoLCD\test\Pain Drain\libraries\lvgl\src\core/lv_obj_style_gen.c **** }
 2525              		.loc 1 649 0
 2526              		@ sp needed
 2527 000c 10BD     		pop	{r4, pc}
 2528              		.cfi_endproc
 2529              	.LFE239:
 2530              		.size	lv_obj_set_style_transition, .-lv_obj_set_style_transition
 2531 000e C046     		.section	.text.lv_obj_set_style_blend_mode,"ax",%progbits
 2532              		.align	2
 2533              		.global	lv_obj_set_style_blend_mode
 2534              		.code	16
 2535              		.thumb_func
 2536              		.type	lv_obj_set_style_blend_mode, %function
 2537              	lv_obj_set_style_blend_mode:
 2538              	.LFB240:
 650:..\..\..\arduinoLCD\test\Pain Drain\libraries\lvgl\src\core/lv_obj_style_gen.c **** 
 651:..\..\..\arduinoLCD\test\Pain Drain\libraries\lvgl\src\core/lv_obj_style_gen.c **** void lv_obj_set_style_blend_mode(struct _lv_obj_t * obj, lv_blend_mode_t value, lv_style_selector_t
 652:..\..\..\arduinoLCD\test\Pain Drain\libraries\lvgl\src\core/lv_obj_style_gen.c **** {
 2539              		.loc 1 652 0
 2540              		.cfi_startproc
ARM GAS  C:\Users\haske\AppData\Local\Temp\cc0eRFVw.s 			page 57


 2541              		@ args = 0, pretend = 0, frame = 0
 2542              		@ frame_needed = 0, uses_anonymous_args = 0
 2543              	.LVL314:
 2544 0000 10B5     		push	{r4, lr}
 2545              		.cfi_def_cfa_offset 8
 2546              		.cfi_offset 4, -8
 2547              		.cfi_offset 14, -4
 2548 0002 1300     		movs	r3, r2
 653:..\..\..\arduinoLCD\test\Pain Drain\libraries\lvgl\src\core/lv_obj_style_gen.c ****     lv_style_value_t v = {
 654:..\..\..\arduinoLCD\test\Pain Drain\libraries\lvgl\src\core/lv_obj_style_gen.c ****         .num = (int32_t)value
 655:..\..\..\arduinoLCD\test\Pain Drain\libraries\lvgl\src\core/lv_obj_style_gen.c ****     };
 656:..\..\..\arduinoLCD\test\Pain Drain\libraries\lvgl\src\core/lv_obj_style_gen.c ****     lv_obj_set_local_style_prop(obj, LV_STYLE_BLEND_MODE, v, selector);
 2549              		.loc 1 656 0
 2550 0004 0A00     		movs	r2, r1
 2551              	.LVL315:
 2552 0006 6721     		movs	r1, #103
 2553              	.LVL316:
 2554 0008 FFF7FEFF 		bl	lv_obj_set_local_style_prop
 2555              	.LVL317:
 657:..\..\..\arduinoLCD\test\Pain Drain\libraries\lvgl\src\core/lv_obj_style_gen.c **** }
 2556              		.loc 1 657 0
 2557              		@ sp needed
 2558 000c 10BD     		pop	{r4, pc}
 2559              		.cfi_endproc
 2560              	.LFE240:
 2561              		.size	lv_obj_set_style_blend_mode, .-lv_obj_set_style_blend_mode
 2562 000e C046     		.section	.text.lv_obj_set_style_layout,"ax",%progbits
 2563              		.align	2
 2564              		.global	lv_obj_set_style_layout
 2565              		.code	16
 2566              		.thumb_func
 2567              		.type	lv_obj_set_style_layout, %function
 2568              	lv_obj_set_style_layout:
 2569              	.LFB241:
 658:..\..\..\arduinoLCD\test\Pain Drain\libraries\lvgl\src\core/lv_obj_style_gen.c **** 
 659:..\..\..\arduinoLCD\test\Pain Drain\libraries\lvgl\src\core/lv_obj_style_gen.c **** void lv_obj_set_style_layout(struct _lv_obj_t * obj, uint16_t value, lv_style_selector_t selector)
 660:..\..\..\arduinoLCD\test\Pain Drain\libraries\lvgl\src\core/lv_obj_style_gen.c **** {
 2570              		.loc 1 660 0
 2571              		.cfi_startproc
 2572              		@ args = 0, pretend = 0, frame = 0
 2573              		@ frame_needed = 0, uses_anonymous_args = 0
 2574              	.LVL318:
 2575 0000 10B5     		push	{r4, lr}
 2576              		.cfi_def_cfa_offset 8
 2577              		.cfi_offset 4, -8
 2578              		.cfi_offset 14, -4
 2579 0002 1300     		movs	r3, r2
 661:..\..\..\arduinoLCD\test\Pain Drain\libraries\lvgl\src\core/lv_obj_style_gen.c ****     lv_style_value_t v = {
 662:..\..\..\arduinoLCD\test\Pain Drain\libraries\lvgl\src\core/lv_obj_style_gen.c ****         .num = (int32_t)value
 663:..\..\..\arduinoLCD\test\Pain Drain\libraries\lvgl\src\core/lv_obj_style_gen.c ****     };
 664:..\..\..\arduinoLCD\test\Pain Drain\libraries\lvgl\src\core/lv_obj_style_gen.c ****     lv_obj_set_local_style_prop(obj, LV_STYLE_LAYOUT, v, selector);
 2580              		.loc 1 664 0
 2581 0004 0A00     		movs	r2, r1
 2582              	.LVL319:
 2583 0006 0A21     		movs	r1, #10
 2584              	.LVL320:
 2585 0008 FFF7FEFF 		bl	lv_obj_set_local_style_prop
ARM GAS  C:\Users\haske\AppData\Local\Temp\cc0eRFVw.s 			page 58


 2586              	.LVL321:
 665:..\..\..\arduinoLCD\test\Pain Drain\libraries\lvgl\src\core/lv_obj_style_gen.c **** }
 2587              		.loc 1 665 0
 2588              		@ sp needed
 2589 000c 10BD     		pop	{r4, pc}
 2590              		.cfi_endproc
 2591              	.LFE241:
 2592              		.size	lv_obj_set_style_layout, .-lv_obj_set_style_layout
 2593 000e C046     		.section	.text.lv_obj_set_style_base_dir,"ax",%progbits
 2594              		.align	2
 2595              		.global	lv_obj_set_style_base_dir
 2596              		.code	16
 2597              		.thumb_func
 2598              		.type	lv_obj_set_style_base_dir, %function
 2599              	lv_obj_set_style_base_dir:
 2600              	.LFB242:
 666:..\..\..\arduinoLCD\test\Pain Drain\libraries\lvgl\src\core/lv_obj_style_gen.c **** 
 667:..\..\..\arduinoLCD\test\Pain Drain\libraries\lvgl\src\core/lv_obj_style_gen.c **** void lv_obj_set_style_base_dir(struct _lv_obj_t * obj, lv_base_dir_t value, lv_style_selector_t sel
 668:..\..\..\arduinoLCD\test\Pain Drain\libraries\lvgl\src\core/lv_obj_style_gen.c **** {
 2601              		.loc 1 668 0
 2602              		.cfi_startproc
 2603              		@ args = 0, pretend = 0, frame = 0
 2604              		@ frame_needed = 0, uses_anonymous_args = 0
 2605              	.LVL322:
 2606 0000 10B5     		push	{r4, lr}
 2607              		.cfi_def_cfa_offset 8
 2608              		.cfi_offset 4, -8
 2609              		.cfi_offset 14, -4
 2610 0002 1300     		movs	r3, r2
 669:..\..\..\arduinoLCD\test\Pain Drain\libraries\lvgl\src\core/lv_obj_style_gen.c ****     lv_style_value_t v = {
 670:..\..\..\arduinoLCD\test\Pain Drain\libraries\lvgl\src\core/lv_obj_style_gen.c ****         .num = (int32_t)value
 671:..\..\..\arduinoLCD\test\Pain Drain\libraries\lvgl\src\core/lv_obj_style_gen.c ****     };
 672:..\..\..\arduinoLCD\test\Pain Drain\libraries\lvgl\src\core/lv_obj_style_gen.c ****     lv_obj_set_local_style_prop(obj, LV_STYLE_BASE_DIR, v, selector);
 2611              		.loc 1 672 0
 2612 0004 0A00     		movs	r2, r1
 2613              	.LVL323:
 2614 0006 1621     		movs	r1, #22
 2615              	.LVL324:
 2616 0008 FFF7FEFF 		bl	lv_obj_set_local_style_prop
 2617              	.LVL325:
 673:..\..\..\arduinoLCD\test\Pain Drain\libraries\lvgl\src\core/lv_obj_style_gen.c **** }
 2618              		.loc 1 673 0
 2619              		@ sp needed
 2620 000c 10BD     		pop	{r4, pc}
 2621              		.cfi_endproc
 2622              	.LFE242:
 2623              		.size	lv_obj_set_style_base_dir, .-lv_obj_set_style_base_dir
 2624 000e C046     		.text
 2625              	.Letext0:
 2626              		.file 2 "c:\\program files (x86)\\cypress\\psoc creator\\4.4\\psoc creator\\import\\gnu\\arm\\5.4.
 2627              		.file 3 "c:\\program files (x86)\\cypress\\psoc creator\\4.4\\psoc creator\\import\\gnu\\arm\\5.4.
 2628              		.file 4 "c:\\projects\\paindrain\\arduinolcd\\test\\pain drain\\libraries\\lvgl\\src\\misc\\lv_are
 2629              		.file 5 "c:\\projects\\paindrain\\arduinolcd\\test\\pain drain\\libraries\\lvgl\\src\\font\\lv_fon
 2630              		.file 6 "..\\..\\..\\arduinoLCD\\test\\Pain Drain\\libraries\\lvgl\\src\\core\\../misc/lv_color.h"
 2631              		.file 7 "..\\..\\..\\arduinoLCD\\test\\Pain Drain\\libraries\\lvgl\\src\\core\\../misc/lv_anim.h"
 2632              		.file 8 "..\\..\\..\\arduinoLCD\\test\\Pain Drain\\libraries\\lvgl\\src\\core\\../misc/lv_txt.h"
 2633              		.file 9 "..\\..\\..\\arduinoLCD\\test\\Pain Drain\\libraries\\lvgl\\src\\core\\../misc/lv_bidi.h"
ARM GAS  C:\Users\haske\AppData\Local\Temp\cc0eRFVw.s 			page 59


 2634              		.file 10 "..\\..\\..\\arduinoLCD\\test\\Pain Drain\\libraries\\lvgl\\src\\core\\../misc/lv_style.h
 2635              		.file 11 "..\\..\\..\\arduinoLCD\\test\\Pain Drain\\libraries\\lvgl\\src\\core\\lv_obj.h"
 2636              		.file 12 "c:\\projects\\paindrain\\arduinolcd\\test\\pain drain\\libraries\\lvgl\\src\\misc\\lv_ll
 2637              		.file 13 "..\\..\\..\\arduinoLCD\\test\\Pain Drain\\libraries\\lvgl\\src\\core\\lv_group.h"
 2638              		.file 14 "..\\..\\..\\arduinoLCD\\test\\Pain Drain\\libraries\\lvgl\\src\\core\\lv_obj_scroll.h"
 2639              		.file 15 "..\\..\\..\\arduinoLCD\\test\\Pain Drain\\libraries\\lvgl\\src\\core\\lv_obj_style.h"
 2640              		.file 16 "..\\..\\..\\arduinoLCD\\test\\Pain Drain\\libraries\\lvgl\\src\\core\\lv_obj_class.h"
 2641              		.file 17 "..\\..\\..\\arduinoLCD\\test\\Pain Drain\\libraries\\lvgl\\src\\core\\lv_event.h"
 2642              		.section	.debug_info,"",%progbits
 2643              	.Ldebug_info0:
 2644 0000 25340000 		.4byte	0x3425
 2645 0004 0400     		.2byte	0x4
 2646 0006 00000000 		.4byte	.Ldebug_abbrev0
 2647 000a 04       		.byte	0x4
 2648 000b 01       		.uleb128 0x1
 2649 000c 60080000 		.4byte	.LASF412
 2650 0010 0C       		.byte	0xc
 2651 0011 B51B0000 		.4byte	.LASF413
 2652 0015 401A0000 		.4byte	.LASF414
 2653 0019 00000000 		.4byte	.Ldebug_ranges0+0
 2654 001d 00000000 		.4byte	0
 2655 0021 00000000 		.4byte	.Ldebug_line0
 2656 0025 02       		.uleb128 0x2
 2657 0026 94150000 		.4byte	.LASF0
 2658 002a 02       		.byte	0x2
 2659 002b 1B       		.byte	0x1b
 2660 002c 30000000 		.4byte	0x30
 2661 0030 03       		.uleb128 0x3
 2662 0031 01       		.byte	0x1
 2663 0032 06       		.byte	0x6
 2664 0033 55060000 		.4byte	.LASF2
 2665 0037 02       		.uleb128 0x2
 2666 0038 D5030000 		.4byte	.LASF1
 2667 003c 02       		.byte	0x2
 2668 003d 1D       		.byte	0x1d
 2669 003e 42000000 		.4byte	0x42
 2670 0042 03       		.uleb128 0x3
 2671 0043 01       		.byte	0x1
 2672 0044 08       		.byte	0x8
 2673 0045 0F070000 		.4byte	.LASF3
 2674 0049 02       		.uleb128 0x2
 2675 004a 51170000 		.4byte	.LASF4
 2676 004e 02       		.byte	0x2
 2677 004f 29       		.byte	0x29
 2678 0050 54000000 		.4byte	0x54
 2679 0054 03       		.uleb128 0x3
 2680 0055 02       		.byte	0x2
 2681 0056 05       		.byte	0x5
 2682 0057 87180000 		.4byte	.LASF5
 2683 005b 02       		.uleb128 0x2
 2684 005c 2A0A0000 		.4byte	.LASF6
 2685 0060 02       		.byte	0x2
 2686 0061 2B       		.byte	0x2b
 2687 0062 66000000 		.4byte	0x66
 2688 0066 03       		.uleb128 0x3
 2689 0067 02       		.byte	0x2
 2690 0068 07       		.byte	0x7
ARM GAS  C:\Users\haske\AppData\Local\Temp\cc0eRFVw.s 			page 60


 2691 0069 221C0000 		.4byte	.LASF7
 2692 006d 02       		.uleb128 0x2
 2693 006e F51C0000 		.4byte	.LASF8
 2694 0072 02       		.byte	0x2
 2695 0073 3F       		.byte	0x3f
 2696 0074 78000000 		.4byte	0x78
 2697 0078 03       		.uleb128 0x3
 2698 0079 04       		.byte	0x4
 2699 007a 05       		.byte	0x5
 2700 007b C7040000 		.4byte	.LASF9
 2701 007f 02       		.uleb128 0x2
 2702 0080 77100000 		.4byte	.LASF10
 2703 0084 02       		.byte	0x2
 2704 0085 41       		.byte	0x41
 2705 0086 8A000000 		.4byte	0x8a
 2706 008a 03       		.uleb128 0x3
 2707 008b 04       		.byte	0x4
 2708 008c 07       		.byte	0x7
 2709 008d 720E0000 		.4byte	.LASF11
 2710 0091 03       		.uleb128 0x3
 2711 0092 08       		.byte	0x8
 2712 0093 05       		.byte	0x5
 2713 0094 B7100000 		.4byte	.LASF12
 2714 0098 03       		.uleb128 0x3
 2715 0099 08       		.byte	0x8
 2716 009a 07       		.byte	0x7
 2717 009b CF150000 		.4byte	.LASF13
 2718 009f 04       		.uleb128 0x4
 2719 00a0 04       		.byte	0x4
 2720 00a1 05       		.byte	0x5
 2721 00a2 696E7400 		.ascii	"int\000"
 2722 00a6 03       		.uleb128 0x3
 2723 00a7 04       		.byte	0x4
 2724 00a8 07       		.byte	0x7
 2725 00a9 1E120000 		.4byte	.LASF14
 2726 00ad 02       		.uleb128 0x2
 2727 00ae 09000000 		.4byte	.LASF15
 2728 00b2 03       		.byte	0x3
 2729 00b3 14       		.byte	0x14
 2730 00b4 25000000 		.4byte	0x25
 2731 00b8 02       		.uleb128 0x2
 2732 00b9 61060000 		.4byte	.LASF16
 2733 00bd 03       		.byte	0x3
 2734 00be 18       		.byte	0x18
 2735 00bf 37000000 		.4byte	0x37
 2736 00c3 02       		.uleb128 0x2
 2737 00c4 0B190000 		.4byte	.LASF17
 2738 00c8 03       		.byte	0x3
 2739 00c9 20       		.byte	0x20
 2740 00ca 49000000 		.4byte	0x49
 2741 00ce 02       		.uleb128 0x2
 2742 00cf 4E160000 		.4byte	.LASF18
 2743 00d3 03       		.byte	0x3
 2744 00d4 24       		.byte	0x24
 2745 00d5 5B000000 		.4byte	0x5b
 2746 00d9 02       		.uleb128 0x2
 2747 00da 2B010000 		.4byte	.LASF19
ARM GAS  C:\Users\haske\AppData\Local\Temp\cc0eRFVw.s 			page 61


 2748 00de 03       		.byte	0x3
 2749 00df 2C       		.byte	0x2c
 2750 00e0 6D000000 		.4byte	0x6d
 2751 00e4 02       		.uleb128 0x2
 2752 00e5 3A1B0000 		.4byte	.LASF20
 2753 00e9 03       		.byte	0x3
 2754 00ea 30       		.byte	0x30
 2755 00eb 7F000000 		.4byte	0x7f
 2756 00ef 03       		.uleb128 0x3
 2757 00f0 08       		.byte	0x8
 2758 00f1 04       		.byte	0x4
 2759 00f2 BB140000 		.4byte	.LASF21
 2760 00f6 02       		.uleb128 0x2
 2761 00f7 5D1C0000 		.4byte	.LASF22
 2762 00fb 04       		.byte	0x4
 2763 00fc 1B       		.byte	0x1b
 2764 00fd C3000000 		.4byte	0xc3
 2765 0101 05       		.uleb128 0x5
 2766 0102 04       		.byte	0x4
 2767 0103 04       		.byte	0x4
 2768 0104 25       		.byte	0x25
 2769 0105 1E010000 		.4byte	0x11e
 2770 0109 06       		.uleb128 0x6
 2771 010a 7800     		.ascii	"x\000"
 2772 010c 04       		.byte	0x4
 2773 010d 26       		.byte	0x26
 2774 010e F6000000 		.4byte	0xf6
 2775 0112 00       		.byte	0
 2776 0113 06       		.uleb128 0x6
 2777 0114 7900     		.ascii	"y\000"
 2778 0116 04       		.byte	0x4
 2779 0117 27       		.byte	0x27
 2780 0118 F6000000 		.4byte	0xf6
 2781 011c 02       		.byte	0x2
 2782 011d 00       		.byte	0
 2783 011e 02       		.uleb128 0x2
 2784 011f 7D010000 		.4byte	.LASF23
 2785 0123 04       		.byte	0x4
 2786 0124 28       		.byte	0x28
 2787 0125 01010000 		.4byte	0x101
 2788 0129 05       		.uleb128 0x5
 2789 012a 08       		.byte	0x8
 2790 012b 04       		.byte	0x4
 2791 012c 2B       		.byte	0x2b
 2792 012d 5E010000 		.4byte	0x15e
 2793 0131 06       		.uleb128 0x6
 2794 0132 783100   		.ascii	"x1\000"
 2795 0135 04       		.byte	0x4
 2796 0136 2C       		.byte	0x2c
 2797 0137 F6000000 		.4byte	0xf6
 2798 013b 00       		.byte	0
 2799 013c 06       		.uleb128 0x6
 2800 013d 793100   		.ascii	"y1\000"
 2801 0140 04       		.byte	0x4
 2802 0141 2D       		.byte	0x2d
 2803 0142 F6000000 		.4byte	0xf6
 2804 0146 02       		.byte	0x2
ARM GAS  C:\Users\haske\AppData\Local\Temp\cc0eRFVw.s 			page 62


 2805 0147 06       		.uleb128 0x6
 2806 0148 783200   		.ascii	"x2\000"
 2807 014b 04       		.byte	0x4
 2808 014c 2E       		.byte	0x2e
 2809 014d F6000000 		.4byte	0xf6
 2810 0151 04       		.byte	0x4
 2811 0152 06       		.uleb128 0x6
 2812 0153 793200   		.ascii	"y2\000"
 2813 0156 04       		.byte	0x4
 2814 0157 2F       		.byte	0x2f
 2815 0158 F6000000 		.4byte	0xf6
 2816 015c 06       		.byte	0x6
 2817 015d 00       		.byte	0
 2818 015e 02       		.uleb128 0x2
 2819 015f 130C0000 		.4byte	.LASF24
 2820 0163 04       		.byte	0x4
 2821 0164 30       		.byte	0x30
 2822 0165 29010000 		.4byte	0x129
 2823 0169 02       		.uleb128 0x2
 2824 016a B0010000 		.4byte	.LASF25
 2825 016e 04       		.byte	0x4
 2826 016f 4C       		.byte	0x4c
 2827 0170 B8000000 		.4byte	0xb8
 2828 0174 02       		.uleb128 0x2
 2829 0175 A90A0000 		.4byte	.LASF26
 2830 0179 04       		.byte	0x4
 2831 017a 59       		.byte	0x59
 2832 017b B8000000 		.4byte	0xb8
 2833 017f 05       		.uleb128 0x5
 2834 0180 10       		.byte	0x10
 2835 0181 05       		.byte	0x5
 2836 0182 29       		.byte	0x29
 2837 0183 EE010000 		.4byte	0x1ee
 2838 0187 07       		.uleb128 0x7
 2839 0188 350F0000 		.4byte	.LASF27
 2840 018c 05       		.byte	0x5
 2841 018d 2B       		.byte	0x2b
 2842 018e 76020000 		.4byte	0x276
 2843 0192 00       		.byte	0
 2844 0193 07       		.uleb128 0x7
 2845 0194 2A000000 		.4byte	.LASF28
 2846 0198 05       		.byte	0x5
 2847 0199 2C       		.byte	0x2c
 2848 019a CE000000 		.4byte	0xce
 2849 019e 04       		.byte	0x4
 2850 019f 07       		.uleb128 0x7
 2851 01a0 81180000 		.4byte	.LASF29
 2852 01a4 05       		.byte	0x5
 2853 01a5 2D       		.byte	0x2d
 2854 01a6 CE000000 		.4byte	0xce
 2855 01aa 06       		.byte	0x6
 2856 01ab 07       		.uleb128 0x7
 2857 01ac 5B180000 		.4byte	.LASF30
 2858 01b0 05       		.byte	0x5
 2859 01b1 2E       		.byte	0x2e
 2860 01b2 CE000000 		.4byte	0xce
 2861 01b6 08       		.byte	0x8
ARM GAS  C:\Users\haske\AppData\Local\Temp\cc0eRFVw.s 			page 63


 2862 01b7 07       		.uleb128 0x7
 2863 01b8 DF070000 		.4byte	.LASF31
 2864 01bc 05       		.byte	0x5
 2865 01bd 2F       		.byte	0x2f
 2866 01be C3000000 		.4byte	0xc3
 2867 01c2 0A       		.byte	0xa
 2868 01c3 07       		.uleb128 0x7
 2869 01c4 E5070000 		.4byte	.LASF32
 2870 01c8 05       		.byte	0x5
 2871 01c9 30       		.byte	0x30
 2872 01ca C3000000 		.4byte	0xc3
 2873 01ce 0C       		.byte	0xc
 2874 01cf 08       		.uleb128 0x8
 2875 01d0 62707000 		.ascii	"bpp\000"
 2876 01d4 05       		.byte	0x5
 2877 01d5 31       		.byte	0x31
 2878 01d6 B8000000 		.4byte	0xb8
 2879 01da 01       		.byte	0x1
 2880 01db 04       		.byte	0x4
 2881 01dc 04       		.byte	0x4
 2882 01dd 0E       		.byte	0xe
 2883 01de 09       		.uleb128 0x9
 2884 01df FD1D0000 		.4byte	.LASF33
 2885 01e3 05       		.byte	0x5
 2886 01e4 32       		.byte	0x32
 2887 01e5 B8000000 		.4byte	0xb8
 2888 01e9 01       		.byte	0x1
 2889 01ea 01       		.byte	0x1
 2890 01eb 03       		.byte	0x3
 2891 01ec 0E       		.byte	0xe
 2892 01ed 00       		.byte	0
 2893 01ee 0A       		.uleb128 0xa
 2894 01ef 6C100000 		.4byte	.LASF55
 2895 01f3 1C       		.byte	0x1c
 2896 01f4 05       		.byte	0x5
 2897 01f5 40       		.byte	0x40
 2898 01f6 76020000 		.4byte	0x276
 2899 01fa 07       		.uleb128 0x7
 2900 01fb E71C0000 		.4byte	.LASF34
 2901 01ff 05       		.byte	0x5
 2902 0200 42       		.byte	0x42
 2903 0201 B7020000 		.4byte	0x2b7
 2904 0205 00       		.byte	0
 2905 0206 07       		.uleb128 0x7
 2906 0207 B9060000 		.4byte	.LASF35
 2907 020b 05       		.byte	0x5
 2908 020c 45       		.byte	0x45
 2909 020d DC020000 		.4byte	0x2dc
 2910 0211 04       		.byte	0x4
 2911 0212 07       		.uleb128 0x7
 2912 0213 9C010000 		.4byte	.LASF36
 2913 0217 05       		.byte	0x5
 2914 0218 48       		.byte	0x48
 2915 0219 F6000000 		.4byte	0xf6
 2916 021d 08       		.byte	0x8
 2917 021e 07       		.uleb128 0x7
 2918 021f 91180000 		.4byte	.LASF37
ARM GAS  C:\Users\haske\AppData\Local\Temp\cc0eRFVw.s 			page 64


 2919 0223 05       		.byte	0x5
 2920 0224 49       		.byte	0x49
 2921 0225 F6000000 		.4byte	0xf6
 2922 0229 0A       		.byte	0xa
 2923 022a 09       		.uleb128 0x9
 2924 022b F4140000 		.4byte	.LASF38
 2925 022f 05       		.byte	0x5
 2926 0230 4A       		.byte	0x4a
 2927 0231 B8000000 		.4byte	0xb8
 2928 0235 01       		.byte	0x1
 2929 0236 02       		.byte	0x2
 2930 0237 06       		.byte	0x6
 2931 0238 0C       		.byte	0xc
 2932 0239 07       		.uleb128 0x7
 2933 023a 4E090000 		.4byte	.LASF39
 2934 023e 05       		.byte	0x5
 2935 023f 4C       		.byte	0x4c
 2936 0240 AD000000 		.4byte	0xad
 2937 0244 0D       		.byte	0xd
 2938 0245 07       		.uleb128 0x7
 2939 0246 81110000 		.4byte	.LASF40
 2940 024a 05       		.byte	0x5
 2941 024b 4D       		.byte	0x4d
 2942 024c AD000000 		.4byte	0xad
 2943 0250 0E       		.byte	0xe
 2944 0251 06       		.uleb128 0x6
 2945 0252 64736300 		.ascii	"dsc\000"
 2946 0256 05       		.byte	0x5
 2947 0257 4F       		.byte	0x4f
 2948 0258 E2020000 		.4byte	0x2e2
 2949 025c 10       		.byte	0x10
 2950 025d 07       		.uleb128 0x7
 2951 025e A80B0000 		.4byte	.LASF41
 2952 0262 05       		.byte	0x5
 2953 0263 50       		.byte	0x50
 2954 0264 76020000 		.4byte	0x276
 2955 0268 14       		.byte	0x14
 2956 0269 07       		.uleb128 0x7
 2957 026a 951C0000 		.4byte	.LASF42
 2958 026e 05       		.byte	0x5
 2959 026f 52       		.byte	0x52
 2960 0270 E9020000 		.4byte	0x2e9
 2961 0274 18       		.byte	0x18
 2962 0275 00       		.byte	0
 2963 0276 0B       		.uleb128 0xb
 2964 0277 04       		.byte	0x4
 2965 0278 7C020000 		.4byte	0x27c
 2966 027c 0C       		.uleb128 0xc
 2967 027d EE010000 		.4byte	0x1ee
 2968 0281 02       		.uleb128 0x2
 2969 0282 6F130000 		.4byte	.LASF43
 2970 0286 05       		.byte	0x5
 2971 0287 33       		.byte	0x33
 2972 0288 7F010000 		.4byte	0x17f
 2973 028c 0D       		.uleb128 0xd
 2974 028d AA020000 		.4byte	0x2aa
 2975 0291 AA020000 		.4byte	0x2aa
ARM GAS  C:\Users\haske\AppData\Local\Temp\cc0eRFVw.s 			page 65


 2976 0295 0E       		.uleb128 0xe
 2977 0296 76020000 		.4byte	0x276
 2978 029a 0E       		.uleb128 0xe
 2979 029b B1020000 		.4byte	0x2b1
 2980 029f 0E       		.uleb128 0xe
 2981 02a0 E4000000 		.4byte	0xe4
 2982 02a4 0E       		.uleb128 0xe
 2983 02a5 E4000000 		.4byte	0xe4
 2984 02a9 00       		.byte	0
 2985 02aa 03       		.uleb128 0x3
 2986 02ab 01       		.byte	0x1
 2987 02ac 02       		.byte	0x2
 2988 02ad 02080000 		.4byte	.LASF44
 2989 02b1 0B       		.uleb128 0xb
 2990 02b2 04       		.byte	0x4
 2991 02b3 81020000 		.4byte	0x281
 2992 02b7 0B       		.uleb128 0xb
 2993 02b8 04       		.byte	0x4
 2994 02b9 8C020000 		.4byte	0x28c
 2995 02bd 0D       		.uleb128 0xd
 2996 02be D1020000 		.4byte	0x2d1
 2997 02c2 D1020000 		.4byte	0x2d1
 2998 02c6 0E       		.uleb128 0xe
 2999 02c7 76020000 		.4byte	0x276
 3000 02cb 0E       		.uleb128 0xe
 3001 02cc E4000000 		.4byte	0xe4
 3002 02d0 00       		.byte	0
 3003 02d1 0B       		.uleb128 0xb
 3004 02d2 04       		.byte	0x4
 3005 02d3 D7020000 		.4byte	0x2d7
 3006 02d7 0C       		.uleb128 0xc
 3007 02d8 B8000000 		.4byte	0xb8
 3008 02dc 0B       		.uleb128 0xb
 3009 02dd 04       		.byte	0x4
 3010 02de BD020000 		.4byte	0x2bd
 3011 02e2 0B       		.uleb128 0xb
 3012 02e3 04       		.byte	0x4
 3013 02e4 E8020000 		.4byte	0x2e8
 3014 02e8 0F       		.uleb128 0xf
 3015 02e9 10       		.uleb128 0x10
 3016 02ea 04       		.byte	0x4
 3017 02eb 02       		.uleb128 0x2
 3018 02ec 8C1B0000 		.4byte	.LASF45
 3019 02f0 05       		.byte	0x5
 3020 02f1 54       		.byte	0x54
 3021 02f2 EE010000 		.4byte	0x1ee
 3022 02f6 03       		.uleb128 0x3
 3023 02f7 04       		.byte	0x4
 3024 02f8 07       		.byte	0x7
 3025 02f9 30000000 		.4byte	.LASF46
 3026 02fd 03       		.uleb128 0x3
 3027 02fe 01       		.byte	0x1
 3028 02ff 08       		.byte	0x8
 3029 0300 16090000 		.4byte	.LASF47
 3030 0304 05       		.uleb128 0x5
 3031 0305 02       		.byte	0x2
 3032 0306 06       		.byte	0x6
ARM GAS  C:\Users\haske\AppData\Local\Temp\cc0eRFVw.s 			page 66


 3033 0307 D1       		.byte	0xd1
 3034 0308 3A030000 		.4byte	0x33a
 3035 030c 09       		.uleb128 0x9
 3036 030d EF060000 		.4byte	.LASF48
 3037 0311 06       		.byte	0x6
 3038 0312 D3       		.byte	0xd3
 3039 0313 CE000000 		.4byte	0xce
 3040 0317 02       		.byte	0x2
 3041 0318 05       		.byte	0x5
 3042 0319 0B       		.byte	0xb
 3043 031a 00       		.byte	0
 3044 031b 09       		.uleb128 0x9
 3045 031c 861B0000 		.4byte	.LASF49
 3046 0320 06       		.byte	0x6
 3047 0321 D4       		.byte	0xd4
 3048 0322 CE000000 		.4byte	0xce
 3049 0326 02       		.byte	0x2
 3050 0327 06       		.byte	0x6
 3051 0328 05       		.byte	0x5
 3052 0329 00       		.byte	0
 3053 032a 08       		.uleb128 0x8
 3054 032b 72656400 		.ascii	"red\000"
 3055 032f 06       		.byte	0x6
 3056 0330 D5       		.byte	0xd5
 3057 0331 CE000000 		.4byte	0xce
 3058 0335 02       		.byte	0x2
 3059 0336 05       		.byte	0x5
 3060 0337 00       		.byte	0
 3061 0338 00       		.byte	0
 3062 0339 00       		.byte	0
 3063 033a 11       		.uleb128 0x11
 3064 033b 02       		.byte	0x2
 3065 033c 06       		.byte	0x6
 3066 033d D0       		.byte	0xd0
 3067 033e 58030000 		.4byte	0x358
 3068 0342 12       		.uleb128 0x12
 3069 0343 636800   		.ascii	"ch\000"
 3070 0346 06       		.byte	0x6
 3071 0347 DC       		.byte	0xdc
 3072 0348 04030000 		.4byte	0x304
 3073 034c 13       		.uleb128 0x13
 3074 034d 84170000 		.4byte	.LASF50
 3075 0351 06       		.byte	0x6
 3076 0352 DD       		.byte	0xdd
 3077 0353 CE000000 		.4byte	0xce
 3078 0357 00       		.byte	0
 3079 0358 02       		.uleb128 0x2
 3080 0359 74180000 		.4byte	.LASF51
 3081 035d 06       		.byte	0x6
 3082 035e DE       		.byte	0xde
 3083 035f 3A030000 		.4byte	0x33a
 3084 0363 02       		.uleb128 0x2
 3085 0364 82160000 		.4byte	.LASF52
 3086 0368 06       		.byte	0x6
 3087 0369 EB       		.byte	0xeb
 3088 036a 58030000 		.4byte	0x358
 3089 036e 02       		.uleb128 0x2
ARM GAS  C:\Users\haske\AppData\Local\Temp\cc0eRFVw.s 			page 67


 3090 036f 11010000 		.4byte	.LASF53
 3091 0373 06       		.byte	0x6
 3092 0374 F5       		.byte	0xf5
 3093 0375 B8000000 		.4byte	0xb8
 3094 0379 02       		.uleb128 0x2
 3095 037a C20B0000 		.4byte	.LASF54
 3096 037e 06       		.byte	0x6
 3097 037f FA       		.byte	0xfa
 3098 0380 84030000 		.4byte	0x384
 3099 0384 0B       		.uleb128 0xb
 3100 0385 04       		.byte	0x4
 3101 0386 8A030000 		.4byte	0x38a
 3102 038a 0D       		.uleb128 0xd
 3103 038b 63030000 		.4byte	0x363
 3104 038f A3030000 		.4byte	0x3a3
 3105 0393 0E       		.uleb128 0xe
 3106 0394 A3030000 		.4byte	0x3a3
 3107 0398 0E       		.uleb128 0xe
 3108 0399 63030000 		.4byte	0x363
 3109 039d 0E       		.uleb128 0xe
 3110 039e 6E030000 		.4byte	0x36e
 3111 03a2 00       		.byte	0
 3112 03a3 0B       		.uleb128 0xb
 3113 03a4 04       		.byte	0x4
 3114 03a5 CE030000 		.4byte	0x3ce
 3115 03a9 0A       		.uleb128 0xa
 3116 03aa 3A020000 		.4byte	.LASF56
 3117 03ae 08       		.byte	0x8
 3118 03af 06       		.byte	0x6
 3119 03b0 FC       		.byte	0xfc
 3120 03b1 CE030000 		.4byte	0x3ce
 3121 03b5 07       		.uleb128 0x7
 3122 03b6 BC000000 		.4byte	.LASF57
 3123 03ba 06       		.byte	0x6
 3124 03bb FD       		.byte	0xfd
 3125 03bc 79030000 		.4byte	0x379
 3126 03c0 00       		.byte	0
 3127 03c1 07       		.uleb128 0x7
 3128 03c2 951C0000 		.4byte	.LASF42
 3129 03c6 06       		.byte	0x6
 3130 03c7 FE       		.byte	0xfe
 3131 03c8 E9020000 		.4byte	0x2e9
 3132 03cc 04       		.byte	0x4
 3133 03cd 00       		.byte	0
 3134 03ce 0C       		.uleb128 0xc
 3135 03cf A9030000 		.4byte	0x3a9
 3136 03d3 02       		.uleb128 0x2
 3137 03d4 6E170000 		.4byte	.LASF58
 3138 03d8 06       		.byte	0x6
 3139 03d9 FF       		.byte	0xff
 3140 03da A9030000 		.4byte	0x3a9
 3141 03de 02       		.uleb128 0x2
 3142 03df 2B120000 		.4byte	.LASF59
 3143 03e3 07       		.byte	0x7
 3144 03e4 2E       		.byte	0x2e
 3145 03e5 E9030000 		.4byte	0x3e9
 3146 03e9 0B       		.uleb128 0xb
ARM GAS  C:\Users\haske\AppData\Local\Temp\cc0eRFVw.s 			page 68


 3147 03ea 04       		.byte	0x4
 3148 03eb EF030000 		.4byte	0x3ef
 3149 03ef 0D       		.uleb128 0xd
 3150 03f0 D9000000 		.4byte	0xd9
 3151 03f4 FE030000 		.4byte	0x3fe
 3152 03f8 0E       		.uleb128 0xe
 3153 03f9 FE030000 		.4byte	0x3fe
 3154 03fd 00       		.byte	0
 3155 03fe 0B       		.uleb128 0xb
 3156 03ff 04       		.byte	0x4
 3157 0400 19050000 		.4byte	0x519
 3158 0404 0A       		.uleb128 0xa
 3159 0405 A91D0000 		.4byte	.LASF60
 3160 0409 44       		.byte	0x44
 3161 040a 07       		.byte	0x7
 3162 040b 49       		.byte	0x49
 3163 040c 19050000 		.4byte	0x519
 3164 0410 06       		.uleb128 0x6
 3165 0411 76617200 		.ascii	"var\000"
 3166 0415 07       		.byte	0x7
 3167 0416 4A       		.byte	0x4a
 3168 0417 E9020000 		.4byte	0x2e9
 3169 041b 00       		.byte	0
 3170 041c 07       		.uleb128 0x7
 3171 041d F8160000 		.4byte	.LASF61
 3172 0421 07       		.byte	0x7
 3173 0422 4B       		.byte	0x4b
 3174 0423 1E050000 		.4byte	0x51e
 3175 0427 04       		.byte	0x4
 3176 0428 07       		.uleb128 0x7
 3177 0429 CA060000 		.4byte	.LASF62
 3178 042d 07       		.byte	0x7
 3179 042e 4C       		.byte	0x4c
 3180 042f 61050000 		.4byte	0x561
 3181 0433 08       		.byte	0x8
 3182 0434 07       		.uleb128 0x7
 3183 0435 5E0B0000 		.4byte	.LASF63
 3184 0439 07       		.byte	0x7
 3185 043a 4D       		.byte	0x4d
 3186 043b 45050000 		.4byte	0x545
 3187 043f 0C       		.byte	0xc
 3188 0440 07       		.uleb128 0x7
 3189 0441 1F1D0000 		.4byte	.LASF64
 3190 0445 07       		.byte	0x7
 3191 0446 4E       		.byte	0x4e
 3192 0447 8C050000 		.4byte	0x58c
 3193 044b 10       		.byte	0x10
 3194 044c 07       		.uleb128 0x7
 3195 044d 7A140000 		.4byte	.LASF65
 3196 0451 07       		.byte	0x7
 3197 0452 4F       		.byte	0x4f
 3198 0453 6C050000 		.4byte	0x56c
 3199 0457 14       		.byte	0x14
 3200 0458 07       		.uleb128 0x7
 3201 0459 951C0000 		.4byte	.LASF42
 3202 045d 07       		.byte	0x7
 3203 045e 51       		.byte	0x51
ARM GAS  C:\Users\haske\AppData\Local\Temp\cc0eRFVw.s 			page 69


 3204 045f E9020000 		.4byte	0x2e9
 3205 0463 18       		.byte	0x18
 3206 0464 07       		.uleb128 0x7
 3207 0465 A8010000 		.4byte	.LASF66
 3208 0469 07       		.byte	0x7
 3209 046a 53       		.byte	0x53
 3210 046b DE030000 		.4byte	0x3de
 3211 046f 1C       		.byte	0x1c
 3212 0470 07       		.uleb128 0x7
 3213 0471 F4060000 		.4byte	.LASF67
 3214 0475 07       		.byte	0x7
 3215 0476 54       		.byte	0x54
 3216 0477 D9000000 		.4byte	0xd9
 3217 047b 20       		.byte	0x20
 3218 047c 07       		.uleb128 0x7
 3219 047d 10120000 		.4byte	.LASF68
 3220 0481 07       		.byte	0x7
 3221 0482 55       		.byte	0x55
 3222 0483 D9000000 		.4byte	0xd9
 3223 0487 24       		.byte	0x24
 3224 0488 07       		.uleb128 0x7
 3225 0489 57160000 		.4byte	.LASF69
 3226 048d 07       		.byte	0x7
 3227 048e 56       		.byte	0x56
 3228 048f D9000000 		.4byte	0xd9
 3229 0493 28       		.byte	0x28
 3230 0494 07       		.uleb128 0x7
 3231 0495 8F170000 		.4byte	.LASF70
 3232 0499 07       		.byte	0x7
 3233 049a 57       		.byte	0x57
 3234 049b D9000000 		.4byte	0xd9
 3235 049f 2C       		.byte	0x2c
 3236 04a0 07       		.uleb128 0x7
 3237 04a1 7F1A0000 		.4byte	.LASF71
 3238 04a5 07       		.byte	0x7
 3239 04a6 58       		.byte	0x58
 3240 04a7 D9000000 		.4byte	0xd9
 3241 04ab 30       		.byte	0x30
 3242 04ac 07       		.uleb128 0x7
 3243 04ad 750D0000 		.4byte	.LASF72
 3244 04b1 07       		.byte	0x7
 3245 04b2 59       		.byte	0x59
 3246 04b3 E4000000 		.4byte	0xe4
 3247 04b7 34       		.byte	0x34
 3248 04b8 07       		.uleb128 0x7
 3249 04b9 27170000 		.4byte	.LASF73
 3250 04bd 07       		.byte	0x7
 3251 04be 5A       		.byte	0x5a
 3252 04bf E4000000 		.4byte	0xe4
 3253 04c3 38       		.byte	0x38
 3254 04c4 07       		.uleb128 0x7
 3255 04c5 2A140000 		.4byte	.LASF74
 3256 04c9 07       		.byte	0x7
 3257 04ca 5B       		.byte	0x5b
 3258 04cb E4000000 		.4byte	0xe4
 3259 04cf 3C       		.byte	0x3c
 3260 04d0 07       		.uleb128 0x7
ARM GAS  C:\Users\haske\AppData\Local\Temp\cc0eRFVw.s 			page 70


 3261 04d1 16150000 		.4byte	.LASF75
 3262 04d5 07       		.byte	0x7
 3263 04d6 5C       		.byte	0x5c
 3264 04d7 CE000000 		.4byte	0xce
 3265 04db 40       		.byte	0x40
 3266 04dc 09       		.uleb128 0x9
 3267 04dd FF050000 		.4byte	.LASF76
 3268 04e1 07       		.byte	0x7
 3269 04e2 5D       		.byte	0x5d
 3270 04e3 B8000000 		.4byte	0xb8
 3271 04e7 01       		.byte	0x1
 3272 04e8 01       		.byte	0x1
 3273 04e9 07       		.byte	0x7
 3274 04ea 42       		.byte	0x42
 3275 04eb 09       		.uleb128 0x9
 3276 04ec B31C0000 		.4byte	.LASF77
 3277 04f0 07       		.byte	0x7
 3278 04f1 60       		.byte	0x60
 3279 04f2 B8000000 		.4byte	0xb8
 3280 04f6 01       		.byte	0x1
 3281 04f7 01       		.byte	0x1
 3282 04f8 06       		.byte	0x6
 3283 04f9 42       		.byte	0x42
 3284 04fa 09       		.uleb128 0x9
 3285 04fb 57040000 		.4byte	.LASF78
 3286 04ff 07       		.byte	0x7
 3287 0500 61       		.byte	0x61
 3288 0501 B8000000 		.4byte	0xb8
 3289 0505 01       		.byte	0x1
 3290 0506 01       		.byte	0x1
 3291 0507 05       		.byte	0x5
 3292 0508 42       		.byte	0x42
 3293 0509 09       		.uleb128 0x9
 3294 050a 860F0000 		.4byte	.LASF79
 3295 050e 07       		.byte	0x7
 3296 050f 62       		.byte	0x62
 3297 0510 B8000000 		.4byte	0xb8
 3298 0514 01       		.byte	0x1
 3299 0515 01       		.byte	0x1
 3300 0516 04       		.byte	0x4
 3301 0517 42       		.byte	0x42
 3302 0518 00       		.byte	0
 3303 0519 0C       		.uleb128 0xc
 3304 051a 04040000 		.4byte	0x404
 3305 051e 02       		.uleb128 0x2
 3306 051f 1B090000 		.4byte	.LASF80
 3307 0523 07       		.byte	0x7
 3308 0524 36       		.byte	0x36
 3309 0525 29050000 		.4byte	0x529
 3310 0529 0B       		.uleb128 0xb
 3311 052a 04       		.byte	0x4
 3312 052b 2F050000 		.4byte	0x52f
 3313 052f 14       		.uleb128 0x14
 3314 0530 3F050000 		.4byte	0x53f
 3315 0534 0E       		.uleb128 0xe
 3316 0535 E9020000 		.4byte	0x2e9
 3317 0539 0E       		.uleb128 0xe
ARM GAS  C:\Users\haske\AppData\Local\Temp\cc0eRFVw.s 			page 71


 3318 053a D9000000 		.4byte	0xd9
 3319 053e 00       		.byte	0
 3320 053f 0B       		.uleb128 0xb
 3321 0540 04       		.byte	0x4
 3322 0541 04040000 		.4byte	0x404
 3323 0545 02       		.uleb128 0x2
 3324 0546 2B0D0000 		.4byte	.LASF81
 3325 054a 07       		.byte	0x7
 3326 054b 3D       		.byte	0x3d
 3327 054c 50050000 		.4byte	0x550
 3328 0550 0B       		.uleb128 0xb
 3329 0551 04       		.byte	0x4
 3330 0552 56050000 		.4byte	0x556
 3331 0556 14       		.uleb128 0x14
 3332 0557 61050000 		.4byte	0x561
 3333 055b 0E       		.uleb128 0xe
 3334 055c 3F050000 		.4byte	0x53f
 3335 0560 00       		.byte	0
 3336 0561 02       		.uleb128 0x2
 3337 0562 61180000 		.4byte	.LASF82
 3338 0566 07       		.byte	0x7
 3339 0567 40       		.byte	0x40
 3340 0568 50050000 		.4byte	0x550
 3341 056c 02       		.uleb128 0x2
 3342 056d D1010000 		.4byte	.LASF83
 3343 0571 07       		.byte	0x7
 3344 0572 43       		.byte	0x43
 3345 0573 77050000 		.4byte	0x577
 3346 0577 0B       		.uleb128 0xb
 3347 0578 04       		.byte	0x4
 3348 0579 7D050000 		.4byte	0x57d
 3349 057d 0D       		.uleb128 0xd
 3350 057e D9000000 		.4byte	0xd9
 3351 0582 8C050000 		.4byte	0x58c
 3352 0586 0E       		.uleb128 0xe
 3353 0587 3F050000 		.4byte	0x53f
 3354 058b 00       		.byte	0
 3355 058c 02       		.uleb128 0x2
 3356 058d 3D120000 		.4byte	.LASF84
 3357 0591 07       		.byte	0x7
 3358 0592 46       		.byte	0x46
 3359 0593 50050000 		.4byte	0x550
 3360 0597 02       		.uleb128 0x2
 3361 0598 680E0000 		.4byte	.LASF85
 3362 059c 07       		.byte	0x7
 3363 059d 63       		.byte	0x63
 3364 059e 04040000 		.4byte	0x404
 3365 05a2 02       		.uleb128 0x2
 3366 05a3 55110000 		.4byte	.LASF86
 3367 05a7 08       		.byte	0x8
 3368 05a8 42       		.byte	0x42
 3369 05a9 B8000000 		.4byte	0xb8
 3370 05ad 02       		.uleb128 0x2
 3371 05ae EB070000 		.4byte	.LASF87
 3372 05b2 09       		.byte	0x9
 3373 05b3 2A       		.byte	0x2a
 3374 05b4 B8000000 		.4byte	0xb8
ARM GAS  C:\Users\haske\AppData\Local\Temp\cc0eRFVw.s 			page 72


 3375 05b8 02       		.uleb128 0x2
 3376 05b9 160E0000 		.4byte	.LASF88
 3377 05bd 0A       		.byte	0xa
 3378 05be 5E       		.byte	0x5e
 3379 05bf B8000000 		.4byte	0xb8
 3380 05c3 02       		.uleb128 0x2
 3381 05c4 9B100000 		.4byte	.LASF89
 3382 05c8 0A       		.byte	0xa
 3383 05c9 6A       		.byte	0x6a
 3384 05ca B8000000 		.4byte	0xb8
 3385 05ce 02       		.uleb128 0x2
 3386 05cf DA170000 		.4byte	.LASF90
 3387 05d3 0A       		.byte	0xa
 3388 05d4 79       		.byte	0x79
 3389 05d5 B8000000 		.4byte	0xb8
 3390 05d9 02       		.uleb128 0x2
 3391 05da 2A1D0000 		.4byte	.LASF91
 3392 05de 0A       		.byte	0xa
 3393 05df 84       		.byte	0x84
 3394 05e0 B8000000 		.4byte	0xb8
 3395 05e4 02       		.uleb128 0x2
 3396 05e5 CD140000 		.4byte	.LASF92
 3397 05e9 0A       		.byte	0xa
 3398 05ea 90       		.byte	0x90
 3399 05eb B8000000 		.4byte	0xb8
 3400 05ef 05       		.uleb128 0x5
 3401 05f0 04       		.byte	0x4
 3402 05f1 0A       		.byte	0xa
 3403 05f2 95       		.byte	0x95
 3404 05f3 10060000 		.4byte	0x610
 3405 05f7 07       		.uleb128 0x7
 3406 05f8 89170000 		.4byte	.LASF93
 3407 05fc 0A       		.byte	0xa
 3408 05fd 96       		.byte	0x96
 3409 05fe 63030000 		.4byte	0x363
 3410 0602 00       		.byte	0
 3411 0603 07       		.uleb128 0x7
 3412 0604 EB170000 		.4byte	.LASF94
 3413 0608 0A       		.byte	0xa
 3414 0609 97       		.byte	0x97
 3415 060a B8000000 		.4byte	0xb8
 3416 060e 02       		.byte	0x2
 3417 060f 00       		.byte	0
 3418 0610 02       		.uleb128 0x2
 3419 0611 B11A0000 		.4byte	.LASF95
 3420 0615 0A       		.byte	0xa
 3421 0616 98       		.byte	0x98
 3422 0617 EF050000 		.4byte	0x5ef
 3423 061b 05       		.uleb128 0x5
 3424 061c 0A       		.byte	0xa
 3425 061d 0A       		.byte	0xa
 3426 061e 9B       		.byte	0x9b
 3427 061f 5A060000 		.4byte	0x65a
 3428 0623 07       		.uleb128 0x7
 3429 0624 94170000 		.4byte	.LASF96
 3430 0628 0A       		.byte	0xa
 3431 0629 9C       		.byte	0x9c
ARM GAS  C:\Users\haske\AppData\Local\Temp\cc0eRFVw.s 			page 73


 3432 062a 5A060000 		.4byte	0x65a
 3433 062e 00       		.byte	0
 3434 062f 07       		.uleb128 0x7
 3435 0630 1E0A0000 		.4byte	.LASF97
 3436 0634 0A       		.byte	0xa
 3437 0635 9D       		.byte	0x9d
 3438 0636 B8000000 		.4byte	0xb8
 3439 063a 08       		.byte	0x8
 3440 063b 08       		.uleb128 0x8
 3441 063c 64697200 		.ascii	"dir\000"
 3442 0640 0A       		.byte	0xa
 3443 0641 9E       		.byte	0x9e
 3444 0642 D9050000 		.4byte	0x5d9
 3445 0646 01       		.byte	0x1
 3446 0647 03       		.byte	0x3
 3447 0648 05       		.byte	0x5
 3448 0649 09       		.byte	0x9
 3449 064a 09       		.uleb128 0x9
 3450 064b AE1B0000 		.4byte	.LASF98
 3451 064f 0A       		.byte	0xa
 3452 0650 A0       		.byte	0xa0
 3453 0651 E4050000 		.4byte	0x5e4
 3454 0655 01       		.byte	0x1
 3455 0656 03       		.byte	0x3
 3456 0657 02       		.byte	0x2
 3457 0658 09       		.byte	0x9
 3458 0659 00       		.byte	0
 3459 065a 15       		.uleb128 0x15
 3460 065b 10060000 		.4byte	0x610
 3461 065f 6A060000 		.4byte	0x66a
 3462 0663 16       		.uleb128 0x16
 3463 0664 F6020000 		.4byte	0x2f6
 3464 0668 01       		.byte	0x1
 3465 0669 00       		.byte	0
 3466 066a 02       		.uleb128 0x2
 3467 066b B91D0000 		.4byte	.LASF99
 3468 066f 0A       		.byte	0xa
 3469 0670 A2       		.byte	0xa2
 3470 0671 1B060000 		.4byte	0x61b
 3471 0675 11       		.uleb128 0x11
 3472 0676 04       		.byte	0x4
 3473 0677 0A       		.byte	0xa
 3474 0678 A7       		.byte	0xa7
 3475 0679 9F060000 		.4byte	0x69f
 3476 067d 12       		.uleb128 0x12
 3477 067e 6E756D00 		.ascii	"num\000"
 3478 0682 0A       		.byte	0xa
 3479 0683 A8       		.byte	0xa8
 3480 0684 D9000000 		.4byte	0xd9
 3481 0688 12       		.uleb128 0x12
 3482 0689 70747200 		.ascii	"ptr\000"
 3483 068d 0A       		.byte	0xa
 3484 068e A9       		.byte	0xa9
 3485 068f E2020000 		.4byte	0x2e2
 3486 0693 13       		.uleb128 0x13
 3487 0694 89170000 		.4byte	.LASF93
 3488 0698 0A       		.byte	0xa
ARM GAS  C:\Users\haske\AppData\Local\Temp\cc0eRFVw.s 			page 74


 3489 0699 AA       		.byte	0xaa
 3490 069a 63030000 		.4byte	0x363
 3491 069e 00       		.byte	0
 3492 069f 02       		.uleb128 0x2
 3493 06a0 52120000 		.4byte	.LASF100
 3494 06a4 0A       		.byte	0xa
 3495 06a5 AB       		.byte	0xab
 3496 06a6 75060000 		.4byte	0x675
 3497 06aa 17       		.uleb128 0x17
 3498 06ab 02       		.byte	0x2
 3499 06ac 66000000 		.4byte	0x66
 3500 06b0 0A       		.byte	0xa
 3501 06b1 B2       		.byte	0xb2
 3502 06b2 CF080000 		.4byte	0x8cf
 3503 06b6 18       		.uleb128 0x18
 3504 06b7 A10C0000 		.4byte	.LASF101
 3505 06bb 00       		.byte	0
 3506 06bc 18       		.uleb128 0x18
 3507 06bd C0160000 		.4byte	.LASF102
 3508 06c1 01       		.byte	0x1
 3509 06c2 18       		.uleb128 0x18
 3510 06c3 CF160000 		.4byte	.LASF103
 3511 06c7 02       		.byte	0x2
 3512 06c8 18       		.uleb128 0x18
 3513 06c9 44040000 		.4byte	.LASF104
 3514 06cd 03       		.byte	0x3
 3515 06ce 18       		.uleb128 0x18
 3516 06cf 6E020000 		.4byte	.LASF105
 3517 06d3 04       		.byte	0x4
 3518 06d4 18       		.uleb128 0x18
 3519 06d5 881A0000 		.4byte	.LASF106
 3520 06d9 05       		.byte	0x5
 3521 06da 18       		.uleb128 0x18
 3522 06db 30180000 		.4byte	.LASF107
 3523 06df 06       		.byte	0x6
 3524 06e0 18       		.uleb128 0x18
 3525 06e1 1E100000 		.4byte	.LASF108
 3526 06e5 07       		.byte	0x7
 3527 06e6 18       		.uleb128 0x18
 3528 06e7 C41A0000 		.4byte	.LASF109
 3529 06eb 08       		.byte	0x8
 3530 06ec 18       		.uleb128 0x18
 3531 06ed 00070000 		.4byte	.LASF110
 3532 06f1 09       		.byte	0x9
 3533 06f2 18       		.uleb128 0x18
 3534 06f3 5F130000 		.4byte	.LASF111
 3535 06f7 0A       		.byte	0xa
 3536 06f8 18       		.uleb128 0x18
 3537 06f9 05040000 		.4byte	.LASF112
 3538 06fd 0B       		.byte	0xb
 3539 06fe 18       		.uleb128 0x18
 3540 06ff BF190000 		.4byte	.LASF113
 3541 0703 10       		.byte	0x10
 3542 0704 18       		.uleb128 0x18
 3543 0705 840D0000 		.4byte	.LASF114
 3544 0709 11       		.byte	0x11
 3545 070a 18       		.uleb128 0x18
ARM GAS  C:\Users\haske\AppData\Local\Temp\cc0eRFVw.s 			page 75


 3546 070b B50F0000 		.4byte	.LASF115
 3547 070f 12       		.byte	0x12
 3548 0710 18       		.uleb128 0x18
 3549 0711 A7040000 		.4byte	.LASF116
 3550 0715 13       		.byte	0x13
 3551 0716 18       		.uleb128 0x18
 3552 0717 750F0000 		.4byte	.LASF117
 3553 071b 14       		.byte	0x14
 3554 071c 18       		.uleb128 0x18
 3555 071d A0030000 		.4byte	.LASF118
 3556 0721 15       		.byte	0x15
 3557 0722 18       		.uleb128 0x18
 3558 0723 ED090000 		.4byte	.LASF119
 3559 0727 16       		.byte	0x16
 3560 0728 18       		.uleb128 0x18
 3561 0729 D4130000 		.4byte	.LASF120
 3562 072d 17       		.byte	0x17
 3563 072e 18       		.uleb128 0x18
 3564 072f 6A0A0000 		.4byte	.LASF121
 3565 0733 20       		.byte	0x20
 3566 0734 18       		.uleb128 0x18
 3567 0735 E20D0000 		.4byte	.LASF122
 3568 0739 21       		.byte	0x21
 3569 073a 18       		.uleb128 0x18
 3570 073b 44180000 		.4byte	.LASF123
 3571 073f 22       		.byte	0x22
 3572 0740 18       		.uleb128 0x18
 3573 0741 A4060000 		.4byte	.LASF124
 3574 0745 23       		.byte	0x23
 3575 0746 18       		.uleb128 0x18
 3576 0747 A3020000 		.4byte	.LASF125
 3577 074b 24       		.byte	0x24
 3578 074c 18       		.uleb128 0x18
 3579 074d FF150000 		.4byte	.LASF126
 3580 0751 25       		.byte	0x25
 3581 0752 18       		.uleb128 0x18
 3582 0753 DA1D0000 		.4byte	.LASF127
 3583 0757 26       		.byte	0x26
 3584 0758 18       		.uleb128 0x18
 3585 0759 BD030000 		.4byte	.LASF128
 3586 075d 27       		.byte	0x27
 3587 075e 18       		.uleb128 0x18
 3588 075f 13170000 		.4byte	.LASF129
 3589 0763 28       		.byte	0x28
 3590 0764 18       		.uleb128 0x18
 3591 0765 EC190000 		.4byte	.LASF130
 3592 0769 29       		.byte	0x29
 3593 076a 18       		.uleb128 0x18
 3594 076b 61040000 		.4byte	.LASF131
 3595 076f 2A       		.byte	0x2a
 3596 0770 18       		.uleb128 0x18
 3597 0771 35050000 		.4byte	.LASF132
 3598 0775 2B       		.byte	0x2b
 3599 0776 18       		.uleb128 0x18
 3600 0777 7D050000 		.4byte	.LASF133
 3601 077b 2C       		.byte	0x2c
 3602 077c 18       		.uleb128 0x18
ARM GAS  C:\Users\haske\AppData\Local\Temp\cc0eRFVw.s 			page 76


 3603 077d 62150000 		.4byte	.LASF134
 3604 0781 30       		.byte	0x30
 3605 0782 18       		.uleb128 0x18
 3606 0783 B5050000 		.4byte	.LASF135
 3607 0787 31       		.byte	0x31
 3608 0788 18       		.uleb128 0x18
 3609 0789 50030000 		.4byte	.LASF136
 3610 078d 32       		.byte	0x32
 3611 078e 18       		.uleb128 0x18
 3612 078f 15160000 		.4byte	.LASF137
 3613 0793 33       		.byte	0x33
 3614 0794 18       		.uleb128 0x18
 3615 0795 9C1A0000 		.4byte	.LASF138
 3616 0799 34       		.byte	0x34
 3617 079a 18       		.uleb128 0x18
 3618 079b 1D0C0000 		.4byte	.LASF139
 3619 079f 35       		.byte	0x35
 3620 07a0 18       		.uleb128 0x18
 3621 07a1 7E1C0000 		.4byte	.LASF140
 3622 07a5 36       		.byte	0x36
 3623 07a6 18       		.uleb128 0x18
 3624 07a7 090A0000 		.4byte	.LASF141
 3625 07ab 37       		.byte	0x37
 3626 07ac 18       		.uleb128 0x18
 3627 07ad 0C1E0000 		.4byte	.LASF142
 3628 07b1 38       		.byte	0x38
 3629 07b2 18       		.uleb128 0x18
 3630 07b3 AC130000 		.4byte	.LASF143
 3631 07b7 40       		.byte	0x40
 3632 07b8 18       		.uleb128 0x18
 3633 07b9 E2160000 		.4byte	.LASF144
 3634 07bd 41       		.byte	0x41
 3635 07be 18       		.uleb128 0x18
 3636 07bf C70F0000 		.4byte	.LASF145
 3637 07c3 42       		.byte	0x42
 3638 07c4 18       		.uleb128 0x18
 3639 07c5 D01C0000 		.4byte	.LASF146
 3640 07c9 43       		.byte	0x43
 3641 07ca 18       		.uleb128 0x18
 3642 07cb 2A060000 		.4byte	.LASF147
 3643 07cf 44       		.byte	0x44
 3644 07d0 18       		.uleb128 0x18
 3645 07d1 79040000 		.4byte	.LASF148
 3646 07d5 45       		.byte	0x45
 3647 07d6 18       		.uleb128 0x18
 3648 07d7 300E0000 		.4byte	.LASF149
 3649 07db 46       		.byte	0x46
 3650 07dc 18       		.uleb128 0x18
 3651 07dd B7070000 		.4byte	.LASF150
 3652 07e1 47       		.byte	0x47
 3653 07e2 18       		.uleb128 0x18
 3654 07e3 7C0A0000 		.4byte	.LASF151
 3655 07e7 48       		.byte	0x48
 3656 07e8 18       		.uleb128 0x18
 3657 07e9 001A0000 		.4byte	.LASF152
 3658 07ed 49       		.byte	0x49
 3659 07ee 18       		.uleb128 0x18
ARM GAS  C:\Users\haske\AppData\Local\Temp\cc0eRFVw.s 			page 77


 3660 07ef 450B0000 		.4byte	.LASF153
 3661 07f3 4A       		.byte	0x4a
 3662 07f4 18       		.uleb128 0x18
 3663 07f5 A5000000 		.4byte	.LASF154
 3664 07f9 4B       		.byte	0x4b
 3665 07fa 18       		.uleb128 0x18
 3666 07fb CF1A0000 		.4byte	.LASF155
 3667 07ff 4C       		.byte	0x4c
 3668 0800 18       		.uleb128 0x18
 3669 0801 4A0F0000 		.4byte	.LASF156
 3670 0805 4D       		.byte	0x4d
 3671 0806 18       		.uleb128 0x18
 3672 0807 F20D0000 		.4byte	.LASF157
 3673 080b 4E       		.byte	0x4e
 3674 080c 18       		.uleb128 0x18
 3675 080d CC070000 		.4byte	.LASF158
 3676 0811 50       		.byte	0x50
 3677 0812 18       		.uleb128 0x18
 3678 0813 A9110000 		.4byte	.LASF159
 3679 0817 51       		.byte	0x51
 3680 0818 18       		.uleb128 0x18
 3681 0819 E9180000 		.4byte	.LASF160
 3682 081d 52       		.byte	0x52
 3683 081e 18       		.uleb128 0x18
 3684 081f 1A010000 		.4byte	.LASF161
 3685 0823 53       		.byte	0x53
 3686 0824 18       		.uleb128 0x18
 3687 0825 35170000 		.4byte	.LASF162
 3688 0829 54       		.byte	0x54
 3689 082a 18       		.uleb128 0x18
 3690 082b E4110000 		.4byte	.LASF163
 3691 082f 55       		.byte	0x55
 3692 0830 18       		.uleb128 0x18
 3693 0831 AF0E0000 		.4byte	.LASF164
 3694 0835 56       		.byte	0x56
 3695 0836 18       		.uleb128 0x18
 3696 0837 5B170000 		.4byte	.LASF165
 3697 083b 57       		.byte	0x57
 3698 083c 18       		.uleb128 0x18
 3699 083d 2B1E0000 		.4byte	.LASF166
 3700 0841 58       		.byte	0x58
 3701 0842 18       		.uleb128 0x18
 3702 0843 B30C0000 		.4byte	.LASF167
 3703 0847 59       		.byte	0x59
 3704 0848 18       		.uleb128 0x18
 3705 0849 95110000 		.4byte	.LASF168
 3706 084d 5A       		.byte	0x5a
 3707 084e 18       		.uleb128 0x18
 3708 084f 29100000 		.4byte	.LASF169
 3709 0853 5B       		.byte	0x5b
 3710 0854 18       		.uleb128 0x18
 3711 0855 10000000 		.4byte	.LASF170
 3712 0859 60       		.byte	0x60
 3713 085a 18       		.uleb128 0x18
 3714 085b 3B110000 		.4byte	.LASF171
 3715 085f 61       		.byte	0x61
 3716 0860 18       		.uleb128 0x18
ARM GAS  C:\Users\haske\AppData\Local\Temp\cc0eRFVw.s 			page 78


 3717 0861 A1140000 		.4byte	.LASF172
 3718 0865 62       		.byte	0x62
 3719 0866 18       		.uleb128 0x18
 3720 0867 10100000 		.4byte	.LASF173
 3721 086b 63       		.byte	0x63
 3722 086c 18       		.uleb128 0x18
 3723 086d 620D0000 		.4byte	.LASF174
 3724 0871 64       		.byte	0x64
 3725 0872 18       		.uleb128 0x18
 3726 0873 FF0B0000 		.4byte	.LASF175
 3727 0877 65       		.byte	0x65
 3728 0878 18       		.uleb128 0x18
 3729 0879 D0040000 		.4byte	.LASF176
 3730 087d 66       		.byte	0x66
 3731 087e 18       		.uleb128 0x18
 3732 087f 950A0000 		.4byte	.LASF177
 3733 0883 67       		.byte	0x67
 3734 0884 18       		.uleb128 0x18
 3735 0885 670B0000 		.4byte	.LASF178
 3736 0889 68       		.byte	0x68
 3737 088a 18       		.uleb128 0x18
 3738 088b 8D040000 		.4byte	.LASF179
 3739 088f 69       		.byte	0x69
 3740 0890 18       		.uleb128 0x18
 3741 0891 17080000 		.4byte	.LASF180
 3742 0895 6A       		.byte	0x6a
 3743 0896 18       		.uleb128 0x18
 3744 0897 2C080000 		.4byte	.LASF181
 3745 089b 6B       		.byte	0x6b
 3746 089c 18       		.uleb128 0x18
 3747 089d 410E0000 		.4byte	.LASF182
 3748 08a1 6C       		.byte	0x6c
 3749 08a2 18       		.uleb128 0x18
 3750 08a3 22110000 		.4byte	.LASF183
 3751 08a7 6D       		.byte	0x6d
 3752 08a8 18       		.uleb128 0x18
 3753 08a9 62070000 		.4byte	.LASF184
 3754 08ad 6E       		.byte	0x6e
 3755 08ae 18       		.uleb128 0x18
 3756 08af 7D070000 		.4byte	.LASF185
 3757 08b3 6F       		.byte	0x6f
 3758 08b4 18       		.uleb128 0x18
 3759 08b5 F2020000 		.4byte	.LASF186
 3760 08b9 6F       		.byte	0x6f
 3761 08ba 18       		.uleb128 0x18
 3762 08bb 8A190000 		.4byte	.LASF187
 3763 08bf 70       		.byte	0x70
 3764 08c0 19       		.uleb128 0x19
 3765 08c1 C5100000 		.4byte	.LASF188
 3766 08c5 FFFF     		.2byte	0xffff
 3767 08c7 19       		.uleb128 0x19
 3768 08c8 99120000 		.4byte	.LASF189
 3769 08cc FFFF     		.2byte	0xffff
 3770 08ce 00       		.byte	0
 3771 08cf 1A       		.uleb128 0x1a
 3772 08d0 880B0000 		.4byte	.LASF190
 3773 08d4 0A       		.byte	0xa
ARM GAS  C:\Users\haske\AppData\Local\Temp\cc0eRFVw.s 			page 79


 3774 08d5 1C01     		.2byte	0x11c
 3775 08d7 AA060000 		.4byte	0x6aa
 3776 08db 1B       		.uleb128 0x1b
 3777 08dc 14       		.byte	0x14
 3778 08dd 0A       		.byte	0xa
 3779 08de 2901     		.2byte	0x129
 3780 08e0 26090000 		.4byte	0x926
 3781 08e4 1C       		.uleb128 0x1c
 3782 08e5 431B0000 		.4byte	.LASF191
 3783 08e9 0A       		.byte	0xa
 3784 08ea 2A01     		.2byte	0x12a
 3785 08ec 26090000 		.4byte	0x926
 3786 08f0 00       		.byte	0
 3787 08f1 1C       		.uleb128 0x1c
 3788 08f2 951C0000 		.4byte	.LASF42
 3789 08f6 0A       		.byte	0xa
 3790 08f7 2C01     		.2byte	0x12c
 3791 08f9 E9020000 		.4byte	0x2e9
 3792 08fd 04       		.byte	0x4
 3793 08fe 1C       		.uleb128 0x1c
 3794 08ff 980B0000 		.4byte	.LASF192
 3795 0903 0A       		.byte	0xa
 3796 0904 2E01     		.2byte	0x12e
 3797 0906 DE030000 		.4byte	0x3de
 3798 090a 08       		.byte	0x8
 3799 090b 1C       		.uleb128 0x1c
 3800 090c 8F170000 		.4byte	.LASF70
 3801 0910 0A       		.byte	0xa
 3802 0911 2F01     		.2byte	0x12f
 3803 0913 E4000000 		.4byte	0xe4
 3804 0917 0C       		.byte	0xc
 3805 0918 1C       		.uleb128 0x1c
 3806 0919 83030000 		.4byte	.LASF193
 3807 091d 0A       		.byte	0xa
 3808 091e 3001     		.2byte	0x130
 3809 0920 E4000000 		.4byte	0xe4
 3810 0924 10       		.byte	0x10
 3811 0925 00       		.byte	0
 3812 0926 0B       		.uleb128 0xb
 3813 0927 04       		.byte	0x4
 3814 0928 2C090000 		.4byte	0x92c
 3815 092c 0C       		.uleb128 0xc
 3816 092d CF080000 		.4byte	0x8cf
 3817 0931 1A       		.uleb128 0x1a
 3818 0932 87140000 		.4byte	.LASF194
 3819 0936 0A       		.byte	0xa
 3820 0937 3101     		.2byte	0x131
 3821 0939 DB080000 		.4byte	0x8db
 3822 093d 1B       		.uleb128 0x1b
 3823 093e 08       		.byte	0x8
 3824 093f 0A       		.byte	0xa
 3825 0940 3601     		.2byte	0x136
 3826 0942 61090000 		.4byte	0x961
 3827 0946 1C       		.uleb128 0x1c
 3828 0947 C90A0000 		.4byte	.LASF195
 3829 094b 0A       		.byte	0xa
 3830 094c 3701     		.2byte	0x137
ARM GAS  C:\Users\haske\AppData\Local\Temp\cc0eRFVw.s 			page 80


 3831 094e CF080000 		.4byte	0x8cf
 3832 0952 00       		.byte	0
 3833 0953 1C       		.uleb128 0x1c
 3834 0954 02090000 		.4byte	.LASF196
 3835 0958 0A       		.byte	0xa
 3836 0959 3801     		.2byte	0x138
 3837 095b 9F060000 		.4byte	0x69f
 3838 095f 04       		.byte	0x4
 3839 0960 00       		.byte	0
 3840 0961 1A       		.uleb128 0x1a
 3841 0962 DB0C0000 		.4byte	.LASF197
 3842 0966 0A       		.byte	0xa
 3843 0967 3901     		.2byte	0x139
 3844 0969 3D090000 		.4byte	0x93d
 3845 096d 1D       		.uleb128 0x1d
 3846 096e 04       		.byte	0x4
 3847 096f 0A       		.byte	0xa
 3848 0970 4601     		.2byte	0x146
 3849 0972 9B090000 		.4byte	0x99b
 3850 0976 1E       		.uleb128 0x1e
 3851 0977 4A170000 		.4byte	.LASF198
 3852 097b 0A       		.byte	0xa
 3853 097c 4701     		.2byte	0x147
 3854 097e 9F060000 		.4byte	0x69f
 3855 0982 1E       		.uleb128 0x1e
 3856 0983 B10B0000 		.4byte	.LASF199
 3857 0987 0A       		.byte	0xa
 3858 0988 4801     		.2byte	0x148
 3859 098a 9B090000 		.4byte	0x99b
 3860 098e 1E       		.uleb128 0x1e
 3861 098f CE0A0000 		.4byte	.LASF200
 3862 0993 0A       		.byte	0xa
 3863 0994 4901     		.2byte	0x149
 3864 0996 A1090000 		.4byte	0x9a1
 3865 099a 00       		.byte	0
 3866 099b 0B       		.uleb128 0xb
 3867 099c 04       		.byte	0x4
 3868 099d B8000000 		.4byte	0xb8
 3869 09a1 0B       		.uleb128 0xb
 3870 09a2 04       		.byte	0x4
 3871 09a3 A7090000 		.4byte	0x9a7
 3872 09a7 0C       		.uleb128 0xc
 3873 09a8 61090000 		.4byte	0x961
 3874 09ac 1B       		.uleb128 0x1b
 3875 09ad 08       		.byte	0x8
 3876 09ae 0A       		.byte	0xa
 3877 09af 3E01     		.2byte	0x13e
 3878 09b1 EA090000 		.4byte	0x9ea
 3879 09b5 1F       		.uleb128 0x1f
 3880 09b6 765F7000 		.ascii	"v_p\000"
 3881 09ba 0A       		.byte	0xa
 3882 09bb 4A01     		.2byte	0x14a
 3883 09bd 6D090000 		.4byte	0x96d
 3884 09c1 00       		.byte	0
 3885 09c2 1C       		.uleb128 0x1c
 3886 09c3 791A0000 		.4byte	.LASF201
 3887 09c7 0A       		.byte	0xa
ARM GAS  C:\Users\haske\AppData\Local\Temp\cc0eRFVw.s 			page 81


 3888 09c8 4C01     		.2byte	0x14c
 3889 09ca CE000000 		.4byte	0xce
 3890 09ce 04       		.byte	0x4
 3891 09cf 1C       		.uleb128 0x1c
 3892 09d0 63010000 		.4byte	.LASF202
 3893 09d4 0A       		.byte	0xa
 3894 09d5 4D01     		.2byte	0x14d
 3895 09d7 B8000000 		.4byte	0xb8
 3896 09db 06       		.byte	0x6
 3897 09dc 1C       		.uleb128 0x1c
 3898 09dd 00000000 		.4byte	.LASF203
 3899 09e1 0A       		.byte	0xa
 3900 09e2 4E01     		.2byte	0x14e
 3901 09e4 B8000000 		.4byte	0xb8
 3902 09e8 07       		.byte	0x7
 3903 09e9 00       		.byte	0
 3904 09ea 1A       		.uleb128 0x1a
 3905 09eb 040E0000 		.4byte	.LASF204
 3906 09ef 0A       		.byte	0xa
 3907 09f0 4F01     		.2byte	0x14f
 3908 09f2 AC090000 		.4byte	0x9ac
 3909 09f6 0B       		.uleb128 0xb
 3910 09f7 04       		.byte	0x4
 3911 09f8 FC090000 		.4byte	0x9fc
 3912 09fc 0A       		.uleb128 0xa
 3913 09fd 26180000 		.4byte	.LASF205
 3914 0a01 24       		.byte	0x24
 3915 0a02 0B       		.byte	0xb
 3916 0a03 AE       		.byte	0xae
 3917 0a04 C30A0000 		.4byte	0xac3
 3918 0a08 07       		.uleb128 0x7
 3919 0a09 08120000 		.4byte	.LASF206
 3920 0a0d 0B       		.byte	0xb
 3921 0a0e AF       		.byte	0xaf
 3922 0a0f D70F0000 		.4byte	0xfd7
 3923 0a13 00       		.byte	0
 3924 0a14 07       		.uleb128 0x7
 3925 0a15 240D0000 		.4byte	.LASF207
 3926 0a19 0B       		.byte	0xb
 3927 0a1a B0       		.byte	0xb0
 3928 0a1b F6090000 		.4byte	0x9f6
 3929 0a1f 04       		.byte	0x4
 3930 0a20 07       		.uleb128 0x7
 3931 0a21 FF090000 		.4byte	.LASF208
 3932 0a25 0B       		.byte	0xb
 3933 0a26 B1       		.byte	0xb1
 3934 0a27 E20F0000 		.4byte	0xfe2
 3935 0a2b 08       		.byte	0x8
 3936 0a2c 07       		.uleb128 0x7
 3937 0a2d 0F0E0000 		.4byte	.LASF209
 3938 0a31 0B       		.byte	0xb
 3939 0a32 B2       		.byte	0xb2
 3940 0a33 E80F0000 		.4byte	0xfe8
 3941 0a37 0C       		.byte	0xc
 3942 0a38 07       		.uleb128 0x7
 3943 0a39 951C0000 		.4byte	.LASF42
 3944 0a3d 0B       		.byte	0xb
ARM GAS  C:\Users\haske\AppData\Local\Temp\cc0eRFVw.s 			page 82


 3945 0a3e B4       		.byte	0xb4
 3946 0a3f E9020000 		.4byte	0x2e9
 3947 0a43 10       		.byte	0x10
 3948 0a44 07       		.uleb128 0x7
 3949 0a45 4F190000 		.4byte	.LASF210
 3950 0a49 0B       		.byte	0xb
 3951 0a4a B6       		.byte	0xb6
 3952 0a4b 5E010000 		.4byte	0x15e
 3953 0a4f 14       		.byte	0x14
 3954 0a50 07       		.uleb128 0x7
 3955 0a51 08090000 		.4byte	.LASF211
 3956 0a55 0B       		.byte	0xb
 3957 0a56 B7       		.byte	0xb7
 3958 0a57 B30B0000 		.4byte	0xbb3
 3959 0a5b 1C       		.byte	0x1c
 3960 0a5c 07       		.uleb128 0x7
 3961 0a5d 68020000 		.4byte	.LASF212
 3962 0a61 0B       		.byte	0xb
 3963 0a62 B8       		.byte	0xb8
 3964 0a63 A80B0000 		.4byte	0xba8
 3965 0a67 20       		.byte	0x20
 3966 0a68 09       		.uleb128 0x9
 3967 0a69 4A060000 		.4byte	.LASF213
 3968 0a6d 0B       		.byte	0xb
 3969 0a6e B9       		.byte	0xb9
 3970 0a6f CE000000 		.4byte	0xce
 3971 0a73 02       		.byte	0x2
 3972 0a74 01       		.byte	0x1
 3973 0a75 0F       		.byte	0xf
 3974 0a76 22       		.byte	0x22
 3975 0a77 09       		.uleb128 0x9
 3976 0a78 35040000 		.4byte	.LASF214
 3977 0a7c 0B       		.byte	0xb
 3978 0a7d BA       		.byte	0xba
 3979 0a7e CE000000 		.4byte	0xce
 3980 0a82 02       		.byte	0x2
 3981 0a83 01       		.byte	0x1
 3982 0a84 0E       		.byte	0xe
 3983 0a85 22       		.byte	0x22
 3984 0a86 09       		.uleb128 0x9
 3985 0a87 BE110000 		.4byte	.LASF215
 3986 0a8b 0B       		.byte	0xb
 3987 0a8c BB       		.byte	0xbb
 3988 0a8d CE000000 		.4byte	0xce
 3989 0a91 02       		.byte	0x2
 3990 0a92 01       		.byte	0x1
 3991 0a93 0D       		.byte	0xd
 3992 0a94 22       		.byte	0x22
 3993 0a95 09       		.uleb128 0x9
 3994 0a96 40060000 		.4byte	.LASF216
 3995 0a9a 0B       		.byte	0xb
 3996 0a9b BC       		.byte	0xbc
 3997 0a9c CE000000 		.4byte	0xce
 3998 0aa0 02       		.byte	0x2
 3999 0aa1 06       		.byte	0x6
 4000 0aa2 07       		.byte	0x7
 4001 0aa3 22       		.byte	0x22
ARM GAS  C:\Users\haske\AppData\Local\Temp\cc0eRFVw.s 			page 83


 4002 0aa4 09       		.uleb128 0x9
 4003 0aa5 F9070000 		.4byte	.LASF217
 4004 0aa9 0B       		.byte	0xb
 4005 0aaa BD       		.byte	0xbd
 4006 0aab CE000000 		.4byte	0xce
 4007 0aaf 02       		.byte	0x2
 4008 0ab0 01       		.byte	0x1
 4009 0ab1 06       		.byte	0x6
 4010 0ab2 22       		.byte	0x22
 4011 0ab3 09       		.uleb128 0x9
 4012 0ab4 DF030000 		.4byte	.LASF218
 4013 0ab8 0B       		.byte	0xb
 4014 0ab9 BE       		.byte	0xbe
 4015 0aba CE000000 		.4byte	0xce
 4016 0abe 02       		.byte	0x2
 4017 0abf 01       		.byte	0x1
 4018 0ac0 05       		.byte	0x5
 4019 0ac1 22       		.byte	0x22
 4020 0ac2 00       		.byte	0
 4021 0ac3 0B       		.uleb128 0xb
 4022 0ac4 04       		.byte	0x4
 4023 0ac5 C90A0000 		.4byte	0xac9
 4024 0ac9 0C       		.uleb128 0xc
 4025 0aca EB020000 		.4byte	0x2eb
 4026 0ace 02       		.uleb128 0x2
 4027 0acf 1D000000 		.4byte	.LASF219
 4028 0ad3 0C       		.byte	0xc
 4029 0ad4 1D       		.byte	0x1d
 4030 0ad5 B8000000 		.4byte	0xb8
 4031 0ad9 05       		.uleb128 0x5
 4032 0ada 0C       		.byte	0xc
 4033 0adb 0C       		.byte	0xc
 4034 0adc 20       		.byte	0x20
 4035 0add 060B0000 		.4byte	0xb06
 4036 0ae1 07       		.uleb128 0x7
 4037 0ae2 C71D0000 		.4byte	.LASF220
 4038 0ae6 0C       		.byte	0xc
 4039 0ae7 21       		.byte	0x21
 4040 0ae8 E4000000 		.4byte	0xe4
 4041 0aec 00       		.byte	0
 4042 0aed 07       		.uleb128 0x7
 4043 0aee B0050000 		.4byte	.LASF221
 4044 0af2 0C       		.byte	0xc
 4045 0af3 22       		.byte	0x22
 4046 0af4 060B0000 		.4byte	0xb06
 4047 0af8 04       		.byte	0x4
 4048 0af9 07       		.uleb128 0x7
 4049 0afa C6000000 		.4byte	.LASF222
 4050 0afe 0C       		.byte	0xc
 4051 0aff 23       		.byte	0x23
 4052 0b00 060B0000 		.4byte	0xb06
 4053 0b04 08       		.byte	0x8
 4054 0b05 00       		.byte	0
 4055 0b06 0B       		.uleb128 0xb
 4056 0b07 04       		.byte	0x4
 4057 0b08 CE0A0000 		.4byte	0xace
 4058 0b0c 02       		.uleb128 0x2
ARM GAS  C:\Users\haske\AppData\Local\Temp\cc0eRFVw.s 			page 84


 4059 0b0d 9B180000 		.4byte	.LASF223
 4060 0b11 0C       		.byte	0xc
 4061 0b12 24       		.byte	0x24
 4062 0b13 D90A0000 		.4byte	0xad9
 4063 0b17 0B       		.uleb128 0xb
 4064 0b18 04       		.byte	0x4
 4065 0b19 F6090000 		.4byte	0x9f6
 4066 0b1d 0A       		.uleb128 0xa
 4067 0b1e CE1D0000 		.4byte	.LASF224
 4068 0b22 20       		.byte	0x20
 4069 0b23 0D       		.byte	0xd
 4070 0b24 3B       		.byte	0x3b
 4071 0b25 A20B0000 		.4byte	0xba2
 4072 0b29 07       		.uleb128 0x7
 4073 0b2a 430F0000 		.4byte	.LASF225
 4074 0b2e 0D       		.byte	0xd
 4075 0b2f 3C       		.byte	0x3c
 4076 0b30 0C0B0000 		.4byte	0xb0c
 4077 0b34 00       		.byte	0
 4078 0b35 07       		.uleb128 0x7
 4079 0b36 211E0000 		.4byte	.LASF226
 4080 0b3a 0D       		.byte	0xd
 4081 0b3b 3D       		.byte	0x3d
 4082 0b3c 170B0000 		.4byte	0xb17
 4083 0b40 0C       		.byte	0xc
 4084 0b41 07       		.uleb128 0x7
 4085 0b42 71140000 		.4byte	.LASF227
 4086 0b46 0D       		.byte	0xd
 4087 0b47 3F       		.byte	0x3f
 4088 0b48 BC0E0000 		.4byte	0xebc
 4089 0b4c 10       		.byte	0x10
 4090 0b4d 07       		.uleb128 0x7
 4091 0b4e 75050000 		.4byte	.LASF228
 4092 0b52 0D       		.byte	0xd
 4093 0b53 40       		.byte	0x40
 4094 0b54 D80E0000 		.4byte	0xed8
 4095 0b58 14       		.byte	0x14
 4096 0b59 07       		.uleb128 0x7
 4097 0b5a 951C0000 		.4byte	.LASF42
 4098 0b5e 0D       		.byte	0xd
 4099 0b5f 45       		.byte	0x45
 4100 0b60 E9020000 		.4byte	0x2e9
 4101 0b64 18       		.byte	0x18
 4102 0b65 09       		.uleb128 0x9
 4103 0b66 0B060000 		.4byte	.LASF229
 4104 0b6a 0D       		.byte	0xd
 4105 0b6b 48       		.byte	0x48
 4106 0b6c B8000000 		.4byte	0xb8
 4107 0b70 01       		.byte	0x1
 4108 0b71 01       		.byte	0x1
 4109 0b72 07       		.byte	0x7
 4110 0b73 1C       		.byte	0x1c
 4111 0b74 09       		.uleb128 0x9
 4112 0b75 AC150000 		.4byte	.LASF230
 4113 0b79 0D       		.byte	0xd
 4114 0b7a 49       		.byte	0x49
 4115 0b7b B8000000 		.4byte	0xb8
ARM GAS  C:\Users\haske\AppData\Local\Temp\cc0eRFVw.s 			page 85


 4116 0b7f 01       		.byte	0x1
 4117 0b80 01       		.byte	0x1
 4118 0b81 06       		.byte	0x6
 4119 0b82 1C       		.byte	0x1c
 4120 0b83 09       		.uleb128 0x9
 4121 0b84 381D0000 		.4byte	.LASF231
 4122 0b88 0D       		.byte	0xd
 4123 0b89 4A       		.byte	0x4a
 4124 0b8a B8000000 		.4byte	0xb8
 4125 0b8e 01       		.byte	0x1
 4126 0b8f 01       		.byte	0x1
 4127 0b90 05       		.byte	0x5
 4128 0b91 1C       		.byte	0x1c
 4129 0b92 09       		.uleb128 0x9
 4130 0b93 7D160000 		.4byte	.LASF232
 4131 0b97 0D       		.byte	0xd
 4132 0b98 4C       		.byte	0x4c
 4133 0b99 B8000000 		.4byte	0xb8
 4134 0b9d 01       		.byte	0x1
 4135 0b9e 01       		.byte	0x1
 4136 0b9f 04       		.byte	0x4
 4137 0ba0 1C       		.byte	0x1c
 4138 0ba1 00       		.byte	0
 4139 0ba2 0B       		.uleb128 0xb
 4140 0ba3 04       		.byte	0x4
 4141 0ba4 1D0B0000 		.4byte	0xb1d
 4142 0ba8 02       		.uleb128 0x2
 4143 0ba9 51050000 		.4byte	.LASF233
 4144 0bad 0B       		.byte	0xb
 4145 0bae 3C       		.byte	0x3c
 4146 0baf CE000000 		.4byte	0xce
 4147 0bb3 02       		.uleb128 0x2
 4148 0bb4 621B0000 		.4byte	.LASF234
 4149 0bb8 0B       		.byte	0xb
 4150 0bb9 7D       		.byte	0x7d
 4151 0bba E4000000 		.4byte	0xe4
 4152 0bbe 02       		.uleb128 0x2
 4153 0bbf 33010000 		.4byte	.LASF235
 4154 0bc3 0E       		.byte	0xe
 4155 0bc4 26       		.byte	0x26
 4156 0bc5 B8000000 		.4byte	0xb8
 4157 0bc9 02       		.uleb128 0x2
 4158 0bca DE140000 		.4byte	.LASF236
 4159 0bce 0E       		.byte	0xe
 4160 0bcf 30       		.byte	0x30
 4161 0bd0 B8000000 		.4byte	0xb8
 4162 0bd4 02       		.uleb128 0x2
 4163 0bd5 91000000 		.4byte	.LASF237
 4164 0bd9 0F       		.byte	0xf
 4165 0bda 25       		.byte	0x25
 4166 0bdb E4000000 		.4byte	0xe4
 4167 0bdf 05       		.uleb128 0x5
 4168 0be0 08       		.byte	0x8
 4169 0be1 0F       		.byte	0xf
 4170 0be2 27       		.byte	0x27
 4171 0be3 210C0000 		.4byte	0xc21
 4172 0be7 07       		.uleb128 0x7
ARM GAS  C:\Users\haske\AppData\Local\Temp\cc0eRFVw.s 			page 86


 4173 0be8 C7140000 		.4byte	.LASF238
 4174 0bec 0F       		.byte	0xf
 4175 0bed 28       		.byte	0x28
 4176 0bee 210C0000 		.4byte	0xc21
 4177 0bf2 00       		.byte	0
 4178 0bf3 09       		.uleb128 0x9
 4179 0bf4 161D0000 		.4byte	.LASF239
 4180 0bf8 0F       		.byte	0xf
 4181 0bf9 29       		.byte	0x29
 4182 0bfa E4000000 		.4byte	0xe4
 4183 0bfe 04       		.byte	0x4
 4184 0bff 18       		.byte	0x18
 4185 0c00 08       		.byte	0x8
 4186 0c01 04       		.byte	0x4
 4187 0c02 09       		.uleb128 0x9
 4188 0c03 7E020000 		.4byte	.LASF240
 4189 0c07 0F       		.byte	0xf
 4190 0c08 2A       		.byte	0x2a
 4191 0c09 E4000000 		.4byte	0xe4
 4192 0c0d 04       		.byte	0x4
 4193 0c0e 01       		.byte	0x1
 4194 0c0f 07       		.byte	0x7
 4195 0c10 04       		.byte	0x4
 4196 0c11 09       		.uleb128 0x9
 4197 0c12 3E0D0000 		.4byte	.LASF241
 4198 0c16 0F       		.byte	0xf
 4199 0c17 2B       		.byte	0x2b
 4200 0c18 E4000000 		.4byte	0xe4
 4201 0c1c 04       		.byte	0x4
 4202 0c1d 01       		.byte	0x1
 4203 0c1e 06       		.byte	0x6
 4204 0c1f 04       		.byte	0x4
 4205 0c20 00       		.byte	0
 4206 0c21 0B       		.uleb128 0xb
 4207 0c22 04       		.byte	0x4
 4208 0c23 EA090000 		.4byte	0x9ea
 4209 0c27 02       		.uleb128 0x2
 4210 0c28 F50A0000 		.4byte	.LASF242
 4211 0c2c 0F       		.byte	0xf
 4212 0c2d 2C       		.byte	0x2c
 4213 0c2e DF0B0000 		.4byte	0xbdf
 4214 0c32 0A       		.uleb128 0xa
 4215 0c33 3E160000 		.4byte	.LASF243
 4216 0c37 1C       		.byte	0x1c
 4217 0c38 10       		.byte	0x10
 4218 0c39 31       		.byte	0x31
 4219 0c3a C00C0000 		.4byte	0xcc0
 4220 0c3e 07       		.uleb128 0x7
 4221 0c3f 08140000 		.4byte	.LASF244
 4222 0c43 10       		.byte	0x10
 4223 0c44 32       		.byte	0x32
 4224 0c45 C00C0000 		.4byte	0xcc0
 4225 0c49 00       		.byte	0
 4226 0c4a 07       		.uleb128 0x7
 4227 0c4b D5020000 		.4byte	.LASF245
 4228 0c4f 10       		.byte	0x10
 4229 0c50 33       		.byte	0x33
ARM GAS  C:\Users\haske\AppData\Local\Temp\cc0eRFVw.s 			page 87


 4230 0c51 630D0000 		.4byte	0xd63
 4231 0c55 04       		.byte	0x4
 4232 0c56 07       		.uleb128 0x7
 4233 0c57 CC170000 		.4byte	.LASF246
 4234 0c5b 10       		.byte	0x10
 4235 0c5c 34       		.byte	0x34
 4236 0c5d 630D0000 		.4byte	0xd63
 4237 0c61 08       		.byte	0x8
 4238 0c62 07       		.uleb128 0x7
 4239 0c63 951C0000 		.4byte	.LASF42
 4240 0c67 10       		.byte	0x10
 4241 0c68 36       		.byte	0x36
 4242 0c69 E9020000 		.4byte	0x2e9
 4243 0c6d 0C       		.byte	0xc
 4244 0c6e 07       		.uleb128 0x7
 4245 0c6f 82100000 		.4byte	.LASF247
 4246 0c73 10       		.byte	0x10
 4247 0c74 38       		.byte	0x38
 4248 0c75 790D0000 		.4byte	0xd79
 4249 0c79 10       		.byte	0x10
 4250 0c7a 07       		.uleb128 0x7
 4251 0c7b 980D0000 		.4byte	.LASF248
 4252 0c7f 10       		.byte	0x10
 4253 0c80 3A       		.byte	0x3a
 4254 0c81 F6000000 		.4byte	0xf6
 4255 0c85 14       		.byte	0x14
 4256 0c86 07       		.uleb128 0x7
 4257 0c87 471D0000 		.4byte	.LASF249
 4258 0c8b 10       		.byte	0x10
 4259 0c8c 3B       		.byte	0x3b
 4260 0c8d F6000000 		.4byte	0xf6
 4261 0c91 16       		.byte	0x16
 4262 0c92 09       		.uleb128 0x9
 4263 0c93 2C0F0000 		.4byte	.LASF250
 4264 0c97 10       		.byte	0x10
 4265 0c98 3C       		.byte	0x3c
 4266 0c99 E4000000 		.4byte	0xe4
 4267 0c9d 04       		.byte	0x4
 4268 0c9e 02       		.byte	0x2
 4269 0c9f 1E       		.byte	0x1e
 4270 0ca0 18       		.byte	0x18
 4271 0ca1 09       		.uleb128 0x9
 4272 0ca2 2B050000 		.4byte	.LASF251
 4273 0ca6 10       		.byte	0x10
 4274 0ca7 3D       		.byte	0x3d
 4275 0ca8 E4000000 		.4byte	0xe4
 4276 0cac 04       		.byte	0x4
 4277 0cad 02       		.byte	0x2
 4278 0cae 1C       		.byte	0x1c
 4279 0caf 18       		.byte	0x18
 4280 0cb0 09       		.uleb128 0x9
 4281 0cb1 A70F0000 		.4byte	.LASF252
 4282 0cb5 10       		.byte	0x10
 4283 0cb6 3E       		.byte	0x3e
 4284 0cb7 E4000000 		.4byte	0xe4
 4285 0cbb 04       		.byte	0x4
 4286 0cbc 10       		.byte	0x10
ARM GAS  C:\Users\haske\AppData\Local\Temp\cc0eRFVw.s 			page 88


 4287 0cbd 0C       		.byte	0xc
 4288 0cbe 18       		.byte	0x18
 4289 0cbf 00       		.byte	0
 4290 0cc0 0B       		.uleb128 0xb
 4291 0cc1 04       		.byte	0x4
 4292 0cc2 C60C0000 		.4byte	0xcc6
 4293 0cc6 0C       		.uleb128 0xc
 4294 0cc7 320C0000 		.4byte	0xc32
 4295 0ccb 0B       		.uleb128 0xb
 4296 0ccc 04       		.byte	0x4
 4297 0ccd D10C0000 		.4byte	0xcd1
 4298 0cd1 0A       		.uleb128 0xa
 4299 0cd2 AB100000 		.4byte	.LASF253
 4300 0cd6 1C       		.byte	0x1c
 4301 0cd7 11       		.byte	0x11
 4302 0cd8 5E       		.byte	0x5e
 4303 0cd9 530D0000 		.4byte	0xd53
 4304 0cdd 07       		.uleb128 0x7
 4305 0cde E80E0000 		.4byte	.LASF254
 4306 0ce2 11       		.byte	0x11
 4307 0ce3 5F       		.byte	0x5f
 4308 0ce4 F6090000 		.4byte	0x9f6
 4309 0ce8 00       		.byte	0
 4310 0ce9 07       		.uleb128 0x7
 4311 0cea FC180000 		.4byte	.LASF255
 4312 0cee 11       		.byte	0x11
 4313 0cef 60       		.byte	0x60
 4314 0cf0 F6090000 		.4byte	0x9f6
 4315 0cf4 04       		.byte	0x4
 4316 0cf5 07       		.uleb128 0x7
 4317 0cf6 EF140000 		.4byte	.LASF256
 4318 0cfa 11       		.byte	0x11
 4319 0cfb 61       		.byte	0x61
 4320 0cfc B10E0000 		.4byte	0xeb1
 4321 0d00 08       		.byte	0x8
 4322 0d01 07       		.uleb128 0x7
 4323 0d02 951C0000 		.4byte	.LASF42
 4324 0d06 11       		.byte	0x11
 4325 0d07 62       		.byte	0x62
 4326 0d08 E9020000 		.4byte	0x2e9
 4327 0d0c 0C       		.byte	0xc
 4328 0d0d 07       		.uleb128 0x7
 4329 0d0e E20E0000 		.4byte	.LASF257
 4330 0d12 11       		.byte	0x11
 4331 0d13 63       		.byte	0x63
 4332 0d14 E9020000 		.4byte	0x2e9
 4333 0d18 10       		.byte	0x10
 4334 0d19 07       		.uleb128 0x7
 4335 0d1a B41D0000 		.4byte	.LASF258
 4336 0d1e 11       		.byte	0x11
 4337 0d1f 64       		.byte	0x64
 4338 0d20 CB0C0000 		.4byte	0xccb
 4339 0d24 14       		.byte	0x14
 4340 0d25 09       		.uleb128 0x9
 4341 0d26 0E090000 		.4byte	.LASF259
 4342 0d2a 11       		.byte	0x11
 4343 0d2b 65       		.byte	0x65
ARM GAS  C:\Users\haske\AppData\Local\Temp\cc0eRFVw.s 			page 89


 4344 0d2c B8000000 		.4byte	0xb8
 4345 0d30 01       		.byte	0x1
 4346 0d31 01       		.byte	0x1
 4347 0d32 07       		.byte	0x7
 4348 0d33 18       		.byte	0x18
 4349 0d34 09       		.uleb128 0x9
 4350 0d35 F2080000 		.4byte	.LASF260
 4351 0d39 11       		.byte	0x11
 4352 0d3a 66       		.byte	0x66
 4353 0d3b B8000000 		.4byte	0xb8
 4354 0d3f 01       		.byte	0x1
 4355 0d40 01       		.byte	0x1
 4356 0d41 06       		.byte	0x6
 4357 0d42 18       		.byte	0x18
 4358 0d43 09       		.uleb128 0x9
 4359 0d44 9E130000 		.4byte	.LASF261
 4360 0d48 11       		.byte	0x11
 4361 0d49 67       		.byte	0x67
 4362 0d4a B8000000 		.4byte	0xb8
 4363 0d4e 01       		.byte	0x1
 4364 0d4f 01       		.byte	0x1
 4365 0d50 05       		.byte	0x5
 4366 0d51 18       		.byte	0x18
 4367 0d52 00       		.byte	0
 4368 0d53 14       		.uleb128 0x14
 4369 0d54 630D0000 		.4byte	0xd63
 4370 0d58 0E       		.uleb128 0xe
 4371 0d59 C00C0000 		.4byte	0xcc0
 4372 0d5d 0E       		.uleb128 0xe
 4373 0d5e F6090000 		.4byte	0x9f6
 4374 0d62 00       		.byte	0
 4375 0d63 0B       		.uleb128 0xb
 4376 0d64 04       		.byte	0x4
 4377 0d65 530D0000 		.4byte	0xd53
 4378 0d69 14       		.uleb128 0x14
 4379 0d6a 790D0000 		.4byte	0xd79
 4380 0d6e 0E       		.uleb128 0xe
 4381 0d6f C00C0000 		.4byte	0xcc0
 4382 0d73 0E       		.uleb128 0xe
 4383 0d74 CB0C0000 		.4byte	0xccb
 4384 0d78 00       		.byte	0
 4385 0d79 0B       		.uleb128 0xb
 4386 0d7a 04       		.byte	0x4
 4387 0d7b 690D0000 		.4byte	0xd69
 4388 0d7f 02       		.uleb128 0x2
 4389 0d80 CC0C0000 		.4byte	.LASF262
 4390 0d84 10       		.byte	0x10
 4391 0d85 3F       		.byte	0x3f
 4392 0d86 320C0000 		.4byte	0xc32
 4393 0d8a 17       		.uleb128 0x17
 4394 0d8b 01       		.byte	0x1
 4395 0d8c 42000000 		.4byte	0x42
 4396 0d90 11       		.byte	0x11
 4397 0d91 20       		.byte	0x20
 4398 0d92 B10E0000 		.4byte	0xeb1
 4399 0d96 18       		.uleb128 0x18
 4400 0d97 BA040000 		.4byte	.LASF263
ARM GAS  C:\Users\haske\AppData\Local\Temp\cc0eRFVw.s 			page 90


 4401 0d9b 00       		.byte	0
 4402 0d9c 18       		.uleb128 0x18
 4403 0d9d 41150000 		.4byte	.LASF264
 4404 0da1 01       		.byte	0x1
 4405 0da2 18       		.uleb128 0x18
 4406 0da3 C2130000 		.4byte	.LASF265
 4407 0da7 02       		.byte	0x2
 4408 0da8 18       		.uleb128 0x18
 4409 0da9 9F1C0000 		.4byte	.LASF266
 4410 0dad 03       		.byte	0x3
 4411 0dae 18       		.uleb128 0x18
 4412 0daf 13140000 		.4byte	.LASF267
 4413 0db3 04       		.byte	0x4
 4414 0db4 18       		.uleb128 0x18
 4415 0db5 3A030000 		.4byte	.LASF268
 4416 0db9 05       		.byte	0x5
 4417 0dba 18       		.uleb128 0x18
 4418 0dbb 54140000 		.4byte	.LASF269
 4419 0dbf 06       		.byte	0x6
 4420 0dc0 18       		.uleb128 0x18
 4421 0dc1 900C0000 		.4byte	.LASF270
 4422 0dc5 07       		.byte	0x7
 4423 0dc6 18       		.uleb128 0x18
 4424 0dc7 EB1D0000 		.4byte	.LASF271
 4425 0dcb 08       		.byte	0x8
 4426 0dcc 18       		.uleb128 0x18
 4427 0dcd 681C0000 		.4byte	.LASF272
 4428 0dd1 09       		.byte	0x9
 4429 0dd2 18       		.uleb128 0x18
 4430 0dd3 88010000 		.4byte	.LASF273
 4431 0dd7 0A       		.byte	0xa
 4432 0dd8 18       		.uleb128 0x18
 4433 0dd9 F4100000 		.4byte	.LASF274
 4434 0ddd 0B       		.byte	0xb
 4435 0dde 18       		.uleb128 0x18
 4436 0ddf 29030000 		.4byte	.LASF275
 4437 0de3 0C       		.byte	0xc
 4438 0de4 18       		.uleb128 0x18
 4439 0de5 501C0000 		.4byte	.LASF276
 4440 0de9 0D       		.byte	0xd
 4441 0dea 18       		.uleb128 0x18
 4442 0deb FB120000 		.4byte	.LASF277
 4443 0def 0E       		.byte	0xe
 4444 0df0 18       		.uleb128 0x18
 4445 0df1 141A0000 		.4byte	.LASF278
 4446 0df5 0F       		.byte	0xf
 4447 0df6 18       		.uleb128 0x18
 4448 0df7 590E0000 		.4byte	.LASF279
 4449 0dfb 10       		.byte	0x10
 4450 0dfc 18       		.uleb128 0x18
 4451 0dfd 350A0000 		.4byte	.LASF280
 4452 0e01 11       		.byte	0x11
 4453 0e02 18       		.uleb128 0x18
 4454 0e03 D8090000 		.4byte	.LASF281
 4455 0e07 12       		.byte	0x12
 4456 0e08 18       		.uleb128 0x18
 4457 0e09 F40F0000 		.4byte	.LASF282
ARM GAS  C:\Users\haske\AppData\Local\Temp\cc0eRFVw.s 			page 91


 4458 0e0d 13       		.byte	0x13
 4459 0e0e 18       		.uleb128 0x18
 4460 0e0f 57000000 		.4byte	.LASF283
 4461 0e13 14       		.byte	0x14
 4462 0e14 18       		.uleb128 0x18
 4463 0e15 34070000 		.4byte	.LASF284
 4464 0e19 15       		.byte	0x15
 4465 0e1a 18       		.uleb128 0x18
 4466 0e1b F10C0000 		.4byte	.LASF285
 4467 0e1f 16       		.byte	0x16
 4468 0e20 18       		.uleb128 0x18
 4469 0e21 8D160000 		.4byte	.LASF286
 4470 0e25 17       		.byte	0x17
 4471 0e26 18       		.uleb128 0x18
 4472 0e27 271B0000 		.4byte	.LASF287
 4473 0e2b 18       		.byte	0x18
 4474 0e2c 18       		.uleb128 0x18
 4475 0e2d B9180000 		.4byte	.LASF288
 4476 0e31 19       		.byte	0x19
 4477 0e32 18       		.uleb128 0x18
 4478 0e33 D0180000 		.4byte	.LASF289
 4479 0e37 1A       		.byte	0x1a
 4480 0e38 18       		.uleb128 0x18
 4481 0e39 E8050000 		.4byte	.LASF290
 4482 0e3d 1B       		.byte	0x1b
 4483 0e3e 18       		.uleb128 0x18
 4484 0e3f E4120000 		.4byte	.LASF291
 4485 0e43 1C       		.byte	0x1c
 4486 0e44 18       		.uleb128 0x18
 4487 0e45 6D010000 		.4byte	.LASF292
 4488 0e49 1D       		.byte	0x1d
 4489 0e4a 18       		.uleb128 0x18
 4490 0e4b 960F0000 		.4byte	.LASF293
 4491 0e4f 1E       		.byte	0x1e
 4492 0e50 18       		.uleb128 0x18
 4493 0e51 181B0000 		.4byte	.LASF294
 4494 0e55 1F       		.byte	0x1f
 4495 0e56 18       		.uleb128 0x18
 4496 0e57 52150000 		.4byte	.LASF295
 4497 0e5b 20       		.byte	0x20
 4498 0e5c 18       		.uleb128 0x18
 4499 0e5d F8110000 		.4byte	.LASF296
 4500 0e61 21       		.byte	0x21
 4501 0e62 18       		.uleb128 0x18
 4502 0e63 51020000 		.4byte	.LASF297
 4503 0e67 22       		.byte	0x22
 4504 0e68 18       		.uleb128 0x18
 4505 0e69 89030000 		.4byte	.LASF298
 4506 0e6d 23       		.byte	0x23
 4507 0e6e 18       		.uleb128 0x18
 4508 0e6f DD0F0000 		.4byte	.LASF299
 4509 0e73 24       		.byte	0x24
 4510 0e74 18       		.uleb128 0x18
 4511 0e75 521D0000 		.4byte	.LASF300
 4512 0e79 25       		.byte	0x25
 4513 0e7a 18       		.uleb128 0x18
 4514 0e7b 83130000 		.4byte	.LASF301
ARM GAS  C:\Users\haske\AppData\Local\Temp\cc0eRFVw.s 			page 92


 4515 0e7f 26       		.byte	0x26
 4516 0e80 18       		.uleb128 0x18
 4517 0e81 B20A0000 		.4byte	.LASF302
 4518 0e85 27       		.byte	0x27
 4519 0e86 18       		.uleb128 0x18
 4520 0e87 E6150000 		.4byte	.LASF303
 4521 0e8b 28       		.byte	0x28
 4522 0e8c 18       		.uleb128 0x18
 4523 0e8d 701B0000 		.4byte	.LASF304
 4524 0e91 29       		.byte	0x29
 4525 0e92 18       		.uleb128 0x18
 4526 0e93 011B0000 		.4byte	.LASF305
 4527 0e97 2A       		.byte	0x2a
 4528 0e98 18       		.uleb128 0x18
 4529 0e99 961B0000 		.4byte	.LASF306
 4530 0e9d 2B       		.byte	0x2b
 4531 0e9e 18       		.uleb128 0x18
 4532 0e9f 1D070000 		.4byte	.LASF307
 4533 0ea3 2C       		.byte	0x2c
 4534 0ea4 18       		.uleb128 0x18
 4535 0ea5 9D150000 		.4byte	.LASF308
 4536 0ea9 2D       		.byte	0x2d
 4537 0eaa 18       		.uleb128 0x18
 4538 0eab 9A170000 		.4byte	.LASF309
 4539 0eaf 80       		.byte	0x80
 4540 0eb0 00       		.byte	0
 4541 0eb1 02       		.uleb128 0x2
 4542 0eb2 8B100000 		.4byte	.LASF310
 4543 0eb6 11       		.byte	0x11
 4544 0eb7 5C       		.byte	0x5c
 4545 0eb8 8A0D0000 		.4byte	0xd8a
 4546 0ebc 02       		.uleb128 0x2
 4547 0ebd 2A160000 		.4byte	.LASF311
 4548 0ec1 0D       		.byte	0xd
 4549 0ec2 34       		.byte	0x34
 4550 0ec3 C70E0000 		.4byte	0xec7
 4551 0ec7 0B       		.uleb128 0xb
 4552 0ec8 04       		.byte	0x4
 4553 0ec9 CD0E0000 		.4byte	0xecd
 4554 0ecd 14       		.uleb128 0x14
 4555 0ece D80E0000 		.4byte	0xed8
 4556 0ed2 0E       		.uleb128 0xe
 4557 0ed3 A20B0000 		.4byte	0xba2
 4558 0ed7 00       		.byte	0
 4559 0ed8 02       		.uleb128 0x2
 4560 0ed9 5E0C0000 		.4byte	.LASF312
 4561 0edd 0D       		.byte	0xd
 4562 0ede 35       		.byte	0x35
 4563 0edf E30E0000 		.4byte	0xee3
 4564 0ee3 0B       		.uleb128 0xb
 4565 0ee4 04       		.byte	0x4
 4566 0ee5 E90E0000 		.4byte	0xee9
 4567 0ee9 14       		.uleb128 0x14
 4568 0eea F90E0000 		.4byte	0xef9
 4569 0eee 0E       		.uleb128 0xe
 4570 0eef A20B0000 		.4byte	0xba2
 4571 0ef3 0E       		.uleb128 0xe
ARM GAS  C:\Users\haske\AppData\Local\Temp\cc0eRFVw.s 			page 93


 4572 0ef4 AA020000 		.4byte	0x2aa
 4573 0ef8 00       		.byte	0
 4574 0ef9 02       		.uleb128 0x2
 4575 0efa 98070000 		.4byte	.LASF313
 4576 0efe 0D       		.byte	0xd
 4577 0eff 4E       		.byte	0x4e
 4578 0f00 1D0B0000 		.4byte	0xb1d
 4579 0f04 05       		.uleb128 0x5
 4580 0f05 1C       		.byte	0x1c
 4581 0f06 0B       		.byte	0xb
 4582 0f07 9B       		.byte	0x9b
 4583 0f08 BB0F0000 		.4byte	0xfbb
 4584 0f0c 07       		.uleb128 0x7
 4585 0f0d B4030000 		.4byte	.LASF314
 4586 0f11 0B       		.byte	0xb
 4587 0f12 9C       		.byte	0x9c
 4588 0f13 170B0000 		.4byte	0xb17
 4589 0f17 00       		.byte	0
 4590 0f18 07       		.uleb128 0x7
 4591 0f19 260E0000 		.4byte	.LASF315
 4592 0f1d 0B       		.byte	0xb
 4593 0f1e 9D       		.byte	0x9d
 4594 0f1f E4000000 		.4byte	0xe4
 4595 0f23 04       		.byte	0x4
 4596 0f24 07       		.uleb128 0x7
 4597 0f25 800B0000 		.4byte	.LASF316
 4598 0f29 0B       		.byte	0xb
 4599 0f2a 9E       		.byte	0x9e
 4600 0f2b BB0F0000 		.4byte	0xfbb
 4601 0f2f 08       		.byte	0x8
 4602 0f30 07       		.uleb128 0x7
 4603 0f31 050B0000 		.4byte	.LASF317
 4604 0f35 0B       		.byte	0xb
 4605 0f36 A0       		.byte	0xa0
 4606 0f37 C60F0000 		.4byte	0xfc6
 4607 0f3b 0C       		.byte	0xc
 4608 0f3c 07       		.uleb128 0x7
 4609 0f3d A10B0000 		.4byte	.LASF318
 4610 0f41 0B       		.byte	0xb
 4611 0f42 A1       		.byte	0xa1
 4612 0f43 1E010000 		.4byte	0x11e
 4613 0f47 10       		.byte	0x10
 4614 0f48 07       		.uleb128 0x7
 4615 0f49 E4020000 		.4byte	.LASF319
 4616 0f4d 0B       		.byte	0xb
 4617 0f4e A3       		.byte	0xa3
 4618 0f4f F6000000 		.4byte	0xf6
 4619 0f53 14       		.byte	0x14
 4620 0f54 07       		.uleb128 0x7
 4621 0f55 340C0000 		.4byte	.LASF320
 4622 0f59 0B       		.byte	0xb
 4623 0f5a A4       		.byte	0xa4
 4624 0f5b F6000000 		.4byte	0xf6
 4625 0f5f 16       		.byte	0x16
 4626 0f60 09       		.uleb128 0x9
 4627 0f61 08080000 		.4byte	.LASF321
 4628 0f65 0B       		.byte	0xb
ARM GAS  C:\Users\haske\AppData\Local\Temp\cc0eRFVw.s 			page 94


 4629 0f66 A6       		.byte	0xa6
 4630 0f67 BE0B0000 		.4byte	0xbbe
 4631 0f6b 01       		.byte	0x1
 4632 0f6c 02       		.byte	0x2
 4633 0f6d 06       		.byte	0x6
 4634 0f6e 18       		.byte	0x18
 4635 0f6f 09       		.uleb128 0x9
 4636 0f70 E8010000 		.4byte	.LASF322
 4637 0f74 0B       		.byte	0xb
 4638 0f75 A7       		.byte	0xa7
 4639 0f76 C90B0000 		.4byte	0xbc9
 4640 0f7a 01       		.byte	0x1
 4641 0f7b 02       		.byte	0x2
 4642 0f7c 04       		.byte	0x4
 4643 0f7d 18       		.byte	0x18
 4644 0f7e 09       		.uleb128 0x9
 4645 0f7f A10E0000 		.4byte	.LASF323
 4646 0f83 0B       		.byte	0xb
 4647 0f84 A8       		.byte	0xa8
 4648 0f85 C90B0000 		.4byte	0xbc9
 4649 0f89 01       		.byte	0x1
 4650 0f8a 02       		.byte	0x2
 4651 0f8b 02       		.byte	0x2
 4652 0f8c 18       		.byte	0x18
 4653 0f8d 09       		.uleb128 0x9
 4654 0f8e 20050000 		.4byte	.LASF324
 4655 0f92 0B       		.byte	0xb
 4656 0f93 A9       		.byte	0xa9
 4657 0f94 74010000 		.4byte	0x174
 4658 0f98 01       		.byte	0x1
 4659 0f99 04       		.byte	0x4
 4660 0f9a 04       		.byte	0x4
 4661 0f9b 19       		.byte	0x19
 4662 0f9c 09       		.uleb128 0x9
 4663 0f9d 461E0000 		.4byte	.LASF325
 4664 0fa1 0B       		.byte	0xb
 4665 0fa2 AA       		.byte	0xaa
 4666 0fa3 B8000000 		.4byte	0xb8
 4667 0fa7 01       		.byte	0x1
 4668 0fa8 06       		.byte	0x6
 4669 0fa9 02       		.byte	0x2
 4670 0faa 1A       		.byte	0x1a
 4671 0fab 09       		.uleb128 0x9
 4672 0fac D70B0000 		.4byte	.LASF326
 4673 0fb0 0B       		.byte	0xb
 4674 0fb1 AB       		.byte	0xab
 4675 0fb2 B8000000 		.4byte	0xb8
 4676 0fb6 01       		.byte	0x1
 4677 0fb7 02       		.byte	0x2
 4678 0fb8 00       		.byte	0
 4679 0fb9 1A       		.byte	0x1a
 4680 0fba 00       		.byte	0
 4681 0fbb 0B       		.uleb128 0xb
 4682 0fbc 04       		.byte	0x4
 4683 0fbd F90E0000 		.4byte	0xef9
 4684 0fc1 20       		.uleb128 0x20
 4685 0fc2 C01C0000 		.4byte	.LASF415
ARM GAS  C:\Users\haske\AppData\Local\Temp\cc0eRFVw.s 			page 95


 4686 0fc6 0B       		.uleb128 0xb
 4687 0fc7 04       		.byte	0x4
 4688 0fc8 C10F0000 		.4byte	0xfc1
 4689 0fcc 02       		.uleb128 0x2
 4690 0fcd A3070000 		.4byte	.LASF327
 4691 0fd1 0B       		.byte	0xb
 4692 0fd2 AC       		.byte	0xac
 4693 0fd3 040F0000 		.4byte	0xf04
 4694 0fd7 0B       		.uleb128 0xb
 4695 0fd8 04       		.byte	0x4
 4696 0fd9 DD0F0000 		.4byte	0xfdd
 4697 0fdd 0C       		.uleb128 0xc
 4698 0fde 7F0D0000 		.4byte	0xd7f
 4699 0fe2 0B       		.uleb128 0xb
 4700 0fe3 04       		.byte	0x4
 4701 0fe4 CC0F0000 		.4byte	0xfcc
 4702 0fe8 0B       		.uleb128 0xb
 4703 0fe9 04       		.byte	0x4
 4704 0fea 270C0000 		.4byte	0xc27
 4705 0fee 21       		.uleb128 0x21
 4706 0fef 5E0F0000 		.4byte	.LASF328
 4707 0ff3 01       		.byte	0x1
 4708 0ff4 03       		.byte	0x3
 4709 0ff5 00000000 		.4byte	.LFB159
 4710 0ff9 0E000000 		.4byte	.LFE159-.LFB159
 4711 0ffd 01       		.uleb128 0x1
 4712 0ffe 9C       		.byte	0x9c
 4713 0fff 57100000 		.4byte	0x1057
 4714 1003 22       		.uleb128 0x22
 4715 1004 6F626A00 		.ascii	"obj\000"
 4716 1008 01       		.byte	0x1
 4717 1009 03       		.byte	0x3
 4718 100a F6090000 		.4byte	0x9f6
 4719 100e 00000000 		.4byte	.LLST0
 4720 1012 23       		.uleb128 0x23
 4721 1013 02090000 		.4byte	.LASF196
 4722 1017 01       		.byte	0x1
 4723 1018 03       		.byte	0x3
 4724 1019 F6000000 		.4byte	0xf6
 4725 101d 21000000 		.4byte	.LLST1
 4726 1021 23       		.uleb128 0x23
 4727 1022 161D0000 		.4byte	.LASF239
 4728 1026 01       		.byte	0x1
 4729 1027 03       		.byte	0x3
 4730 1028 D40B0000 		.4byte	0xbd4
 4731 102c 42000000 		.4byte	.LLST2
 4732 1030 24       		.uleb128 0x24
 4733 1031 7600     		.ascii	"v\000"
 4734 1033 01       		.byte	0x1
 4735 1034 05       		.byte	0x5
 4736 1035 9F060000 		.4byte	0x69f
 4737 1039 25       		.uleb128 0x25
 4738 103a 0C000000 		.4byte	.LVL3
 4739 103e 1D340000 		.4byte	0x341d
 4740 1042 26       		.uleb128 0x26
 4741 1043 01       		.uleb128 0x1
 4742 1044 50       		.byte	0x50
ARM GAS  C:\Users\haske\AppData\Local\Temp\cc0eRFVw.s 			page 96


 4743 1045 03       		.uleb128 0x3
 4744 1046 F3       		.byte	0xf3
 4745 1047 01       		.uleb128 0x1
 4746 1048 50       		.byte	0x50
 4747 1049 26       		.uleb128 0x26
 4748 104a 01       		.uleb128 0x1
 4749 104b 51       		.byte	0x51
 4750 104c 01       		.uleb128 0x1
 4751 104d 31       		.byte	0x31
 4752 104e 26       		.uleb128 0x26
 4753 104f 01       		.uleb128 0x1
 4754 1050 53       		.byte	0x53
 4755 1051 03       		.uleb128 0x3
 4756 1052 F3       		.byte	0xf3
 4757 1053 01       		.uleb128 0x1
 4758 1054 52       		.byte	0x52
 4759 1055 00       		.byte	0
 4760 1056 00       		.byte	0
 4761 1057 21       		.uleb128 0x21
 4762 1058 470D0000 		.4byte	.LASF329
 4763 105c 01       		.byte	0x1
 4764 105d 0B       		.byte	0xb
 4765 105e 00000000 		.4byte	.LFB160
 4766 1062 0E000000 		.4byte	.LFE160-.LFB160
 4767 1066 01       		.uleb128 0x1
 4768 1067 9C       		.byte	0x9c
 4769 1068 C0100000 		.4byte	0x10c0
 4770 106c 22       		.uleb128 0x22
 4771 106d 6F626A00 		.ascii	"obj\000"
 4772 1071 01       		.byte	0x1
 4773 1072 0B       		.byte	0xb
 4774 1073 F6090000 		.4byte	0x9f6
 4775 1077 6E000000 		.4byte	.LLST3
 4776 107b 23       		.uleb128 0x23
 4777 107c 02090000 		.4byte	.LASF196
 4778 1080 01       		.byte	0x1
 4779 1081 0B       		.byte	0xb
 4780 1082 F6000000 		.4byte	0xf6
 4781 1086 8F000000 		.4byte	.LLST4
 4782 108a 23       		.uleb128 0x23
 4783 108b 161D0000 		.4byte	.LASF239
 4784 108f 01       		.byte	0x1
 4785 1090 0B       		.byte	0xb
 4786 1091 D40B0000 		.4byte	0xbd4
 4787 1095 B0000000 		.4byte	.LLST5
 4788 1099 24       		.uleb128 0x24
 4789 109a 7600     		.ascii	"v\000"
 4790 109c 01       		.byte	0x1
 4791 109d 0D       		.byte	0xd
 4792 109e 9F060000 		.4byte	0x69f
 4793 10a2 25       		.uleb128 0x25
 4794 10a3 0C000000 		.4byte	.LVL7
 4795 10a7 1D340000 		.4byte	0x341d
 4796 10ab 26       		.uleb128 0x26
 4797 10ac 01       		.uleb128 0x1
 4798 10ad 50       		.byte	0x50
 4799 10ae 03       		.uleb128 0x3
ARM GAS  C:\Users\haske\AppData\Local\Temp\cc0eRFVw.s 			page 97


 4800 10af F3       		.byte	0xf3
 4801 10b0 01       		.uleb128 0x1
 4802 10b1 50       		.byte	0x50
 4803 10b2 26       		.uleb128 0x26
 4804 10b3 01       		.uleb128 0x1
 4805 10b4 51       		.byte	0x51
 4806 10b5 01       		.uleb128 0x1
 4807 10b6 32       		.byte	0x32
 4808 10b7 26       		.uleb128 0x26
 4809 10b8 01       		.uleb128 0x1
 4810 10b9 53       		.byte	0x53
 4811 10ba 03       		.uleb128 0x3
 4812 10bb F3       		.byte	0xf3
 4813 10bc 01       		.uleb128 0x1
 4814 10bd 52       		.byte	0x52
 4815 10be 00       		.byte	0
 4816 10bf 00       		.byte	0
 4817 10c0 21       		.uleb128 0x21
 4818 10c1 351C0000 		.4byte	.LASF330
 4819 10c5 01       		.byte	0x1
 4820 10c6 13       		.byte	0x13
 4821 10c7 00000000 		.4byte	.LFB161
 4822 10cb 0E000000 		.4byte	.LFE161-.LFB161
 4823 10cf 01       		.uleb128 0x1
 4824 10d0 9C       		.byte	0x9c
 4825 10d1 29110000 		.4byte	0x1129
 4826 10d5 22       		.uleb128 0x22
 4827 10d6 6F626A00 		.ascii	"obj\000"
 4828 10da 01       		.byte	0x1
 4829 10db 13       		.byte	0x13
 4830 10dc F6090000 		.4byte	0x9f6
 4831 10e0 DC000000 		.4byte	.LLST6
 4832 10e4 23       		.uleb128 0x23
 4833 10e5 02090000 		.4byte	.LASF196
 4834 10e9 01       		.byte	0x1
 4835 10ea 13       		.byte	0x13
 4836 10eb F6000000 		.4byte	0xf6
 4837 10ef FD000000 		.4byte	.LLST7
 4838 10f3 23       		.uleb128 0x23
 4839 10f4 161D0000 		.4byte	.LASF239
 4840 10f8 01       		.byte	0x1
 4841 10f9 13       		.byte	0x13
 4842 10fa D40B0000 		.4byte	0xbd4
 4843 10fe 1E010000 		.4byte	.LLST8
 4844 1102 24       		.uleb128 0x24
 4845 1103 7600     		.ascii	"v\000"
 4846 1105 01       		.byte	0x1
 4847 1106 15       		.byte	0x15
 4848 1107 9F060000 		.4byte	0x69f
 4849 110b 25       		.uleb128 0x25
 4850 110c 0C000000 		.4byte	.LVL11
 4851 1110 1D340000 		.4byte	0x341d
 4852 1114 26       		.uleb128 0x26
 4853 1115 01       		.uleb128 0x1
 4854 1116 50       		.byte	0x50
 4855 1117 03       		.uleb128 0x3
 4856 1118 F3       		.byte	0xf3
ARM GAS  C:\Users\haske\AppData\Local\Temp\cc0eRFVw.s 			page 98


 4857 1119 01       		.uleb128 0x1
 4858 111a 50       		.byte	0x50
 4859 111b 26       		.uleb128 0x26
 4860 111c 01       		.uleb128 0x1
 4861 111d 51       		.byte	0x51
 4862 111e 01       		.uleb128 0x1
 4863 111f 33       		.byte	0x33
 4864 1120 26       		.uleb128 0x26
 4865 1121 01       		.uleb128 0x1
 4866 1122 53       		.byte	0x53
 4867 1123 03       		.uleb128 0x3
 4868 1124 F3       		.byte	0xf3
 4869 1125 01       		.uleb128 0x1
 4870 1126 52       		.byte	0x52
 4871 1127 00       		.byte	0
 4872 1128 00       		.byte	0
 4873 1129 21       		.uleb128 0x21
 4874 112a F0170000 		.4byte	.LASF331
 4875 112e 01       		.byte	0x1
 4876 112f 1B       		.byte	0x1b
 4877 1130 00000000 		.4byte	.LFB162
 4878 1134 0E000000 		.4byte	.LFE162-.LFB162
 4879 1138 01       		.uleb128 0x1
 4880 1139 9C       		.byte	0x9c
 4881 113a 92110000 		.4byte	0x1192
 4882 113e 22       		.uleb128 0x22
 4883 113f 6F626A00 		.ascii	"obj\000"
 4884 1143 01       		.byte	0x1
 4885 1144 1B       		.byte	0x1b
 4886 1145 F6090000 		.4byte	0x9f6
 4887 1149 4A010000 		.4byte	.LLST9
 4888 114d 23       		.uleb128 0x23
 4889 114e 02090000 		.4byte	.LASF196
 4890 1152 01       		.byte	0x1
 4891 1153 1B       		.byte	0x1b
 4892 1154 F6000000 		.4byte	0xf6
 4893 1158 6B010000 		.4byte	.LLST10
 4894 115c 23       		.uleb128 0x23
 4895 115d 161D0000 		.4byte	.LASF239
 4896 1161 01       		.byte	0x1
 4897 1162 1B       		.byte	0x1b
 4898 1163 D40B0000 		.4byte	0xbd4
 4899 1167 8C010000 		.4byte	.LLST11
 4900 116b 24       		.uleb128 0x24
 4901 116c 7600     		.ascii	"v\000"
 4902 116e 01       		.byte	0x1
 4903 116f 1D       		.byte	0x1d
 4904 1170 9F060000 		.4byte	0x69f
 4905 1174 25       		.uleb128 0x25
 4906 1175 0C000000 		.4byte	.LVL15
 4907 1179 1D340000 		.4byte	0x341d
 4908 117d 26       		.uleb128 0x26
 4909 117e 01       		.uleb128 0x1
 4910 117f 50       		.byte	0x50
 4911 1180 03       		.uleb128 0x3
 4912 1181 F3       		.byte	0xf3
 4913 1182 01       		.uleb128 0x1
ARM GAS  C:\Users\haske\AppData\Local\Temp\cc0eRFVw.s 			page 99


 4914 1183 50       		.byte	0x50
 4915 1184 26       		.uleb128 0x26
 4916 1185 01       		.uleb128 0x1
 4917 1186 51       		.byte	0x51
 4918 1187 01       		.uleb128 0x1
 4919 1188 34       		.byte	0x34
 4920 1189 26       		.uleb128 0x26
 4921 118a 01       		.uleb128 0x1
 4922 118b 53       		.byte	0x53
 4923 118c 03       		.uleb128 0x3
 4924 118d F3       		.byte	0xf3
 4925 118e 01       		.uleb128 0x1
 4926 118f 52       		.byte	0x52
 4927 1190 00       		.byte	0
 4928 1191 00       		.byte	0
 4929 1192 21       		.uleb128 0x21
 4930 1193 61160000 		.4byte	.LASF332
 4931 1197 01       		.byte	0x1
 4932 1198 23       		.byte	0x23
 4933 1199 00000000 		.4byte	.LFB163
 4934 119d 0E000000 		.4byte	.LFE163-.LFB163
 4935 11a1 01       		.uleb128 0x1
 4936 11a2 9C       		.byte	0x9c
 4937 11a3 FB110000 		.4byte	0x11fb
 4938 11a7 22       		.uleb128 0x22
 4939 11a8 6F626A00 		.ascii	"obj\000"
 4940 11ac 01       		.byte	0x1
 4941 11ad 23       		.byte	0x23
 4942 11ae F6090000 		.4byte	0x9f6
 4943 11b2 B8010000 		.4byte	.LLST12
 4944 11b6 23       		.uleb128 0x23
 4945 11b7 02090000 		.4byte	.LASF196
 4946 11bb 01       		.byte	0x1
 4947 11bc 23       		.byte	0x23
 4948 11bd F6000000 		.4byte	0xf6
 4949 11c1 D9010000 		.4byte	.LLST13
 4950 11c5 23       		.uleb128 0x23
 4951 11c6 161D0000 		.4byte	.LASF239
 4952 11ca 01       		.byte	0x1
 4953 11cb 23       		.byte	0x23
 4954 11cc D40B0000 		.4byte	0xbd4
 4955 11d0 FA010000 		.4byte	.LLST14
 4956 11d4 24       		.uleb128 0x24
 4957 11d5 7600     		.ascii	"v\000"
 4958 11d7 01       		.byte	0x1
 4959 11d8 25       		.byte	0x25
 4960 11d9 9F060000 		.4byte	0x69f
 4961 11dd 25       		.uleb128 0x25
 4962 11de 0C000000 		.4byte	.LVL19
 4963 11e2 1D340000 		.4byte	0x341d
 4964 11e6 26       		.uleb128 0x26
 4965 11e7 01       		.uleb128 0x1
 4966 11e8 50       		.byte	0x50
 4967 11e9 03       		.uleb128 0x3
 4968 11ea F3       		.byte	0xf3
 4969 11eb 01       		.uleb128 0x1
 4970 11ec 50       		.byte	0x50
ARM GAS  C:\Users\haske\AppData\Local\Temp\cc0eRFVw.s 			page 100


 4971 11ed 26       		.uleb128 0x26
 4972 11ee 01       		.uleb128 0x1
 4973 11ef 51       		.byte	0x51
 4974 11f0 01       		.uleb128 0x1
 4975 11f1 35       		.byte	0x35
 4976 11f2 26       		.uleb128 0x26
 4977 11f3 01       		.uleb128 0x1
 4978 11f4 53       		.byte	0x53
 4979 11f5 03       		.uleb128 0x3
 4980 11f6 F3       		.byte	0xf3
 4981 11f7 01       		.uleb128 0x1
 4982 11f8 52       		.byte	0x52
 4983 11f9 00       		.byte	0
 4984 11fa 00       		.byte	0
 4985 11fb 21       		.uleb128 0x21
 4986 11fc A20D0000 		.4byte	.LASF333
 4987 1200 01       		.byte	0x1
 4988 1201 2B       		.byte	0x2b
 4989 1202 00000000 		.4byte	.LFB164
 4990 1206 0E000000 		.4byte	.LFE164-.LFB164
 4991 120a 01       		.uleb128 0x1
 4992 120b 9C       		.byte	0x9c
 4993 120c 64120000 		.4byte	0x1264
 4994 1210 22       		.uleb128 0x22
 4995 1211 6F626A00 		.ascii	"obj\000"
 4996 1215 01       		.byte	0x1
 4997 1216 2B       		.byte	0x2b
 4998 1217 F6090000 		.4byte	0x9f6
 4999 121b 26020000 		.4byte	.LLST15
 5000 121f 23       		.uleb128 0x23
 5001 1220 02090000 		.4byte	.LASF196
 5002 1224 01       		.byte	0x1
 5003 1225 2B       		.byte	0x2b
 5004 1226 F6000000 		.4byte	0xf6
 5005 122a 47020000 		.4byte	.LLST16
 5006 122e 23       		.uleb128 0x23
 5007 122f 161D0000 		.4byte	.LASF239
 5008 1233 01       		.byte	0x1
 5009 1234 2B       		.byte	0x2b
 5010 1235 D40B0000 		.4byte	0xbd4
 5011 1239 68020000 		.4byte	.LLST17
 5012 123d 24       		.uleb128 0x24
 5013 123e 7600     		.ascii	"v\000"
 5014 1240 01       		.byte	0x1
 5015 1241 2D       		.byte	0x2d
 5016 1242 9F060000 		.4byte	0x69f
 5017 1246 25       		.uleb128 0x25
 5018 1247 0C000000 		.4byte	.LVL23
 5019 124b 1D340000 		.4byte	0x341d
 5020 124f 26       		.uleb128 0x26
 5021 1250 01       		.uleb128 0x1
 5022 1251 50       		.byte	0x50
 5023 1252 03       		.uleb128 0x3
 5024 1253 F3       		.byte	0xf3
 5025 1254 01       		.uleb128 0x1
 5026 1255 50       		.byte	0x50
 5027 1256 26       		.uleb128 0x26
ARM GAS  C:\Users\haske\AppData\Local\Temp\cc0eRFVw.s 			page 101


 5028 1257 01       		.uleb128 0x1
 5029 1258 51       		.byte	0x51
 5030 1259 01       		.uleb128 0x1
 5031 125a 36       		.byte	0x36
 5032 125b 26       		.uleb128 0x26
 5033 125c 01       		.uleb128 0x1
 5034 125d 53       		.byte	0x53
 5035 125e 03       		.uleb128 0x3
 5036 125f F3       		.byte	0xf3
 5037 1260 01       		.uleb128 0x1
 5038 1261 52       		.byte	0x52
 5039 1262 00       		.byte	0
 5040 1263 00       		.byte	0
 5041 1264 21       		.uleb128 0x21
 5042 1265 00170000 		.4byte	.LASF334
 5043 1269 01       		.byte	0x1
 5044 126a 33       		.byte	0x33
 5045 126b 00000000 		.4byte	.LFB165
 5046 126f 0E000000 		.4byte	.LFE165-.LFB165
 5047 1273 01       		.uleb128 0x1
 5048 1274 9C       		.byte	0x9c
 5049 1275 CD120000 		.4byte	0x12cd
 5050 1279 22       		.uleb128 0x22
 5051 127a 6F626A00 		.ascii	"obj\000"
 5052 127e 01       		.byte	0x1
 5053 127f 33       		.byte	0x33
 5054 1280 F6090000 		.4byte	0x9f6
 5055 1284 94020000 		.4byte	.LLST18
 5056 1288 23       		.uleb128 0x23
 5057 1289 02090000 		.4byte	.LASF196
 5058 128d 01       		.byte	0x1
 5059 128e 33       		.byte	0x33
 5060 128f F6000000 		.4byte	0xf6
 5061 1293 B5020000 		.4byte	.LLST19
 5062 1297 23       		.uleb128 0x23
 5063 1298 161D0000 		.4byte	.LASF239
 5064 129c 01       		.byte	0x1
 5065 129d 33       		.byte	0x33
 5066 129e D40B0000 		.4byte	0xbd4
 5067 12a2 D6020000 		.4byte	.LLST20
 5068 12a6 24       		.uleb128 0x24
 5069 12a7 7600     		.ascii	"v\000"
 5070 12a9 01       		.byte	0x1
 5071 12aa 35       		.byte	0x35
 5072 12ab 9F060000 		.4byte	0x69f
 5073 12af 25       		.uleb128 0x25
 5074 12b0 0C000000 		.4byte	.LVL27
 5075 12b4 1D340000 		.4byte	0x341d
 5076 12b8 26       		.uleb128 0x26
 5077 12b9 01       		.uleb128 0x1
 5078 12ba 50       		.byte	0x50
 5079 12bb 03       		.uleb128 0x3
 5080 12bc F3       		.byte	0xf3
 5081 12bd 01       		.uleb128 0x1
 5082 12be 50       		.byte	0x50
 5083 12bf 26       		.uleb128 0x26
 5084 12c0 01       		.uleb128 0x1
ARM GAS  C:\Users\haske\AppData\Local\Temp\cc0eRFVw.s 			page 102


 5085 12c1 51       		.byte	0x51
 5086 12c2 01       		.uleb128 0x1
 5087 12c3 37       		.byte	0x37
 5088 12c4 26       		.uleb128 0x26
 5089 12c5 01       		.uleb128 0x1
 5090 12c6 53       		.byte	0x53
 5091 12c7 03       		.uleb128 0x3
 5092 12c8 F3       		.byte	0xf3
 5093 12c9 01       		.uleb128 0x1
 5094 12ca 52       		.byte	0x52
 5095 12cb 00       		.byte	0
 5096 12cc 00       		.byte	0
 5097 12cd 21       		.uleb128 0x21
 5098 12ce 59100000 		.4byte	.LASF335
 5099 12d2 01       		.byte	0x1
 5100 12d3 3B       		.byte	0x3b
 5101 12d4 00000000 		.4byte	.LFB166
 5102 12d8 0E000000 		.4byte	.LFE166-.LFB166
 5103 12dc 01       		.uleb128 0x1
 5104 12dd 9C       		.byte	0x9c
 5105 12de 36130000 		.4byte	0x1336
 5106 12e2 22       		.uleb128 0x22
 5107 12e3 6F626A00 		.ascii	"obj\000"
 5108 12e7 01       		.byte	0x1
 5109 12e8 3B       		.byte	0x3b
 5110 12e9 F6090000 		.4byte	0x9f6
 5111 12ed 02030000 		.4byte	.LLST21
 5112 12f1 23       		.uleb128 0x23
 5113 12f2 02090000 		.4byte	.LASF196
 5114 12f6 01       		.byte	0x1
 5115 12f7 3B       		.byte	0x3b
 5116 12f8 F6000000 		.4byte	0xf6
 5117 12fc 23030000 		.4byte	.LLST22
 5118 1300 23       		.uleb128 0x23
 5119 1301 161D0000 		.4byte	.LASF239
 5120 1305 01       		.byte	0x1
 5121 1306 3B       		.byte	0x3b
 5122 1307 D40B0000 		.4byte	0xbd4
 5123 130b 44030000 		.4byte	.LLST23
 5124 130f 24       		.uleb128 0x24
 5125 1310 7600     		.ascii	"v\000"
 5126 1312 01       		.byte	0x1
 5127 1313 3D       		.byte	0x3d
 5128 1314 9F060000 		.4byte	0x69f
 5129 1318 25       		.uleb128 0x25
 5130 1319 0C000000 		.4byte	.LVL31
 5131 131d 1D340000 		.4byte	0x341d
 5132 1321 26       		.uleb128 0x26
 5133 1322 01       		.uleb128 0x1
 5134 1323 50       		.byte	0x50
 5135 1324 03       		.uleb128 0x3
 5136 1325 F3       		.byte	0xf3
 5137 1326 01       		.uleb128 0x1
 5138 1327 50       		.byte	0x50
 5139 1328 26       		.uleb128 0x26
 5140 1329 01       		.uleb128 0x1
 5141 132a 51       		.byte	0x51
ARM GAS  C:\Users\haske\AppData\Local\Temp\cc0eRFVw.s 			page 103


 5142 132b 01       		.uleb128 0x1
 5143 132c 38       		.byte	0x38
 5144 132d 26       		.uleb128 0x26
 5145 132e 01       		.uleb128 0x1
 5146 132f 53       		.byte	0x53
 5147 1330 03       		.uleb128 0x3
 5148 1331 F3       		.byte	0xf3
 5149 1332 01       		.uleb128 0x1
 5150 1333 52       		.byte	0x52
 5151 1334 00       		.byte	0
 5152 1335 00       		.byte	0
 5153 1336 21       		.uleb128 0x21
 5154 1337 FF1C0000 		.4byte	.LASF336
 5155 133b 01       		.byte	0x1
 5156 133c 43       		.byte	0x43
 5157 133d 00000000 		.4byte	.LFB167
 5158 1341 0E000000 		.4byte	.LFE167-.LFB167
 5159 1345 01       		.uleb128 0x1
 5160 1346 9C       		.byte	0x9c
 5161 1347 9F130000 		.4byte	0x139f
 5162 134b 22       		.uleb128 0x22
 5163 134c 6F626A00 		.ascii	"obj\000"
 5164 1350 01       		.byte	0x1
 5165 1351 43       		.byte	0x43
 5166 1352 F6090000 		.4byte	0x9f6
 5167 1356 70030000 		.4byte	.LLST24
 5168 135a 23       		.uleb128 0x23
 5169 135b 02090000 		.4byte	.LASF196
 5170 135f 01       		.byte	0x1
 5171 1360 43       		.byte	0x43
 5172 1361 69010000 		.4byte	0x169
 5173 1365 91030000 		.4byte	.LLST25
 5174 1369 23       		.uleb128 0x23
 5175 136a 161D0000 		.4byte	.LASF239
 5176 136e 01       		.byte	0x1
 5177 136f 43       		.byte	0x43
 5178 1370 D40B0000 		.4byte	0xbd4
 5179 1374 B2030000 		.4byte	.LLST26
 5180 1378 24       		.uleb128 0x24
 5181 1379 7600     		.ascii	"v\000"
 5182 137b 01       		.byte	0x1
 5183 137c 45       		.byte	0x45
 5184 137d 9F060000 		.4byte	0x69f
 5185 1381 25       		.uleb128 0x25
 5186 1382 0C000000 		.4byte	.LVL35
 5187 1386 1D340000 		.4byte	0x341d
 5188 138a 26       		.uleb128 0x26
 5189 138b 01       		.uleb128 0x1
 5190 138c 50       		.byte	0x50
 5191 138d 03       		.uleb128 0x3
 5192 138e F3       		.byte	0xf3
 5193 138f 01       		.uleb128 0x1
 5194 1390 50       		.byte	0x50
 5195 1391 26       		.uleb128 0x26
 5196 1392 01       		.uleb128 0x1
 5197 1393 51       		.byte	0x51
 5198 1394 01       		.uleb128 0x1
ARM GAS  C:\Users\haske\AppData\Local\Temp\cc0eRFVw.s 			page 104


 5199 1395 39       		.byte	0x39
 5200 1396 26       		.uleb128 0x26
 5201 1397 01       		.uleb128 0x1
 5202 1398 53       		.byte	0x53
 5203 1399 03       		.uleb128 0x3
 5204 139a F3       		.byte	0xf3
 5205 139b 01       		.uleb128 0x1
 5206 139c 52       		.byte	0x52
 5207 139d 00       		.byte	0
 5208 139e 00       		.byte	0
 5209 139f 21       		.uleb128 0x21
 5210 13a0 FF040000 		.4byte	.LASF337
 5211 13a4 01       		.byte	0x1
 5212 13a5 4B       		.byte	0x4b
 5213 13a6 00000000 		.4byte	.LFB168
 5214 13aa 0E000000 		.4byte	.LFE168-.LFB168
 5215 13ae 01       		.uleb128 0x1
 5216 13af 9C       		.byte	0x9c
 5217 13b0 09140000 		.4byte	0x1409
 5218 13b4 22       		.uleb128 0x22
 5219 13b5 6F626A00 		.ascii	"obj\000"
 5220 13b9 01       		.byte	0x1
 5221 13ba 4B       		.byte	0x4b
 5222 13bb F6090000 		.4byte	0x9f6
 5223 13bf DE030000 		.4byte	.LLST27
 5224 13c3 23       		.uleb128 0x23
 5225 13c4 02090000 		.4byte	.LASF196
 5226 13c8 01       		.byte	0x1
 5227 13c9 4B       		.byte	0x4b
 5228 13ca F6000000 		.4byte	0xf6
 5229 13ce FF030000 		.4byte	.LLST28
 5230 13d2 23       		.uleb128 0x23
 5231 13d3 161D0000 		.4byte	.LASF239
 5232 13d7 01       		.byte	0x1
 5233 13d8 4B       		.byte	0x4b
 5234 13d9 D40B0000 		.4byte	0xbd4
 5235 13dd 20040000 		.4byte	.LLST29
 5236 13e1 24       		.uleb128 0x24
 5237 13e2 7600     		.ascii	"v\000"
 5238 13e4 01       		.byte	0x1
 5239 13e5 4D       		.byte	0x4d
 5240 13e6 9F060000 		.4byte	0x69f
 5241 13ea 25       		.uleb128 0x25
 5242 13eb 0C000000 		.4byte	.LVL39
 5243 13ef 1D340000 		.4byte	0x341d
 5244 13f3 26       		.uleb128 0x26
 5245 13f4 01       		.uleb128 0x1
 5246 13f5 50       		.byte	0x50
 5247 13f6 03       		.uleb128 0x3
 5248 13f7 F3       		.byte	0xf3
 5249 13f8 01       		.uleb128 0x1
 5250 13f9 50       		.byte	0x50
 5251 13fa 26       		.uleb128 0x26
 5252 13fb 01       		.uleb128 0x1
 5253 13fc 51       		.byte	0x51
 5254 13fd 02       		.uleb128 0x2
 5255 13fe 08       		.byte	0x8
ARM GAS  C:\Users\haske\AppData\Local\Temp\cc0eRFVw.s 			page 105


 5256 13ff 68       		.byte	0x68
 5257 1400 26       		.uleb128 0x26
 5258 1401 01       		.uleb128 0x1
 5259 1402 53       		.byte	0x53
 5260 1403 03       		.uleb128 0x3
 5261 1404 F3       		.byte	0xf3
 5262 1405 01       		.uleb128 0x1
 5263 1406 52       		.byte	0x52
 5264 1407 00       		.byte	0
 5265 1408 00       		.byte	0
 5266 1409 21       		.uleb128 0x21
 5267 140a 18020000 		.4byte	.LASF338
 5268 140e 01       		.byte	0x1
 5269 140f 53       		.byte	0x53
 5270 1410 00000000 		.4byte	.LFB169
 5271 1414 0E000000 		.4byte	.LFE169-.LFB169
 5272 1418 01       		.uleb128 0x1
 5273 1419 9C       		.byte	0x9c
 5274 141a 73140000 		.4byte	0x1473
 5275 141e 22       		.uleb128 0x22
 5276 141f 6F626A00 		.ascii	"obj\000"
 5277 1423 01       		.byte	0x1
 5278 1424 53       		.byte	0x53
 5279 1425 F6090000 		.4byte	0x9f6
 5280 1429 4C040000 		.4byte	.LLST30
 5281 142d 23       		.uleb128 0x23
 5282 142e 02090000 		.4byte	.LASF196
 5283 1432 01       		.byte	0x1
 5284 1433 53       		.byte	0x53
 5285 1434 F6000000 		.4byte	0xf6
 5286 1438 6D040000 		.4byte	.LLST31
 5287 143c 23       		.uleb128 0x23
 5288 143d 161D0000 		.4byte	.LASF239
 5289 1441 01       		.byte	0x1
 5290 1442 53       		.byte	0x53
 5291 1443 D40B0000 		.4byte	0xbd4
 5292 1447 8E040000 		.4byte	.LLST32
 5293 144b 24       		.uleb128 0x24
 5294 144c 7600     		.ascii	"v\000"
 5295 144e 01       		.byte	0x1
 5296 144f 55       		.byte	0x55
 5297 1450 9F060000 		.4byte	0x69f
 5298 1454 25       		.uleb128 0x25
 5299 1455 0C000000 		.4byte	.LVL43
 5300 1459 1D340000 		.4byte	0x341d
 5301 145d 26       		.uleb128 0x26
 5302 145e 01       		.uleb128 0x1
 5303 145f 50       		.byte	0x50
 5304 1460 03       		.uleb128 0x3
 5305 1461 F3       		.byte	0xf3
 5306 1462 01       		.uleb128 0x1
 5307 1463 50       		.byte	0x50
 5308 1464 26       		.uleb128 0x26
 5309 1465 01       		.uleb128 0x1
 5310 1466 51       		.byte	0x51
 5311 1467 02       		.uleb128 0x2
 5312 1468 08       		.byte	0x8
ARM GAS  C:\Users\haske\AppData\Local\Temp\cc0eRFVw.s 			page 106


 5313 1469 69       		.byte	0x69
 5314 146a 26       		.uleb128 0x26
 5315 146b 01       		.uleb128 0x1
 5316 146c 53       		.byte	0x53
 5317 146d 03       		.uleb128 0x3
 5318 146e F3       		.byte	0xf3
 5319 146f 01       		.uleb128 0x1
 5320 1470 52       		.byte	0x52
 5321 1471 00       		.byte	0
 5322 1472 00       		.byte	0
 5323 1473 21       		.uleb128 0x21
 5324 1474 D7100000 		.4byte	.LASF339
 5325 1478 01       		.byte	0x1
 5326 1479 5B       		.byte	0x5b
 5327 147a 00000000 		.4byte	.LFB170
 5328 147e 0E000000 		.4byte	.LFE170-.LFB170
 5329 1482 01       		.uleb128 0x1
 5330 1483 9C       		.byte	0x9c
 5331 1484 DD140000 		.4byte	0x14dd
 5332 1488 22       		.uleb128 0x22
 5333 1489 6F626A00 		.ascii	"obj\000"
 5334 148d 01       		.byte	0x1
 5335 148e 5B       		.byte	0x5b
 5336 148f F6090000 		.4byte	0x9f6
 5337 1493 BA040000 		.4byte	.LLST33
 5338 1497 23       		.uleb128 0x23
 5339 1498 02090000 		.4byte	.LASF196
 5340 149c 01       		.byte	0x1
 5341 149d 5B       		.byte	0x5b
 5342 149e F6000000 		.4byte	0xf6
 5343 14a2 DB040000 		.4byte	.LLST34
 5344 14a6 23       		.uleb128 0x23
 5345 14a7 161D0000 		.4byte	.LASF239
 5346 14ab 01       		.byte	0x1
 5347 14ac 5B       		.byte	0x5b
 5348 14ad D40B0000 		.4byte	0xbd4
 5349 14b1 FC040000 		.4byte	.LLST35
 5350 14b5 24       		.uleb128 0x24
 5351 14b6 7600     		.ascii	"v\000"
 5352 14b8 01       		.byte	0x1
 5353 14b9 5D       		.byte	0x5d
 5354 14ba 9F060000 		.4byte	0x69f
 5355 14be 25       		.uleb128 0x25
 5356 14bf 0C000000 		.4byte	.LVL47
 5357 14c3 1D340000 		.4byte	0x341d
 5358 14c7 26       		.uleb128 0x26
 5359 14c8 01       		.uleb128 0x1
 5360 14c9 50       		.byte	0x50
 5361 14ca 03       		.uleb128 0x3
 5362 14cb F3       		.byte	0xf3
 5363 14cc 01       		.uleb128 0x1
 5364 14cd 50       		.byte	0x50
 5365 14ce 26       		.uleb128 0x26
 5366 14cf 01       		.uleb128 0x1
 5367 14d0 51       		.byte	0x51
 5368 14d1 02       		.uleb128 0x2
 5369 14d2 08       		.byte	0x8
ARM GAS  C:\Users\haske\AppData\Local\Temp\cc0eRFVw.s 			page 107


 5370 14d3 6A       		.byte	0x6a
 5371 14d4 26       		.uleb128 0x26
 5372 14d5 01       		.uleb128 0x1
 5373 14d6 53       		.byte	0x53
 5374 14d7 03       		.uleb128 0x3
 5375 14d8 F3       		.byte	0xf3
 5376 14d9 01       		.uleb128 0x1
 5377 14da 52       		.byte	0x52
 5378 14db 00       		.byte	0
 5379 14dc 00       		.byte	0
 5380 14dd 21       		.uleb128 0x21
 5381 14de 66030000 		.4byte	.LASF340
 5382 14e2 01       		.byte	0x1
 5383 14e3 63       		.byte	0x63
 5384 14e4 00000000 		.4byte	.LFB171
 5385 14e8 0E000000 		.4byte	.LFE171-.LFB171
 5386 14ec 01       		.uleb128 0x1
 5387 14ed 9C       		.byte	0x9c
 5388 14ee 47150000 		.4byte	0x1547
 5389 14f2 22       		.uleb128 0x22
 5390 14f3 6F626A00 		.ascii	"obj\000"
 5391 14f7 01       		.byte	0x1
 5392 14f8 63       		.byte	0x63
 5393 14f9 F6090000 		.4byte	0x9f6
 5394 14fd 28050000 		.4byte	.LLST36
 5395 1501 23       		.uleb128 0x23
 5396 1502 02090000 		.4byte	.LASF196
 5397 1506 01       		.byte	0x1
 5398 1507 63       		.byte	0x63
 5399 1508 F6000000 		.4byte	0xf6
 5400 150c 49050000 		.4byte	.LLST37
 5401 1510 23       		.uleb128 0x23
 5402 1511 161D0000 		.4byte	.LASF239
 5403 1515 01       		.byte	0x1
 5404 1516 63       		.byte	0x63
 5405 1517 D40B0000 		.4byte	0xbd4
 5406 151b 6A050000 		.4byte	.LLST38
 5407 151f 24       		.uleb128 0x24
 5408 1520 7600     		.ascii	"v\000"
 5409 1522 01       		.byte	0x1
 5410 1523 65       		.byte	0x65
 5411 1524 9F060000 		.4byte	0x69f
 5412 1528 25       		.uleb128 0x25
 5413 1529 0C000000 		.4byte	.LVL51
 5414 152d 1D340000 		.4byte	0x341d
 5415 1531 26       		.uleb128 0x26
 5416 1532 01       		.uleb128 0x1
 5417 1533 50       		.byte	0x50
 5418 1534 03       		.uleb128 0x3
 5419 1535 F3       		.byte	0xf3
 5420 1536 01       		.uleb128 0x1
 5421 1537 50       		.byte	0x50
 5422 1538 26       		.uleb128 0x26
 5423 1539 01       		.uleb128 0x1
 5424 153a 51       		.byte	0x51
 5425 153b 02       		.uleb128 0x2
 5426 153c 08       		.byte	0x8
ARM GAS  C:\Users\haske\AppData\Local\Temp\cc0eRFVw.s 			page 108


 5427 153d 6B       		.byte	0x6b
 5428 153e 26       		.uleb128 0x26
 5429 153f 01       		.uleb128 0x1
 5430 1540 53       		.byte	0x53
 5431 1541 03       		.uleb128 0x3
 5432 1542 F3       		.byte	0xf3
 5433 1543 01       		.uleb128 0x1
 5434 1544 52       		.byte	0x52
 5435 1545 00       		.byte	0
 5436 1546 00       		.byte	0
 5437 1547 21       		.uleb128 0x21
 5438 1548 15040000 		.4byte	.LASF341
 5439 154c 01       		.byte	0x1
 5440 154d 6B       		.byte	0x6b
 5441 154e 00000000 		.4byte	.LFB172
 5442 1552 0E000000 		.4byte	.LFE172-.LFB172
 5443 1556 01       		.uleb128 0x1
 5444 1557 9C       		.byte	0x9c
 5445 1558 B1150000 		.4byte	0x15b1
 5446 155c 22       		.uleb128 0x22
 5447 155d 6F626A00 		.ascii	"obj\000"
 5448 1561 01       		.byte	0x1
 5449 1562 6B       		.byte	0x6b
 5450 1563 F6090000 		.4byte	0x9f6
 5451 1567 96050000 		.4byte	.LLST39
 5452 156b 23       		.uleb128 0x23
 5453 156c 02090000 		.4byte	.LASF196
 5454 1570 01       		.byte	0x1
 5455 1571 6B       		.byte	0x6b
 5456 1572 F6000000 		.4byte	0xf6
 5457 1576 B7050000 		.4byte	.LLST40
 5458 157a 23       		.uleb128 0x23
 5459 157b 161D0000 		.4byte	.LASF239
 5460 157f 01       		.byte	0x1
 5461 1580 6B       		.byte	0x6b
 5462 1581 D40B0000 		.4byte	0xbd4
 5463 1585 D8050000 		.4byte	.LLST41
 5464 1589 24       		.uleb128 0x24
 5465 158a 7600     		.ascii	"v\000"
 5466 158c 01       		.byte	0x1
 5467 158d 6D       		.byte	0x6d
 5468 158e 9F060000 		.4byte	0x69f
 5469 1592 25       		.uleb128 0x25
 5470 1593 0C000000 		.4byte	.LVL55
 5471 1597 1D340000 		.4byte	0x341d
 5472 159b 26       		.uleb128 0x26
 5473 159c 01       		.uleb128 0x1
 5474 159d 50       		.byte	0x50
 5475 159e 03       		.uleb128 0x3
 5476 159f F3       		.byte	0xf3
 5477 15a0 01       		.uleb128 0x1
 5478 15a1 50       		.byte	0x50
 5479 15a2 26       		.uleb128 0x26
 5480 15a3 01       		.uleb128 0x1
 5481 15a4 51       		.byte	0x51
 5482 15a5 02       		.uleb128 0x2
 5483 15a6 08       		.byte	0x8
ARM GAS  C:\Users\haske\AppData\Local\Temp\cc0eRFVw.s 			page 109


 5484 15a7 6C       		.byte	0x6c
 5485 15a8 26       		.uleb128 0x26
 5486 15a9 01       		.uleb128 0x1
 5487 15aa 53       		.byte	0x53
 5488 15ab 03       		.uleb128 0x3
 5489 15ac F3       		.byte	0xf3
 5490 15ad 01       		.uleb128 0x1
 5491 15ae 52       		.byte	0x52
 5492 15af 00       		.byte	0
 5493 15b0 00       		.byte	0
 5494 15b1 21       		.uleb128 0x21
 5495 15b2 0B0F0000 		.4byte	.LASF342
 5496 15b6 01       		.byte	0x1
 5497 15b7 73       		.byte	0x73
 5498 15b8 00000000 		.4byte	.LFB173
 5499 15bc 0E000000 		.4byte	.LFE173-.LFB173
 5500 15c0 01       		.uleb128 0x1
 5501 15c1 9C       		.byte	0x9c
 5502 15c2 1B160000 		.4byte	0x161b
 5503 15c6 22       		.uleb128 0x22
 5504 15c7 6F626A00 		.ascii	"obj\000"
 5505 15cb 01       		.byte	0x1
 5506 15cc 73       		.byte	0x73
 5507 15cd F6090000 		.4byte	0x9f6
 5508 15d1 04060000 		.4byte	.LLST42
 5509 15d5 23       		.uleb128 0x23
 5510 15d6 02090000 		.4byte	.LASF196
 5511 15da 01       		.byte	0x1
 5512 15db 73       		.byte	0x73
 5513 15dc F6000000 		.4byte	0xf6
 5514 15e0 25060000 		.4byte	.LLST43
 5515 15e4 23       		.uleb128 0x23
 5516 15e5 161D0000 		.4byte	.LASF239
 5517 15e9 01       		.byte	0x1
 5518 15ea 73       		.byte	0x73
 5519 15eb D40B0000 		.4byte	0xbd4
 5520 15ef 46060000 		.4byte	.LLST44
 5521 15f3 24       		.uleb128 0x24
 5522 15f4 7600     		.ascii	"v\000"
 5523 15f6 01       		.byte	0x1
 5524 15f7 75       		.byte	0x75
 5525 15f8 9F060000 		.4byte	0x69f
 5526 15fc 25       		.uleb128 0x25
 5527 15fd 0C000000 		.4byte	.LVL59
 5528 1601 1D340000 		.4byte	0x341d
 5529 1605 26       		.uleb128 0x26
 5530 1606 01       		.uleb128 0x1
 5531 1607 50       		.byte	0x50
 5532 1608 03       		.uleb128 0x3
 5533 1609 F3       		.byte	0xf3
 5534 160a 01       		.uleb128 0x1
 5535 160b 50       		.byte	0x50
 5536 160c 26       		.uleb128 0x26
 5537 160d 01       		.uleb128 0x1
 5538 160e 51       		.byte	0x51
 5539 160f 02       		.uleb128 0x2
 5540 1610 08       		.byte	0x8
ARM GAS  C:\Users\haske\AppData\Local\Temp\cc0eRFVw.s 			page 110


 5541 1611 6D       		.byte	0x6d
 5542 1612 26       		.uleb128 0x26
 5543 1613 01       		.uleb128 0x1
 5544 1614 53       		.byte	0x53
 5545 1615 03       		.uleb128 0x3
 5546 1616 F3       		.byte	0xf3
 5547 1617 01       		.uleb128 0x1
 5548 1618 52       		.byte	0x52
 5549 1619 00       		.byte	0
 5550 161a 00       		.byte	0
 5551 161b 21       		.uleb128 0x21
 5552 161c CB000000 		.4byte	.LASF343
 5553 1620 01       		.byte	0x1
 5554 1621 7B       		.byte	0x7b
 5555 1622 00000000 		.4byte	.LFB174
 5556 1626 0E000000 		.4byte	.LFE174-.LFB174
 5557 162a 01       		.uleb128 0x1
 5558 162b 9C       		.byte	0x9c
 5559 162c 85160000 		.4byte	0x1685
 5560 1630 22       		.uleb128 0x22
 5561 1631 6F626A00 		.ascii	"obj\000"
 5562 1635 01       		.byte	0x1
 5563 1636 7B       		.byte	0x7b
 5564 1637 F6090000 		.4byte	0x9f6
 5565 163b 72060000 		.4byte	.LLST45
 5566 163f 23       		.uleb128 0x23
 5567 1640 02090000 		.4byte	.LASF196
 5568 1644 01       		.byte	0x1
 5569 1645 7B       		.byte	0x7b
 5570 1646 F6000000 		.4byte	0xf6
 5571 164a 93060000 		.4byte	.LLST46
 5572 164e 23       		.uleb128 0x23
 5573 164f 161D0000 		.4byte	.LASF239
 5574 1653 01       		.byte	0x1
 5575 1654 7B       		.byte	0x7b
 5576 1655 D40B0000 		.4byte	0xbd4
 5577 1659 B4060000 		.4byte	.LLST47
 5578 165d 24       		.uleb128 0x24
 5579 165e 7600     		.ascii	"v\000"
 5580 1660 01       		.byte	0x1
 5581 1661 7D       		.byte	0x7d
 5582 1662 9F060000 		.4byte	0x69f
 5583 1666 25       		.uleb128 0x25
 5584 1667 0C000000 		.4byte	.LVL63
 5585 166b 1D340000 		.4byte	0x341d
 5586 166f 26       		.uleb128 0x26
 5587 1670 01       		.uleb128 0x1
 5588 1671 50       		.byte	0x50
 5589 1672 03       		.uleb128 0x3
 5590 1673 F3       		.byte	0xf3
 5591 1674 01       		.uleb128 0x1
 5592 1675 50       		.byte	0x50
 5593 1676 26       		.uleb128 0x26
 5594 1677 01       		.uleb128 0x1
 5595 1678 51       		.byte	0x51
 5596 1679 02       		.uleb128 0x2
 5597 167a 08       		.byte	0x8
ARM GAS  C:\Users\haske\AppData\Local\Temp\cc0eRFVw.s 			page 111


 5598 167b 6E       		.byte	0x6e
 5599 167c 26       		.uleb128 0x26
 5600 167d 01       		.uleb128 0x1
 5601 167e 53       		.byte	0x53
 5602 167f 03       		.uleb128 0x3
 5603 1680 F3       		.byte	0xf3
 5604 1681 01       		.uleb128 0x1
 5605 1682 52       		.byte	0x52
 5606 1683 00       		.byte	0
 5607 1684 00       		.byte	0
 5608 1685 21       		.uleb128 0x21
 5609 1686 EE000000 		.4byte	.LASF344
 5610 168a 01       		.byte	0x1
 5611 168b 83       		.byte	0x83
 5612 168c 00000000 		.4byte	.LFB175
 5613 1690 0E000000 		.4byte	.LFE175-.LFB175
 5614 1694 01       		.uleb128 0x1
 5615 1695 9C       		.byte	0x9c
 5616 1696 EF160000 		.4byte	0x16ef
 5617 169a 22       		.uleb128 0x22
 5618 169b 6F626A00 		.ascii	"obj\000"
 5619 169f 01       		.byte	0x1
 5620 16a0 83       		.byte	0x83
 5621 16a1 F6090000 		.4byte	0x9f6
 5622 16a5 E0060000 		.4byte	.LLST48
 5623 16a9 23       		.uleb128 0x23
 5624 16aa 02090000 		.4byte	.LASF196
 5625 16ae 01       		.byte	0x1
 5626 16af 83       		.byte	0x83
 5627 16b0 F6000000 		.4byte	0xf6
 5628 16b4 01070000 		.4byte	.LLST49
 5629 16b8 23       		.uleb128 0x23
 5630 16b9 161D0000 		.4byte	.LASF239
 5631 16bd 01       		.byte	0x1
 5632 16be 83       		.byte	0x83
 5633 16bf D40B0000 		.4byte	0xbd4
 5634 16c3 22070000 		.4byte	.LLST50
 5635 16c7 24       		.uleb128 0x24
 5636 16c8 7600     		.ascii	"v\000"
 5637 16ca 01       		.byte	0x1
 5638 16cb 85       		.byte	0x85
 5639 16cc 9F060000 		.4byte	0x69f
 5640 16d0 25       		.uleb128 0x25
 5641 16d1 0C000000 		.4byte	.LVL67
 5642 16d5 1D340000 		.4byte	0x341d
 5643 16d9 26       		.uleb128 0x26
 5644 16da 01       		.uleb128 0x1
 5645 16db 50       		.byte	0x50
 5646 16dc 03       		.uleb128 0x3
 5647 16dd F3       		.byte	0xf3
 5648 16de 01       		.uleb128 0x1
 5649 16df 50       		.byte	0x50
 5650 16e0 26       		.uleb128 0x26
 5651 16e1 01       		.uleb128 0x1
 5652 16e2 51       		.byte	0x51
 5653 16e3 02       		.uleb128 0x2
 5654 16e4 08       		.byte	0x8
ARM GAS  C:\Users\haske\AppData\Local\Temp\cc0eRFVw.s 			page 112


 5655 16e5 6F       		.byte	0x6f
 5656 16e6 26       		.uleb128 0x26
 5657 16e7 01       		.uleb128 0x1
 5658 16e8 53       		.byte	0x53
 5659 16e9 03       		.uleb128 0x3
 5660 16ea F3       		.byte	0xf3
 5661 16eb 01       		.uleb128 0x1
 5662 16ec 52       		.byte	0x52
 5663 16ed 00       		.byte	0
 5664 16ee 00       		.byte	0
 5665 16ef 21       		.uleb128 0x21
 5666 16f0 901D0000 		.4byte	.LASF345
 5667 16f4 01       		.byte	0x1
 5668 16f5 8B       		.byte	0x8b
 5669 16f6 00000000 		.4byte	.LFB176
 5670 16fa 0E000000 		.4byte	.LFE176-.LFB176
 5671 16fe 01       		.uleb128 0x1
 5672 16ff 9C       		.byte	0x9c
 5673 1700 58170000 		.4byte	0x1758
 5674 1704 22       		.uleb128 0x22
 5675 1705 6F626A00 		.ascii	"obj\000"
 5676 1709 01       		.byte	0x1
 5677 170a 8B       		.byte	0x8b
 5678 170b F6090000 		.4byte	0x9f6
 5679 170f 4E070000 		.4byte	.LLST51
 5680 1713 23       		.uleb128 0x23
 5681 1714 02090000 		.4byte	.LASF196
 5682 1718 01       		.byte	0x1
 5683 1719 8B       		.byte	0x8b
 5684 171a F6000000 		.4byte	0xf6
 5685 171e 6F070000 		.4byte	.LLST52
 5686 1722 23       		.uleb128 0x23
 5687 1723 161D0000 		.4byte	.LASF239
 5688 1727 01       		.byte	0x1
 5689 1728 8B       		.byte	0x8b
 5690 1729 D40B0000 		.4byte	0xbd4
 5691 172d 90070000 		.4byte	.LLST53
 5692 1731 24       		.uleb128 0x24
 5693 1732 7600     		.ascii	"v\000"
 5694 1734 01       		.byte	0x1
 5695 1735 8D       		.byte	0x8d
 5696 1736 9F060000 		.4byte	0x69f
 5697 173a 25       		.uleb128 0x25
 5698 173b 0C000000 		.4byte	.LVL71
 5699 173f 1D340000 		.4byte	0x341d
 5700 1743 26       		.uleb128 0x26
 5701 1744 01       		.uleb128 0x1
 5702 1745 50       		.byte	0x50
 5703 1746 03       		.uleb128 0x3
 5704 1747 F3       		.byte	0xf3
 5705 1748 01       		.uleb128 0x1
 5706 1749 50       		.byte	0x50
 5707 174a 26       		.uleb128 0x26
 5708 174b 01       		.uleb128 0x1
 5709 174c 51       		.byte	0x51
 5710 174d 01       		.uleb128 0x1
 5711 174e 40       		.byte	0x40
ARM GAS  C:\Users\haske\AppData\Local\Temp\cc0eRFVw.s 			page 113


 5712 174f 26       		.uleb128 0x26
 5713 1750 01       		.uleb128 0x1
 5714 1751 53       		.byte	0x53
 5715 1752 03       		.uleb128 0x3
 5716 1753 F3       		.byte	0xf3
 5717 1754 01       		.uleb128 0x1
 5718 1755 52       		.byte	0x52
 5719 1756 00       		.byte	0
 5720 1757 00       		.byte	0
 5721 1758 21       		.uleb128 0x21
 5722 1759 D3060000 		.4byte	.LASF346
 5723 175d 01       		.byte	0x1
 5724 175e 93       		.byte	0x93
 5725 175f 00000000 		.4byte	.LFB177
 5726 1763 0E000000 		.4byte	.LFE177-.LFB177
 5727 1767 01       		.uleb128 0x1
 5728 1768 9C       		.byte	0x9c
 5729 1769 C1170000 		.4byte	0x17c1
 5730 176d 22       		.uleb128 0x22
 5731 176e 6F626A00 		.ascii	"obj\000"
 5732 1772 01       		.byte	0x1
 5733 1773 93       		.byte	0x93
 5734 1774 F6090000 		.4byte	0x9f6
 5735 1778 BC070000 		.4byte	.LLST54
 5736 177c 23       		.uleb128 0x23
 5737 177d 02090000 		.4byte	.LASF196
 5738 1781 01       		.byte	0x1
 5739 1782 93       		.byte	0x93
 5740 1783 F6000000 		.4byte	0xf6
 5741 1787 DD070000 		.4byte	.LLST55
 5742 178b 23       		.uleb128 0x23
 5743 178c 161D0000 		.4byte	.LASF239
 5744 1790 01       		.byte	0x1
 5745 1791 93       		.byte	0x93
 5746 1792 D40B0000 		.4byte	0xbd4
 5747 1796 FE070000 		.4byte	.LLST56
 5748 179a 24       		.uleb128 0x24
 5749 179b 7600     		.ascii	"v\000"
 5750 179d 01       		.byte	0x1
 5751 179e 95       		.byte	0x95
 5752 179f 9F060000 		.4byte	0x69f
 5753 17a3 25       		.uleb128 0x25
 5754 17a4 0C000000 		.4byte	.LVL75
 5755 17a8 1D340000 		.4byte	0x341d
 5756 17ac 26       		.uleb128 0x26
 5757 17ad 01       		.uleb128 0x1
 5758 17ae 50       		.byte	0x50
 5759 17af 03       		.uleb128 0x3
 5760 17b0 F3       		.byte	0xf3
 5761 17b1 01       		.uleb128 0x1
 5762 17b2 50       		.byte	0x50
 5763 17b3 26       		.uleb128 0x26
 5764 17b4 01       		.uleb128 0x1
 5765 17b5 51       		.byte	0x51
 5766 17b6 01       		.uleb128 0x1
 5767 17b7 41       		.byte	0x41
 5768 17b8 26       		.uleb128 0x26
ARM GAS  C:\Users\haske\AppData\Local\Temp\cc0eRFVw.s 			page 114


 5769 17b9 01       		.uleb128 0x1
 5770 17ba 53       		.byte	0x53
 5771 17bb 03       		.uleb128 0x3
 5772 17bc F3       		.byte	0xf3
 5773 17bd 01       		.uleb128 0x1
 5774 17be 52       		.byte	0x52
 5775 17bf 00       		.byte	0
 5776 17c0 00       		.byte	0
 5777 17c1 21       		.uleb128 0x21
 5778 17c2 7F120000 		.4byte	.LASF347
 5779 17c6 01       		.byte	0x1
 5780 17c7 9B       		.byte	0x9b
 5781 17c8 00000000 		.4byte	.LFB178
 5782 17cc 0E000000 		.4byte	.LFE178-.LFB178
 5783 17d0 01       		.uleb128 0x1
 5784 17d1 9C       		.byte	0x9c
 5785 17d2 2A180000 		.4byte	0x182a
 5786 17d6 22       		.uleb128 0x22
 5787 17d7 6F626A00 		.ascii	"obj\000"
 5788 17db 01       		.byte	0x1
 5789 17dc 9B       		.byte	0x9b
 5790 17dd F6090000 		.4byte	0x9f6
 5791 17e1 2A080000 		.4byte	.LLST57
 5792 17e5 23       		.uleb128 0x23
 5793 17e6 02090000 		.4byte	.LASF196
 5794 17ea 01       		.byte	0x1
 5795 17eb 9B       		.byte	0x9b
 5796 17ec F6000000 		.4byte	0xf6
 5797 17f0 4B080000 		.4byte	.LLST58
 5798 17f4 23       		.uleb128 0x23
 5799 17f5 161D0000 		.4byte	.LASF239
 5800 17f9 01       		.byte	0x1
 5801 17fa 9B       		.byte	0x9b
 5802 17fb D40B0000 		.4byte	0xbd4
 5803 17ff 6C080000 		.4byte	.LLST59
 5804 1803 24       		.uleb128 0x24
 5805 1804 7600     		.ascii	"v\000"
 5806 1806 01       		.byte	0x1
 5807 1807 9D       		.byte	0x9d
 5808 1808 9F060000 		.4byte	0x69f
 5809 180c 25       		.uleb128 0x25
 5810 180d 0C000000 		.4byte	.LVL79
 5811 1811 1D340000 		.4byte	0x341d
 5812 1815 26       		.uleb128 0x26
 5813 1816 01       		.uleb128 0x1
 5814 1817 50       		.byte	0x50
 5815 1818 03       		.uleb128 0x3
 5816 1819 F3       		.byte	0xf3
 5817 181a 01       		.uleb128 0x1
 5818 181b 50       		.byte	0x50
 5819 181c 26       		.uleb128 0x26
 5820 181d 01       		.uleb128 0x1
 5821 181e 51       		.byte	0x51
 5822 181f 01       		.uleb128 0x1
 5823 1820 42       		.byte	0x42
 5824 1821 26       		.uleb128 0x26
 5825 1822 01       		.uleb128 0x1
ARM GAS  C:\Users\haske\AppData\Local\Temp\cc0eRFVw.s 			page 115


 5826 1823 53       		.byte	0x53
 5827 1824 03       		.uleb128 0x3
 5828 1825 F3       		.byte	0xf3
 5829 1826 01       		.uleb128 0x1
 5830 1827 52       		.byte	0x52
 5831 1828 00       		.byte	0
 5832 1829 00       		.byte	0
 5833 182a 21       		.uleb128 0x21
 5834 182b 47070000 		.4byte	.LASF348
 5835 182f 01       		.byte	0x1
 5836 1830 A3       		.byte	0xa3
 5837 1831 00000000 		.4byte	.LFB179
 5838 1835 0E000000 		.4byte	.LFE179-.LFB179
 5839 1839 01       		.uleb128 0x1
 5840 183a 9C       		.byte	0x9c
 5841 183b 93180000 		.4byte	0x1893
 5842 183f 22       		.uleb128 0x22
 5843 1840 6F626A00 		.ascii	"obj\000"
 5844 1844 01       		.byte	0x1
 5845 1845 A3       		.byte	0xa3
 5846 1846 F6090000 		.4byte	0x9f6
 5847 184a 98080000 		.4byte	.LLST60
 5848 184e 23       		.uleb128 0x23
 5849 184f 02090000 		.4byte	.LASF196
 5850 1853 01       		.byte	0x1
 5851 1854 A3       		.byte	0xa3
 5852 1855 F6000000 		.4byte	0xf6
 5853 1859 B9080000 		.4byte	.LLST61
 5854 185d 23       		.uleb128 0x23
 5855 185e 161D0000 		.4byte	.LASF239
 5856 1862 01       		.byte	0x1
 5857 1863 A3       		.byte	0xa3
 5858 1864 D40B0000 		.4byte	0xbd4
 5859 1868 DA080000 		.4byte	.LLST62
 5860 186c 24       		.uleb128 0x24
 5861 186d 7600     		.ascii	"v\000"
 5862 186f 01       		.byte	0x1
 5863 1870 A5       		.byte	0xa5
 5864 1871 9F060000 		.4byte	0x69f
 5865 1875 25       		.uleb128 0x25
 5866 1876 0C000000 		.4byte	.LVL83
 5867 187a 1D340000 		.4byte	0x341d
 5868 187e 26       		.uleb128 0x26
 5869 187f 01       		.uleb128 0x1
 5870 1880 50       		.byte	0x50
 5871 1881 03       		.uleb128 0x3
 5872 1882 F3       		.byte	0xf3
 5873 1883 01       		.uleb128 0x1
 5874 1884 50       		.byte	0x50
 5875 1885 26       		.uleb128 0x26
 5876 1886 01       		.uleb128 0x1
 5877 1887 51       		.byte	0x51
 5878 1888 01       		.uleb128 0x1
 5879 1889 43       		.byte	0x43
 5880 188a 26       		.uleb128 0x26
 5881 188b 01       		.uleb128 0x1
 5882 188c 53       		.byte	0x53
ARM GAS  C:\Users\haske\AppData\Local\Temp\cc0eRFVw.s 			page 116


 5883 188d 03       		.uleb128 0x3
 5884 188e F3       		.byte	0xf3
 5885 188f 01       		.uleb128 0x1
 5886 1890 52       		.byte	0x52
 5887 1891 00       		.byte	0
 5888 1892 00       		.byte	0
 5889 1893 21       		.uleb128 0x21
 5890 1894 CB120000 		.4byte	.LASF349
 5891 1898 01       		.byte	0x1
 5892 1899 AB       		.byte	0xab
 5893 189a 00000000 		.4byte	.LFB180
 5894 189e 0E000000 		.4byte	.LFE180-.LFB180
 5895 18a2 01       		.uleb128 0x1
 5896 18a3 9C       		.byte	0x9c
 5897 18a4 FC180000 		.4byte	0x18fc
 5898 18a8 22       		.uleb128 0x22
 5899 18a9 6F626A00 		.ascii	"obj\000"
 5900 18ad 01       		.byte	0x1
 5901 18ae AB       		.byte	0xab
 5902 18af F6090000 		.4byte	0x9f6
 5903 18b3 06090000 		.4byte	.LLST63
 5904 18b7 23       		.uleb128 0x23
 5905 18b8 02090000 		.4byte	.LASF196
 5906 18bc 01       		.byte	0x1
 5907 18bd AB       		.byte	0xab
 5908 18be F6000000 		.4byte	0xf6
 5909 18c2 27090000 		.4byte	.LLST64
 5910 18c6 23       		.uleb128 0x23
 5911 18c7 161D0000 		.4byte	.LASF239
 5912 18cb 01       		.byte	0x1
 5913 18cc AB       		.byte	0xab
 5914 18cd D40B0000 		.4byte	0xbd4
 5915 18d1 48090000 		.4byte	.LLST65
 5916 18d5 24       		.uleb128 0x24
 5917 18d6 7600     		.ascii	"v\000"
 5918 18d8 01       		.byte	0x1
 5919 18d9 AD       		.byte	0xad
 5920 18da 9F060000 		.4byte	0x69f
 5921 18de 25       		.uleb128 0x25
 5922 18df 0C000000 		.4byte	.LVL87
 5923 18e3 1D340000 		.4byte	0x341d
 5924 18e7 26       		.uleb128 0x26
 5925 18e8 01       		.uleb128 0x1
 5926 18e9 50       		.byte	0x50
 5927 18ea 03       		.uleb128 0x3
 5928 18eb F3       		.byte	0xf3
 5929 18ec 01       		.uleb128 0x1
 5930 18ed 50       		.byte	0x50
 5931 18ee 26       		.uleb128 0x26
 5932 18ef 01       		.uleb128 0x1
 5933 18f0 51       		.byte	0x51
 5934 18f1 01       		.uleb128 0x1
 5935 18f2 44       		.byte	0x44
 5936 18f3 26       		.uleb128 0x26
 5937 18f4 01       		.uleb128 0x1
 5938 18f5 53       		.byte	0x53
 5939 18f6 03       		.uleb128 0x3
ARM GAS  C:\Users\haske\AppData\Local\Temp\cc0eRFVw.s 			page 117


 5940 18f7 F3       		.byte	0xf3
 5941 18f8 01       		.uleb128 0x1
 5942 18f9 52       		.byte	0x52
 5943 18fa 00       		.byte	0
 5944 18fb 00       		.byte	0
 5945 18fc 21       		.uleb128 0x21
 5946 18fd 65110000 		.4byte	.LASF350
 5947 1901 01       		.byte	0x1
 5948 1902 B3       		.byte	0xb3
 5949 1903 00000000 		.4byte	.LFB181
 5950 1907 0E000000 		.4byte	.LFE181-.LFB181
 5951 190b 01       		.uleb128 0x1
 5952 190c 9C       		.byte	0x9c
 5953 190d 65190000 		.4byte	0x1965
 5954 1911 22       		.uleb128 0x22
 5955 1912 6F626A00 		.ascii	"obj\000"
 5956 1916 01       		.byte	0x1
 5957 1917 B3       		.byte	0xb3
 5958 1918 F6090000 		.4byte	0x9f6
 5959 191c 74090000 		.4byte	.LLST66
 5960 1920 23       		.uleb128 0x23
 5961 1921 02090000 		.4byte	.LASF196
 5962 1925 01       		.byte	0x1
 5963 1926 B3       		.byte	0xb3
 5964 1927 F6000000 		.4byte	0xf6
 5965 192b 95090000 		.4byte	.LLST67
 5966 192f 23       		.uleb128 0x23
 5967 1930 161D0000 		.4byte	.LASF239
 5968 1934 01       		.byte	0x1
 5969 1935 B3       		.byte	0xb3
 5970 1936 D40B0000 		.4byte	0xbd4
 5971 193a B6090000 		.4byte	.LLST68
 5972 193e 24       		.uleb128 0x24
 5973 193f 7600     		.ascii	"v\000"
 5974 1941 01       		.byte	0x1
 5975 1942 B5       		.byte	0xb5
 5976 1943 9F060000 		.4byte	0x69f
 5977 1947 25       		.uleb128 0x25
 5978 1948 0C000000 		.4byte	.LVL91
 5979 194c 1D340000 		.4byte	0x341d
 5980 1950 26       		.uleb128 0x26
 5981 1951 01       		.uleb128 0x1
 5982 1952 50       		.byte	0x50
 5983 1953 03       		.uleb128 0x3
 5984 1954 F3       		.byte	0xf3
 5985 1955 01       		.uleb128 0x1
 5986 1956 50       		.byte	0x50
 5987 1957 26       		.uleb128 0x26
 5988 1958 01       		.uleb128 0x1
 5989 1959 51       		.byte	0x51
 5990 195a 01       		.uleb128 0x1
 5991 195b 45       		.byte	0x45
 5992 195c 26       		.uleb128 0x26
 5993 195d 01       		.uleb128 0x1
 5994 195e 53       		.byte	0x53
 5995 195f 03       		.uleb128 0x3
 5996 1960 F3       		.byte	0xf3
ARM GAS  C:\Users\haske\AppData\Local\Temp\cc0eRFVw.s 			page 118


 5997 1961 01       		.uleb128 0x1
 5998 1962 52       		.byte	0x52
 5999 1963 00       		.byte	0
 6000 1964 00       		.byte	0
 6001 1965 21       		.uleb128 0x21
 6002 1966 35190000 		.4byte	.LASF351
 6003 196a 01       		.byte	0x1
 6004 196b BB       		.byte	0xbb
 6005 196c 00000000 		.4byte	.LFB182
 6006 1970 0E000000 		.4byte	.LFE182-.LFB182
 6007 1974 01       		.uleb128 0x1
 6008 1975 9C       		.byte	0x9c
 6009 1976 CF190000 		.4byte	0x19cf
 6010 197a 22       		.uleb128 0x22
 6011 197b 6F626A00 		.ascii	"obj\000"
 6012 197f 01       		.byte	0x1
 6013 1980 BB       		.byte	0xbb
 6014 1981 F6090000 		.4byte	0x9f6
 6015 1985 E2090000 		.4byte	.LLST69
 6016 1989 23       		.uleb128 0x23
 6017 198a 02090000 		.4byte	.LASF196
 6018 198e 01       		.byte	0x1
 6019 198f BB       		.byte	0xbb
 6020 1990 63030000 		.4byte	0x363
 6021 1994 030A0000 		.4byte	.LLST70
 6022 1998 23       		.uleb128 0x23
 6023 1999 161D0000 		.4byte	.LASF239
 6024 199d 01       		.byte	0x1
 6025 199e BB       		.byte	0xbb
 6026 199f D40B0000 		.4byte	0xbd4
 6027 19a3 160A0000 		.4byte	.LLST71
 6028 19a7 24       		.uleb128 0x24
 6029 19a8 7600     		.ascii	"v\000"
 6030 19aa 01       		.byte	0x1
 6031 19ab BD       		.byte	0xbd
 6032 19ac 9F060000 		.4byte	0x69f
 6033 19b0 25       		.uleb128 0x25
 6034 19b1 0C000000 		.4byte	.LVL94
 6035 19b5 1D340000 		.4byte	0x341d
 6036 19b9 26       		.uleb128 0x26
 6037 19ba 01       		.uleb128 0x1
 6038 19bb 50       		.byte	0x50
 6039 19bc 03       		.uleb128 0x3
 6040 19bd F3       		.byte	0xf3
 6041 19be 01       		.uleb128 0x1
 6042 19bf 50       		.byte	0x50
 6043 19c0 26       		.uleb128 0x26
 6044 19c1 01       		.uleb128 0x1
 6045 19c2 51       		.byte	0x51
 6046 19c3 02       		.uleb128 0x2
 6047 19c4 08       		.byte	0x8
 6048 19c5 20       		.byte	0x20
 6049 19c6 26       		.uleb128 0x26
 6050 19c7 01       		.uleb128 0x1
 6051 19c8 53       		.byte	0x53
 6052 19c9 03       		.uleb128 0x3
 6053 19ca F3       		.byte	0xf3
ARM GAS  C:\Users\haske\AppData\Local\Temp\cc0eRFVw.s 			page 119


 6054 19cb 01       		.uleb128 0x1
 6055 19cc 52       		.byte	0x52
 6056 19cd 00       		.byte	0
 6057 19ce 00       		.byte	0
 6058 19cf 21       		.uleb128 0x21
 6059 19d0 12060000 		.4byte	.LASF352
 6060 19d4 01       		.byte	0x1
 6061 19d5 C3       		.byte	0xc3
 6062 19d6 00000000 		.4byte	.LFB183
 6063 19da 0E000000 		.4byte	.LFE183-.LFB183
 6064 19de 01       		.uleb128 0x1
 6065 19df 9C       		.byte	0x9c
 6066 19e0 391A0000 		.4byte	0x1a39
 6067 19e4 22       		.uleb128 0x22
 6068 19e5 6F626A00 		.ascii	"obj\000"
 6069 19e9 01       		.byte	0x1
 6070 19ea C3       		.byte	0xc3
 6071 19eb F6090000 		.4byte	0x9f6
 6072 19ef 420A0000 		.4byte	.LLST72
 6073 19f3 23       		.uleb128 0x23
 6074 19f4 02090000 		.4byte	.LASF196
 6075 19f8 01       		.byte	0x1
 6076 19f9 C3       		.byte	0xc3
 6077 19fa 6E030000 		.4byte	0x36e
 6078 19fe 630A0000 		.4byte	.LLST73
 6079 1a02 23       		.uleb128 0x23
 6080 1a03 161D0000 		.4byte	.LASF239
 6081 1a07 01       		.byte	0x1
 6082 1a08 C3       		.byte	0xc3
 6083 1a09 D40B0000 		.4byte	0xbd4
 6084 1a0d 840A0000 		.4byte	.LLST74
 6085 1a11 24       		.uleb128 0x24
 6086 1a12 7600     		.ascii	"v\000"
 6087 1a14 01       		.byte	0x1
 6088 1a15 C5       		.byte	0xc5
 6089 1a16 9F060000 		.4byte	0x69f
 6090 1a1a 25       		.uleb128 0x25
 6091 1a1b 0C000000 		.4byte	.LVL98
 6092 1a1f 1D340000 		.4byte	0x341d
 6093 1a23 26       		.uleb128 0x26
 6094 1a24 01       		.uleb128 0x1
 6095 1a25 50       		.byte	0x50
 6096 1a26 03       		.uleb128 0x3
 6097 1a27 F3       		.byte	0xf3
 6098 1a28 01       		.uleb128 0x1
 6099 1a29 50       		.byte	0x50
 6100 1a2a 26       		.uleb128 0x26
 6101 1a2b 01       		.uleb128 0x1
 6102 1a2c 51       		.byte	0x51
 6103 1a2d 02       		.uleb128 0x2
 6104 1a2e 08       		.byte	0x8
 6105 1a2f 21       		.byte	0x21
 6106 1a30 26       		.uleb128 0x26
 6107 1a31 01       		.uleb128 0x1
 6108 1a32 53       		.byte	0x53
 6109 1a33 03       		.uleb128 0x3
 6110 1a34 F3       		.byte	0xf3
ARM GAS  C:\Users\haske\AppData\Local\Temp\cc0eRFVw.s 			page 120


 6111 1a35 01       		.uleb128 0x1
 6112 1a36 52       		.byte	0x52
 6113 1a37 00       		.byte	0
 6114 1a38 00       		.byte	0
 6115 1a39 21       		.uleb128 0x21
 6116 1a3a C9050000 		.4byte	.LASF353
 6117 1a3e 01       		.byte	0x1
 6118 1a3f CB       		.byte	0xcb
 6119 1a40 00000000 		.4byte	.LFB184
 6120 1a44 0E000000 		.4byte	.LFE184-.LFB184
 6121 1a48 01       		.uleb128 0x1
 6122 1a49 9C       		.byte	0x9c
 6123 1a4a A31A0000 		.4byte	0x1aa3
 6124 1a4e 22       		.uleb128 0x22
 6125 1a4f 6F626A00 		.ascii	"obj\000"
 6126 1a53 01       		.byte	0x1
 6127 1a54 CB       		.byte	0xcb
 6128 1a55 F6090000 		.4byte	0x9f6
 6129 1a59 B00A0000 		.4byte	.LLST75
 6130 1a5d 23       		.uleb128 0x23
 6131 1a5e 02090000 		.4byte	.LASF196
 6132 1a62 01       		.byte	0x1
 6133 1a63 CB       		.byte	0xcb
 6134 1a64 63030000 		.4byte	0x363
 6135 1a68 D10A0000 		.4byte	.LLST76
 6136 1a6c 23       		.uleb128 0x23
 6137 1a6d 161D0000 		.4byte	.LASF239
 6138 1a71 01       		.byte	0x1
 6139 1a72 CB       		.byte	0xcb
 6140 1a73 D40B0000 		.4byte	0xbd4
 6141 1a77 E40A0000 		.4byte	.LLST77
 6142 1a7b 24       		.uleb128 0x24
 6143 1a7c 7600     		.ascii	"v\000"
 6144 1a7e 01       		.byte	0x1
 6145 1a7f CD       		.byte	0xcd
 6146 1a80 9F060000 		.4byte	0x69f
 6147 1a84 25       		.uleb128 0x25
 6148 1a85 0C000000 		.4byte	.LVL101
 6149 1a89 1D340000 		.4byte	0x341d
 6150 1a8d 26       		.uleb128 0x26
 6151 1a8e 01       		.uleb128 0x1
 6152 1a8f 50       		.byte	0x50
 6153 1a90 03       		.uleb128 0x3
 6154 1a91 F3       		.byte	0xf3
 6155 1a92 01       		.uleb128 0x1
 6156 1a93 50       		.byte	0x50
 6157 1a94 26       		.uleb128 0x26
 6158 1a95 01       		.uleb128 0x1
 6159 1a96 51       		.byte	0x51
 6160 1a97 02       		.uleb128 0x2
 6161 1a98 08       		.byte	0x8
 6162 1a99 22       		.byte	0x22
 6163 1a9a 26       		.uleb128 0x26
 6164 1a9b 01       		.uleb128 0x1
 6165 1a9c 53       		.byte	0x53
 6166 1a9d 03       		.uleb128 0x3
 6167 1a9e F3       		.byte	0xf3
ARM GAS  C:\Users\haske\AppData\Local\Temp\cc0eRFVw.s 			page 121


 6168 1a9f 01       		.uleb128 0x1
 6169 1aa0 52       		.byte	0x52
 6170 1aa1 00       		.byte	0
 6171 1aa2 00       		.byte	0
 6172 1aa3 21       		.uleb128 0x21
 6173 1aa4 61090000 		.4byte	.LASF354
 6174 1aa8 01       		.byte	0x1
 6175 1aa9 D3       		.byte	0xd3
 6176 1aaa 00000000 		.4byte	.LFB185
 6177 1aae 0E000000 		.4byte	.LFE185-.LFB185
 6178 1ab2 01       		.uleb128 0x1
 6179 1ab3 9C       		.byte	0x9c
 6180 1ab4 0D1B0000 		.4byte	0x1b0d
 6181 1ab8 22       		.uleb128 0x22
 6182 1ab9 6F626A00 		.ascii	"obj\000"
 6183 1abd 01       		.byte	0x1
 6184 1abe D3       		.byte	0xd3
 6185 1abf F6090000 		.4byte	0x9f6
 6186 1ac3 100B0000 		.4byte	.LLST78
 6187 1ac7 23       		.uleb128 0x23
 6188 1ac8 02090000 		.4byte	.LASF196
 6189 1acc 01       		.byte	0x1
 6190 1acd D3       		.byte	0xd3
 6191 1ace D9050000 		.4byte	0x5d9
 6192 1ad2 310B0000 		.4byte	.LLST79
 6193 1ad6 23       		.uleb128 0x23
 6194 1ad7 161D0000 		.4byte	.LASF239
 6195 1adb 01       		.byte	0x1
 6196 1adc D3       		.byte	0xd3
 6197 1add D40B0000 		.4byte	0xbd4
 6198 1ae1 520B0000 		.4byte	.LLST80
 6199 1ae5 24       		.uleb128 0x24
 6200 1ae6 7600     		.ascii	"v\000"
 6201 1ae8 01       		.byte	0x1
 6202 1ae9 D5       		.byte	0xd5
 6203 1aea 9F060000 		.4byte	0x69f
 6204 1aee 25       		.uleb128 0x25
 6205 1aef 0C000000 		.4byte	.LVL105
 6206 1af3 1D340000 		.4byte	0x341d
 6207 1af7 26       		.uleb128 0x26
 6208 1af8 01       		.uleb128 0x1
 6209 1af9 50       		.byte	0x50
 6210 1afa 03       		.uleb128 0x3
 6211 1afb F3       		.byte	0xf3
 6212 1afc 01       		.uleb128 0x1
 6213 1afd 50       		.byte	0x50
 6214 1afe 26       		.uleb128 0x26
 6215 1aff 01       		.uleb128 0x1
 6216 1b00 51       		.byte	0x51
 6217 1b01 02       		.uleb128 0x2
 6218 1b02 08       		.byte	0x8
 6219 1b03 23       		.byte	0x23
 6220 1b04 26       		.uleb128 0x26
 6221 1b05 01       		.uleb128 0x1
 6222 1b06 53       		.byte	0x53
 6223 1b07 03       		.uleb128 0x3
 6224 1b08 F3       		.byte	0xf3
ARM GAS  C:\Users\haske\AppData\Local\Temp\cc0eRFVw.s 			page 122


 6225 1b09 01       		.uleb128 0x1
 6226 1b0a 52       		.byte	0x52
 6227 1b0b 00       		.byte	0
 6228 1b0c 00       		.byte	0
 6229 1b0d 21       		.uleb128 0x21
 6230 1b0e 0F0B0000 		.4byte	.LASF355
 6231 1b12 01       		.byte	0x1
 6232 1b13 DB       		.byte	0xdb
 6233 1b14 00000000 		.4byte	.LFB186
 6234 1b18 0E000000 		.4byte	.LFE186-.LFB186
 6235 1b1c 01       		.uleb128 0x1
 6236 1b1d 9C       		.byte	0x9c
 6237 1b1e 771B0000 		.4byte	0x1b77
 6238 1b22 22       		.uleb128 0x22
 6239 1b23 6F626A00 		.ascii	"obj\000"
 6240 1b27 01       		.byte	0x1
 6241 1b28 DB       		.byte	0xdb
 6242 1b29 F6090000 		.4byte	0x9f6
 6243 1b2d 7E0B0000 		.4byte	.LLST81
 6244 1b31 23       		.uleb128 0x23
 6245 1b32 02090000 		.4byte	.LASF196
 6246 1b36 01       		.byte	0x1
 6247 1b37 DB       		.byte	0xdb
 6248 1b38 F6000000 		.4byte	0xf6
 6249 1b3c 9F0B0000 		.4byte	.LLST82
 6250 1b40 23       		.uleb128 0x23
 6251 1b41 161D0000 		.4byte	.LASF239
 6252 1b45 01       		.byte	0x1
 6253 1b46 DB       		.byte	0xdb
 6254 1b47 D40B0000 		.4byte	0xbd4
 6255 1b4b C00B0000 		.4byte	.LLST83
 6256 1b4f 24       		.uleb128 0x24
 6257 1b50 7600     		.ascii	"v\000"
 6258 1b52 01       		.byte	0x1
 6259 1b53 DD       		.byte	0xdd
 6260 1b54 9F060000 		.4byte	0x69f
 6261 1b58 25       		.uleb128 0x25
 6262 1b59 0C000000 		.4byte	.LVL109
 6263 1b5d 1D340000 		.4byte	0x341d
 6264 1b61 26       		.uleb128 0x26
 6265 1b62 01       		.uleb128 0x1
 6266 1b63 50       		.byte	0x50
 6267 1b64 03       		.uleb128 0x3
 6268 1b65 F3       		.byte	0xf3
 6269 1b66 01       		.uleb128 0x1
 6270 1b67 50       		.byte	0x50
 6271 1b68 26       		.uleb128 0x26
 6272 1b69 01       		.uleb128 0x1
 6273 1b6a 51       		.byte	0x51
 6274 1b6b 02       		.uleb128 0x2
 6275 1b6c 08       		.byte	0x8
 6276 1b6d 24       		.byte	0x24
 6277 1b6e 26       		.uleb128 0x26
 6278 1b6f 01       		.uleb128 0x1
 6279 1b70 53       		.byte	0x53
 6280 1b71 03       		.uleb128 0x3
 6281 1b72 F3       		.byte	0xf3
ARM GAS  C:\Users\haske\AppData\Local\Temp\cc0eRFVw.s 			page 123


 6282 1b73 01       		.uleb128 0x1
 6283 1b74 52       		.byte	0x52
 6284 1b75 00       		.byte	0
 6285 1b76 00       		.byte	0
 6286 1b77 21       		.uleb128 0x21
 6287 1b78 041C0000 		.4byte	.LASF356
 6288 1b7c 01       		.byte	0x1
 6289 1b7d E3       		.byte	0xe3
 6290 1b7e 00000000 		.4byte	.LFB187
 6291 1b82 0E000000 		.4byte	.LFE187-.LFB187
 6292 1b86 01       		.uleb128 0x1
 6293 1b87 9C       		.byte	0x9c
 6294 1b88 E11B0000 		.4byte	0x1be1
 6295 1b8c 22       		.uleb128 0x22
 6296 1b8d 6F626A00 		.ascii	"obj\000"
 6297 1b91 01       		.byte	0x1
 6298 1b92 E3       		.byte	0xe3
 6299 1b93 F6090000 		.4byte	0x9f6
 6300 1b97 EC0B0000 		.4byte	.LLST84
 6301 1b9b 23       		.uleb128 0x23
 6302 1b9c 02090000 		.4byte	.LASF196
 6303 1ba0 01       		.byte	0x1
 6304 1ba1 E3       		.byte	0xe3
 6305 1ba2 F6000000 		.4byte	0xf6
 6306 1ba6 0D0C0000 		.4byte	.LLST85
 6307 1baa 23       		.uleb128 0x23
 6308 1bab 161D0000 		.4byte	.LASF239
 6309 1baf 01       		.byte	0x1
 6310 1bb0 E3       		.byte	0xe3
 6311 1bb1 D40B0000 		.4byte	0xbd4
 6312 1bb5 2E0C0000 		.4byte	.LLST86
 6313 1bb9 24       		.uleb128 0x24
 6314 1bba 7600     		.ascii	"v\000"
 6315 1bbc 01       		.byte	0x1
 6316 1bbd E5       		.byte	0xe5
 6317 1bbe 9F060000 		.4byte	0x69f
 6318 1bc2 25       		.uleb128 0x25
 6319 1bc3 0C000000 		.4byte	.LVL113
 6320 1bc7 1D340000 		.4byte	0x341d
 6321 1bcb 26       		.uleb128 0x26
 6322 1bcc 01       		.uleb128 0x1
 6323 1bcd 50       		.byte	0x50
 6324 1bce 03       		.uleb128 0x3
 6325 1bcf F3       		.byte	0xf3
 6326 1bd0 01       		.uleb128 0x1
 6327 1bd1 50       		.byte	0x50
 6328 1bd2 26       		.uleb128 0x26
 6329 1bd3 01       		.uleb128 0x1
 6330 1bd4 51       		.byte	0x51
 6331 1bd5 02       		.uleb128 0x2
 6332 1bd6 08       		.byte	0x8
 6333 1bd7 25       		.byte	0x25
 6334 1bd8 26       		.uleb128 0x26
 6335 1bd9 01       		.uleb128 0x1
 6336 1bda 53       		.byte	0x53
 6337 1bdb 03       		.uleb128 0x3
 6338 1bdc F3       		.byte	0xf3
ARM GAS  C:\Users\haske\AppData\Local\Temp\cc0eRFVw.s 			page 124


 6339 1bdd 01       		.uleb128 0x1
 6340 1bde 52       		.byte	0x52
 6341 1bdf 00       		.byte	0
 6342 1be0 00       		.byte	0
 6343 1be1 21       		.uleb128 0x21
 6344 1be2 5C050000 		.4byte	.LASF357
 6345 1be6 01       		.byte	0x1
 6346 1be7 EB       		.byte	0xeb
 6347 1be8 00000000 		.4byte	.LFB188
 6348 1bec 0E000000 		.4byte	.LFE188-.LFB188
 6349 1bf0 01       		.uleb128 0x1
 6350 1bf1 9C       		.byte	0x9c
 6351 1bf2 521C0000 		.4byte	0x1c52
 6352 1bf6 22       		.uleb128 0x22
 6353 1bf7 6F626A00 		.ascii	"obj\000"
 6354 1bfb 01       		.byte	0x1
 6355 1bfc EB       		.byte	0xeb
 6356 1bfd F6090000 		.4byte	0x9f6
 6357 1c01 5A0C0000 		.4byte	.LLST87
 6358 1c05 23       		.uleb128 0x23
 6359 1c06 02090000 		.4byte	.LASF196
 6360 1c0a 01       		.byte	0x1
 6361 1c0b EB       		.byte	0xeb
 6362 1c0c 521C0000 		.4byte	0x1c52
 6363 1c10 7B0C0000 		.4byte	.LLST88
 6364 1c14 23       		.uleb128 0x23
 6365 1c15 161D0000 		.4byte	.LASF239
 6366 1c19 01       		.byte	0x1
 6367 1c1a EB       		.byte	0xeb
 6368 1c1b D40B0000 		.4byte	0xbd4
 6369 1c1f A70C0000 		.4byte	.LLST89
 6370 1c23 24       		.uleb128 0x24
 6371 1c24 7600     		.ascii	"v\000"
 6372 1c26 01       		.byte	0x1
 6373 1c27 ED       		.byte	0xed
 6374 1c28 9F060000 		.4byte	0x69f
 6375 1c2c 25       		.uleb128 0x25
 6376 1c2d 0C000000 		.4byte	.LVL117
 6377 1c31 1D340000 		.4byte	0x341d
 6378 1c35 26       		.uleb128 0x26
 6379 1c36 01       		.uleb128 0x1
 6380 1c37 50       		.byte	0x50
 6381 1c38 03       		.uleb128 0x3
 6382 1c39 F3       		.byte	0xf3
 6383 1c3a 01       		.uleb128 0x1
 6384 1c3b 50       		.byte	0x50
 6385 1c3c 26       		.uleb128 0x26
 6386 1c3d 01       		.uleb128 0x1
 6387 1c3e 51       		.byte	0x51
 6388 1c3f 02       		.uleb128 0x2
 6389 1c40 08       		.byte	0x8
 6390 1c41 26       		.byte	0x26
 6391 1c42 26       		.uleb128 0x26
 6392 1c43 01       		.uleb128 0x1
 6393 1c44 52       		.byte	0x52
 6394 1c45 03       		.uleb128 0x3
 6395 1c46 F3       		.byte	0xf3
ARM GAS  C:\Users\haske\AppData\Local\Temp\cc0eRFVw.s 			page 125


 6396 1c47 01       		.uleb128 0x1
 6397 1c48 51       		.byte	0x51
 6398 1c49 26       		.uleb128 0x26
 6399 1c4a 01       		.uleb128 0x1
 6400 1c4b 53       		.byte	0x53
 6401 1c4c 03       		.uleb128 0x3
 6402 1c4d F3       		.byte	0xf3
 6403 1c4e 01       		.uleb128 0x1
 6404 1c4f 52       		.byte	0x52
 6405 1c50 00       		.byte	0
 6406 1c51 00       		.byte	0
 6407 1c52 0B       		.uleb128 0xb
 6408 1c53 04       		.byte	0x4
 6409 1c54 581C0000 		.4byte	0x1c58
 6410 1c58 0C       		.uleb128 0xc
 6411 1c59 6A060000 		.4byte	0x66a
 6412 1c5d 21       		.uleb128 0x21
 6413 1c5e 2E090000 		.4byte	.LASF358
 6414 1c62 01       		.byte	0x1
 6415 1c63 F3       		.byte	0xf3
 6416 1c64 00000000 		.4byte	.LFB189
 6417 1c68 0E000000 		.4byte	.LFE189-.LFB189
 6418 1c6c 01       		.uleb128 0x1
 6419 1c6d 9C       		.byte	0x9c
 6420 1c6e C71C0000 		.4byte	0x1cc7
 6421 1c72 22       		.uleb128 0x22
 6422 1c73 6F626A00 		.ascii	"obj\000"
 6423 1c77 01       		.byte	0x1
 6424 1c78 F3       		.byte	0xf3
 6425 1c79 F6090000 		.4byte	0x9f6
 6426 1c7d D30C0000 		.4byte	.LLST90
 6427 1c81 23       		.uleb128 0x23
 6428 1c82 02090000 		.4byte	.LASF196
 6429 1c86 01       		.byte	0x1
 6430 1c87 F3       		.byte	0xf3
 6431 1c88 E4050000 		.4byte	0x5e4
 6432 1c8c F40C0000 		.4byte	.LLST91
 6433 1c90 23       		.uleb128 0x23
 6434 1c91 161D0000 		.4byte	.LASF239
 6435 1c95 01       		.byte	0x1
 6436 1c96 F3       		.byte	0xf3
 6437 1c97 D40B0000 		.4byte	0xbd4
 6438 1c9b 150D0000 		.4byte	.LLST92
 6439 1c9f 24       		.uleb128 0x24
 6440 1ca0 7600     		.ascii	"v\000"
 6441 1ca2 01       		.byte	0x1
 6442 1ca3 F5       		.byte	0xf5
 6443 1ca4 9F060000 		.4byte	0x69f
 6444 1ca8 25       		.uleb128 0x25
 6445 1ca9 0C000000 		.4byte	.LVL121
 6446 1cad 1D340000 		.4byte	0x341d
 6447 1cb1 26       		.uleb128 0x26
 6448 1cb2 01       		.uleb128 0x1
 6449 1cb3 50       		.byte	0x50
 6450 1cb4 03       		.uleb128 0x3
 6451 1cb5 F3       		.byte	0xf3
 6452 1cb6 01       		.uleb128 0x1
ARM GAS  C:\Users\haske\AppData\Local\Temp\cc0eRFVw.s 			page 126


 6453 1cb7 50       		.byte	0x50
 6454 1cb8 26       		.uleb128 0x26
 6455 1cb9 01       		.uleb128 0x1
 6456 1cba 51       		.byte	0x51
 6457 1cbb 02       		.uleb128 0x2
 6458 1cbc 08       		.byte	0x8
 6459 1cbd 27       		.byte	0x27
 6460 1cbe 26       		.uleb128 0x26
 6461 1cbf 01       		.uleb128 0x1
 6462 1cc0 53       		.byte	0x53
 6463 1cc1 03       		.uleb128 0x3
 6464 1cc2 F3       		.byte	0xf3
 6465 1cc3 01       		.uleb128 0x1
 6466 1cc4 52       		.byte	0x52
 6467 1cc5 00       		.byte	0
 6468 1cc6 00       		.byte	0
 6469 1cc7 21       		.uleb128 0x21
 6470 1cc8 080D0000 		.4byte	.LASF359
 6471 1ccc 01       		.byte	0x1
 6472 1ccd FB       		.byte	0xfb
 6473 1cce 00000000 		.4byte	.LFB190
 6474 1cd2 0E000000 		.4byte	.LFE190-.LFB190
 6475 1cd6 01       		.uleb128 0x1
 6476 1cd7 9C       		.byte	0x9c
 6477 1cd8 381D0000 		.4byte	0x1d38
 6478 1cdc 22       		.uleb128 0x22
 6479 1cdd 6F626A00 		.ascii	"obj\000"
 6480 1ce1 01       		.byte	0x1
 6481 1ce2 FB       		.byte	0xfb
 6482 1ce3 F6090000 		.4byte	0x9f6
 6483 1ce7 410D0000 		.4byte	.LLST93
 6484 1ceb 23       		.uleb128 0x23
 6485 1cec 02090000 		.4byte	.LASF196
 6486 1cf0 01       		.byte	0x1
 6487 1cf1 FB       		.byte	0xfb
 6488 1cf2 E2020000 		.4byte	0x2e2
 6489 1cf6 620D0000 		.4byte	.LLST94
 6490 1cfa 23       		.uleb128 0x23
 6491 1cfb 161D0000 		.4byte	.LASF239
 6492 1cff 01       		.byte	0x1
 6493 1d00 FB       		.byte	0xfb
 6494 1d01 D40B0000 		.4byte	0xbd4
 6495 1d05 8E0D0000 		.4byte	.LLST95
 6496 1d09 24       		.uleb128 0x24
 6497 1d0a 7600     		.ascii	"v\000"
 6498 1d0c 01       		.byte	0x1
 6499 1d0d FD       		.byte	0xfd
 6500 1d0e 9F060000 		.4byte	0x69f
 6501 1d12 25       		.uleb128 0x25
 6502 1d13 0C000000 		.4byte	.LVL125
 6503 1d17 1D340000 		.4byte	0x341d
 6504 1d1b 26       		.uleb128 0x26
 6505 1d1c 01       		.uleb128 0x1
 6506 1d1d 50       		.byte	0x50
 6507 1d1e 03       		.uleb128 0x3
 6508 1d1f F3       		.byte	0xf3
 6509 1d20 01       		.uleb128 0x1
ARM GAS  C:\Users\haske\AppData\Local\Temp\cc0eRFVw.s 			page 127


 6510 1d21 50       		.byte	0x50
 6511 1d22 26       		.uleb128 0x26
 6512 1d23 01       		.uleb128 0x1
 6513 1d24 51       		.byte	0x51
 6514 1d25 02       		.uleb128 0x2
 6515 1d26 08       		.byte	0x8
 6516 1d27 28       		.byte	0x28
 6517 1d28 26       		.uleb128 0x26
 6518 1d29 01       		.uleb128 0x1
 6519 1d2a 52       		.byte	0x52
 6520 1d2b 03       		.uleb128 0x3
 6521 1d2c F3       		.byte	0xf3
 6522 1d2d 01       		.uleb128 0x1
 6523 1d2e 51       		.byte	0x51
 6524 1d2f 26       		.uleb128 0x26
 6525 1d30 01       		.uleb128 0x1
 6526 1d31 53       		.byte	0x53
 6527 1d32 03       		.uleb128 0x3
 6528 1d33 F3       		.byte	0xf3
 6529 1d34 01       		.uleb128 0x1
 6530 1d35 52       		.byte	0x52
 6531 1d36 00       		.byte	0
 6532 1d37 00       		.byte	0
 6533 1d38 27       		.uleb128 0x27
 6534 1d39 EF0E0000 		.4byte	.LASF360
 6535 1d3d 01       		.byte	0x1
 6536 1d3e 0301     		.2byte	0x103
 6537 1d40 00000000 		.4byte	.LFB191
 6538 1d44 0E000000 		.4byte	.LFE191-.LFB191
 6539 1d48 01       		.uleb128 0x1
 6540 1d49 9C       		.byte	0x9c
 6541 1d4a A71D0000 		.4byte	0x1da7
 6542 1d4e 28       		.uleb128 0x28
 6543 1d4f 6F626A00 		.ascii	"obj\000"
 6544 1d53 01       		.byte	0x1
 6545 1d54 0301     		.2byte	0x103
 6546 1d56 F6090000 		.4byte	0x9f6
 6547 1d5a BA0D0000 		.4byte	.LLST96
 6548 1d5e 29       		.uleb128 0x29
 6549 1d5f 02090000 		.4byte	.LASF196
 6550 1d63 01       		.byte	0x1
 6551 1d64 0301     		.2byte	0x103
 6552 1d66 6E030000 		.4byte	0x36e
 6553 1d6a DB0D0000 		.4byte	.LLST97
 6554 1d6e 29       		.uleb128 0x29
 6555 1d6f 161D0000 		.4byte	.LASF239
 6556 1d73 01       		.byte	0x1
 6557 1d74 0301     		.2byte	0x103
 6558 1d76 D40B0000 		.4byte	0xbd4
 6559 1d7a FC0D0000 		.4byte	.LLST98
 6560 1d7e 2A       		.uleb128 0x2a
 6561 1d7f 7600     		.ascii	"v\000"
 6562 1d81 01       		.byte	0x1
 6563 1d82 0501     		.2byte	0x105
 6564 1d84 9F060000 		.4byte	0x69f
 6565 1d88 25       		.uleb128 0x25
 6566 1d89 0C000000 		.4byte	.LVL129
ARM GAS  C:\Users\haske\AppData\Local\Temp\cc0eRFVw.s 			page 128


 6567 1d8d 1D340000 		.4byte	0x341d
 6568 1d91 26       		.uleb128 0x26
 6569 1d92 01       		.uleb128 0x1
 6570 1d93 50       		.byte	0x50
 6571 1d94 03       		.uleb128 0x3
 6572 1d95 F3       		.byte	0xf3
 6573 1d96 01       		.uleb128 0x1
 6574 1d97 50       		.byte	0x50
 6575 1d98 26       		.uleb128 0x26
 6576 1d99 01       		.uleb128 0x1
 6577 1d9a 51       		.byte	0x51
 6578 1d9b 02       		.uleb128 0x2
 6579 1d9c 08       		.byte	0x8
 6580 1d9d 29       		.byte	0x29
 6581 1d9e 26       		.uleb128 0x26
 6582 1d9f 01       		.uleb128 0x1
 6583 1da0 53       		.byte	0x53
 6584 1da1 03       		.uleb128 0x3
 6585 1da2 F3       		.byte	0xf3
 6586 1da3 01       		.uleb128 0x1
 6587 1da4 52       		.byte	0x52
 6588 1da5 00       		.byte	0
 6589 1da6 00       		.byte	0
 6590 1da7 27       		.uleb128 0x27
 6591 1da8 21150000 		.4byte	.LASF361
 6592 1dac 01       		.byte	0x1
 6593 1dad 0B01     		.2byte	0x10b
 6594 1daf 00000000 		.4byte	.LFB192
 6595 1db3 0E000000 		.4byte	.LFE192-.LFB192
 6596 1db7 01       		.uleb128 0x1
 6597 1db8 9C       		.byte	0x9c
 6598 1db9 161E0000 		.4byte	0x1e16
 6599 1dbd 28       		.uleb128 0x28
 6600 1dbe 6F626A00 		.ascii	"obj\000"
 6601 1dc2 01       		.byte	0x1
 6602 1dc3 0B01     		.2byte	0x10b
 6603 1dc5 F6090000 		.4byte	0x9f6
 6604 1dc9 280E0000 		.4byte	.LLST99
 6605 1dcd 29       		.uleb128 0x29
 6606 1dce 02090000 		.4byte	.LASF196
 6607 1dd2 01       		.byte	0x1
 6608 1dd3 0B01     		.2byte	0x10b
 6609 1dd5 63030000 		.4byte	0x363
 6610 1dd9 490E0000 		.4byte	.LLST100
 6611 1ddd 29       		.uleb128 0x29
 6612 1dde 161D0000 		.4byte	.LASF239
 6613 1de2 01       		.byte	0x1
 6614 1de3 0B01     		.2byte	0x10b
 6615 1de5 D40B0000 		.4byte	0xbd4
 6616 1de9 5C0E0000 		.4byte	.LLST101
 6617 1ded 2A       		.uleb128 0x2a
 6618 1dee 7600     		.ascii	"v\000"
 6619 1df0 01       		.byte	0x1
 6620 1df1 0D01     		.2byte	0x10d
 6621 1df3 9F060000 		.4byte	0x69f
 6622 1df7 25       		.uleb128 0x25
 6623 1df8 0C000000 		.4byte	.LVL132
ARM GAS  C:\Users\haske\AppData\Local\Temp\cc0eRFVw.s 			page 129


 6624 1dfc 1D340000 		.4byte	0x341d
 6625 1e00 26       		.uleb128 0x26
 6626 1e01 01       		.uleb128 0x1
 6627 1e02 50       		.byte	0x50
 6628 1e03 03       		.uleb128 0x3
 6629 1e04 F3       		.byte	0xf3
 6630 1e05 01       		.uleb128 0x1
 6631 1e06 50       		.byte	0x50
 6632 1e07 26       		.uleb128 0x26
 6633 1e08 01       		.uleb128 0x1
 6634 1e09 51       		.byte	0x51
 6635 1e0a 02       		.uleb128 0x2
 6636 1e0b 08       		.byte	0x8
 6637 1e0c 2A       		.byte	0x2a
 6638 1e0d 26       		.uleb128 0x26
 6639 1e0e 01       		.uleb128 0x1
 6640 1e0f 53       		.byte	0x53
 6641 1e10 03       		.uleb128 0x3
 6642 1e11 F3       		.byte	0xf3
 6643 1e12 01       		.uleb128 0x1
 6644 1e13 52       		.byte	0x52
 6645 1e14 00       		.byte	0
 6646 1e15 00       		.byte	0
 6647 1e16 27       		.uleb128 0x27
 6648 1e17 BE0D0000 		.4byte	.LASF362
 6649 1e1b 01       		.byte	0x1
 6650 1e1c 1301     		.2byte	0x113
 6651 1e1e 00000000 		.4byte	.LFB193
 6652 1e22 0E000000 		.4byte	.LFE193-.LFB193
 6653 1e26 01       		.uleb128 0x1
 6654 1e27 9C       		.byte	0x9c
 6655 1e28 851E0000 		.4byte	0x1e85
 6656 1e2c 28       		.uleb128 0x28
 6657 1e2d 6F626A00 		.ascii	"obj\000"
 6658 1e31 01       		.byte	0x1
 6659 1e32 1301     		.2byte	0x113
 6660 1e34 F6090000 		.4byte	0x9f6
 6661 1e38 880E0000 		.4byte	.LLST102
 6662 1e3c 29       		.uleb128 0x29
 6663 1e3d 02090000 		.4byte	.LASF196
 6664 1e41 01       		.byte	0x1
 6665 1e42 1301     		.2byte	0x113
 6666 1e44 6E030000 		.4byte	0x36e
 6667 1e48 A90E0000 		.4byte	.LLST103
 6668 1e4c 29       		.uleb128 0x29
 6669 1e4d 161D0000 		.4byte	.LASF239
 6670 1e51 01       		.byte	0x1
 6671 1e52 1301     		.2byte	0x113
 6672 1e54 D40B0000 		.4byte	0xbd4
 6673 1e58 CA0E0000 		.4byte	.LLST104
 6674 1e5c 2A       		.uleb128 0x2a
 6675 1e5d 7600     		.ascii	"v\000"
 6676 1e5f 01       		.byte	0x1
 6677 1e60 1501     		.2byte	0x115
 6678 1e62 9F060000 		.4byte	0x69f
 6679 1e66 25       		.uleb128 0x25
 6680 1e67 0C000000 		.4byte	.LVL136
ARM GAS  C:\Users\haske\AppData\Local\Temp\cc0eRFVw.s 			page 130


 6681 1e6b 1D340000 		.4byte	0x341d
 6682 1e6f 26       		.uleb128 0x26
 6683 1e70 01       		.uleb128 0x1
 6684 1e71 50       		.byte	0x50
 6685 1e72 03       		.uleb128 0x3
 6686 1e73 F3       		.byte	0xf3
 6687 1e74 01       		.uleb128 0x1
 6688 1e75 50       		.byte	0x50
 6689 1e76 26       		.uleb128 0x26
 6690 1e77 01       		.uleb128 0x1
 6691 1e78 51       		.byte	0x51
 6692 1e79 02       		.uleb128 0x2
 6693 1e7a 08       		.byte	0x8
 6694 1e7b 2B       		.byte	0x2b
 6695 1e7c 26       		.uleb128 0x26
 6696 1e7d 01       		.uleb128 0x1
 6697 1e7e 53       		.byte	0x53
 6698 1e7f 03       		.uleb128 0x3
 6699 1e80 F3       		.byte	0xf3
 6700 1e81 01       		.uleb128 0x1
 6701 1e82 52       		.byte	0x52
 6702 1e83 00       		.byte	0
 6703 1e84 00       		.byte	0
 6704 1e85 27       		.uleb128 0x27
 6705 1e86 04110000 		.4byte	.LASF363
 6706 1e8a 01       		.byte	0x1
 6707 1e8b 1B01     		.2byte	0x11b
 6708 1e8d 00000000 		.4byte	.LFB194
 6709 1e91 0E000000 		.4byte	.LFE194-.LFB194
 6710 1e95 01       		.uleb128 0x1
 6711 1e96 9C       		.byte	0x9c
 6712 1e97 F41E0000 		.4byte	0x1ef4
 6713 1e9b 28       		.uleb128 0x28
 6714 1e9c 6F626A00 		.ascii	"obj\000"
 6715 1ea0 01       		.byte	0x1
 6716 1ea1 1B01     		.2byte	0x11b
 6717 1ea3 F6090000 		.4byte	0x9f6
 6718 1ea7 F60E0000 		.4byte	.LLST105
 6719 1eab 29       		.uleb128 0x29
 6720 1eac 02090000 		.4byte	.LASF196
 6721 1eb0 01       		.byte	0x1
 6722 1eb1 1B01     		.2byte	0x11b
 6723 1eb3 AA020000 		.4byte	0x2aa
 6724 1eb7 170F0000 		.4byte	.LLST106
 6725 1ebb 29       		.uleb128 0x29
 6726 1ebc 161D0000 		.4byte	.LASF239
 6727 1ec0 01       		.byte	0x1
 6728 1ec1 1B01     		.2byte	0x11b
 6729 1ec3 D40B0000 		.4byte	0xbd4
 6730 1ec7 380F0000 		.4byte	.LLST107
 6731 1ecb 2A       		.uleb128 0x2a
 6732 1ecc 7600     		.ascii	"v\000"
 6733 1ece 01       		.byte	0x1
 6734 1ecf 1D01     		.2byte	0x11d
 6735 1ed1 9F060000 		.4byte	0x69f
 6736 1ed5 25       		.uleb128 0x25
 6737 1ed6 0C000000 		.4byte	.LVL140
ARM GAS  C:\Users\haske\AppData\Local\Temp\cc0eRFVw.s 			page 131


 6738 1eda 1D340000 		.4byte	0x341d
 6739 1ede 26       		.uleb128 0x26
 6740 1edf 01       		.uleb128 0x1
 6741 1ee0 50       		.byte	0x50
 6742 1ee1 03       		.uleb128 0x3
 6743 1ee2 F3       		.byte	0xf3
 6744 1ee3 01       		.uleb128 0x1
 6745 1ee4 50       		.byte	0x50
 6746 1ee5 26       		.uleb128 0x26
 6747 1ee6 01       		.uleb128 0x1
 6748 1ee7 51       		.byte	0x51
 6749 1ee8 02       		.uleb128 0x2
 6750 1ee9 08       		.byte	0x8
 6751 1eea 2C       		.byte	0x2c
 6752 1eeb 26       		.uleb128 0x26
 6753 1eec 01       		.uleb128 0x1
 6754 1eed 53       		.byte	0x53
 6755 1eee 03       		.uleb128 0x3
 6756 1eef F3       		.byte	0xf3
 6757 1ef0 01       		.uleb128 0x1
 6758 1ef1 52       		.byte	0x52
 6759 1ef2 00       		.byte	0
 6760 1ef3 00       		.byte	0
 6761 1ef4 27       		.uleb128 0x27
 6762 1ef5 BA090000 		.4byte	.LASF364
 6763 1ef9 01       		.byte	0x1
 6764 1efa 2301     		.2byte	0x123
 6765 1efc 00000000 		.4byte	.LFB195
 6766 1f00 0E000000 		.4byte	.LFE195-.LFB195
 6767 1f04 01       		.uleb128 0x1
 6768 1f05 9C       		.byte	0x9c
 6769 1f06 631F0000 		.4byte	0x1f63
 6770 1f0a 28       		.uleb128 0x28
 6771 1f0b 6F626A00 		.ascii	"obj\000"
 6772 1f0f 01       		.byte	0x1
 6773 1f10 2301     		.2byte	0x123
 6774 1f12 F6090000 		.4byte	0x9f6
 6775 1f16 640F0000 		.4byte	.LLST108
 6776 1f1a 29       		.uleb128 0x29
 6777 1f1b 02090000 		.4byte	.LASF196
 6778 1f1f 01       		.byte	0x1
 6779 1f20 2301     		.2byte	0x123
 6780 1f22 63030000 		.4byte	0x363
 6781 1f26 850F0000 		.4byte	.LLST109
 6782 1f2a 29       		.uleb128 0x29
 6783 1f2b 161D0000 		.4byte	.LASF239
 6784 1f2f 01       		.byte	0x1
 6785 1f30 2301     		.2byte	0x123
 6786 1f32 D40B0000 		.4byte	0xbd4
 6787 1f36 980F0000 		.4byte	.LLST110
 6788 1f3a 2A       		.uleb128 0x2a
 6789 1f3b 7600     		.ascii	"v\000"
 6790 1f3d 01       		.byte	0x1
 6791 1f3e 2501     		.2byte	0x125
 6792 1f40 9F060000 		.4byte	0x69f
 6793 1f44 25       		.uleb128 0x25
 6794 1f45 0C000000 		.4byte	.LVL143
ARM GAS  C:\Users\haske\AppData\Local\Temp\cc0eRFVw.s 			page 132


 6795 1f49 1D340000 		.4byte	0x341d
 6796 1f4d 26       		.uleb128 0x26
 6797 1f4e 01       		.uleb128 0x1
 6798 1f4f 50       		.byte	0x50
 6799 1f50 03       		.uleb128 0x3
 6800 1f51 F3       		.byte	0xf3
 6801 1f52 01       		.uleb128 0x1
 6802 1f53 50       		.byte	0x50
 6803 1f54 26       		.uleb128 0x26
 6804 1f55 01       		.uleb128 0x1
 6805 1f56 51       		.byte	0x51
 6806 1f57 02       		.uleb128 0x2
 6807 1f58 08       		.byte	0x8
 6808 1f59 30       		.byte	0x30
 6809 1f5a 26       		.uleb128 0x26
 6810 1f5b 01       		.uleb128 0x1
 6811 1f5c 53       		.byte	0x53
 6812 1f5d 03       		.uleb128 0x3
 6813 1f5e F3       		.byte	0xf3
 6814 1f5f 01       		.uleb128 0x1
 6815 1f60 52       		.byte	0x52
 6816 1f61 00       		.byte	0
 6817 1f62 00       		.byte	0
 6818 1f63 27       		.uleb128 0x27
 6819 1f64 B9020000 		.4byte	.LASF365
 6820 1f68 01       		.byte	0x1
 6821 1f69 2B01     		.2byte	0x12b
 6822 1f6b 00000000 		.4byte	.LFB196
 6823 1f6f 0E000000 		.4byte	.LFE196-.LFB196
 6824 1f73 01       		.uleb128 0x1
 6825 1f74 9C       		.byte	0x9c
 6826 1f75 D21F0000 		.4byte	0x1fd2
 6827 1f79 28       		.uleb128 0x28
 6828 1f7a 6F626A00 		.ascii	"obj\000"
 6829 1f7e 01       		.byte	0x1
 6830 1f7f 2B01     		.2byte	0x12b
 6831 1f81 F6090000 		.4byte	0x9f6
 6832 1f85 C40F0000 		.4byte	.LLST111
 6833 1f89 29       		.uleb128 0x29
 6834 1f8a 02090000 		.4byte	.LASF196
 6835 1f8e 01       		.byte	0x1
 6836 1f8f 2B01     		.2byte	0x12b
 6837 1f91 6E030000 		.4byte	0x36e
 6838 1f95 E50F0000 		.4byte	.LLST112
 6839 1f99 29       		.uleb128 0x29
 6840 1f9a 161D0000 		.4byte	.LASF239
 6841 1f9e 01       		.byte	0x1
 6842 1f9f 2B01     		.2byte	0x12b
 6843 1fa1 D40B0000 		.4byte	0xbd4
 6844 1fa5 06100000 		.4byte	.LLST113
 6845 1fa9 2A       		.uleb128 0x2a
 6846 1faa 7600     		.ascii	"v\000"
 6847 1fac 01       		.byte	0x1
 6848 1fad 2D01     		.2byte	0x12d
 6849 1faf 9F060000 		.4byte	0x69f
 6850 1fb3 25       		.uleb128 0x25
 6851 1fb4 0C000000 		.4byte	.LVL147
ARM GAS  C:\Users\haske\AppData\Local\Temp\cc0eRFVw.s 			page 133


 6852 1fb8 1D340000 		.4byte	0x341d
 6853 1fbc 26       		.uleb128 0x26
 6854 1fbd 01       		.uleb128 0x1
 6855 1fbe 50       		.byte	0x50
 6856 1fbf 03       		.uleb128 0x3
 6857 1fc0 F3       		.byte	0xf3
 6858 1fc1 01       		.uleb128 0x1
 6859 1fc2 50       		.byte	0x50
 6860 1fc3 26       		.uleb128 0x26
 6861 1fc4 01       		.uleb128 0x1
 6862 1fc5 51       		.byte	0x51
 6863 1fc6 02       		.uleb128 0x2
 6864 1fc7 08       		.byte	0x8
 6865 1fc8 31       		.byte	0x31
 6866 1fc9 26       		.uleb128 0x26
 6867 1fca 01       		.uleb128 0x1
 6868 1fcb 53       		.byte	0x53
 6869 1fcc 03       		.uleb128 0x3
 6870 1fcd F3       		.byte	0xf3
 6871 1fce 01       		.uleb128 0x1
 6872 1fcf 52       		.byte	0x52
 6873 1fd0 00       		.byte	0
 6874 1fd1 00       		.byte	0
 6875 1fd2 27       		.uleb128 0x27
 6876 1fd3 39000000 		.4byte	.LASF366
 6877 1fd7 01       		.byte	0x1
 6878 1fd8 3301     		.2byte	0x133
 6879 1fda 00000000 		.4byte	.LFB197
 6880 1fde 0E000000 		.4byte	.LFE197-.LFB197
 6881 1fe2 01       		.uleb128 0x1
 6882 1fe3 9C       		.byte	0x9c
 6883 1fe4 41200000 		.4byte	0x2041
 6884 1fe8 28       		.uleb128 0x28
 6885 1fe9 6F626A00 		.ascii	"obj\000"
 6886 1fed 01       		.byte	0x1
 6887 1fee 3301     		.2byte	0x133
 6888 1ff0 F6090000 		.4byte	0x9f6
 6889 1ff4 32100000 		.4byte	.LLST114
 6890 1ff8 29       		.uleb128 0x29
 6891 1ff9 02090000 		.4byte	.LASF196
 6892 1ffd 01       		.byte	0x1
 6893 1ffe 3301     		.2byte	0x133
 6894 2000 F6000000 		.4byte	0xf6
 6895 2004 53100000 		.4byte	.LLST115
 6896 2008 29       		.uleb128 0x29
 6897 2009 161D0000 		.4byte	.LASF239
 6898 200d 01       		.byte	0x1
 6899 200e 3301     		.2byte	0x133
 6900 2010 D40B0000 		.4byte	0xbd4
 6901 2014 74100000 		.4byte	.LLST116
 6902 2018 2A       		.uleb128 0x2a
 6903 2019 7600     		.ascii	"v\000"
 6904 201b 01       		.byte	0x1
 6905 201c 3501     		.2byte	0x135
 6906 201e 9F060000 		.4byte	0x69f
 6907 2022 25       		.uleb128 0x25
 6908 2023 0C000000 		.4byte	.LVL151
ARM GAS  C:\Users\haske\AppData\Local\Temp\cc0eRFVw.s 			page 134


 6909 2027 1D340000 		.4byte	0x341d
 6910 202b 26       		.uleb128 0x26
 6911 202c 01       		.uleb128 0x1
 6912 202d 50       		.byte	0x50
 6913 202e 03       		.uleb128 0x3
 6914 202f F3       		.byte	0xf3
 6915 2030 01       		.uleb128 0x1
 6916 2031 50       		.byte	0x50
 6917 2032 26       		.uleb128 0x26
 6918 2033 01       		.uleb128 0x1
 6919 2034 51       		.byte	0x51
 6920 2035 02       		.uleb128 0x2
 6921 2036 08       		.byte	0x8
 6922 2037 32       		.byte	0x32
 6923 2038 26       		.uleb128 0x26
 6924 2039 01       		.uleb128 0x1
 6925 203a 53       		.byte	0x53
 6926 203b 03       		.uleb128 0x3
 6927 203c F3       		.byte	0xf3
 6928 203d 01       		.uleb128 0x1
 6929 203e 52       		.byte	0x52
 6930 203f 00       		.byte	0
 6931 2040 00       		.byte	0
 6932 2041 27       		.uleb128 0x27
 6933 2042 37140000 		.4byte	.LASF367
 6934 2046 01       		.byte	0x1
 6935 2047 3B01     		.2byte	0x13b
 6936 2049 00000000 		.4byte	.LFB198
 6937 204d 0E000000 		.4byte	.LFE198-.LFB198
 6938 2051 01       		.uleb128 0x1
 6939 2052 9C       		.byte	0x9c
 6940 2053 B0200000 		.4byte	0x20b0
 6941 2057 28       		.uleb128 0x28
 6942 2058 6F626A00 		.ascii	"obj\000"
 6943 205c 01       		.byte	0x1
 6944 205d 3B01     		.2byte	0x13b
 6945 205f F6090000 		.4byte	0x9f6
 6946 2063 A0100000 		.4byte	.LLST117
 6947 2067 29       		.uleb128 0x29
 6948 2068 02090000 		.4byte	.LASF196
 6949 206c 01       		.byte	0x1
 6950 206d 3B01     		.2byte	0x13b
 6951 206f CE050000 		.4byte	0x5ce
 6952 2073 C1100000 		.4byte	.LLST118
 6953 2077 29       		.uleb128 0x29
 6954 2078 161D0000 		.4byte	.LASF239
 6955 207c 01       		.byte	0x1
 6956 207d 3B01     		.2byte	0x13b
 6957 207f D40B0000 		.4byte	0xbd4
 6958 2083 E2100000 		.4byte	.LLST119
 6959 2087 2A       		.uleb128 0x2a
 6960 2088 7600     		.ascii	"v\000"
 6961 208a 01       		.byte	0x1
 6962 208b 3D01     		.2byte	0x13d
 6963 208d 9F060000 		.4byte	0x69f
 6964 2091 25       		.uleb128 0x25
 6965 2092 0C000000 		.4byte	.LVL155
ARM GAS  C:\Users\haske\AppData\Local\Temp\cc0eRFVw.s 			page 135


 6966 2096 1D340000 		.4byte	0x341d
 6967 209a 26       		.uleb128 0x26
 6968 209b 01       		.uleb128 0x1
 6969 209c 50       		.byte	0x50
 6970 209d 03       		.uleb128 0x3
 6971 209e F3       		.byte	0xf3
 6972 209f 01       		.uleb128 0x1
 6973 20a0 50       		.byte	0x50
 6974 20a1 26       		.uleb128 0x26
 6975 20a2 01       		.uleb128 0x1
 6976 20a3 51       		.byte	0x51
 6977 20a4 02       		.uleb128 0x2
 6978 20a5 08       		.byte	0x8
 6979 20a6 33       		.byte	0x33
 6980 20a7 26       		.uleb128 0x26
 6981 20a8 01       		.uleb128 0x1
 6982 20a9 53       		.byte	0x53
 6983 20aa 03       		.uleb128 0x3
 6984 20ab F3       		.byte	0xf3
 6985 20ac 01       		.uleb128 0x1
 6986 20ad 52       		.byte	0x52
 6987 20ae 00       		.byte	0
 6988 20af 00       		.byte	0
 6989 20b0 27       		.uleb128 0x27
 6990 20b1 AE120000 		.4byte	.LASF368
 6991 20b5 01       		.byte	0x1
 6992 20b6 4301     		.2byte	0x143
 6993 20b8 00000000 		.4byte	.LFB199
 6994 20bc 0E000000 		.4byte	.LFE199-.LFB199
 6995 20c0 01       		.uleb128 0x1
 6996 20c1 9C       		.byte	0x9c
 6997 20c2 1F210000 		.4byte	0x211f
 6998 20c6 28       		.uleb128 0x28
 6999 20c7 6F626A00 		.ascii	"obj\000"
 7000 20cb 01       		.byte	0x1
 7001 20cc 4301     		.2byte	0x143
 7002 20ce F6090000 		.4byte	0x9f6
 7003 20d2 0E110000 		.4byte	.LLST120
 7004 20d6 29       		.uleb128 0x29
 7005 20d7 02090000 		.4byte	.LASF196
 7006 20db 01       		.byte	0x1
 7007 20dc 4301     		.2byte	0x143
 7008 20de AA020000 		.4byte	0x2aa
 7009 20e2 2F110000 		.4byte	.LLST121
 7010 20e6 29       		.uleb128 0x29
 7011 20e7 161D0000 		.4byte	.LASF239
 7012 20eb 01       		.byte	0x1
 7013 20ec 4301     		.2byte	0x143
 7014 20ee D40B0000 		.4byte	0xbd4
 7015 20f2 50110000 		.4byte	.LLST122
 7016 20f6 2A       		.uleb128 0x2a
 7017 20f7 7600     		.ascii	"v\000"
 7018 20f9 01       		.byte	0x1
 7019 20fa 4501     		.2byte	0x145
 7020 20fc 9F060000 		.4byte	0x69f
 7021 2100 25       		.uleb128 0x25
 7022 2101 0C000000 		.4byte	.LVL159
ARM GAS  C:\Users\haske\AppData\Local\Temp\cc0eRFVw.s 			page 136


 7023 2105 1D340000 		.4byte	0x341d
 7024 2109 26       		.uleb128 0x26
 7025 210a 01       		.uleb128 0x1
 7026 210b 50       		.byte	0x50
 7027 210c 03       		.uleb128 0x3
 7028 210d F3       		.byte	0xf3
 7029 210e 01       		.uleb128 0x1
 7030 210f 50       		.byte	0x50
 7031 2110 26       		.uleb128 0x26
 7032 2111 01       		.uleb128 0x1
 7033 2112 51       		.byte	0x51
 7034 2113 02       		.uleb128 0x2
 7035 2114 08       		.byte	0x8
 7036 2115 34       		.byte	0x34
 7037 2116 26       		.uleb128 0x26
 7038 2117 01       		.uleb128 0x1
 7039 2118 53       		.byte	0x53
 7040 2119 03       		.uleb128 0x3
 7041 211a F3       		.byte	0xf3
 7042 211b 01       		.uleb128 0x1
 7043 211c 52       		.byte	0x52
 7044 211d 00       		.byte	0
 7045 211e 00       		.byte	0
 7046 211f 27       		.uleb128 0x27
 7047 2120 41080000 		.4byte	.LASF369
 7048 2124 01       		.byte	0x1
 7049 2125 4B01     		.2byte	0x14b
 7050 2127 00000000 		.4byte	.LFB200
 7051 212b 0E000000 		.4byte	.LFE200-.LFB200
 7052 212f 01       		.uleb128 0x1
 7053 2130 9C       		.byte	0x9c
 7054 2131 8E210000 		.4byte	0x218e
 7055 2135 28       		.uleb128 0x28
 7056 2136 6F626A00 		.ascii	"obj\000"
 7057 213a 01       		.byte	0x1
 7058 213b 4B01     		.2byte	0x14b
 7059 213d F6090000 		.4byte	0x9f6
 7060 2141 7C110000 		.4byte	.LLST123
 7061 2145 29       		.uleb128 0x29
 7062 2146 02090000 		.4byte	.LASF196
 7063 214a 01       		.byte	0x1
 7064 214b 4B01     		.2byte	0x14b
 7065 214d F6000000 		.4byte	0xf6
 7066 2151 9D110000 		.4byte	.LLST124
 7067 2155 29       		.uleb128 0x29
 7068 2156 161D0000 		.4byte	.LASF239
 7069 215a 01       		.byte	0x1
 7070 215b 4B01     		.2byte	0x14b
 7071 215d D40B0000 		.4byte	0xbd4
 7072 2161 BE110000 		.4byte	.LLST125
 7073 2165 2A       		.uleb128 0x2a
 7074 2166 7600     		.ascii	"v\000"
 7075 2168 01       		.byte	0x1
 7076 2169 4D01     		.2byte	0x14d
 7077 216b 9F060000 		.4byte	0x69f
 7078 216f 25       		.uleb128 0x25
 7079 2170 0C000000 		.4byte	.LVL163
ARM GAS  C:\Users\haske\AppData\Local\Temp\cc0eRFVw.s 			page 137


 7080 2174 1D340000 		.4byte	0x341d
 7081 2178 26       		.uleb128 0x26
 7082 2179 01       		.uleb128 0x1
 7083 217a 50       		.byte	0x50
 7084 217b 03       		.uleb128 0x3
 7085 217c F3       		.byte	0xf3
 7086 217d 01       		.uleb128 0x1
 7087 217e 50       		.byte	0x50
 7088 217f 26       		.uleb128 0x26
 7089 2180 01       		.uleb128 0x1
 7090 2181 51       		.byte	0x51
 7091 2182 02       		.uleb128 0x2
 7092 2183 08       		.byte	0x8
 7093 2184 35       		.byte	0x35
 7094 2185 26       		.uleb128 0x26
 7095 2186 01       		.uleb128 0x1
 7096 2187 53       		.byte	0x53
 7097 2188 03       		.uleb128 0x3
 7098 2189 F3       		.byte	0xf3
 7099 218a 01       		.uleb128 0x1
 7100 218b 52       		.byte	0x52
 7101 218c 00       		.byte	0
 7102 218d 00       		.byte	0
 7103 218e 27       		.uleb128 0x27
 7104 218f 6B190000 		.4byte	.LASF370
 7105 2193 01       		.byte	0x1
 7106 2194 5301     		.2byte	0x153
 7107 2196 00000000 		.4byte	.LFB201
 7108 219a 0E000000 		.4byte	.LFE201-.LFB201
 7109 219e 01       		.uleb128 0x1
 7110 219f 9C       		.byte	0x9c
 7111 21a0 FD210000 		.4byte	0x21fd
 7112 21a4 28       		.uleb128 0x28
 7113 21a5 6F626A00 		.ascii	"obj\000"
 7114 21a9 01       		.byte	0x1
 7115 21aa 5301     		.2byte	0x153
 7116 21ac F6090000 		.4byte	0x9f6
 7117 21b0 EA110000 		.4byte	.LLST126
 7118 21b4 29       		.uleb128 0x29
 7119 21b5 02090000 		.4byte	.LASF196
 7120 21b9 01       		.byte	0x1
 7121 21ba 5301     		.2byte	0x153
 7122 21bc 63030000 		.4byte	0x363
 7123 21c0 0B120000 		.4byte	.LLST127
 7124 21c4 29       		.uleb128 0x29
 7125 21c5 161D0000 		.4byte	.LASF239
 7126 21c9 01       		.byte	0x1
 7127 21ca 5301     		.2byte	0x153
 7128 21cc D40B0000 		.4byte	0xbd4
 7129 21d0 1E120000 		.4byte	.LLST128
 7130 21d4 2A       		.uleb128 0x2a
 7131 21d5 7600     		.ascii	"v\000"
 7132 21d7 01       		.byte	0x1
 7133 21d8 5501     		.2byte	0x155
 7134 21da 9F060000 		.4byte	0x69f
 7135 21de 25       		.uleb128 0x25
 7136 21df 0C000000 		.4byte	.LVL166
ARM GAS  C:\Users\haske\AppData\Local\Temp\cc0eRFVw.s 			page 138


 7137 21e3 1D340000 		.4byte	0x341d
 7138 21e7 26       		.uleb128 0x26
 7139 21e8 01       		.uleb128 0x1
 7140 21e9 50       		.byte	0x50
 7141 21ea 03       		.uleb128 0x3
 7142 21eb F3       		.byte	0xf3
 7143 21ec 01       		.uleb128 0x1
 7144 21ed 50       		.byte	0x50
 7145 21ee 26       		.uleb128 0x26
 7146 21ef 01       		.uleb128 0x1
 7147 21f0 51       		.byte	0x51
 7148 21f1 02       		.uleb128 0x2
 7149 21f2 08       		.byte	0x8
 7150 21f3 36       		.byte	0x36
 7151 21f4 26       		.uleb128 0x26
 7152 21f5 01       		.uleb128 0x1
 7153 21f6 53       		.byte	0x53
 7154 21f7 03       		.uleb128 0x3
 7155 21f8 F3       		.byte	0xf3
 7156 21f9 01       		.uleb128 0x1
 7157 21fa 52       		.byte	0x52
 7158 21fb 00       		.byte	0
 7159 21fc 00       		.byte	0
 7160 21fd 27       		.uleb128 0x27
 7161 21fe 840E0000 		.4byte	.LASF371
 7162 2202 01       		.byte	0x1
 7163 2203 5B01     		.2byte	0x15b
 7164 2205 00000000 		.4byte	.LFB202
 7165 2209 0E000000 		.4byte	.LFE202-.LFB202
 7166 220d 01       		.uleb128 0x1
 7167 220e 9C       		.byte	0x9c
 7168 220f 6C220000 		.4byte	0x226c
 7169 2213 28       		.uleb128 0x28
 7170 2214 6F626A00 		.ascii	"obj\000"
 7171 2218 01       		.byte	0x1
 7172 2219 5B01     		.2byte	0x15b
 7173 221b F6090000 		.4byte	0x9f6
 7174 221f 4A120000 		.4byte	.LLST129
 7175 2223 29       		.uleb128 0x29
 7176 2224 02090000 		.4byte	.LASF196
 7177 2228 01       		.byte	0x1
 7178 2229 5B01     		.2byte	0x15b
 7179 222b 6E030000 		.4byte	0x36e
 7180 222f 6B120000 		.4byte	.LLST130
 7181 2233 29       		.uleb128 0x29
 7182 2234 161D0000 		.4byte	.LASF239
 7183 2238 01       		.byte	0x1
 7184 2239 5B01     		.2byte	0x15b
 7185 223b D40B0000 		.4byte	0xbd4
 7186 223f 8C120000 		.4byte	.LLST131
 7187 2243 2A       		.uleb128 0x2a
 7188 2244 7600     		.ascii	"v\000"
 7189 2246 01       		.byte	0x1
 7190 2247 5D01     		.2byte	0x15d
 7191 2249 9F060000 		.4byte	0x69f
 7192 224d 25       		.uleb128 0x25
 7193 224e 0C000000 		.4byte	.LVL170
ARM GAS  C:\Users\haske\AppData\Local\Temp\cc0eRFVw.s 			page 139


 7194 2252 1D340000 		.4byte	0x341d
 7195 2256 26       		.uleb128 0x26
 7196 2257 01       		.uleb128 0x1
 7197 2258 50       		.byte	0x50
 7198 2259 03       		.uleb128 0x3
 7199 225a F3       		.byte	0xf3
 7200 225b 01       		.uleb128 0x1
 7201 225c 50       		.byte	0x50
 7202 225d 26       		.uleb128 0x26
 7203 225e 01       		.uleb128 0x1
 7204 225f 51       		.byte	0x51
 7205 2260 02       		.uleb128 0x2
 7206 2261 08       		.byte	0x8
 7207 2262 37       		.byte	0x37
 7208 2263 26       		.uleb128 0x26
 7209 2264 01       		.uleb128 0x1
 7210 2265 53       		.byte	0x53
 7211 2266 03       		.uleb128 0x3
 7212 2267 F3       		.byte	0xf3
 7213 2268 01       		.uleb128 0x1
 7214 2269 52       		.byte	0x52
 7215 226a 00       		.byte	0
 7216 226b 00       		.byte	0
 7217 226c 27       		.uleb128 0x27
 7218 226d E8030000 		.4byte	.LASF372
 7219 2271 01       		.byte	0x1
 7220 2272 6301     		.2byte	0x163
 7221 2274 00000000 		.4byte	.LFB203
 7222 2278 0E000000 		.4byte	.LFE203-.LFB203
 7223 227c 01       		.uleb128 0x1
 7224 227d 9C       		.byte	0x9c
 7225 227e DB220000 		.4byte	0x22db
 7226 2282 28       		.uleb128 0x28
 7227 2283 6F626A00 		.ascii	"obj\000"
 7228 2287 01       		.byte	0x1
 7229 2288 6301     		.2byte	0x163
 7230 228a F6090000 		.4byte	0x9f6
 7231 228e B8120000 		.4byte	.LLST132
 7232 2292 29       		.uleb128 0x29
 7233 2293 02090000 		.4byte	.LASF196
 7234 2297 01       		.byte	0x1
 7235 2298 6301     		.2byte	0x163
 7236 229a F6000000 		.4byte	0xf6
 7237 229e D9120000 		.4byte	.LLST133
 7238 22a2 29       		.uleb128 0x29
 7239 22a3 161D0000 		.4byte	.LASF239
 7240 22a7 01       		.byte	0x1
 7241 22a8 6301     		.2byte	0x163
 7242 22aa D40B0000 		.4byte	0xbd4
 7243 22ae FA120000 		.4byte	.LLST134
 7244 22b2 2A       		.uleb128 0x2a
 7245 22b3 7600     		.ascii	"v\000"
 7246 22b5 01       		.byte	0x1
 7247 22b6 6501     		.2byte	0x165
 7248 22b8 9F060000 		.4byte	0x69f
 7249 22bc 25       		.uleb128 0x25
 7250 22bd 0C000000 		.4byte	.LVL174
ARM GAS  C:\Users\haske\AppData\Local\Temp\cc0eRFVw.s 			page 140


 7251 22c1 1D340000 		.4byte	0x341d
 7252 22c5 26       		.uleb128 0x26
 7253 22c6 01       		.uleb128 0x1
 7254 22c7 50       		.byte	0x50
 7255 22c8 03       		.uleb128 0x3
 7256 22c9 F3       		.byte	0xf3
 7257 22ca 01       		.uleb128 0x1
 7258 22cb 50       		.byte	0x50
 7259 22cc 26       		.uleb128 0x26
 7260 22cd 01       		.uleb128 0x1
 7261 22ce 51       		.byte	0x51
 7262 22cf 02       		.uleb128 0x2
 7263 22d0 08       		.byte	0x8
 7264 22d1 38       		.byte	0x38
 7265 22d2 26       		.uleb128 0x26
 7266 22d3 01       		.uleb128 0x1
 7267 22d4 53       		.byte	0x53
 7268 22d5 03       		.uleb128 0x3
 7269 22d6 F3       		.byte	0xf3
 7270 22d7 01       		.uleb128 0x1
 7271 22d8 52       		.byte	0x52
 7272 22d9 00       		.byte	0
 7273 22da 00       		.byte	0
 7274 22db 27       		.uleb128 0x27
 7275 22dc 69060000 		.4byte	.LASF373
 7276 22e0 01       		.byte	0x1
 7277 22e1 6B01     		.2byte	0x16b
 7278 22e3 00000000 		.4byte	.LFB204
 7279 22e7 0E000000 		.4byte	.LFE204-.LFB204
 7280 22eb 01       		.uleb128 0x1
 7281 22ec 9C       		.byte	0x9c
 7282 22ed 4A230000 		.4byte	0x234a
 7283 22f1 28       		.uleb128 0x28
 7284 22f2 6F626A00 		.ascii	"obj\000"
 7285 22f6 01       		.byte	0x1
 7286 22f7 6B01     		.2byte	0x16b
 7287 22f9 F6090000 		.4byte	0x9f6
 7288 22fd 26130000 		.4byte	.LLST135
 7289 2301 29       		.uleb128 0x29
 7290 2302 02090000 		.4byte	.LASF196
 7291 2306 01       		.byte	0x1
 7292 2307 6B01     		.2byte	0x16b
 7293 2309 F6000000 		.4byte	0xf6
 7294 230d 47130000 		.4byte	.LLST136
 7295 2311 29       		.uleb128 0x29
 7296 2312 161D0000 		.4byte	.LASF239
 7297 2316 01       		.byte	0x1
 7298 2317 6B01     		.2byte	0x16b
 7299 2319 D40B0000 		.4byte	0xbd4
 7300 231d 68130000 		.4byte	.LLST137
 7301 2321 2A       		.uleb128 0x2a
 7302 2322 7600     		.ascii	"v\000"
 7303 2324 01       		.byte	0x1
 7304 2325 6D01     		.2byte	0x16d
 7305 2327 9F060000 		.4byte	0x69f
 7306 232b 25       		.uleb128 0x25
 7307 232c 0C000000 		.4byte	.LVL178
ARM GAS  C:\Users\haske\AppData\Local\Temp\cc0eRFVw.s 			page 141


 7308 2330 1D340000 		.4byte	0x341d
 7309 2334 26       		.uleb128 0x26
 7310 2335 01       		.uleb128 0x1
 7311 2336 50       		.byte	0x50
 7312 2337 03       		.uleb128 0x3
 7313 2338 F3       		.byte	0xf3
 7314 2339 01       		.uleb128 0x1
 7315 233a 50       		.byte	0x50
 7316 233b 26       		.uleb128 0x26
 7317 233c 01       		.uleb128 0x1
 7318 233d 51       		.byte	0x51
 7319 233e 02       		.uleb128 0x2
 7320 233f 08       		.byte	0x8
 7321 2340 40       		.byte	0x40
 7322 2341 26       		.uleb128 0x26
 7323 2342 01       		.uleb128 0x1
 7324 2343 53       		.byte	0x53
 7325 2344 03       		.uleb128 0x3
 7326 2345 F3       		.byte	0xf3
 7327 2346 01       		.uleb128 0x1
 7328 2347 52       		.byte	0x52
 7329 2348 00       		.byte	0
 7330 2349 00       		.byte	0
 7331 234a 27       		.uleb128 0x27
 7332 234b 7E090000 		.4byte	.LASF374
 7333 234f 01       		.byte	0x1
 7334 2350 7301     		.2byte	0x173
 7335 2352 00000000 		.4byte	.LFB205
 7336 2356 0E000000 		.4byte	.LFE205-.LFB205
 7337 235a 01       		.uleb128 0x1
 7338 235b 9C       		.byte	0x9c
 7339 235c B9230000 		.4byte	0x23b9
 7340 2360 28       		.uleb128 0x28
 7341 2361 6F626A00 		.ascii	"obj\000"
 7342 2365 01       		.byte	0x1
 7343 2366 7301     		.2byte	0x173
 7344 2368 F6090000 		.4byte	0x9f6
 7345 236c 94130000 		.4byte	.LLST138
 7346 2370 29       		.uleb128 0x29
 7347 2371 02090000 		.4byte	.LASF196
 7348 2375 01       		.byte	0x1
 7349 2376 7301     		.2byte	0x173
 7350 2378 F6000000 		.4byte	0xf6
 7351 237c B5130000 		.4byte	.LLST139
 7352 2380 29       		.uleb128 0x29
 7353 2381 161D0000 		.4byte	.LASF239
 7354 2385 01       		.byte	0x1
 7355 2386 7301     		.2byte	0x173
 7356 2388 D40B0000 		.4byte	0xbd4
 7357 238c D6130000 		.4byte	.LLST140
 7358 2390 2A       		.uleb128 0x2a
 7359 2391 7600     		.ascii	"v\000"
 7360 2393 01       		.byte	0x1
 7361 2394 7501     		.2byte	0x175
 7362 2396 9F060000 		.4byte	0x69f
 7363 239a 25       		.uleb128 0x25
 7364 239b 0C000000 		.4byte	.LVL182
ARM GAS  C:\Users\haske\AppData\Local\Temp\cc0eRFVw.s 			page 142


 7365 239f 1D340000 		.4byte	0x341d
 7366 23a3 26       		.uleb128 0x26
 7367 23a4 01       		.uleb128 0x1
 7368 23a5 50       		.byte	0x50
 7369 23a6 03       		.uleb128 0x3
 7370 23a7 F3       		.byte	0xf3
 7371 23a8 01       		.uleb128 0x1
 7372 23a9 50       		.byte	0x50
 7373 23aa 26       		.uleb128 0x26
 7374 23ab 01       		.uleb128 0x1
 7375 23ac 51       		.byte	0x51
 7376 23ad 02       		.uleb128 0x2
 7377 23ae 08       		.byte	0x8
 7378 23af 41       		.byte	0x41
 7379 23b0 26       		.uleb128 0x26
 7380 23b1 01       		.uleb128 0x1
 7381 23b2 53       		.byte	0x53
 7382 23b3 03       		.uleb128 0x3
 7383 23b4 F3       		.byte	0xf3
 7384 23b5 01       		.uleb128 0x1
 7385 23b6 52       		.byte	0x52
 7386 23b7 00       		.byte	0
 7387 23b8 00       		.byte	0
 7388 23b9 27       		.uleb128 0x27
 7389 23ba 9C090000 		.4byte	.LASF375
 7390 23be 01       		.byte	0x1
 7391 23bf 7B01     		.2byte	0x17b
 7392 23c1 00000000 		.4byte	.LFB206
 7393 23c5 0E000000 		.4byte	.LFE206-.LFB206
 7394 23c9 01       		.uleb128 0x1
 7395 23ca 9C       		.byte	0x9c
 7396 23cb 28240000 		.4byte	0x2428
 7397 23cf 28       		.uleb128 0x28
 7398 23d0 6F626A00 		.ascii	"obj\000"
 7399 23d4 01       		.byte	0x1
 7400 23d5 7B01     		.2byte	0x17b
 7401 23d7 F6090000 		.4byte	0x9f6
 7402 23db 02140000 		.4byte	.LLST141
 7403 23df 29       		.uleb128 0x29
 7404 23e0 02090000 		.4byte	.LASF196
 7405 23e4 01       		.byte	0x1
 7406 23e5 7B01     		.2byte	0x17b
 7407 23e7 F6000000 		.4byte	0xf6
 7408 23eb 23140000 		.4byte	.LLST142
 7409 23ef 29       		.uleb128 0x29
 7410 23f0 161D0000 		.4byte	.LASF239
 7411 23f4 01       		.byte	0x1
 7412 23f5 7B01     		.2byte	0x17b
 7413 23f7 D40B0000 		.4byte	0xbd4
 7414 23fb 44140000 		.4byte	.LLST143
 7415 23ff 2A       		.uleb128 0x2a
 7416 2400 7600     		.ascii	"v\000"
 7417 2402 01       		.byte	0x1
 7418 2403 7D01     		.2byte	0x17d
 7419 2405 9F060000 		.4byte	0x69f
 7420 2409 25       		.uleb128 0x25
 7421 240a 0C000000 		.4byte	.LVL186
ARM GAS  C:\Users\haske\AppData\Local\Temp\cc0eRFVw.s 			page 143


 7422 240e 1D340000 		.4byte	0x341d
 7423 2412 26       		.uleb128 0x26
 7424 2413 01       		.uleb128 0x1
 7425 2414 50       		.byte	0x50
 7426 2415 03       		.uleb128 0x3
 7427 2416 F3       		.byte	0xf3
 7428 2417 01       		.uleb128 0x1
 7429 2418 50       		.byte	0x50
 7430 2419 26       		.uleb128 0x26
 7431 241a 01       		.uleb128 0x1
 7432 241b 51       		.byte	0x51
 7433 241c 02       		.uleb128 0x2
 7434 241d 08       		.byte	0x8
 7435 241e 42       		.byte	0x42
 7436 241f 26       		.uleb128 0x26
 7437 2420 01       		.uleb128 0x1
 7438 2421 53       		.byte	0x53
 7439 2422 03       		.uleb128 0x3
 7440 2423 F3       		.byte	0xf3
 7441 2424 01       		.uleb128 0x1
 7442 2425 52       		.byte	0x52
 7443 2426 00       		.byte	0
 7444 2427 00       		.byte	0
 7445 2428 27       		.uleb128 0x27
 7446 2429 710C0000 		.4byte	.LASF376
 7447 242d 01       		.byte	0x1
 7448 242e 8301     		.2byte	0x183
 7449 2430 00000000 		.4byte	.LFB207
 7450 2434 0E000000 		.4byte	.LFE207-.LFB207
 7451 2438 01       		.uleb128 0x1
 7452 2439 9C       		.byte	0x9c
 7453 243a 97240000 		.4byte	0x2497
 7454 243e 28       		.uleb128 0x28
 7455 243f 6F626A00 		.ascii	"obj\000"
 7456 2443 01       		.byte	0x1
 7457 2444 8301     		.2byte	0x183
 7458 2446 F6090000 		.4byte	0x9f6
 7459 244a 70140000 		.4byte	.LLST144
 7460 244e 29       		.uleb128 0x29
 7461 244f 02090000 		.4byte	.LASF196
 7462 2453 01       		.byte	0x1
 7463 2454 8301     		.2byte	0x183
 7464 2456 F6000000 		.4byte	0xf6
 7465 245a 91140000 		.4byte	.LLST145
 7466 245e 29       		.uleb128 0x29
 7467 245f 161D0000 		.4byte	.LASF239
 7468 2463 01       		.byte	0x1
 7469 2464 8301     		.2byte	0x183
 7470 2466 D40B0000 		.4byte	0xbd4
 7471 246a B2140000 		.4byte	.LLST146
 7472 246e 2A       		.uleb128 0x2a
 7473 246f 7600     		.ascii	"v\000"
 7474 2471 01       		.byte	0x1
 7475 2472 8501     		.2byte	0x185
 7476 2474 9F060000 		.4byte	0x69f
 7477 2478 25       		.uleb128 0x25
 7478 2479 0C000000 		.4byte	.LVL190
ARM GAS  C:\Users\haske\AppData\Local\Temp\cc0eRFVw.s 			page 144


 7479 247d 1D340000 		.4byte	0x341d
 7480 2481 26       		.uleb128 0x26
 7481 2482 01       		.uleb128 0x1
 7482 2483 50       		.byte	0x50
 7483 2484 03       		.uleb128 0x3
 7484 2485 F3       		.byte	0xf3
 7485 2486 01       		.uleb128 0x1
 7486 2487 50       		.byte	0x50
 7487 2488 26       		.uleb128 0x26
 7488 2489 01       		.uleb128 0x1
 7489 248a 51       		.byte	0x51
 7490 248b 02       		.uleb128 0x2
 7491 248c 08       		.byte	0x8
 7492 248d 43       		.byte	0x43
 7493 248e 26       		.uleb128 0x26
 7494 248f 01       		.uleb128 0x1
 7495 2490 53       		.byte	0x53
 7496 2491 03       		.uleb128 0x3
 7497 2492 F3       		.byte	0xf3
 7498 2493 01       		.uleb128 0x1
 7499 2494 52       		.byte	0x52
 7500 2495 00       		.byte	0
 7501 2496 00       		.byte	0
 7502 2497 27       		.uleb128 0x27
 7503 2498 08180000 		.4byte	.LASF377
 7504 249c 01       		.byte	0x1
 7505 249d 8B01     		.2byte	0x18b
 7506 249f 00000000 		.4byte	.LFB208
 7507 24a3 0E000000 		.4byte	.LFE208-.LFB208
 7508 24a7 01       		.uleb128 0x1
 7509 24a8 9C       		.byte	0x9c
 7510 24a9 06250000 		.4byte	0x2506
 7511 24ad 28       		.uleb128 0x28
 7512 24ae 6F626A00 		.ascii	"obj\000"
 7513 24b2 01       		.byte	0x1
 7514 24b3 8B01     		.2byte	0x18b
 7515 24b5 F6090000 		.4byte	0x9f6
 7516 24b9 DE140000 		.4byte	.LLST147
 7517 24bd 29       		.uleb128 0x29
 7518 24be 02090000 		.4byte	.LASF196
 7519 24c2 01       		.byte	0x1
 7520 24c3 8B01     		.2byte	0x18b
 7521 24c5 63030000 		.4byte	0x363
 7522 24c9 FF140000 		.4byte	.LLST148
 7523 24cd 29       		.uleb128 0x29
 7524 24ce 161D0000 		.4byte	.LASF239
 7525 24d2 01       		.byte	0x1
 7526 24d3 8B01     		.2byte	0x18b
 7527 24d5 D40B0000 		.4byte	0xbd4
 7528 24d9 12150000 		.4byte	.LLST149
 7529 24dd 2A       		.uleb128 0x2a
 7530 24de 7600     		.ascii	"v\000"
 7531 24e0 01       		.byte	0x1
 7532 24e1 8D01     		.2byte	0x18d
 7533 24e3 9F060000 		.4byte	0x69f
 7534 24e7 25       		.uleb128 0x25
 7535 24e8 0C000000 		.4byte	.LVL193
ARM GAS  C:\Users\haske\AppData\Local\Temp\cc0eRFVw.s 			page 145


 7536 24ec 1D340000 		.4byte	0x341d
 7537 24f0 26       		.uleb128 0x26
 7538 24f1 01       		.uleb128 0x1
 7539 24f2 50       		.byte	0x50
 7540 24f3 03       		.uleb128 0x3
 7541 24f4 F3       		.byte	0xf3
 7542 24f5 01       		.uleb128 0x1
 7543 24f6 50       		.byte	0x50
 7544 24f7 26       		.uleb128 0x26
 7545 24f8 01       		.uleb128 0x1
 7546 24f9 51       		.byte	0x51
 7547 24fa 02       		.uleb128 0x2
 7548 24fb 08       		.byte	0x8
 7549 24fc 44       		.byte	0x44
 7550 24fd 26       		.uleb128 0x26
 7551 24fe 01       		.uleb128 0x1
 7552 24ff 53       		.byte	0x53
 7553 2500 03       		.uleb128 0x3
 7554 2501 F3       		.byte	0xf3
 7555 2502 01       		.uleb128 0x1
 7556 2503 52       		.byte	0x52
 7557 2504 00       		.byte	0
 7558 2505 00       		.byte	0
 7559 2506 27       		.uleb128 0x27
 7560 2507 47010000 		.4byte	.LASF378
 7561 250b 01       		.byte	0x1
 7562 250c 9301     		.2byte	0x193
 7563 250e 00000000 		.4byte	.LFB209
 7564 2512 0E000000 		.4byte	.LFE209-.LFB209
 7565 2516 01       		.uleb128 0x1
 7566 2517 9C       		.byte	0x9c
 7567 2518 75250000 		.4byte	0x2575
 7568 251c 28       		.uleb128 0x28
 7569 251d 6F626A00 		.ascii	"obj\000"
 7570 2521 01       		.byte	0x1
 7571 2522 9301     		.2byte	0x193
 7572 2524 F6090000 		.4byte	0x9f6
 7573 2528 3E150000 		.4byte	.LLST150
 7574 252c 29       		.uleb128 0x29
 7575 252d 02090000 		.4byte	.LASF196
 7576 2531 01       		.byte	0x1
 7577 2532 9301     		.2byte	0x193
 7578 2534 6E030000 		.4byte	0x36e
 7579 2538 5F150000 		.4byte	.LLST151
 7580 253c 29       		.uleb128 0x29
 7581 253d 161D0000 		.4byte	.LASF239
 7582 2541 01       		.byte	0x1
 7583 2542 9301     		.2byte	0x193
 7584 2544 D40B0000 		.4byte	0xbd4
 7585 2548 80150000 		.4byte	.LLST152
 7586 254c 2A       		.uleb128 0x2a
 7587 254d 7600     		.ascii	"v\000"
 7588 254f 01       		.byte	0x1
 7589 2550 9501     		.2byte	0x195
 7590 2552 9F060000 		.4byte	0x69f
 7591 2556 25       		.uleb128 0x25
 7592 2557 0C000000 		.4byte	.LVL197
ARM GAS  C:\Users\haske\AppData\Local\Temp\cc0eRFVw.s 			page 146


 7593 255b 1D340000 		.4byte	0x341d
 7594 255f 26       		.uleb128 0x26
 7595 2560 01       		.uleb128 0x1
 7596 2561 50       		.byte	0x50
 7597 2562 03       		.uleb128 0x3
 7598 2563 F3       		.byte	0xf3
 7599 2564 01       		.uleb128 0x1
 7600 2565 50       		.byte	0x50
 7601 2566 26       		.uleb128 0x26
 7602 2567 01       		.uleb128 0x1
 7603 2568 51       		.byte	0x51
 7604 2569 02       		.uleb128 0x2
 7605 256a 08       		.byte	0x8
 7606 256b 45       		.byte	0x45
 7607 256c 26       		.uleb128 0x26
 7608 256d 01       		.uleb128 0x1
 7609 256e 53       		.byte	0x53
 7610 256f 03       		.uleb128 0x3
 7611 2570 F3       		.byte	0xf3
 7612 2571 01       		.uleb128 0x1
 7613 2572 52       		.byte	0x52
 7614 2573 00       		.byte	0
 7615 2574 00       		.byte	0
 7616 2575 27       		.uleb128 0x27
 7617 2576 271A0000 		.4byte	.LASF379
 7618 257a 01       		.byte	0x1
 7619 257b 9B01     		.2byte	0x19b
 7620 257d 00000000 		.4byte	.LFB210
 7621 2581 0E000000 		.4byte	.LFE210-.LFB210
 7622 2585 01       		.uleb128 0x1
 7623 2586 9C       		.byte	0x9c
 7624 2587 E4250000 		.4byte	0x25e4
 7625 258b 28       		.uleb128 0x28
 7626 258c 6F626A00 		.ascii	"obj\000"
 7627 2590 01       		.byte	0x1
 7628 2591 9B01     		.2byte	0x19b
 7629 2593 F6090000 		.4byte	0x9f6
 7630 2597 AC150000 		.4byte	.LLST153
 7631 259b 29       		.uleb128 0x29
 7632 259c 02090000 		.4byte	.LASF196
 7633 25a0 01       		.byte	0x1
 7634 25a1 9B01     		.2byte	0x19b
 7635 25a3 6E030000 		.4byte	0x36e
 7636 25a7 CD150000 		.4byte	.LLST154
 7637 25ab 29       		.uleb128 0x29
 7638 25ac 161D0000 		.4byte	.LASF239
 7639 25b0 01       		.byte	0x1
 7640 25b1 9B01     		.2byte	0x19b
 7641 25b3 D40B0000 		.4byte	0xbd4
 7642 25b7 EE150000 		.4byte	.LLST155
 7643 25bb 2A       		.uleb128 0x2a
 7644 25bc 7600     		.ascii	"v\000"
 7645 25be 01       		.byte	0x1
 7646 25bf 9D01     		.2byte	0x19d
 7647 25c1 9F060000 		.4byte	0x69f
 7648 25c5 25       		.uleb128 0x25
 7649 25c6 0C000000 		.4byte	.LVL201
ARM GAS  C:\Users\haske\AppData\Local\Temp\cc0eRFVw.s 			page 147


 7650 25ca 1D340000 		.4byte	0x341d
 7651 25ce 26       		.uleb128 0x26
 7652 25cf 01       		.uleb128 0x1
 7653 25d0 50       		.byte	0x50
 7654 25d1 03       		.uleb128 0x3
 7655 25d2 F3       		.byte	0xf3
 7656 25d3 01       		.uleb128 0x1
 7657 25d4 50       		.byte	0x50
 7658 25d5 26       		.uleb128 0x26
 7659 25d6 01       		.uleb128 0x1
 7660 25d7 51       		.byte	0x51
 7661 25d8 02       		.uleb128 0x2
 7662 25d9 08       		.byte	0x8
 7663 25da 46       		.byte	0x46
 7664 25db 26       		.uleb128 0x26
 7665 25dc 01       		.uleb128 0x1
 7666 25dd 53       		.byte	0x53
 7667 25de 03       		.uleb128 0x3
 7668 25df F3       		.byte	0xf3
 7669 25e0 01       		.uleb128 0x1
 7670 25e1 52       		.byte	0x52
 7671 25e2 00       		.byte	0
 7672 25e3 00       		.byte	0
 7673 25e4 27       		.uleb128 0x27
 7674 25e5 0C130000 		.4byte	.LASF380
 7675 25e9 01       		.byte	0x1
 7676 25ea A301     		.2byte	0x1a3
 7677 25ec 00000000 		.4byte	.LFB211
 7678 25f0 0E000000 		.4byte	.LFE211-.LFB211
 7679 25f4 01       		.uleb128 0x1
 7680 25f5 9C       		.byte	0x9c
 7681 25f6 53260000 		.4byte	0x2653
 7682 25fa 28       		.uleb128 0x28
 7683 25fb 6F626A00 		.ascii	"obj\000"
 7684 25ff 01       		.byte	0x1
 7685 2600 A301     		.2byte	0x1a3
 7686 2602 F6090000 		.4byte	0x9f6
 7687 2606 1A160000 		.4byte	.LLST156
 7688 260a 29       		.uleb128 0x29
 7689 260b 02090000 		.4byte	.LASF196
 7690 260f 01       		.byte	0x1
 7691 2610 A301     		.2byte	0x1a3
 7692 2612 63030000 		.4byte	0x363
 7693 2616 3B160000 		.4byte	.LLST157
 7694 261a 29       		.uleb128 0x29
 7695 261b 161D0000 		.4byte	.LASF239
 7696 261f 01       		.byte	0x1
 7697 2620 A301     		.2byte	0x1a3
 7698 2622 D40B0000 		.4byte	0xbd4
 7699 2626 4E160000 		.4byte	.LLST158
 7700 262a 2A       		.uleb128 0x2a
 7701 262b 7600     		.ascii	"v\000"
 7702 262d 01       		.byte	0x1
 7703 262e A501     		.2byte	0x1a5
 7704 2630 9F060000 		.4byte	0x69f
 7705 2634 25       		.uleb128 0x25
 7706 2635 0C000000 		.4byte	.LVL204
ARM GAS  C:\Users\haske\AppData\Local\Temp\cc0eRFVw.s 			page 148


 7707 2639 1D340000 		.4byte	0x341d
 7708 263d 26       		.uleb128 0x26
 7709 263e 01       		.uleb128 0x1
 7710 263f 50       		.byte	0x50
 7711 2640 03       		.uleb128 0x3
 7712 2641 F3       		.byte	0xf3
 7713 2642 01       		.uleb128 0x1
 7714 2643 50       		.byte	0x50
 7715 2644 26       		.uleb128 0x26
 7716 2645 01       		.uleb128 0x1
 7717 2646 51       		.byte	0x51
 7718 2647 02       		.uleb128 0x2
 7719 2648 08       		.byte	0x8
 7720 2649 47       		.byte	0x47
 7721 264a 26       		.uleb128 0x26
 7722 264b 01       		.uleb128 0x1
 7723 264c 53       		.byte	0x53
 7724 264d 03       		.uleb128 0x3
 7725 264e F3       		.byte	0xf3
 7726 264f 01       		.uleb128 0x1
 7727 2650 52       		.byte	0x52
 7728 2651 00       		.byte	0
 7729 2652 00       		.byte	0
 7730 2653 27       		.uleb128 0x27
 7731 2654 C10E0000 		.4byte	.LASF381
 7732 2658 01       		.byte	0x1
 7733 2659 AB01     		.2byte	0x1ab
 7734 265b 00000000 		.4byte	.LFB212
 7735 265f 0E000000 		.4byte	.LFE212-.LFB212
 7736 2663 01       		.uleb128 0x1
 7737 2664 9C       		.byte	0x9c
 7738 2665 C2260000 		.4byte	0x26c2
 7739 2669 28       		.uleb128 0x28
 7740 266a 6F626A00 		.ascii	"obj\000"
 7741 266e 01       		.byte	0x1
 7742 266f AB01     		.2byte	0x1ab
 7743 2671 F6090000 		.4byte	0x9f6
 7744 2675 7A160000 		.4byte	.LLST159
 7745 2679 29       		.uleb128 0x29
 7746 267a 02090000 		.4byte	.LASF196
 7747 267e 01       		.byte	0x1
 7748 267f AB01     		.2byte	0x1ab
 7749 2681 6E030000 		.4byte	0x36e
 7750 2685 9B160000 		.4byte	.LLST160
 7751 2689 29       		.uleb128 0x29
 7752 268a 161D0000 		.4byte	.LASF239
 7753 268e 01       		.byte	0x1
 7754 268f AB01     		.2byte	0x1ab
 7755 2691 D40B0000 		.4byte	0xbd4
 7756 2695 BC160000 		.4byte	.LLST161
 7757 2699 2A       		.uleb128 0x2a
 7758 269a 7600     		.ascii	"v\000"
 7759 269c 01       		.byte	0x1
 7760 269d AD01     		.2byte	0x1ad
 7761 269f 9F060000 		.4byte	0x69f
 7762 26a3 25       		.uleb128 0x25
 7763 26a4 0C000000 		.4byte	.LVL208
ARM GAS  C:\Users\haske\AppData\Local\Temp\cc0eRFVw.s 			page 149


 7764 26a8 1D340000 		.4byte	0x341d
 7765 26ac 26       		.uleb128 0x26
 7766 26ad 01       		.uleb128 0x1
 7767 26ae 50       		.byte	0x50
 7768 26af 03       		.uleb128 0x3
 7769 26b0 F3       		.byte	0xf3
 7770 26b1 01       		.uleb128 0x1
 7771 26b2 50       		.byte	0x50
 7772 26b3 26       		.uleb128 0x26
 7773 26b4 01       		.uleb128 0x1
 7774 26b5 51       		.byte	0x51
 7775 26b6 02       		.uleb128 0x2
 7776 26b7 08       		.byte	0x8
 7777 26b8 48       		.byte	0x48
 7778 26b9 26       		.uleb128 0x26
 7779 26ba 01       		.uleb128 0x1
 7780 26bb 53       		.byte	0x53
 7781 26bc 03       		.uleb128 0x3
 7782 26bd F3       		.byte	0xf3
 7783 26be 01       		.uleb128 0x1
 7784 26bf 52       		.byte	0x52
 7785 26c0 00       		.byte	0
 7786 26c1 00       		.byte	0
 7787 26c2 27       		.uleb128 0x27
 7788 26c3 420C0000 		.4byte	.LASF382
 7789 26c7 01       		.byte	0x1
 7790 26c8 B301     		.2byte	0x1b3
 7791 26ca 00000000 		.4byte	.LFB213
 7792 26ce 0E000000 		.4byte	.LFE213-.LFB213
 7793 26d2 01       		.uleb128 0x1
 7794 26d3 9C       		.byte	0x9c
 7795 26d4 31270000 		.4byte	0x2731
 7796 26d8 28       		.uleb128 0x28
 7797 26d9 6F626A00 		.ascii	"obj\000"
 7798 26dd 01       		.byte	0x1
 7799 26de B301     		.2byte	0x1b3
 7800 26e0 F6090000 		.4byte	0x9f6
 7801 26e4 E8160000 		.4byte	.LLST162
 7802 26e8 29       		.uleb128 0x29
 7803 26e9 02090000 		.4byte	.LASF196
 7804 26ed 01       		.byte	0x1
 7805 26ee B301     		.2byte	0x1b3
 7806 26f0 F6000000 		.4byte	0xf6
 7807 26f4 09170000 		.4byte	.LLST163
 7808 26f8 29       		.uleb128 0x29
 7809 26f9 161D0000 		.4byte	.LASF239
 7810 26fd 01       		.byte	0x1
 7811 26fe B301     		.2byte	0x1b3
 7812 2700 D40B0000 		.4byte	0xbd4
 7813 2704 2A170000 		.4byte	.LLST164
 7814 2708 2A       		.uleb128 0x2a
 7815 2709 7600     		.ascii	"v\000"
 7816 270b 01       		.byte	0x1
 7817 270c B501     		.2byte	0x1b5
 7818 270e 9F060000 		.4byte	0x69f
 7819 2712 25       		.uleb128 0x25
 7820 2713 0C000000 		.4byte	.LVL212
ARM GAS  C:\Users\haske\AppData\Local\Temp\cc0eRFVw.s 			page 150


 7821 2717 1D340000 		.4byte	0x341d
 7822 271b 26       		.uleb128 0x26
 7823 271c 01       		.uleb128 0x1
 7824 271d 50       		.byte	0x50
 7825 271e 03       		.uleb128 0x3
 7826 271f F3       		.byte	0xf3
 7827 2720 01       		.uleb128 0x1
 7828 2721 50       		.byte	0x50
 7829 2722 26       		.uleb128 0x26
 7830 2723 01       		.uleb128 0x1
 7831 2724 51       		.byte	0x51
 7832 2725 02       		.uleb128 0x2
 7833 2726 08       		.byte	0x8
 7834 2727 49       		.byte	0x49
 7835 2728 26       		.uleb128 0x26
 7836 2729 01       		.uleb128 0x1
 7837 272a 53       		.byte	0x53
 7838 272b 03       		.uleb128 0x3
 7839 272c F3       		.byte	0xf3
 7840 272d 01       		.uleb128 0x1
 7841 272e 52       		.byte	0x52
 7842 272f 00       		.byte	0
 7843 2730 00       		.byte	0
 7844 2731 27       		.uleb128 0x27
 7845 2732 6F1D0000 		.4byte	.LASF383
 7846 2736 01       		.byte	0x1
 7847 2737 BB01     		.2byte	0x1bb
 7848 2739 00000000 		.4byte	.LFB214
 7849 273d 0E000000 		.4byte	.LFE214-.LFB214
 7850 2741 01       		.uleb128 0x1
 7851 2742 9C       		.byte	0x9c
 7852 2743 A0270000 		.4byte	0x27a0
 7853 2747 28       		.uleb128 0x28
 7854 2748 6F626A00 		.ascii	"obj\000"
 7855 274c 01       		.byte	0x1
 7856 274d BB01     		.2byte	0x1bb
 7857 274f F6090000 		.4byte	0x9f6
 7858 2753 56170000 		.4byte	.LLST165
 7859 2757 29       		.uleb128 0x29
 7860 2758 02090000 		.4byte	.LASF196
 7861 275c 01       		.byte	0x1
 7862 275d BB01     		.2byte	0x1bb
 7863 275f F6000000 		.4byte	0xf6
 7864 2763 77170000 		.4byte	.LLST166
 7865 2767 29       		.uleb128 0x29
 7866 2768 161D0000 		.4byte	.LASF239
 7867 276c 01       		.byte	0x1
 7868 276d BB01     		.2byte	0x1bb
 7869 276f D40B0000 		.4byte	0xbd4
 7870 2773 98170000 		.4byte	.LLST167
 7871 2777 2A       		.uleb128 0x2a
 7872 2778 7600     		.ascii	"v\000"
 7873 277a 01       		.byte	0x1
 7874 277b BD01     		.2byte	0x1bd
 7875 277d 9F060000 		.4byte	0x69f
 7876 2781 25       		.uleb128 0x25
 7877 2782 0C000000 		.4byte	.LVL216
ARM GAS  C:\Users\haske\AppData\Local\Temp\cc0eRFVw.s 			page 151


 7878 2786 1D340000 		.4byte	0x341d
 7879 278a 26       		.uleb128 0x26
 7880 278b 01       		.uleb128 0x1
 7881 278c 50       		.byte	0x50
 7882 278d 03       		.uleb128 0x3
 7883 278e F3       		.byte	0xf3
 7884 278f 01       		.uleb128 0x1
 7885 2790 50       		.byte	0x50
 7886 2791 26       		.uleb128 0x26
 7887 2792 01       		.uleb128 0x1
 7888 2793 51       		.byte	0x51
 7889 2794 02       		.uleb128 0x2
 7890 2795 08       		.byte	0x8
 7891 2796 4A       		.byte	0x4a
 7892 2797 26       		.uleb128 0x26
 7893 2798 01       		.uleb128 0x1
 7894 2799 53       		.byte	0x53
 7895 279a 03       		.uleb128 0x3
 7896 279b F3       		.byte	0xf3
 7897 279c 01       		.uleb128 0x1
 7898 279d 52       		.byte	0x52
 7899 279e 00       		.byte	0
 7900 279f 00       		.byte	0
 7901 27a0 27       		.uleb128 0x27
 7902 27a1 E9130000 		.4byte	.LASF384
 7903 27a5 01       		.byte	0x1
 7904 27a6 C301     		.2byte	0x1c3
 7905 27a8 00000000 		.4byte	.LFB215
 7906 27ac 0E000000 		.4byte	.LFE215-.LFB215
 7907 27b0 01       		.uleb128 0x1
 7908 27b1 9C       		.byte	0x9c
 7909 27b2 0F280000 		.4byte	0x280f
 7910 27b6 28       		.uleb128 0x28
 7911 27b7 6F626A00 		.ascii	"obj\000"
 7912 27bb 01       		.byte	0x1
 7913 27bc C301     		.2byte	0x1c3
 7914 27be F6090000 		.4byte	0x9f6
 7915 27c2 C4170000 		.4byte	.LLST168
 7916 27c6 29       		.uleb128 0x29
 7917 27c7 02090000 		.4byte	.LASF196
 7918 27cb 01       		.byte	0x1
 7919 27cc C301     		.2byte	0x1c3
 7920 27ce F6000000 		.4byte	0xf6
 7921 27d2 E5170000 		.4byte	.LLST169
 7922 27d6 29       		.uleb128 0x29
 7923 27d7 161D0000 		.4byte	.LASF239
 7924 27db 01       		.byte	0x1
 7925 27dc C301     		.2byte	0x1c3
 7926 27de D40B0000 		.4byte	0xbd4
 7927 27e2 06180000 		.4byte	.LLST170
 7928 27e6 2A       		.uleb128 0x2a
 7929 27e7 7600     		.ascii	"v\000"
 7930 27e9 01       		.byte	0x1
 7931 27ea C501     		.2byte	0x1c5
 7932 27ec 9F060000 		.4byte	0x69f
 7933 27f0 25       		.uleb128 0x25
 7934 27f1 0C000000 		.4byte	.LVL220
ARM GAS  C:\Users\haske\AppData\Local\Temp\cc0eRFVw.s 			page 152


 7935 27f5 1D340000 		.4byte	0x341d
 7936 27f9 26       		.uleb128 0x26
 7937 27fa 01       		.uleb128 0x1
 7938 27fb 50       		.byte	0x50
 7939 27fc 03       		.uleb128 0x3
 7940 27fd F3       		.byte	0xf3
 7941 27fe 01       		.uleb128 0x1
 7942 27ff 50       		.byte	0x50
 7943 2800 26       		.uleb128 0x26
 7944 2801 01       		.uleb128 0x1
 7945 2802 51       		.byte	0x51
 7946 2803 02       		.uleb128 0x2
 7947 2804 08       		.byte	0x8
 7948 2805 4B       		.byte	0x4b
 7949 2806 26       		.uleb128 0x26
 7950 2807 01       		.uleb128 0x1
 7951 2808 53       		.byte	0x53
 7952 2809 03       		.uleb128 0x3
 7953 280a F3       		.byte	0xf3
 7954 280b 01       		.uleb128 0x1
 7955 280c 52       		.byte	0x52
 7956 280d 00       		.byte	0
 7957 280e 00       		.byte	0
 7958 280f 27       		.uleb128 0x27
 7959 2810 AE170000 		.4byte	.LASF385
 7960 2814 01       		.byte	0x1
 7961 2815 CB01     		.2byte	0x1cb
 7962 2817 00000000 		.4byte	.LFB216
 7963 281b 0E000000 		.4byte	.LFE216-.LFB216
 7964 281f 01       		.uleb128 0x1
 7965 2820 9C       		.byte	0x9c
 7966 2821 7E280000 		.4byte	0x287e
 7967 2825 28       		.uleb128 0x28
 7968 2826 6F626A00 		.ascii	"obj\000"
 7969 282a 01       		.byte	0x1
 7970 282b CB01     		.2byte	0x1cb
 7971 282d F6090000 		.4byte	0x9f6
 7972 2831 32180000 		.4byte	.LLST171
 7973 2835 29       		.uleb128 0x29
 7974 2836 02090000 		.4byte	.LASF196
 7975 283a 01       		.byte	0x1
 7976 283b CB01     		.2byte	0x1cb
 7977 283d AA020000 		.4byte	0x2aa
 7978 2841 53180000 		.4byte	.LLST172
 7979 2845 29       		.uleb128 0x29
 7980 2846 161D0000 		.4byte	.LASF239
 7981 284a 01       		.byte	0x1
 7982 284b CB01     		.2byte	0x1cb
 7983 284d D40B0000 		.4byte	0xbd4
 7984 2851 74180000 		.4byte	.LLST173
 7985 2855 2A       		.uleb128 0x2a
 7986 2856 7600     		.ascii	"v\000"
 7987 2858 01       		.byte	0x1
 7988 2859 CD01     		.2byte	0x1cd
 7989 285b 9F060000 		.4byte	0x69f
 7990 285f 25       		.uleb128 0x25
 7991 2860 0C000000 		.4byte	.LVL224
ARM GAS  C:\Users\haske\AppData\Local\Temp\cc0eRFVw.s 			page 153


 7992 2864 1D340000 		.4byte	0x341d
 7993 2868 26       		.uleb128 0x26
 7994 2869 01       		.uleb128 0x1
 7995 286a 50       		.byte	0x50
 7996 286b 03       		.uleb128 0x3
 7997 286c F3       		.byte	0xf3
 7998 286d 01       		.uleb128 0x1
 7999 286e 50       		.byte	0x50
 8000 286f 26       		.uleb128 0x26
 8001 2870 01       		.uleb128 0x1
 8002 2871 51       		.byte	0x51
 8003 2872 02       		.uleb128 0x2
 8004 2873 08       		.byte	0x8
 8005 2874 4C       		.byte	0x4c
 8006 2875 26       		.uleb128 0x26
 8007 2876 01       		.uleb128 0x1
 8008 2877 53       		.byte	0x53
 8009 2878 03       		.uleb128 0x3
 8010 2879 F3       		.byte	0xf3
 8011 287a 01       		.uleb128 0x1
 8012 287b 52       		.byte	0x52
 8013 287c 00       		.byte	0
 8014 287d 00       		.byte	0
 8015 287e 27       		.uleb128 0x27
 8016 287f 63120000 		.4byte	.LASF386
 8017 2883 01       		.byte	0x1
 8018 2884 D301     		.2byte	0x1d3
 8019 2886 00000000 		.4byte	.LFB217
 8020 288a 0E000000 		.4byte	.LFE217-.LFB217
 8021 288e 01       		.uleb128 0x1
 8022 288f 9C       		.byte	0x9c
 8023 2890 ED280000 		.4byte	0x28ed
 8024 2894 28       		.uleb128 0x28
 8025 2895 6F626A00 		.ascii	"obj\000"
 8026 2899 01       		.byte	0x1
 8027 289a D301     		.2byte	0x1d3
 8028 289c F6090000 		.4byte	0x9f6
 8029 28a0 A0180000 		.4byte	.LLST174
 8030 28a4 29       		.uleb128 0x29
 8031 28a5 02090000 		.4byte	.LASF196
 8032 28a9 01       		.byte	0x1
 8033 28aa D301     		.2byte	0x1d3
 8034 28ac 63030000 		.4byte	0x363
 8035 28b0 C1180000 		.4byte	.LLST175
 8036 28b4 29       		.uleb128 0x29
 8037 28b5 161D0000 		.4byte	.LASF239
 8038 28b9 01       		.byte	0x1
 8039 28ba D301     		.2byte	0x1d3
 8040 28bc D40B0000 		.4byte	0xbd4
 8041 28c0 D4180000 		.4byte	.LLST176
 8042 28c4 2A       		.uleb128 0x2a
 8043 28c5 7600     		.ascii	"v\000"
 8044 28c7 01       		.byte	0x1
 8045 28c8 D501     		.2byte	0x1d5
 8046 28ca 9F060000 		.4byte	0x69f
 8047 28ce 25       		.uleb128 0x25
 8048 28cf 0C000000 		.4byte	.LVL227
ARM GAS  C:\Users\haske\AppData\Local\Temp\cc0eRFVw.s 			page 154


 8049 28d3 1D340000 		.4byte	0x341d
 8050 28d7 26       		.uleb128 0x26
 8051 28d8 01       		.uleb128 0x1
 8052 28d9 50       		.byte	0x50
 8053 28da 03       		.uleb128 0x3
 8054 28db F3       		.byte	0xf3
 8055 28dc 01       		.uleb128 0x1
 8056 28dd 50       		.byte	0x50
 8057 28de 26       		.uleb128 0x26
 8058 28df 01       		.uleb128 0x1
 8059 28e0 51       		.byte	0x51
 8060 28e1 02       		.uleb128 0x2
 8061 28e2 08       		.byte	0x8
 8062 28e3 4D       		.byte	0x4d
 8063 28e4 26       		.uleb128 0x26
 8064 28e5 01       		.uleb128 0x1
 8065 28e6 53       		.byte	0x53
 8066 28e7 03       		.uleb128 0x3
 8067 28e8 F3       		.byte	0xf3
 8068 28e9 01       		.uleb128 0x1
 8069 28ea 52       		.byte	0x52
 8070 28eb 00       		.byte	0
 8071 28ec 00       		.byte	0
 8072 28ed 27       		.uleb128 0x27
 8073 28ee A6160000 		.4byte	.LASF387
 8074 28f2 01       		.byte	0x1
 8075 28f3 DB01     		.2byte	0x1db
 8076 28f5 00000000 		.4byte	.LFB218
 8077 28f9 0E000000 		.4byte	.LFE218-.LFB218
 8078 28fd 01       		.uleb128 0x1
 8079 28fe 9C       		.byte	0x9c
 8080 28ff 5C290000 		.4byte	0x295c
 8081 2903 28       		.uleb128 0x28
 8082 2904 6F626A00 		.ascii	"obj\000"
 8083 2908 01       		.byte	0x1
 8084 2909 DB01     		.2byte	0x1db
 8085 290b F6090000 		.4byte	0x9f6
 8086 290f 00190000 		.4byte	.LLST177
 8087 2913 29       		.uleb128 0x29
 8088 2914 02090000 		.4byte	.LASF196
 8089 2918 01       		.byte	0x1
 8090 2919 DB01     		.2byte	0x1db
 8091 291b 6E030000 		.4byte	0x36e
 8092 291f 21190000 		.4byte	.LLST178
 8093 2923 29       		.uleb128 0x29
 8094 2924 161D0000 		.4byte	.LASF239
 8095 2928 01       		.byte	0x1
 8096 2929 DB01     		.2byte	0x1db
 8097 292b D40B0000 		.4byte	0xbd4
 8098 292f 42190000 		.4byte	.LLST179
 8099 2933 2A       		.uleb128 0x2a
 8100 2934 7600     		.ascii	"v\000"
 8101 2936 01       		.byte	0x1
 8102 2937 DD01     		.2byte	0x1dd
 8103 2939 9F060000 		.4byte	0x69f
 8104 293d 25       		.uleb128 0x25
 8105 293e 0C000000 		.4byte	.LVL231
ARM GAS  C:\Users\haske\AppData\Local\Temp\cc0eRFVw.s 			page 155


 8106 2942 1D340000 		.4byte	0x341d
 8107 2946 26       		.uleb128 0x26
 8108 2947 01       		.uleb128 0x1
 8109 2948 50       		.byte	0x50
 8110 2949 03       		.uleb128 0x3
 8111 294a F3       		.byte	0xf3
 8112 294b 01       		.uleb128 0x1
 8113 294c 50       		.byte	0x50
 8114 294d 26       		.uleb128 0x26
 8115 294e 01       		.uleb128 0x1
 8116 294f 51       		.byte	0x51
 8117 2950 02       		.uleb128 0x2
 8118 2951 08       		.byte	0x8
 8119 2952 4E       		.byte	0x4e
 8120 2953 26       		.uleb128 0x26
 8121 2954 01       		.uleb128 0x1
 8122 2955 53       		.byte	0x53
 8123 2956 03       		.uleb128 0x3
 8124 2957 F3       		.byte	0xf3
 8125 2958 01       		.uleb128 0x1
 8126 2959 52       		.byte	0x52
 8127 295a 00       		.byte	0
 8128 295b 00       		.byte	0
 8129 295c 27       		.uleb128 0x27
 8130 295d E4040000 		.4byte	.LASF388
 8131 2961 01       		.byte	0x1
 8132 2962 E301     		.2byte	0x1e3
 8133 2964 00000000 		.4byte	.LFB219
 8134 2968 0E000000 		.4byte	.LFE219-.LFB219
 8135 296c 01       		.uleb128 0x1
 8136 296d 9C       		.byte	0x9c
 8137 296e CB290000 		.4byte	0x29cb
 8138 2972 28       		.uleb128 0x28
 8139 2973 6F626A00 		.ascii	"obj\000"
 8140 2977 01       		.byte	0x1
 8141 2978 E301     		.2byte	0x1e3
 8142 297a F6090000 		.4byte	0x9f6
 8143 297e 6E190000 		.4byte	.LLST180
 8144 2982 29       		.uleb128 0x29
 8145 2983 02090000 		.4byte	.LASF196
 8146 2987 01       		.byte	0x1
 8147 2988 E301     		.2byte	0x1e3
 8148 298a F6000000 		.4byte	0xf6
 8149 298e 8F190000 		.4byte	.LLST181
 8150 2992 29       		.uleb128 0x29
 8151 2993 161D0000 		.4byte	.LASF239
 8152 2997 01       		.byte	0x1
 8153 2998 E301     		.2byte	0x1e3
 8154 299a D40B0000 		.4byte	0xbd4
 8155 299e B0190000 		.4byte	.LLST182
 8156 29a2 2A       		.uleb128 0x2a
 8157 29a3 7600     		.ascii	"v\000"
 8158 29a5 01       		.byte	0x1
 8159 29a6 E501     		.2byte	0x1e5
 8160 29a8 9F060000 		.4byte	0x69f
 8161 29ac 25       		.uleb128 0x25
 8162 29ad 0C000000 		.4byte	.LVL235
ARM GAS  C:\Users\haske\AppData\Local\Temp\cc0eRFVw.s 			page 156


 8163 29b1 1D340000 		.4byte	0x341d
 8164 29b5 26       		.uleb128 0x26
 8165 29b6 01       		.uleb128 0x1
 8166 29b7 50       		.byte	0x50
 8167 29b8 03       		.uleb128 0x3
 8168 29b9 F3       		.byte	0xf3
 8169 29ba 01       		.uleb128 0x1
 8170 29bb 50       		.byte	0x50
 8171 29bc 26       		.uleb128 0x26
 8172 29bd 01       		.uleb128 0x1
 8173 29be 51       		.byte	0x51
 8174 29bf 02       		.uleb128 0x2
 8175 29c0 08       		.byte	0x8
 8176 29c1 50       		.byte	0x50
 8177 29c2 26       		.uleb128 0x26
 8178 29c3 01       		.uleb128 0x1
 8179 29c4 53       		.byte	0x53
 8180 29c5 03       		.uleb128 0x3
 8181 29c6 F3       		.byte	0xf3
 8182 29c7 01       		.uleb128 0x1
 8183 29c8 52       		.byte	0x52
 8184 29c9 00       		.byte	0
 8185 29ca 00       		.byte	0
 8186 29cb 27       		.uleb128 0x27
 8187 29cc 93050000 		.4byte	.LASF389
 8188 29d0 01       		.byte	0x1
 8189 29d1 EB01     		.2byte	0x1eb
 8190 29d3 00000000 		.4byte	.LFB220
 8191 29d7 0E000000 		.4byte	.LFE220-.LFB220
 8192 29db 01       		.uleb128 0x1
 8193 29dc 9C       		.byte	0x9c
 8194 29dd 3A2A0000 		.4byte	0x2a3a
 8195 29e1 28       		.uleb128 0x28
 8196 29e2 6F626A00 		.ascii	"obj\000"
 8197 29e6 01       		.byte	0x1
 8198 29e7 EB01     		.2byte	0x1eb
 8199 29e9 F6090000 		.4byte	0x9f6
 8200 29ed DC190000 		.4byte	.LLST183
 8201 29f1 29       		.uleb128 0x29
 8202 29f2 02090000 		.4byte	.LASF196
 8203 29f6 01       		.byte	0x1
 8204 29f7 EB01     		.2byte	0x1eb
 8205 29f9 AA020000 		.4byte	0x2aa
 8206 29fd FD190000 		.4byte	.LLST184
 8207 2a01 29       		.uleb128 0x29
 8208 2a02 161D0000 		.4byte	.LASF239
 8209 2a06 01       		.byte	0x1
 8210 2a07 EB01     		.2byte	0x1eb
 8211 2a09 D40B0000 		.4byte	0xbd4
 8212 2a0d 1E1A0000 		.4byte	.LLST185
 8213 2a11 2A       		.uleb128 0x2a
 8214 2a12 7600     		.ascii	"v\000"
 8215 2a14 01       		.byte	0x1
 8216 2a15 ED01     		.2byte	0x1ed
 8217 2a17 9F060000 		.4byte	0x69f
 8218 2a1b 25       		.uleb128 0x25
 8219 2a1c 0C000000 		.4byte	.LVL239
ARM GAS  C:\Users\haske\AppData\Local\Temp\cc0eRFVw.s 			page 157


 8220 2a20 1D340000 		.4byte	0x341d
 8221 2a24 26       		.uleb128 0x26
 8222 2a25 01       		.uleb128 0x1
 8223 2a26 50       		.byte	0x50
 8224 2a27 03       		.uleb128 0x3
 8225 2a28 F3       		.byte	0xf3
 8226 2a29 01       		.uleb128 0x1
 8227 2a2a 50       		.byte	0x50
 8228 2a2b 26       		.uleb128 0x26
 8229 2a2c 01       		.uleb128 0x1
 8230 2a2d 51       		.byte	0x51
 8231 2a2e 02       		.uleb128 0x2
 8232 2a2f 08       		.byte	0x8
 8233 2a30 51       		.byte	0x51
 8234 2a31 26       		.uleb128 0x26
 8235 2a32 01       		.uleb128 0x1
 8236 2a33 53       		.byte	0x53
 8237 2a34 03       		.uleb128 0x3
 8238 2a35 F3       		.byte	0xf3
 8239 2a36 01       		.uleb128 0x1
 8240 2a37 52       		.byte	0x52
 8241 2a38 00       		.byte	0
 8242 2a39 00       		.byte	0
 8243 2a3a 27       		.uleb128 0x27
 8244 2a3b B4150000 		.4byte	.LASF390
 8245 2a3f 01       		.byte	0x1
 8246 2a40 F301     		.2byte	0x1f3
 8247 2a42 00000000 		.4byte	.LFB221
 8248 2a46 0E000000 		.4byte	.LFE221-.LFB221
 8249 2a4a 01       		.uleb128 0x1
 8250 2a4b 9C       		.byte	0x9c
 8251 2a4c A92A0000 		.4byte	0x2aa9
 8252 2a50 28       		.uleb128 0x28
 8253 2a51 6F626A00 		.ascii	"obj\000"
 8254 2a55 01       		.byte	0x1
 8255 2a56 F301     		.2byte	0x1f3
 8256 2a58 F6090000 		.4byte	0x9f6
 8257 2a5c 4A1A0000 		.4byte	.LLST186
 8258 2a60 29       		.uleb128 0x29
 8259 2a61 02090000 		.4byte	.LASF196
 8260 2a65 01       		.byte	0x1
 8261 2a66 F301     		.2byte	0x1f3
 8262 2a68 63030000 		.4byte	0x363
 8263 2a6c 6B1A0000 		.4byte	.LLST187
 8264 2a70 29       		.uleb128 0x29
 8265 2a71 161D0000 		.4byte	.LASF239
 8266 2a75 01       		.byte	0x1
 8267 2a76 F301     		.2byte	0x1f3
 8268 2a78 D40B0000 		.4byte	0xbd4
 8269 2a7c 7E1A0000 		.4byte	.LLST188
 8270 2a80 2A       		.uleb128 0x2a
 8271 2a81 7600     		.ascii	"v\000"
 8272 2a83 01       		.byte	0x1
 8273 2a84 F501     		.2byte	0x1f5
 8274 2a86 9F060000 		.4byte	0x69f
 8275 2a8a 25       		.uleb128 0x25
 8276 2a8b 0C000000 		.4byte	.LVL242
ARM GAS  C:\Users\haske\AppData\Local\Temp\cc0eRFVw.s 			page 158


 8277 2a8f 1D340000 		.4byte	0x341d
 8278 2a93 26       		.uleb128 0x26
 8279 2a94 01       		.uleb128 0x1
 8280 2a95 50       		.byte	0x50
 8281 2a96 03       		.uleb128 0x3
 8282 2a97 F3       		.byte	0xf3
 8283 2a98 01       		.uleb128 0x1
 8284 2a99 50       		.byte	0x50
 8285 2a9a 26       		.uleb128 0x26
 8286 2a9b 01       		.uleb128 0x1
 8287 2a9c 51       		.byte	0x51
 8288 2a9d 02       		.uleb128 0x2
 8289 2a9e 08       		.byte	0x8
 8290 2a9f 52       		.byte	0x52
 8291 2aa0 26       		.uleb128 0x26
 8292 2aa1 01       		.uleb128 0x1
 8293 2aa2 53       		.byte	0x53
 8294 2aa3 03       		.uleb128 0x3
 8295 2aa4 F3       		.byte	0xf3
 8296 2aa5 01       		.uleb128 0x1
 8297 2aa6 52       		.byte	0x52
 8298 2aa7 00       		.byte	0
 8299 2aa8 00       		.byte	0
 8300 2aa9 27       		.uleb128 0x27
 8301 2aaa 491B0000 		.4byte	.LASF391
 8302 2aae 01       		.byte	0x1
 8303 2aaf FB01     		.2byte	0x1fb
 8304 2ab1 00000000 		.4byte	.LFB222
 8305 2ab5 0E000000 		.4byte	.LFE222-.LFB222
 8306 2ab9 01       		.uleb128 0x1
 8307 2aba 9C       		.byte	0x9c
 8308 2abb 182B0000 		.4byte	0x2b18
 8309 2abf 28       		.uleb128 0x28
 8310 2ac0 6F626A00 		.ascii	"obj\000"
 8311 2ac4 01       		.byte	0x1
 8312 2ac5 FB01     		.2byte	0x1fb
 8313 2ac7 F6090000 		.4byte	0x9f6
 8314 2acb AA1A0000 		.4byte	.LLST189
 8315 2acf 29       		.uleb128 0x29
 8316 2ad0 02090000 		.4byte	.LASF196
 8317 2ad4 01       		.byte	0x1
 8318 2ad5 FB01     		.2byte	0x1fb
 8319 2ad7 6E030000 		.4byte	0x36e
 8320 2adb CB1A0000 		.4byte	.LLST190
 8321 2adf 29       		.uleb128 0x29
 8322 2ae0 161D0000 		.4byte	.LASF239
 8323 2ae4 01       		.byte	0x1
 8324 2ae5 FB01     		.2byte	0x1fb
 8325 2ae7 D40B0000 		.4byte	0xbd4
 8326 2aeb EC1A0000 		.4byte	.LLST191
 8327 2aef 2A       		.uleb128 0x2a
 8328 2af0 7600     		.ascii	"v\000"
 8329 2af2 01       		.byte	0x1
 8330 2af3 FD01     		.2byte	0x1fd
 8331 2af5 9F060000 		.4byte	0x69f
 8332 2af9 25       		.uleb128 0x25
 8333 2afa 0C000000 		.4byte	.LVL246
ARM GAS  C:\Users\haske\AppData\Local\Temp\cc0eRFVw.s 			page 159


 8334 2afe 1D340000 		.4byte	0x341d
 8335 2b02 26       		.uleb128 0x26
 8336 2b03 01       		.uleb128 0x1
 8337 2b04 50       		.byte	0x50
 8338 2b05 03       		.uleb128 0x3
 8339 2b06 F3       		.byte	0xf3
 8340 2b07 01       		.uleb128 0x1
 8341 2b08 50       		.byte	0x50
 8342 2b09 26       		.uleb128 0x26
 8343 2b0a 01       		.uleb128 0x1
 8344 2b0b 51       		.byte	0x51
 8345 2b0c 02       		.uleb128 0x2
 8346 2b0d 08       		.byte	0x8
 8347 2b0e 53       		.byte	0x53
 8348 2b0f 26       		.uleb128 0x26
 8349 2b10 01       		.uleb128 0x1
 8350 2b11 53       		.byte	0x53
 8351 2b12 03       		.uleb128 0x3
 8352 2b13 F3       		.byte	0xf3
 8353 2b14 01       		.uleb128 0x1
 8354 2b15 52       		.byte	0x52
 8355 2b16 00       		.byte	0
 8356 2b17 00       		.byte	0
 8357 2b18 27       		.uleb128 0x27
 8358 2b19 87060000 		.4byte	.LASF392
 8359 2b1d 01       		.byte	0x1
 8360 2b1e 0302     		.2byte	0x203
 8361 2b20 00000000 		.4byte	.LFB223
 8362 2b24 0E000000 		.4byte	.LFE223-.LFB223
 8363 2b28 01       		.uleb128 0x1
 8364 2b29 9C       		.byte	0x9c
 8365 2b2a 8E2B0000 		.4byte	0x2b8e
 8366 2b2e 28       		.uleb128 0x28
 8367 2b2f 6F626A00 		.ascii	"obj\000"
 8368 2b33 01       		.byte	0x1
 8369 2b34 0302     		.2byte	0x203
 8370 2b36 F6090000 		.4byte	0x9f6
 8371 2b3a 181B0000 		.4byte	.LLST192
 8372 2b3e 29       		.uleb128 0x29
 8373 2b3f 02090000 		.4byte	.LASF196
 8374 2b43 01       		.byte	0x1
 8375 2b44 0302     		.2byte	0x203
 8376 2b46 E2020000 		.4byte	0x2e2
 8377 2b4a 391B0000 		.4byte	.LLST193
 8378 2b4e 29       		.uleb128 0x29
 8379 2b4f 161D0000 		.4byte	.LASF239
 8380 2b53 01       		.byte	0x1
 8381 2b54 0302     		.2byte	0x203
 8382 2b56 D40B0000 		.4byte	0xbd4
 8383 2b5a 651B0000 		.4byte	.LLST194
 8384 2b5e 2A       		.uleb128 0x2a
 8385 2b5f 7600     		.ascii	"v\000"
 8386 2b61 01       		.byte	0x1
 8387 2b62 0502     		.2byte	0x205
 8388 2b64 9F060000 		.4byte	0x69f
 8389 2b68 25       		.uleb128 0x25
 8390 2b69 0C000000 		.4byte	.LVL250
ARM GAS  C:\Users\haske\AppData\Local\Temp\cc0eRFVw.s 			page 160


 8391 2b6d 1D340000 		.4byte	0x341d
 8392 2b71 26       		.uleb128 0x26
 8393 2b72 01       		.uleb128 0x1
 8394 2b73 50       		.byte	0x50
 8395 2b74 03       		.uleb128 0x3
 8396 2b75 F3       		.byte	0xf3
 8397 2b76 01       		.uleb128 0x1
 8398 2b77 50       		.byte	0x50
 8399 2b78 26       		.uleb128 0x26
 8400 2b79 01       		.uleb128 0x1
 8401 2b7a 51       		.byte	0x51
 8402 2b7b 02       		.uleb128 0x2
 8403 2b7c 08       		.byte	0x8
 8404 2b7d 54       		.byte	0x54
 8405 2b7e 26       		.uleb128 0x26
 8406 2b7f 01       		.uleb128 0x1
 8407 2b80 52       		.byte	0x52
 8408 2b81 03       		.uleb128 0x3
 8409 2b82 F3       		.byte	0xf3
 8410 2b83 01       		.uleb128 0x1
 8411 2b84 51       		.byte	0x51
 8412 2b85 26       		.uleb128 0x26
 8413 2b86 01       		.uleb128 0x1
 8414 2b87 53       		.byte	0x53
 8415 2b88 03       		.uleb128 0x3
 8416 2b89 F3       		.byte	0xf3
 8417 2b8a 01       		.uleb128 0x1
 8418 2b8b 52       		.byte	0x52
 8419 2b8c 00       		.byte	0
 8420 2b8d 00       		.byte	0
 8421 2b8e 27       		.uleb128 0x27
 8422 2b8f 78150000 		.4byte	.LASF393
 8423 2b93 01       		.byte	0x1
 8424 2b94 0B02     		.2byte	0x20b
 8425 2b96 00000000 		.4byte	.LFB224
 8426 2b9a 0E000000 		.4byte	.LFE224-.LFB224
 8427 2b9e 01       		.uleb128 0x1
 8428 2b9f 9C       		.byte	0x9c
 8429 2ba0 FD2B0000 		.4byte	0x2bfd
 8430 2ba4 28       		.uleb128 0x28
 8431 2ba5 6F626A00 		.ascii	"obj\000"
 8432 2ba9 01       		.byte	0x1
 8433 2baa 0B02     		.2byte	0x20b
 8434 2bac F6090000 		.4byte	0x9f6
 8435 2bb0 911B0000 		.4byte	.LLST195
 8436 2bb4 29       		.uleb128 0x29
 8437 2bb5 02090000 		.4byte	.LASF196
 8438 2bb9 01       		.byte	0x1
 8439 2bba 0B02     		.2byte	0x20b
 8440 2bbc 63030000 		.4byte	0x363
 8441 2bc0 B21B0000 		.4byte	.LLST196
 8442 2bc4 29       		.uleb128 0x29
 8443 2bc5 161D0000 		.4byte	.LASF239
 8444 2bc9 01       		.byte	0x1
 8445 2bca 0B02     		.2byte	0x20b
 8446 2bcc D40B0000 		.4byte	0xbd4
 8447 2bd0 C51B0000 		.4byte	.LLST197
ARM GAS  C:\Users\haske\AppData\Local\Temp\cc0eRFVw.s 			page 161


 8448 2bd4 2A       		.uleb128 0x2a
 8449 2bd5 7600     		.ascii	"v\000"
 8450 2bd7 01       		.byte	0x1
 8451 2bd8 0D02     		.2byte	0x20d
 8452 2bda 9F060000 		.4byte	0x69f
 8453 2bde 25       		.uleb128 0x25
 8454 2bdf 0C000000 		.4byte	.LVL253
 8455 2be3 1D340000 		.4byte	0x341d
 8456 2be7 26       		.uleb128 0x26
 8457 2be8 01       		.uleb128 0x1
 8458 2be9 50       		.byte	0x50
 8459 2bea 03       		.uleb128 0x3
 8460 2beb F3       		.byte	0xf3
 8461 2bec 01       		.uleb128 0x1
 8462 2bed 50       		.byte	0x50
 8463 2bee 26       		.uleb128 0x26
 8464 2bef 01       		.uleb128 0x1
 8465 2bf0 51       		.byte	0x51
 8466 2bf1 02       		.uleb128 0x2
 8467 2bf2 08       		.byte	0x8
 8468 2bf3 55       		.byte	0x55
 8469 2bf4 26       		.uleb128 0x26
 8470 2bf5 01       		.uleb128 0x1
 8471 2bf6 53       		.byte	0x53
 8472 2bf7 03       		.uleb128 0x3
 8473 2bf8 F3       		.byte	0xf3
 8474 2bf9 01       		.uleb128 0x1
 8475 2bfa 52       		.byte	0x52
 8476 2bfb 00       		.byte	0
 8477 2bfc 00       		.byte	0
 8478 2bfd 27       		.uleb128 0x27
 8479 2bfe 0F030000 		.4byte	.LASF394
 8480 2c02 01       		.byte	0x1
 8481 2c03 1302     		.2byte	0x213
 8482 2c05 00000000 		.4byte	.LFB225
 8483 2c09 0E000000 		.4byte	.LFE225-.LFB225
 8484 2c0d 01       		.uleb128 0x1
 8485 2c0e 9C       		.byte	0x9c
 8486 2c0f 6C2C0000 		.4byte	0x2c6c
 8487 2c13 28       		.uleb128 0x28
 8488 2c14 6F626A00 		.ascii	"obj\000"
 8489 2c18 01       		.byte	0x1
 8490 2c19 1302     		.2byte	0x213
 8491 2c1b F6090000 		.4byte	0x9f6
 8492 2c1f F11B0000 		.4byte	.LLST198
 8493 2c23 29       		.uleb128 0x29
 8494 2c24 02090000 		.4byte	.LASF196
 8495 2c28 01       		.byte	0x1
 8496 2c29 1302     		.2byte	0x213
 8497 2c2b 6E030000 		.4byte	0x36e
 8498 2c2f 121C0000 		.4byte	.LLST199
 8499 2c33 29       		.uleb128 0x29
 8500 2c34 161D0000 		.4byte	.LASF239
 8501 2c38 01       		.byte	0x1
 8502 2c39 1302     		.2byte	0x213
 8503 2c3b D40B0000 		.4byte	0xbd4
 8504 2c3f 331C0000 		.4byte	.LLST200
ARM GAS  C:\Users\haske\AppData\Local\Temp\cc0eRFVw.s 			page 162


 8505 2c43 2A       		.uleb128 0x2a
 8506 2c44 7600     		.ascii	"v\000"
 8507 2c46 01       		.byte	0x1
 8508 2c47 1502     		.2byte	0x215
 8509 2c49 9F060000 		.4byte	0x69f
 8510 2c4d 25       		.uleb128 0x25
 8511 2c4e 0C000000 		.4byte	.LVL257
 8512 2c52 1D340000 		.4byte	0x341d
 8513 2c56 26       		.uleb128 0x26
 8514 2c57 01       		.uleb128 0x1
 8515 2c58 50       		.byte	0x50
 8516 2c59 03       		.uleb128 0x3
 8517 2c5a F3       		.byte	0xf3
 8518 2c5b 01       		.uleb128 0x1
 8519 2c5c 50       		.byte	0x50
 8520 2c5d 26       		.uleb128 0x26
 8521 2c5e 01       		.uleb128 0x1
 8522 2c5f 51       		.byte	0x51
 8523 2c60 02       		.uleb128 0x2
 8524 2c61 08       		.byte	0x8
 8525 2c62 56       		.byte	0x56
 8526 2c63 26       		.uleb128 0x26
 8527 2c64 01       		.uleb128 0x1
 8528 2c65 53       		.byte	0x53
 8529 2c66 03       		.uleb128 0x3
 8530 2c67 F3       		.byte	0xf3
 8531 2c68 01       		.uleb128 0x1
 8532 2c69 52       		.byte	0x52
 8533 2c6a 00       		.byte	0
 8534 2c6b 00       		.byte	0
 8535 2c6c 27       		.uleb128 0x27
 8536 2c6d DA0A0000 		.4byte	.LASF395
 8537 2c71 01       		.byte	0x1
 8538 2c72 1B02     		.2byte	0x21b
 8539 2c74 00000000 		.4byte	.LFB226
 8540 2c78 0E000000 		.4byte	.LFE226-.LFB226
 8541 2c7c 01       		.uleb128 0x1
 8542 2c7d 9C       		.byte	0x9c
 8543 2c7e E22C0000 		.4byte	0x2ce2
 8544 2c82 28       		.uleb128 0x28
 8545 2c83 6F626A00 		.ascii	"obj\000"
 8546 2c87 01       		.byte	0x1
 8547 2c88 1B02     		.2byte	0x21b
 8548 2c8a F6090000 		.4byte	0x9f6
 8549 2c8e 5F1C0000 		.4byte	.LLST201
 8550 2c92 29       		.uleb128 0x29
 8551 2c93 02090000 		.4byte	.LASF196
 8552 2c97 01       		.byte	0x1
 8553 2c98 1B02     		.2byte	0x21b
 8554 2c9a C30A0000 		.4byte	0xac3
 8555 2c9e 801C0000 		.4byte	.LLST202
 8556 2ca2 29       		.uleb128 0x29
 8557 2ca3 161D0000 		.4byte	.LASF239
 8558 2ca7 01       		.byte	0x1
 8559 2ca8 1B02     		.2byte	0x21b
 8560 2caa D40B0000 		.4byte	0xbd4
 8561 2cae AC1C0000 		.4byte	.LLST203
ARM GAS  C:\Users\haske\AppData\Local\Temp\cc0eRFVw.s 			page 163


 8562 2cb2 2A       		.uleb128 0x2a
 8563 2cb3 7600     		.ascii	"v\000"
 8564 2cb5 01       		.byte	0x1
 8565 2cb6 1D02     		.2byte	0x21d
 8566 2cb8 9F060000 		.4byte	0x69f
 8567 2cbc 25       		.uleb128 0x25
 8568 2cbd 0C000000 		.4byte	.LVL261
 8569 2cc1 1D340000 		.4byte	0x341d
 8570 2cc5 26       		.uleb128 0x26
 8571 2cc6 01       		.uleb128 0x1
 8572 2cc7 50       		.byte	0x50
 8573 2cc8 03       		.uleb128 0x3
 8574 2cc9 F3       		.byte	0xf3
 8575 2cca 01       		.uleb128 0x1
 8576 2ccb 50       		.byte	0x50
 8577 2ccc 26       		.uleb128 0x26
 8578 2ccd 01       		.uleb128 0x1
 8579 2cce 51       		.byte	0x51
 8580 2ccf 02       		.uleb128 0x2
 8581 2cd0 08       		.byte	0x8
 8582 2cd1 57       		.byte	0x57
 8583 2cd2 26       		.uleb128 0x26
 8584 2cd3 01       		.uleb128 0x1
 8585 2cd4 52       		.byte	0x52
 8586 2cd5 03       		.uleb128 0x3
 8587 2cd6 F3       		.byte	0xf3
 8588 2cd7 01       		.uleb128 0x1
 8589 2cd8 51       		.byte	0x51
 8590 2cd9 26       		.uleb128 0x26
 8591 2cda 01       		.uleb128 0x1
 8592 2cdb 53       		.byte	0x53
 8593 2cdc 03       		.uleb128 0x3
 8594 2cdd F3       		.byte	0xf3
 8595 2cde 01       		.uleb128 0x1
 8596 2cdf 52       		.byte	0x52
 8597 2ce0 00       		.byte	0
 8598 2ce1 00       		.byte	0
 8599 2ce2 27       		.uleb128 0x27
 8600 2ce3 470A0000 		.4byte	.LASF396
 8601 2ce7 01       		.byte	0x1
 8602 2ce8 2302     		.2byte	0x223
 8603 2cea 00000000 		.4byte	.LFB227
 8604 2cee 0E000000 		.4byte	.LFE227-.LFB227
 8605 2cf2 01       		.uleb128 0x1
 8606 2cf3 9C       		.byte	0x9c
 8607 2cf4 512D0000 		.4byte	0x2d51
 8608 2cf8 28       		.uleb128 0x28
 8609 2cf9 6F626A00 		.ascii	"obj\000"
 8610 2cfd 01       		.byte	0x1
 8611 2cfe 2302     		.2byte	0x223
 8612 2d00 F6090000 		.4byte	0x9f6
 8613 2d04 D81C0000 		.4byte	.LLST204
 8614 2d08 29       		.uleb128 0x29
 8615 2d09 02090000 		.4byte	.LASF196
 8616 2d0d 01       		.byte	0x1
 8617 2d0e 2302     		.2byte	0x223
 8618 2d10 F6000000 		.4byte	0xf6
ARM GAS  C:\Users\haske\AppData\Local\Temp\cc0eRFVw.s 			page 164


 8619 2d14 F91C0000 		.4byte	.LLST205
 8620 2d18 29       		.uleb128 0x29
 8621 2d19 161D0000 		.4byte	.LASF239
 8622 2d1d 01       		.byte	0x1
 8623 2d1e 2302     		.2byte	0x223
 8624 2d20 D40B0000 		.4byte	0xbd4
 8625 2d24 1A1D0000 		.4byte	.LLST206
 8626 2d28 2A       		.uleb128 0x2a
 8627 2d29 7600     		.ascii	"v\000"
 8628 2d2b 01       		.byte	0x1
 8629 2d2c 2502     		.2byte	0x225
 8630 2d2e 9F060000 		.4byte	0x69f
 8631 2d32 25       		.uleb128 0x25
 8632 2d33 0C000000 		.4byte	.LVL265
 8633 2d37 1D340000 		.4byte	0x341d
 8634 2d3b 26       		.uleb128 0x26
 8635 2d3c 01       		.uleb128 0x1
 8636 2d3d 50       		.byte	0x50
 8637 2d3e 03       		.uleb128 0x3
 8638 2d3f F3       		.byte	0xf3
 8639 2d40 01       		.uleb128 0x1
 8640 2d41 50       		.byte	0x50
 8641 2d42 26       		.uleb128 0x26
 8642 2d43 01       		.uleb128 0x1
 8643 2d44 51       		.byte	0x51
 8644 2d45 02       		.uleb128 0x2
 8645 2d46 08       		.byte	0x8
 8646 2d47 58       		.byte	0x58
 8647 2d48 26       		.uleb128 0x26
 8648 2d49 01       		.uleb128 0x1
 8649 2d4a 53       		.byte	0x53
 8650 2d4b 03       		.uleb128 0x3
 8651 2d4c F3       		.byte	0xf3
 8652 2d4d 01       		.uleb128 0x1
 8653 2d4e 52       		.byte	0x52
 8654 2d4f 00       		.byte	0
 8655 2d50 00       		.byte	0
 8656 2d51 27       		.uleb128 0x27
 8657 2d52 70000000 		.4byte	.LASF397
 8658 2d56 01       		.byte	0x1
 8659 2d57 2B02     		.2byte	0x22b
 8660 2d59 00000000 		.4byte	.LFB228
 8661 2d5d 0E000000 		.4byte	.LFE228-.LFB228
 8662 2d61 01       		.uleb128 0x1
 8663 2d62 9C       		.byte	0x9c
 8664 2d63 C02D0000 		.4byte	0x2dc0
 8665 2d67 28       		.uleb128 0x28
 8666 2d68 6F626A00 		.ascii	"obj\000"
 8667 2d6c 01       		.byte	0x1
 8668 2d6d 2B02     		.2byte	0x22b
 8669 2d6f F6090000 		.4byte	0x9f6
 8670 2d73 461D0000 		.4byte	.LLST207
 8671 2d77 29       		.uleb128 0x29
 8672 2d78 02090000 		.4byte	.LASF196
 8673 2d7c 01       		.byte	0x1
 8674 2d7d 2B02     		.2byte	0x22b
 8675 2d7f F6000000 		.4byte	0xf6
ARM GAS  C:\Users\haske\AppData\Local\Temp\cc0eRFVw.s 			page 165


 8676 2d83 671D0000 		.4byte	.LLST208
 8677 2d87 29       		.uleb128 0x29
 8678 2d88 161D0000 		.4byte	.LASF239
 8679 2d8c 01       		.byte	0x1
 8680 2d8d 2B02     		.2byte	0x22b
 8681 2d8f D40B0000 		.4byte	0xbd4
 8682 2d93 881D0000 		.4byte	.LLST209
 8683 2d97 2A       		.uleb128 0x2a
 8684 2d98 7600     		.ascii	"v\000"
 8685 2d9a 01       		.byte	0x1
 8686 2d9b 2D02     		.2byte	0x22d
 8687 2d9d 9F060000 		.4byte	0x69f
 8688 2da1 25       		.uleb128 0x25
 8689 2da2 0C000000 		.4byte	.LVL269
 8690 2da6 1D340000 		.4byte	0x341d
 8691 2daa 26       		.uleb128 0x26
 8692 2dab 01       		.uleb128 0x1
 8693 2dac 50       		.byte	0x50
 8694 2dad 03       		.uleb128 0x3
 8695 2dae F3       		.byte	0xf3
 8696 2daf 01       		.uleb128 0x1
 8697 2db0 50       		.byte	0x50
 8698 2db1 26       		.uleb128 0x26
 8699 2db2 01       		.uleb128 0x1
 8700 2db3 51       		.byte	0x51
 8701 2db4 02       		.uleb128 0x2
 8702 2db5 08       		.byte	0x8
 8703 2db6 59       		.byte	0x59
 8704 2db7 26       		.uleb128 0x26
 8705 2db8 01       		.uleb128 0x1
 8706 2db9 53       		.byte	0x53
 8707 2dba 03       		.uleb128 0x3
 8708 2dbb F3       		.byte	0xf3
 8709 2dbc 01       		.uleb128 0x1
 8710 2dbd 52       		.byte	0x52
 8711 2dbe 00       		.byte	0
 8712 2dbf 00       		.byte	0
 8713 2dc0 27       		.uleb128 0x27
 8714 2dc1 FA140000 		.4byte	.LASF398
 8715 2dc5 01       		.byte	0x1
 8716 2dc6 3302     		.2byte	0x233
 8717 2dc8 00000000 		.4byte	.LFB229
 8718 2dcc 0E000000 		.4byte	.LFE229-.LFB229
 8719 2dd0 01       		.uleb128 0x1
 8720 2dd1 9C       		.byte	0x9c
 8721 2dd2 2F2E0000 		.4byte	0x2e2f
 8722 2dd6 28       		.uleb128 0x28
 8723 2dd7 6F626A00 		.ascii	"obj\000"
 8724 2ddb 01       		.byte	0x1
 8725 2ddc 3302     		.2byte	0x233
 8726 2dde F6090000 		.4byte	0x9f6
 8727 2de2 B41D0000 		.4byte	.LLST210
 8728 2de6 29       		.uleb128 0x29
 8729 2de7 02090000 		.4byte	.LASF196
 8730 2deb 01       		.byte	0x1
 8731 2dec 3302     		.2byte	0x233
 8732 2dee C3050000 		.4byte	0x5c3
ARM GAS  C:\Users\haske\AppData\Local\Temp\cc0eRFVw.s 			page 166


 8733 2df2 D51D0000 		.4byte	.LLST211
 8734 2df6 29       		.uleb128 0x29
 8735 2df7 161D0000 		.4byte	.LASF239
 8736 2dfb 01       		.byte	0x1
 8737 2dfc 3302     		.2byte	0x233
 8738 2dfe D40B0000 		.4byte	0xbd4
 8739 2e02 F61D0000 		.4byte	.LLST212
 8740 2e06 2A       		.uleb128 0x2a
 8741 2e07 7600     		.ascii	"v\000"
 8742 2e09 01       		.byte	0x1
 8743 2e0a 3502     		.2byte	0x235
 8744 2e0c 9F060000 		.4byte	0x69f
 8745 2e10 25       		.uleb128 0x25
 8746 2e11 0C000000 		.4byte	.LVL273
 8747 2e15 1D340000 		.4byte	0x341d
 8748 2e19 26       		.uleb128 0x26
 8749 2e1a 01       		.uleb128 0x1
 8750 2e1b 50       		.byte	0x50
 8751 2e1c 03       		.uleb128 0x3
 8752 2e1d F3       		.byte	0xf3
 8753 2e1e 01       		.uleb128 0x1
 8754 2e1f 50       		.byte	0x50
 8755 2e20 26       		.uleb128 0x26
 8756 2e21 01       		.uleb128 0x1
 8757 2e22 51       		.byte	0x51
 8758 2e23 02       		.uleb128 0x2
 8759 2e24 08       		.byte	0x8
 8760 2e25 5A       		.byte	0x5a
 8761 2e26 26       		.uleb128 0x26
 8762 2e27 01       		.uleb128 0x1
 8763 2e28 53       		.byte	0x53
 8764 2e29 03       		.uleb128 0x3
 8765 2e2a F3       		.byte	0xf3
 8766 2e2b 01       		.uleb128 0x1
 8767 2e2c 52       		.byte	0x52
 8768 2e2d 00       		.byte	0
 8769 2e2e 00       		.byte	0
 8770 2e2f 27       		.uleb128 0x27
 8771 2e30 43130000 		.4byte	.LASF399
 8772 2e34 01       		.byte	0x1
 8773 2e35 3B02     		.2byte	0x23b
 8774 2e37 00000000 		.4byte	.LFB230
 8775 2e3b 0E000000 		.4byte	.LFE230-.LFB230
 8776 2e3f 01       		.uleb128 0x1
 8777 2e40 9C       		.byte	0x9c
 8778 2e41 9E2E0000 		.4byte	0x2e9e
 8779 2e45 28       		.uleb128 0x28
 8780 2e46 6F626A00 		.ascii	"obj\000"
 8781 2e4a 01       		.byte	0x1
 8782 2e4b 3B02     		.2byte	0x23b
 8783 2e4d F6090000 		.4byte	0x9f6
 8784 2e51 221E0000 		.4byte	.LLST213
 8785 2e55 29       		.uleb128 0x29
 8786 2e56 02090000 		.4byte	.LASF196
 8787 2e5a 01       		.byte	0x1
 8788 2e5b 3B02     		.2byte	0x23b
 8789 2e5d A2050000 		.4byte	0x5a2
ARM GAS  C:\Users\haske\AppData\Local\Temp\cc0eRFVw.s 			page 167


 8790 2e61 431E0000 		.4byte	.LLST214
 8791 2e65 29       		.uleb128 0x29
 8792 2e66 161D0000 		.4byte	.LASF239
 8793 2e6a 01       		.byte	0x1
 8794 2e6b 3B02     		.2byte	0x23b
 8795 2e6d D40B0000 		.4byte	0xbd4
 8796 2e71 641E0000 		.4byte	.LLST215
 8797 2e75 2A       		.uleb128 0x2a
 8798 2e76 7600     		.ascii	"v\000"
 8799 2e78 01       		.byte	0x1
 8800 2e79 3D02     		.2byte	0x23d
 8801 2e7b 9F060000 		.4byte	0x69f
 8802 2e7f 25       		.uleb128 0x25
 8803 2e80 0C000000 		.4byte	.LVL277
 8804 2e84 1D340000 		.4byte	0x341d
 8805 2e88 26       		.uleb128 0x26
 8806 2e89 01       		.uleb128 0x1
 8807 2e8a 50       		.byte	0x50
 8808 2e8b 03       		.uleb128 0x3
 8809 2e8c F3       		.byte	0xf3
 8810 2e8d 01       		.uleb128 0x1
 8811 2e8e 50       		.byte	0x50
 8812 2e8f 26       		.uleb128 0x26
 8813 2e90 01       		.uleb128 0x1
 8814 2e91 51       		.byte	0x51
 8815 2e92 02       		.uleb128 0x2
 8816 2e93 08       		.byte	0x8
 8817 2e94 5B       		.byte	0x5b
 8818 2e95 26       		.uleb128 0x26
 8819 2e96 01       		.uleb128 0x1
 8820 2e97 53       		.byte	0x53
 8821 2e98 03       		.uleb128 0x3
 8822 2e99 F3       		.byte	0xf3
 8823 2e9a 01       		.uleb128 0x1
 8824 2e9b 52       		.byte	0x52
 8825 2e9c 00       		.byte	0
 8826 2e9d 00       		.byte	0
 8827 2e9e 27       		.uleb128 0x27
 8828 2e9f A7190000 		.4byte	.LASF400
 8829 2ea3 01       		.byte	0x1
 8830 2ea4 4302     		.2byte	0x243
 8831 2ea6 00000000 		.4byte	.LFB231
 8832 2eaa 0E000000 		.4byte	.LFE231-.LFB231
 8833 2eae 01       		.uleb128 0x1
 8834 2eaf 9C       		.byte	0x9c
 8835 2eb0 0C2F0000 		.4byte	0x2f0c
 8836 2eb4 28       		.uleb128 0x28
 8837 2eb5 6F626A00 		.ascii	"obj\000"
 8838 2eb9 01       		.byte	0x1
 8839 2eba 4302     		.2byte	0x243
 8840 2ebc F6090000 		.4byte	0x9f6
 8841 2ec0 901E0000 		.4byte	.LLST216
 8842 2ec4 29       		.uleb128 0x29
 8843 2ec5 02090000 		.4byte	.LASF196
 8844 2ec9 01       		.byte	0x1
 8845 2eca 4302     		.2byte	0x243
 8846 2ecc F6000000 		.4byte	0xf6
ARM GAS  C:\Users\haske\AppData\Local\Temp\cc0eRFVw.s 			page 168


 8847 2ed0 B11E0000 		.4byte	.LLST217
 8848 2ed4 29       		.uleb128 0x29
 8849 2ed5 161D0000 		.4byte	.LASF239
 8850 2ed9 01       		.byte	0x1
 8851 2eda 4302     		.2byte	0x243
 8852 2edc D40B0000 		.4byte	0xbd4
 8853 2ee0 D21E0000 		.4byte	.LLST218
 8854 2ee4 2A       		.uleb128 0x2a
 8855 2ee5 7600     		.ascii	"v\000"
 8856 2ee7 01       		.byte	0x1
 8857 2ee8 4502     		.2byte	0x245
 8858 2eea 9F060000 		.4byte	0x69f
 8859 2eee 25       		.uleb128 0x25
 8860 2eef 0C000000 		.4byte	.LVL281
 8861 2ef3 1D340000 		.4byte	0x341d
 8862 2ef7 26       		.uleb128 0x26
 8863 2ef8 01       		.uleb128 0x1
 8864 2ef9 50       		.byte	0x50
 8865 2efa 03       		.uleb128 0x3
 8866 2efb F3       		.byte	0xf3
 8867 2efc 01       		.uleb128 0x1
 8868 2efd 50       		.byte	0x50
 8869 2efe 26       		.uleb128 0x26
 8870 2eff 01       		.uleb128 0x1
 8871 2f00 51       		.byte	0x51
 8872 2f01 01       		.uleb128 0x1
 8873 2f02 3B       		.byte	0x3b
 8874 2f03 26       		.uleb128 0x26
 8875 2f04 01       		.uleb128 0x1
 8876 2f05 53       		.byte	0x53
 8877 2f06 03       		.uleb128 0x3
 8878 2f07 F3       		.byte	0xf3
 8879 2f08 01       		.uleb128 0x1
 8880 2f09 52       		.byte	0x52
 8881 2f0a 00       		.byte	0
 8882 2f0b 00       		.byte	0
 8883 2f0c 27       		.uleb128 0x27
 8884 2f0d E20B0000 		.4byte	.LASF401
 8885 2f11 01       		.byte	0x1
 8886 2f12 4B02     		.2byte	0x24b
 8887 2f14 00000000 		.4byte	.LFB232
 8888 2f18 0E000000 		.4byte	.LFE232-.LFB232
 8889 2f1c 01       		.uleb128 0x1
 8890 2f1d 9C       		.byte	0x9c
 8891 2f1e 7A2F0000 		.4byte	0x2f7a
 8892 2f22 28       		.uleb128 0x28
 8893 2f23 6F626A00 		.ascii	"obj\000"
 8894 2f27 01       		.byte	0x1
 8895 2f28 4B02     		.2byte	0x24b
 8896 2f2a F6090000 		.4byte	0x9f6
 8897 2f2e FE1E0000 		.4byte	.LLST219
 8898 2f32 29       		.uleb128 0x29
 8899 2f33 02090000 		.4byte	.LASF196
 8900 2f37 01       		.byte	0x1
 8901 2f38 4B02     		.2byte	0x24b
 8902 2f3a AA020000 		.4byte	0x2aa
 8903 2f3e 1F1F0000 		.4byte	.LLST220
ARM GAS  C:\Users\haske\AppData\Local\Temp\cc0eRFVw.s 			page 169


 8904 2f42 29       		.uleb128 0x29
 8905 2f43 161D0000 		.4byte	.LASF239
 8906 2f47 01       		.byte	0x1
 8907 2f48 4B02     		.2byte	0x24b
 8908 2f4a D40B0000 		.4byte	0xbd4
 8909 2f4e 401F0000 		.4byte	.LLST221
 8910 2f52 2A       		.uleb128 0x2a
 8911 2f53 7600     		.ascii	"v\000"
 8912 2f55 01       		.byte	0x1
 8913 2f56 4D02     		.2byte	0x24d
 8914 2f58 9F060000 		.4byte	0x69f
 8915 2f5c 25       		.uleb128 0x25
 8916 2f5d 0C000000 		.4byte	.LVL285
 8917 2f61 1D340000 		.4byte	0x341d
 8918 2f65 26       		.uleb128 0x26
 8919 2f66 01       		.uleb128 0x1
 8920 2f67 50       		.byte	0x50
 8921 2f68 03       		.uleb128 0x3
 8922 2f69 F3       		.byte	0xf3
 8923 2f6a 01       		.uleb128 0x1
 8924 2f6b 50       		.byte	0x50
 8925 2f6c 26       		.uleb128 0x26
 8926 2f6d 01       		.uleb128 0x1
 8927 2f6e 51       		.byte	0x51
 8928 2f6f 01       		.uleb128 0x1
 8929 2f70 47       		.byte	0x47
 8930 2f71 26       		.uleb128 0x26
 8931 2f72 01       		.uleb128 0x1
 8932 2f73 53       		.byte	0x53
 8933 2f74 03       		.uleb128 0x3
 8934 2f75 F3       		.byte	0xf3
 8935 2f76 01       		.uleb128 0x1
 8936 2f77 52       		.byte	0x52
 8937 2f78 00       		.byte	0
 8938 2f79 00       		.byte	0
 8939 2f7a 27       		.uleb128 0x27
 8940 2f7b 56190000 		.4byte	.LASF402
 8941 2f7f 01       		.byte	0x1
 8942 2f80 5302     		.2byte	0x253
 8943 2f82 00000000 		.4byte	.LFB233
 8944 2f86 0E000000 		.4byte	.LFE233-.LFB233
 8945 2f8a 01       		.uleb128 0x1
 8946 2f8b 9C       		.byte	0x9c
 8947 2f8c E92F0000 		.4byte	0x2fe9
 8948 2f90 28       		.uleb128 0x28
 8949 2f91 6F626A00 		.ascii	"obj\000"
 8950 2f95 01       		.byte	0x1
 8951 2f96 5302     		.2byte	0x253
 8952 2f98 F6090000 		.4byte	0x9f6
 8953 2f9c 6C1F0000 		.4byte	.LLST222
 8954 2fa0 29       		.uleb128 0x29
 8955 2fa1 02090000 		.4byte	.LASF196
 8956 2fa5 01       		.byte	0x1
 8957 2fa6 5302     		.2byte	0x253
 8958 2fa8 6E030000 		.4byte	0x36e
 8959 2fac 8D1F0000 		.4byte	.LLST223
 8960 2fb0 29       		.uleb128 0x29
ARM GAS  C:\Users\haske\AppData\Local\Temp\cc0eRFVw.s 			page 170


 8961 2fb1 161D0000 		.4byte	.LASF239
 8962 2fb5 01       		.byte	0x1
 8963 2fb6 5302     		.2byte	0x253
 8964 2fb8 D40B0000 		.4byte	0xbd4
 8965 2fbc AE1F0000 		.4byte	.LLST224
 8966 2fc0 2A       		.uleb128 0x2a
 8967 2fc1 7600     		.ascii	"v\000"
 8968 2fc3 01       		.byte	0x1
 8969 2fc4 5502     		.2byte	0x255
 8970 2fc6 9F060000 		.4byte	0x69f
 8971 2fca 25       		.uleb128 0x25
 8972 2fcb 0C000000 		.4byte	.LVL289
 8973 2fcf 1D340000 		.4byte	0x341d
 8974 2fd3 26       		.uleb128 0x26
 8975 2fd4 01       		.uleb128 0x1
 8976 2fd5 50       		.byte	0x50
 8977 2fd6 03       		.uleb128 0x3
 8978 2fd7 F3       		.byte	0xf3
 8979 2fd8 01       		.uleb128 0x1
 8980 2fd9 50       		.byte	0x50
 8981 2fda 26       		.uleb128 0x26
 8982 2fdb 01       		.uleb128 0x1
 8983 2fdc 51       		.byte	0x51
 8984 2fdd 02       		.uleb128 0x2
 8985 2fde 08       		.byte	0x8
 8986 2fdf 60       		.byte	0x60
 8987 2fe0 26       		.uleb128 0x26
 8988 2fe1 01       		.uleb128 0x1
 8989 2fe2 53       		.byte	0x53
 8990 2fe3 03       		.uleb128 0x3
 8991 2fe4 F3       		.byte	0xf3
 8992 2fe5 01       		.uleb128 0x1
 8993 2fe6 52       		.byte	0x52
 8994 2fe7 00       		.byte	0
 8995 2fe8 00       		.byte	0
 8996 2fe9 27       		.uleb128 0x27
 8997 2fea 13190000 		.4byte	.LASF403
 8998 2fee 01       		.byte	0x1
 8999 2fef 5B02     		.2byte	0x25b
 9000 2ff1 00000000 		.4byte	.LFB234
 9001 2ff5 0E000000 		.4byte	.LFE234-.LFB234
 9002 2ff9 01       		.uleb128 0x1
 9003 2ffa 9C       		.byte	0x9c
 9004 2ffb 5F300000 		.4byte	0x305f
 9005 2fff 28       		.uleb128 0x28
 9006 3000 6F626A00 		.ascii	"obj\000"
 9007 3004 01       		.byte	0x1
 9008 3005 5B02     		.2byte	0x25b
 9009 3007 F6090000 		.4byte	0x9f6
 9010 300b DA1F0000 		.4byte	.LLST225
 9011 300f 29       		.uleb128 0x29
 9012 3010 02090000 		.4byte	.LASF196
 9013 3014 01       		.byte	0x1
 9014 3015 5B02     		.2byte	0x25b
 9015 3017 5F300000 		.4byte	0x305f
 9016 301b FB1F0000 		.4byte	.LLST226
 9017 301f 29       		.uleb128 0x29
ARM GAS  C:\Users\haske\AppData\Local\Temp\cc0eRFVw.s 			page 171


 9018 3020 161D0000 		.4byte	.LASF239
 9019 3024 01       		.byte	0x1
 9020 3025 5B02     		.2byte	0x25b
 9021 3027 D40B0000 		.4byte	0xbd4
 9022 302b 27200000 		.4byte	.LLST227
 9023 302f 2A       		.uleb128 0x2a
 9024 3030 7600     		.ascii	"v\000"
 9025 3032 01       		.byte	0x1
 9026 3033 5D02     		.2byte	0x25d
 9027 3035 9F060000 		.4byte	0x69f
 9028 3039 25       		.uleb128 0x25
 9029 303a 0C000000 		.4byte	.LVL293
 9030 303e 1D340000 		.4byte	0x341d
 9031 3042 26       		.uleb128 0x26
 9032 3043 01       		.uleb128 0x1
 9033 3044 50       		.byte	0x50
 9034 3045 03       		.uleb128 0x3
 9035 3046 F3       		.byte	0xf3
 9036 3047 01       		.uleb128 0x1
 9037 3048 50       		.byte	0x50
 9038 3049 26       		.uleb128 0x26
 9039 304a 01       		.uleb128 0x1
 9040 304b 51       		.byte	0x51
 9041 304c 02       		.uleb128 0x2
 9042 304d 08       		.byte	0x8
 9043 304e 61       		.byte	0x61
 9044 304f 26       		.uleb128 0x26
 9045 3050 01       		.uleb128 0x1
 9046 3051 52       		.byte	0x52
 9047 3052 03       		.uleb128 0x3
 9048 3053 F3       		.byte	0xf3
 9049 3054 01       		.uleb128 0x1
 9050 3055 51       		.byte	0x51
 9051 3056 26       		.uleb128 0x26
 9052 3057 01       		.uleb128 0x1
 9053 3058 53       		.byte	0x53
 9054 3059 03       		.uleb128 0x3
 9055 305a F3       		.byte	0xf3
 9056 305b 01       		.uleb128 0x1
 9057 305c 52       		.byte	0x52
 9058 305d 00       		.byte	0
 9059 305e 00       		.byte	0
 9060 305f 0B       		.uleb128 0xb
 9061 3060 04       		.byte	0x4
 9062 3061 65300000 		.4byte	0x3065
 9063 3065 0C       		.uleb128 0xc
 9064 3066 D3030000 		.4byte	0x3d3
 9065 306a 27       		.uleb128 0x27
 9066 306b F6010000 		.4byte	.LASF404
 9067 306f 01       		.byte	0x1
 9068 3070 6302     		.2byte	0x263
 9069 3072 00000000 		.4byte	.LFB235
 9070 3076 0E000000 		.4byte	.LFE235-.LFB235
 9071 307a 01       		.uleb128 0x1
 9072 307b 9C       		.byte	0x9c
 9073 307c D9300000 		.4byte	0x30d9
 9074 3080 28       		.uleb128 0x28
ARM GAS  C:\Users\haske\AppData\Local\Temp\cc0eRFVw.s 			page 172


 9075 3081 6F626A00 		.ascii	"obj\000"
 9076 3085 01       		.byte	0x1
 9077 3086 6302     		.2byte	0x263
 9078 3088 F6090000 		.4byte	0x9f6
 9079 308c 53200000 		.4byte	.LLST228
 9080 3090 29       		.uleb128 0x29
 9081 3091 02090000 		.4byte	.LASF196
 9082 3095 01       		.byte	0x1
 9083 3096 6302     		.2byte	0x263
 9084 3098 6E030000 		.4byte	0x36e
 9085 309c 74200000 		.4byte	.LLST229
 9086 30a0 29       		.uleb128 0x29
 9087 30a1 161D0000 		.4byte	.LASF239
 9088 30a5 01       		.byte	0x1
 9089 30a6 6302     		.2byte	0x263
 9090 30a8 D40B0000 		.4byte	0xbd4
 9091 30ac 95200000 		.4byte	.LLST230
 9092 30b0 2A       		.uleb128 0x2a
 9093 30b1 7600     		.ascii	"v\000"
 9094 30b3 01       		.byte	0x1
 9095 30b4 6502     		.2byte	0x265
 9096 30b6 9F060000 		.4byte	0x69f
 9097 30ba 25       		.uleb128 0x25
 9098 30bb 0C000000 		.4byte	.LVL297
 9099 30bf 1D340000 		.4byte	0x341d
 9100 30c3 26       		.uleb128 0x26
 9101 30c4 01       		.uleb128 0x1
 9102 30c5 50       		.byte	0x50
 9103 30c6 03       		.uleb128 0x3
 9104 30c7 F3       		.byte	0xf3
 9105 30c8 01       		.uleb128 0x1
 9106 30c9 50       		.byte	0x50
 9107 30ca 26       		.uleb128 0x26
 9108 30cb 01       		.uleb128 0x1
 9109 30cc 51       		.byte	0x51
 9110 30cd 02       		.uleb128 0x2
 9111 30ce 08       		.byte	0x8
 9112 30cf 62       		.byte	0x62
 9113 30d0 26       		.uleb128 0x26
 9114 30d1 01       		.uleb128 0x1
 9115 30d2 53       		.byte	0x53
 9116 30d3 03       		.uleb128 0x3
 9117 30d4 F3       		.byte	0xf3
 9118 30d5 01       		.uleb128 0x1
 9119 30d6 52       		.byte	0x52
 9120 30d7 00       		.byte	0
 9121 30d8 00       		.byte	0
 9122 30d9 27       		.uleb128 0x27
 9123 30da BB010000 		.4byte	.LASF405
 9124 30de 01       		.byte	0x1
 9125 30df 6B02     		.2byte	0x26b
 9126 30e1 00000000 		.4byte	.LFB236
 9127 30e5 0E000000 		.4byte	.LFE236-.LFB236
 9128 30e9 01       		.uleb128 0x1
 9129 30ea 9C       		.byte	0x9c
 9130 30eb 4F310000 		.4byte	0x314f
 9131 30ef 28       		.uleb128 0x28
ARM GAS  C:\Users\haske\AppData\Local\Temp\cc0eRFVw.s 			page 173


 9132 30f0 6F626A00 		.ascii	"obj\000"
 9133 30f4 01       		.byte	0x1
 9134 30f5 6B02     		.2byte	0x26b
 9135 30f7 F6090000 		.4byte	0x9f6
 9136 30fb C1200000 		.4byte	.LLST231
 9137 30ff 29       		.uleb128 0x29
 9138 3100 02090000 		.4byte	.LASF196
 9139 3104 01       		.byte	0x1
 9140 3105 6B02     		.2byte	0x26b
 9141 3107 4F310000 		.4byte	0x314f
 9142 310b E2200000 		.4byte	.LLST232
 9143 310f 29       		.uleb128 0x29
 9144 3110 161D0000 		.4byte	.LASF239
 9145 3114 01       		.byte	0x1
 9146 3115 6B02     		.2byte	0x26b
 9147 3117 D40B0000 		.4byte	0xbd4
 9148 311b 0E210000 		.4byte	.LLST233
 9149 311f 2A       		.uleb128 0x2a
 9150 3120 7600     		.ascii	"v\000"
 9151 3122 01       		.byte	0x1
 9152 3123 6D02     		.2byte	0x26d
 9153 3125 9F060000 		.4byte	0x69f
 9154 3129 25       		.uleb128 0x25
 9155 312a 0C000000 		.4byte	.LVL301
 9156 312e 1D340000 		.4byte	0x341d
 9157 3132 26       		.uleb128 0x26
 9158 3133 01       		.uleb128 0x1
 9159 3134 50       		.byte	0x50
 9160 3135 03       		.uleb128 0x3
 9161 3136 F3       		.byte	0xf3
 9162 3137 01       		.uleb128 0x1
 9163 3138 50       		.byte	0x50
 9164 3139 26       		.uleb128 0x26
 9165 313a 01       		.uleb128 0x1
 9166 313b 51       		.byte	0x51
 9167 313c 02       		.uleb128 0x2
 9168 313d 08       		.byte	0x8
 9169 313e 63       		.byte	0x63
 9170 313f 26       		.uleb128 0x26
 9171 3140 01       		.uleb128 0x1
 9172 3141 52       		.byte	0x52
 9173 3142 03       		.uleb128 0x3
 9174 3143 F3       		.byte	0xf3
 9175 3144 01       		.uleb128 0x1
 9176 3145 51       		.byte	0x51
 9177 3146 26       		.uleb128 0x26
 9178 3147 01       		.uleb128 0x1
 9179 3148 53       		.byte	0x53
 9180 3149 03       		.uleb128 0x3
 9181 314a F3       		.byte	0xf3
 9182 314b 01       		.uleb128 0x1
 9183 314c 52       		.byte	0x52
 9184 314d 00       		.byte	0
 9185 314e 00       		.byte	0
 9186 314f 0B       		.uleb128 0xb
 9187 3150 04       		.byte	0x4
 9188 3151 55310000 		.4byte	0x3155
ARM GAS  C:\Users\haske\AppData\Local\Temp\cc0eRFVw.s 			page 174


 9189 3155 0C       		.uleb128 0xc
 9190 3156 97050000 		.4byte	0x597
 9191 315a 27       		.uleb128 0x27
 9192 315b C9110000 		.4byte	.LASF406
 9193 315f 01       		.byte	0x1
 9194 3160 7302     		.2byte	0x273
 9195 3162 00000000 		.4byte	.LFB237
 9196 3166 0E000000 		.4byte	.LFE237-.LFB237
 9197 316a 01       		.uleb128 0x1
 9198 316b 9C       		.byte	0x9c
 9199 316c D0310000 		.4byte	0x31d0
 9200 3170 28       		.uleb128 0x28
 9201 3171 6F626A00 		.ascii	"obj\000"
 9202 3175 01       		.byte	0x1
 9203 3176 7302     		.2byte	0x273
 9204 3178 F6090000 		.4byte	0x9f6
 9205 317c 3A210000 		.4byte	.LLST234
 9206 3180 29       		.uleb128 0x29
 9207 3181 02090000 		.4byte	.LASF196
 9208 3185 01       		.byte	0x1
 9209 3186 7302     		.2byte	0x273
 9210 3188 E4000000 		.4byte	0xe4
 9211 318c 5B210000 		.4byte	.LLST235
 9212 3190 29       		.uleb128 0x29
 9213 3191 161D0000 		.4byte	.LASF239
 9214 3195 01       		.byte	0x1
 9215 3196 7302     		.2byte	0x273
 9216 3198 D40B0000 		.4byte	0xbd4
 9217 319c 87210000 		.4byte	.LLST236
 9218 31a0 2A       		.uleb128 0x2a
 9219 31a1 7600     		.ascii	"v\000"
 9220 31a3 01       		.byte	0x1
 9221 31a4 7502     		.2byte	0x275
 9222 31a6 9F060000 		.4byte	0x69f
 9223 31aa 25       		.uleb128 0x25
 9224 31ab 0C000000 		.4byte	.LVL305
 9225 31af 1D340000 		.4byte	0x341d
 9226 31b3 26       		.uleb128 0x26
 9227 31b4 01       		.uleb128 0x1
 9228 31b5 50       		.byte	0x50
 9229 31b6 03       		.uleb128 0x3
 9230 31b7 F3       		.byte	0xf3
 9231 31b8 01       		.uleb128 0x1
 9232 31b9 50       		.byte	0x50
 9233 31ba 26       		.uleb128 0x26
 9234 31bb 01       		.uleb128 0x1
 9235 31bc 51       		.byte	0x51
 9236 31bd 02       		.uleb128 0x2
 9237 31be 08       		.byte	0x8
 9238 31bf 64       		.byte	0x64
 9239 31c0 26       		.uleb128 0x26
 9240 31c1 01       		.uleb128 0x1
 9241 31c2 52       		.byte	0x52
 9242 31c3 03       		.uleb128 0x3
 9243 31c4 F3       		.byte	0xf3
 9244 31c5 01       		.uleb128 0x1
 9245 31c6 51       		.byte	0x51
ARM GAS  C:\Users\haske\AppData\Local\Temp\cc0eRFVw.s 			page 175


 9246 31c7 26       		.uleb128 0x26
 9247 31c8 01       		.uleb128 0x1
 9248 31c9 53       		.byte	0x53
 9249 31ca 03       		.uleb128 0x3
 9250 31cb F3       		.byte	0xf3
 9251 31cc 01       		.uleb128 0x1
 9252 31cd 52       		.byte	0x52
 9253 31ce 00       		.byte	0
 9254 31cf 00       		.byte	0
 9255 31d0 27       		.uleb128 0x27
 9256 31d1 3D100000 		.4byte	.LASF407
 9257 31d5 01       		.byte	0x1
 9258 31d6 7B02     		.2byte	0x27b
 9259 31d8 00000000 		.4byte	.LFB238
 9260 31dc 0E000000 		.4byte	.LFE238-.LFB238
 9261 31e0 01       		.uleb128 0x1
 9262 31e1 9C       		.byte	0x9c
 9263 31e2 46320000 		.4byte	0x3246
 9264 31e6 28       		.uleb128 0x28
 9265 31e7 6F626A00 		.ascii	"obj\000"
 9266 31eb 01       		.byte	0x1
 9267 31ec 7B02     		.2byte	0x27b
 9268 31ee F6090000 		.4byte	0x9f6
 9269 31f2 B3210000 		.4byte	.LLST237
 9270 31f6 29       		.uleb128 0x29
 9271 31f7 02090000 		.4byte	.LASF196
 9272 31fb 01       		.byte	0x1
 9273 31fc 7B02     		.2byte	0x27b
 9274 31fe E4000000 		.4byte	0xe4
 9275 3202 D4210000 		.4byte	.LLST238
 9276 3206 29       		.uleb128 0x29
 9277 3207 161D0000 		.4byte	.LASF239
 9278 320b 01       		.byte	0x1
 9279 320c 7B02     		.2byte	0x27b
 9280 320e D40B0000 		.4byte	0xbd4
 9281 3212 00220000 		.4byte	.LLST239
 9282 3216 2A       		.uleb128 0x2a
 9283 3217 7600     		.ascii	"v\000"
 9284 3219 01       		.byte	0x1
 9285 321a 7D02     		.2byte	0x27d
 9286 321c 9F060000 		.4byte	0x69f
 9287 3220 25       		.uleb128 0x25
 9288 3221 0C000000 		.4byte	.LVL309
 9289 3225 1D340000 		.4byte	0x341d
 9290 3229 26       		.uleb128 0x26
 9291 322a 01       		.uleb128 0x1
 9292 322b 50       		.byte	0x50
 9293 322c 03       		.uleb128 0x3
 9294 322d F3       		.byte	0xf3
 9295 322e 01       		.uleb128 0x1
 9296 322f 50       		.byte	0x50
 9297 3230 26       		.uleb128 0x26
 9298 3231 01       		.uleb128 0x1
 9299 3232 51       		.byte	0x51
 9300 3233 02       		.uleb128 0x2
 9301 3234 08       		.byte	0x8
 9302 3235 65       		.byte	0x65
ARM GAS  C:\Users\haske\AppData\Local\Temp\cc0eRFVw.s 			page 176


 9303 3236 26       		.uleb128 0x26
 9304 3237 01       		.uleb128 0x1
 9305 3238 52       		.byte	0x52
 9306 3239 03       		.uleb128 0x3
 9307 323a F3       		.byte	0xf3
 9308 323b 01       		.uleb128 0x1
 9309 323c 51       		.byte	0x51
 9310 323d 26       		.uleb128 0x26
 9311 323e 01       		.uleb128 0x1
 9312 323f 53       		.byte	0x53
 9313 3240 03       		.uleb128 0x3
 9314 3241 F3       		.byte	0xf3
 9315 3242 01       		.uleb128 0x1
 9316 3243 52       		.byte	0x52
 9317 3244 00       		.byte	0
 9318 3245 00       		.byte	0
 9319 3246 27       		.uleb128 0x27
 9320 3247 E51A0000 		.4byte	.LASF408
 9321 324b 01       		.byte	0x1
 9322 324c 8302     		.2byte	0x283
 9323 324e 00000000 		.4byte	.LFB239
 9324 3252 0E000000 		.4byte	.LFE239-.LFB239
 9325 3256 01       		.uleb128 0x1
 9326 3257 9C       		.byte	0x9c
 9327 3258 BC320000 		.4byte	0x32bc
 9328 325c 28       		.uleb128 0x28
 9329 325d 6F626A00 		.ascii	"obj\000"
 9330 3261 01       		.byte	0x1
 9331 3262 8302     		.2byte	0x283
 9332 3264 F6090000 		.4byte	0x9f6
 9333 3268 2C220000 		.4byte	.LLST240
 9334 326c 29       		.uleb128 0x29
 9335 326d 02090000 		.4byte	.LASF196
 9336 3271 01       		.byte	0x1
 9337 3272 8302     		.2byte	0x283
 9338 3274 BC320000 		.4byte	0x32bc
 9339 3278 4D220000 		.4byte	.LLST241
 9340 327c 29       		.uleb128 0x29
 9341 327d 161D0000 		.4byte	.LASF239
 9342 3281 01       		.byte	0x1
 9343 3282 8302     		.2byte	0x283
 9344 3284 D40B0000 		.4byte	0xbd4
 9345 3288 79220000 		.4byte	.LLST242
 9346 328c 2A       		.uleb128 0x2a
 9347 328d 7600     		.ascii	"v\000"
 9348 328f 01       		.byte	0x1
 9349 3290 8502     		.2byte	0x285
 9350 3292 9F060000 		.4byte	0x69f
 9351 3296 25       		.uleb128 0x25
 9352 3297 0C000000 		.4byte	.LVL313
 9353 329b 1D340000 		.4byte	0x341d
 9354 329f 26       		.uleb128 0x26
 9355 32a0 01       		.uleb128 0x1
 9356 32a1 50       		.byte	0x50
 9357 32a2 03       		.uleb128 0x3
 9358 32a3 F3       		.byte	0xf3
 9359 32a4 01       		.uleb128 0x1
ARM GAS  C:\Users\haske\AppData\Local\Temp\cc0eRFVw.s 			page 177


 9360 32a5 50       		.byte	0x50
 9361 32a6 26       		.uleb128 0x26
 9362 32a7 01       		.uleb128 0x1
 9363 32a8 51       		.byte	0x51
 9364 32a9 02       		.uleb128 0x2
 9365 32aa 08       		.byte	0x8
 9366 32ab 66       		.byte	0x66
 9367 32ac 26       		.uleb128 0x26
 9368 32ad 01       		.uleb128 0x1
 9369 32ae 52       		.byte	0x52
 9370 32af 03       		.uleb128 0x3
 9371 32b0 F3       		.byte	0xf3
 9372 32b1 01       		.uleb128 0x1
 9373 32b2 51       		.byte	0x51
 9374 32b3 26       		.uleb128 0x26
 9375 32b4 01       		.uleb128 0x1
 9376 32b5 53       		.byte	0x53
 9377 32b6 03       		.uleb128 0x3
 9378 32b7 F3       		.byte	0xf3
 9379 32b8 01       		.uleb128 0x1
 9380 32b9 52       		.byte	0x52
 9381 32ba 00       		.byte	0
 9382 32bb 00       		.byte	0
 9383 32bc 0B       		.uleb128 0xb
 9384 32bd 04       		.byte	0x4
 9385 32be C2320000 		.4byte	0x32c2
 9386 32c2 0C       		.uleb128 0xc
 9387 32c3 31090000 		.4byte	0x931
 9388 32c7 27       		.uleb128 0x27
 9389 32c8 87020000 		.4byte	.LASF409
 9390 32cc 01       		.byte	0x1
 9391 32cd 8B02     		.2byte	0x28b
 9392 32cf 00000000 		.4byte	.LFB240
 9393 32d3 0E000000 		.4byte	.LFE240-.LFB240
 9394 32d7 01       		.uleb128 0x1
 9395 32d8 9C       		.byte	0x9c
 9396 32d9 36330000 		.4byte	0x3336
 9397 32dd 28       		.uleb128 0x28
 9398 32de 6F626A00 		.ascii	"obj\000"
 9399 32e2 01       		.byte	0x1
 9400 32e3 8B02     		.2byte	0x28b
 9401 32e5 F6090000 		.4byte	0x9f6
 9402 32e9 A5220000 		.4byte	.LLST243
 9403 32ed 29       		.uleb128 0x29
 9404 32ee 02090000 		.4byte	.LASF196
 9405 32f2 01       		.byte	0x1
 9406 32f3 8B02     		.2byte	0x28b
 9407 32f5 B8050000 		.4byte	0x5b8
 9408 32f9 C6220000 		.4byte	.LLST244
 9409 32fd 29       		.uleb128 0x29
 9410 32fe 161D0000 		.4byte	.LASF239
 9411 3302 01       		.byte	0x1
 9412 3303 8B02     		.2byte	0x28b
 9413 3305 D40B0000 		.4byte	0xbd4
 9414 3309 E7220000 		.4byte	.LLST245
 9415 330d 2A       		.uleb128 0x2a
 9416 330e 7600     		.ascii	"v\000"
ARM GAS  C:\Users\haske\AppData\Local\Temp\cc0eRFVw.s 			page 178


 9417 3310 01       		.byte	0x1
 9418 3311 8D02     		.2byte	0x28d
 9419 3313 9F060000 		.4byte	0x69f
 9420 3317 25       		.uleb128 0x25
 9421 3318 0C000000 		.4byte	.LVL317
 9422 331c 1D340000 		.4byte	0x341d
 9423 3320 26       		.uleb128 0x26
 9424 3321 01       		.uleb128 0x1
 9425 3322 50       		.byte	0x50
 9426 3323 03       		.uleb128 0x3
 9427 3324 F3       		.byte	0xf3
 9428 3325 01       		.uleb128 0x1
 9429 3326 50       		.byte	0x50
 9430 3327 26       		.uleb128 0x26
 9431 3328 01       		.uleb128 0x1
 9432 3329 51       		.byte	0x51
 9433 332a 02       		.uleb128 0x2
 9434 332b 08       		.byte	0x8
 9435 332c 67       		.byte	0x67
 9436 332d 26       		.uleb128 0x26
 9437 332e 01       		.uleb128 0x1
 9438 332f 53       		.byte	0x53
 9439 3330 03       		.uleb128 0x3
 9440 3331 F3       		.byte	0xf3
 9441 3332 01       		.uleb128 0x1
 9442 3333 52       		.byte	0x52
 9443 3334 00       		.byte	0
 9444 3335 00       		.byte	0
 9445 3336 27       		.uleb128 0x27
 9446 3337 2D0B0000 		.4byte	.LASF410
 9447 333b 01       		.byte	0x1
 9448 333c 9302     		.2byte	0x293
 9449 333e 00000000 		.4byte	.LFB241
 9450 3342 0E000000 		.4byte	.LFE241-.LFB241
 9451 3346 01       		.uleb128 0x1
 9452 3347 9C       		.byte	0x9c
 9453 3348 A4330000 		.4byte	0x33a4
 9454 334c 28       		.uleb128 0x28
 9455 334d 6F626A00 		.ascii	"obj\000"
 9456 3351 01       		.byte	0x1
 9457 3352 9302     		.2byte	0x293
 9458 3354 F6090000 		.4byte	0x9f6
 9459 3358 13230000 		.4byte	.LLST246
 9460 335c 29       		.uleb128 0x29
 9461 335d 02090000 		.4byte	.LASF196
 9462 3361 01       		.byte	0x1
 9463 3362 9302     		.2byte	0x293
 9464 3364 CE000000 		.4byte	0xce
 9465 3368 34230000 		.4byte	.LLST247
 9466 336c 29       		.uleb128 0x29
 9467 336d 161D0000 		.4byte	.LASF239
 9468 3371 01       		.byte	0x1
 9469 3372 9302     		.2byte	0x293
 9470 3374 D40B0000 		.4byte	0xbd4
 9471 3378 55230000 		.4byte	.LLST248
 9472 337c 2A       		.uleb128 0x2a
 9473 337d 7600     		.ascii	"v\000"
ARM GAS  C:\Users\haske\AppData\Local\Temp\cc0eRFVw.s 			page 179


 9474 337f 01       		.byte	0x1
 9475 3380 9502     		.2byte	0x295
 9476 3382 9F060000 		.4byte	0x69f
 9477 3386 25       		.uleb128 0x25
 9478 3387 0C000000 		.4byte	.LVL321
 9479 338b 1D340000 		.4byte	0x341d
 9480 338f 26       		.uleb128 0x26
 9481 3390 01       		.uleb128 0x1
 9482 3391 50       		.byte	0x50
 9483 3392 03       		.uleb128 0x3
 9484 3393 F3       		.byte	0xf3
 9485 3394 01       		.uleb128 0x1
 9486 3395 50       		.byte	0x50
 9487 3396 26       		.uleb128 0x26
 9488 3397 01       		.uleb128 0x1
 9489 3398 51       		.byte	0x51
 9490 3399 01       		.uleb128 0x1
 9491 339a 3A       		.byte	0x3a
 9492 339b 26       		.uleb128 0x26
 9493 339c 01       		.uleb128 0x1
 9494 339d 53       		.byte	0x53
 9495 339e 03       		.uleb128 0x3
 9496 339f F3       		.byte	0xf3
 9497 33a0 01       		.uleb128 0x1
 9498 33a1 52       		.byte	0x52
 9499 33a2 00       		.byte	0
 9500 33a3 00       		.byte	0
 9501 33a4 27       		.uleb128 0x27
 9502 33a5 29130000 		.4byte	.LASF411
 9503 33a9 01       		.byte	0x1
 9504 33aa 9B02     		.2byte	0x29b
 9505 33ac 00000000 		.4byte	.LFB242
 9506 33b0 0E000000 		.4byte	.LFE242-.LFB242
 9507 33b4 01       		.uleb128 0x1
 9508 33b5 9C       		.byte	0x9c
 9509 33b6 12340000 		.4byte	0x3412
 9510 33ba 28       		.uleb128 0x28
 9511 33bb 6F626A00 		.ascii	"obj\000"
 9512 33bf 01       		.byte	0x1
 9513 33c0 9B02     		.2byte	0x29b
 9514 33c2 F6090000 		.4byte	0x9f6
 9515 33c6 81230000 		.4byte	.LLST249
 9516 33ca 29       		.uleb128 0x29
 9517 33cb 02090000 		.4byte	.LASF196
 9518 33cf 01       		.byte	0x1
 9519 33d0 9B02     		.2byte	0x29b
 9520 33d2 AD050000 		.4byte	0x5ad
 9521 33d6 A2230000 		.4byte	.LLST250
 9522 33da 29       		.uleb128 0x29
 9523 33db 161D0000 		.4byte	.LASF239
 9524 33df 01       		.byte	0x1
 9525 33e0 9B02     		.2byte	0x29b
 9526 33e2 D40B0000 		.4byte	0xbd4
 9527 33e6 C3230000 		.4byte	.LLST251
 9528 33ea 2A       		.uleb128 0x2a
 9529 33eb 7600     		.ascii	"v\000"
 9530 33ed 01       		.byte	0x1
ARM GAS  C:\Users\haske\AppData\Local\Temp\cc0eRFVw.s 			page 180


 9531 33ee 9D02     		.2byte	0x29d
 9532 33f0 9F060000 		.4byte	0x69f
 9533 33f4 25       		.uleb128 0x25
 9534 33f5 0C000000 		.4byte	.LVL325
 9535 33f9 1D340000 		.4byte	0x341d
 9536 33fd 26       		.uleb128 0x26
 9537 33fe 01       		.uleb128 0x1
 9538 33ff 50       		.byte	0x50
 9539 3400 03       		.uleb128 0x3
 9540 3401 F3       		.byte	0xf3
 9541 3402 01       		.uleb128 0x1
 9542 3403 50       		.byte	0x50
 9543 3404 26       		.uleb128 0x26
 9544 3405 01       		.uleb128 0x1
 9545 3406 51       		.byte	0x51
 9546 3407 01       		.uleb128 0x1
 9547 3408 46       		.byte	0x46
 9548 3409 26       		.uleb128 0x26
 9549 340a 01       		.uleb128 0x1
 9550 340b 53       		.byte	0x53
 9551 340c 03       		.uleb128 0x3
 9552 340d F3       		.byte	0xf3
 9553 340e 01       		.uleb128 0x1
 9554 340f 52       		.byte	0x52
 9555 3410 00       		.byte	0
 9556 3411 00       		.byte	0
 9557 3412 2B       		.uleb128 0x2b
 9558 3413 A3180000 		.4byte	.LASF416
 9559 3417 05       		.byte	0x5
 9560 3418 94       		.byte	0x94
 9561 3419 C90A0000 		.4byte	0xac9
 9562 341d 2C       		.uleb128 0x2c
 9563 341e D0190000 		.4byte	.LASF417
 9564 3422 D0190000 		.4byte	.LASF417
 9565 3426 0F       		.byte	0xf
 9566 3427 8C       		.byte	0x8c
 9567 3428 00       		.byte	0
 9568              		.section	.debug_abbrev,"",%progbits
 9569              	.Ldebug_abbrev0:
 9570 0000 01       		.uleb128 0x1
 9571 0001 11       		.uleb128 0x11
 9572 0002 01       		.byte	0x1
 9573 0003 25       		.uleb128 0x25
 9574 0004 0E       		.uleb128 0xe
 9575 0005 13       		.uleb128 0x13
 9576 0006 0B       		.uleb128 0xb
 9577 0007 03       		.uleb128 0x3
 9578 0008 0E       		.uleb128 0xe
 9579 0009 1B       		.uleb128 0x1b
 9580 000a 0E       		.uleb128 0xe
 9581 000b 55       		.uleb128 0x55
 9582 000c 17       		.uleb128 0x17
 9583 000d 11       		.uleb128 0x11
 9584 000e 01       		.uleb128 0x1
 9585 000f 10       		.uleb128 0x10
 9586 0010 17       		.uleb128 0x17
 9587 0011 00       		.byte	0
ARM GAS  C:\Users\haske\AppData\Local\Temp\cc0eRFVw.s 			page 181


 9588 0012 00       		.byte	0
 9589 0013 02       		.uleb128 0x2
 9590 0014 16       		.uleb128 0x16
 9591 0015 00       		.byte	0
 9592 0016 03       		.uleb128 0x3
 9593 0017 0E       		.uleb128 0xe
 9594 0018 3A       		.uleb128 0x3a
 9595 0019 0B       		.uleb128 0xb
 9596 001a 3B       		.uleb128 0x3b
 9597 001b 0B       		.uleb128 0xb
 9598 001c 49       		.uleb128 0x49
 9599 001d 13       		.uleb128 0x13
 9600 001e 00       		.byte	0
 9601 001f 00       		.byte	0
 9602 0020 03       		.uleb128 0x3
 9603 0021 24       		.uleb128 0x24
 9604 0022 00       		.byte	0
 9605 0023 0B       		.uleb128 0xb
 9606 0024 0B       		.uleb128 0xb
 9607 0025 3E       		.uleb128 0x3e
 9608 0026 0B       		.uleb128 0xb
 9609 0027 03       		.uleb128 0x3
 9610 0028 0E       		.uleb128 0xe
 9611 0029 00       		.byte	0
 9612 002a 00       		.byte	0
 9613 002b 04       		.uleb128 0x4
 9614 002c 24       		.uleb128 0x24
 9615 002d 00       		.byte	0
 9616 002e 0B       		.uleb128 0xb
 9617 002f 0B       		.uleb128 0xb
 9618 0030 3E       		.uleb128 0x3e
 9619 0031 0B       		.uleb128 0xb
 9620 0032 03       		.uleb128 0x3
 9621 0033 08       		.uleb128 0x8
 9622 0034 00       		.byte	0
 9623 0035 00       		.byte	0
 9624 0036 05       		.uleb128 0x5
 9625 0037 13       		.uleb128 0x13
 9626 0038 01       		.byte	0x1
 9627 0039 0B       		.uleb128 0xb
 9628 003a 0B       		.uleb128 0xb
 9629 003b 3A       		.uleb128 0x3a
 9630 003c 0B       		.uleb128 0xb
 9631 003d 3B       		.uleb128 0x3b
 9632 003e 0B       		.uleb128 0xb
 9633 003f 01       		.uleb128 0x1
 9634 0040 13       		.uleb128 0x13
 9635 0041 00       		.byte	0
 9636 0042 00       		.byte	0
 9637 0043 06       		.uleb128 0x6
 9638 0044 0D       		.uleb128 0xd
 9639 0045 00       		.byte	0
 9640 0046 03       		.uleb128 0x3
 9641 0047 08       		.uleb128 0x8
 9642 0048 3A       		.uleb128 0x3a
 9643 0049 0B       		.uleb128 0xb
 9644 004a 3B       		.uleb128 0x3b
ARM GAS  C:\Users\haske\AppData\Local\Temp\cc0eRFVw.s 			page 182


 9645 004b 0B       		.uleb128 0xb
 9646 004c 49       		.uleb128 0x49
 9647 004d 13       		.uleb128 0x13
 9648 004e 38       		.uleb128 0x38
 9649 004f 0B       		.uleb128 0xb
 9650 0050 00       		.byte	0
 9651 0051 00       		.byte	0
 9652 0052 07       		.uleb128 0x7
 9653 0053 0D       		.uleb128 0xd
 9654 0054 00       		.byte	0
 9655 0055 03       		.uleb128 0x3
 9656 0056 0E       		.uleb128 0xe
 9657 0057 3A       		.uleb128 0x3a
 9658 0058 0B       		.uleb128 0xb
 9659 0059 3B       		.uleb128 0x3b
 9660 005a 0B       		.uleb128 0xb
 9661 005b 49       		.uleb128 0x49
 9662 005c 13       		.uleb128 0x13
 9663 005d 38       		.uleb128 0x38
 9664 005e 0B       		.uleb128 0xb
 9665 005f 00       		.byte	0
 9666 0060 00       		.byte	0
 9667 0061 08       		.uleb128 0x8
 9668 0062 0D       		.uleb128 0xd
 9669 0063 00       		.byte	0
 9670 0064 03       		.uleb128 0x3
 9671 0065 08       		.uleb128 0x8
 9672 0066 3A       		.uleb128 0x3a
 9673 0067 0B       		.uleb128 0xb
 9674 0068 3B       		.uleb128 0x3b
 9675 0069 0B       		.uleb128 0xb
 9676 006a 49       		.uleb128 0x49
 9677 006b 13       		.uleb128 0x13
 9678 006c 0B       		.uleb128 0xb
 9679 006d 0B       		.uleb128 0xb
 9680 006e 0D       		.uleb128 0xd
 9681 006f 0B       		.uleb128 0xb
 9682 0070 0C       		.uleb128 0xc
 9683 0071 0B       		.uleb128 0xb
 9684 0072 38       		.uleb128 0x38
 9685 0073 0B       		.uleb128 0xb
 9686 0074 00       		.byte	0
 9687 0075 00       		.byte	0
 9688 0076 09       		.uleb128 0x9
 9689 0077 0D       		.uleb128 0xd
 9690 0078 00       		.byte	0
 9691 0079 03       		.uleb128 0x3
 9692 007a 0E       		.uleb128 0xe
 9693 007b 3A       		.uleb128 0x3a
 9694 007c 0B       		.uleb128 0xb
 9695 007d 3B       		.uleb128 0x3b
 9696 007e 0B       		.uleb128 0xb
 9697 007f 49       		.uleb128 0x49
 9698 0080 13       		.uleb128 0x13
 9699 0081 0B       		.uleb128 0xb
 9700 0082 0B       		.uleb128 0xb
 9701 0083 0D       		.uleb128 0xd
ARM GAS  C:\Users\haske\AppData\Local\Temp\cc0eRFVw.s 			page 183


 9702 0084 0B       		.uleb128 0xb
 9703 0085 0C       		.uleb128 0xc
 9704 0086 0B       		.uleb128 0xb
 9705 0087 38       		.uleb128 0x38
 9706 0088 0B       		.uleb128 0xb
 9707 0089 00       		.byte	0
 9708 008a 00       		.byte	0
 9709 008b 0A       		.uleb128 0xa
 9710 008c 13       		.uleb128 0x13
 9711 008d 01       		.byte	0x1
 9712 008e 03       		.uleb128 0x3
 9713 008f 0E       		.uleb128 0xe
 9714 0090 0B       		.uleb128 0xb
 9715 0091 0B       		.uleb128 0xb
 9716 0092 3A       		.uleb128 0x3a
 9717 0093 0B       		.uleb128 0xb
 9718 0094 3B       		.uleb128 0x3b
 9719 0095 0B       		.uleb128 0xb
 9720 0096 01       		.uleb128 0x1
 9721 0097 13       		.uleb128 0x13
 9722 0098 00       		.byte	0
 9723 0099 00       		.byte	0
 9724 009a 0B       		.uleb128 0xb
 9725 009b 0F       		.uleb128 0xf
 9726 009c 00       		.byte	0
 9727 009d 0B       		.uleb128 0xb
 9728 009e 0B       		.uleb128 0xb
 9729 009f 49       		.uleb128 0x49
 9730 00a0 13       		.uleb128 0x13
 9731 00a1 00       		.byte	0
 9732 00a2 00       		.byte	0
 9733 00a3 0C       		.uleb128 0xc
 9734 00a4 26       		.uleb128 0x26
 9735 00a5 00       		.byte	0
 9736 00a6 49       		.uleb128 0x49
 9737 00a7 13       		.uleb128 0x13
 9738 00a8 00       		.byte	0
 9739 00a9 00       		.byte	0
 9740 00aa 0D       		.uleb128 0xd
 9741 00ab 15       		.uleb128 0x15
 9742 00ac 01       		.byte	0x1
 9743 00ad 27       		.uleb128 0x27
 9744 00ae 19       		.uleb128 0x19
 9745 00af 49       		.uleb128 0x49
 9746 00b0 13       		.uleb128 0x13
 9747 00b1 01       		.uleb128 0x1
 9748 00b2 13       		.uleb128 0x13
 9749 00b3 00       		.byte	0
 9750 00b4 00       		.byte	0
 9751 00b5 0E       		.uleb128 0xe
 9752 00b6 05       		.uleb128 0x5
 9753 00b7 00       		.byte	0
 9754 00b8 49       		.uleb128 0x49
 9755 00b9 13       		.uleb128 0x13
 9756 00ba 00       		.byte	0
 9757 00bb 00       		.byte	0
 9758 00bc 0F       		.uleb128 0xf
ARM GAS  C:\Users\haske\AppData\Local\Temp\cc0eRFVw.s 			page 184


 9759 00bd 26       		.uleb128 0x26
 9760 00be 00       		.byte	0
 9761 00bf 00       		.byte	0
 9762 00c0 00       		.byte	0
 9763 00c1 10       		.uleb128 0x10
 9764 00c2 0F       		.uleb128 0xf
 9765 00c3 00       		.byte	0
 9766 00c4 0B       		.uleb128 0xb
 9767 00c5 0B       		.uleb128 0xb
 9768 00c6 00       		.byte	0
 9769 00c7 00       		.byte	0
 9770 00c8 11       		.uleb128 0x11
 9771 00c9 17       		.uleb128 0x17
 9772 00ca 01       		.byte	0x1
 9773 00cb 0B       		.uleb128 0xb
 9774 00cc 0B       		.uleb128 0xb
 9775 00cd 3A       		.uleb128 0x3a
 9776 00ce 0B       		.uleb128 0xb
 9777 00cf 3B       		.uleb128 0x3b
 9778 00d0 0B       		.uleb128 0xb
 9779 00d1 01       		.uleb128 0x1
 9780 00d2 13       		.uleb128 0x13
 9781 00d3 00       		.byte	0
 9782 00d4 00       		.byte	0
 9783 00d5 12       		.uleb128 0x12
 9784 00d6 0D       		.uleb128 0xd
 9785 00d7 00       		.byte	0
 9786 00d8 03       		.uleb128 0x3
 9787 00d9 08       		.uleb128 0x8
 9788 00da 3A       		.uleb128 0x3a
 9789 00db 0B       		.uleb128 0xb
 9790 00dc 3B       		.uleb128 0x3b
 9791 00dd 0B       		.uleb128 0xb
 9792 00de 49       		.uleb128 0x49
 9793 00df 13       		.uleb128 0x13
 9794 00e0 00       		.byte	0
 9795 00e1 00       		.byte	0
 9796 00e2 13       		.uleb128 0x13
 9797 00e3 0D       		.uleb128 0xd
 9798 00e4 00       		.byte	0
 9799 00e5 03       		.uleb128 0x3
 9800 00e6 0E       		.uleb128 0xe
 9801 00e7 3A       		.uleb128 0x3a
 9802 00e8 0B       		.uleb128 0xb
 9803 00e9 3B       		.uleb128 0x3b
 9804 00ea 0B       		.uleb128 0xb
 9805 00eb 49       		.uleb128 0x49
 9806 00ec 13       		.uleb128 0x13
 9807 00ed 00       		.byte	0
 9808 00ee 00       		.byte	0
 9809 00ef 14       		.uleb128 0x14
 9810 00f0 15       		.uleb128 0x15
 9811 00f1 01       		.byte	0x1
 9812 00f2 27       		.uleb128 0x27
 9813 00f3 19       		.uleb128 0x19
 9814 00f4 01       		.uleb128 0x1
 9815 00f5 13       		.uleb128 0x13
ARM GAS  C:\Users\haske\AppData\Local\Temp\cc0eRFVw.s 			page 185


 9816 00f6 00       		.byte	0
 9817 00f7 00       		.byte	0
 9818 00f8 15       		.uleb128 0x15
 9819 00f9 01       		.uleb128 0x1
 9820 00fa 01       		.byte	0x1
 9821 00fb 49       		.uleb128 0x49
 9822 00fc 13       		.uleb128 0x13
 9823 00fd 01       		.uleb128 0x1
 9824 00fe 13       		.uleb128 0x13
 9825 00ff 00       		.byte	0
 9826 0100 00       		.byte	0
 9827 0101 16       		.uleb128 0x16
 9828 0102 21       		.uleb128 0x21
 9829 0103 00       		.byte	0
 9830 0104 49       		.uleb128 0x49
 9831 0105 13       		.uleb128 0x13
 9832 0106 2F       		.uleb128 0x2f
 9833 0107 0B       		.uleb128 0xb
 9834 0108 00       		.byte	0
 9835 0109 00       		.byte	0
 9836 010a 17       		.uleb128 0x17
 9837 010b 04       		.uleb128 0x4
 9838 010c 01       		.byte	0x1
 9839 010d 0B       		.uleb128 0xb
 9840 010e 0B       		.uleb128 0xb
 9841 010f 49       		.uleb128 0x49
 9842 0110 13       		.uleb128 0x13
 9843 0111 3A       		.uleb128 0x3a
 9844 0112 0B       		.uleb128 0xb
 9845 0113 3B       		.uleb128 0x3b
 9846 0114 0B       		.uleb128 0xb
 9847 0115 01       		.uleb128 0x1
 9848 0116 13       		.uleb128 0x13
 9849 0117 00       		.byte	0
 9850 0118 00       		.byte	0
 9851 0119 18       		.uleb128 0x18
 9852 011a 28       		.uleb128 0x28
 9853 011b 00       		.byte	0
 9854 011c 03       		.uleb128 0x3
 9855 011d 0E       		.uleb128 0xe
 9856 011e 1C       		.uleb128 0x1c
 9857 011f 0B       		.uleb128 0xb
 9858 0120 00       		.byte	0
 9859 0121 00       		.byte	0
 9860 0122 19       		.uleb128 0x19
 9861 0123 28       		.uleb128 0x28
 9862 0124 00       		.byte	0
 9863 0125 03       		.uleb128 0x3
 9864 0126 0E       		.uleb128 0xe
 9865 0127 1C       		.uleb128 0x1c
 9866 0128 05       		.uleb128 0x5
 9867 0129 00       		.byte	0
 9868 012a 00       		.byte	0
 9869 012b 1A       		.uleb128 0x1a
 9870 012c 16       		.uleb128 0x16
 9871 012d 00       		.byte	0
 9872 012e 03       		.uleb128 0x3
ARM GAS  C:\Users\haske\AppData\Local\Temp\cc0eRFVw.s 			page 186


 9873 012f 0E       		.uleb128 0xe
 9874 0130 3A       		.uleb128 0x3a
 9875 0131 0B       		.uleb128 0xb
 9876 0132 3B       		.uleb128 0x3b
 9877 0133 05       		.uleb128 0x5
 9878 0134 49       		.uleb128 0x49
 9879 0135 13       		.uleb128 0x13
 9880 0136 00       		.byte	0
 9881 0137 00       		.byte	0
 9882 0138 1B       		.uleb128 0x1b
 9883 0139 13       		.uleb128 0x13
 9884 013a 01       		.byte	0x1
 9885 013b 0B       		.uleb128 0xb
 9886 013c 0B       		.uleb128 0xb
 9887 013d 3A       		.uleb128 0x3a
 9888 013e 0B       		.uleb128 0xb
 9889 013f 3B       		.uleb128 0x3b
 9890 0140 05       		.uleb128 0x5
 9891 0141 01       		.uleb128 0x1
 9892 0142 13       		.uleb128 0x13
 9893 0143 00       		.byte	0
 9894 0144 00       		.byte	0
 9895 0145 1C       		.uleb128 0x1c
 9896 0146 0D       		.uleb128 0xd
 9897 0147 00       		.byte	0
 9898 0148 03       		.uleb128 0x3
 9899 0149 0E       		.uleb128 0xe
 9900 014a 3A       		.uleb128 0x3a
 9901 014b 0B       		.uleb128 0xb
 9902 014c 3B       		.uleb128 0x3b
 9903 014d 05       		.uleb128 0x5
 9904 014e 49       		.uleb128 0x49
 9905 014f 13       		.uleb128 0x13
 9906 0150 38       		.uleb128 0x38
 9907 0151 0B       		.uleb128 0xb
 9908 0152 00       		.byte	0
 9909 0153 00       		.byte	0
 9910 0154 1D       		.uleb128 0x1d
 9911 0155 17       		.uleb128 0x17
 9912 0156 01       		.byte	0x1
 9913 0157 0B       		.uleb128 0xb
 9914 0158 0B       		.uleb128 0xb
 9915 0159 3A       		.uleb128 0x3a
 9916 015a 0B       		.uleb128 0xb
 9917 015b 3B       		.uleb128 0x3b
 9918 015c 05       		.uleb128 0x5
 9919 015d 01       		.uleb128 0x1
 9920 015e 13       		.uleb128 0x13
 9921 015f 00       		.byte	0
 9922 0160 00       		.byte	0
 9923 0161 1E       		.uleb128 0x1e
 9924 0162 0D       		.uleb128 0xd
 9925 0163 00       		.byte	0
 9926 0164 03       		.uleb128 0x3
 9927 0165 0E       		.uleb128 0xe
 9928 0166 3A       		.uleb128 0x3a
 9929 0167 0B       		.uleb128 0xb
ARM GAS  C:\Users\haske\AppData\Local\Temp\cc0eRFVw.s 			page 187


 9930 0168 3B       		.uleb128 0x3b
 9931 0169 05       		.uleb128 0x5
 9932 016a 49       		.uleb128 0x49
 9933 016b 13       		.uleb128 0x13
 9934 016c 00       		.byte	0
 9935 016d 00       		.byte	0
 9936 016e 1F       		.uleb128 0x1f
 9937 016f 0D       		.uleb128 0xd
 9938 0170 00       		.byte	0
 9939 0171 03       		.uleb128 0x3
 9940 0172 08       		.uleb128 0x8
 9941 0173 3A       		.uleb128 0x3a
 9942 0174 0B       		.uleb128 0xb
 9943 0175 3B       		.uleb128 0x3b
 9944 0176 05       		.uleb128 0x5
 9945 0177 49       		.uleb128 0x49
 9946 0178 13       		.uleb128 0x13
 9947 0179 38       		.uleb128 0x38
 9948 017a 0B       		.uleb128 0xb
 9949 017b 00       		.byte	0
 9950 017c 00       		.byte	0
 9951 017d 20       		.uleb128 0x20
 9952 017e 13       		.uleb128 0x13
 9953 017f 00       		.byte	0
 9954 0180 03       		.uleb128 0x3
 9955 0181 0E       		.uleb128 0xe
 9956 0182 3C       		.uleb128 0x3c
 9957 0183 19       		.uleb128 0x19
 9958 0184 00       		.byte	0
 9959 0185 00       		.byte	0
 9960 0186 21       		.uleb128 0x21
 9961 0187 2E       		.uleb128 0x2e
 9962 0188 01       		.byte	0x1
 9963 0189 3F       		.uleb128 0x3f
 9964 018a 19       		.uleb128 0x19
 9965 018b 03       		.uleb128 0x3
 9966 018c 0E       		.uleb128 0xe
 9967 018d 3A       		.uleb128 0x3a
 9968 018e 0B       		.uleb128 0xb
 9969 018f 3B       		.uleb128 0x3b
 9970 0190 0B       		.uleb128 0xb
 9971 0191 27       		.uleb128 0x27
 9972 0192 19       		.uleb128 0x19
 9973 0193 11       		.uleb128 0x11
 9974 0194 01       		.uleb128 0x1
 9975 0195 12       		.uleb128 0x12
 9976 0196 06       		.uleb128 0x6
 9977 0197 40       		.uleb128 0x40
 9978 0198 18       		.uleb128 0x18
 9979 0199 9742     		.uleb128 0x2117
 9980 019b 19       		.uleb128 0x19
 9981 019c 01       		.uleb128 0x1
 9982 019d 13       		.uleb128 0x13
 9983 019e 00       		.byte	0
 9984 019f 00       		.byte	0
 9985 01a0 22       		.uleb128 0x22
 9986 01a1 05       		.uleb128 0x5
ARM GAS  C:\Users\haske\AppData\Local\Temp\cc0eRFVw.s 			page 188


 9987 01a2 00       		.byte	0
 9988 01a3 03       		.uleb128 0x3
 9989 01a4 08       		.uleb128 0x8
 9990 01a5 3A       		.uleb128 0x3a
 9991 01a6 0B       		.uleb128 0xb
 9992 01a7 3B       		.uleb128 0x3b
 9993 01a8 0B       		.uleb128 0xb
 9994 01a9 49       		.uleb128 0x49
 9995 01aa 13       		.uleb128 0x13
 9996 01ab 02       		.uleb128 0x2
 9997 01ac 17       		.uleb128 0x17
 9998 01ad 00       		.byte	0
 9999 01ae 00       		.byte	0
 10000 01af 23       		.uleb128 0x23
 10001 01b0 05       		.uleb128 0x5
 10002 01b1 00       		.byte	0
 10003 01b2 03       		.uleb128 0x3
 10004 01b3 0E       		.uleb128 0xe
 10005 01b4 3A       		.uleb128 0x3a
 10006 01b5 0B       		.uleb128 0xb
 10007 01b6 3B       		.uleb128 0x3b
 10008 01b7 0B       		.uleb128 0xb
 10009 01b8 49       		.uleb128 0x49
 10010 01b9 13       		.uleb128 0x13
 10011 01ba 02       		.uleb128 0x2
 10012 01bb 17       		.uleb128 0x17
 10013 01bc 00       		.byte	0
 10014 01bd 00       		.byte	0
 10015 01be 24       		.uleb128 0x24
 10016 01bf 34       		.uleb128 0x34
 10017 01c0 00       		.byte	0
 10018 01c1 03       		.uleb128 0x3
 10019 01c2 08       		.uleb128 0x8
 10020 01c3 3A       		.uleb128 0x3a
 10021 01c4 0B       		.uleb128 0xb
 10022 01c5 3B       		.uleb128 0x3b
 10023 01c6 0B       		.uleb128 0xb
 10024 01c7 49       		.uleb128 0x49
 10025 01c8 13       		.uleb128 0x13
 10026 01c9 00       		.byte	0
 10027 01ca 00       		.byte	0
 10028 01cb 25       		.uleb128 0x25
 10029 01cc 898201   		.uleb128 0x4109
 10030 01cf 01       		.byte	0x1
 10031 01d0 11       		.uleb128 0x11
 10032 01d1 01       		.uleb128 0x1
 10033 01d2 31       		.uleb128 0x31
 10034 01d3 13       		.uleb128 0x13
 10035 01d4 00       		.byte	0
 10036 01d5 00       		.byte	0
 10037 01d6 26       		.uleb128 0x26
 10038 01d7 8A8201   		.uleb128 0x410a
 10039 01da 00       		.byte	0
 10040 01db 02       		.uleb128 0x2
 10041 01dc 18       		.uleb128 0x18
 10042 01dd 9142     		.uleb128 0x2111
 10043 01df 18       		.uleb128 0x18
ARM GAS  C:\Users\haske\AppData\Local\Temp\cc0eRFVw.s 			page 189


 10044 01e0 00       		.byte	0
 10045 01e1 00       		.byte	0
 10046 01e2 27       		.uleb128 0x27
 10047 01e3 2E       		.uleb128 0x2e
 10048 01e4 01       		.byte	0x1
 10049 01e5 3F       		.uleb128 0x3f
 10050 01e6 19       		.uleb128 0x19
 10051 01e7 03       		.uleb128 0x3
 10052 01e8 0E       		.uleb128 0xe
 10053 01e9 3A       		.uleb128 0x3a
 10054 01ea 0B       		.uleb128 0xb
 10055 01eb 3B       		.uleb128 0x3b
 10056 01ec 05       		.uleb128 0x5
 10057 01ed 27       		.uleb128 0x27
 10058 01ee 19       		.uleb128 0x19
 10059 01ef 11       		.uleb128 0x11
 10060 01f0 01       		.uleb128 0x1
 10061 01f1 12       		.uleb128 0x12
 10062 01f2 06       		.uleb128 0x6
 10063 01f3 40       		.uleb128 0x40
 10064 01f4 18       		.uleb128 0x18
 10065 01f5 9742     		.uleb128 0x2117
 10066 01f7 19       		.uleb128 0x19
 10067 01f8 01       		.uleb128 0x1
 10068 01f9 13       		.uleb128 0x13
 10069 01fa 00       		.byte	0
 10070 01fb 00       		.byte	0
 10071 01fc 28       		.uleb128 0x28
 10072 01fd 05       		.uleb128 0x5
 10073 01fe 00       		.byte	0
 10074 01ff 03       		.uleb128 0x3
 10075 0200 08       		.uleb128 0x8
 10076 0201 3A       		.uleb128 0x3a
 10077 0202 0B       		.uleb128 0xb
 10078 0203 3B       		.uleb128 0x3b
 10079 0204 05       		.uleb128 0x5
 10080 0205 49       		.uleb128 0x49
 10081 0206 13       		.uleb128 0x13
 10082 0207 02       		.uleb128 0x2
 10083 0208 17       		.uleb128 0x17
 10084 0209 00       		.byte	0
 10085 020a 00       		.byte	0
 10086 020b 29       		.uleb128 0x29
 10087 020c 05       		.uleb128 0x5
 10088 020d 00       		.byte	0
 10089 020e 03       		.uleb128 0x3
 10090 020f 0E       		.uleb128 0xe
 10091 0210 3A       		.uleb128 0x3a
 10092 0211 0B       		.uleb128 0xb
 10093 0212 3B       		.uleb128 0x3b
 10094 0213 05       		.uleb128 0x5
 10095 0214 49       		.uleb128 0x49
 10096 0215 13       		.uleb128 0x13
 10097 0216 02       		.uleb128 0x2
 10098 0217 17       		.uleb128 0x17
 10099 0218 00       		.byte	0
 10100 0219 00       		.byte	0
ARM GAS  C:\Users\haske\AppData\Local\Temp\cc0eRFVw.s 			page 190


 10101 021a 2A       		.uleb128 0x2a
 10102 021b 34       		.uleb128 0x34
 10103 021c 00       		.byte	0
 10104 021d 03       		.uleb128 0x3
 10105 021e 08       		.uleb128 0x8
 10106 021f 3A       		.uleb128 0x3a
 10107 0220 0B       		.uleb128 0xb
 10108 0221 3B       		.uleb128 0x3b
 10109 0222 05       		.uleb128 0x5
 10110 0223 49       		.uleb128 0x49
 10111 0224 13       		.uleb128 0x13
 10112 0225 00       		.byte	0
 10113 0226 00       		.byte	0
 10114 0227 2B       		.uleb128 0x2b
 10115 0228 34       		.uleb128 0x34
 10116 0229 00       		.byte	0
 10117 022a 03       		.uleb128 0x3
 10118 022b 0E       		.uleb128 0xe
 10119 022c 3A       		.uleb128 0x3a
 10120 022d 0B       		.uleb128 0xb
 10121 022e 3B       		.uleb128 0x3b
 10122 022f 0B       		.uleb128 0xb
 10123 0230 49       		.uleb128 0x49
 10124 0231 13       		.uleb128 0x13
 10125 0232 3F       		.uleb128 0x3f
 10126 0233 19       		.uleb128 0x19
 10127 0234 3C       		.uleb128 0x3c
 10128 0235 19       		.uleb128 0x19
 10129 0236 00       		.byte	0
 10130 0237 00       		.byte	0
 10131 0238 2C       		.uleb128 0x2c
 10132 0239 2E       		.uleb128 0x2e
 10133 023a 00       		.byte	0
 10134 023b 3F       		.uleb128 0x3f
 10135 023c 19       		.uleb128 0x19
 10136 023d 3C       		.uleb128 0x3c
 10137 023e 19       		.uleb128 0x19
 10138 023f 6E       		.uleb128 0x6e
 10139 0240 0E       		.uleb128 0xe
 10140 0241 03       		.uleb128 0x3
 10141 0242 0E       		.uleb128 0xe
 10142 0243 3A       		.uleb128 0x3a
 10143 0244 0B       		.uleb128 0xb
 10144 0245 3B       		.uleb128 0x3b
 10145 0246 0B       		.uleb128 0xb
 10146 0247 00       		.byte	0
 10147 0248 00       		.byte	0
 10148 0249 00       		.byte	0
 10149              		.section	.debug_loc,"",%progbits
 10150              	.Ldebug_loc0:
 10151              	.LLST0:
 10152 0000 00000000 		.4byte	.LVL0
 10153 0004 0B000000 		.4byte	.LVL3-1
 10154 0008 0100     		.2byte	0x1
 10155 000a 50       		.byte	0x50
 10156 000b 0B000000 		.4byte	.LVL3-1
 10157 000f 0E000000 		.4byte	.LFE159
ARM GAS  C:\Users\haske\AppData\Local\Temp\cc0eRFVw.s 			page 191


 10158 0013 0400     		.2byte	0x4
 10159 0015 F3       		.byte	0xf3
 10160 0016 01       		.uleb128 0x1
 10161 0017 50       		.byte	0x50
 10162 0018 9F       		.byte	0x9f
 10163 0019 00000000 		.4byte	0
 10164 001d 00000000 		.4byte	0
 10165              	.LLST1:
 10166 0021 00000000 		.4byte	.LVL0
 10167 0025 08000000 		.4byte	.LVL2
 10168 0029 0100     		.2byte	0x1
 10169 002b 51       		.byte	0x51
 10170 002c 08000000 		.4byte	.LVL2
 10171 0030 0E000000 		.4byte	.LFE159
 10172 0034 0400     		.2byte	0x4
 10173 0036 F3       		.byte	0xf3
 10174 0037 01       		.uleb128 0x1
 10175 0038 51       		.byte	0x51
 10176 0039 9F       		.byte	0x9f
 10177 003a 00000000 		.4byte	0
 10178 003e 00000000 		.4byte	0
 10179              	.LLST2:
 10180 0042 00000000 		.4byte	.LVL0
 10181 0046 06000000 		.4byte	.LVL1
 10182 004a 0100     		.2byte	0x1
 10183 004c 52       		.byte	0x52
 10184 004d 06000000 		.4byte	.LVL1
 10185 0051 0B000000 		.4byte	.LVL3-1
 10186 0055 0100     		.2byte	0x1
 10187 0057 53       		.byte	0x53
 10188 0058 0B000000 		.4byte	.LVL3-1
 10189 005c 0E000000 		.4byte	.LFE159
 10190 0060 0400     		.2byte	0x4
 10191 0062 F3       		.byte	0xf3
 10192 0063 01       		.uleb128 0x1
 10193 0064 52       		.byte	0x52
 10194 0065 9F       		.byte	0x9f
 10195 0066 00000000 		.4byte	0
 10196 006a 00000000 		.4byte	0
 10197              	.LLST3:
 10198 006e 00000000 		.4byte	.LVL4
 10199 0072 0B000000 		.4byte	.LVL7-1
 10200 0076 0100     		.2byte	0x1
 10201 0078 50       		.byte	0x50
 10202 0079 0B000000 		.4byte	.LVL7-1
 10203 007d 0E000000 		.4byte	.LFE160
 10204 0081 0400     		.2byte	0x4
 10205 0083 F3       		.byte	0xf3
 10206 0084 01       		.uleb128 0x1
 10207 0085 50       		.byte	0x50
 10208 0086 9F       		.byte	0x9f
 10209 0087 00000000 		.4byte	0
 10210 008b 00000000 		.4byte	0
 10211              	.LLST4:
 10212 008f 00000000 		.4byte	.LVL4
 10213 0093 08000000 		.4byte	.LVL6
 10214 0097 0100     		.2byte	0x1
ARM GAS  C:\Users\haske\AppData\Local\Temp\cc0eRFVw.s 			page 192


 10215 0099 51       		.byte	0x51
 10216 009a 08000000 		.4byte	.LVL6
 10217 009e 0E000000 		.4byte	.LFE160
 10218 00a2 0400     		.2byte	0x4
 10219 00a4 F3       		.byte	0xf3
 10220 00a5 01       		.uleb128 0x1
 10221 00a6 51       		.byte	0x51
 10222 00a7 9F       		.byte	0x9f
 10223 00a8 00000000 		.4byte	0
 10224 00ac 00000000 		.4byte	0
 10225              	.LLST5:
 10226 00b0 00000000 		.4byte	.LVL4
 10227 00b4 06000000 		.4byte	.LVL5
 10228 00b8 0100     		.2byte	0x1
 10229 00ba 52       		.byte	0x52
 10230 00bb 06000000 		.4byte	.LVL5
 10231 00bf 0B000000 		.4byte	.LVL7-1
 10232 00c3 0100     		.2byte	0x1
 10233 00c5 53       		.byte	0x53
 10234 00c6 0B000000 		.4byte	.LVL7-1
 10235 00ca 0E000000 		.4byte	.LFE160
 10236 00ce 0400     		.2byte	0x4
 10237 00d0 F3       		.byte	0xf3
 10238 00d1 01       		.uleb128 0x1
 10239 00d2 52       		.byte	0x52
 10240 00d3 9F       		.byte	0x9f
 10241 00d4 00000000 		.4byte	0
 10242 00d8 00000000 		.4byte	0
 10243              	.LLST6:
 10244 00dc 00000000 		.4byte	.LVL8
 10245 00e0 0B000000 		.4byte	.LVL11-1
 10246 00e4 0100     		.2byte	0x1
 10247 00e6 50       		.byte	0x50
 10248 00e7 0B000000 		.4byte	.LVL11-1
 10249 00eb 0E000000 		.4byte	.LFE161
 10250 00ef 0400     		.2byte	0x4
 10251 00f1 F3       		.byte	0xf3
 10252 00f2 01       		.uleb128 0x1
 10253 00f3 50       		.byte	0x50
 10254 00f4 9F       		.byte	0x9f
 10255 00f5 00000000 		.4byte	0
 10256 00f9 00000000 		.4byte	0
 10257              	.LLST7:
 10258 00fd 00000000 		.4byte	.LVL8
 10259 0101 08000000 		.4byte	.LVL10
 10260 0105 0100     		.2byte	0x1
 10261 0107 51       		.byte	0x51
 10262 0108 08000000 		.4byte	.LVL10
 10263 010c 0E000000 		.4byte	.LFE161
 10264 0110 0400     		.2byte	0x4
 10265 0112 F3       		.byte	0xf3
 10266 0113 01       		.uleb128 0x1
 10267 0114 51       		.byte	0x51
 10268 0115 9F       		.byte	0x9f
 10269 0116 00000000 		.4byte	0
 10270 011a 00000000 		.4byte	0
 10271              	.LLST8:
ARM GAS  C:\Users\haske\AppData\Local\Temp\cc0eRFVw.s 			page 193


 10272 011e 00000000 		.4byte	.LVL8
 10273 0122 06000000 		.4byte	.LVL9
 10274 0126 0100     		.2byte	0x1
 10275 0128 52       		.byte	0x52
 10276 0129 06000000 		.4byte	.LVL9
 10277 012d 0B000000 		.4byte	.LVL11-1
 10278 0131 0100     		.2byte	0x1
 10279 0133 53       		.byte	0x53
 10280 0134 0B000000 		.4byte	.LVL11-1
 10281 0138 0E000000 		.4byte	.LFE161
 10282 013c 0400     		.2byte	0x4
 10283 013e F3       		.byte	0xf3
 10284 013f 01       		.uleb128 0x1
 10285 0140 52       		.byte	0x52
 10286 0141 9F       		.byte	0x9f
 10287 0142 00000000 		.4byte	0
 10288 0146 00000000 		.4byte	0
 10289              	.LLST9:
 10290 014a 00000000 		.4byte	.LVL12
 10291 014e 0B000000 		.4byte	.LVL15-1
 10292 0152 0100     		.2byte	0x1
 10293 0154 50       		.byte	0x50
 10294 0155 0B000000 		.4byte	.LVL15-1
 10295 0159 0E000000 		.4byte	.LFE162
 10296 015d 0400     		.2byte	0x4
 10297 015f F3       		.byte	0xf3
 10298 0160 01       		.uleb128 0x1
 10299 0161 50       		.byte	0x50
 10300 0162 9F       		.byte	0x9f
 10301 0163 00000000 		.4byte	0
 10302 0167 00000000 		.4byte	0
 10303              	.LLST10:
 10304 016b 00000000 		.4byte	.LVL12
 10305 016f 08000000 		.4byte	.LVL14
 10306 0173 0100     		.2byte	0x1
 10307 0175 51       		.byte	0x51
 10308 0176 08000000 		.4byte	.LVL14
 10309 017a 0E000000 		.4byte	.LFE162
 10310 017e 0400     		.2byte	0x4
 10311 0180 F3       		.byte	0xf3
 10312 0181 01       		.uleb128 0x1
 10313 0182 51       		.byte	0x51
 10314 0183 9F       		.byte	0x9f
 10315 0184 00000000 		.4byte	0
 10316 0188 00000000 		.4byte	0
 10317              	.LLST11:
 10318 018c 00000000 		.4byte	.LVL12
 10319 0190 06000000 		.4byte	.LVL13
 10320 0194 0100     		.2byte	0x1
 10321 0196 52       		.byte	0x52
 10322 0197 06000000 		.4byte	.LVL13
 10323 019b 0B000000 		.4byte	.LVL15-1
 10324 019f 0100     		.2byte	0x1
 10325 01a1 53       		.byte	0x53
 10326 01a2 0B000000 		.4byte	.LVL15-1
 10327 01a6 0E000000 		.4byte	.LFE162
 10328 01aa 0400     		.2byte	0x4
ARM GAS  C:\Users\haske\AppData\Local\Temp\cc0eRFVw.s 			page 194


 10329 01ac F3       		.byte	0xf3
 10330 01ad 01       		.uleb128 0x1
 10331 01ae 52       		.byte	0x52
 10332 01af 9F       		.byte	0x9f
 10333 01b0 00000000 		.4byte	0
 10334 01b4 00000000 		.4byte	0
 10335              	.LLST12:
 10336 01b8 00000000 		.4byte	.LVL16
 10337 01bc 0B000000 		.4byte	.LVL19-1
 10338 01c0 0100     		.2byte	0x1
 10339 01c2 50       		.byte	0x50
 10340 01c3 0B000000 		.4byte	.LVL19-1
 10341 01c7 0E000000 		.4byte	.LFE163
 10342 01cb 0400     		.2byte	0x4
 10343 01cd F3       		.byte	0xf3
 10344 01ce 01       		.uleb128 0x1
 10345 01cf 50       		.byte	0x50
 10346 01d0 9F       		.byte	0x9f
 10347 01d1 00000000 		.4byte	0
 10348 01d5 00000000 		.4byte	0
 10349              	.LLST13:
 10350 01d9 00000000 		.4byte	.LVL16
 10351 01dd 08000000 		.4byte	.LVL18
 10352 01e1 0100     		.2byte	0x1
 10353 01e3 51       		.byte	0x51
 10354 01e4 08000000 		.4byte	.LVL18
 10355 01e8 0E000000 		.4byte	.LFE163
 10356 01ec 0400     		.2byte	0x4
 10357 01ee F3       		.byte	0xf3
 10358 01ef 01       		.uleb128 0x1
 10359 01f0 51       		.byte	0x51
 10360 01f1 9F       		.byte	0x9f
 10361 01f2 00000000 		.4byte	0
 10362 01f6 00000000 		.4byte	0
 10363              	.LLST14:
 10364 01fa 00000000 		.4byte	.LVL16
 10365 01fe 06000000 		.4byte	.LVL17
 10366 0202 0100     		.2byte	0x1
 10367 0204 52       		.byte	0x52
 10368 0205 06000000 		.4byte	.LVL17
 10369 0209 0B000000 		.4byte	.LVL19-1
 10370 020d 0100     		.2byte	0x1
 10371 020f 53       		.byte	0x53
 10372 0210 0B000000 		.4byte	.LVL19-1
 10373 0214 0E000000 		.4byte	.LFE163
 10374 0218 0400     		.2byte	0x4
 10375 021a F3       		.byte	0xf3
 10376 021b 01       		.uleb128 0x1
 10377 021c 52       		.byte	0x52
 10378 021d 9F       		.byte	0x9f
 10379 021e 00000000 		.4byte	0
 10380 0222 00000000 		.4byte	0
 10381              	.LLST15:
 10382 0226 00000000 		.4byte	.LVL20
 10383 022a 0B000000 		.4byte	.LVL23-1
 10384 022e 0100     		.2byte	0x1
 10385 0230 50       		.byte	0x50
ARM GAS  C:\Users\haske\AppData\Local\Temp\cc0eRFVw.s 			page 195


 10386 0231 0B000000 		.4byte	.LVL23-1
 10387 0235 0E000000 		.4byte	.LFE164
 10388 0239 0400     		.2byte	0x4
 10389 023b F3       		.byte	0xf3
 10390 023c 01       		.uleb128 0x1
 10391 023d 50       		.byte	0x50
 10392 023e 9F       		.byte	0x9f
 10393 023f 00000000 		.4byte	0
 10394 0243 00000000 		.4byte	0
 10395              	.LLST16:
 10396 0247 00000000 		.4byte	.LVL20
 10397 024b 08000000 		.4byte	.LVL22
 10398 024f 0100     		.2byte	0x1
 10399 0251 51       		.byte	0x51
 10400 0252 08000000 		.4byte	.LVL22
 10401 0256 0E000000 		.4byte	.LFE164
 10402 025a 0400     		.2byte	0x4
 10403 025c F3       		.byte	0xf3
 10404 025d 01       		.uleb128 0x1
 10405 025e 51       		.byte	0x51
 10406 025f 9F       		.byte	0x9f
 10407 0260 00000000 		.4byte	0
 10408 0264 00000000 		.4byte	0
 10409              	.LLST17:
 10410 0268 00000000 		.4byte	.LVL20
 10411 026c 06000000 		.4byte	.LVL21
 10412 0270 0100     		.2byte	0x1
 10413 0272 52       		.byte	0x52
 10414 0273 06000000 		.4byte	.LVL21
 10415 0277 0B000000 		.4byte	.LVL23-1
 10416 027b 0100     		.2byte	0x1
 10417 027d 53       		.byte	0x53
 10418 027e 0B000000 		.4byte	.LVL23-1
 10419 0282 0E000000 		.4byte	.LFE164
 10420 0286 0400     		.2byte	0x4
 10421 0288 F3       		.byte	0xf3
 10422 0289 01       		.uleb128 0x1
 10423 028a 52       		.byte	0x52
 10424 028b 9F       		.byte	0x9f
 10425 028c 00000000 		.4byte	0
 10426 0290 00000000 		.4byte	0
 10427              	.LLST18:
 10428 0294 00000000 		.4byte	.LVL24
 10429 0298 0B000000 		.4byte	.LVL27-1
 10430 029c 0100     		.2byte	0x1
 10431 029e 50       		.byte	0x50
 10432 029f 0B000000 		.4byte	.LVL27-1
 10433 02a3 0E000000 		.4byte	.LFE165
 10434 02a7 0400     		.2byte	0x4
 10435 02a9 F3       		.byte	0xf3
 10436 02aa 01       		.uleb128 0x1
 10437 02ab 50       		.byte	0x50
 10438 02ac 9F       		.byte	0x9f
 10439 02ad 00000000 		.4byte	0
 10440 02b1 00000000 		.4byte	0
 10441              	.LLST19:
 10442 02b5 00000000 		.4byte	.LVL24
ARM GAS  C:\Users\haske\AppData\Local\Temp\cc0eRFVw.s 			page 196


 10443 02b9 08000000 		.4byte	.LVL26
 10444 02bd 0100     		.2byte	0x1
 10445 02bf 51       		.byte	0x51
 10446 02c0 08000000 		.4byte	.LVL26
 10447 02c4 0E000000 		.4byte	.LFE165
 10448 02c8 0400     		.2byte	0x4
 10449 02ca F3       		.byte	0xf3
 10450 02cb 01       		.uleb128 0x1
 10451 02cc 51       		.byte	0x51
 10452 02cd 9F       		.byte	0x9f
 10453 02ce 00000000 		.4byte	0
 10454 02d2 00000000 		.4byte	0
 10455              	.LLST20:
 10456 02d6 00000000 		.4byte	.LVL24
 10457 02da 06000000 		.4byte	.LVL25
 10458 02de 0100     		.2byte	0x1
 10459 02e0 52       		.byte	0x52
 10460 02e1 06000000 		.4byte	.LVL25
 10461 02e5 0B000000 		.4byte	.LVL27-1
 10462 02e9 0100     		.2byte	0x1
 10463 02eb 53       		.byte	0x53
 10464 02ec 0B000000 		.4byte	.LVL27-1
 10465 02f0 0E000000 		.4byte	.LFE165
 10466 02f4 0400     		.2byte	0x4
 10467 02f6 F3       		.byte	0xf3
 10468 02f7 01       		.uleb128 0x1
 10469 02f8 52       		.byte	0x52
 10470 02f9 9F       		.byte	0x9f
 10471 02fa 00000000 		.4byte	0
 10472 02fe 00000000 		.4byte	0
 10473              	.LLST21:
 10474 0302 00000000 		.4byte	.LVL28
 10475 0306 0B000000 		.4byte	.LVL31-1
 10476 030a 0100     		.2byte	0x1
 10477 030c 50       		.byte	0x50
 10478 030d 0B000000 		.4byte	.LVL31-1
 10479 0311 0E000000 		.4byte	.LFE166
 10480 0315 0400     		.2byte	0x4
 10481 0317 F3       		.byte	0xf3
 10482 0318 01       		.uleb128 0x1
 10483 0319 50       		.byte	0x50
 10484 031a 9F       		.byte	0x9f
 10485 031b 00000000 		.4byte	0
 10486 031f 00000000 		.4byte	0
 10487              	.LLST22:
 10488 0323 00000000 		.4byte	.LVL28
 10489 0327 08000000 		.4byte	.LVL30
 10490 032b 0100     		.2byte	0x1
 10491 032d 51       		.byte	0x51
 10492 032e 08000000 		.4byte	.LVL30
 10493 0332 0E000000 		.4byte	.LFE166
 10494 0336 0400     		.2byte	0x4
 10495 0338 F3       		.byte	0xf3
 10496 0339 01       		.uleb128 0x1
 10497 033a 51       		.byte	0x51
 10498 033b 9F       		.byte	0x9f
 10499 033c 00000000 		.4byte	0
ARM GAS  C:\Users\haske\AppData\Local\Temp\cc0eRFVw.s 			page 197


 10500 0340 00000000 		.4byte	0
 10501              	.LLST23:
 10502 0344 00000000 		.4byte	.LVL28
 10503 0348 06000000 		.4byte	.LVL29
 10504 034c 0100     		.2byte	0x1
 10505 034e 52       		.byte	0x52
 10506 034f 06000000 		.4byte	.LVL29
 10507 0353 0B000000 		.4byte	.LVL31-1
 10508 0357 0100     		.2byte	0x1
 10509 0359 53       		.byte	0x53
 10510 035a 0B000000 		.4byte	.LVL31-1
 10511 035e 0E000000 		.4byte	.LFE166
 10512 0362 0400     		.2byte	0x4
 10513 0364 F3       		.byte	0xf3
 10514 0365 01       		.uleb128 0x1
 10515 0366 52       		.byte	0x52
 10516 0367 9F       		.byte	0x9f
 10517 0368 00000000 		.4byte	0
 10518 036c 00000000 		.4byte	0
 10519              	.LLST24:
 10520 0370 00000000 		.4byte	.LVL32
 10521 0374 0B000000 		.4byte	.LVL35-1
 10522 0378 0100     		.2byte	0x1
 10523 037a 50       		.byte	0x50
 10524 037b 0B000000 		.4byte	.LVL35-1
 10525 037f 0E000000 		.4byte	.LFE167
 10526 0383 0400     		.2byte	0x4
 10527 0385 F3       		.byte	0xf3
 10528 0386 01       		.uleb128 0x1
 10529 0387 50       		.byte	0x50
 10530 0388 9F       		.byte	0x9f
 10531 0389 00000000 		.4byte	0
 10532 038d 00000000 		.4byte	0
 10533              	.LLST25:
 10534 0391 00000000 		.4byte	.LVL32
 10535 0395 08000000 		.4byte	.LVL34
 10536 0399 0100     		.2byte	0x1
 10537 039b 51       		.byte	0x51
 10538 039c 08000000 		.4byte	.LVL34
 10539 03a0 0E000000 		.4byte	.LFE167
 10540 03a4 0400     		.2byte	0x4
 10541 03a6 F3       		.byte	0xf3
 10542 03a7 01       		.uleb128 0x1
 10543 03a8 51       		.byte	0x51
 10544 03a9 9F       		.byte	0x9f
 10545 03aa 00000000 		.4byte	0
 10546 03ae 00000000 		.4byte	0
 10547              	.LLST26:
 10548 03b2 00000000 		.4byte	.LVL32
 10549 03b6 06000000 		.4byte	.LVL33
 10550 03ba 0100     		.2byte	0x1
 10551 03bc 52       		.byte	0x52
 10552 03bd 06000000 		.4byte	.LVL33
 10553 03c1 0B000000 		.4byte	.LVL35-1
 10554 03c5 0100     		.2byte	0x1
 10555 03c7 53       		.byte	0x53
 10556 03c8 0B000000 		.4byte	.LVL35-1
ARM GAS  C:\Users\haske\AppData\Local\Temp\cc0eRFVw.s 			page 198


 10557 03cc 0E000000 		.4byte	.LFE167
 10558 03d0 0400     		.2byte	0x4
 10559 03d2 F3       		.byte	0xf3
 10560 03d3 01       		.uleb128 0x1
 10561 03d4 52       		.byte	0x52
 10562 03d5 9F       		.byte	0x9f
 10563 03d6 00000000 		.4byte	0
 10564 03da 00000000 		.4byte	0
 10565              	.LLST27:
 10566 03de 00000000 		.4byte	.LVL36
 10567 03e2 0B000000 		.4byte	.LVL39-1
 10568 03e6 0100     		.2byte	0x1
 10569 03e8 50       		.byte	0x50
 10570 03e9 0B000000 		.4byte	.LVL39-1
 10571 03ed 0E000000 		.4byte	.LFE168
 10572 03f1 0400     		.2byte	0x4
 10573 03f3 F3       		.byte	0xf3
 10574 03f4 01       		.uleb128 0x1
 10575 03f5 50       		.byte	0x50
 10576 03f6 9F       		.byte	0x9f
 10577 03f7 00000000 		.4byte	0
 10578 03fb 00000000 		.4byte	0
 10579              	.LLST28:
 10580 03ff 00000000 		.4byte	.LVL36
 10581 0403 08000000 		.4byte	.LVL38
 10582 0407 0100     		.2byte	0x1
 10583 0409 51       		.byte	0x51
 10584 040a 08000000 		.4byte	.LVL38
 10585 040e 0E000000 		.4byte	.LFE168
 10586 0412 0400     		.2byte	0x4
 10587 0414 F3       		.byte	0xf3
 10588 0415 01       		.uleb128 0x1
 10589 0416 51       		.byte	0x51
 10590 0417 9F       		.byte	0x9f
 10591 0418 00000000 		.4byte	0
 10592 041c 00000000 		.4byte	0
 10593              	.LLST29:
 10594 0420 00000000 		.4byte	.LVL36
 10595 0424 06000000 		.4byte	.LVL37
 10596 0428 0100     		.2byte	0x1
 10597 042a 52       		.byte	0x52
 10598 042b 06000000 		.4byte	.LVL37
 10599 042f 0B000000 		.4byte	.LVL39-1
 10600 0433 0100     		.2byte	0x1
 10601 0435 53       		.byte	0x53
 10602 0436 0B000000 		.4byte	.LVL39-1
 10603 043a 0E000000 		.4byte	.LFE168
 10604 043e 0400     		.2byte	0x4
 10605 0440 F3       		.byte	0xf3
 10606 0441 01       		.uleb128 0x1
 10607 0442 52       		.byte	0x52
 10608 0443 9F       		.byte	0x9f
 10609 0444 00000000 		.4byte	0
 10610 0448 00000000 		.4byte	0
 10611              	.LLST30:
 10612 044c 00000000 		.4byte	.LVL40
 10613 0450 0B000000 		.4byte	.LVL43-1
ARM GAS  C:\Users\haske\AppData\Local\Temp\cc0eRFVw.s 			page 199


 10614 0454 0100     		.2byte	0x1
 10615 0456 50       		.byte	0x50
 10616 0457 0B000000 		.4byte	.LVL43-1
 10617 045b 0E000000 		.4byte	.LFE169
 10618 045f 0400     		.2byte	0x4
 10619 0461 F3       		.byte	0xf3
 10620 0462 01       		.uleb128 0x1
 10621 0463 50       		.byte	0x50
 10622 0464 9F       		.byte	0x9f
 10623 0465 00000000 		.4byte	0
 10624 0469 00000000 		.4byte	0
 10625              	.LLST31:
 10626 046d 00000000 		.4byte	.LVL40
 10627 0471 08000000 		.4byte	.LVL42
 10628 0475 0100     		.2byte	0x1
 10629 0477 51       		.byte	0x51
 10630 0478 08000000 		.4byte	.LVL42
 10631 047c 0E000000 		.4byte	.LFE169
 10632 0480 0400     		.2byte	0x4
 10633 0482 F3       		.byte	0xf3
 10634 0483 01       		.uleb128 0x1
 10635 0484 51       		.byte	0x51
 10636 0485 9F       		.byte	0x9f
 10637 0486 00000000 		.4byte	0
 10638 048a 00000000 		.4byte	0
 10639              	.LLST32:
 10640 048e 00000000 		.4byte	.LVL40
 10641 0492 06000000 		.4byte	.LVL41
 10642 0496 0100     		.2byte	0x1
 10643 0498 52       		.byte	0x52
 10644 0499 06000000 		.4byte	.LVL41
 10645 049d 0B000000 		.4byte	.LVL43-1
 10646 04a1 0100     		.2byte	0x1
 10647 04a3 53       		.byte	0x53
 10648 04a4 0B000000 		.4byte	.LVL43-1
 10649 04a8 0E000000 		.4byte	.LFE169
 10650 04ac 0400     		.2byte	0x4
 10651 04ae F3       		.byte	0xf3
 10652 04af 01       		.uleb128 0x1
 10653 04b0 52       		.byte	0x52
 10654 04b1 9F       		.byte	0x9f
 10655 04b2 00000000 		.4byte	0
 10656 04b6 00000000 		.4byte	0
 10657              	.LLST33:
 10658 04ba 00000000 		.4byte	.LVL44
 10659 04be 0B000000 		.4byte	.LVL47-1
 10660 04c2 0100     		.2byte	0x1
 10661 04c4 50       		.byte	0x50
 10662 04c5 0B000000 		.4byte	.LVL47-1
 10663 04c9 0E000000 		.4byte	.LFE170
 10664 04cd 0400     		.2byte	0x4
 10665 04cf F3       		.byte	0xf3
 10666 04d0 01       		.uleb128 0x1
 10667 04d1 50       		.byte	0x50
 10668 04d2 9F       		.byte	0x9f
 10669 04d3 00000000 		.4byte	0
 10670 04d7 00000000 		.4byte	0
ARM GAS  C:\Users\haske\AppData\Local\Temp\cc0eRFVw.s 			page 200


 10671              	.LLST34:
 10672 04db 00000000 		.4byte	.LVL44
 10673 04df 08000000 		.4byte	.LVL46
 10674 04e3 0100     		.2byte	0x1
 10675 04e5 51       		.byte	0x51
 10676 04e6 08000000 		.4byte	.LVL46
 10677 04ea 0E000000 		.4byte	.LFE170
 10678 04ee 0400     		.2byte	0x4
 10679 04f0 F3       		.byte	0xf3
 10680 04f1 01       		.uleb128 0x1
 10681 04f2 51       		.byte	0x51
 10682 04f3 9F       		.byte	0x9f
 10683 04f4 00000000 		.4byte	0
 10684 04f8 00000000 		.4byte	0
 10685              	.LLST35:
 10686 04fc 00000000 		.4byte	.LVL44
 10687 0500 06000000 		.4byte	.LVL45
 10688 0504 0100     		.2byte	0x1
 10689 0506 52       		.byte	0x52
 10690 0507 06000000 		.4byte	.LVL45
 10691 050b 0B000000 		.4byte	.LVL47-1
 10692 050f 0100     		.2byte	0x1
 10693 0511 53       		.byte	0x53
 10694 0512 0B000000 		.4byte	.LVL47-1
 10695 0516 0E000000 		.4byte	.LFE170
 10696 051a 0400     		.2byte	0x4
 10697 051c F3       		.byte	0xf3
 10698 051d 01       		.uleb128 0x1
 10699 051e 52       		.byte	0x52
 10700 051f 9F       		.byte	0x9f
 10701 0520 00000000 		.4byte	0
 10702 0524 00000000 		.4byte	0
 10703              	.LLST36:
 10704 0528 00000000 		.4byte	.LVL48
 10705 052c 0B000000 		.4byte	.LVL51-1
 10706 0530 0100     		.2byte	0x1
 10707 0532 50       		.byte	0x50
 10708 0533 0B000000 		.4byte	.LVL51-1
 10709 0537 0E000000 		.4byte	.LFE171
 10710 053b 0400     		.2byte	0x4
 10711 053d F3       		.byte	0xf3
 10712 053e 01       		.uleb128 0x1
 10713 053f 50       		.byte	0x50
 10714 0540 9F       		.byte	0x9f
 10715 0541 00000000 		.4byte	0
 10716 0545 00000000 		.4byte	0
 10717              	.LLST37:
 10718 0549 00000000 		.4byte	.LVL48
 10719 054d 08000000 		.4byte	.LVL50
 10720 0551 0100     		.2byte	0x1
 10721 0553 51       		.byte	0x51
 10722 0554 08000000 		.4byte	.LVL50
 10723 0558 0E000000 		.4byte	.LFE171
 10724 055c 0400     		.2byte	0x4
 10725 055e F3       		.byte	0xf3
 10726 055f 01       		.uleb128 0x1
 10727 0560 51       		.byte	0x51
ARM GAS  C:\Users\haske\AppData\Local\Temp\cc0eRFVw.s 			page 201


 10728 0561 9F       		.byte	0x9f
 10729 0562 00000000 		.4byte	0
 10730 0566 00000000 		.4byte	0
 10731              	.LLST38:
 10732 056a 00000000 		.4byte	.LVL48
 10733 056e 06000000 		.4byte	.LVL49
 10734 0572 0100     		.2byte	0x1
 10735 0574 52       		.byte	0x52
 10736 0575 06000000 		.4byte	.LVL49
 10737 0579 0B000000 		.4byte	.LVL51-1
 10738 057d 0100     		.2byte	0x1
 10739 057f 53       		.byte	0x53
 10740 0580 0B000000 		.4byte	.LVL51-1
 10741 0584 0E000000 		.4byte	.LFE171
 10742 0588 0400     		.2byte	0x4
 10743 058a F3       		.byte	0xf3
 10744 058b 01       		.uleb128 0x1
 10745 058c 52       		.byte	0x52
 10746 058d 9F       		.byte	0x9f
 10747 058e 00000000 		.4byte	0
 10748 0592 00000000 		.4byte	0
 10749              	.LLST39:
 10750 0596 00000000 		.4byte	.LVL52
 10751 059a 0B000000 		.4byte	.LVL55-1
 10752 059e 0100     		.2byte	0x1
 10753 05a0 50       		.byte	0x50
 10754 05a1 0B000000 		.4byte	.LVL55-1
 10755 05a5 0E000000 		.4byte	.LFE172
 10756 05a9 0400     		.2byte	0x4
 10757 05ab F3       		.byte	0xf3
 10758 05ac 01       		.uleb128 0x1
 10759 05ad 50       		.byte	0x50
 10760 05ae 9F       		.byte	0x9f
 10761 05af 00000000 		.4byte	0
 10762 05b3 00000000 		.4byte	0
 10763              	.LLST40:
 10764 05b7 00000000 		.4byte	.LVL52
 10765 05bb 08000000 		.4byte	.LVL54
 10766 05bf 0100     		.2byte	0x1
 10767 05c1 51       		.byte	0x51
 10768 05c2 08000000 		.4byte	.LVL54
 10769 05c6 0E000000 		.4byte	.LFE172
 10770 05ca 0400     		.2byte	0x4
 10771 05cc F3       		.byte	0xf3
 10772 05cd 01       		.uleb128 0x1
 10773 05ce 51       		.byte	0x51
 10774 05cf 9F       		.byte	0x9f
 10775 05d0 00000000 		.4byte	0
 10776 05d4 00000000 		.4byte	0
 10777              	.LLST41:
 10778 05d8 00000000 		.4byte	.LVL52
 10779 05dc 06000000 		.4byte	.LVL53
 10780 05e0 0100     		.2byte	0x1
 10781 05e2 52       		.byte	0x52
 10782 05e3 06000000 		.4byte	.LVL53
 10783 05e7 0B000000 		.4byte	.LVL55-1
 10784 05eb 0100     		.2byte	0x1
ARM GAS  C:\Users\haske\AppData\Local\Temp\cc0eRFVw.s 			page 202


 10785 05ed 53       		.byte	0x53
 10786 05ee 0B000000 		.4byte	.LVL55-1
 10787 05f2 0E000000 		.4byte	.LFE172
 10788 05f6 0400     		.2byte	0x4
 10789 05f8 F3       		.byte	0xf3
 10790 05f9 01       		.uleb128 0x1
 10791 05fa 52       		.byte	0x52
 10792 05fb 9F       		.byte	0x9f
 10793 05fc 00000000 		.4byte	0
 10794 0600 00000000 		.4byte	0
 10795              	.LLST42:
 10796 0604 00000000 		.4byte	.LVL56
 10797 0608 0B000000 		.4byte	.LVL59-1
 10798 060c 0100     		.2byte	0x1
 10799 060e 50       		.byte	0x50
 10800 060f 0B000000 		.4byte	.LVL59-1
 10801 0613 0E000000 		.4byte	.LFE173
 10802 0617 0400     		.2byte	0x4
 10803 0619 F3       		.byte	0xf3
 10804 061a 01       		.uleb128 0x1
 10805 061b 50       		.byte	0x50
 10806 061c 9F       		.byte	0x9f
 10807 061d 00000000 		.4byte	0
 10808 0621 00000000 		.4byte	0
 10809              	.LLST43:
 10810 0625 00000000 		.4byte	.LVL56
 10811 0629 08000000 		.4byte	.LVL58
 10812 062d 0100     		.2byte	0x1
 10813 062f 51       		.byte	0x51
 10814 0630 08000000 		.4byte	.LVL58
 10815 0634 0E000000 		.4byte	.LFE173
 10816 0638 0400     		.2byte	0x4
 10817 063a F3       		.byte	0xf3
 10818 063b 01       		.uleb128 0x1
 10819 063c 51       		.byte	0x51
 10820 063d 9F       		.byte	0x9f
 10821 063e 00000000 		.4byte	0
 10822 0642 00000000 		.4byte	0
 10823              	.LLST44:
 10824 0646 00000000 		.4byte	.LVL56
 10825 064a 06000000 		.4byte	.LVL57
 10826 064e 0100     		.2byte	0x1
 10827 0650 52       		.byte	0x52
 10828 0651 06000000 		.4byte	.LVL57
 10829 0655 0B000000 		.4byte	.LVL59-1
 10830 0659 0100     		.2byte	0x1
 10831 065b 53       		.byte	0x53
 10832 065c 0B000000 		.4byte	.LVL59-1
 10833 0660 0E000000 		.4byte	.LFE173
 10834 0664 0400     		.2byte	0x4
 10835 0666 F3       		.byte	0xf3
 10836 0667 01       		.uleb128 0x1
 10837 0668 52       		.byte	0x52
 10838 0669 9F       		.byte	0x9f
 10839 066a 00000000 		.4byte	0
 10840 066e 00000000 		.4byte	0
 10841              	.LLST45:
ARM GAS  C:\Users\haske\AppData\Local\Temp\cc0eRFVw.s 			page 203


 10842 0672 00000000 		.4byte	.LVL60
 10843 0676 0B000000 		.4byte	.LVL63-1
 10844 067a 0100     		.2byte	0x1
 10845 067c 50       		.byte	0x50
 10846 067d 0B000000 		.4byte	.LVL63-1
 10847 0681 0E000000 		.4byte	.LFE174
 10848 0685 0400     		.2byte	0x4
 10849 0687 F3       		.byte	0xf3
 10850 0688 01       		.uleb128 0x1
 10851 0689 50       		.byte	0x50
 10852 068a 9F       		.byte	0x9f
 10853 068b 00000000 		.4byte	0
 10854 068f 00000000 		.4byte	0
 10855              	.LLST46:
 10856 0693 00000000 		.4byte	.LVL60
 10857 0697 08000000 		.4byte	.LVL62
 10858 069b 0100     		.2byte	0x1
 10859 069d 51       		.byte	0x51
 10860 069e 08000000 		.4byte	.LVL62
 10861 06a2 0E000000 		.4byte	.LFE174
 10862 06a6 0400     		.2byte	0x4
 10863 06a8 F3       		.byte	0xf3
 10864 06a9 01       		.uleb128 0x1
 10865 06aa 51       		.byte	0x51
 10866 06ab 9F       		.byte	0x9f
 10867 06ac 00000000 		.4byte	0
 10868 06b0 00000000 		.4byte	0
 10869              	.LLST47:
 10870 06b4 00000000 		.4byte	.LVL60
 10871 06b8 06000000 		.4byte	.LVL61
 10872 06bc 0100     		.2byte	0x1
 10873 06be 52       		.byte	0x52
 10874 06bf 06000000 		.4byte	.LVL61
 10875 06c3 0B000000 		.4byte	.LVL63-1
 10876 06c7 0100     		.2byte	0x1
 10877 06c9 53       		.byte	0x53
 10878 06ca 0B000000 		.4byte	.LVL63-1
 10879 06ce 0E000000 		.4byte	.LFE174
 10880 06d2 0400     		.2byte	0x4
 10881 06d4 F3       		.byte	0xf3
 10882 06d5 01       		.uleb128 0x1
 10883 06d6 52       		.byte	0x52
 10884 06d7 9F       		.byte	0x9f
 10885 06d8 00000000 		.4byte	0
 10886 06dc 00000000 		.4byte	0
 10887              	.LLST48:
 10888 06e0 00000000 		.4byte	.LVL64
 10889 06e4 0B000000 		.4byte	.LVL67-1
 10890 06e8 0100     		.2byte	0x1
 10891 06ea 50       		.byte	0x50
 10892 06eb 0B000000 		.4byte	.LVL67-1
 10893 06ef 0E000000 		.4byte	.LFE175
 10894 06f3 0400     		.2byte	0x4
 10895 06f5 F3       		.byte	0xf3
 10896 06f6 01       		.uleb128 0x1
 10897 06f7 50       		.byte	0x50
 10898 06f8 9F       		.byte	0x9f
ARM GAS  C:\Users\haske\AppData\Local\Temp\cc0eRFVw.s 			page 204


 10899 06f9 00000000 		.4byte	0
 10900 06fd 00000000 		.4byte	0
 10901              	.LLST49:
 10902 0701 00000000 		.4byte	.LVL64
 10903 0705 08000000 		.4byte	.LVL66
 10904 0709 0100     		.2byte	0x1
 10905 070b 51       		.byte	0x51
 10906 070c 08000000 		.4byte	.LVL66
 10907 0710 0E000000 		.4byte	.LFE175
 10908 0714 0400     		.2byte	0x4
 10909 0716 F3       		.byte	0xf3
 10910 0717 01       		.uleb128 0x1
 10911 0718 51       		.byte	0x51
 10912 0719 9F       		.byte	0x9f
 10913 071a 00000000 		.4byte	0
 10914 071e 00000000 		.4byte	0
 10915              	.LLST50:
 10916 0722 00000000 		.4byte	.LVL64
 10917 0726 06000000 		.4byte	.LVL65
 10918 072a 0100     		.2byte	0x1
 10919 072c 52       		.byte	0x52
 10920 072d 06000000 		.4byte	.LVL65
 10921 0731 0B000000 		.4byte	.LVL67-1
 10922 0735 0100     		.2byte	0x1
 10923 0737 53       		.byte	0x53
 10924 0738 0B000000 		.4byte	.LVL67-1
 10925 073c 0E000000 		.4byte	.LFE175
 10926 0740 0400     		.2byte	0x4
 10927 0742 F3       		.byte	0xf3
 10928 0743 01       		.uleb128 0x1
 10929 0744 52       		.byte	0x52
 10930 0745 9F       		.byte	0x9f
 10931 0746 00000000 		.4byte	0
 10932 074a 00000000 		.4byte	0
 10933              	.LLST51:
 10934 074e 00000000 		.4byte	.LVL68
 10935 0752 0B000000 		.4byte	.LVL71-1
 10936 0756 0100     		.2byte	0x1
 10937 0758 50       		.byte	0x50
 10938 0759 0B000000 		.4byte	.LVL71-1
 10939 075d 0E000000 		.4byte	.LFE176
 10940 0761 0400     		.2byte	0x4
 10941 0763 F3       		.byte	0xf3
 10942 0764 01       		.uleb128 0x1
 10943 0765 50       		.byte	0x50
 10944 0766 9F       		.byte	0x9f
 10945 0767 00000000 		.4byte	0
 10946 076b 00000000 		.4byte	0
 10947              	.LLST52:
 10948 076f 00000000 		.4byte	.LVL68
 10949 0773 08000000 		.4byte	.LVL70
 10950 0777 0100     		.2byte	0x1
 10951 0779 51       		.byte	0x51
 10952 077a 08000000 		.4byte	.LVL70
 10953 077e 0E000000 		.4byte	.LFE176
 10954 0782 0400     		.2byte	0x4
 10955 0784 F3       		.byte	0xf3
ARM GAS  C:\Users\haske\AppData\Local\Temp\cc0eRFVw.s 			page 205


 10956 0785 01       		.uleb128 0x1
 10957 0786 51       		.byte	0x51
 10958 0787 9F       		.byte	0x9f
 10959 0788 00000000 		.4byte	0
 10960 078c 00000000 		.4byte	0
 10961              	.LLST53:
 10962 0790 00000000 		.4byte	.LVL68
 10963 0794 06000000 		.4byte	.LVL69
 10964 0798 0100     		.2byte	0x1
 10965 079a 52       		.byte	0x52
 10966 079b 06000000 		.4byte	.LVL69
 10967 079f 0B000000 		.4byte	.LVL71-1
 10968 07a3 0100     		.2byte	0x1
 10969 07a5 53       		.byte	0x53
 10970 07a6 0B000000 		.4byte	.LVL71-1
 10971 07aa 0E000000 		.4byte	.LFE176
 10972 07ae 0400     		.2byte	0x4
 10973 07b0 F3       		.byte	0xf3
 10974 07b1 01       		.uleb128 0x1
 10975 07b2 52       		.byte	0x52
 10976 07b3 9F       		.byte	0x9f
 10977 07b4 00000000 		.4byte	0
 10978 07b8 00000000 		.4byte	0
 10979              	.LLST54:
 10980 07bc 00000000 		.4byte	.LVL72
 10981 07c0 0B000000 		.4byte	.LVL75-1
 10982 07c4 0100     		.2byte	0x1
 10983 07c6 50       		.byte	0x50
 10984 07c7 0B000000 		.4byte	.LVL75-1
 10985 07cb 0E000000 		.4byte	.LFE177
 10986 07cf 0400     		.2byte	0x4
 10987 07d1 F3       		.byte	0xf3
 10988 07d2 01       		.uleb128 0x1
 10989 07d3 50       		.byte	0x50
 10990 07d4 9F       		.byte	0x9f
 10991 07d5 00000000 		.4byte	0
 10992 07d9 00000000 		.4byte	0
 10993              	.LLST55:
 10994 07dd 00000000 		.4byte	.LVL72
 10995 07e1 08000000 		.4byte	.LVL74
 10996 07e5 0100     		.2byte	0x1
 10997 07e7 51       		.byte	0x51
 10998 07e8 08000000 		.4byte	.LVL74
 10999 07ec 0E000000 		.4byte	.LFE177
 11000 07f0 0400     		.2byte	0x4
 11001 07f2 F3       		.byte	0xf3
 11002 07f3 01       		.uleb128 0x1
 11003 07f4 51       		.byte	0x51
 11004 07f5 9F       		.byte	0x9f
 11005 07f6 00000000 		.4byte	0
 11006 07fa 00000000 		.4byte	0
 11007              	.LLST56:
 11008 07fe 00000000 		.4byte	.LVL72
 11009 0802 06000000 		.4byte	.LVL73
 11010 0806 0100     		.2byte	0x1
 11011 0808 52       		.byte	0x52
 11012 0809 06000000 		.4byte	.LVL73
ARM GAS  C:\Users\haske\AppData\Local\Temp\cc0eRFVw.s 			page 206


 11013 080d 0B000000 		.4byte	.LVL75-1
 11014 0811 0100     		.2byte	0x1
 11015 0813 53       		.byte	0x53
 11016 0814 0B000000 		.4byte	.LVL75-1
 11017 0818 0E000000 		.4byte	.LFE177
 11018 081c 0400     		.2byte	0x4
 11019 081e F3       		.byte	0xf3
 11020 081f 01       		.uleb128 0x1
 11021 0820 52       		.byte	0x52
 11022 0821 9F       		.byte	0x9f
 11023 0822 00000000 		.4byte	0
 11024 0826 00000000 		.4byte	0
 11025              	.LLST57:
 11026 082a 00000000 		.4byte	.LVL76
 11027 082e 0B000000 		.4byte	.LVL79-1
 11028 0832 0100     		.2byte	0x1
 11029 0834 50       		.byte	0x50
 11030 0835 0B000000 		.4byte	.LVL79-1
 11031 0839 0E000000 		.4byte	.LFE178
 11032 083d 0400     		.2byte	0x4
 11033 083f F3       		.byte	0xf3
 11034 0840 01       		.uleb128 0x1
 11035 0841 50       		.byte	0x50
 11036 0842 9F       		.byte	0x9f
 11037 0843 00000000 		.4byte	0
 11038 0847 00000000 		.4byte	0
 11039              	.LLST58:
 11040 084b 00000000 		.4byte	.LVL76
 11041 084f 08000000 		.4byte	.LVL78
 11042 0853 0100     		.2byte	0x1
 11043 0855 51       		.byte	0x51
 11044 0856 08000000 		.4byte	.LVL78
 11045 085a 0E000000 		.4byte	.LFE178
 11046 085e 0400     		.2byte	0x4
 11047 0860 F3       		.byte	0xf3
 11048 0861 01       		.uleb128 0x1
 11049 0862 51       		.byte	0x51
 11050 0863 9F       		.byte	0x9f
 11051 0864 00000000 		.4byte	0
 11052 0868 00000000 		.4byte	0
 11053              	.LLST59:
 11054 086c 00000000 		.4byte	.LVL76
 11055 0870 06000000 		.4byte	.LVL77
 11056 0874 0100     		.2byte	0x1
 11057 0876 52       		.byte	0x52
 11058 0877 06000000 		.4byte	.LVL77
 11059 087b 0B000000 		.4byte	.LVL79-1
 11060 087f 0100     		.2byte	0x1
 11061 0881 53       		.byte	0x53
 11062 0882 0B000000 		.4byte	.LVL79-1
 11063 0886 0E000000 		.4byte	.LFE178
 11064 088a 0400     		.2byte	0x4
 11065 088c F3       		.byte	0xf3
 11066 088d 01       		.uleb128 0x1
 11067 088e 52       		.byte	0x52
 11068 088f 9F       		.byte	0x9f
 11069 0890 00000000 		.4byte	0
ARM GAS  C:\Users\haske\AppData\Local\Temp\cc0eRFVw.s 			page 207


 11070 0894 00000000 		.4byte	0
 11071              	.LLST60:
 11072 0898 00000000 		.4byte	.LVL80
 11073 089c 0B000000 		.4byte	.LVL83-1
 11074 08a0 0100     		.2byte	0x1
 11075 08a2 50       		.byte	0x50
 11076 08a3 0B000000 		.4byte	.LVL83-1
 11077 08a7 0E000000 		.4byte	.LFE179
 11078 08ab 0400     		.2byte	0x4
 11079 08ad F3       		.byte	0xf3
 11080 08ae 01       		.uleb128 0x1
 11081 08af 50       		.byte	0x50
 11082 08b0 9F       		.byte	0x9f
 11083 08b1 00000000 		.4byte	0
 11084 08b5 00000000 		.4byte	0
 11085              	.LLST61:
 11086 08b9 00000000 		.4byte	.LVL80
 11087 08bd 08000000 		.4byte	.LVL82
 11088 08c1 0100     		.2byte	0x1
 11089 08c3 51       		.byte	0x51
 11090 08c4 08000000 		.4byte	.LVL82
 11091 08c8 0E000000 		.4byte	.LFE179
 11092 08cc 0400     		.2byte	0x4
 11093 08ce F3       		.byte	0xf3
 11094 08cf 01       		.uleb128 0x1
 11095 08d0 51       		.byte	0x51
 11096 08d1 9F       		.byte	0x9f
 11097 08d2 00000000 		.4byte	0
 11098 08d6 00000000 		.4byte	0
 11099              	.LLST62:
 11100 08da 00000000 		.4byte	.LVL80
 11101 08de 06000000 		.4byte	.LVL81
 11102 08e2 0100     		.2byte	0x1
 11103 08e4 52       		.byte	0x52
 11104 08e5 06000000 		.4byte	.LVL81
 11105 08e9 0B000000 		.4byte	.LVL83-1
 11106 08ed 0100     		.2byte	0x1
 11107 08ef 53       		.byte	0x53
 11108 08f0 0B000000 		.4byte	.LVL83-1
 11109 08f4 0E000000 		.4byte	.LFE179
 11110 08f8 0400     		.2byte	0x4
 11111 08fa F3       		.byte	0xf3
 11112 08fb 01       		.uleb128 0x1
 11113 08fc 52       		.byte	0x52
 11114 08fd 9F       		.byte	0x9f
 11115 08fe 00000000 		.4byte	0
 11116 0902 00000000 		.4byte	0
 11117              	.LLST63:
 11118 0906 00000000 		.4byte	.LVL84
 11119 090a 0B000000 		.4byte	.LVL87-1
 11120 090e 0100     		.2byte	0x1
 11121 0910 50       		.byte	0x50
 11122 0911 0B000000 		.4byte	.LVL87-1
 11123 0915 0E000000 		.4byte	.LFE180
 11124 0919 0400     		.2byte	0x4
 11125 091b F3       		.byte	0xf3
 11126 091c 01       		.uleb128 0x1
ARM GAS  C:\Users\haske\AppData\Local\Temp\cc0eRFVw.s 			page 208


 11127 091d 50       		.byte	0x50
 11128 091e 9F       		.byte	0x9f
 11129 091f 00000000 		.4byte	0
 11130 0923 00000000 		.4byte	0
 11131              	.LLST64:
 11132 0927 00000000 		.4byte	.LVL84
 11133 092b 08000000 		.4byte	.LVL86
 11134 092f 0100     		.2byte	0x1
 11135 0931 51       		.byte	0x51
 11136 0932 08000000 		.4byte	.LVL86
 11137 0936 0E000000 		.4byte	.LFE180
 11138 093a 0400     		.2byte	0x4
 11139 093c F3       		.byte	0xf3
 11140 093d 01       		.uleb128 0x1
 11141 093e 51       		.byte	0x51
 11142 093f 9F       		.byte	0x9f
 11143 0940 00000000 		.4byte	0
 11144 0944 00000000 		.4byte	0
 11145              	.LLST65:
 11146 0948 00000000 		.4byte	.LVL84
 11147 094c 06000000 		.4byte	.LVL85
 11148 0950 0100     		.2byte	0x1
 11149 0952 52       		.byte	0x52
 11150 0953 06000000 		.4byte	.LVL85
 11151 0957 0B000000 		.4byte	.LVL87-1
 11152 095b 0100     		.2byte	0x1
 11153 095d 53       		.byte	0x53
 11154 095e 0B000000 		.4byte	.LVL87-1
 11155 0962 0E000000 		.4byte	.LFE180
 11156 0966 0400     		.2byte	0x4
 11157 0968 F3       		.byte	0xf3
 11158 0969 01       		.uleb128 0x1
 11159 096a 52       		.byte	0x52
 11160 096b 9F       		.byte	0x9f
 11161 096c 00000000 		.4byte	0
 11162 0970 00000000 		.4byte	0
 11163              	.LLST66:
 11164 0974 00000000 		.4byte	.LVL88
 11165 0978 0B000000 		.4byte	.LVL91-1
 11166 097c 0100     		.2byte	0x1
 11167 097e 50       		.byte	0x50
 11168 097f 0B000000 		.4byte	.LVL91-1
 11169 0983 0E000000 		.4byte	.LFE181
 11170 0987 0400     		.2byte	0x4
 11171 0989 F3       		.byte	0xf3
 11172 098a 01       		.uleb128 0x1
 11173 098b 50       		.byte	0x50
 11174 098c 9F       		.byte	0x9f
 11175 098d 00000000 		.4byte	0
 11176 0991 00000000 		.4byte	0
 11177              	.LLST67:
 11178 0995 00000000 		.4byte	.LVL88
 11179 0999 08000000 		.4byte	.LVL90
 11180 099d 0100     		.2byte	0x1
 11181 099f 51       		.byte	0x51
 11182 09a0 08000000 		.4byte	.LVL90
 11183 09a4 0E000000 		.4byte	.LFE181
ARM GAS  C:\Users\haske\AppData\Local\Temp\cc0eRFVw.s 			page 209


 11184 09a8 0400     		.2byte	0x4
 11185 09aa F3       		.byte	0xf3
 11186 09ab 01       		.uleb128 0x1
 11187 09ac 51       		.byte	0x51
 11188 09ad 9F       		.byte	0x9f
 11189 09ae 00000000 		.4byte	0
 11190 09b2 00000000 		.4byte	0
 11191              	.LLST68:
 11192 09b6 00000000 		.4byte	.LVL88
 11193 09ba 06000000 		.4byte	.LVL89
 11194 09be 0100     		.2byte	0x1
 11195 09c0 52       		.byte	0x52
 11196 09c1 06000000 		.4byte	.LVL89
 11197 09c5 0B000000 		.4byte	.LVL91-1
 11198 09c9 0100     		.2byte	0x1
 11199 09cb 53       		.byte	0x53
 11200 09cc 0B000000 		.4byte	.LVL91-1
 11201 09d0 0E000000 		.4byte	.LFE181
 11202 09d4 0400     		.2byte	0x4
 11203 09d6 F3       		.byte	0xf3
 11204 09d7 01       		.uleb128 0x1
 11205 09d8 52       		.byte	0x52
 11206 09d9 9F       		.byte	0x9f
 11207 09da 00000000 		.4byte	0
 11208 09de 00000000 		.4byte	0
 11209              	.LLST69:
 11210 09e2 00000000 		.4byte	.LVL92
 11211 09e6 0B000000 		.4byte	.LVL94-1
 11212 09ea 0100     		.2byte	0x1
 11213 09ec 50       		.byte	0x50
 11214 09ed 0B000000 		.4byte	.LVL94-1
 11215 09f1 0E000000 		.4byte	.LFE182
 11216 09f5 0400     		.2byte	0x4
 11217 09f7 F3       		.byte	0xf3
 11218 09f8 01       		.uleb128 0x1
 11219 09f9 50       		.byte	0x50
 11220 09fa 9F       		.byte	0x9f
 11221 09fb 00000000 		.4byte	0
 11222 09ff 00000000 		.4byte	0
 11223              	.LLST70:
 11224 0a03 00000000 		.4byte	.LVL92
 11225 0a07 06000000 		.4byte	.LVL93
 11226 0a0b 0100     		.2byte	0x1
 11227 0a0d 51       		.byte	0x51
 11228 0a0e 00000000 		.4byte	0
 11229 0a12 00000000 		.4byte	0
 11230              	.LLST71:
 11231 0a16 00000000 		.4byte	.LVL92
 11232 0a1a 06000000 		.4byte	.LVL93
 11233 0a1e 0100     		.2byte	0x1
 11234 0a20 52       		.byte	0x52
 11235 0a21 06000000 		.4byte	.LVL93
 11236 0a25 0B000000 		.4byte	.LVL94-1
 11237 0a29 0100     		.2byte	0x1
 11238 0a2b 53       		.byte	0x53
 11239 0a2c 0B000000 		.4byte	.LVL94-1
 11240 0a30 0E000000 		.4byte	.LFE182
ARM GAS  C:\Users\haske\AppData\Local\Temp\cc0eRFVw.s 			page 210


 11241 0a34 0400     		.2byte	0x4
 11242 0a36 F3       		.byte	0xf3
 11243 0a37 01       		.uleb128 0x1
 11244 0a38 52       		.byte	0x52
 11245 0a39 9F       		.byte	0x9f
 11246 0a3a 00000000 		.4byte	0
 11247 0a3e 00000000 		.4byte	0
 11248              	.LLST72:
 11249 0a42 00000000 		.4byte	.LVL95
 11250 0a46 0B000000 		.4byte	.LVL98-1
 11251 0a4a 0100     		.2byte	0x1
 11252 0a4c 50       		.byte	0x50
 11253 0a4d 0B000000 		.4byte	.LVL98-1
 11254 0a51 0E000000 		.4byte	.LFE183
 11255 0a55 0400     		.2byte	0x4
 11256 0a57 F3       		.byte	0xf3
 11257 0a58 01       		.uleb128 0x1
 11258 0a59 50       		.byte	0x50
 11259 0a5a 9F       		.byte	0x9f
 11260 0a5b 00000000 		.4byte	0
 11261 0a5f 00000000 		.4byte	0
 11262              	.LLST73:
 11263 0a63 00000000 		.4byte	.LVL95
 11264 0a67 08000000 		.4byte	.LVL97
 11265 0a6b 0100     		.2byte	0x1
 11266 0a6d 51       		.byte	0x51
 11267 0a6e 08000000 		.4byte	.LVL97
 11268 0a72 0E000000 		.4byte	.LFE183
 11269 0a76 0400     		.2byte	0x4
 11270 0a78 F3       		.byte	0xf3
 11271 0a79 01       		.uleb128 0x1
 11272 0a7a 51       		.byte	0x51
 11273 0a7b 9F       		.byte	0x9f
 11274 0a7c 00000000 		.4byte	0
 11275 0a80 00000000 		.4byte	0
 11276              	.LLST74:
 11277 0a84 00000000 		.4byte	.LVL95
 11278 0a88 06000000 		.4byte	.LVL96
 11279 0a8c 0100     		.2byte	0x1
 11280 0a8e 52       		.byte	0x52
 11281 0a8f 06000000 		.4byte	.LVL96
 11282 0a93 0B000000 		.4byte	.LVL98-1
 11283 0a97 0100     		.2byte	0x1
 11284 0a99 53       		.byte	0x53
 11285 0a9a 0B000000 		.4byte	.LVL98-1
 11286 0a9e 0E000000 		.4byte	.LFE183
 11287 0aa2 0400     		.2byte	0x4
 11288 0aa4 F3       		.byte	0xf3
 11289 0aa5 01       		.uleb128 0x1
 11290 0aa6 52       		.byte	0x52
 11291 0aa7 9F       		.byte	0x9f
 11292 0aa8 00000000 		.4byte	0
 11293 0aac 00000000 		.4byte	0
 11294              	.LLST75:
 11295 0ab0 00000000 		.4byte	.LVL99
 11296 0ab4 0B000000 		.4byte	.LVL101-1
 11297 0ab8 0100     		.2byte	0x1
ARM GAS  C:\Users\haske\AppData\Local\Temp\cc0eRFVw.s 			page 211


 11298 0aba 50       		.byte	0x50
 11299 0abb 0B000000 		.4byte	.LVL101-1
 11300 0abf 0E000000 		.4byte	.LFE184
 11301 0ac3 0400     		.2byte	0x4
 11302 0ac5 F3       		.byte	0xf3
 11303 0ac6 01       		.uleb128 0x1
 11304 0ac7 50       		.byte	0x50
 11305 0ac8 9F       		.byte	0x9f
 11306 0ac9 00000000 		.4byte	0
 11307 0acd 00000000 		.4byte	0
 11308              	.LLST76:
 11309 0ad1 00000000 		.4byte	.LVL99
 11310 0ad5 06000000 		.4byte	.LVL100
 11311 0ad9 0100     		.2byte	0x1
 11312 0adb 51       		.byte	0x51
 11313 0adc 00000000 		.4byte	0
 11314 0ae0 00000000 		.4byte	0
 11315              	.LLST77:
 11316 0ae4 00000000 		.4byte	.LVL99
 11317 0ae8 06000000 		.4byte	.LVL100
 11318 0aec 0100     		.2byte	0x1
 11319 0aee 52       		.byte	0x52
 11320 0aef 06000000 		.4byte	.LVL100
 11321 0af3 0B000000 		.4byte	.LVL101-1
 11322 0af7 0100     		.2byte	0x1
 11323 0af9 53       		.byte	0x53
 11324 0afa 0B000000 		.4byte	.LVL101-1
 11325 0afe 0E000000 		.4byte	.LFE184
 11326 0b02 0400     		.2byte	0x4
 11327 0b04 F3       		.byte	0xf3
 11328 0b05 01       		.uleb128 0x1
 11329 0b06 52       		.byte	0x52
 11330 0b07 9F       		.byte	0x9f
 11331 0b08 00000000 		.4byte	0
 11332 0b0c 00000000 		.4byte	0
 11333              	.LLST78:
 11334 0b10 00000000 		.4byte	.LVL102
 11335 0b14 0B000000 		.4byte	.LVL105-1
 11336 0b18 0100     		.2byte	0x1
 11337 0b1a 50       		.byte	0x50
 11338 0b1b 0B000000 		.4byte	.LVL105-1
 11339 0b1f 0E000000 		.4byte	.LFE185
 11340 0b23 0400     		.2byte	0x4
 11341 0b25 F3       		.byte	0xf3
 11342 0b26 01       		.uleb128 0x1
 11343 0b27 50       		.byte	0x50
 11344 0b28 9F       		.byte	0x9f
 11345 0b29 00000000 		.4byte	0
 11346 0b2d 00000000 		.4byte	0
 11347              	.LLST79:
 11348 0b31 00000000 		.4byte	.LVL102
 11349 0b35 08000000 		.4byte	.LVL104
 11350 0b39 0100     		.2byte	0x1
 11351 0b3b 51       		.byte	0x51
 11352 0b3c 08000000 		.4byte	.LVL104
 11353 0b40 0E000000 		.4byte	.LFE185
 11354 0b44 0400     		.2byte	0x4
ARM GAS  C:\Users\haske\AppData\Local\Temp\cc0eRFVw.s 			page 212


 11355 0b46 F3       		.byte	0xf3
 11356 0b47 01       		.uleb128 0x1
 11357 0b48 51       		.byte	0x51
 11358 0b49 9F       		.byte	0x9f
 11359 0b4a 00000000 		.4byte	0
 11360 0b4e 00000000 		.4byte	0
 11361              	.LLST80:
 11362 0b52 00000000 		.4byte	.LVL102
 11363 0b56 06000000 		.4byte	.LVL103
 11364 0b5a 0100     		.2byte	0x1
 11365 0b5c 52       		.byte	0x52
 11366 0b5d 06000000 		.4byte	.LVL103
 11367 0b61 0B000000 		.4byte	.LVL105-1
 11368 0b65 0100     		.2byte	0x1
 11369 0b67 53       		.byte	0x53
 11370 0b68 0B000000 		.4byte	.LVL105-1
 11371 0b6c 0E000000 		.4byte	.LFE185
 11372 0b70 0400     		.2byte	0x4
 11373 0b72 F3       		.byte	0xf3
 11374 0b73 01       		.uleb128 0x1
 11375 0b74 52       		.byte	0x52
 11376 0b75 9F       		.byte	0x9f
 11377 0b76 00000000 		.4byte	0
 11378 0b7a 00000000 		.4byte	0
 11379              	.LLST81:
 11380 0b7e 00000000 		.4byte	.LVL106
 11381 0b82 0B000000 		.4byte	.LVL109-1
 11382 0b86 0100     		.2byte	0x1
 11383 0b88 50       		.byte	0x50
 11384 0b89 0B000000 		.4byte	.LVL109-1
 11385 0b8d 0E000000 		.4byte	.LFE186
 11386 0b91 0400     		.2byte	0x4
 11387 0b93 F3       		.byte	0xf3
 11388 0b94 01       		.uleb128 0x1
 11389 0b95 50       		.byte	0x50
 11390 0b96 9F       		.byte	0x9f
 11391 0b97 00000000 		.4byte	0
 11392 0b9b 00000000 		.4byte	0
 11393              	.LLST82:
 11394 0b9f 00000000 		.4byte	.LVL106
 11395 0ba3 08000000 		.4byte	.LVL108
 11396 0ba7 0100     		.2byte	0x1
 11397 0ba9 51       		.byte	0x51
 11398 0baa 08000000 		.4byte	.LVL108
 11399 0bae 0E000000 		.4byte	.LFE186
 11400 0bb2 0400     		.2byte	0x4
 11401 0bb4 F3       		.byte	0xf3
 11402 0bb5 01       		.uleb128 0x1
 11403 0bb6 51       		.byte	0x51
 11404 0bb7 9F       		.byte	0x9f
 11405 0bb8 00000000 		.4byte	0
 11406 0bbc 00000000 		.4byte	0
 11407              	.LLST83:
 11408 0bc0 00000000 		.4byte	.LVL106
 11409 0bc4 06000000 		.4byte	.LVL107
 11410 0bc8 0100     		.2byte	0x1
 11411 0bca 52       		.byte	0x52
ARM GAS  C:\Users\haske\AppData\Local\Temp\cc0eRFVw.s 			page 213


 11412 0bcb 06000000 		.4byte	.LVL107
 11413 0bcf 0B000000 		.4byte	.LVL109-1
 11414 0bd3 0100     		.2byte	0x1
 11415 0bd5 53       		.byte	0x53
 11416 0bd6 0B000000 		.4byte	.LVL109-1
 11417 0bda 0E000000 		.4byte	.LFE186
 11418 0bde 0400     		.2byte	0x4
 11419 0be0 F3       		.byte	0xf3
 11420 0be1 01       		.uleb128 0x1
 11421 0be2 52       		.byte	0x52
 11422 0be3 9F       		.byte	0x9f
 11423 0be4 00000000 		.4byte	0
 11424 0be8 00000000 		.4byte	0
 11425              	.LLST84:
 11426 0bec 00000000 		.4byte	.LVL110
 11427 0bf0 0B000000 		.4byte	.LVL113-1
 11428 0bf4 0100     		.2byte	0x1
 11429 0bf6 50       		.byte	0x50
 11430 0bf7 0B000000 		.4byte	.LVL113-1
 11431 0bfb 0E000000 		.4byte	.LFE187
 11432 0bff 0400     		.2byte	0x4
 11433 0c01 F3       		.byte	0xf3
 11434 0c02 01       		.uleb128 0x1
 11435 0c03 50       		.byte	0x50
 11436 0c04 9F       		.byte	0x9f
 11437 0c05 00000000 		.4byte	0
 11438 0c09 00000000 		.4byte	0
 11439              	.LLST85:
 11440 0c0d 00000000 		.4byte	.LVL110
 11441 0c11 08000000 		.4byte	.LVL112
 11442 0c15 0100     		.2byte	0x1
 11443 0c17 51       		.byte	0x51
 11444 0c18 08000000 		.4byte	.LVL112
 11445 0c1c 0E000000 		.4byte	.LFE187
 11446 0c20 0400     		.2byte	0x4
 11447 0c22 F3       		.byte	0xf3
 11448 0c23 01       		.uleb128 0x1
 11449 0c24 51       		.byte	0x51
 11450 0c25 9F       		.byte	0x9f
 11451 0c26 00000000 		.4byte	0
 11452 0c2a 00000000 		.4byte	0
 11453              	.LLST86:
 11454 0c2e 00000000 		.4byte	.LVL110
 11455 0c32 06000000 		.4byte	.LVL111
 11456 0c36 0100     		.2byte	0x1
 11457 0c38 52       		.byte	0x52
 11458 0c39 06000000 		.4byte	.LVL111
 11459 0c3d 0B000000 		.4byte	.LVL113-1
 11460 0c41 0100     		.2byte	0x1
 11461 0c43 53       		.byte	0x53
 11462 0c44 0B000000 		.4byte	.LVL113-1
 11463 0c48 0E000000 		.4byte	.LFE187
 11464 0c4c 0400     		.2byte	0x4
 11465 0c4e F3       		.byte	0xf3
 11466 0c4f 01       		.uleb128 0x1
 11467 0c50 52       		.byte	0x52
 11468 0c51 9F       		.byte	0x9f
ARM GAS  C:\Users\haske\AppData\Local\Temp\cc0eRFVw.s 			page 214


 11469 0c52 00000000 		.4byte	0
 11470 0c56 00000000 		.4byte	0
 11471              	.LLST87:
 11472 0c5a 00000000 		.4byte	.LVL114
 11473 0c5e 0B000000 		.4byte	.LVL117-1
 11474 0c62 0100     		.2byte	0x1
 11475 0c64 50       		.byte	0x50
 11476 0c65 0B000000 		.4byte	.LVL117-1
 11477 0c69 0E000000 		.4byte	.LFE188
 11478 0c6d 0400     		.2byte	0x4
 11479 0c6f F3       		.byte	0xf3
 11480 0c70 01       		.uleb128 0x1
 11481 0c71 50       		.byte	0x50
 11482 0c72 9F       		.byte	0x9f
 11483 0c73 00000000 		.4byte	0
 11484 0c77 00000000 		.4byte	0
 11485              	.LLST88:
 11486 0c7b 00000000 		.4byte	.LVL114
 11487 0c7f 08000000 		.4byte	.LVL116
 11488 0c83 0100     		.2byte	0x1
 11489 0c85 51       		.byte	0x51
 11490 0c86 08000000 		.4byte	.LVL116
 11491 0c8a 0B000000 		.4byte	.LVL117-1
 11492 0c8e 0100     		.2byte	0x1
 11493 0c90 52       		.byte	0x52
 11494 0c91 0B000000 		.4byte	.LVL117-1
 11495 0c95 0E000000 		.4byte	.LFE188
 11496 0c99 0400     		.2byte	0x4
 11497 0c9b F3       		.byte	0xf3
 11498 0c9c 01       		.uleb128 0x1
 11499 0c9d 51       		.byte	0x51
 11500 0c9e 9F       		.byte	0x9f
 11501 0c9f 00000000 		.4byte	0
 11502 0ca3 00000000 		.4byte	0
 11503              	.LLST89:
 11504 0ca7 00000000 		.4byte	.LVL114
 11505 0cab 06000000 		.4byte	.LVL115
 11506 0caf 0100     		.2byte	0x1
 11507 0cb1 52       		.byte	0x52
 11508 0cb2 06000000 		.4byte	.LVL115
 11509 0cb6 0B000000 		.4byte	.LVL117-1
 11510 0cba 0100     		.2byte	0x1
 11511 0cbc 53       		.byte	0x53
 11512 0cbd 0B000000 		.4byte	.LVL117-1
 11513 0cc1 0E000000 		.4byte	.LFE188
 11514 0cc5 0400     		.2byte	0x4
 11515 0cc7 F3       		.byte	0xf3
 11516 0cc8 01       		.uleb128 0x1
 11517 0cc9 52       		.byte	0x52
 11518 0cca 9F       		.byte	0x9f
 11519 0ccb 00000000 		.4byte	0
 11520 0ccf 00000000 		.4byte	0
 11521              	.LLST90:
 11522 0cd3 00000000 		.4byte	.LVL118
 11523 0cd7 0B000000 		.4byte	.LVL121-1
 11524 0cdb 0100     		.2byte	0x1
 11525 0cdd 50       		.byte	0x50
ARM GAS  C:\Users\haske\AppData\Local\Temp\cc0eRFVw.s 			page 215


 11526 0cde 0B000000 		.4byte	.LVL121-1
 11527 0ce2 0E000000 		.4byte	.LFE189
 11528 0ce6 0400     		.2byte	0x4
 11529 0ce8 F3       		.byte	0xf3
 11530 0ce9 01       		.uleb128 0x1
 11531 0cea 50       		.byte	0x50
 11532 0ceb 9F       		.byte	0x9f
 11533 0cec 00000000 		.4byte	0
 11534 0cf0 00000000 		.4byte	0
 11535              	.LLST91:
 11536 0cf4 00000000 		.4byte	.LVL118
 11537 0cf8 08000000 		.4byte	.LVL120
 11538 0cfc 0100     		.2byte	0x1
 11539 0cfe 51       		.byte	0x51
 11540 0cff 08000000 		.4byte	.LVL120
 11541 0d03 0E000000 		.4byte	.LFE189
 11542 0d07 0400     		.2byte	0x4
 11543 0d09 F3       		.byte	0xf3
 11544 0d0a 01       		.uleb128 0x1
 11545 0d0b 51       		.byte	0x51
 11546 0d0c 9F       		.byte	0x9f
 11547 0d0d 00000000 		.4byte	0
 11548 0d11 00000000 		.4byte	0
 11549              	.LLST92:
 11550 0d15 00000000 		.4byte	.LVL118
 11551 0d19 06000000 		.4byte	.LVL119
 11552 0d1d 0100     		.2byte	0x1
 11553 0d1f 52       		.byte	0x52
 11554 0d20 06000000 		.4byte	.LVL119
 11555 0d24 0B000000 		.4byte	.LVL121-1
 11556 0d28 0100     		.2byte	0x1
 11557 0d2a 53       		.byte	0x53
 11558 0d2b 0B000000 		.4byte	.LVL121-1
 11559 0d2f 0E000000 		.4byte	.LFE189
 11560 0d33 0400     		.2byte	0x4
 11561 0d35 F3       		.byte	0xf3
 11562 0d36 01       		.uleb128 0x1
 11563 0d37 52       		.byte	0x52
 11564 0d38 9F       		.byte	0x9f
 11565 0d39 00000000 		.4byte	0
 11566 0d3d 00000000 		.4byte	0
 11567              	.LLST93:
 11568 0d41 00000000 		.4byte	.LVL122
 11569 0d45 0B000000 		.4byte	.LVL125-1
 11570 0d49 0100     		.2byte	0x1
 11571 0d4b 50       		.byte	0x50
 11572 0d4c 0B000000 		.4byte	.LVL125-1
 11573 0d50 0E000000 		.4byte	.LFE190
 11574 0d54 0400     		.2byte	0x4
 11575 0d56 F3       		.byte	0xf3
 11576 0d57 01       		.uleb128 0x1
 11577 0d58 50       		.byte	0x50
 11578 0d59 9F       		.byte	0x9f
 11579 0d5a 00000000 		.4byte	0
 11580 0d5e 00000000 		.4byte	0
 11581              	.LLST94:
 11582 0d62 00000000 		.4byte	.LVL122
ARM GAS  C:\Users\haske\AppData\Local\Temp\cc0eRFVw.s 			page 216


 11583 0d66 08000000 		.4byte	.LVL124
 11584 0d6a 0100     		.2byte	0x1
 11585 0d6c 51       		.byte	0x51
 11586 0d6d 08000000 		.4byte	.LVL124
 11587 0d71 0B000000 		.4byte	.LVL125-1
 11588 0d75 0100     		.2byte	0x1
 11589 0d77 52       		.byte	0x52
 11590 0d78 0B000000 		.4byte	.LVL125-1
 11591 0d7c 0E000000 		.4byte	.LFE190
 11592 0d80 0400     		.2byte	0x4
 11593 0d82 F3       		.byte	0xf3
 11594 0d83 01       		.uleb128 0x1
 11595 0d84 51       		.byte	0x51
 11596 0d85 9F       		.byte	0x9f
 11597 0d86 00000000 		.4byte	0
 11598 0d8a 00000000 		.4byte	0
 11599              	.LLST95:
 11600 0d8e 00000000 		.4byte	.LVL122
 11601 0d92 06000000 		.4byte	.LVL123
 11602 0d96 0100     		.2byte	0x1
 11603 0d98 52       		.byte	0x52
 11604 0d99 06000000 		.4byte	.LVL123
 11605 0d9d 0B000000 		.4byte	.LVL125-1
 11606 0da1 0100     		.2byte	0x1
 11607 0da3 53       		.byte	0x53
 11608 0da4 0B000000 		.4byte	.LVL125-1
 11609 0da8 0E000000 		.4byte	.LFE190
 11610 0dac 0400     		.2byte	0x4
 11611 0dae F3       		.byte	0xf3
 11612 0daf 01       		.uleb128 0x1
 11613 0db0 52       		.byte	0x52
 11614 0db1 9F       		.byte	0x9f
 11615 0db2 00000000 		.4byte	0
 11616 0db6 00000000 		.4byte	0
 11617              	.LLST96:
 11618 0dba 00000000 		.4byte	.LVL126
 11619 0dbe 0B000000 		.4byte	.LVL129-1
 11620 0dc2 0100     		.2byte	0x1
 11621 0dc4 50       		.byte	0x50
 11622 0dc5 0B000000 		.4byte	.LVL129-1
 11623 0dc9 0E000000 		.4byte	.LFE191
 11624 0dcd 0400     		.2byte	0x4
 11625 0dcf F3       		.byte	0xf3
 11626 0dd0 01       		.uleb128 0x1
 11627 0dd1 50       		.byte	0x50
 11628 0dd2 9F       		.byte	0x9f
 11629 0dd3 00000000 		.4byte	0
 11630 0dd7 00000000 		.4byte	0
 11631              	.LLST97:
 11632 0ddb 00000000 		.4byte	.LVL126
 11633 0ddf 08000000 		.4byte	.LVL128
 11634 0de3 0100     		.2byte	0x1
 11635 0de5 51       		.byte	0x51
 11636 0de6 08000000 		.4byte	.LVL128
 11637 0dea 0E000000 		.4byte	.LFE191
 11638 0dee 0400     		.2byte	0x4
 11639 0df0 F3       		.byte	0xf3
ARM GAS  C:\Users\haske\AppData\Local\Temp\cc0eRFVw.s 			page 217


 11640 0df1 01       		.uleb128 0x1
 11641 0df2 51       		.byte	0x51
 11642 0df3 9F       		.byte	0x9f
 11643 0df4 00000000 		.4byte	0
 11644 0df8 00000000 		.4byte	0
 11645              	.LLST98:
 11646 0dfc 00000000 		.4byte	.LVL126
 11647 0e00 06000000 		.4byte	.LVL127
 11648 0e04 0100     		.2byte	0x1
 11649 0e06 52       		.byte	0x52
 11650 0e07 06000000 		.4byte	.LVL127
 11651 0e0b 0B000000 		.4byte	.LVL129-1
 11652 0e0f 0100     		.2byte	0x1
 11653 0e11 53       		.byte	0x53
 11654 0e12 0B000000 		.4byte	.LVL129-1
 11655 0e16 0E000000 		.4byte	.LFE191
 11656 0e1a 0400     		.2byte	0x4
 11657 0e1c F3       		.byte	0xf3
 11658 0e1d 01       		.uleb128 0x1
 11659 0e1e 52       		.byte	0x52
 11660 0e1f 9F       		.byte	0x9f
 11661 0e20 00000000 		.4byte	0
 11662 0e24 00000000 		.4byte	0
 11663              	.LLST99:
 11664 0e28 00000000 		.4byte	.LVL130
 11665 0e2c 0B000000 		.4byte	.LVL132-1
 11666 0e30 0100     		.2byte	0x1
 11667 0e32 50       		.byte	0x50
 11668 0e33 0B000000 		.4byte	.LVL132-1
 11669 0e37 0E000000 		.4byte	.LFE192
 11670 0e3b 0400     		.2byte	0x4
 11671 0e3d F3       		.byte	0xf3
 11672 0e3e 01       		.uleb128 0x1
 11673 0e3f 50       		.byte	0x50
 11674 0e40 9F       		.byte	0x9f
 11675 0e41 00000000 		.4byte	0
 11676 0e45 00000000 		.4byte	0
 11677              	.LLST100:
 11678 0e49 00000000 		.4byte	.LVL130
 11679 0e4d 06000000 		.4byte	.LVL131
 11680 0e51 0100     		.2byte	0x1
 11681 0e53 51       		.byte	0x51
 11682 0e54 00000000 		.4byte	0
 11683 0e58 00000000 		.4byte	0
 11684              	.LLST101:
 11685 0e5c 00000000 		.4byte	.LVL130
 11686 0e60 06000000 		.4byte	.LVL131
 11687 0e64 0100     		.2byte	0x1
 11688 0e66 52       		.byte	0x52
 11689 0e67 06000000 		.4byte	.LVL131
 11690 0e6b 0B000000 		.4byte	.LVL132-1
 11691 0e6f 0100     		.2byte	0x1
 11692 0e71 53       		.byte	0x53
 11693 0e72 0B000000 		.4byte	.LVL132-1
 11694 0e76 0E000000 		.4byte	.LFE192
 11695 0e7a 0400     		.2byte	0x4
 11696 0e7c F3       		.byte	0xf3
ARM GAS  C:\Users\haske\AppData\Local\Temp\cc0eRFVw.s 			page 218


 11697 0e7d 01       		.uleb128 0x1
 11698 0e7e 52       		.byte	0x52
 11699 0e7f 9F       		.byte	0x9f
 11700 0e80 00000000 		.4byte	0
 11701 0e84 00000000 		.4byte	0
 11702              	.LLST102:
 11703 0e88 00000000 		.4byte	.LVL133
 11704 0e8c 0B000000 		.4byte	.LVL136-1
 11705 0e90 0100     		.2byte	0x1
 11706 0e92 50       		.byte	0x50
 11707 0e93 0B000000 		.4byte	.LVL136-1
 11708 0e97 0E000000 		.4byte	.LFE193
 11709 0e9b 0400     		.2byte	0x4
 11710 0e9d F3       		.byte	0xf3
 11711 0e9e 01       		.uleb128 0x1
 11712 0e9f 50       		.byte	0x50
 11713 0ea0 9F       		.byte	0x9f
 11714 0ea1 00000000 		.4byte	0
 11715 0ea5 00000000 		.4byte	0
 11716              	.LLST103:
 11717 0ea9 00000000 		.4byte	.LVL133
 11718 0ead 08000000 		.4byte	.LVL135
 11719 0eb1 0100     		.2byte	0x1
 11720 0eb3 51       		.byte	0x51
 11721 0eb4 08000000 		.4byte	.LVL135
 11722 0eb8 0E000000 		.4byte	.LFE193
 11723 0ebc 0400     		.2byte	0x4
 11724 0ebe F3       		.byte	0xf3
 11725 0ebf 01       		.uleb128 0x1
 11726 0ec0 51       		.byte	0x51
 11727 0ec1 9F       		.byte	0x9f
 11728 0ec2 00000000 		.4byte	0
 11729 0ec6 00000000 		.4byte	0
 11730              	.LLST104:
 11731 0eca 00000000 		.4byte	.LVL133
 11732 0ece 06000000 		.4byte	.LVL134
 11733 0ed2 0100     		.2byte	0x1
 11734 0ed4 52       		.byte	0x52
 11735 0ed5 06000000 		.4byte	.LVL134
 11736 0ed9 0B000000 		.4byte	.LVL136-1
 11737 0edd 0100     		.2byte	0x1
 11738 0edf 53       		.byte	0x53
 11739 0ee0 0B000000 		.4byte	.LVL136-1
 11740 0ee4 0E000000 		.4byte	.LFE193
 11741 0ee8 0400     		.2byte	0x4
 11742 0eea F3       		.byte	0xf3
 11743 0eeb 01       		.uleb128 0x1
 11744 0eec 52       		.byte	0x52
 11745 0eed 9F       		.byte	0x9f
 11746 0eee 00000000 		.4byte	0
 11747 0ef2 00000000 		.4byte	0
 11748              	.LLST105:
 11749 0ef6 00000000 		.4byte	.LVL137
 11750 0efa 0B000000 		.4byte	.LVL140-1
 11751 0efe 0100     		.2byte	0x1
 11752 0f00 50       		.byte	0x50
 11753 0f01 0B000000 		.4byte	.LVL140-1
ARM GAS  C:\Users\haske\AppData\Local\Temp\cc0eRFVw.s 			page 219


 11754 0f05 0E000000 		.4byte	.LFE194
 11755 0f09 0400     		.2byte	0x4
 11756 0f0b F3       		.byte	0xf3
 11757 0f0c 01       		.uleb128 0x1
 11758 0f0d 50       		.byte	0x50
 11759 0f0e 9F       		.byte	0x9f
 11760 0f0f 00000000 		.4byte	0
 11761 0f13 00000000 		.4byte	0
 11762              	.LLST106:
 11763 0f17 00000000 		.4byte	.LVL137
 11764 0f1b 08000000 		.4byte	.LVL139
 11765 0f1f 0100     		.2byte	0x1
 11766 0f21 51       		.byte	0x51
 11767 0f22 08000000 		.4byte	.LVL139
 11768 0f26 0E000000 		.4byte	.LFE194
 11769 0f2a 0400     		.2byte	0x4
 11770 0f2c F3       		.byte	0xf3
 11771 0f2d 01       		.uleb128 0x1
 11772 0f2e 51       		.byte	0x51
 11773 0f2f 9F       		.byte	0x9f
 11774 0f30 00000000 		.4byte	0
 11775 0f34 00000000 		.4byte	0
 11776              	.LLST107:
 11777 0f38 00000000 		.4byte	.LVL137
 11778 0f3c 06000000 		.4byte	.LVL138
 11779 0f40 0100     		.2byte	0x1
 11780 0f42 52       		.byte	0x52
 11781 0f43 06000000 		.4byte	.LVL138
 11782 0f47 0B000000 		.4byte	.LVL140-1
 11783 0f4b 0100     		.2byte	0x1
 11784 0f4d 53       		.byte	0x53
 11785 0f4e 0B000000 		.4byte	.LVL140-1
 11786 0f52 0E000000 		.4byte	.LFE194
 11787 0f56 0400     		.2byte	0x4
 11788 0f58 F3       		.byte	0xf3
 11789 0f59 01       		.uleb128 0x1
 11790 0f5a 52       		.byte	0x52
 11791 0f5b 9F       		.byte	0x9f
 11792 0f5c 00000000 		.4byte	0
 11793 0f60 00000000 		.4byte	0
 11794              	.LLST108:
 11795 0f64 00000000 		.4byte	.LVL141
 11796 0f68 0B000000 		.4byte	.LVL143-1
 11797 0f6c 0100     		.2byte	0x1
 11798 0f6e 50       		.byte	0x50
 11799 0f6f 0B000000 		.4byte	.LVL143-1
 11800 0f73 0E000000 		.4byte	.LFE195
 11801 0f77 0400     		.2byte	0x4
 11802 0f79 F3       		.byte	0xf3
 11803 0f7a 01       		.uleb128 0x1
 11804 0f7b 50       		.byte	0x50
 11805 0f7c 9F       		.byte	0x9f
 11806 0f7d 00000000 		.4byte	0
 11807 0f81 00000000 		.4byte	0
 11808              	.LLST109:
 11809 0f85 00000000 		.4byte	.LVL141
 11810 0f89 06000000 		.4byte	.LVL142
ARM GAS  C:\Users\haske\AppData\Local\Temp\cc0eRFVw.s 			page 220


 11811 0f8d 0100     		.2byte	0x1
 11812 0f8f 51       		.byte	0x51
 11813 0f90 00000000 		.4byte	0
 11814 0f94 00000000 		.4byte	0
 11815              	.LLST110:
 11816 0f98 00000000 		.4byte	.LVL141
 11817 0f9c 06000000 		.4byte	.LVL142
 11818 0fa0 0100     		.2byte	0x1
 11819 0fa2 52       		.byte	0x52
 11820 0fa3 06000000 		.4byte	.LVL142
 11821 0fa7 0B000000 		.4byte	.LVL143-1
 11822 0fab 0100     		.2byte	0x1
 11823 0fad 53       		.byte	0x53
 11824 0fae 0B000000 		.4byte	.LVL143-1
 11825 0fb2 0E000000 		.4byte	.LFE195
 11826 0fb6 0400     		.2byte	0x4
 11827 0fb8 F3       		.byte	0xf3
 11828 0fb9 01       		.uleb128 0x1
 11829 0fba 52       		.byte	0x52
 11830 0fbb 9F       		.byte	0x9f
 11831 0fbc 00000000 		.4byte	0
 11832 0fc0 00000000 		.4byte	0
 11833              	.LLST111:
 11834 0fc4 00000000 		.4byte	.LVL144
 11835 0fc8 0B000000 		.4byte	.LVL147-1
 11836 0fcc 0100     		.2byte	0x1
 11837 0fce 50       		.byte	0x50
 11838 0fcf 0B000000 		.4byte	.LVL147-1
 11839 0fd3 0E000000 		.4byte	.LFE196
 11840 0fd7 0400     		.2byte	0x4
 11841 0fd9 F3       		.byte	0xf3
 11842 0fda 01       		.uleb128 0x1
 11843 0fdb 50       		.byte	0x50
 11844 0fdc 9F       		.byte	0x9f
 11845 0fdd 00000000 		.4byte	0
 11846 0fe1 00000000 		.4byte	0
 11847              	.LLST112:
 11848 0fe5 00000000 		.4byte	.LVL144
 11849 0fe9 08000000 		.4byte	.LVL146
 11850 0fed 0100     		.2byte	0x1
 11851 0fef 51       		.byte	0x51
 11852 0ff0 08000000 		.4byte	.LVL146
 11853 0ff4 0E000000 		.4byte	.LFE196
 11854 0ff8 0400     		.2byte	0x4
 11855 0ffa F3       		.byte	0xf3
 11856 0ffb 01       		.uleb128 0x1
 11857 0ffc 51       		.byte	0x51
 11858 0ffd 9F       		.byte	0x9f
 11859 0ffe 00000000 		.4byte	0
 11860 1002 00000000 		.4byte	0
 11861              	.LLST113:
 11862 1006 00000000 		.4byte	.LVL144
 11863 100a 06000000 		.4byte	.LVL145
 11864 100e 0100     		.2byte	0x1
 11865 1010 52       		.byte	0x52
 11866 1011 06000000 		.4byte	.LVL145
 11867 1015 0B000000 		.4byte	.LVL147-1
ARM GAS  C:\Users\haske\AppData\Local\Temp\cc0eRFVw.s 			page 221


 11868 1019 0100     		.2byte	0x1
 11869 101b 53       		.byte	0x53
 11870 101c 0B000000 		.4byte	.LVL147-1
 11871 1020 0E000000 		.4byte	.LFE196
 11872 1024 0400     		.2byte	0x4
 11873 1026 F3       		.byte	0xf3
 11874 1027 01       		.uleb128 0x1
 11875 1028 52       		.byte	0x52
 11876 1029 9F       		.byte	0x9f
 11877 102a 00000000 		.4byte	0
 11878 102e 00000000 		.4byte	0
 11879              	.LLST114:
 11880 1032 00000000 		.4byte	.LVL148
 11881 1036 0B000000 		.4byte	.LVL151-1
 11882 103a 0100     		.2byte	0x1
 11883 103c 50       		.byte	0x50
 11884 103d 0B000000 		.4byte	.LVL151-1
 11885 1041 0E000000 		.4byte	.LFE197
 11886 1045 0400     		.2byte	0x4
 11887 1047 F3       		.byte	0xf3
 11888 1048 01       		.uleb128 0x1
 11889 1049 50       		.byte	0x50
 11890 104a 9F       		.byte	0x9f
 11891 104b 00000000 		.4byte	0
 11892 104f 00000000 		.4byte	0
 11893              	.LLST115:
 11894 1053 00000000 		.4byte	.LVL148
 11895 1057 08000000 		.4byte	.LVL150
 11896 105b 0100     		.2byte	0x1
 11897 105d 51       		.byte	0x51
 11898 105e 08000000 		.4byte	.LVL150
 11899 1062 0E000000 		.4byte	.LFE197
 11900 1066 0400     		.2byte	0x4
 11901 1068 F3       		.byte	0xf3
 11902 1069 01       		.uleb128 0x1
 11903 106a 51       		.byte	0x51
 11904 106b 9F       		.byte	0x9f
 11905 106c 00000000 		.4byte	0
 11906 1070 00000000 		.4byte	0
 11907              	.LLST116:
 11908 1074 00000000 		.4byte	.LVL148
 11909 1078 06000000 		.4byte	.LVL149
 11910 107c 0100     		.2byte	0x1
 11911 107e 52       		.byte	0x52
 11912 107f 06000000 		.4byte	.LVL149
 11913 1083 0B000000 		.4byte	.LVL151-1
 11914 1087 0100     		.2byte	0x1
 11915 1089 53       		.byte	0x53
 11916 108a 0B000000 		.4byte	.LVL151-1
 11917 108e 0E000000 		.4byte	.LFE197
 11918 1092 0400     		.2byte	0x4
 11919 1094 F3       		.byte	0xf3
 11920 1095 01       		.uleb128 0x1
 11921 1096 52       		.byte	0x52
 11922 1097 9F       		.byte	0x9f
 11923 1098 00000000 		.4byte	0
 11924 109c 00000000 		.4byte	0
ARM GAS  C:\Users\haske\AppData\Local\Temp\cc0eRFVw.s 			page 222


 11925              	.LLST117:
 11926 10a0 00000000 		.4byte	.LVL152
 11927 10a4 0B000000 		.4byte	.LVL155-1
 11928 10a8 0100     		.2byte	0x1
 11929 10aa 50       		.byte	0x50
 11930 10ab 0B000000 		.4byte	.LVL155-1
 11931 10af 0E000000 		.4byte	.LFE198
 11932 10b3 0400     		.2byte	0x4
 11933 10b5 F3       		.byte	0xf3
 11934 10b6 01       		.uleb128 0x1
 11935 10b7 50       		.byte	0x50
 11936 10b8 9F       		.byte	0x9f
 11937 10b9 00000000 		.4byte	0
 11938 10bd 00000000 		.4byte	0
 11939              	.LLST118:
 11940 10c1 00000000 		.4byte	.LVL152
 11941 10c5 08000000 		.4byte	.LVL154
 11942 10c9 0100     		.2byte	0x1
 11943 10cb 51       		.byte	0x51
 11944 10cc 08000000 		.4byte	.LVL154
 11945 10d0 0E000000 		.4byte	.LFE198
 11946 10d4 0400     		.2byte	0x4
 11947 10d6 F3       		.byte	0xf3
 11948 10d7 01       		.uleb128 0x1
 11949 10d8 51       		.byte	0x51
 11950 10d9 9F       		.byte	0x9f
 11951 10da 00000000 		.4byte	0
 11952 10de 00000000 		.4byte	0
 11953              	.LLST119:
 11954 10e2 00000000 		.4byte	.LVL152
 11955 10e6 06000000 		.4byte	.LVL153
 11956 10ea 0100     		.2byte	0x1
 11957 10ec 52       		.byte	0x52
 11958 10ed 06000000 		.4byte	.LVL153
 11959 10f1 0B000000 		.4byte	.LVL155-1
 11960 10f5 0100     		.2byte	0x1
 11961 10f7 53       		.byte	0x53
 11962 10f8 0B000000 		.4byte	.LVL155-1
 11963 10fc 0E000000 		.4byte	.LFE198
 11964 1100 0400     		.2byte	0x4
 11965 1102 F3       		.byte	0xf3
 11966 1103 01       		.uleb128 0x1
 11967 1104 52       		.byte	0x52
 11968 1105 9F       		.byte	0x9f
 11969 1106 00000000 		.4byte	0
 11970 110a 00000000 		.4byte	0
 11971              	.LLST120:
 11972 110e 00000000 		.4byte	.LVL156
 11973 1112 0B000000 		.4byte	.LVL159-1
 11974 1116 0100     		.2byte	0x1
 11975 1118 50       		.byte	0x50
 11976 1119 0B000000 		.4byte	.LVL159-1
 11977 111d 0E000000 		.4byte	.LFE199
 11978 1121 0400     		.2byte	0x4
 11979 1123 F3       		.byte	0xf3
 11980 1124 01       		.uleb128 0x1
 11981 1125 50       		.byte	0x50
ARM GAS  C:\Users\haske\AppData\Local\Temp\cc0eRFVw.s 			page 223


 11982 1126 9F       		.byte	0x9f
 11983 1127 00000000 		.4byte	0
 11984 112b 00000000 		.4byte	0
 11985              	.LLST121:
 11986 112f 00000000 		.4byte	.LVL156
 11987 1133 08000000 		.4byte	.LVL158
 11988 1137 0100     		.2byte	0x1
 11989 1139 51       		.byte	0x51
 11990 113a 08000000 		.4byte	.LVL158
 11991 113e 0E000000 		.4byte	.LFE199
 11992 1142 0400     		.2byte	0x4
 11993 1144 F3       		.byte	0xf3
 11994 1145 01       		.uleb128 0x1
 11995 1146 51       		.byte	0x51
 11996 1147 9F       		.byte	0x9f
 11997 1148 00000000 		.4byte	0
 11998 114c 00000000 		.4byte	0
 11999              	.LLST122:
 12000 1150 00000000 		.4byte	.LVL156
 12001 1154 06000000 		.4byte	.LVL157
 12002 1158 0100     		.2byte	0x1
 12003 115a 52       		.byte	0x52
 12004 115b 06000000 		.4byte	.LVL157
 12005 115f 0B000000 		.4byte	.LVL159-1
 12006 1163 0100     		.2byte	0x1
 12007 1165 53       		.byte	0x53
 12008 1166 0B000000 		.4byte	.LVL159-1
 12009 116a 0E000000 		.4byte	.LFE199
 12010 116e 0400     		.2byte	0x4
 12011 1170 F3       		.byte	0xf3
 12012 1171 01       		.uleb128 0x1
 12013 1172 52       		.byte	0x52
 12014 1173 9F       		.byte	0x9f
 12015 1174 00000000 		.4byte	0
 12016 1178 00000000 		.4byte	0
 12017              	.LLST123:
 12018 117c 00000000 		.4byte	.LVL160
 12019 1180 0B000000 		.4byte	.LVL163-1
 12020 1184 0100     		.2byte	0x1
 12021 1186 50       		.byte	0x50
 12022 1187 0B000000 		.4byte	.LVL163-1
 12023 118b 0E000000 		.4byte	.LFE200
 12024 118f 0400     		.2byte	0x4
 12025 1191 F3       		.byte	0xf3
 12026 1192 01       		.uleb128 0x1
 12027 1193 50       		.byte	0x50
 12028 1194 9F       		.byte	0x9f
 12029 1195 00000000 		.4byte	0
 12030 1199 00000000 		.4byte	0
 12031              	.LLST124:
 12032 119d 00000000 		.4byte	.LVL160
 12033 11a1 08000000 		.4byte	.LVL162
 12034 11a5 0100     		.2byte	0x1
 12035 11a7 51       		.byte	0x51
 12036 11a8 08000000 		.4byte	.LVL162
 12037 11ac 0E000000 		.4byte	.LFE200
 12038 11b0 0400     		.2byte	0x4
ARM GAS  C:\Users\haske\AppData\Local\Temp\cc0eRFVw.s 			page 224


 12039 11b2 F3       		.byte	0xf3
 12040 11b3 01       		.uleb128 0x1
 12041 11b4 51       		.byte	0x51
 12042 11b5 9F       		.byte	0x9f
 12043 11b6 00000000 		.4byte	0
 12044 11ba 00000000 		.4byte	0
 12045              	.LLST125:
 12046 11be 00000000 		.4byte	.LVL160
 12047 11c2 06000000 		.4byte	.LVL161
 12048 11c6 0100     		.2byte	0x1
 12049 11c8 52       		.byte	0x52
 12050 11c9 06000000 		.4byte	.LVL161
 12051 11cd 0B000000 		.4byte	.LVL163-1
 12052 11d1 0100     		.2byte	0x1
 12053 11d3 53       		.byte	0x53
 12054 11d4 0B000000 		.4byte	.LVL163-1
 12055 11d8 0E000000 		.4byte	.LFE200
 12056 11dc 0400     		.2byte	0x4
 12057 11de F3       		.byte	0xf3
 12058 11df 01       		.uleb128 0x1
 12059 11e0 52       		.byte	0x52
 12060 11e1 9F       		.byte	0x9f
 12061 11e2 00000000 		.4byte	0
 12062 11e6 00000000 		.4byte	0
 12063              	.LLST126:
 12064 11ea 00000000 		.4byte	.LVL164
 12065 11ee 0B000000 		.4byte	.LVL166-1
 12066 11f2 0100     		.2byte	0x1
 12067 11f4 50       		.byte	0x50
 12068 11f5 0B000000 		.4byte	.LVL166-1
 12069 11f9 0E000000 		.4byte	.LFE201
 12070 11fd 0400     		.2byte	0x4
 12071 11ff F3       		.byte	0xf3
 12072 1200 01       		.uleb128 0x1
 12073 1201 50       		.byte	0x50
 12074 1202 9F       		.byte	0x9f
 12075 1203 00000000 		.4byte	0
 12076 1207 00000000 		.4byte	0
 12077              	.LLST127:
 12078 120b 00000000 		.4byte	.LVL164
 12079 120f 06000000 		.4byte	.LVL165
 12080 1213 0100     		.2byte	0x1
 12081 1215 51       		.byte	0x51
 12082 1216 00000000 		.4byte	0
 12083 121a 00000000 		.4byte	0
 12084              	.LLST128:
 12085 121e 00000000 		.4byte	.LVL164
 12086 1222 06000000 		.4byte	.LVL165
 12087 1226 0100     		.2byte	0x1
 12088 1228 52       		.byte	0x52
 12089 1229 06000000 		.4byte	.LVL165
 12090 122d 0B000000 		.4byte	.LVL166-1
 12091 1231 0100     		.2byte	0x1
 12092 1233 53       		.byte	0x53
 12093 1234 0B000000 		.4byte	.LVL166-1
 12094 1238 0E000000 		.4byte	.LFE201
 12095 123c 0400     		.2byte	0x4
ARM GAS  C:\Users\haske\AppData\Local\Temp\cc0eRFVw.s 			page 225


 12096 123e F3       		.byte	0xf3
 12097 123f 01       		.uleb128 0x1
 12098 1240 52       		.byte	0x52
 12099 1241 9F       		.byte	0x9f
 12100 1242 00000000 		.4byte	0
 12101 1246 00000000 		.4byte	0
 12102              	.LLST129:
 12103 124a 00000000 		.4byte	.LVL167
 12104 124e 0B000000 		.4byte	.LVL170-1
 12105 1252 0100     		.2byte	0x1
 12106 1254 50       		.byte	0x50
 12107 1255 0B000000 		.4byte	.LVL170-1
 12108 1259 0E000000 		.4byte	.LFE202
 12109 125d 0400     		.2byte	0x4
 12110 125f F3       		.byte	0xf3
 12111 1260 01       		.uleb128 0x1
 12112 1261 50       		.byte	0x50
 12113 1262 9F       		.byte	0x9f
 12114 1263 00000000 		.4byte	0
 12115 1267 00000000 		.4byte	0
 12116              	.LLST130:
 12117 126b 00000000 		.4byte	.LVL167
 12118 126f 08000000 		.4byte	.LVL169
 12119 1273 0100     		.2byte	0x1
 12120 1275 51       		.byte	0x51
 12121 1276 08000000 		.4byte	.LVL169
 12122 127a 0E000000 		.4byte	.LFE202
 12123 127e 0400     		.2byte	0x4
 12124 1280 F3       		.byte	0xf3
 12125 1281 01       		.uleb128 0x1
 12126 1282 51       		.byte	0x51
 12127 1283 9F       		.byte	0x9f
 12128 1284 00000000 		.4byte	0
 12129 1288 00000000 		.4byte	0
 12130              	.LLST131:
 12131 128c 00000000 		.4byte	.LVL167
 12132 1290 06000000 		.4byte	.LVL168
 12133 1294 0100     		.2byte	0x1
 12134 1296 52       		.byte	0x52
 12135 1297 06000000 		.4byte	.LVL168
 12136 129b 0B000000 		.4byte	.LVL170-1
 12137 129f 0100     		.2byte	0x1
 12138 12a1 53       		.byte	0x53
 12139 12a2 0B000000 		.4byte	.LVL170-1
 12140 12a6 0E000000 		.4byte	.LFE202
 12141 12aa 0400     		.2byte	0x4
 12142 12ac F3       		.byte	0xf3
 12143 12ad 01       		.uleb128 0x1
 12144 12ae 52       		.byte	0x52
 12145 12af 9F       		.byte	0x9f
 12146 12b0 00000000 		.4byte	0
 12147 12b4 00000000 		.4byte	0
 12148              	.LLST132:
 12149 12b8 00000000 		.4byte	.LVL171
 12150 12bc 0B000000 		.4byte	.LVL174-1
 12151 12c0 0100     		.2byte	0x1
 12152 12c2 50       		.byte	0x50
ARM GAS  C:\Users\haske\AppData\Local\Temp\cc0eRFVw.s 			page 226


 12153 12c3 0B000000 		.4byte	.LVL174-1
 12154 12c7 0E000000 		.4byte	.LFE203
 12155 12cb 0400     		.2byte	0x4
 12156 12cd F3       		.byte	0xf3
 12157 12ce 01       		.uleb128 0x1
 12158 12cf 50       		.byte	0x50
 12159 12d0 9F       		.byte	0x9f
 12160 12d1 00000000 		.4byte	0
 12161 12d5 00000000 		.4byte	0
 12162              	.LLST133:
 12163 12d9 00000000 		.4byte	.LVL171
 12164 12dd 08000000 		.4byte	.LVL173
 12165 12e1 0100     		.2byte	0x1
 12166 12e3 51       		.byte	0x51
 12167 12e4 08000000 		.4byte	.LVL173
 12168 12e8 0E000000 		.4byte	.LFE203
 12169 12ec 0400     		.2byte	0x4
 12170 12ee F3       		.byte	0xf3
 12171 12ef 01       		.uleb128 0x1
 12172 12f0 51       		.byte	0x51
 12173 12f1 9F       		.byte	0x9f
 12174 12f2 00000000 		.4byte	0
 12175 12f6 00000000 		.4byte	0
 12176              	.LLST134:
 12177 12fa 00000000 		.4byte	.LVL171
 12178 12fe 06000000 		.4byte	.LVL172
 12179 1302 0100     		.2byte	0x1
 12180 1304 52       		.byte	0x52
 12181 1305 06000000 		.4byte	.LVL172
 12182 1309 0B000000 		.4byte	.LVL174-1
 12183 130d 0100     		.2byte	0x1
 12184 130f 53       		.byte	0x53
 12185 1310 0B000000 		.4byte	.LVL174-1
 12186 1314 0E000000 		.4byte	.LFE203
 12187 1318 0400     		.2byte	0x4
 12188 131a F3       		.byte	0xf3
 12189 131b 01       		.uleb128 0x1
 12190 131c 52       		.byte	0x52
 12191 131d 9F       		.byte	0x9f
 12192 131e 00000000 		.4byte	0
 12193 1322 00000000 		.4byte	0
 12194              	.LLST135:
 12195 1326 00000000 		.4byte	.LVL175
 12196 132a 0B000000 		.4byte	.LVL178-1
 12197 132e 0100     		.2byte	0x1
 12198 1330 50       		.byte	0x50
 12199 1331 0B000000 		.4byte	.LVL178-1
 12200 1335 0E000000 		.4byte	.LFE204
 12201 1339 0400     		.2byte	0x4
 12202 133b F3       		.byte	0xf3
 12203 133c 01       		.uleb128 0x1
 12204 133d 50       		.byte	0x50
 12205 133e 9F       		.byte	0x9f
 12206 133f 00000000 		.4byte	0
 12207 1343 00000000 		.4byte	0
 12208              	.LLST136:
 12209 1347 00000000 		.4byte	.LVL175
ARM GAS  C:\Users\haske\AppData\Local\Temp\cc0eRFVw.s 			page 227


 12210 134b 08000000 		.4byte	.LVL177
 12211 134f 0100     		.2byte	0x1
 12212 1351 51       		.byte	0x51
 12213 1352 08000000 		.4byte	.LVL177
 12214 1356 0E000000 		.4byte	.LFE204
 12215 135a 0400     		.2byte	0x4
 12216 135c F3       		.byte	0xf3
 12217 135d 01       		.uleb128 0x1
 12218 135e 51       		.byte	0x51
 12219 135f 9F       		.byte	0x9f
 12220 1360 00000000 		.4byte	0
 12221 1364 00000000 		.4byte	0
 12222              	.LLST137:
 12223 1368 00000000 		.4byte	.LVL175
 12224 136c 06000000 		.4byte	.LVL176
 12225 1370 0100     		.2byte	0x1
 12226 1372 52       		.byte	0x52
 12227 1373 06000000 		.4byte	.LVL176
 12228 1377 0B000000 		.4byte	.LVL178-1
 12229 137b 0100     		.2byte	0x1
 12230 137d 53       		.byte	0x53
 12231 137e 0B000000 		.4byte	.LVL178-1
 12232 1382 0E000000 		.4byte	.LFE204
 12233 1386 0400     		.2byte	0x4
 12234 1388 F3       		.byte	0xf3
 12235 1389 01       		.uleb128 0x1
 12236 138a 52       		.byte	0x52
 12237 138b 9F       		.byte	0x9f
 12238 138c 00000000 		.4byte	0
 12239 1390 00000000 		.4byte	0
 12240              	.LLST138:
 12241 1394 00000000 		.4byte	.LVL179
 12242 1398 0B000000 		.4byte	.LVL182-1
 12243 139c 0100     		.2byte	0x1
 12244 139e 50       		.byte	0x50
 12245 139f 0B000000 		.4byte	.LVL182-1
 12246 13a3 0E000000 		.4byte	.LFE205
 12247 13a7 0400     		.2byte	0x4
 12248 13a9 F3       		.byte	0xf3
 12249 13aa 01       		.uleb128 0x1
 12250 13ab 50       		.byte	0x50
 12251 13ac 9F       		.byte	0x9f
 12252 13ad 00000000 		.4byte	0
 12253 13b1 00000000 		.4byte	0
 12254              	.LLST139:
 12255 13b5 00000000 		.4byte	.LVL179
 12256 13b9 08000000 		.4byte	.LVL181
 12257 13bd 0100     		.2byte	0x1
 12258 13bf 51       		.byte	0x51
 12259 13c0 08000000 		.4byte	.LVL181
 12260 13c4 0E000000 		.4byte	.LFE205
 12261 13c8 0400     		.2byte	0x4
 12262 13ca F3       		.byte	0xf3
 12263 13cb 01       		.uleb128 0x1
 12264 13cc 51       		.byte	0x51
 12265 13cd 9F       		.byte	0x9f
 12266 13ce 00000000 		.4byte	0
ARM GAS  C:\Users\haske\AppData\Local\Temp\cc0eRFVw.s 			page 228


 12267 13d2 00000000 		.4byte	0
 12268              	.LLST140:
 12269 13d6 00000000 		.4byte	.LVL179
 12270 13da 06000000 		.4byte	.LVL180
 12271 13de 0100     		.2byte	0x1
 12272 13e0 52       		.byte	0x52
 12273 13e1 06000000 		.4byte	.LVL180
 12274 13e5 0B000000 		.4byte	.LVL182-1
 12275 13e9 0100     		.2byte	0x1
 12276 13eb 53       		.byte	0x53
 12277 13ec 0B000000 		.4byte	.LVL182-1
 12278 13f0 0E000000 		.4byte	.LFE205
 12279 13f4 0400     		.2byte	0x4
 12280 13f6 F3       		.byte	0xf3
 12281 13f7 01       		.uleb128 0x1
 12282 13f8 52       		.byte	0x52
 12283 13f9 9F       		.byte	0x9f
 12284 13fa 00000000 		.4byte	0
 12285 13fe 00000000 		.4byte	0
 12286              	.LLST141:
 12287 1402 00000000 		.4byte	.LVL183
 12288 1406 0B000000 		.4byte	.LVL186-1
 12289 140a 0100     		.2byte	0x1
 12290 140c 50       		.byte	0x50
 12291 140d 0B000000 		.4byte	.LVL186-1
 12292 1411 0E000000 		.4byte	.LFE206
 12293 1415 0400     		.2byte	0x4
 12294 1417 F3       		.byte	0xf3
 12295 1418 01       		.uleb128 0x1
 12296 1419 50       		.byte	0x50
 12297 141a 9F       		.byte	0x9f
 12298 141b 00000000 		.4byte	0
 12299 141f 00000000 		.4byte	0
 12300              	.LLST142:
 12301 1423 00000000 		.4byte	.LVL183
 12302 1427 08000000 		.4byte	.LVL185
 12303 142b 0100     		.2byte	0x1
 12304 142d 51       		.byte	0x51
 12305 142e 08000000 		.4byte	.LVL185
 12306 1432 0E000000 		.4byte	.LFE206
 12307 1436 0400     		.2byte	0x4
 12308 1438 F3       		.byte	0xf3
 12309 1439 01       		.uleb128 0x1
 12310 143a 51       		.byte	0x51
 12311 143b 9F       		.byte	0x9f
 12312 143c 00000000 		.4byte	0
 12313 1440 00000000 		.4byte	0
 12314              	.LLST143:
 12315 1444 00000000 		.4byte	.LVL183
 12316 1448 06000000 		.4byte	.LVL184
 12317 144c 0100     		.2byte	0x1
 12318 144e 52       		.byte	0x52
 12319 144f 06000000 		.4byte	.LVL184
 12320 1453 0B000000 		.4byte	.LVL186-1
 12321 1457 0100     		.2byte	0x1
 12322 1459 53       		.byte	0x53
 12323 145a 0B000000 		.4byte	.LVL186-1
ARM GAS  C:\Users\haske\AppData\Local\Temp\cc0eRFVw.s 			page 229


 12324 145e 0E000000 		.4byte	.LFE206
 12325 1462 0400     		.2byte	0x4
 12326 1464 F3       		.byte	0xf3
 12327 1465 01       		.uleb128 0x1
 12328 1466 52       		.byte	0x52
 12329 1467 9F       		.byte	0x9f
 12330 1468 00000000 		.4byte	0
 12331 146c 00000000 		.4byte	0
 12332              	.LLST144:
 12333 1470 00000000 		.4byte	.LVL187
 12334 1474 0B000000 		.4byte	.LVL190-1
 12335 1478 0100     		.2byte	0x1
 12336 147a 50       		.byte	0x50
 12337 147b 0B000000 		.4byte	.LVL190-1
 12338 147f 0E000000 		.4byte	.LFE207
 12339 1483 0400     		.2byte	0x4
 12340 1485 F3       		.byte	0xf3
 12341 1486 01       		.uleb128 0x1
 12342 1487 50       		.byte	0x50
 12343 1488 9F       		.byte	0x9f
 12344 1489 00000000 		.4byte	0
 12345 148d 00000000 		.4byte	0
 12346              	.LLST145:
 12347 1491 00000000 		.4byte	.LVL187
 12348 1495 08000000 		.4byte	.LVL189
 12349 1499 0100     		.2byte	0x1
 12350 149b 51       		.byte	0x51
 12351 149c 08000000 		.4byte	.LVL189
 12352 14a0 0E000000 		.4byte	.LFE207
 12353 14a4 0400     		.2byte	0x4
 12354 14a6 F3       		.byte	0xf3
 12355 14a7 01       		.uleb128 0x1
 12356 14a8 51       		.byte	0x51
 12357 14a9 9F       		.byte	0x9f
 12358 14aa 00000000 		.4byte	0
 12359 14ae 00000000 		.4byte	0
 12360              	.LLST146:
 12361 14b2 00000000 		.4byte	.LVL187
 12362 14b6 06000000 		.4byte	.LVL188
 12363 14ba 0100     		.2byte	0x1
 12364 14bc 52       		.byte	0x52
 12365 14bd 06000000 		.4byte	.LVL188
 12366 14c1 0B000000 		.4byte	.LVL190-1
 12367 14c5 0100     		.2byte	0x1
 12368 14c7 53       		.byte	0x53
 12369 14c8 0B000000 		.4byte	.LVL190-1
 12370 14cc 0E000000 		.4byte	.LFE207
 12371 14d0 0400     		.2byte	0x4
 12372 14d2 F3       		.byte	0xf3
 12373 14d3 01       		.uleb128 0x1
 12374 14d4 52       		.byte	0x52
 12375 14d5 9F       		.byte	0x9f
 12376 14d6 00000000 		.4byte	0
 12377 14da 00000000 		.4byte	0
 12378              	.LLST147:
 12379 14de 00000000 		.4byte	.LVL191
 12380 14e2 0B000000 		.4byte	.LVL193-1
ARM GAS  C:\Users\haske\AppData\Local\Temp\cc0eRFVw.s 			page 230


 12381 14e6 0100     		.2byte	0x1
 12382 14e8 50       		.byte	0x50
 12383 14e9 0B000000 		.4byte	.LVL193-1
 12384 14ed 0E000000 		.4byte	.LFE208
 12385 14f1 0400     		.2byte	0x4
 12386 14f3 F3       		.byte	0xf3
 12387 14f4 01       		.uleb128 0x1
 12388 14f5 50       		.byte	0x50
 12389 14f6 9F       		.byte	0x9f
 12390 14f7 00000000 		.4byte	0
 12391 14fb 00000000 		.4byte	0
 12392              	.LLST148:
 12393 14ff 00000000 		.4byte	.LVL191
 12394 1503 06000000 		.4byte	.LVL192
 12395 1507 0100     		.2byte	0x1
 12396 1509 51       		.byte	0x51
 12397 150a 00000000 		.4byte	0
 12398 150e 00000000 		.4byte	0
 12399              	.LLST149:
 12400 1512 00000000 		.4byte	.LVL191
 12401 1516 06000000 		.4byte	.LVL192
 12402 151a 0100     		.2byte	0x1
 12403 151c 52       		.byte	0x52
 12404 151d 06000000 		.4byte	.LVL192
 12405 1521 0B000000 		.4byte	.LVL193-1
 12406 1525 0100     		.2byte	0x1
 12407 1527 53       		.byte	0x53
 12408 1528 0B000000 		.4byte	.LVL193-1
 12409 152c 0E000000 		.4byte	.LFE208
 12410 1530 0400     		.2byte	0x4
 12411 1532 F3       		.byte	0xf3
 12412 1533 01       		.uleb128 0x1
 12413 1534 52       		.byte	0x52
 12414 1535 9F       		.byte	0x9f
 12415 1536 00000000 		.4byte	0
 12416 153a 00000000 		.4byte	0
 12417              	.LLST150:
 12418 153e 00000000 		.4byte	.LVL194
 12419 1542 0B000000 		.4byte	.LVL197-1
 12420 1546 0100     		.2byte	0x1
 12421 1548 50       		.byte	0x50
 12422 1549 0B000000 		.4byte	.LVL197-1
 12423 154d 0E000000 		.4byte	.LFE209
 12424 1551 0400     		.2byte	0x4
 12425 1553 F3       		.byte	0xf3
 12426 1554 01       		.uleb128 0x1
 12427 1555 50       		.byte	0x50
 12428 1556 9F       		.byte	0x9f
 12429 1557 00000000 		.4byte	0
 12430 155b 00000000 		.4byte	0
 12431              	.LLST151:
 12432 155f 00000000 		.4byte	.LVL194
 12433 1563 08000000 		.4byte	.LVL196
 12434 1567 0100     		.2byte	0x1
 12435 1569 51       		.byte	0x51
 12436 156a 08000000 		.4byte	.LVL196
 12437 156e 0E000000 		.4byte	.LFE209
ARM GAS  C:\Users\haske\AppData\Local\Temp\cc0eRFVw.s 			page 231


 12438 1572 0400     		.2byte	0x4
 12439 1574 F3       		.byte	0xf3
 12440 1575 01       		.uleb128 0x1
 12441 1576 51       		.byte	0x51
 12442 1577 9F       		.byte	0x9f
 12443 1578 00000000 		.4byte	0
 12444 157c 00000000 		.4byte	0
 12445              	.LLST152:
 12446 1580 00000000 		.4byte	.LVL194
 12447 1584 06000000 		.4byte	.LVL195
 12448 1588 0100     		.2byte	0x1
 12449 158a 52       		.byte	0x52
 12450 158b 06000000 		.4byte	.LVL195
 12451 158f 0B000000 		.4byte	.LVL197-1
 12452 1593 0100     		.2byte	0x1
 12453 1595 53       		.byte	0x53
 12454 1596 0B000000 		.4byte	.LVL197-1
 12455 159a 0E000000 		.4byte	.LFE209
 12456 159e 0400     		.2byte	0x4
 12457 15a0 F3       		.byte	0xf3
 12458 15a1 01       		.uleb128 0x1
 12459 15a2 52       		.byte	0x52
 12460 15a3 9F       		.byte	0x9f
 12461 15a4 00000000 		.4byte	0
 12462 15a8 00000000 		.4byte	0
 12463              	.LLST153:
 12464 15ac 00000000 		.4byte	.LVL198
 12465 15b0 0B000000 		.4byte	.LVL201-1
 12466 15b4 0100     		.2byte	0x1
 12467 15b6 50       		.byte	0x50
 12468 15b7 0B000000 		.4byte	.LVL201-1
 12469 15bb 0E000000 		.4byte	.LFE210
 12470 15bf 0400     		.2byte	0x4
 12471 15c1 F3       		.byte	0xf3
 12472 15c2 01       		.uleb128 0x1
 12473 15c3 50       		.byte	0x50
 12474 15c4 9F       		.byte	0x9f
 12475 15c5 00000000 		.4byte	0
 12476 15c9 00000000 		.4byte	0
 12477              	.LLST154:
 12478 15cd 00000000 		.4byte	.LVL198
 12479 15d1 08000000 		.4byte	.LVL200
 12480 15d5 0100     		.2byte	0x1
 12481 15d7 51       		.byte	0x51
 12482 15d8 08000000 		.4byte	.LVL200
 12483 15dc 0E000000 		.4byte	.LFE210
 12484 15e0 0400     		.2byte	0x4
 12485 15e2 F3       		.byte	0xf3
 12486 15e3 01       		.uleb128 0x1
 12487 15e4 51       		.byte	0x51
 12488 15e5 9F       		.byte	0x9f
 12489 15e6 00000000 		.4byte	0
 12490 15ea 00000000 		.4byte	0
 12491              	.LLST155:
 12492 15ee 00000000 		.4byte	.LVL198
 12493 15f2 06000000 		.4byte	.LVL199
 12494 15f6 0100     		.2byte	0x1
ARM GAS  C:\Users\haske\AppData\Local\Temp\cc0eRFVw.s 			page 232


 12495 15f8 52       		.byte	0x52
 12496 15f9 06000000 		.4byte	.LVL199
 12497 15fd 0B000000 		.4byte	.LVL201-1
 12498 1601 0100     		.2byte	0x1
 12499 1603 53       		.byte	0x53
 12500 1604 0B000000 		.4byte	.LVL201-1
 12501 1608 0E000000 		.4byte	.LFE210
 12502 160c 0400     		.2byte	0x4
 12503 160e F3       		.byte	0xf3
 12504 160f 01       		.uleb128 0x1
 12505 1610 52       		.byte	0x52
 12506 1611 9F       		.byte	0x9f
 12507 1612 00000000 		.4byte	0
 12508 1616 00000000 		.4byte	0
 12509              	.LLST156:
 12510 161a 00000000 		.4byte	.LVL202
 12511 161e 0B000000 		.4byte	.LVL204-1
 12512 1622 0100     		.2byte	0x1
 12513 1624 50       		.byte	0x50
 12514 1625 0B000000 		.4byte	.LVL204-1
 12515 1629 0E000000 		.4byte	.LFE211
 12516 162d 0400     		.2byte	0x4
 12517 162f F3       		.byte	0xf3
 12518 1630 01       		.uleb128 0x1
 12519 1631 50       		.byte	0x50
 12520 1632 9F       		.byte	0x9f
 12521 1633 00000000 		.4byte	0
 12522 1637 00000000 		.4byte	0
 12523              	.LLST157:
 12524 163b 00000000 		.4byte	.LVL202
 12525 163f 06000000 		.4byte	.LVL203
 12526 1643 0100     		.2byte	0x1
 12527 1645 51       		.byte	0x51
 12528 1646 00000000 		.4byte	0
 12529 164a 00000000 		.4byte	0
 12530              	.LLST158:
 12531 164e 00000000 		.4byte	.LVL202
 12532 1652 06000000 		.4byte	.LVL203
 12533 1656 0100     		.2byte	0x1
 12534 1658 52       		.byte	0x52
 12535 1659 06000000 		.4byte	.LVL203
 12536 165d 0B000000 		.4byte	.LVL204-1
 12537 1661 0100     		.2byte	0x1
 12538 1663 53       		.byte	0x53
 12539 1664 0B000000 		.4byte	.LVL204-1
 12540 1668 0E000000 		.4byte	.LFE211
 12541 166c 0400     		.2byte	0x4
 12542 166e F3       		.byte	0xf3
 12543 166f 01       		.uleb128 0x1
 12544 1670 52       		.byte	0x52
 12545 1671 9F       		.byte	0x9f
 12546 1672 00000000 		.4byte	0
 12547 1676 00000000 		.4byte	0
 12548              	.LLST159:
 12549 167a 00000000 		.4byte	.LVL205
 12550 167e 0B000000 		.4byte	.LVL208-1
 12551 1682 0100     		.2byte	0x1
ARM GAS  C:\Users\haske\AppData\Local\Temp\cc0eRFVw.s 			page 233


 12552 1684 50       		.byte	0x50
 12553 1685 0B000000 		.4byte	.LVL208-1
 12554 1689 0E000000 		.4byte	.LFE212
 12555 168d 0400     		.2byte	0x4
 12556 168f F3       		.byte	0xf3
 12557 1690 01       		.uleb128 0x1
 12558 1691 50       		.byte	0x50
 12559 1692 9F       		.byte	0x9f
 12560 1693 00000000 		.4byte	0
 12561 1697 00000000 		.4byte	0
 12562              	.LLST160:
 12563 169b 00000000 		.4byte	.LVL205
 12564 169f 08000000 		.4byte	.LVL207
 12565 16a3 0100     		.2byte	0x1
 12566 16a5 51       		.byte	0x51
 12567 16a6 08000000 		.4byte	.LVL207
 12568 16aa 0E000000 		.4byte	.LFE212
 12569 16ae 0400     		.2byte	0x4
 12570 16b0 F3       		.byte	0xf3
 12571 16b1 01       		.uleb128 0x1
 12572 16b2 51       		.byte	0x51
 12573 16b3 9F       		.byte	0x9f
 12574 16b4 00000000 		.4byte	0
 12575 16b8 00000000 		.4byte	0
 12576              	.LLST161:
 12577 16bc 00000000 		.4byte	.LVL205
 12578 16c0 06000000 		.4byte	.LVL206
 12579 16c4 0100     		.2byte	0x1
 12580 16c6 52       		.byte	0x52
 12581 16c7 06000000 		.4byte	.LVL206
 12582 16cb 0B000000 		.4byte	.LVL208-1
 12583 16cf 0100     		.2byte	0x1
 12584 16d1 53       		.byte	0x53
 12585 16d2 0B000000 		.4byte	.LVL208-1
 12586 16d6 0E000000 		.4byte	.LFE212
 12587 16da 0400     		.2byte	0x4
 12588 16dc F3       		.byte	0xf3
 12589 16dd 01       		.uleb128 0x1
 12590 16de 52       		.byte	0x52
 12591 16df 9F       		.byte	0x9f
 12592 16e0 00000000 		.4byte	0
 12593 16e4 00000000 		.4byte	0
 12594              	.LLST162:
 12595 16e8 00000000 		.4byte	.LVL209
 12596 16ec 0B000000 		.4byte	.LVL212-1
 12597 16f0 0100     		.2byte	0x1
 12598 16f2 50       		.byte	0x50
 12599 16f3 0B000000 		.4byte	.LVL212-1
 12600 16f7 0E000000 		.4byte	.LFE213
 12601 16fb 0400     		.2byte	0x4
 12602 16fd F3       		.byte	0xf3
 12603 16fe 01       		.uleb128 0x1
 12604 16ff 50       		.byte	0x50
 12605 1700 9F       		.byte	0x9f
 12606 1701 00000000 		.4byte	0
 12607 1705 00000000 		.4byte	0
 12608              	.LLST163:
ARM GAS  C:\Users\haske\AppData\Local\Temp\cc0eRFVw.s 			page 234


 12609 1709 00000000 		.4byte	.LVL209
 12610 170d 08000000 		.4byte	.LVL211
 12611 1711 0100     		.2byte	0x1
 12612 1713 51       		.byte	0x51
 12613 1714 08000000 		.4byte	.LVL211
 12614 1718 0E000000 		.4byte	.LFE213
 12615 171c 0400     		.2byte	0x4
 12616 171e F3       		.byte	0xf3
 12617 171f 01       		.uleb128 0x1
 12618 1720 51       		.byte	0x51
 12619 1721 9F       		.byte	0x9f
 12620 1722 00000000 		.4byte	0
 12621 1726 00000000 		.4byte	0
 12622              	.LLST164:
 12623 172a 00000000 		.4byte	.LVL209
 12624 172e 06000000 		.4byte	.LVL210
 12625 1732 0100     		.2byte	0x1
 12626 1734 52       		.byte	0x52
 12627 1735 06000000 		.4byte	.LVL210
 12628 1739 0B000000 		.4byte	.LVL212-1
 12629 173d 0100     		.2byte	0x1
 12630 173f 53       		.byte	0x53
 12631 1740 0B000000 		.4byte	.LVL212-1
 12632 1744 0E000000 		.4byte	.LFE213
 12633 1748 0400     		.2byte	0x4
 12634 174a F3       		.byte	0xf3
 12635 174b 01       		.uleb128 0x1
 12636 174c 52       		.byte	0x52
 12637 174d 9F       		.byte	0x9f
 12638 174e 00000000 		.4byte	0
 12639 1752 00000000 		.4byte	0
 12640              	.LLST165:
 12641 1756 00000000 		.4byte	.LVL213
 12642 175a 0B000000 		.4byte	.LVL216-1
 12643 175e 0100     		.2byte	0x1
 12644 1760 50       		.byte	0x50
 12645 1761 0B000000 		.4byte	.LVL216-1
 12646 1765 0E000000 		.4byte	.LFE214
 12647 1769 0400     		.2byte	0x4
 12648 176b F3       		.byte	0xf3
 12649 176c 01       		.uleb128 0x1
 12650 176d 50       		.byte	0x50
 12651 176e 9F       		.byte	0x9f
 12652 176f 00000000 		.4byte	0
 12653 1773 00000000 		.4byte	0
 12654              	.LLST166:
 12655 1777 00000000 		.4byte	.LVL213
 12656 177b 08000000 		.4byte	.LVL215
 12657 177f 0100     		.2byte	0x1
 12658 1781 51       		.byte	0x51
 12659 1782 08000000 		.4byte	.LVL215
 12660 1786 0E000000 		.4byte	.LFE214
 12661 178a 0400     		.2byte	0x4
 12662 178c F3       		.byte	0xf3
 12663 178d 01       		.uleb128 0x1
 12664 178e 51       		.byte	0x51
 12665 178f 9F       		.byte	0x9f
ARM GAS  C:\Users\haske\AppData\Local\Temp\cc0eRFVw.s 			page 235


 12666 1790 00000000 		.4byte	0
 12667 1794 00000000 		.4byte	0
 12668              	.LLST167:
 12669 1798 00000000 		.4byte	.LVL213
 12670 179c 06000000 		.4byte	.LVL214
 12671 17a0 0100     		.2byte	0x1
 12672 17a2 52       		.byte	0x52
 12673 17a3 06000000 		.4byte	.LVL214
 12674 17a7 0B000000 		.4byte	.LVL216-1
 12675 17ab 0100     		.2byte	0x1
 12676 17ad 53       		.byte	0x53
 12677 17ae 0B000000 		.4byte	.LVL216-1
 12678 17b2 0E000000 		.4byte	.LFE214
 12679 17b6 0400     		.2byte	0x4
 12680 17b8 F3       		.byte	0xf3
 12681 17b9 01       		.uleb128 0x1
 12682 17ba 52       		.byte	0x52
 12683 17bb 9F       		.byte	0x9f
 12684 17bc 00000000 		.4byte	0
 12685 17c0 00000000 		.4byte	0
 12686              	.LLST168:
 12687 17c4 00000000 		.4byte	.LVL217
 12688 17c8 0B000000 		.4byte	.LVL220-1
 12689 17cc 0100     		.2byte	0x1
 12690 17ce 50       		.byte	0x50
 12691 17cf 0B000000 		.4byte	.LVL220-1
 12692 17d3 0E000000 		.4byte	.LFE215
 12693 17d7 0400     		.2byte	0x4
 12694 17d9 F3       		.byte	0xf3
 12695 17da 01       		.uleb128 0x1
 12696 17db 50       		.byte	0x50
 12697 17dc 9F       		.byte	0x9f
 12698 17dd 00000000 		.4byte	0
 12699 17e1 00000000 		.4byte	0
 12700              	.LLST169:
 12701 17e5 00000000 		.4byte	.LVL217
 12702 17e9 08000000 		.4byte	.LVL219
 12703 17ed 0100     		.2byte	0x1
 12704 17ef 51       		.byte	0x51
 12705 17f0 08000000 		.4byte	.LVL219
 12706 17f4 0E000000 		.4byte	.LFE215
 12707 17f8 0400     		.2byte	0x4
 12708 17fa F3       		.byte	0xf3
 12709 17fb 01       		.uleb128 0x1
 12710 17fc 51       		.byte	0x51
 12711 17fd 9F       		.byte	0x9f
 12712 17fe 00000000 		.4byte	0
 12713 1802 00000000 		.4byte	0
 12714              	.LLST170:
 12715 1806 00000000 		.4byte	.LVL217
 12716 180a 06000000 		.4byte	.LVL218
 12717 180e 0100     		.2byte	0x1
 12718 1810 52       		.byte	0x52
 12719 1811 06000000 		.4byte	.LVL218
 12720 1815 0B000000 		.4byte	.LVL220-1
 12721 1819 0100     		.2byte	0x1
 12722 181b 53       		.byte	0x53
ARM GAS  C:\Users\haske\AppData\Local\Temp\cc0eRFVw.s 			page 236


 12723 181c 0B000000 		.4byte	.LVL220-1
 12724 1820 0E000000 		.4byte	.LFE215
 12725 1824 0400     		.2byte	0x4
 12726 1826 F3       		.byte	0xf3
 12727 1827 01       		.uleb128 0x1
 12728 1828 52       		.byte	0x52
 12729 1829 9F       		.byte	0x9f
 12730 182a 00000000 		.4byte	0
 12731 182e 00000000 		.4byte	0
 12732              	.LLST171:
 12733 1832 00000000 		.4byte	.LVL221
 12734 1836 0B000000 		.4byte	.LVL224-1
 12735 183a 0100     		.2byte	0x1
 12736 183c 50       		.byte	0x50
 12737 183d 0B000000 		.4byte	.LVL224-1
 12738 1841 0E000000 		.4byte	.LFE216
 12739 1845 0400     		.2byte	0x4
 12740 1847 F3       		.byte	0xf3
 12741 1848 01       		.uleb128 0x1
 12742 1849 50       		.byte	0x50
 12743 184a 9F       		.byte	0x9f
 12744 184b 00000000 		.4byte	0
 12745 184f 00000000 		.4byte	0
 12746              	.LLST172:
 12747 1853 00000000 		.4byte	.LVL221
 12748 1857 08000000 		.4byte	.LVL223
 12749 185b 0100     		.2byte	0x1
 12750 185d 51       		.byte	0x51
 12751 185e 08000000 		.4byte	.LVL223
 12752 1862 0E000000 		.4byte	.LFE216
 12753 1866 0400     		.2byte	0x4
 12754 1868 F3       		.byte	0xf3
 12755 1869 01       		.uleb128 0x1
 12756 186a 51       		.byte	0x51
 12757 186b 9F       		.byte	0x9f
 12758 186c 00000000 		.4byte	0
 12759 1870 00000000 		.4byte	0
 12760              	.LLST173:
 12761 1874 00000000 		.4byte	.LVL221
 12762 1878 06000000 		.4byte	.LVL222
 12763 187c 0100     		.2byte	0x1
 12764 187e 52       		.byte	0x52
 12765 187f 06000000 		.4byte	.LVL222
 12766 1883 0B000000 		.4byte	.LVL224-1
 12767 1887 0100     		.2byte	0x1
 12768 1889 53       		.byte	0x53
 12769 188a 0B000000 		.4byte	.LVL224-1
 12770 188e 0E000000 		.4byte	.LFE216
 12771 1892 0400     		.2byte	0x4
 12772 1894 F3       		.byte	0xf3
 12773 1895 01       		.uleb128 0x1
 12774 1896 52       		.byte	0x52
 12775 1897 9F       		.byte	0x9f
 12776 1898 00000000 		.4byte	0
 12777 189c 00000000 		.4byte	0
 12778              	.LLST174:
 12779 18a0 00000000 		.4byte	.LVL225
ARM GAS  C:\Users\haske\AppData\Local\Temp\cc0eRFVw.s 			page 237


 12780 18a4 0B000000 		.4byte	.LVL227-1
 12781 18a8 0100     		.2byte	0x1
 12782 18aa 50       		.byte	0x50
 12783 18ab 0B000000 		.4byte	.LVL227-1
 12784 18af 0E000000 		.4byte	.LFE217
 12785 18b3 0400     		.2byte	0x4
 12786 18b5 F3       		.byte	0xf3
 12787 18b6 01       		.uleb128 0x1
 12788 18b7 50       		.byte	0x50
 12789 18b8 9F       		.byte	0x9f
 12790 18b9 00000000 		.4byte	0
 12791 18bd 00000000 		.4byte	0
 12792              	.LLST175:
 12793 18c1 00000000 		.4byte	.LVL225
 12794 18c5 06000000 		.4byte	.LVL226
 12795 18c9 0100     		.2byte	0x1
 12796 18cb 51       		.byte	0x51
 12797 18cc 00000000 		.4byte	0
 12798 18d0 00000000 		.4byte	0
 12799              	.LLST176:
 12800 18d4 00000000 		.4byte	.LVL225
 12801 18d8 06000000 		.4byte	.LVL226
 12802 18dc 0100     		.2byte	0x1
 12803 18de 52       		.byte	0x52
 12804 18df 06000000 		.4byte	.LVL226
 12805 18e3 0B000000 		.4byte	.LVL227-1
 12806 18e7 0100     		.2byte	0x1
 12807 18e9 53       		.byte	0x53
 12808 18ea 0B000000 		.4byte	.LVL227-1
 12809 18ee 0E000000 		.4byte	.LFE217
 12810 18f2 0400     		.2byte	0x4
 12811 18f4 F3       		.byte	0xf3
 12812 18f5 01       		.uleb128 0x1
 12813 18f6 52       		.byte	0x52
 12814 18f7 9F       		.byte	0x9f
 12815 18f8 00000000 		.4byte	0
 12816 18fc 00000000 		.4byte	0
 12817              	.LLST177:
 12818 1900 00000000 		.4byte	.LVL228
 12819 1904 0B000000 		.4byte	.LVL231-1
 12820 1908 0100     		.2byte	0x1
 12821 190a 50       		.byte	0x50
 12822 190b 0B000000 		.4byte	.LVL231-1
 12823 190f 0E000000 		.4byte	.LFE218
 12824 1913 0400     		.2byte	0x4
 12825 1915 F3       		.byte	0xf3
 12826 1916 01       		.uleb128 0x1
 12827 1917 50       		.byte	0x50
 12828 1918 9F       		.byte	0x9f
 12829 1919 00000000 		.4byte	0
 12830 191d 00000000 		.4byte	0
 12831              	.LLST178:
 12832 1921 00000000 		.4byte	.LVL228
 12833 1925 08000000 		.4byte	.LVL230
 12834 1929 0100     		.2byte	0x1
 12835 192b 51       		.byte	0x51
 12836 192c 08000000 		.4byte	.LVL230
ARM GAS  C:\Users\haske\AppData\Local\Temp\cc0eRFVw.s 			page 238


 12837 1930 0E000000 		.4byte	.LFE218
 12838 1934 0400     		.2byte	0x4
 12839 1936 F3       		.byte	0xf3
 12840 1937 01       		.uleb128 0x1
 12841 1938 51       		.byte	0x51
 12842 1939 9F       		.byte	0x9f
 12843 193a 00000000 		.4byte	0
 12844 193e 00000000 		.4byte	0
 12845              	.LLST179:
 12846 1942 00000000 		.4byte	.LVL228
 12847 1946 06000000 		.4byte	.LVL229
 12848 194a 0100     		.2byte	0x1
 12849 194c 52       		.byte	0x52
 12850 194d 06000000 		.4byte	.LVL229
 12851 1951 0B000000 		.4byte	.LVL231-1
 12852 1955 0100     		.2byte	0x1
 12853 1957 53       		.byte	0x53
 12854 1958 0B000000 		.4byte	.LVL231-1
 12855 195c 0E000000 		.4byte	.LFE218
 12856 1960 0400     		.2byte	0x4
 12857 1962 F3       		.byte	0xf3
 12858 1963 01       		.uleb128 0x1
 12859 1964 52       		.byte	0x52
 12860 1965 9F       		.byte	0x9f
 12861 1966 00000000 		.4byte	0
 12862 196a 00000000 		.4byte	0
 12863              	.LLST180:
 12864 196e 00000000 		.4byte	.LVL232
 12865 1972 0B000000 		.4byte	.LVL235-1
 12866 1976 0100     		.2byte	0x1
 12867 1978 50       		.byte	0x50
 12868 1979 0B000000 		.4byte	.LVL235-1
 12869 197d 0E000000 		.4byte	.LFE219
 12870 1981 0400     		.2byte	0x4
 12871 1983 F3       		.byte	0xf3
 12872 1984 01       		.uleb128 0x1
 12873 1985 50       		.byte	0x50
 12874 1986 9F       		.byte	0x9f
 12875 1987 00000000 		.4byte	0
 12876 198b 00000000 		.4byte	0
 12877              	.LLST181:
 12878 198f 00000000 		.4byte	.LVL232
 12879 1993 08000000 		.4byte	.LVL234
 12880 1997 0100     		.2byte	0x1
 12881 1999 51       		.byte	0x51
 12882 199a 08000000 		.4byte	.LVL234
 12883 199e 0E000000 		.4byte	.LFE219
 12884 19a2 0400     		.2byte	0x4
 12885 19a4 F3       		.byte	0xf3
 12886 19a5 01       		.uleb128 0x1
 12887 19a6 51       		.byte	0x51
 12888 19a7 9F       		.byte	0x9f
 12889 19a8 00000000 		.4byte	0
 12890 19ac 00000000 		.4byte	0
 12891              	.LLST182:
 12892 19b0 00000000 		.4byte	.LVL232
 12893 19b4 06000000 		.4byte	.LVL233
ARM GAS  C:\Users\haske\AppData\Local\Temp\cc0eRFVw.s 			page 239


 12894 19b8 0100     		.2byte	0x1
 12895 19ba 52       		.byte	0x52
 12896 19bb 06000000 		.4byte	.LVL233
 12897 19bf 0B000000 		.4byte	.LVL235-1
 12898 19c3 0100     		.2byte	0x1
 12899 19c5 53       		.byte	0x53
 12900 19c6 0B000000 		.4byte	.LVL235-1
 12901 19ca 0E000000 		.4byte	.LFE219
 12902 19ce 0400     		.2byte	0x4
 12903 19d0 F3       		.byte	0xf3
 12904 19d1 01       		.uleb128 0x1
 12905 19d2 52       		.byte	0x52
 12906 19d3 9F       		.byte	0x9f
 12907 19d4 00000000 		.4byte	0
 12908 19d8 00000000 		.4byte	0
 12909              	.LLST183:
 12910 19dc 00000000 		.4byte	.LVL236
 12911 19e0 0B000000 		.4byte	.LVL239-1
 12912 19e4 0100     		.2byte	0x1
 12913 19e6 50       		.byte	0x50
 12914 19e7 0B000000 		.4byte	.LVL239-1
 12915 19eb 0E000000 		.4byte	.LFE220
 12916 19ef 0400     		.2byte	0x4
 12917 19f1 F3       		.byte	0xf3
 12918 19f2 01       		.uleb128 0x1
 12919 19f3 50       		.byte	0x50
 12920 19f4 9F       		.byte	0x9f
 12921 19f5 00000000 		.4byte	0
 12922 19f9 00000000 		.4byte	0
 12923              	.LLST184:
 12924 19fd 00000000 		.4byte	.LVL236
 12925 1a01 08000000 		.4byte	.LVL238
 12926 1a05 0100     		.2byte	0x1
 12927 1a07 51       		.byte	0x51
 12928 1a08 08000000 		.4byte	.LVL238
 12929 1a0c 0E000000 		.4byte	.LFE220
 12930 1a10 0400     		.2byte	0x4
 12931 1a12 F3       		.byte	0xf3
 12932 1a13 01       		.uleb128 0x1
 12933 1a14 51       		.byte	0x51
 12934 1a15 9F       		.byte	0x9f
 12935 1a16 00000000 		.4byte	0
 12936 1a1a 00000000 		.4byte	0
 12937              	.LLST185:
 12938 1a1e 00000000 		.4byte	.LVL236
 12939 1a22 06000000 		.4byte	.LVL237
 12940 1a26 0100     		.2byte	0x1
 12941 1a28 52       		.byte	0x52
 12942 1a29 06000000 		.4byte	.LVL237
 12943 1a2d 0B000000 		.4byte	.LVL239-1
 12944 1a31 0100     		.2byte	0x1
 12945 1a33 53       		.byte	0x53
 12946 1a34 0B000000 		.4byte	.LVL239-1
 12947 1a38 0E000000 		.4byte	.LFE220
 12948 1a3c 0400     		.2byte	0x4
 12949 1a3e F3       		.byte	0xf3
 12950 1a3f 01       		.uleb128 0x1
ARM GAS  C:\Users\haske\AppData\Local\Temp\cc0eRFVw.s 			page 240


 12951 1a40 52       		.byte	0x52
 12952 1a41 9F       		.byte	0x9f
 12953 1a42 00000000 		.4byte	0
 12954 1a46 00000000 		.4byte	0
 12955              	.LLST186:
 12956 1a4a 00000000 		.4byte	.LVL240
 12957 1a4e 0B000000 		.4byte	.LVL242-1
 12958 1a52 0100     		.2byte	0x1
 12959 1a54 50       		.byte	0x50
 12960 1a55 0B000000 		.4byte	.LVL242-1
 12961 1a59 0E000000 		.4byte	.LFE221
 12962 1a5d 0400     		.2byte	0x4
 12963 1a5f F3       		.byte	0xf3
 12964 1a60 01       		.uleb128 0x1
 12965 1a61 50       		.byte	0x50
 12966 1a62 9F       		.byte	0x9f
 12967 1a63 00000000 		.4byte	0
 12968 1a67 00000000 		.4byte	0
 12969              	.LLST187:
 12970 1a6b 00000000 		.4byte	.LVL240
 12971 1a6f 06000000 		.4byte	.LVL241
 12972 1a73 0100     		.2byte	0x1
 12973 1a75 51       		.byte	0x51
 12974 1a76 00000000 		.4byte	0
 12975 1a7a 00000000 		.4byte	0
 12976              	.LLST188:
 12977 1a7e 00000000 		.4byte	.LVL240
 12978 1a82 06000000 		.4byte	.LVL241
 12979 1a86 0100     		.2byte	0x1
 12980 1a88 52       		.byte	0x52
 12981 1a89 06000000 		.4byte	.LVL241
 12982 1a8d 0B000000 		.4byte	.LVL242-1
 12983 1a91 0100     		.2byte	0x1
 12984 1a93 53       		.byte	0x53
 12985 1a94 0B000000 		.4byte	.LVL242-1
 12986 1a98 0E000000 		.4byte	.LFE221
 12987 1a9c 0400     		.2byte	0x4
 12988 1a9e F3       		.byte	0xf3
 12989 1a9f 01       		.uleb128 0x1
 12990 1aa0 52       		.byte	0x52
 12991 1aa1 9F       		.byte	0x9f
 12992 1aa2 00000000 		.4byte	0
 12993 1aa6 00000000 		.4byte	0
 12994              	.LLST189:
 12995 1aaa 00000000 		.4byte	.LVL243
 12996 1aae 0B000000 		.4byte	.LVL246-1
 12997 1ab2 0100     		.2byte	0x1
 12998 1ab4 50       		.byte	0x50
 12999 1ab5 0B000000 		.4byte	.LVL246-1
 13000 1ab9 0E000000 		.4byte	.LFE222
 13001 1abd 0400     		.2byte	0x4
 13002 1abf F3       		.byte	0xf3
 13003 1ac0 01       		.uleb128 0x1
 13004 1ac1 50       		.byte	0x50
 13005 1ac2 9F       		.byte	0x9f
 13006 1ac3 00000000 		.4byte	0
 13007 1ac7 00000000 		.4byte	0
ARM GAS  C:\Users\haske\AppData\Local\Temp\cc0eRFVw.s 			page 241


 13008              	.LLST190:
 13009 1acb 00000000 		.4byte	.LVL243
 13010 1acf 08000000 		.4byte	.LVL245
 13011 1ad3 0100     		.2byte	0x1
 13012 1ad5 51       		.byte	0x51
 13013 1ad6 08000000 		.4byte	.LVL245
 13014 1ada 0E000000 		.4byte	.LFE222
 13015 1ade 0400     		.2byte	0x4
 13016 1ae0 F3       		.byte	0xf3
 13017 1ae1 01       		.uleb128 0x1
 13018 1ae2 51       		.byte	0x51
 13019 1ae3 9F       		.byte	0x9f
 13020 1ae4 00000000 		.4byte	0
 13021 1ae8 00000000 		.4byte	0
 13022              	.LLST191:
 13023 1aec 00000000 		.4byte	.LVL243
 13024 1af0 06000000 		.4byte	.LVL244
 13025 1af4 0100     		.2byte	0x1
 13026 1af6 52       		.byte	0x52
 13027 1af7 06000000 		.4byte	.LVL244
 13028 1afb 0B000000 		.4byte	.LVL246-1
 13029 1aff 0100     		.2byte	0x1
 13030 1b01 53       		.byte	0x53
 13031 1b02 0B000000 		.4byte	.LVL246-1
 13032 1b06 0E000000 		.4byte	.LFE222
 13033 1b0a 0400     		.2byte	0x4
 13034 1b0c F3       		.byte	0xf3
 13035 1b0d 01       		.uleb128 0x1
 13036 1b0e 52       		.byte	0x52
 13037 1b0f 9F       		.byte	0x9f
 13038 1b10 00000000 		.4byte	0
 13039 1b14 00000000 		.4byte	0
 13040              	.LLST192:
 13041 1b18 00000000 		.4byte	.LVL247
 13042 1b1c 0B000000 		.4byte	.LVL250-1
 13043 1b20 0100     		.2byte	0x1
 13044 1b22 50       		.byte	0x50
 13045 1b23 0B000000 		.4byte	.LVL250-1
 13046 1b27 0E000000 		.4byte	.LFE223
 13047 1b2b 0400     		.2byte	0x4
 13048 1b2d F3       		.byte	0xf3
 13049 1b2e 01       		.uleb128 0x1
 13050 1b2f 50       		.byte	0x50
 13051 1b30 9F       		.byte	0x9f
 13052 1b31 00000000 		.4byte	0
 13053 1b35 00000000 		.4byte	0
 13054              	.LLST193:
 13055 1b39 00000000 		.4byte	.LVL247
 13056 1b3d 08000000 		.4byte	.LVL249
 13057 1b41 0100     		.2byte	0x1
 13058 1b43 51       		.byte	0x51
 13059 1b44 08000000 		.4byte	.LVL249
 13060 1b48 0B000000 		.4byte	.LVL250-1
 13061 1b4c 0100     		.2byte	0x1
 13062 1b4e 52       		.byte	0x52
 13063 1b4f 0B000000 		.4byte	.LVL250-1
 13064 1b53 0E000000 		.4byte	.LFE223
ARM GAS  C:\Users\haske\AppData\Local\Temp\cc0eRFVw.s 			page 242


 13065 1b57 0400     		.2byte	0x4
 13066 1b59 F3       		.byte	0xf3
 13067 1b5a 01       		.uleb128 0x1
 13068 1b5b 51       		.byte	0x51
 13069 1b5c 9F       		.byte	0x9f
 13070 1b5d 00000000 		.4byte	0
 13071 1b61 00000000 		.4byte	0
 13072              	.LLST194:
 13073 1b65 00000000 		.4byte	.LVL247
 13074 1b69 06000000 		.4byte	.LVL248
 13075 1b6d 0100     		.2byte	0x1
 13076 1b6f 52       		.byte	0x52
 13077 1b70 06000000 		.4byte	.LVL248
 13078 1b74 0B000000 		.4byte	.LVL250-1
 13079 1b78 0100     		.2byte	0x1
 13080 1b7a 53       		.byte	0x53
 13081 1b7b 0B000000 		.4byte	.LVL250-1
 13082 1b7f 0E000000 		.4byte	.LFE223
 13083 1b83 0400     		.2byte	0x4
 13084 1b85 F3       		.byte	0xf3
 13085 1b86 01       		.uleb128 0x1
 13086 1b87 52       		.byte	0x52
 13087 1b88 9F       		.byte	0x9f
 13088 1b89 00000000 		.4byte	0
 13089 1b8d 00000000 		.4byte	0
 13090              	.LLST195:
 13091 1b91 00000000 		.4byte	.LVL251
 13092 1b95 0B000000 		.4byte	.LVL253-1
 13093 1b99 0100     		.2byte	0x1
 13094 1b9b 50       		.byte	0x50
 13095 1b9c 0B000000 		.4byte	.LVL253-1
 13096 1ba0 0E000000 		.4byte	.LFE224
 13097 1ba4 0400     		.2byte	0x4
 13098 1ba6 F3       		.byte	0xf3
 13099 1ba7 01       		.uleb128 0x1
 13100 1ba8 50       		.byte	0x50
 13101 1ba9 9F       		.byte	0x9f
 13102 1baa 00000000 		.4byte	0
 13103 1bae 00000000 		.4byte	0
 13104              	.LLST196:
 13105 1bb2 00000000 		.4byte	.LVL251
 13106 1bb6 06000000 		.4byte	.LVL252
 13107 1bba 0100     		.2byte	0x1
 13108 1bbc 51       		.byte	0x51
 13109 1bbd 00000000 		.4byte	0
 13110 1bc1 00000000 		.4byte	0
 13111              	.LLST197:
 13112 1bc5 00000000 		.4byte	.LVL251
 13113 1bc9 06000000 		.4byte	.LVL252
 13114 1bcd 0100     		.2byte	0x1
 13115 1bcf 52       		.byte	0x52
 13116 1bd0 06000000 		.4byte	.LVL252
 13117 1bd4 0B000000 		.4byte	.LVL253-1
 13118 1bd8 0100     		.2byte	0x1
 13119 1bda 53       		.byte	0x53
 13120 1bdb 0B000000 		.4byte	.LVL253-1
 13121 1bdf 0E000000 		.4byte	.LFE224
ARM GAS  C:\Users\haske\AppData\Local\Temp\cc0eRFVw.s 			page 243


 13122 1be3 0400     		.2byte	0x4
 13123 1be5 F3       		.byte	0xf3
 13124 1be6 01       		.uleb128 0x1
 13125 1be7 52       		.byte	0x52
 13126 1be8 9F       		.byte	0x9f
 13127 1be9 00000000 		.4byte	0
 13128 1bed 00000000 		.4byte	0
 13129              	.LLST198:
 13130 1bf1 00000000 		.4byte	.LVL254
 13131 1bf5 0B000000 		.4byte	.LVL257-1
 13132 1bf9 0100     		.2byte	0x1
 13133 1bfb 50       		.byte	0x50
 13134 1bfc 0B000000 		.4byte	.LVL257-1
 13135 1c00 0E000000 		.4byte	.LFE225
 13136 1c04 0400     		.2byte	0x4
 13137 1c06 F3       		.byte	0xf3
 13138 1c07 01       		.uleb128 0x1
 13139 1c08 50       		.byte	0x50
 13140 1c09 9F       		.byte	0x9f
 13141 1c0a 00000000 		.4byte	0
 13142 1c0e 00000000 		.4byte	0
 13143              	.LLST199:
 13144 1c12 00000000 		.4byte	.LVL254
 13145 1c16 08000000 		.4byte	.LVL256
 13146 1c1a 0100     		.2byte	0x1
 13147 1c1c 51       		.byte	0x51
 13148 1c1d 08000000 		.4byte	.LVL256
 13149 1c21 0E000000 		.4byte	.LFE225
 13150 1c25 0400     		.2byte	0x4
 13151 1c27 F3       		.byte	0xf3
 13152 1c28 01       		.uleb128 0x1
 13153 1c29 51       		.byte	0x51
 13154 1c2a 9F       		.byte	0x9f
 13155 1c2b 00000000 		.4byte	0
 13156 1c2f 00000000 		.4byte	0
 13157              	.LLST200:
 13158 1c33 00000000 		.4byte	.LVL254
 13159 1c37 06000000 		.4byte	.LVL255
 13160 1c3b 0100     		.2byte	0x1
 13161 1c3d 52       		.byte	0x52
 13162 1c3e 06000000 		.4byte	.LVL255
 13163 1c42 0B000000 		.4byte	.LVL257-1
 13164 1c46 0100     		.2byte	0x1
 13165 1c48 53       		.byte	0x53
 13166 1c49 0B000000 		.4byte	.LVL257-1
 13167 1c4d 0E000000 		.4byte	.LFE225
 13168 1c51 0400     		.2byte	0x4
 13169 1c53 F3       		.byte	0xf3
 13170 1c54 01       		.uleb128 0x1
 13171 1c55 52       		.byte	0x52
 13172 1c56 9F       		.byte	0x9f
 13173 1c57 00000000 		.4byte	0
 13174 1c5b 00000000 		.4byte	0
 13175              	.LLST201:
 13176 1c5f 00000000 		.4byte	.LVL258
 13177 1c63 0B000000 		.4byte	.LVL261-1
 13178 1c67 0100     		.2byte	0x1
ARM GAS  C:\Users\haske\AppData\Local\Temp\cc0eRFVw.s 			page 244


 13179 1c69 50       		.byte	0x50
 13180 1c6a 0B000000 		.4byte	.LVL261-1
 13181 1c6e 0E000000 		.4byte	.LFE226
 13182 1c72 0400     		.2byte	0x4
 13183 1c74 F3       		.byte	0xf3
 13184 1c75 01       		.uleb128 0x1
 13185 1c76 50       		.byte	0x50
 13186 1c77 9F       		.byte	0x9f
 13187 1c78 00000000 		.4byte	0
 13188 1c7c 00000000 		.4byte	0
 13189              	.LLST202:
 13190 1c80 00000000 		.4byte	.LVL258
 13191 1c84 08000000 		.4byte	.LVL260
 13192 1c88 0100     		.2byte	0x1
 13193 1c8a 51       		.byte	0x51
 13194 1c8b 08000000 		.4byte	.LVL260
 13195 1c8f 0B000000 		.4byte	.LVL261-1
 13196 1c93 0100     		.2byte	0x1
 13197 1c95 52       		.byte	0x52
 13198 1c96 0B000000 		.4byte	.LVL261-1
 13199 1c9a 0E000000 		.4byte	.LFE226
 13200 1c9e 0400     		.2byte	0x4
 13201 1ca0 F3       		.byte	0xf3
 13202 1ca1 01       		.uleb128 0x1
 13203 1ca2 51       		.byte	0x51
 13204 1ca3 9F       		.byte	0x9f
 13205 1ca4 00000000 		.4byte	0
 13206 1ca8 00000000 		.4byte	0
 13207              	.LLST203:
 13208 1cac 00000000 		.4byte	.LVL258
 13209 1cb0 06000000 		.4byte	.LVL259
 13210 1cb4 0100     		.2byte	0x1
 13211 1cb6 52       		.byte	0x52
 13212 1cb7 06000000 		.4byte	.LVL259
 13213 1cbb 0B000000 		.4byte	.LVL261-1
 13214 1cbf 0100     		.2byte	0x1
 13215 1cc1 53       		.byte	0x53
 13216 1cc2 0B000000 		.4byte	.LVL261-1
 13217 1cc6 0E000000 		.4byte	.LFE226
 13218 1cca 0400     		.2byte	0x4
 13219 1ccc F3       		.byte	0xf3
 13220 1ccd 01       		.uleb128 0x1
 13221 1cce 52       		.byte	0x52
 13222 1ccf 9F       		.byte	0x9f
 13223 1cd0 00000000 		.4byte	0
 13224 1cd4 00000000 		.4byte	0
 13225              	.LLST204:
 13226 1cd8 00000000 		.4byte	.LVL262
 13227 1cdc 0B000000 		.4byte	.LVL265-1
 13228 1ce0 0100     		.2byte	0x1
 13229 1ce2 50       		.byte	0x50
 13230 1ce3 0B000000 		.4byte	.LVL265-1
 13231 1ce7 0E000000 		.4byte	.LFE227
 13232 1ceb 0400     		.2byte	0x4
 13233 1ced F3       		.byte	0xf3
 13234 1cee 01       		.uleb128 0x1
 13235 1cef 50       		.byte	0x50
ARM GAS  C:\Users\haske\AppData\Local\Temp\cc0eRFVw.s 			page 245


 13236 1cf0 9F       		.byte	0x9f
 13237 1cf1 00000000 		.4byte	0
 13238 1cf5 00000000 		.4byte	0
 13239              	.LLST205:
 13240 1cf9 00000000 		.4byte	.LVL262
 13241 1cfd 08000000 		.4byte	.LVL264
 13242 1d01 0100     		.2byte	0x1
 13243 1d03 51       		.byte	0x51
 13244 1d04 08000000 		.4byte	.LVL264
 13245 1d08 0E000000 		.4byte	.LFE227
 13246 1d0c 0400     		.2byte	0x4
 13247 1d0e F3       		.byte	0xf3
 13248 1d0f 01       		.uleb128 0x1
 13249 1d10 51       		.byte	0x51
 13250 1d11 9F       		.byte	0x9f
 13251 1d12 00000000 		.4byte	0
 13252 1d16 00000000 		.4byte	0
 13253              	.LLST206:
 13254 1d1a 00000000 		.4byte	.LVL262
 13255 1d1e 06000000 		.4byte	.LVL263
 13256 1d22 0100     		.2byte	0x1
 13257 1d24 52       		.byte	0x52
 13258 1d25 06000000 		.4byte	.LVL263
 13259 1d29 0B000000 		.4byte	.LVL265-1
 13260 1d2d 0100     		.2byte	0x1
 13261 1d2f 53       		.byte	0x53
 13262 1d30 0B000000 		.4byte	.LVL265-1
 13263 1d34 0E000000 		.4byte	.LFE227
 13264 1d38 0400     		.2byte	0x4
 13265 1d3a F3       		.byte	0xf3
 13266 1d3b 01       		.uleb128 0x1
 13267 1d3c 52       		.byte	0x52
 13268 1d3d 9F       		.byte	0x9f
 13269 1d3e 00000000 		.4byte	0
 13270 1d42 00000000 		.4byte	0
 13271              	.LLST207:
 13272 1d46 00000000 		.4byte	.LVL266
 13273 1d4a 0B000000 		.4byte	.LVL269-1
 13274 1d4e 0100     		.2byte	0x1
 13275 1d50 50       		.byte	0x50
 13276 1d51 0B000000 		.4byte	.LVL269-1
 13277 1d55 0E000000 		.4byte	.LFE228
 13278 1d59 0400     		.2byte	0x4
 13279 1d5b F3       		.byte	0xf3
 13280 1d5c 01       		.uleb128 0x1
 13281 1d5d 50       		.byte	0x50
 13282 1d5e 9F       		.byte	0x9f
 13283 1d5f 00000000 		.4byte	0
 13284 1d63 00000000 		.4byte	0
 13285              	.LLST208:
 13286 1d67 00000000 		.4byte	.LVL266
 13287 1d6b 08000000 		.4byte	.LVL268
 13288 1d6f 0100     		.2byte	0x1
 13289 1d71 51       		.byte	0x51
 13290 1d72 08000000 		.4byte	.LVL268
 13291 1d76 0E000000 		.4byte	.LFE228
 13292 1d7a 0400     		.2byte	0x4
ARM GAS  C:\Users\haske\AppData\Local\Temp\cc0eRFVw.s 			page 246


 13293 1d7c F3       		.byte	0xf3
 13294 1d7d 01       		.uleb128 0x1
 13295 1d7e 51       		.byte	0x51
 13296 1d7f 9F       		.byte	0x9f
 13297 1d80 00000000 		.4byte	0
 13298 1d84 00000000 		.4byte	0
 13299              	.LLST209:
 13300 1d88 00000000 		.4byte	.LVL266
 13301 1d8c 06000000 		.4byte	.LVL267
 13302 1d90 0100     		.2byte	0x1
 13303 1d92 52       		.byte	0x52
 13304 1d93 06000000 		.4byte	.LVL267
 13305 1d97 0B000000 		.4byte	.LVL269-1
 13306 1d9b 0100     		.2byte	0x1
 13307 1d9d 53       		.byte	0x53
 13308 1d9e 0B000000 		.4byte	.LVL269-1
 13309 1da2 0E000000 		.4byte	.LFE228
 13310 1da6 0400     		.2byte	0x4
 13311 1da8 F3       		.byte	0xf3
 13312 1da9 01       		.uleb128 0x1
 13313 1daa 52       		.byte	0x52
 13314 1dab 9F       		.byte	0x9f
 13315 1dac 00000000 		.4byte	0
 13316 1db0 00000000 		.4byte	0
 13317              	.LLST210:
 13318 1db4 00000000 		.4byte	.LVL270
 13319 1db8 0B000000 		.4byte	.LVL273-1
 13320 1dbc 0100     		.2byte	0x1
 13321 1dbe 50       		.byte	0x50
 13322 1dbf 0B000000 		.4byte	.LVL273-1
 13323 1dc3 0E000000 		.4byte	.LFE229
 13324 1dc7 0400     		.2byte	0x4
 13325 1dc9 F3       		.byte	0xf3
 13326 1dca 01       		.uleb128 0x1
 13327 1dcb 50       		.byte	0x50
 13328 1dcc 9F       		.byte	0x9f
 13329 1dcd 00000000 		.4byte	0
 13330 1dd1 00000000 		.4byte	0
 13331              	.LLST211:
 13332 1dd5 00000000 		.4byte	.LVL270
 13333 1dd9 08000000 		.4byte	.LVL272
 13334 1ddd 0100     		.2byte	0x1
 13335 1ddf 51       		.byte	0x51
 13336 1de0 08000000 		.4byte	.LVL272
 13337 1de4 0E000000 		.4byte	.LFE229
 13338 1de8 0400     		.2byte	0x4
 13339 1dea F3       		.byte	0xf3
 13340 1deb 01       		.uleb128 0x1
 13341 1dec 51       		.byte	0x51
 13342 1ded 9F       		.byte	0x9f
 13343 1dee 00000000 		.4byte	0
 13344 1df2 00000000 		.4byte	0
 13345              	.LLST212:
 13346 1df6 00000000 		.4byte	.LVL270
 13347 1dfa 06000000 		.4byte	.LVL271
 13348 1dfe 0100     		.2byte	0x1
 13349 1e00 52       		.byte	0x52
ARM GAS  C:\Users\haske\AppData\Local\Temp\cc0eRFVw.s 			page 247


 13350 1e01 06000000 		.4byte	.LVL271
 13351 1e05 0B000000 		.4byte	.LVL273-1
 13352 1e09 0100     		.2byte	0x1
 13353 1e0b 53       		.byte	0x53
 13354 1e0c 0B000000 		.4byte	.LVL273-1
 13355 1e10 0E000000 		.4byte	.LFE229
 13356 1e14 0400     		.2byte	0x4
 13357 1e16 F3       		.byte	0xf3
 13358 1e17 01       		.uleb128 0x1
 13359 1e18 52       		.byte	0x52
 13360 1e19 9F       		.byte	0x9f
 13361 1e1a 00000000 		.4byte	0
 13362 1e1e 00000000 		.4byte	0
 13363              	.LLST213:
 13364 1e22 00000000 		.4byte	.LVL274
 13365 1e26 0B000000 		.4byte	.LVL277-1
 13366 1e2a 0100     		.2byte	0x1
 13367 1e2c 50       		.byte	0x50
 13368 1e2d 0B000000 		.4byte	.LVL277-1
 13369 1e31 0E000000 		.4byte	.LFE230
 13370 1e35 0400     		.2byte	0x4
 13371 1e37 F3       		.byte	0xf3
 13372 1e38 01       		.uleb128 0x1
 13373 1e39 50       		.byte	0x50
 13374 1e3a 9F       		.byte	0x9f
 13375 1e3b 00000000 		.4byte	0
 13376 1e3f 00000000 		.4byte	0
 13377              	.LLST214:
 13378 1e43 00000000 		.4byte	.LVL274
 13379 1e47 08000000 		.4byte	.LVL276
 13380 1e4b 0100     		.2byte	0x1
 13381 1e4d 51       		.byte	0x51
 13382 1e4e 08000000 		.4byte	.LVL276
 13383 1e52 0E000000 		.4byte	.LFE230
 13384 1e56 0400     		.2byte	0x4
 13385 1e58 F3       		.byte	0xf3
 13386 1e59 01       		.uleb128 0x1
 13387 1e5a 51       		.byte	0x51
 13388 1e5b 9F       		.byte	0x9f
 13389 1e5c 00000000 		.4byte	0
 13390 1e60 00000000 		.4byte	0
 13391              	.LLST215:
 13392 1e64 00000000 		.4byte	.LVL274
 13393 1e68 06000000 		.4byte	.LVL275
 13394 1e6c 0100     		.2byte	0x1
 13395 1e6e 52       		.byte	0x52
 13396 1e6f 06000000 		.4byte	.LVL275
 13397 1e73 0B000000 		.4byte	.LVL277-1
 13398 1e77 0100     		.2byte	0x1
 13399 1e79 53       		.byte	0x53
 13400 1e7a 0B000000 		.4byte	.LVL277-1
 13401 1e7e 0E000000 		.4byte	.LFE230
 13402 1e82 0400     		.2byte	0x4
 13403 1e84 F3       		.byte	0xf3
 13404 1e85 01       		.uleb128 0x1
 13405 1e86 52       		.byte	0x52
 13406 1e87 9F       		.byte	0x9f
ARM GAS  C:\Users\haske\AppData\Local\Temp\cc0eRFVw.s 			page 248


 13407 1e88 00000000 		.4byte	0
 13408 1e8c 00000000 		.4byte	0
 13409              	.LLST216:
 13410 1e90 00000000 		.4byte	.LVL278
 13411 1e94 0B000000 		.4byte	.LVL281-1
 13412 1e98 0100     		.2byte	0x1
 13413 1e9a 50       		.byte	0x50
 13414 1e9b 0B000000 		.4byte	.LVL281-1
 13415 1e9f 0E000000 		.4byte	.LFE231
 13416 1ea3 0400     		.2byte	0x4
 13417 1ea5 F3       		.byte	0xf3
 13418 1ea6 01       		.uleb128 0x1
 13419 1ea7 50       		.byte	0x50
 13420 1ea8 9F       		.byte	0x9f
 13421 1ea9 00000000 		.4byte	0
 13422 1ead 00000000 		.4byte	0
 13423              	.LLST217:
 13424 1eb1 00000000 		.4byte	.LVL278
 13425 1eb5 08000000 		.4byte	.LVL280
 13426 1eb9 0100     		.2byte	0x1
 13427 1ebb 51       		.byte	0x51
 13428 1ebc 08000000 		.4byte	.LVL280
 13429 1ec0 0E000000 		.4byte	.LFE231
 13430 1ec4 0400     		.2byte	0x4
 13431 1ec6 F3       		.byte	0xf3
 13432 1ec7 01       		.uleb128 0x1
 13433 1ec8 51       		.byte	0x51
 13434 1ec9 9F       		.byte	0x9f
 13435 1eca 00000000 		.4byte	0
 13436 1ece 00000000 		.4byte	0
 13437              	.LLST218:
 13438 1ed2 00000000 		.4byte	.LVL278
 13439 1ed6 06000000 		.4byte	.LVL279
 13440 1eda 0100     		.2byte	0x1
 13441 1edc 52       		.byte	0x52
 13442 1edd 06000000 		.4byte	.LVL279
 13443 1ee1 0B000000 		.4byte	.LVL281-1
 13444 1ee5 0100     		.2byte	0x1
 13445 1ee7 53       		.byte	0x53
 13446 1ee8 0B000000 		.4byte	.LVL281-1
 13447 1eec 0E000000 		.4byte	.LFE231
 13448 1ef0 0400     		.2byte	0x4
 13449 1ef2 F3       		.byte	0xf3
 13450 1ef3 01       		.uleb128 0x1
 13451 1ef4 52       		.byte	0x52
 13452 1ef5 9F       		.byte	0x9f
 13453 1ef6 00000000 		.4byte	0
 13454 1efa 00000000 		.4byte	0
 13455              	.LLST219:
 13456 1efe 00000000 		.4byte	.LVL282
 13457 1f02 0B000000 		.4byte	.LVL285-1
 13458 1f06 0100     		.2byte	0x1
 13459 1f08 50       		.byte	0x50
 13460 1f09 0B000000 		.4byte	.LVL285-1
 13461 1f0d 0E000000 		.4byte	.LFE232
 13462 1f11 0400     		.2byte	0x4
 13463 1f13 F3       		.byte	0xf3
ARM GAS  C:\Users\haske\AppData\Local\Temp\cc0eRFVw.s 			page 249


 13464 1f14 01       		.uleb128 0x1
 13465 1f15 50       		.byte	0x50
 13466 1f16 9F       		.byte	0x9f
 13467 1f17 00000000 		.4byte	0
 13468 1f1b 00000000 		.4byte	0
 13469              	.LLST220:
 13470 1f1f 00000000 		.4byte	.LVL282
 13471 1f23 08000000 		.4byte	.LVL284
 13472 1f27 0100     		.2byte	0x1
 13473 1f29 51       		.byte	0x51
 13474 1f2a 08000000 		.4byte	.LVL284
 13475 1f2e 0E000000 		.4byte	.LFE232
 13476 1f32 0400     		.2byte	0x4
 13477 1f34 F3       		.byte	0xf3
 13478 1f35 01       		.uleb128 0x1
 13479 1f36 51       		.byte	0x51
 13480 1f37 9F       		.byte	0x9f
 13481 1f38 00000000 		.4byte	0
 13482 1f3c 00000000 		.4byte	0
 13483              	.LLST221:
 13484 1f40 00000000 		.4byte	.LVL282
 13485 1f44 06000000 		.4byte	.LVL283
 13486 1f48 0100     		.2byte	0x1
 13487 1f4a 52       		.byte	0x52
 13488 1f4b 06000000 		.4byte	.LVL283
 13489 1f4f 0B000000 		.4byte	.LVL285-1
 13490 1f53 0100     		.2byte	0x1
 13491 1f55 53       		.byte	0x53
 13492 1f56 0B000000 		.4byte	.LVL285-1
 13493 1f5a 0E000000 		.4byte	.LFE232
 13494 1f5e 0400     		.2byte	0x4
 13495 1f60 F3       		.byte	0xf3
 13496 1f61 01       		.uleb128 0x1
 13497 1f62 52       		.byte	0x52
 13498 1f63 9F       		.byte	0x9f
 13499 1f64 00000000 		.4byte	0
 13500 1f68 00000000 		.4byte	0
 13501              	.LLST222:
 13502 1f6c 00000000 		.4byte	.LVL286
 13503 1f70 0B000000 		.4byte	.LVL289-1
 13504 1f74 0100     		.2byte	0x1
 13505 1f76 50       		.byte	0x50
 13506 1f77 0B000000 		.4byte	.LVL289-1
 13507 1f7b 0E000000 		.4byte	.LFE233
 13508 1f7f 0400     		.2byte	0x4
 13509 1f81 F3       		.byte	0xf3
 13510 1f82 01       		.uleb128 0x1
 13511 1f83 50       		.byte	0x50
 13512 1f84 9F       		.byte	0x9f
 13513 1f85 00000000 		.4byte	0
 13514 1f89 00000000 		.4byte	0
 13515              	.LLST223:
 13516 1f8d 00000000 		.4byte	.LVL286
 13517 1f91 08000000 		.4byte	.LVL288
 13518 1f95 0100     		.2byte	0x1
 13519 1f97 51       		.byte	0x51
 13520 1f98 08000000 		.4byte	.LVL288
ARM GAS  C:\Users\haske\AppData\Local\Temp\cc0eRFVw.s 			page 250


 13521 1f9c 0E000000 		.4byte	.LFE233
 13522 1fa0 0400     		.2byte	0x4
 13523 1fa2 F3       		.byte	0xf3
 13524 1fa3 01       		.uleb128 0x1
 13525 1fa4 51       		.byte	0x51
 13526 1fa5 9F       		.byte	0x9f
 13527 1fa6 00000000 		.4byte	0
 13528 1faa 00000000 		.4byte	0
 13529              	.LLST224:
 13530 1fae 00000000 		.4byte	.LVL286
 13531 1fb2 06000000 		.4byte	.LVL287
 13532 1fb6 0100     		.2byte	0x1
 13533 1fb8 52       		.byte	0x52
 13534 1fb9 06000000 		.4byte	.LVL287
 13535 1fbd 0B000000 		.4byte	.LVL289-1
 13536 1fc1 0100     		.2byte	0x1
 13537 1fc3 53       		.byte	0x53
 13538 1fc4 0B000000 		.4byte	.LVL289-1
 13539 1fc8 0E000000 		.4byte	.LFE233
 13540 1fcc 0400     		.2byte	0x4
 13541 1fce F3       		.byte	0xf3
 13542 1fcf 01       		.uleb128 0x1
 13543 1fd0 52       		.byte	0x52
 13544 1fd1 9F       		.byte	0x9f
 13545 1fd2 00000000 		.4byte	0
 13546 1fd6 00000000 		.4byte	0
 13547              	.LLST225:
 13548 1fda 00000000 		.4byte	.LVL290
 13549 1fde 0B000000 		.4byte	.LVL293-1
 13550 1fe2 0100     		.2byte	0x1
 13551 1fe4 50       		.byte	0x50
 13552 1fe5 0B000000 		.4byte	.LVL293-1
 13553 1fe9 0E000000 		.4byte	.LFE234
 13554 1fed 0400     		.2byte	0x4
 13555 1fef F3       		.byte	0xf3
 13556 1ff0 01       		.uleb128 0x1
 13557 1ff1 50       		.byte	0x50
 13558 1ff2 9F       		.byte	0x9f
 13559 1ff3 00000000 		.4byte	0
 13560 1ff7 00000000 		.4byte	0
 13561              	.LLST226:
 13562 1ffb 00000000 		.4byte	.LVL290
 13563 1fff 08000000 		.4byte	.LVL292
 13564 2003 0100     		.2byte	0x1
 13565 2005 51       		.byte	0x51
 13566 2006 08000000 		.4byte	.LVL292
 13567 200a 0B000000 		.4byte	.LVL293-1
 13568 200e 0100     		.2byte	0x1
 13569 2010 52       		.byte	0x52
 13570 2011 0B000000 		.4byte	.LVL293-1
 13571 2015 0E000000 		.4byte	.LFE234
 13572 2019 0400     		.2byte	0x4
 13573 201b F3       		.byte	0xf3
 13574 201c 01       		.uleb128 0x1
 13575 201d 51       		.byte	0x51
 13576 201e 9F       		.byte	0x9f
 13577 201f 00000000 		.4byte	0
ARM GAS  C:\Users\haske\AppData\Local\Temp\cc0eRFVw.s 			page 251


 13578 2023 00000000 		.4byte	0
 13579              	.LLST227:
 13580 2027 00000000 		.4byte	.LVL290
 13581 202b 06000000 		.4byte	.LVL291
 13582 202f 0100     		.2byte	0x1
 13583 2031 52       		.byte	0x52
 13584 2032 06000000 		.4byte	.LVL291
 13585 2036 0B000000 		.4byte	.LVL293-1
 13586 203a 0100     		.2byte	0x1
 13587 203c 53       		.byte	0x53
 13588 203d 0B000000 		.4byte	.LVL293-1
 13589 2041 0E000000 		.4byte	.LFE234
 13590 2045 0400     		.2byte	0x4
 13591 2047 F3       		.byte	0xf3
 13592 2048 01       		.uleb128 0x1
 13593 2049 52       		.byte	0x52
 13594 204a 9F       		.byte	0x9f
 13595 204b 00000000 		.4byte	0
 13596 204f 00000000 		.4byte	0
 13597              	.LLST228:
 13598 2053 00000000 		.4byte	.LVL294
 13599 2057 0B000000 		.4byte	.LVL297-1
 13600 205b 0100     		.2byte	0x1
 13601 205d 50       		.byte	0x50
 13602 205e 0B000000 		.4byte	.LVL297-1
 13603 2062 0E000000 		.4byte	.LFE235
 13604 2066 0400     		.2byte	0x4
 13605 2068 F3       		.byte	0xf3
 13606 2069 01       		.uleb128 0x1
 13607 206a 50       		.byte	0x50
 13608 206b 9F       		.byte	0x9f
 13609 206c 00000000 		.4byte	0
 13610 2070 00000000 		.4byte	0
 13611              	.LLST229:
 13612 2074 00000000 		.4byte	.LVL294
 13613 2078 08000000 		.4byte	.LVL296
 13614 207c 0100     		.2byte	0x1
 13615 207e 51       		.byte	0x51
 13616 207f 08000000 		.4byte	.LVL296
 13617 2083 0E000000 		.4byte	.LFE235
 13618 2087 0400     		.2byte	0x4
 13619 2089 F3       		.byte	0xf3
 13620 208a 01       		.uleb128 0x1
 13621 208b 51       		.byte	0x51
 13622 208c 9F       		.byte	0x9f
 13623 208d 00000000 		.4byte	0
 13624 2091 00000000 		.4byte	0
 13625              	.LLST230:
 13626 2095 00000000 		.4byte	.LVL294
 13627 2099 06000000 		.4byte	.LVL295
 13628 209d 0100     		.2byte	0x1
 13629 209f 52       		.byte	0x52
 13630 20a0 06000000 		.4byte	.LVL295
 13631 20a4 0B000000 		.4byte	.LVL297-1
 13632 20a8 0100     		.2byte	0x1
 13633 20aa 53       		.byte	0x53
 13634 20ab 0B000000 		.4byte	.LVL297-1
ARM GAS  C:\Users\haske\AppData\Local\Temp\cc0eRFVw.s 			page 252


 13635 20af 0E000000 		.4byte	.LFE235
 13636 20b3 0400     		.2byte	0x4
 13637 20b5 F3       		.byte	0xf3
 13638 20b6 01       		.uleb128 0x1
 13639 20b7 52       		.byte	0x52
 13640 20b8 9F       		.byte	0x9f
 13641 20b9 00000000 		.4byte	0
 13642 20bd 00000000 		.4byte	0
 13643              	.LLST231:
 13644 20c1 00000000 		.4byte	.LVL298
 13645 20c5 0B000000 		.4byte	.LVL301-1
 13646 20c9 0100     		.2byte	0x1
 13647 20cb 50       		.byte	0x50
 13648 20cc 0B000000 		.4byte	.LVL301-1
 13649 20d0 0E000000 		.4byte	.LFE236
 13650 20d4 0400     		.2byte	0x4
 13651 20d6 F3       		.byte	0xf3
 13652 20d7 01       		.uleb128 0x1
 13653 20d8 50       		.byte	0x50
 13654 20d9 9F       		.byte	0x9f
 13655 20da 00000000 		.4byte	0
 13656 20de 00000000 		.4byte	0
 13657              	.LLST232:
 13658 20e2 00000000 		.4byte	.LVL298
 13659 20e6 08000000 		.4byte	.LVL300
 13660 20ea 0100     		.2byte	0x1
 13661 20ec 51       		.byte	0x51
 13662 20ed 08000000 		.4byte	.LVL300
 13663 20f1 0B000000 		.4byte	.LVL301-1
 13664 20f5 0100     		.2byte	0x1
 13665 20f7 52       		.byte	0x52
 13666 20f8 0B000000 		.4byte	.LVL301-1
 13667 20fc 0E000000 		.4byte	.LFE236
 13668 2100 0400     		.2byte	0x4
 13669 2102 F3       		.byte	0xf3
 13670 2103 01       		.uleb128 0x1
 13671 2104 51       		.byte	0x51
 13672 2105 9F       		.byte	0x9f
 13673 2106 00000000 		.4byte	0
 13674 210a 00000000 		.4byte	0
 13675              	.LLST233:
 13676 210e 00000000 		.4byte	.LVL298
 13677 2112 06000000 		.4byte	.LVL299
 13678 2116 0100     		.2byte	0x1
 13679 2118 52       		.byte	0x52
 13680 2119 06000000 		.4byte	.LVL299
 13681 211d 0B000000 		.4byte	.LVL301-1
 13682 2121 0100     		.2byte	0x1
 13683 2123 53       		.byte	0x53
 13684 2124 0B000000 		.4byte	.LVL301-1
 13685 2128 0E000000 		.4byte	.LFE236
 13686 212c 0400     		.2byte	0x4
 13687 212e F3       		.byte	0xf3
 13688 212f 01       		.uleb128 0x1
 13689 2130 52       		.byte	0x52
 13690 2131 9F       		.byte	0x9f
 13691 2132 00000000 		.4byte	0
ARM GAS  C:\Users\haske\AppData\Local\Temp\cc0eRFVw.s 			page 253


 13692 2136 00000000 		.4byte	0
 13693              	.LLST234:
 13694 213a 00000000 		.4byte	.LVL302
 13695 213e 0B000000 		.4byte	.LVL305-1
 13696 2142 0100     		.2byte	0x1
 13697 2144 50       		.byte	0x50
 13698 2145 0B000000 		.4byte	.LVL305-1
 13699 2149 0E000000 		.4byte	.LFE237
 13700 214d 0400     		.2byte	0x4
 13701 214f F3       		.byte	0xf3
 13702 2150 01       		.uleb128 0x1
 13703 2151 50       		.byte	0x50
 13704 2152 9F       		.byte	0x9f
 13705 2153 00000000 		.4byte	0
 13706 2157 00000000 		.4byte	0
 13707              	.LLST235:
 13708 215b 00000000 		.4byte	.LVL302
 13709 215f 08000000 		.4byte	.LVL304
 13710 2163 0100     		.2byte	0x1
 13711 2165 51       		.byte	0x51
 13712 2166 08000000 		.4byte	.LVL304
 13713 216a 0B000000 		.4byte	.LVL305-1
 13714 216e 0100     		.2byte	0x1
 13715 2170 52       		.byte	0x52
 13716 2171 0B000000 		.4byte	.LVL305-1
 13717 2175 0E000000 		.4byte	.LFE237
 13718 2179 0400     		.2byte	0x4
 13719 217b F3       		.byte	0xf3
 13720 217c 01       		.uleb128 0x1
 13721 217d 51       		.byte	0x51
 13722 217e 9F       		.byte	0x9f
 13723 217f 00000000 		.4byte	0
 13724 2183 00000000 		.4byte	0
 13725              	.LLST236:
 13726 2187 00000000 		.4byte	.LVL302
 13727 218b 06000000 		.4byte	.LVL303
 13728 218f 0100     		.2byte	0x1
 13729 2191 52       		.byte	0x52
 13730 2192 06000000 		.4byte	.LVL303
 13731 2196 0B000000 		.4byte	.LVL305-1
 13732 219a 0100     		.2byte	0x1
 13733 219c 53       		.byte	0x53
 13734 219d 0B000000 		.4byte	.LVL305-1
 13735 21a1 0E000000 		.4byte	.LFE237
 13736 21a5 0400     		.2byte	0x4
 13737 21a7 F3       		.byte	0xf3
 13738 21a8 01       		.uleb128 0x1
 13739 21a9 52       		.byte	0x52
 13740 21aa 9F       		.byte	0x9f
 13741 21ab 00000000 		.4byte	0
 13742 21af 00000000 		.4byte	0
 13743              	.LLST237:
 13744 21b3 00000000 		.4byte	.LVL306
 13745 21b7 0B000000 		.4byte	.LVL309-1
 13746 21bb 0100     		.2byte	0x1
 13747 21bd 50       		.byte	0x50
 13748 21be 0B000000 		.4byte	.LVL309-1
ARM GAS  C:\Users\haske\AppData\Local\Temp\cc0eRFVw.s 			page 254


 13749 21c2 0E000000 		.4byte	.LFE238
 13750 21c6 0400     		.2byte	0x4
 13751 21c8 F3       		.byte	0xf3
 13752 21c9 01       		.uleb128 0x1
 13753 21ca 50       		.byte	0x50
 13754 21cb 9F       		.byte	0x9f
 13755 21cc 00000000 		.4byte	0
 13756 21d0 00000000 		.4byte	0
 13757              	.LLST238:
 13758 21d4 00000000 		.4byte	.LVL306
 13759 21d8 08000000 		.4byte	.LVL308
 13760 21dc 0100     		.2byte	0x1
 13761 21de 51       		.byte	0x51
 13762 21df 08000000 		.4byte	.LVL308
 13763 21e3 0B000000 		.4byte	.LVL309-1
 13764 21e7 0100     		.2byte	0x1
 13765 21e9 52       		.byte	0x52
 13766 21ea 0B000000 		.4byte	.LVL309-1
 13767 21ee 0E000000 		.4byte	.LFE238
 13768 21f2 0400     		.2byte	0x4
 13769 21f4 F3       		.byte	0xf3
 13770 21f5 01       		.uleb128 0x1
 13771 21f6 51       		.byte	0x51
 13772 21f7 9F       		.byte	0x9f
 13773 21f8 00000000 		.4byte	0
 13774 21fc 00000000 		.4byte	0
 13775              	.LLST239:
 13776 2200 00000000 		.4byte	.LVL306
 13777 2204 06000000 		.4byte	.LVL307
 13778 2208 0100     		.2byte	0x1
 13779 220a 52       		.byte	0x52
 13780 220b 06000000 		.4byte	.LVL307
 13781 220f 0B000000 		.4byte	.LVL309-1
 13782 2213 0100     		.2byte	0x1
 13783 2215 53       		.byte	0x53
 13784 2216 0B000000 		.4byte	.LVL309-1
 13785 221a 0E000000 		.4byte	.LFE238
 13786 221e 0400     		.2byte	0x4
 13787 2220 F3       		.byte	0xf3
 13788 2221 01       		.uleb128 0x1
 13789 2222 52       		.byte	0x52
 13790 2223 9F       		.byte	0x9f
 13791 2224 00000000 		.4byte	0
 13792 2228 00000000 		.4byte	0
 13793              	.LLST240:
 13794 222c 00000000 		.4byte	.LVL310
 13795 2230 0B000000 		.4byte	.LVL313-1
 13796 2234 0100     		.2byte	0x1
 13797 2236 50       		.byte	0x50
 13798 2237 0B000000 		.4byte	.LVL313-1
 13799 223b 0E000000 		.4byte	.LFE239
 13800 223f 0400     		.2byte	0x4
 13801 2241 F3       		.byte	0xf3
 13802 2242 01       		.uleb128 0x1
 13803 2243 50       		.byte	0x50
 13804 2244 9F       		.byte	0x9f
 13805 2245 00000000 		.4byte	0
ARM GAS  C:\Users\haske\AppData\Local\Temp\cc0eRFVw.s 			page 255


 13806 2249 00000000 		.4byte	0
 13807              	.LLST241:
 13808 224d 00000000 		.4byte	.LVL310
 13809 2251 08000000 		.4byte	.LVL312
 13810 2255 0100     		.2byte	0x1
 13811 2257 51       		.byte	0x51
 13812 2258 08000000 		.4byte	.LVL312
 13813 225c 0B000000 		.4byte	.LVL313-1
 13814 2260 0100     		.2byte	0x1
 13815 2262 52       		.byte	0x52
 13816 2263 0B000000 		.4byte	.LVL313-1
 13817 2267 0E000000 		.4byte	.LFE239
 13818 226b 0400     		.2byte	0x4
 13819 226d F3       		.byte	0xf3
 13820 226e 01       		.uleb128 0x1
 13821 226f 51       		.byte	0x51
 13822 2270 9F       		.byte	0x9f
 13823 2271 00000000 		.4byte	0
 13824 2275 00000000 		.4byte	0
 13825              	.LLST242:
 13826 2279 00000000 		.4byte	.LVL310
 13827 227d 06000000 		.4byte	.LVL311
 13828 2281 0100     		.2byte	0x1
 13829 2283 52       		.byte	0x52
 13830 2284 06000000 		.4byte	.LVL311
 13831 2288 0B000000 		.4byte	.LVL313-1
 13832 228c 0100     		.2byte	0x1
 13833 228e 53       		.byte	0x53
 13834 228f 0B000000 		.4byte	.LVL313-1
 13835 2293 0E000000 		.4byte	.LFE239
 13836 2297 0400     		.2byte	0x4
 13837 2299 F3       		.byte	0xf3
 13838 229a 01       		.uleb128 0x1
 13839 229b 52       		.byte	0x52
 13840 229c 9F       		.byte	0x9f
 13841 229d 00000000 		.4byte	0
 13842 22a1 00000000 		.4byte	0
 13843              	.LLST243:
 13844 22a5 00000000 		.4byte	.LVL314
 13845 22a9 0B000000 		.4byte	.LVL317-1
 13846 22ad 0100     		.2byte	0x1
 13847 22af 50       		.byte	0x50
 13848 22b0 0B000000 		.4byte	.LVL317-1
 13849 22b4 0E000000 		.4byte	.LFE240
 13850 22b8 0400     		.2byte	0x4
 13851 22ba F3       		.byte	0xf3
 13852 22bb 01       		.uleb128 0x1
 13853 22bc 50       		.byte	0x50
 13854 22bd 9F       		.byte	0x9f
 13855 22be 00000000 		.4byte	0
 13856 22c2 00000000 		.4byte	0
 13857              	.LLST244:
 13858 22c6 00000000 		.4byte	.LVL314
 13859 22ca 08000000 		.4byte	.LVL316
 13860 22ce 0100     		.2byte	0x1
 13861 22d0 51       		.byte	0x51
 13862 22d1 08000000 		.4byte	.LVL316
ARM GAS  C:\Users\haske\AppData\Local\Temp\cc0eRFVw.s 			page 256


 13863 22d5 0E000000 		.4byte	.LFE240
 13864 22d9 0400     		.2byte	0x4
 13865 22db F3       		.byte	0xf3
 13866 22dc 01       		.uleb128 0x1
 13867 22dd 51       		.byte	0x51
 13868 22de 9F       		.byte	0x9f
 13869 22df 00000000 		.4byte	0
 13870 22e3 00000000 		.4byte	0
 13871              	.LLST245:
 13872 22e7 00000000 		.4byte	.LVL314
 13873 22eb 06000000 		.4byte	.LVL315
 13874 22ef 0100     		.2byte	0x1
 13875 22f1 52       		.byte	0x52
 13876 22f2 06000000 		.4byte	.LVL315
 13877 22f6 0B000000 		.4byte	.LVL317-1
 13878 22fa 0100     		.2byte	0x1
 13879 22fc 53       		.byte	0x53
 13880 22fd 0B000000 		.4byte	.LVL317-1
 13881 2301 0E000000 		.4byte	.LFE240
 13882 2305 0400     		.2byte	0x4
 13883 2307 F3       		.byte	0xf3
 13884 2308 01       		.uleb128 0x1
 13885 2309 52       		.byte	0x52
 13886 230a 9F       		.byte	0x9f
 13887 230b 00000000 		.4byte	0
 13888 230f 00000000 		.4byte	0
 13889              	.LLST246:
 13890 2313 00000000 		.4byte	.LVL318
 13891 2317 0B000000 		.4byte	.LVL321-1
 13892 231b 0100     		.2byte	0x1
 13893 231d 50       		.byte	0x50
 13894 231e 0B000000 		.4byte	.LVL321-1
 13895 2322 0E000000 		.4byte	.LFE241
 13896 2326 0400     		.2byte	0x4
 13897 2328 F3       		.byte	0xf3
 13898 2329 01       		.uleb128 0x1
 13899 232a 50       		.byte	0x50
 13900 232b 9F       		.byte	0x9f
 13901 232c 00000000 		.4byte	0
 13902 2330 00000000 		.4byte	0
 13903              	.LLST247:
 13904 2334 00000000 		.4byte	.LVL318
 13905 2338 08000000 		.4byte	.LVL320
 13906 233c 0100     		.2byte	0x1
 13907 233e 51       		.byte	0x51
 13908 233f 08000000 		.4byte	.LVL320
 13909 2343 0E000000 		.4byte	.LFE241
 13910 2347 0400     		.2byte	0x4
 13911 2349 F3       		.byte	0xf3
 13912 234a 01       		.uleb128 0x1
 13913 234b 51       		.byte	0x51
 13914 234c 9F       		.byte	0x9f
 13915 234d 00000000 		.4byte	0
 13916 2351 00000000 		.4byte	0
 13917              	.LLST248:
 13918 2355 00000000 		.4byte	.LVL318
 13919 2359 06000000 		.4byte	.LVL319
ARM GAS  C:\Users\haske\AppData\Local\Temp\cc0eRFVw.s 			page 257


 13920 235d 0100     		.2byte	0x1
 13921 235f 52       		.byte	0x52
 13922 2360 06000000 		.4byte	.LVL319
 13923 2364 0B000000 		.4byte	.LVL321-1
 13924 2368 0100     		.2byte	0x1
 13925 236a 53       		.byte	0x53
 13926 236b 0B000000 		.4byte	.LVL321-1
 13927 236f 0E000000 		.4byte	.LFE241
 13928 2373 0400     		.2byte	0x4
 13929 2375 F3       		.byte	0xf3
 13930 2376 01       		.uleb128 0x1
 13931 2377 52       		.byte	0x52
 13932 2378 9F       		.byte	0x9f
 13933 2379 00000000 		.4byte	0
 13934 237d 00000000 		.4byte	0
 13935              	.LLST249:
 13936 2381 00000000 		.4byte	.LVL322
 13937 2385 0B000000 		.4byte	.LVL325-1
 13938 2389 0100     		.2byte	0x1
 13939 238b 50       		.byte	0x50
 13940 238c 0B000000 		.4byte	.LVL325-1
 13941 2390 0E000000 		.4byte	.LFE242
 13942 2394 0400     		.2byte	0x4
 13943 2396 F3       		.byte	0xf3
 13944 2397 01       		.uleb128 0x1
 13945 2398 50       		.byte	0x50
 13946 2399 9F       		.byte	0x9f
 13947 239a 00000000 		.4byte	0
 13948 239e 00000000 		.4byte	0
 13949              	.LLST250:
 13950 23a2 00000000 		.4byte	.LVL322
 13951 23a6 08000000 		.4byte	.LVL324
 13952 23aa 0100     		.2byte	0x1
 13953 23ac 51       		.byte	0x51
 13954 23ad 08000000 		.4byte	.LVL324
 13955 23b1 0E000000 		.4byte	.LFE242
 13956 23b5 0400     		.2byte	0x4
 13957 23b7 F3       		.byte	0xf3
 13958 23b8 01       		.uleb128 0x1
 13959 23b9 51       		.byte	0x51
 13960 23ba 9F       		.byte	0x9f
 13961 23bb 00000000 		.4byte	0
 13962 23bf 00000000 		.4byte	0
 13963              	.LLST251:
 13964 23c3 00000000 		.4byte	.LVL322
 13965 23c7 06000000 		.4byte	.LVL323
 13966 23cb 0100     		.2byte	0x1
 13967 23cd 52       		.byte	0x52
 13968 23ce 06000000 		.4byte	.LVL323
 13969 23d2 0B000000 		.4byte	.LVL325-1
 13970 23d6 0100     		.2byte	0x1
 13971 23d8 53       		.byte	0x53
 13972 23d9 0B000000 		.4byte	.LVL325-1
 13973 23dd 0E000000 		.4byte	.LFE242
 13974 23e1 0400     		.2byte	0x4
 13975 23e3 F3       		.byte	0xf3
 13976 23e4 01       		.uleb128 0x1
ARM GAS  C:\Users\haske\AppData\Local\Temp\cc0eRFVw.s 			page 258


 13977 23e5 52       		.byte	0x52
 13978 23e6 9F       		.byte	0x9f
 13979 23e7 00000000 		.4byte	0
 13980 23eb 00000000 		.4byte	0
 13981              		.section	.debug_aranges,"",%progbits
 13982 0000 B4020000 		.4byte	0x2b4
 13983 0004 0200     		.2byte	0x2
 13984 0006 00000000 		.4byte	.Ldebug_info0
 13985 000a 04       		.byte	0x4
 13986 000b 00       		.byte	0
 13987 000c 0000     		.2byte	0
 13988 000e 0000     		.2byte	0
 13989 0010 00000000 		.4byte	.LFB159
 13990 0014 0E000000 		.4byte	.LFE159-.LFB159
 13991 0018 00000000 		.4byte	.LFB160
 13992 001c 0E000000 		.4byte	.LFE160-.LFB160
 13993 0020 00000000 		.4byte	.LFB161
 13994 0024 0E000000 		.4byte	.LFE161-.LFB161
 13995 0028 00000000 		.4byte	.LFB162
 13996 002c 0E000000 		.4byte	.LFE162-.LFB162
 13997 0030 00000000 		.4byte	.LFB163
 13998 0034 0E000000 		.4byte	.LFE163-.LFB163
 13999 0038 00000000 		.4byte	.LFB164
 14000 003c 0E000000 		.4byte	.LFE164-.LFB164
 14001 0040 00000000 		.4byte	.LFB165
 14002 0044 0E000000 		.4byte	.LFE165-.LFB165
 14003 0048 00000000 		.4byte	.LFB166
 14004 004c 0E000000 		.4byte	.LFE166-.LFB166
 14005 0050 00000000 		.4byte	.LFB167
 14006 0054 0E000000 		.4byte	.LFE167-.LFB167
 14007 0058 00000000 		.4byte	.LFB168
 14008 005c 0E000000 		.4byte	.LFE168-.LFB168
 14009 0060 00000000 		.4byte	.LFB169
 14010 0064 0E000000 		.4byte	.LFE169-.LFB169
 14011 0068 00000000 		.4byte	.LFB170
 14012 006c 0E000000 		.4byte	.LFE170-.LFB170
 14013 0070 00000000 		.4byte	.LFB171
 14014 0074 0E000000 		.4byte	.LFE171-.LFB171
 14015 0078 00000000 		.4byte	.LFB172
 14016 007c 0E000000 		.4byte	.LFE172-.LFB172
 14017 0080 00000000 		.4byte	.LFB173
 14018 0084 0E000000 		.4byte	.LFE173-.LFB173
 14019 0088 00000000 		.4byte	.LFB174
 14020 008c 0E000000 		.4byte	.LFE174-.LFB174
 14021 0090 00000000 		.4byte	.LFB175
 14022 0094 0E000000 		.4byte	.LFE175-.LFB175
 14023 0098 00000000 		.4byte	.LFB176
 14024 009c 0E000000 		.4byte	.LFE176-.LFB176
 14025 00a0 00000000 		.4byte	.LFB177
 14026 00a4 0E000000 		.4byte	.LFE177-.LFB177
 14027 00a8 00000000 		.4byte	.LFB178
 14028 00ac 0E000000 		.4byte	.LFE178-.LFB178
 14029 00b0 00000000 		.4byte	.LFB179
 14030 00b4 0E000000 		.4byte	.LFE179-.LFB179
 14031 00b8 00000000 		.4byte	.LFB180
 14032 00bc 0E000000 		.4byte	.LFE180-.LFB180
 14033 00c0 00000000 		.4byte	.LFB181
ARM GAS  C:\Users\haske\AppData\Local\Temp\cc0eRFVw.s 			page 259


 14034 00c4 0E000000 		.4byte	.LFE181-.LFB181
 14035 00c8 00000000 		.4byte	.LFB182
 14036 00cc 0E000000 		.4byte	.LFE182-.LFB182
 14037 00d0 00000000 		.4byte	.LFB183
 14038 00d4 0E000000 		.4byte	.LFE183-.LFB183
 14039 00d8 00000000 		.4byte	.LFB184
 14040 00dc 0E000000 		.4byte	.LFE184-.LFB184
 14041 00e0 00000000 		.4byte	.LFB185
 14042 00e4 0E000000 		.4byte	.LFE185-.LFB185
 14043 00e8 00000000 		.4byte	.LFB186
 14044 00ec 0E000000 		.4byte	.LFE186-.LFB186
 14045 00f0 00000000 		.4byte	.LFB187
 14046 00f4 0E000000 		.4byte	.LFE187-.LFB187
 14047 00f8 00000000 		.4byte	.LFB188
 14048 00fc 0E000000 		.4byte	.LFE188-.LFB188
 14049 0100 00000000 		.4byte	.LFB189
 14050 0104 0E000000 		.4byte	.LFE189-.LFB189
 14051 0108 00000000 		.4byte	.LFB190
 14052 010c 0E000000 		.4byte	.LFE190-.LFB190
 14053 0110 00000000 		.4byte	.LFB191
 14054 0114 0E000000 		.4byte	.LFE191-.LFB191
 14055 0118 00000000 		.4byte	.LFB192
 14056 011c 0E000000 		.4byte	.LFE192-.LFB192
 14057 0120 00000000 		.4byte	.LFB193
 14058 0124 0E000000 		.4byte	.LFE193-.LFB193
 14059 0128 00000000 		.4byte	.LFB194
 14060 012c 0E000000 		.4byte	.LFE194-.LFB194
 14061 0130 00000000 		.4byte	.LFB195
 14062 0134 0E000000 		.4byte	.LFE195-.LFB195
 14063 0138 00000000 		.4byte	.LFB196
 14064 013c 0E000000 		.4byte	.LFE196-.LFB196
 14065 0140 00000000 		.4byte	.LFB197
 14066 0144 0E000000 		.4byte	.LFE197-.LFB197
 14067 0148 00000000 		.4byte	.LFB198
 14068 014c 0E000000 		.4byte	.LFE198-.LFB198
 14069 0150 00000000 		.4byte	.LFB199
 14070 0154 0E000000 		.4byte	.LFE199-.LFB199
 14071 0158 00000000 		.4byte	.LFB200
 14072 015c 0E000000 		.4byte	.LFE200-.LFB200
 14073 0160 00000000 		.4byte	.LFB201
 14074 0164 0E000000 		.4byte	.LFE201-.LFB201
 14075 0168 00000000 		.4byte	.LFB202
 14076 016c 0E000000 		.4byte	.LFE202-.LFB202
 14077 0170 00000000 		.4byte	.LFB203
 14078 0174 0E000000 		.4byte	.LFE203-.LFB203
 14079 0178 00000000 		.4byte	.LFB204
 14080 017c 0E000000 		.4byte	.LFE204-.LFB204
 14081 0180 00000000 		.4byte	.LFB205
 14082 0184 0E000000 		.4byte	.LFE205-.LFB205
 14083 0188 00000000 		.4byte	.LFB206
 14084 018c 0E000000 		.4byte	.LFE206-.LFB206
 14085 0190 00000000 		.4byte	.LFB207
 14086 0194 0E000000 		.4byte	.LFE207-.LFB207
 14087 0198 00000000 		.4byte	.LFB208
 14088 019c 0E000000 		.4byte	.LFE208-.LFB208
 14089 01a0 00000000 		.4byte	.LFB209
 14090 01a4 0E000000 		.4byte	.LFE209-.LFB209
ARM GAS  C:\Users\haske\AppData\Local\Temp\cc0eRFVw.s 			page 260


 14091 01a8 00000000 		.4byte	.LFB210
 14092 01ac 0E000000 		.4byte	.LFE210-.LFB210
 14093 01b0 00000000 		.4byte	.LFB211
 14094 01b4 0E000000 		.4byte	.LFE211-.LFB211
 14095 01b8 00000000 		.4byte	.LFB212
 14096 01bc 0E000000 		.4byte	.LFE212-.LFB212
 14097 01c0 00000000 		.4byte	.LFB213
 14098 01c4 0E000000 		.4byte	.LFE213-.LFB213
 14099 01c8 00000000 		.4byte	.LFB214
 14100 01cc 0E000000 		.4byte	.LFE214-.LFB214
 14101 01d0 00000000 		.4byte	.LFB215
 14102 01d4 0E000000 		.4byte	.LFE215-.LFB215
 14103 01d8 00000000 		.4byte	.LFB216
 14104 01dc 0E000000 		.4byte	.LFE216-.LFB216
 14105 01e0 00000000 		.4byte	.LFB217
 14106 01e4 0E000000 		.4byte	.LFE217-.LFB217
 14107 01e8 00000000 		.4byte	.LFB218
 14108 01ec 0E000000 		.4byte	.LFE218-.LFB218
 14109 01f0 00000000 		.4byte	.LFB219
 14110 01f4 0E000000 		.4byte	.LFE219-.LFB219
 14111 01f8 00000000 		.4byte	.LFB220
 14112 01fc 0E000000 		.4byte	.LFE220-.LFB220
 14113 0200 00000000 		.4byte	.LFB221
 14114 0204 0E000000 		.4byte	.LFE221-.LFB221
 14115 0208 00000000 		.4byte	.LFB222
 14116 020c 0E000000 		.4byte	.LFE222-.LFB222
 14117 0210 00000000 		.4byte	.LFB223
 14118 0214 0E000000 		.4byte	.LFE223-.LFB223
 14119 0218 00000000 		.4byte	.LFB224
 14120 021c 0E000000 		.4byte	.LFE224-.LFB224
 14121 0220 00000000 		.4byte	.LFB225
 14122 0224 0E000000 		.4byte	.LFE225-.LFB225
 14123 0228 00000000 		.4byte	.LFB226
 14124 022c 0E000000 		.4byte	.LFE226-.LFB226
 14125 0230 00000000 		.4byte	.LFB227
 14126 0234 0E000000 		.4byte	.LFE227-.LFB227
 14127 0238 00000000 		.4byte	.LFB228
 14128 023c 0E000000 		.4byte	.LFE228-.LFB228
 14129 0240 00000000 		.4byte	.LFB229
 14130 0244 0E000000 		.4byte	.LFE229-.LFB229
 14131 0248 00000000 		.4byte	.LFB230
 14132 024c 0E000000 		.4byte	.LFE230-.LFB230
 14133 0250 00000000 		.4byte	.LFB231
 14134 0254 0E000000 		.4byte	.LFE231-.LFB231
 14135 0258 00000000 		.4byte	.LFB232
 14136 025c 0E000000 		.4byte	.LFE232-.LFB232
 14137 0260 00000000 		.4byte	.LFB233
 14138 0264 0E000000 		.4byte	.LFE233-.LFB233
 14139 0268 00000000 		.4byte	.LFB234
 14140 026c 0E000000 		.4byte	.LFE234-.LFB234
 14141 0270 00000000 		.4byte	.LFB235
 14142 0274 0E000000 		.4byte	.LFE235-.LFB235
 14143 0278 00000000 		.4byte	.LFB236
 14144 027c 0E000000 		.4byte	.LFE236-.LFB236
 14145 0280 00000000 		.4byte	.LFB237
 14146 0284 0E000000 		.4byte	.LFE237-.LFB237
 14147 0288 00000000 		.4byte	.LFB238
ARM GAS  C:\Users\haske\AppData\Local\Temp\cc0eRFVw.s 			page 261


 14148 028c 0E000000 		.4byte	.LFE238-.LFB238
 14149 0290 00000000 		.4byte	.LFB239
 14150 0294 0E000000 		.4byte	.LFE239-.LFB239
 14151 0298 00000000 		.4byte	.LFB240
 14152 029c 0E000000 		.4byte	.LFE240-.LFB240
 14153 02a0 00000000 		.4byte	.LFB241
 14154 02a4 0E000000 		.4byte	.LFE241-.LFB241
 14155 02a8 00000000 		.4byte	.LFB242
 14156 02ac 0E000000 		.4byte	.LFE242-.LFB242
 14157 02b0 00000000 		.4byte	0
 14158 02b4 00000000 		.4byte	0
 14159              		.section	.debug_ranges,"",%progbits
 14160              	.Ldebug_ranges0:
 14161 0000 00000000 		.4byte	.LFB159
 14162 0004 0E000000 		.4byte	.LFE159
 14163 0008 00000000 		.4byte	.LFB160
 14164 000c 0E000000 		.4byte	.LFE160
 14165 0010 00000000 		.4byte	.LFB161
 14166 0014 0E000000 		.4byte	.LFE161
 14167 0018 00000000 		.4byte	.LFB162
 14168 001c 0E000000 		.4byte	.LFE162
 14169 0020 00000000 		.4byte	.LFB163
 14170 0024 0E000000 		.4byte	.LFE163
 14171 0028 00000000 		.4byte	.LFB164
 14172 002c 0E000000 		.4byte	.LFE164
 14173 0030 00000000 		.4byte	.LFB165
 14174 0034 0E000000 		.4byte	.LFE165
 14175 0038 00000000 		.4byte	.LFB166
 14176 003c 0E000000 		.4byte	.LFE166
 14177 0040 00000000 		.4byte	.LFB167
 14178 0044 0E000000 		.4byte	.LFE167
 14179 0048 00000000 		.4byte	.LFB168
 14180 004c 0E000000 		.4byte	.LFE168
 14181 0050 00000000 		.4byte	.LFB169
 14182 0054 0E000000 		.4byte	.LFE169
 14183 0058 00000000 		.4byte	.LFB170
 14184 005c 0E000000 		.4byte	.LFE170
 14185 0060 00000000 		.4byte	.LFB171
 14186 0064 0E000000 		.4byte	.LFE171
 14187 0068 00000000 		.4byte	.LFB172
 14188 006c 0E000000 		.4byte	.LFE172
 14189 0070 00000000 		.4byte	.LFB173
 14190 0074 0E000000 		.4byte	.LFE173
 14191 0078 00000000 		.4byte	.LFB174
 14192 007c 0E000000 		.4byte	.LFE174
 14193 0080 00000000 		.4byte	.LFB175
 14194 0084 0E000000 		.4byte	.LFE175
 14195 0088 00000000 		.4byte	.LFB176
 14196 008c 0E000000 		.4byte	.LFE176
 14197 0090 00000000 		.4byte	.LFB177
 14198 0094 0E000000 		.4byte	.LFE177
 14199 0098 00000000 		.4byte	.LFB178
 14200 009c 0E000000 		.4byte	.LFE178
 14201 00a0 00000000 		.4byte	.LFB179
 14202 00a4 0E000000 		.4byte	.LFE179
 14203 00a8 00000000 		.4byte	.LFB180
 14204 00ac 0E000000 		.4byte	.LFE180
ARM GAS  C:\Users\haske\AppData\Local\Temp\cc0eRFVw.s 			page 262


 14205 00b0 00000000 		.4byte	.LFB181
 14206 00b4 0E000000 		.4byte	.LFE181
 14207 00b8 00000000 		.4byte	.LFB182
 14208 00bc 0E000000 		.4byte	.LFE182
 14209 00c0 00000000 		.4byte	.LFB183
 14210 00c4 0E000000 		.4byte	.LFE183
 14211 00c8 00000000 		.4byte	.LFB184
 14212 00cc 0E000000 		.4byte	.LFE184
 14213 00d0 00000000 		.4byte	.LFB185
 14214 00d4 0E000000 		.4byte	.LFE185
 14215 00d8 00000000 		.4byte	.LFB186
 14216 00dc 0E000000 		.4byte	.LFE186
 14217 00e0 00000000 		.4byte	.LFB187
 14218 00e4 0E000000 		.4byte	.LFE187
 14219 00e8 00000000 		.4byte	.LFB188
 14220 00ec 0E000000 		.4byte	.LFE188
 14221 00f0 00000000 		.4byte	.LFB189
 14222 00f4 0E000000 		.4byte	.LFE189
 14223 00f8 00000000 		.4byte	.LFB190
 14224 00fc 0E000000 		.4byte	.LFE190
 14225 0100 00000000 		.4byte	.LFB191
 14226 0104 0E000000 		.4byte	.LFE191
 14227 0108 00000000 		.4byte	.LFB192
 14228 010c 0E000000 		.4byte	.LFE192
 14229 0110 00000000 		.4byte	.LFB193
 14230 0114 0E000000 		.4byte	.LFE193
 14231 0118 00000000 		.4byte	.LFB194
 14232 011c 0E000000 		.4byte	.LFE194
 14233 0120 00000000 		.4byte	.LFB195
 14234 0124 0E000000 		.4byte	.LFE195
 14235 0128 00000000 		.4byte	.LFB196
 14236 012c 0E000000 		.4byte	.LFE196
 14237 0130 00000000 		.4byte	.LFB197
 14238 0134 0E000000 		.4byte	.LFE197
 14239 0138 00000000 		.4byte	.LFB198
 14240 013c 0E000000 		.4byte	.LFE198
 14241 0140 00000000 		.4byte	.LFB199
 14242 0144 0E000000 		.4byte	.LFE199
 14243 0148 00000000 		.4byte	.LFB200
 14244 014c 0E000000 		.4byte	.LFE200
 14245 0150 00000000 		.4byte	.LFB201
 14246 0154 0E000000 		.4byte	.LFE201
 14247 0158 00000000 		.4byte	.LFB202
 14248 015c 0E000000 		.4byte	.LFE202
 14249 0160 00000000 		.4byte	.LFB203
 14250 0164 0E000000 		.4byte	.LFE203
 14251 0168 00000000 		.4byte	.LFB204
 14252 016c 0E000000 		.4byte	.LFE204
 14253 0170 00000000 		.4byte	.LFB205
 14254 0174 0E000000 		.4byte	.LFE205
 14255 0178 00000000 		.4byte	.LFB206
 14256 017c 0E000000 		.4byte	.LFE206
 14257 0180 00000000 		.4byte	.LFB207
 14258 0184 0E000000 		.4byte	.LFE207
 14259 0188 00000000 		.4byte	.LFB208
 14260 018c 0E000000 		.4byte	.LFE208
 14261 0190 00000000 		.4byte	.LFB209
ARM GAS  C:\Users\haske\AppData\Local\Temp\cc0eRFVw.s 			page 263


 14262 0194 0E000000 		.4byte	.LFE209
 14263 0198 00000000 		.4byte	.LFB210
 14264 019c 0E000000 		.4byte	.LFE210
 14265 01a0 00000000 		.4byte	.LFB211
 14266 01a4 0E000000 		.4byte	.LFE211
 14267 01a8 00000000 		.4byte	.LFB212
 14268 01ac 0E000000 		.4byte	.LFE212
 14269 01b0 00000000 		.4byte	.LFB213
 14270 01b4 0E000000 		.4byte	.LFE213
 14271 01b8 00000000 		.4byte	.LFB214
 14272 01bc 0E000000 		.4byte	.LFE214
 14273 01c0 00000000 		.4byte	.LFB215
 14274 01c4 0E000000 		.4byte	.LFE215
 14275 01c8 00000000 		.4byte	.LFB216
 14276 01cc 0E000000 		.4byte	.LFE216
 14277 01d0 00000000 		.4byte	.LFB217
 14278 01d4 0E000000 		.4byte	.LFE217
 14279 01d8 00000000 		.4byte	.LFB218
 14280 01dc 0E000000 		.4byte	.LFE218
 14281 01e0 00000000 		.4byte	.LFB219
 14282 01e4 0E000000 		.4byte	.LFE219
 14283 01e8 00000000 		.4byte	.LFB220
 14284 01ec 0E000000 		.4byte	.LFE220
 14285 01f0 00000000 		.4byte	.LFB221
 14286 01f4 0E000000 		.4byte	.LFE221
 14287 01f8 00000000 		.4byte	.LFB222
 14288 01fc 0E000000 		.4byte	.LFE222
 14289 0200 00000000 		.4byte	.LFB223
 14290 0204 0E000000 		.4byte	.LFE223
 14291 0208 00000000 		.4byte	.LFB224
 14292 020c 0E000000 		.4byte	.LFE224
 14293 0210 00000000 		.4byte	.LFB225
 14294 0214 0E000000 		.4byte	.LFE225
 14295 0218 00000000 		.4byte	.LFB226
 14296 021c 0E000000 		.4byte	.LFE226
 14297 0220 00000000 		.4byte	.LFB227
 14298 0224 0E000000 		.4byte	.LFE227
 14299 0228 00000000 		.4byte	.LFB228
 14300 022c 0E000000 		.4byte	.LFE228
 14301 0230 00000000 		.4byte	.LFB229
 14302 0234 0E000000 		.4byte	.LFE229
 14303 0238 00000000 		.4byte	.LFB230
 14304 023c 0E000000 		.4byte	.LFE230
 14305 0240 00000000 		.4byte	.LFB231
 14306 0244 0E000000 		.4byte	.LFE231
 14307 0248 00000000 		.4byte	.LFB232
 14308 024c 0E000000 		.4byte	.LFE232
 14309 0250 00000000 		.4byte	.LFB233
 14310 0254 0E000000 		.4byte	.LFE233
 14311 0258 00000000 		.4byte	.LFB234
 14312 025c 0E000000 		.4byte	.LFE234
 14313 0260 00000000 		.4byte	.LFB235
 14314 0264 0E000000 		.4byte	.LFE235
 14315 0268 00000000 		.4byte	.LFB236
 14316 026c 0E000000 		.4byte	.LFE236
 14317 0270 00000000 		.4byte	.LFB237
 14318 0274 0E000000 		.4byte	.LFE237
ARM GAS  C:\Users\haske\AppData\Local\Temp\cc0eRFVw.s 			page 264


 14319 0278 00000000 		.4byte	.LFB238
 14320 027c 0E000000 		.4byte	.LFE238
 14321 0280 00000000 		.4byte	.LFB239
 14322 0284 0E000000 		.4byte	.LFE239
 14323 0288 00000000 		.4byte	.LFB240
 14324 028c 0E000000 		.4byte	.LFE240
 14325 0290 00000000 		.4byte	.LFB241
 14326 0294 0E000000 		.4byte	.LFE241
 14327 0298 00000000 		.4byte	.LFB242
 14328 029c 0E000000 		.4byte	.LFE242
 14329 02a0 00000000 		.4byte	0
 14330 02a4 00000000 		.4byte	0
 14331              		.section	.debug_line,"",%progbits
 14332              	.Ldebug_line0:
 14333 0000 EC080000 		.section	.debug_str,"MS",%progbits,1
 14333      0200FE02 
 14333      00000201 
 14333      FB0E0D00 
 14333      01010101 
 14334              	.LASF203:
 14335 0000 70726F70 		.ascii	"prop_cnt\000"
 14335      5F636E74 
 14335      00
 14336              	.LASF15:
 14337 0009 696E7438 		.ascii	"int8_t\000"
 14337      5F7400
 14338              	.LASF170:
 14339 0010 4C565F53 		.ascii	"LV_STYLE_OPA\000"
 14339      54594C45 
 14339      5F4F5041 
 14339      00
 14340              	.LASF219:
 14341 001d 6C765F6C 		.ascii	"lv_ll_node_t\000"
 14341      6C5F6E6F 
 14341      64655F74 
 14341      00
 14342              	.LASF28:
 14343 002a 6164765F 		.ascii	"adv_w\000"
 14343      7700
 14344              	.LASF46:
 14345 0030 73697A65 		.ascii	"sizetype\000"
 14345      74797065 
 14345      00
 14346              	.LASF366:
 14347 0039 6C765F6F 		.ascii	"lv_obj_set_style_border_width\000"
 14347      626A5F73 
 14347      65745F73 
 14347      74796C65 
 14347      5F626F72 
 14348              	.LASF283:
 14349 0057 4C565F45 		.ascii	"LV_EVENT_DRAW_MAIN_BEGIN\000"
 14349      56454E54 
 14349      5F445241 
 14349      575F4D41 
 14349      494E5F42 
 14350              	.LASF397:
 14351 0070 6C765F6F 		.ascii	"lv_obj_set_style_text_line_space\000"
ARM GAS  C:\Users\haske\AppData\Local\Temp\cc0eRFVw.s 			page 265


 14351      626A5F73 
 14351      65745F73 
 14351      74796C65 
 14351      5F746578 
 14352              	.LASF237:
 14353 0091 6C765F73 		.ascii	"lv_style_selector_t\000"
 14353      74796C65 
 14353      5F73656C 
 14353      6563746F 
 14353      725F7400 
 14354              	.LASF154:
 14355 00a5 4C565F53 		.ascii	"LV_STYLE_LINE_DASH_GAP\000"
 14355      54594C45 
 14355      5F4C494E 
 14355      455F4441 
 14355      53485F47 
 14356              	.LASF57:
 14357 00bc 66696C74 		.ascii	"filter_cb\000"
 14357      65725F63 
 14357      6200
 14358              	.LASF222:
 14359 00c6 7461696C 		.ascii	"tail\000"
 14359      00
 14360              	.LASF343:
 14361 00cb 6C765F6F 		.ascii	"lv_obj_set_style_transform_pivot_x\000"
 14361      626A5F73 
 14361      65745F73 
 14361      74796C65 
 14361      5F747261 
 14362              	.LASF344:
 14363 00ee 6C765F6F 		.ascii	"lv_obj_set_style_transform_pivot_y\000"
 14363      626A5F73 
 14363      65745F73 
 14363      74796C65 
 14363      5F747261 
 14364              	.LASF53:
 14365 0111 6C765F6F 		.ascii	"lv_opa_t\000"
 14365      70615F74 
 14365      00
 14366              	.LASF161:
 14367 011a 4C565F53 		.ascii	"LV_STYLE_ARC_OPA\000"
 14367      54594C45 
 14367      5F415243 
 14367      5F4F5041 
 14367      00
 14368              	.LASF19:
 14369 012b 696E7433 		.ascii	"int32_t\000"
 14369      325F7400 
 14370              	.LASF235:
 14371 0133 6C765F73 		.ascii	"lv_scrollbar_mode_t\000"
 14371      63726F6C 
 14371      6C626172 
 14371      5F6D6F64 
 14371      655F7400 
 14372              	.LASF378:
 14373 0147 6C765F6F 		.ascii	"lv_obj_set_style_shadow_opa\000"
 14373      626A5F73 
ARM GAS  C:\Users\haske\AppData\Local\Temp\cc0eRFVw.s 			page 266


 14373      65745F73 
 14373      74796C65 
 14373      5F736861 
 14374              	.LASF202:
 14375 0163 6861735F 		.ascii	"has_group\000"
 14375      67726F75 
 14375      7000
 14376              	.LASF292:
 14377 016d 4C565F45 		.ascii	"LV_EVENT_INSERT\000"
 14377      56454E54 
 14377      5F494E53 
 14377      45525400 
 14378              	.LASF23:
 14379 017d 6C765F70 		.ascii	"lv_point_t\000"
 14379      6F696E74 
 14379      5F7400
 14380              	.LASF273:
 14381 0188 4C565F45 		.ascii	"LV_EVENT_SCROLL_END\000"
 14381      56454E54 
 14381      5F534352 
 14381      4F4C4C5F 
 14381      454E4400 
 14382              	.LASF36:
 14383 019c 6C696E65 		.ascii	"line_height\000"
 14383      5F686569 
 14383      67687400 
 14384              	.LASF66:
 14385 01a8 70617468 		.ascii	"path_cb\000"
 14385      5F636200 
 14386              	.LASF25:
 14387 01b0 6C765F61 		.ascii	"lv_align_t\000"
 14387      6C69676E 
 14387      5F7400
 14388              	.LASF405:
 14389 01bb 6C765F6F 		.ascii	"lv_obj_set_style_anim\000"
 14389      626A5F73 
 14389      65745F73 
 14389      74796C65 
 14389      5F616E69 
 14390              	.LASF83:
 14391 01d1 6C765F61 		.ascii	"lv_anim_get_value_cb_t\000"
 14391      6E696D5F 
 14391      6765745F 
 14391      76616C75 
 14391      655F6362 
 14392              	.LASF322:
 14393 01e8 7363726F 		.ascii	"scroll_snap_x\000"
 14393      6C6C5F73 
 14393      6E61705F 
 14393      7800
 14394              	.LASF404:
 14395 01f6 6C765F6F 		.ascii	"lv_obj_set_style_color_filter_opa\000"
 14395      626A5F73 
 14395      65745F73 
 14395      74796C65 
 14395      5F636F6C 
 14396              	.LASF338:
ARM GAS  C:\Users\haske\AppData\Local\Temp\cc0eRFVw.s 			page 267


 14397 0218 6C765F6F 		.ascii	"lv_obj_set_style_transform_height\000"
 14397      626A5F73 
 14397      65745F73 
 14397      74796C65 
 14397      5F747261 
 14398              	.LASF56:
 14399 023a 5F6C765F 		.ascii	"_lv_color_filter_dsc_t\000"
 14399      636F6C6F 
 14399      725F6669 
 14399      6C746572 
 14399      5F647363 
 14400              	.LASF297:
 14401 0251 4C565F45 		.ascii	"LV_EVENT_CHILD_CHANGED\000"
 14401      56454E54 
 14401      5F434849 
 14401      4C445F43 
 14401      48414E47 
 14402              	.LASF212:
 14403 0268 73746174 		.ascii	"state\000"
 14403      6500
 14404              	.LASF105:
 14405 026e 4C565F53 		.ascii	"LV_STYLE_HEIGHT\000"
 14405      54594C45 
 14405      5F484549 
 14405      47485400 
 14406              	.LASF240:
 14407 027e 69735F6C 		.ascii	"is_local\000"
 14407      6F63616C 
 14407      00
 14408              	.LASF409:
 14409 0287 6C765F6F 		.ascii	"lv_obj_set_style_blend_mode\000"
 14409      626A5F73 
 14409      65745F73 
 14409      74796C65 
 14409      5F626C65 
 14410              	.LASF125:
 14411 02a3 4C565F53 		.ascii	"LV_STYLE_BG_MAIN_STOP\000"
 14411      54594C45 
 14411      5F42475F 
 14411      4D41494E 
 14411      5F53544F 
 14412              	.LASF365:
 14413 02b9 6C765F6F 		.ascii	"lv_obj_set_style_border_opa\000"
 14413      626A5F73 
 14413      65745F73 
 14413      74796C65 
 14413      5F626F72 
 14414              	.LASF245:
 14415 02d5 636F6E73 		.ascii	"constructor_cb\000"
 14415      74727563 
 14415      746F725F 
 14415      636200
 14416              	.LASF319:
 14417 02e4 6578745F 		.ascii	"ext_click_pad\000"
 14417      636C6963 
 14417      6B5F7061 
 14417      6400
ARM GAS  C:\Users\haske\AppData\Local\Temp\cc0eRFVw.s 			page 268


 14418              	.LASF186:
 14419 02f2 5F4C565F 		.ascii	"_LV_STYLE_LAST_BUILT_IN_PROP\000"
 14419      5354594C 
 14419      455F4C41 
 14419      53545F42 
 14419      55494C54 
 14420              	.LASF394:
 14421 030f 6C765F6F 		.ascii	"lv_obj_set_style_text_opa\000"
 14421      626A5F73 
 14421      65745F73 
 14421      74796C65 
 14421      5F746578 
 14422              	.LASF275:
 14423 0329 4C565F45 		.ascii	"LV_EVENT_GESTURE\000"
 14423      56454E54 
 14423      5F474553 
 14423      54555245 
 14423      00
 14424              	.LASF268:
 14425 033a 4C565F45 		.ascii	"LV_EVENT_LONG_PRESSED\000"
 14425      56454E54 
 14425      5F4C4F4E 
 14425      475F5052 
 14425      45535345 
 14426              	.LASF136:
 14427 0350 4C565F53 		.ascii	"LV_STYLE_BORDER_WIDTH\000"
 14427      54594C45 
 14427      5F424F52 
 14427      4445525F 
 14427      57494454 
 14428              	.LASF340:
 14429 0366 6C765F6F 		.ascii	"lv_obj_set_style_translate_y\000"
 14429      626A5F73 
 14429      65745F73 
 14429      74796C65 
 14429      5F747261 
 14430              	.LASF193:
 14431 0383 64656C61 		.ascii	"delay\000"
 14431      7900
 14432              	.LASF298:
 14433 0389 4C565F45 		.ascii	"LV_EVENT_CHILD_CREATED\000"
 14433      56454E54 
 14433      5F434849 
 14433      4C445F43 
 14433      52454154 
 14434              	.LASF118:
 14435 03a0 4C565F53 		.ascii	"LV_STYLE_PAD_COLUMN\000"
 14435      54594C45 
 14435      5F504144 
 14435      5F434F4C 
 14435      554D4E00 
 14436              	.LASF314:
 14437 03b4 6368696C 		.ascii	"children\000"
 14437      6472656E 
 14437      00
 14438              	.LASF128:
 14439 03bd 4C565F53 		.ascii	"LV_STYLE_BG_DITHER_MODE\000"
ARM GAS  C:\Users\haske\AppData\Local\Temp\cc0eRFVw.s 			page 269


 14439      54594C45 
 14439      5F42475F 
 14439      44495448 
 14439      45525F4D 
 14440              	.LASF1:
 14441 03d5 5F5F7569 		.ascii	"__uint8_t\000"
 14441      6E74385F 
 14441      7400
 14442              	.LASF218:
 14443 03df 775F6C61 		.ascii	"w_layout\000"
 14443      796F7574 
 14443      00
 14444              	.LASF372:
 14445 03e8 6C765F6F 		.ascii	"lv_obj_set_style_outline_pad\000"
 14445      626A5F73 
 14445      65745F73 
 14445      74796C65 
 14445      5F6F7574 
 14446              	.LASF112:
 14447 0405 4C565F53 		.ascii	"LV_STYLE_RADIUS\000"
 14447      54594C45 
 14447      5F524144 
 14447      49555300 
 14448              	.LASF341:
 14449 0415 6C765F6F 		.ascii	"lv_obj_set_style_transform_zoom\000"
 14449      626A5F73 
 14449      65745F73 
 14449      74796C65 
 14449      5F747261 
 14450              	.LASF214:
 14451 0435 7363725F 		.ascii	"scr_layout_inv\000"
 14451      6C61796F 
 14451      75745F69 
 14451      6E7600
 14452              	.LASF104:
 14453 0444 4C565F53 		.ascii	"LV_STYLE_MAX_WIDTH\000"
 14453      54594C45 
 14453      5F4D4158 
 14453      5F574944 
 14453      544800
 14454              	.LASF78:
 14455 0457 72756E5F 		.ascii	"run_round\000"
 14455      726F756E 
 14455      6400
 14456              	.LASF131:
 14457 0461 4C565F53 		.ascii	"LV_STYLE_BG_IMG_RECOLOR\000"
 14457      54594C45 
 14457      5F42475F 
 14457      494D475F 
 14457      5245434F 
 14458              	.LASF148:
 14459 0479 4C565F53 		.ascii	"LV_STYLE_SHADOW_OPA\000"
 14459      54594C45 
 14459      5F534841 
 14459      444F575F 
 14459      4F504100 
 14460              	.LASF179:
ARM GAS  C:\Users\haske\AppData\Local\Temp\cc0eRFVw.s 			page 270


 14461 048d 4C565F53 		.ascii	"LV_STYLE_TRANSFORM_HEIGHT\000"
 14461      54594C45 
 14461      5F545241 
 14461      4E53464F 
 14461      524D5F48 
 14462              	.LASF116:
 14463 04a7 4C565F53 		.ascii	"LV_STYLE_PAD_RIGHT\000"
 14463      54594C45 
 14463      5F504144 
 14463      5F524947 
 14463      485400
 14464              	.LASF263:
 14465 04ba 4C565F45 		.ascii	"LV_EVENT_ALL\000"
 14465      56454E54 
 14465      5F414C4C 
 14465      00
 14466              	.LASF9:
 14467 04c7 6C6F6E67 		.ascii	"long int\000"
 14467      20696E74 
 14467      00
 14468              	.LASF176:
 14469 04d0 4C565F53 		.ascii	"LV_STYLE_TRANSITION\000"
 14469      54594C45 
 14469      5F545241 
 14469      4E534954 
 14469      494F4E00 
 14470              	.LASF388:
 14471 04e4 6C765F6F 		.ascii	"lv_obj_set_style_arc_width\000"
 14471      626A5F73 
 14471      65745F73 
 14471      74796C65 
 14471      5F617263 
 14472              	.LASF337:
 14473 04ff 6C765F6F 		.ascii	"lv_obj_set_style_transform_width\000"
 14473      626A5F73 
 14473      65745F73 
 14473      74796C65 
 14473      5F747261 
 14474              	.LASF324:
 14475 0520 7363726F 		.ascii	"scroll_dir\000"
 14475      6C6C5F64 
 14475      697200
 14476              	.LASF251:
 14477 052b 67726F75 		.ascii	"group_def\000"
 14477      705F6465 
 14477      6600
 14478              	.LASF132:
 14479 0535 4C565F53 		.ascii	"LV_STYLE_BG_IMG_RECOLOR_OPA\000"
 14479      54594C45 
 14479      5F42475F 
 14479      494D475F 
 14479      5245434F 
 14480              	.LASF233:
 14481 0551 6C765F73 		.ascii	"lv_state_t\000"
 14481      74617465 
 14481      5F7400
 14482              	.LASF357:
ARM GAS  C:\Users\haske\AppData\Local\Temp\cc0eRFVw.s 			page 271


 14483 055c 6C765F6F 		.ascii	"lv_obj_set_style_bg_grad\000"
 14483      626A5F73 
 14483      65745F73 
 14483      74796C65 
 14483      5F62675F 
 14484              	.LASF228:
 14485 0575 65646765 		.ascii	"edge_cb\000"
 14485      5F636200 
 14486              	.LASF133:
 14487 057d 4C565F53 		.ascii	"LV_STYLE_BG_IMG_TILED\000"
 14487      54594C45 
 14487      5F42475F 
 14487      494D475F 
 14487      54494C45 
 14488              	.LASF389:
 14489 0593 6C765F6F 		.ascii	"lv_obj_set_style_arc_rounded\000"
 14489      626A5F73 
 14489      65745F73 
 14489      74796C65 
 14489      5F617263 
 14490              	.LASF221:
 14491 05b0 68656164 		.ascii	"head\000"
 14491      00
 14492              	.LASF135:
 14493 05b5 4C565F53 		.ascii	"LV_STYLE_BORDER_OPA\000"
 14493      54594C45 
 14493      5F424F52 
 14493      4445525F 
 14493      4F504100 
 14494              	.LASF353:
 14495 05c9 6C765F6F 		.ascii	"lv_obj_set_style_bg_grad_color\000"
 14495      626A5F73 
 14495      65745F73 
 14495      74796C65 
 14495      5F62675F 
 14496              	.LASF290:
 14497 05e8 4C565F45 		.ascii	"LV_EVENT_DRAW_PART_END\000"
 14497      56454E54 
 14497      5F445241 
 14497      575F5041 
 14497      52545F45 
 14498              	.LASF76:
 14499 05ff 6561726C 		.ascii	"early_apply\000"
 14499      795F6170 
 14499      706C7900 
 14500              	.LASF229:
 14501 060b 66726F7A 		.ascii	"frozen\000"
 14501      656E00
 14502              	.LASF352:
 14503 0612 6C765F6F 		.ascii	"lv_obj_set_style_bg_opa\000"
 14503      626A5F73 
 14503      65745F73 
 14503      74796C65 
 14503      5F62675F 
 14504              	.LASF147:
 14505 062a 4C565F53 		.ascii	"LV_STYLE_SHADOW_COLOR\000"
 14505      54594C45 
ARM GAS  C:\Users\haske\AppData\Local\Temp\cc0eRFVw.s 			page 272


 14505      5F534841 
 14505      444F575F 
 14505      434F4C4F 
 14506              	.LASF216:
 14507 0640 7374796C 		.ascii	"style_cnt\000"
 14507      655F636E 
 14507      7400
 14508              	.LASF213:
 14509 064a 6C61796F 		.ascii	"layout_inv\000"
 14509      75745F69 
 14509      6E7600
 14510              	.LASF2:
 14511 0655 7369676E 		.ascii	"signed char\000"
 14511      65642063 
 14511      68617200 
 14512              	.LASF16:
 14513 0661 75696E74 		.ascii	"uint8_t\000"
 14513      385F7400 
 14514              	.LASF373:
 14515 0669 6C765F6F 		.ascii	"lv_obj_set_style_shadow_width\000"
 14515      626A5F73 
 14515      65745F73 
 14515      74796C65 
 14515      5F736861 
 14516              	.LASF392:
 14517 0687 6C765F6F 		.ascii	"lv_obj_set_style_arc_img_src\000"
 14517      626A5F73 
 14517      65745F73 
 14517      74796C65 
 14517      5F617263 
 14518              	.LASF124:
 14519 06a4 4C565F53 		.ascii	"LV_STYLE_BG_GRAD_DIR\000"
 14519      54594C45 
 14519      5F42475F 
 14519      47524144 
 14519      5F444952 
 14520              	.LASF35:
 14521 06b9 6765745F 		.ascii	"get_glyph_bitmap\000"
 14521      676C7970 
 14521      685F6269 
 14521      746D6170 
 14521      00
 14522              	.LASF62:
 14523 06ca 73746172 		.ascii	"start_cb\000"
 14523      745F6362 
 14523      00
 14524              	.LASF346:
 14525 06d3 6C765F6F 		.ascii	"lv_obj_set_style_pad_bottom\000"
 14525      626A5F73 
 14525      65745F73 
 14525      74796C65 
 14525      5F706164 
 14526              	.LASF48:
 14527 06ef 626C7565 		.ascii	"blue\000"
 14527      00
 14528              	.LASF67:
 14529 06f4 73746172 		.ascii	"start_value\000"
ARM GAS  C:\Users\haske\AppData\Local\Temp\cc0eRFVw.s 			page 273


 14529      745F7661 
 14529      6C756500 
 14530              	.LASF110:
 14531 0700 4C565F53 		.ascii	"LV_STYLE_ALIGN\000"
 14531      54594C45 
 14531      5F414C49 
 14531      474E00
 14532              	.LASF3:
 14533 070f 756E7369 		.ascii	"unsigned char\000"
 14533      676E6564 
 14533      20636861 
 14533      7200
 14534              	.LASF307:
 14535 071d 4C565F45 		.ascii	"LV_EVENT_GET_SELF_SIZE\000"
 14535      56454E54 
 14535      5F474554 
 14535      5F53454C 
 14535      465F5349 
 14536              	.LASF284:
 14537 0734 4C565F45 		.ascii	"LV_EVENT_DRAW_MAIN\000"
 14537      56454E54 
 14537      5F445241 
 14537      575F4D41 
 14537      494E00
 14538              	.LASF348:
 14539 0747 6C765F6F 		.ascii	"lv_obj_set_style_pad_right\000"
 14539      626A5F73 
 14539      65745F73 
 14539      74796C65 
 14539      5F706164 
 14540              	.LASF184:
 14541 0762 4C565F53 		.ascii	"LV_STYLE_TRANSFORM_PIVOT_X\000"
 14541      54594C45 
 14541      5F545241 
 14541      4E53464F 
 14541      524D5F50 
 14542              	.LASF185:
 14543 077d 4C565F53 		.ascii	"LV_STYLE_TRANSFORM_PIVOT_Y\000"
 14543      54594C45 
 14543      5F545241 
 14543      4E53464F 
 14543      524D5F50 
 14544              	.LASF313:
 14545 0798 6C765F67 		.ascii	"lv_group_t\000"
 14545      726F7570 
 14545      5F7400
 14546              	.LASF327:
 14547 07a3 5F6C765F 		.ascii	"_lv_obj_spec_attr_t\000"
 14547      6F626A5F 
 14547      73706563 
 14547      5F617474 
 14547      725F7400 
 14548              	.LASF150:
 14549 07b7 4C565F53 		.ascii	"LV_STYLE_IMG_RECOLOR\000"
 14549      54594C45 
 14549      5F494D47 
 14549      5F524543 
ARM GAS  C:\Users\haske\AppData\Local\Temp\cc0eRFVw.s 			page 274


 14549      4F4C4F52 
 14550              	.LASF158:
 14551 07cc 4C565F53 		.ascii	"LV_STYLE_ARC_WIDTH\000"
 14551      54594C45 
 14551      5F415243 
 14551      5F574944 
 14551      544800
 14552              	.LASF31:
 14553 07df 6F66735F 		.ascii	"ofs_x\000"
 14553      7800
 14554              	.LASF32:
 14555 07e5 6F66735F 		.ascii	"ofs_y\000"
 14555      7900
 14556              	.LASF87:
 14557 07eb 6C765F62 		.ascii	"lv_base_dir_t\000"
 14557      6173655F 
 14557      6469725F 
 14557      7400
 14558              	.LASF217:
 14559 07f9 685F6C61 		.ascii	"h_layout\000"
 14559      796F7574 
 14559      00
 14560              	.LASF44:
 14561 0802 5F426F6F 		.ascii	"_Bool\000"
 14561      6C00
 14562              	.LASF321:
 14563 0808 7363726F 		.ascii	"scrollbar_mode\000"
 14563      6C6C6261 
 14563      725F6D6F 
 14563      646500
 14564              	.LASF180:
 14565 0817 4C565F53 		.ascii	"LV_STYLE_TRANSLATE_X\000"
 14565      54594C45 
 14565      5F545241 
 14565      4E534C41 
 14565      54455F58 
 14566              	.LASF181:
 14567 082c 4C565F53 		.ascii	"LV_STYLE_TRANSLATE_Y\000"
 14567      54594C45 
 14567      5F545241 
 14567      4E534C41 
 14567      54455F59 
 14568              	.LASF369:
 14569 0841 6C765F6F 		.ascii	"lv_obj_set_style_outline_width\000"
 14569      626A5F73 
 14569      65745F73 
 14569      74796C65 
 14569      5F6F7574 
 14570              	.LASF412:
 14571 0860 474E5520 		.ascii	"GNU C11 5.4.1 20160609 (release) [ARM/embedded-5-br"
 14571      43313120 
 14571      352E342E 
 14571      31203230 
 14571      31363036 
 14572 0893 616E6368 		.ascii	"anch revision 237715] -mcpu=cortex-m0plus -mthumb -"
 14572      20726576 
 14572      6973696F 
ARM GAS  C:\Users\haske\AppData\Local\Temp\cc0eRFVw.s 			page 275


 14572      6E203233 
 14572      37373135 
 14573 08c6 67202D4F 		.ascii	"g -Og -ffunction-sections -ffat-lto-objects\000"
 14573      67202D66 
 14573      66756E63 
 14573      74696F6E 
 14573      2D736563 
 14574              	.LASF260:
 14575 08f2 73746F70 		.ascii	"stop_processing\000"
 14575      5F70726F 
 14575      63657373 
 14575      696E6700 
 14576              	.LASF196:
 14577 0902 76616C75 		.ascii	"value\000"
 14577      6500
 14578              	.LASF211:
 14579 0908 666C6167 		.ascii	"flags\000"
 14579      7300
 14580              	.LASF259:
 14581 090e 64656C65 		.ascii	"deleted\000"
 14581      74656400 
 14582              	.LASF47:
 14583 0916 63686172 		.ascii	"char\000"
 14583      00
 14584              	.LASF80:
 14585 091b 6C765F61 		.ascii	"lv_anim_exec_xcb_t\000"
 14585      6E696D5F 
 14585      65786563 
 14585      5F786362 
 14585      5F7400
 14586              	.LASF358:
 14587 092e 6C765F6F 		.ascii	"lv_obj_set_style_bg_dither_mode\000"
 14587      626A5F73 
 14587      65745F73 
 14587      74796C65 
 14587      5F62675F 
 14588              	.LASF39:
 14589 094e 756E6465 		.ascii	"underline_position\000"
 14589      726C696E 
 14589      655F706F 
 14589      73697469 
 14589      6F6E00
 14590              	.LASF354:
 14591 0961 6C765F6F 		.ascii	"lv_obj_set_style_bg_grad_dir\000"
 14591      626A5F73 
 14591      65745F73 
 14591      74796C65 
 14591      5F62675F 
 14592              	.LASF374:
 14593 097e 6C765F6F 		.ascii	"lv_obj_set_style_shadow_ofs_x\000"
 14593      626A5F73 
 14593      65745F73 
 14593      74796C65 
 14593      5F736861 
 14594              	.LASF375:
 14595 099c 6C765F6F 		.ascii	"lv_obj_set_style_shadow_ofs_y\000"
 14595      626A5F73 
ARM GAS  C:\Users\haske\AppData\Local\Temp\cc0eRFVw.s 			page 276


 14595      65745F73 
 14595      74796C65 
 14595      5F736861 
 14596              	.LASF364:
 14597 09ba 6C765F6F 		.ascii	"lv_obj_set_style_border_color\000"
 14597      626A5F73 
 14597      65745F73 
 14597      74796C65 
 14597      5F626F72 
 14598              	.LASF281:
 14599 09d8 4C565F45 		.ascii	"LV_EVENT_COVER_CHECK\000"
 14599      56454E54 
 14599      5F434F56 
 14599      45525F43 
 14599      4845434B 
 14600              	.LASF119:
 14601 09ed 4C565F53 		.ascii	"LV_STYLE_BASE_DIR\000"
 14601      54594C45 
 14601      5F424153 
 14601      455F4449 
 14601      5200
 14602              	.LASF208:
 14603 09ff 73706563 		.ascii	"spec_attr\000"
 14603      5F617474 
 14603      7200
 14604              	.LASF141:
 14605 0a09 4C565F53 		.ascii	"LV_STYLE_OUTLINE_OPA\000"
 14605      54594C45 
 14605      5F4F5554 
 14605      4C494E45 
 14605      5F4F5041 
 14606              	.LASF97:
 14607 0a1e 73746F70 		.ascii	"stops_count\000"
 14607      735F636F 
 14607      756E7400 
 14608              	.LASF6:
 14609 0a2a 5F5F7569 		.ascii	"__uint16_t\000"
 14609      6E743136 
 14609      5F7400
 14610              	.LASF280:
 14611 0a35 4C565F45 		.ascii	"LV_EVENT_HIT_TEST\000"
 14611      56454E54 
 14611      5F484954 
 14611      5F544553 
 14611      5400
 14612              	.LASF396:
 14613 0a47 6C765F6F 		.ascii	"lv_obj_set_style_text_letter_space\000"
 14613      626A5F73 
 14613      65745F73 
 14613      74796C65 
 14613      5F746578 
 14614              	.LASF121:
 14615 0a6a 4C565F53 		.ascii	"LV_STYLE_BG_COLOR\000"
 14615      54594C45 
 14615      5F42475F 
 14615      434F4C4F 
 14615      5200
ARM GAS  C:\Users\haske\AppData\Local\Temp\cc0eRFVw.s 			page 277


 14616              	.LASF151:
 14617 0a7c 4C565F53 		.ascii	"LV_STYLE_IMG_RECOLOR_OPA\000"
 14617      54594C45 
 14617      5F494D47 
 14617      5F524543 
 14617      4F4C4F52 
 14618              	.LASF177:
 14619 0a95 4C565F53 		.ascii	"LV_STYLE_BLEND_MODE\000"
 14619      54594C45 
 14619      5F424C45 
 14619      4E445F4D 
 14619      4F444500 
 14620              	.LASF26:
 14621 0aa9 6C765F64 		.ascii	"lv_dir_t\000"
 14621      69725F74 
 14621      00
 14622              	.LASF302:
 14623 0ab2 4C565F45 		.ascii	"LV_EVENT_SCREEN_LOADED\000"
 14623      56454E54 
 14623      5F534352 
 14623      45454E5F 
 14623      4C4F4144 
 14624              	.LASF195:
 14625 0ac9 70726F70 		.ascii	"prop\000"
 14625      00
 14626              	.LASF200:
 14627 0ace 636F6E73 		.ascii	"const_props\000"
 14627      745F7072 
 14627      6F707300 
 14628              	.LASF395:
 14629 0ada 6C765F6F 		.ascii	"lv_obj_set_style_text_font\000"
 14629      626A5F73 
 14629      65745F73 
 14629      74796C65 
 14629      5F746578 
 14630              	.LASF242:
 14631 0af5 5F6C765F 		.ascii	"_lv_obj_style_t\000"
 14631      6F626A5F 
 14631      7374796C 
 14631      655F7400 
 14632              	.LASF317:
 14633 0b05 6576656E 		.ascii	"event_dsc\000"
 14633      745F6473 
 14633      6300
 14634              	.LASF355:
 14635 0b0f 6C765F6F 		.ascii	"lv_obj_set_style_bg_main_stop\000"
 14635      626A5F73 
 14635      65745F73 
 14635      74796C65 
 14635      5F62675F 
 14636              	.LASF410:
 14637 0b2d 6C765F6F 		.ascii	"lv_obj_set_style_layout\000"
 14637      626A5F73 
 14637      65745F73 
 14637      74796C65 
 14637      5F6C6179 
 14638              	.LASF153:
ARM GAS  C:\Users\haske\AppData\Local\Temp\cc0eRFVw.s 			page 278


 14639 0b45 4C565F53 		.ascii	"LV_STYLE_LINE_DASH_WIDTH\000"
 14639      54594C45 
 14639      5F4C494E 
 14639      455F4441 
 14639      53485F57 
 14640              	.LASF63:
 14641 0b5e 72656164 		.ascii	"ready_cb\000"
 14641      795F6362 
 14641      00
 14642              	.LASF178:
 14643 0b67 4C565F53 		.ascii	"LV_STYLE_TRANSFORM_WIDTH\000"
 14643      54594C45 
 14643      5F545241 
 14643      4E53464F 
 14643      524D5F57 
 14644              	.LASF316:
 14645 0b80 67726F75 		.ascii	"group_p\000"
 14645      705F7000 
 14646              	.LASF190:
 14647 0b88 6C765F73 		.ascii	"lv_style_prop_t\000"
 14647      74796C65 
 14647      5F70726F 
 14647      705F7400 
 14648              	.LASF192:
 14649 0b98 70617468 		.ascii	"path_xcb\000"
 14649      5F786362 
 14649      00
 14650              	.LASF318:
 14651 0ba1 7363726F 		.ascii	"scroll\000"
 14651      6C6C00
 14652              	.LASF41:
 14653 0ba8 66616C6C 		.ascii	"fallback\000"
 14653      6261636B 
 14653      00
 14654              	.LASF199:
 14655 0bb1 76616C75 		.ascii	"values_and_props\000"
 14655      65735F61 
 14655      6E645F70 
 14655      726F7073 
 14655      00
 14656              	.LASF54:
 14657 0bc2 6C765F63 		.ascii	"lv_color_filter_cb_t\000"
 14657      6F6C6F72 
 14657      5F66696C 
 14657      7465725F 
 14657      63625F74 
 14658              	.LASF326:
 14659 0bd7 6C617965 		.ascii	"layer_type\000"
 14659      725F7479 
 14659      706500
 14660              	.LASF401:
 14661 0be2 6C765F6F 		.ascii	"lv_obj_set_style_clip_corner\000"
 14661      626A5F73 
 14661      65745F73 
 14661      74796C65 
 14661      5F636C69 
 14662              	.LASF175:
ARM GAS  C:\Users\haske\AppData\Local\Temp\cc0eRFVw.s 			page 279


 14663 0bff 4C565F53 		.ascii	"LV_STYLE_ANIM_SPEED\000"
 14663      54594C45 
 14663      5F414E49 
 14663      4D5F5350 
 14663      45454400 
 14664              	.LASF24:
 14665 0c13 6C765F61 		.ascii	"lv_area_t\000"
 14665      7265615F 
 14665      7400
 14666              	.LASF139:
 14667 0c1d 4C565F53 		.ascii	"LV_STYLE_OUTLINE_WIDTH\000"
 14667      54594C45 
 14667      5F4F5554 
 14667      4C494E45 
 14667      5F574944 
 14668              	.LASF320:
 14669 0c34 6578745F 		.ascii	"ext_draw_size\000"
 14669      64726177 
 14669      5F73697A 
 14669      6500
 14670              	.LASF382:
 14671 0c42 6C765F6F 		.ascii	"lv_obj_set_style_line_width\000"
 14671      626A5F73 
 14671      65745F73 
 14671      74796C65 
 14671      5F6C696E 
 14672              	.LASF312:
 14673 0c5e 6C765F67 		.ascii	"lv_group_edge_cb_t\000"
 14673      726F7570 
 14673      5F656467 
 14673      655F6362 
 14673      5F7400
 14674              	.LASF376:
 14675 0c71 6C765F6F 		.ascii	"lv_obj_set_style_shadow_spread\000"
 14675      626A5F73 
 14675      65745F73 
 14675      74796C65 
 14675      5F736861 
 14676              	.LASF270:
 14677 0c90 4C565F45 		.ascii	"LV_EVENT_CLICKED\000"
 14677      56454E54 
 14677      5F434C49 
 14677      434B4544 
 14677      00
 14678              	.LASF101:
 14679 0ca1 4C565F53 		.ascii	"LV_STYLE_PROP_INV\000"
 14679      54594C45 
 14679      5F50524F 
 14679      505F494E 
 14679      5600
 14680              	.LASF167:
 14681 0cb3 4C565F53 		.ascii	"LV_STYLE_TEXT_LINE_SPACE\000"
 14681      54594C45 
 14681      5F544558 
 14681      545F4C49 
 14681      4E455F53 
 14682              	.LASF262:
ARM GAS  C:\Users\haske\AppData\Local\Temp\cc0eRFVw.s 			page 280


 14683 0ccc 6C765F6F 		.ascii	"lv_obj_class_t\000"
 14683      626A5F63 
 14683      6C617373 
 14683      5F7400
 14684              	.LASF197:
 14685 0cdb 6C765F73 		.ascii	"lv_style_const_prop_t\000"
 14685      74796C65 
 14685      5F636F6E 
 14685      73745F70 
 14685      726F705F 
 14686              	.LASF285:
 14687 0cf1 4C565F45 		.ascii	"LV_EVENT_DRAW_MAIN_END\000"
 14687      56454E54 
 14687      5F445241 
 14687      575F4D41 
 14687      494E5F45 
 14688              	.LASF359:
 14689 0d08 6C765F6F 		.ascii	"lv_obj_set_style_bg_img_src\000"
 14689      626A5F73 
 14689      65745F73 
 14689      74796C65 
 14689      5F62675F 
 14690              	.LASF207:
 14691 0d24 70617265 		.ascii	"parent\000"
 14691      6E7400
 14692              	.LASF81:
 14693 0d2b 6C765F61 		.ascii	"lv_anim_ready_cb_t\000"
 14693      6E696D5F 
 14693      72656164 
 14693      795F6362 
 14693      5F7400
 14694              	.LASF241:
 14695 0d3e 69735F74 		.ascii	"is_trans\000"
 14695      72616E73 
 14695      00
 14696              	.LASF329:
 14697 0d47 6C765F6F 		.ascii	"lv_obj_set_style_min_width\000"
 14697      626A5F73 
 14697      65745F73 
 14697      74796C65 
 14697      5F6D696E 
 14698              	.LASF174:
 14699 0d62 4C565F53 		.ascii	"LV_STYLE_ANIM_TIME\000"
 14699      54594C45 
 14699      5F414E49 
 14699      4D5F5449 
 14699      4D4500
 14700              	.LASF72:
 14701 0d75 706C6179 		.ascii	"playback_delay\000"
 14701      6261636B 
 14701      5F64656C 
 14701      617900
 14702              	.LASF114:
 14703 0d84 4C565F53 		.ascii	"LV_STYLE_PAD_BOTTOM\000"
 14703      54594C45 
 14703      5F504144 
 14703      5F424F54 
ARM GAS  C:\Users\haske\AppData\Local\Temp\cc0eRFVw.s 			page 281


 14703      544F4D00 
 14704              	.LASF248:
 14705 0d98 77696474 		.ascii	"width_def\000"
 14705      685F6465 
 14705      6600
 14706              	.LASF333:
 14707 0da2 6C765F6F 		.ascii	"lv_obj_set_style_max_height\000"
 14707      626A5F73 
 14707      65745F73 
 14707      74796C65 
 14707      5F6D6178 
 14708              	.LASF362:
 14709 0dbe 6C765F6F 		.ascii	"lv_obj_set_style_bg_img_recolor_opa\000"
 14709      626A5F73 
 14709      65745F73 
 14709      74796C65 
 14709      5F62675F 
 14710              	.LASF122:
 14711 0de2 4C565F53 		.ascii	"LV_STYLE_BG_OPA\000"
 14711      54594C45 
 14711      5F42475F 
 14711      4F504100 
 14712              	.LASF157:
 14713 0df2 4C565F53 		.ascii	"LV_STYLE_LINE_OPA\000"
 14713      54594C45 
 14713      5F4C494E 
 14713      455F4F50 
 14713      4100
 14714              	.LASF204:
 14715 0e04 6C765F73 		.ascii	"lv_style_t\000"
 14715      74796C65 
 14715      5F7400
 14716              	.LASF209:
 14717 0e0f 7374796C 		.ascii	"styles\000"
 14717      657300
 14718              	.LASF88:
 14719 0e16 6C765F62 		.ascii	"lv_blend_mode_t\000"
 14719      6C656E64 
 14719      5F6D6F64 
 14719      655F7400 
 14720              	.LASF315:
 14721 0e26 6368696C 		.ascii	"child_cnt\000"
 14721      645F636E 
 14721      7400
 14722              	.LASF149:
 14723 0e30 4C565F53 		.ascii	"LV_STYLE_IMG_OPA\000"
 14723      54594C45 
 14723      5F494D47 
 14723      5F4F5041 
 14723      00
 14724              	.LASF182:
 14725 0e41 4C565F53 		.ascii	"LV_STYLE_TRANSFORM_ZOOM\000"
 14725      54594C45 
 14725      5F545241 
 14725      4E53464F 
 14725      524D5F5A 
 14726              	.LASF279:
ARM GAS  C:\Users\haske\AppData\Local\Temp\cc0eRFVw.s 			page 282


 14727 0e59 4C565F45 		.ascii	"LV_EVENT_LEAVE\000"
 14727      56454E54 
 14727      5F4C4541 
 14727      564500
 14728              	.LASF85:
 14729 0e68 6C765F61 		.ascii	"lv_anim_t\000"
 14729      6E696D5F 
 14729      7400
 14730              	.LASF11:
 14731 0e72 6C6F6E67 		.ascii	"long unsigned int\000"
 14731      20756E73 
 14731      69676E65 
 14731      6420696E 
 14731      7400
 14732              	.LASF371:
 14733 0e84 6C765F6F 		.ascii	"lv_obj_set_style_outline_opa\000"
 14733      626A5F73 
 14733      65745F73 
 14733      74796C65 
 14733      5F6F7574 
 14734              	.LASF323:
 14735 0ea1 7363726F 		.ascii	"scroll_snap_y\000"
 14735      6C6C5F73 
 14735      6E61705F 
 14735      7900
 14736              	.LASF164:
 14737 0eaf 4C565F53 		.ascii	"LV_STYLE_TEXT_OPA\000"
 14737      54594C45 
 14737      5F544558 
 14737      545F4F50 
 14737      4100
 14738              	.LASF381:
 14739 0ec1 6C765F6F 		.ascii	"lv_obj_set_style_img_recolor_opa\000"
 14739      626A5F73 
 14739      65745F73 
 14739      74796C65 
 14739      5F696D67 
 14740              	.LASF257:
 14741 0ee2 70617261 		.ascii	"param\000"
 14741      6D00
 14742              	.LASF254:
 14743 0ee8 74617267 		.ascii	"target\000"
 14743      657400
 14744              	.LASF360:
 14745 0eef 6C765F6F 		.ascii	"lv_obj_set_style_bg_img_opa\000"
 14745      626A5F73 
 14745      65745F73 
 14745      74796C65 
 14745      5F62675F 
 14746              	.LASF342:
 14747 0f0b 6C765F6F 		.ascii	"lv_obj_set_style_transform_angle\000"
 14747      626A5F73 
 14747      65745F73 
 14747      74796C65 
 14747      5F747261 
 14748              	.LASF250:
 14749 0f2c 65646974 		.ascii	"editable\000"
ARM GAS  C:\Users\haske\AppData\Local\Temp\cc0eRFVw.s 			page 283


 14749      61626C65 
 14749      00
 14750              	.LASF27:
 14751 0f35 7265736F 		.ascii	"resolved_font\000"
 14751      6C766564 
 14751      5F666F6E 
 14751      7400
 14752              	.LASF225:
 14753 0f43 6F626A5F 		.ascii	"obj_ll\000"
 14753      6C6C00
 14754              	.LASF156:
 14755 0f4a 4C565F53 		.ascii	"LV_STYLE_LINE_COLOR\000"
 14755      54594C45 
 14755      5F4C494E 
 14755      455F434F 
 14755      4C4F5200 
 14756              	.LASF328:
 14757 0f5e 6C765F6F 		.ascii	"lv_obj_set_style_width\000"
 14757      626A5F73 
 14757      65745F73 
 14757      74796C65 
 14757      5F776964 
 14758              	.LASF117:
 14759 0f75 4C565F53 		.ascii	"LV_STYLE_PAD_ROW\000"
 14759      54594C45 
 14759      5F504144 
 14759      5F524F57 
 14759      00
 14760              	.LASF79:
 14761 0f86 73746172 		.ascii	"start_cb_called\000"
 14761      745F6362 
 14761      5F63616C 
 14761      6C656400 
 14762              	.LASF293:
 14763 0f96 4C565F45 		.ascii	"LV_EVENT_REFRESH\000"
 14763      56454E54 
 14763      5F524546 
 14763      52455348 
 14763      00
 14764              	.LASF252:
 14765 0fa7 696E7374 		.ascii	"instance_size\000"
 14765      616E6365 
 14765      5F73697A 
 14765      6500
 14766              	.LASF115:
 14767 0fb5 4C565F53 		.ascii	"LV_STYLE_PAD_LEFT\000"
 14767      54594C45 
 14767      5F504144 
 14767      5F4C4546 
 14767      5400
 14768              	.LASF145:
 14769 0fc7 4C565F53 		.ascii	"LV_STYLE_SHADOW_OFS_Y\000"
 14769      54594C45 
 14769      5F534841 
 14769      444F575F 
 14769      4F46535F 
 14770              	.LASF299:
ARM GAS  C:\Users\haske\AppData\Local\Temp\cc0eRFVw.s 			page 284


 14771 0fdd 4C565F45 		.ascii	"LV_EVENT_CHILD_DELETED\000"
 14771      56454E54 
 14771      5F434849 
 14771      4C445F44 
 14771      454C4554 
 14772              	.LASF282:
 14773 0ff4 4C565F45 		.ascii	"LV_EVENT_REFR_EXT_DRAW_SIZE\000"
 14773      56454E54 
 14773      5F524546 
 14773      525F4558 
 14773      545F4452 
 14774              	.LASF173:
 14775 1010 4C565F53 		.ascii	"LV_STYLE_ANIM\000"
 14775      54594C45 
 14775      5F414E49 
 14775      4D00
 14776              	.LASF108:
 14777 101e 4C565F53 		.ascii	"LV_STYLE_X\000"
 14777      54594C45 
 14777      5F5800
 14778              	.LASF169:
 14779 1029 4C565F53 		.ascii	"LV_STYLE_TEXT_ALIGN\000"
 14779      54594C45 
 14779      5F544558 
 14779      545F414C 
 14779      49474E00 
 14780              	.LASF407:
 14781 103d 6C765F6F 		.ascii	"lv_obj_set_style_anim_speed\000"
 14781      626A5F73 
 14781      65745F73 
 14781      74796C65 
 14781      5F616E69 
 14782              	.LASF335:
 14783 1059 6C765F6F 		.ascii	"lv_obj_set_style_y\000"
 14783      626A5F73 
 14783      65745F73 
 14783      74796C65 
 14783      5F7900
 14784              	.LASF55:
 14785 106c 5F6C765F 		.ascii	"_lv_font_t\000"
 14785      666F6E74 
 14785      5F7400
 14786              	.LASF10:
 14787 1077 5F5F7569 		.ascii	"__uint32_t\000"
 14787      6E743332 
 14787      5F7400
 14788              	.LASF247:
 14789 1082 6576656E 		.ascii	"event_cb\000"
 14789      745F6362 
 14789      00
 14790              	.LASF310:
 14791 108b 6C765F65 		.ascii	"lv_event_code_t\000"
 14791      76656E74 
 14791      5F636F64 
 14791      655F7400 
 14792              	.LASF89:
 14793 109b 6C765F74 		.ascii	"lv_text_decor_t\000"
ARM GAS  C:\Users\haske\AppData\Local\Temp\cc0eRFVw.s 			page 285


 14793      6578745F 
 14793      6465636F 
 14793      725F7400 
 14794              	.LASF253:
 14795 10ab 5F6C765F 		.ascii	"_lv_event_t\000"
 14795      6576656E 
 14795      745F7400 
 14796              	.LASF12:
 14797 10b7 6C6F6E67 		.ascii	"long long int\000"
 14797      206C6F6E 
 14797      6720696E 
 14797      7400
 14798              	.LASF188:
 14799 10c5 4C565F53 		.ascii	"LV_STYLE_PROP_ANY\000"
 14799      54594C45 
 14799      5F50524F 
 14799      505F414E 
 14799      5900
 14800              	.LASF339:
 14801 10d7 6C765F6F 		.ascii	"lv_obj_set_style_translate_x\000"
 14801      626A5F73 
 14801      65745F73 
 14801      74796C65 
 14801      5F747261 
 14802              	.LASF274:
 14803 10f4 4C565F45 		.ascii	"LV_EVENT_SCROLL\000"
 14803      56454E54 
 14803      5F534352 
 14803      4F4C4C00 
 14804              	.LASF363:
 14805 1104 6C765F6F 		.ascii	"lv_obj_set_style_bg_img_tiled\000"
 14805      626A5F73 
 14805      65745F73 
 14805      74796C65 
 14805      5F62675F 
 14806              	.LASF183:
 14807 1122 4C565F53 		.ascii	"LV_STYLE_TRANSFORM_ANGLE\000"
 14807      54594C45 
 14807      5F545241 
 14807      4E53464F 
 14807      524D5F41 
 14808              	.LASF171:
 14809 113b 4C565F53 		.ascii	"LV_STYLE_COLOR_FILTER_DSC\000"
 14809      54594C45 
 14809      5F434F4C 
 14809      4F525F46 
 14809      494C5445 
 14810              	.LASF86:
 14811 1155 6C765F74 		.ascii	"lv_text_align_t\000"
 14811      6578745F 
 14811      616C6967 
 14811      6E5F7400 
 14812              	.LASF350:
 14813 1165 6C765F6F 		.ascii	"lv_obj_set_style_pad_column\000"
 14813      626A5F73 
 14813      65745F73 
 14813      74796C65 
ARM GAS  C:\Users\haske\AppData\Local\Temp\cc0eRFVw.s 			page 286


 14813      5F706164 
 14814              	.LASF40:
 14815 1181 756E6465 		.ascii	"underline_thickness\000"
 14815      726C696E 
 14815      655F7468 
 14815      69636B6E 
 14815      65737300 
 14816              	.LASF168:
 14817 1195 4C565F53 		.ascii	"LV_STYLE_TEXT_DECOR\000"
 14817      54594C45 
 14817      5F544558 
 14817      545F4445 
 14817      434F5200 
 14818              	.LASF159:
 14819 11a9 4C565F53 		.ascii	"LV_STYLE_ARC_ROUNDED\000"
 14819      54594C45 
 14819      5F415243 
 14819      5F524F55 
 14819      4E444544 
 14820              	.LASF215:
 14821 11be 736B6970 		.ascii	"skip_trans\000"
 14821      5F747261 
 14821      6E7300
 14822              	.LASF406:
 14823 11c9 6C765F6F 		.ascii	"lv_obj_set_style_anim_time\000"
 14823      626A5F73 
 14823      65745F73 
 14823      74796C65 
 14823      5F616E69 
 14824              	.LASF163:
 14825 11e4 4C565F53 		.ascii	"LV_STYLE_TEXT_COLOR\000"
 14825      54594C45 
 14825      5F544558 
 14825      545F434F 
 14825      4C4F5200 
 14826              	.LASF296:
 14827 11f8 4C565F45 		.ascii	"LV_EVENT_DELETE\000"
 14827      56454E54 
 14827      5F44454C 
 14827      45544500 
 14828              	.LASF206:
 14829 1208 636C6173 		.ascii	"class_p\000"
 14829      735F7000 
 14830              	.LASF68:
 14831 1210 63757272 		.ascii	"current_value\000"
 14831      656E745F 
 14831      76616C75 
 14831      6500
 14832              	.LASF14:
 14833 121e 756E7369 		.ascii	"unsigned int\000"
 14833      676E6564 
 14833      20696E74 
 14833      00
 14834              	.LASF59:
 14835 122b 6C765F61 		.ascii	"lv_anim_path_cb_t\000"
 14835      6E696D5F 
 14835      70617468 
ARM GAS  C:\Users\haske\AppData\Local\Temp\cc0eRFVw.s 			page 287


 14835      5F63625F 
 14835      7400
 14836              	.LASF84:
 14837 123d 6C765F61 		.ascii	"lv_anim_deleted_cb_t\000"
 14837      6E696D5F 
 14837      64656C65 
 14837      7465645F 
 14837      63625F74 
 14838              	.LASF100:
 14839 1252 6C765F73 		.ascii	"lv_style_value_t\000"
 14839      74796C65 
 14839      5F76616C 
 14839      75655F74 
 14839      00
 14840              	.LASF386:
 14841 1263 6C765F6F 		.ascii	"lv_obj_set_style_line_color\000"
 14841      626A5F73 
 14841      65745F73 
 14841      74796C65 
 14841      5F6C696E 
 14842              	.LASF347:
 14843 127f 6C765F6F 		.ascii	"lv_obj_set_style_pad_left\000"
 14843      626A5F73 
 14843      65745F73 
 14843      74796C65 
 14843      5F706164 
 14844              	.LASF189:
 14845 1299 5F4C565F 		.ascii	"_LV_STYLE_PROP_CONST\000"
 14845      5354594C 
 14845      455F5052 
 14845      4F505F43 
 14845      4F4E5354 
 14846              	.LASF368:
 14847 12ae 6C765F6F 		.ascii	"lv_obj_set_style_border_post\000"
 14847      626A5F73 
 14847      65745F73 
 14847      74796C65 
 14847      5F626F72 
 14848              	.LASF349:
 14849 12cb 6C765F6F 		.ascii	"lv_obj_set_style_pad_row\000"
 14849      626A5F73 
 14849      65745F73 
 14849      74796C65 
 14849      5F706164 
 14850              	.LASF291:
 14851 12e4 4C565F45 		.ascii	"LV_EVENT_VALUE_CHANGED\000"
 14851      56454E54 
 14851      5F56414C 
 14851      55455F43 
 14851      48414E47 
 14852              	.LASF277:
 14853 12fb 4C565F45 		.ascii	"LV_EVENT_FOCUSED\000"
 14853      56454E54 
 14853      5F464F43 
 14853      55534544 
 14853      00
 14854              	.LASF380:
ARM GAS  C:\Users\haske\AppData\Local\Temp\cc0eRFVw.s 			page 288


 14855 130c 6C765F6F 		.ascii	"lv_obj_set_style_img_recolor\000"
 14855      626A5F73 
 14855      65745F73 
 14855      74796C65 
 14855      5F696D67 
 14856              	.LASF411:
 14857 1329 6C765F6F 		.ascii	"lv_obj_set_style_base_dir\000"
 14857      626A5F73 
 14857      65745F73 
 14857      74796C65 
 14857      5F626173 
 14858              	.LASF399:
 14859 1343 6C765F6F 		.ascii	"lv_obj_set_style_text_align\000"
 14859      626A5F73 
 14859      65745F73 
 14859      74796C65 
 14859      5F746578 
 14860              	.LASF111:
 14861 135f 4C565F53 		.ascii	"LV_STYLE_LAYOUT\000"
 14861      54594C45 
 14861      5F4C4159 
 14861      4F555400 
 14862              	.LASF43:
 14863 136f 6C765F66 		.ascii	"lv_font_glyph_dsc_t\000"
 14863      6F6E745F 
 14863      676C7970 
 14863      685F6473 
 14863      635F7400 
 14864              	.LASF301:
 14865 1383 4C565F45 		.ascii	"LV_EVENT_SCREEN_LOAD_START\000"
 14865      56454E54 
 14865      5F534352 
 14865      45454E5F 
 14865      4C4F4144 
 14866              	.LASF261:
 14867 139e 73746F70 		.ascii	"stop_bubbling\000"
 14867      5F627562 
 14867      626C696E 
 14867      6700
 14868              	.LASF143:
 14869 13ac 4C565F53 		.ascii	"LV_STYLE_SHADOW_WIDTH\000"
 14869      54594C45 
 14869      5F534841 
 14869      444F575F 
 14869      57494454 
 14870              	.LASF265:
 14871 13c2 4C565F45 		.ascii	"LV_EVENT_PRESSING\000"
 14871      56454E54 
 14871      5F505245 
 14871      5353494E 
 14871      4700
 14872              	.LASF120:
 14873 13d4 4C565F53 		.ascii	"LV_STYLE_CLIP_CORNER\000"
 14873      54594C45 
 14873      5F434C49 
 14873      505F434F 
 14873      524E4552 
ARM GAS  C:\Users\haske\AppData\Local\Temp\cc0eRFVw.s 			page 289


 14874              	.LASF384:
 14875 13e9 6C765F6F 		.ascii	"lv_obj_set_style_line_dash_gap\000"
 14875      626A5F73 
 14875      65745F73 
 14875      74796C65 
 14875      5F6C696E 
 14876              	.LASF244:
 14877 1408 62617365 		.ascii	"base_class\000"
 14877      5F636C61 
 14877      737300
 14878              	.LASF267:
 14879 1413 4C565F45 		.ascii	"LV_EVENT_SHORT_CLICKED\000"
 14879      56454E54 
 14879      5F53484F 
 14879      52545F43 
 14879      4C49434B 
 14880              	.LASF74:
 14881 142a 72657065 		.ascii	"repeat_delay\000"
 14881      61745F64 
 14881      656C6179 
 14881      00
 14882              	.LASF367:
 14883 1437 6C765F6F 		.ascii	"lv_obj_set_style_border_side\000"
 14883      626A5F73 
 14883      65745F73 
 14883      74796C65 
 14883      5F626F72 
 14884              	.LASF269:
 14885 1454 4C565F45 		.ascii	"LV_EVENT_LONG_PRESSED_REPEAT\000"
 14885      56454E54 
 14885      5F4C4F4E 
 14885      475F5052 
 14885      45535345 
 14886              	.LASF227:
 14887 1471 666F6375 		.ascii	"focus_cb\000"
 14887      735F6362 
 14887      00
 14888              	.LASF65:
 14889 147a 6765745F 		.ascii	"get_value_cb\000"
 14889      76616C75 
 14889      655F6362 
 14889      00
 14890              	.LASF194:
 14891 1487 6C765F73 		.ascii	"lv_style_transition_dsc_t\000"
 14891      74796C65 
 14891      5F747261 
 14891      6E736974 
 14891      696F6E5F 
 14892              	.LASF172:
 14893 14a1 4C565F53 		.ascii	"LV_STYLE_COLOR_FILTER_OPA\000"
 14893      54594C45 
 14893      5F434F4C 
 14893      4F525F46 
 14893      494C5445 
 14894              	.LASF21:
 14895 14bb 6C6F6E67 		.ascii	"long double\000"
 14895      20646F75 
ARM GAS  C:\Users\haske\AppData\Local\Temp\cc0eRFVw.s 			page 290


 14895      626C6500 
 14896              	.LASF238:
 14897 14c7 7374796C 		.ascii	"style\000"
 14897      6500
 14898              	.LASF92:
 14899 14cd 6C765F64 		.ascii	"lv_dither_mode_t\000"
 14899      69746865 
 14899      725F6D6F 
 14899      64655F74 
 14899      00
 14900              	.LASF236:
 14901 14de 6C765F73 		.ascii	"lv_scroll_snap_t\000"
 14901      63726F6C 
 14901      6C5F736E 
 14901      61705F74 
 14901      00
 14902              	.LASF256:
 14903 14ef 636F6465 		.ascii	"code\000"
 14903      00
 14904              	.LASF38:
 14905 14f4 73756270 		.ascii	"subpx\000"
 14905      7800
 14906              	.LASF398:
 14907 14fa 6C765F6F 		.ascii	"lv_obj_set_style_text_decor\000"
 14907      626A5F73 
 14907      65745F73 
 14907      74796C65 
 14907      5F746578 
 14908              	.LASF75:
 14909 1516 72657065 		.ascii	"repeat_cnt\000"
 14909      61745F63 
 14909      6E7400
 14910              	.LASF361:
 14911 1521 6C765F6F 		.ascii	"lv_obj_set_style_bg_img_recolor\000"
 14911      626A5F73 
 14911      65745F73 
 14911      74796C65 
 14911      5F62675F 
 14912              	.LASF264:
 14913 1541 4C565F45 		.ascii	"LV_EVENT_PRESSED\000"
 14913      56454E54 
 14913      5F505245 
 14913      53534544 
 14913      00
 14914              	.LASF295:
 14915 1552 4C565F45 		.ascii	"LV_EVENT_CANCEL\000"
 14915      56454E54 
 14915      5F43414E 
 14915      43454C00 
 14916              	.LASF134:
 14917 1562 4C565F53 		.ascii	"LV_STYLE_BORDER_COLOR\000"
 14917      54594C45 
 14917      5F424F52 
 14917      4445525F 
 14917      434F4C4F 
 14918              	.LASF393:
 14919 1578 6C765F6F 		.ascii	"lv_obj_set_style_text_color\000"
ARM GAS  C:\Users\haske\AppData\Local\Temp\cc0eRFVw.s 			page 291


 14919      626A5F73 
 14919      65745F73 
 14919      74796C65 
 14919      5F746578 
 14920              	.LASF0:
 14921 1594 5F5F696E 		.ascii	"__int8_t\000"
 14921      74385F74 
 14921      00
 14922              	.LASF308:
 14923 159d 5F4C565F 		.ascii	"_LV_EVENT_LAST\000"
 14923      4556454E 
 14923      545F4C41 
 14923      535400
 14924              	.LASF230:
 14925 15ac 65646974 		.ascii	"editing\000"
 14925      696E6700 
 14926              	.LASF390:
 14927 15b4 6C765F6F 		.ascii	"lv_obj_set_style_arc_color\000"
 14927      626A5F73 
 14927      65745F73 
 14927      74796C65 
 14927      5F617263 
 14928              	.LASF13:
 14929 15cf 6C6F6E67 		.ascii	"long long unsigned int\000"
 14929      206C6F6E 
 14929      6720756E 
 14929      7369676E 
 14929      65642069 
 14930              	.LASF303:
 14931 15e6 4C565F45 		.ascii	"LV_EVENT_SCREEN_UNLOADED\000"
 14931      56454E54 
 14931      5F534352 
 14931      45454E5F 
 14931      554E4C4F 
 14932              	.LASF126:
 14933 15ff 4C565F53 		.ascii	"LV_STYLE_BG_GRAD_STOP\000"
 14933      54594C45 
 14933      5F42475F 
 14933      47524144 
 14933      5F53544F 
 14934              	.LASF137:
 14935 1615 4C565F53 		.ascii	"LV_STYLE_BORDER_SIDE\000"
 14935      54594C45 
 14935      5F424F52 
 14935      4445525F 
 14935      53494445 
 14936              	.LASF311:
 14937 162a 6C765F67 		.ascii	"lv_group_focus_cb_t\000"
 14937      726F7570 
 14937      5F666F63 
 14937      75735F63 
 14937      625F7400 
 14938              	.LASF243:
 14939 163e 5F6C765F 		.ascii	"_lv_obj_class_t\000"
 14939      6F626A5F 
 14939      636C6173 
 14939      735F7400 
ARM GAS  C:\Users\haske\AppData\Local\Temp\cc0eRFVw.s 			page 292


 14940              	.LASF18:
 14941 164e 75696E74 		.ascii	"uint16_t\000"
 14941      31365F74 
 14941      00
 14942              	.LASF69:
 14943 1657 656E645F 		.ascii	"end_value\000"
 14943      76616C75 
 14943      6500
 14944              	.LASF332:
 14945 1661 6C765F6F 		.ascii	"lv_obj_set_style_min_height\000"
 14945      626A5F73 
 14945      65745F73 
 14945      74796C65 
 14945      5F6D696E 
 14946              	.LASF232:
 14947 167d 77726170 		.ascii	"wrap\000"
 14947      00
 14948              	.LASF52:
 14949 1682 6C765F63 		.ascii	"lv_color_t\000"
 14949      6F6C6F72 
 14949      5F7400
 14950              	.LASF286:
 14951 168d 4C565F45 		.ascii	"LV_EVENT_DRAW_POST_BEGIN\000"
 14951      56454E54 
 14951      5F445241 
 14951      575F504F 
 14951      53545F42 
 14952              	.LASF387:
 14953 16a6 6C765F6F 		.ascii	"lv_obj_set_style_line_opa\000"
 14953      626A5F73 
 14953      65745F73 
 14953      74796C65 
 14953      5F6C696E 
 14954              	.LASF102:
 14955 16c0 4C565F53 		.ascii	"LV_STYLE_WIDTH\000"
 14955      54594C45 
 14955      5F574944 
 14955      544800
 14956              	.LASF103:
 14957 16cf 4C565F53 		.ascii	"LV_STYLE_MIN_WIDTH\000"
 14957      54594C45 
 14957      5F4D494E 
 14957      5F574944 
 14957      544800
 14958              	.LASF144:
 14959 16e2 4C565F53 		.ascii	"LV_STYLE_SHADOW_OFS_X\000"
 14959      54594C45 
 14959      5F534841 
 14959      444F575F 
 14959      4F46535F 
 14960              	.LASF61:
 14961 16f8 65786563 		.ascii	"exec_cb\000"
 14961      5F636200 
 14962              	.LASF334:
 14963 1700 6C765F6F 		.ascii	"lv_obj_set_style_x\000"
 14963      626A5F73 
 14963      65745F73 
ARM GAS  C:\Users\haske\AppData\Local\Temp\cc0eRFVw.s 			page 293


 14963      74796C65 
 14963      5F7800
 14964              	.LASF129:
 14965 1713 4C565F53 		.ascii	"LV_STYLE_BG_IMG_SRC\000"
 14965      54594C45 
 14965      5F42475F 
 14965      494D475F 
 14965      53524300 
 14966              	.LASF73:
 14967 1727 706C6179 		.ascii	"playback_time\000"
 14967      6261636B 
 14967      5F74696D 
 14967      6500
 14968              	.LASF162:
 14969 1735 4C565F53 		.ascii	"LV_STYLE_ARC_IMG_SRC\000"
 14969      54594C45 
 14969      5F415243 
 14969      5F494D47 
 14969      5F535243 
 14970              	.LASF198:
 14971 174a 76616C75 		.ascii	"value1\000"
 14971      653100
 14972              	.LASF4:
 14973 1751 5F5F696E 		.ascii	"__int16_t\000"
 14973      7431365F 
 14973      7400
 14974              	.LASF165:
 14975 175b 4C565F53 		.ascii	"LV_STYLE_TEXT_FONT\000"
 14975      54594C45 
 14975      5F544558 
 14975      545F464F 
 14975      4E5400
 14976              	.LASF58:
 14977 176e 6C765F63 		.ascii	"lv_color_filter_dsc_t\000"
 14977      6F6C6F72 
 14977      5F66696C 
 14977      7465725F 
 14977      6473635F 
 14978              	.LASF50:
 14979 1784 66756C6C 		.ascii	"full\000"
 14979      00
 14980              	.LASF93:
 14981 1789 636F6C6F 		.ascii	"color\000"
 14981      7200
 14982              	.LASF70:
 14983 178f 74696D65 		.ascii	"time\000"
 14983      00
 14984              	.LASF96:
 14985 1794 73746F70 		.ascii	"stops\000"
 14985      7300
 14986              	.LASF309:
 14987 179a 4C565F45 		.ascii	"LV_EVENT_PREPROCESS\000"
 14987      56454E54 
 14987      5F505245 
 14987      50524F43 
 14987      45535300 
 14988              	.LASF385:
ARM GAS  C:\Users\haske\AppData\Local\Temp\cc0eRFVw.s 			page 294


 14989 17ae 6C765F6F 		.ascii	"lv_obj_set_style_line_rounded\000"
 14989      626A5F73 
 14989      65745F73 
 14989      74796C65 
 14989      5F6C696E 
 14990              	.LASF246:
 14991 17cc 64657374 		.ascii	"destructor_cb\000"
 14991      72756374 
 14991      6F725F63 
 14991      6200
 14992              	.LASF90:
 14993 17da 6C765F62 		.ascii	"lv_border_side_t\000"
 14993      6F726465 
 14993      725F7369 
 14993      64655F74 
 14993      00
 14994              	.LASF94:
 14995 17eb 66726163 		.ascii	"frac\000"
 14995      00
 14996              	.LASF331:
 14997 17f0 6C765F6F 		.ascii	"lv_obj_set_style_height\000"
 14997      626A5F73 
 14997      65745F73 
 14997      74796C65 
 14997      5F686569 
 14998              	.LASF377:
 14999 1808 6C765F6F 		.ascii	"lv_obj_set_style_shadow_color\000"
 14999      626A5F73 
 14999      65745F73 
 14999      74796C65 
 14999      5F736861 
 15000              	.LASF205:
 15001 1826 5F6C765F 		.ascii	"_lv_obj_t\000"
 15001      6F626A5F 
 15001      7400
 15002              	.LASF107:
 15003 1830 4C565F53 		.ascii	"LV_STYLE_MAX_HEIGHT\000"
 15003      54594C45 
 15003      5F4D4158 
 15003      5F484549 
 15003      47485400 
 15004              	.LASF123:
 15005 1844 4C565F53 		.ascii	"LV_STYLE_BG_GRAD_COLOR\000"
 15005      54594C45 
 15005      5F42475F 
 15005      47524144 
 15005      5F434F4C 
 15006              	.LASF30:
 15007 185b 626F785F 		.ascii	"box_h\000"
 15007      6800
 15008              	.LASF82:
 15009 1861 6C765F61 		.ascii	"lv_anim_start_cb_t\000"
 15009      6E696D5F 
 15009      73746172 
 15009      745F6362 
 15009      5F7400
 15010              	.LASF51:
ARM GAS  C:\Users\haske\AppData\Local\Temp\cc0eRFVw.s 			page 295


 15011 1874 6C765F63 		.ascii	"lv_color16_t\000"
 15011      6F6C6F72 
 15011      31365F74 
 15011      00
 15012              	.LASF29:
 15013 1881 626F785F 		.ascii	"box_w\000"
 15013      7700
 15014              	.LASF5:
 15015 1887 73686F72 		.ascii	"short int\000"
 15015      7420696E 
 15015      7400
 15016              	.LASF37:
 15017 1891 62617365 		.ascii	"base_line\000"
 15017      5F6C696E 
 15017      6500
 15018              	.LASF223:
 15019 189b 6C765F6C 		.ascii	"lv_ll_t\000"
 15019      6C5F7400 
 15020              	.LASF416:
 15021 18a3 6C765F66 		.ascii	"lv_font_montserrat_14\000"
 15021      6F6E745F 
 15021      6D6F6E74 
 15021      73657272 
 15021      61745F31 
 15022              	.LASF288:
 15023 18b9 4C565F45 		.ascii	"LV_EVENT_DRAW_POST_END\000"
 15023      56454E54 
 15023      5F445241 
 15023      575F504F 
 15023      53545F45 
 15024              	.LASF289:
 15025 18d0 4C565F45 		.ascii	"LV_EVENT_DRAW_PART_BEGIN\000"
 15025      56454E54 
 15025      5F445241 
 15025      575F5041 
 15025      52545F42 
 15026              	.LASF160:
 15027 18e9 4C565F53 		.ascii	"LV_STYLE_ARC_COLOR\000"
 15027      54594C45 
 15027      5F415243 
 15027      5F434F4C 
 15027      4F5200
 15028              	.LASF255:
 15029 18fc 63757272 		.ascii	"current_target\000"
 15029      656E745F 
 15029      74617267 
 15029      657400
 15030              	.LASF17:
 15031 190b 696E7431 		.ascii	"int16_t\000"
 15031      365F7400 
 15032              	.LASF403:
 15033 1913 6C765F6F 		.ascii	"lv_obj_set_style_color_filter_dsc\000"
 15033      626A5F73 
 15033      65745F73 
 15033      74796C65 
 15033      5F636F6C 
 15034              	.LASF351:
ARM GAS  C:\Users\haske\AppData\Local\Temp\cc0eRFVw.s 			page 296


 15035 1935 6C765F6F 		.ascii	"lv_obj_set_style_bg_color\000"
 15035      626A5F73 
 15035      65745F73 
 15035      74796C65 
 15035      5F62675F 
 15036              	.LASF210:
 15037 194f 636F6F72 		.ascii	"coords\000"
 15037      647300
 15038              	.LASF402:
 15039 1956 6C765F6F 		.ascii	"lv_obj_set_style_opa\000"
 15039      626A5F73 
 15039      65745F73 
 15039      74796C65 
 15039      5F6F7061 
 15040              	.LASF370:
 15041 196b 6C765F6F 		.ascii	"lv_obj_set_style_outline_color\000"
 15041      626A5F73 
 15041      65745F73 
 15041      74796C65 
 15041      5F6F7574 
 15042              	.LASF187:
 15043 198a 5F4C565F 		.ascii	"_LV_STYLE_NUM_BUILT_IN_PROPS\000"
 15043      5354594C 
 15043      455F4E55 
 15043      4D5F4255 
 15043      494C545F 
 15044              	.LASF400:
 15045 19a7 6C765F6F 		.ascii	"lv_obj_set_style_radius\000"
 15045      626A5F73 
 15045      65745F73 
 15045      74796C65 
 15045      5F726164 
 15046              	.LASF113:
 15047 19bf 4C565F53 		.ascii	"LV_STYLE_PAD_TOP\000"
 15047      54594C45 
 15047      5F504144 
 15047      5F544F50 
 15047      00
 15048              	.LASF417:
 15049 19d0 6C765F6F 		.ascii	"lv_obj_set_local_style_prop\000"
 15049      626A5F73 
 15049      65745F6C 
 15049      6F63616C 
 15049      5F737479 
 15050              	.LASF130:
 15051 19ec 4C565F53 		.ascii	"LV_STYLE_BG_IMG_OPA\000"
 15051      54594C45 
 15051      5F42475F 
 15051      494D475F 
 15051      4F504100 
 15052              	.LASF152:
 15053 1a00 4C565F53 		.ascii	"LV_STYLE_LINE_WIDTH\000"
 15053      54594C45 
 15053      5F4C494E 
 15053      455F5749 
 15053      44544800 
 15054              	.LASF278:
ARM GAS  C:\Users\haske\AppData\Local\Temp\cc0eRFVw.s 			page 297


 15055 1a14 4C565F45 		.ascii	"LV_EVENT_DEFOCUSED\000"
 15055      56454E54 
 15055      5F444546 
 15055      4F435553 
 15055      454400
 15056              	.LASF379:
 15057 1a27 6C765F6F 		.ascii	"lv_obj_set_style_img_opa\000"
 15057      626A5F73 
 15057      65745F73 
 15057      74796C65 
 15057      5F696D67 
 15058              	.LASF414:
 15059 1a40 433A5C50 		.ascii	"C:\\Projects\\PainDrain\\firmware\\PainDrain\\PainD"
 15059      726F6A65 
 15059      6374735C 
 15059      5061696E 
 15059      44726169 
 15060 1a6e 7261696E 		.ascii	"rain.cydsn\000"
 15060      2E637964 
 15060      736E00
 15061              	.LASF201:
 15062 1a79 70726F70 		.ascii	"prop1\000"
 15062      3100
 15063              	.LASF71:
 15064 1a7f 6163745F 		.ascii	"act_time\000"
 15064      74696D65 
 15064      00
 15065              	.LASF106:
 15066 1a88 4C565F53 		.ascii	"LV_STYLE_MIN_HEIGHT\000"
 15066      54594C45 
 15066      5F4D494E 
 15066      5F484549 
 15066      47485400 
 15067              	.LASF138:
 15068 1a9c 4C565F53 		.ascii	"LV_STYLE_BORDER_POST\000"
 15068      54594C45 
 15068      5F424F52 
 15068      4445525F 
 15068      504F5354 
 15069              	.LASF95:
 15070 1ab1 6C765F67 		.ascii	"lv_gradient_stop_t\000"
 15070      72616469 
 15070      656E745F 
 15070      73746F70 
 15070      5F7400
 15071              	.LASF109:
 15072 1ac4 4C565F53 		.ascii	"LV_STYLE_Y\000"
 15072      54594C45 
 15072      5F5900
 15073              	.LASF155:
 15074 1acf 4C565F53 		.ascii	"LV_STYLE_LINE_ROUNDED\000"
 15074      54594C45 
 15074      5F4C494E 
 15074      455F524F 
 15074      554E4445 
 15075              	.LASF408:
 15076 1ae5 6C765F6F 		.ascii	"lv_obj_set_style_transition\000"
ARM GAS  C:\Users\haske\AppData\Local\Temp\cc0eRFVw.s 			page 298


 15076      626A5F73 
 15076      65745F73 
 15076      74796C65 
 15076      5F747261 
 15077              	.LASF305:
 15078 1b01 4C565F45 		.ascii	"LV_EVENT_STYLE_CHANGED\000"
 15078      56454E54 
 15078      5F535459 
 15078      4C455F43 
 15078      48414E47 
 15079              	.LASF294:
 15080 1b18 4C565F45 		.ascii	"LV_EVENT_READY\000"
 15080      56454E54 
 15080      5F524541 
 15080      445900
 15081              	.LASF287:
 15082 1b27 4C565F45 		.ascii	"LV_EVENT_DRAW_POST\000"
 15082      56454E54 
 15082      5F445241 
 15082      575F504F 
 15082      535400
 15083              	.LASF20:
 15084 1b3a 75696E74 		.ascii	"uint32_t\000"
 15084      33325F74 
 15084      00
 15085              	.LASF191:
 15086 1b43 70726F70 		.ascii	"props\000"
 15086      7300
 15087              	.LASF391:
 15088 1b49 6C765F6F 		.ascii	"lv_obj_set_style_arc_opa\000"
 15088      626A5F73 
 15088      65745F73 
 15088      74796C65 
 15088      5F617263 
 15089              	.LASF234:
 15090 1b62 6C765F6F 		.ascii	"lv_obj_flag_t\000"
 15090      626A5F66 
 15090      6C61675F 
 15090      7400
 15091              	.LASF304:
 15092 1b70 4C565F45 		.ascii	"LV_EVENT_SIZE_CHANGED\000"
 15092      56454E54 
 15092      5F53495A 
 15092      455F4348 
 15092      414E4745 
 15093              	.LASF49:
 15094 1b86 67726565 		.ascii	"green\000"
 15094      6E00
 15095              	.LASF45:
 15096 1b8c 6C765F66 		.ascii	"lv_font_t\000"
 15096      6F6E745F 
 15096      7400
 15097              	.LASF306:
 15098 1b96 4C565F45 		.ascii	"LV_EVENT_LAYOUT_CHANGED\000"
 15098      56454E54 
 15098      5F4C4159 
 15098      4F55545F 
ARM GAS  C:\Users\haske\AppData\Local\Temp\cc0eRFVw.s 			page 299


 15098      4348414E 
 15099              	.LASF98:
 15100 1bae 64697468 		.ascii	"dither\000"
 15100      657200
 15101              	.LASF413:
 15102 1bb5 2E2E5C2E 		.ascii	"..\\..\\..\\arduinoLCD\\test\\Pain Drain\\libraries"
 15102      2E5C2E2E 
 15102      5C617264 
 15102      75696E6F 
 15102      4C43445C 
 15103 1be2 5C6C7667 		.ascii	"\\lvgl\\src\\core\\lv_obj_style_gen.c\000"
 15103      6C5C7372 
 15103      635C636F 
 15103      72655C6C 
 15103      765F6F62 
 15104              	.LASF356:
 15105 1c04 6C765F6F 		.ascii	"lv_obj_set_style_bg_grad_stop\000"
 15105      626A5F73 
 15105      65745F73 
 15105      74796C65 
 15105      5F62675F 
 15106              	.LASF7:
 15107 1c22 73686F72 		.ascii	"short unsigned int\000"
 15107      7420756E 
 15107      7369676E 
 15107      65642069 
 15107      6E7400
 15108              	.LASF330:
 15109 1c35 6C765F6F 		.ascii	"lv_obj_set_style_max_width\000"
 15109      626A5F73 
 15109      65745F73 
 15109      74796C65 
 15109      5F6D6178 
 15110              	.LASF276:
 15111 1c50 4C565F45 		.ascii	"LV_EVENT_KEY\000"
 15111      56454E54 
 15111      5F4B4559 
 15111      00
 15112              	.LASF22:
 15113 1c5d 6C765F63 		.ascii	"lv_coord_t\000"
 15113      6F6F7264 
 15113      5F7400
 15114              	.LASF272:
 15115 1c68 4C565F45 		.ascii	"LV_EVENT_SCROLL_BEGIN\000"
 15115      56454E54 
 15115      5F534352 
 15115      4F4C4C5F 
 15115      42454749 
 15116              	.LASF140:
 15117 1c7e 4C565F53 		.ascii	"LV_STYLE_OUTLINE_COLOR\000"
 15117      54594C45 
 15117      5F4F5554 
 15117      4C494E45 
 15117      5F434F4C 
 15118              	.LASF42:
 15119 1c95 75736572 		.ascii	"user_data\000"
 15119      5F646174 
ARM GAS  C:\Users\haske\AppData\Local\Temp\cc0eRFVw.s 			page 300


 15119      6100
 15120              	.LASF266:
 15121 1c9f 4C565F45 		.ascii	"LV_EVENT_PRESS_LOST\000"
 15121      56454E54 
 15121      5F505245 
 15121      53535F4C 
 15121      4F535400 
 15122              	.LASF77:
 15123 1cb3 706C6179 		.ascii	"playback_now\000"
 15123      6261636B 
 15123      5F6E6F77 
 15123      00
 15124              	.LASF415:
 15125 1cc0 5F6C765F 		.ascii	"_lv_event_dsc_t\000"
 15125      6576656E 
 15125      745F6473 
 15125      635F7400 
 15126              	.LASF146:
 15127 1cd0 4C565F53 		.ascii	"LV_STYLE_SHADOW_SPREAD\000"
 15127      54594C45 
 15127      5F534841 
 15127      444F575F 
 15127      53505245 
 15128              	.LASF34:
 15129 1ce7 6765745F 		.ascii	"get_glyph_dsc\000"
 15129      676C7970 
 15129      685F6473 
 15129      6300
 15130              	.LASF8:
 15131 1cf5 5F5F696E 		.ascii	"__int32_t\000"
 15131      7433325F 
 15131      7400
 15132              	.LASF336:
 15133 1cff 6C765F6F 		.ascii	"lv_obj_set_style_align\000"
 15133      626A5F73 
 15133      65745F73 
 15133      74796C65 
 15133      5F616C69 
 15134              	.LASF239:
 15135 1d16 73656C65 		.ascii	"selector\000"
 15135      63746F72 
 15135      00
 15136              	.LASF64:
 15137 1d1f 64656C65 		.ascii	"deleted_cb\000"
 15137      7465645F 
 15137      636200
 15138              	.LASF91:
 15139 1d2a 6C765F67 		.ascii	"lv_grad_dir_t\000"
 15139      7261645F 
 15139      6469725F 
 15139      7400
 15140              	.LASF231:
 15141 1d38 7265666F 		.ascii	"refocus_policy\000"
 15141      6375735F 
 15141      706F6C69 
 15141      637900
 15142              	.LASF249:
ARM GAS  C:\Users\haske\AppData\Local\Temp\cc0eRFVw.s 			page 301


 15143 1d47 68656967 		.ascii	"height_def\000"
 15143      68745F64 
 15143      656600
 15144              	.LASF300:
 15145 1d52 4C565F45 		.ascii	"LV_EVENT_SCREEN_UNLOAD_START\000"
 15145      56454E54 
 15145      5F534352 
 15145      45454E5F 
 15145      554E4C4F 
 15146              	.LASF383:
 15147 1d6f 6C765F6F 		.ascii	"lv_obj_set_style_line_dash_width\000"
 15147      626A5F73 
 15147      65745F73 
 15147      74796C65 
 15147      5F6C696E 
 15148              	.LASF345:
 15149 1d90 6C765F6F 		.ascii	"lv_obj_set_style_pad_top\000"
 15149      626A5F73 
 15149      65745F73 
 15149      74796C65 
 15149      5F706164 
 15150              	.LASF60:
 15151 1da9 5F6C765F 		.ascii	"_lv_anim_t\000"
 15151      616E696D 
 15151      5F7400
 15152              	.LASF258:
 15153 1db4 70726576 		.ascii	"prev\000"
 15153      00
 15154              	.LASF99:
 15155 1db9 6C765F67 		.ascii	"lv_grad_dsc_t\000"
 15155      7261645F 
 15155      6473635F 
 15155      7400
 15156              	.LASF220:
 15157 1dc7 6E5F7369 		.ascii	"n_size\000"
 15157      7A6500
 15158              	.LASF224:
 15159 1dce 5F6C765F 		.ascii	"_lv_group_t\000"
 15159      67726F75 
 15159      705F7400 
 15160              	.LASF127:
 15161 1dda 4C565F53 		.ascii	"LV_STYLE_BG_GRAD\000"
 15161      54594C45 
 15161      5F42475F 
 15161      47524144 
 15161      00
 15162              	.LASF271:
 15163 1deb 4C565F45 		.ascii	"LV_EVENT_RELEASED\000"
 15163      56454E54 
 15163      5F52454C 
 15163      45415345 
 15163      4400
 15164              	.LASF33:
 15165 1dfd 69735F70 		.ascii	"is_placeholder\000"
 15165      6C616365 
 15165      686F6C64 
 15165      657200
ARM GAS  C:\Users\haske\AppData\Local\Temp\cc0eRFVw.s 			page 302


 15166              	.LASF142:
 15167 1e0c 4C565F53 		.ascii	"LV_STYLE_OUTLINE_PAD\000"
 15167      54594C45 
 15167      5F4F5554 
 15167      4C494E45 
 15167      5F504144 
 15168              	.LASF226:
 15169 1e21 6F626A5F 		.ascii	"obj_focus\000"
 15169      666F6375 
 15169      7300
 15170              	.LASF166:
 15171 1e2b 4C565F53 		.ascii	"LV_STYLE_TEXT_LETTER_SPACE\000"
 15171      54594C45 
 15171      5F544558 
 15171      545F4C45 
 15171      54544552 
 15172              	.LASF325:
 15173 1e46 6576656E 		.ascii	"event_dsc_cnt\000"
 15173      745F6473 
 15173      635F636E 
 15173      7400
 15174              		.ident	"GCC: (GNU Tools for ARM Embedded Processors) 5.4.1 20160609 (release) [ARM/embedded-5-bran
