ARM GAS  C:\Users\haske\AppData\Local\Temp\ccFGDFhR.s 			page 1


   1              		.syntax unified
   2              		.cpu cortex-m0plus
   3              		.fpu softvfp
   4              		.eabi_attribute 20, 1
   5              		.eabi_attribute 21, 1
   6              		.eabi_attribute 23, 3
   7              		.eabi_attribute 24, 1
   8              		.eabi_attribute 25, 1
   9              		.eabi_attribute 26, 1
  10              		.eabi_attribute 30, 1
  11              		.eabi_attribute 34, 0
  12              		.eabi_attribute 18, 4
  13              		.thumb
  14              		.syntax unified
  15              		.file	"lv_obj_scroll.c"
  16              		.text
  17              	.Ltext0:
  18              		.cfi_sections	.debug_frame
  19              		.section	.text.scroll_anim_ready_cb,"ax",%progbits
  20              		.align	2
  21              		.code	16
  22              		.thumb_func
  23              		.type	scroll_anim_ready_cb, %function
  24              	scroll_anim_ready_cb:
  25              	.LFB195:
  26              		.file 1 "..\\..\\..\\arduinoLCD\\test\\Pain Drain\\libraries\\lvgl\\src\\core\\lv_obj_scroll.c"
   1:..\..\..\arduinoLCD\test\Pain Drain\libraries\lvgl\src\core/lv_obj_scroll.c **** /**
   2:..\..\..\arduinoLCD\test\Pain Drain\libraries\lvgl\src\core/lv_obj_scroll.c ****  * @file lv_obj_scroll.c
   3:..\..\..\arduinoLCD\test\Pain Drain\libraries\lvgl\src\core/lv_obj_scroll.c ****  *
   4:..\..\..\arduinoLCD\test\Pain Drain\libraries\lvgl\src\core/lv_obj_scroll.c ****  */
   5:..\..\..\arduinoLCD\test\Pain Drain\libraries\lvgl\src\core/lv_obj_scroll.c **** 
   6:..\..\..\arduinoLCD\test\Pain Drain\libraries\lvgl\src\core/lv_obj_scroll.c **** /*********************
   7:..\..\..\arduinoLCD\test\Pain Drain\libraries\lvgl\src\core/lv_obj_scroll.c ****  *      INCLUDES
   8:..\..\..\arduinoLCD\test\Pain Drain\libraries\lvgl\src\core/lv_obj_scroll.c ****  *********************/
   9:..\..\..\arduinoLCD\test\Pain Drain\libraries\lvgl\src\core/lv_obj_scroll.c **** #include "lv_obj_scroll.h"
  10:..\..\..\arduinoLCD\test\Pain Drain\libraries\lvgl\src\core/lv_obj_scroll.c **** #include "lv_obj.h"
  11:..\..\..\arduinoLCD\test\Pain Drain\libraries\lvgl\src\core/lv_obj_scroll.c **** #include "lv_indev.h"
  12:..\..\..\arduinoLCD\test\Pain Drain\libraries\lvgl\src\core/lv_obj_scroll.c **** #include "lv_disp.h"
  13:..\..\..\arduinoLCD\test\Pain Drain\libraries\lvgl\src\core/lv_obj_scroll.c **** #include "lv_indev_scroll.h"
  14:..\..\..\arduinoLCD\test\Pain Drain\libraries\lvgl\src\core/lv_obj_scroll.c **** 
  15:..\..\..\arduinoLCD\test\Pain Drain\libraries\lvgl\src\core/lv_obj_scroll.c **** /*********************
  16:..\..\..\arduinoLCD\test\Pain Drain\libraries\lvgl\src\core/lv_obj_scroll.c ****  *      DEFINES
  17:..\..\..\arduinoLCD\test\Pain Drain\libraries\lvgl\src\core/lv_obj_scroll.c ****  *********************/
  18:..\..\..\arduinoLCD\test\Pain Drain\libraries\lvgl\src\core/lv_obj_scroll.c **** #define MY_CLASS &lv_obj_class
  19:..\..\..\arduinoLCD\test\Pain Drain\libraries\lvgl\src\core/lv_obj_scroll.c **** #define SCROLL_ANIM_TIME_MIN    200    /*ms*/
  20:..\..\..\arduinoLCD\test\Pain Drain\libraries\lvgl\src\core/lv_obj_scroll.c **** #define SCROLL_ANIM_TIME_MAX    400    /*ms*/
  21:..\..\..\arduinoLCD\test\Pain Drain\libraries\lvgl\src\core/lv_obj_scroll.c **** #define SCROLLBAR_MIN_SIZE      (LV_DPX(10))
  22:..\..\..\arduinoLCD\test\Pain Drain\libraries\lvgl\src\core/lv_obj_scroll.c **** 
  23:..\..\..\arduinoLCD\test\Pain Drain\libraries\lvgl\src\core/lv_obj_scroll.c **** /**********************
  24:..\..\..\arduinoLCD\test\Pain Drain\libraries\lvgl\src\core/lv_obj_scroll.c ****  *      TYPEDEFS
  25:..\..\..\arduinoLCD\test\Pain Drain\libraries\lvgl\src\core/lv_obj_scroll.c ****  **********************/
  26:..\..\..\arduinoLCD\test\Pain Drain\libraries\lvgl\src\core/lv_obj_scroll.c **** 
  27:..\..\..\arduinoLCD\test\Pain Drain\libraries\lvgl\src\core/lv_obj_scroll.c **** /**********************
  28:..\..\..\arduinoLCD\test\Pain Drain\libraries\lvgl\src\core/lv_obj_scroll.c ****  *  GLOBAL PROTOTYPES
  29:..\..\..\arduinoLCD\test\Pain Drain\libraries\lvgl\src\core/lv_obj_scroll.c ****  **********************/
  30:..\..\..\arduinoLCD\test\Pain Drain\libraries\lvgl\src\core/lv_obj_scroll.c **** 
  31:..\..\..\arduinoLCD\test\Pain Drain\libraries\lvgl\src\core/lv_obj_scroll.c **** /**********************
ARM GAS  C:\Users\haske\AppData\Local\Temp\ccFGDFhR.s 			page 2


  32:..\..\..\arduinoLCD\test\Pain Drain\libraries\lvgl\src\core/lv_obj_scroll.c ****  *  STATIC PROTOTYPES
  33:..\..\..\arduinoLCD\test\Pain Drain\libraries\lvgl\src\core/lv_obj_scroll.c ****  **********************/
  34:..\..\..\arduinoLCD\test\Pain Drain\libraries\lvgl\src\core/lv_obj_scroll.c **** static void scroll_x_anim(void * obj, int32_t v);
  35:..\..\..\arduinoLCD\test\Pain Drain\libraries\lvgl\src\core/lv_obj_scroll.c **** static void scroll_y_anim(void * obj, int32_t v);
  36:..\..\..\arduinoLCD\test\Pain Drain\libraries\lvgl\src\core/lv_obj_scroll.c **** static void scroll_anim_ready_cb(lv_anim_t * a);
  37:..\..\..\arduinoLCD\test\Pain Drain\libraries\lvgl\src\core/lv_obj_scroll.c **** static void scroll_area_into_view(const lv_area_t * area, lv_obj_t * child, lv_point_t * scroll_val
  38:..\..\..\arduinoLCD\test\Pain Drain\libraries\lvgl\src\core/lv_obj_scroll.c ****                                   lv_anim_enable_t anim_en);
  39:..\..\..\arduinoLCD\test\Pain Drain\libraries\lvgl\src\core/lv_obj_scroll.c **** 
  40:..\..\..\arduinoLCD\test\Pain Drain\libraries\lvgl\src\core/lv_obj_scroll.c **** /**********************
  41:..\..\..\arduinoLCD\test\Pain Drain\libraries\lvgl\src\core/lv_obj_scroll.c ****  *  STATIC VARIABLES
  42:..\..\..\arduinoLCD\test\Pain Drain\libraries\lvgl\src\core/lv_obj_scroll.c ****  **********************/
  43:..\..\..\arduinoLCD\test\Pain Drain\libraries\lvgl\src\core/lv_obj_scroll.c **** 
  44:..\..\..\arduinoLCD\test\Pain Drain\libraries\lvgl\src\core/lv_obj_scroll.c **** /**********************
  45:..\..\..\arduinoLCD\test\Pain Drain\libraries\lvgl\src\core/lv_obj_scroll.c ****  *      MACROS
  46:..\..\..\arduinoLCD\test\Pain Drain\libraries\lvgl\src\core/lv_obj_scroll.c ****  **********************/
  47:..\..\..\arduinoLCD\test\Pain Drain\libraries\lvgl\src\core/lv_obj_scroll.c **** 
  48:..\..\..\arduinoLCD\test\Pain Drain\libraries\lvgl\src\core/lv_obj_scroll.c **** /**********************
  49:..\..\..\arduinoLCD\test\Pain Drain\libraries\lvgl\src\core/lv_obj_scroll.c ****  *   GLOBAL FUNCTIONS
  50:..\..\..\arduinoLCD\test\Pain Drain\libraries\lvgl\src\core/lv_obj_scroll.c ****  **********************/
  51:..\..\..\arduinoLCD\test\Pain Drain\libraries\lvgl\src\core/lv_obj_scroll.c **** 
  52:..\..\..\arduinoLCD\test\Pain Drain\libraries\lvgl\src\core/lv_obj_scroll.c **** /*=====================
  53:..\..\..\arduinoLCD\test\Pain Drain\libraries\lvgl\src\core/lv_obj_scroll.c ****  * Setter functions
  54:..\..\..\arduinoLCD\test\Pain Drain\libraries\lvgl\src\core/lv_obj_scroll.c ****  *====================*/
  55:..\..\..\arduinoLCD\test\Pain Drain\libraries\lvgl\src\core/lv_obj_scroll.c **** 
  56:..\..\..\arduinoLCD\test\Pain Drain\libraries\lvgl\src\core/lv_obj_scroll.c **** void lv_obj_set_scrollbar_mode(lv_obj_t * obj, lv_scrollbar_mode_t mode)
  57:..\..\..\arduinoLCD\test\Pain Drain\libraries\lvgl\src\core/lv_obj_scroll.c **** {
  58:..\..\..\arduinoLCD\test\Pain Drain\libraries\lvgl\src\core/lv_obj_scroll.c ****     LV_ASSERT_OBJ(obj, MY_CLASS);
  59:..\..\..\arduinoLCD\test\Pain Drain\libraries\lvgl\src\core/lv_obj_scroll.c **** 
  60:..\..\..\arduinoLCD\test\Pain Drain\libraries\lvgl\src\core/lv_obj_scroll.c ****     lv_obj_allocate_spec_attr(obj);
  61:..\..\..\arduinoLCD\test\Pain Drain\libraries\lvgl\src\core/lv_obj_scroll.c **** 
  62:..\..\..\arduinoLCD\test\Pain Drain\libraries\lvgl\src\core/lv_obj_scroll.c ****     if(obj->spec_attr->scrollbar_mode == mode) return;
  63:..\..\..\arduinoLCD\test\Pain Drain\libraries\lvgl\src\core/lv_obj_scroll.c ****     obj->spec_attr->scrollbar_mode = mode;
  64:..\..\..\arduinoLCD\test\Pain Drain\libraries\lvgl\src\core/lv_obj_scroll.c ****     lv_obj_invalidate(obj);
  65:..\..\..\arduinoLCD\test\Pain Drain\libraries\lvgl\src\core/lv_obj_scroll.c **** }
  66:..\..\..\arduinoLCD\test\Pain Drain\libraries\lvgl\src\core/lv_obj_scroll.c **** 
  67:..\..\..\arduinoLCD\test\Pain Drain\libraries\lvgl\src\core/lv_obj_scroll.c **** void lv_obj_set_scroll_dir(lv_obj_t * obj, lv_dir_t dir)
  68:..\..\..\arduinoLCD\test\Pain Drain\libraries\lvgl\src\core/lv_obj_scroll.c **** {
  69:..\..\..\arduinoLCD\test\Pain Drain\libraries\lvgl\src\core/lv_obj_scroll.c ****     lv_obj_allocate_spec_attr(obj);
  70:..\..\..\arduinoLCD\test\Pain Drain\libraries\lvgl\src\core/lv_obj_scroll.c **** 
  71:..\..\..\arduinoLCD\test\Pain Drain\libraries\lvgl\src\core/lv_obj_scroll.c ****     if(dir != obj->spec_attr->scroll_dir) {
  72:..\..\..\arduinoLCD\test\Pain Drain\libraries\lvgl\src\core/lv_obj_scroll.c ****         obj->spec_attr->scroll_dir = dir;
  73:..\..\..\arduinoLCD\test\Pain Drain\libraries\lvgl\src\core/lv_obj_scroll.c ****     }
  74:..\..\..\arduinoLCD\test\Pain Drain\libraries\lvgl\src\core/lv_obj_scroll.c **** }
  75:..\..\..\arduinoLCD\test\Pain Drain\libraries\lvgl\src\core/lv_obj_scroll.c **** 
  76:..\..\..\arduinoLCD\test\Pain Drain\libraries\lvgl\src\core/lv_obj_scroll.c **** void lv_obj_set_scroll_snap_x(lv_obj_t * obj, lv_scroll_snap_t align)
  77:..\..\..\arduinoLCD\test\Pain Drain\libraries\lvgl\src\core/lv_obj_scroll.c **** {
  78:..\..\..\arduinoLCD\test\Pain Drain\libraries\lvgl\src\core/lv_obj_scroll.c ****     lv_obj_allocate_spec_attr(obj);
  79:..\..\..\arduinoLCD\test\Pain Drain\libraries\lvgl\src\core/lv_obj_scroll.c ****     obj->spec_attr->scroll_snap_x = align;
  80:..\..\..\arduinoLCD\test\Pain Drain\libraries\lvgl\src\core/lv_obj_scroll.c **** }
  81:..\..\..\arduinoLCD\test\Pain Drain\libraries\lvgl\src\core/lv_obj_scroll.c **** 
  82:..\..\..\arduinoLCD\test\Pain Drain\libraries\lvgl\src\core/lv_obj_scroll.c **** void lv_obj_set_scroll_snap_y(lv_obj_t * obj, lv_scroll_snap_t align)
  83:..\..\..\arduinoLCD\test\Pain Drain\libraries\lvgl\src\core/lv_obj_scroll.c **** {
  84:..\..\..\arduinoLCD\test\Pain Drain\libraries\lvgl\src\core/lv_obj_scroll.c ****     lv_obj_allocate_spec_attr(obj);
  85:..\..\..\arduinoLCD\test\Pain Drain\libraries\lvgl\src\core/lv_obj_scroll.c ****     obj->spec_attr->scroll_snap_y = align;
  86:..\..\..\arduinoLCD\test\Pain Drain\libraries\lvgl\src\core/lv_obj_scroll.c **** }
  87:..\..\..\arduinoLCD\test\Pain Drain\libraries\lvgl\src\core/lv_obj_scroll.c **** 
  88:..\..\..\arduinoLCD\test\Pain Drain\libraries\lvgl\src\core/lv_obj_scroll.c **** /*=====================
ARM GAS  C:\Users\haske\AppData\Local\Temp\ccFGDFhR.s 			page 3


  89:..\..\..\arduinoLCD\test\Pain Drain\libraries\lvgl\src\core/lv_obj_scroll.c ****  * Getter functions
  90:..\..\..\arduinoLCD\test\Pain Drain\libraries\lvgl\src\core/lv_obj_scroll.c ****  *====================*/
  91:..\..\..\arduinoLCD\test\Pain Drain\libraries\lvgl\src\core/lv_obj_scroll.c **** 
  92:..\..\..\arduinoLCD\test\Pain Drain\libraries\lvgl\src\core/lv_obj_scroll.c **** lv_scrollbar_mode_t lv_obj_get_scrollbar_mode(const lv_obj_t * obj)
  93:..\..\..\arduinoLCD\test\Pain Drain\libraries\lvgl\src\core/lv_obj_scroll.c **** {
  94:..\..\..\arduinoLCD\test\Pain Drain\libraries\lvgl\src\core/lv_obj_scroll.c ****     if(obj->spec_attr) return obj->spec_attr->scrollbar_mode;
  95:..\..\..\arduinoLCD\test\Pain Drain\libraries\lvgl\src\core/lv_obj_scroll.c ****     else return LV_SCROLLBAR_MODE_AUTO;
  96:..\..\..\arduinoLCD\test\Pain Drain\libraries\lvgl\src\core/lv_obj_scroll.c **** }
  97:..\..\..\arduinoLCD\test\Pain Drain\libraries\lvgl\src\core/lv_obj_scroll.c **** 
  98:..\..\..\arduinoLCD\test\Pain Drain\libraries\lvgl\src\core/lv_obj_scroll.c **** lv_dir_t lv_obj_get_scroll_dir(const lv_obj_t * obj)
  99:..\..\..\arduinoLCD\test\Pain Drain\libraries\lvgl\src\core/lv_obj_scroll.c **** {
 100:..\..\..\arduinoLCD\test\Pain Drain\libraries\lvgl\src\core/lv_obj_scroll.c ****     if(obj->spec_attr) return obj->spec_attr->scroll_dir;
 101:..\..\..\arduinoLCD\test\Pain Drain\libraries\lvgl\src\core/lv_obj_scroll.c ****     else return LV_DIR_ALL;
 102:..\..\..\arduinoLCD\test\Pain Drain\libraries\lvgl\src\core/lv_obj_scroll.c **** }
 103:..\..\..\arduinoLCD\test\Pain Drain\libraries\lvgl\src\core/lv_obj_scroll.c **** 
 104:..\..\..\arduinoLCD\test\Pain Drain\libraries\lvgl\src\core/lv_obj_scroll.c **** lv_scroll_snap_t lv_obj_get_scroll_snap_x(const lv_obj_t * obj)
 105:..\..\..\arduinoLCD\test\Pain Drain\libraries\lvgl\src\core/lv_obj_scroll.c **** {
 106:..\..\..\arduinoLCD\test\Pain Drain\libraries\lvgl\src\core/lv_obj_scroll.c ****     if(obj->spec_attr) return obj->spec_attr->scroll_snap_x;
 107:..\..\..\arduinoLCD\test\Pain Drain\libraries\lvgl\src\core/lv_obj_scroll.c ****     else return LV_SCROLL_SNAP_NONE;
 108:..\..\..\arduinoLCD\test\Pain Drain\libraries\lvgl\src\core/lv_obj_scroll.c **** }
 109:..\..\..\arduinoLCD\test\Pain Drain\libraries\lvgl\src\core/lv_obj_scroll.c **** 
 110:..\..\..\arduinoLCD\test\Pain Drain\libraries\lvgl\src\core/lv_obj_scroll.c **** lv_scroll_snap_t lv_obj_get_scroll_snap_y(const lv_obj_t * obj)
 111:..\..\..\arduinoLCD\test\Pain Drain\libraries\lvgl\src\core/lv_obj_scroll.c **** {
 112:..\..\..\arduinoLCD\test\Pain Drain\libraries\lvgl\src\core/lv_obj_scroll.c ****     if(obj->spec_attr) return obj->spec_attr->scroll_snap_y;
 113:..\..\..\arduinoLCD\test\Pain Drain\libraries\lvgl\src\core/lv_obj_scroll.c ****     else return LV_SCROLL_SNAP_NONE;
 114:..\..\..\arduinoLCD\test\Pain Drain\libraries\lvgl\src\core/lv_obj_scroll.c **** }
 115:..\..\..\arduinoLCD\test\Pain Drain\libraries\lvgl\src\core/lv_obj_scroll.c **** 
 116:..\..\..\arduinoLCD\test\Pain Drain\libraries\lvgl\src\core/lv_obj_scroll.c **** lv_coord_t lv_obj_get_scroll_x(const lv_obj_t * obj)
 117:..\..\..\arduinoLCD\test\Pain Drain\libraries\lvgl\src\core/lv_obj_scroll.c **** {
 118:..\..\..\arduinoLCD\test\Pain Drain\libraries\lvgl\src\core/lv_obj_scroll.c ****     if(obj->spec_attr == NULL) return 0;
 119:..\..\..\arduinoLCD\test\Pain Drain\libraries\lvgl\src\core/lv_obj_scroll.c ****     return -obj->spec_attr->scroll.x;
 120:..\..\..\arduinoLCD\test\Pain Drain\libraries\lvgl\src\core/lv_obj_scroll.c **** }
 121:..\..\..\arduinoLCD\test\Pain Drain\libraries\lvgl\src\core/lv_obj_scroll.c **** 
 122:..\..\..\arduinoLCD\test\Pain Drain\libraries\lvgl\src\core/lv_obj_scroll.c **** lv_coord_t lv_obj_get_scroll_y(const lv_obj_t * obj)
 123:..\..\..\arduinoLCD\test\Pain Drain\libraries\lvgl\src\core/lv_obj_scroll.c **** {
 124:..\..\..\arduinoLCD\test\Pain Drain\libraries\lvgl\src\core/lv_obj_scroll.c ****     if(obj->spec_attr == NULL) return 0;
 125:..\..\..\arduinoLCD\test\Pain Drain\libraries\lvgl\src\core/lv_obj_scroll.c ****     return -obj->spec_attr->scroll.y;
 126:..\..\..\arduinoLCD\test\Pain Drain\libraries\lvgl\src\core/lv_obj_scroll.c **** }
 127:..\..\..\arduinoLCD\test\Pain Drain\libraries\lvgl\src\core/lv_obj_scroll.c **** 
 128:..\..\..\arduinoLCD\test\Pain Drain\libraries\lvgl\src\core/lv_obj_scroll.c **** lv_coord_t lv_obj_get_scroll_top(lv_obj_t * obj)
 129:..\..\..\arduinoLCD\test\Pain Drain\libraries\lvgl\src\core/lv_obj_scroll.c **** {
 130:..\..\..\arduinoLCD\test\Pain Drain\libraries\lvgl\src\core/lv_obj_scroll.c ****     if(obj->spec_attr == NULL) return 0;
 131:..\..\..\arduinoLCD\test\Pain Drain\libraries\lvgl\src\core/lv_obj_scroll.c ****     return -obj->spec_attr->scroll.y;
 132:..\..\..\arduinoLCD\test\Pain Drain\libraries\lvgl\src\core/lv_obj_scroll.c **** }
 133:..\..\..\arduinoLCD\test\Pain Drain\libraries\lvgl\src\core/lv_obj_scroll.c **** 
 134:..\..\..\arduinoLCD\test\Pain Drain\libraries\lvgl\src\core/lv_obj_scroll.c **** lv_coord_t lv_obj_get_scroll_bottom(lv_obj_t * obj)
 135:..\..\..\arduinoLCD\test\Pain Drain\libraries\lvgl\src\core/lv_obj_scroll.c **** {
 136:..\..\..\arduinoLCD\test\Pain Drain\libraries\lvgl\src\core/lv_obj_scroll.c ****     LV_ASSERT_OBJ(obj, MY_CLASS);
 137:..\..\..\arduinoLCD\test\Pain Drain\libraries\lvgl\src\core/lv_obj_scroll.c **** 
 138:..\..\..\arduinoLCD\test\Pain Drain\libraries\lvgl\src\core/lv_obj_scroll.c ****     lv_coord_t child_res = LV_COORD_MIN;
 139:..\..\..\arduinoLCD\test\Pain Drain\libraries\lvgl\src\core/lv_obj_scroll.c ****     uint32_t i;
 140:..\..\..\arduinoLCD\test\Pain Drain\libraries\lvgl\src\core/lv_obj_scroll.c ****     uint32_t child_cnt = lv_obj_get_child_cnt(obj);
 141:..\..\..\arduinoLCD\test\Pain Drain\libraries\lvgl\src\core/lv_obj_scroll.c ****     for(i = 0; i < child_cnt; i++) {
 142:..\..\..\arduinoLCD\test\Pain Drain\libraries\lvgl\src\core/lv_obj_scroll.c ****         lv_obj_t * child = obj->spec_attr->children[i];
 143:..\..\..\arduinoLCD\test\Pain Drain\libraries\lvgl\src\core/lv_obj_scroll.c ****         if(lv_obj_has_flag_any(child,  LV_OBJ_FLAG_HIDDEN | LV_OBJ_FLAG_FLOATING)) continue;
 144:..\..\..\arduinoLCD\test\Pain Drain\libraries\lvgl\src\core/lv_obj_scroll.c ****         child_res = LV_MAX(child_res, child->coords.y2);
 145:..\..\..\arduinoLCD\test\Pain Drain\libraries\lvgl\src\core/lv_obj_scroll.c ****     }
ARM GAS  C:\Users\haske\AppData\Local\Temp\ccFGDFhR.s 			page 4


 146:..\..\..\arduinoLCD\test\Pain Drain\libraries\lvgl\src\core/lv_obj_scroll.c **** 
 147:..\..\..\arduinoLCD\test\Pain Drain\libraries\lvgl\src\core/lv_obj_scroll.c ****     lv_coord_t pad_top = lv_obj_get_style_pad_top(obj, LV_PART_MAIN);
 148:..\..\..\arduinoLCD\test\Pain Drain\libraries\lvgl\src\core/lv_obj_scroll.c ****     lv_coord_t pad_bottom = lv_obj_get_style_pad_bottom(obj, LV_PART_MAIN);
 149:..\..\..\arduinoLCD\test\Pain Drain\libraries\lvgl\src\core/lv_obj_scroll.c ****     lv_coord_t border_width = lv_obj_get_style_border_width(obj, LV_PART_MAIN);
 150:..\..\..\arduinoLCD\test\Pain Drain\libraries\lvgl\src\core/lv_obj_scroll.c **** 
 151:..\..\..\arduinoLCD\test\Pain Drain\libraries\lvgl\src\core/lv_obj_scroll.c ****     if(child_res != LV_COORD_MIN) {
 152:..\..\..\arduinoLCD\test\Pain Drain\libraries\lvgl\src\core/lv_obj_scroll.c ****         child_res -= (obj->coords.y2 - pad_bottom - border_width);
 153:..\..\..\arduinoLCD\test\Pain Drain\libraries\lvgl\src\core/lv_obj_scroll.c ****     }
 154:..\..\..\arduinoLCD\test\Pain Drain\libraries\lvgl\src\core/lv_obj_scroll.c **** 
 155:..\..\..\arduinoLCD\test\Pain Drain\libraries\lvgl\src\core/lv_obj_scroll.c ****     lv_coord_t self_h = lv_obj_get_self_height(obj);
 156:..\..\..\arduinoLCD\test\Pain Drain\libraries\lvgl\src\core/lv_obj_scroll.c ****     self_h = self_h - (lv_obj_get_height(obj) - pad_top - pad_bottom - 2 * border_width);
 157:..\..\..\arduinoLCD\test\Pain Drain\libraries\lvgl\src\core/lv_obj_scroll.c ****     self_h -= lv_obj_get_scroll_y(obj);
 158:..\..\..\arduinoLCD\test\Pain Drain\libraries\lvgl\src\core/lv_obj_scroll.c ****     return LV_MAX(child_res, self_h);
 159:..\..\..\arduinoLCD\test\Pain Drain\libraries\lvgl\src\core/lv_obj_scroll.c **** }
 160:..\..\..\arduinoLCD\test\Pain Drain\libraries\lvgl\src\core/lv_obj_scroll.c **** 
 161:..\..\..\arduinoLCD\test\Pain Drain\libraries\lvgl\src\core/lv_obj_scroll.c **** lv_coord_t lv_obj_get_scroll_left(lv_obj_t * obj)
 162:..\..\..\arduinoLCD\test\Pain Drain\libraries\lvgl\src\core/lv_obj_scroll.c **** {
 163:..\..\..\arduinoLCD\test\Pain Drain\libraries\lvgl\src\core/lv_obj_scroll.c ****     LV_ASSERT_OBJ(obj, MY_CLASS);
 164:..\..\..\arduinoLCD\test\Pain Drain\libraries\lvgl\src\core/lv_obj_scroll.c **** 
 165:..\..\..\arduinoLCD\test\Pain Drain\libraries\lvgl\src\core/lv_obj_scroll.c ****     /*Normally can't scroll the object out on the left.
 166:..\..\..\arduinoLCD\test\Pain Drain\libraries\lvgl\src\core/lv_obj_scroll.c ****      *So simply use the current scroll position as "left size"*/
 167:..\..\..\arduinoLCD\test\Pain Drain\libraries\lvgl\src\core/lv_obj_scroll.c ****     if(lv_obj_get_style_base_dir(obj, LV_PART_MAIN) != LV_BASE_DIR_RTL) {
 168:..\..\..\arduinoLCD\test\Pain Drain\libraries\lvgl\src\core/lv_obj_scroll.c ****         if(obj->spec_attr == NULL) return 0;
 169:..\..\..\arduinoLCD\test\Pain Drain\libraries\lvgl\src\core/lv_obj_scroll.c ****         return -obj->spec_attr->scroll.x;
 170:..\..\..\arduinoLCD\test\Pain Drain\libraries\lvgl\src\core/lv_obj_scroll.c ****     }
 171:..\..\..\arduinoLCD\test\Pain Drain\libraries\lvgl\src\core/lv_obj_scroll.c **** 
 172:..\..\..\arduinoLCD\test\Pain Drain\libraries\lvgl\src\core/lv_obj_scroll.c ****     /*With RTL base direction scrolling the left is normal so find the left most coordinate*/
 173:..\..\..\arduinoLCD\test\Pain Drain\libraries\lvgl\src\core/lv_obj_scroll.c ****     lv_coord_t pad_right = lv_obj_get_style_pad_right(obj, LV_PART_MAIN);
 174:..\..\..\arduinoLCD\test\Pain Drain\libraries\lvgl\src\core/lv_obj_scroll.c ****     lv_coord_t pad_left = lv_obj_get_style_pad_left(obj, LV_PART_MAIN);
 175:..\..\..\arduinoLCD\test\Pain Drain\libraries\lvgl\src\core/lv_obj_scroll.c ****     lv_coord_t border_width = lv_obj_get_style_border_width(obj, LV_PART_MAIN);
 176:..\..\..\arduinoLCD\test\Pain Drain\libraries\lvgl\src\core/lv_obj_scroll.c **** 
 177:..\..\..\arduinoLCD\test\Pain Drain\libraries\lvgl\src\core/lv_obj_scroll.c ****     lv_coord_t child_res = 0;
 178:..\..\..\arduinoLCD\test\Pain Drain\libraries\lvgl\src\core/lv_obj_scroll.c **** 
 179:..\..\..\arduinoLCD\test\Pain Drain\libraries\lvgl\src\core/lv_obj_scroll.c ****     uint32_t i;
 180:..\..\..\arduinoLCD\test\Pain Drain\libraries\lvgl\src\core/lv_obj_scroll.c ****     lv_coord_t x1 = LV_COORD_MAX;
 181:..\..\..\arduinoLCD\test\Pain Drain\libraries\lvgl\src\core/lv_obj_scroll.c ****     uint32_t child_cnt = lv_obj_get_child_cnt(obj);
 182:..\..\..\arduinoLCD\test\Pain Drain\libraries\lvgl\src\core/lv_obj_scroll.c ****     for(i = 0; i < child_cnt; i++) {
 183:..\..\..\arduinoLCD\test\Pain Drain\libraries\lvgl\src\core/lv_obj_scroll.c ****         lv_obj_t * child = obj->spec_attr->children[i];
 184:..\..\..\arduinoLCD\test\Pain Drain\libraries\lvgl\src\core/lv_obj_scroll.c ****         if(lv_obj_has_flag_any(child,  LV_OBJ_FLAG_HIDDEN | LV_OBJ_FLAG_FLOATING)) continue;
 185:..\..\..\arduinoLCD\test\Pain Drain\libraries\lvgl\src\core/lv_obj_scroll.c ****         x1 = LV_MIN(x1, child->coords.x1);
 186:..\..\..\arduinoLCD\test\Pain Drain\libraries\lvgl\src\core/lv_obj_scroll.c **** 
 187:..\..\..\arduinoLCD\test\Pain Drain\libraries\lvgl\src\core/lv_obj_scroll.c ****     }
 188:..\..\..\arduinoLCD\test\Pain Drain\libraries\lvgl\src\core/lv_obj_scroll.c **** 
 189:..\..\..\arduinoLCD\test\Pain Drain\libraries\lvgl\src\core/lv_obj_scroll.c ****     if(x1 != LV_COORD_MAX) {
 190:..\..\..\arduinoLCD\test\Pain Drain\libraries\lvgl\src\core/lv_obj_scroll.c ****         child_res = x1;
 191:..\..\..\arduinoLCD\test\Pain Drain\libraries\lvgl\src\core/lv_obj_scroll.c ****         child_res = (obj->coords.x1 + pad_left + border_width) - child_res;
 192:..\..\..\arduinoLCD\test\Pain Drain\libraries\lvgl\src\core/lv_obj_scroll.c ****     }
 193:..\..\..\arduinoLCD\test\Pain Drain\libraries\lvgl\src\core/lv_obj_scroll.c ****     else {
 194:..\..\..\arduinoLCD\test\Pain Drain\libraries\lvgl\src\core/lv_obj_scroll.c ****         child_res = LV_COORD_MIN;
 195:..\..\..\arduinoLCD\test\Pain Drain\libraries\lvgl\src\core/lv_obj_scroll.c ****     }
 196:..\..\..\arduinoLCD\test\Pain Drain\libraries\lvgl\src\core/lv_obj_scroll.c **** 
 197:..\..\..\arduinoLCD\test\Pain Drain\libraries\lvgl\src\core/lv_obj_scroll.c ****     lv_coord_t self_w = lv_obj_get_self_width(obj);
 198:..\..\..\arduinoLCD\test\Pain Drain\libraries\lvgl\src\core/lv_obj_scroll.c ****     self_w = self_w - (lv_obj_get_width(obj) - pad_right - pad_left - 2 * border_width);
 199:..\..\..\arduinoLCD\test\Pain Drain\libraries\lvgl\src\core/lv_obj_scroll.c ****     self_w += lv_obj_get_scroll_x(obj);
 200:..\..\..\arduinoLCD\test\Pain Drain\libraries\lvgl\src\core/lv_obj_scroll.c **** 
 201:..\..\..\arduinoLCD\test\Pain Drain\libraries\lvgl\src\core/lv_obj_scroll.c ****     return LV_MAX(child_res, self_w);
 202:..\..\..\arduinoLCD\test\Pain Drain\libraries\lvgl\src\core/lv_obj_scroll.c **** }
ARM GAS  C:\Users\haske\AppData\Local\Temp\ccFGDFhR.s 			page 5


 203:..\..\..\arduinoLCD\test\Pain Drain\libraries\lvgl\src\core/lv_obj_scroll.c **** 
 204:..\..\..\arduinoLCD\test\Pain Drain\libraries\lvgl\src\core/lv_obj_scroll.c **** lv_coord_t lv_obj_get_scroll_right(lv_obj_t * obj)
 205:..\..\..\arduinoLCD\test\Pain Drain\libraries\lvgl\src\core/lv_obj_scroll.c **** {
 206:..\..\..\arduinoLCD\test\Pain Drain\libraries\lvgl\src\core/lv_obj_scroll.c ****     LV_ASSERT_OBJ(obj, MY_CLASS);
 207:..\..\..\arduinoLCD\test\Pain Drain\libraries\lvgl\src\core/lv_obj_scroll.c **** 
 208:..\..\..\arduinoLCD\test\Pain Drain\libraries\lvgl\src\core/lv_obj_scroll.c ****     /*With RTL base dir can't scroll to the object out on the right.
 209:..\..\..\arduinoLCD\test\Pain Drain\libraries\lvgl\src\core/lv_obj_scroll.c ****      *So simply use the current scroll position as "right size"*/
 210:..\..\..\arduinoLCD\test\Pain Drain\libraries\lvgl\src\core/lv_obj_scroll.c ****     if(lv_obj_get_style_base_dir(obj, LV_PART_MAIN) == LV_BASE_DIR_RTL) {
 211:..\..\..\arduinoLCD\test\Pain Drain\libraries\lvgl\src\core/lv_obj_scroll.c ****         if(obj->spec_attr == NULL) return 0;
 212:..\..\..\arduinoLCD\test\Pain Drain\libraries\lvgl\src\core/lv_obj_scroll.c ****         return obj->spec_attr->scroll.x;
 213:..\..\..\arduinoLCD\test\Pain Drain\libraries\lvgl\src\core/lv_obj_scroll.c ****     }
 214:..\..\..\arduinoLCD\test\Pain Drain\libraries\lvgl\src\core/lv_obj_scroll.c **** 
 215:..\..\..\arduinoLCD\test\Pain Drain\libraries\lvgl\src\core/lv_obj_scroll.c ****     /*With other base direction (LTR) scrolling to the right is normal so find the right most coord
 216:..\..\..\arduinoLCD\test\Pain Drain\libraries\lvgl\src\core/lv_obj_scroll.c ****     lv_coord_t child_res = LV_COORD_MIN;
 217:..\..\..\arduinoLCD\test\Pain Drain\libraries\lvgl\src\core/lv_obj_scroll.c ****     uint32_t i;
 218:..\..\..\arduinoLCD\test\Pain Drain\libraries\lvgl\src\core/lv_obj_scroll.c ****     uint32_t child_cnt = lv_obj_get_child_cnt(obj);
 219:..\..\..\arduinoLCD\test\Pain Drain\libraries\lvgl\src\core/lv_obj_scroll.c ****     for(i = 0; i < child_cnt; i++) {
 220:..\..\..\arduinoLCD\test\Pain Drain\libraries\lvgl\src\core/lv_obj_scroll.c ****         lv_obj_t * child = obj->spec_attr->children[i];
 221:..\..\..\arduinoLCD\test\Pain Drain\libraries\lvgl\src\core/lv_obj_scroll.c ****         if(lv_obj_has_flag_any(child,  LV_OBJ_FLAG_HIDDEN | LV_OBJ_FLAG_FLOATING)) continue;
 222:..\..\..\arduinoLCD\test\Pain Drain\libraries\lvgl\src\core/lv_obj_scroll.c ****         child_res = LV_MAX(child_res, child->coords.x2);
 223:..\..\..\arduinoLCD\test\Pain Drain\libraries\lvgl\src\core/lv_obj_scroll.c ****     }
 224:..\..\..\arduinoLCD\test\Pain Drain\libraries\lvgl\src\core/lv_obj_scroll.c **** 
 225:..\..\..\arduinoLCD\test\Pain Drain\libraries\lvgl\src\core/lv_obj_scroll.c ****     lv_coord_t pad_right = lv_obj_get_style_pad_right(obj, LV_PART_MAIN);
 226:..\..\..\arduinoLCD\test\Pain Drain\libraries\lvgl\src\core/lv_obj_scroll.c ****     lv_coord_t pad_left = lv_obj_get_style_pad_left(obj, LV_PART_MAIN);
 227:..\..\..\arduinoLCD\test\Pain Drain\libraries\lvgl\src\core/lv_obj_scroll.c ****     lv_coord_t border_width = lv_obj_get_style_border_width(obj, LV_PART_MAIN);
 228:..\..\..\arduinoLCD\test\Pain Drain\libraries\lvgl\src\core/lv_obj_scroll.c **** 
 229:..\..\..\arduinoLCD\test\Pain Drain\libraries\lvgl\src\core/lv_obj_scroll.c ****     if(child_res != LV_COORD_MIN) {
 230:..\..\..\arduinoLCD\test\Pain Drain\libraries\lvgl\src\core/lv_obj_scroll.c ****         child_res -= (obj->coords.x2 - pad_right - border_width);
 231:..\..\..\arduinoLCD\test\Pain Drain\libraries\lvgl\src\core/lv_obj_scroll.c ****     }
 232:..\..\..\arduinoLCD\test\Pain Drain\libraries\lvgl\src\core/lv_obj_scroll.c **** 
 233:..\..\..\arduinoLCD\test\Pain Drain\libraries\lvgl\src\core/lv_obj_scroll.c ****     lv_coord_t self_w;
 234:..\..\..\arduinoLCD\test\Pain Drain\libraries\lvgl\src\core/lv_obj_scroll.c ****     self_w = lv_obj_get_self_width(obj);
 235:..\..\..\arduinoLCD\test\Pain Drain\libraries\lvgl\src\core/lv_obj_scroll.c ****     self_w = self_w - (lv_obj_get_width(obj) - pad_right - pad_left - 2 * border_width);
 236:..\..\..\arduinoLCD\test\Pain Drain\libraries\lvgl\src\core/lv_obj_scroll.c ****     self_w -= lv_obj_get_scroll_x(obj);
 237:..\..\..\arduinoLCD\test\Pain Drain\libraries\lvgl\src\core/lv_obj_scroll.c ****     return LV_MAX(child_res, self_w);
 238:..\..\..\arduinoLCD\test\Pain Drain\libraries\lvgl\src\core/lv_obj_scroll.c **** }
 239:..\..\..\arduinoLCD\test\Pain Drain\libraries\lvgl\src\core/lv_obj_scroll.c **** 
 240:..\..\..\arduinoLCD\test\Pain Drain\libraries\lvgl\src\core/lv_obj_scroll.c **** void lv_obj_get_scroll_end(struct _lv_obj_t  * obj, lv_point_t * end)
 241:..\..\..\arduinoLCD\test\Pain Drain\libraries\lvgl\src\core/lv_obj_scroll.c **** {
 242:..\..\..\arduinoLCD\test\Pain Drain\libraries\lvgl\src\core/lv_obj_scroll.c ****     lv_anim_t * a;
 243:..\..\..\arduinoLCD\test\Pain Drain\libraries\lvgl\src\core/lv_obj_scroll.c ****     a = lv_anim_get(obj, scroll_x_anim);
 244:..\..\..\arduinoLCD\test\Pain Drain\libraries\lvgl\src\core/lv_obj_scroll.c ****     end->x = a ? -a->end_value : lv_obj_get_scroll_x(obj);
 245:..\..\..\arduinoLCD\test\Pain Drain\libraries\lvgl\src\core/lv_obj_scroll.c **** 
 246:..\..\..\arduinoLCD\test\Pain Drain\libraries\lvgl\src\core/lv_obj_scroll.c ****     a = lv_anim_get(obj, scroll_y_anim);
 247:..\..\..\arduinoLCD\test\Pain Drain\libraries\lvgl\src\core/lv_obj_scroll.c ****     end->y = a ? -a->end_value : lv_obj_get_scroll_y(obj);
 248:..\..\..\arduinoLCD\test\Pain Drain\libraries\lvgl\src\core/lv_obj_scroll.c **** }
 249:..\..\..\arduinoLCD\test\Pain Drain\libraries\lvgl\src\core/lv_obj_scroll.c **** 
 250:..\..\..\arduinoLCD\test\Pain Drain\libraries\lvgl\src\core/lv_obj_scroll.c **** /*=====================
 251:..\..\..\arduinoLCD\test\Pain Drain\libraries\lvgl\src\core/lv_obj_scroll.c ****  * Other functions
 252:..\..\..\arduinoLCD\test\Pain Drain\libraries\lvgl\src\core/lv_obj_scroll.c ****  *====================*/
 253:..\..\..\arduinoLCD\test\Pain Drain\libraries\lvgl\src\core/lv_obj_scroll.c **** 
 254:..\..\..\arduinoLCD\test\Pain Drain\libraries\lvgl\src\core/lv_obj_scroll.c **** void lv_obj_scroll_by_bounded(lv_obj_t * obj, lv_coord_t dx, lv_coord_t dy, lv_anim_enable_t anim_e
 255:..\..\..\arduinoLCD\test\Pain Drain\libraries\lvgl\src\core/lv_obj_scroll.c **** {
 256:..\..\..\arduinoLCD\test\Pain Drain\libraries\lvgl\src\core/lv_obj_scroll.c ****     if(dx == 0 && dy == 0) return;
 257:..\..\..\arduinoLCD\test\Pain Drain\libraries\lvgl\src\core/lv_obj_scroll.c **** 
 258:..\..\..\arduinoLCD\test\Pain Drain\libraries\lvgl\src\core/lv_obj_scroll.c ****     /*We need to know the final sizes for bound check*/
 259:..\..\..\arduinoLCD\test\Pain Drain\libraries\lvgl\src\core/lv_obj_scroll.c ****     lv_obj_update_layout(obj);
ARM GAS  C:\Users\haske\AppData\Local\Temp\ccFGDFhR.s 			page 6


 260:..\..\..\arduinoLCD\test\Pain Drain\libraries\lvgl\src\core/lv_obj_scroll.c **** 
 261:..\..\..\arduinoLCD\test\Pain Drain\libraries\lvgl\src\core/lv_obj_scroll.c ****     /*Don't let scroll more then naturally possible by the size of the content*/
 262:..\..\..\arduinoLCD\test\Pain Drain\libraries\lvgl\src\core/lv_obj_scroll.c ****     lv_coord_t x_current = -lv_obj_get_scroll_x(obj);
 263:..\..\..\arduinoLCD\test\Pain Drain\libraries\lvgl\src\core/lv_obj_scroll.c ****     lv_coord_t x_bounded = x_current + dx;
 264:..\..\..\arduinoLCD\test\Pain Drain\libraries\lvgl\src\core/lv_obj_scroll.c **** 
 265:..\..\..\arduinoLCD\test\Pain Drain\libraries\lvgl\src\core/lv_obj_scroll.c ****     if(lv_obj_get_style_base_dir(obj, LV_PART_MAIN) != LV_BASE_DIR_RTL) {
 266:..\..\..\arduinoLCD\test\Pain Drain\libraries\lvgl\src\core/lv_obj_scroll.c ****         if(x_bounded > 0) x_bounded = 0;
 267:..\..\..\arduinoLCD\test\Pain Drain\libraries\lvgl\src\core/lv_obj_scroll.c ****         if(x_bounded < 0) {
 268:..\..\..\arduinoLCD\test\Pain Drain\libraries\lvgl\src\core/lv_obj_scroll.c ****             lv_coord_t  scroll_max = lv_obj_get_scroll_left(obj) + lv_obj_get_scroll_right(obj);
 269:..\..\..\arduinoLCD\test\Pain Drain\libraries\lvgl\src\core/lv_obj_scroll.c ****             if(scroll_max < 0) scroll_max = 0;
 270:..\..\..\arduinoLCD\test\Pain Drain\libraries\lvgl\src\core/lv_obj_scroll.c **** 
 271:..\..\..\arduinoLCD\test\Pain Drain\libraries\lvgl\src\core/lv_obj_scroll.c ****             if(x_bounded < -scroll_max) x_bounded = -scroll_max;
 272:..\..\..\arduinoLCD\test\Pain Drain\libraries\lvgl\src\core/lv_obj_scroll.c ****         }
 273:..\..\..\arduinoLCD\test\Pain Drain\libraries\lvgl\src\core/lv_obj_scroll.c ****     }
 274:..\..\..\arduinoLCD\test\Pain Drain\libraries\lvgl\src\core/lv_obj_scroll.c ****     else {
 275:..\..\..\arduinoLCD\test\Pain Drain\libraries\lvgl\src\core/lv_obj_scroll.c ****         if(x_bounded < 0) x_bounded = 0;
 276:..\..\..\arduinoLCD\test\Pain Drain\libraries\lvgl\src\core/lv_obj_scroll.c ****         if(x_bounded > 0) {
 277:..\..\..\arduinoLCD\test\Pain Drain\libraries\lvgl\src\core/lv_obj_scroll.c ****             lv_coord_t  scroll_max = lv_obj_get_scroll_left(obj) + lv_obj_get_scroll_right(obj);
 278:..\..\..\arduinoLCD\test\Pain Drain\libraries\lvgl\src\core/lv_obj_scroll.c ****             if(scroll_max < 0) scroll_max = 0;
 279:..\..\..\arduinoLCD\test\Pain Drain\libraries\lvgl\src\core/lv_obj_scroll.c **** 
 280:..\..\..\arduinoLCD\test\Pain Drain\libraries\lvgl\src\core/lv_obj_scroll.c ****             if(x_bounded > scroll_max) x_bounded = scroll_max;
 281:..\..\..\arduinoLCD\test\Pain Drain\libraries\lvgl\src\core/lv_obj_scroll.c ****         }
 282:..\..\..\arduinoLCD\test\Pain Drain\libraries\lvgl\src\core/lv_obj_scroll.c ****     }
 283:..\..\..\arduinoLCD\test\Pain Drain\libraries\lvgl\src\core/lv_obj_scroll.c **** 
 284:..\..\..\arduinoLCD\test\Pain Drain\libraries\lvgl\src\core/lv_obj_scroll.c ****     /*Don't let scroll more then naturally possible by the size of the content*/
 285:..\..\..\arduinoLCD\test\Pain Drain\libraries\lvgl\src\core/lv_obj_scroll.c ****     lv_coord_t y_current = -lv_obj_get_scroll_y(obj);
 286:..\..\..\arduinoLCD\test\Pain Drain\libraries\lvgl\src\core/lv_obj_scroll.c ****     lv_coord_t y_bounded = y_current + dy;
 287:..\..\..\arduinoLCD\test\Pain Drain\libraries\lvgl\src\core/lv_obj_scroll.c **** 
 288:..\..\..\arduinoLCD\test\Pain Drain\libraries\lvgl\src\core/lv_obj_scroll.c ****     if(y_bounded > 0) y_bounded = 0;
 289:..\..\..\arduinoLCD\test\Pain Drain\libraries\lvgl\src\core/lv_obj_scroll.c ****     if(y_bounded < 0) {
 290:..\..\..\arduinoLCD\test\Pain Drain\libraries\lvgl\src\core/lv_obj_scroll.c ****         lv_coord_t  scroll_max = lv_obj_get_scroll_top(obj) + lv_obj_get_scroll_bottom(obj);
 291:..\..\..\arduinoLCD\test\Pain Drain\libraries\lvgl\src\core/lv_obj_scroll.c ****         if(scroll_max < 0) scroll_max = 0;
 292:..\..\..\arduinoLCD\test\Pain Drain\libraries\lvgl\src\core/lv_obj_scroll.c ****         if(y_bounded < -scroll_max) y_bounded = -scroll_max;
 293:..\..\..\arduinoLCD\test\Pain Drain\libraries\lvgl\src\core/lv_obj_scroll.c ****     }
 294:..\..\..\arduinoLCD\test\Pain Drain\libraries\lvgl\src\core/lv_obj_scroll.c **** 
 295:..\..\..\arduinoLCD\test\Pain Drain\libraries\lvgl\src\core/lv_obj_scroll.c ****     dx = x_bounded - x_current;
 296:..\..\..\arduinoLCD\test\Pain Drain\libraries\lvgl\src\core/lv_obj_scroll.c ****     dy = y_bounded - y_current;
 297:..\..\..\arduinoLCD\test\Pain Drain\libraries\lvgl\src\core/lv_obj_scroll.c ****     if(dx || dy) {
 298:..\..\..\arduinoLCD\test\Pain Drain\libraries\lvgl\src\core/lv_obj_scroll.c ****         lv_obj_scroll_by(obj, dx, dy, anim_en);
 299:..\..\..\arduinoLCD\test\Pain Drain\libraries\lvgl\src\core/lv_obj_scroll.c ****     }
 300:..\..\..\arduinoLCD\test\Pain Drain\libraries\lvgl\src\core/lv_obj_scroll.c **** }
 301:..\..\..\arduinoLCD\test\Pain Drain\libraries\lvgl\src\core/lv_obj_scroll.c **** 
 302:..\..\..\arduinoLCD\test\Pain Drain\libraries\lvgl\src\core/lv_obj_scroll.c **** 
 303:..\..\..\arduinoLCD\test\Pain Drain\libraries\lvgl\src\core/lv_obj_scroll.c **** void lv_obj_scroll_by(lv_obj_t * obj, lv_coord_t dx, lv_coord_t dy, lv_anim_enable_t anim_en)
 304:..\..\..\arduinoLCD\test\Pain Drain\libraries\lvgl\src\core/lv_obj_scroll.c **** {
 305:..\..\..\arduinoLCD\test\Pain Drain\libraries\lvgl\src\core/lv_obj_scroll.c ****     if(dx == 0 && dy == 0) return;
 306:..\..\..\arduinoLCD\test\Pain Drain\libraries\lvgl\src\core/lv_obj_scroll.c ****     if(anim_en == LV_ANIM_ON) {
 307:..\..\..\arduinoLCD\test\Pain Drain\libraries\lvgl\src\core/lv_obj_scroll.c ****         lv_disp_t * d = lv_obj_get_disp(obj);
 308:..\..\..\arduinoLCD\test\Pain Drain\libraries\lvgl\src\core/lv_obj_scroll.c ****         lv_anim_t a;
 309:..\..\..\arduinoLCD\test\Pain Drain\libraries\lvgl\src\core/lv_obj_scroll.c ****         lv_anim_init(&a);
 310:..\..\..\arduinoLCD\test\Pain Drain\libraries\lvgl\src\core/lv_obj_scroll.c ****         lv_anim_set_var(&a, obj);
 311:..\..\..\arduinoLCD\test\Pain Drain\libraries\lvgl\src\core/lv_obj_scroll.c ****         lv_anim_set_ready_cb(&a, scroll_anim_ready_cb);
 312:..\..\..\arduinoLCD\test\Pain Drain\libraries\lvgl\src\core/lv_obj_scroll.c **** 
 313:..\..\..\arduinoLCD\test\Pain Drain\libraries\lvgl\src\core/lv_obj_scroll.c ****         if(dx) {
 314:..\..\..\arduinoLCD\test\Pain Drain\libraries\lvgl\src\core/lv_obj_scroll.c ****             uint32_t t = lv_anim_speed_to_time((lv_disp_get_hor_res(d) * 2) >> 2, 0, dx);
 315:..\..\..\arduinoLCD\test\Pain Drain\libraries\lvgl\src\core/lv_obj_scroll.c ****             if(t < SCROLL_ANIM_TIME_MIN) t = SCROLL_ANIM_TIME_MIN;
 316:..\..\..\arduinoLCD\test\Pain Drain\libraries\lvgl\src\core/lv_obj_scroll.c ****             if(t > SCROLL_ANIM_TIME_MAX) t = SCROLL_ANIM_TIME_MAX;
ARM GAS  C:\Users\haske\AppData\Local\Temp\ccFGDFhR.s 			page 7


 317:..\..\..\arduinoLCD\test\Pain Drain\libraries\lvgl\src\core/lv_obj_scroll.c ****             lv_anim_set_time(&a, t);
 318:..\..\..\arduinoLCD\test\Pain Drain\libraries\lvgl\src\core/lv_obj_scroll.c ****             lv_coord_t sx = lv_obj_get_scroll_x(obj);
 319:..\..\..\arduinoLCD\test\Pain Drain\libraries\lvgl\src\core/lv_obj_scroll.c ****             lv_anim_set_values(&a, -sx, -sx + dx);
 320:..\..\..\arduinoLCD\test\Pain Drain\libraries\lvgl\src\core/lv_obj_scroll.c ****             lv_anim_set_exec_cb(&a, scroll_x_anim);
 321:..\..\..\arduinoLCD\test\Pain Drain\libraries\lvgl\src\core/lv_obj_scroll.c ****             lv_anim_set_path_cb(&a, lv_anim_path_ease_out);
 322:..\..\..\arduinoLCD\test\Pain Drain\libraries\lvgl\src\core/lv_obj_scroll.c **** 
 323:..\..\..\arduinoLCD\test\Pain Drain\libraries\lvgl\src\core/lv_obj_scroll.c ****             lv_res_t res;
 324:..\..\..\arduinoLCD\test\Pain Drain\libraries\lvgl\src\core/lv_obj_scroll.c ****             res = lv_event_send(obj, LV_EVENT_SCROLL_BEGIN, &a);
 325:..\..\..\arduinoLCD\test\Pain Drain\libraries\lvgl\src\core/lv_obj_scroll.c ****             if(res != LV_RES_OK) return;
 326:..\..\..\arduinoLCD\test\Pain Drain\libraries\lvgl\src\core/lv_obj_scroll.c ****             lv_anim_start(&a);
 327:..\..\..\arduinoLCD\test\Pain Drain\libraries\lvgl\src\core/lv_obj_scroll.c ****         }
 328:..\..\..\arduinoLCD\test\Pain Drain\libraries\lvgl\src\core/lv_obj_scroll.c **** 
 329:..\..\..\arduinoLCD\test\Pain Drain\libraries\lvgl\src\core/lv_obj_scroll.c ****         if(dy) {
 330:..\..\..\arduinoLCD\test\Pain Drain\libraries\lvgl\src\core/lv_obj_scroll.c ****             uint32_t t = lv_anim_speed_to_time((lv_disp_get_ver_res(d) * 2) >> 2, 0, dy);
 331:..\..\..\arduinoLCD\test\Pain Drain\libraries\lvgl\src\core/lv_obj_scroll.c ****             if(t < SCROLL_ANIM_TIME_MIN) t = SCROLL_ANIM_TIME_MIN;
 332:..\..\..\arduinoLCD\test\Pain Drain\libraries\lvgl\src\core/lv_obj_scroll.c ****             if(t > SCROLL_ANIM_TIME_MAX) t = SCROLL_ANIM_TIME_MAX;
 333:..\..\..\arduinoLCD\test\Pain Drain\libraries\lvgl\src\core/lv_obj_scroll.c ****             lv_anim_set_time(&a, t);
 334:..\..\..\arduinoLCD\test\Pain Drain\libraries\lvgl\src\core/lv_obj_scroll.c ****             lv_coord_t sy = lv_obj_get_scroll_y(obj);
 335:..\..\..\arduinoLCD\test\Pain Drain\libraries\lvgl\src\core/lv_obj_scroll.c ****             lv_anim_set_values(&a, -sy, -sy + dy);
 336:..\..\..\arduinoLCD\test\Pain Drain\libraries\lvgl\src\core/lv_obj_scroll.c ****             lv_anim_set_exec_cb(&a,  scroll_y_anim);
 337:..\..\..\arduinoLCD\test\Pain Drain\libraries\lvgl\src\core/lv_obj_scroll.c ****             lv_anim_set_path_cb(&a, lv_anim_path_ease_out);
 338:..\..\..\arduinoLCD\test\Pain Drain\libraries\lvgl\src\core/lv_obj_scroll.c **** 
 339:..\..\..\arduinoLCD\test\Pain Drain\libraries\lvgl\src\core/lv_obj_scroll.c ****             lv_res_t res;
 340:..\..\..\arduinoLCD\test\Pain Drain\libraries\lvgl\src\core/lv_obj_scroll.c ****             res = lv_event_send(obj, LV_EVENT_SCROLL_BEGIN, &a);
 341:..\..\..\arduinoLCD\test\Pain Drain\libraries\lvgl\src\core/lv_obj_scroll.c ****             if(res != LV_RES_OK) return;
 342:..\..\..\arduinoLCD\test\Pain Drain\libraries\lvgl\src\core/lv_obj_scroll.c ****             lv_anim_start(&a);
 343:..\..\..\arduinoLCD\test\Pain Drain\libraries\lvgl\src\core/lv_obj_scroll.c ****         }
 344:..\..\..\arduinoLCD\test\Pain Drain\libraries\lvgl\src\core/lv_obj_scroll.c ****     }
 345:..\..\..\arduinoLCD\test\Pain Drain\libraries\lvgl\src\core/lv_obj_scroll.c ****     else {
 346:..\..\..\arduinoLCD\test\Pain Drain\libraries\lvgl\src\core/lv_obj_scroll.c ****         /*Remove pending animations*/
 347:..\..\..\arduinoLCD\test\Pain Drain\libraries\lvgl\src\core/lv_obj_scroll.c ****         lv_anim_del(obj, scroll_y_anim);
 348:..\..\..\arduinoLCD\test\Pain Drain\libraries\lvgl\src\core/lv_obj_scroll.c ****         lv_anim_del(obj, scroll_x_anim);
 349:..\..\..\arduinoLCD\test\Pain Drain\libraries\lvgl\src\core/lv_obj_scroll.c **** 
 350:..\..\..\arduinoLCD\test\Pain Drain\libraries\lvgl\src\core/lv_obj_scroll.c ****         lv_res_t res;
 351:..\..\..\arduinoLCD\test\Pain Drain\libraries\lvgl\src\core/lv_obj_scroll.c ****         res = lv_event_send(obj, LV_EVENT_SCROLL_BEGIN, NULL);
 352:..\..\..\arduinoLCD\test\Pain Drain\libraries\lvgl\src\core/lv_obj_scroll.c ****         if(res != LV_RES_OK) return;
 353:..\..\..\arduinoLCD\test\Pain Drain\libraries\lvgl\src\core/lv_obj_scroll.c **** 
 354:..\..\..\arduinoLCD\test\Pain Drain\libraries\lvgl\src\core/lv_obj_scroll.c ****         res = _lv_obj_scroll_by_raw(obj, dx, dy);
 355:..\..\..\arduinoLCD\test\Pain Drain\libraries\lvgl\src\core/lv_obj_scroll.c ****         if(res != LV_RES_OK) return;
 356:..\..\..\arduinoLCD\test\Pain Drain\libraries\lvgl\src\core/lv_obj_scroll.c **** 
 357:..\..\..\arduinoLCD\test\Pain Drain\libraries\lvgl\src\core/lv_obj_scroll.c ****         res = lv_event_send(obj, LV_EVENT_SCROLL_END, NULL);
 358:..\..\..\arduinoLCD\test\Pain Drain\libraries\lvgl\src\core/lv_obj_scroll.c ****         if(res != LV_RES_OK) return;
 359:..\..\..\arduinoLCD\test\Pain Drain\libraries\lvgl\src\core/lv_obj_scroll.c ****     }
 360:..\..\..\arduinoLCD\test\Pain Drain\libraries\lvgl\src\core/lv_obj_scroll.c **** }
 361:..\..\..\arduinoLCD\test\Pain Drain\libraries\lvgl\src\core/lv_obj_scroll.c **** 
 362:..\..\..\arduinoLCD\test\Pain Drain\libraries\lvgl\src\core/lv_obj_scroll.c **** void lv_obj_scroll_to(lv_obj_t * obj, lv_coord_t x, lv_coord_t y, lv_anim_enable_t anim_en)
 363:..\..\..\arduinoLCD\test\Pain Drain\libraries\lvgl\src\core/lv_obj_scroll.c **** {
 364:..\..\..\arduinoLCD\test\Pain Drain\libraries\lvgl\src\core/lv_obj_scroll.c ****     lv_obj_scroll_to_x(obj, x, anim_en);
 365:..\..\..\arduinoLCD\test\Pain Drain\libraries\lvgl\src\core/lv_obj_scroll.c ****     lv_obj_scroll_to_y(obj, y, anim_en);
 366:..\..\..\arduinoLCD\test\Pain Drain\libraries\lvgl\src\core/lv_obj_scroll.c **** }
 367:..\..\..\arduinoLCD\test\Pain Drain\libraries\lvgl\src\core/lv_obj_scroll.c **** 
 368:..\..\..\arduinoLCD\test\Pain Drain\libraries\lvgl\src\core/lv_obj_scroll.c **** void lv_obj_scroll_to_x(lv_obj_t * obj, lv_coord_t x, lv_anim_enable_t anim_en)
 369:..\..\..\arduinoLCD\test\Pain Drain\libraries\lvgl\src\core/lv_obj_scroll.c **** {
 370:..\..\..\arduinoLCD\test\Pain Drain\libraries\lvgl\src\core/lv_obj_scroll.c ****     lv_anim_del(obj, scroll_x_anim);
 371:..\..\..\arduinoLCD\test\Pain Drain\libraries\lvgl\src\core/lv_obj_scroll.c **** 
 372:..\..\..\arduinoLCD\test\Pain Drain\libraries\lvgl\src\core/lv_obj_scroll.c ****     lv_coord_t scroll_x = lv_obj_get_scroll_x(obj);
 373:..\..\..\arduinoLCD\test\Pain Drain\libraries\lvgl\src\core/lv_obj_scroll.c ****     lv_coord_t diff = -x + scroll_x;
ARM GAS  C:\Users\haske\AppData\Local\Temp\ccFGDFhR.s 			page 8


 374:..\..\..\arduinoLCD\test\Pain Drain\libraries\lvgl\src\core/lv_obj_scroll.c **** 
 375:..\..\..\arduinoLCD\test\Pain Drain\libraries\lvgl\src\core/lv_obj_scroll.c ****     lv_obj_scroll_by_bounded(obj, diff, 0, anim_en);
 376:..\..\..\arduinoLCD\test\Pain Drain\libraries\lvgl\src\core/lv_obj_scroll.c **** }
 377:..\..\..\arduinoLCD\test\Pain Drain\libraries\lvgl\src\core/lv_obj_scroll.c **** 
 378:..\..\..\arduinoLCD\test\Pain Drain\libraries\lvgl\src\core/lv_obj_scroll.c **** void lv_obj_scroll_to_y(lv_obj_t * obj, lv_coord_t y, lv_anim_enable_t anim_en)
 379:..\..\..\arduinoLCD\test\Pain Drain\libraries\lvgl\src\core/lv_obj_scroll.c **** {
 380:..\..\..\arduinoLCD\test\Pain Drain\libraries\lvgl\src\core/lv_obj_scroll.c ****     lv_anim_del(obj, scroll_y_anim);
 381:..\..\..\arduinoLCD\test\Pain Drain\libraries\lvgl\src\core/lv_obj_scroll.c **** 
 382:..\..\..\arduinoLCD\test\Pain Drain\libraries\lvgl\src\core/lv_obj_scroll.c ****     lv_coord_t scroll_y = lv_obj_get_scroll_y(obj);
 383:..\..\..\arduinoLCD\test\Pain Drain\libraries\lvgl\src\core/lv_obj_scroll.c ****     lv_coord_t diff = -y + scroll_y;
 384:..\..\..\arduinoLCD\test\Pain Drain\libraries\lvgl\src\core/lv_obj_scroll.c **** 
 385:..\..\..\arduinoLCD\test\Pain Drain\libraries\lvgl\src\core/lv_obj_scroll.c ****     lv_obj_scroll_by_bounded(obj, 0, diff, anim_en);
 386:..\..\..\arduinoLCD\test\Pain Drain\libraries\lvgl\src\core/lv_obj_scroll.c **** }
 387:..\..\..\arduinoLCD\test\Pain Drain\libraries\lvgl\src\core/lv_obj_scroll.c **** 
 388:..\..\..\arduinoLCD\test\Pain Drain\libraries\lvgl\src\core/lv_obj_scroll.c **** void lv_obj_scroll_to_view(lv_obj_t * obj, lv_anim_enable_t anim_en)
 389:..\..\..\arduinoLCD\test\Pain Drain\libraries\lvgl\src\core/lv_obj_scroll.c **** {
 390:..\..\..\arduinoLCD\test\Pain Drain\libraries\lvgl\src\core/lv_obj_scroll.c ****     /*Be sure the screens layout is correct*/
 391:..\..\..\arduinoLCD\test\Pain Drain\libraries\lvgl\src\core/lv_obj_scroll.c ****     lv_obj_update_layout(obj);
 392:..\..\..\arduinoLCD\test\Pain Drain\libraries\lvgl\src\core/lv_obj_scroll.c **** 
 393:..\..\..\arduinoLCD\test\Pain Drain\libraries\lvgl\src\core/lv_obj_scroll.c ****     lv_point_t p = {0, 0};
 394:..\..\..\arduinoLCD\test\Pain Drain\libraries\lvgl\src\core/lv_obj_scroll.c ****     scroll_area_into_view(&obj->coords, obj, &p, anim_en);
 395:..\..\..\arduinoLCD\test\Pain Drain\libraries\lvgl\src\core/lv_obj_scroll.c **** }
 396:..\..\..\arduinoLCD\test\Pain Drain\libraries\lvgl\src\core/lv_obj_scroll.c **** 
 397:..\..\..\arduinoLCD\test\Pain Drain\libraries\lvgl\src\core/lv_obj_scroll.c **** void lv_obj_scroll_to_view_recursive(lv_obj_t * obj, lv_anim_enable_t anim_en)
 398:..\..\..\arduinoLCD\test\Pain Drain\libraries\lvgl\src\core/lv_obj_scroll.c **** {
 399:..\..\..\arduinoLCD\test\Pain Drain\libraries\lvgl\src\core/lv_obj_scroll.c ****     /*Be sure the screens layout is correct*/
 400:..\..\..\arduinoLCD\test\Pain Drain\libraries\lvgl\src\core/lv_obj_scroll.c ****     lv_obj_update_layout(obj);
 401:..\..\..\arduinoLCD\test\Pain Drain\libraries\lvgl\src\core/lv_obj_scroll.c **** 
 402:..\..\..\arduinoLCD\test\Pain Drain\libraries\lvgl\src\core/lv_obj_scroll.c ****     lv_point_t p = {0, 0};
 403:..\..\..\arduinoLCD\test\Pain Drain\libraries\lvgl\src\core/lv_obj_scroll.c ****     lv_obj_t * child = obj;
 404:..\..\..\arduinoLCD\test\Pain Drain\libraries\lvgl\src\core/lv_obj_scroll.c ****     lv_obj_t * parent = lv_obj_get_parent(child);
 405:..\..\..\arduinoLCD\test\Pain Drain\libraries\lvgl\src\core/lv_obj_scroll.c ****     while(parent) {
 406:..\..\..\arduinoLCD\test\Pain Drain\libraries\lvgl\src\core/lv_obj_scroll.c ****         scroll_area_into_view(&obj->coords, child, &p, anim_en);
 407:..\..\..\arduinoLCD\test\Pain Drain\libraries\lvgl\src\core/lv_obj_scroll.c ****         child = parent;
 408:..\..\..\arduinoLCD\test\Pain Drain\libraries\lvgl\src\core/lv_obj_scroll.c ****         parent = lv_obj_get_parent(parent);
 409:..\..\..\arduinoLCD\test\Pain Drain\libraries\lvgl\src\core/lv_obj_scroll.c ****     }
 410:..\..\..\arduinoLCD\test\Pain Drain\libraries\lvgl\src\core/lv_obj_scroll.c **** }
 411:..\..\..\arduinoLCD\test\Pain Drain\libraries\lvgl\src\core/lv_obj_scroll.c **** 
 412:..\..\..\arduinoLCD\test\Pain Drain\libraries\lvgl\src\core/lv_obj_scroll.c **** lv_res_t _lv_obj_scroll_by_raw(lv_obj_t * obj, lv_coord_t x, lv_coord_t y)
 413:..\..\..\arduinoLCD\test\Pain Drain\libraries\lvgl\src\core/lv_obj_scroll.c **** {
 414:..\..\..\arduinoLCD\test\Pain Drain\libraries\lvgl\src\core/lv_obj_scroll.c ****     if(x == 0 && y == 0) return LV_RES_OK;
 415:..\..\..\arduinoLCD\test\Pain Drain\libraries\lvgl\src\core/lv_obj_scroll.c **** 
 416:..\..\..\arduinoLCD\test\Pain Drain\libraries\lvgl\src\core/lv_obj_scroll.c ****     lv_obj_allocate_spec_attr(obj);
 417:..\..\..\arduinoLCD\test\Pain Drain\libraries\lvgl\src\core/lv_obj_scroll.c **** 
 418:..\..\..\arduinoLCD\test\Pain Drain\libraries\lvgl\src\core/lv_obj_scroll.c ****     obj->spec_attr->scroll.x += x;
 419:..\..\..\arduinoLCD\test\Pain Drain\libraries\lvgl\src\core/lv_obj_scroll.c ****     obj->spec_attr->scroll.y += y;
 420:..\..\..\arduinoLCD\test\Pain Drain\libraries\lvgl\src\core/lv_obj_scroll.c **** 
 421:..\..\..\arduinoLCD\test\Pain Drain\libraries\lvgl\src\core/lv_obj_scroll.c ****     lv_obj_move_children_by(obj, x, y, true);
 422:..\..\..\arduinoLCD\test\Pain Drain\libraries\lvgl\src\core/lv_obj_scroll.c ****     lv_res_t res = lv_event_send(obj, LV_EVENT_SCROLL, NULL);
 423:..\..\..\arduinoLCD\test\Pain Drain\libraries\lvgl\src\core/lv_obj_scroll.c ****     if(res != LV_RES_OK) return res;
 424:..\..\..\arduinoLCD\test\Pain Drain\libraries\lvgl\src\core/lv_obj_scroll.c ****     lv_obj_invalidate(obj);
 425:..\..\..\arduinoLCD\test\Pain Drain\libraries\lvgl\src\core/lv_obj_scroll.c ****     return LV_RES_OK;
 426:..\..\..\arduinoLCD\test\Pain Drain\libraries\lvgl\src\core/lv_obj_scroll.c **** }
 427:..\..\..\arduinoLCD\test\Pain Drain\libraries\lvgl\src\core/lv_obj_scroll.c **** 
 428:..\..\..\arduinoLCD\test\Pain Drain\libraries\lvgl\src\core/lv_obj_scroll.c **** 
 429:..\..\..\arduinoLCD\test\Pain Drain\libraries\lvgl\src\core/lv_obj_scroll.c **** bool lv_obj_is_scrolling(const lv_obj_t * obj)
 430:..\..\..\arduinoLCD\test\Pain Drain\libraries\lvgl\src\core/lv_obj_scroll.c **** {
ARM GAS  C:\Users\haske\AppData\Local\Temp\ccFGDFhR.s 			page 9


 431:..\..\..\arduinoLCD\test\Pain Drain\libraries\lvgl\src\core/lv_obj_scroll.c ****     lv_indev_t * indev = lv_indev_get_next(NULL);
 432:..\..\..\arduinoLCD\test\Pain Drain\libraries\lvgl\src\core/lv_obj_scroll.c ****     while(indev) {
 433:..\..\..\arduinoLCD\test\Pain Drain\libraries\lvgl\src\core/lv_obj_scroll.c ****         if(lv_indev_get_scroll_obj(indev) == obj) return true;
 434:..\..\..\arduinoLCD\test\Pain Drain\libraries\lvgl\src\core/lv_obj_scroll.c ****         indev = lv_indev_get_next(indev);
 435:..\..\..\arduinoLCD\test\Pain Drain\libraries\lvgl\src\core/lv_obj_scroll.c ****     }
 436:..\..\..\arduinoLCD\test\Pain Drain\libraries\lvgl\src\core/lv_obj_scroll.c **** 
 437:..\..\..\arduinoLCD\test\Pain Drain\libraries\lvgl\src\core/lv_obj_scroll.c ****     return false;
 438:..\..\..\arduinoLCD\test\Pain Drain\libraries\lvgl\src\core/lv_obj_scroll.c **** }
 439:..\..\..\arduinoLCD\test\Pain Drain\libraries\lvgl\src\core/lv_obj_scroll.c **** 
 440:..\..\..\arduinoLCD\test\Pain Drain\libraries\lvgl\src\core/lv_obj_scroll.c **** void lv_obj_update_snap(lv_obj_t * obj, lv_anim_enable_t anim_en)
 441:..\..\..\arduinoLCD\test\Pain Drain\libraries\lvgl\src\core/lv_obj_scroll.c **** {
 442:..\..\..\arduinoLCD\test\Pain Drain\libraries\lvgl\src\core/lv_obj_scroll.c ****     lv_obj_update_layout(obj);
 443:..\..\..\arduinoLCD\test\Pain Drain\libraries\lvgl\src\core/lv_obj_scroll.c ****     lv_point_t p;
 444:..\..\..\arduinoLCD\test\Pain Drain\libraries\lvgl\src\core/lv_obj_scroll.c ****     lv_indev_scroll_get_snap_dist(obj, &p);
 445:..\..\..\arduinoLCD\test\Pain Drain\libraries\lvgl\src\core/lv_obj_scroll.c ****     lv_obj_scroll_by(obj, p.x, p.y, anim_en);
 446:..\..\..\arduinoLCD\test\Pain Drain\libraries\lvgl\src\core/lv_obj_scroll.c **** }
 447:..\..\..\arduinoLCD\test\Pain Drain\libraries\lvgl\src\core/lv_obj_scroll.c **** 
 448:..\..\..\arduinoLCD\test\Pain Drain\libraries\lvgl\src\core/lv_obj_scroll.c **** void lv_obj_get_scrollbar_area(lv_obj_t * obj, lv_area_t * hor_area, lv_area_t * ver_area)
 449:..\..\..\arduinoLCD\test\Pain Drain\libraries\lvgl\src\core/lv_obj_scroll.c **** {
 450:..\..\..\arduinoLCD\test\Pain Drain\libraries\lvgl\src\core/lv_obj_scroll.c ****     lv_area_set(hor_area, 0, 0, -1, -1);
 451:..\..\..\arduinoLCD\test\Pain Drain\libraries\lvgl\src\core/lv_obj_scroll.c ****     lv_area_set(ver_area, 0, 0, -1, -1);
 452:..\..\..\arduinoLCD\test\Pain Drain\libraries\lvgl\src\core/lv_obj_scroll.c **** 
 453:..\..\..\arduinoLCD\test\Pain Drain\libraries\lvgl\src\core/lv_obj_scroll.c ****     if(lv_obj_has_flag(obj, LV_OBJ_FLAG_SCROLLABLE) == false) return;
 454:..\..\..\arduinoLCD\test\Pain Drain\libraries\lvgl\src\core/lv_obj_scroll.c **** 
 455:..\..\..\arduinoLCD\test\Pain Drain\libraries\lvgl\src\core/lv_obj_scroll.c ****     lv_dir_t sm = lv_obj_get_scrollbar_mode(obj);
 456:..\..\..\arduinoLCD\test\Pain Drain\libraries\lvgl\src\core/lv_obj_scroll.c ****     if(sm == LV_SCROLLBAR_MODE_OFF)  return;
 457:..\..\..\arduinoLCD\test\Pain Drain\libraries\lvgl\src\core/lv_obj_scroll.c **** 
 458:..\..\..\arduinoLCD\test\Pain Drain\libraries\lvgl\src\core/lv_obj_scroll.c ****     /*If there is no indev scrolling this object but `mode==active` return*/
 459:..\..\..\arduinoLCD\test\Pain Drain\libraries\lvgl\src\core/lv_obj_scroll.c ****     lv_indev_t * indev = lv_indev_get_next(NULL);
 460:..\..\..\arduinoLCD\test\Pain Drain\libraries\lvgl\src\core/lv_obj_scroll.c ****     if(sm == LV_SCROLLBAR_MODE_ACTIVE) {
 461:..\..\..\arduinoLCD\test\Pain Drain\libraries\lvgl\src\core/lv_obj_scroll.c ****         while(indev) {
 462:..\..\..\arduinoLCD\test\Pain Drain\libraries\lvgl\src\core/lv_obj_scroll.c ****             if(lv_indev_get_scroll_obj(indev) == obj) break;
 463:..\..\..\arduinoLCD\test\Pain Drain\libraries\lvgl\src\core/lv_obj_scroll.c ****             indev = lv_indev_get_next(indev);
 464:..\..\..\arduinoLCD\test\Pain Drain\libraries\lvgl\src\core/lv_obj_scroll.c ****         }
 465:..\..\..\arduinoLCD\test\Pain Drain\libraries\lvgl\src\core/lv_obj_scroll.c ****         if(indev == NULL)  return;
 466:..\..\..\arduinoLCD\test\Pain Drain\libraries\lvgl\src\core/lv_obj_scroll.c ****     }
 467:..\..\..\arduinoLCD\test\Pain Drain\libraries\lvgl\src\core/lv_obj_scroll.c **** 
 468:..\..\..\arduinoLCD\test\Pain Drain\libraries\lvgl\src\core/lv_obj_scroll.c ****     lv_coord_t st = lv_obj_get_scroll_top(obj);
 469:..\..\..\arduinoLCD\test\Pain Drain\libraries\lvgl\src\core/lv_obj_scroll.c ****     lv_coord_t sb = lv_obj_get_scroll_bottom(obj);
 470:..\..\..\arduinoLCD\test\Pain Drain\libraries\lvgl\src\core/lv_obj_scroll.c ****     lv_coord_t sl = lv_obj_get_scroll_left(obj);
 471:..\..\..\arduinoLCD\test\Pain Drain\libraries\lvgl\src\core/lv_obj_scroll.c ****     lv_coord_t sr = lv_obj_get_scroll_right(obj);
 472:..\..\..\arduinoLCD\test\Pain Drain\libraries\lvgl\src\core/lv_obj_scroll.c **** 
 473:..\..\..\arduinoLCD\test\Pain Drain\libraries\lvgl\src\core/lv_obj_scroll.c ****     lv_dir_t dir = lv_obj_get_scroll_dir(obj);
 474:..\..\..\arduinoLCD\test\Pain Drain\libraries\lvgl\src\core/lv_obj_scroll.c **** 
 475:..\..\..\arduinoLCD\test\Pain Drain\libraries\lvgl\src\core/lv_obj_scroll.c ****     bool ver_draw = false;
 476:..\..\..\arduinoLCD\test\Pain Drain\libraries\lvgl\src\core/lv_obj_scroll.c ****     if((dir & LV_DIR_VER) &&
 477:..\..\..\arduinoLCD\test\Pain Drain\libraries\lvgl\src\core/lv_obj_scroll.c ****        ((sm == LV_SCROLLBAR_MODE_ON) ||
 478:..\..\..\arduinoLCD\test\Pain Drain\libraries\lvgl\src\core/lv_obj_scroll.c ****         (sm == LV_SCROLLBAR_MODE_AUTO && (st > 0 || sb > 0)) ||
 479:..\..\..\arduinoLCD\test\Pain Drain\libraries\lvgl\src\core/lv_obj_scroll.c ****         (sm == LV_SCROLLBAR_MODE_ACTIVE && lv_indev_get_scroll_dir(indev) == LV_DIR_VER))) {
 480:..\..\..\arduinoLCD\test\Pain Drain\libraries\lvgl\src\core/lv_obj_scroll.c ****         ver_draw = true;
 481:..\..\..\arduinoLCD\test\Pain Drain\libraries\lvgl\src\core/lv_obj_scroll.c ****     }
 482:..\..\..\arduinoLCD\test\Pain Drain\libraries\lvgl\src\core/lv_obj_scroll.c **** 
 483:..\..\..\arduinoLCD\test\Pain Drain\libraries\lvgl\src\core/lv_obj_scroll.c **** 
 484:..\..\..\arduinoLCD\test\Pain Drain\libraries\lvgl\src\core/lv_obj_scroll.c ****     bool hor_draw = false;
 485:..\..\..\arduinoLCD\test\Pain Drain\libraries\lvgl\src\core/lv_obj_scroll.c ****     if((dir & LV_DIR_HOR) &&
 486:..\..\..\arduinoLCD\test\Pain Drain\libraries\lvgl\src\core/lv_obj_scroll.c ****        ((sm == LV_SCROLLBAR_MODE_ON) ||
 487:..\..\..\arduinoLCD\test\Pain Drain\libraries\lvgl\src\core/lv_obj_scroll.c ****         (sm == LV_SCROLLBAR_MODE_AUTO && (sl > 0 || sr > 0)) ||
ARM GAS  C:\Users\haske\AppData\Local\Temp\ccFGDFhR.s 			page 10


 488:..\..\..\arduinoLCD\test\Pain Drain\libraries\lvgl\src\core/lv_obj_scroll.c ****         (sm == LV_SCROLLBAR_MODE_ACTIVE && lv_indev_get_scroll_dir(indev) == LV_DIR_HOR))) {
 489:..\..\..\arduinoLCD\test\Pain Drain\libraries\lvgl\src\core/lv_obj_scroll.c ****         hor_draw = true;
 490:..\..\..\arduinoLCD\test\Pain Drain\libraries\lvgl\src\core/lv_obj_scroll.c ****     }
 491:..\..\..\arduinoLCD\test\Pain Drain\libraries\lvgl\src\core/lv_obj_scroll.c **** 
 492:..\..\..\arduinoLCD\test\Pain Drain\libraries\lvgl\src\core/lv_obj_scroll.c ****     if(!hor_draw && !ver_draw) return;
 493:..\..\..\arduinoLCD\test\Pain Drain\libraries\lvgl\src\core/lv_obj_scroll.c **** 
 494:..\..\..\arduinoLCD\test\Pain Drain\libraries\lvgl\src\core/lv_obj_scroll.c ****     bool rtl = lv_obj_get_style_base_dir(obj, LV_PART_SCROLLBAR) == LV_BASE_DIR_RTL ? true : false;
 495:..\..\..\arduinoLCD\test\Pain Drain\libraries\lvgl\src\core/lv_obj_scroll.c **** 
 496:..\..\..\arduinoLCD\test\Pain Drain\libraries\lvgl\src\core/lv_obj_scroll.c ****     lv_coord_t top_space = lv_obj_get_style_pad_top(obj, LV_PART_SCROLLBAR);
 497:..\..\..\arduinoLCD\test\Pain Drain\libraries\lvgl\src\core/lv_obj_scroll.c ****     lv_coord_t bottom_space = lv_obj_get_style_pad_bottom(obj, LV_PART_SCROLLBAR);
 498:..\..\..\arduinoLCD\test\Pain Drain\libraries\lvgl\src\core/lv_obj_scroll.c ****     lv_coord_t left_space = lv_obj_get_style_pad_left(obj, LV_PART_SCROLLBAR);
 499:..\..\..\arduinoLCD\test\Pain Drain\libraries\lvgl\src\core/lv_obj_scroll.c ****     lv_coord_t right_space = lv_obj_get_style_pad_right(obj, LV_PART_SCROLLBAR);
 500:..\..\..\arduinoLCD\test\Pain Drain\libraries\lvgl\src\core/lv_obj_scroll.c ****     lv_coord_t tickness = lv_obj_get_style_width(obj, LV_PART_SCROLLBAR);
 501:..\..\..\arduinoLCD\test\Pain Drain\libraries\lvgl\src\core/lv_obj_scroll.c **** 
 502:..\..\..\arduinoLCD\test\Pain Drain\libraries\lvgl\src\core/lv_obj_scroll.c ****     lv_coord_t obj_h = lv_obj_get_height(obj);
 503:..\..\..\arduinoLCD\test\Pain Drain\libraries\lvgl\src\core/lv_obj_scroll.c ****     lv_coord_t obj_w = lv_obj_get_width(obj);
 504:..\..\..\arduinoLCD\test\Pain Drain\libraries\lvgl\src\core/lv_obj_scroll.c **** 
 505:..\..\..\arduinoLCD\test\Pain Drain\libraries\lvgl\src\core/lv_obj_scroll.c ****     /*Space required for the vertical and horizontal scrollbars*/
 506:..\..\..\arduinoLCD\test\Pain Drain\libraries\lvgl\src\core/lv_obj_scroll.c ****     lv_coord_t ver_reg_space = ver_draw ? tickness : 0;
 507:..\..\..\arduinoLCD\test\Pain Drain\libraries\lvgl\src\core/lv_obj_scroll.c ****     lv_coord_t hor_req_space = hor_draw ? tickness : 0;
 508:..\..\..\arduinoLCD\test\Pain Drain\libraries\lvgl\src\core/lv_obj_scroll.c ****     lv_coord_t rem;
 509:..\..\..\arduinoLCD\test\Pain Drain\libraries\lvgl\src\core/lv_obj_scroll.c **** 
 510:..\..\..\arduinoLCD\test\Pain Drain\libraries\lvgl\src\core/lv_obj_scroll.c ****     if(lv_obj_get_style_bg_opa(obj, LV_PART_SCROLLBAR) < LV_OPA_MIN &&
 511:..\..\..\arduinoLCD\test\Pain Drain\libraries\lvgl\src\core/lv_obj_scroll.c ****        lv_obj_get_style_border_opa(obj, LV_PART_SCROLLBAR) < LV_OPA_MIN) {
 512:..\..\..\arduinoLCD\test\Pain Drain\libraries\lvgl\src\core/lv_obj_scroll.c ****         return;
 513:..\..\..\arduinoLCD\test\Pain Drain\libraries\lvgl\src\core/lv_obj_scroll.c ****     }
 514:..\..\..\arduinoLCD\test\Pain Drain\libraries\lvgl\src\core/lv_obj_scroll.c **** 
 515:..\..\..\arduinoLCD\test\Pain Drain\libraries\lvgl\src\core/lv_obj_scroll.c ****     /*Draw vertical scrollbar if the mode is ON or can be scrolled in this direction*/
 516:..\..\..\arduinoLCD\test\Pain Drain\libraries\lvgl\src\core/lv_obj_scroll.c ****     lv_coord_t content_h = obj_h + st + sb;
 517:..\..\..\arduinoLCD\test\Pain Drain\libraries\lvgl\src\core/lv_obj_scroll.c ****     if(ver_draw && content_h) {
 518:..\..\..\arduinoLCD\test\Pain Drain\libraries\lvgl\src\core/lv_obj_scroll.c ****         ver_area->y1 = obj->coords.y1;
 519:..\..\..\arduinoLCD\test\Pain Drain\libraries\lvgl\src\core/lv_obj_scroll.c ****         ver_area->y2 = obj->coords.y2;
 520:..\..\..\arduinoLCD\test\Pain Drain\libraries\lvgl\src\core/lv_obj_scroll.c ****         if(rtl) {
 521:..\..\..\arduinoLCD\test\Pain Drain\libraries\lvgl\src\core/lv_obj_scroll.c ****             ver_area->x1 = obj->coords.x1 + left_space;
 522:..\..\..\arduinoLCD\test\Pain Drain\libraries\lvgl\src\core/lv_obj_scroll.c ****             ver_area->x2 = ver_area->x1 + tickness - 1;
 523:..\..\..\arduinoLCD\test\Pain Drain\libraries\lvgl\src\core/lv_obj_scroll.c ****         }
 524:..\..\..\arduinoLCD\test\Pain Drain\libraries\lvgl\src\core/lv_obj_scroll.c ****         else {
 525:..\..\..\arduinoLCD\test\Pain Drain\libraries\lvgl\src\core/lv_obj_scroll.c ****             ver_area->x2 = obj->coords.x2 - right_space;
 526:..\..\..\arduinoLCD\test\Pain Drain\libraries\lvgl\src\core/lv_obj_scroll.c ****             ver_area->x1 = ver_area->x2 - tickness + 1;
 527:..\..\..\arduinoLCD\test\Pain Drain\libraries\lvgl\src\core/lv_obj_scroll.c ****         }
 528:..\..\..\arduinoLCD\test\Pain Drain\libraries\lvgl\src\core/lv_obj_scroll.c **** 
 529:..\..\..\arduinoLCD\test\Pain Drain\libraries\lvgl\src\core/lv_obj_scroll.c ****         lv_coord_t sb_h = ((obj_h - top_space - bottom_space - hor_req_space) * obj_h) / content_h;
 530:..\..\..\arduinoLCD\test\Pain Drain\libraries\lvgl\src\core/lv_obj_scroll.c ****         sb_h = LV_MAX(sb_h, SCROLLBAR_MIN_SIZE);
 531:..\..\..\arduinoLCD\test\Pain Drain\libraries\lvgl\src\core/lv_obj_scroll.c ****         rem = (obj_h - top_space - bottom_space - hor_req_space) -
 532:..\..\..\arduinoLCD\test\Pain Drain\libraries\lvgl\src\core/lv_obj_scroll.c ****               sb_h;  /*Remaining size from the scrollbar track that is not the scrollbar itself*/
 533:..\..\..\arduinoLCD\test\Pain Drain\libraries\lvgl\src\core/lv_obj_scroll.c ****         lv_coord_t scroll_h = content_h - obj_h; /*The size of the content which can be really scro
 534:..\..\..\arduinoLCD\test\Pain Drain\libraries\lvgl\src\core/lv_obj_scroll.c ****         if(scroll_h <= 0) {
 535:..\..\..\arduinoLCD\test\Pain Drain\libraries\lvgl\src\core/lv_obj_scroll.c ****             ver_area->y1 = obj->coords.y1 + top_space;
 536:..\..\..\arduinoLCD\test\Pain Drain\libraries\lvgl\src\core/lv_obj_scroll.c ****             ver_area->y2 = obj->coords.y2 - bottom_space - hor_req_space - 1;
 537:..\..\..\arduinoLCD\test\Pain Drain\libraries\lvgl\src\core/lv_obj_scroll.c ****         }
 538:..\..\..\arduinoLCD\test\Pain Drain\libraries\lvgl\src\core/lv_obj_scroll.c ****         else {
 539:..\..\..\arduinoLCD\test\Pain Drain\libraries\lvgl\src\core/lv_obj_scroll.c ****             lv_coord_t sb_y = (rem * sb) / scroll_h;
 540:..\..\..\arduinoLCD\test\Pain Drain\libraries\lvgl\src\core/lv_obj_scroll.c ****             sb_y = rem - sb_y;
 541:..\..\..\arduinoLCD\test\Pain Drain\libraries\lvgl\src\core/lv_obj_scroll.c **** 
 542:..\..\..\arduinoLCD\test\Pain Drain\libraries\lvgl\src\core/lv_obj_scroll.c ****             ver_area->y1 = obj->coords.y1 + sb_y + top_space;
 543:..\..\..\arduinoLCD\test\Pain Drain\libraries\lvgl\src\core/lv_obj_scroll.c ****             ver_area->y2 = ver_area->y1 + sb_h - 1;
 544:..\..\..\arduinoLCD\test\Pain Drain\libraries\lvgl\src\core/lv_obj_scroll.c ****             if(ver_area->y1 < obj->coords.y1 + top_space) {
ARM GAS  C:\Users\haske\AppData\Local\Temp\ccFGDFhR.s 			page 11


 545:..\..\..\arduinoLCD\test\Pain Drain\libraries\lvgl\src\core/lv_obj_scroll.c ****                 ver_area->y1 = obj->coords.y1 + top_space;
 546:..\..\..\arduinoLCD\test\Pain Drain\libraries\lvgl\src\core/lv_obj_scroll.c ****                 if(ver_area->y1 + SCROLLBAR_MIN_SIZE > ver_area->y2) {
 547:..\..\..\arduinoLCD\test\Pain Drain\libraries\lvgl\src\core/lv_obj_scroll.c ****                     ver_area->y2 = ver_area->y1 + SCROLLBAR_MIN_SIZE;
 548:..\..\..\arduinoLCD\test\Pain Drain\libraries\lvgl\src\core/lv_obj_scroll.c ****                 }
 549:..\..\..\arduinoLCD\test\Pain Drain\libraries\lvgl\src\core/lv_obj_scroll.c ****             }
 550:..\..\..\arduinoLCD\test\Pain Drain\libraries\lvgl\src\core/lv_obj_scroll.c ****             if(ver_area->y2 > obj->coords.y2 - hor_req_space - bottom_space) {
 551:..\..\..\arduinoLCD\test\Pain Drain\libraries\lvgl\src\core/lv_obj_scroll.c ****                 ver_area->y2 = obj->coords.y2 - hor_req_space - bottom_space;
 552:..\..\..\arduinoLCD\test\Pain Drain\libraries\lvgl\src\core/lv_obj_scroll.c ****                 if(ver_area->y2 - SCROLLBAR_MIN_SIZE < ver_area->y1) {
 553:..\..\..\arduinoLCD\test\Pain Drain\libraries\lvgl\src\core/lv_obj_scroll.c ****                     ver_area->y1 = ver_area->y2 - SCROLLBAR_MIN_SIZE;
 554:..\..\..\arduinoLCD\test\Pain Drain\libraries\lvgl\src\core/lv_obj_scroll.c ****                 }
 555:..\..\..\arduinoLCD\test\Pain Drain\libraries\lvgl\src\core/lv_obj_scroll.c ****             }
 556:..\..\..\arduinoLCD\test\Pain Drain\libraries\lvgl\src\core/lv_obj_scroll.c ****         }
 557:..\..\..\arduinoLCD\test\Pain Drain\libraries\lvgl\src\core/lv_obj_scroll.c ****     }
 558:..\..\..\arduinoLCD\test\Pain Drain\libraries\lvgl\src\core/lv_obj_scroll.c **** 
 559:..\..\..\arduinoLCD\test\Pain Drain\libraries\lvgl\src\core/lv_obj_scroll.c ****     /*Draw horizontal scrollbar if the mode is ON or can be scrolled in this direction*/
 560:..\..\..\arduinoLCD\test\Pain Drain\libraries\lvgl\src\core/lv_obj_scroll.c ****     lv_coord_t content_w = obj_w + sl + sr;
 561:..\..\..\arduinoLCD\test\Pain Drain\libraries\lvgl\src\core/lv_obj_scroll.c ****     if(hor_draw && content_w) {
 562:..\..\..\arduinoLCD\test\Pain Drain\libraries\lvgl\src\core/lv_obj_scroll.c ****         hor_area->y2 = obj->coords.y2 - bottom_space;
 563:..\..\..\arduinoLCD\test\Pain Drain\libraries\lvgl\src\core/lv_obj_scroll.c ****         hor_area->y1 = hor_area->y2 - tickness + 1;
 564:..\..\..\arduinoLCD\test\Pain Drain\libraries\lvgl\src\core/lv_obj_scroll.c ****         hor_area->x1 = obj->coords.x1;
 565:..\..\..\arduinoLCD\test\Pain Drain\libraries\lvgl\src\core/lv_obj_scroll.c ****         hor_area->x2 = obj->coords.x2;
 566:..\..\..\arduinoLCD\test\Pain Drain\libraries\lvgl\src\core/lv_obj_scroll.c **** 
 567:..\..\..\arduinoLCD\test\Pain Drain\libraries\lvgl\src\core/lv_obj_scroll.c ****         lv_coord_t sb_w = ((obj_w - left_space - right_space - ver_reg_space) * obj_w) / content_w;
 568:..\..\..\arduinoLCD\test\Pain Drain\libraries\lvgl\src\core/lv_obj_scroll.c ****         sb_w = LV_MAX(sb_w, SCROLLBAR_MIN_SIZE);
 569:..\..\..\arduinoLCD\test\Pain Drain\libraries\lvgl\src\core/lv_obj_scroll.c ****         rem = (obj_w - left_space - right_space - ver_reg_space) -
 570:..\..\..\arduinoLCD\test\Pain Drain\libraries\lvgl\src\core/lv_obj_scroll.c ****               sb_w;  /*Remaining size from the scrollbar track that is not the scrollbar itself*/
 571:..\..\..\arduinoLCD\test\Pain Drain\libraries\lvgl\src\core/lv_obj_scroll.c ****         lv_coord_t scroll_w = content_w - obj_w; /*The size of the content which can be really scro
 572:..\..\..\arduinoLCD\test\Pain Drain\libraries\lvgl\src\core/lv_obj_scroll.c ****         if(scroll_w <= 0) {
 573:..\..\..\arduinoLCD\test\Pain Drain\libraries\lvgl\src\core/lv_obj_scroll.c ****             if(rtl) {
 574:..\..\..\arduinoLCD\test\Pain Drain\libraries\lvgl\src\core/lv_obj_scroll.c ****                 hor_area->x1 = obj->coords.x1 + left_space + ver_reg_space - 1;
 575:..\..\..\arduinoLCD\test\Pain Drain\libraries\lvgl\src\core/lv_obj_scroll.c ****                 hor_area->x2 = obj->coords.x2 - right_space;
 576:..\..\..\arduinoLCD\test\Pain Drain\libraries\lvgl\src\core/lv_obj_scroll.c ****             }
 577:..\..\..\arduinoLCD\test\Pain Drain\libraries\lvgl\src\core/lv_obj_scroll.c ****             else {
 578:..\..\..\arduinoLCD\test\Pain Drain\libraries\lvgl\src\core/lv_obj_scroll.c ****                 hor_area->x1 = obj->coords.x1 + left_space;
 579:..\..\..\arduinoLCD\test\Pain Drain\libraries\lvgl\src\core/lv_obj_scroll.c ****                 hor_area->x2 = obj->coords.x2 - right_space - ver_reg_space - 1;
 580:..\..\..\arduinoLCD\test\Pain Drain\libraries\lvgl\src\core/lv_obj_scroll.c ****             }
 581:..\..\..\arduinoLCD\test\Pain Drain\libraries\lvgl\src\core/lv_obj_scroll.c ****         }
 582:..\..\..\arduinoLCD\test\Pain Drain\libraries\lvgl\src\core/lv_obj_scroll.c ****         else {
 583:..\..\..\arduinoLCD\test\Pain Drain\libraries\lvgl\src\core/lv_obj_scroll.c ****             lv_coord_t sb_x = (rem * sr) / scroll_w;
 584:..\..\..\arduinoLCD\test\Pain Drain\libraries\lvgl\src\core/lv_obj_scroll.c ****             sb_x = rem - sb_x;
 585:..\..\..\arduinoLCD\test\Pain Drain\libraries\lvgl\src\core/lv_obj_scroll.c **** 
 586:..\..\..\arduinoLCD\test\Pain Drain\libraries\lvgl\src\core/lv_obj_scroll.c ****             if(rtl) {
 587:..\..\..\arduinoLCD\test\Pain Drain\libraries\lvgl\src\core/lv_obj_scroll.c ****                 hor_area->x1 = obj->coords.x1 + sb_x + left_space + ver_reg_space;
 588:..\..\..\arduinoLCD\test\Pain Drain\libraries\lvgl\src\core/lv_obj_scroll.c ****                 hor_area->x2 = hor_area->x1 + sb_w - 1;
 589:..\..\..\arduinoLCD\test\Pain Drain\libraries\lvgl\src\core/lv_obj_scroll.c ****                 if(hor_area->x1 < obj->coords.x1 + left_space + ver_reg_space) {
 590:..\..\..\arduinoLCD\test\Pain Drain\libraries\lvgl\src\core/lv_obj_scroll.c ****                     hor_area->x1 = obj->coords.x1 + left_space + ver_reg_space;
 591:..\..\..\arduinoLCD\test\Pain Drain\libraries\lvgl\src\core/lv_obj_scroll.c ****                     if(hor_area->x1 + SCROLLBAR_MIN_SIZE > hor_area->x2) {
 592:..\..\..\arduinoLCD\test\Pain Drain\libraries\lvgl\src\core/lv_obj_scroll.c ****                         hor_area->x2 = hor_area->x1 + SCROLLBAR_MIN_SIZE;
 593:..\..\..\arduinoLCD\test\Pain Drain\libraries\lvgl\src\core/lv_obj_scroll.c ****                     }
 594:..\..\..\arduinoLCD\test\Pain Drain\libraries\lvgl\src\core/lv_obj_scroll.c ****                 }
 595:..\..\..\arduinoLCD\test\Pain Drain\libraries\lvgl\src\core/lv_obj_scroll.c ****                 if(hor_area->x2 > obj->coords.x2 - right_space) {
 596:..\..\..\arduinoLCD\test\Pain Drain\libraries\lvgl\src\core/lv_obj_scroll.c ****                     hor_area->x2 = obj->coords.x2 - right_space;
 597:..\..\..\arduinoLCD\test\Pain Drain\libraries\lvgl\src\core/lv_obj_scroll.c ****                     if(hor_area->x2 - SCROLLBAR_MIN_SIZE < hor_area->x1) {
 598:..\..\..\arduinoLCD\test\Pain Drain\libraries\lvgl\src\core/lv_obj_scroll.c ****                         hor_area->x1 = hor_area->x2 - SCROLLBAR_MIN_SIZE;
 599:..\..\..\arduinoLCD\test\Pain Drain\libraries\lvgl\src\core/lv_obj_scroll.c ****                     }
 600:..\..\..\arduinoLCD\test\Pain Drain\libraries\lvgl\src\core/lv_obj_scroll.c ****                 }
 601:..\..\..\arduinoLCD\test\Pain Drain\libraries\lvgl\src\core/lv_obj_scroll.c ****             }
ARM GAS  C:\Users\haske\AppData\Local\Temp\ccFGDFhR.s 			page 12


 602:..\..\..\arduinoLCD\test\Pain Drain\libraries\lvgl\src\core/lv_obj_scroll.c ****             else {
 603:..\..\..\arduinoLCD\test\Pain Drain\libraries\lvgl\src\core/lv_obj_scroll.c ****                 hor_area->x1 = obj->coords.x1 + sb_x + left_space;
 604:..\..\..\arduinoLCD\test\Pain Drain\libraries\lvgl\src\core/lv_obj_scroll.c ****                 hor_area->x2 = hor_area->x1 + sb_w - 1;
 605:..\..\..\arduinoLCD\test\Pain Drain\libraries\lvgl\src\core/lv_obj_scroll.c ****                 if(hor_area->x1 < obj->coords.x1 + left_space) {
 606:..\..\..\arduinoLCD\test\Pain Drain\libraries\lvgl\src\core/lv_obj_scroll.c ****                     hor_area->x1 = obj->coords.x1 + left_space;
 607:..\..\..\arduinoLCD\test\Pain Drain\libraries\lvgl\src\core/lv_obj_scroll.c ****                     if(hor_area->x1 + SCROLLBAR_MIN_SIZE > hor_area->x2) {
 608:..\..\..\arduinoLCD\test\Pain Drain\libraries\lvgl\src\core/lv_obj_scroll.c ****                         hor_area->x2 = hor_area->x1 + SCROLLBAR_MIN_SIZE;
 609:..\..\..\arduinoLCD\test\Pain Drain\libraries\lvgl\src\core/lv_obj_scroll.c ****                     }
 610:..\..\..\arduinoLCD\test\Pain Drain\libraries\lvgl\src\core/lv_obj_scroll.c ****                 }
 611:..\..\..\arduinoLCD\test\Pain Drain\libraries\lvgl\src\core/lv_obj_scroll.c ****                 if(hor_area->x2 > obj->coords.x2 - ver_reg_space - right_space) {
 612:..\..\..\arduinoLCD\test\Pain Drain\libraries\lvgl\src\core/lv_obj_scroll.c ****                     hor_area->x2 = obj->coords.x2 - ver_reg_space - right_space;
 613:..\..\..\arduinoLCD\test\Pain Drain\libraries\lvgl\src\core/lv_obj_scroll.c ****                     if(hor_area->x2 - SCROLLBAR_MIN_SIZE < hor_area->x1) {
 614:..\..\..\arduinoLCD\test\Pain Drain\libraries\lvgl\src\core/lv_obj_scroll.c ****                         hor_area->x1 = hor_area->x2 - SCROLLBAR_MIN_SIZE;
 615:..\..\..\arduinoLCD\test\Pain Drain\libraries\lvgl\src\core/lv_obj_scroll.c ****                     }
 616:..\..\..\arduinoLCD\test\Pain Drain\libraries\lvgl\src\core/lv_obj_scroll.c ****                 }
 617:..\..\..\arduinoLCD\test\Pain Drain\libraries\lvgl\src\core/lv_obj_scroll.c ****             }
 618:..\..\..\arduinoLCD\test\Pain Drain\libraries\lvgl\src\core/lv_obj_scroll.c ****         }
 619:..\..\..\arduinoLCD\test\Pain Drain\libraries\lvgl\src\core/lv_obj_scroll.c ****     }
 620:..\..\..\arduinoLCD\test\Pain Drain\libraries\lvgl\src\core/lv_obj_scroll.c **** }
 621:..\..\..\arduinoLCD\test\Pain Drain\libraries\lvgl\src\core/lv_obj_scroll.c **** 
 622:..\..\..\arduinoLCD\test\Pain Drain\libraries\lvgl\src\core/lv_obj_scroll.c **** void lv_obj_scrollbar_invalidate(lv_obj_t * obj)
 623:..\..\..\arduinoLCD\test\Pain Drain\libraries\lvgl\src\core/lv_obj_scroll.c **** {
 624:..\..\..\arduinoLCD\test\Pain Drain\libraries\lvgl\src\core/lv_obj_scroll.c ****     lv_area_t hor_area;
 625:..\..\..\arduinoLCD\test\Pain Drain\libraries\lvgl\src\core/lv_obj_scroll.c ****     lv_area_t ver_area;
 626:..\..\..\arduinoLCD\test\Pain Drain\libraries\lvgl\src\core/lv_obj_scroll.c ****     lv_obj_get_scrollbar_area(obj, &hor_area, &ver_area);
 627:..\..\..\arduinoLCD\test\Pain Drain\libraries\lvgl\src\core/lv_obj_scroll.c **** 
 628:..\..\..\arduinoLCD\test\Pain Drain\libraries\lvgl\src\core/lv_obj_scroll.c ****     if(lv_area_get_size(&hor_area) <= 0 && lv_area_get_size(&ver_area) <= 0) return;
 629:..\..\..\arduinoLCD\test\Pain Drain\libraries\lvgl\src\core/lv_obj_scroll.c **** 
 630:..\..\..\arduinoLCD\test\Pain Drain\libraries\lvgl\src\core/lv_obj_scroll.c ****     if(lv_area_get_size(&hor_area) > 0) lv_obj_invalidate_area(obj, &hor_area);
 631:..\..\..\arduinoLCD\test\Pain Drain\libraries\lvgl\src\core/lv_obj_scroll.c ****     if(lv_area_get_size(&ver_area) > 0) lv_obj_invalidate_area(obj, &ver_area);
 632:..\..\..\arduinoLCD\test\Pain Drain\libraries\lvgl\src\core/lv_obj_scroll.c **** }
 633:..\..\..\arduinoLCD\test\Pain Drain\libraries\lvgl\src\core/lv_obj_scroll.c **** 
 634:..\..\..\arduinoLCD\test\Pain Drain\libraries\lvgl\src\core/lv_obj_scroll.c **** void lv_obj_readjust_scroll(lv_obj_t * obj, lv_anim_enable_t anim_en)
 635:..\..\..\arduinoLCD\test\Pain Drain\libraries\lvgl\src\core/lv_obj_scroll.c **** {
 636:..\..\..\arduinoLCD\test\Pain Drain\libraries\lvgl\src\core/lv_obj_scroll.c ****     /*Be sure the bottom side is not remains scrolled in*/
 637:..\..\..\arduinoLCD\test\Pain Drain\libraries\lvgl\src\core/lv_obj_scroll.c ****     /*With snapping the content can't be scrolled in*/
 638:..\..\..\arduinoLCD\test\Pain Drain\libraries\lvgl\src\core/lv_obj_scroll.c ****     if(lv_obj_get_scroll_snap_y(obj) == LV_SCROLL_SNAP_NONE) {
 639:..\..\..\arduinoLCD\test\Pain Drain\libraries\lvgl\src\core/lv_obj_scroll.c ****         lv_coord_t st = lv_obj_get_scroll_top(obj);
 640:..\..\..\arduinoLCD\test\Pain Drain\libraries\lvgl\src\core/lv_obj_scroll.c ****         lv_coord_t sb = lv_obj_get_scroll_bottom(obj);
 641:..\..\..\arduinoLCD\test\Pain Drain\libraries\lvgl\src\core/lv_obj_scroll.c ****         if(sb < 0 && st > 0) {
 642:..\..\..\arduinoLCD\test\Pain Drain\libraries\lvgl\src\core/lv_obj_scroll.c ****             sb = LV_MIN(st, -sb);
 643:..\..\..\arduinoLCD\test\Pain Drain\libraries\lvgl\src\core/lv_obj_scroll.c ****             lv_obj_scroll_by(obj, 0, sb, anim_en);
 644:..\..\..\arduinoLCD\test\Pain Drain\libraries\lvgl\src\core/lv_obj_scroll.c ****         }
 645:..\..\..\arduinoLCD\test\Pain Drain\libraries\lvgl\src\core/lv_obj_scroll.c ****     }
 646:..\..\..\arduinoLCD\test\Pain Drain\libraries\lvgl\src\core/lv_obj_scroll.c **** 
 647:..\..\..\arduinoLCD\test\Pain Drain\libraries\lvgl\src\core/lv_obj_scroll.c ****     if(lv_obj_get_scroll_snap_x(obj) == LV_SCROLL_SNAP_NONE) {
 648:..\..\..\arduinoLCD\test\Pain Drain\libraries\lvgl\src\core/lv_obj_scroll.c ****         lv_coord_t sl = lv_obj_get_scroll_left(obj);
 649:..\..\..\arduinoLCD\test\Pain Drain\libraries\lvgl\src\core/lv_obj_scroll.c ****         lv_coord_t sr = lv_obj_get_scroll_right(obj);
 650:..\..\..\arduinoLCD\test\Pain Drain\libraries\lvgl\src\core/lv_obj_scroll.c ****         if(lv_obj_get_style_base_dir(obj, LV_PART_MAIN) != LV_BASE_DIR_RTL) {
 651:..\..\..\arduinoLCD\test\Pain Drain\libraries\lvgl\src\core/lv_obj_scroll.c ****             /*Be sure the left side is not remains scrolled in*/
 652:..\..\..\arduinoLCD\test\Pain Drain\libraries\lvgl\src\core/lv_obj_scroll.c ****             if(sr < 0 && sl > 0) {
 653:..\..\..\arduinoLCD\test\Pain Drain\libraries\lvgl\src\core/lv_obj_scroll.c ****                 sr = LV_MIN(sl, -sr);
 654:..\..\..\arduinoLCD\test\Pain Drain\libraries\lvgl\src\core/lv_obj_scroll.c ****                 lv_obj_scroll_by(obj, sr, 0, anim_en);
 655:..\..\..\arduinoLCD\test\Pain Drain\libraries\lvgl\src\core/lv_obj_scroll.c ****             }
 656:..\..\..\arduinoLCD\test\Pain Drain\libraries\lvgl\src\core/lv_obj_scroll.c ****         }
 657:..\..\..\arduinoLCD\test\Pain Drain\libraries\lvgl\src\core/lv_obj_scroll.c ****         else {
 658:..\..\..\arduinoLCD\test\Pain Drain\libraries\lvgl\src\core/lv_obj_scroll.c ****             /*Be sure the right side is not remains scrolled in*/
ARM GAS  C:\Users\haske\AppData\Local\Temp\ccFGDFhR.s 			page 13


 659:..\..\..\arduinoLCD\test\Pain Drain\libraries\lvgl\src\core/lv_obj_scroll.c ****             if(sl < 0 && sr > 0) {
 660:..\..\..\arduinoLCD\test\Pain Drain\libraries\lvgl\src\core/lv_obj_scroll.c ****                 sr = LV_MIN(sr, -sl);
 661:..\..\..\arduinoLCD\test\Pain Drain\libraries\lvgl\src\core/lv_obj_scroll.c ****                 lv_obj_scroll_by(obj, sl, 0, anim_en);
 662:..\..\..\arduinoLCD\test\Pain Drain\libraries\lvgl\src\core/lv_obj_scroll.c ****             }
 663:..\..\..\arduinoLCD\test\Pain Drain\libraries\lvgl\src\core/lv_obj_scroll.c ****         }
 664:..\..\..\arduinoLCD\test\Pain Drain\libraries\lvgl\src\core/lv_obj_scroll.c ****     }
 665:..\..\..\arduinoLCD\test\Pain Drain\libraries\lvgl\src\core/lv_obj_scroll.c **** }
 666:..\..\..\arduinoLCD\test\Pain Drain\libraries\lvgl\src\core/lv_obj_scroll.c **** 
 667:..\..\..\arduinoLCD\test\Pain Drain\libraries\lvgl\src\core/lv_obj_scroll.c **** /**********************
 668:..\..\..\arduinoLCD\test\Pain Drain\libraries\lvgl\src\core/lv_obj_scroll.c ****  *   STATIC FUNCTIONS
 669:..\..\..\arduinoLCD\test\Pain Drain\libraries\lvgl\src\core/lv_obj_scroll.c ****  **********************/
 670:..\..\..\arduinoLCD\test\Pain Drain\libraries\lvgl\src\core/lv_obj_scroll.c **** 
 671:..\..\..\arduinoLCD\test\Pain Drain\libraries\lvgl\src\core/lv_obj_scroll.c **** 
 672:..\..\..\arduinoLCD\test\Pain Drain\libraries\lvgl\src\core/lv_obj_scroll.c **** static void scroll_x_anim(void * obj, int32_t v)
 673:..\..\..\arduinoLCD\test\Pain Drain\libraries\lvgl\src\core/lv_obj_scroll.c **** {
 674:..\..\..\arduinoLCD\test\Pain Drain\libraries\lvgl\src\core/lv_obj_scroll.c ****     _lv_obj_scroll_by_raw(obj, v + lv_obj_get_scroll_x(obj), 0);
 675:..\..\..\arduinoLCD\test\Pain Drain\libraries\lvgl\src\core/lv_obj_scroll.c **** }
 676:..\..\..\arduinoLCD\test\Pain Drain\libraries\lvgl\src\core/lv_obj_scroll.c **** 
 677:..\..\..\arduinoLCD\test\Pain Drain\libraries\lvgl\src\core/lv_obj_scroll.c **** static void scroll_y_anim(void * obj, int32_t v)
 678:..\..\..\arduinoLCD\test\Pain Drain\libraries\lvgl\src\core/lv_obj_scroll.c **** {
 679:..\..\..\arduinoLCD\test\Pain Drain\libraries\lvgl\src\core/lv_obj_scroll.c ****     _lv_obj_scroll_by_raw(obj, 0, v + lv_obj_get_scroll_y(obj));
 680:..\..\..\arduinoLCD\test\Pain Drain\libraries\lvgl\src\core/lv_obj_scroll.c **** }
 681:..\..\..\arduinoLCD\test\Pain Drain\libraries\lvgl\src\core/lv_obj_scroll.c **** 
 682:..\..\..\arduinoLCD\test\Pain Drain\libraries\lvgl\src\core/lv_obj_scroll.c **** static void scroll_anim_ready_cb(lv_anim_t * a)
 683:..\..\..\arduinoLCD\test\Pain Drain\libraries\lvgl\src\core/lv_obj_scroll.c **** {
  27              		.loc 1 683 0
  28              		.cfi_startproc
  29              		@ args = 0, pretend = 0, frame = 0
  30              		@ frame_needed = 0, uses_anonymous_args = 0
  31              	.LVL0:
  32 0000 10B5     		push	{r4, lr}
  33              		.cfi_def_cfa_offset 8
  34              		.cfi_offset 4, -8
  35              		.cfi_offset 14, -4
 684:..\..\..\arduinoLCD\test\Pain Drain\libraries\lvgl\src\core/lv_obj_scroll.c ****     lv_event_send(a->var, LV_EVENT_SCROLL_END, NULL);
  36              		.loc 1 684 0
  37 0002 0068     		ldr	r0, [r0]
  38              	.LVL1:
  39 0004 0022     		movs	r2, #0
  40 0006 0A21     		movs	r1, #10
  41 0008 FFF7FEFF 		bl	lv_event_send
  42              	.LVL2:
 685:..\..\..\arduinoLCD\test\Pain Drain\libraries\lvgl\src\core/lv_obj_scroll.c **** }
  43              		.loc 1 685 0
  44              		@ sp needed
  45 000c 10BD     		pop	{r4, pc}
  46              		.cfi_endproc
  47              	.LFE195:
  48              		.size	scroll_anim_ready_cb, .-scroll_anim_ready_cb
  49 000e C046     		.section	.text.lv_obj_set_scrollbar_mode,"ax",%progbits
  50              		.align	2
  51              		.global	lv_obj_set_scrollbar_mode
  52              		.code	16
  53              		.thumb_func
  54              		.type	lv_obj_set_scrollbar_mode, %function
  55              	lv_obj_set_scrollbar_mode:
  56              	.LFB165:
ARM GAS  C:\Users\haske\AppData\Local\Temp\ccFGDFhR.s 			page 14


  57:..\..\..\arduinoLCD\test\Pain Drain\libraries\lvgl\src\core/lv_obj_scroll.c ****     LV_ASSERT_OBJ(obj, MY_CLASS);
  57              		.loc 1 57 0
  58              		.cfi_startproc
  59              		@ args = 0, pretend = 0, frame = 0
  60              		@ frame_needed = 0, uses_anonymous_args = 0
  61              	.LVL3:
  62 0000 70B5     		push	{r4, r5, r6, lr}
  63              		.cfi_def_cfa_offset 16
  64              		.cfi_offset 4, -16
  65              		.cfi_offset 5, -12
  66              		.cfi_offset 6, -8
  67              		.cfi_offset 14, -4
  68 0002 0500     		movs	r5, r0
  69 0004 0C00     		movs	r4, r1
  60:..\..\..\arduinoLCD\test\Pain Drain\libraries\lvgl\src\core/lv_obj_scroll.c **** 
  70              		.loc 1 60 0
  71 0006 FFF7FEFF 		bl	lv_obj_allocate_spec_attr
  72              	.LVL4:
  62:..\..\..\arduinoLCD\test\Pain Drain\libraries\lvgl\src\core/lv_obj_scroll.c ****     obj->spec_attr->scrollbar_mode = mode;
  73              		.loc 1 62 0
  74 000a AA68     		ldr	r2, [r5, #8]
  75 000c 137E     		ldrb	r3, [r2, #24]
  76 000e 9B07     		lsls	r3, r3, #30
  77 0010 9B0F     		lsrs	r3, r3, #30
  78 0012 A342     		cmp	r3, r4
  79 0014 09D0     		beq	.L2
  63:..\..\..\arduinoLCD\test\Pain Drain\libraries\lvgl\src\core/lv_obj_scroll.c ****     lv_obj_invalidate(obj);
  80              		.loc 1 63 0
  81 0016 0323     		movs	r3, #3
  82 0018 1C40     		ands	r4, r3
  83 001a 137E     		ldrb	r3, [r2, #24]
  84 001c 0321     		movs	r1, #3
  85 001e 8B43     		bics	r3, r1
  86 0020 1C43     		orrs	r4, r3
  87 0022 1476     		strb	r4, [r2, #24]
  64:..\..\..\arduinoLCD\test\Pain Drain\libraries\lvgl\src\core/lv_obj_scroll.c **** }
  88              		.loc 1 64 0
  89 0024 2800     		movs	r0, r5
  90 0026 FFF7FEFF 		bl	lv_obj_invalidate
  91              	.LVL5:
  92              	.L2:
  65:..\..\..\arduinoLCD\test\Pain Drain\libraries\lvgl\src\core/lv_obj_scroll.c **** 
  93              		.loc 1 65 0
  94              		@ sp needed
  95              	.LVL6:
  96 002a 70BD     		pop	{r4, r5, r6, pc}
  97              		.cfi_endproc
  98              	.LFE165:
  99              		.size	lv_obj_set_scrollbar_mode, .-lv_obj_set_scrollbar_mode
 100              		.section	.text.lv_obj_set_scroll_dir,"ax",%progbits
 101              		.align	2
 102              		.global	lv_obj_set_scroll_dir
 103              		.code	16
 104              		.thumb_func
 105              		.type	lv_obj_set_scroll_dir, %function
 106              	lv_obj_set_scroll_dir:
 107              	.LFB166:
ARM GAS  C:\Users\haske\AppData\Local\Temp\ccFGDFhR.s 			page 15


  68:..\..\..\arduinoLCD\test\Pain Drain\libraries\lvgl\src\core/lv_obj_scroll.c ****     lv_obj_allocate_spec_attr(obj);
 108              		.loc 1 68 0
 109              		.cfi_startproc
 110              		@ args = 0, pretend = 0, frame = 0
 111              		@ frame_needed = 0, uses_anonymous_args = 0
 112              	.LVL7:
 113 0000 70B5     		push	{r4, r5, r6, lr}
 114              		.cfi_def_cfa_offset 16
 115              		.cfi_offset 4, -16
 116              		.cfi_offset 5, -12
 117              		.cfi_offset 6, -8
 118              		.cfi_offset 14, -4
 119 0002 0500     		movs	r5, r0
 120 0004 0C00     		movs	r4, r1
  69:..\..\..\arduinoLCD\test\Pain Drain\libraries\lvgl\src\core/lv_obj_scroll.c **** 
 121              		.loc 1 69 0
 122 0006 FFF7FEFF 		bl	lv_obj_allocate_spec_attr
 123              	.LVL8:
  71:..\..\..\arduinoLCD\test\Pain Drain\libraries\lvgl\src\core/lv_obj_scroll.c ****         obj->spec_attr->scroll_dir = dir;
 124              		.loc 1 71 0
 125 000a AA68     		ldr	r2, [r5, #8]
 126 000c 537E     		ldrb	r3, [r2, #25]
 127 000e 1B07     		lsls	r3, r3, #28
 128 0010 1B0F     		lsrs	r3, r3, #28
 129 0012 A342     		cmp	r3, r4
 130 0014 06D0     		beq	.L4
  72:..\..\..\arduinoLCD\test\Pain Drain\libraries\lvgl\src\core/lv_obj_scroll.c ****     }
 131              		.loc 1 72 0
 132 0016 0F23     		movs	r3, #15
 133 0018 1C40     		ands	r4, r3
 134 001a 537E     		ldrb	r3, [r2, #25]
 135 001c 0F21     		movs	r1, #15
 136 001e 8B43     		bics	r3, r1
 137 0020 1C43     		orrs	r4, r3
 138 0022 5476     		strb	r4, [r2, #25]
 139              	.L4:
  74:..\..\..\arduinoLCD\test\Pain Drain\libraries\lvgl\src\core/lv_obj_scroll.c **** 
 140              		.loc 1 74 0
 141              		@ sp needed
 142              	.LVL9:
 143 0024 70BD     		pop	{r4, r5, r6, pc}
 144              		.cfi_endproc
 145              	.LFE166:
 146              		.size	lv_obj_set_scroll_dir, .-lv_obj_set_scroll_dir
 147 0026 C046     		.section	.text.lv_obj_set_scroll_snap_x,"ax",%progbits
 148              		.align	2
 149              		.global	lv_obj_set_scroll_snap_x
 150              		.code	16
 151              		.thumb_func
 152              		.type	lv_obj_set_scroll_snap_x, %function
 153              	lv_obj_set_scroll_snap_x:
 154              	.LFB167:
  77:..\..\..\arduinoLCD\test\Pain Drain\libraries\lvgl\src\core/lv_obj_scroll.c ****     lv_obj_allocate_spec_attr(obj);
 155              		.loc 1 77 0
 156              		.cfi_startproc
 157              		@ args = 0, pretend = 0, frame = 0
 158              		@ frame_needed = 0, uses_anonymous_args = 0
ARM GAS  C:\Users\haske\AppData\Local\Temp\ccFGDFhR.s 			page 16


 159              	.LVL10:
 160 0000 70B5     		push	{r4, r5, r6, lr}
 161              		.cfi_def_cfa_offset 16
 162              		.cfi_offset 4, -16
 163              		.cfi_offset 5, -12
 164              		.cfi_offset 6, -8
 165              		.cfi_offset 14, -4
 166 0002 0500     		movs	r5, r0
 167 0004 0C00     		movs	r4, r1
  78:..\..\..\arduinoLCD\test\Pain Drain\libraries\lvgl\src\core/lv_obj_scroll.c ****     obj->spec_attr->scroll_snap_x = align;
 168              		.loc 1 78 0
 169 0006 FFF7FEFF 		bl	lv_obj_allocate_spec_attr
 170              	.LVL11:
  79:..\..\..\arduinoLCD\test\Pain Drain\libraries\lvgl\src\core/lv_obj_scroll.c **** }
 171              		.loc 1 79 0
 172 000a AA68     		ldr	r2, [r5, #8]
 173 000c 0323     		movs	r3, #3
 174 000e 1C40     		ands	r4, r3
 175 0010 A300     		lsls	r3, r4, #2
 176 0012 147E     		ldrb	r4, [r2, #24]
 177 0014 0C21     		movs	r1, #12
 178 0016 8C43     		bics	r4, r1
 179 0018 1C43     		orrs	r4, r3
 180 001a 1476     		strb	r4, [r2, #24]
  80:..\..\..\arduinoLCD\test\Pain Drain\libraries\lvgl\src\core/lv_obj_scroll.c **** 
 181              		.loc 1 80 0
 182              		@ sp needed
 183              	.LVL12:
 184 001c 70BD     		pop	{r4, r5, r6, pc}
 185              		.cfi_endproc
 186              	.LFE167:
 187              		.size	lv_obj_set_scroll_snap_x, .-lv_obj_set_scroll_snap_x
 188 001e C046     		.section	.text.lv_obj_set_scroll_snap_y,"ax",%progbits
 189              		.align	2
 190              		.global	lv_obj_set_scroll_snap_y
 191              		.code	16
 192              		.thumb_func
 193              		.type	lv_obj_set_scroll_snap_y, %function
 194              	lv_obj_set_scroll_snap_y:
 195              	.LFB168:
  83:..\..\..\arduinoLCD\test\Pain Drain\libraries\lvgl\src\core/lv_obj_scroll.c ****     lv_obj_allocate_spec_attr(obj);
 196              		.loc 1 83 0
 197              		.cfi_startproc
 198              		@ args = 0, pretend = 0, frame = 0
 199              		@ frame_needed = 0, uses_anonymous_args = 0
 200              	.LVL13:
 201 0000 70B5     		push	{r4, r5, r6, lr}
 202              		.cfi_def_cfa_offset 16
 203              		.cfi_offset 4, -16
 204              		.cfi_offset 5, -12
 205              		.cfi_offset 6, -8
 206              		.cfi_offset 14, -4
 207 0002 0500     		movs	r5, r0
 208 0004 0C00     		movs	r4, r1
  84:..\..\..\arduinoLCD\test\Pain Drain\libraries\lvgl\src\core/lv_obj_scroll.c ****     obj->spec_attr->scroll_snap_y = align;
 209              		.loc 1 84 0
 210 0006 FFF7FEFF 		bl	lv_obj_allocate_spec_attr
ARM GAS  C:\Users\haske\AppData\Local\Temp\ccFGDFhR.s 			page 17


 211              	.LVL14:
  85:..\..\..\arduinoLCD\test\Pain Drain\libraries\lvgl\src\core/lv_obj_scroll.c **** }
 212              		.loc 1 85 0
 213 000a AA68     		ldr	r2, [r5, #8]
 214 000c 0323     		movs	r3, #3
 215 000e 1C40     		ands	r4, r3
 216 0010 2301     		lsls	r3, r4, #4
 217 0012 147E     		ldrb	r4, [r2, #24]
 218 0014 3021     		movs	r1, #48
 219 0016 8C43     		bics	r4, r1
 220 0018 1C43     		orrs	r4, r3
 221 001a 1476     		strb	r4, [r2, #24]
  86:..\..\..\arduinoLCD\test\Pain Drain\libraries\lvgl\src\core/lv_obj_scroll.c **** 
 222              		.loc 1 86 0
 223              		@ sp needed
 224              	.LVL15:
 225 001c 70BD     		pop	{r4, r5, r6, pc}
 226              		.cfi_endproc
 227              	.LFE168:
 228              		.size	lv_obj_set_scroll_snap_y, .-lv_obj_set_scroll_snap_y
 229 001e C046     		.section	.text.lv_obj_get_scrollbar_mode,"ax",%progbits
 230              		.align	2
 231              		.global	lv_obj_get_scrollbar_mode
 232              		.code	16
 233              		.thumb_func
 234              		.type	lv_obj_get_scrollbar_mode, %function
 235              	lv_obj_get_scrollbar_mode:
 236              	.LFB169:
  93:..\..\..\arduinoLCD\test\Pain Drain\libraries\lvgl\src\core/lv_obj_scroll.c ****     if(obj->spec_attr) return obj->spec_attr->scrollbar_mode;
 237              		.loc 1 93 0
 238              		.cfi_startproc
 239              		@ args = 0, pretend = 0, frame = 0
 240              		@ frame_needed = 0, uses_anonymous_args = 0
 241              		@ link register save eliminated.
 242              	.LVL16:
  94:..\..\..\arduinoLCD\test\Pain Drain\libraries\lvgl\src\core/lv_obj_scroll.c ****     else return LV_SCROLLBAR_MODE_AUTO;
 243              		.loc 1 94 0
 244 0000 8368     		ldr	r3, [r0, #8]
 245 0002 002B     		cmp	r3, #0
 246 0004 03D0     		beq	.L10
  94:..\..\..\arduinoLCD\test\Pain Drain\libraries\lvgl\src\core/lv_obj_scroll.c ****     else return LV_SCROLLBAR_MODE_AUTO;
 247              		.loc 1 94 0 is_stmt 0 discriminator 1
 248 0006 187E     		ldrb	r0, [r3, #24]
 249              	.LVL17:
 250 0008 8007     		lsls	r0, r0, #30
 251 000a 800F     		lsrs	r0, r0, #30
 252 000c 00E0     		b	.L9
 253              	.LVL18:
 254              	.L10:
  95:..\..\..\arduinoLCD\test\Pain Drain\libraries\lvgl\src\core/lv_obj_scroll.c **** }
 255              		.loc 1 95 0 is_stmt 1
 256 000e 0320     		movs	r0, #3
 257              	.LVL19:
 258              	.L9:
  96:..\..\..\arduinoLCD\test\Pain Drain\libraries\lvgl\src\core/lv_obj_scroll.c **** 
 259              		.loc 1 96 0
 260              		@ sp needed
ARM GAS  C:\Users\haske\AppData\Local\Temp\ccFGDFhR.s 			page 18


 261 0010 7047     		bx	lr
 262              		.cfi_endproc
 263              	.LFE169:
 264              		.size	lv_obj_get_scrollbar_mode, .-lv_obj_get_scrollbar_mode
 265 0012 C046     		.section	.text.lv_obj_get_scroll_dir,"ax",%progbits
 266              		.align	2
 267              		.global	lv_obj_get_scroll_dir
 268              		.code	16
 269              		.thumb_func
 270              		.type	lv_obj_get_scroll_dir, %function
 271              	lv_obj_get_scroll_dir:
 272              	.LFB170:
  99:..\..\..\arduinoLCD\test\Pain Drain\libraries\lvgl\src\core/lv_obj_scroll.c ****     if(obj->spec_attr) return obj->spec_attr->scroll_dir;
 273              		.loc 1 99 0
 274              		.cfi_startproc
 275              		@ args = 0, pretend = 0, frame = 0
 276              		@ frame_needed = 0, uses_anonymous_args = 0
 277              		@ link register save eliminated.
 278              	.LVL20:
 100:..\..\..\arduinoLCD\test\Pain Drain\libraries\lvgl\src\core/lv_obj_scroll.c ****     else return LV_DIR_ALL;
 279              		.loc 1 100 0
 280 0000 8368     		ldr	r3, [r0, #8]
 281 0002 002B     		cmp	r3, #0
 282 0004 03D0     		beq	.L13
 100:..\..\..\arduinoLCD\test\Pain Drain\libraries\lvgl\src\core/lv_obj_scroll.c ****     else return LV_DIR_ALL;
 283              		.loc 1 100 0 is_stmt 0 discriminator 1
 284 0006 587E     		ldrb	r0, [r3, #25]
 285              	.LVL21:
 286 0008 0007     		lsls	r0, r0, #28
 287 000a 000F     		lsrs	r0, r0, #28
 288 000c 00E0     		b	.L12
 289              	.LVL22:
 290              	.L13:
 101:..\..\..\arduinoLCD\test\Pain Drain\libraries\lvgl\src\core/lv_obj_scroll.c **** }
 291              		.loc 1 101 0 is_stmt 1
 292 000e 0F20     		movs	r0, #15
 293              	.LVL23:
 294              	.L12:
 102:..\..\..\arduinoLCD\test\Pain Drain\libraries\lvgl\src\core/lv_obj_scroll.c **** 
 295              		.loc 1 102 0
 296              		@ sp needed
 297 0010 7047     		bx	lr
 298              		.cfi_endproc
 299              	.LFE170:
 300              		.size	lv_obj_get_scroll_dir, .-lv_obj_get_scroll_dir
 301 0012 C046     		.section	.text.lv_obj_get_scroll_snap_x,"ax",%progbits
 302              		.align	2
 303              		.global	lv_obj_get_scroll_snap_x
 304              		.code	16
 305              		.thumb_func
 306              		.type	lv_obj_get_scroll_snap_x, %function
 307              	lv_obj_get_scroll_snap_x:
 308              	.LFB171:
 105:..\..\..\arduinoLCD\test\Pain Drain\libraries\lvgl\src\core/lv_obj_scroll.c ****     if(obj->spec_attr) return obj->spec_attr->scroll_snap_x;
 309              		.loc 1 105 0
 310              		.cfi_startproc
 311              		@ args = 0, pretend = 0, frame = 0
ARM GAS  C:\Users\haske\AppData\Local\Temp\ccFGDFhR.s 			page 19


 312              		@ frame_needed = 0, uses_anonymous_args = 0
 313              		@ link register save eliminated.
 314              	.LVL24:
 106:..\..\..\arduinoLCD\test\Pain Drain\libraries\lvgl\src\core/lv_obj_scroll.c ****     else return LV_SCROLL_SNAP_NONE;
 315              		.loc 1 106 0
 316 0000 8368     		ldr	r3, [r0, #8]
 317 0002 002B     		cmp	r3, #0
 318 0004 03D0     		beq	.L16
 106:..\..\..\arduinoLCD\test\Pain Drain\libraries\lvgl\src\core/lv_obj_scroll.c ****     else return LV_SCROLL_SNAP_NONE;
 319              		.loc 1 106 0 is_stmt 0 discriminator 1
 320 0006 187E     		ldrb	r0, [r3, #24]
 321              	.LVL25:
 322 0008 0007     		lsls	r0, r0, #28
 323 000a 800F     		lsrs	r0, r0, #30
 324 000c 00E0     		b	.L15
 325              	.LVL26:
 326              	.L16:
 107:..\..\..\arduinoLCD\test\Pain Drain\libraries\lvgl\src\core/lv_obj_scroll.c **** }
 327              		.loc 1 107 0 is_stmt 1
 328 000e 0020     		movs	r0, #0
 329              	.LVL27:
 330              	.L15:
 108:..\..\..\arduinoLCD\test\Pain Drain\libraries\lvgl\src\core/lv_obj_scroll.c **** 
 331              		.loc 1 108 0
 332              		@ sp needed
 333 0010 7047     		bx	lr
 334              		.cfi_endproc
 335              	.LFE171:
 336              		.size	lv_obj_get_scroll_snap_x, .-lv_obj_get_scroll_snap_x
 337 0012 C046     		.section	.text.lv_obj_get_scroll_snap_y,"ax",%progbits
 338              		.align	2
 339              		.global	lv_obj_get_scroll_snap_y
 340              		.code	16
 341              		.thumb_func
 342              		.type	lv_obj_get_scroll_snap_y, %function
 343              	lv_obj_get_scroll_snap_y:
 344              	.LFB172:
 111:..\..\..\arduinoLCD\test\Pain Drain\libraries\lvgl\src\core/lv_obj_scroll.c ****     if(obj->spec_attr) return obj->spec_attr->scroll_snap_y;
 345              		.loc 1 111 0
 346              		.cfi_startproc
 347              		@ args = 0, pretend = 0, frame = 0
 348              		@ frame_needed = 0, uses_anonymous_args = 0
 349              		@ link register save eliminated.
 350              	.LVL28:
 112:..\..\..\arduinoLCD\test\Pain Drain\libraries\lvgl\src\core/lv_obj_scroll.c ****     else return LV_SCROLL_SNAP_NONE;
 351              		.loc 1 112 0
 352 0000 8368     		ldr	r3, [r0, #8]
 353 0002 002B     		cmp	r3, #0
 354 0004 03D0     		beq	.L19
 112:..\..\..\arduinoLCD\test\Pain Drain\libraries\lvgl\src\core/lv_obj_scroll.c ****     else return LV_SCROLL_SNAP_NONE;
 355              		.loc 1 112 0 is_stmt 0 discriminator 1
 356 0006 187E     		ldrb	r0, [r3, #24]
 357              	.LVL29:
 358 0008 8006     		lsls	r0, r0, #26
 359 000a 800F     		lsrs	r0, r0, #30
 360 000c 00E0     		b	.L18
 361              	.LVL30:
ARM GAS  C:\Users\haske\AppData\Local\Temp\ccFGDFhR.s 			page 20


 362              	.L19:
 113:..\..\..\arduinoLCD\test\Pain Drain\libraries\lvgl\src\core/lv_obj_scroll.c **** }
 363              		.loc 1 113 0 is_stmt 1
 364 000e 0020     		movs	r0, #0
 365              	.LVL31:
 366              	.L18:
 114:..\..\..\arduinoLCD\test\Pain Drain\libraries\lvgl\src\core/lv_obj_scroll.c **** 
 367              		.loc 1 114 0
 368              		@ sp needed
 369 0010 7047     		bx	lr
 370              		.cfi_endproc
 371              	.LFE172:
 372              		.size	lv_obj_get_scroll_snap_y, .-lv_obj_get_scroll_snap_y
 373 0012 C046     		.section	.text.lv_obj_get_scroll_x,"ax",%progbits
 374              		.align	2
 375              		.global	lv_obj_get_scroll_x
 376              		.code	16
 377              		.thumb_func
 378              		.type	lv_obj_get_scroll_x, %function
 379              	lv_obj_get_scroll_x:
 380              	.LFB173:
 117:..\..\..\arduinoLCD\test\Pain Drain\libraries\lvgl\src\core/lv_obj_scroll.c ****     if(obj->spec_attr == NULL) return 0;
 381              		.loc 1 117 0
 382              		.cfi_startproc
 383              		@ args = 0, pretend = 0, frame = 0
 384              		@ frame_needed = 0, uses_anonymous_args = 0
 385              		@ link register save eliminated.
 386              	.LVL32:
 118:..\..\..\arduinoLCD\test\Pain Drain\libraries\lvgl\src\core/lv_obj_scroll.c ****     return -obj->spec_attr->scroll.x;
 387              		.loc 1 118 0
 388 0000 8368     		ldr	r3, [r0, #8]
 389 0002 002B     		cmp	r3, #0
 390 0004 04D0     		beq	.L22
 119:..\..\..\arduinoLCD\test\Pain Drain\libraries\lvgl\src\core/lv_obj_scroll.c **** }
 391              		.loc 1 119 0
 392 0006 1020     		movs	r0, #16
 393 0008 185E     		ldrsh	r0, [r3, r0]
 394              	.LVL33:
 395 000a 4042     		rsbs	r0, r0, #0
 396 000c 00B2     		sxth	r0, r0
 397 000e 00E0     		b	.L21
 398              	.LVL34:
 399              	.L22:
 118:..\..\..\arduinoLCD\test\Pain Drain\libraries\lvgl\src\core/lv_obj_scroll.c ****     return -obj->spec_attr->scroll.x;
 400              		.loc 1 118 0
 401 0010 0020     		movs	r0, #0
 402              	.LVL35:
 403              	.L21:
 120:..\..\..\arduinoLCD\test\Pain Drain\libraries\lvgl\src\core/lv_obj_scroll.c **** 
 404              		.loc 1 120 0
 405              		@ sp needed
 406 0012 7047     		bx	lr
 407              		.cfi_endproc
 408              	.LFE173:
 409              		.size	lv_obj_get_scroll_x, .-lv_obj_get_scroll_x
 410              		.section	.text.lv_obj_get_scroll_y,"ax",%progbits
 411              		.align	2
ARM GAS  C:\Users\haske\AppData\Local\Temp\ccFGDFhR.s 			page 21


 412              		.global	lv_obj_get_scroll_y
 413              		.code	16
 414              		.thumb_func
 415              		.type	lv_obj_get_scroll_y, %function
 416              	lv_obj_get_scroll_y:
 417              	.LFB174:
 123:..\..\..\arduinoLCD\test\Pain Drain\libraries\lvgl\src\core/lv_obj_scroll.c ****     if(obj->spec_attr == NULL) return 0;
 418              		.loc 1 123 0
 419              		.cfi_startproc
 420              		@ args = 0, pretend = 0, frame = 0
 421              		@ frame_needed = 0, uses_anonymous_args = 0
 422              		@ link register save eliminated.
 423              	.LVL36:
 124:..\..\..\arduinoLCD\test\Pain Drain\libraries\lvgl\src\core/lv_obj_scroll.c ****     return -obj->spec_attr->scroll.y;
 424              		.loc 1 124 0
 425 0000 8368     		ldr	r3, [r0, #8]
 426 0002 002B     		cmp	r3, #0
 427 0004 04D0     		beq	.L25
 125:..\..\..\arduinoLCD\test\Pain Drain\libraries\lvgl\src\core/lv_obj_scroll.c **** }
 428              		.loc 1 125 0
 429 0006 1220     		movs	r0, #18
 430 0008 185E     		ldrsh	r0, [r3, r0]
 431              	.LVL37:
 432 000a 4042     		rsbs	r0, r0, #0
 433 000c 00B2     		sxth	r0, r0
 434 000e 00E0     		b	.L24
 435              	.LVL38:
 436              	.L25:
 124:..\..\..\arduinoLCD\test\Pain Drain\libraries\lvgl\src\core/lv_obj_scroll.c ****     return -obj->spec_attr->scroll.y;
 437              		.loc 1 124 0
 438 0010 0020     		movs	r0, #0
 439              	.LVL39:
 440              	.L24:
 126:..\..\..\arduinoLCD\test\Pain Drain\libraries\lvgl\src\core/lv_obj_scroll.c **** 
 441              		.loc 1 126 0
 442              		@ sp needed
 443 0012 7047     		bx	lr
 444              		.cfi_endproc
 445              	.LFE174:
 446              		.size	lv_obj_get_scroll_y, .-lv_obj_get_scroll_y
 447              		.section	.text.lv_obj_get_scroll_top,"ax",%progbits
 448              		.align	2
 449              		.global	lv_obj_get_scroll_top
 450              		.code	16
 451              		.thumb_func
 452              		.type	lv_obj_get_scroll_top, %function
 453              	lv_obj_get_scroll_top:
 454              	.LFB175:
 129:..\..\..\arduinoLCD\test\Pain Drain\libraries\lvgl\src\core/lv_obj_scroll.c ****     if(obj->spec_attr == NULL) return 0;
 455              		.loc 1 129 0
 456              		.cfi_startproc
 457              		@ args = 0, pretend = 0, frame = 0
 458              		@ frame_needed = 0, uses_anonymous_args = 0
 459              		@ link register save eliminated.
 460              	.LVL40:
 130:..\..\..\arduinoLCD\test\Pain Drain\libraries\lvgl\src\core/lv_obj_scroll.c ****     return -obj->spec_attr->scroll.y;
 461              		.loc 1 130 0
ARM GAS  C:\Users\haske\AppData\Local\Temp\ccFGDFhR.s 			page 22


 462 0000 8368     		ldr	r3, [r0, #8]
 463 0002 002B     		cmp	r3, #0
 464 0004 04D0     		beq	.L28
 131:..\..\..\arduinoLCD\test\Pain Drain\libraries\lvgl\src\core/lv_obj_scroll.c **** }
 465              		.loc 1 131 0
 466 0006 1220     		movs	r0, #18
 467 0008 185E     		ldrsh	r0, [r3, r0]
 468              	.LVL41:
 469 000a 4042     		rsbs	r0, r0, #0
 470 000c 00B2     		sxth	r0, r0
 471 000e 00E0     		b	.L27
 472              	.LVL42:
 473              	.L28:
 130:..\..\..\arduinoLCD\test\Pain Drain\libraries\lvgl\src\core/lv_obj_scroll.c ****     return -obj->spec_attr->scroll.y;
 474              		.loc 1 130 0
 475 0010 0020     		movs	r0, #0
 476              	.LVL43:
 477              	.L27:
 132:..\..\..\arduinoLCD\test\Pain Drain\libraries\lvgl\src\core/lv_obj_scroll.c **** 
 478              		.loc 1 132 0
 479              		@ sp needed
 480 0012 7047     		bx	lr
 481              		.cfi_endproc
 482              	.LFE175:
 483              		.size	lv_obj_get_scroll_top, .-lv_obj_get_scroll_top
 484              		.section	.text.lv_obj_get_scroll_bottom,"ax",%progbits
 485              		.align	2
 486              		.global	lv_obj_get_scroll_bottom
 487              		.code	16
 488              		.thumb_func
 489              		.type	lv_obj_get_scroll_bottom, %function
 490              	lv_obj_get_scroll_bottom:
 491              	.LFB176:
 135:..\..\..\arduinoLCD\test\Pain Drain\libraries\lvgl\src\core/lv_obj_scroll.c ****     LV_ASSERT_OBJ(obj, MY_CLASS);
 492              		.loc 1 135 0
 493              		.cfi_startproc
 494              		@ args = 0, pretend = 0, frame = 0
 495              		@ frame_needed = 0, uses_anonymous_args = 0
 496              	.LVL44:
 497 0000 F8B5     		push	{r3, r4, r5, r6, r7, lr}
 498              		.cfi_def_cfa_offset 24
 499              		.cfi_offset 3, -24
 500              		.cfi_offset 4, -20
 501              		.cfi_offset 5, -16
 502              		.cfi_offset 6, -12
 503              		.cfi_offset 7, -8
 504              		.cfi_offset 14, -4
 505 0002 4F46     		mov	r7, r9
 506 0004 4646     		mov	r6, r8
 507 0006 C0B4     		push	{r6, r7}
 508              		.cfi_def_cfa_offset 32
 509              		.cfi_offset 8, -32
 510              		.cfi_offset 9, -28
 511 0008 0700     		movs	r7, r0
 512              	.LVL45:
 140:..\..\..\arduinoLCD\test\Pain Drain\libraries\lvgl\src\core/lv_obj_scroll.c ****     for(i = 0; i < child_cnt; i++) {
 513              		.loc 1 140 0
ARM GAS  C:\Users\haske\AppData\Local\Temp\ccFGDFhR.s 			page 23


 514 000a FFF7FEFF 		bl	lv_obj_get_child_cnt
 515              	.LVL46:
 516 000e 8046     		mov	r8, r0
 517              	.LVL47:
 141:..\..\..\arduinoLCD\test\Pain Drain\libraries\lvgl\src\core/lv_obj_scroll.c ****         lv_obj_t * child = obj->spec_attr->children[i];
 518              		.loc 1 141 0
 519 0010 0024     		movs	r4, #0
 138:..\..\..\arduinoLCD\test\Pain Drain\libraries\lvgl\src\core/lv_obj_scroll.c ****     uint32_t i;
 520              		.loc 1 138 0
 521 0012 264E     		ldr	r6, .L36
 141:..\..\..\arduinoLCD\test\Pain Drain\libraries\lvgl\src\core/lv_obj_scroll.c ****         lv_obj_t * child = obj->spec_attr->children[i];
 522              		.loc 1 141 0
 523 0014 11E0     		b	.L30
 524              	.LVL48:
 525              	.L33:
 526              	.LBB99:
 142:..\..\..\arduinoLCD\test\Pain Drain\libraries\lvgl\src\core/lv_obj_scroll.c ****         if(lv_obj_has_flag_any(child,  LV_OBJ_FLAG_HIDDEN | LV_OBJ_FLAG_FLOATING)) continue;
 527              		.loc 1 142 0
 528 0016 BB68     		ldr	r3, [r7, #8]
 529 0018 1A68     		ldr	r2, [r3]
 530 001a A300     		lsls	r3, r4, #2
 531 001c D558     		ldr	r5, [r2, r3]
 532              	.LVL49:
 143:..\..\..\arduinoLCD\test\Pain Drain\libraries\lvgl\src\core/lv_obj_scroll.c ****         child_res = LV_MAX(child_res, child->coords.y2);
 533              		.loc 1 143 0
 534 001e 2449     		ldr	r1, .L36+4
 535 0020 2800     		movs	r0, r5
 536 0022 FFF7FEFF 		bl	lv_obj_has_flag_any
 537              	.LVL50:
 538 0026 0028     		cmp	r0, #0
 539 0028 06D1     		bne	.L31
 144:..\..\..\arduinoLCD\test\Pain Drain\libraries\lvgl\src\core/lv_obj_scroll.c ****     }
 540              		.loc 1 144 0
 541 002a 1A23     		movs	r3, #26
 542 002c EA5E     		ldrsh	r2, [r5, r3]
 543 002e 331C     		adds	r3, r6, #0
 544 0030 9642     		cmp	r6, r2
 545 0032 00DA     		bge	.L32
 546              	.LVL51:
 547 0034 131C     		adds	r3, r2, #0
 548              	.LVL52:
 549              	.L32:
 550 0036 1EB2     		sxth	r6, r3
 551              	.LVL53:
 552              	.L31:
 553              	.LBE99:
 141:..\..\..\arduinoLCD\test\Pain Drain\libraries\lvgl\src\core/lv_obj_scroll.c ****         lv_obj_t * child = obj->spec_attr->children[i];
 554              		.loc 1 141 0 discriminator 2
 555 0038 0134     		adds	r4, r4, #1
 556              	.LVL54:
 557              	.L30:
 141:..\..\..\arduinoLCD\test\Pain Drain\libraries\lvgl\src\core/lv_obj_scroll.c ****         lv_obj_t * child = obj->spec_attr->children[i];
 558              		.loc 1 141 0 is_stmt 0 discriminator 1
 559 003a 4445     		cmp	r4, r8
 560 003c EBD3     		bcc	.L33
 561              	.LVL55:
 562              	.LBB100:
ARM GAS  C:\Users\haske\AppData\Local\Temp\ccFGDFhR.s 			page 24


 563              	.LBB101:
 564              		.file 2 "..\\..\\..\\arduinoLCD\\test\\Pain Drain\\libraries\\lvgl\\src\\core\\lv_obj_style_gen.h"
   1:..\..\..\arduinoLCD\test\Pain Drain\libraries\lvgl\src\core/lv_obj_style_gen.h **** static inline lv_coord_t lv_obj_get_style_width(const struct _lv_obj_t * obj, uint32_t part)
   2:..\..\..\arduinoLCD\test\Pain Drain\libraries\lvgl\src\core/lv_obj_style_gen.h **** {
   3:..\..\..\arduinoLCD\test\Pain Drain\libraries\lvgl\src\core/lv_obj_style_gen.h ****     lv_style_value_t v = lv_obj_get_style_prop(obj, part, LV_STYLE_WIDTH);
   4:..\..\..\arduinoLCD\test\Pain Drain\libraries\lvgl\src\core/lv_obj_style_gen.h ****     return (lv_coord_t)v.num;
   5:..\..\..\arduinoLCD\test\Pain Drain\libraries\lvgl\src\core/lv_obj_style_gen.h **** }
   6:..\..\..\arduinoLCD\test\Pain Drain\libraries\lvgl\src\core/lv_obj_style_gen.h **** 
   7:..\..\..\arduinoLCD\test\Pain Drain\libraries\lvgl\src\core/lv_obj_style_gen.h **** static inline lv_coord_t lv_obj_get_style_min_width(const struct _lv_obj_t * obj, uint32_t part)
   8:..\..\..\arduinoLCD\test\Pain Drain\libraries\lvgl\src\core/lv_obj_style_gen.h **** {
   9:..\..\..\arduinoLCD\test\Pain Drain\libraries\lvgl\src\core/lv_obj_style_gen.h ****     lv_style_value_t v = lv_obj_get_style_prop(obj, part, LV_STYLE_MIN_WIDTH);
  10:..\..\..\arduinoLCD\test\Pain Drain\libraries\lvgl\src\core/lv_obj_style_gen.h ****     return (lv_coord_t)v.num;
  11:..\..\..\arduinoLCD\test\Pain Drain\libraries\lvgl\src\core/lv_obj_style_gen.h **** }
  12:..\..\..\arduinoLCD\test\Pain Drain\libraries\lvgl\src\core/lv_obj_style_gen.h **** 
  13:..\..\..\arduinoLCD\test\Pain Drain\libraries\lvgl\src\core/lv_obj_style_gen.h **** static inline lv_coord_t lv_obj_get_style_max_width(const struct _lv_obj_t * obj, uint32_t part)
  14:..\..\..\arduinoLCD\test\Pain Drain\libraries\lvgl\src\core/lv_obj_style_gen.h **** {
  15:..\..\..\arduinoLCD\test\Pain Drain\libraries\lvgl\src\core/lv_obj_style_gen.h ****     lv_style_value_t v = lv_obj_get_style_prop(obj, part, LV_STYLE_MAX_WIDTH);
  16:..\..\..\arduinoLCD\test\Pain Drain\libraries\lvgl\src\core/lv_obj_style_gen.h ****     return (lv_coord_t)v.num;
  17:..\..\..\arduinoLCD\test\Pain Drain\libraries\lvgl\src\core/lv_obj_style_gen.h **** }
  18:..\..\..\arduinoLCD\test\Pain Drain\libraries\lvgl\src\core/lv_obj_style_gen.h **** 
  19:..\..\..\arduinoLCD\test\Pain Drain\libraries\lvgl\src\core/lv_obj_style_gen.h **** static inline lv_coord_t lv_obj_get_style_height(const struct _lv_obj_t * obj, uint32_t part)
  20:..\..\..\arduinoLCD\test\Pain Drain\libraries\lvgl\src\core/lv_obj_style_gen.h **** {
  21:..\..\..\arduinoLCD\test\Pain Drain\libraries\lvgl\src\core/lv_obj_style_gen.h ****     lv_style_value_t v = lv_obj_get_style_prop(obj, part, LV_STYLE_HEIGHT);
  22:..\..\..\arduinoLCD\test\Pain Drain\libraries\lvgl\src\core/lv_obj_style_gen.h ****     return (lv_coord_t)v.num;
  23:..\..\..\arduinoLCD\test\Pain Drain\libraries\lvgl\src\core/lv_obj_style_gen.h **** }
  24:..\..\..\arduinoLCD\test\Pain Drain\libraries\lvgl\src\core/lv_obj_style_gen.h **** 
  25:..\..\..\arduinoLCD\test\Pain Drain\libraries\lvgl\src\core/lv_obj_style_gen.h **** static inline lv_coord_t lv_obj_get_style_min_height(const struct _lv_obj_t * obj, uint32_t part)
  26:..\..\..\arduinoLCD\test\Pain Drain\libraries\lvgl\src\core/lv_obj_style_gen.h **** {
  27:..\..\..\arduinoLCD\test\Pain Drain\libraries\lvgl\src\core/lv_obj_style_gen.h ****     lv_style_value_t v = lv_obj_get_style_prop(obj, part, LV_STYLE_MIN_HEIGHT);
  28:..\..\..\arduinoLCD\test\Pain Drain\libraries\lvgl\src\core/lv_obj_style_gen.h ****     return (lv_coord_t)v.num;
  29:..\..\..\arduinoLCD\test\Pain Drain\libraries\lvgl\src\core/lv_obj_style_gen.h **** }
  30:..\..\..\arduinoLCD\test\Pain Drain\libraries\lvgl\src\core/lv_obj_style_gen.h **** 
  31:..\..\..\arduinoLCD\test\Pain Drain\libraries\lvgl\src\core/lv_obj_style_gen.h **** static inline lv_coord_t lv_obj_get_style_max_height(const struct _lv_obj_t * obj, uint32_t part)
  32:..\..\..\arduinoLCD\test\Pain Drain\libraries\lvgl\src\core/lv_obj_style_gen.h **** {
  33:..\..\..\arduinoLCD\test\Pain Drain\libraries\lvgl\src\core/lv_obj_style_gen.h ****     lv_style_value_t v = lv_obj_get_style_prop(obj, part, LV_STYLE_MAX_HEIGHT);
  34:..\..\..\arduinoLCD\test\Pain Drain\libraries\lvgl\src\core/lv_obj_style_gen.h ****     return (lv_coord_t)v.num;
  35:..\..\..\arduinoLCD\test\Pain Drain\libraries\lvgl\src\core/lv_obj_style_gen.h **** }
  36:..\..\..\arduinoLCD\test\Pain Drain\libraries\lvgl\src\core/lv_obj_style_gen.h **** 
  37:..\..\..\arduinoLCD\test\Pain Drain\libraries\lvgl\src\core/lv_obj_style_gen.h **** static inline lv_coord_t lv_obj_get_style_x(const struct _lv_obj_t * obj, uint32_t part)
  38:..\..\..\arduinoLCD\test\Pain Drain\libraries\lvgl\src\core/lv_obj_style_gen.h **** {
  39:..\..\..\arduinoLCD\test\Pain Drain\libraries\lvgl\src\core/lv_obj_style_gen.h ****     lv_style_value_t v = lv_obj_get_style_prop(obj, part, LV_STYLE_X);
  40:..\..\..\arduinoLCD\test\Pain Drain\libraries\lvgl\src\core/lv_obj_style_gen.h ****     return (lv_coord_t)v.num;
  41:..\..\..\arduinoLCD\test\Pain Drain\libraries\lvgl\src\core/lv_obj_style_gen.h **** }
  42:..\..\..\arduinoLCD\test\Pain Drain\libraries\lvgl\src\core/lv_obj_style_gen.h **** 
  43:..\..\..\arduinoLCD\test\Pain Drain\libraries\lvgl\src\core/lv_obj_style_gen.h **** static inline lv_coord_t lv_obj_get_style_y(const struct _lv_obj_t * obj, uint32_t part)
  44:..\..\..\arduinoLCD\test\Pain Drain\libraries\lvgl\src\core/lv_obj_style_gen.h **** {
  45:..\..\..\arduinoLCD\test\Pain Drain\libraries\lvgl\src\core/lv_obj_style_gen.h ****     lv_style_value_t v = lv_obj_get_style_prop(obj, part, LV_STYLE_Y);
  46:..\..\..\arduinoLCD\test\Pain Drain\libraries\lvgl\src\core/lv_obj_style_gen.h ****     return (lv_coord_t)v.num;
  47:..\..\..\arduinoLCD\test\Pain Drain\libraries\lvgl\src\core/lv_obj_style_gen.h **** }
  48:..\..\..\arduinoLCD\test\Pain Drain\libraries\lvgl\src\core/lv_obj_style_gen.h **** 
  49:..\..\..\arduinoLCD\test\Pain Drain\libraries\lvgl\src\core/lv_obj_style_gen.h **** static inline lv_align_t lv_obj_get_style_align(const struct _lv_obj_t * obj, uint32_t part)
  50:..\..\..\arduinoLCD\test\Pain Drain\libraries\lvgl\src\core/lv_obj_style_gen.h **** {
  51:..\..\..\arduinoLCD\test\Pain Drain\libraries\lvgl\src\core/lv_obj_style_gen.h ****     lv_style_value_t v = lv_obj_get_style_prop(obj, part, LV_STYLE_ALIGN);
  52:..\..\..\arduinoLCD\test\Pain Drain\libraries\lvgl\src\core/lv_obj_style_gen.h ****     return (lv_align_t)v.num;
  53:..\..\..\arduinoLCD\test\Pain Drain\libraries\lvgl\src\core/lv_obj_style_gen.h **** }
  54:..\..\..\arduinoLCD\test\Pain Drain\libraries\lvgl\src\core/lv_obj_style_gen.h **** 
  55:..\..\..\arduinoLCD\test\Pain Drain\libraries\lvgl\src\core/lv_obj_style_gen.h **** static inline lv_coord_t lv_obj_get_style_transform_width(const struct _lv_obj_t * obj, uint32_t pa
ARM GAS  C:\Users\haske\AppData\Local\Temp\ccFGDFhR.s 			page 25


  56:..\..\..\arduinoLCD\test\Pain Drain\libraries\lvgl\src\core/lv_obj_style_gen.h **** {
  57:..\..\..\arduinoLCD\test\Pain Drain\libraries\lvgl\src\core/lv_obj_style_gen.h ****     lv_style_value_t v = lv_obj_get_style_prop(obj, part, LV_STYLE_TRANSFORM_WIDTH);
  58:..\..\..\arduinoLCD\test\Pain Drain\libraries\lvgl\src\core/lv_obj_style_gen.h ****     return (lv_coord_t)v.num;
  59:..\..\..\arduinoLCD\test\Pain Drain\libraries\lvgl\src\core/lv_obj_style_gen.h **** }
  60:..\..\..\arduinoLCD\test\Pain Drain\libraries\lvgl\src\core/lv_obj_style_gen.h **** 
  61:..\..\..\arduinoLCD\test\Pain Drain\libraries\lvgl\src\core/lv_obj_style_gen.h **** static inline lv_coord_t lv_obj_get_style_transform_height(const struct _lv_obj_t * obj, uint32_t p
  62:..\..\..\arduinoLCD\test\Pain Drain\libraries\lvgl\src\core/lv_obj_style_gen.h **** {
  63:..\..\..\arduinoLCD\test\Pain Drain\libraries\lvgl\src\core/lv_obj_style_gen.h ****     lv_style_value_t v = lv_obj_get_style_prop(obj, part, LV_STYLE_TRANSFORM_HEIGHT);
  64:..\..\..\arduinoLCD\test\Pain Drain\libraries\lvgl\src\core/lv_obj_style_gen.h ****     return (lv_coord_t)v.num;
  65:..\..\..\arduinoLCD\test\Pain Drain\libraries\lvgl\src\core/lv_obj_style_gen.h **** }
  66:..\..\..\arduinoLCD\test\Pain Drain\libraries\lvgl\src\core/lv_obj_style_gen.h **** 
  67:..\..\..\arduinoLCD\test\Pain Drain\libraries\lvgl\src\core/lv_obj_style_gen.h **** static inline lv_coord_t lv_obj_get_style_translate_x(const struct _lv_obj_t * obj, uint32_t part)
  68:..\..\..\arduinoLCD\test\Pain Drain\libraries\lvgl\src\core/lv_obj_style_gen.h **** {
  69:..\..\..\arduinoLCD\test\Pain Drain\libraries\lvgl\src\core/lv_obj_style_gen.h ****     lv_style_value_t v = lv_obj_get_style_prop(obj, part, LV_STYLE_TRANSLATE_X);
  70:..\..\..\arduinoLCD\test\Pain Drain\libraries\lvgl\src\core/lv_obj_style_gen.h ****     return (lv_coord_t)v.num;
  71:..\..\..\arduinoLCD\test\Pain Drain\libraries\lvgl\src\core/lv_obj_style_gen.h **** }
  72:..\..\..\arduinoLCD\test\Pain Drain\libraries\lvgl\src\core/lv_obj_style_gen.h **** 
  73:..\..\..\arduinoLCD\test\Pain Drain\libraries\lvgl\src\core/lv_obj_style_gen.h **** static inline lv_coord_t lv_obj_get_style_translate_y(const struct _lv_obj_t * obj, uint32_t part)
  74:..\..\..\arduinoLCD\test\Pain Drain\libraries\lvgl\src\core/lv_obj_style_gen.h **** {
  75:..\..\..\arduinoLCD\test\Pain Drain\libraries\lvgl\src\core/lv_obj_style_gen.h ****     lv_style_value_t v = lv_obj_get_style_prop(obj, part, LV_STYLE_TRANSLATE_Y);
  76:..\..\..\arduinoLCD\test\Pain Drain\libraries\lvgl\src\core/lv_obj_style_gen.h ****     return (lv_coord_t)v.num;
  77:..\..\..\arduinoLCD\test\Pain Drain\libraries\lvgl\src\core/lv_obj_style_gen.h **** }
  78:..\..\..\arduinoLCD\test\Pain Drain\libraries\lvgl\src\core/lv_obj_style_gen.h **** 
  79:..\..\..\arduinoLCD\test\Pain Drain\libraries\lvgl\src\core/lv_obj_style_gen.h **** static inline lv_coord_t lv_obj_get_style_transform_zoom(const struct _lv_obj_t * obj, uint32_t par
  80:..\..\..\arduinoLCD\test\Pain Drain\libraries\lvgl\src\core/lv_obj_style_gen.h **** {
  81:..\..\..\arduinoLCD\test\Pain Drain\libraries\lvgl\src\core/lv_obj_style_gen.h ****     lv_style_value_t v = lv_obj_get_style_prop(obj, part, LV_STYLE_TRANSFORM_ZOOM);
  82:..\..\..\arduinoLCD\test\Pain Drain\libraries\lvgl\src\core/lv_obj_style_gen.h ****     return (lv_coord_t)v.num;
  83:..\..\..\arduinoLCD\test\Pain Drain\libraries\lvgl\src\core/lv_obj_style_gen.h **** }
  84:..\..\..\arduinoLCD\test\Pain Drain\libraries\lvgl\src\core/lv_obj_style_gen.h **** 
  85:..\..\..\arduinoLCD\test\Pain Drain\libraries\lvgl\src\core/lv_obj_style_gen.h **** static inline lv_coord_t lv_obj_get_style_transform_angle(const struct _lv_obj_t * obj, uint32_t pa
  86:..\..\..\arduinoLCD\test\Pain Drain\libraries\lvgl\src\core/lv_obj_style_gen.h **** {
  87:..\..\..\arduinoLCD\test\Pain Drain\libraries\lvgl\src\core/lv_obj_style_gen.h ****     lv_style_value_t v = lv_obj_get_style_prop(obj, part, LV_STYLE_TRANSFORM_ANGLE);
  88:..\..\..\arduinoLCD\test\Pain Drain\libraries\lvgl\src\core/lv_obj_style_gen.h ****     return (lv_coord_t)v.num;
  89:..\..\..\arduinoLCD\test\Pain Drain\libraries\lvgl\src\core/lv_obj_style_gen.h **** }
  90:..\..\..\arduinoLCD\test\Pain Drain\libraries\lvgl\src\core/lv_obj_style_gen.h **** 
  91:..\..\..\arduinoLCD\test\Pain Drain\libraries\lvgl\src\core/lv_obj_style_gen.h **** static inline lv_coord_t lv_obj_get_style_transform_pivot_x(const struct _lv_obj_t * obj, uint32_t 
  92:..\..\..\arduinoLCD\test\Pain Drain\libraries\lvgl\src\core/lv_obj_style_gen.h **** {
  93:..\..\..\arduinoLCD\test\Pain Drain\libraries\lvgl\src\core/lv_obj_style_gen.h ****     lv_style_value_t v = lv_obj_get_style_prop(obj, part, LV_STYLE_TRANSFORM_PIVOT_X);
  94:..\..\..\arduinoLCD\test\Pain Drain\libraries\lvgl\src\core/lv_obj_style_gen.h ****     return (lv_coord_t)v.num;
  95:..\..\..\arduinoLCD\test\Pain Drain\libraries\lvgl\src\core/lv_obj_style_gen.h **** }
  96:..\..\..\arduinoLCD\test\Pain Drain\libraries\lvgl\src\core/lv_obj_style_gen.h **** 
  97:..\..\..\arduinoLCD\test\Pain Drain\libraries\lvgl\src\core/lv_obj_style_gen.h **** static inline lv_coord_t lv_obj_get_style_transform_pivot_y(const struct _lv_obj_t * obj, uint32_t 
  98:..\..\..\arduinoLCD\test\Pain Drain\libraries\lvgl\src\core/lv_obj_style_gen.h **** {
  99:..\..\..\arduinoLCD\test\Pain Drain\libraries\lvgl\src\core/lv_obj_style_gen.h ****     lv_style_value_t v = lv_obj_get_style_prop(obj, part, LV_STYLE_TRANSFORM_PIVOT_Y);
 100:..\..\..\arduinoLCD\test\Pain Drain\libraries\lvgl\src\core/lv_obj_style_gen.h ****     return (lv_coord_t)v.num;
 101:..\..\..\arduinoLCD\test\Pain Drain\libraries\lvgl\src\core/lv_obj_style_gen.h **** }
 102:..\..\..\arduinoLCD\test\Pain Drain\libraries\lvgl\src\core/lv_obj_style_gen.h **** 
 103:..\..\..\arduinoLCD\test\Pain Drain\libraries\lvgl\src\core/lv_obj_style_gen.h **** static inline lv_coord_t lv_obj_get_style_pad_top(const struct _lv_obj_t * obj, uint32_t part)
 104:..\..\..\arduinoLCD\test\Pain Drain\libraries\lvgl\src\core/lv_obj_style_gen.h **** {
 105:..\..\..\arduinoLCD\test\Pain Drain\libraries\lvgl\src\core/lv_obj_style_gen.h ****     lv_style_value_t v = lv_obj_get_style_prop(obj, part, LV_STYLE_PAD_TOP);
 565              		.loc 2 105 0 is_stmt 1
 566 003e 1022     		movs	r2, #16
 567 0040 0021     		movs	r1, #0
 568 0042 3800     		movs	r0, r7
 569 0044 FFF7FEFF 		bl	lv_obj_get_style_prop
 570              	.LVL56:
 571 0048 8146     		mov	r9, r0
ARM GAS  C:\Users\haske\AppData\Local\Temp\ccFGDFhR.s 			page 26


 572              	.LVL57:
 573              	.LBE101:
 574              	.LBE100:
 575              	.LBB102:
 576              	.LBB103:
 106:..\..\..\arduinoLCD\test\Pain Drain\libraries\lvgl\src\core/lv_obj_style_gen.h ****     return (lv_coord_t)v.num;
 107:..\..\..\arduinoLCD\test\Pain Drain\libraries\lvgl\src\core/lv_obj_style_gen.h **** }
 108:..\..\..\arduinoLCD\test\Pain Drain\libraries\lvgl\src\core/lv_obj_style_gen.h **** 
 109:..\..\..\arduinoLCD\test\Pain Drain\libraries\lvgl\src\core/lv_obj_style_gen.h **** static inline lv_coord_t lv_obj_get_style_pad_bottom(const struct _lv_obj_t * obj, uint32_t part)
 110:..\..\..\arduinoLCD\test\Pain Drain\libraries\lvgl\src\core/lv_obj_style_gen.h **** {
 111:..\..\..\arduinoLCD\test\Pain Drain\libraries\lvgl\src\core/lv_obj_style_gen.h ****     lv_style_value_t v = lv_obj_get_style_prop(obj, part, LV_STYLE_PAD_BOTTOM);
 577              		.loc 2 111 0
 578 004a 1122     		movs	r2, #17
 579 004c 0021     		movs	r1, #0
 580 004e 3800     		movs	r0, r7
 581 0050 FFF7FEFF 		bl	lv_obj_get_style_prop
 582              	.LVL58:
 583 0054 0500     		movs	r5, r0
 584              	.LVL59:
 585              	.LBE103:
 586              	.LBE102:
 587              	.LBB104:
 588              	.LBB105:
 112:..\..\..\arduinoLCD\test\Pain Drain\libraries\lvgl\src\core/lv_obj_style_gen.h ****     return (lv_coord_t)v.num;
 113:..\..\..\arduinoLCD\test\Pain Drain\libraries\lvgl\src\core/lv_obj_style_gen.h **** }
 114:..\..\..\arduinoLCD\test\Pain Drain\libraries\lvgl\src\core/lv_obj_style_gen.h **** 
 115:..\..\..\arduinoLCD\test\Pain Drain\libraries\lvgl\src\core/lv_obj_style_gen.h **** static inline lv_coord_t lv_obj_get_style_pad_left(const struct _lv_obj_t * obj, uint32_t part)
 116:..\..\..\arduinoLCD\test\Pain Drain\libraries\lvgl\src\core/lv_obj_style_gen.h **** {
 117:..\..\..\arduinoLCD\test\Pain Drain\libraries\lvgl\src\core/lv_obj_style_gen.h ****     lv_style_value_t v = lv_obj_get_style_prop(obj, part, LV_STYLE_PAD_LEFT);
 118:..\..\..\arduinoLCD\test\Pain Drain\libraries\lvgl\src\core/lv_obj_style_gen.h ****     return (lv_coord_t)v.num;
 119:..\..\..\arduinoLCD\test\Pain Drain\libraries\lvgl\src\core/lv_obj_style_gen.h **** }
 120:..\..\..\arduinoLCD\test\Pain Drain\libraries\lvgl\src\core/lv_obj_style_gen.h **** 
 121:..\..\..\arduinoLCD\test\Pain Drain\libraries\lvgl\src\core/lv_obj_style_gen.h **** static inline lv_coord_t lv_obj_get_style_pad_right(const struct _lv_obj_t * obj, uint32_t part)
 122:..\..\..\arduinoLCD\test\Pain Drain\libraries\lvgl\src\core/lv_obj_style_gen.h **** {
 123:..\..\..\arduinoLCD\test\Pain Drain\libraries\lvgl\src\core/lv_obj_style_gen.h ****     lv_style_value_t v = lv_obj_get_style_prop(obj, part, LV_STYLE_PAD_RIGHT);
 124:..\..\..\arduinoLCD\test\Pain Drain\libraries\lvgl\src\core/lv_obj_style_gen.h ****     return (lv_coord_t)v.num;
 125:..\..\..\arduinoLCD\test\Pain Drain\libraries\lvgl\src\core/lv_obj_style_gen.h **** }
 126:..\..\..\arduinoLCD\test\Pain Drain\libraries\lvgl\src\core/lv_obj_style_gen.h **** 
 127:..\..\..\arduinoLCD\test\Pain Drain\libraries\lvgl\src\core/lv_obj_style_gen.h **** static inline lv_coord_t lv_obj_get_style_pad_row(const struct _lv_obj_t * obj, uint32_t part)
 128:..\..\..\arduinoLCD\test\Pain Drain\libraries\lvgl\src\core/lv_obj_style_gen.h **** {
 129:..\..\..\arduinoLCD\test\Pain Drain\libraries\lvgl\src\core/lv_obj_style_gen.h ****     lv_style_value_t v = lv_obj_get_style_prop(obj, part, LV_STYLE_PAD_ROW);
 130:..\..\..\arduinoLCD\test\Pain Drain\libraries\lvgl\src\core/lv_obj_style_gen.h ****     return (lv_coord_t)v.num;
 131:..\..\..\arduinoLCD\test\Pain Drain\libraries\lvgl\src\core/lv_obj_style_gen.h **** }
 132:..\..\..\arduinoLCD\test\Pain Drain\libraries\lvgl\src\core/lv_obj_style_gen.h **** 
 133:..\..\..\arduinoLCD\test\Pain Drain\libraries\lvgl\src\core/lv_obj_style_gen.h **** static inline lv_coord_t lv_obj_get_style_pad_column(const struct _lv_obj_t * obj, uint32_t part)
 134:..\..\..\arduinoLCD\test\Pain Drain\libraries\lvgl\src\core/lv_obj_style_gen.h **** {
 135:..\..\..\arduinoLCD\test\Pain Drain\libraries\lvgl\src\core/lv_obj_style_gen.h ****     lv_style_value_t v = lv_obj_get_style_prop(obj, part, LV_STYLE_PAD_COLUMN);
 136:..\..\..\arduinoLCD\test\Pain Drain\libraries\lvgl\src\core/lv_obj_style_gen.h ****     return (lv_coord_t)v.num;
 137:..\..\..\arduinoLCD\test\Pain Drain\libraries\lvgl\src\core/lv_obj_style_gen.h **** }
 138:..\..\..\arduinoLCD\test\Pain Drain\libraries\lvgl\src\core/lv_obj_style_gen.h **** 
 139:..\..\..\arduinoLCD\test\Pain Drain\libraries\lvgl\src\core/lv_obj_style_gen.h **** static inline lv_color_t lv_obj_get_style_bg_color(const struct _lv_obj_t * obj, uint32_t part)
 140:..\..\..\arduinoLCD\test\Pain Drain\libraries\lvgl\src\core/lv_obj_style_gen.h **** {
 141:..\..\..\arduinoLCD\test\Pain Drain\libraries\lvgl\src\core/lv_obj_style_gen.h ****     lv_style_value_t v = lv_obj_get_style_prop(obj, part, LV_STYLE_BG_COLOR);
 142:..\..\..\arduinoLCD\test\Pain Drain\libraries\lvgl\src\core/lv_obj_style_gen.h ****     return v.color;
 143:..\..\..\arduinoLCD\test\Pain Drain\libraries\lvgl\src\core/lv_obj_style_gen.h **** }
 144:..\..\..\arduinoLCD\test\Pain Drain\libraries\lvgl\src\core/lv_obj_style_gen.h **** 
 145:..\..\..\arduinoLCD\test\Pain Drain\libraries\lvgl\src\core/lv_obj_style_gen.h **** static inline lv_color_t lv_obj_get_style_bg_color_filtered(const struct _lv_obj_t * obj, uint32_t 
ARM GAS  C:\Users\haske\AppData\Local\Temp\ccFGDFhR.s 			page 27


 146:..\..\..\arduinoLCD\test\Pain Drain\libraries\lvgl\src\core/lv_obj_style_gen.h **** {
 147:..\..\..\arduinoLCD\test\Pain Drain\libraries\lvgl\src\core/lv_obj_style_gen.h ****     lv_style_value_t v = _lv_obj_style_apply_color_filter(obj, part, lv_obj_get_style_prop(obj, par
 148:..\..\..\arduinoLCD\test\Pain Drain\libraries\lvgl\src\core/lv_obj_style_gen.h ****     return v.color;
 149:..\..\..\arduinoLCD\test\Pain Drain\libraries\lvgl\src\core/lv_obj_style_gen.h **** }
 150:..\..\..\arduinoLCD\test\Pain Drain\libraries\lvgl\src\core/lv_obj_style_gen.h **** 
 151:..\..\..\arduinoLCD\test\Pain Drain\libraries\lvgl\src\core/lv_obj_style_gen.h **** static inline lv_opa_t lv_obj_get_style_bg_opa(const struct _lv_obj_t * obj, uint32_t part)
 152:..\..\..\arduinoLCD\test\Pain Drain\libraries\lvgl\src\core/lv_obj_style_gen.h **** {
 153:..\..\..\arduinoLCD\test\Pain Drain\libraries\lvgl\src\core/lv_obj_style_gen.h ****     lv_style_value_t v = lv_obj_get_style_prop(obj, part, LV_STYLE_BG_OPA);
 154:..\..\..\arduinoLCD\test\Pain Drain\libraries\lvgl\src\core/lv_obj_style_gen.h ****     return (lv_opa_t)v.num;
 155:..\..\..\arduinoLCD\test\Pain Drain\libraries\lvgl\src\core/lv_obj_style_gen.h **** }
 156:..\..\..\arduinoLCD\test\Pain Drain\libraries\lvgl\src\core/lv_obj_style_gen.h **** 
 157:..\..\..\arduinoLCD\test\Pain Drain\libraries\lvgl\src\core/lv_obj_style_gen.h **** static inline lv_color_t lv_obj_get_style_bg_grad_color(const struct _lv_obj_t * obj, uint32_t part
 158:..\..\..\arduinoLCD\test\Pain Drain\libraries\lvgl\src\core/lv_obj_style_gen.h **** {
 159:..\..\..\arduinoLCD\test\Pain Drain\libraries\lvgl\src\core/lv_obj_style_gen.h ****     lv_style_value_t v = lv_obj_get_style_prop(obj, part, LV_STYLE_BG_GRAD_COLOR);
 160:..\..\..\arduinoLCD\test\Pain Drain\libraries\lvgl\src\core/lv_obj_style_gen.h ****     return v.color;
 161:..\..\..\arduinoLCD\test\Pain Drain\libraries\lvgl\src\core/lv_obj_style_gen.h **** }
 162:..\..\..\arduinoLCD\test\Pain Drain\libraries\lvgl\src\core/lv_obj_style_gen.h **** 
 163:..\..\..\arduinoLCD\test\Pain Drain\libraries\lvgl\src\core/lv_obj_style_gen.h **** static inline lv_color_t lv_obj_get_style_bg_grad_color_filtered(const struct _lv_obj_t * obj, uint
 164:..\..\..\arduinoLCD\test\Pain Drain\libraries\lvgl\src\core/lv_obj_style_gen.h **** {
 165:..\..\..\arduinoLCD\test\Pain Drain\libraries\lvgl\src\core/lv_obj_style_gen.h ****     lv_style_value_t v = _lv_obj_style_apply_color_filter(obj, part, lv_obj_get_style_prop(obj, par
 166:..\..\..\arduinoLCD\test\Pain Drain\libraries\lvgl\src\core/lv_obj_style_gen.h ****     return v.color;
 167:..\..\..\arduinoLCD\test\Pain Drain\libraries\lvgl\src\core/lv_obj_style_gen.h **** }
 168:..\..\..\arduinoLCD\test\Pain Drain\libraries\lvgl\src\core/lv_obj_style_gen.h **** 
 169:..\..\..\arduinoLCD\test\Pain Drain\libraries\lvgl\src\core/lv_obj_style_gen.h **** static inline lv_grad_dir_t lv_obj_get_style_bg_grad_dir(const struct _lv_obj_t * obj, uint32_t par
 170:..\..\..\arduinoLCD\test\Pain Drain\libraries\lvgl\src\core/lv_obj_style_gen.h **** {
 171:..\..\..\arduinoLCD\test\Pain Drain\libraries\lvgl\src\core/lv_obj_style_gen.h ****     lv_style_value_t v = lv_obj_get_style_prop(obj, part, LV_STYLE_BG_GRAD_DIR);
 172:..\..\..\arduinoLCD\test\Pain Drain\libraries\lvgl\src\core/lv_obj_style_gen.h ****     return (lv_grad_dir_t)v.num;
 173:..\..\..\arduinoLCD\test\Pain Drain\libraries\lvgl\src\core/lv_obj_style_gen.h **** }
 174:..\..\..\arduinoLCD\test\Pain Drain\libraries\lvgl\src\core/lv_obj_style_gen.h **** 
 175:..\..\..\arduinoLCD\test\Pain Drain\libraries\lvgl\src\core/lv_obj_style_gen.h **** static inline lv_coord_t lv_obj_get_style_bg_main_stop(const struct _lv_obj_t * obj, uint32_t part)
 176:..\..\..\arduinoLCD\test\Pain Drain\libraries\lvgl\src\core/lv_obj_style_gen.h **** {
 177:..\..\..\arduinoLCD\test\Pain Drain\libraries\lvgl\src\core/lv_obj_style_gen.h ****     lv_style_value_t v = lv_obj_get_style_prop(obj, part, LV_STYLE_BG_MAIN_STOP);
 178:..\..\..\arduinoLCD\test\Pain Drain\libraries\lvgl\src\core/lv_obj_style_gen.h ****     return (lv_coord_t)v.num;
 179:..\..\..\arduinoLCD\test\Pain Drain\libraries\lvgl\src\core/lv_obj_style_gen.h **** }
 180:..\..\..\arduinoLCD\test\Pain Drain\libraries\lvgl\src\core/lv_obj_style_gen.h **** 
 181:..\..\..\arduinoLCD\test\Pain Drain\libraries\lvgl\src\core/lv_obj_style_gen.h **** static inline lv_coord_t lv_obj_get_style_bg_grad_stop(const struct _lv_obj_t * obj, uint32_t part)
 182:..\..\..\arduinoLCD\test\Pain Drain\libraries\lvgl\src\core/lv_obj_style_gen.h **** {
 183:..\..\..\arduinoLCD\test\Pain Drain\libraries\lvgl\src\core/lv_obj_style_gen.h ****     lv_style_value_t v = lv_obj_get_style_prop(obj, part, LV_STYLE_BG_GRAD_STOP);
 184:..\..\..\arduinoLCD\test\Pain Drain\libraries\lvgl\src\core/lv_obj_style_gen.h ****     return (lv_coord_t)v.num;
 185:..\..\..\arduinoLCD\test\Pain Drain\libraries\lvgl\src\core/lv_obj_style_gen.h **** }
 186:..\..\..\arduinoLCD\test\Pain Drain\libraries\lvgl\src\core/lv_obj_style_gen.h **** 
 187:..\..\..\arduinoLCD\test\Pain Drain\libraries\lvgl\src\core/lv_obj_style_gen.h **** static inline const lv_grad_dsc_t * lv_obj_get_style_bg_grad(const struct _lv_obj_t * obj, uint32_t
 188:..\..\..\arduinoLCD\test\Pain Drain\libraries\lvgl\src\core/lv_obj_style_gen.h **** {
 189:..\..\..\arduinoLCD\test\Pain Drain\libraries\lvgl\src\core/lv_obj_style_gen.h ****     lv_style_value_t v = lv_obj_get_style_prop(obj, part, LV_STYLE_BG_GRAD);
 190:..\..\..\arduinoLCD\test\Pain Drain\libraries\lvgl\src\core/lv_obj_style_gen.h ****     return (const lv_grad_dsc_t *)v.ptr;
 191:..\..\..\arduinoLCD\test\Pain Drain\libraries\lvgl\src\core/lv_obj_style_gen.h **** }
 192:..\..\..\arduinoLCD\test\Pain Drain\libraries\lvgl\src\core/lv_obj_style_gen.h **** 
 193:..\..\..\arduinoLCD\test\Pain Drain\libraries\lvgl\src\core/lv_obj_style_gen.h **** static inline lv_dither_mode_t lv_obj_get_style_bg_dither_mode(const struct _lv_obj_t * obj, uint32
 194:..\..\..\arduinoLCD\test\Pain Drain\libraries\lvgl\src\core/lv_obj_style_gen.h **** {
 195:..\..\..\arduinoLCD\test\Pain Drain\libraries\lvgl\src\core/lv_obj_style_gen.h ****     lv_style_value_t v = lv_obj_get_style_prop(obj, part, LV_STYLE_BG_DITHER_MODE);
 196:..\..\..\arduinoLCD\test\Pain Drain\libraries\lvgl\src\core/lv_obj_style_gen.h ****     return (lv_dither_mode_t)v.num;
 197:..\..\..\arduinoLCD\test\Pain Drain\libraries\lvgl\src\core/lv_obj_style_gen.h **** }
 198:..\..\..\arduinoLCD\test\Pain Drain\libraries\lvgl\src\core/lv_obj_style_gen.h **** 
 199:..\..\..\arduinoLCD\test\Pain Drain\libraries\lvgl\src\core/lv_obj_style_gen.h **** static inline const void * lv_obj_get_style_bg_img_src(const struct _lv_obj_t * obj, uint32_t part)
 200:..\..\..\arduinoLCD\test\Pain Drain\libraries\lvgl\src\core/lv_obj_style_gen.h **** {
 201:..\..\..\arduinoLCD\test\Pain Drain\libraries\lvgl\src\core/lv_obj_style_gen.h ****     lv_style_value_t v = lv_obj_get_style_prop(obj, part, LV_STYLE_BG_IMG_SRC);
 202:..\..\..\arduinoLCD\test\Pain Drain\libraries\lvgl\src\core/lv_obj_style_gen.h ****     return (const void *)v.ptr;
ARM GAS  C:\Users\haske\AppData\Local\Temp\ccFGDFhR.s 			page 28


 203:..\..\..\arduinoLCD\test\Pain Drain\libraries\lvgl\src\core/lv_obj_style_gen.h **** }
 204:..\..\..\arduinoLCD\test\Pain Drain\libraries\lvgl\src\core/lv_obj_style_gen.h **** 
 205:..\..\..\arduinoLCD\test\Pain Drain\libraries\lvgl\src\core/lv_obj_style_gen.h **** static inline lv_opa_t lv_obj_get_style_bg_img_opa(const struct _lv_obj_t * obj, uint32_t part)
 206:..\..\..\arduinoLCD\test\Pain Drain\libraries\lvgl\src\core/lv_obj_style_gen.h **** {
 207:..\..\..\arduinoLCD\test\Pain Drain\libraries\lvgl\src\core/lv_obj_style_gen.h ****     lv_style_value_t v = lv_obj_get_style_prop(obj, part, LV_STYLE_BG_IMG_OPA);
 208:..\..\..\arduinoLCD\test\Pain Drain\libraries\lvgl\src\core/lv_obj_style_gen.h ****     return (lv_opa_t)v.num;
 209:..\..\..\arduinoLCD\test\Pain Drain\libraries\lvgl\src\core/lv_obj_style_gen.h **** }
 210:..\..\..\arduinoLCD\test\Pain Drain\libraries\lvgl\src\core/lv_obj_style_gen.h **** 
 211:..\..\..\arduinoLCD\test\Pain Drain\libraries\lvgl\src\core/lv_obj_style_gen.h **** static inline lv_color_t lv_obj_get_style_bg_img_recolor(const struct _lv_obj_t * obj, uint32_t par
 212:..\..\..\arduinoLCD\test\Pain Drain\libraries\lvgl\src\core/lv_obj_style_gen.h **** {
 213:..\..\..\arduinoLCD\test\Pain Drain\libraries\lvgl\src\core/lv_obj_style_gen.h ****     lv_style_value_t v = lv_obj_get_style_prop(obj, part, LV_STYLE_BG_IMG_RECOLOR);
 214:..\..\..\arduinoLCD\test\Pain Drain\libraries\lvgl\src\core/lv_obj_style_gen.h ****     return v.color;
 215:..\..\..\arduinoLCD\test\Pain Drain\libraries\lvgl\src\core/lv_obj_style_gen.h **** }
 216:..\..\..\arduinoLCD\test\Pain Drain\libraries\lvgl\src\core/lv_obj_style_gen.h **** 
 217:..\..\..\arduinoLCD\test\Pain Drain\libraries\lvgl\src\core/lv_obj_style_gen.h **** static inline lv_color_t lv_obj_get_style_bg_img_recolor_filtered(const struct _lv_obj_t * obj, uin
 218:..\..\..\arduinoLCD\test\Pain Drain\libraries\lvgl\src\core/lv_obj_style_gen.h **** {
 219:..\..\..\arduinoLCD\test\Pain Drain\libraries\lvgl\src\core/lv_obj_style_gen.h ****     lv_style_value_t v = _lv_obj_style_apply_color_filter(obj, part, lv_obj_get_style_prop(obj, par
 220:..\..\..\arduinoLCD\test\Pain Drain\libraries\lvgl\src\core/lv_obj_style_gen.h ****     return v.color;
 221:..\..\..\arduinoLCD\test\Pain Drain\libraries\lvgl\src\core/lv_obj_style_gen.h **** }
 222:..\..\..\arduinoLCD\test\Pain Drain\libraries\lvgl\src\core/lv_obj_style_gen.h **** 
 223:..\..\..\arduinoLCD\test\Pain Drain\libraries\lvgl\src\core/lv_obj_style_gen.h **** static inline lv_opa_t lv_obj_get_style_bg_img_recolor_opa(const struct _lv_obj_t * obj, uint32_t p
 224:..\..\..\arduinoLCD\test\Pain Drain\libraries\lvgl\src\core/lv_obj_style_gen.h **** {
 225:..\..\..\arduinoLCD\test\Pain Drain\libraries\lvgl\src\core/lv_obj_style_gen.h ****     lv_style_value_t v = lv_obj_get_style_prop(obj, part, LV_STYLE_BG_IMG_RECOLOR_OPA);
 226:..\..\..\arduinoLCD\test\Pain Drain\libraries\lvgl\src\core/lv_obj_style_gen.h ****     return (lv_opa_t)v.num;
 227:..\..\..\arduinoLCD\test\Pain Drain\libraries\lvgl\src\core/lv_obj_style_gen.h **** }
 228:..\..\..\arduinoLCD\test\Pain Drain\libraries\lvgl\src\core/lv_obj_style_gen.h **** 
 229:..\..\..\arduinoLCD\test\Pain Drain\libraries\lvgl\src\core/lv_obj_style_gen.h **** static inline bool lv_obj_get_style_bg_img_tiled(const struct _lv_obj_t * obj, uint32_t part)
 230:..\..\..\arduinoLCD\test\Pain Drain\libraries\lvgl\src\core/lv_obj_style_gen.h **** {
 231:..\..\..\arduinoLCD\test\Pain Drain\libraries\lvgl\src\core/lv_obj_style_gen.h ****     lv_style_value_t v = lv_obj_get_style_prop(obj, part, LV_STYLE_BG_IMG_TILED);
 232:..\..\..\arduinoLCD\test\Pain Drain\libraries\lvgl\src\core/lv_obj_style_gen.h ****     return (bool)v.num;
 233:..\..\..\arduinoLCD\test\Pain Drain\libraries\lvgl\src\core/lv_obj_style_gen.h **** }
 234:..\..\..\arduinoLCD\test\Pain Drain\libraries\lvgl\src\core/lv_obj_style_gen.h **** 
 235:..\..\..\arduinoLCD\test\Pain Drain\libraries\lvgl\src\core/lv_obj_style_gen.h **** static inline lv_color_t lv_obj_get_style_border_color(const struct _lv_obj_t * obj, uint32_t part)
 236:..\..\..\arduinoLCD\test\Pain Drain\libraries\lvgl\src\core/lv_obj_style_gen.h **** {
 237:..\..\..\arduinoLCD\test\Pain Drain\libraries\lvgl\src\core/lv_obj_style_gen.h ****     lv_style_value_t v = lv_obj_get_style_prop(obj, part, LV_STYLE_BORDER_COLOR);
 238:..\..\..\arduinoLCD\test\Pain Drain\libraries\lvgl\src\core/lv_obj_style_gen.h ****     return v.color;
 239:..\..\..\arduinoLCD\test\Pain Drain\libraries\lvgl\src\core/lv_obj_style_gen.h **** }
 240:..\..\..\arduinoLCD\test\Pain Drain\libraries\lvgl\src\core/lv_obj_style_gen.h **** 
 241:..\..\..\arduinoLCD\test\Pain Drain\libraries\lvgl\src\core/lv_obj_style_gen.h **** static inline lv_color_t lv_obj_get_style_border_color_filtered(const struct _lv_obj_t * obj, uint3
 242:..\..\..\arduinoLCD\test\Pain Drain\libraries\lvgl\src\core/lv_obj_style_gen.h **** {
 243:..\..\..\arduinoLCD\test\Pain Drain\libraries\lvgl\src\core/lv_obj_style_gen.h ****     lv_style_value_t v = _lv_obj_style_apply_color_filter(obj, part, lv_obj_get_style_prop(obj, par
 244:..\..\..\arduinoLCD\test\Pain Drain\libraries\lvgl\src\core/lv_obj_style_gen.h ****     return v.color;
 245:..\..\..\arduinoLCD\test\Pain Drain\libraries\lvgl\src\core/lv_obj_style_gen.h **** }
 246:..\..\..\arduinoLCD\test\Pain Drain\libraries\lvgl\src\core/lv_obj_style_gen.h **** 
 247:..\..\..\arduinoLCD\test\Pain Drain\libraries\lvgl\src\core/lv_obj_style_gen.h **** static inline lv_opa_t lv_obj_get_style_border_opa(const struct _lv_obj_t * obj, uint32_t part)
 248:..\..\..\arduinoLCD\test\Pain Drain\libraries\lvgl\src\core/lv_obj_style_gen.h **** {
 249:..\..\..\arduinoLCD\test\Pain Drain\libraries\lvgl\src\core/lv_obj_style_gen.h ****     lv_style_value_t v = lv_obj_get_style_prop(obj, part, LV_STYLE_BORDER_OPA);
 250:..\..\..\arduinoLCD\test\Pain Drain\libraries\lvgl\src\core/lv_obj_style_gen.h ****     return (lv_opa_t)v.num;
 251:..\..\..\arduinoLCD\test\Pain Drain\libraries\lvgl\src\core/lv_obj_style_gen.h **** }
 252:..\..\..\arduinoLCD\test\Pain Drain\libraries\lvgl\src\core/lv_obj_style_gen.h **** 
 253:..\..\..\arduinoLCD\test\Pain Drain\libraries\lvgl\src\core/lv_obj_style_gen.h **** static inline lv_coord_t lv_obj_get_style_border_width(const struct _lv_obj_t * obj, uint32_t part)
 254:..\..\..\arduinoLCD\test\Pain Drain\libraries\lvgl\src\core/lv_obj_style_gen.h **** {
 255:..\..\..\arduinoLCD\test\Pain Drain\libraries\lvgl\src\core/lv_obj_style_gen.h ****     lv_style_value_t v = lv_obj_get_style_prop(obj, part, LV_STYLE_BORDER_WIDTH);
 589              		.loc 2 255 0
 590 0056 3222     		movs	r2, #50
 591 0058 0021     		movs	r1, #0
 592 005a 3800     		movs	r0, r7
ARM GAS  C:\Users\haske\AppData\Local\Temp\ccFGDFhR.s 			page 29


 593 005c FFF7FEFF 		bl	lv_obj_get_style_prop
 594              	.LVL60:
 595 0060 0400     		movs	r4, r0
 596              	.LVL61:
 597              	.LBE105:
 598              	.LBE104:
 151:..\..\..\arduinoLCD\test\Pain Drain\libraries\lvgl\src\core/lv_obj_scroll.c ****         child_res -= (obj->coords.y2 - pad_bottom - border_width);
 599              		.loc 1 151 0
 600 0062 124B     		ldr	r3, .L36
 601 0064 9E42     		cmp	r6, r3
 602 0066 05D0     		beq	.L34
 152:..\..\..\arduinoLCD\test\Pain Drain\libraries\lvgl\src\core/lv_obj_scroll.c ****     }
 603              		.loc 1 152 0
 604 0068 1A23     		movs	r3, #26
 605 006a FA5E     		ldrsh	r2, [r7, r3]
 606 006c AA1A     		subs	r2, r5, r2
 607 006e 1218     		adds	r2, r2, r0
 608 0070 9619     		adds	r6, r2, r6
 609              	.LVL62:
 610 0072 36B2     		sxth	r6, r6
 611              	.LVL63:
 612              	.L34:
 155:..\..\..\arduinoLCD\test\Pain Drain\libraries\lvgl\src\core/lv_obj_scroll.c ****     self_h = self_h - (lv_obj_get_height(obj) - pad_top - pad_bottom - 2 * border_width);
 613              		.loc 1 155 0
 614 0074 3800     		movs	r0, r7
 615 0076 FFF7FEFF 		bl	lv_obj_get_self_height
 616              	.LVL64:
 617 007a 8046     		mov	r8, r0
 618              	.LVL65:
 156:..\..\..\arduinoLCD\test\Pain Drain\libraries\lvgl\src\core/lv_obj_scroll.c ****     self_h -= lv_obj_get_scroll_y(obj);
 619              		.loc 1 156 0
 620 007c 3800     		movs	r0, r7
 621 007e FFF7FEFF 		bl	lv_obj_get_height
 622              	.LVL66:
 623 0082 4B46     		mov	r3, r9
 624 0084 181A     		subs	r0, r3, r0
 625 0086 4019     		adds	r0, r0, r5
 626 0088 6400     		lsls	r4, r4, #1
 627 008a 0419     		adds	r4, r0, r4
 628 008c 4444     		add	r4, r4, r8
 629 008e A4B2     		uxth	r4, r4
 630              	.LVL67:
 157:..\..\..\arduinoLCD\test\Pain Drain\libraries\lvgl\src\core/lv_obj_scroll.c ****     return LV_MAX(child_res, self_h);
 631              		.loc 1 157 0
 632 0090 3800     		movs	r0, r7
 633 0092 FFF7FEFF 		bl	lv_obj_get_scroll_y
 634              	.LVL68:
 635 0096 231A     		subs	r3, r4, r0
 636 0098 1BB2     		sxth	r3, r3
 637              	.LVL69:
 158:..\..\..\arduinoLCD\test\Pain Drain\libraries\lvgl\src\core/lv_obj_scroll.c **** }
 638              		.loc 1 158 0
 639 009a 301C     		adds	r0, r6, #0
 640 009c 9E42     		cmp	r6, r3
 641 009e 00DA     		bge	.L35
 642              	.LVL70:
 643 00a0 181C     		adds	r0, r3, #0
ARM GAS  C:\Users\haske\AppData\Local\Temp\ccFGDFhR.s 			page 30


 644              	.LVL71:
 645              	.L35:
 646 00a2 00B2     		sxth	r0, r0
 159:..\..\..\arduinoLCD\test\Pain Drain\libraries\lvgl\src\core/lv_obj_scroll.c **** 
 647              		.loc 1 159 0
 648              		@ sp needed
 649              	.LVL72:
 650              	.LVL73:
 651 00a4 0CBC     		pop	{r2, r3}
 652 00a6 9046     		mov	r8, r2
 653 00a8 9946     		mov	r9, r3
 654 00aa F8BD     		pop	{r3, r4, r5, r6, r7, pc}
 655              	.L37:
 656              		.align	2
 657              	.L36:
 658 00ac 01E0FFFF 		.word	-8191
 659 00b0 01000400 		.word	262145
 660              		.cfi_endproc
 661              	.LFE176:
 662              		.size	lv_obj_get_scroll_bottom, .-lv_obj_get_scroll_bottom
 663              		.section	.text.lv_obj_get_scroll_left,"ax",%progbits
 664              		.align	2
 665              		.global	lv_obj_get_scroll_left
 666              		.code	16
 667              		.thumb_func
 668              		.type	lv_obj_get_scroll_left, %function
 669              	lv_obj_get_scroll_left:
 670              	.LFB177:
 162:..\..\..\arduinoLCD\test\Pain Drain\libraries\lvgl\src\core/lv_obj_scroll.c ****     LV_ASSERT_OBJ(obj, MY_CLASS);
 671              		.loc 1 162 0
 672              		.cfi_startproc
 673              		@ args = 0, pretend = 0, frame = 0
 674              		@ frame_needed = 0, uses_anonymous_args = 0
 675              	.LVL74:
 676 0000 F8B5     		push	{r3, r4, r5, r6, r7, lr}
 677              		.cfi_def_cfa_offset 24
 678              		.cfi_offset 3, -24
 679              		.cfi_offset 4, -20
 680              		.cfi_offset 5, -16
 681              		.cfi_offset 6, -12
 682              		.cfi_offset 7, -8
 683              		.cfi_offset 14, -4
 684 0002 5F46     		mov	r7, fp
 685 0004 5646     		mov	r6, r10
 686 0006 4D46     		mov	r5, r9
 687 0008 4446     		mov	r4, r8
 688 000a F0B4     		push	{r4, r5, r6, r7}
 689              		.cfi_def_cfa_offset 40
 690              		.cfi_offset 8, -40
 691              		.cfi_offset 9, -36
 692              		.cfi_offset 10, -32
 693              		.cfi_offset 11, -28
 694 000c 0500     		movs	r5, r0
 695              	.LVL75:
 696              	.LBB106:
 697              	.LBB107:
 256:..\..\..\arduinoLCD\test\Pain Drain\libraries\lvgl\src\core/lv_obj_style_gen.h ****     return (lv_coord_t)v.num;
ARM GAS  C:\Users\haske\AppData\Local\Temp\ccFGDFhR.s 			page 31


 257:..\..\..\arduinoLCD\test\Pain Drain\libraries\lvgl\src\core/lv_obj_style_gen.h **** }
 258:..\..\..\arduinoLCD\test\Pain Drain\libraries\lvgl\src\core/lv_obj_style_gen.h **** 
 259:..\..\..\arduinoLCD\test\Pain Drain\libraries\lvgl\src\core/lv_obj_style_gen.h **** static inline lv_border_side_t lv_obj_get_style_border_side(const struct _lv_obj_t * obj, uint32_t 
 260:..\..\..\arduinoLCD\test\Pain Drain\libraries\lvgl\src\core/lv_obj_style_gen.h **** {
 261:..\..\..\arduinoLCD\test\Pain Drain\libraries\lvgl\src\core/lv_obj_style_gen.h ****     lv_style_value_t v = lv_obj_get_style_prop(obj, part, LV_STYLE_BORDER_SIDE);
 262:..\..\..\arduinoLCD\test\Pain Drain\libraries\lvgl\src\core/lv_obj_style_gen.h ****     return (lv_border_side_t)v.num;
 263:..\..\..\arduinoLCD\test\Pain Drain\libraries\lvgl\src\core/lv_obj_style_gen.h **** }
 264:..\..\..\arduinoLCD\test\Pain Drain\libraries\lvgl\src\core/lv_obj_style_gen.h **** 
 265:..\..\..\arduinoLCD\test\Pain Drain\libraries\lvgl\src\core/lv_obj_style_gen.h **** static inline bool lv_obj_get_style_border_post(const struct _lv_obj_t * obj, uint32_t part)
 266:..\..\..\arduinoLCD\test\Pain Drain\libraries\lvgl\src\core/lv_obj_style_gen.h **** {
 267:..\..\..\arduinoLCD\test\Pain Drain\libraries\lvgl\src\core/lv_obj_style_gen.h ****     lv_style_value_t v = lv_obj_get_style_prop(obj, part, LV_STYLE_BORDER_POST);
 268:..\..\..\arduinoLCD\test\Pain Drain\libraries\lvgl\src\core/lv_obj_style_gen.h ****     return (bool)v.num;
 269:..\..\..\arduinoLCD\test\Pain Drain\libraries\lvgl\src\core/lv_obj_style_gen.h **** }
 270:..\..\..\arduinoLCD\test\Pain Drain\libraries\lvgl\src\core/lv_obj_style_gen.h **** 
 271:..\..\..\arduinoLCD\test\Pain Drain\libraries\lvgl\src\core/lv_obj_style_gen.h **** static inline lv_coord_t lv_obj_get_style_outline_width(const struct _lv_obj_t * obj, uint32_t part
 272:..\..\..\arduinoLCD\test\Pain Drain\libraries\lvgl\src\core/lv_obj_style_gen.h **** {
 273:..\..\..\arduinoLCD\test\Pain Drain\libraries\lvgl\src\core/lv_obj_style_gen.h ****     lv_style_value_t v = lv_obj_get_style_prop(obj, part, LV_STYLE_OUTLINE_WIDTH);
 274:..\..\..\arduinoLCD\test\Pain Drain\libraries\lvgl\src\core/lv_obj_style_gen.h ****     return (lv_coord_t)v.num;
 275:..\..\..\arduinoLCD\test\Pain Drain\libraries\lvgl\src\core/lv_obj_style_gen.h **** }
 276:..\..\..\arduinoLCD\test\Pain Drain\libraries\lvgl\src\core/lv_obj_style_gen.h **** 
 277:..\..\..\arduinoLCD\test\Pain Drain\libraries\lvgl\src\core/lv_obj_style_gen.h **** static inline lv_color_t lv_obj_get_style_outline_color(const struct _lv_obj_t * obj, uint32_t part
 278:..\..\..\arduinoLCD\test\Pain Drain\libraries\lvgl\src\core/lv_obj_style_gen.h **** {
 279:..\..\..\arduinoLCD\test\Pain Drain\libraries\lvgl\src\core/lv_obj_style_gen.h ****     lv_style_value_t v = lv_obj_get_style_prop(obj, part, LV_STYLE_OUTLINE_COLOR);
 280:..\..\..\arduinoLCD\test\Pain Drain\libraries\lvgl\src\core/lv_obj_style_gen.h ****     return v.color;
 281:..\..\..\arduinoLCD\test\Pain Drain\libraries\lvgl\src\core/lv_obj_style_gen.h **** }
 282:..\..\..\arduinoLCD\test\Pain Drain\libraries\lvgl\src\core/lv_obj_style_gen.h **** 
 283:..\..\..\arduinoLCD\test\Pain Drain\libraries\lvgl\src\core/lv_obj_style_gen.h **** static inline lv_color_t lv_obj_get_style_outline_color_filtered(const struct _lv_obj_t * obj, uint
 284:..\..\..\arduinoLCD\test\Pain Drain\libraries\lvgl\src\core/lv_obj_style_gen.h **** {
 285:..\..\..\arduinoLCD\test\Pain Drain\libraries\lvgl\src\core/lv_obj_style_gen.h ****     lv_style_value_t v = _lv_obj_style_apply_color_filter(obj, part, lv_obj_get_style_prop(obj, par
 286:..\..\..\arduinoLCD\test\Pain Drain\libraries\lvgl\src\core/lv_obj_style_gen.h ****     return v.color;
 287:..\..\..\arduinoLCD\test\Pain Drain\libraries\lvgl\src\core/lv_obj_style_gen.h **** }
 288:..\..\..\arduinoLCD\test\Pain Drain\libraries\lvgl\src\core/lv_obj_style_gen.h **** 
 289:..\..\..\arduinoLCD\test\Pain Drain\libraries\lvgl\src\core/lv_obj_style_gen.h **** static inline lv_opa_t lv_obj_get_style_outline_opa(const struct _lv_obj_t * obj, uint32_t part)
 290:..\..\..\arduinoLCD\test\Pain Drain\libraries\lvgl\src\core/lv_obj_style_gen.h **** {
 291:..\..\..\arduinoLCD\test\Pain Drain\libraries\lvgl\src\core/lv_obj_style_gen.h ****     lv_style_value_t v = lv_obj_get_style_prop(obj, part, LV_STYLE_OUTLINE_OPA);
 292:..\..\..\arduinoLCD\test\Pain Drain\libraries\lvgl\src\core/lv_obj_style_gen.h ****     return (lv_opa_t)v.num;
 293:..\..\..\arduinoLCD\test\Pain Drain\libraries\lvgl\src\core/lv_obj_style_gen.h **** }
 294:..\..\..\arduinoLCD\test\Pain Drain\libraries\lvgl\src\core/lv_obj_style_gen.h **** 
 295:..\..\..\arduinoLCD\test\Pain Drain\libraries\lvgl\src\core/lv_obj_style_gen.h **** static inline lv_coord_t lv_obj_get_style_outline_pad(const struct _lv_obj_t * obj, uint32_t part)
 296:..\..\..\arduinoLCD\test\Pain Drain\libraries\lvgl\src\core/lv_obj_style_gen.h **** {
 297:..\..\..\arduinoLCD\test\Pain Drain\libraries\lvgl\src\core/lv_obj_style_gen.h ****     lv_style_value_t v = lv_obj_get_style_prop(obj, part, LV_STYLE_OUTLINE_PAD);
 298:..\..\..\arduinoLCD\test\Pain Drain\libraries\lvgl\src\core/lv_obj_style_gen.h ****     return (lv_coord_t)v.num;
 299:..\..\..\arduinoLCD\test\Pain Drain\libraries\lvgl\src\core/lv_obj_style_gen.h **** }
 300:..\..\..\arduinoLCD\test\Pain Drain\libraries\lvgl\src\core/lv_obj_style_gen.h **** 
 301:..\..\..\arduinoLCD\test\Pain Drain\libraries\lvgl\src\core/lv_obj_style_gen.h **** static inline lv_coord_t lv_obj_get_style_shadow_width(const struct _lv_obj_t * obj, uint32_t part)
 302:..\..\..\arduinoLCD\test\Pain Drain\libraries\lvgl\src\core/lv_obj_style_gen.h **** {
 303:..\..\..\arduinoLCD\test\Pain Drain\libraries\lvgl\src\core/lv_obj_style_gen.h ****     lv_style_value_t v = lv_obj_get_style_prop(obj, part, LV_STYLE_SHADOW_WIDTH);
 304:..\..\..\arduinoLCD\test\Pain Drain\libraries\lvgl\src\core/lv_obj_style_gen.h ****     return (lv_coord_t)v.num;
 305:..\..\..\arduinoLCD\test\Pain Drain\libraries\lvgl\src\core/lv_obj_style_gen.h **** }
 306:..\..\..\arduinoLCD\test\Pain Drain\libraries\lvgl\src\core/lv_obj_style_gen.h **** 
 307:..\..\..\arduinoLCD\test\Pain Drain\libraries\lvgl\src\core/lv_obj_style_gen.h **** static inline lv_coord_t lv_obj_get_style_shadow_ofs_x(const struct _lv_obj_t * obj, uint32_t part)
 308:..\..\..\arduinoLCD\test\Pain Drain\libraries\lvgl\src\core/lv_obj_style_gen.h **** {
 309:..\..\..\arduinoLCD\test\Pain Drain\libraries\lvgl\src\core/lv_obj_style_gen.h ****     lv_style_value_t v = lv_obj_get_style_prop(obj, part, LV_STYLE_SHADOW_OFS_X);
 310:..\..\..\arduinoLCD\test\Pain Drain\libraries\lvgl\src\core/lv_obj_style_gen.h ****     return (lv_coord_t)v.num;
 311:..\..\..\arduinoLCD\test\Pain Drain\libraries\lvgl\src\core/lv_obj_style_gen.h **** }
 312:..\..\..\arduinoLCD\test\Pain Drain\libraries\lvgl\src\core/lv_obj_style_gen.h **** 
 313:..\..\..\arduinoLCD\test\Pain Drain\libraries\lvgl\src\core/lv_obj_style_gen.h **** static inline lv_coord_t lv_obj_get_style_shadow_ofs_y(const struct _lv_obj_t * obj, uint32_t part)
ARM GAS  C:\Users\haske\AppData\Local\Temp\ccFGDFhR.s 			page 32


 314:..\..\..\arduinoLCD\test\Pain Drain\libraries\lvgl\src\core/lv_obj_style_gen.h **** {
 315:..\..\..\arduinoLCD\test\Pain Drain\libraries\lvgl\src\core/lv_obj_style_gen.h ****     lv_style_value_t v = lv_obj_get_style_prop(obj, part, LV_STYLE_SHADOW_OFS_Y);
 316:..\..\..\arduinoLCD\test\Pain Drain\libraries\lvgl\src\core/lv_obj_style_gen.h ****     return (lv_coord_t)v.num;
 317:..\..\..\arduinoLCD\test\Pain Drain\libraries\lvgl\src\core/lv_obj_style_gen.h **** }
 318:..\..\..\arduinoLCD\test\Pain Drain\libraries\lvgl\src\core/lv_obj_style_gen.h **** 
 319:..\..\..\arduinoLCD\test\Pain Drain\libraries\lvgl\src\core/lv_obj_style_gen.h **** static inline lv_coord_t lv_obj_get_style_shadow_spread(const struct _lv_obj_t * obj, uint32_t part
 320:..\..\..\arduinoLCD\test\Pain Drain\libraries\lvgl\src\core/lv_obj_style_gen.h **** {
 321:..\..\..\arduinoLCD\test\Pain Drain\libraries\lvgl\src\core/lv_obj_style_gen.h ****     lv_style_value_t v = lv_obj_get_style_prop(obj, part, LV_STYLE_SHADOW_SPREAD);
 322:..\..\..\arduinoLCD\test\Pain Drain\libraries\lvgl\src\core/lv_obj_style_gen.h ****     return (lv_coord_t)v.num;
 323:..\..\..\arduinoLCD\test\Pain Drain\libraries\lvgl\src\core/lv_obj_style_gen.h **** }
 324:..\..\..\arduinoLCD\test\Pain Drain\libraries\lvgl\src\core/lv_obj_style_gen.h **** 
 325:..\..\..\arduinoLCD\test\Pain Drain\libraries\lvgl\src\core/lv_obj_style_gen.h **** static inline lv_color_t lv_obj_get_style_shadow_color(const struct _lv_obj_t * obj, uint32_t part)
 326:..\..\..\arduinoLCD\test\Pain Drain\libraries\lvgl\src\core/lv_obj_style_gen.h **** {
 327:..\..\..\arduinoLCD\test\Pain Drain\libraries\lvgl\src\core/lv_obj_style_gen.h ****     lv_style_value_t v = lv_obj_get_style_prop(obj, part, LV_STYLE_SHADOW_COLOR);
 328:..\..\..\arduinoLCD\test\Pain Drain\libraries\lvgl\src\core/lv_obj_style_gen.h ****     return v.color;
 329:..\..\..\arduinoLCD\test\Pain Drain\libraries\lvgl\src\core/lv_obj_style_gen.h **** }
 330:..\..\..\arduinoLCD\test\Pain Drain\libraries\lvgl\src\core/lv_obj_style_gen.h **** 
 331:..\..\..\arduinoLCD\test\Pain Drain\libraries\lvgl\src\core/lv_obj_style_gen.h **** static inline lv_color_t lv_obj_get_style_shadow_color_filtered(const struct _lv_obj_t * obj, uint3
 332:..\..\..\arduinoLCD\test\Pain Drain\libraries\lvgl\src\core/lv_obj_style_gen.h **** {
 333:..\..\..\arduinoLCD\test\Pain Drain\libraries\lvgl\src\core/lv_obj_style_gen.h ****     lv_style_value_t v = _lv_obj_style_apply_color_filter(obj, part, lv_obj_get_style_prop(obj, par
 334:..\..\..\arduinoLCD\test\Pain Drain\libraries\lvgl\src\core/lv_obj_style_gen.h ****     return v.color;
 335:..\..\..\arduinoLCD\test\Pain Drain\libraries\lvgl\src\core/lv_obj_style_gen.h **** }
 336:..\..\..\arduinoLCD\test\Pain Drain\libraries\lvgl\src\core/lv_obj_style_gen.h **** 
 337:..\..\..\arduinoLCD\test\Pain Drain\libraries\lvgl\src\core/lv_obj_style_gen.h **** static inline lv_opa_t lv_obj_get_style_shadow_opa(const struct _lv_obj_t * obj, uint32_t part)
 338:..\..\..\arduinoLCD\test\Pain Drain\libraries\lvgl\src\core/lv_obj_style_gen.h **** {
 339:..\..\..\arduinoLCD\test\Pain Drain\libraries\lvgl\src\core/lv_obj_style_gen.h ****     lv_style_value_t v = lv_obj_get_style_prop(obj, part, LV_STYLE_SHADOW_OPA);
 340:..\..\..\arduinoLCD\test\Pain Drain\libraries\lvgl\src\core/lv_obj_style_gen.h ****     return (lv_opa_t)v.num;
 341:..\..\..\arduinoLCD\test\Pain Drain\libraries\lvgl\src\core/lv_obj_style_gen.h **** }
 342:..\..\..\arduinoLCD\test\Pain Drain\libraries\lvgl\src\core/lv_obj_style_gen.h **** 
 343:..\..\..\arduinoLCD\test\Pain Drain\libraries\lvgl\src\core/lv_obj_style_gen.h **** static inline lv_opa_t lv_obj_get_style_img_opa(const struct _lv_obj_t * obj, uint32_t part)
 344:..\..\..\arduinoLCD\test\Pain Drain\libraries\lvgl\src\core/lv_obj_style_gen.h **** {
 345:..\..\..\arduinoLCD\test\Pain Drain\libraries\lvgl\src\core/lv_obj_style_gen.h ****     lv_style_value_t v = lv_obj_get_style_prop(obj, part, LV_STYLE_IMG_OPA);
 346:..\..\..\arduinoLCD\test\Pain Drain\libraries\lvgl\src\core/lv_obj_style_gen.h ****     return (lv_opa_t)v.num;
 347:..\..\..\arduinoLCD\test\Pain Drain\libraries\lvgl\src\core/lv_obj_style_gen.h **** }
 348:..\..\..\arduinoLCD\test\Pain Drain\libraries\lvgl\src\core/lv_obj_style_gen.h **** 
 349:..\..\..\arduinoLCD\test\Pain Drain\libraries\lvgl\src\core/lv_obj_style_gen.h **** static inline lv_color_t lv_obj_get_style_img_recolor(const struct _lv_obj_t * obj, uint32_t part)
 350:..\..\..\arduinoLCD\test\Pain Drain\libraries\lvgl\src\core/lv_obj_style_gen.h **** {
 351:..\..\..\arduinoLCD\test\Pain Drain\libraries\lvgl\src\core/lv_obj_style_gen.h ****     lv_style_value_t v = lv_obj_get_style_prop(obj, part, LV_STYLE_IMG_RECOLOR);
 352:..\..\..\arduinoLCD\test\Pain Drain\libraries\lvgl\src\core/lv_obj_style_gen.h ****     return v.color;
 353:..\..\..\arduinoLCD\test\Pain Drain\libraries\lvgl\src\core/lv_obj_style_gen.h **** }
 354:..\..\..\arduinoLCD\test\Pain Drain\libraries\lvgl\src\core/lv_obj_style_gen.h **** 
 355:..\..\..\arduinoLCD\test\Pain Drain\libraries\lvgl\src\core/lv_obj_style_gen.h **** static inline lv_color_t lv_obj_get_style_img_recolor_filtered(const struct _lv_obj_t * obj, uint32
 356:..\..\..\arduinoLCD\test\Pain Drain\libraries\lvgl\src\core/lv_obj_style_gen.h **** {
 357:..\..\..\arduinoLCD\test\Pain Drain\libraries\lvgl\src\core/lv_obj_style_gen.h ****     lv_style_value_t v = _lv_obj_style_apply_color_filter(obj, part, lv_obj_get_style_prop(obj, par
 358:..\..\..\arduinoLCD\test\Pain Drain\libraries\lvgl\src\core/lv_obj_style_gen.h ****     return v.color;
 359:..\..\..\arduinoLCD\test\Pain Drain\libraries\lvgl\src\core/lv_obj_style_gen.h **** }
 360:..\..\..\arduinoLCD\test\Pain Drain\libraries\lvgl\src\core/lv_obj_style_gen.h **** 
 361:..\..\..\arduinoLCD\test\Pain Drain\libraries\lvgl\src\core/lv_obj_style_gen.h **** static inline lv_opa_t lv_obj_get_style_img_recolor_opa(const struct _lv_obj_t * obj, uint32_t part
 362:..\..\..\arduinoLCD\test\Pain Drain\libraries\lvgl\src\core/lv_obj_style_gen.h **** {
 363:..\..\..\arduinoLCD\test\Pain Drain\libraries\lvgl\src\core/lv_obj_style_gen.h ****     lv_style_value_t v = lv_obj_get_style_prop(obj, part, LV_STYLE_IMG_RECOLOR_OPA);
 364:..\..\..\arduinoLCD\test\Pain Drain\libraries\lvgl\src\core/lv_obj_style_gen.h ****     return (lv_opa_t)v.num;
 365:..\..\..\arduinoLCD\test\Pain Drain\libraries\lvgl\src\core/lv_obj_style_gen.h **** }
 366:..\..\..\arduinoLCD\test\Pain Drain\libraries\lvgl\src\core/lv_obj_style_gen.h **** 
 367:..\..\..\arduinoLCD\test\Pain Drain\libraries\lvgl\src\core/lv_obj_style_gen.h **** static inline lv_coord_t lv_obj_get_style_line_width(const struct _lv_obj_t * obj, uint32_t part)
 368:..\..\..\arduinoLCD\test\Pain Drain\libraries\lvgl\src\core/lv_obj_style_gen.h **** {
 369:..\..\..\arduinoLCD\test\Pain Drain\libraries\lvgl\src\core/lv_obj_style_gen.h ****     lv_style_value_t v = lv_obj_get_style_prop(obj, part, LV_STYLE_LINE_WIDTH);
 370:..\..\..\arduinoLCD\test\Pain Drain\libraries\lvgl\src\core/lv_obj_style_gen.h ****     return (lv_coord_t)v.num;
ARM GAS  C:\Users\haske\AppData\Local\Temp\ccFGDFhR.s 			page 33


 371:..\..\..\arduinoLCD\test\Pain Drain\libraries\lvgl\src\core/lv_obj_style_gen.h **** }
 372:..\..\..\arduinoLCD\test\Pain Drain\libraries\lvgl\src\core/lv_obj_style_gen.h **** 
 373:..\..\..\arduinoLCD\test\Pain Drain\libraries\lvgl\src\core/lv_obj_style_gen.h **** static inline lv_coord_t lv_obj_get_style_line_dash_width(const struct _lv_obj_t * obj, uint32_t pa
 374:..\..\..\arduinoLCD\test\Pain Drain\libraries\lvgl\src\core/lv_obj_style_gen.h **** {
 375:..\..\..\arduinoLCD\test\Pain Drain\libraries\lvgl\src\core/lv_obj_style_gen.h ****     lv_style_value_t v = lv_obj_get_style_prop(obj, part, LV_STYLE_LINE_DASH_WIDTH);
 376:..\..\..\arduinoLCD\test\Pain Drain\libraries\lvgl\src\core/lv_obj_style_gen.h ****     return (lv_coord_t)v.num;
 377:..\..\..\arduinoLCD\test\Pain Drain\libraries\lvgl\src\core/lv_obj_style_gen.h **** }
 378:..\..\..\arduinoLCD\test\Pain Drain\libraries\lvgl\src\core/lv_obj_style_gen.h **** 
 379:..\..\..\arduinoLCD\test\Pain Drain\libraries\lvgl\src\core/lv_obj_style_gen.h **** static inline lv_coord_t lv_obj_get_style_line_dash_gap(const struct _lv_obj_t * obj, uint32_t part
 380:..\..\..\arduinoLCD\test\Pain Drain\libraries\lvgl\src\core/lv_obj_style_gen.h **** {
 381:..\..\..\arduinoLCD\test\Pain Drain\libraries\lvgl\src\core/lv_obj_style_gen.h ****     lv_style_value_t v = lv_obj_get_style_prop(obj, part, LV_STYLE_LINE_DASH_GAP);
 382:..\..\..\arduinoLCD\test\Pain Drain\libraries\lvgl\src\core/lv_obj_style_gen.h ****     return (lv_coord_t)v.num;
 383:..\..\..\arduinoLCD\test\Pain Drain\libraries\lvgl\src\core/lv_obj_style_gen.h **** }
 384:..\..\..\arduinoLCD\test\Pain Drain\libraries\lvgl\src\core/lv_obj_style_gen.h **** 
 385:..\..\..\arduinoLCD\test\Pain Drain\libraries\lvgl\src\core/lv_obj_style_gen.h **** static inline bool lv_obj_get_style_line_rounded(const struct _lv_obj_t * obj, uint32_t part)
 386:..\..\..\arduinoLCD\test\Pain Drain\libraries\lvgl\src\core/lv_obj_style_gen.h **** {
 387:..\..\..\arduinoLCD\test\Pain Drain\libraries\lvgl\src\core/lv_obj_style_gen.h ****     lv_style_value_t v = lv_obj_get_style_prop(obj, part, LV_STYLE_LINE_ROUNDED);
 388:..\..\..\arduinoLCD\test\Pain Drain\libraries\lvgl\src\core/lv_obj_style_gen.h ****     return (bool)v.num;
 389:..\..\..\arduinoLCD\test\Pain Drain\libraries\lvgl\src\core/lv_obj_style_gen.h **** }
 390:..\..\..\arduinoLCD\test\Pain Drain\libraries\lvgl\src\core/lv_obj_style_gen.h **** 
 391:..\..\..\arduinoLCD\test\Pain Drain\libraries\lvgl\src\core/lv_obj_style_gen.h **** static inline lv_color_t lv_obj_get_style_line_color(const struct _lv_obj_t * obj, uint32_t part)
 392:..\..\..\arduinoLCD\test\Pain Drain\libraries\lvgl\src\core/lv_obj_style_gen.h **** {
 393:..\..\..\arduinoLCD\test\Pain Drain\libraries\lvgl\src\core/lv_obj_style_gen.h ****     lv_style_value_t v = lv_obj_get_style_prop(obj, part, LV_STYLE_LINE_COLOR);
 394:..\..\..\arduinoLCD\test\Pain Drain\libraries\lvgl\src\core/lv_obj_style_gen.h ****     return v.color;
 395:..\..\..\arduinoLCD\test\Pain Drain\libraries\lvgl\src\core/lv_obj_style_gen.h **** }
 396:..\..\..\arduinoLCD\test\Pain Drain\libraries\lvgl\src\core/lv_obj_style_gen.h **** 
 397:..\..\..\arduinoLCD\test\Pain Drain\libraries\lvgl\src\core/lv_obj_style_gen.h **** static inline lv_color_t lv_obj_get_style_line_color_filtered(const struct _lv_obj_t * obj, uint32_
 398:..\..\..\arduinoLCD\test\Pain Drain\libraries\lvgl\src\core/lv_obj_style_gen.h **** {
 399:..\..\..\arduinoLCD\test\Pain Drain\libraries\lvgl\src\core/lv_obj_style_gen.h ****     lv_style_value_t v = _lv_obj_style_apply_color_filter(obj, part, lv_obj_get_style_prop(obj, par
 400:..\..\..\arduinoLCD\test\Pain Drain\libraries\lvgl\src\core/lv_obj_style_gen.h ****     return v.color;
 401:..\..\..\arduinoLCD\test\Pain Drain\libraries\lvgl\src\core/lv_obj_style_gen.h **** }
 402:..\..\..\arduinoLCD\test\Pain Drain\libraries\lvgl\src\core/lv_obj_style_gen.h **** 
 403:..\..\..\arduinoLCD\test\Pain Drain\libraries\lvgl\src\core/lv_obj_style_gen.h **** static inline lv_opa_t lv_obj_get_style_line_opa(const struct _lv_obj_t * obj, uint32_t part)
 404:..\..\..\arduinoLCD\test\Pain Drain\libraries\lvgl\src\core/lv_obj_style_gen.h **** {
 405:..\..\..\arduinoLCD\test\Pain Drain\libraries\lvgl\src\core/lv_obj_style_gen.h ****     lv_style_value_t v = lv_obj_get_style_prop(obj, part, LV_STYLE_LINE_OPA);
 406:..\..\..\arduinoLCD\test\Pain Drain\libraries\lvgl\src\core/lv_obj_style_gen.h ****     return (lv_opa_t)v.num;
 407:..\..\..\arduinoLCD\test\Pain Drain\libraries\lvgl\src\core/lv_obj_style_gen.h **** }
 408:..\..\..\arduinoLCD\test\Pain Drain\libraries\lvgl\src\core/lv_obj_style_gen.h **** 
 409:..\..\..\arduinoLCD\test\Pain Drain\libraries\lvgl\src\core/lv_obj_style_gen.h **** static inline lv_coord_t lv_obj_get_style_arc_width(const struct _lv_obj_t * obj, uint32_t part)
 410:..\..\..\arduinoLCD\test\Pain Drain\libraries\lvgl\src\core/lv_obj_style_gen.h **** {
 411:..\..\..\arduinoLCD\test\Pain Drain\libraries\lvgl\src\core/lv_obj_style_gen.h ****     lv_style_value_t v = lv_obj_get_style_prop(obj, part, LV_STYLE_ARC_WIDTH);
 412:..\..\..\arduinoLCD\test\Pain Drain\libraries\lvgl\src\core/lv_obj_style_gen.h ****     return (lv_coord_t)v.num;
 413:..\..\..\arduinoLCD\test\Pain Drain\libraries\lvgl\src\core/lv_obj_style_gen.h **** }
 414:..\..\..\arduinoLCD\test\Pain Drain\libraries\lvgl\src\core/lv_obj_style_gen.h **** 
 415:..\..\..\arduinoLCD\test\Pain Drain\libraries\lvgl\src\core/lv_obj_style_gen.h **** static inline bool lv_obj_get_style_arc_rounded(const struct _lv_obj_t * obj, uint32_t part)
 416:..\..\..\arduinoLCD\test\Pain Drain\libraries\lvgl\src\core/lv_obj_style_gen.h **** {
 417:..\..\..\arduinoLCD\test\Pain Drain\libraries\lvgl\src\core/lv_obj_style_gen.h ****     lv_style_value_t v = lv_obj_get_style_prop(obj, part, LV_STYLE_ARC_ROUNDED);
 418:..\..\..\arduinoLCD\test\Pain Drain\libraries\lvgl\src\core/lv_obj_style_gen.h ****     return (bool)v.num;
 419:..\..\..\arduinoLCD\test\Pain Drain\libraries\lvgl\src\core/lv_obj_style_gen.h **** }
 420:..\..\..\arduinoLCD\test\Pain Drain\libraries\lvgl\src\core/lv_obj_style_gen.h **** 
 421:..\..\..\arduinoLCD\test\Pain Drain\libraries\lvgl\src\core/lv_obj_style_gen.h **** static inline lv_color_t lv_obj_get_style_arc_color(const struct _lv_obj_t * obj, uint32_t part)
 422:..\..\..\arduinoLCD\test\Pain Drain\libraries\lvgl\src\core/lv_obj_style_gen.h **** {
 423:..\..\..\arduinoLCD\test\Pain Drain\libraries\lvgl\src\core/lv_obj_style_gen.h ****     lv_style_value_t v = lv_obj_get_style_prop(obj, part, LV_STYLE_ARC_COLOR);
 424:..\..\..\arduinoLCD\test\Pain Drain\libraries\lvgl\src\core/lv_obj_style_gen.h ****     return v.color;
 425:..\..\..\arduinoLCD\test\Pain Drain\libraries\lvgl\src\core/lv_obj_style_gen.h **** }
 426:..\..\..\arduinoLCD\test\Pain Drain\libraries\lvgl\src\core/lv_obj_style_gen.h **** 
 427:..\..\..\arduinoLCD\test\Pain Drain\libraries\lvgl\src\core/lv_obj_style_gen.h **** static inline lv_color_t lv_obj_get_style_arc_color_filtered(const struct _lv_obj_t * obj, uint32_t
ARM GAS  C:\Users\haske\AppData\Local\Temp\ccFGDFhR.s 			page 34


 428:..\..\..\arduinoLCD\test\Pain Drain\libraries\lvgl\src\core/lv_obj_style_gen.h **** {
 429:..\..\..\arduinoLCD\test\Pain Drain\libraries\lvgl\src\core/lv_obj_style_gen.h ****     lv_style_value_t v = _lv_obj_style_apply_color_filter(obj, part, lv_obj_get_style_prop(obj, par
 430:..\..\..\arduinoLCD\test\Pain Drain\libraries\lvgl\src\core/lv_obj_style_gen.h ****     return v.color;
 431:..\..\..\arduinoLCD\test\Pain Drain\libraries\lvgl\src\core/lv_obj_style_gen.h **** }
 432:..\..\..\arduinoLCD\test\Pain Drain\libraries\lvgl\src\core/lv_obj_style_gen.h **** 
 433:..\..\..\arduinoLCD\test\Pain Drain\libraries\lvgl\src\core/lv_obj_style_gen.h **** static inline lv_opa_t lv_obj_get_style_arc_opa(const struct _lv_obj_t * obj, uint32_t part)
 434:..\..\..\arduinoLCD\test\Pain Drain\libraries\lvgl\src\core/lv_obj_style_gen.h **** {
 435:..\..\..\arduinoLCD\test\Pain Drain\libraries\lvgl\src\core/lv_obj_style_gen.h ****     lv_style_value_t v = lv_obj_get_style_prop(obj, part, LV_STYLE_ARC_OPA);
 436:..\..\..\arduinoLCD\test\Pain Drain\libraries\lvgl\src\core/lv_obj_style_gen.h ****     return (lv_opa_t)v.num;
 437:..\..\..\arduinoLCD\test\Pain Drain\libraries\lvgl\src\core/lv_obj_style_gen.h **** }
 438:..\..\..\arduinoLCD\test\Pain Drain\libraries\lvgl\src\core/lv_obj_style_gen.h **** 
 439:..\..\..\arduinoLCD\test\Pain Drain\libraries\lvgl\src\core/lv_obj_style_gen.h **** static inline const void * lv_obj_get_style_arc_img_src(const struct _lv_obj_t * obj, uint32_t part
 440:..\..\..\arduinoLCD\test\Pain Drain\libraries\lvgl\src\core/lv_obj_style_gen.h **** {
 441:..\..\..\arduinoLCD\test\Pain Drain\libraries\lvgl\src\core/lv_obj_style_gen.h ****     lv_style_value_t v = lv_obj_get_style_prop(obj, part, LV_STYLE_ARC_IMG_SRC);
 442:..\..\..\arduinoLCD\test\Pain Drain\libraries\lvgl\src\core/lv_obj_style_gen.h ****     return (const void *)v.ptr;
 443:..\..\..\arduinoLCD\test\Pain Drain\libraries\lvgl\src\core/lv_obj_style_gen.h **** }
 444:..\..\..\arduinoLCD\test\Pain Drain\libraries\lvgl\src\core/lv_obj_style_gen.h **** 
 445:..\..\..\arduinoLCD\test\Pain Drain\libraries\lvgl\src\core/lv_obj_style_gen.h **** static inline lv_color_t lv_obj_get_style_text_color(const struct _lv_obj_t * obj, uint32_t part)
 446:..\..\..\arduinoLCD\test\Pain Drain\libraries\lvgl\src\core/lv_obj_style_gen.h **** {
 447:..\..\..\arduinoLCD\test\Pain Drain\libraries\lvgl\src\core/lv_obj_style_gen.h ****     lv_style_value_t v = lv_obj_get_style_prop(obj, part, LV_STYLE_TEXT_COLOR);
 448:..\..\..\arduinoLCD\test\Pain Drain\libraries\lvgl\src\core/lv_obj_style_gen.h ****     return v.color;
 449:..\..\..\arduinoLCD\test\Pain Drain\libraries\lvgl\src\core/lv_obj_style_gen.h **** }
 450:..\..\..\arduinoLCD\test\Pain Drain\libraries\lvgl\src\core/lv_obj_style_gen.h **** 
 451:..\..\..\arduinoLCD\test\Pain Drain\libraries\lvgl\src\core/lv_obj_style_gen.h **** static inline lv_color_t lv_obj_get_style_text_color_filtered(const struct _lv_obj_t * obj, uint32_
 452:..\..\..\arduinoLCD\test\Pain Drain\libraries\lvgl\src\core/lv_obj_style_gen.h **** {
 453:..\..\..\arduinoLCD\test\Pain Drain\libraries\lvgl\src\core/lv_obj_style_gen.h ****     lv_style_value_t v = _lv_obj_style_apply_color_filter(obj, part, lv_obj_get_style_prop(obj, par
 454:..\..\..\arduinoLCD\test\Pain Drain\libraries\lvgl\src\core/lv_obj_style_gen.h ****     return v.color;
 455:..\..\..\arduinoLCD\test\Pain Drain\libraries\lvgl\src\core/lv_obj_style_gen.h **** }
 456:..\..\..\arduinoLCD\test\Pain Drain\libraries\lvgl\src\core/lv_obj_style_gen.h **** 
 457:..\..\..\arduinoLCD\test\Pain Drain\libraries\lvgl\src\core/lv_obj_style_gen.h **** static inline lv_opa_t lv_obj_get_style_text_opa(const struct _lv_obj_t * obj, uint32_t part)
 458:..\..\..\arduinoLCD\test\Pain Drain\libraries\lvgl\src\core/lv_obj_style_gen.h **** {
 459:..\..\..\arduinoLCD\test\Pain Drain\libraries\lvgl\src\core/lv_obj_style_gen.h ****     lv_style_value_t v = lv_obj_get_style_prop(obj, part, LV_STYLE_TEXT_OPA);
 460:..\..\..\arduinoLCD\test\Pain Drain\libraries\lvgl\src\core/lv_obj_style_gen.h ****     return (lv_opa_t)v.num;
 461:..\..\..\arduinoLCD\test\Pain Drain\libraries\lvgl\src\core/lv_obj_style_gen.h **** }
 462:..\..\..\arduinoLCD\test\Pain Drain\libraries\lvgl\src\core/lv_obj_style_gen.h **** 
 463:..\..\..\arduinoLCD\test\Pain Drain\libraries\lvgl\src\core/lv_obj_style_gen.h **** static inline const lv_font_t * lv_obj_get_style_text_font(const struct _lv_obj_t * obj, uint32_t p
 464:..\..\..\arduinoLCD\test\Pain Drain\libraries\lvgl\src\core/lv_obj_style_gen.h **** {
 465:..\..\..\arduinoLCD\test\Pain Drain\libraries\lvgl\src\core/lv_obj_style_gen.h ****     lv_style_value_t v = lv_obj_get_style_prop(obj, part, LV_STYLE_TEXT_FONT);
 466:..\..\..\arduinoLCD\test\Pain Drain\libraries\lvgl\src\core/lv_obj_style_gen.h ****     return (const lv_font_t *)v.ptr;
 467:..\..\..\arduinoLCD\test\Pain Drain\libraries\lvgl\src\core/lv_obj_style_gen.h **** }
 468:..\..\..\arduinoLCD\test\Pain Drain\libraries\lvgl\src\core/lv_obj_style_gen.h **** 
 469:..\..\..\arduinoLCD\test\Pain Drain\libraries\lvgl\src\core/lv_obj_style_gen.h **** static inline lv_coord_t lv_obj_get_style_text_letter_space(const struct _lv_obj_t * obj, uint32_t 
 470:..\..\..\arduinoLCD\test\Pain Drain\libraries\lvgl\src\core/lv_obj_style_gen.h **** {
 471:..\..\..\arduinoLCD\test\Pain Drain\libraries\lvgl\src\core/lv_obj_style_gen.h ****     lv_style_value_t v = lv_obj_get_style_prop(obj, part, LV_STYLE_TEXT_LETTER_SPACE);
 472:..\..\..\arduinoLCD\test\Pain Drain\libraries\lvgl\src\core/lv_obj_style_gen.h ****     return (lv_coord_t)v.num;
 473:..\..\..\arduinoLCD\test\Pain Drain\libraries\lvgl\src\core/lv_obj_style_gen.h **** }
 474:..\..\..\arduinoLCD\test\Pain Drain\libraries\lvgl\src\core/lv_obj_style_gen.h **** 
 475:..\..\..\arduinoLCD\test\Pain Drain\libraries\lvgl\src\core/lv_obj_style_gen.h **** static inline lv_coord_t lv_obj_get_style_text_line_space(const struct _lv_obj_t * obj, uint32_t pa
 476:..\..\..\arduinoLCD\test\Pain Drain\libraries\lvgl\src\core/lv_obj_style_gen.h **** {
 477:..\..\..\arduinoLCD\test\Pain Drain\libraries\lvgl\src\core/lv_obj_style_gen.h ****     lv_style_value_t v = lv_obj_get_style_prop(obj, part, LV_STYLE_TEXT_LINE_SPACE);
 478:..\..\..\arduinoLCD\test\Pain Drain\libraries\lvgl\src\core/lv_obj_style_gen.h ****     return (lv_coord_t)v.num;
 479:..\..\..\arduinoLCD\test\Pain Drain\libraries\lvgl\src\core/lv_obj_style_gen.h **** }
 480:..\..\..\arduinoLCD\test\Pain Drain\libraries\lvgl\src\core/lv_obj_style_gen.h **** 
 481:..\..\..\arduinoLCD\test\Pain Drain\libraries\lvgl\src\core/lv_obj_style_gen.h **** static inline lv_text_decor_t lv_obj_get_style_text_decor(const struct _lv_obj_t * obj, uint32_t pa
 482:..\..\..\arduinoLCD\test\Pain Drain\libraries\lvgl\src\core/lv_obj_style_gen.h **** {
 483:..\..\..\arduinoLCD\test\Pain Drain\libraries\lvgl\src\core/lv_obj_style_gen.h ****     lv_style_value_t v = lv_obj_get_style_prop(obj, part, LV_STYLE_TEXT_DECOR);
 484:..\..\..\arduinoLCD\test\Pain Drain\libraries\lvgl\src\core/lv_obj_style_gen.h ****     return (lv_text_decor_t)v.num;
ARM GAS  C:\Users\haske\AppData\Local\Temp\ccFGDFhR.s 			page 35


 485:..\..\..\arduinoLCD\test\Pain Drain\libraries\lvgl\src\core/lv_obj_style_gen.h **** }
 486:..\..\..\arduinoLCD\test\Pain Drain\libraries\lvgl\src\core/lv_obj_style_gen.h **** 
 487:..\..\..\arduinoLCD\test\Pain Drain\libraries\lvgl\src\core/lv_obj_style_gen.h **** static inline lv_text_align_t lv_obj_get_style_text_align(const struct _lv_obj_t * obj, uint32_t pa
 488:..\..\..\arduinoLCD\test\Pain Drain\libraries\lvgl\src\core/lv_obj_style_gen.h **** {
 489:..\..\..\arduinoLCD\test\Pain Drain\libraries\lvgl\src\core/lv_obj_style_gen.h ****     lv_style_value_t v = lv_obj_get_style_prop(obj, part, LV_STYLE_TEXT_ALIGN);
 490:..\..\..\arduinoLCD\test\Pain Drain\libraries\lvgl\src\core/lv_obj_style_gen.h ****     return (lv_text_align_t)v.num;
 491:..\..\..\arduinoLCD\test\Pain Drain\libraries\lvgl\src\core/lv_obj_style_gen.h **** }
 492:..\..\..\arduinoLCD\test\Pain Drain\libraries\lvgl\src\core/lv_obj_style_gen.h **** 
 493:..\..\..\arduinoLCD\test\Pain Drain\libraries\lvgl\src\core/lv_obj_style_gen.h **** static inline lv_coord_t lv_obj_get_style_radius(const struct _lv_obj_t * obj, uint32_t part)
 494:..\..\..\arduinoLCD\test\Pain Drain\libraries\lvgl\src\core/lv_obj_style_gen.h **** {
 495:..\..\..\arduinoLCD\test\Pain Drain\libraries\lvgl\src\core/lv_obj_style_gen.h ****     lv_style_value_t v = lv_obj_get_style_prop(obj, part, LV_STYLE_RADIUS);
 496:..\..\..\arduinoLCD\test\Pain Drain\libraries\lvgl\src\core/lv_obj_style_gen.h ****     return (lv_coord_t)v.num;
 497:..\..\..\arduinoLCD\test\Pain Drain\libraries\lvgl\src\core/lv_obj_style_gen.h **** }
 498:..\..\..\arduinoLCD\test\Pain Drain\libraries\lvgl\src\core/lv_obj_style_gen.h **** 
 499:..\..\..\arduinoLCD\test\Pain Drain\libraries\lvgl\src\core/lv_obj_style_gen.h **** static inline bool lv_obj_get_style_clip_corner(const struct _lv_obj_t * obj, uint32_t part)
 500:..\..\..\arduinoLCD\test\Pain Drain\libraries\lvgl\src\core/lv_obj_style_gen.h **** {
 501:..\..\..\arduinoLCD\test\Pain Drain\libraries\lvgl\src\core/lv_obj_style_gen.h ****     lv_style_value_t v = lv_obj_get_style_prop(obj, part, LV_STYLE_CLIP_CORNER);
 502:..\..\..\arduinoLCD\test\Pain Drain\libraries\lvgl\src\core/lv_obj_style_gen.h ****     return (bool)v.num;
 503:..\..\..\arduinoLCD\test\Pain Drain\libraries\lvgl\src\core/lv_obj_style_gen.h **** }
 504:..\..\..\arduinoLCD\test\Pain Drain\libraries\lvgl\src\core/lv_obj_style_gen.h **** 
 505:..\..\..\arduinoLCD\test\Pain Drain\libraries\lvgl\src\core/lv_obj_style_gen.h **** static inline lv_opa_t lv_obj_get_style_opa(const struct _lv_obj_t * obj, uint32_t part)
 506:..\..\..\arduinoLCD\test\Pain Drain\libraries\lvgl\src\core/lv_obj_style_gen.h **** {
 507:..\..\..\arduinoLCD\test\Pain Drain\libraries\lvgl\src\core/lv_obj_style_gen.h ****     lv_style_value_t v = lv_obj_get_style_prop(obj, part, LV_STYLE_OPA);
 508:..\..\..\arduinoLCD\test\Pain Drain\libraries\lvgl\src\core/lv_obj_style_gen.h ****     return (lv_opa_t)v.num;
 509:..\..\..\arduinoLCD\test\Pain Drain\libraries\lvgl\src\core/lv_obj_style_gen.h **** }
 510:..\..\..\arduinoLCD\test\Pain Drain\libraries\lvgl\src\core/lv_obj_style_gen.h **** 
 511:..\..\..\arduinoLCD\test\Pain Drain\libraries\lvgl\src\core/lv_obj_style_gen.h **** static inline const lv_color_filter_dsc_t * lv_obj_get_style_color_filter_dsc(const struct _lv_obj_
 512:..\..\..\arduinoLCD\test\Pain Drain\libraries\lvgl\src\core/lv_obj_style_gen.h **** {
 513:..\..\..\arduinoLCD\test\Pain Drain\libraries\lvgl\src\core/lv_obj_style_gen.h ****     lv_style_value_t v = lv_obj_get_style_prop(obj, part, LV_STYLE_COLOR_FILTER_DSC);
 514:..\..\..\arduinoLCD\test\Pain Drain\libraries\lvgl\src\core/lv_obj_style_gen.h ****     return (const lv_color_filter_dsc_t *)v.ptr;
 515:..\..\..\arduinoLCD\test\Pain Drain\libraries\lvgl\src\core/lv_obj_style_gen.h **** }
 516:..\..\..\arduinoLCD\test\Pain Drain\libraries\lvgl\src\core/lv_obj_style_gen.h **** 
 517:..\..\..\arduinoLCD\test\Pain Drain\libraries\lvgl\src\core/lv_obj_style_gen.h **** static inline lv_opa_t lv_obj_get_style_color_filter_opa(const struct _lv_obj_t * obj, uint32_t par
 518:..\..\..\arduinoLCD\test\Pain Drain\libraries\lvgl\src\core/lv_obj_style_gen.h **** {
 519:..\..\..\arduinoLCD\test\Pain Drain\libraries\lvgl\src\core/lv_obj_style_gen.h ****     lv_style_value_t v = lv_obj_get_style_prop(obj, part, LV_STYLE_COLOR_FILTER_OPA);
 520:..\..\..\arduinoLCD\test\Pain Drain\libraries\lvgl\src\core/lv_obj_style_gen.h ****     return (lv_opa_t)v.num;
 521:..\..\..\arduinoLCD\test\Pain Drain\libraries\lvgl\src\core/lv_obj_style_gen.h **** }
 522:..\..\..\arduinoLCD\test\Pain Drain\libraries\lvgl\src\core/lv_obj_style_gen.h **** 
 523:..\..\..\arduinoLCD\test\Pain Drain\libraries\lvgl\src\core/lv_obj_style_gen.h **** static inline const lv_anim_t * lv_obj_get_style_anim(const struct _lv_obj_t * obj, uint32_t part)
 524:..\..\..\arduinoLCD\test\Pain Drain\libraries\lvgl\src\core/lv_obj_style_gen.h **** {
 525:..\..\..\arduinoLCD\test\Pain Drain\libraries\lvgl\src\core/lv_obj_style_gen.h ****     lv_style_value_t v = lv_obj_get_style_prop(obj, part, LV_STYLE_ANIM);
 526:..\..\..\arduinoLCD\test\Pain Drain\libraries\lvgl\src\core/lv_obj_style_gen.h ****     return (const lv_anim_t *)v.ptr;
 527:..\..\..\arduinoLCD\test\Pain Drain\libraries\lvgl\src\core/lv_obj_style_gen.h **** }
 528:..\..\..\arduinoLCD\test\Pain Drain\libraries\lvgl\src\core/lv_obj_style_gen.h **** 
 529:..\..\..\arduinoLCD\test\Pain Drain\libraries\lvgl\src\core/lv_obj_style_gen.h **** static inline uint32_t lv_obj_get_style_anim_time(const struct _lv_obj_t * obj, uint32_t part)
 530:..\..\..\arduinoLCD\test\Pain Drain\libraries\lvgl\src\core/lv_obj_style_gen.h **** {
 531:..\..\..\arduinoLCD\test\Pain Drain\libraries\lvgl\src\core/lv_obj_style_gen.h ****     lv_style_value_t v = lv_obj_get_style_prop(obj, part, LV_STYLE_ANIM_TIME);
 532:..\..\..\arduinoLCD\test\Pain Drain\libraries\lvgl\src\core/lv_obj_style_gen.h ****     return (uint32_t)v.num;
 533:..\..\..\arduinoLCD\test\Pain Drain\libraries\lvgl\src\core/lv_obj_style_gen.h **** }
 534:..\..\..\arduinoLCD\test\Pain Drain\libraries\lvgl\src\core/lv_obj_style_gen.h **** 
 535:..\..\..\arduinoLCD\test\Pain Drain\libraries\lvgl\src\core/lv_obj_style_gen.h **** static inline uint32_t lv_obj_get_style_anim_speed(const struct _lv_obj_t * obj, uint32_t part)
 536:..\..\..\arduinoLCD\test\Pain Drain\libraries\lvgl\src\core/lv_obj_style_gen.h **** {
 537:..\..\..\arduinoLCD\test\Pain Drain\libraries\lvgl\src\core/lv_obj_style_gen.h ****     lv_style_value_t v = lv_obj_get_style_prop(obj, part, LV_STYLE_ANIM_SPEED);
 538:..\..\..\arduinoLCD\test\Pain Drain\libraries\lvgl\src\core/lv_obj_style_gen.h ****     return (uint32_t)v.num;
 539:..\..\..\arduinoLCD\test\Pain Drain\libraries\lvgl\src\core/lv_obj_style_gen.h **** }
 540:..\..\..\arduinoLCD\test\Pain Drain\libraries\lvgl\src\core/lv_obj_style_gen.h **** 
 541:..\..\..\arduinoLCD\test\Pain Drain\libraries\lvgl\src\core/lv_obj_style_gen.h **** static inline const lv_style_transition_dsc_t * lv_obj_get_style_transition(const struct _lv_obj_t 
ARM GAS  C:\Users\haske\AppData\Local\Temp\ccFGDFhR.s 			page 36


 542:..\..\..\arduinoLCD\test\Pain Drain\libraries\lvgl\src\core/lv_obj_style_gen.h **** {
 543:..\..\..\arduinoLCD\test\Pain Drain\libraries\lvgl\src\core/lv_obj_style_gen.h ****     lv_style_value_t v = lv_obj_get_style_prop(obj, part, LV_STYLE_TRANSITION);
 544:..\..\..\arduinoLCD\test\Pain Drain\libraries\lvgl\src\core/lv_obj_style_gen.h ****     return (const lv_style_transition_dsc_t *)v.ptr;
 545:..\..\..\arduinoLCD\test\Pain Drain\libraries\lvgl\src\core/lv_obj_style_gen.h **** }
 546:..\..\..\arduinoLCD\test\Pain Drain\libraries\lvgl\src\core/lv_obj_style_gen.h **** 
 547:..\..\..\arduinoLCD\test\Pain Drain\libraries\lvgl\src\core/lv_obj_style_gen.h **** static inline lv_blend_mode_t lv_obj_get_style_blend_mode(const struct _lv_obj_t * obj, uint32_t pa
 548:..\..\..\arduinoLCD\test\Pain Drain\libraries\lvgl\src\core/lv_obj_style_gen.h **** {
 549:..\..\..\arduinoLCD\test\Pain Drain\libraries\lvgl\src\core/lv_obj_style_gen.h ****     lv_style_value_t v = lv_obj_get_style_prop(obj, part, LV_STYLE_BLEND_MODE);
 550:..\..\..\arduinoLCD\test\Pain Drain\libraries\lvgl\src\core/lv_obj_style_gen.h ****     return (lv_blend_mode_t)v.num;
 551:..\..\..\arduinoLCD\test\Pain Drain\libraries\lvgl\src\core/lv_obj_style_gen.h **** }
 552:..\..\..\arduinoLCD\test\Pain Drain\libraries\lvgl\src\core/lv_obj_style_gen.h **** 
 553:..\..\..\arduinoLCD\test\Pain Drain\libraries\lvgl\src\core/lv_obj_style_gen.h **** static inline uint16_t lv_obj_get_style_layout(const struct _lv_obj_t * obj, uint32_t part)
 554:..\..\..\arduinoLCD\test\Pain Drain\libraries\lvgl\src\core/lv_obj_style_gen.h **** {
 555:..\..\..\arduinoLCD\test\Pain Drain\libraries\lvgl\src\core/lv_obj_style_gen.h ****     lv_style_value_t v = lv_obj_get_style_prop(obj, part, LV_STYLE_LAYOUT);
 556:..\..\..\arduinoLCD\test\Pain Drain\libraries\lvgl\src\core/lv_obj_style_gen.h ****     return (uint16_t)v.num;
 557:..\..\..\arduinoLCD\test\Pain Drain\libraries\lvgl\src\core/lv_obj_style_gen.h **** }
 558:..\..\..\arduinoLCD\test\Pain Drain\libraries\lvgl\src\core/lv_obj_style_gen.h **** 
 559:..\..\..\arduinoLCD\test\Pain Drain\libraries\lvgl\src\core/lv_obj_style_gen.h **** static inline lv_base_dir_t lv_obj_get_style_base_dir(const struct _lv_obj_t * obj, uint32_t part)
 560:..\..\..\arduinoLCD\test\Pain Drain\libraries\lvgl\src\core/lv_obj_style_gen.h **** {
 561:..\..\..\arduinoLCD\test\Pain Drain\libraries\lvgl\src\core/lv_obj_style_gen.h ****     lv_style_value_t v = lv_obj_get_style_prop(obj, part, LV_STYLE_BASE_DIR);
 698              		.loc 2 561 0
 699 000e 1622     		movs	r2, #22
 700 0010 0021     		movs	r1, #0
 701 0012 FFF7FEFF 		bl	lv_obj_get_style_prop
 702              	.LVL76:
 562:..\..\..\arduinoLCD\test\Pain Drain\libraries\lvgl\src\core/lv_obj_style_gen.h ****     return (lv_base_dir_t)v.num;
 703              		.loc 2 562 0
 704 0016 C0B2     		uxtb	r0, r0
 705              	.LVL77:
 706              	.LBE107:
 707              	.LBE106:
 167:..\..\..\arduinoLCD\test\Pain Drain\libraries\lvgl\src\core/lv_obj_scroll.c ****         if(obj->spec_attr == NULL) return 0;
 708              		.loc 1 167 0
 709 0018 0128     		cmp	r0, #1
 710 001a 07D0     		beq	.L39
 168:..\..\..\arduinoLCD\test\Pain Drain\libraries\lvgl\src\core/lv_obj_scroll.c ****         return -obj->spec_attr->scroll.x;
 711              		.loc 1 168 0
 712 001c AB68     		ldr	r3, [r5, #8]
 713 001e 002B     		cmp	r3, #0
 714 0020 56D0     		beq	.L47
 169:..\..\..\arduinoLCD\test\Pain Drain\libraries\lvgl\src\core/lv_obj_scroll.c ****     }
 715              		.loc 1 169 0
 716 0022 1020     		movs	r0, #16
 717 0024 185E     		ldrsh	r0, [r3, r0]
 718 0026 4042     		rsbs	r0, r0, #0
 719 0028 00B2     		sxth	r0, r0
 720 002a 52E0     		b	.L40
 721              	.L39:
 722              	.LVL78:
 723              	.LBB108:
 724              	.LBB109:
 123:..\..\..\arduinoLCD\test\Pain Drain\libraries\lvgl\src\core/lv_obj_style_gen.h ****     return (lv_coord_t)v.num;
 725              		.loc 2 123 0
 726 002c 1322     		movs	r2, #19
 727 002e 0021     		movs	r1, #0
 728 0030 2800     		movs	r0, r5
 729 0032 FFF7FEFF 		bl	lv_obj_get_style_prop
ARM GAS  C:\Users\haske\AppData\Local\Temp\ccFGDFhR.s 			page 37


 730              	.LVL79:
 731 0036 8346     		mov	fp, r0
 732              	.LVL80:
 733              	.LBE109:
 734              	.LBE108:
 735              	.LBB110:
 736              	.LBB111:
 117:..\..\..\arduinoLCD\test\Pain Drain\libraries\lvgl\src\core/lv_obj_style_gen.h ****     return (lv_coord_t)v.num;
 737              		.loc 2 117 0
 738 0038 1222     		movs	r2, #18
 739 003a 0021     		movs	r1, #0
 740 003c 2800     		movs	r0, r5
 741 003e FFF7FEFF 		bl	lv_obj_get_style_prop
 742              	.LVL81:
 743 0042 8246     		mov	r10, r0
 744              	.LVL82:
 745              	.LBE111:
 746              	.LBE110:
 747              	.LBB112:
 748              	.LBB113:
 255:..\..\..\arduinoLCD\test\Pain Drain\libraries\lvgl\src\core/lv_obj_style_gen.h ****     return (lv_coord_t)v.num;
 749              		.loc 2 255 0
 750 0044 3222     		movs	r2, #50
 751 0046 0021     		movs	r1, #0
 752 0048 2800     		movs	r0, r5
 753 004a FFF7FEFF 		bl	lv_obj_get_style_prop
 754              	.LVL83:
 755 004e 8146     		mov	r9, r0
 756              	.LVL84:
 757              	.LBE113:
 758              	.LBE112:
 181:..\..\..\arduinoLCD\test\Pain Drain\libraries\lvgl\src\core/lv_obj_scroll.c ****     for(i = 0; i < child_cnt; i++) {
 759              		.loc 1 181 0
 760 0050 2800     		movs	r0, r5
 761 0052 FFF7FEFF 		bl	lv_obj_get_child_cnt
 762              	.LVL85:
 763 0056 8046     		mov	r8, r0
 764              	.LVL86:
 180:..\..\..\arduinoLCD\test\Pain Drain\libraries\lvgl\src\core/lv_obj_scroll.c ****     uint32_t child_cnt = lv_obj_get_child_cnt(obj);
 765              		.loc 1 180 0
 766 0058 214F     		ldr	r7, .L49
 182:..\..\..\arduinoLCD\test\Pain Drain\libraries\lvgl\src\core/lv_obj_scroll.c ****         lv_obj_t * child = obj->spec_attr->children[i];
 767              		.loc 1 182 0
 768 005a 0024     		movs	r4, #0
 769 005c 11E0     		b	.L41
 770              	.LVL87:
 771              	.L44:
 772              	.LBB114:
 183:..\..\..\arduinoLCD\test\Pain Drain\libraries\lvgl\src\core/lv_obj_scroll.c ****         if(lv_obj_has_flag_any(child,  LV_OBJ_FLAG_HIDDEN | LV_OBJ_FLAG_FLOATING)) continue;
 773              		.loc 1 183 0
 774 005e AB68     		ldr	r3, [r5, #8]
 775 0060 1A68     		ldr	r2, [r3]
 776 0062 A300     		lsls	r3, r4, #2
 777 0064 D658     		ldr	r6, [r2, r3]
 778              	.LVL88:
 184:..\..\..\arduinoLCD\test\Pain Drain\libraries\lvgl\src\core/lv_obj_scroll.c ****         x1 = LV_MIN(x1, child->coords.x1);
 779              		.loc 1 184 0
ARM GAS  C:\Users\haske\AppData\Local\Temp\ccFGDFhR.s 			page 38


 780 0066 1F49     		ldr	r1, .L49+4
 781 0068 3000     		movs	r0, r6
 782 006a FFF7FEFF 		bl	lv_obj_has_flag_any
 783              	.LVL89:
 784 006e 0028     		cmp	r0, #0
 785 0070 06D1     		bne	.L42
 185:..\..\..\arduinoLCD\test\Pain Drain\libraries\lvgl\src\core/lv_obj_scroll.c **** 
 786              		.loc 1 185 0
 787 0072 1423     		movs	r3, #20
 788 0074 F25E     		ldrsh	r2, [r6, r3]
 789 0076 3B1C     		adds	r3, r7, #0
 790 0078 9742     		cmp	r7, r2
 791 007a 00DD     		ble	.L43
 792              	.LVL90:
 793 007c 131C     		adds	r3, r2, #0
 794              	.LVL91:
 795              	.L43:
 796 007e 1FB2     		sxth	r7, r3
 797              	.LVL92:
 798              	.L42:
 799              	.LBE114:
 182:..\..\..\arduinoLCD\test\Pain Drain\libraries\lvgl\src\core/lv_obj_scroll.c ****         lv_obj_t * child = obj->spec_attr->children[i];
 800              		.loc 1 182 0 discriminator 2
 801 0080 0134     		adds	r4, r4, #1
 802              	.LVL93:
 803              	.L41:
 182:..\..\..\arduinoLCD\test\Pain Drain\libraries\lvgl\src\core/lv_obj_scroll.c ****         lv_obj_t * child = obj->spec_attr->children[i];
 804              		.loc 1 182 0 is_stmt 0 discriminator 1
 805 0082 4445     		cmp	r4, r8
 806 0084 EBD3     		bcc	.L44
 189:..\..\..\arduinoLCD\test\Pain Drain\libraries\lvgl\src\core/lv_obj_scroll.c ****         child_res = x1;
 807              		.loc 1 189 0 is_stmt 1
 808 0086 164B     		ldr	r3, .L49
 809 0088 9F42     		cmp	r7, r3
 810 008a 06D0     		beq	.L48
 811              	.LVL94:
 191:..\..\..\arduinoLCD\test\Pain Drain\libraries\lvgl\src\core/lv_obj_scroll.c ****     }
 812              		.loc 1 191 0
 813 008c 1422     		movs	r2, #20
 814 008e AB5E     		ldrsh	r3, [r5, r2]
 815 0090 5344     		add	r3, r3, r10
 816 0092 4B44     		add	r3, r3, r9
 817 0094 DF1B     		subs	r7, r3, r7
 818              	.LVL95:
 819 0096 3FB2     		sxth	r7, r7
 820              	.LVL96:
 821 0098 00E0     		b	.L45
 822              	.LVL97:
 823              	.L48:
 194:..\..\..\arduinoLCD\test\Pain Drain\libraries\lvgl\src\core/lv_obj_scroll.c ****     }
 824              		.loc 1 194 0
 825 009a 134F     		ldr	r7, .L49+8
 826              	.LVL98:
 827              	.L45:
 197:..\..\..\arduinoLCD\test\Pain Drain\libraries\lvgl\src\core/lv_obj_scroll.c ****     self_w = self_w - (lv_obj_get_width(obj) - pad_right - pad_left - 2 * border_width);
 828              		.loc 1 197 0
 829 009c 2800     		movs	r0, r5
ARM GAS  C:\Users\haske\AppData\Local\Temp\ccFGDFhR.s 			page 39


 830 009e FFF7FEFF 		bl	lv_obj_get_self_width
 831              	.LVL99:
 832 00a2 0400     		movs	r4, r0
 833              	.LVL100:
 198:..\..\..\arduinoLCD\test\Pain Drain\libraries\lvgl\src\core/lv_obj_scroll.c ****     self_w += lv_obj_get_scroll_x(obj);
 834              		.loc 1 198 0
 835 00a4 2800     		movs	r0, r5
 836 00a6 FFF7FEFF 		bl	lv_obj_get_width
 837              	.LVL101:
 838 00aa 5B46     		mov	r3, fp
 839 00ac 181A     		subs	r0, r3, r0
 840 00ae 5044     		add	r0, r0, r10
 841 00b0 4B46     		mov	r3, r9
 842 00b2 5B00     		lsls	r3, r3, #1
 843 00b4 C018     		adds	r0, r0, r3
 844 00b6 0019     		adds	r0, r0, r4
 845 00b8 84B2     		uxth	r4, r0
 846              	.LVL102:
 199:..\..\..\arduinoLCD\test\Pain Drain\libraries\lvgl\src\core/lv_obj_scroll.c **** 
 847              		.loc 1 199 0
 848 00ba 2800     		movs	r0, r5
 849 00bc FFF7FEFF 		bl	lv_obj_get_scroll_x
 850              	.LVL103:
 851 00c0 2018     		adds	r0, r4, r0
 852 00c2 03B2     		sxth	r3, r0
 853              	.LVL104:
 201:..\..\..\arduinoLCD\test\Pain Drain\libraries\lvgl\src\core/lv_obj_scroll.c **** }
 854              		.loc 1 201 0
 855 00c4 381C     		adds	r0, r7, #0
 856 00c6 9F42     		cmp	r7, r3
 857 00c8 00DA     		bge	.L46
 858 00ca 181C     		adds	r0, r3, #0
 859              	.L46:
 860 00cc 00B2     		sxth	r0, r0
 861 00ce 00E0     		b	.L40
 862              	.LVL105:
 863              	.L47:
 168:..\..\..\arduinoLCD\test\Pain Drain\libraries\lvgl\src\core/lv_obj_scroll.c ****         return -obj->spec_attr->scroll.x;
 864              		.loc 1 168 0
 865 00d0 0020     		movs	r0, #0
 866              	.L40:
 202:..\..\..\arduinoLCD\test\Pain Drain\libraries\lvgl\src\core/lv_obj_scroll.c **** 
 867              		.loc 1 202 0
 868              		@ sp needed
 869              	.LVL106:
 870 00d2 3CBC     		pop	{r2, r3, r4, r5}
 871 00d4 9046     		mov	r8, r2
 872 00d6 9946     		mov	r9, r3
 873 00d8 A246     		mov	r10, r4
 874 00da AB46     		mov	fp, r5
 875 00dc F8BD     		pop	{r3, r4, r5, r6, r7, pc}
 876              	.L50:
 877 00de C046     		.align	2
 878              	.L49:
 879 00e0 FF1F0000 		.word	8191
 880 00e4 01000400 		.word	262145
 881 00e8 01E0FFFF 		.word	-8191
ARM GAS  C:\Users\haske\AppData\Local\Temp\ccFGDFhR.s 			page 40


 882              		.cfi_endproc
 883              	.LFE177:
 884              		.size	lv_obj_get_scroll_left, .-lv_obj_get_scroll_left
 885              		.section	.text.lv_obj_get_scroll_right,"ax",%progbits
 886              		.align	2
 887              		.global	lv_obj_get_scroll_right
 888              		.code	16
 889              		.thumb_func
 890              		.type	lv_obj_get_scroll_right, %function
 891              	lv_obj_get_scroll_right:
 892              	.LFB178:
 205:..\..\..\arduinoLCD\test\Pain Drain\libraries\lvgl\src\core/lv_obj_scroll.c ****     LV_ASSERT_OBJ(obj, MY_CLASS);
 893              		.loc 1 205 0
 894              		.cfi_startproc
 895              		@ args = 0, pretend = 0, frame = 0
 896              		@ frame_needed = 0, uses_anonymous_args = 0
 897              	.LVL107:
 898 0000 F8B5     		push	{r3, r4, r5, r6, r7, lr}
 899              		.cfi_def_cfa_offset 24
 900              		.cfi_offset 3, -24
 901              		.cfi_offset 4, -20
 902              		.cfi_offset 5, -16
 903              		.cfi_offset 6, -12
 904              		.cfi_offset 7, -8
 905              		.cfi_offset 14, -4
 906 0002 4F46     		mov	r7, r9
 907 0004 4646     		mov	r6, r8
 908 0006 C0B4     		push	{r6, r7}
 909              		.cfi_def_cfa_offset 32
 910              		.cfi_offset 8, -32
 911              		.cfi_offset 9, -28
 912 0008 0600     		movs	r6, r0
 913              	.LVL108:
 914              	.LBB115:
 915              	.LBB116:
 561:..\..\..\arduinoLCD\test\Pain Drain\libraries\lvgl\src\core/lv_obj_style_gen.h ****     return (lv_base_dir_t)v.num;
 916              		.loc 2 561 0
 917 000a 1622     		movs	r2, #22
 918 000c 0021     		movs	r1, #0
 919 000e FFF7FEFF 		bl	lv_obj_get_style_prop
 920              	.LVL109:
 921              		.loc 2 562 0
 922 0012 C0B2     		uxtb	r0, r0
 923              	.LVL110:
 924              	.LBE116:
 925              	.LBE115:
 210:..\..\..\arduinoLCD\test\Pain Drain\libraries\lvgl\src\core/lv_obj_scroll.c ****         if(obj->spec_attr == NULL) return 0;
 926              		.loc 1 210 0
 927 0014 0128     		cmp	r0, #1
 928 0016 05D1     		bne	.L52
 211:..\..\..\arduinoLCD\test\Pain Drain\libraries\lvgl\src\core/lv_obj_scroll.c ****         return obj->spec_attr->scroll.x;
 929              		.loc 1 211 0
 930 0018 B368     		ldr	r3, [r6, #8]
 931 001a 002B     		cmp	r3, #0
 932 001c 50D0     		beq	.L60
 212:..\..\..\arduinoLCD\test\Pain Drain\libraries\lvgl\src\core/lv_obj_scroll.c ****     }
 933              		.loc 1 212 0
ARM GAS  C:\Users\haske\AppData\Local\Temp\ccFGDFhR.s 			page 41


 934 001e 1020     		movs	r0, #16
 935 0020 185E     		ldrsh	r0, [r3, r0]
 936 0022 4EE0     		b	.L53
 937              	.L52:
 938              	.LVL111:
 218:..\..\..\arduinoLCD\test\Pain Drain\libraries\lvgl\src\core/lv_obj_scroll.c ****     for(i = 0; i < child_cnt; i++) {
 939              		.loc 1 218 0
 940 0024 3000     		movs	r0, r6
 941 0026 FFF7FEFF 		bl	lv_obj_get_child_cnt
 942              	.LVL112:
 943 002a 8046     		mov	r8, r0
 944              	.LVL113:
 219:..\..\..\arduinoLCD\test\Pain Drain\libraries\lvgl\src\core/lv_obj_scroll.c ****         lv_obj_t * child = obj->spec_attr->children[i];
 945              		.loc 1 219 0
 946 002c 0024     		movs	r4, #0
 216:..\..\..\arduinoLCD\test\Pain Drain\libraries\lvgl\src\core/lv_obj_scroll.c ****     uint32_t i;
 947              		.loc 1 216 0
 948 002e 274F     		ldr	r7, .L61
 219:..\..\..\arduinoLCD\test\Pain Drain\libraries\lvgl\src\core/lv_obj_scroll.c ****         lv_obj_t * child = obj->spec_attr->children[i];
 949              		.loc 1 219 0
 950 0030 11E0     		b	.L54
 951              	.LVL114:
 952              	.L57:
 953              	.LBB117:
 220:..\..\..\arduinoLCD\test\Pain Drain\libraries\lvgl\src\core/lv_obj_scroll.c ****         if(lv_obj_has_flag_any(child,  LV_OBJ_FLAG_HIDDEN | LV_OBJ_FLAG_FLOATING)) continue;
 954              		.loc 1 220 0
 955 0032 B368     		ldr	r3, [r6, #8]
 956 0034 1A68     		ldr	r2, [r3]
 957 0036 A300     		lsls	r3, r4, #2
 958 0038 D558     		ldr	r5, [r2, r3]
 959              	.LVL115:
 221:..\..\..\arduinoLCD\test\Pain Drain\libraries\lvgl\src\core/lv_obj_scroll.c ****         child_res = LV_MAX(child_res, child->coords.x2);
 960              		.loc 1 221 0
 961 003a 2549     		ldr	r1, .L61+4
 962 003c 2800     		movs	r0, r5
 963 003e FFF7FEFF 		bl	lv_obj_has_flag_any
 964              	.LVL116:
 965 0042 0028     		cmp	r0, #0
 966 0044 06D1     		bne	.L55
 222:..\..\..\arduinoLCD\test\Pain Drain\libraries\lvgl\src\core/lv_obj_scroll.c ****     }
 967              		.loc 1 222 0
 968 0046 1823     		movs	r3, #24
 969 0048 EA5E     		ldrsh	r2, [r5, r3]
 970 004a 3B1C     		adds	r3, r7, #0
 971 004c 9742     		cmp	r7, r2
 972 004e 00DA     		bge	.L56
 973              	.LVL117:
 974 0050 131C     		adds	r3, r2, #0
 975              	.LVL118:
 976              	.L56:
 977 0052 1FB2     		sxth	r7, r3
 978              	.LVL119:
 979              	.L55:
 980              	.LBE117:
 219:..\..\..\arduinoLCD\test\Pain Drain\libraries\lvgl\src\core/lv_obj_scroll.c ****         lv_obj_t * child = obj->spec_attr->children[i];
 981              		.loc 1 219 0 discriminator 2
 982 0054 0134     		adds	r4, r4, #1
ARM GAS  C:\Users\haske\AppData\Local\Temp\ccFGDFhR.s 			page 42


 983              	.LVL120:
 984              	.L54:
 219:..\..\..\arduinoLCD\test\Pain Drain\libraries\lvgl\src\core/lv_obj_scroll.c ****         lv_obj_t * child = obj->spec_attr->children[i];
 985              		.loc 1 219 0 is_stmt 0 discriminator 1
 986 0056 4445     		cmp	r4, r8
 987 0058 EBD3     		bcc	.L57
 988              	.LVL121:
 989              	.LBB118:
 990              	.LBB119:
 123:..\..\..\arduinoLCD\test\Pain Drain\libraries\lvgl\src\core/lv_obj_style_gen.h ****     return (lv_coord_t)v.num;
 991              		.loc 2 123 0 is_stmt 1
 992 005a 1322     		movs	r2, #19
 993 005c 0021     		movs	r1, #0
 994 005e 3000     		movs	r0, r6
 995 0060 FFF7FEFF 		bl	lv_obj_get_style_prop
 996              	.LVL122:
 997 0064 0500     		movs	r5, r0
 998              	.LVL123:
 999              	.LBE119:
 1000              	.LBE118:
 1001              	.LBB120:
 1002              	.LBB121:
 117:..\..\..\arduinoLCD\test\Pain Drain\libraries\lvgl\src\core/lv_obj_style_gen.h ****     return (lv_coord_t)v.num;
 1003              		.loc 2 117 0
 1004 0066 1222     		movs	r2, #18
 1005 0068 0021     		movs	r1, #0
 1006 006a 3000     		movs	r0, r6
 1007 006c FFF7FEFF 		bl	lv_obj_get_style_prop
 1008              	.LVL124:
 1009 0070 8146     		mov	r9, r0
 1010              	.LVL125:
 1011              	.LBE121:
 1012              	.LBE120:
 1013              	.LBB122:
 1014              	.LBB123:
 255:..\..\..\arduinoLCD\test\Pain Drain\libraries\lvgl\src\core/lv_obj_style_gen.h ****     return (lv_coord_t)v.num;
 1015              		.loc 2 255 0
 1016 0072 3222     		movs	r2, #50
 1017 0074 0021     		movs	r1, #0
 1018 0076 3000     		movs	r0, r6
 1019 0078 FFF7FEFF 		bl	lv_obj_get_style_prop
 1020              	.LVL126:
 1021 007c 0400     		movs	r4, r0
 1022              	.LVL127:
 1023              	.LBE123:
 1024              	.LBE122:
 229:..\..\..\arduinoLCD\test\Pain Drain\libraries\lvgl\src\core/lv_obj_scroll.c ****         child_res -= (obj->coords.x2 - pad_right - border_width);
 1025              		.loc 1 229 0
 1026 007e 134B     		ldr	r3, .L61
 1027 0080 9F42     		cmp	r7, r3
 1028 0082 05D0     		beq	.L58
 230:..\..\..\arduinoLCD\test\Pain Drain\libraries\lvgl\src\core/lv_obj_scroll.c ****     }
 1029              		.loc 1 230 0
 1030 0084 1823     		movs	r3, #24
 1031 0086 F25E     		ldrsh	r2, [r6, r3]
 1032 0088 AA1A     		subs	r2, r5, r2
 1033 008a 1218     		adds	r2, r2, r0
ARM GAS  C:\Users\haske\AppData\Local\Temp\ccFGDFhR.s 			page 43


 1034 008c D719     		adds	r7, r2, r7
 1035              	.LVL128:
 1036 008e 3FB2     		sxth	r7, r7
 1037              	.LVL129:
 1038              	.L58:
 234:..\..\..\arduinoLCD\test\Pain Drain\libraries\lvgl\src\core/lv_obj_scroll.c ****     self_w = self_w - (lv_obj_get_width(obj) - pad_right - pad_left - 2 * border_width);
 1039              		.loc 1 234 0
 1040 0090 3000     		movs	r0, r6
 1041 0092 FFF7FEFF 		bl	lv_obj_get_self_width
 1042              	.LVL130:
 1043 0096 8046     		mov	r8, r0
 1044              	.LVL131:
 235:..\..\..\arduinoLCD\test\Pain Drain\libraries\lvgl\src\core/lv_obj_scroll.c ****     self_w -= lv_obj_get_scroll_x(obj);
 1045              		.loc 1 235 0
 1046 0098 3000     		movs	r0, r6
 1047 009a FFF7FEFF 		bl	lv_obj_get_width
 1048              	.LVL132:
 1049 009e 281A     		subs	r0, r5, r0
 1050 00a0 4844     		add	r0, r0, r9
 1051 00a2 6400     		lsls	r4, r4, #1
 1052 00a4 0419     		adds	r4, r0, r4
 1053 00a6 4444     		add	r4, r4, r8
 1054 00a8 A4B2     		uxth	r4, r4
 1055              	.LVL133:
 236:..\..\..\arduinoLCD\test\Pain Drain\libraries\lvgl\src\core/lv_obj_scroll.c ****     return LV_MAX(child_res, self_w);
 1056              		.loc 1 236 0
 1057 00aa 3000     		movs	r0, r6
 1058 00ac FFF7FEFF 		bl	lv_obj_get_scroll_x
 1059              	.LVL134:
 1060 00b0 231A     		subs	r3, r4, r0
 1061 00b2 1BB2     		sxth	r3, r3
 1062              	.LVL135:
 237:..\..\..\arduinoLCD\test\Pain Drain\libraries\lvgl\src\core/lv_obj_scroll.c **** }
 1063              		.loc 1 237 0
 1064 00b4 381C     		adds	r0, r7, #0
 1065 00b6 9F42     		cmp	r7, r3
 1066 00b8 00DA     		bge	.L59
 1067              	.LVL136:
 1068 00ba 181C     		adds	r0, r3, #0
 1069              	.LVL137:
 1070              	.L59:
 1071 00bc 00B2     		sxth	r0, r0
 1072 00be 00E0     		b	.L53
 1073              	.LVL138:
 1074              	.L60:
 211:..\..\..\arduinoLCD\test\Pain Drain\libraries\lvgl\src\core/lv_obj_scroll.c ****         return obj->spec_attr->scroll.x;
 1075              		.loc 1 211 0
 1076 00c0 0020     		movs	r0, #0
 1077              	.L53:
 238:..\..\..\arduinoLCD\test\Pain Drain\libraries\lvgl\src\core/lv_obj_scroll.c **** 
 1078              		.loc 1 238 0
 1079              		@ sp needed
 1080              	.LVL139:
 1081 00c2 0CBC     		pop	{r2, r3}
 1082 00c4 9046     		mov	r8, r2
 1083 00c6 9946     		mov	r9, r3
 1084 00c8 F8BD     		pop	{r3, r4, r5, r6, r7, pc}
ARM GAS  C:\Users\haske\AppData\Local\Temp\ccFGDFhR.s 			page 44


 1085              	.L62:
 1086 00ca C046     		.align	2
 1087              	.L61:
 1088 00cc 01E0FFFF 		.word	-8191
 1089 00d0 01000400 		.word	262145
 1090              		.cfi_endproc
 1091              	.LFE178:
 1092              		.size	lv_obj_get_scroll_right, .-lv_obj_get_scroll_right
 1093              		.section	.text.lv_obj_get_scroll_end,"ax",%progbits
 1094              		.align	2
 1095              		.global	lv_obj_get_scroll_end
 1096              		.code	16
 1097              		.thumb_func
 1098              		.type	lv_obj_get_scroll_end, %function
 1099              	lv_obj_get_scroll_end:
 1100              	.LFB179:
 241:..\..\..\arduinoLCD\test\Pain Drain\libraries\lvgl\src\core/lv_obj_scroll.c ****     lv_anim_t * a;
 1101              		.loc 1 241 0
 1102              		.cfi_startproc
 1103              		@ args = 0, pretend = 0, frame = 0
 1104              		@ frame_needed = 0, uses_anonymous_args = 0
 1105              	.LVL140:
 1106 0000 70B5     		push	{r4, r5, r6, lr}
 1107              		.cfi_def_cfa_offset 16
 1108              		.cfi_offset 4, -16
 1109              		.cfi_offset 5, -12
 1110              		.cfi_offset 6, -8
 1111              		.cfi_offset 14, -4
 1112 0002 0400     		movs	r4, r0
 1113 0004 0D00     		movs	r5, r1
 243:..\..\..\arduinoLCD\test\Pain Drain\libraries\lvgl\src\core/lv_obj_scroll.c ****     end->x = a ? -a->end_value : lv_obj_get_scroll_x(obj);
 1114              		.loc 1 243 0
 1115 0006 0E49     		ldr	r1, .L68
 1116              	.LVL141:
 1117 0008 FFF7FEFF 		bl	lv_anim_get
 1118              	.LVL142:
 244:..\..\..\arduinoLCD\test\Pain Drain\libraries\lvgl\src\core/lv_obj_scroll.c **** 
 1119              		.loc 1 244 0
 1120 000c 0028     		cmp	r0, #0
 1121 000e 03D0     		beq	.L64
 244:..\..\..\arduinoLCD\test\Pain Drain\libraries\lvgl\src\core/lv_obj_scroll.c **** 
 1122              		.loc 1 244 0 is_stmt 0 discriminator 1
 1123 0010 806A     		ldr	r0, [r0, #40]
 1124              	.LVL143:
 1125 0012 4042     		rsbs	r0, r0, #0
 1126 0014 00B2     		sxth	r0, r0
 1127 0016 02E0     		b	.L65
 1128              	.LVL144:
 1129              	.L64:
 244:..\..\..\arduinoLCD\test\Pain Drain\libraries\lvgl\src\core/lv_obj_scroll.c **** 
 1130              		.loc 1 244 0 discriminator 2
 1131 0018 2000     		movs	r0, r4
 1132              	.LVL145:
 1133 001a FFF7FEFF 		bl	lv_obj_get_scroll_x
 1134              	.LVL146:
 1135              	.L65:
 244:..\..\..\arduinoLCD\test\Pain Drain\libraries\lvgl\src\core/lv_obj_scroll.c **** 
ARM GAS  C:\Users\haske\AppData\Local\Temp\ccFGDFhR.s 			page 45


 1136              		.loc 1 244 0 discriminator 4
 1137 001e 2880     		strh	r0, [r5]
 246:..\..\..\arduinoLCD\test\Pain Drain\libraries\lvgl\src\core/lv_obj_scroll.c ****     end->y = a ? -a->end_value : lv_obj_get_scroll_y(obj);
 1138              		.loc 1 246 0 is_stmt 1 discriminator 4
 1139 0020 0849     		ldr	r1, .L68+4
 1140 0022 2000     		movs	r0, r4
 1141 0024 FFF7FEFF 		bl	lv_anim_get
 1142              	.LVL147:
 247:..\..\..\arduinoLCD\test\Pain Drain\libraries\lvgl\src\core/lv_obj_scroll.c **** }
 1143              		.loc 1 247 0 discriminator 4
 1144 0028 0028     		cmp	r0, #0
 1145 002a 03D0     		beq	.L66
 247:..\..\..\arduinoLCD\test\Pain Drain\libraries\lvgl\src\core/lv_obj_scroll.c **** }
 1146              		.loc 1 247 0 is_stmt 0 discriminator 1
 1147 002c 806A     		ldr	r0, [r0, #40]
 1148              	.LVL148:
 1149 002e 4042     		rsbs	r0, r0, #0
 1150 0030 00B2     		sxth	r0, r0
 1151 0032 02E0     		b	.L67
 1152              	.LVL149:
 1153              	.L66:
 247:..\..\..\arduinoLCD\test\Pain Drain\libraries\lvgl\src\core/lv_obj_scroll.c **** }
 1154              		.loc 1 247 0 discriminator 2
 1155 0034 2000     		movs	r0, r4
 1156              	.LVL150:
 1157 0036 FFF7FEFF 		bl	lv_obj_get_scroll_y
 1158              	.LVL151:
 1159              	.L67:
 247:..\..\..\arduinoLCD\test\Pain Drain\libraries\lvgl\src\core/lv_obj_scroll.c **** }
 1160              		.loc 1 247 0 discriminator 4
 1161 003a 6880     		strh	r0, [r5, #2]
 248:..\..\..\arduinoLCD\test\Pain Drain\libraries\lvgl\src\core/lv_obj_scroll.c **** 
 1162              		.loc 1 248 0 is_stmt 1 discriminator 4
 1163              		@ sp needed
 1164              	.LVL152:
 1165              	.LVL153:
 1166 003c 70BD     		pop	{r4, r5, r6, pc}
 1167              	.L69:
 1168 003e C046     		.align	2
 1169              	.L68:
 1170 0040 00000000 		.word	scroll_x_anim
 1171 0044 00000000 		.word	scroll_y_anim
 1172              		.cfi_endproc
 1173              	.LFE179:
 1174              		.size	lv_obj_get_scroll_end, .-lv_obj_get_scroll_end
 1175              		.section	.text._lv_obj_scroll_by_raw,"ax",%progbits
 1176              		.align	2
 1177              		.global	_lv_obj_scroll_by_raw
 1178              		.code	16
 1179              		.thumb_func
 1180              		.type	_lv_obj_scroll_by_raw, %function
 1181              	_lv_obj_scroll_by_raw:
 1182              	.LFB187:
 413:..\..\..\arduinoLCD\test\Pain Drain\libraries\lvgl\src\core/lv_obj_scroll.c ****     if(x == 0 && y == 0) return LV_RES_OK;
 1183              		.loc 1 413 0
 1184              		.cfi_startproc
 1185              		@ args = 0, pretend = 0, frame = 0
ARM GAS  C:\Users\haske\AppData\Local\Temp\ccFGDFhR.s 			page 46


 1186              		@ frame_needed = 0, uses_anonymous_args = 0
 1187              	.LVL154:
 1188 0000 70B5     		push	{r4, r5, r6, lr}
 1189              		.cfi_def_cfa_offset 16
 1190              		.cfi_offset 4, -16
 1191              		.cfi_offset 5, -12
 1192              		.cfi_offset 6, -8
 1193              		.cfi_offset 14, -4
 1194 0002 0400     		movs	r4, r0
 1195 0004 0D00     		movs	r5, r1
 1196 0006 1600     		movs	r6, r2
 414:..\..\..\arduinoLCD\test\Pain Drain\libraries\lvgl\src\core/lv_obj_scroll.c **** 
 1197              		.loc 1 414 0
 1198 0008 0B00     		movs	r3, r1
 1199 000a 1343     		orrs	r3, r2
 1200 000c 1BD0     		beq	.L72
 416:..\..\..\arduinoLCD\test\Pain Drain\libraries\lvgl\src\core/lv_obj_scroll.c **** 
 1201              		.loc 1 416 0
 1202 000e FFF7FEFF 		bl	lv_obj_allocate_spec_attr
 1203              	.LVL155:
 418:..\..\..\arduinoLCD\test\Pain Drain\libraries\lvgl\src\core/lv_obj_scroll.c ****     obj->spec_attr->scroll.y += y;
 1204              		.loc 1 418 0
 1205 0012 A268     		ldr	r2, [r4, #8]
 1206 0014 138A     		ldrh	r3, [r2, #16]
 1207 0016 5B19     		adds	r3, r3, r5
 1208 0018 1382     		strh	r3, [r2, #16]
 419:..\..\..\arduinoLCD\test\Pain Drain\libraries\lvgl\src\core/lv_obj_scroll.c **** 
 1209              		.loc 1 419 0
 1210 001a A268     		ldr	r2, [r4, #8]
 1211 001c 538A     		ldrh	r3, [r2, #18]
 1212 001e 9B19     		adds	r3, r3, r6
 1213 0020 5382     		strh	r3, [r2, #18]
 421:..\..\..\arduinoLCD\test\Pain Drain\libraries\lvgl\src\core/lv_obj_scroll.c ****     lv_res_t res = lv_event_send(obj, LV_EVENT_SCROLL, NULL);
 1214              		.loc 1 421 0
 1215 0022 0123     		movs	r3, #1
 1216 0024 3200     		movs	r2, r6
 1217 0026 2900     		movs	r1, r5
 1218 0028 2000     		movs	r0, r4
 1219 002a FFF7FEFF 		bl	lv_obj_move_children_by
 1220              	.LVL156:
 422:..\..\..\arduinoLCD\test\Pain Drain\libraries\lvgl\src\core/lv_obj_scroll.c ****     if(res != LV_RES_OK) return res;
 1221              		.loc 1 422 0
 1222 002e 0022     		movs	r2, #0
 1223 0030 0B21     		movs	r1, #11
 1224 0032 2000     		movs	r0, r4
 1225 0034 FFF7FEFF 		bl	lv_event_send
 1226              	.LVL157:
 423:..\..\..\arduinoLCD\test\Pain Drain\libraries\lvgl\src\core/lv_obj_scroll.c ****     lv_obj_invalidate(obj);
 1227              		.loc 1 423 0
 1228 0038 0128     		cmp	r0, #1
 1229 003a 05D1     		bne	.L71
 424:..\..\..\arduinoLCD\test\Pain Drain\libraries\lvgl\src\core/lv_obj_scroll.c ****     return LV_RES_OK;
 1230              		.loc 1 424 0
 1231 003c 2000     		movs	r0, r4
 1232              	.LVL158:
 1233 003e FFF7FEFF 		bl	lv_obj_invalidate
 1234              	.LVL159:
ARM GAS  C:\Users\haske\AppData\Local\Temp\ccFGDFhR.s 			page 47


 425:..\..\..\arduinoLCD\test\Pain Drain\libraries\lvgl\src\core/lv_obj_scroll.c **** }
 1235              		.loc 1 425 0
 1236 0042 0120     		movs	r0, #1
 1237 0044 00E0     		b	.L71
 1238              	.LVL160:
 1239              	.L72:
 414:..\..\..\arduinoLCD\test\Pain Drain\libraries\lvgl\src\core/lv_obj_scroll.c **** 
 1240              		.loc 1 414 0
 1241 0046 0120     		movs	r0, #1
 1242              	.LVL161:
 1243              	.L71:
 426:..\..\..\arduinoLCD\test\Pain Drain\libraries\lvgl\src\core/lv_obj_scroll.c **** 
 1244              		.loc 1 426 0
 1245              		@ sp needed
 1246              	.LVL162:
 1247 0048 70BD     		pop	{r4, r5, r6, pc}
 1248              		.cfi_endproc
 1249              	.LFE187:
 1250              		.size	_lv_obj_scroll_by_raw, .-_lv_obj_scroll_by_raw
 1251 004a C046     		.section	.text.scroll_y_anim,"ax",%progbits
 1252              		.align	2
 1253              		.code	16
 1254              		.thumb_func
 1255              		.type	scroll_y_anim, %function
 1256              	scroll_y_anim:
 1257              	.LFB194:
 678:..\..\..\arduinoLCD\test\Pain Drain\libraries\lvgl\src\core/lv_obj_scroll.c ****     _lv_obj_scroll_by_raw(obj, 0, v + lv_obj_get_scroll_y(obj));
 1258              		.loc 1 678 0
 1259              		.cfi_startproc
 1260              		@ args = 0, pretend = 0, frame = 0
 1261              		@ frame_needed = 0, uses_anonymous_args = 0
 1262              	.LVL163:
 1263 0000 70B5     		push	{r4, r5, r6, lr}
 1264              		.cfi_def_cfa_offset 16
 1265              		.cfi_offset 4, -16
 1266              		.cfi_offset 5, -12
 1267              		.cfi_offset 6, -8
 1268              		.cfi_offset 14, -4
 1269 0002 0500     		movs	r5, r0
 1270 0004 0C00     		movs	r4, r1
 679:..\..\..\arduinoLCD\test\Pain Drain\libraries\lvgl\src\core/lv_obj_scroll.c **** }
 1271              		.loc 1 679 0
 1272 0006 FFF7FEFF 		bl	lv_obj_get_scroll_y
 1273              	.LVL164:
 1274 000a 0419     		adds	r4, r0, r4
 1275              	.LVL165:
 1276 000c 22B2     		sxth	r2, r4
 1277 000e 0021     		movs	r1, #0
 1278 0010 2800     		movs	r0, r5
 1279 0012 FFF7FEFF 		bl	_lv_obj_scroll_by_raw
 1280              	.LVL166:
 680:..\..\..\arduinoLCD\test\Pain Drain\libraries\lvgl\src\core/lv_obj_scroll.c **** 
 1281              		.loc 1 680 0
 1282              		@ sp needed
 1283              	.LVL167:
 1284 0016 70BD     		pop	{r4, r5, r6, pc}
 1285              		.cfi_endproc
ARM GAS  C:\Users\haske\AppData\Local\Temp\ccFGDFhR.s 			page 48


 1286              	.LFE194:
 1287              		.size	scroll_y_anim, .-scroll_y_anim
 1288              		.section	.text.scroll_x_anim,"ax",%progbits
 1289              		.align	2
 1290              		.code	16
 1291              		.thumb_func
 1292              		.type	scroll_x_anim, %function
 1293              	scroll_x_anim:
 1294              	.LFB193:
 673:..\..\..\arduinoLCD\test\Pain Drain\libraries\lvgl\src\core/lv_obj_scroll.c ****     _lv_obj_scroll_by_raw(obj, v + lv_obj_get_scroll_x(obj), 0);
 1295              		.loc 1 673 0
 1296              		.cfi_startproc
 1297              		@ args = 0, pretend = 0, frame = 0
 1298              		@ frame_needed = 0, uses_anonymous_args = 0
 1299              	.LVL168:
 1300 0000 70B5     		push	{r4, r5, r6, lr}
 1301              		.cfi_def_cfa_offset 16
 1302              		.cfi_offset 4, -16
 1303              		.cfi_offset 5, -12
 1304              		.cfi_offset 6, -8
 1305              		.cfi_offset 14, -4
 1306 0002 0500     		movs	r5, r0
 1307 0004 0C00     		movs	r4, r1
 674:..\..\..\arduinoLCD\test\Pain Drain\libraries\lvgl\src\core/lv_obj_scroll.c **** }
 1308              		.loc 1 674 0
 1309 0006 FFF7FEFF 		bl	lv_obj_get_scroll_x
 1310              	.LVL169:
 1311 000a 0419     		adds	r4, r0, r4
 1312              	.LVL170:
 1313 000c 21B2     		sxth	r1, r4
 1314 000e 0022     		movs	r2, #0
 1315 0010 2800     		movs	r0, r5
 1316 0012 FFF7FEFF 		bl	_lv_obj_scroll_by_raw
 1317              	.LVL171:
 675:..\..\..\arduinoLCD\test\Pain Drain\libraries\lvgl\src\core/lv_obj_scroll.c **** 
 1318              		.loc 1 675 0
 1319              		@ sp needed
 1320              	.LVL172:
 1321 0016 70BD     		pop	{r4, r5, r6, pc}
 1322              		.cfi_endproc
 1323              	.LFE193:
 1324              		.size	scroll_x_anim, .-scroll_x_anim
 1325              		.section	.text.lv_obj_scroll_by,"ax",%progbits
 1326              		.align	2
 1327              		.global	lv_obj_scroll_by
 1328              		.code	16
 1329              		.thumb_func
 1330              		.type	lv_obj_scroll_by, %function
 1331              	lv_obj_scroll_by:
 1332              	.LFB181:
 304:..\..\..\arduinoLCD\test\Pain Drain\libraries\lvgl\src\core/lv_obj_scroll.c ****     if(dx == 0 && dy == 0) return;
 1333              		.loc 1 304 0
 1334              		.cfi_startproc
 1335              		@ args = 0, pretend = 0, frame = 72
 1336              		@ frame_needed = 0, uses_anonymous_args = 0
 1337              	.LVL173:
 1338 0000 F0B5     		push	{r4, r5, r6, r7, lr}
ARM GAS  C:\Users\haske\AppData\Local\Temp\ccFGDFhR.s 			page 49


 1339              		.cfi_def_cfa_offset 20
 1340              		.cfi_offset 4, -20
 1341              		.cfi_offset 5, -16
 1342              		.cfi_offset 6, -12
 1343              		.cfi_offset 7, -8
 1344              		.cfi_offset 14, -4
 1345 0002 93B0     		sub	sp, sp, #76
 1346              		.cfi_def_cfa_offset 96
 1347 0004 0400     		movs	r4, r0
 1348 0006 0D00     		movs	r5, r1
 1349 0008 1600     		movs	r6, r2
 305:..\..\..\arduinoLCD\test\Pain Drain\libraries\lvgl\src\core/lv_obj_scroll.c ****     if(anim_en == LV_ANIM_ON) {
 1350              		.loc 1 305 0
 1351 000a 0A00     		movs	r2, r1
 1352              	.LVL174:
 1353 000c 3243     		orrs	r2, r6
 1354 000e 79D0     		beq	.L76
 306:..\..\..\arduinoLCD\test\Pain Drain\libraries\lvgl\src\core/lv_obj_scroll.c ****         lv_disp_t * d = lv_obj_get_disp(obj);
 1355              		.loc 1 306 0
 1356 0010 012B     		cmp	r3, #1
 1357 0012 5DD1     		bne	.L78
 1358              	.LBB124:
 307:..\..\..\arduinoLCD\test\Pain Drain\libraries\lvgl\src\core/lv_obj_scroll.c ****         lv_anim_t a;
 1359              		.loc 1 307 0
 1360 0014 FFF7FEFF 		bl	lv_obj_get_disp
 1361              	.LVL175:
 1362 0018 0700     		movs	r7, r0
 1363              	.LVL176:
 309:..\..\..\arduinoLCD\test\Pain Drain\libraries\lvgl\src\core/lv_obj_scroll.c ****         lv_anim_set_var(&a, obj);
 1364              		.loc 1 309 0
 1365 001a 01A8     		add	r0, sp, #4
 1366              	.LVL177:
 1367 001c FFF7FEFF 		bl	lv_anim_init
 1368              	.LVL178:
 1369              	.LBB125:
 1370              	.LBB126:
 1371              		.file 3 "..\\..\\..\\arduinoLCD\\test\\Pain Drain\\libraries\\lvgl\\src\\core\\../misc/lv_anim.h"
   1:..\..\..\arduinoLCD\test\Pain Drain\libraries\lvgl\src\core\../misc/lv_anim.h **** /**
   2:..\..\..\arduinoLCD\test\Pain Drain\libraries\lvgl\src\core\../misc/lv_anim.h ****  * @file lv_anim.h
   3:..\..\..\arduinoLCD\test\Pain Drain\libraries\lvgl\src\core\../misc/lv_anim.h ****  *
   4:..\..\..\arduinoLCD\test\Pain Drain\libraries\lvgl\src\core\../misc/lv_anim.h ****  */
   5:..\..\..\arduinoLCD\test\Pain Drain\libraries\lvgl\src\core\../misc/lv_anim.h **** 
   6:..\..\..\arduinoLCD\test\Pain Drain\libraries\lvgl\src\core\../misc/lv_anim.h **** #ifndef LV_ANIM_H
   7:..\..\..\arduinoLCD\test\Pain Drain\libraries\lvgl\src\core\../misc/lv_anim.h **** #define LV_ANIM_H
   8:..\..\..\arduinoLCD\test\Pain Drain\libraries\lvgl\src\core\../misc/lv_anim.h **** 
   9:..\..\..\arduinoLCD\test\Pain Drain\libraries\lvgl\src\core\../misc/lv_anim.h **** #ifdef __cplusplus
  10:..\..\..\arduinoLCD\test\Pain Drain\libraries\lvgl\src\core\../misc/lv_anim.h **** extern "C" {
  11:..\..\..\arduinoLCD\test\Pain Drain\libraries\lvgl\src\core\../misc/lv_anim.h **** #endif
  12:..\..\..\arduinoLCD\test\Pain Drain\libraries\lvgl\src\core\../misc/lv_anim.h **** 
  13:..\..\..\arduinoLCD\test\Pain Drain\libraries\lvgl\src\core\../misc/lv_anim.h **** /*********************
  14:..\..\..\arduinoLCD\test\Pain Drain\libraries\lvgl\src\core\../misc/lv_anim.h ****  *      INCLUDES
  15:..\..\..\arduinoLCD\test\Pain Drain\libraries\lvgl\src\core\../misc/lv_anim.h ****  *********************/
  16:..\..\..\arduinoLCD\test\Pain Drain\libraries\lvgl\src\core\../misc/lv_anim.h **** #include "../lv_conf_internal.h"
  17:..\..\..\arduinoLCD\test\Pain Drain\libraries\lvgl\src\core\../misc/lv_anim.h **** 
  18:..\..\..\arduinoLCD\test\Pain Drain\libraries\lvgl\src\core\../misc/lv_anim.h **** #include <stdint.h>
  19:..\..\..\arduinoLCD\test\Pain Drain\libraries\lvgl\src\core\../misc/lv_anim.h **** #include <stdbool.h>
  20:..\..\..\arduinoLCD\test\Pain Drain\libraries\lvgl\src\core\../misc/lv_anim.h **** #include <stddef.h>
ARM GAS  C:\Users\haske\AppData\Local\Temp\ccFGDFhR.s 			page 50


  21:..\..\..\arduinoLCD\test\Pain Drain\libraries\lvgl\src\core\../misc/lv_anim.h **** 
  22:..\..\..\arduinoLCD\test\Pain Drain\libraries\lvgl\src\core\../misc/lv_anim.h **** /*********************
  23:..\..\..\arduinoLCD\test\Pain Drain\libraries\lvgl\src\core\../misc/lv_anim.h ****  *      DEFINES
  24:..\..\..\arduinoLCD\test\Pain Drain\libraries\lvgl\src\core\../misc/lv_anim.h ****  *********************/
  25:..\..\..\arduinoLCD\test\Pain Drain\libraries\lvgl\src\core\../misc/lv_anim.h **** 
  26:..\..\..\arduinoLCD\test\Pain Drain\libraries\lvgl\src\core\../misc/lv_anim.h **** #define LV_ANIM_REPEAT_INFINITE      0xFFFF
  27:..\..\..\arduinoLCD\test\Pain Drain\libraries\lvgl\src\core\../misc/lv_anim.h **** #define LV_ANIM_PLAYTIME_INFINITE    0xFFFFFFFF
  28:..\..\..\arduinoLCD\test\Pain Drain\libraries\lvgl\src\core\../misc/lv_anim.h **** 
  29:..\..\..\arduinoLCD\test\Pain Drain\libraries\lvgl\src\core\../misc/lv_anim.h **** LV_EXPORT_CONST_INT(LV_ANIM_REPEAT_INFINITE);
  30:..\..\..\arduinoLCD\test\Pain Drain\libraries\lvgl\src\core\../misc/lv_anim.h **** LV_EXPORT_CONST_INT(LV_ANIM_PLAYTIME_INFINITE);
  31:..\..\..\arduinoLCD\test\Pain Drain\libraries\lvgl\src\core\../misc/lv_anim.h **** 
  32:..\..\..\arduinoLCD\test\Pain Drain\libraries\lvgl\src\core\../misc/lv_anim.h **** /**********************
  33:..\..\..\arduinoLCD\test\Pain Drain\libraries\lvgl\src\core\../misc/lv_anim.h ****  *      TYPEDEFS
  34:..\..\..\arduinoLCD\test\Pain Drain\libraries\lvgl\src\core\../misc/lv_anim.h ****  **********************/
  35:..\..\..\arduinoLCD\test\Pain Drain\libraries\lvgl\src\core\../misc/lv_anim.h **** 
  36:..\..\..\arduinoLCD\test\Pain Drain\libraries\lvgl\src\core\../misc/lv_anim.h **** /** Can be used to indicate if animations are enabled or disabled in a case*/
  37:..\..\..\arduinoLCD\test\Pain Drain\libraries\lvgl\src\core\../misc/lv_anim.h **** typedef enum {
  38:..\..\..\arduinoLCD\test\Pain Drain\libraries\lvgl\src\core\../misc/lv_anim.h ****     LV_ANIM_OFF,
  39:..\..\..\arduinoLCD\test\Pain Drain\libraries\lvgl\src\core\../misc/lv_anim.h ****     LV_ANIM_ON,
  40:..\..\..\arduinoLCD\test\Pain Drain\libraries\lvgl\src\core\../misc/lv_anim.h **** } lv_anim_enable_t;
  41:..\..\..\arduinoLCD\test\Pain Drain\libraries\lvgl\src\core\../misc/lv_anim.h **** 
  42:..\..\..\arduinoLCD\test\Pain Drain\libraries\lvgl\src\core\../misc/lv_anim.h **** struct _lv_anim_t;
  43:..\..\..\arduinoLCD\test\Pain Drain\libraries\lvgl\src\core\../misc/lv_anim.h **** struct _lv_timer_t;
  44:..\..\..\arduinoLCD\test\Pain Drain\libraries\lvgl\src\core\../misc/lv_anim.h **** 
  45:..\..\..\arduinoLCD\test\Pain Drain\libraries\lvgl\src\core\../misc/lv_anim.h **** /** Get the current value during an animation*/
  46:..\..\..\arduinoLCD\test\Pain Drain\libraries\lvgl\src\core\../misc/lv_anim.h **** typedef int32_t (*lv_anim_path_cb_t)(const struct _lv_anim_t *);
  47:..\..\..\arduinoLCD\test\Pain Drain\libraries\lvgl\src\core\../misc/lv_anim.h **** 
  48:..\..\..\arduinoLCD\test\Pain Drain\libraries\lvgl\src\core\../misc/lv_anim.h **** /** Generic prototype of "animator" functions.
  49:..\..\..\arduinoLCD\test\Pain Drain\libraries\lvgl\src\core\../misc/lv_anim.h ****  * First parameter is the variable to animate.
  50:..\..\..\arduinoLCD\test\Pain Drain\libraries\lvgl\src\core\../misc/lv_anim.h ****  * Second parameter is the value to set.
  51:..\..\..\arduinoLCD\test\Pain Drain\libraries\lvgl\src\core\../misc/lv_anim.h ****  * Compatible with `lv_xxx_set_yyy(obj, value)` functions
  52:..\..\..\arduinoLCD\test\Pain Drain\libraries\lvgl\src\core\../misc/lv_anim.h ****  * The `x` in `_xcb_t` means it's not a fully generic prototype because
  53:..\..\..\arduinoLCD\test\Pain Drain\libraries\lvgl\src\core\../misc/lv_anim.h ****  * it doesn't receive `lv_anim_t *` as its first argument*/
  54:..\..\..\arduinoLCD\test\Pain Drain\libraries\lvgl\src\core\../misc/lv_anim.h **** typedef void (*lv_anim_exec_xcb_t)(void *, int32_t);
  55:..\..\..\arduinoLCD\test\Pain Drain\libraries\lvgl\src\core\../misc/lv_anim.h **** 
  56:..\..\..\arduinoLCD\test\Pain Drain\libraries\lvgl\src\core\../misc/lv_anim.h **** /** Same as `lv_anim_exec_xcb_t` but receives `lv_anim_t *` as the first parameter.
  57:..\..\..\arduinoLCD\test\Pain Drain\libraries\lvgl\src\core\../misc/lv_anim.h ****  * It's more consistent but less convenient. Might be used by binding generator functions.*/
  58:..\..\..\arduinoLCD\test\Pain Drain\libraries\lvgl\src\core\../misc/lv_anim.h **** typedef void (*lv_anim_custom_exec_cb_t)(struct _lv_anim_t *, int32_t);
  59:..\..\..\arduinoLCD\test\Pain Drain\libraries\lvgl\src\core\../misc/lv_anim.h **** 
  60:..\..\..\arduinoLCD\test\Pain Drain\libraries\lvgl\src\core\../misc/lv_anim.h **** /** Callback to call when the animation is ready*/
  61:..\..\..\arduinoLCD\test\Pain Drain\libraries\lvgl\src\core\../misc/lv_anim.h **** typedef void (*lv_anim_ready_cb_t)(struct _lv_anim_t *);
  62:..\..\..\arduinoLCD\test\Pain Drain\libraries\lvgl\src\core\../misc/lv_anim.h **** 
  63:..\..\..\arduinoLCD\test\Pain Drain\libraries\lvgl\src\core\../misc/lv_anim.h **** /** Callback to call when the animation really stars (considering `delay`)*/
  64:..\..\..\arduinoLCD\test\Pain Drain\libraries\lvgl\src\core\../misc/lv_anim.h **** typedef void (*lv_anim_start_cb_t)(struct _lv_anim_t *);
  65:..\..\..\arduinoLCD\test\Pain Drain\libraries\lvgl\src\core\../misc/lv_anim.h **** 
  66:..\..\..\arduinoLCD\test\Pain Drain\libraries\lvgl\src\core\../misc/lv_anim.h **** /** Callback used when the animation values are relative to get the current value*/
  67:..\..\..\arduinoLCD\test\Pain Drain\libraries\lvgl\src\core\../misc/lv_anim.h **** typedef int32_t (*lv_anim_get_value_cb_t)(struct _lv_anim_t *);
  68:..\..\..\arduinoLCD\test\Pain Drain\libraries\lvgl\src\core\../misc/lv_anim.h **** 
  69:..\..\..\arduinoLCD\test\Pain Drain\libraries\lvgl\src\core\../misc/lv_anim.h **** /** Callback used when the animation is deleted*/
  70:..\..\..\arduinoLCD\test\Pain Drain\libraries\lvgl\src\core\../misc/lv_anim.h **** typedef void (*lv_anim_deleted_cb_t)(struct _lv_anim_t *);
  71:..\..\..\arduinoLCD\test\Pain Drain\libraries\lvgl\src\core\../misc/lv_anim.h **** 
  72:..\..\..\arduinoLCD\test\Pain Drain\libraries\lvgl\src\core\../misc/lv_anim.h **** /** Describes an animation*/
  73:..\..\..\arduinoLCD\test\Pain Drain\libraries\lvgl\src\core\../misc/lv_anim.h **** typedef struct _lv_anim_t {
  74:..\..\..\arduinoLCD\test\Pain Drain\libraries\lvgl\src\core\../misc/lv_anim.h ****     void * var;                          /**<Variable to animate*/
  75:..\..\..\arduinoLCD\test\Pain Drain\libraries\lvgl\src\core\../misc/lv_anim.h ****     lv_anim_exec_xcb_t exec_cb;          /**< Function to execute to animate*/
  76:..\..\..\arduinoLCD\test\Pain Drain\libraries\lvgl\src\core\../misc/lv_anim.h ****     lv_anim_start_cb_t start_cb;         /**< Call it when the animation is starts (considering `de
  77:..\..\..\arduinoLCD\test\Pain Drain\libraries\lvgl\src\core\../misc/lv_anim.h ****     lv_anim_ready_cb_t ready_cb;         /**< Call it when the animation is ready*/
ARM GAS  C:\Users\haske\AppData\Local\Temp\ccFGDFhR.s 			page 51


  78:..\..\..\arduinoLCD\test\Pain Drain\libraries\lvgl\src\core\../misc/lv_anim.h ****     lv_anim_deleted_cb_t deleted_cb;     /**< Call it when the animation is deleted*/
  79:..\..\..\arduinoLCD\test\Pain Drain\libraries\lvgl\src\core\../misc/lv_anim.h ****     lv_anim_get_value_cb_t get_value_cb; /**< Get the current value in relative mode*/
  80:..\..\..\arduinoLCD\test\Pain Drain\libraries\lvgl\src\core\../misc/lv_anim.h **** #if LV_USE_USER_DATA
  81:..\..\..\arduinoLCD\test\Pain Drain\libraries\lvgl\src\core\../misc/lv_anim.h ****     void * user_data; /**< Custom user data*/
  82:..\..\..\arduinoLCD\test\Pain Drain\libraries\lvgl\src\core\../misc/lv_anim.h **** #endif
  83:..\..\..\arduinoLCD\test\Pain Drain\libraries\lvgl\src\core\../misc/lv_anim.h ****     lv_anim_path_cb_t path_cb;         /**< Describe the path (curve) of animations*/
  84:..\..\..\arduinoLCD\test\Pain Drain\libraries\lvgl\src\core\../misc/lv_anim.h ****     int32_t start_value;               /**< Start value*/
  85:..\..\..\arduinoLCD\test\Pain Drain\libraries\lvgl\src\core\../misc/lv_anim.h ****     int32_t current_value;             /**< Current value*/
  86:..\..\..\arduinoLCD\test\Pain Drain\libraries\lvgl\src\core\../misc/lv_anim.h ****     int32_t end_value;                 /**< End value*/
  87:..\..\..\arduinoLCD\test\Pain Drain\libraries\lvgl\src\core\../misc/lv_anim.h ****     int32_t time;                /**< Animation time in ms*/
  88:..\..\..\arduinoLCD\test\Pain Drain\libraries\lvgl\src\core\../misc/lv_anim.h ****     int32_t act_time;            /**< Current time in animation. Set to negative to make delay.*/
  89:..\..\..\arduinoLCD\test\Pain Drain\libraries\lvgl\src\core\../misc/lv_anim.h ****     uint32_t playback_delay;     /**< Wait before play back*/
  90:..\..\..\arduinoLCD\test\Pain Drain\libraries\lvgl\src\core\../misc/lv_anim.h ****     uint32_t playback_time;      /**< Duration of playback animation*/
  91:..\..\..\arduinoLCD\test\Pain Drain\libraries\lvgl\src\core\../misc/lv_anim.h ****     uint32_t repeat_delay;       /**< Wait before repeat*/
  92:..\..\..\arduinoLCD\test\Pain Drain\libraries\lvgl\src\core\../misc/lv_anim.h ****     uint16_t repeat_cnt;         /**< Repeat count for the animation*/
  93:..\..\..\arduinoLCD\test\Pain Drain\libraries\lvgl\src\core\../misc/lv_anim.h ****     uint8_t early_apply  : 1;    /**< 1: Apply start value immediately even is there is `delay`*/
  94:..\..\..\arduinoLCD\test\Pain Drain\libraries\lvgl\src\core\../misc/lv_anim.h **** 
  95:..\..\..\arduinoLCD\test\Pain Drain\libraries\lvgl\src\core\../misc/lv_anim.h ****     /*Animation system use these - user shouldn't set*/
  96:..\..\..\arduinoLCD\test\Pain Drain\libraries\lvgl\src\core\../misc/lv_anim.h ****     uint8_t playback_now : 1; /**< Play back is in progress*/
  97:..\..\..\arduinoLCD\test\Pain Drain\libraries\lvgl\src\core\../misc/lv_anim.h ****     uint8_t run_round : 1;    /**< Indicates the animation has run in this round*/
  98:..\..\..\arduinoLCD\test\Pain Drain\libraries\lvgl\src\core\../misc/lv_anim.h ****     uint8_t start_cb_called : 1;    /**< Indicates that the `start_cb` was already called*/
  99:..\..\..\arduinoLCD\test\Pain Drain\libraries\lvgl\src\core\../misc/lv_anim.h **** } lv_anim_t;
 100:..\..\..\arduinoLCD\test\Pain Drain\libraries\lvgl\src\core\../misc/lv_anim.h **** 
 101:..\..\..\arduinoLCD\test\Pain Drain\libraries\lvgl\src\core\../misc/lv_anim.h **** /**********************
 102:..\..\..\arduinoLCD\test\Pain Drain\libraries\lvgl\src\core\../misc/lv_anim.h ****  * GLOBAL PROTOTYPES
 103:..\..\..\arduinoLCD\test\Pain Drain\libraries\lvgl\src\core\../misc/lv_anim.h ****  **********************/
 104:..\..\..\arduinoLCD\test\Pain Drain\libraries\lvgl\src\core\../misc/lv_anim.h **** 
 105:..\..\..\arduinoLCD\test\Pain Drain\libraries\lvgl\src\core\../misc/lv_anim.h **** /**
 106:..\..\..\arduinoLCD\test\Pain Drain\libraries\lvgl\src\core\../misc/lv_anim.h ****  * Init. the animation module
 107:..\..\..\arduinoLCD\test\Pain Drain\libraries\lvgl\src\core\../misc/lv_anim.h ****  */
 108:..\..\..\arduinoLCD\test\Pain Drain\libraries\lvgl\src\core\../misc/lv_anim.h **** void _lv_anim_core_init(void);
 109:..\..\..\arduinoLCD\test\Pain Drain\libraries\lvgl\src\core\../misc/lv_anim.h **** 
 110:..\..\..\arduinoLCD\test\Pain Drain\libraries\lvgl\src\core\../misc/lv_anim.h **** /**
 111:..\..\..\arduinoLCD\test\Pain Drain\libraries\lvgl\src\core\../misc/lv_anim.h ****  * Initialize an animation variable.
 112:..\..\..\arduinoLCD\test\Pain Drain\libraries\lvgl\src\core\../misc/lv_anim.h ****  * E.g.:
 113:..\..\..\arduinoLCD\test\Pain Drain\libraries\lvgl\src\core\../misc/lv_anim.h ****  * lv_anim_t a;
 114:..\..\..\arduinoLCD\test\Pain Drain\libraries\lvgl\src\core\../misc/lv_anim.h ****  * lv_anim_init(&a);
 115:..\..\..\arduinoLCD\test\Pain Drain\libraries\lvgl\src\core\../misc/lv_anim.h ****  * lv_anim_set_...(&a);
 116:..\..\..\arduinoLCD\test\Pain Drain\libraries\lvgl\src\core\../misc/lv_anim.h ****  * lv_anim_start(&a);
 117:..\..\..\arduinoLCD\test\Pain Drain\libraries\lvgl\src\core\../misc/lv_anim.h ****  * @param a     pointer to an `lv_anim_t` variable to initialize
 118:..\..\..\arduinoLCD\test\Pain Drain\libraries\lvgl\src\core\../misc/lv_anim.h ****  */
 119:..\..\..\arduinoLCD\test\Pain Drain\libraries\lvgl\src\core\../misc/lv_anim.h **** void lv_anim_init(lv_anim_t * a);
 120:..\..\..\arduinoLCD\test\Pain Drain\libraries\lvgl\src\core\../misc/lv_anim.h **** 
 121:..\..\..\arduinoLCD\test\Pain Drain\libraries\lvgl\src\core\../misc/lv_anim.h **** /**
 122:..\..\..\arduinoLCD\test\Pain Drain\libraries\lvgl\src\core\../misc/lv_anim.h ****  * Set a variable to animate
 123:..\..\..\arduinoLCD\test\Pain Drain\libraries\lvgl\src\core\../misc/lv_anim.h ****  * @param a     pointer to an initialized `lv_anim_t` variable
 124:..\..\..\arduinoLCD\test\Pain Drain\libraries\lvgl\src\core\../misc/lv_anim.h ****  * @param var   pointer to a variable to animate
 125:..\..\..\arduinoLCD\test\Pain Drain\libraries\lvgl\src\core\../misc/lv_anim.h ****  */
 126:..\..\..\arduinoLCD\test\Pain Drain\libraries\lvgl\src\core\../misc/lv_anim.h **** static inline void lv_anim_set_var(lv_anim_t * a, void * var)
 127:..\..\..\arduinoLCD\test\Pain Drain\libraries\lvgl\src\core\../misc/lv_anim.h **** {
 128:..\..\..\arduinoLCD\test\Pain Drain\libraries\lvgl\src\core\../misc/lv_anim.h ****     a->var = var;
 1372              		.loc 3 128 0
 1373 0020 0194     		str	r4, [sp, #4]
 1374              	.LVL179:
 1375              	.LBE126:
 1376              	.LBE125:
 1377              	.LBB127:
ARM GAS  C:\Users\haske\AppData\Local\Temp\ccFGDFhR.s 			page 52


 1378              	.LBB128:
 129:..\..\..\arduinoLCD\test\Pain Drain\libraries\lvgl\src\core\../misc/lv_anim.h **** }
 130:..\..\..\arduinoLCD\test\Pain Drain\libraries\lvgl\src\core\../misc/lv_anim.h **** 
 131:..\..\..\arduinoLCD\test\Pain Drain\libraries\lvgl\src\core\../misc/lv_anim.h **** /**
 132:..\..\..\arduinoLCD\test\Pain Drain\libraries\lvgl\src\core\../misc/lv_anim.h ****  * Set a function to animate `var`
 133:..\..\..\arduinoLCD\test\Pain Drain\libraries\lvgl\src\core\../misc/lv_anim.h ****  * @param a         pointer to an initialized `lv_anim_t` variable
 134:..\..\..\arduinoLCD\test\Pain Drain\libraries\lvgl\src\core\../misc/lv_anim.h ****  * @param exec_cb   a function to execute during animation
 135:..\..\..\arduinoLCD\test\Pain Drain\libraries\lvgl\src\core\../misc/lv_anim.h ****  *                  LVGL's built-in functions can be used.
 136:..\..\..\arduinoLCD\test\Pain Drain\libraries\lvgl\src\core\../misc/lv_anim.h ****  *                  E.g. lv_obj_set_x
 137:..\..\..\arduinoLCD\test\Pain Drain\libraries\lvgl\src\core\../misc/lv_anim.h ****  */
 138:..\..\..\arduinoLCD\test\Pain Drain\libraries\lvgl\src\core\../misc/lv_anim.h **** static inline void lv_anim_set_exec_cb(lv_anim_t * a, lv_anim_exec_xcb_t exec_cb)
 139:..\..\..\arduinoLCD\test\Pain Drain\libraries\lvgl\src\core\../misc/lv_anim.h **** {
 140:..\..\..\arduinoLCD\test\Pain Drain\libraries\lvgl\src\core\../misc/lv_anim.h ****     a->exec_cb = exec_cb;
 141:..\..\..\arduinoLCD\test\Pain Drain\libraries\lvgl\src\core\../misc/lv_anim.h **** }
 142:..\..\..\arduinoLCD\test\Pain Drain\libraries\lvgl\src\core\../misc/lv_anim.h **** 
 143:..\..\..\arduinoLCD\test\Pain Drain\libraries\lvgl\src\core\../misc/lv_anim.h **** /**
 144:..\..\..\arduinoLCD\test\Pain Drain\libraries\lvgl\src\core\../misc/lv_anim.h ****  * Set the duration of an animation
 145:..\..\..\arduinoLCD\test\Pain Drain\libraries\lvgl\src\core\../misc/lv_anim.h ****  * @param a         pointer to an initialized `lv_anim_t` variable
 146:..\..\..\arduinoLCD\test\Pain Drain\libraries\lvgl\src\core\../misc/lv_anim.h ****  * @param duration  duration of the animation in milliseconds
 147:..\..\..\arduinoLCD\test\Pain Drain\libraries\lvgl\src\core\../misc/lv_anim.h ****  */
 148:..\..\..\arduinoLCD\test\Pain Drain\libraries\lvgl\src\core\../misc/lv_anim.h **** static inline void lv_anim_set_time(lv_anim_t * a, uint32_t duration)
 149:..\..\..\arduinoLCD\test\Pain Drain\libraries\lvgl\src\core\../misc/lv_anim.h **** {
 150:..\..\..\arduinoLCD\test\Pain Drain\libraries\lvgl\src\core\../misc/lv_anim.h ****     a->time = duration;
 151:..\..\..\arduinoLCD\test\Pain Drain\libraries\lvgl\src\core\../misc/lv_anim.h **** }
 152:..\..\..\arduinoLCD\test\Pain Drain\libraries\lvgl\src\core\../misc/lv_anim.h **** 
 153:..\..\..\arduinoLCD\test\Pain Drain\libraries\lvgl\src\core\../misc/lv_anim.h **** /**
 154:..\..\..\arduinoLCD\test\Pain Drain\libraries\lvgl\src\core\../misc/lv_anim.h ****  * Set a delay before starting the animation
 155:..\..\..\arduinoLCD\test\Pain Drain\libraries\lvgl\src\core\../misc/lv_anim.h ****  * @param a         pointer to an initialized `lv_anim_t` variable
 156:..\..\..\arduinoLCD\test\Pain Drain\libraries\lvgl\src\core\../misc/lv_anim.h ****  * @param delay     delay before the animation in milliseconds
 157:..\..\..\arduinoLCD\test\Pain Drain\libraries\lvgl\src\core\../misc/lv_anim.h ****  */
 158:..\..\..\arduinoLCD\test\Pain Drain\libraries\lvgl\src\core\../misc/lv_anim.h **** static inline void lv_anim_set_delay(lv_anim_t * a, uint32_t delay)
 159:..\..\..\arduinoLCD\test\Pain Drain\libraries\lvgl\src\core\../misc/lv_anim.h **** {
 160:..\..\..\arduinoLCD\test\Pain Drain\libraries\lvgl\src\core\../misc/lv_anim.h ****     a->act_time = -(int32_t)(delay);
 161:..\..\..\arduinoLCD\test\Pain Drain\libraries\lvgl\src\core\../misc/lv_anim.h **** }
 162:..\..\..\arduinoLCD\test\Pain Drain\libraries\lvgl\src\core\../misc/lv_anim.h **** 
 163:..\..\..\arduinoLCD\test\Pain Drain\libraries\lvgl\src\core\../misc/lv_anim.h **** /**
 164:..\..\..\arduinoLCD\test\Pain Drain\libraries\lvgl\src\core\../misc/lv_anim.h ****  * Set the start and end values of an animation
 165:..\..\..\arduinoLCD\test\Pain Drain\libraries\lvgl\src\core\../misc/lv_anim.h ****  * @param a         pointer to an initialized `lv_anim_t` variable
 166:..\..\..\arduinoLCD\test\Pain Drain\libraries\lvgl\src\core\../misc/lv_anim.h ****  * @param start     the start value
 167:..\..\..\arduinoLCD\test\Pain Drain\libraries\lvgl\src\core\../misc/lv_anim.h ****  * @param end       the end value
 168:..\..\..\arduinoLCD\test\Pain Drain\libraries\lvgl\src\core\../misc/lv_anim.h ****  */
 169:..\..\..\arduinoLCD\test\Pain Drain\libraries\lvgl\src\core\../misc/lv_anim.h **** static inline void lv_anim_set_values(lv_anim_t * a, int32_t start, int32_t end)
 170:..\..\..\arduinoLCD\test\Pain Drain\libraries\lvgl\src\core\../misc/lv_anim.h **** {
 171:..\..\..\arduinoLCD\test\Pain Drain\libraries\lvgl\src\core\../misc/lv_anim.h ****     a->start_value = start;
 172:..\..\..\arduinoLCD\test\Pain Drain\libraries\lvgl\src\core\../misc/lv_anim.h ****     a->current_value = start;
 173:..\..\..\arduinoLCD\test\Pain Drain\libraries\lvgl\src\core\../misc/lv_anim.h ****     a->end_value = end;
 174:..\..\..\arduinoLCD\test\Pain Drain\libraries\lvgl\src\core\../misc/lv_anim.h **** }
 175:..\..\..\arduinoLCD\test\Pain Drain\libraries\lvgl\src\core\../misc/lv_anim.h **** 
 176:..\..\..\arduinoLCD\test\Pain Drain\libraries\lvgl\src\core\../misc/lv_anim.h **** /**
 177:..\..\..\arduinoLCD\test\Pain Drain\libraries\lvgl\src\core\../misc/lv_anim.h ****  * Similar to `lv_anim_set_exec_cb` but `lv_anim_custom_exec_cb_t` receives
 178:..\..\..\arduinoLCD\test\Pain Drain\libraries\lvgl\src\core\../misc/lv_anim.h ****  * `lv_anim_t * ` as its first parameter instead of `void *`.
 179:..\..\..\arduinoLCD\test\Pain Drain\libraries\lvgl\src\core\../misc/lv_anim.h ****  * This function might be used when LVGL is bound to other languages because
 180:..\..\..\arduinoLCD\test\Pain Drain\libraries\lvgl\src\core\../misc/lv_anim.h ****  * it's more consistent to have `lv_anim_t *` as first parameter.
 181:..\..\..\arduinoLCD\test\Pain Drain\libraries\lvgl\src\core\../misc/lv_anim.h ****  * The variable to animate can be stored in the animation's `user_data`
 182:..\..\..\arduinoLCD\test\Pain Drain\libraries\lvgl\src\core\../misc/lv_anim.h ****  * @param a         pointer to an initialized `lv_anim_t` variable
 183:..\..\..\arduinoLCD\test\Pain Drain\libraries\lvgl\src\core\../misc/lv_anim.h ****  * @param exec_cb   a function to execute.
 184:..\..\..\arduinoLCD\test\Pain Drain\libraries\lvgl\src\core\../misc/lv_anim.h ****  */
ARM GAS  C:\Users\haske\AppData\Local\Temp\ccFGDFhR.s 			page 53


 185:..\..\..\arduinoLCD\test\Pain Drain\libraries\lvgl\src\core\../misc/lv_anim.h **** static inline void lv_anim_set_custom_exec_cb(lv_anim_t * a, lv_anim_custom_exec_cb_t exec_cb)
 186:..\..\..\arduinoLCD\test\Pain Drain\libraries\lvgl\src\core\../misc/lv_anim.h **** {
 187:..\..\..\arduinoLCD\test\Pain Drain\libraries\lvgl\src\core\../misc/lv_anim.h ****     a->var     = a;
 188:..\..\..\arduinoLCD\test\Pain Drain\libraries\lvgl\src\core\../misc/lv_anim.h ****     a->exec_cb = (lv_anim_exec_xcb_t)exec_cb;
 189:..\..\..\arduinoLCD\test\Pain Drain\libraries\lvgl\src\core\../misc/lv_anim.h **** }
 190:..\..\..\arduinoLCD\test\Pain Drain\libraries\lvgl\src\core\../misc/lv_anim.h **** 
 191:..\..\..\arduinoLCD\test\Pain Drain\libraries\lvgl\src\core\../misc/lv_anim.h **** /**
 192:..\..\..\arduinoLCD\test\Pain Drain\libraries\lvgl\src\core\../misc/lv_anim.h ****  * Set the path (curve) of the animation.
 193:..\..\..\arduinoLCD\test\Pain Drain\libraries\lvgl\src\core\../misc/lv_anim.h ****  * @param a         pointer to an initialized `lv_anim_t` variable
 194:..\..\..\arduinoLCD\test\Pain Drain\libraries\lvgl\src\core\../misc/lv_anim.h ****  * @param path_cb a function to set the current value of the animation.
 195:..\..\..\arduinoLCD\test\Pain Drain\libraries\lvgl\src\core\../misc/lv_anim.h ****  */
 196:..\..\..\arduinoLCD\test\Pain Drain\libraries\lvgl\src\core\../misc/lv_anim.h **** static inline void lv_anim_set_path_cb(lv_anim_t * a, lv_anim_path_cb_t path_cb)
 197:..\..\..\arduinoLCD\test\Pain Drain\libraries\lvgl\src\core\../misc/lv_anim.h **** {
 198:..\..\..\arduinoLCD\test\Pain Drain\libraries\lvgl\src\core\../misc/lv_anim.h ****     a->path_cb = path_cb;
 199:..\..\..\arduinoLCD\test\Pain Drain\libraries\lvgl\src\core\../misc/lv_anim.h **** }
 200:..\..\..\arduinoLCD\test\Pain Drain\libraries\lvgl\src\core\../misc/lv_anim.h **** 
 201:..\..\..\arduinoLCD\test\Pain Drain\libraries\lvgl\src\core\../misc/lv_anim.h **** /**
 202:..\..\..\arduinoLCD\test\Pain Drain\libraries\lvgl\src\core\../misc/lv_anim.h ****  * Set a function call when the animation really starts (considering `delay`)
 203:..\..\..\arduinoLCD\test\Pain Drain\libraries\lvgl\src\core\../misc/lv_anim.h ****  * @param a         pointer to an initialized `lv_anim_t` variable
 204:..\..\..\arduinoLCD\test\Pain Drain\libraries\lvgl\src\core\../misc/lv_anim.h ****  * @param start_cb  a function call when the animation starts
 205:..\..\..\arduinoLCD\test\Pain Drain\libraries\lvgl\src\core\../misc/lv_anim.h ****  */
 206:..\..\..\arduinoLCD\test\Pain Drain\libraries\lvgl\src\core\../misc/lv_anim.h **** static inline void lv_anim_set_start_cb(lv_anim_t * a, lv_anim_start_cb_t start_cb)
 207:..\..\..\arduinoLCD\test\Pain Drain\libraries\lvgl\src\core\../misc/lv_anim.h **** {
 208:..\..\..\arduinoLCD\test\Pain Drain\libraries\lvgl\src\core\../misc/lv_anim.h ****     a->start_cb = start_cb;
 209:..\..\..\arduinoLCD\test\Pain Drain\libraries\lvgl\src\core\../misc/lv_anim.h **** }
 210:..\..\..\arduinoLCD\test\Pain Drain\libraries\lvgl\src\core\../misc/lv_anim.h **** 
 211:..\..\..\arduinoLCD\test\Pain Drain\libraries\lvgl\src\core\../misc/lv_anim.h **** /**
 212:..\..\..\arduinoLCD\test\Pain Drain\libraries\lvgl\src\core\../misc/lv_anim.h ****  * Set a function to use the current value of the variable and make start and end value
 213:..\..\..\arduinoLCD\test\Pain Drain\libraries\lvgl\src\core\../misc/lv_anim.h ****  * relative to the returned current value.
 214:..\..\..\arduinoLCD\test\Pain Drain\libraries\lvgl\src\core\../misc/lv_anim.h ****  * @param a             pointer to an initialized `lv_anim_t` variable
 215:..\..\..\arduinoLCD\test\Pain Drain\libraries\lvgl\src\core\../misc/lv_anim.h ****  * @param get_value_cb  a function call when the animation starts
 216:..\..\..\arduinoLCD\test\Pain Drain\libraries\lvgl\src\core\../misc/lv_anim.h ****  */
 217:..\..\..\arduinoLCD\test\Pain Drain\libraries\lvgl\src\core\../misc/lv_anim.h **** static inline void lv_anim_set_get_value_cb(lv_anim_t * a, lv_anim_get_value_cb_t get_value_cb)
 218:..\..\..\arduinoLCD\test\Pain Drain\libraries\lvgl\src\core\../misc/lv_anim.h **** {
