ARM GAS  C:\Users\haske\AppData\Local\Temp\ccLxalmh.s 			page 1


   1              		.syntax unified
   2              		.cpu cortex-m0plus
   3              		.fpu softvfp
   4              		.eabi_attribute 20, 1
   5              		.eabi_attribute 21, 1
   6              		.eabi_attribute 23, 3
   7              		.eabi_attribute 24, 1
   8              		.eabi_attribute 25, 1
   9              		.eabi_attribute 26, 1
  10              		.eabi_attribute 30, 1
  11              		.eabi_attribute 34, 0
  12              		.eabi_attribute 18, 4
  13              		.thumb
  14              		.syntax unified
  15              		.file	"lv_obj_style.c"
  16              		.text
  17              	.Ltext0:
  18              		.cfi_sections	.debug_frame
  19              		.section	.text.trans_del,"ax",%progbits
  20              		.align	2
  21              		.code	16
  22              		.thumb_func
  23              		.type	trans_del, %function
  24              	trans_del:
  25              	.LFB189:
  26              		.file 1 "..\\..\\..\\arduinoLCD\\test\\Pain Drain\\libraries\\lvgl\\src\\core\\lv_obj_style.c"
   1:..\..\..\arduinoLCD\test\Pain Drain\libraries\lvgl\src\core/lv_obj_style.c **** /**
   2:..\..\..\arduinoLCD\test\Pain Drain\libraries\lvgl\src\core/lv_obj_style.c ****  * @file lv_obj_style.c
   3:..\..\..\arduinoLCD\test\Pain Drain\libraries\lvgl\src\core/lv_obj_style.c ****  *
   4:..\..\..\arduinoLCD\test\Pain Drain\libraries\lvgl\src\core/lv_obj_style.c ****  */
   5:..\..\..\arduinoLCD\test\Pain Drain\libraries\lvgl\src\core/lv_obj_style.c **** 
   6:..\..\..\arduinoLCD\test\Pain Drain\libraries\lvgl\src\core/lv_obj_style.c **** /*********************
   7:..\..\..\arduinoLCD\test\Pain Drain\libraries\lvgl\src\core/lv_obj_style.c ****  *      INCLUDES
   8:..\..\..\arduinoLCD\test\Pain Drain\libraries\lvgl\src\core/lv_obj_style.c ****  *********************/
   9:..\..\..\arduinoLCD\test\Pain Drain\libraries\lvgl\src\core/lv_obj_style.c **** #include "lv_obj.h"
  10:..\..\..\arduinoLCD\test\Pain Drain\libraries\lvgl\src\core/lv_obj_style.c **** #include "lv_disp.h"
  11:..\..\..\arduinoLCD\test\Pain Drain\libraries\lvgl\src\core/lv_obj_style.c **** #include "../misc/lv_gc.h"
  12:..\..\..\arduinoLCD\test\Pain Drain\libraries\lvgl\src\core/lv_obj_style.c **** 
  13:..\..\..\arduinoLCD\test\Pain Drain\libraries\lvgl\src\core/lv_obj_style.c **** /*********************
  14:..\..\..\arduinoLCD\test\Pain Drain\libraries\lvgl\src\core/lv_obj_style.c ****  *      DEFINES
  15:..\..\..\arduinoLCD\test\Pain Drain\libraries\lvgl\src\core/lv_obj_style.c ****  *********************/
  16:..\..\..\arduinoLCD\test\Pain Drain\libraries\lvgl\src\core/lv_obj_style.c **** #define MY_CLASS &lv_obj_class
  17:..\..\..\arduinoLCD\test\Pain Drain\libraries\lvgl\src\core/lv_obj_style.c **** 
  18:..\..\..\arduinoLCD\test\Pain Drain\libraries\lvgl\src\core/lv_obj_style.c **** /**********************
  19:..\..\..\arduinoLCD\test\Pain Drain\libraries\lvgl\src\core/lv_obj_style.c ****  *      TYPEDEFS
  20:..\..\..\arduinoLCD\test\Pain Drain\libraries\lvgl\src\core/lv_obj_style.c ****  **********************/
  21:..\..\..\arduinoLCD\test\Pain Drain\libraries\lvgl\src\core/lv_obj_style.c **** 
  22:..\..\..\arduinoLCD\test\Pain Drain\libraries\lvgl\src\core/lv_obj_style.c **** typedef struct {
  23:..\..\..\arduinoLCD\test\Pain Drain\libraries\lvgl\src\core/lv_obj_style.c ****     lv_obj_t * obj;
  24:..\..\..\arduinoLCD\test\Pain Drain\libraries\lvgl\src\core/lv_obj_style.c ****     lv_style_prop_t prop;
  25:..\..\..\arduinoLCD\test\Pain Drain\libraries\lvgl\src\core/lv_obj_style.c ****     lv_style_selector_t selector;
  26:..\..\..\arduinoLCD\test\Pain Drain\libraries\lvgl\src\core/lv_obj_style.c ****     lv_style_value_t start_value;
  27:..\..\..\arduinoLCD\test\Pain Drain\libraries\lvgl\src\core/lv_obj_style.c ****     lv_style_value_t end_value;
  28:..\..\..\arduinoLCD\test\Pain Drain\libraries\lvgl\src\core/lv_obj_style.c **** } trans_t;
  29:..\..\..\arduinoLCD\test\Pain Drain\libraries\lvgl\src\core/lv_obj_style.c **** 
  30:..\..\..\arduinoLCD\test\Pain Drain\libraries\lvgl\src\core/lv_obj_style.c **** typedef enum {
  31:..\..\..\arduinoLCD\test\Pain Drain\libraries\lvgl\src\core/lv_obj_style.c ****     CACHE_ZERO = 0,
ARM GAS  C:\Users\haske\AppData\Local\Temp\ccLxalmh.s 			page 2


  32:..\..\..\arduinoLCD\test\Pain Drain\libraries\lvgl\src\core/lv_obj_style.c ****     CACHE_TRUE = 1,
  33:..\..\..\arduinoLCD\test\Pain Drain\libraries\lvgl\src\core/lv_obj_style.c ****     CACHE_UNSET = 2,
  34:..\..\..\arduinoLCD\test\Pain Drain\libraries\lvgl\src\core/lv_obj_style.c ****     CACHE_255 = 3,
  35:..\..\..\arduinoLCD\test\Pain Drain\libraries\lvgl\src\core/lv_obj_style.c ****     CACHE_NEED_CHECK = 4,
  36:..\..\..\arduinoLCD\test\Pain Drain\libraries\lvgl\src\core/lv_obj_style.c **** } cache_t;
  37:..\..\..\arduinoLCD\test\Pain Drain\libraries\lvgl\src\core/lv_obj_style.c **** 
  38:..\..\..\arduinoLCD\test\Pain Drain\libraries\lvgl\src\core/lv_obj_style.c **** /**********************
  39:..\..\..\arduinoLCD\test\Pain Drain\libraries\lvgl\src\core/lv_obj_style.c ****  *  GLOBAL PROTOTYPES
  40:..\..\..\arduinoLCD\test\Pain Drain\libraries\lvgl\src\core/lv_obj_style.c ****  **********************/
  41:..\..\..\arduinoLCD\test\Pain Drain\libraries\lvgl\src\core/lv_obj_style.c **** 
  42:..\..\..\arduinoLCD\test\Pain Drain\libraries\lvgl\src\core/lv_obj_style.c **** /**********************
  43:..\..\..\arduinoLCD\test\Pain Drain\libraries\lvgl\src\core/lv_obj_style.c ****  *  STATIC PROTOTYPES
  44:..\..\..\arduinoLCD\test\Pain Drain\libraries\lvgl\src\core/lv_obj_style.c ****  **********************/
  45:..\..\..\arduinoLCD\test\Pain Drain\libraries\lvgl\src\core/lv_obj_style.c **** static lv_style_t * get_local_style(lv_obj_t * obj, lv_style_selector_t selector);
  46:..\..\..\arduinoLCD\test\Pain Drain\libraries\lvgl\src\core/lv_obj_style.c **** static _lv_obj_style_t * get_trans_style(lv_obj_t * obj, uint32_t part);
  47:..\..\..\arduinoLCD\test\Pain Drain\libraries\lvgl\src\core/lv_obj_style.c **** static lv_style_res_t get_prop_core(const lv_obj_t * obj, lv_part_t part, lv_style_prop_t prop, lv_
  48:..\..\..\arduinoLCD\test\Pain Drain\libraries\lvgl\src\core/lv_obj_style.c **** static void report_style_change_core(void * style, lv_obj_t * obj);
  49:..\..\..\arduinoLCD\test\Pain Drain\libraries\lvgl\src\core/lv_obj_style.c **** static void refresh_children_style(lv_obj_t * obj);
  50:..\..\..\arduinoLCD\test\Pain Drain\libraries\lvgl\src\core/lv_obj_style.c **** static bool trans_del(lv_obj_t * obj, lv_part_t part, lv_style_prop_t prop, trans_t * tr_limit);
  51:..\..\..\arduinoLCD\test\Pain Drain\libraries\lvgl\src\core/lv_obj_style.c **** static void trans_anim_cb(void * _tr, int32_t v);
  52:..\..\..\arduinoLCD\test\Pain Drain\libraries\lvgl\src\core/lv_obj_style.c **** static void trans_anim_start_cb(lv_anim_t * a);
  53:..\..\..\arduinoLCD\test\Pain Drain\libraries\lvgl\src\core/lv_obj_style.c **** static void trans_anim_ready_cb(lv_anim_t * a);
  54:..\..\..\arduinoLCD\test\Pain Drain\libraries\lvgl\src\core/lv_obj_style.c **** static lv_layer_type_t calculate_layer_type(lv_obj_t * obj);
  55:..\..\..\arduinoLCD\test\Pain Drain\libraries\lvgl\src\core/lv_obj_style.c **** static void fade_anim_cb(void * obj, int32_t v);
  56:..\..\..\arduinoLCD\test\Pain Drain\libraries\lvgl\src\core/lv_obj_style.c **** static void fade_in_anim_ready(lv_anim_t * a);
  57:..\..\..\arduinoLCD\test\Pain Drain\libraries\lvgl\src\core/lv_obj_style.c **** 
  58:..\..\..\arduinoLCD\test\Pain Drain\libraries\lvgl\src\core/lv_obj_style.c **** /**********************
  59:..\..\..\arduinoLCD\test\Pain Drain\libraries\lvgl\src\core/lv_obj_style.c ****  *  STATIC VARIABLES
  60:..\..\..\arduinoLCD\test\Pain Drain\libraries\lvgl\src\core/lv_obj_style.c ****  **********************/
  61:..\..\..\arduinoLCD\test\Pain Drain\libraries\lvgl\src\core/lv_obj_style.c **** static bool style_refr = true;
  62:..\..\..\arduinoLCD\test\Pain Drain\libraries\lvgl\src\core/lv_obj_style.c **** 
  63:..\..\..\arduinoLCD\test\Pain Drain\libraries\lvgl\src\core/lv_obj_style.c **** /**********************
  64:..\..\..\arduinoLCD\test\Pain Drain\libraries\lvgl\src\core/lv_obj_style.c ****  *      MACROS
  65:..\..\..\arduinoLCD\test\Pain Drain\libraries\lvgl\src\core/lv_obj_style.c ****  **********************/
  66:..\..\..\arduinoLCD\test\Pain Drain\libraries\lvgl\src\core/lv_obj_style.c **** 
  67:..\..\..\arduinoLCD\test\Pain Drain\libraries\lvgl\src\core/lv_obj_style.c **** /**********************
  68:..\..\..\arduinoLCD\test\Pain Drain\libraries\lvgl\src\core/lv_obj_style.c ****  *   GLOBAL FUNCTIONS
  69:..\..\..\arduinoLCD\test\Pain Drain\libraries\lvgl\src\core/lv_obj_style.c ****  **********************/
  70:..\..\..\arduinoLCD\test\Pain Drain\libraries\lvgl\src\core/lv_obj_style.c **** 
  71:..\..\..\arduinoLCD\test\Pain Drain\libraries\lvgl\src\core/lv_obj_style.c **** void _lv_obj_style_init(void)
  72:..\..\..\arduinoLCD\test\Pain Drain\libraries\lvgl\src\core/lv_obj_style.c **** {
  73:..\..\..\arduinoLCD\test\Pain Drain\libraries\lvgl\src\core/lv_obj_style.c ****     _lv_ll_init(&LV_GC_ROOT(_lv_obj_style_trans_ll), sizeof(trans_t));
  74:..\..\..\arduinoLCD\test\Pain Drain\libraries\lvgl\src\core/lv_obj_style.c **** }
  75:..\..\..\arduinoLCD\test\Pain Drain\libraries\lvgl\src\core/lv_obj_style.c **** 
  76:..\..\..\arduinoLCD\test\Pain Drain\libraries\lvgl\src\core/lv_obj_style.c **** void lv_obj_add_style(lv_obj_t * obj, lv_style_t * style, lv_style_selector_t selector)
  77:..\..\..\arduinoLCD\test\Pain Drain\libraries\lvgl\src\core/lv_obj_style.c **** {
  78:..\..\..\arduinoLCD\test\Pain Drain\libraries\lvgl\src\core/lv_obj_style.c ****     trans_del(obj, selector, LV_STYLE_PROP_ANY, NULL);
  79:..\..\..\arduinoLCD\test\Pain Drain\libraries\lvgl\src\core/lv_obj_style.c **** 
  80:..\..\..\arduinoLCD\test\Pain Drain\libraries\lvgl\src\core/lv_obj_style.c ****     uint32_t i;
  81:..\..\..\arduinoLCD\test\Pain Drain\libraries\lvgl\src\core/lv_obj_style.c ****     /*Go after the transition and local styles*/
  82:..\..\..\arduinoLCD\test\Pain Drain\libraries\lvgl\src\core/lv_obj_style.c ****     for(i = 0; i < obj->style_cnt; i++) {
  83:..\..\..\arduinoLCD\test\Pain Drain\libraries\lvgl\src\core/lv_obj_style.c ****         if(obj->styles[i].is_trans) continue;
  84:..\..\..\arduinoLCD\test\Pain Drain\libraries\lvgl\src\core/lv_obj_style.c ****         if(obj->styles[i].is_local) continue;
  85:..\..\..\arduinoLCD\test\Pain Drain\libraries\lvgl\src\core/lv_obj_style.c ****         break;
  86:..\..\..\arduinoLCD\test\Pain Drain\libraries\lvgl\src\core/lv_obj_style.c ****     }
  87:..\..\..\arduinoLCD\test\Pain Drain\libraries\lvgl\src\core/lv_obj_style.c **** 
  88:..\..\..\arduinoLCD\test\Pain Drain\libraries\lvgl\src\core/lv_obj_style.c ****     /*Now `i` is at the first normal style. Insert the new style before this*/
ARM GAS  C:\Users\haske\AppData\Local\Temp\ccLxalmh.s 			page 3


  89:..\..\..\arduinoLCD\test\Pain Drain\libraries\lvgl\src\core/lv_obj_style.c **** 
  90:..\..\..\arduinoLCD\test\Pain Drain\libraries\lvgl\src\core/lv_obj_style.c ****     /*Allocate space for the new style and shift the rest of the style to the end*/
  91:..\..\..\arduinoLCD\test\Pain Drain\libraries\lvgl\src\core/lv_obj_style.c ****     obj->style_cnt++;
  92:..\..\..\arduinoLCD\test\Pain Drain\libraries\lvgl\src\core/lv_obj_style.c ****     obj->styles = lv_mem_realloc(obj->styles, obj->style_cnt * sizeof(_lv_obj_style_t));
  93:..\..\..\arduinoLCD\test\Pain Drain\libraries\lvgl\src\core/lv_obj_style.c **** 
  94:..\..\..\arduinoLCD\test\Pain Drain\libraries\lvgl\src\core/lv_obj_style.c ****     uint32_t j;
  95:..\..\..\arduinoLCD\test\Pain Drain\libraries\lvgl\src\core/lv_obj_style.c ****     for(j = obj->style_cnt - 1; j > i ; j--) {
  96:..\..\..\arduinoLCD\test\Pain Drain\libraries\lvgl\src\core/lv_obj_style.c ****         obj->styles[j] = obj->styles[j - 1];
  97:..\..\..\arduinoLCD\test\Pain Drain\libraries\lvgl\src\core/lv_obj_style.c ****     }
  98:..\..\..\arduinoLCD\test\Pain Drain\libraries\lvgl\src\core/lv_obj_style.c **** 
  99:..\..\..\arduinoLCD\test\Pain Drain\libraries\lvgl\src\core/lv_obj_style.c ****     lv_memset_00(&obj->styles[i], sizeof(_lv_obj_style_t));
 100:..\..\..\arduinoLCD\test\Pain Drain\libraries\lvgl\src\core/lv_obj_style.c ****     obj->styles[i].style = style;
 101:..\..\..\arduinoLCD\test\Pain Drain\libraries\lvgl\src\core/lv_obj_style.c ****     obj->styles[i].selector = selector;
 102:..\..\..\arduinoLCD\test\Pain Drain\libraries\lvgl\src\core/lv_obj_style.c **** 
 103:..\..\..\arduinoLCD\test\Pain Drain\libraries\lvgl\src\core/lv_obj_style.c ****     lv_obj_refresh_style(obj, selector, LV_STYLE_PROP_ANY);
 104:..\..\..\arduinoLCD\test\Pain Drain\libraries\lvgl\src\core/lv_obj_style.c **** }
 105:..\..\..\arduinoLCD\test\Pain Drain\libraries\lvgl\src\core/lv_obj_style.c **** 
 106:..\..\..\arduinoLCD\test\Pain Drain\libraries\lvgl\src\core/lv_obj_style.c **** void lv_obj_remove_style(lv_obj_t * obj, lv_style_t * style, lv_style_selector_t selector)
 107:..\..\..\arduinoLCD\test\Pain Drain\libraries\lvgl\src\core/lv_obj_style.c **** {
 108:..\..\..\arduinoLCD\test\Pain Drain\libraries\lvgl\src\core/lv_obj_style.c ****     lv_state_t state = lv_obj_style_get_selector_state(selector);
 109:..\..\..\arduinoLCD\test\Pain Drain\libraries\lvgl\src\core/lv_obj_style.c ****     lv_part_t part = lv_obj_style_get_selector_part(selector);
 110:..\..\..\arduinoLCD\test\Pain Drain\libraries\lvgl\src\core/lv_obj_style.c ****     lv_style_prop_t prop = LV_STYLE_PROP_ANY;
 111:..\..\..\arduinoLCD\test\Pain Drain\libraries\lvgl\src\core/lv_obj_style.c ****     if(style && style->prop_cnt == 0) prop = LV_STYLE_PROP_INV;
 112:..\..\..\arduinoLCD\test\Pain Drain\libraries\lvgl\src\core/lv_obj_style.c **** 
 113:..\..\..\arduinoLCD\test\Pain Drain\libraries\lvgl\src\core/lv_obj_style.c ****     uint32_t i = 0;
 114:..\..\..\arduinoLCD\test\Pain Drain\libraries\lvgl\src\core/lv_obj_style.c ****     bool deleted = false;
 115:..\..\..\arduinoLCD\test\Pain Drain\libraries\lvgl\src\core/lv_obj_style.c ****     while(i <  obj->style_cnt) {
 116:..\..\..\arduinoLCD\test\Pain Drain\libraries\lvgl\src\core/lv_obj_style.c ****         lv_state_t state_act = lv_obj_style_get_selector_state(obj->styles[i].selector);
 117:..\..\..\arduinoLCD\test\Pain Drain\libraries\lvgl\src\core/lv_obj_style.c ****         lv_part_t part_act = lv_obj_style_get_selector_part(obj->styles[i].selector);
 118:..\..\..\arduinoLCD\test\Pain Drain\libraries\lvgl\src\core/lv_obj_style.c ****         if((state != LV_STATE_ANY && state_act != state) ||
 119:..\..\..\arduinoLCD\test\Pain Drain\libraries\lvgl\src\core/lv_obj_style.c ****            (part != LV_PART_ANY && part_act != part) ||
 120:..\..\..\arduinoLCD\test\Pain Drain\libraries\lvgl\src\core/lv_obj_style.c ****            (style != NULL && style != obj->styles[i].style)) {
 121:..\..\..\arduinoLCD\test\Pain Drain\libraries\lvgl\src\core/lv_obj_style.c ****             i++;
 122:..\..\..\arduinoLCD\test\Pain Drain\libraries\lvgl\src\core/lv_obj_style.c ****             continue;
 123:..\..\..\arduinoLCD\test\Pain Drain\libraries\lvgl\src\core/lv_obj_style.c ****         }
 124:..\..\..\arduinoLCD\test\Pain Drain\libraries\lvgl\src\core/lv_obj_style.c **** 
 125:..\..\..\arduinoLCD\test\Pain Drain\libraries\lvgl\src\core/lv_obj_style.c ****         if(obj->styles[i].is_trans) {
 126:..\..\..\arduinoLCD\test\Pain Drain\libraries\lvgl\src\core/lv_obj_style.c ****             trans_del(obj, part, LV_STYLE_PROP_ANY, NULL);
 127:..\..\..\arduinoLCD\test\Pain Drain\libraries\lvgl\src\core/lv_obj_style.c ****         }
 128:..\..\..\arduinoLCD\test\Pain Drain\libraries\lvgl\src\core/lv_obj_style.c **** 
 129:..\..\..\arduinoLCD\test\Pain Drain\libraries\lvgl\src\core/lv_obj_style.c ****         if(obj->styles[i].is_local || obj->styles[i].is_trans) {
 130:..\..\..\arduinoLCD\test\Pain Drain\libraries\lvgl\src\core/lv_obj_style.c ****             lv_style_reset(obj->styles[i].style);
 131:..\..\..\arduinoLCD\test\Pain Drain\libraries\lvgl\src\core/lv_obj_style.c ****             lv_mem_free(obj->styles[i].style);
 132:..\..\..\arduinoLCD\test\Pain Drain\libraries\lvgl\src\core/lv_obj_style.c ****             obj->styles[i].style = NULL;
 133:..\..\..\arduinoLCD\test\Pain Drain\libraries\lvgl\src\core/lv_obj_style.c ****         }
 134:..\..\..\arduinoLCD\test\Pain Drain\libraries\lvgl\src\core/lv_obj_style.c **** 
 135:..\..\..\arduinoLCD\test\Pain Drain\libraries\lvgl\src\core/lv_obj_style.c ****         /*Shift the styles after `i` by one*/
 136:..\..\..\arduinoLCD\test\Pain Drain\libraries\lvgl\src\core/lv_obj_style.c ****         uint32_t j;
 137:..\..\..\arduinoLCD\test\Pain Drain\libraries\lvgl\src\core/lv_obj_style.c ****         for(j = i; j < (uint32_t)obj->style_cnt - 1 ; j++) {
 138:..\..\..\arduinoLCD\test\Pain Drain\libraries\lvgl\src\core/lv_obj_style.c ****             obj->styles[j] = obj->styles[j + 1];
 139:..\..\..\arduinoLCD\test\Pain Drain\libraries\lvgl\src\core/lv_obj_style.c ****         }
 140:..\..\..\arduinoLCD\test\Pain Drain\libraries\lvgl\src\core/lv_obj_style.c **** 
 141:..\..\..\arduinoLCD\test\Pain Drain\libraries\lvgl\src\core/lv_obj_style.c ****         obj->style_cnt--;
 142:..\..\..\arduinoLCD\test\Pain Drain\libraries\lvgl\src\core/lv_obj_style.c ****         obj->styles = lv_mem_realloc(obj->styles, obj->style_cnt * sizeof(_lv_obj_style_t));
 143:..\..\..\arduinoLCD\test\Pain Drain\libraries\lvgl\src\core/lv_obj_style.c **** 
 144:..\..\..\arduinoLCD\test\Pain Drain\libraries\lvgl\src\core/lv_obj_style.c ****         deleted = true;
 145:..\..\..\arduinoLCD\test\Pain Drain\libraries\lvgl\src\core/lv_obj_style.c ****         /*The style from the current `i` index is removed, so `i` points to the next style.
ARM GAS  C:\Users\haske\AppData\Local\Temp\ccLxalmh.s 			page 4


 146:..\..\..\arduinoLCD\test\Pain Drain\libraries\lvgl\src\core/lv_obj_style.c ****          *Therefore it doesn't needs to be incremented*/
 147:..\..\..\arduinoLCD\test\Pain Drain\libraries\lvgl\src\core/lv_obj_style.c ****     }
 148:..\..\..\arduinoLCD\test\Pain Drain\libraries\lvgl\src\core/lv_obj_style.c ****     if(deleted && prop != LV_STYLE_PROP_INV) {
 149:..\..\..\arduinoLCD\test\Pain Drain\libraries\lvgl\src\core/lv_obj_style.c ****         lv_obj_refresh_style(obj, part, prop);
 150:..\..\..\arduinoLCD\test\Pain Drain\libraries\lvgl\src\core/lv_obj_style.c ****     }
 151:..\..\..\arduinoLCD\test\Pain Drain\libraries\lvgl\src\core/lv_obj_style.c **** }
 152:..\..\..\arduinoLCD\test\Pain Drain\libraries\lvgl\src\core/lv_obj_style.c **** 
 153:..\..\..\arduinoLCD\test\Pain Drain\libraries\lvgl\src\core/lv_obj_style.c **** void lv_obj_report_style_change(lv_style_t * style)
 154:..\..\..\arduinoLCD\test\Pain Drain\libraries\lvgl\src\core/lv_obj_style.c **** {
 155:..\..\..\arduinoLCD\test\Pain Drain\libraries\lvgl\src\core/lv_obj_style.c ****     if(!style_refr) return;
 156:..\..\..\arduinoLCD\test\Pain Drain\libraries\lvgl\src\core/lv_obj_style.c ****     lv_disp_t * d = lv_disp_get_next(NULL);
 157:..\..\..\arduinoLCD\test\Pain Drain\libraries\lvgl\src\core/lv_obj_style.c **** 
 158:..\..\..\arduinoLCD\test\Pain Drain\libraries\lvgl\src\core/lv_obj_style.c ****     while(d) {
 159:..\..\..\arduinoLCD\test\Pain Drain\libraries\lvgl\src\core/lv_obj_style.c ****         uint32_t i;
 160:..\..\..\arduinoLCD\test\Pain Drain\libraries\lvgl\src\core/lv_obj_style.c ****         for(i = 0; i < d->screen_cnt; i++) {
 161:..\..\..\arduinoLCD\test\Pain Drain\libraries\lvgl\src\core/lv_obj_style.c ****             report_style_change_core(style, d->screens[i]);
 162:..\..\..\arduinoLCD\test\Pain Drain\libraries\lvgl\src\core/lv_obj_style.c ****         }
 163:..\..\..\arduinoLCD\test\Pain Drain\libraries\lvgl\src\core/lv_obj_style.c ****         d = lv_disp_get_next(d);
 164:..\..\..\arduinoLCD\test\Pain Drain\libraries\lvgl\src\core/lv_obj_style.c ****     }
 165:..\..\..\arduinoLCD\test\Pain Drain\libraries\lvgl\src\core/lv_obj_style.c **** }
 166:..\..\..\arduinoLCD\test\Pain Drain\libraries\lvgl\src\core/lv_obj_style.c **** 
 167:..\..\..\arduinoLCD\test\Pain Drain\libraries\lvgl\src\core/lv_obj_style.c **** void lv_obj_refresh_style(lv_obj_t * obj, lv_style_selector_t selector, lv_style_prop_t prop)
 168:..\..\..\arduinoLCD\test\Pain Drain\libraries\lvgl\src\core/lv_obj_style.c **** {
 169:..\..\..\arduinoLCD\test\Pain Drain\libraries\lvgl\src\core/lv_obj_style.c ****     LV_ASSERT_OBJ(obj, MY_CLASS);
 170:..\..\..\arduinoLCD\test\Pain Drain\libraries\lvgl\src\core/lv_obj_style.c **** 
 171:..\..\..\arduinoLCD\test\Pain Drain\libraries\lvgl\src\core/lv_obj_style.c ****     if(!style_refr) return;
 172:..\..\..\arduinoLCD\test\Pain Drain\libraries\lvgl\src\core/lv_obj_style.c **** 
 173:..\..\..\arduinoLCD\test\Pain Drain\libraries\lvgl\src\core/lv_obj_style.c ****     lv_obj_invalidate(obj);
 174:..\..\..\arduinoLCD\test\Pain Drain\libraries\lvgl\src\core/lv_obj_style.c **** 
 175:..\..\..\arduinoLCD\test\Pain Drain\libraries\lvgl\src\core/lv_obj_style.c ****     lv_part_t part = lv_obj_style_get_selector_part(selector);
 176:..\..\..\arduinoLCD\test\Pain Drain\libraries\lvgl\src\core/lv_obj_style.c **** 
 177:..\..\..\arduinoLCD\test\Pain Drain\libraries\lvgl\src\core/lv_obj_style.c ****     bool is_layout_refr = lv_style_prop_has_flag(prop, LV_STYLE_PROP_LAYOUT_REFR);
 178:..\..\..\arduinoLCD\test\Pain Drain\libraries\lvgl\src\core/lv_obj_style.c ****     bool is_ext_draw = lv_style_prop_has_flag(prop, LV_STYLE_PROP_EXT_DRAW);
 179:..\..\..\arduinoLCD\test\Pain Drain\libraries\lvgl\src\core/lv_obj_style.c ****     bool is_inheritable = lv_style_prop_has_flag(prop, LV_STYLE_PROP_INHERIT);
 180:..\..\..\arduinoLCD\test\Pain Drain\libraries\lvgl\src\core/lv_obj_style.c ****     bool is_layer_refr = lv_style_prop_has_flag(prop, LV_STYLE_PROP_LAYER_REFR);
 181:..\..\..\arduinoLCD\test\Pain Drain\libraries\lvgl\src\core/lv_obj_style.c **** 
 182:..\..\..\arduinoLCD\test\Pain Drain\libraries\lvgl\src\core/lv_obj_style.c ****     if(is_layout_refr) {
 183:..\..\..\arduinoLCD\test\Pain Drain\libraries\lvgl\src\core/lv_obj_style.c ****         if(part == LV_PART_ANY ||
 184:..\..\..\arduinoLCD\test\Pain Drain\libraries\lvgl\src\core/lv_obj_style.c ****            part == LV_PART_MAIN ||
 185:..\..\..\arduinoLCD\test\Pain Drain\libraries\lvgl\src\core/lv_obj_style.c ****            lv_obj_get_style_height(obj, 0) == LV_SIZE_CONTENT ||
 186:..\..\..\arduinoLCD\test\Pain Drain\libraries\lvgl\src\core/lv_obj_style.c ****            lv_obj_get_style_width(obj, 0) == LV_SIZE_CONTENT) {
 187:..\..\..\arduinoLCD\test\Pain Drain\libraries\lvgl\src\core/lv_obj_style.c ****             lv_event_send(obj, LV_EVENT_STYLE_CHANGED, NULL);
 188:..\..\..\arduinoLCD\test\Pain Drain\libraries\lvgl\src\core/lv_obj_style.c ****             lv_obj_mark_layout_as_dirty(obj);
 189:..\..\..\arduinoLCD\test\Pain Drain\libraries\lvgl\src\core/lv_obj_style.c ****         }
 190:..\..\..\arduinoLCD\test\Pain Drain\libraries\lvgl\src\core/lv_obj_style.c ****     }
 191:..\..\..\arduinoLCD\test\Pain Drain\libraries\lvgl\src\core/lv_obj_style.c ****     if((part == LV_PART_ANY || part == LV_PART_MAIN) && (prop == LV_STYLE_PROP_ANY || is_layout_ref
 192:..\..\..\arduinoLCD\test\Pain Drain\libraries\lvgl\src\core/lv_obj_style.c ****         lv_obj_t * parent = lv_obj_get_parent(obj);
 193:..\..\..\arduinoLCD\test\Pain Drain\libraries\lvgl\src\core/lv_obj_style.c ****         if(parent) lv_obj_mark_layout_as_dirty(parent);
 194:..\..\..\arduinoLCD\test\Pain Drain\libraries\lvgl\src\core/lv_obj_style.c ****     }
 195:..\..\..\arduinoLCD\test\Pain Drain\libraries\lvgl\src\core/lv_obj_style.c **** 
 196:..\..\..\arduinoLCD\test\Pain Drain\libraries\lvgl\src\core/lv_obj_style.c ****     /*Cache the layer type*/
 197:..\..\..\arduinoLCD\test\Pain Drain\libraries\lvgl\src\core/lv_obj_style.c ****     if((part == LV_PART_ANY || part == LV_PART_MAIN) && is_layer_refr) {
 198:..\..\..\arduinoLCD\test\Pain Drain\libraries\lvgl\src\core/lv_obj_style.c ****         lv_layer_type_t layer_type = calculate_layer_type(obj);
 199:..\..\..\arduinoLCD\test\Pain Drain\libraries\lvgl\src\core/lv_obj_style.c ****         if(obj->spec_attr) obj->spec_attr->layer_type = layer_type;
 200:..\..\..\arduinoLCD\test\Pain Drain\libraries\lvgl\src\core/lv_obj_style.c ****         else if(layer_type != LV_LAYER_TYPE_NONE) {
 201:..\..\..\arduinoLCD\test\Pain Drain\libraries\lvgl\src\core/lv_obj_style.c ****             lv_obj_allocate_spec_attr(obj);
 202:..\..\..\arduinoLCD\test\Pain Drain\libraries\lvgl\src\core/lv_obj_style.c ****             obj->spec_attr->layer_type = layer_type;
ARM GAS  C:\Users\haske\AppData\Local\Temp\ccLxalmh.s 			page 5


 203:..\..\..\arduinoLCD\test\Pain Drain\libraries\lvgl\src\core/lv_obj_style.c ****         }
 204:..\..\..\arduinoLCD\test\Pain Drain\libraries\lvgl\src\core/lv_obj_style.c ****     }
 205:..\..\..\arduinoLCD\test\Pain Drain\libraries\lvgl\src\core/lv_obj_style.c **** 
 206:..\..\..\arduinoLCD\test\Pain Drain\libraries\lvgl\src\core/lv_obj_style.c ****     if(prop == LV_STYLE_PROP_ANY || is_ext_draw) {
 207:..\..\..\arduinoLCD\test\Pain Drain\libraries\lvgl\src\core/lv_obj_style.c ****         lv_obj_refresh_ext_draw_size(obj);
 208:..\..\..\arduinoLCD\test\Pain Drain\libraries\lvgl\src\core/lv_obj_style.c ****     }
 209:..\..\..\arduinoLCD\test\Pain Drain\libraries\lvgl\src\core/lv_obj_style.c ****     lv_obj_invalidate(obj);
 210:..\..\..\arduinoLCD\test\Pain Drain\libraries\lvgl\src\core/lv_obj_style.c **** 
 211:..\..\..\arduinoLCD\test\Pain Drain\libraries\lvgl\src\core/lv_obj_style.c ****     if(prop == LV_STYLE_PROP_ANY || (is_inheritable && (is_ext_draw || is_layout_refr))) {
 212:..\..\..\arduinoLCD\test\Pain Drain\libraries\lvgl\src\core/lv_obj_style.c ****         if(part != LV_PART_SCROLLBAR) {
 213:..\..\..\arduinoLCD\test\Pain Drain\libraries\lvgl\src\core/lv_obj_style.c ****             refresh_children_style(obj);
 214:..\..\..\arduinoLCD\test\Pain Drain\libraries\lvgl\src\core/lv_obj_style.c ****         }
 215:..\..\..\arduinoLCD\test\Pain Drain\libraries\lvgl\src\core/lv_obj_style.c ****     }
 216:..\..\..\arduinoLCD\test\Pain Drain\libraries\lvgl\src\core/lv_obj_style.c **** }
 217:..\..\..\arduinoLCD\test\Pain Drain\libraries\lvgl\src\core/lv_obj_style.c **** 
 218:..\..\..\arduinoLCD\test\Pain Drain\libraries\lvgl\src\core/lv_obj_style.c **** void lv_obj_enable_style_refresh(bool en)
 219:..\..\..\arduinoLCD\test\Pain Drain\libraries\lvgl\src\core/lv_obj_style.c **** {
 220:..\..\..\arduinoLCD\test\Pain Drain\libraries\lvgl\src\core/lv_obj_style.c ****     style_refr = en;
 221:..\..\..\arduinoLCD\test\Pain Drain\libraries\lvgl\src\core/lv_obj_style.c **** }
 222:..\..\..\arduinoLCD\test\Pain Drain\libraries\lvgl\src\core/lv_obj_style.c **** 
 223:..\..\..\arduinoLCD\test\Pain Drain\libraries\lvgl\src\core/lv_obj_style.c **** lv_style_value_t lv_obj_get_style_prop(const lv_obj_t * obj, lv_part_t part, lv_style_prop_t prop)
 224:..\..\..\arduinoLCD\test\Pain Drain\libraries\lvgl\src\core/lv_obj_style.c **** {
 225:..\..\..\arduinoLCD\test\Pain Drain\libraries\lvgl\src\core/lv_obj_style.c ****     lv_style_value_t value_act;
 226:..\..\..\arduinoLCD\test\Pain Drain\libraries\lvgl\src\core/lv_obj_style.c ****     bool inheritable = lv_style_prop_has_flag(prop, LV_STYLE_PROP_INHERIT);
 227:..\..\..\arduinoLCD\test\Pain Drain\libraries\lvgl\src\core/lv_obj_style.c ****     lv_style_res_t found = LV_STYLE_RES_NOT_FOUND;
 228:..\..\..\arduinoLCD\test\Pain Drain\libraries\lvgl\src\core/lv_obj_style.c ****     while(obj) {
 229:..\..\..\arduinoLCD\test\Pain Drain\libraries\lvgl\src\core/lv_obj_style.c ****         found = get_prop_core(obj, part, prop, &value_act);
 230:..\..\..\arduinoLCD\test\Pain Drain\libraries\lvgl\src\core/lv_obj_style.c ****         if(found == LV_STYLE_RES_FOUND) break;
 231:..\..\..\arduinoLCD\test\Pain Drain\libraries\lvgl\src\core/lv_obj_style.c ****         if(!inheritable) break;
 232:..\..\..\arduinoLCD\test\Pain Drain\libraries\lvgl\src\core/lv_obj_style.c **** 
 233:..\..\..\arduinoLCD\test\Pain Drain\libraries\lvgl\src\core/lv_obj_style.c ****         /*If not found, check the `MAIN` style first*/
 234:..\..\..\arduinoLCD\test\Pain Drain\libraries\lvgl\src\core/lv_obj_style.c ****         if(found != LV_STYLE_RES_INHERIT && part != LV_PART_MAIN) {
 235:..\..\..\arduinoLCD\test\Pain Drain\libraries\lvgl\src\core/lv_obj_style.c ****             part = LV_PART_MAIN;
 236:..\..\..\arduinoLCD\test\Pain Drain\libraries\lvgl\src\core/lv_obj_style.c ****             continue;
 237:..\..\..\arduinoLCD\test\Pain Drain\libraries\lvgl\src\core/lv_obj_style.c ****         }
 238:..\..\..\arduinoLCD\test\Pain Drain\libraries\lvgl\src\core/lv_obj_style.c **** 
 239:..\..\..\arduinoLCD\test\Pain Drain\libraries\lvgl\src\core/lv_obj_style.c ****         /*Check the parent too.*/
 240:..\..\..\arduinoLCD\test\Pain Drain\libraries\lvgl\src\core/lv_obj_style.c ****         obj = lv_obj_get_parent(obj);
 241:..\..\..\arduinoLCD\test\Pain Drain\libraries\lvgl\src\core/lv_obj_style.c ****     }
 242:..\..\..\arduinoLCD\test\Pain Drain\libraries\lvgl\src\core/lv_obj_style.c **** 
 243:..\..\..\arduinoLCD\test\Pain Drain\libraries\lvgl\src\core/lv_obj_style.c ****     if(found != LV_STYLE_RES_FOUND) {
 244:..\..\..\arduinoLCD\test\Pain Drain\libraries\lvgl\src\core/lv_obj_style.c ****         if(part == LV_PART_MAIN && (prop == LV_STYLE_WIDTH || prop == LV_STYLE_HEIGHT)) {
 245:..\..\..\arduinoLCD\test\Pain Drain\libraries\lvgl\src\core/lv_obj_style.c ****             const lv_obj_class_t * cls = obj->class_p;
 246:..\..\..\arduinoLCD\test\Pain Drain\libraries\lvgl\src\core/lv_obj_style.c ****             while(cls) {
 247:..\..\..\arduinoLCD\test\Pain Drain\libraries\lvgl\src\core/lv_obj_style.c ****                 if(prop == LV_STYLE_WIDTH) {
 248:..\..\..\arduinoLCD\test\Pain Drain\libraries\lvgl\src\core/lv_obj_style.c ****                     if(cls->width_def != 0) break;
 249:..\..\..\arduinoLCD\test\Pain Drain\libraries\lvgl\src\core/lv_obj_style.c ****                 }
 250:..\..\..\arduinoLCD\test\Pain Drain\libraries\lvgl\src\core/lv_obj_style.c ****                 else {
 251:..\..\..\arduinoLCD\test\Pain Drain\libraries\lvgl\src\core/lv_obj_style.c ****                     if(cls->height_def != 0) break;
 252:..\..\..\arduinoLCD\test\Pain Drain\libraries\lvgl\src\core/lv_obj_style.c ****                 }
 253:..\..\..\arduinoLCD\test\Pain Drain\libraries\lvgl\src\core/lv_obj_style.c ****                 cls = cls->base_class;
 254:..\..\..\arduinoLCD\test\Pain Drain\libraries\lvgl\src\core/lv_obj_style.c ****             }
 255:..\..\..\arduinoLCD\test\Pain Drain\libraries\lvgl\src\core/lv_obj_style.c **** 
 256:..\..\..\arduinoLCD\test\Pain Drain\libraries\lvgl\src\core/lv_obj_style.c ****             if(cls) {
 257:..\..\..\arduinoLCD\test\Pain Drain\libraries\lvgl\src\core/lv_obj_style.c ****                 value_act.num = prop == LV_STYLE_WIDTH ? cls->width_def : cls->height_def;
 258:..\..\..\arduinoLCD\test\Pain Drain\libraries\lvgl\src\core/lv_obj_style.c ****             }
 259:..\..\..\arduinoLCD\test\Pain Drain\libraries\lvgl\src\core/lv_obj_style.c ****             else {
ARM GAS  C:\Users\haske\AppData\Local\Temp\ccLxalmh.s 			page 6


 260:..\..\..\arduinoLCD\test\Pain Drain\libraries\lvgl\src\core/lv_obj_style.c ****                 value_act.num = 0;
 261:..\..\..\arduinoLCD\test\Pain Drain\libraries\lvgl\src\core/lv_obj_style.c ****             }
 262:..\..\..\arduinoLCD\test\Pain Drain\libraries\lvgl\src\core/lv_obj_style.c ****         }
 263:..\..\..\arduinoLCD\test\Pain Drain\libraries\lvgl\src\core/lv_obj_style.c ****         else {
 264:..\..\..\arduinoLCD\test\Pain Drain\libraries\lvgl\src\core/lv_obj_style.c ****             value_act = lv_style_prop_get_default(prop);
 265:..\..\..\arduinoLCD\test\Pain Drain\libraries\lvgl\src\core/lv_obj_style.c ****         }
 266:..\..\..\arduinoLCD\test\Pain Drain\libraries\lvgl\src\core/lv_obj_style.c ****     }
 267:..\..\..\arduinoLCD\test\Pain Drain\libraries\lvgl\src\core/lv_obj_style.c ****     return value_act;
 268:..\..\..\arduinoLCD\test\Pain Drain\libraries\lvgl\src\core/lv_obj_style.c **** }
 269:..\..\..\arduinoLCD\test\Pain Drain\libraries\lvgl\src\core/lv_obj_style.c **** 
 270:..\..\..\arduinoLCD\test\Pain Drain\libraries\lvgl\src\core/lv_obj_style.c **** void lv_obj_set_local_style_prop(lv_obj_t * obj, lv_style_prop_t prop, lv_style_value_t value,
 271:..\..\..\arduinoLCD\test\Pain Drain\libraries\lvgl\src\core/lv_obj_style.c ****                                  lv_style_selector_t selector)
 272:..\..\..\arduinoLCD\test\Pain Drain\libraries\lvgl\src\core/lv_obj_style.c **** {
 273:..\..\..\arduinoLCD\test\Pain Drain\libraries\lvgl\src\core/lv_obj_style.c ****     lv_style_t * style = get_local_style(obj, selector);
 274:..\..\..\arduinoLCD\test\Pain Drain\libraries\lvgl\src\core/lv_obj_style.c ****     lv_style_set_prop(style, prop, value);
 275:..\..\..\arduinoLCD\test\Pain Drain\libraries\lvgl\src\core/lv_obj_style.c ****     lv_obj_refresh_style(obj, selector, prop);
 276:..\..\..\arduinoLCD\test\Pain Drain\libraries\lvgl\src\core/lv_obj_style.c **** }
 277:..\..\..\arduinoLCD\test\Pain Drain\libraries\lvgl\src\core/lv_obj_style.c **** 
 278:..\..\..\arduinoLCD\test\Pain Drain\libraries\lvgl\src\core/lv_obj_style.c **** void lv_obj_set_local_style_prop_meta(lv_obj_t * obj, lv_style_prop_t prop, uint16_t meta,
 279:..\..\..\arduinoLCD\test\Pain Drain\libraries\lvgl\src\core/lv_obj_style.c ****                                       lv_style_selector_t selector)
 280:..\..\..\arduinoLCD\test\Pain Drain\libraries\lvgl\src\core/lv_obj_style.c **** {
 281:..\..\..\arduinoLCD\test\Pain Drain\libraries\lvgl\src\core/lv_obj_style.c ****     lv_style_t * style = get_local_style(obj, selector);
 282:..\..\..\arduinoLCD\test\Pain Drain\libraries\lvgl\src\core/lv_obj_style.c ****     lv_style_set_prop_meta(style, prop, meta);
 283:..\..\..\arduinoLCD\test\Pain Drain\libraries\lvgl\src\core/lv_obj_style.c ****     lv_obj_refresh_style(obj, selector, prop);
 284:..\..\..\arduinoLCD\test\Pain Drain\libraries\lvgl\src\core/lv_obj_style.c **** }
 285:..\..\..\arduinoLCD\test\Pain Drain\libraries\lvgl\src\core/lv_obj_style.c **** 
 286:..\..\..\arduinoLCD\test\Pain Drain\libraries\lvgl\src\core/lv_obj_style.c **** 
 287:..\..\..\arduinoLCD\test\Pain Drain\libraries\lvgl\src\core/lv_obj_style.c **** lv_style_res_t lv_obj_get_local_style_prop(lv_obj_t * obj, lv_style_prop_t prop, lv_style_value_t *
 288:..\..\..\arduinoLCD\test\Pain Drain\libraries\lvgl\src\core/lv_obj_style.c ****                                            lv_style_selector_t selector)
 289:..\..\..\arduinoLCD\test\Pain Drain\libraries\lvgl\src\core/lv_obj_style.c **** {
 290:..\..\..\arduinoLCD\test\Pain Drain\libraries\lvgl\src\core/lv_obj_style.c ****     uint32_t i;
 291:..\..\..\arduinoLCD\test\Pain Drain\libraries\lvgl\src\core/lv_obj_style.c ****     for(i = 0; i < obj->style_cnt; i++) {
 292:..\..\..\arduinoLCD\test\Pain Drain\libraries\lvgl\src\core/lv_obj_style.c ****         if(obj->styles[i].is_local &&
 293:..\..\..\arduinoLCD\test\Pain Drain\libraries\lvgl\src\core/lv_obj_style.c ****            obj->styles[i].selector == selector) {
 294:..\..\..\arduinoLCD\test\Pain Drain\libraries\lvgl\src\core/lv_obj_style.c ****             return lv_style_get_prop(obj->styles[i].style, prop, value);
 295:..\..\..\arduinoLCD\test\Pain Drain\libraries\lvgl\src\core/lv_obj_style.c ****         }
 296:..\..\..\arduinoLCD\test\Pain Drain\libraries\lvgl\src\core/lv_obj_style.c ****     }
 297:..\..\..\arduinoLCD\test\Pain Drain\libraries\lvgl\src\core/lv_obj_style.c **** 
 298:..\..\..\arduinoLCD\test\Pain Drain\libraries\lvgl\src\core/lv_obj_style.c ****     return LV_STYLE_RES_NOT_FOUND;
 299:..\..\..\arduinoLCD\test\Pain Drain\libraries\lvgl\src\core/lv_obj_style.c **** }
 300:..\..\..\arduinoLCD\test\Pain Drain\libraries\lvgl\src\core/lv_obj_style.c **** 
 301:..\..\..\arduinoLCD\test\Pain Drain\libraries\lvgl\src\core/lv_obj_style.c **** bool lv_obj_remove_local_style_prop(lv_obj_t * obj, lv_style_prop_t prop, lv_style_selector_t selec
 302:..\..\..\arduinoLCD\test\Pain Drain\libraries\lvgl\src\core/lv_obj_style.c **** {
 303:..\..\..\arduinoLCD\test\Pain Drain\libraries\lvgl\src\core/lv_obj_style.c ****     LV_ASSERT_OBJ(obj, MY_CLASS);
 304:..\..\..\arduinoLCD\test\Pain Drain\libraries\lvgl\src\core/lv_obj_style.c **** 
 305:..\..\..\arduinoLCD\test\Pain Drain\libraries\lvgl\src\core/lv_obj_style.c ****     uint32_t i;
 306:..\..\..\arduinoLCD\test\Pain Drain\libraries\lvgl\src\core/lv_obj_style.c ****     /*Find the style*/
 307:..\..\..\arduinoLCD\test\Pain Drain\libraries\lvgl\src\core/lv_obj_style.c ****     for(i = 0; i < obj->style_cnt; i++) {
 308:..\..\..\arduinoLCD\test\Pain Drain\libraries\lvgl\src\core/lv_obj_style.c ****         if(obj->styles[i].is_local &&
 309:..\..\..\arduinoLCD\test\Pain Drain\libraries\lvgl\src\core/lv_obj_style.c ****            obj->styles[i].selector == selector) {
 310:..\..\..\arduinoLCD\test\Pain Drain\libraries\lvgl\src\core/lv_obj_style.c ****             break;
 311:..\..\..\arduinoLCD\test\Pain Drain\libraries\lvgl\src\core/lv_obj_style.c ****         }
 312:..\..\..\arduinoLCD\test\Pain Drain\libraries\lvgl\src\core/lv_obj_style.c ****     }
 313:..\..\..\arduinoLCD\test\Pain Drain\libraries\lvgl\src\core/lv_obj_style.c **** 
 314:..\..\..\arduinoLCD\test\Pain Drain\libraries\lvgl\src\core/lv_obj_style.c ****     /*The style is not found*/
 315:..\..\..\arduinoLCD\test\Pain Drain\libraries\lvgl\src\core/lv_obj_style.c ****     if(i == obj->style_cnt) return false;
 316:..\..\..\arduinoLCD\test\Pain Drain\libraries\lvgl\src\core/lv_obj_style.c **** 
ARM GAS  C:\Users\haske\AppData\Local\Temp\ccLxalmh.s 			page 7


 317:..\..\..\arduinoLCD\test\Pain Drain\libraries\lvgl\src\core/lv_obj_style.c ****     lv_res_t res = lv_style_remove_prop(obj->styles[i].style, prop);
 318:..\..\..\arduinoLCD\test\Pain Drain\libraries\lvgl\src\core/lv_obj_style.c ****     if(res == LV_RES_OK) {
 319:..\..\..\arduinoLCD\test\Pain Drain\libraries\lvgl\src\core/lv_obj_style.c ****         lv_obj_refresh_style(obj, selector, prop);
 320:..\..\..\arduinoLCD\test\Pain Drain\libraries\lvgl\src\core/lv_obj_style.c ****     }
 321:..\..\..\arduinoLCD\test\Pain Drain\libraries\lvgl\src\core/lv_obj_style.c **** 
 322:..\..\..\arduinoLCD\test\Pain Drain\libraries\lvgl\src\core/lv_obj_style.c ****     return res;
 323:..\..\..\arduinoLCD\test\Pain Drain\libraries\lvgl\src\core/lv_obj_style.c **** }
 324:..\..\..\arduinoLCD\test\Pain Drain\libraries\lvgl\src\core/lv_obj_style.c **** 
 325:..\..\..\arduinoLCD\test\Pain Drain\libraries\lvgl\src\core/lv_obj_style.c **** void _lv_obj_style_create_transition(lv_obj_t * obj, lv_part_t part, lv_state_t prev_state, lv_stat
 326:..\..\..\arduinoLCD\test\Pain Drain\libraries\lvgl\src\core/lv_obj_style.c ****                                      const _lv_obj_style_transition_dsc_t * tr_dsc)
 327:..\..\..\arduinoLCD\test\Pain Drain\libraries\lvgl\src\core/lv_obj_style.c **** {
 328:..\..\..\arduinoLCD\test\Pain Drain\libraries\lvgl\src\core/lv_obj_style.c ****     trans_t * tr;
 329:..\..\..\arduinoLCD\test\Pain Drain\libraries\lvgl\src\core/lv_obj_style.c **** 
 330:..\..\..\arduinoLCD\test\Pain Drain\libraries\lvgl\src\core/lv_obj_style.c ****     /*Get the previous and current values*/
 331:..\..\..\arduinoLCD\test\Pain Drain\libraries\lvgl\src\core/lv_obj_style.c ****     obj->skip_trans = 1;
 332:..\..\..\arduinoLCD\test\Pain Drain\libraries\lvgl\src\core/lv_obj_style.c ****     obj->state = prev_state;
 333:..\..\..\arduinoLCD\test\Pain Drain\libraries\lvgl\src\core/lv_obj_style.c ****     lv_style_value_t v1 = lv_obj_get_style_prop(obj, part, tr_dsc->prop);
 334:..\..\..\arduinoLCD\test\Pain Drain\libraries\lvgl\src\core/lv_obj_style.c ****     obj->state = new_state;
 335:..\..\..\arduinoLCD\test\Pain Drain\libraries\lvgl\src\core/lv_obj_style.c ****     lv_style_value_t v2 = lv_obj_get_style_prop(obj, part, tr_dsc->prop);
 336:..\..\..\arduinoLCD\test\Pain Drain\libraries\lvgl\src\core/lv_obj_style.c ****     obj->skip_trans = 0;
 337:..\..\..\arduinoLCD\test\Pain Drain\libraries\lvgl\src\core/lv_obj_style.c **** 
 338:..\..\..\arduinoLCD\test\Pain Drain\libraries\lvgl\src\core/lv_obj_style.c ****     if(v1.ptr == v2.ptr && v1.num == v2.num && v1.color.full == v2.color.full)  return;
 339:..\..\..\arduinoLCD\test\Pain Drain\libraries\lvgl\src\core/lv_obj_style.c ****     obj->state = prev_state;
 340:..\..\..\arduinoLCD\test\Pain Drain\libraries\lvgl\src\core/lv_obj_style.c ****     v1 = lv_obj_get_style_prop(obj, part, tr_dsc->prop);
 341:..\..\..\arduinoLCD\test\Pain Drain\libraries\lvgl\src\core/lv_obj_style.c ****     obj->state = new_state;
 342:..\..\..\arduinoLCD\test\Pain Drain\libraries\lvgl\src\core/lv_obj_style.c **** 
 343:..\..\..\arduinoLCD\test\Pain Drain\libraries\lvgl\src\core/lv_obj_style.c ****     _lv_obj_style_t * style_trans = get_trans_style(obj, part);
 344:..\..\..\arduinoLCD\test\Pain Drain\libraries\lvgl\src\core/lv_obj_style.c ****     lv_style_set_prop(style_trans->style, tr_dsc->prop, v1);   /*Be sure `trans_style` has a valid 
 345:..\..\..\arduinoLCD\test\Pain Drain\libraries\lvgl\src\core/lv_obj_style.c **** 
 346:..\..\..\arduinoLCD\test\Pain Drain\libraries\lvgl\src\core/lv_obj_style.c ****     if(tr_dsc->prop == LV_STYLE_RADIUS) {
 347:..\..\..\arduinoLCD\test\Pain Drain\libraries\lvgl\src\core/lv_obj_style.c ****         if(v1.num == LV_RADIUS_CIRCLE || v2.num == LV_RADIUS_CIRCLE) {
 348:..\..\..\arduinoLCD\test\Pain Drain\libraries\lvgl\src\core/lv_obj_style.c ****             lv_coord_t whalf = lv_obj_get_width(obj) / 2;
 349:..\..\..\arduinoLCD\test\Pain Drain\libraries\lvgl\src\core/lv_obj_style.c ****             lv_coord_t hhalf = lv_obj_get_height(obj) / 2;
 350:..\..\..\arduinoLCD\test\Pain Drain\libraries\lvgl\src\core/lv_obj_style.c ****             if(v1.num == LV_RADIUS_CIRCLE) v1.num = LV_MIN(whalf + 1, hhalf + 1);
 351:..\..\..\arduinoLCD\test\Pain Drain\libraries\lvgl\src\core/lv_obj_style.c ****             if(v2.num == LV_RADIUS_CIRCLE) v2.num = LV_MIN(whalf + 1, hhalf + 1);
 352:..\..\..\arduinoLCD\test\Pain Drain\libraries\lvgl\src\core/lv_obj_style.c ****         }
 353:..\..\..\arduinoLCD\test\Pain Drain\libraries\lvgl\src\core/lv_obj_style.c ****     }
 354:..\..\..\arduinoLCD\test\Pain Drain\libraries\lvgl\src\core/lv_obj_style.c **** 
 355:..\..\..\arduinoLCD\test\Pain Drain\libraries\lvgl\src\core/lv_obj_style.c ****     tr = _lv_ll_ins_head(&LV_GC_ROOT(_lv_obj_style_trans_ll));
 356:..\..\..\arduinoLCD\test\Pain Drain\libraries\lvgl\src\core/lv_obj_style.c ****     LV_ASSERT_MALLOC(tr);
 357:..\..\..\arduinoLCD\test\Pain Drain\libraries\lvgl\src\core/lv_obj_style.c ****     if(tr == NULL) return;
 358:..\..\..\arduinoLCD\test\Pain Drain\libraries\lvgl\src\core/lv_obj_style.c ****     tr->start_value = v1;
 359:..\..\..\arduinoLCD\test\Pain Drain\libraries\lvgl\src\core/lv_obj_style.c ****     tr->end_value = v2;
 360:..\..\..\arduinoLCD\test\Pain Drain\libraries\lvgl\src\core/lv_obj_style.c ****     tr->obj = obj;
 361:..\..\..\arduinoLCD\test\Pain Drain\libraries\lvgl\src\core/lv_obj_style.c ****     tr->prop = tr_dsc->prop;
 362:..\..\..\arduinoLCD\test\Pain Drain\libraries\lvgl\src\core/lv_obj_style.c ****     tr->selector = part;
 363:..\..\..\arduinoLCD\test\Pain Drain\libraries\lvgl\src\core/lv_obj_style.c **** 
 364:..\..\..\arduinoLCD\test\Pain Drain\libraries\lvgl\src\core/lv_obj_style.c ****     lv_anim_t a;
 365:..\..\..\arduinoLCD\test\Pain Drain\libraries\lvgl\src\core/lv_obj_style.c ****     lv_anim_init(&a);
 366:..\..\..\arduinoLCD\test\Pain Drain\libraries\lvgl\src\core/lv_obj_style.c ****     lv_anim_set_var(&a, tr);
 367:..\..\..\arduinoLCD\test\Pain Drain\libraries\lvgl\src\core/lv_obj_style.c ****     lv_anim_set_exec_cb(&a, trans_anim_cb);
 368:..\..\..\arduinoLCD\test\Pain Drain\libraries\lvgl\src\core/lv_obj_style.c ****     lv_anim_set_start_cb(&a, trans_anim_start_cb);
 369:..\..\..\arduinoLCD\test\Pain Drain\libraries\lvgl\src\core/lv_obj_style.c ****     lv_anim_set_ready_cb(&a, trans_anim_ready_cb);
 370:..\..\..\arduinoLCD\test\Pain Drain\libraries\lvgl\src\core/lv_obj_style.c ****     lv_anim_set_values(&a, 0x00, 0xFF);
 371:..\..\..\arduinoLCD\test\Pain Drain\libraries\lvgl\src\core/lv_obj_style.c ****     lv_anim_set_time(&a, tr_dsc->time);
 372:..\..\..\arduinoLCD\test\Pain Drain\libraries\lvgl\src\core/lv_obj_style.c ****     lv_anim_set_delay(&a, tr_dsc->delay);
 373:..\..\..\arduinoLCD\test\Pain Drain\libraries\lvgl\src\core/lv_obj_style.c ****     lv_anim_set_path_cb(&a, tr_dsc->path_cb);
ARM GAS  C:\Users\haske\AppData\Local\Temp\ccLxalmh.s 			page 8


 374:..\..\..\arduinoLCD\test\Pain Drain\libraries\lvgl\src\core/lv_obj_style.c ****     lv_anim_set_early_apply(&a, false);
 375:..\..\..\arduinoLCD\test\Pain Drain\libraries\lvgl\src\core/lv_obj_style.c **** #if LV_USE_USER_DATA
 376:..\..\..\arduinoLCD\test\Pain Drain\libraries\lvgl\src\core/lv_obj_style.c ****     a.user_data = tr_dsc->user_data;
 377:..\..\..\arduinoLCD\test\Pain Drain\libraries\lvgl\src\core/lv_obj_style.c **** #endif
 378:..\..\..\arduinoLCD\test\Pain Drain\libraries\lvgl\src\core/lv_obj_style.c ****     lv_anim_start(&a);
 379:..\..\..\arduinoLCD\test\Pain Drain\libraries\lvgl\src\core/lv_obj_style.c **** }
 380:..\..\..\arduinoLCD\test\Pain Drain\libraries\lvgl\src\core/lv_obj_style.c **** 
 381:..\..\..\arduinoLCD\test\Pain Drain\libraries\lvgl\src\core/lv_obj_style.c **** 
 382:..\..\..\arduinoLCD\test\Pain Drain\libraries\lvgl\src\core/lv_obj_style.c **** lv_style_value_t _lv_obj_style_apply_color_filter(const lv_obj_t * obj, uint32_t part, lv_style_val
 383:..\..\..\arduinoLCD\test\Pain Drain\libraries\lvgl\src\core/lv_obj_style.c **** {
 384:..\..\..\arduinoLCD\test\Pain Drain\libraries\lvgl\src\core/lv_obj_style.c ****     if(obj == NULL) return v;
 385:..\..\..\arduinoLCD\test\Pain Drain\libraries\lvgl\src\core/lv_obj_style.c ****     const lv_color_filter_dsc_t * f = lv_obj_get_style_color_filter_dsc(obj, part);
 386:..\..\..\arduinoLCD\test\Pain Drain\libraries\lvgl\src\core/lv_obj_style.c ****     if(f && f->filter_cb) {
 387:..\..\..\arduinoLCD\test\Pain Drain\libraries\lvgl\src\core/lv_obj_style.c ****         lv_opa_t f_opa = lv_obj_get_style_color_filter_opa(obj, part);
 388:..\..\..\arduinoLCD\test\Pain Drain\libraries\lvgl\src\core/lv_obj_style.c ****         if(f_opa != 0) v.color = f->filter_cb(f, v.color, f_opa);
 389:..\..\..\arduinoLCD\test\Pain Drain\libraries\lvgl\src\core/lv_obj_style.c ****     }
 390:..\..\..\arduinoLCD\test\Pain Drain\libraries\lvgl\src\core/lv_obj_style.c ****     return v;
 391:..\..\..\arduinoLCD\test\Pain Drain\libraries\lvgl\src\core/lv_obj_style.c **** }
 392:..\..\..\arduinoLCD\test\Pain Drain\libraries\lvgl\src\core/lv_obj_style.c **** 
 393:..\..\..\arduinoLCD\test\Pain Drain\libraries\lvgl\src\core/lv_obj_style.c **** _lv_style_state_cmp_t _lv_obj_style_state_compare(lv_obj_t * obj, lv_state_t state1, lv_state_t sta
 394:..\..\..\arduinoLCD\test\Pain Drain\libraries\lvgl\src\core/lv_obj_style.c **** {
 395:..\..\..\arduinoLCD\test\Pain Drain\libraries\lvgl\src\core/lv_obj_style.c ****     _lv_style_state_cmp_t res = _LV_STYLE_STATE_CMP_SAME;
 396:..\..\..\arduinoLCD\test\Pain Drain\libraries\lvgl\src\core/lv_obj_style.c **** 
 397:..\..\..\arduinoLCD\test\Pain Drain\libraries\lvgl\src\core/lv_obj_style.c ****     /*Are there any new styles for the new state?*/
 398:..\..\..\arduinoLCD\test\Pain Drain\libraries\lvgl\src\core/lv_obj_style.c ****     uint32_t i;
 399:..\..\..\arduinoLCD\test\Pain Drain\libraries\lvgl\src\core/lv_obj_style.c ****     for(i = 0; i < obj->style_cnt; i++) {
 400:..\..\..\arduinoLCD\test\Pain Drain\libraries\lvgl\src\core/lv_obj_style.c ****         if(obj->styles[i].is_trans) continue;
 401:..\..\..\arduinoLCD\test\Pain Drain\libraries\lvgl\src\core/lv_obj_style.c **** 
 402:..\..\..\arduinoLCD\test\Pain Drain\libraries\lvgl\src\core/lv_obj_style.c ****         lv_state_t state_act = lv_obj_style_get_selector_state(obj->styles[i].selector);
 403:..\..\..\arduinoLCD\test\Pain Drain\libraries\lvgl\src\core/lv_obj_style.c ****         /*The style is valid for a state but not the other*/
 404:..\..\..\arduinoLCD\test\Pain Drain\libraries\lvgl\src\core/lv_obj_style.c ****         bool valid1 = state_act & (~state1) ? false : true;
 405:..\..\..\arduinoLCD\test\Pain Drain\libraries\lvgl\src\core/lv_obj_style.c ****         bool valid2 = state_act & (~state2) ? false : true;
 406:..\..\..\arduinoLCD\test\Pain Drain\libraries\lvgl\src\core/lv_obj_style.c ****         if(valid1 != valid2) {
 407:..\..\..\arduinoLCD\test\Pain Drain\libraries\lvgl\src\core/lv_obj_style.c ****             lv_style_t * style = obj->styles[i].style;
 408:..\..\..\arduinoLCD\test\Pain Drain\libraries\lvgl\src\core/lv_obj_style.c ****             lv_style_value_t v;
 409:..\..\..\arduinoLCD\test\Pain Drain\libraries\lvgl\src\core/lv_obj_style.c ****             /*If there is layout difference on the main part, return immediately. There is no more 
 410:..\..\..\arduinoLCD\test\Pain Drain\libraries\lvgl\src\core/lv_obj_style.c ****             bool layout_diff = false;
 411:..\..\..\arduinoLCD\test\Pain Drain\libraries\lvgl\src\core/lv_obj_style.c ****             if(lv_style_get_prop(style, LV_STYLE_PAD_TOP, &v))layout_diff = true;
 412:..\..\..\arduinoLCD\test\Pain Drain\libraries\lvgl\src\core/lv_obj_style.c ****             else if(lv_style_get_prop(style, LV_STYLE_PAD_BOTTOM, &v)) layout_diff = true;
 413:..\..\..\arduinoLCD\test\Pain Drain\libraries\lvgl\src\core/lv_obj_style.c ****             else if(lv_style_get_prop(style, LV_STYLE_PAD_LEFT, &v)) layout_diff = true;
 414:..\..\..\arduinoLCD\test\Pain Drain\libraries\lvgl\src\core/lv_obj_style.c ****             else if(lv_style_get_prop(style, LV_STYLE_PAD_RIGHT, &v)) layout_diff = true;
 415:..\..\..\arduinoLCD\test\Pain Drain\libraries\lvgl\src\core/lv_obj_style.c ****             else if(lv_style_get_prop(style, LV_STYLE_PAD_COLUMN, &v)) layout_diff = true;
 416:..\..\..\arduinoLCD\test\Pain Drain\libraries\lvgl\src\core/lv_obj_style.c ****             else if(lv_style_get_prop(style, LV_STYLE_PAD_ROW, &v)) layout_diff = true;
 417:..\..\..\arduinoLCD\test\Pain Drain\libraries\lvgl\src\core/lv_obj_style.c ****             else if(lv_style_get_prop(style, LV_STYLE_LAYOUT, &v)) layout_diff = true;
 418:..\..\..\arduinoLCD\test\Pain Drain\libraries\lvgl\src\core/lv_obj_style.c ****             else if(lv_style_get_prop(style, LV_STYLE_TRANSLATE_X, &v)) layout_diff = true;
 419:..\..\..\arduinoLCD\test\Pain Drain\libraries\lvgl\src\core/lv_obj_style.c ****             else if(lv_style_get_prop(style, LV_STYLE_TRANSLATE_Y, &v)) layout_diff = true;
 420:..\..\..\arduinoLCD\test\Pain Drain\libraries\lvgl\src\core/lv_obj_style.c ****             else if(lv_style_get_prop(style, LV_STYLE_WIDTH, &v)) layout_diff = true;
 421:..\..\..\arduinoLCD\test\Pain Drain\libraries\lvgl\src\core/lv_obj_style.c ****             else if(lv_style_get_prop(style, LV_STYLE_HEIGHT, &v)) layout_diff = true;
 422:..\..\..\arduinoLCD\test\Pain Drain\libraries\lvgl\src\core/lv_obj_style.c ****             else if(lv_style_get_prop(style, LV_STYLE_MIN_WIDTH, &v)) layout_diff = true;
 423:..\..\..\arduinoLCD\test\Pain Drain\libraries\lvgl\src\core/lv_obj_style.c ****             else if(lv_style_get_prop(style, LV_STYLE_MAX_WIDTH, &v)) layout_diff = true;
 424:..\..\..\arduinoLCD\test\Pain Drain\libraries\lvgl\src\core/lv_obj_style.c ****             else if(lv_style_get_prop(style, LV_STYLE_MIN_HEIGHT, &v)) layout_diff = true;
 425:..\..\..\arduinoLCD\test\Pain Drain\libraries\lvgl\src\core/lv_obj_style.c ****             else if(lv_style_get_prop(style, LV_STYLE_MAX_HEIGHT, &v)) layout_diff = true;
 426:..\..\..\arduinoLCD\test\Pain Drain\libraries\lvgl\src\core/lv_obj_style.c ****             else if(lv_style_get_prop(style, LV_STYLE_BORDER_WIDTH, &v)) layout_diff = true;
 427:..\..\..\arduinoLCD\test\Pain Drain\libraries\lvgl\src\core/lv_obj_style.c ****             else if(lv_style_get_prop(style, LV_STYLE_TRANSFORM_ANGLE, &v)) layout_diff = true;
 428:..\..\..\arduinoLCD\test\Pain Drain\libraries\lvgl\src\core/lv_obj_style.c ****             else if(lv_style_get_prop(style, LV_STYLE_TRANSFORM_ZOOM, &v)) layout_diff = true;
 429:..\..\..\arduinoLCD\test\Pain Drain\libraries\lvgl\src\core/lv_obj_style.c **** 
 430:..\..\..\arduinoLCD\test\Pain Drain\libraries\lvgl\src\core/lv_obj_style.c ****             if(layout_diff) {
ARM GAS  C:\Users\haske\AppData\Local\Temp\ccLxalmh.s 			page 9


 431:..\..\..\arduinoLCD\test\Pain Drain\libraries\lvgl\src\core/lv_obj_style.c ****                 return _LV_STYLE_STATE_CMP_DIFF_LAYOUT;
 432:..\..\..\arduinoLCD\test\Pain Drain\libraries\lvgl\src\core/lv_obj_style.c ****             }
 433:..\..\..\arduinoLCD\test\Pain Drain\libraries\lvgl\src\core/lv_obj_style.c **** 
 434:..\..\..\arduinoLCD\test\Pain Drain\libraries\lvgl\src\core/lv_obj_style.c ****             /*Check for draw pad changes*/
 435:..\..\..\arduinoLCD\test\Pain Drain\libraries\lvgl\src\core/lv_obj_style.c ****             if(lv_style_get_prop(style, LV_STYLE_TRANSFORM_WIDTH, &v)) res = _LV_STYLE_STATE_CMP_DI
 436:..\..\..\arduinoLCD\test\Pain Drain\libraries\lvgl\src\core/lv_obj_style.c ****             else if(lv_style_get_prop(style, LV_STYLE_TRANSFORM_HEIGHT, &v)) res = _LV_STYLE_STATE_
 437:..\..\..\arduinoLCD\test\Pain Drain\libraries\lvgl\src\core/lv_obj_style.c ****             else if(lv_style_get_prop(style, LV_STYLE_TRANSFORM_ANGLE, &v)) res = _LV_STYLE_STATE_C
 438:..\..\..\arduinoLCD\test\Pain Drain\libraries\lvgl\src\core/lv_obj_style.c ****             else if(lv_style_get_prop(style, LV_STYLE_TRANSFORM_ZOOM, &v)) res = _LV_STYLE_STATE_CM
 439:..\..\..\arduinoLCD\test\Pain Drain\libraries\lvgl\src\core/lv_obj_style.c ****             else if(lv_style_get_prop(style, LV_STYLE_OUTLINE_OPA, &v)) res = _LV_STYLE_STATE_CMP_D
 440:..\..\..\arduinoLCD\test\Pain Drain\libraries\lvgl\src\core/lv_obj_style.c ****             else if(lv_style_get_prop(style, LV_STYLE_OUTLINE_PAD, &v)) res = _LV_STYLE_STATE_CMP_D
 441:..\..\..\arduinoLCD\test\Pain Drain\libraries\lvgl\src\core/lv_obj_style.c ****             else if(lv_style_get_prop(style, LV_STYLE_OUTLINE_WIDTH, &v)) res = _LV_STYLE_STATE_CMP
 442:..\..\..\arduinoLCD\test\Pain Drain\libraries\lvgl\src\core/lv_obj_style.c ****             else if(lv_style_get_prop(style, LV_STYLE_SHADOW_WIDTH, &v)) res = _LV_STYLE_STATE_CMP_
 443:..\..\..\arduinoLCD\test\Pain Drain\libraries\lvgl\src\core/lv_obj_style.c ****             else if(lv_style_get_prop(style, LV_STYLE_SHADOW_OPA, &v)) res = _LV_STYLE_STATE_CMP_DI
 444:..\..\..\arduinoLCD\test\Pain Drain\libraries\lvgl\src\core/lv_obj_style.c ****             else if(lv_style_get_prop(style, LV_STYLE_SHADOW_OFS_X, &v)) res = _LV_STYLE_STATE_CMP_
 445:..\..\..\arduinoLCD\test\Pain Drain\libraries\lvgl\src\core/lv_obj_style.c ****             else if(lv_style_get_prop(style, LV_STYLE_SHADOW_OFS_Y, &v)) res = _LV_STYLE_STATE_CMP_
 446:..\..\..\arduinoLCD\test\Pain Drain\libraries\lvgl\src\core/lv_obj_style.c ****             else if(lv_style_get_prop(style, LV_STYLE_SHADOW_SPREAD, &v)) res = _LV_STYLE_STATE_CMP
 447:..\..\..\arduinoLCD\test\Pain Drain\libraries\lvgl\src\core/lv_obj_style.c ****             else if(lv_style_get_prop(style, LV_STYLE_LINE_WIDTH, &v)) res = _LV_STYLE_STATE_CMP_DI
 448:..\..\..\arduinoLCD\test\Pain Drain\libraries\lvgl\src\core/lv_obj_style.c ****             else if(res == _LV_STYLE_STATE_CMP_SAME) res = _LV_STYLE_STATE_CMP_DIFF_REDRAW;
 449:..\..\..\arduinoLCD\test\Pain Drain\libraries\lvgl\src\core/lv_obj_style.c ****         }
 450:..\..\..\arduinoLCD\test\Pain Drain\libraries\lvgl\src\core/lv_obj_style.c ****     }
 451:..\..\..\arduinoLCD\test\Pain Drain\libraries\lvgl\src\core/lv_obj_style.c **** 
 452:..\..\..\arduinoLCD\test\Pain Drain\libraries\lvgl\src\core/lv_obj_style.c ****     return res;
 453:..\..\..\arduinoLCD\test\Pain Drain\libraries\lvgl\src\core/lv_obj_style.c **** }
 454:..\..\..\arduinoLCD\test\Pain Drain\libraries\lvgl\src\core/lv_obj_style.c **** 
 455:..\..\..\arduinoLCD\test\Pain Drain\libraries\lvgl\src\core/lv_obj_style.c **** void lv_obj_fade_in(lv_obj_t * obj, uint32_t time, uint32_t delay)
 456:..\..\..\arduinoLCD\test\Pain Drain\libraries\lvgl\src\core/lv_obj_style.c **** {
 457:..\..\..\arduinoLCD\test\Pain Drain\libraries\lvgl\src\core/lv_obj_style.c ****     lv_anim_t a;
 458:..\..\..\arduinoLCD\test\Pain Drain\libraries\lvgl\src\core/lv_obj_style.c ****     lv_anim_init(&a);
 459:..\..\..\arduinoLCD\test\Pain Drain\libraries\lvgl\src\core/lv_obj_style.c ****     lv_anim_set_var(&a, obj);
 460:..\..\..\arduinoLCD\test\Pain Drain\libraries\lvgl\src\core/lv_obj_style.c ****     lv_anim_set_values(&a, 0, LV_OPA_COVER);
 461:..\..\..\arduinoLCD\test\Pain Drain\libraries\lvgl\src\core/lv_obj_style.c ****     lv_anim_set_exec_cb(&a, fade_anim_cb);
 462:..\..\..\arduinoLCD\test\Pain Drain\libraries\lvgl\src\core/lv_obj_style.c ****     lv_anim_set_ready_cb(&a, fade_in_anim_ready);
 463:..\..\..\arduinoLCD\test\Pain Drain\libraries\lvgl\src\core/lv_obj_style.c ****     lv_anim_set_time(&a, time);
 464:..\..\..\arduinoLCD\test\Pain Drain\libraries\lvgl\src\core/lv_obj_style.c ****     lv_anim_set_delay(&a, delay);
 465:..\..\..\arduinoLCD\test\Pain Drain\libraries\lvgl\src\core/lv_obj_style.c ****     lv_anim_start(&a);
 466:..\..\..\arduinoLCD\test\Pain Drain\libraries\lvgl\src\core/lv_obj_style.c **** }
 467:..\..\..\arduinoLCD\test\Pain Drain\libraries\lvgl\src\core/lv_obj_style.c **** 
 468:..\..\..\arduinoLCD\test\Pain Drain\libraries\lvgl\src\core/lv_obj_style.c **** void lv_obj_fade_out(lv_obj_t * obj, uint32_t time, uint32_t delay)
 469:..\..\..\arduinoLCD\test\Pain Drain\libraries\lvgl\src\core/lv_obj_style.c **** {
 470:..\..\..\arduinoLCD\test\Pain Drain\libraries\lvgl\src\core/lv_obj_style.c ****     lv_anim_t a;
 471:..\..\..\arduinoLCD\test\Pain Drain\libraries\lvgl\src\core/lv_obj_style.c ****     lv_anim_init(&a);
 472:..\..\..\arduinoLCD\test\Pain Drain\libraries\lvgl\src\core/lv_obj_style.c ****     lv_anim_set_var(&a, obj);
 473:..\..\..\arduinoLCD\test\Pain Drain\libraries\lvgl\src\core/lv_obj_style.c ****     lv_anim_set_values(&a, lv_obj_get_style_opa(obj, 0), LV_OPA_TRANSP);
 474:..\..\..\arduinoLCD\test\Pain Drain\libraries\lvgl\src\core/lv_obj_style.c ****     lv_anim_set_exec_cb(&a, fade_anim_cb);
 475:..\..\..\arduinoLCD\test\Pain Drain\libraries\lvgl\src\core/lv_obj_style.c ****     lv_anim_set_time(&a, time);
 476:..\..\..\arduinoLCD\test\Pain Drain\libraries\lvgl\src\core/lv_obj_style.c ****     lv_anim_set_delay(&a, delay);
 477:..\..\..\arduinoLCD\test\Pain Drain\libraries\lvgl\src\core/lv_obj_style.c ****     lv_anim_start(&a);
 478:..\..\..\arduinoLCD\test\Pain Drain\libraries\lvgl\src\core/lv_obj_style.c **** }
 479:..\..\..\arduinoLCD\test\Pain Drain\libraries\lvgl\src\core/lv_obj_style.c **** 
 480:..\..\..\arduinoLCD\test\Pain Drain\libraries\lvgl\src\core/lv_obj_style.c **** lv_state_t lv_obj_style_get_selector_state(lv_style_selector_t selector)
 481:..\..\..\arduinoLCD\test\Pain Drain\libraries\lvgl\src\core/lv_obj_style.c **** {
 482:..\..\..\arduinoLCD\test\Pain Drain\libraries\lvgl\src\core/lv_obj_style.c ****     return selector & 0xFFFF;
 483:..\..\..\arduinoLCD\test\Pain Drain\libraries\lvgl\src\core/lv_obj_style.c **** }
 484:..\..\..\arduinoLCD\test\Pain Drain\libraries\lvgl\src\core/lv_obj_style.c **** 
 485:..\..\..\arduinoLCD\test\Pain Drain\libraries\lvgl\src\core/lv_obj_style.c **** lv_part_t lv_obj_style_get_selector_part(lv_style_selector_t selector)
 486:..\..\..\arduinoLCD\test\Pain Drain\libraries\lvgl\src\core/lv_obj_style.c **** {
 487:..\..\..\arduinoLCD\test\Pain Drain\libraries\lvgl\src\core/lv_obj_style.c ****     return selector & 0xFF0000;
ARM GAS  C:\Users\haske\AppData\Local\Temp\ccLxalmh.s 			page 10


 488:..\..\..\arduinoLCD\test\Pain Drain\libraries\lvgl\src\core/lv_obj_style.c **** }
 489:..\..\..\arduinoLCD\test\Pain Drain\libraries\lvgl\src\core/lv_obj_style.c **** 
 490:..\..\..\arduinoLCD\test\Pain Drain\libraries\lvgl\src\core/lv_obj_style.c **** 
 491:..\..\..\arduinoLCD\test\Pain Drain\libraries\lvgl\src\core/lv_obj_style.c **** lv_text_align_t lv_obj_calculate_style_text_align(const struct _lv_obj_t * obj, lv_part_t part, con
 492:..\..\..\arduinoLCD\test\Pain Drain\libraries\lvgl\src\core/lv_obj_style.c **** {
 493:..\..\..\arduinoLCD\test\Pain Drain\libraries\lvgl\src\core/lv_obj_style.c ****     lv_text_align_t align = lv_obj_get_style_text_align(obj, part);
 494:..\..\..\arduinoLCD\test\Pain Drain\libraries\lvgl\src\core/lv_obj_style.c ****     lv_base_dir_t base_dir = lv_obj_get_style_base_dir(obj, part);
 495:..\..\..\arduinoLCD\test\Pain Drain\libraries\lvgl\src\core/lv_obj_style.c ****     lv_bidi_calculate_align(&align, &base_dir, txt);
 496:..\..\..\arduinoLCD\test\Pain Drain\libraries\lvgl\src\core/lv_obj_style.c ****     return align;
 497:..\..\..\arduinoLCD\test\Pain Drain\libraries\lvgl\src\core/lv_obj_style.c **** }
 498:..\..\..\arduinoLCD\test\Pain Drain\libraries\lvgl\src\core/lv_obj_style.c **** 
 499:..\..\..\arduinoLCD\test\Pain Drain\libraries\lvgl\src\core/lv_obj_style.c **** /**********************
 500:..\..\..\arduinoLCD\test\Pain Drain\libraries\lvgl\src\core/lv_obj_style.c ****  *   STATIC FUNCTIONS
 501:..\..\..\arduinoLCD\test\Pain Drain\libraries\lvgl\src\core/lv_obj_style.c ****  **********************/
 502:..\..\..\arduinoLCD\test\Pain Drain\libraries\lvgl\src\core/lv_obj_style.c **** 
 503:..\..\..\arduinoLCD\test\Pain Drain\libraries\lvgl\src\core/lv_obj_style.c **** /**
 504:..\..\..\arduinoLCD\test\Pain Drain\libraries\lvgl\src\core/lv_obj_style.c ****  * Get the local style of an object for a given part and for a given state.
 505:..\..\..\arduinoLCD\test\Pain Drain\libraries\lvgl\src\core/lv_obj_style.c ****  * If the local style for the part-state pair doesn't exist allocate and return it.
 506:..\..\..\arduinoLCD\test\Pain Drain\libraries\lvgl\src\core/lv_obj_style.c ****  * @param obj pointer to an object
 507:..\..\..\arduinoLCD\test\Pain Drain\libraries\lvgl\src\core/lv_obj_style.c ****  * @param selector OR-ed value of parts and state for which the style should be get
 508:..\..\..\arduinoLCD\test\Pain Drain\libraries\lvgl\src\core/lv_obj_style.c ****  * @return pointer to the local style
 509:..\..\..\arduinoLCD\test\Pain Drain\libraries\lvgl\src\core/lv_obj_style.c ****  */
 510:..\..\..\arduinoLCD\test\Pain Drain\libraries\lvgl\src\core/lv_obj_style.c **** static lv_style_t * get_local_style(lv_obj_t * obj, lv_style_selector_t selector)
 511:..\..\..\arduinoLCD\test\Pain Drain\libraries\lvgl\src\core/lv_obj_style.c **** {
 512:..\..\..\arduinoLCD\test\Pain Drain\libraries\lvgl\src\core/lv_obj_style.c ****     uint32_t i;
 513:..\..\..\arduinoLCD\test\Pain Drain\libraries\lvgl\src\core/lv_obj_style.c ****     for(i = 0; i < obj->style_cnt; i++) {
 514:..\..\..\arduinoLCD\test\Pain Drain\libraries\lvgl\src\core/lv_obj_style.c ****         if(obj->styles[i].is_local &&
 515:..\..\..\arduinoLCD\test\Pain Drain\libraries\lvgl\src\core/lv_obj_style.c ****            obj->styles[i].selector == selector) {
 516:..\..\..\arduinoLCD\test\Pain Drain\libraries\lvgl\src\core/lv_obj_style.c ****             return obj->styles[i].style;
 517:..\..\..\arduinoLCD\test\Pain Drain\libraries\lvgl\src\core/lv_obj_style.c ****         }
 518:..\..\..\arduinoLCD\test\Pain Drain\libraries\lvgl\src\core/lv_obj_style.c ****     }
 519:..\..\..\arduinoLCD\test\Pain Drain\libraries\lvgl\src\core/lv_obj_style.c **** 
 520:..\..\..\arduinoLCD\test\Pain Drain\libraries\lvgl\src\core/lv_obj_style.c ****     obj->style_cnt++;
 521:..\..\..\arduinoLCD\test\Pain Drain\libraries\lvgl\src\core/lv_obj_style.c ****     obj->styles = lv_mem_realloc(obj->styles, obj->style_cnt * sizeof(_lv_obj_style_t));
 522:..\..\..\arduinoLCD\test\Pain Drain\libraries\lvgl\src\core/lv_obj_style.c ****     LV_ASSERT_MALLOC(obj->styles);
 523:..\..\..\arduinoLCD\test\Pain Drain\libraries\lvgl\src\core/lv_obj_style.c **** 
 524:..\..\..\arduinoLCD\test\Pain Drain\libraries\lvgl\src\core/lv_obj_style.c ****     for(i = obj->style_cnt - 1; i > 0 ; i--) {
 525:..\..\..\arduinoLCD\test\Pain Drain\libraries\lvgl\src\core/lv_obj_style.c ****         /*Copy only normal styles (not local and transition).
 526:..\..\..\arduinoLCD\test\Pain Drain\libraries\lvgl\src\core/lv_obj_style.c ****          *The new local style will be added as the last local style*/
 527:..\..\..\arduinoLCD\test\Pain Drain\libraries\lvgl\src\core/lv_obj_style.c ****         if(obj->styles[i - 1].is_local || obj->styles[i - 1].is_trans) break;
 528:..\..\..\arduinoLCD\test\Pain Drain\libraries\lvgl\src\core/lv_obj_style.c ****         obj->styles[i] = obj->styles[i - 1];
 529:..\..\..\arduinoLCD\test\Pain Drain\libraries\lvgl\src\core/lv_obj_style.c ****     }
 530:..\..\..\arduinoLCD\test\Pain Drain\libraries\lvgl\src\core/lv_obj_style.c **** 
 531:..\..\..\arduinoLCD\test\Pain Drain\libraries\lvgl\src\core/lv_obj_style.c ****     lv_memset_00(&obj->styles[i], sizeof(_lv_obj_style_t));
 532:..\..\..\arduinoLCD\test\Pain Drain\libraries\lvgl\src\core/lv_obj_style.c ****     obj->styles[i].style = lv_mem_alloc(sizeof(lv_style_t));
 533:..\..\..\arduinoLCD\test\Pain Drain\libraries\lvgl\src\core/lv_obj_style.c ****     lv_style_init(obj->styles[i].style);
 534:..\..\..\arduinoLCD\test\Pain Drain\libraries\lvgl\src\core/lv_obj_style.c ****     obj->styles[i].is_local = 1;
 535:..\..\..\arduinoLCD\test\Pain Drain\libraries\lvgl\src\core/lv_obj_style.c ****     obj->styles[i].selector = selector;
 536:..\..\..\arduinoLCD\test\Pain Drain\libraries\lvgl\src\core/lv_obj_style.c ****     return obj->styles[i].style;
 537:..\..\..\arduinoLCD\test\Pain Drain\libraries\lvgl\src\core/lv_obj_style.c **** }
 538:..\..\..\arduinoLCD\test\Pain Drain\libraries\lvgl\src\core/lv_obj_style.c **** 
 539:..\..\..\arduinoLCD\test\Pain Drain\libraries\lvgl\src\core/lv_obj_style.c **** /**
 540:..\..\..\arduinoLCD\test\Pain Drain\libraries\lvgl\src\core/lv_obj_style.c ****  * Get the transition style of an object for a given part and for a given state.
 541:..\..\..\arduinoLCD\test\Pain Drain\libraries\lvgl\src\core/lv_obj_style.c ****  * If the transition style for the part-state pair doesn't exist allocate and return it.
 542:..\..\..\arduinoLCD\test\Pain Drain\libraries\lvgl\src\core/lv_obj_style.c ****  * @param obj   pointer to an object
 543:..\..\..\arduinoLCD\test\Pain Drain\libraries\lvgl\src\core/lv_obj_style.c ****  * @param selector OR-ed value of parts and state for which the style should be get
 544:..\..\..\arduinoLCD\test\Pain Drain\libraries\lvgl\src\core/lv_obj_style.c ****  * @return pointer to the transition style
ARM GAS  C:\Users\haske\AppData\Local\Temp\ccLxalmh.s 			page 11


 545:..\..\..\arduinoLCD\test\Pain Drain\libraries\lvgl\src\core/lv_obj_style.c ****  */
 546:..\..\..\arduinoLCD\test\Pain Drain\libraries\lvgl\src\core/lv_obj_style.c **** static _lv_obj_style_t * get_trans_style(lv_obj_t * obj,  lv_style_selector_t selector)
 547:..\..\..\arduinoLCD\test\Pain Drain\libraries\lvgl\src\core/lv_obj_style.c **** {
 548:..\..\..\arduinoLCD\test\Pain Drain\libraries\lvgl\src\core/lv_obj_style.c ****     uint32_t i;
 549:..\..\..\arduinoLCD\test\Pain Drain\libraries\lvgl\src\core/lv_obj_style.c ****     for(i = 0; i < obj->style_cnt; i++) {
 550:..\..\..\arduinoLCD\test\Pain Drain\libraries\lvgl\src\core/lv_obj_style.c ****         if(obj->styles[i].is_trans && obj->styles[i].selector == selector) break;
 551:..\..\..\arduinoLCD\test\Pain Drain\libraries\lvgl\src\core/lv_obj_style.c ****     }
 552:..\..\..\arduinoLCD\test\Pain Drain\libraries\lvgl\src\core/lv_obj_style.c **** 
 553:..\..\..\arduinoLCD\test\Pain Drain\libraries\lvgl\src\core/lv_obj_style.c ****     /*Already have a transition style for it*/
 554:..\..\..\arduinoLCD\test\Pain Drain\libraries\lvgl\src\core/lv_obj_style.c ****     if(i != obj->style_cnt) return &obj->styles[i];
 555:..\..\..\arduinoLCD\test\Pain Drain\libraries\lvgl\src\core/lv_obj_style.c **** 
 556:..\..\..\arduinoLCD\test\Pain Drain\libraries\lvgl\src\core/lv_obj_style.c ****     obj->style_cnt++;
 557:..\..\..\arduinoLCD\test\Pain Drain\libraries\lvgl\src\core/lv_obj_style.c ****     obj->styles = lv_mem_realloc(obj->styles, obj->style_cnt * sizeof(_lv_obj_style_t));
 558:..\..\..\arduinoLCD\test\Pain Drain\libraries\lvgl\src\core/lv_obj_style.c **** 
 559:..\..\..\arduinoLCD\test\Pain Drain\libraries\lvgl\src\core/lv_obj_style.c ****     for(i = obj->style_cnt - 1; i > 0 ; i--) {
 560:..\..\..\arduinoLCD\test\Pain Drain\libraries\lvgl\src\core/lv_obj_style.c ****         obj->styles[i] = obj->styles[i - 1];
 561:..\..\..\arduinoLCD\test\Pain Drain\libraries\lvgl\src\core/lv_obj_style.c ****     }
 562:..\..\..\arduinoLCD\test\Pain Drain\libraries\lvgl\src\core/lv_obj_style.c **** 
 563:..\..\..\arduinoLCD\test\Pain Drain\libraries\lvgl\src\core/lv_obj_style.c ****     lv_memset_00(&obj->styles[0], sizeof(_lv_obj_style_t));
 564:..\..\..\arduinoLCD\test\Pain Drain\libraries\lvgl\src\core/lv_obj_style.c ****     obj->styles[0].style = lv_mem_alloc(sizeof(lv_style_t));
 565:..\..\..\arduinoLCD\test\Pain Drain\libraries\lvgl\src\core/lv_obj_style.c ****     lv_style_init(obj->styles[0].style);
 566:..\..\..\arduinoLCD\test\Pain Drain\libraries\lvgl\src\core/lv_obj_style.c ****     obj->styles[0].is_trans = 1;
 567:..\..\..\arduinoLCD\test\Pain Drain\libraries\lvgl\src\core/lv_obj_style.c ****     obj->styles[0].selector = selector;
 568:..\..\..\arduinoLCD\test\Pain Drain\libraries\lvgl\src\core/lv_obj_style.c ****     return &obj->styles[0];
 569:..\..\..\arduinoLCD\test\Pain Drain\libraries\lvgl\src\core/lv_obj_style.c **** }
 570:..\..\..\arduinoLCD\test\Pain Drain\libraries\lvgl\src\core/lv_obj_style.c **** 
 571:..\..\..\arduinoLCD\test\Pain Drain\libraries\lvgl\src\core/lv_obj_style.c **** 
 572:..\..\..\arduinoLCD\test\Pain Drain\libraries\lvgl\src\core/lv_obj_style.c **** static lv_style_res_t get_prop_core(const lv_obj_t * obj, lv_part_t part, lv_style_prop_t prop, lv_
 573:..\..\..\arduinoLCD\test\Pain Drain\libraries\lvgl\src\core/lv_obj_style.c **** {
 574:..\..\..\arduinoLCD\test\Pain Drain\libraries\lvgl\src\core/lv_obj_style.c ****     uint8_t group = 1 << _lv_style_get_prop_group(prop);
 575:..\..\..\arduinoLCD\test\Pain Drain\libraries\lvgl\src\core/lv_obj_style.c ****     int32_t weight = -1;
 576:..\..\..\arduinoLCD\test\Pain Drain\libraries\lvgl\src\core/lv_obj_style.c ****     lv_state_t state = obj->state;
 577:..\..\..\arduinoLCD\test\Pain Drain\libraries\lvgl\src\core/lv_obj_style.c ****     lv_state_t state_inv = ~state;
 578:..\..\..\arduinoLCD\test\Pain Drain\libraries\lvgl\src\core/lv_obj_style.c ****     lv_style_value_t value_tmp;
 579:..\..\..\arduinoLCD\test\Pain Drain\libraries\lvgl\src\core/lv_obj_style.c ****     bool skip_trans = obj->skip_trans;
 580:..\..\..\arduinoLCD\test\Pain Drain\libraries\lvgl\src\core/lv_obj_style.c ****     uint32_t i;
 581:..\..\..\arduinoLCD\test\Pain Drain\libraries\lvgl\src\core/lv_obj_style.c ****     lv_style_res_t found;
 582:..\..\..\arduinoLCD\test\Pain Drain\libraries\lvgl\src\core/lv_obj_style.c ****     for(i = 0; i < obj->style_cnt; i++) {
 583:..\..\..\arduinoLCD\test\Pain Drain\libraries\lvgl\src\core/lv_obj_style.c ****         _lv_obj_style_t * obj_style = &obj->styles[i];
 584:..\..\..\arduinoLCD\test\Pain Drain\libraries\lvgl\src\core/lv_obj_style.c ****         if(obj_style->is_trans == false) break;
 585:..\..\..\arduinoLCD\test\Pain Drain\libraries\lvgl\src\core/lv_obj_style.c ****         if(skip_trans) continue;
 586:..\..\..\arduinoLCD\test\Pain Drain\libraries\lvgl\src\core/lv_obj_style.c **** 
 587:..\..\..\arduinoLCD\test\Pain Drain\libraries\lvgl\src\core/lv_obj_style.c ****         lv_part_t part_act = lv_obj_style_get_selector_part(obj->styles[i].selector);
 588:..\..\..\arduinoLCD\test\Pain Drain\libraries\lvgl\src\core/lv_obj_style.c **** 
 589:..\..\..\arduinoLCD\test\Pain Drain\libraries\lvgl\src\core/lv_obj_style.c ****         if(part_act != part) continue;
 590:..\..\..\arduinoLCD\test\Pain Drain\libraries\lvgl\src\core/lv_obj_style.c ****         if((obj_style->style->has_group & group) == 0) continue;
 591:..\..\..\arduinoLCD\test\Pain Drain\libraries\lvgl\src\core/lv_obj_style.c ****         found = lv_style_get_prop(obj_style->style, prop, &value_tmp);
 592:..\..\..\arduinoLCD\test\Pain Drain\libraries\lvgl\src\core/lv_obj_style.c ****         if(found == LV_STYLE_RES_FOUND) {
 593:..\..\..\arduinoLCD\test\Pain Drain\libraries\lvgl\src\core/lv_obj_style.c ****             *v = value_tmp;
 594:..\..\..\arduinoLCD\test\Pain Drain\libraries\lvgl\src\core/lv_obj_style.c ****             return LV_STYLE_RES_FOUND;
 595:..\..\..\arduinoLCD\test\Pain Drain\libraries\lvgl\src\core/lv_obj_style.c ****         }
 596:..\..\..\arduinoLCD\test\Pain Drain\libraries\lvgl\src\core/lv_obj_style.c ****         else if(found == LV_STYLE_RES_INHERIT) {
 597:..\..\..\arduinoLCD\test\Pain Drain\libraries\lvgl\src\core/lv_obj_style.c ****             return LV_STYLE_RES_INHERIT;
 598:..\..\..\arduinoLCD\test\Pain Drain\libraries\lvgl\src\core/lv_obj_style.c ****         }
 599:..\..\..\arduinoLCD\test\Pain Drain\libraries\lvgl\src\core/lv_obj_style.c ****     }
 600:..\..\..\arduinoLCD\test\Pain Drain\libraries\lvgl\src\core/lv_obj_style.c **** 
 601:..\..\..\arduinoLCD\test\Pain Drain\libraries\lvgl\src\core/lv_obj_style.c ****     for(; i < obj->style_cnt; i++) {
ARM GAS  C:\Users\haske\AppData\Local\Temp\ccLxalmh.s 			page 12


 602:..\..\..\arduinoLCD\test\Pain Drain\libraries\lvgl\src\core/lv_obj_style.c ****         if((obj->styles[i].style->has_group & group) == 0) continue;
 603:..\..\..\arduinoLCD\test\Pain Drain\libraries\lvgl\src\core/lv_obj_style.c ****         _lv_obj_style_t * obj_style = &obj->styles[i];
 604:..\..\..\arduinoLCD\test\Pain Drain\libraries\lvgl\src\core/lv_obj_style.c ****         lv_part_t part_act = lv_obj_style_get_selector_part(obj->styles[i].selector);
 605:..\..\..\arduinoLCD\test\Pain Drain\libraries\lvgl\src\core/lv_obj_style.c ****         lv_state_t state_act = lv_obj_style_get_selector_state(obj->styles[i].selector);
 606:..\..\..\arduinoLCD\test\Pain Drain\libraries\lvgl\src\core/lv_obj_style.c ****         if(part_act != part) continue;
 607:..\..\..\arduinoLCD\test\Pain Drain\libraries\lvgl\src\core/lv_obj_style.c **** 
 608:..\..\..\arduinoLCD\test\Pain Drain\libraries\lvgl\src\core/lv_obj_style.c ****         /*Be sure the style not specifies other state than the requested.
 609:..\..\..\arduinoLCD\test\Pain Drain\libraries\lvgl\src\core/lv_obj_style.c ****          *E.g. For HOVER+PRESS object state, HOVER style only is OK, but HOVER+FOCUS style is not*/
 610:..\..\..\arduinoLCD\test\Pain Drain\libraries\lvgl\src\core/lv_obj_style.c ****         if((state_act & state_inv)) continue;
 611:..\..\..\arduinoLCD\test\Pain Drain\libraries\lvgl\src\core/lv_obj_style.c **** 
 612:..\..\..\arduinoLCD\test\Pain Drain\libraries\lvgl\src\core/lv_obj_style.c ****         /*Check only better candidates*/
 613:..\..\..\arduinoLCD\test\Pain Drain\libraries\lvgl\src\core/lv_obj_style.c ****         if(state_act <= weight) continue;
 614:..\..\..\arduinoLCD\test\Pain Drain\libraries\lvgl\src\core/lv_obj_style.c **** 
 615:..\..\..\arduinoLCD\test\Pain Drain\libraries\lvgl\src\core/lv_obj_style.c ****         found = lv_style_get_prop(obj_style->style, prop, &value_tmp);
 616:..\..\..\arduinoLCD\test\Pain Drain\libraries\lvgl\src\core/lv_obj_style.c **** 
 617:..\..\..\arduinoLCD\test\Pain Drain\libraries\lvgl\src\core/lv_obj_style.c ****         if(found == LV_STYLE_RES_FOUND) {
 618:..\..\..\arduinoLCD\test\Pain Drain\libraries\lvgl\src\core/lv_obj_style.c ****             if(state_act == state) {
 619:..\..\..\arduinoLCD\test\Pain Drain\libraries\lvgl\src\core/lv_obj_style.c ****                 *v = value_tmp;
 620:..\..\..\arduinoLCD\test\Pain Drain\libraries\lvgl\src\core/lv_obj_style.c ****                 return LV_STYLE_RES_FOUND;
 621:..\..\..\arduinoLCD\test\Pain Drain\libraries\lvgl\src\core/lv_obj_style.c ****             }
 622:..\..\..\arduinoLCD\test\Pain Drain\libraries\lvgl\src\core/lv_obj_style.c ****             if(weight < state_act) {
 623:..\..\..\arduinoLCD\test\Pain Drain\libraries\lvgl\src\core/lv_obj_style.c ****                 weight = state_act;
 624:..\..\..\arduinoLCD\test\Pain Drain\libraries\lvgl\src\core/lv_obj_style.c ****                 *v = value_tmp;
 625:..\..\..\arduinoLCD\test\Pain Drain\libraries\lvgl\src\core/lv_obj_style.c ****             }
 626:..\..\..\arduinoLCD\test\Pain Drain\libraries\lvgl\src\core/lv_obj_style.c ****         }
 627:..\..\..\arduinoLCD\test\Pain Drain\libraries\lvgl\src\core/lv_obj_style.c ****         else if(found == LV_STYLE_RES_INHERIT) {
 628:..\..\..\arduinoLCD\test\Pain Drain\libraries\lvgl\src\core/lv_obj_style.c ****             return LV_STYLE_RES_INHERIT;
 629:..\..\..\arduinoLCD\test\Pain Drain\libraries\lvgl\src\core/lv_obj_style.c ****         }
 630:..\..\..\arduinoLCD\test\Pain Drain\libraries\lvgl\src\core/lv_obj_style.c ****     }
 631:..\..\..\arduinoLCD\test\Pain Drain\libraries\lvgl\src\core/lv_obj_style.c **** 
 632:..\..\..\arduinoLCD\test\Pain Drain\libraries\lvgl\src\core/lv_obj_style.c ****     if(weight >= 0) {
 633:..\..\..\arduinoLCD\test\Pain Drain\libraries\lvgl\src\core/lv_obj_style.c ****         *v = value_tmp;
 634:..\..\..\arduinoLCD\test\Pain Drain\libraries\lvgl\src\core/lv_obj_style.c ****         return LV_STYLE_RES_FOUND;
 635:..\..\..\arduinoLCD\test\Pain Drain\libraries\lvgl\src\core/lv_obj_style.c ****     }
 636:..\..\..\arduinoLCD\test\Pain Drain\libraries\lvgl\src\core/lv_obj_style.c ****     else return LV_STYLE_RES_NOT_FOUND;
 637:..\..\..\arduinoLCD\test\Pain Drain\libraries\lvgl\src\core/lv_obj_style.c **** }
 638:..\..\..\arduinoLCD\test\Pain Drain\libraries\lvgl\src\core/lv_obj_style.c **** 
 639:..\..\..\arduinoLCD\test\Pain Drain\libraries\lvgl\src\core/lv_obj_style.c **** /**
 640:..\..\..\arduinoLCD\test\Pain Drain\libraries\lvgl\src\core/lv_obj_style.c ****  * Refresh the style of all children of an object. (Called recursively)
 641:..\..\..\arduinoLCD\test\Pain Drain\libraries\lvgl\src\core/lv_obj_style.c ****  * @param style refresh objects only with this
 642:..\..\..\arduinoLCD\test\Pain Drain\libraries\lvgl\src\core/lv_obj_style.c ****  * @param obj pointer to an object
 643:..\..\..\arduinoLCD\test\Pain Drain\libraries\lvgl\src\core/lv_obj_style.c ****  */
 644:..\..\..\arduinoLCD\test\Pain Drain\libraries\lvgl\src\core/lv_obj_style.c **** static void report_style_change_core(void * style, lv_obj_t * obj)
 645:..\..\..\arduinoLCD\test\Pain Drain\libraries\lvgl\src\core/lv_obj_style.c **** {
 646:..\..\..\arduinoLCD\test\Pain Drain\libraries\lvgl\src\core/lv_obj_style.c ****     uint32_t i;
 647:..\..\..\arduinoLCD\test\Pain Drain\libraries\lvgl\src\core/lv_obj_style.c ****     for(i = 0; i < obj->style_cnt; i++) {
 648:..\..\..\arduinoLCD\test\Pain Drain\libraries\lvgl\src\core/lv_obj_style.c ****         if(style == NULL || obj->styles[i].style == style) {
 649:..\..\..\arduinoLCD\test\Pain Drain\libraries\lvgl\src\core/lv_obj_style.c ****             lv_obj_refresh_style(obj, LV_PART_ANY, LV_STYLE_PROP_ANY);
 650:..\..\..\arduinoLCD\test\Pain Drain\libraries\lvgl\src\core/lv_obj_style.c ****             break;
 651:..\..\..\arduinoLCD\test\Pain Drain\libraries\lvgl\src\core/lv_obj_style.c ****         }
 652:..\..\..\arduinoLCD\test\Pain Drain\libraries\lvgl\src\core/lv_obj_style.c ****     }
 653:..\..\..\arduinoLCD\test\Pain Drain\libraries\lvgl\src\core/lv_obj_style.c **** 
 654:..\..\..\arduinoLCD\test\Pain Drain\libraries\lvgl\src\core/lv_obj_style.c ****     uint32_t child_cnt = lv_obj_get_child_cnt(obj);
 655:..\..\..\arduinoLCD\test\Pain Drain\libraries\lvgl\src\core/lv_obj_style.c ****     for(i = 0; i < child_cnt; i++) {
 656:..\..\..\arduinoLCD\test\Pain Drain\libraries\lvgl\src\core/lv_obj_style.c ****         report_style_change_core(style, obj->spec_attr->children[i]);
 657:..\..\..\arduinoLCD\test\Pain Drain\libraries\lvgl\src\core/lv_obj_style.c ****     }
 658:..\..\..\arduinoLCD\test\Pain Drain\libraries\lvgl\src\core/lv_obj_style.c **** }
ARM GAS  C:\Users\haske\AppData\Local\Temp\ccLxalmh.s 			page 13


 659:..\..\..\arduinoLCD\test\Pain Drain\libraries\lvgl\src\core/lv_obj_style.c **** 
 660:..\..\..\arduinoLCD\test\Pain Drain\libraries\lvgl\src\core/lv_obj_style.c **** /**
 661:..\..\..\arduinoLCD\test\Pain Drain\libraries\lvgl\src\core/lv_obj_style.c ****  * Recursively refresh the style of the children. Go deeper until a not NULL style is found
 662:..\..\..\arduinoLCD\test\Pain Drain\libraries\lvgl\src\core/lv_obj_style.c ****  * because the NULL styles are inherited from the parent
 663:..\..\..\arduinoLCD\test\Pain Drain\libraries\lvgl\src\core/lv_obj_style.c ****  * @param obj pointer to an object
 664:..\..\..\arduinoLCD\test\Pain Drain\libraries\lvgl\src\core/lv_obj_style.c ****  */
 665:..\..\..\arduinoLCD\test\Pain Drain\libraries\lvgl\src\core/lv_obj_style.c **** static void refresh_children_style(lv_obj_t * obj)
 666:..\..\..\arduinoLCD\test\Pain Drain\libraries\lvgl\src\core/lv_obj_style.c **** {
 667:..\..\..\arduinoLCD\test\Pain Drain\libraries\lvgl\src\core/lv_obj_style.c ****     uint32_t i;
 668:..\..\..\arduinoLCD\test\Pain Drain\libraries\lvgl\src\core/lv_obj_style.c ****     uint32_t child_cnt = lv_obj_get_child_cnt(obj);
 669:..\..\..\arduinoLCD\test\Pain Drain\libraries\lvgl\src\core/lv_obj_style.c ****     for(i = 0; i < child_cnt; i++) {
 670:..\..\..\arduinoLCD\test\Pain Drain\libraries\lvgl\src\core/lv_obj_style.c ****         lv_obj_t * child = obj->spec_attr->children[i];
 671:..\..\..\arduinoLCD\test\Pain Drain\libraries\lvgl\src\core/lv_obj_style.c ****         lv_obj_invalidate(child);
 672:..\..\..\arduinoLCD\test\Pain Drain\libraries\lvgl\src\core/lv_obj_style.c ****         lv_event_send(child, LV_EVENT_STYLE_CHANGED, NULL);
 673:..\..\..\arduinoLCD\test\Pain Drain\libraries\lvgl\src\core/lv_obj_style.c ****         lv_obj_invalidate(child);
 674:..\..\..\arduinoLCD\test\Pain Drain\libraries\lvgl\src\core/lv_obj_style.c **** 
 675:..\..\..\arduinoLCD\test\Pain Drain\libraries\lvgl\src\core/lv_obj_style.c ****         refresh_children_style(child); /*Check children too*/
 676:..\..\..\arduinoLCD\test\Pain Drain\libraries\lvgl\src\core/lv_obj_style.c ****     }
 677:..\..\..\arduinoLCD\test\Pain Drain\libraries\lvgl\src\core/lv_obj_style.c **** }
 678:..\..\..\arduinoLCD\test\Pain Drain\libraries\lvgl\src\core/lv_obj_style.c **** 
 679:..\..\..\arduinoLCD\test\Pain Drain\libraries\lvgl\src\core/lv_obj_style.c **** /**
 680:..\..\..\arduinoLCD\test\Pain Drain\libraries\lvgl\src\core/lv_obj_style.c ****  * Remove the transition from object's part's property.
 681:..\..\..\arduinoLCD\test\Pain Drain\libraries\lvgl\src\core/lv_obj_style.c ****  * - Remove the transition from `_lv_obj_style_trans_ll` and free it
 682:..\..\..\arduinoLCD\test\Pain Drain\libraries\lvgl\src\core/lv_obj_style.c ****  * - Delete pending transitions
 683:..\..\..\arduinoLCD\test\Pain Drain\libraries\lvgl\src\core/lv_obj_style.c ****  * @param obj pointer to an object which transition(s) should be removed
 684:..\..\..\arduinoLCD\test\Pain Drain\libraries\lvgl\src\core/lv_obj_style.c ****  * @param part a part of object or 0xFF to remove from all parts
 685:..\..\..\arduinoLCD\test\Pain Drain\libraries\lvgl\src\core/lv_obj_style.c ****  * @param prop a property or 0xFF to remove all properties
 686:..\..\..\arduinoLCD\test\Pain Drain\libraries\lvgl\src\core/lv_obj_style.c ****  * @param tr_limit delete transitions only "older" than this. `NULL` if not used
 687:..\..\..\arduinoLCD\test\Pain Drain\libraries\lvgl\src\core/lv_obj_style.c ****  */
 688:..\..\..\arduinoLCD\test\Pain Drain\libraries\lvgl\src\core/lv_obj_style.c **** static bool trans_del(lv_obj_t * obj, lv_part_t part, lv_style_prop_t prop, trans_t * tr_limit)
 689:..\..\..\arduinoLCD\test\Pain Drain\libraries\lvgl\src\core/lv_obj_style.c **** {
  27              		.loc 1 689 0
  28              		.cfi_startproc
  29              		@ args = 0, pretend = 0, frame = 8
  30              		@ frame_needed = 0, uses_anonymous_args = 0
  31              	.LVL0:
  32 0000 F0B5     		push	{r4, r5, r6, r7, lr}
  33              		.cfi_def_cfa_offset 20
  34              		.cfi_offset 4, -20
  35              		.cfi_offset 5, -16
  36              		.cfi_offset 6, -12
  37              		.cfi_offset 7, -8
  38              		.cfi_offset 14, -4
  39 0002 5746     		mov	r7, r10
  40 0004 4E46     		mov	r6, r9
  41 0006 C0B4     		push	{r6, r7}
  42              		.cfi_def_cfa_offset 28
  43              		.cfi_offset 9, -28
  44              		.cfi_offset 10, -24
  45 0008 83B0     		sub	sp, sp, #12
  46              		.cfi_def_cfa_offset 40
  47 000a 0600     		movs	r6, r0
  48 000c 8946     		mov	r9, r1
  49 000e 9246     		mov	r10, r2
  50 0010 1D00     		movs	r5, r3
  51              	.LVL1:
 690:..\..\..\arduinoLCD\test\Pain Drain\libraries\lvgl\src\core/lv_obj_style.c ****     trans_t * tr;
ARM GAS  C:\Users\haske\AppData\Local\Temp\ccLxalmh.s 			page 14


 691:..\..\..\arduinoLCD\test\Pain Drain\libraries\lvgl\src\core/lv_obj_style.c ****     trans_t * tr_prev;
 692:..\..\..\arduinoLCD\test\Pain Drain\libraries\lvgl\src\core/lv_obj_style.c ****     bool removed = false;
 693:..\..\..\arduinoLCD\test\Pain Drain\libraries\lvgl\src\core/lv_obj_style.c ****     tr = _lv_ll_get_tail(&LV_GC_ROOT(_lv_obj_style_trans_ll));
  52              		.loc 1 693 0
  53 0012 2848     		ldr	r0, .L13
  54              	.LVL2:
  55 0014 FFF7FEFF 		bl	_lv_ll_get_tail
  56              	.LVL3:
  57 0018 0400     		movs	r4, r0
  58              	.LVL4:
 692:..\..\..\arduinoLCD\test\Pain Drain\libraries\lvgl\src\core/lv_obj_style.c ****     tr = _lv_ll_get_tail(&LV_GC_ROOT(_lv_obj_style_trans_ll));
  59              		.loc 1 692 0
  60 001a 0027     		movs	r7, #0
 694:..\..\..\arduinoLCD\test\Pain Drain\libraries\lvgl\src\core/lv_obj_style.c ****     while(tr != NULL) {
  61              		.loc 1 694 0
  62 001c 42E0     		b	.L2
  63              	.LVL5:
  64              	.L10:
 695:..\..\..\arduinoLCD\test\Pain Drain\libraries\lvgl\src\core/lv_obj_style.c ****         if(tr == tr_limit) break;
  65              		.loc 1 695 0
  66 001e AC42     		cmp	r4, r5
  67 0020 42D0     		beq	.L3
 696:..\..\..\arduinoLCD\test\Pain Drain\libraries\lvgl\src\core/lv_obj_style.c **** 
 697:..\..\..\arduinoLCD\test\Pain Drain\libraries\lvgl\src\core/lv_obj_style.c ****         /*'tr' might be deleted, so get the next object while 'tr' is valid*/
 698:..\..\..\arduinoLCD\test\Pain Drain\libraries\lvgl\src\core/lv_obj_style.c ****         tr_prev = _lv_ll_get_prev(&LV_GC_ROOT(_lv_obj_style_trans_ll), tr);
  68              		.loc 1 698 0
  69 0022 2100     		movs	r1, r4
  70 0024 2348     		ldr	r0, .L13
  71 0026 FFF7FEFF 		bl	_lv_ll_get_prev
  72              	.LVL6:
  73 002a 0190     		str	r0, [sp, #4]
  74              	.LVL7:
 699:..\..\..\arduinoLCD\test\Pain Drain\libraries\lvgl\src\core/lv_obj_style.c **** 
 700:..\..\..\arduinoLCD\test\Pain Drain\libraries\lvgl\src\core/lv_obj_style.c ****         if(tr->obj == obj && (part == tr->selector || part == LV_PART_ANY) && (prop == tr->prop || 
  75              		.loc 1 700 0
  76 002c 2368     		ldr	r3, [r4]
  77 002e B342     		cmp	r3, r6
  78 0030 37D1     		bne	.L4
  79              		.loc 1 700 0 is_stmt 0 discriminator 1
  80 0032 A368     		ldr	r3, [r4, #8]
  81 0034 4B45     		cmp	r3, r9
  82 0036 03D0     		beq	.L5
  83              		.loc 1 700 0 discriminator 3
  84 0038 F023     		movs	r3, #240
  85 003a 1B03     		lsls	r3, r3, #12
  86 003c 9945     		cmp	r9, r3
  87 003e 30D1     		bne	.L4
  88              	.L5:
  89              		.loc 1 700 0 discriminator 4
  90 0040 A388     		ldrh	r3, [r4, #4]
  91 0042 5345     		cmp	r3, r10
  92 0044 19D0     		beq	.L11
  93              		.loc 1 700 0 discriminator 5
  94 0046 1C4B     		ldr	r3, .L13+4
  95 0048 9A45     		cmp	r10, r3
  96 004a 2AD1     		bne	.L4
  97 004c 17E0     		b	.L12
ARM GAS  C:\Users\haske\AppData\Local\Temp\ccLxalmh.s 			page 15


  98              	.LVL8:
  99              	.L9:
 100              	.LBB84:
 701:..\..\..\arduinoLCD\test\Pain Drain\libraries\lvgl\src\core/lv_obj_style.c ****             /*Remove any transitioned properties from the trans. style
 702:..\..\..\arduinoLCD\test\Pain Drain\libraries\lvgl\src\core/lv_obj_style.c ****              *to allow changing it by normal styles*/
 703:..\..\..\arduinoLCD\test\Pain Drain\libraries\lvgl\src\core/lv_obj_style.c ****             uint32_t i;
 704:..\..\..\arduinoLCD\test\Pain Drain\libraries\lvgl\src\core/lv_obj_style.c ****             for(i = 0; i < obj->style_cnt; i++) {
 705:..\..\..\arduinoLCD\test\Pain Drain\libraries\lvgl\src\core/lv_obj_style.c ****                 if(obj->styles[i].is_trans && (part == LV_PART_ANY || obj->styles[i].selector == pa
 101              		.loc 1 705 0 is_stmt 1
 102 004e FB00     		lsls	r3, r7, #3
 103 0050 F268     		ldr	r2, [r6, #12]
 104 0052 9446     		mov	ip, r2
 105 0054 6344     		add	r3, r3, ip
 106 0056 DA79     		ldrb	r2, [r3, #7]
 107 0058 9207     		lsls	r2, r2, #30
 108 005a 0CD5     		bpl	.L7
 109              		.loc 1 705 0 is_stmt 0 discriminator 1
 110 005c F022     		movs	r2, #240
 111 005e 1203     		lsls	r2, r2, #12
 112 0060 9145     		cmp	r9, r2
 113 0062 04D0     		beq	.L8
 114              		.loc 1 705 0 discriminator 2
 115 0064 5A68     		ldr	r2, [r3, #4]
 116 0066 1202     		lsls	r2, r2, #8
 117 0068 120A     		lsrs	r2, r2, #8
 118 006a 9145     		cmp	r9, r2
 119 006c 03D1     		bne	.L7
 120              	.L8:
 706:..\..\..\arduinoLCD\test\Pain Drain\libraries\lvgl\src\core/lv_obj_style.c ****                     lv_style_remove_prop(obj->styles[i].style, tr->prop);
 121              		.loc 1 706 0 is_stmt 1
 122 006e A188     		ldrh	r1, [r4, #4]
 123 0070 1868     		ldr	r0, [r3]
 124 0072 FFF7FEFF 		bl	lv_style_remove_prop
 125              	.LVL9:
 126              	.L7:
 704:..\..\..\arduinoLCD\test\Pain Drain\libraries\lvgl\src\core/lv_obj_style.c ****                 if(obj->styles[i].is_trans && (part == LV_PART_ANY || obj->styles[i].selector == pa
 127              		.loc 1 704 0 discriminator 2
 128 0076 0137     		adds	r7, r7, #1
 129              	.LVL10:
 130 0078 02E0     		b	.L6
 131              	.LVL11:
 132              	.L11:
 133              	.LBE84:
 134 007a 0027     		movs	r7, #0
 135              	.LVL12:
 136 007c 00E0     		b	.L6
 137              	.LVL13:
 138              	.L12:
 139 007e 0027     		movs	r7, #0
 140              	.LVL14:
 141              	.L6:
 142              	.LBB85:
 704:..\..\..\arduinoLCD\test\Pain Drain\libraries\lvgl\src\core/lv_obj_style.c ****                 if(obj->styles[i].is_trans && (part == LV_PART_ANY || obj->styles[i].selector == pa
 143              		.loc 1 704 0 is_stmt 0 discriminator 1
 144 0080 738C     		ldrh	r3, [r6, #34]
 145 0082 DB05     		lsls	r3, r3, #23
 146 0084 9B0E     		lsrs	r3, r3, #26
ARM GAS  C:\Users\haske\AppData\Local\Temp\ccLxalmh.s 			page 16


 147 0086 9F42     		cmp	r7, r3
 148 0088 E1D3     		bcc	.L9
 707:..\..\..\arduinoLCD\test\Pain Drain\libraries\lvgl\src\core/lv_obj_style.c ****                 }
 708:..\..\..\arduinoLCD\test\Pain Drain\libraries\lvgl\src\core/lv_obj_style.c ****             }
 709:..\..\..\arduinoLCD\test\Pain Drain\libraries\lvgl\src\core/lv_obj_style.c **** 
 710:..\..\..\arduinoLCD\test\Pain Drain\libraries\lvgl\src\core/lv_obj_style.c ****             /*Free the transition descriptor too*/
 711:..\..\..\arduinoLCD\test\Pain Drain\libraries\lvgl\src\core/lv_obj_style.c ****             lv_anim_del(tr, NULL);
 149              		.loc 1 711 0 is_stmt 1
 150 008a 0021     		movs	r1, #0
 151 008c 2000     		movs	r0, r4
 152 008e FFF7FEFF 		bl	lv_anim_del
 153              	.LVL15:
 712:..\..\..\arduinoLCD\test\Pain Drain\libraries\lvgl\src\core/lv_obj_style.c ****             _lv_ll_remove(&LV_GC_ROOT(_lv_obj_style_trans_ll), tr);
 154              		.loc 1 712 0
 155 0092 2100     		movs	r1, r4
 156 0094 0748     		ldr	r0, .L13
 157 0096 FFF7FEFF 		bl	_lv_ll_remove
 158              	.LVL16:
 713:..\..\..\arduinoLCD\test\Pain Drain\libraries\lvgl\src\core/lv_obj_style.c ****             lv_mem_free(tr);
 159              		.loc 1 713 0
 160 009a 2000     		movs	r0, r4
 161 009c FFF7FEFF 		bl	lv_mem_free
 162              	.LVL17:
 714:..\..\..\arduinoLCD\test\Pain Drain\libraries\lvgl\src\core/lv_obj_style.c ****             removed = true;
 163              		.loc 1 714 0
 164 00a0 0127     		movs	r7, #1
 165              	.LVL18:
 166              	.L4:
 167 00a2 019C     		ldr	r4, [sp, #4]
 168              	.LVL19:
 169              	.L2:
 170              	.LBE85:
 694:..\..\..\arduinoLCD\test\Pain Drain\libraries\lvgl\src\core/lv_obj_style.c ****         if(tr == tr_limit) break;
 171              		.loc 1 694 0
 172 00a4 002C     		cmp	r4, #0
 173 00a6 BAD1     		bne	.L10
 174              	.L3:
 715:..\..\..\arduinoLCD\test\Pain Drain\libraries\lvgl\src\core/lv_obj_style.c **** 
 716:..\..\..\arduinoLCD\test\Pain Drain\libraries\lvgl\src\core/lv_obj_style.c ****         }
 717:..\..\..\arduinoLCD\test\Pain Drain\libraries\lvgl\src\core/lv_obj_style.c ****         tr = tr_prev;
 718:..\..\..\arduinoLCD\test\Pain Drain\libraries\lvgl\src\core/lv_obj_style.c ****     }
 719:..\..\..\arduinoLCD\test\Pain Drain\libraries\lvgl\src\core/lv_obj_style.c ****     return removed;
 720:..\..\..\arduinoLCD\test\Pain Drain\libraries\lvgl\src\core/lv_obj_style.c **** }
 175              		.loc 1 720 0
 176 00a8 3800     		movs	r0, r7
 177 00aa 03B0     		add	sp, sp, #12
 178              		@ sp needed
 179              	.LVL20:
 180              	.LVL21:
 181              	.LVL22:
 182              	.LVL23:
 183              	.LVL24:
 184 00ac 0CBC     		pop	{r2, r3}
 185 00ae 9146     		mov	r9, r2
 186 00b0 9A46     		mov	r10, r3
 187 00b2 F0BD     		pop	{r4, r5, r6, r7, pc}
 188              	.L14:
ARM GAS  C:\Users\haske\AppData\Local\Temp\ccLxalmh.s 			page 17


 189              		.align	2
 190              	.L13:
 191 00b4 00000000 		.word	_lv_obj_style_trans_ll
 192 00b8 FFFF0000 		.word	65535
 193              		.cfi_endproc
 194              	.LFE189:
 195              		.size	trans_del, .-trans_del
 196              		.section	.text.refresh_children_style,"ax",%progbits
 197              		.align	2
 198              		.code	16
 199              		.thumb_func
 200              		.type	refresh_children_style, %function
 201              	refresh_children_style:
 202              	.LFB188:
 666:..\..\..\arduinoLCD\test\Pain Drain\libraries\lvgl\src\core/lv_obj_style.c ****     uint32_t i;
 203              		.loc 1 666 0
 204              		.cfi_startproc
 205              		@ args = 0, pretend = 0, frame = 0
 206              		@ frame_needed = 0, uses_anonymous_args = 0
 207              	.LVL25:
 208 0000 F8B5     		push	{r3, r4, r5, r6, r7, lr}
 209              		.cfi_def_cfa_offset 24
 210              		.cfi_offset 3, -24
 211              		.cfi_offset 4, -20
 212              		.cfi_offset 5, -16
 213              		.cfi_offset 6, -12
 214              		.cfi_offset 7, -8
 215              		.cfi_offset 14, -4
 216 0002 0700     		movs	r7, r0
 668:..\..\..\arduinoLCD\test\Pain Drain\libraries\lvgl\src\core/lv_obj_style.c ****     for(i = 0; i < child_cnt; i++) {
 217              		.loc 1 668 0
 218 0004 FFF7FEFF 		bl	lv_obj_get_child_cnt
 219              	.LVL26:
 220 0008 0600     		movs	r6, r0
 221              	.LVL27:
 669:..\..\..\arduinoLCD\test\Pain Drain\libraries\lvgl\src\core/lv_obj_style.c ****         lv_obj_t * child = obj->spec_attr->children[i];
 222              		.loc 1 669 0
 223 000a 0025     		movs	r5, #0
 224 000c 12E0     		b	.L16
 225              	.LVL28:
 226              	.L17:
 227              	.LBB86:
 670:..\..\..\arduinoLCD\test\Pain Drain\libraries\lvgl\src\core/lv_obj_style.c ****         lv_obj_invalidate(child);
 228              		.loc 1 670 0 discriminator 3
 229 000e BB68     		ldr	r3, [r7, #8]
 230 0010 1A68     		ldr	r2, [r3]
 231 0012 AB00     		lsls	r3, r5, #2
 232 0014 D458     		ldr	r4, [r2, r3]
 233              	.LVL29:
 671:..\..\..\arduinoLCD\test\Pain Drain\libraries\lvgl\src\core/lv_obj_style.c ****         lv_event_send(child, LV_EVENT_STYLE_CHANGED, NULL);
 234              		.loc 1 671 0 discriminator 3
 235 0016 2000     		movs	r0, r4
 236 0018 FFF7FEFF 		bl	lv_obj_invalidate
 237              	.LVL30:
 672:..\..\..\arduinoLCD\test\Pain Drain\libraries\lvgl\src\core/lv_obj_style.c ****         lv_obj_invalidate(child);
 238              		.loc 1 672 0 discriminator 3
 239 001c 0022     		movs	r2, #0
ARM GAS  C:\Users\haske\AppData\Local\Temp\ccLxalmh.s 			page 18


 240 001e 2A21     		movs	r1, #42
 241 0020 2000     		movs	r0, r4
 242 0022 FFF7FEFF 		bl	lv_event_send
 243              	.LVL31:
 673:..\..\..\arduinoLCD\test\Pain Drain\libraries\lvgl\src\core/lv_obj_style.c **** 
 244              		.loc 1 673 0 discriminator 3
 245 0026 2000     		movs	r0, r4
 246 0028 FFF7FEFF 		bl	lv_obj_invalidate
 247              	.LVL32:
 675:..\..\..\arduinoLCD\test\Pain Drain\libraries\lvgl\src\core/lv_obj_style.c ****     }
 248              		.loc 1 675 0 discriminator 3
 249 002c 2000     		movs	r0, r4
 250 002e FFF7E7FF 		bl	refresh_children_style
 251              	.LVL33:
 252              	.LBE86:
 669:..\..\..\arduinoLCD\test\Pain Drain\libraries\lvgl\src\core/lv_obj_style.c ****         lv_obj_t * child = obj->spec_attr->children[i];
 253              		.loc 1 669 0 discriminator 3
 254 0032 0135     		adds	r5, r5, #1
 255              	.LVL34:
 256              	.L16:
 669:..\..\..\arduinoLCD\test\Pain Drain\libraries\lvgl\src\core/lv_obj_style.c ****         lv_obj_t * child = obj->spec_attr->children[i];
 257              		.loc 1 669 0 is_stmt 0 discriminator 1
 258 0034 B542     		cmp	r5, r6
 259 0036 EAD3     		bcc	.L17
 677:..\..\..\arduinoLCD\test\Pain Drain\libraries\lvgl\src\core/lv_obj_style.c **** 
 260              		.loc 1 677 0 is_stmt 1
 261              		@ sp needed
 262              	.LVL35:
 263              	.LVL36:
 264              	.LVL37:
 265 0038 F8BD     		pop	{r3, r4, r5, r6, r7, pc}
 266              		.cfi_endproc
 267              	.LFE188:
 268              		.size	refresh_children_style, .-refresh_children_style
 269 003a C046     		.section	.text.get_local_style,"ax",%progbits
 270              		.align	2
 271              		.code	16
 272              		.thumb_func
 273              		.type	get_local_style, %function
 274              	get_local_style:
 275              	.LFB184:
 511:..\..\..\arduinoLCD\test\Pain Drain\libraries\lvgl\src\core/lv_obj_style.c ****     uint32_t i;
 276              		.loc 1 511 0
 277              		.cfi_startproc
 278              		@ args = 0, pretend = 0, frame = 0
 279              		@ frame_needed = 0, uses_anonymous_args = 0
 280              	.LVL38:
 281 0000 F8B5     		push	{r3, r4, r5, r6, r7, lr}
 282              		.cfi_def_cfa_offset 24
 283              		.cfi_offset 3, -24
 284              		.cfi_offset 4, -20
 285              		.cfi_offset 5, -16
 286              		.cfi_offset 6, -12
 287              		.cfi_offset 7, -8
 288              		.cfi_offset 14, -4
 289 0002 0400     		movs	r4, r0
 290 0004 0D00     		movs	r5, r1
ARM GAS  C:\Users\haske\AppData\Local\Temp\ccLxalmh.s 			page 19


 291              	.LVL39:
 513:..\..\..\arduinoLCD\test\Pain Drain\libraries\lvgl\src\core/lv_obj_style.c ****         if(obj->styles[i].is_local &&
 292              		.loc 1 513 0
 293 0006 0022     		movs	r2, #0
 294 0008 0EE0     		b	.L19
 295              	.LVL40:
 296              	.L22:
 514:..\..\..\arduinoLCD\test\Pain Drain\libraries\lvgl\src\core/lv_obj_style.c ****            obj->styles[i].selector == selector) {
 297              		.loc 1 514 0
 298 000a D300     		lsls	r3, r2, #3
 299 000c E168     		ldr	r1, [r4, #12]
 300 000e 8C46     		mov	ip, r1
 301 0010 6344     		add	r3, r3, ip
 302 0012 D979     		ldrb	r1, [r3, #7]
 303 0014 C907     		lsls	r1, r1, #31
 304 0016 06D5     		bpl	.L20
 515:..\..\..\arduinoLCD\test\Pain Drain\libraries\lvgl\src\core/lv_obj_style.c ****             return obj->styles[i].style;
 305              		.loc 1 515 0 discriminator 1
 306 0018 5968     		ldr	r1, [r3, #4]
 307 001a 0902     		lsls	r1, r1, #8
 308 001c 090A     		lsrs	r1, r1, #8
 514:..\..\..\arduinoLCD\test\Pain Drain\libraries\lvgl\src\core/lv_obj_style.c ****            obj->styles[i].selector == selector) {
 309              		.loc 1 514 0 discriminator 1
 310 001e A942     		cmp	r1, r5
 311 0020 01D1     		bne	.L20
 516:..\..\..\arduinoLCD\test\Pain Drain\libraries\lvgl\src\core/lv_obj_style.c ****         }
 312              		.loc 1 516 0
 313 0022 1868     		ldr	r0, [r3]
 314              	.LVL41:
 315 0024 4AE0     		b	.L21
 316              	.LVL42:
 317              	.L20:
 513:..\..\..\arduinoLCD\test\Pain Drain\libraries\lvgl\src\core/lv_obj_style.c ****         if(obj->styles[i].is_local &&
 318              		.loc 1 513 0 discriminator 2
 319 0026 0132     		adds	r2, r2, #1
 320              	.LVL43:
 321              	.L19:
 513:..\..\..\arduinoLCD\test\Pain Drain\libraries\lvgl\src\core/lv_obj_style.c ****         if(obj->styles[i].is_local &&
 322              		.loc 1 513 0 is_stmt 0 discriminator 1
 323 0028 638C     		ldrh	r3, [r4, #34]
 324 002a DB05     		lsls	r3, r3, #23
 325 002c 9B0E     		lsrs	r3, r3, #26
 326 002e 9A42     		cmp	r2, r3
 327 0030 EBD3     		bcc	.L22
 520:..\..\..\arduinoLCD\test\Pain Drain\libraries\lvgl\src\core/lv_obj_style.c ****     obj->styles = lv_mem_realloc(obj->styles, obj->style_cnt * sizeof(_lv_obj_style_t));
 328              		.loc 1 520 0 is_stmt 1
 329 0032 0133     		adds	r3, r3, #1
 330 0034 3F21     		movs	r1, #63
 331 0036 1940     		ands	r1, r3
 332 0038 CA00     		lsls	r2, r1, #3
 333              	.LVL44:
 334 003a 608C     		ldrh	r0, [r4, #34]
 335              	.LVL45:
 336 003c 204B     		ldr	r3, .L28
 337 003e 0340     		ands	r3, r0
 338 0040 1343     		orrs	r3, r2
 339 0042 6384     		strh	r3, [r4, #34]
ARM GAS  C:\Users\haske\AppData\Local\Temp\ccLxalmh.s 			page 20


 521:..\..\..\arduinoLCD\test\Pain Drain\libraries\lvgl\src\core/lv_obj_style.c ****     LV_ASSERT_MALLOC(obj->styles);
 340              		.loc 1 521 0
 341 0044 1100     		movs	r1, r2
 342 0046 E068     		ldr	r0, [r4, #12]
 343 0048 FFF7FEFF 		bl	lv_mem_realloc
 344              	.LVL46:
 345 004c E060     		str	r0, [r4, #12]
 522:..\..\..\arduinoLCD\test\Pain Drain\libraries\lvgl\src\core/lv_obj_style.c **** 
 346              		.loc 1 522 0
 347 004e 0028     		cmp	r0, #0
 348 0050 00D1     		bne	.L23
 349              	.L24:
 350 0052 FEE7     		b	.L24
 351              	.L23:
 524:..\..\..\arduinoLCD\test\Pain Drain\libraries\lvgl\src\core/lv_obj_style.c ****         /*Copy only normal styles (not local and transition).
 352              		.loc 1 524 0
 353 0054 628C     		ldrh	r2, [r4, #34]
 354 0056 D205     		lsls	r2, r2, #23
 355 0058 920E     		lsrs	r2, r2, #26
 356 005a 013A     		subs	r2, r2, #1
 357              	.LVL47:
 358 005c 0CE0     		b	.L25
 359              	.L27:
 527:..\..\..\arduinoLCD\test\Pain Drain\libraries\lvgl\src\core/lv_obj_style.c ****         obj->styles[i] = obj->styles[i - 1];
 360              		.loc 1 527 0
 361 005e E068     		ldr	r0, [r4, #12]
 362 0060 184B     		ldr	r3, .L28+4
 363 0062 D318     		adds	r3, r2, r3
 364 0064 DB00     		lsls	r3, r3, #3
 365 0066 C318     		adds	r3, r0, r3
 366 0068 D979     		ldrb	r1, [r3, #7]
 367 006a 8907     		lsls	r1, r1, #30
 368 006c 06D1     		bne	.L26
 528:..\..\..\arduinoLCD\test\Pain Drain\libraries\lvgl\src\core/lv_obj_style.c ****     }
 369              		.loc 1 528 0 discriminator 2
 370 006e D100     		lsls	r1, r2, #3
 371 0070 4118     		adds	r1, r0, r1
 372 0072 41CB     		ldmia	r3!, {r0, r6}
 373 0074 41C1     		stmia	r1!, {r0, r6}
 524:..\..\..\arduinoLCD\test\Pain Drain\libraries\lvgl\src\core/lv_obj_style.c ****         /*Copy only normal styles (not local and transition).
 374              		.loc 1 524 0 discriminator 2
 375 0076 013A     		subs	r2, r2, #1
 376              	.LVL48:
 377              	.L25:
 524:..\..\..\arduinoLCD\test\Pain Drain\libraries\lvgl\src\core/lv_obj_style.c ****         /*Copy only normal styles (not local and transition).
 378              		.loc 1 524 0 is_stmt 0 discriminator 1
 379 0078 002A     		cmp	r2, #0
 380 007a F0D1     		bne	.L27
 381              	.L26:
 531:..\..\..\arduinoLCD\test\Pain Drain\libraries\lvgl\src\core/lv_obj_style.c ****     obj->styles[i].style = lv_mem_alloc(sizeof(lv_style_t));
 382              		.loc 1 531 0 is_stmt 1
 383 007c D600     		lsls	r6, r2, #3
 384 007e E368     		ldr	r3, [r4, #12]
 385 0080 9819     		adds	r0, r3, r6
 386 0082 0821     		movs	r1, #8
 387 0084 FFF7FEFF 		bl	lv_memset_00
 388              	.LVL49:
ARM GAS  C:\Users\haske\AppData\Local\Temp\ccLxalmh.s 			page 21


 532:..\..\..\arduinoLCD\test\Pain Drain\libraries\lvgl\src\core/lv_obj_style.c ****     lv_style_init(obj->styles[i].style);
 389              		.loc 1 532 0
 390 0088 E368     		ldr	r3, [r4, #12]
 391 008a 9F19     		adds	r7, r3, r6
 392 008c 0820     		movs	r0, #8
 393 008e FFF7FEFF 		bl	lv_mem_alloc
 394              	.LVL50:
 395 0092 3860     		str	r0, [r7]
 533:..\..\..\arduinoLCD\test\Pain Drain\libraries\lvgl\src\core/lv_obj_style.c ****     obj->styles[i].is_local = 1;
 396              		.loc 1 533 0
 397 0094 E368     		ldr	r3, [r4, #12]
 398 0096 9859     		ldr	r0, [r3, r6]
 399 0098 FFF7FEFF 		bl	lv_style_init
 400              	.LVL51:
 534:..\..\..\arduinoLCD\test\Pain Drain\libraries\lvgl\src\core/lv_obj_style.c ****     obj->styles[i].selector = selector;
 401              		.loc 1 534 0
 402 009c E368     		ldr	r3, [r4, #12]
 403 009e 9B19     		adds	r3, r3, r6
 404 00a0 D979     		ldrb	r1, [r3, #7]
 405 00a2 0122     		movs	r2, #1
 406 00a4 0A43     		orrs	r2, r1
 407 00a6 DA71     		strb	r2, [r3, #7]
 535:..\..\..\arduinoLCD\test\Pain Drain\libraries\lvgl\src\core/lv_obj_style.c ****     return obj->styles[i].style;
 408              		.loc 1 535 0
 409 00a8 E368     		ldr	r3, [r4, #12]
 410 00aa 9A19     		adds	r2, r3, r6
 411 00ac 2D02     		lsls	r5, r5, #8
 412              	.LVL52:
 413 00ae 2D0A     		lsrs	r5, r5, #8
 414 00b0 D379     		ldrb	r3, [r2, #7]
 415 00b2 1B06     		lsls	r3, r3, #24
 416 00b4 2B43     		orrs	r3, r5
 417 00b6 5360     		str	r3, [r2, #4]
 536:..\..\..\arduinoLCD\test\Pain Drain\libraries\lvgl\src\core/lv_obj_style.c **** }
 418              		.loc 1 536 0
 419 00b8 E368     		ldr	r3, [r4, #12]
 420 00ba 9859     		ldr	r0, [r3, r6]
 421              	.L21:
 537:..\..\..\arduinoLCD\test\Pain Drain\libraries\lvgl\src\core/lv_obj_style.c **** 
 422              		.loc 1 537 0
 423              		@ sp needed
 424              	.LVL53:
 425 00bc F8BD     		pop	{r3, r4, r5, r6, r7, pc}
 426              	.L29:
 427 00be C046     		.align	2
 428              	.L28:
 429 00c0 07FEFFFF 		.word	-505
 430 00c4 FFFFFF1F 		.word	536870911
 431              		.cfi_endproc
 432              	.LFE184:
 433              		.size	get_local_style, .-get_local_style
 434              		.section	.text.get_trans_style,"ax",%progbits
 435              		.align	2
 436              		.code	16
 437              		.thumb_func
 438              		.type	get_trans_style, %function
 439              	get_trans_style:
ARM GAS  C:\Users\haske\AppData\Local\Temp\ccLxalmh.s 			page 22


 440              	.LFB185:
 547:..\..\..\arduinoLCD\test\Pain Drain\libraries\lvgl\src\core/lv_obj_style.c ****     uint32_t i;
 441              		.loc 1 547 0
 442              		.cfi_startproc
 443              		@ args = 0, pretend = 0, frame = 0
 444              		@ frame_needed = 0, uses_anonymous_args = 0
 445              	.LVL54:
 446 0000 70B5     		push	{r4, r5, r6, lr}
 447              		.cfi_def_cfa_offset 16
 448              		.cfi_offset 4, -16
 449              		.cfi_offset 5, -12
 450              		.cfi_offset 6, -8
 451              		.cfi_offset 14, -4
 452 0002 0400     		movs	r4, r0
 453 0004 0D00     		movs	r5, r1
 454              	.LVL55:
 549:..\..\..\arduinoLCD\test\Pain Drain\libraries\lvgl\src\core/lv_obj_style.c ****         if(obj->styles[i].is_trans && obj->styles[i].selector == selector) break;
 455              		.loc 1 549 0
 456 0006 0021     		movs	r1, #0
 457              	.LVL56:
 458 0008 0CE0     		b	.L31
 459              	.LVL57:
 460              	.L34:
 550:..\..\..\arduinoLCD\test\Pain Drain\libraries\lvgl\src\core/lv_obj_style.c ****     }
 461              		.loc 1 550 0
 462 000a CA00     		lsls	r2, r1, #3
 463 000c E668     		ldr	r6, [r4, #12]
 464 000e B446     		mov	ip, r6
 465 0010 6244     		add	r2, r2, ip
 466 0012 D679     		ldrb	r6, [r2, #7]
 467 0014 B607     		lsls	r6, r6, #30
 468 0016 04D5     		bpl	.L32
 550:..\..\..\arduinoLCD\test\Pain Drain\libraries\lvgl\src\core/lv_obj_style.c ****     }
 469              		.loc 1 550 0 is_stmt 0 discriminator 1
 470 0018 5268     		ldr	r2, [r2, #4]
 471 001a 1202     		lsls	r2, r2, #8
 472 001c 120A     		lsrs	r2, r2, #8
 473 001e AA42     		cmp	r2, r5
 474 0020 06D0     		beq	.L33
 475              	.L32:
 549:..\..\..\arduinoLCD\test\Pain Drain\libraries\lvgl\src\core/lv_obj_style.c ****         if(obj->styles[i].is_trans && obj->styles[i].selector == selector) break;
 476              		.loc 1 549 0 is_stmt 1 discriminator 2
 477 0022 0131     		adds	r1, r1, #1
 478              	.LVL58:
 479              	.L31:
 549:..\..\..\arduinoLCD\test\Pain Drain\libraries\lvgl\src\core/lv_obj_style.c ****         if(obj->styles[i].is_trans && obj->styles[i].selector == selector) break;
 480              		.loc 1 549 0 is_stmt 0 discriminator 1
 481 0024 638C     		ldrh	r3, [r4, #34]
 482 0026 DB05     		lsls	r3, r3, #23
 483 0028 9B0E     		lsrs	r3, r3, #26
 484 002a 1800     		movs	r0, r3
 485 002c 9942     		cmp	r1, r3
 486 002e ECD3     		bcc	.L34
 487              	.L33:
 554:..\..\..\arduinoLCD\test\Pain Drain\libraries\lvgl\src\core/lv_obj_style.c **** 
 488              		.loc 1 554 0 is_stmt 1
 489 0030 8142     		cmp	r1, r0
ARM GAS  C:\Users\haske\AppData\Local\Temp\ccLxalmh.s 			page 23


 490 0032 03D0     		beq	.L35
 554:..\..\..\arduinoLCD\test\Pain Drain\libraries\lvgl\src\core/lv_obj_style.c **** 
 491              		.loc 1 554 0 is_stmt 0 discriminator 1
 492 0034 E068     		ldr	r0, [r4, #12]
 493 0036 C900     		lsls	r1, r1, #3
 494              	.LVL59:
 495 0038 4018     		adds	r0, r0, r1
 496 003a 38E0     		b	.L36
 497              	.LVL60:
 498              	.L35:
 556:..\..\..\arduinoLCD\test\Pain Drain\libraries\lvgl\src\core/lv_obj_style.c ****     obj->styles = lv_mem_realloc(obj->styles, obj->style_cnt * sizeof(_lv_obj_style_t));
 499              		.loc 1 556 0 is_stmt 1
 500 003c 0133     		adds	r3, r3, #1
 501 003e 3F21     		movs	r1, #63
 502              	.LVL61:
 503 0040 1940     		ands	r1, r3
 504 0042 CA00     		lsls	r2, r1, #3
 505 0044 608C     		ldrh	r0, [r4, #34]
 506 0046 1A4B     		ldr	r3, .L39
 507 0048 0340     		ands	r3, r0
 508 004a 1343     		orrs	r3, r2
 509 004c 6384     		strh	r3, [r4, #34]
 557:..\..\..\arduinoLCD\test\Pain Drain\libraries\lvgl\src\core/lv_obj_style.c **** 
 510              		.loc 1 557 0
 511 004e 1100     		movs	r1, r2
 512 0050 E068     		ldr	r0, [r4, #12]
 513 0052 FFF7FEFF 		bl	lv_mem_realloc
 514              	.LVL62:
 515 0056 E060     		str	r0, [r4, #12]
 559:..\..\..\arduinoLCD\test\Pain Drain\libraries\lvgl\src\core/lv_obj_style.c ****         obj->styles[i] = obj->styles[i - 1];
 516              		.loc 1 559 0
 517 0058 618C     		ldrh	r1, [r4, #34]
 518 005a C905     		lsls	r1, r1, #23
 519 005c 890E     		lsrs	r1, r1, #26
 520 005e 0139     		subs	r1, r1, #1
 521              	.LVL63:
 522 0060 09E0     		b	.L37
 523              	.L38:
 560:..\..\..\arduinoLCD\test\Pain Drain\libraries\lvgl\src\core/lv_obj_style.c ****     }
 524              		.loc 1 560 0 discriminator 3
 525 0062 E068     		ldr	r0, [r4, #12]
 526 0064 CA00     		lsls	r2, r1, #3
 527 0066 8218     		adds	r2, r0, r2
 528 0068 124B     		ldr	r3, .L39+4
 529 006a CB18     		adds	r3, r1, r3
 530 006c DB00     		lsls	r3, r3, #3
 531 006e C318     		adds	r3, r0, r3
 532 0070 41CB     		ldmia	r3!, {r0, r6}
 533 0072 41C2     		stmia	r2!, {r0, r6}
 559:..\..\..\arduinoLCD\test\Pain Drain\libraries\lvgl\src\core/lv_obj_style.c ****         obj->styles[i] = obj->styles[i - 1];
 534              		.loc 1 559 0 discriminator 3
 535 0074 0139     		subs	r1, r1, #1
 536              	.LVL64:
 537              	.L37:
 559:..\..\..\arduinoLCD\test\Pain Drain\libraries\lvgl\src\core/lv_obj_style.c ****         obj->styles[i] = obj->styles[i - 1];
 538              		.loc 1 559 0 is_stmt 0 discriminator 1
 539 0076 0029     		cmp	r1, #0
ARM GAS  C:\Users\haske\AppData\Local\Temp\ccLxalmh.s 			page 24


 540 0078 F3D1     		bne	.L38
 563:..\..\..\arduinoLCD\test\Pain Drain\libraries\lvgl\src\core/lv_obj_style.c ****     obj->styles[0].style = lv_mem_alloc(sizeof(lv_style_t));
 541              		.loc 1 563 0 is_stmt 1
 542 007a 0831     		adds	r1, r1, #8
 543              	.LVL65:
 544 007c E068     		ldr	r0, [r4, #12]
 545 007e FFF7FEFF 		bl	lv_memset_00
 546              	.LVL66:
 564:..\..\..\arduinoLCD\test\Pain Drain\libraries\lvgl\src\core/lv_obj_style.c ****     lv_style_init(obj->styles[0].style);
 547              		.loc 1 564 0
 548 0082 E668     		ldr	r6, [r4, #12]
 549 0084 0820     		movs	r0, #8
 550 0086 FFF7FEFF 		bl	lv_mem_alloc
 551              	.LVL67:
 552 008a 3060     		str	r0, [r6]
 565:..\..\..\arduinoLCD\test\Pain Drain\libraries\lvgl\src\core/lv_obj_style.c ****     obj->styles[0].is_trans = 1;
 553              		.loc 1 565 0
 554 008c E368     		ldr	r3, [r4, #12]
 555 008e 1868     		ldr	r0, [r3]
 556 0090 FFF7FEFF 		bl	lv_style_init
 557              	.LVL68:
 566:..\..\..\arduinoLCD\test\Pain Drain\libraries\lvgl\src\core/lv_obj_style.c ****     obj->styles[0].selector = selector;
 558              		.loc 1 566 0
 559 0094 E268     		ldr	r2, [r4, #12]
 560 0096 D179     		ldrb	r1, [r2, #7]
 561 0098 0223     		movs	r3, #2
 562 009a 0B43     		orrs	r3, r1
 563 009c D371     		strb	r3, [r2, #7]
 567:..\..\..\arduinoLCD\test\Pain Drain\libraries\lvgl\src\core/lv_obj_style.c ****     return &obj->styles[0];
 564              		.loc 1 567 0
 565 009e E268     		ldr	r2, [r4, #12]
 566 00a0 2D02     		lsls	r5, r5, #8
 567              	.LVL69:
 568 00a2 2D0A     		lsrs	r5, r5, #8
 569 00a4 D379     		ldrb	r3, [r2, #7]
 570 00a6 1B06     		lsls	r3, r3, #24
 571 00a8 1D43     		orrs	r5, r3
 572 00aa 5560     		str	r5, [r2, #4]
 568:..\..\..\arduinoLCD\test\Pain Drain\libraries\lvgl\src\core/lv_obj_style.c **** }
 573              		.loc 1 568 0
 574 00ac E068     		ldr	r0, [r4, #12]
 575              	.L36:
 569:..\..\..\arduinoLCD\test\Pain Drain\libraries\lvgl\src\core/lv_obj_style.c **** 
 576              		.loc 1 569 0
 577              		@ sp needed
 578              	.LVL70:
 579 00ae 70BD     		pop	{r4, r5, r6, pc}
 580              	.L40:
 581              		.align	2
 582              	.L39:
 583 00b0 07FEFFFF 		.word	-505
 584 00b4 FFFFFF1F 		.word	536870911
 585              		.cfi_endproc
 586              	.LFE185:
 587              		.size	get_trans_style, .-get_trans_style
 588              		.section	.text.fade_anim_cb,"ax",%progbits
 589              		.align	2
ARM GAS  C:\Users\haske\AppData\Local\Temp\ccLxalmh.s 			page 25


 590              		.code	16
 591              		.thumb_func
 592              		.type	fade_anim_cb, %function
 593              	fade_anim_cb:
 594              	.LFB194:
 721:..\..\..\arduinoLCD\test\Pain Drain\libraries\lvgl\src\core/lv_obj_style.c **** 
 722:..\..\..\arduinoLCD\test\Pain Drain\libraries\lvgl\src\core/lv_obj_style.c **** static void trans_anim_cb(void * _tr, int32_t v)
 723:..\..\..\arduinoLCD\test\Pain Drain\libraries\lvgl\src\core/lv_obj_style.c **** {
 724:..\..\..\arduinoLCD\test\Pain Drain\libraries\lvgl\src\core/lv_obj_style.c ****     trans_t * tr = _tr;
 725:..\..\..\arduinoLCD\test\Pain Drain\libraries\lvgl\src\core/lv_obj_style.c ****     lv_obj_t * obj = tr->obj;
 726:..\..\..\arduinoLCD\test\Pain Drain\libraries\lvgl\src\core/lv_obj_style.c **** 
 727:..\..\..\arduinoLCD\test\Pain Drain\libraries\lvgl\src\core/lv_obj_style.c ****     uint32_t i;
 728:..\..\..\arduinoLCD\test\Pain Drain\libraries\lvgl\src\core/lv_obj_style.c ****     for(i = 0; i < obj->style_cnt; i++) {
 729:..\..\..\arduinoLCD\test\Pain Drain\libraries\lvgl\src\core/lv_obj_style.c ****         if(obj->styles[i].is_trans == 0 || obj->styles[i].selector != tr->selector) continue;
 730:..\..\..\arduinoLCD\test\Pain Drain\libraries\lvgl\src\core/lv_obj_style.c **** 
 731:..\..\..\arduinoLCD\test\Pain Drain\libraries\lvgl\src\core/lv_obj_style.c ****         lv_style_value_t value_final;
 732:..\..\..\arduinoLCD\test\Pain Drain\libraries\lvgl\src\core/lv_obj_style.c ****         switch(tr->prop) {
 733:..\..\..\arduinoLCD\test\Pain Drain\libraries\lvgl\src\core/lv_obj_style.c **** 
 734:..\..\..\arduinoLCD\test\Pain Drain\libraries\lvgl\src\core/lv_obj_style.c ****             case LV_STYLE_BORDER_SIDE:
 735:..\..\..\arduinoLCD\test\Pain Drain\libraries\lvgl\src\core/lv_obj_style.c ****             case LV_STYLE_BORDER_POST:
 736:..\..\..\arduinoLCD\test\Pain Drain\libraries\lvgl\src\core/lv_obj_style.c ****             case LV_STYLE_BLEND_MODE:
 737:..\..\..\arduinoLCD\test\Pain Drain\libraries\lvgl\src\core/lv_obj_style.c ****                 if(v < 255) value_final.num = tr->start_value.num;
 738:..\..\..\arduinoLCD\test\Pain Drain\libraries\lvgl\src\core/lv_obj_style.c ****                 else value_final.num = tr->end_value.num;
 739:..\..\..\arduinoLCD\test\Pain Drain\libraries\lvgl\src\core/lv_obj_style.c ****                 break;
 740:..\..\..\arduinoLCD\test\Pain Drain\libraries\lvgl\src\core/lv_obj_style.c ****             case LV_STYLE_TRANSITION:
 741:..\..\..\arduinoLCD\test\Pain Drain\libraries\lvgl\src\core/lv_obj_style.c ****             case LV_STYLE_TEXT_FONT:
 742:..\..\..\arduinoLCD\test\Pain Drain\libraries\lvgl\src\core/lv_obj_style.c ****                 if(v < 255) value_final.ptr = tr->start_value.ptr;
 743:..\..\..\arduinoLCD\test\Pain Drain\libraries\lvgl\src\core/lv_obj_style.c ****                 else value_final.ptr = tr->end_value.ptr;
 744:..\..\..\arduinoLCD\test\Pain Drain\libraries\lvgl\src\core/lv_obj_style.c ****                 break;
 745:..\..\..\arduinoLCD\test\Pain Drain\libraries\lvgl\src\core/lv_obj_style.c ****             case LV_STYLE_COLOR_FILTER_DSC:
 746:..\..\..\arduinoLCD\test\Pain Drain\libraries\lvgl\src\core/lv_obj_style.c ****                 if(tr->start_value.ptr == NULL) value_final.ptr = tr->end_value.ptr;
 747:..\..\..\arduinoLCD\test\Pain Drain\libraries\lvgl\src\core/lv_obj_style.c ****                 else if(tr->end_value.ptr == NULL) value_final.ptr = tr->start_value.ptr;
 748:..\..\..\arduinoLCD\test\Pain Drain\libraries\lvgl\src\core/lv_obj_style.c ****                 else if(v < 128) value_final.ptr = tr->start_value.ptr;
 749:..\..\..\arduinoLCD\test\Pain Drain\libraries\lvgl\src\core/lv_obj_style.c ****                 else value_final.ptr = tr->end_value.ptr;
 750:..\..\..\arduinoLCD\test\Pain Drain\libraries\lvgl\src\core/lv_obj_style.c ****                 break;
 751:..\..\..\arduinoLCD\test\Pain Drain\libraries\lvgl\src\core/lv_obj_style.c ****             case LV_STYLE_BG_COLOR:
 752:..\..\..\arduinoLCD\test\Pain Drain\libraries\lvgl\src\core/lv_obj_style.c ****             case LV_STYLE_BORDER_COLOR:
 753:..\..\..\arduinoLCD\test\Pain Drain\libraries\lvgl\src\core/lv_obj_style.c ****             case LV_STYLE_TEXT_COLOR:
 754:..\..\..\arduinoLCD\test\Pain Drain\libraries\lvgl\src\core/lv_obj_style.c ****             case LV_STYLE_SHADOW_COLOR:
 755:..\..\..\arduinoLCD\test\Pain Drain\libraries\lvgl\src\core/lv_obj_style.c ****             case LV_STYLE_OUTLINE_COLOR:
 756:..\..\..\arduinoLCD\test\Pain Drain\libraries\lvgl\src\core/lv_obj_style.c ****             case LV_STYLE_IMG_RECOLOR:
 757:..\..\..\arduinoLCD\test\Pain Drain\libraries\lvgl\src\core/lv_obj_style.c ****                 if(v <= 0) value_final.color = tr->start_value.color;
 758:..\..\..\arduinoLCD\test\Pain Drain\libraries\lvgl\src\core/lv_obj_style.c ****                 else if(v >= 255) value_final.color = tr->end_value.color;
 759:..\..\..\arduinoLCD\test\Pain Drain\libraries\lvgl\src\core/lv_obj_style.c ****                 else value_final.color = lv_color_mix(tr->end_value.color, tr->start_value.color, v
 760:..\..\..\arduinoLCD\test\Pain Drain\libraries\lvgl\src\core/lv_obj_style.c ****                 break;
 761:..\..\..\arduinoLCD\test\Pain Drain\libraries\lvgl\src\core/lv_obj_style.c **** 
 762:..\..\..\arduinoLCD\test\Pain Drain\libraries\lvgl\src\core/lv_obj_style.c ****             default:
 763:..\..\..\arduinoLCD\test\Pain Drain\libraries\lvgl\src\core/lv_obj_style.c ****                 if(v == 0) value_final.num = tr->start_value.num;
 764:..\..\..\arduinoLCD\test\Pain Drain\libraries\lvgl\src\core/lv_obj_style.c ****                 else if(v == 255) value_final.num = tr->end_value.num;
 765:..\..\..\arduinoLCD\test\Pain Drain\libraries\lvgl\src\core/lv_obj_style.c ****                 else value_final.num = tr->start_value.num + ((int32_t)((int32_t)(tr->end_value.num
 766:..\..\..\arduinoLCD\test\Pain Drain\libraries\lvgl\src\core/lv_obj_style.c ****                 break;
 767:..\..\..\arduinoLCD\test\Pain Drain\libraries\lvgl\src\core/lv_obj_style.c ****         }
 768:..\..\..\arduinoLCD\test\Pain Drain\libraries\lvgl\src\core/lv_obj_style.c **** 
 769:..\..\..\arduinoLCD\test\Pain Drain\libraries\lvgl\src\core/lv_obj_style.c ****         lv_style_value_t old_value;
 770:..\..\..\arduinoLCD\test\Pain Drain\libraries\lvgl\src\core/lv_obj_style.c ****         bool refr = true;
 771:..\..\..\arduinoLCD\test\Pain Drain\libraries\lvgl\src\core/lv_obj_style.c ****         if(lv_style_get_prop(obj->styles[i].style, tr->prop, &old_value)) {
 772:..\..\..\arduinoLCD\test\Pain Drain\libraries\lvgl\src\core/lv_obj_style.c ****             if(value_final.ptr == old_value.ptr && value_final.color.full == old_value.color.full &
ARM GAS  C:\Users\haske\AppData\Local\Temp\ccLxalmh.s 			page 26


 773:..\..\..\arduinoLCD\test\Pain Drain\libraries\lvgl\src\core/lv_obj_style.c ****                value_final.num == old_value.num) {
 774:..\..\..\arduinoLCD\test\Pain Drain\libraries\lvgl\src\core/lv_obj_style.c ****                 refr = false;
 775:..\..\..\arduinoLCD\test\Pain Drain\libraries\lvgl\src\core/lv_obj_style.c ****             }
 776:..\..\..\arduinoLCD\test\Pain Drain\libraries\lvgl\src\core/lv_obj_style.c ****         }
 777:..\..\..\arduinoLCD\test\Pain Drain\libraries\lvgl\src\core/lv_obj_style.c ****         lv_style_set_prop(obj->styles[i].style, tr->prop, value_final);
 778:..\..\..\arduinoLCD\test\Pain Drain\libraries\lvgl\src\core/lv_obj_style.c ****         if(refr) lv_obj_refresh_style(tr->obj, tr->selector, tr->prop);
 779:..\..\..\arduinoLCD\test\Pain Drain\libraries\lvgl\src\core/lv_obj_style.c ****         break;
 780:..\..\..\arduinoLCD\test\Pain Drain\libraries\lvgl\src\core/lv_obj_style.c **** 
 781:..\..\..\arduinoLCD\test\Pain Drain\libraries\lvgl\src\core/lv_obj_style.c ****     }
 782:..\..\..\arduinoLCD\test\Pain Drain\libraries\lvgl\src\core/lv_obj_style.c **** 
 783:..\..\..\arduinoLCD\test\Pain Drain\libraries\lvgl\src\core/lv_obj_style.c **** }
 784:..\..\..\arduinoLCD\test\Pain Drain\libraries\lvgl\src\core/lv_obj_style.c **** 
 785:..\..\..\arduinoLCD\test\Pain Drain\libraries\lvgl\src\core/lv_obj_style.c **** static void trans_anim_start_cb(lv_anim_t * a)
 786:..\..\..\arduinoLCD\test\Pain Drain\libraries\lvgl\src\core/lv_obj_style.c **** {
 787:..\..\..\arduinoLCD\test\Pain Drain\libraries\lvgl\src\core/lv_obj_style.c ****     trans_t * tr = a->var;
 788:..\..\..\arduinoLCD\test\Pain Drain\libraries\lvgl\src\core/lv_obj_style.c **** 
 789:..\..\..\arduinoLCD\test\Pain Drain\libraries\lvgl\src\core/lv_obj_style.c ****     lv_part_t part = lv_obj_style_get_selector_part(tr->selector);
 790:..\..\..\arduinoLCD\test\Pain Drain\libraries\lvgl\src\core/lv_obj_style.c ****     tr->start_value = lv_obj_get_style_prop(tr->obj, part, tr->prop);
 791:..\..\..\arduinoLCD\test\Pain Drain\libraries\lvgl\src\core/lv_obj_style.c **** 
 792:..\..\..\arduinoLCD\test\Pain Drain\libraries\lvgl\src\core/lv_obj_style.c ****     /*Init prop to an invalid values to be sure `trans_del` won't delete this added `tr`*/
 793:..\..\..\arduinoLCD\test\Pain Drain\libraries\lvgl\src\core/lv_obj_style.c ****     lv_style_prop_t prop_tmp = tr->prop;
 794:..\..\..\arduinoLCD\test\Pain Drain\libraries\lvgl\src\core/lv_obj_style.c ****     tr->prop = LV_STYLE_PROP_INV;
 795:..\..\..\arduinoLCD\test\Pain Drain\libraries\lvgl\src\core/lv_obj_style.c **** 
 796:..\..\..\arduinoLCD\test\Pain Drain\libraries\lvgl\src\core/lv_obj_style.c ****     /*Delete the related transitions if any*/
 797:..\..\..\arduinoLCD\test\Pain Drain\libraries\lvgl\src\core/lv_obj_style.c ****     trans_del(tr->obj, part, prop_tmp, tr);
 798:..\..\..\arduinoLCD\test\Pain Drain\libraries\lvgl\src\core/lv_obj_style.c **** 
 799:..\..\..\arduinoLCD\test\Pain Drain\libraries\lvgl\src\core/lv_obj_style.c ****     tr->prop = prop_tmp;
 800:..\..\..\arduinoLCD\test\Pain Drain\libraries\lvgl\src\core/lv_obj_style.c **** 
 801:..\..\..\arduinoLCD\test\Pain Drain\libraries\lvgl\src\core/lv_obj_style.c ****     _lv_obj_style_t * style_trans = get_trans_style(tr->obj, tr->selector);
 802:..\..\..\arduinoLCD\test\Pain Drain\libraries\lvgl\src\core/lv_obj_style.c ****     lv_style_set_prop(style_trans->style, tr->prop, tr->start_value);   /*Be sure `trans_style` has
 803:..\..\..\arduinoLCD\test\Pain Drain\libraries\lvgl\src\core/lv_obj_style.c **** 
 804:..\..\..\arduinoLCD\test\Pain Drain\libraries\lvgl\src\core/lv_obj_style.c **** }
 805:..\..\..\arduinoLCD\test\Pain Drain\libraries\lvgl\src\core/lv_obj_style.c **** 
 806:..\..\..\arduinoLCD\test\Pain Drain\libraries\lvgl\src\core/lv_obj_style.c **** static void trans_anim_ready_cb(lv_anim_t * a)
 807:..\..\..\arduinoLCD\test\Pain Drain\libraries\lvgl\src\core/lv_obj_style.c **** {
 808:..\..\..\arduinoLCD\test\Pain Drain\libraries\lvgl\src\core/lv_obj_style.c ****     trans_t * tr = a->var;
 809:..\..\..\arduinoLCD\test\Pain Drain\libraries\lvgl\src\core/lv_obj_style.c ****     lv_obj_t * obj = tr->obj;
 810:..\..\..\arduinoLCD\test\Pain Drain\libraries\lvgl\src\core/lv_obj_style.c ****     lv_style_prop_t prop = tr->prop;
 811:..\..\..\arduinoLCD\test\Pain Drain\libraries\lvgl\src\core/lv_obj_style.c **** 
 812:..\..\..\arduinoLCD\test\Pain Drain\libraries\lvgl\src\core/lv_obj_style.c ****     /*Remove the transitioned property from trans. style
 813:..\..\..\arduinoLCD\test\Pain Drain\libraries\lvgl\src\core/lv_obj_style.c ****      *if there no more transitions for this property
 814:..\..\..\arduinoLCD\test\Pain Drain\libraries\lvgl\src\core/lv_obj_style.c ****      *It allows changing it by normal styles*/
 815:..\..\..\arduinoLCD\test\Pain Drain\libraries\lvgl\src\core/lv_obj_style.c ****     bool running = false;
 816:..\..\..\arduinoLCD\test\Pain Drain\libraries\lvgl\src\core/lv_obj_style.c ****     trans_t * tr_i;
 817:..\..\..\arduinoLCD\test\Pain Drain\libraries\lvgl\src\core/lv_obj_style.c ****     _LV_LL_READ(&LV_GC_ROOT(_lv_obj_style_trans_ll), tr_i) {
 818:..\..\..\arduinoLCD\test\Pain Drain\libraries\lvgl\src\core/lv_obj_style.c ****         if(tr_i != tr && tr_i->obj == tr->obj && tr_i->selector == tr->selector && tr_i->prop == tr
 819:..\..\..\arduinoLCD\test\Pain Drain\libraries\lvgl\src\core/lv_obj_style.c ****             running = true;
 820:..\..\..\arduinoLCD\test\Pain Drain\libraries\lvgl\src\core/lv_obj_style.c ****             break;
 821:..\..\..\arduinoLCD\test\Pain Drain\libraries\lvgl\src\core/lv_obj_style.c ****         }
 822:..\..\..\arduinoLCD\test\Pain Drain\libraries\lvgl\src\core/lv_obj_style.c ****     }
 823:..\..\..\arduinoLCD\test\Pain Drain\libraries\lvgl\src\core/lv_obj_style.c **** 
 824:..\..\..\arduinoLCD\test\Pain Drain\libraries\lvgl\src\core/lv_obj_style.c ****     if(!running) {
 825:..\..\..\arduinoLCD\test\Pain Drain\libraries\lvgl\src\core/lv_obj_style.c ****         uint32_t i;
 826:..\..\..\arduinoLCD\test\Pain Drain\libraries\lvgl\src\core/lv_obj_style.c ****         for(i = 0; i < obj->style_cnt; i++) {
 827:..\..\..\arduinoLCD\test\Pain Drain\libraries\lvgl\src\core/lv_obj_style.c ****             if(obj->styles[i].is_trans && obj->styles[i].selector == tr->selector) {
 828:..\..\..\arduinoLCD\test\Pain Drain\libraries\lvgl\src\core/lv_obj_style.c ****                 _lv_ll_remove(&LV_GC_ROOT(_lv_obj_style_trans_ll), tr);
 829:..\..\..\arduinoLCD\test\Pain Drain\libraries\lvgl\src\core/lv_obj_style.c ****                 lv_mem_free(tr);
ARM GAS  C:\Users\haske\AppData\Local\Temp\ccLxalmh.s 			page 27


 830:..\..\..\arduinoLCD\test\Pain Drain\libraries\lvgl\src\core/lv_obj_style.c **** 
 831:..\..\..\arduinoLCD\test\Pain Drain\libraries\lvgl\src\core/lv_obj_style.c ****                 _lv_obj_style_t * obj_style = &obj->styles[i];
 832:..\..\..\arduinoLCD\test\Pain Drain\libraries\lvgl\src\core/lv_obj_style.c ****                 lv_style_remove_prop(obj_style->style, prop);
 833:..\..\..\arduinoLCD\test\Pain Drain\libraries\lvgl\src\core/lv_obj_style.c **** 
 834:..\..\..\arduinoLCD\test\Pain Drain\libraries\lvgl\src\core/lv_obj_style.c ****                 if(lv_style_is_empty(obj->styles[i].style)) {
 835:..\..\..\arduinoLCD\test\Pain Drain\libraries\lvgl\src\core/lv_obj_style.c ****                     lv_obj_remove_style(obj, obj_style->style, obj_style->selector);
 836:..\..\..\arduinoLCD\test\Pain Drain\libraries\lvgl\src\core/lv_obj_style.c **** 
 837:..\..\..\arduinoLCD\test\Pain Drain\libraries\lvgl\src\core/lv_obj_style.c ****                 }
 838:..\..\..\arduinoLCD\test\Pain Drain\libraries\lvgl\src\core/lv_obj_style.c ****                 break;
 839:..\..\..\arduinoLCD\test\Pain Drain\libraries\lvgl\src\core/lv_obj_style.c ****             }
 840:..\..\..\arduinoLCD\test\Pain Drain\libraries\lvgl\src\core/lv_obj_style.c ****         }
 841:..\..\..\arduinoLCD\test\Pain Drain\libraries\lvgl\src\core/lv_obj_style.c ****     }
 842:..\..\..\arduinoLCD\test\Pain Drain\libraries\lvgl\src\core/lv_obj_style.c **** }
 843:..\..\..\arduinoLCD\test\Pain Drain\libraries\lvgl\src\core/lv_obj_style.c **** 
 844:..\..\..\arduinoLCD\test\Pain Drain\libraries\lvgl\src\core/lv_obj_style.c **** static lv_layer_type_t calculate_layer_type(lv_obj_t * obj)
 845:..\..\..\arduinoLCD\test\Pain Drain\libraries\lvgl\src\core/lv_obj_style.c **** {
 846:..\..\..\arduinoLCD\test\Pain Drain\libraries\lvgl\src\core/lv_obj_style.c ****     if(lv_obj_get_style_transform_angle(obj, 0) != 0) return LV_LAYER_TYPE_TRANSFORM;
 847:..\..\..\arduinoLCD\test\Pain Drain\libraries\lvgl\src\core/lv_obj_style.c ****     if(lv_obj_get_style_transform_zoom(obj, 0) != 256) return LV_LAYER_TYPE_TRANSFORM;
 848:..\..\..\arduinoLCD\test\Pain Drain\libraries\lvgl\src\core/lv_obj_style.c ****     if(lv_obj_get_style_opa(obj, 0) != LV_OPA_COVER) return LV_LAYER_TYPE_SIMPLE;
 849:..\..\..\arduinoLCD\test\Pain Drain\libraries\lvgl\src\core/lv_obj_style.c **** 
 850:..\..\..\arduinoLCD\test\Pain Drain\libraries\lvgl\src\core/lv_obj_style.c **** #if LV_DRAW_COMPLEX
 851:..\..\..\arduinoLCD\test\Pain Drain\libraries\lvgl\src\core/lv_obj_style.c ****     if(lv_obj_get_style_blend_mode(obj, 0) != LV_BLEND_MODE_NORMAL) return LV_LAYER_TYPE_SIMPLE;
 852:..\..\..\arduinoLCD\test\Pain Drain\libraries\lvgl\src\core/lv_obj_style.c **** #endif
 853:..\..\..\arduinoLCD\test\Pain Drain\libraries\lvgl\src\core/lv_obj_style.c ****     return LV_LAYER_TYPE_NONE;
 854:..\..\..\arduinoLCD\test\Pain Drain\libraries\lvgl\src\core/lv_obj_style.c **** }
 855:..\..\..\arduinoLCD\test\Pain Drain\libraries\lvgl\src\core/lv_obj_style.c **** 
 856:..\..\..\arduinoLCD\test\Pain Drain\libraries\lvgl\src\core/lv_obj_style.c **** static void fade_anim_cb(void * obj, int32_t v)
 857:..\..\..\arduinoLCD\test\Pain Drain\libraries\lvgl\src\core/lv_obj_style.c **** {
 595              		.loc 1 857 0
 596              		.cfi_startproc
 597              		@ args = 0, pretend = 0, frame = 0
 598              		@ frame_needed = 0, uses_anonymous_args = 0
 599              	.LVL71:
 600 0000 10B5     		push	{r4, lr}
 601              		.cfi_def_cfa_offset 8
 602              		.cfi_offset 4, -8
 603              		.cfi_offset 14, -4
 858:..\..\..\arduinoLCD\test\Pain Drain\libraries\lvgl\src\core/lv_obj_style.c ****     lv_obj_set_style_opa(obj, v, 0);
 604              		.loc 1 858 0
 605 0002 C9B2     		uxtb	r1, r1
 606              	.LVL72:
 607 0004 0022     		movs	r2, #0
 608 0006 FFF7FEFF 		bl	lv_obj_set_style_opa
 609              	.LVL73:
 859:..\..\..\arduinoLCD\test\Pain Drain\libraries\lvgl\src\core/lv_obj_style.c **** }
 610              		.loc 1 859 0
 611              		@ sp needed
 612 000a 10BD     		pop	{r4, pc}
 613              		.cfi_endproc
 614              	.LFE194:
 615              		.size	fade_anim_cb, .-fade_anim_cb
 616              		.section	.text._lv_obj_style_init,"ax",%progbits
 617              		.align	2
 618              		.global	_lv_obj_style_init
 619              		.code	16
 620              		.thumb_func
 621              		.type	_lv_obj_style_init, %function
ARM GAS  C:\Users\haske\AppData\Local\Temp\ccLxalmh.s 			page 28


 622              	_lv_obj_style_init:
 623              	.LFB165:
  72:..\..\..\arduinoLCD\test\Pain Drain\libraries\lvgl\src\core/lv_obj_style.c ****     _lv_ll_init(&LV_GC_ROOT(_lv_obj_style_trans_ll), sizeof(trans_t));
 624              		.loc 1 72 0
 625              		.cfi_startproc
 626              		@ args = 0, pretend = 0, frame = 0
 627              		@ frame_needed = 0, uses_anonymous_args = 0
 628 0000 10B5     		push	{r4, lr}
 629              		.cfi_def_cfa_offset 8
 630              		.cfi_offset 4, -8
 631              		.cfi_offset 14, -4
  73:..\..\..\arduinoLCD\test\Pain Drain\libraries\lvgl\src\core/lv_obj_style.c **** }
 632              		.loc 1 73 0
 633 0002 1421     		movs	r1, #20
 634 0004 0148     		ldr	r0, .L43
 635 0006 FFF7FEFF 		bl	_lv_ll_init
 636              	.LVL74:
  74:..\..\..\arduinoLCD\test\Pain Drain\libraries\lvgl\src\core/lv_obj_style.c **** 
 637              		.loc 1 74 0
 638              		@ sp needed
 639 000a 10BD     		pop	{r4, pc}
 640              	.L44:
 641              		.align	2
 642              	.L43:
 643 000c 00000000 		.word	_lv_obj_style_trans_ll
 644              		.cfi_endproc
 645              	.LFE165:
 646              		.size	_lv_obj_style_init, .-_lv_obj_style_init
 647              		.section	.text.lv_obj_enable_style_refresh,"ax",%progbits
 648              		.align	2
 649              		.global	lv_obj_enable_style_refresh
 650              		.code	16
 651              		.thumb_func
 652              		.type	lv_obj_enable_style_refresh, %function
 653              	lv_obj_enable_style_refresh:
 654              	.LFB170:
 219:..\..\..\arduinoLCD\test\Pain Drain\libraries\lvgl\src\core/lv_obj_style.c ****     style_refr = en;
 655              		.loc 1 219 0
 656              		.cfi_startproc
 657              		@ args = 0, pretend = 0, frame = 0
 658              		@ frame_needed = 0, uses_anonymous_args = 0
 659              		@ link register save eliminated.
 660              	.LVL75:
 220:..\..\..\arduinoLCD\test\Pain Drain\libraries\lvgl\src\core/lv_obj_style.c **** }
 661              		.loc 1 220 0
 662 0000 014B     		ldr	r3, .L46
 663 0002 1870     		strb	r0, [r3]
 221:..\..\..\arduinoLCD\test\Pain Drain\libraries\lvgl\src\core/lv_obj_style.c **** 
 664              		.loc 1 221 0
 665              		@ sp needed
 666 0004 7047     		bx	lr
 667              	.L47:
 668 0006 C046     		.align	2
 669              	.L46:
 670 0008 00000000 		.word	.LANCHOR0
 671              		.cfi_endproc
 672              	.LFE170:
ARM GAS  C:\Users\haske\AppData\Local\Temp\ccLxalmh.s 			page 29


 673              		.size	lv_obj_enable_style_refresh, .-lv_obj_enable_style_refresh
 674              		.section	.text.lv_obj_get_local_style_prop,"ax",%progbits
 675              		.align	2
 676              		.global	lv_obj_get_local_style_prop
 677              		.code	16
 678              		.thumb_func
 679              		.type	lv_obj_get_local_style_prop, %function
 680              	lv_obj_get_local_style_prop:
 681              	.LFB174:
 289:..\..\..\arduinoLCD\test\Pain Drain\libraries\lvgl\src\core/lv_obj_style.c ****     uint32_t i;
 682              		.loc 1 289 0
 683              		.cfi_startproc
 684              		@ args = 0, pretend = 0, frame = 0
 685              		@ frame_needed = 0, uses_anonymous_args = 0
 686              	.LVL76:
 687 0000 70B5     		push	{r4, r5, r6, lr}
 688              		.cfi_def_cfa_offset 16
 689              		.cfi_offset 4, -16
 690              		.cfi_offset 5, -12
 691              		.cfi_offset 6, -8
 692              		.cfi_offset 14, -4
 693              	.LVL77:
 291:..\..\..\arduinoLCD\test\Pain Drain\libraries\lvgl\src\core/lv_obj_style.c ****         if(obj->styles[i].is_local &&
 694              		.loc 1 291 0
 695 0002 0025     		movs	r5, #0
 696 0004 10E0     		b	.L49
 697              	.LVL78:
 698              	.L52:
 292:..\..\..\arduinoLCD\test\Pain Drain\libraries\lvgl\src\core/lv_obj_style.c ****            obj->styles[i].selector == selector) {
 699              		.loc 1 292 0
 700 0006 EC00     		lsls	r4, r5, #3
 701 0008 C668     		ldr	r6, [r0, #12]
 702 000a B446     		mov	ip, r6
 703 000c 6444     		add	r4, r4, ip
 704 000e E679     		ldrb	r6, [r4, #7]
 705 0010 F607     		lsls	r6, r6, #31
 706 0012 08D5     		bpl	.L50
 293:..\..\..\arduinoLCD\test\Pain Drain\libraries\lvgl\src\core/lv_obj_style.c ****             return lv_style_get_prop(obj->styles[i].style, prop, value);
 707              		.loc 1 293 0 discriminator 1
 708 0014 6668     		ldr	r6, [r4, #4]
 709 0016 3602     		lsls	r6, r6, #8
 710 0018 360A     		lsrs	r6, r6, #8
 292:..\..\..\arduinoLCD\test\Pain Drain\libraries\lvgl\src\core/lv_obj_style.c ****            obj->styles[i].selector == selector) {
 711              		.loc 1 292 0 discriminator 1
 712 001a 9E42     		cmp	r6, r3
 713 001c 03D1     		bne	.L50
 294:..\..\..\arduinoLCD\test\Pain Drain\libraries\lvgl\src\core/lv_obj_style.c ****         }
 714              		.loc 1 294 0
 715 001e 2068     		ldr	r0, [r4]
 716              	.LVL79:
 717 0020 FFF7FEFF 		bl	lv_style_get_prop
 718              	.LVL80:
 719 0024 06E0     		b	.L51
 720              	.LVL81:
 721              	.L50:
 291:..\..\..\arduinoLCD\test\Pain Drain\libraries\lvgl\src\core/lv_obj_style.c ****         if(obj->styles[i].is_local &&
 722              		.loc 1 291 0 discriminator 2
ARM GAS  C:\Users\haske\AppData\Local\Temp\ccLxalmh.s 			page 30


 723 0026 0135     		adds	r5, r5, #1
 724              	.LVL82:
 725              	.L49:
 291:..\..\..\arduinoLCD\test\Pain Drain\libraries\lvgl\src\core/lv_obj_style.c ****         if(obj->styles[i].is_local &&
 726              		.loc 1 291 0 is_stmt 0 discriminator 1
 727 0028 448C     		ldrh	r4, [r0, #34]
 728 002a E405     		lsls	r4, r4, #23
 729 002c A40E     		lsrs	r4, r4, #26
 730 002e A542     		cmp	r5, r4
 731 0030 E9D3     		bcc	.L52
 298:..\..\..\arduinoLCD\test\Pain Drain\libraries\lvgl\src\core/lv_obj_style.c **** }
 732              		.loc 1 298 0 is_stmt 1
 733 0032 0020     		movs	r0, #0
 734              	.LVL83:
 735              	.L51:
 299:..\..\..\arduinoLCD\test\Pain Drain\libraries\lvgl\src\core/lv_obj_style.c **** 
 736              		.loc 1 299 0
 737              		@ sp needed
 738              	.LVL84:
 739 0034 70BD     		pop	{r4, r5, r6, pc}
 740              		.cfi_endproc
 741              	.LFE174:
 742              		.size	lv_obj_get_local_style_prop, .-lv_obj_get_local_style_prop
 743 0036 C046     		.section	.text.lv_obj_fade_in,"ax",%progbits
 744              		.align	2
 745              		.global	lv_obj_fade_in
 746              		.code	16
 747              		.thumb_func
 748              		.type	lv_obj_fade_in, %function
 749              	lv_obj_fade_in:
 750              	.LFB179:
 456:..\..\..\arduinoLCD\test\Pain Drain\libraries\lvgl\src\core/lv_obj_style.c ****     lv_anim_t a;
 751              		.loc 1 456 0
 752              		.cfi_startproc
 753              		@ args = 0, pretend = 0, frame = 72
 754              		@ frame_needed = 0, uses_anonymous_args = 0
 755              	.LVL85:
 756 0000 70B5     		push	{r4, r5, r6, lr}
 757              		.cfi_def_cfa_offset 16
 758              		.cfi_offset 4, -16
 759              		.cfi_offset 5, -12
 760              		.cfi_offset 6, -8
 761              		.cfi_offset 14, -4
 762 0002 92B0     		sub	sp, sp, #72
 763              		.cfi_def_cfa_offset 88
 764 0004 0600     		movs	r6, r0
 765 0006 0D00     		movs	r5, r1
 766 0008 1400     		movs	r4, r2
 458:..\..\..\arduinoLCD\test\Pain Drain\libraries\lvgl\src\core/lv_obj_style.c ****     lv_anim_set_var(&a, obj);
 767              		.loc 1 458 0
 768 000a 01A8     		add	r0, sp, #4
 769              	.LVL86:
 770 000c FFF7FEFF 		bl	lv_anim_init
 771              	.LVL87:
 772              	.LBB87:
 773              	.LBB88:
 774              		.file 2 "..\\..\\..\\arduinoLCD\\test\\Pain Drain\\libraries\\lvgl\\src\\core\\../misc/lv_anim.h"
ARM GAS  C:\Users\haske\AppData\Local\Temp\ccLxalmh.s 			page 31


   1:..\..\..\arduinoLCD\test\Pain Drain\libraries\lvgl\src\core\../misc/lv_anim.h **** /**
   2:..\..\..\arduinoLCD\test\Pain Drain\libraries\lvgl\src\core\../misc/lv_anim.h ****  * @file lv_anim.h
   3:..\..\..\arduinoLCD\test\Pain Drain\libraries\lvgl\src\core\../misc/lv_anim.h ****  *
   4:..\..\..\arduinoLCD\test\Pain Drain\libraries\lvgl\src\core\../misc/lv_anim.h ****  */
   5:..\..\..\arduinoLCD\test\Pain Drain\libraries\lvgl\src\core\../misc/lv_anim.h **** 
   6:..\..\..\arduinoLCD\test\Pain Drain\libraries\lvgl\src\core\../misc/lv_anim.h **** #ifndef LV_ANIM_H
   7:..\..\..\arduinoLCD\test\Pain Drain\libraries\lvgl\src\core\../misc/lv_anim.h **** #define LV_ANIM_H
   8:..\..\..\arduinoLCD\test\Pain Drain\libraries\lvgl\src\core\../misc/lv_anim.h **** 
   9:..\..\..\arduinoLCD\test\Pain Drain\libraries\lvgl\src\core\../misc/lv_anim.h **** #ifdef __cplusplus
  10:..\..\..\arduinoLCD\test\Pain Drain\libraries\lvgl\src\core\../misc/lv_anim.h **** extern "C" {
  11:..\..\..\arduinoLCD\test\Pain Drain\libraries\lvgl\src\core\../misc/lv_anim.h **** #endif
  12:..\..\..\arduinoLCD\test\Pain Drain\libraries\lvgl\src\core\../misc/lv_anim.h **** 
  13:..\..\..\arduinoLCD\test\Pain Drain\libraries\lvgl\src\core\../misc/lv_anim.h **** /*********************
  14:..\..\..\arduinoLCD\test\Pain Drain\libraries\lvgl\src\core\../misc/lv_anim.h ****  *      INCLUDES
  15:..\..\..\arduinoLCD\test\Pain Drain\libraries\lvgl\src\core\../misc/lv_anim.h ****  *********************/
  16:..\..\..\arduinoLCD\test\Pain Drain\libraries\lvgl\src\core\../misc/lv_anim.h **** #include "../lv_conf_internal.h"
  17:..\..\..\arduinoLCD\test\Pain Drain\libraries\lvgl\src\core\../misc/lv_anim.h **** 
  18:..\..\..\arduinoLCD\test\Pain Drain\libraries\lvgl\src\core\../misc/lv_anim.h **** #include <stdint.h>
  19:..\..\..\arduinoLCD\test\Pain Drain\libraries\lvgl\src\core\../misc/lv_anim.h **** #include <stdbool.h>
  20:..\..\..\arduinoLCD\test\Pain Drain\libraries\lvgl\src\core\../misc/lv_anim.h **** #include <stddef.h>
  21:..\..\..\arduinoLCD\test\Pain Drain\libraries\lvgl\src\core\../misc/lv_anim.h **** 
  22:..\..\..\arduinoLCD\test\Pain Drain\libraries\lvgl\src\core\../misc/lv_anim.h **** /*********************
  23:..\..\..\arduinoLCD\test\Pain Drain\libraries\lvgl\src\core\../misc/lv_anim.h ****  *      DEFINES
  24:..\..\..\arduinoLCD\test\Pain Drain\libraries\lvgl\src\core\../misc/lv_anim.h ****  *********************/
  25:..\..\..\arduinoLCD\test\Pain Drain\libraries\lvgl\src\core\../misc/lv_anim.h **** 
  26:..\..\..\arduinoLCD\test\Pain Drain\libraries\lvgl\src\core\../misc/lv_anim.h **** #define LV_ANIM_REPEAT_INFINITE      0xFFFF
  27:..\..\..\arduinoLCD\test\Pain Drain\libraries\lvgl\src\core\../misc/lv_anim.h **** #define LV_ANIM_PLAYTIME_INFINITE    0xFFFFFFFF
  28:..\..\..\arduinoLCD\test\Pain Drain\libraries\lvgl\src\core\../misc/lv_anim.h **** 
  29:..\..\..\arduinoLCD\test\Pain Drain\libraries\lvgl\src\core\../misc/lv_anim.h **** LV_EXPORT_CONST_INT(LV_ANIM_REPEAT_INFINITE);
  30:..\..\..\arduinoLCD\test\Pain Drain\libraries\lvgl\src\core\../misc/lv_anim.h **** LV_EXPORT_CONST_INT(LV_ANIM_PLAYTIME_INFINITE);
  31:..\..\..\arduinoLCD\test\Pain Drain\libraries\lvgl\src\core\../misc/lv_anim.h **** 
  32:..\..\..\arduinoLCD\test\Pain Drain\libraries\lvgl\src\core\../misc/lv_anim.h **** /**********************
  33:..\..\..\arduinoLCD\test\Pain Drain\libraries\lvgl\src\core\../misc/lv_anim.h ****  *      TYPEDEFS
  34:..\..\..\arduinoLCD\test\Pain Drain\libraries\lvgl\src\core\../misc/lv_anim.h ****  **********************/
  35:..\..\..\arduinoLCD\test\Pain Drain\libraries\lvgl\src\core\../misc/lv_anim.h **** 
  36:..\..\..\arduinoLCD\test\Pain Drain\libraries\lvgl\src\core\../misc/lv_anim.h **** /** Can be used to indicate if animations are enabled or disabled in a case*/
  37:..\..\..\arduinoLCD\test\Pain Drain\libraries\lvgl\src\core\../misc/lv_anim.h **** typedef enum {
  38:..\..\..\arduinoLCD\test\Pain Drain\libraries\lvgl\src\core\../misc/lv_anim.h ****     LV_ANIM_OFF,
  39:..\..\..\arduinoLCD\test\Pain Drain\libraries\lvgl\src\core\../misc/lv_anim.h ****     LV_ANIM_ON,
  40:..\..\..\arduinoLCD\test\Pain Drain\libraries\lvgl\src\core\../misc/lv_anim.h **** } lv_anim_enable_t;
  41:..\..\..\arduinoLCD\test\Pain Drain\libraries\lvgl\src\core\../misc/lv_anim.h **** 
  42:..\..\..\arduinoLCD\test\Pain Drain\libraries\lvgl\src\core\../misc/lv_anim.h **** struct _lv_anim_t;
  43:..\..\..\arduinoLCD\test\Pain Drain\libraries\lvgl\src\core\../misc/lv_anim.h **** struct _lv_timer_t;
  44:..\..\..\arduinoLCD\test\Pain Drain\libraries\lvgl\src\core\../misc/lv_anim.h **** 
  45:..\..\..\arduinoLCD\test\Pain Drain\libraries\lvgl\src\core\../misc/lv_anim.h **** /** Get the current value during an animation*/
  46:..\..\..\arduinoLCD\test\Pain Drain\libraries\lvgl\src\core\../misc/lv_anim.h **** typedef int32_t (*lv_anim_path_cb_t)(const struct _lv_anim_t *);
  47:..\..\..\arduinoLCD\test\Pain Drain\libraries\lvgl\src\core\../misc/lv_anim.h **** 
  48:..\..\..\arduinoLCD\test\Pain Drain\libraries\lvgl\src\core\../misc/lv_anim.h **** /** Generic prototype of "animator" functions.
  49:..\..\..\arduinoLCD\test\Pain Drain\libraries\lvgl\src\core\../misc/lv_anim.h ****  * First parameter is the variable to animate.
  50:..\..\..\arduinoLCD\test\Pain Drain\libraries\lvgl\src\core\../misc/lv_anim.h ****  * Second parameter is the value to set.
  51:..\..\..\arduinoLCD\test\Pain Drain\libraries\lvgl\src\core\../misc/lv_anim.h ****  * Compatible with `lv_xxx_set_yyy(obj, value)` functions
  52:..\..\..\arduinoLCD\test\Pain Drain\libraries\lvgl\src\core\../misc/lv_anim.h ****  * The `x` in `_xcb_t` means it's not a fully generic prototype because
  53:..\..\..\arduinoLCD\test\Pain Drain\libraries\lvgl\src\core\../misc/lv_anim.h ****  * it doesn't receive `lv_anim_t *` as its first argument*/
  54:..\..\..\arduinoLCD\test\Pain Drain\libraries\lvgl\src\core\../misc/lv_anim.h **** typedef void (*lv_anim_exec_xcb_t)(void *, int32_t);
  55:..\..\..\arduinoLCD\test\Pain Drain\libraries\lvgl\src\core\../misc/lv_anim.h **** 
  56:..\..\..\arduinoLCD\test\Pain Drain\libraries\lvgl\src\core\../misc/lv_anim.h **** /** Same as `lv_anim_exec_xcb_t` but receives `lv_anim_t *` as the first parameter.
  57:..\..\..\arduinoLCD\test\Pain Drain\libraries\lvgl\src\core\../misc/lv_anim.h ****  * It's more consistent but less convenient. Might be used by binding generator functions.*/
ARM GAS  C:\Users\haske\AppData\Local\Temp\ccLxalmh.s 			page 32


  58:..\..\..\arduinoLCD\test\Pain Drain\libraries\lvgl\src\core\../misc/lv_anim.h **** typedef void (*lv_anim_custom_exec_cb_t)(struct _lv_anim_t *, int32_t);
  59:..\..\..\arduinoLCD\test\Pain Drain\libraries\lvgl\src\core\../misc/lv_anim.h **** 
  60:..\..\..\arduinoLCD\test\Pain Drain\libraries\lvgl\src\core\../misc/lv_anim.h **** /** Callback to call when the animation is ready*/
  61:..\..\..\arduinoLCD\test\Pain Drain\libraries\lvgl\src\core\../misc/lv_anim.h **** typedef void (*lv_anim_ready_cb_t)(struct _lv_anim_t *);
  62:..\..\..\arduinoLCD\test\Pain Drain\libraries\lvgl\src\core\../misc/lv_anim.h **** 
  63:..\..\..\arduinoLCD\test\Pain Drain\libraries\lvgl\src\core\../misc/lv_anim.h **** /** Callback to call when the animation really stars (considering `delay`)*/
  64:..\..\..\arduinoLCD\test\Pain Drain\libraries\lvgl\src\core\../misc/lv_anim.h **** typedef void (*lv_anim_start_cb_t)(struct _lv_anim_t *);
  65:..\..\..\arduinoLCD\test\Pain Drain\libraries\lvgl\src\core\../misc/lv_anim.h **** 
  66:..\..\..\arduinoLCD\test\Pain Drain\libraries\lvgl\src\core\../misc/lv_anim.h **** /** Callback used when the animation values are relative to get the current value*/
  67:..\..\..\arduinoLCD\test\Pain Drain\libraries\lvgl\src\core\../misc/lv_anim.h **** typedef int32_t (*lv_anim_get_value_cb_t)(struct _lv_anim_t *);
  68:..\..\..\arduinoLCD\test\Pain Drain\libraries\lvgl\src\core\../misc/lv_anim.h **** 
  69:..\..\..\arduinoLCD\test\Pain Drain\libraries\lvgl\src\core\../misc/lv_anim.h **** /** Callback used when the animation is deleted*/
  70:..\..\..\arduinoLCD\test\Pain Drain\libraries\lvgl\src\core\../misc/lv_anim.h **** typedef void (*lv_anim_deleted_cb_t)(struct _lv_anim_t *);
  71:..\..\..\arduinoLCD\test\Pain Drain\libraries\lvgl\src\core\../misc/lv_anim.h **** 
  72:..\..\..\arduinoLCD\test\Pain Drain\libraries\lvgl\src\core\../misc/lv_anim.h **** /** Describes an animation*/
  73:..\..\..\arduinoLCD\test\Pain Drain\libraries\lvgl\src\core\../misc/lv_anim.h **** typedef struct _lv_anim_t {
  74:..\..\..\arduinoLCD\test\Pain Drain\libraries\lvgl\src\core\../misc/lv_anim.h ****     void * var;                          /**<Variable to animate*/
  75:..\..\..\arduinoLCD\test\Pain Drain\libraries\lvgl\src\core\../misc/lv_anim.h ****     lv_anim_exec_xcb_t exec_cb;          /**< Function to execute to animate*/
  76:..\..\..\arduinoLCD\test\Pain Drain\libraries\lvgl\src\core\../misc/lv_anim.h ****     lv_anim_start_cb_t start_cb;         /**< Call it when the animation is starts (considering `de
  77:..\..\..\arduinoLCD\test\Pain Drain\libraries\lvgl\src\core\../misc/lv_anim.h ****     lv_anim_ready_cb_t ready_cb;         /**< Call it when the animation is ready*/
  78:..\..\..\arduinoLCD\test\Pain Drain\libraries\lvgl\src\core\../misc/lv_anim.h ****     lv_anim_deleted_cb_t deleted_cb;     /**< Call it when the animation is deleted*/
  79:..\..\..\arduinoLCD\test\Pain Drain\libraries\lvgl\src\core\../misc/lv_anim.h ****     lv_anim_get_value_cb_t get_value_cb; /**< Get the current value in relative mode*/
  80:..\..\..\arduinoLCD\test\Pain Drain\libraries\lvgl\src\core\../misc/lv_anim.h **** #if LV_USE_USER_DATA
  81:..\..\..\arduinoLCD\test\Pain Drain\libraries\lvgl\src\core\../misc/lv_anim.h ****     void * user_data; /**< Custom user data*/
  82:..\..\..\arduinoLCD\test\Pain Drain\libraries\lvgl\src\core\../misc/lv_anim.h **** #endif
  83:..\..\..\arduinoLCD\test\Pain Drain\libraries\lvgl\src\core\../misc/lv_anim.h ****     lv_anim_path_cb_t path_cb;         /**< Describe the path (curve) of animations*/
  84:..\..\..\arduinoLCD\test\Pain Drain\libraries\lvgl\src\core\../misc/lv_anim.h ****     int32_t start_value;               /**< Start value*/
  85:..\..\..\arduinoLCD\test\Pain Drain\libraries\lvgl\src\core\../misc/lv_anim.h ****     int32_t current_value;             /**< Current value*/
  86:..\..\..\arduinoLCD\test\Pain Drain\libraries\lvgl\src\core\../misc/lv_anim.h ****     int32_t end_value;                 /**< End value*/
  87:..\..\..\arduinoLCD\test\Pain Drain\libraries\lvgl\src\core\../misc/lv_anim.h ****     int32_t time;                /**< Animation time in ms*/
  88:..\..\..\arduinoLCD\test\Pain Drain\libraries\lvgl\src\core\../misc/lv_anim.h ****     int32_t act_time;            /**< Current time in animation. Set to negative to make delay.*/
  89:..\..\..\arduinoLCD\test\Pain Drain\libraries\lvgl\src\core\../misc/lv_anim.h ****     uint32_t playback_delay;     /**< Wait before play back*/
  90:..\..\..\arduinoLCD\test\Pain Drain\libraries\lvgl\src\core\../misc/lv_anim.h ****     uint32_t playback_time;      /**< Duration of playback animation*/
  91:..\..\..\arduinoLCD\test\Pain Drain\libraries\lvgl\src\core\../misc/lv_anim.h ****     uint32_t repeat_delay;       /**< Wait before repeat*/
  92:..\..\..\arduinoLCD\test\Pain Drain\libraries\lvgl\src\core\../misc/lv_anim.h ****     uint16_t repeat_cnt;         /**< Repeat count for the animation*/
  93:..\..\..\arduinoLCD\test\Pain Drain\libraries\lvgl\src\core\../misc/lv_anim.h ****     uint8_t early_apply  : 1;    /**< 1: Apply start value immediately even is there is `delay`*/
  94:..\..\..\arduinoLCD\test\Pain Drain\libraries\lvgl\src\core\../misc/lv_anim.h **** 
  95:..\..\..\arduinoLCD\test\Pain Drain\libraries\lvgl\src\core\../misc/lv_anim.h ****     /*Animation system use these - user shouldn't set*/
  96:..\..\..\arduinoLCD\test\Pain Drain\libraries\lvgl\src\core\../misc/lv_anim.h ****     uint8_t playback_now : 1; /**< Play back is in progress*/
  97:..\..\..\arduinoLCD\test\Pain Drain\libraries\lvgl\src\core\../misc/lv_anim.h ****     uint8_t run_round : 1;    /**< Indicates the animation has run in this round*/
  98:..\..\..\arduinoLCD\test\Pain Drain\libraries\lvgl\src\core\../misc/lv_anim.h ****     uint8_t start_cb_called : 1;    /**< Indicates that the `start_cb` was already called*/
  99:..\..\..\arduinoLCD\test\Pain Drain\libraries\lvgl\src\core\../misc/lv_anim.h **** } lv_anim_t;
 100:..\..\..\arduinoLCD\test\Pain Drain\libraries\lvgl\src\core\../misc/lv_anim.h **** 
 101:..\..\..\arduinoLCD\test\Pain Drain\libraries\lvgl\src\core\../misc/lv_anim.h **** /**********************
 102:..\..\..\arduinoLCD\test\Pain Drain\libraries\lvgl\src\core\../misc/lv_anim.h ****  * GLOBAL PROTOTYPES
 103:..\..\..\arduinoLCD\test\Pain Drain\libraries\lvgl\src\core\../misc/lv_anim.h ****  **********************/
 104:..\..\..\arduinoLCD\test\Pain Drain\libraries\lvgl\src\core\../misc/lv_anim.h **** 
 105:..\..\..\arduinoLCD\test\Pain Drain\libraries\lvgl\src\core\../misc/lv_anim.h **** /**
 106:..\..\..\arduinoLCD\test\Pain Drain\libraries\lvgl\src\core\../misc/lv_anim.h ****  * Init. the animation module
 107:..\..\..\arduinoLCD\test\Pain Drain\libraries\lvgl\src\core\../misc/lv_anim.h ****  */
 108:..\..\..\arduinoLCD\test\Pain Drain\libraries\lvgl\src\core\../misc/lv_anim.h **** void _lv_anim_core_init(void);
 109:..\..\..\arduinoLCD\test\Pain Drain\libraries\lvgl\src\core\../misc/lv_anim.h **** 
 110:..\..\..\arduinoLCD\test\Pain Drain\libraries\lvgl\src\core\../misc/lv_anim.h **** /**
 111:..\..\..\arduinoLCD\test\Pain Drain\libraries\lvgl\src\core\../misc/lv_anim.h ****  * Initialize an animation variable.
 112:..\..\..\arduinoLCD\test\Pain Drain\libraries\lvgl\src\core\../misc/lv_anim.h ****  * E.g.:
 113:..\..\..\arduinoLCD\test\Pain Drain\libraries\lvgl\src\core\../misc/lv_anim.h ****  * lv_anim_t a;
 114:..\..\..\arduinoLCD\test\Pain Drain\libraries\lvgl\src\core\../misc/lv_anim.h ****  * lv_anim_init(&a);
ARM GAS  C:\Users\haske\AppData\Local\Temp\ccLxalmh.s 			page 33


 115:..\..\..\arduinoLCD\test\Pain Drain\libraries\lvgl\src\core\../misc/lv_anim.h ****  * lv_anim_set_...(&a);
 116:..\..\..\arduinoLCD\test\Pain Drain\libraries\lvgl\src\core\../misc/lv_anim.h ****  * lv_anim_start(&a);
 117:..\..\..\arduinoLCD\test\Pain Drain\libraries\lvgl\src\core\../misc/lv_anim.h ****  * @param a     pointer to an `lv_anim_t` variable to initialize
 118:..\..\..\arduinoLCD\test\Pain Drain\libraries\lvgl\src\core\../misc/lv_anim.h ****  */
 119:..\..\..\arduinoLCD\test\Pain Drain\libraries\lvgl\src\core\../misc/lv_anim.h **** void lv_anim_init(lv_anim_t * a);
 120:..\..\..\arduinoLCD\test\Pain Drain\libraries\lvgl\src\core\../misc/lv_anim.h **** 
 121:..\..\..\arduinoLCD\test\Pain Drain\libraries\lvgl\src\core\../misc/lv_anim.h **** /**
 122:..\..\..\arduinoLCD\test\Pain Drain\libraries\lvgl\src\core\../misc/lv_anim.h ****  * Set a variable to animate
 123:..\..\..\arduinoLCD\test\Pain Drain\libraries\lvgl\src\core\../misc/lv_anim.h ****  * @param a     pointer to an initialized `lv_anim_t` variable
 124:..\..\..\arduinoLCD\test\Pain Drain\libraries\lvgl\src\core\../misc/lv_anim.h ****  * @param var   pointer to a variable to animate
 125:..\..\..\arduinoLCD\test\Pain Drain\libraries\lvgl\src\core\../misc/lv_anim.h ****  */
 126:..\..\..\arduinoLCD\test\Pain Drain\libraries\lvgl\src\core\../misc/lv_anim.h **** static inline void lv_anim_set_var(lv_anim_t * a, void * var)
 127:..\..\..\arduinoLCD\test\Pain Drain\libraries\lvgl\src\core\../misc/lv_anim.h **** {
 128:..\..\..\arduinoLCD\test\Pain Drain\libraries\lvgl\src\core\../misc/lv_anim.h ****     a->var = var;
 775              		.loc 2 128 0
 776 0010 0196     		str	r6, [sp, #4]
 777              	.LVL88:
 778              	.LBE88:
 779              	.LBE87:
 780              	.LBB89:
 781              	.LBB90:
 129:..\..\..\arduinoLCD\test\Pain Drain\libraries\lvgl\src\core\../misc/lv_anim.h **** }
 130:..\..\..\arduinoLCD\test\Pain Drain\libraries\lvgl\src\core\../misc/lv_anim.h **** 
 131:..\..\..\arduinoLCD\test\Pain Drain\libraries\lvgl\src\core\../misc/lv_anim.h **** /**
 132:..\..\..\arduinoLCD\test\Pain Drain\libraries\lvgl\src\core\../misc/lv_anim.h ****  * Set a function to animate `var`
 133:..\..\..\arduinoLCD\test\Pain Drain\libraries\lvgl\src\core\../misc/lv_anim.h ****  * @param a         pointer to an initialized `lv_anim_t` variable
 134:..\..\..\arduinoLCD\test\Pain Drain\libraries\lvgl\src\core\../misc/lv_anim.h ****  * @param exec_cb   a function to execute during animation
 135:..\..\..\arduinoLCD\test\Pain Drain\libraries\lvgl\src\core\../misc/lv_anim.h ****  *                  LVGL's built-in functions can be used.
 136:..\..\..\arduinoLCD\test\Pain Drain\libraries\lvgl\src\core\../misc/lv_anim.h ****  *                  E.g. lv_obj_set_x
 137:..\..\..\arduinoLCD\test\Pain Drain\libraries\lvgl\src\core\../misc/lv_anim.h ****  */
 138:..\..\..\arduinoLCD\test\Pain Drain\libraries\lvgl\src\core\../misc/lv_anim.h **** static inline void lv_anim_set_exec_cb(lv_anim_t * a, lv_anim_exec_xcb_t exec_cb)
 139:..\..\..\arduinoLCD\test\Pain Drain\libraries\lvgl\src\core\../misc/lv_anim.h **** {
 140:..\..\..\arduinoLCD\test\Pain Drain\libraries\lvgl\src\core\../misc/lv_anim.h ****     a->exec_cb = exec_cb;
 141:..\..\..\arduinoLCD\test\Pain Drain\libraries\lvgl\src\core\../misc/lv_anim.h **** }
 142:..\..\..\arduinoLCD\test\Pain Drain\libraries\lvgl\src\core\../misc/lv_anim.h **** 
 143:..\..\..\arduinoLCD\test\Pain Drain\libraries\lvgl\src\core\../misc/lv_anim.h **** /**
 144:..\..\..\arduinoLCD\test\Pain Drain\libraries\lvgl\src\core\../misc/lv_anim.h ****  * Set the duration of an animation
 145:..\..\..\arduinoLCD\test\Pain Drain\libraries\lvgl\src\core\../misc/lv_anim.h ****  * @param a         pointer to an initialized `lv_anim_t` variable
 146:..\..\..\arduinoLCD\test\Pain Drain\libraries\lvgl\src\core\../misc/lv_anim.h ****  * @param duration  duration of the animation in milliseconds
 147:..\..\..\arduinoLCD\test\Pain Drain\libraries\lvgl\src\core\../misc/lv_anim.h ****  */
 148:..\..\..\arduinoLCD\test\Pain Drain\libraries\lvgl\src\core\../misc/lv_anim.h **** static inline void lv_anim_set_time(lv_anim_t * a, uint32_t duration)
 149:..\..\..\arduinoLCD\test\Pain Drain\libraries\lvgl\src\core\../misc/lv_anim.h **** {
 150:..\..\..\arduinoLCD\test\Pain Drain\libraries\lvgl\src\core\../misc/lv_anim.h ****     a->time = duration;
 151:..\..\..\arduinoLCD\test\Pain Drain\libraries\lvgl\src\core\../misc/lv_anim.h **** }
 152:..\..\..\arduinoLCD\test\Pain Drain\libraries\lvgl\src\core\../misc/lv_anim.h **** 
 153:..\..\..\arduinoLCD\test\Pain Drain\libraries\lvgl\src\core\../misc/lv_anim.h **** /**
 154:..\..\..\arduinoLCD\test\Pain Drain\libraries\lvgl\src\core\../misc/lv_anim.h ****  * Set a delay before starting the animation
 155:..\..\..\arduinoLCD\test\Pain Drain\libraries\lvgl\src\core\../misc/lv_anim.h ****  * @param a         pointer to an initialized `lv_anim_t` variable
 156:..\..\..\arduinoLCD\test\Pain Drain\libraries\lvgl\src\core\../misc/lv_anim.h ****  * @param delay     delay before the animation in milliseconds
 157:..\..\..\arduinoLCD\test\Pain Drain\libraries\lvgl\src\core\../misc/lv_anim.h ****  */
 158:..\..\..\arduinoLCD\test\Pain Drain\libraries\lvgl\src\core\../misc/lv_anim.h **** static inline void lv_anim_set_delay(lv_anim_t * a, uint32_t delay)
 159:..\..\..\arduinoLCD\test\Pain Drain\libraries\lvgl\src\core\../misc/lv_anim.h **** {
 160:..\..\..\arduinoLCD\test\Pain Drain\libraries\lvgl\src\core\../misc/lv_anim.h ****     a->act_time = -(int32_t)(delay);
 161:..\..\..\arduinoLCD\test\Pain Drain\libraries\lvgl\src\core\../misc/lv_anim.h **** }
 162:..\..\..\arduinoLCD\test\Pain Drain\libraries\lvgl\src\core\../misc/lv_anim.h **** 
 163:..\..\..\arduinoLCD\test\Pain Drain\libraries\lvgl\src\core\../misc/lv_anim.h **** /**
 164:..\..\..\arduinoLCD\test\Pain Drain\libraries\lvgl\src\core\../misc/lv_anim.h ****  * Set the start and end values of an animation
ARM GAS  C:\Users\haske\AppData\Local\Temp\ccLxalmh.s 			page 34


 165:..\..\..\arduinoLCD\test\Pain Drain\libraries\lvgl\src\core\../misc/lv_anim.h ****  * @param a         pointer to an initialized `lv_anim_t` variable
 166:..\..\..\arduinoLCD\test\Pain Drain\libraries\lvgl\src\core\../misc/lv_anim.h ****  * @param start     the start value
 167:..\..\..\arduinoLCD\test\Pain Drain\libraries\lvgl\src\core\../misc/lv_anim.h ****  * @param end       the end value
 168:..\..\..\arduinoLCD\test\Pain Drain\libraries\lvgl\src\core\../misc/lv_anim.h ****  */
 169:..\..\..\arduinoLCD\test\Pain Drain\libraries\lvgl\src\core\../misc/lv_anim.h **** static inline void lv_anim_set_values(lv_anim_t * a, int32_t start, int32_t end)
 170:..\..\..\arduinoLCD\test\Pain Drain\libraries\lvgl\src\core\../misc/lv_anim.h **** {
 171:..\..\..\arduinoLCD\test\Pain Drain\libraries\lvgl\src\core\../misc/lv_anim.h ****     a->start_value = start;
 782              		.loc 2 171 0
 783 0012 0023     		movs	r3, #0
 784 0014 0993     		str	r3, [sp, #36]
 172:..\..\..\arduinoLCD\test\Pain Drain\libraries\lvgl\src\core\../misc/lv_anim.h ****     a->current_value = start;
 785              		.loc 2 172 0
 786 0016 0A93     		str	r3, [sp, #40]
 173:..\..\..\arduinoLCD\test\Pain Drain\libraries\lvgl\src\core\../misc/lv_anim.h ****     a->end_value = end;
 787              		.loc 2 173 0
 788 0018 FF33     		adds	r3, r3, #255
 789 001a 0B93     		str	r3, [sp, #44]
 790              	.LVL89:
 791              	.LBE90:
 792              	.LBE89:
 793              	.LBB91:
 794              	.LBB92:
 140:..\..\..\arduinoLCD\test\Pain Drain\libraries\lvgl\src\core\../misc/lv_anim.h **** }
 795              		.loc 2 140 0
 796 001c 054B     		ldr	r3, .L54
 797 001e 0293     		str	r3, [sp, #8]
 798              	.LVL90:
 799              	.LBE92:
 800              	.LBE91:
 801              	.LBB93:
 802              	.LBB94:
 174:..\..\..\arduinoLCD\test\Pain Drain\libraries\lvgl\src\core\../misc/lv_anim.h **** }
 175:..\..\..\arduinoLCD\test\Pain Drain\libraries\lvgl\src\core\../misc/lv_anim.h **** 
 176:..\..\..\arduinoLCD\test\Pain Drain\libraries\lvgl\src\core\../misc/lv_anim.h **** /**
 177:..\..\..\arduinoLCD\test\Pain Drain\libraries\lvgl\src\core\../misc/lv_anim.h ****  * Similar to `lv_anim_set_exec_cb` but `lv_anim_custom_exec_cb_t` receives
 178:..\..\..\arduinoLCD\test\Pain Drain\libraries\lvgl\src\core\../misc/lv_anim.h ****  * `lv_anim_t * ` as its first parameter instead of `void *`.
 179:..\..\..\arduinoLCD\test\Pain Drain\libraries\lvgl\src\core\../misc/lv_anim.h ****  * This function might be used when LVGL is bound to other languages because
 180:..\..\..\arduinoLCD\test\Pain Drain\libraries\lvgl\src\core\../misc/lv_anim.h ****  * it's more consistent to have `lv_anim_t *` as first parameter.
 181:..\..\..\arduinoLCD\test\Pain Drain\libraries\lvgl\src\core\../misc/lv_anim.h ****  * The variable to animate can be stored in the animation's `user_data`
 182:..\..\..\arduinoLCD\test\Pain Drain\libraries\lvgl\src\core\../misc/lv_anim.h ****  * @param a         pointer to an initialized `lv_anim_t` variable
 183:..\..\..\arduinoLCD\test\Pain Drain\libraries\lvgl\src\core\../misc/lv_anim.h ****  * @param exec_cb   a function to execute.
 184:..\..\..\arduinoLCD\test\Pain Drain\libraries\lvgl\src\core\../misc/lv_anim.h ****  */
 185:..\..\..\arduinoLCD\test\Pain Drain\libraries\lvgl\src\core\../misc/lv_anim.h **** static inline void lv_anim_set_custom_exec_cb(lv_anim_t * a, lv_anim_custom_exec_cb_t exec_cb)
 186:..\..\..\arduinoLCD\test\Pain Drain\libraries\lvgl\src\core\../misc/lv_anim.h **** {
 187:..\..\..\arduinoLCD\test\Pain Drain\libraries\lvgl\src\core\../misc/lv_anim.h ****     a->var     = a;
 188:..\..\..\arduinoLCD\test\Pain Drain\libraries\lvgl\src\core\../misc/lv_anim.h ****     a->exec_cb = (lv_anim_exec_xcb_t)exec_cb;
 189:..\..\..\arduinoLCD\test\Pain Drain\libraries\lvgl\src\core\../misc/lv_anim.h **** }
 190:..\..\..\arduinoLCD\test\Pain Drain\libraries\lvgl\src\core\../misc/lv_anim.h **** 
 191:..\..\..\arduinoLCD\test\Pain Drain\libraries\lvgl\src\core\../misc/lv_anim.h **** /**
 192:..\..\..\arduinoLCD\test\Pain Drain\libraries\lvgl\src\core\../misc/lv_anim.h ****  * Set the path (curve) of the animation.
 193:..\..\..\arduinoLCD\test\Pain Drain\libraries\lvgl\src\core\../misc/lv_anim.h ****  * @param a         pointer to an initialized `lv_anim_t` variable
 194:..\..\..\arduinoLCD\test\Pain Drain\libraries\lvgl\src\core\../misc/lv_anim.h ****  * @param path_cb a function to set the current value of the animation.
 195:..\..\..\arduinoLCD\test\Pain Drain\libraries\lvgl\src\core\../misc/lv_anim.h ****  */
 196:..\..\..\arduinoLCD\test\Pain Drain\libraries\lvgl\src\core\../misc/lv_anim.h **** static inline void lv_anim_set_path_cb(lv_anim_t * a, lv_anim_path_cb_t path_cb)
 197:..\..\..\arduinoLCD\test\Pain Drain\libraries\lvgl\src\core\../misc/lv_anim.h **** {
 198:..\..\..\arduinoLCD\test\Pain Drain\libraries\lvgl\src\core\../misc/lv_anim.h ****     a->path_cb = path_cb;
 199:..\..\..\arduinoLCD\test\Pain Drain\libraries\lvgl\src\core\../misc/lv_anim.h **** }
ARM GAS  C:\Users\haske\AppData\Local\Temp\ccLxalmh.s 			page 35


 200:..\..\..\arduinoLCD\test\Pain Drain\libraries\lvgl\src\core\../misc/lv_anim.h **** 
 201:..\..\..\arduinoLCD\test\Pain Drain\libraries\lvgl\src\core\../misc/lv_anim.h **** /**
 202:..\..\..\arduinoLCD\test\Pain Drain\libraries\lvgl\src\core\../misc/lv_anim.h ****  * Set a function call when the animation really starts (considering `delay`)
 203:..\..\..\arduinoLCD\test\Pain Drain\libraries\lvgl\src\core\../misc/lv_anim.h ****  * @param a         pointer to an initialized `lv_anim_t` variable
 204:..\..\..\arduinoLCD\test\Pain Drain\libraries\lvgl\src\core\../misc/lv_anim.h ****  * @param start_cb  a function call when the animation starts
 205:..\..\..\arduinoLCD\test\Pain Drain\libraries\lvgl\src\core\../misc/lv_anim.h ****  */
 206:..\..\..\arduinoLCD\test\Pain Drain\libraries\lvgl\src\core\../misc/lv_anim.h **** static inline void lv_anim_set_start_cb(lv_anim_t * a, lv_anim_start_cb_t start_cb)
 207:..\..\..\arduinoLCD\test\Pain Drain\libraries\lvgl\src\core\../misc/lv_anim.h **** {
 208:..\..\..\arduinoLCD\test\Pain Drain\libraries\lvgl\src\core\../misc/lv_anim.h ****     a->start_cb = start_cb;
 209:..\..\..\arduinoLCD\test\Pain Drain\libraries\lvgl\src\core\../misc/lv_anim.h **** }
 210:..\..\..\arduinoLCD\test\Pain Drain\libraries\lvgl\src\core\../misc/lv_anim.h **** 
 211:..\..\..\arduinoLCD\test\Pain Drain\libraries\lvgl\src\core\../misc/lv_anim.h **** /**
 212:..\..\..\arduinoLCD\test\Pain Drain\libraries\lvgl\src\core\../misc/lv_anim.h ****  * Set a function to use the current value of the variable and make start and end value
 213:..\..\..\arduinoLCD\test\Pain Drain\libraries\lvgl\src\core\../misc/lv_anim.h ****  * relative to the returned current value.
 214:..\..\..\arduinoLCD\test\Pain Drain\libraries\lvgl\src\core\../misc/lv_anim.h ****  * @param a             pointer to an initialized `lv_anim_t` variable
 215:..\..\..\arduinoLCD\test\Pain Drain\libraries\lvgl\src\core\../misc/lv_anim.h ****  * @param get_value_cb  a function call when the animation starts
 216:..\..\..\arduinoLCD\test\Pain Drain\libraries\lvgl\src\core\../misc/lv_anim.h ****  */
 217:..\..\..\arduinoLCD\test\Pain Drain\libraries\lvgl\src\core\../misc/lv_anim.h **** static inline void lv_anim_set_get_value_cb(lv_anim_t * a, lv_anim_get_value_cb_t get_value_cb)
 218:..\..\..\arduinoLCD\test\Pain Drain\libraries\lvgl\src\core\../misc/lv_anim.h **** {
 219:..\..\..\arduinoLCD\test\Pain Drain\libraries\lvgl\src\core\../misc/lv_anim.h ****     a->get_value_cb = get_value_cb;
 220:..\..\..\arduinoLCD\test\Pain Drain\libraries\lvgl\src\core\../misc/lv_anim.h **** }
 221:..\..\..\arduinoLCD\test\Pain Drain\libraries\lvgl\src\core\../misc/lv_anim.h **** 
 222:..\..\..\arduinoLCD\test\Pain Drain\libraries\lvgl\src\core\../misc/lv_anim.h **** /**
 223:..\..\..\arduinoLCD\test\Pain Drain\libraries\lvgl\src\core\../misc/lv_anim.h ****  * Set a function call when the animation is ready
 224:..\..\..\arduinoLCD\test\Pain Drain\libraries\lvgl\src\core\../misc/lv_anim.h ****  * @param a         pointer to an initialized `lv_anim_t` variable
 225:..\..\..\arduinoLCD\test\Pain Drain\libraries\lvgl\src\core\../misc/lv_anim.h ****  * @param ready_cb  a function call when the animation is ready
 226:..\..\..\arduinoLCD\test\Pain Drain\libraries\lvgl\src\core\../misc/lv_anim.h ****  */
 227:..\..\..\arduinoLCD\test\Pain Drain\libraries\lvgl\src\core\../misc/lv_anim.h **** static inline void lv_anim_set_ready_cb(lv_anim_t * a, lv_anim_ready_cb_t ready_cb)
 228:..\..\..\arduinoLCD\test\Pain Drain\libraries\lvgl\src\core\../misc/lv_anim.h **** {
 229:..\..\..\arduinoLCD\test\Pain Drain\libraries\lvgl\src\core\../misc/lv_anim.h ****     a->ready_cb = ready_cb;
 803              		.loc 2 229 0
 804 0020 054B     		ldr	r3, .L54+4
 805 0022 0493     		str	r3, [sp, #16]
 806              	.LVL91:
 807              	.LBE94:
 808              	.LBE93:
 809              	.LBB95:
 810              	.LBB96:
 150:..\..\..\arduinoLCD\test\Pain Drain\libraries\lvgl\src\core\../misc/lv_anim.h **** }
 811              		.loc 2 150 0
 812 0024 0C95     		str	r5, [sp, #48]
 813              	.LVL92:
 814              	.LBE96:
 815              	.LBE95:
 816              	.LBB97:
 817              	.LBB98:
 160:..\..\..\arduinoLCD\test\Pain Drain\libraries\lvgl\src\core\../misc/lv_anim.h **** }
 818              		.loc 2 160 0
 819 0026 6442     		rsbs	r4, r4, #0
 820              	.LVL93:
 821 0028 0D94     		str	r4, [sp, #52]
 822              	.LVL94:
 823              	.LBE98:
 824              	.LBE97:
 465:..\..\..\arduinoLCD\test\Pain Drain\libraries\lvgl\src\core/lv_obj_style.c **** }
 825              		.loc 1 465 0
 826 002a 01A8     		add	r0, sp, #4
ARM GAS  C:\Users\haske\AppData\Local\Temp\ccLxalmh.s 			page 36


 827 002c FFF7FEFF 		bl	lv_anim_start
 828              	.LVL95:
 466:..\..\..\arduinoLCD\test\Pain Drain\libraries\lvgl\src\core/lv_obj_style.c **** 
 829              		.loc 1 466 0
 830 0030 12B0     		add	sp, sp, #72
 831              		@ sp needed
 832              	.LVL96:
 833              	.LVL97:
 834              	.LVL98:
 835 0032 70BD     		pop	{r4, r5, r6, pc}
 836              	.L55:
 837              		.align	2
 838              	.L54:
 839 0034 00000000 		.word	fade_anim_cb
 840 0038 00000000 		.word	fade_in_anim_ready
 841              		.cfi_endproc
 842              	.LFE179:
 843              		.size	lv_obj_fade_in, .-lv_obj_fade_in
 844              		.section	.text.lv_obj_style_get_selector_state,"ax",%progbits
 845              		.align	2
 846              		.global	lv_obj_style_get_selector_state
 847              		.code	16
 848              		.thumb_func
 849              		.type	lv_obj_style_get_selector_state, %function
 850              	lv_obj_style_get_selector_state:
 851              	.LFB181:
 481:..\..\..\arduinoLCD\test\Pain Drain\libraries\lvgl\src\core/lv_obj_style.c ****     return selector & 0xFFFF;
 852              		.loc 1 481 0
 853              		.cfi_startproc
 854              		@ args = 0, pretend = 0, frame = 0
 855              		@ frame_needed = 0, uses_anonymous_args = 0
 856              		@ link register save eliminated.
 857              	.LVL99:
 482:..\..\..\arduinoLCD\test\Pain Drain\libraries\lvgl\src\core/lv_obj_style.c **** }
 858              		.loc 1 482 0
 859 0000 80B2     		uxth	r0, r0
 860              	.LVL100:
 483:..\..\..\arduinoLCD\test\Pain Drain\libraries\lvgl\src\core/lv_obj_style.c **** 
 861              		.loc 1 483 0
 862              		@ sp needed
 863 0002 7047     		bx	lr
 864              		.cfi_endproc
 865              	.LFE181:
 866              		.size	lv_obj_style_get_selector_state, .-lv_obj_style_get_selector_state
 867              		.section	.text._lv_obj_style_state_compare,"ax",%progbits
 868              		.align	2
 869              		.global	_lv_obj_style_state_compare
 870              		.code	16
 871              		.thumb_func
 872              		.type	_lv_obj_style_state_compare, %function
 873              	_lv_obj_style_state_compare:
 874              	.LFB178:
 394:..\..\..\arduinoLCD\test\Pain Drain\libraries\lvgl\src\core/lv_obj_style.c ****     _lv_style_state_cmp_t res = _LV_STYLE_STATE_CMP_SAME;
 875              		.loc 1 394 0
 876              		.cfi_startproc
 877              		@ args = 0, pretend = 0, frame = 8
 878              		@ frame_needed = 0, uses_anonymous_args = 0
ARM GAS  C:\Users\haske\AppData\Local\Temp\ccLxalmh.s 			page 37


 879              	.LVL101:
 880 0000 F0B5     		push	{r4, r5, r6, r7, lr}
 881              		.cfi_def_cfa_offset 20
 882              		.cfi_offset 4, -20
 883              		.cfi_offset 5, -16
 884              		.cfi_offset 6, -12
 885              		.cfi_offset 7, -8
 886              		.cfi_offset 14, -4
 887 0002 4F46     		mov	r7, r9
 888 0004 4646     		mov	r6, r8
 889 0006 C0B4     		push	{r6, r7}
 890              		.cfi_def_cfa_offset 28
 891              		.cfi_offset 8, -28
 892              		.cfi_offset 9, -24
 893 0008 83B0     		sub	sp, sp, #12
 894              		.cfi_def_cfa_offset 40
 895 000a 0600     		movs	r6, r0
 896 000c 8846     		mov	r8, r1
 897 000e 1700     		movs	r7, r2
 898              	.LVL102:
 399:..\..\..\arduinoLCD\test\Pain Drain\libraries\lvgl\src\core/lv_obj_style.c ****         if(obj->styles[i].is_trans) continue;
 899              		.loc 1 399 0
 900 0010 0024     		movs	r4, #0
 395:..\..\..\arduinoLCD\test\Pain Drain\libraries\lvgl\src\core/lv_obj_style.c **** 
 901              		.loc 1 395 0
 902 0012 0023     		movs	r3, #0
 903 0014 9946     		mov	r9, r3
 399:..\..\..\arduinoLCD\test\Pain Drain\libraries\lvgl\src\core/lv_obj_style.c ****         if(obj->styles[i].is_trans) continue;
 904              		.loc 1 399 0
 905 0016 4CE1     		b	.L58
 906              	.LVL103:
 907              	.L64:
 908              	.LBB99:
 400:..\..\..\arduinoLCD\test\Pain Drain\libraries\lvgl\src\core/lv_obj_style.c **** 
 909              		.loc 1 400 0
 910 0018 E500     		lsls	r5, r4, #3
 911 001a F368     		ldr	r3, [r6, #12]
 912 001c 9C46     		mov	ip, r3
 913 001e 6544     		add	r5, r5, ip
 914 0020 EB79     		ldrb	r3, [r5, #7]
 915 0022 9B07     		lsls	r3, r3, #30
 916 0024 00D5     		bpl	.LCB970
 917 0026 43E1     		b	.L59	@long jump
 918              	.LCB970:
 402:..\..\..\arduinoLCD\test\Pain Drain\libraries\lvgl\src\core/lv_obj_style.c ****         /*The style is valid for a state but not the other*/
 919              		.loc 1 402 0
 920 0028 6B68     		ldr	r3, [r5, #4]
 921 002a 1802     		lsls	r0, r3, #8
 922 002c 000A     		lsrs	r0, r0, #8
 923 002e FFF7FEFF 		bl	lv_obj_style_get_selector_state
 924              	.LVL104:
 404:..\..\..\arduinoLCD\test\Pain Drain\libraries\lvgl\src\core/lv_obj_style.c ****         bool valid2 = state_act & (~state2) ? false : true;
 925              		.loc 1 404 0
 926 0032 0300     		movs	r3, r0
 927 0034 4246     		mov	r2, r8
 928 0036 9343     		bics	r3, r2
 929 0038 1A00     		movs	r2, r3
ARM GAS  C:\Users\haske\AppData\Local\Temp\ccLxalmh.s 			page 38


 930 003a 5342     		rsbs	r3, r2, #0
 931 003c 5341     		adcs	r3, r3, r2
 932 003e DBB2     		uxtb	r3, r3
 933              	.LVL105:
 405:..\..\..\arduinoLCD\test\Pain Drain\libraries\lvgl\src\core/lv_obj_style.c ****         if(valid1 != valid2) {
 934              		.loc 1 405 0
 935 0040 0200     		movs	r2, r0
 936 0042 BA43     		bics	r2, r7
 937 0044 5042     		rsbs	r0, r2, #0
 938 0046 5041     		adcs	r0, r0, r2
 939              	.LVL106:
 940 0048 C0B2     		uxtb	r0, r0
 941              	.LVL107:
 406:..\..\..\arduinoLCD\test\Pain Drain\libraries\lvgl\src\core/lv_obj_style.c ****             lv_style_t * style = obj->styles[i].style;
 942              		.loc 1 406 0
 943 004a 8342     		cmp	r3, r0
 944 004c 00D1     		bne	.LCB995
 945 004e 2FE1     		b	.L59	@long jump
 946              	.LCB995:
 947              	.LBB100:
 407:..\..\..\arduinoLCD\test\Pain Drain\libraries\lvgl\src\core/lv_obj_style.c ****             lv_style_value_t v;
 948              		.loc 1 407 0
 949 0050 2D68     		ldr	r5, [r5]
 950              	.LVL108:
 411:..\..\..\arduinoLCD\test\Pain Drain\libraries\lvgl\src\core/lv_obj_style.c ****             else if(lv_style_get_prop(style, LV_STYLE_PAD_BOTTOM, &v)) layout_diff = true;
 951              		.loc 1 411 0
 952 0052 01AA     		add	r2, sp, #4
 953 0054 1021     		movs	r1, #16
 954 0056 2800     		movs	r0, r5
 955              	.LVL109:
 956 0058 FFF7FEFF 		bl	lv_style_get_prop
 957              	.LVL110:
 958 005c 0028     		cmp	r0, #0
 959 005e 78D1     		bne	.L65
 412:..\..\..\arduinoLCD\test\Pain Drain\libraries\lvgl\src\core/lv_obj_style.c ****             else if(lv_style_get_prop(style, LV_STYLE_PAD_LEFT, &v)) layout_diff = true;
 960              		.loc 1 412 0
 961 0060 01AA     		add	r2, sp, #4
 962 0062 1121     		movs	r1, #17
 963 0064 2800     		movs	r0, r5
 964 0066 FFF7FEFF 		bl	lv_style_get_prop
 965              	.LVL111:
 966 006a 0028     		cmp	r0, #0
 967 006c 73D1     		bne	.L66
 413:..\..\..\arduinoLCD\test\Pain Drain\libraries\lvgl\src\core/lv_obj_style.c ****             else if(lv_style_get_prop(style, LV_STYLE_PAD_RIGHT, &v)) layout_diff = true;
 968              		.loc 1 413 0
 969 006e 01AA     		add	r2, sp, #4
 970 0070 1221     		movs	r1, #18
 971 0072 2800     		movs	r0, r5
 972 0074 FFF7FEFF 		bl	lv_style_get_prop
 973              	.LVL112:
 974 0078 0028     		cmp	r0, #0
 975 007a 6ED1     		bne	.L67
 414:..\..\..\arduinoLCD\test\Pain Drain\libraries\lvgl\src\core/lv_obj_style.c ****             else if(lv_style_get_prop(style, LV_STYLE_PAD_COLUMN, &v)) layout_diff = true;
 976              		.loc 1 414 0
 977 007c 01AA     		add	r2, sp, #4
 978 007e 1321     		movs	r1, #19
 979 0080 2800     		movs	r0, r5
ARM GAS  C:\Users\haske\AppData\Local\Temp\ccLxalmh.s 			page 39


 980 0082 FFF7FEFF 		bl	lv_style_get_prop
 981              	.LVL113:
 982 0086 0028     		cmp	r0, #0
 983 0088 69D1     		bne	.L68
 415:..\..\..\arduinoLCD\test\Pain Drain\libraries\lvgl\src\core/lv_obj_style.c ****             else if(lv_style_get_prop(style, LV_STYLE_PAD_ROW, &v)) layout_diff = true;
 984              		.loc 1 415 0
 985 008a 01AA     		add	r2, sp, #4
 986 008c 1521     		movs	r1, #21
 987 008e 2800     		movs	r0, r5
 988 0090 FFF7FEFF 		bl	lv_style_get_prop
 989              	.LVL114:
 990 0094 0028     		cmp	r0, #0
 991 0096 64D1     		bne	.L69
 416:..\..\..\arduinoLCD\test\Pain Drain\libraries\lvgl\src\core/lv_obj_style.c ****             else if(lv_style_get_prop(style, LV_STYLE_LAYOUT, &v)) layout_diff = true;
 992              		.loc 1 416 0
 993 0098 01AA     		add	r2, sp, #4
 994 009a 1421     		movs	r1, #20
 995 009c 2800     		movs	r0, r5
 996 009e FFF7FEFF 		bl	lv_style_get_prop
 997              	.LVL115:
 998 00a2 0028     		cmp	r0, #0
 999 00a4 5FD1     		bne	.L70
 417:..\..\..\arduinoLCD\test\Pain Drain\libraries\lvgl\src\core/lv_obj_style.c ****             else if(lv_style_get_prop(style, LV_STYLE_TRANSLATE_X, &v)) layout_diff = true;
 1000              		.loc 1 417 0
 1001 00a6 01AA     		add	r2, sp, #4
 1002 00a8 0A21     		movs	r1, #10
 1003 00aa 2800     		movs	r0, r5
 1004 00ac FFF7FEFF 		bl	lv_style_get_prop
 1005              	.LVL116:
 1006 00b0 0028     		cmp	r0, #0
 1007 00b2 5AD1     		bne	.L71
 418:..\..\..\arduinoLCD\test\Pain Drain\libraries\lvgl\src\core/lv_obj_style.c ****             else if(lv_style_get_prop(style, LV_STYLE_TRANSLATE_Y, &v)) layout_diff = true;
 1008              		.loc 1 418 0
 1009 00b4 01AA     		add	r2, sp, #4
 1010 00b6 6A21     		movs	r1, #106
 1011 00b8 2800     		movs	r0, r5
 1012 00ba FFF7FEFF 		bl	lv_style_get_prop
 1013              	.LVL117:
 1014 00be 0028     		cmp	r0, #0
 1015 00c0 55D1     		bne	.L72
 419:..\..\..\arduinoLCD\test\Pain Drain\libraries\lvgl\src\core/lv_obj_style.c ****             else if(lv_style_get_prop(style, LV_STYLE_WIDTH, &v)) layout_diff = true;
 1016              		.loc 1 419 0
 1017 00c2 01AA     		add	r2, sp, #4
 1018 00c4 6B21     		movs	r1, #107
 1019 00c6 2800     		movs	r0, r5
 1020 00c8 FFF7FEFF 		bl	lv_style_get_prop
 1021              	.LVL118:
 1022 00cc 0028     		cmp	r0, #0
 1023 00ce 50D1     		bne	.L73
 420:..\..\..\arduinoLCD\test\Pain Drain\libraries\lvgl\src\core/lv_obj_style.c ****             else if(lv_style_get_prop(style, LV_STYLE_HEIGHT, &v)) layout_diff = true;
 1024              		.loc 1 420 0
 1025 00d0 01AA     		add	r2, sp, #4
 1026 00d2 0121     		movs	r1, #1
 1027 00d4 2800     		movs	r0, r5
 1028 00d6 FFF7FEFF 		bl	lv_style_get_prop
 1029              	.LVL119:
 1030 00da 0028     		cmp	r0, #0
ARM GAS  C:\Users\haske\AppData\Local\Temp\ccLxalmh.s 			page 40


 1031 00dc 4BD1     		bne	.L74
 421:..\..\..\arduinoLCD\test\Pain Drain\libraries\lvgl\src\core/lv_obj_style.c ****             else if(lv_style_get_prop(style, LV_STYLE_MIN_WIDTH, &v)) layout_diff = true;
 1032              		.loc 1 421 0
 1033 00de 01AA     		add	r2, sp, #4
 1034 00e0 0421     		movs	r1, #4
 1035 00e2 2800     		movs	r0, r5
 1036 00e4 FFF7FEFF 		bl	lv_style_get_prop
 1037              	.LVL120:
 1038 00e8 0028     		cmp	r0, #0
 1039 00ea 46D1     		bne	.L75
 422:..\..\..\arduinoLCD\test\Pain Drain\libraries\lvgl\src\core/lv_obj_style.c ****             else if(lv_style_get_prop(style, LV_STYLE_MAX_WIDTH, &v)) layout_diff = true;
 1040              		.loc 1 422 0
 1041 00ec 01AA     		add	r2, sp, #4
 1042 00ee 0221     		movs	r1, #2
 1043 00f0 2800     		movs	r0, r5
 1044 00f2 FFF7FEFF 		bl	lv_style_get_prop
 1045              	.LVL121:
 1046 00f6 0028     		cmp	r0, #0
 1047 00f8 41D1     		bne	.L76
 423:..\..\..\arduinoLCD\test\Pain Drain\libraries\lvgl\src\core/lv_obj_style.c ****             else if(lv_style_get_prop(style, LV_STYLE_MIN_HEIGHT, &v)) layout_diff = true;
 1048              		.loc 1 423 0
 1049 00fa 01AA     		add	r2, sp, #4
 1050 00fc 0321     		movs	r1, #3
 1051 00fe 2800     		movs	r0, r5
 1052 0100 FFF7FEFF 		bl	lv_style_get_prop
 1053              	.LVL122:
 1054 0104 0028     		cmp	r0, #0
 1055 0106 3CD1     		bne	.L77
 424:..\..\..\arduinoLCD\test\Pain Drain\libraries\lvgl\src\core/lv_obj_style.c ****             else if(lv_style_get_prop(style, LV_STYLE_MAX_HEIGHT, &v)) layout_diff = true;
 1056              		.loc 1 424 0
 1057 0108 01AA     		add	r2, sp, #4
 1058 010a 0521     		movs	r1, #5
 1059 010c 2800     		movs	r0, r5
 1060 010e FFF7FEFF 		bl	lv_style_get_prop
 1061              	.LVL123:
 1062 0112 0028     		cmp	r0, #0
 1063 0114 37D1     		bne	.L78
 425:..\..\..\arduinoLCD\test\Pain Drain\libraries\lvgl\src\core/lv_obj_style.c ****             else if(lv_style_get_prop(style, LV_STYLE_BORDER_WIDTH, &v)) layout_diff = true;
 1064              		.loc 1 425 0
 1065 0116 01AA     		add	r2, sp, #4
 1066 0118 0621     		movs	r1, #6
 1067 011a 2800     		movs	r0, r5
 1068 011c FFF7FEFF 		bl	lv_style_get_prop
 1069              	.LVL124:
 1070 0120 0028     		cmp	r0, #0
 1071 0122 32D1     		bne	.L79
 426:..\..\..\arduinoLCD\test\Pain Drain\libraries\lvgl\src\core/lv_obj_style.c ****             else if(lv_style_get_prop(style, LV_STYLE_TRANSFORM_ANGLE, &v)) layout_diff = true;
 1072              		.loc 1 426 0
 1073 0124 01AA     		add	r2, sp, #4
 1074 0126 3221     		movs	r1, #50
 1075 0128 2800     		movs	r0, r5
 1076 012a FFF7FEFF 		bl	lv_style_get_prop
 1077              	.LVL125:
 1078 012e 0028     		cmp	r0, #0
 1079 0130 2DD1     		bne	.L80
 427:..\..\..\arduinoLCD\test\Pain Drain\libraries\lvgl\src\core/lv_obj_style.c ****             else if(lv_style_get_prop(style, LV_STYLE_TRANSFORM_ZOOM, &v)) layout_diff = true;
 1080              		.loc 1 427 0
ARM GAS  C:\Users\haske\AppData\Local\Temp\ccLxalmh.s 			page 41


 1081 0132 01AA     		add	r2, sp, #4
 1082 0134 6D21     		movs	r1, #109
 1083 0136 2800     		movs	r0, r5
 1084 0138 FFF7FEFF 		bl	lv_style_get_prop
 1085              	.LVL126:
 1086 013c 0028     		cmp	r0, #0
 1087 013e 28D1     		bne	.L81
 428:..\..\..\arduinoLCD\test\Pain Drain\libraries\lvgl\src\core/lv_obj_style.c **** 
 1088              		.loc 1 428 0
 1089 0140 01AA     		add	r2, sp, #4
 1090 0142 6C21     		movs	r1, #108
 1091 0144 2800     		movs	r0, r5
 1092 0146 FFF7FEFF 		bl	lv_style_get_prop
 1093              	.LVL127:
 1094 014a 0028     		cmp	r0, #0
 1095 014c 23D1     		bne	.L82
 410:..\..\..\arduinoLCD\test\Pain Drain\libraries\lvgl\src\core/lv_obj_style.c ****             if(lv_style_get_prop(style, LV_STYLE_PAD_TOP, &v))layout_diff = true;
 1096              		.loc 1 410 0
 1097 014e 0023     		movs	r3, #0
 1098 0150 22E0     		b	.L60
 1099              	.L65:
 411:..\..\..\arduinoLCD\test\Pain Drain\libraries\lvgl\src\core/lv_obj_style.c ****             else if(lv_style_get_prop(style, LV_STYLE_PAD_BOTTOM, &v)) layout_diff = true;
 1100              		.loc 1 411 0
 1101 0152 0123     		movs	r3, #1
 1102 0154 20E0     		b	.L60
 1103              	.L66:
 412:..\..\..\arduinoLCD\test\Pain Drain\libraries\lvgl\src\core/lv_obj_style.c ****             else if(lv_style_get_prop(style, LV_STYLE_PAD_LEFT, &v)) layout_diff = true;
 1104              		.loc 1 412 0
 1105 0156 0123     		movs	r3, #1
 1106 0158 1EE0     		b	.L60
 1107              	.L67:
 413:..\..\..\arduinoLCD\test\Pain Drain\libraries\lvgl\src\core/lv_obj_style.c ****             else if(lv_style_get_prop(style, LV_STYLE_PAD_RIGHT, &v)) layout_diff = true;
 1108              		.loc 1 413 0
 1109 015a 0123     		movs	r3, #1
 1110 015c 1CE0     		b	.L60
 1111              	.L68:
 414:..\..\..\arduinoLCD\test\Pain Drain\libraries\lvgl\src\core/lv_obj_style.c ****             else if(lv_style_get_prop(style, LV_STYLE_PAD_COLUMN, &v)) layout_diff = true;
 1112              		.loc 1 414 0
 1113 015e 0123     		movs	r3, #1
 1114 0160 1AE0     		b	.L60
 1115              	.L69:
 415:..\..\..\arduinoLCD\test\Pain Drain\libraries\lvgl\src\core/lv_obj_style.c ****             else if(lv_style_get_prop(style, LV_STYLE_PAD_ROW, &v)) layout_diff = true;
 1116              		.loc 1 415 0
 1117 0162 0123     		movs	r3, #1
 1118 0164 18E0     		b	.L60
 1119              	.L70:
 416:..\..\..\arduinoLCD\test\Pain Drain\libraries\lvgl\src\core/lv_obj_style.c ****             else if(lv_style_get_prop(style, LV_STYLE_LAYOUT, &v)) layout_diff = true;
 1120              		.loc 1 416 0
 1121 0166 0123     		movs	r3, #1
 1122 0168 16E0     		b	.L60
 1123              	.L71:
 417:..\..\..\arduinoLCD\test\Pain Drain\libraries\lvgl\src\core/lv_obj_style.c ****             else if(lv_style_get_prop(style, LV_STYLE_TRANSLATE_X, &v)) layout_diff = true;
 1124              		.loc 1 417 0
 1125 016a 0123     		movs	r3, #1
 1126 016c 14E0     		b	.L60
 1127              	.L72:
 418:..\..\..\arduinoLCD\test\Pain Drain\libraries\lvgl\src\core/lv_obj_style.c ****             else if(lv_style_get_prop(style, LV_STYLE_TRANSLATE_Y, &v)) layout_diff = true;
ARM GAS  C:\Users\haske\AppData\Local\Temp\ccLxalmh.s 			page 42


 1128              		.loc 1 418 0
 1129 016e 0123     		movs	r3, #1
 1130 0170 12E0     		b	.L60
 1131              	.L73:
 419:..\..\..\arduinoLCD\test\Pain Drain\libraries\lvgl\src\core/lv_obj_style.c ****             else if(lv_style_get_prop(style, LV_STYLE_WIDTH, &v)) layout_diff = true;
 1132              		.loc 1 419 0
 1133 0172 0123     		movs	r3, #1
 1134 0174 10E0     		b	.L60
 1135              	.L74:
 420:..\..\..\arduinoLCD\test\Pain Drain\libraries\lvgl\src\core/lv_obj_style.c ****             else if(lv_style_get_prop(style, LV_STYLE_HEIGHT, &v)) layout_diff = true;
 1136              		.loc 1 420 0
 1137 0176 0123     		movs	r3, #1
 1138 0178 0EE0     		b	.L60
 1139              	.L75:
 421:..\..\..\arduinoLCD\test\Pain Drain\libraries\lvgl\src\core/lv_obj_style.c ****             else if(lv_style_get_prop(style, LV_STYLE_MIN_WIDTH, &v)) layout_diff = true;
 1140              		.loc 1 421 0
 1141 017a 0123     		movs	r3, #1
 1142 017c 0CE0     		b	.L60
 1143              	.L76:
 422:..\..\..\arduinoLCD\test\Pain Drain\libraries\lvgl\src\core/lv_obj_style.c ****             else if(lv_style_get_prop(style, LV_STYLE_MAX_WIDTH, &v)) layout_diff = true;
 1144              		.loc 1 422 0
 1145 017e 0123     		movs	r3, #1
 1146 0180 0AE0     		b	.L60
 1147              	.L77:
 423:..\..\..\arduinoLCD\test\Pain Drain\libraries\lvgl\src\core/lv_obj_style.c ****             else if(lv_style_get_prop(style, LV_STYLE_MIN_HEIGHT, &v)) layout_diff = true;
 1148              		.loc 1 423 0
 1149 0182 0123     		movs	r3, #1
 1150 0184 08E0     		b	.L60
 1151              	.L78:
 424:..\..\..\arduinoLCD\test\Pain Drain\libraries\lvgl\src\core/lv_obj_style.c ****             else if(lv_style_get_prop(style, LV_STYLE_MAX_HEIGHT, &v)) layout_diff = true;
 1152              		.loc 1 424 0
 1153 0186 0123     		movs	r3, #1
 1154 0188 06E0     		b	.L60
 1155              	.L79:
 425:..\..\..\arduinoLCD\test\Pain Drain\libraries\lvgl\src\core/lv_obj_style.c ****             else if(lv_style_get_prop(style, LV_STYLE_BORDER_WIDTH, &v)) layout_diff = true;
 1156              		.loc 1 425 0
 1157 018a 0123     		movs	r3, #1
 1158 018c 04E0     		b	.L60
 1159              	.L80:
 426:..\..\..\arduinoLCD\test\Pain Drain\libraries\lvgl\src\core/lv_obj_style.c ****             else if(lv_style_get_prop(style, LV_STYLE_TRANSFORM_ANGLE, &v)) layout_diff = true;
 1160              		.loc 1 426 0
 1161 018e 0123     		movs	r3, #1
 1162 0190 02E0     		b	.L60
 1163              	.L81:
 427:..\..\..\arduinoLCD\test\Pain Drain\libraries\lvgl\src\core/lv_obj_style.c ****             else if(lv_style_get_prop(style, LV_STYLE_TRANSFORM_ZOOM, &v)) layout_diff = true;
 1164              		.loc 1 427 0
 1165 0192 0123     		movs	r3, #1
 1166 0194 00E0     		b	.L60
 1167              	.L82:
 428:..\..\..\arduinoLCD\test\Pain Drain\libraries\lvgl\src\core/lv_obj_style.c **** 
 1168              		.loc 1 428 0
 1169 0196 0123     		movs	r3, #1
 1170              	.L60:
 1171              	.LVL128:
 430:..\..\..\arduinoLCD\test\Pain Drain\libraries\lvgl\src\core/lv_obj_style.c ****                 return _LV_STYLE_STATE_CMP_DIFF_LAYOUT;
 1172              		.loc 1 430 0
 1173 0198 002B     		cmp	r3, #0
ARM GAS  C:\Users\haske\AppData\Local\Temp\ccLxalmh.s 			page 43


 1174 019a 01D0     		beq	.L61
 431:..\..\..\arduinoLCD\test\Pain Drain\libraries\lvgl\src\core/lv_obj_style.c ****             }
 1175              		.loc 1 431 0
 1176 019c 0320     		movs	r0, #3
 1177 019e 8FE0     		b	.L62
 1178              	.L61:
 435:..\..\..\arduinoLCD\test\Pain Drain\libraries\lvgl\src\core/lv_obj_style.c ****             else if(lv_style_get_prop(style, LV_STYLE_TRANSFORM_HEIGHT, &v)) res = _LV_STYLE_STATE_
 1179              		.loc 1 435 0
 1180 01a0 01AA     		add	r2, sp, #4
 1181 01a2 6821     		movs	r1, #104
 1182 01a4 2800     		movs	r0, r5
 1183 01a6 FFF7FEFF 		bl	lv_style_get_prop
 1184              	.LVL129:
 1185 01aa 0028     		cmp	r0, #0
 1186 01ac 57D1     		bne	.L83
 436:..\..\..\arduinoLCD\test\Pain Drain\libraries\lvgl\src\core/lv_obj_style.c ****             else if(lv_style_get_prop(style, LV_STYLE_TRANSFORM_ANGLE, &v)) res = _LV_STYLE_STATE_C
 1187              		.loc 1 436 0
 1188 01ae 01AA     		add	r2, sp, #4
 1189 01b0 6921     		movs	r1, #105
 1190 01b2 2800     		movs	r0, r5
 1191 01b4 FFF7FEFF 		bl	lv_style_get_prop
 1192              	.LVL130:
 1193 01b8 0028     		cmp	r0, #0
 1194 01ba 53D1     		bne	.L84
 437:..\..\..\arduinoLCD\test\Pain Drain\libraries\lvgl\src\core/lv_obj_style.c ****             else if(lv_style_get_prop(style, LV_STYLE_TRANSFORM_ZOOM, &v)) res = _LV_STYLE_STATE_CM
 1195              		.loc 1 437 0
 1196 01bc 01AA     		add	r2, sp, #4
 1197 01be 6D21     		movs	r1, #109
 1198 01c0 2800     		movs	r0, r5
 1199 01c2 FFF7FEFF 		bl	lv_style_get_prop
 1200              	.LVL131:
 1201 01c6 0028     		cmp	r0, #0
 1202 01c8 4FD1     		bne	.L85
 438:..\..\..\arduinoLCD\test\Pain Drain\libraries\lvgl\src\core/lv_obj_style.c ****             else if(lv_style_get_prop(style, LV_STYLE_OUTLINE_OPA, &v)) res = _LV_STYLE_STATE_CMP_D
 1203              		.loc 1 438 0
 1204 01ca 01AA     		add	r2, sp, #4
 1205 01cc 6C21     		movs	r1, #108
 1206 01ce 2800     		movs	r0, r5
 1207 01d0 FFF7FEFF 		bl	lv_style_get_prop
 1208              	.LVL132:
 1209 01d4 0028     		cmp	r0, #0
 1210 01d6 4BD1     		bne	.L86
 439:..\..\..\arduinoLCD\test\Pain Drain\libraries\lvgl\src\core/lv_obj_style.c ****             else if(lv_style_get_prop(style, LV_STYLE_OUTLINE_PAD, &v)) res = _LV_STYLE_STATE_CMP_D
 1211              		.loc 1 439 0
 1212 01d8 01AA     		add	r2, sp, #4
 1213 01da 3721     		movs	r1, #55
 1214 01dc 2800     		movs	r0, r5
 1215 01de FFF7FEFF 		bl	lv_style_get_prop
 1216              	.LVL133:
 1217 01e2 0028     		cmp	r0, #0
 1218 01e4 47D1     		bne	.L87
 440:..\..\..\arduinoLCD\test\Pain Drain\libraries\lvgl\src\core/lv_obj_style.c ****             else if(lv_style_get_prop(style, LV_STYLE_OUTLINE_WIDTH, &v)) res = _LV_STYLE_STATE_CMP
 1219              		.loc 1 440 0
 1220 01e6 01AA     		add	r2, sp, #4
 1221 01e8 3821     		movs	r1, #56
 1222 01ea 2800     		movs	r0, r5
 1223 01ec FFF7FEFF 		bl	lv_style_get_prop
ARM GAS  C:\Users\haske\AppData\Local\Temp\ccLxalmh.s 			page 44


 1224              	.LVL134:
 1225 01f0 0028     		cmp	r0, #0
 1226 01f2 43D1     		bne	.L88
 441:..\..\..\arduinoLCD\test\Pain Drain\libraries\lvgl\src\core/lv_obj_style.c ****             else if(lv_style_get_prop(style, LV_STYLE_SHADOW_WIDTH, &v)) res = _LV_STYLE_STATE_CMP_
 1227              		.loc 1 441 0
 1228 01f4 01AA     		add	r2, sp, #4
 1229 01f6 3521     		movs	r1, #53
 1230 01f8 2800     		movs	r0, r5
 1231 01fa FFF7FEFF 		bl	lv_style_get_prop
 1232              	.LVL135:
 1233 01fe 0028     		cmp	r0, #0
 1234 0200 3FD1     		bne	.L89
 442:..\..\..\arduinoLCD\test\Pain Drain\libraries\lvgl\src\core/lv_obj_style.c ****             else if(lv_style_get_prop(style, LV_STYLE_SHADOW_OPA, &v)) res = _LV_STYLE_STATE_CMP_DI
 1235              		.loc 1 442 0
 1236 0202 01AA     		add	r2, sp, #4
 1237 0204 4021     		movs	r1, #64
 1238 0206 2800     		movs	r0, r5
 1239 0208 FFF7FEFF 		bl	lv_style_get_prop
 1240              	.LVL136:
 1241 020c 0028     		cmp	r0, #0
 1242 020e 3BD1     		bne	.L90
 443:..\..\..\arduinoLCD\test\Pain Drain\libraries\lvgl\src\core/lv_obj_style.c ****             else if(lv_style_get_prop(style, LV_STYLE_SHADOW_OFS_X, &v)) res = _LV_STYLE_STATE_CMP_
 1243              		.loc 1 443 0
 1244 0210 01AA     		add	r2, sp, #4
 1245 0212 4521     		movs	r1, #69
 1246 0214 2800     		movs	r0, r5
 1247 0216 FFF7FEFF 		bl	lv_style_get_prop
 1248              	.LVL137:
 1249 021a 0028     		cmp	r0, #0
 1250 021c 37D1     		bne	.L91
 444:..\..\..\arduinoLCD\test\Pain Drain\libraries\lvgl\src\core/lv_obj_style.c ****             else if(lv_style_get_prop(style, LV_STYLE_SHADOW_OFS_Y, &v)) res = _LV_STYLE_STATE_CMP_
 1251              		.loc 1 444 0
 1252 021e 01AA     		add	r2, sp, #4
 1253 0220 4121     		movs	r1, #65
 1254 0222 2800     		movs	r0, r5
 1255 0224 FFF7FEFF 		bl	lv_style_get_prop
 1256              	.LVL138:
 1257 0228 0028     		cmp	r0, #0
 1258 022a 33D1     		bne	.L92
 445:..\..\..\arduinoLCD\test\Pain Drain\libraries\lvgl\src\core/lv_obj_style.c ****             else if(lv_style_get_prop(style, LV_STYLE_SHADOW_SPREAD, &v)) res = _LV_STYLE_STATE_CMP
 1259              		.loc 1 445 0
 1260 022c 01AA     		add	r2, sp, #4
 1261 022e 4221     		movs	r1, #66
 1262 0230 2800     		movs	r0, r5
 1263 0232 FFF7FEFF 		bl	lv_style_get_prop
 1264              	.LVL139:
 1265 0236 0028     		cmp	r0, #0
 1266 0238 2FD1     		bne	.L93
 446:..\..\..\arduinoLCD\test\Pain Drain\libraries\lvgl\src\core/lv_obj_style.c ****             else if(lv_style_get_prop(style, LV_STYLE_LINE_WIDTH, &v)) res = _LV_STYLE_STATE_CMP_DI
 1267              		.loc 1 446 0
 1268 023a 01AA     		add	r2, sp, #4
 1269 023c 4321     		movs	r1, #67
 1270 023e 2800     		movs	r0, r5
 1271 0240 FFF7FEFF 		bl	lv_style_get_prop
 1272              	.LVL140:
 1273 0244 0028     		cmp	r0, #0
 1274 0246 2BD1     		bne	.L94
ARM GAS  C:\Users\haske\AppData\Local\Temp\ccLxalmh.s 			page 45


 447:..\..\..\arduinoLCD\test\Pain Drain\libraries\lvgl\src\core/lv_obj_style.c ****             else if(res == _LV_STYLE_STATE_CMP_SAME) res = _LV_STYLE_STATE_CMP_DIFF_REDRAW;
 1275              		.loc 1 447 0
 1276 0248 01AA     		add	r2, sp, #4
 1277 024a 4921     		movs	r1, #73
 1278 024c 2800     		movs	r0, r5
 1279 024e FFF7FEFF 		bl	lv_style_get_prop
 1280              	.LVL141:
 1281 0252 0028     		cmp	r0, #0
 1282 0254 27D1     		bne	.L95
 448:..\..\..\arduinoLCD\test\Pain Drain\libraries\lvgl\src\core/lv_obj_style.c ****         }
 1283              		.loc 1 448 0
 1284 0256 4B46     		mov	r3, r9
 1285 0258 002B     		cmp	r3, #0
 1286 025a 27D0     		beq	.L96
 1287 025c 28E0     		b	.L59
 1288              	.L83:
 435:..\..\..\arduinoLCD\test\Pain Drain\libraries\lvgl\src\core/lv_obj_style.c ****             else if(lv_style_get_prop(style, LV_STYLE_TRANSFORM_HEIGHT, &v)) res = _LV_STYLE_STATE_
 1289              		.loc 1 435 0
 1290 025e 0223     		movs	r3, #2
 1291 0260 9946     		mov	r9, r3
 1292              	.LVL142:
 1293 0262 25E0     		b	.L59
 1294              	.LVL143:
 1295              	.L84:
 436:..\..\..\arduinoLCD\test\Pain Drain\libraries\lvgl\src\core/lv_obj_style.c ****             else if(lv_style_get_prop(style, LV_STYLE_TRANSFORM_ANGLE, &v)) res = _LV_STYLE_STATE_C
 1296              		.loc 1 436 0
 1297 0264 0223     		movs	r3, #2
 1298 0266 9946     		mov	r9, r3
 1299              	.LVL144:
 1300 0268 22E0     		b	.L59
 1301              	.LVL145:
 1302              	.L85:
 437:..\..\..\arduinoLCD\test\Pain Drain\libraries\lvgl\src\core/lv_obj_style.c ****             else if(lv_style_get_prop(style, LV_STYLE_TRANSFORM_ZOOM, &v)) res = _LV_STYLE_STATE_CM
 1303              		.loc 1 437 0
 1304 026a 0223     		movs	r3, #2
 1305 026c 9946     		mov	r9, r3
 1306              	.LVL146:
 1307 026e 1FE0     		b	.L59
 1308              	.LVL147:
 1309              	.L86:
 438:..\..\..\arduinoLCD\test\Pain Drain\libraries\lvgl\src\core/lv_obj_style.c ****             else if(lv_style_get_prop(style, LV_STYLE_OUTLINE_OPA, &v)) res = _LV_STYLE_STATE_CMP_D
 1310              		.loc 1 438 0
 1311 0270 0223     		movs	r3, #2
 1312 0272 9946     		mov	r9, r3
 1313              	.LVL148:
 1314 0274 1CE0     		b	.L59
 1315              	.LVL149:
 1316              	.L87:
 439:..\..\..\arduinoLCD\test\Pain Drain\libraries\lvgl\src\core/lv_obj_style.c ****             else if(lv_style_get_prop(style, LV_STYLE_OUTLINE_PAD, &v)) res = _LV_STYLE_STATE_CMP_D
 1317              		.loc 1 439 0
 1318 0276 0223     		movs	r3, #2
 1319 0278 9946     		mov	r9, r3
 1320              	.LVL150:
 1321 027a 19E0     		b	.L59
 1322              	.LVL151:
 1323              	.L88:
 440:..\..\..\arduinoLCD\test\Pain Drain\libraries\lvgl\src\core/lv_obj_style.c ****             else if(lv_style_get_prop(style, LV_STYLE_OUTLINE_WIDTH, &v)) res = _LV_STYLE_STATE_CMP
ARM GAS  C:\Users\haske\AppData\Local\Temp\ccLxalmh.s 			page 46


 1324              		.loc 1 440 0
 1325 027c 0223     		movs	r3, #2
 1326 027e 9946     		mov	r9, r3
 1327              	.LVL152:
 1328 0280 16E0     		b	.L59
 1329              	.LVL153:
 1330              	.L89:
 441:..\..\..\arduinoLCD\test\Pain Drain\libraries\lvgl\src\core/lv_obj_style.c ****             else if(lv_style_get_prop(style, LV_STYLE_SHADOW_WIDTH, &v)) res = _LV_STYLE_STATE_CMP_
 1331              		.loc 1 441 0
 1332 0282 0223     		movs	r3, #2
 1333 0284 9946     		mov	r9, r3
 1334              	.LVL154:
 1335 0286 13E0     		b	.L59
 1336              	.LVL155:
 1337              	.L90:
 442:..\..\..\arduinoLCD\test\Pain Drain\libraries\lvgl\src\core/lv_obj_style.c ****             else if(lv_style_get_prop(style, LV_STYLE_SHADOW_OPA, &v)) res = _LV_STYLE_STATE_CMP_DI
 1338              		.loc 1 442 0
 1339 0288 0223     		movs	r3, #2
 1340 028a 9946     		mov	r9, r3
 1341              	.LVL156:
 1342 028c 10E0     		b	.L59
 1343              	.LVL157:
 1344              	.L91:
 443:..\..\..\arduinoLCD\test\Pain Drain\libraries\lvgl\src\core/lv_obj_style.c ****             else if(lv_style_get_prop(style, LV_STYLE_SHADOW_OFS_X, &v)) res = _LV_STYLE_STATE_CMP_
 1345              		.loc 1 443 0
 1346 028e 0223     		movs	r3, #2
 1347 0290 9946     		mov	r9, r3
 1348              	.LVL158:
 1349 0292 0DE0     		b	.L59
 1350              	.LVL159:
 1351              	.L92:
 444:..\..\..\arduinoLCD\test\Pain Drain\libraries\lvgl\src\core/lv_obj_style.c ****             else if(lv_style_get_prop(style, LV_STYLE_SHADOW_OFS_Y, &v)) res = _LV_STYLE_STATE_CMP_
 1352              		.loc 1 444 0
 1353 0294 0223     		movs	r3, #2
 1354 0296 9946     		mov	r9, r3
 1355              	.LVL160:
 1356 0298 0AE0     		b	.L59
 1357              	.LVL161:
 1358              	.L93:
 445:..\..\..\arduinoLCD\test\Pain Drain\libraries\lvgl\src\core/lv_obj_style.c ****             else if(lv_style_get_prop(style, LV_STYLE_SHADOW_SPREAD, &v)) res = _LV_STYLE_STATE_CMP
 1359              		.loc 1 445 0
 1360 029a 0223     		movs	r3, #2
 1361 029c 9946     		mov	r9, r3
 1362              	.LVL162:
 1363 029e 07E0     		b	.L59
 1364              	.LVL163:
 1365              	.L94:
 446:..\..\..\arduinoLCD\test\Pain Drain\libraries\lvgl\src\core/lv_obj_style.c ****             else if(lv_style_get_prop(style, LV_STYLE_LINE_WIDTH, &v)) res = _LV_STYLE_STATE_CMP_DI
 1366              		.loc 1 446 0
 1367 02a0 0223     		movs	r3, #2
 1368 02a2 9946     		mov	r9, r3
 1369              	.LVL164:
 1370 02a4 04E0     		b	.L59
 1371              	.LVL165:
 1372              	.L95:
 447:..\..\..\arduinoLCD\test\Pain Drain\libraries\lvgl\src\core/lv_obj_style.c ****             else if(res == _LV_STYLE_STATE_CMP_SAME) res = _LV_STYLE_STATE_CMP_DIFF_REDRAW;
 1373              		.loc 1 447 0
ARM GAS  C:\Users\haske\AppData\Local\Temp\ccLxalmh.s 			page 47


 1374 02a6 0223     		movs	r3, #2
 1375 02a8 9946     		mov	r9, r3
 1376              	.LVL166:
 1377 02aa 01E0     		b	.L59
 1378              	.LVL167:
 1379              	.L96:
 448:..\..\..\arduinoLCD\test\Pain Drain\libraries\lvgl\src\core/lv_obj_style.c ****         }
 1380              		.loc 1 448 0
 1381 02ac 0123     		movs	r3, #1
 1382 02ae 9946     		mov	r9, r3
 1383              	.LVL168:
 1384              	.L59:
 1385              	.LBE100:
 1386              	.LBE99:
 399:..\..\..\arduinoLCD\test\Pain Drain\libraries\lvgl\src\core/lv_obj_style.c ****         if(obj->styles[i].is_trans) continue;
 1387              		.loc 1 399 0 discriminator 2
 1388 02b0 0134     		adds	r4, r4, #1
 1389              	.LVL169:
 1390              	.L58:
 399:..\..\..\arduinoLCD\test\Pain Drain\libraries\lvgl\src\core/lv_obj_style.c ****         if(obj->styles[i].is_trans) continue;
 1391              		.loc 1 399 0 is_stmt 0 discriminator 1
 1392 02b2 738C     		ldrh	r3, [r6, #34]
 1393 02b4 DB05     		lsls	r3, r3, #23
 1394 02b6 9B0E     		lsrs	r3, r3, #26
 1395 02b8 9C42     		cmp	r4, r3
 1396 02ba 00D2     		bcs	.LCB1463
 1397 02bc ACE6     		b	.L64	@long jump
 1398              	.LCB1463:
 452:..\..\..\arduinoLCD\test\Pain Drain\libraries\lvgl\src\core/lv_obj_style.c **** }
 1399              		.loc 1 452 0 is_stmt 1
 1400 02be 4846     		mov	r0, r9
 1401              	.L62:
 453:..\..\..\arduinoLCD\test\Pain Drain\libraries\lvgl\src\core/lv_obj_style.c **** 
 1402              		.loc 1 453 0
 1403 02c0 03B0     		add	sp, sp, #12
 1404              		@ sp needed
 1405              	.LVL170:
 1406              	.LVL171:
 1407              	.LVL172:
 1408 02c2 0CBC     		pop	{r2, r3}
 1409 02c4 9046     		mov	r8, r2
 1410 02c6 9946     		mov	r9, r3
 1411 02c8 F0BD     		pop	{r4, r5, r6, r7, pc}
 1412              		.cfi_endproc
 1413              	.LFE178:
 1414              		.size	_lv_obj_style_state_compare, .-_lv_obj_style_state_compare
 1415 02ca C046     		.section	.text.lv_obj_style_get_selector_part,"ax",%progbits
 1416              		.align	2
 1417              		.global	lv_obj_style_get_selector_part
 1418              		.code	16
 1419              		.thumb_func
 1420              		.type	lv_obj_style_get_selector_part, %function
 1421              	lv_obj_style_get_selector_part:
 1422              	.LFB182:
 486:..\..\..\arduinoLCD\test\Pain Drain\libraries\lvgl\src\core/lv_obj_style.c ****     return selector & 0xFF0000;
 1423              		.loc 1 486 0
 1424              		.cfi_startproc
ARM GAS  C:\Users\haske\AppData\Local\Temp\ccLxalmh.s 			page 48


 1425              		@ args = 0, pretend = 0, frame = 0
 1426              		@ frame_needed = 0, uses_anonymous_args = 0
 1427              		@ link register save eliminated.
 1428              	.LVL173:
 487:..\..\..\arduinoLCD\test\Pain Drain\libraries\lvgl\src\core/lv_obj_style.c **** }
 1429              		.loc 1 487 0
 1430 0000 FF23     		movs	r3, #255
 1431 0002 1B04     		lsls	r3, r3, #16
 1432 0004 1840     		ands	r0, r3
 1433              	.LVL174:
 488:..\..\..\arduinoLCD\test\Pain Drain\libraries\lvgl\src\core/lv_obj_style.c **** 
 1434              		.loc 1 488 0
 1435              		@ sp needed
 1436 0006 7047     		bx	lr
 1437              		.cfi_endproc
 1438              	.LFE182:
 1439              		.size	lv_obj_style_get_selector_part, .-lv_obj_style_get_selector_part
 1440              		.section	.text.get_prop_core,"ax",%progbits
 1441              		.align	2
 1442              		.code	16
 1443              		.thumb_func
 1444              		.type	get_prop_core, %function
 1445              	get_prop_core:
 1446              	.LFB186:
 573:..\..\..\arduinoLCD\test\Pain Drain\libraries\lvgl\src\core/lv_obj_style.c ****     uint8_t group = 1 << _lv_style_get_prop_group(prop);
 1447              		.loc 1 573 0
 1448              		.cfi_startproc
 1449              		@ args = 0, pretend = 0, frame = 32
 1450              		@ frame_needed = 0, uses_anonymous_args = 0
 1451              	.LVL175:
 1452 0000 F0B5     		push	{r4, r5, r6, r7, lr}
 1453              		.cfi_def_cfa_offset 20
 1454              		.cfi_offset 4, -20
 1455              		.cfi_offset 5, -16
 1456              		.cfi_offset 6, -12
 1457              		.cfi_offset 7, -8
 1458              		.cfi_offset 14, -4
 1459 0002 5F46     		mov	r7, fp
 1460 0004 5646     		mov	r6, r10
 1461 0006 4D46     		mov	r5, r9
 1462 0008 4446     		mov	r4, r8
 1463 000a F0B4     		push	{r4, r5, r6, r7}
 1464              		.cfi_def_cfa_offset 36
 1465              		.cfi_offset 8, -36
 1466              		.cfi_offset 9, -32
 1467              		.cfi_offset 10, -28
 1468              		.cfi_offset 11, -24
 1469 000c 89B0     		sub	sp, sp, #36
 1470              		.cfi_def_cfa_offset 72
 1471 000e 0500     		movs	r5, r0
 1472 0010 8B46     		mov	fp, r1
 1473 0012 0292     		str	r2, [sp, #8]
 1474 0014 0493     		str	r3, [sp, #16]
 574:..\..\..\arduinoLCD\test\Pain Drain\libraries\lvgl\src\core/lv_obj_style.c ****     int32_t weight = -1;
 1475              		.loc 1 574 0
 1476 0016 1000     		movs	r0, r2
 1477              	.LVL176:
ARM GAS  C:\Users\haske\AppData\Local\Temp\ccLxalmh.s 			page 49


 1478 0018 FFF7FEFF 		bl	_lv_style_get_prop_group
 1479              	.LVL177:
 1480 001c 0123     		movs	r3, #1
 1481 001e 8340     		lsls	r3, r3, r0
 1482 0020 DBB2     		uxtb	r3, r3
 1483 0022 9946     		mov	r9, r3
 1484              	.LVL178:
 576:..\..\..\arduinoLCD\test\Pain Drain\libraries\lvgl\src\core/lv_obj_style.c ****     lv_state_t state_inv = ~state;
 1485              		.loc 1 576 0
 1486 0024 2B8C     		ldrh	r3, [r5, #32]
 1487 0026 0593     		str	r3, [sp, #20]
 1488              	.LVL179:
 577:..\..\..\arduinoLCD\test\Pain Drain\libraries\lvgl\src\core/lv_obj_style.c ****     lv_style_value_t value_tmp;
 1489              		.loc 1 577 0
 1490 0028 DB43     		mvns	r3, r3
 1491              	.LVL180:
 1492 002a 9BB2     		uxth	r3, r3
 1493 002c 9A46     		mov	r10, r3
 1494              	.LVL181:
 579:..\..\..\arduinoLCD\test\Pain Drain\libraries\lvgl\src\core/lv_obj_style.c ****     uint32_t i;
 1495              		.loc 1 579 0
 1496 002e 2223     		movs	r3, #34
 1497 0030 EF5C     		ldrb	r7, [r5, r3]
 1498 0032 7F07     		lsls	r7, r7, #29
 1499 0034 FF0F     		lsrs	r7, r7, #31
 1500              	.LVL182:
 582:..\..\..\arduinoLCD\test\Pain Drain\libraries\lvgl\src\core/lv_obj_style.c ****         _lv_obj_style_t * obj_style = &obj->styles[i];
 1501              		.loc 1 582 0
 1502 0036 0024     		movs	r4, #0
 1503 0038 D846     		mov	r8, fp
 1504 003a 20E0     		b	.L99
 1505              	.LVL183:
 1506              	.L104:
 1507              	.LBB101:
 583:..\..\..\arduinoLCD\test\Pain Drain\libraries\lvgl\src\core/lv_obj_style.c ****         if(obj_style->is_trans == false) break;
 1508              		.loc 1 583 0
 1509 003c E300     		lsls	r3, r4, #3
 1510 003e EA68     		ldr	r2, [r5, #12]
 1511 0040 D618     		adds	r6, r2, r3
 1512              	.LVL184:
 584:..\..\..\arduinoLCD\test\Pain Drain\libraries\lvgl\src\core/lv_obj_style.c ****         if(skip_trans) continue;
 1513              		.loc 1 584 0
 1514 0042 F379     		ldrb	r3, [r6, #7]
 1515 0044 9B07     		lsls	r3, r3, #30
 1516 0046 5ED5     		bpl	.L109
 585:..\..\..\arduinoLCD\test\Pain Drain\libraries\lvgl\src\core/lv_obj_style.c **** 
 1517              		.loc 1 585 0
 1518 0048 002F     		cmp	r7, #0
 1519 004a 17D1     		bne	.L101
 587:..\..\..\arduinoLCD\test\Pain Drain\libraries\lvgl\src\core/lv_obj_style.c **** 
 1520              		.loc 1 587 0
 1521 004c 7368     		ldr	r3, [r6, #4]
 1522 004e 1802     		lsls	r0, r3, #8
 1523 0050 000A     		lsrs	r0, r0, #8
 1524 0052 FFF7FEFF 		bl	lv_obj_style_get_selector_part
 1525              	.LVL185:
 589:..\..\..\arduinoLCD\test\Pain Drain\libraries\lvgl\src\core/lv_obj_style.c ****         if((obj_style->style->has_group & group) == 0) continue;
ARM GAS  C:\Users\haske\AppData\Local\Temp\ccLxalmh.s 			page 50


 1526              		.loc 1 589 0
 1527 0056 4045     		cmp	r0, r8
 1528 0058 10D1     		bne	.L101
 590:..\..\..\arduinoLCD\test\Pain Drain\libraries\lvgl\src\core/lv_obj_style.c ****         found = lv_style_get_prop(obj_style->style, prop, &value_tmp);
 1529              		.loc 1 590 0
 1530 005a 3068     		ldr	r0, [r6]
 1531              	.LVL186:
 1532 005c 8379     		ldrb	r3, [r0, #6]
 1533 005e 4A46     		mov	r2, r9
 1534 0060 1342     		tst	r3, r2
 1535 0062 0BD0     		beq	.L101
 591:..\..\..\arduinoLCD\test\Pain Drain\libraries\lvgl\src\core/lv_obj_style.c ****         if(found == LV_STYLE_RES_FOUND) {
 1536              		.loc 1 591 0
 1537 0064 07AA     		add	r2, sp, #28
 1538 0066 0299     		ldr	r1, [sp, #8]
 1539 0068 FFF7FEFF 		bl	lv_style_get_prop
 1540              	.LVL187:
 592:..\..\..\arduinoLCD\test\Pain Drain\libraries\lvgl\src\core/lv_obj_style.c ****             *v = value_tmp;
 1541              		.loc 1 592 0
 1542 006c 0128     		cmp	r0, #1
 1543 006e 03D1     		bne	.L102
 593:..\..\..\arduinoLCD\test\Pain Drain\libraries\lvgl\src\core/lv_obj_style.c ****             return LV_STYLE_RES_FOUND;
 1544              		.loc 1 593 0
 1545 0070 049B     		ldr	r3, [sp, #16]
 1546 0072 079A     		ldr	r2, [sp, #28]
 1547 0074 1A60     		str	r2, [r3]
 594:..\..\..\arduinoLCD\test\Pain Drain\libraries\lvgl\src\core/lv_obj_style.c ****         }
 1548              		.loc 1 594 0
 1549 0076 5CE0     		b	.L103
 1550              	.L102:
 596:..\..\..\arduinoLCD\test\Pain Drain\libraries\lvgl\src\core/lv_obj_style.c ****             return LV_STYLE_RES_INHERIT;
 1551              		.loc 1 596 0
 1552 0078 0228     		cmp	r0, #2
 1553 007a 55D0     		beq	.L110
 1554              	.LVL188:
 1555              	.L101:
 1556              	.LBE101:
 582:..\..\..\arduinoLCD\test\Pain Drain\libraries\lvgl\src\core/lv_obj_style.c ****         _lv_obj_style_t * obj_style = &obj->styles[i];
 1557              		.loc 1 582 0 discriminator 2
 1558 007c 0134     		adds	r4, r4, #1
 1559              	.LVL189:
 1560              	.L99:
 582:..\..\..\arduinoLCD\test\Pain Drain\libraries\lvgl\src\core/lv_obj_style.c ****         _lv_obj_style_t * obj_style = &obj->styles[i];
 1561              		.loc 1 582 0 is_stmt 0 discriminator 1
 1562 007e 6B8C     		ldrh	r3, [r5, #34]
 1563 0080 DB05     		lsls	r3, r3, #23
 1564 0082 9B0E     		lsrs	r3, r3, #26
 1565 0084 9C42     		cmp	r4, r3
 1566 0086 D9D3     		bcc	.L104
 1567 0088 C346     		mov	fp, r8
 1568              	.LVL190:
 1569 008a 0123     		movs	r3, #1
 1570 008c 5B42     		rsbs	r3, r3, #0
 1571 008e 0193     		str	r3, [sp, #4]
 1572 0090 3DE0     		b	.L100
 1573              	.LVL191:
 1574              	.L108:
ARM GAS  C:\Users\haske\AppData\Local\Temp\ccLxalmh.s 			page 51


 1575              	.LBB102:
 602:..\..\..\arduinoLCD\test\Pain Drain\libraries\lvgl\src\core/lv_obj_style.c ****         _lv_obj_style_t * obj_style = &obj->styles[i];
 1576              		.loc 1 602 0 is_stmt 1
 1577 0092 E300     		lsls	r3, r4, #3
 1578 0094 EA68     		ldr	r2, [r5, #12]
 1579 0096 9446     		mov	ip, r2
 1580 0098 6344     		add	r3, r3, ip
 1581 009a 1F68     		ldr	r7, [r3]
 1582 009c BA79     		ldrb	r2, [r7, #6]
 1583 009e 4946     		mov	r1, r9
 1584 00a0 0A42     		tst	r2, r1
 1585 00a2 2ED0     		beq	.L105
 1586              	.LVL192:
 604:..\..\..\arduinoLCD\test\Pain Drain\libraries\lvgl\src\core/lv_obj_style.c ****         lv_state_t state_act = lv_obj_style_get_selector_state(obj->styles[i].selector);
 1587              		.loc 1 604 0
 1588 00a4 5E68     		ldr	r6, [r3, #4]
 1589 00a6 3602     		lsls	r6, r6, #8
 1590 00a8 360A     		lsrs	r6, r6, #8
 1591 00aa 3000     		movs	r0, r6
 1592 00ac FFF7FEFF 		bl	lv_obj_style_get_selector_part
 1593              	.LVL193:
 1594 00b0 8046     		mov	r8, r0
 1595              	.LVL194:
 605:..\..\..\arduinoLCD\test\Pain Drain\libraries\lvgl\src\core/lv_obj_style.c ****         if(part_act != part) continue;
 1596              		.loc 1 605 0
 1597 00b2 3000     		movs	r0, r6
 1598              	.LVL195:
 1599 00b4 FFF7FEFF 		bl	lv_obj_style_get_selector_state
 1600              	.LVL196:
 1601 00b8 0600     		movs	r6, r0
 1602 00ba 0090     		str	r0, [sp]
 1603              	.LVL197:
 606:..\..\..\arduinoLCD\test\Pain Drain\libraries\lvgl\src\core/lv_obj_style.c **** 
 1604              		.loc 1 606 0
 1605 00bc C345     		cmp	fp, r8
 1606 00be 20D1     		bne	.L105
 610:..\..\..\arduinoLCD\test\Pain Drain\libraries\lvgl\src\core/lv_obj_style.c **** 
 1607              		.loc 1 610 0
 1608 00c0 5346     		mov	r3, r10
 1609 00c2 1842     		tst	r0, r3
 1610 00c4 1DD1     		bne	.L105
 613:..\..\..\arduinoLCD\test\Pain Drain\libraries\lvgl\src\core/lv_obj_style.c **** 
 1611              		.loc 1 613 0
 1612 00c6 0390     		str	r0, [sp, #12]
 1613 00c8 019B     		ldr	r3, [sp, #4]
 1614 00ca 8342     		cmp	r3, r0
 1615 00cc 19DA     		bge	.L105
 615:..\..\..\arduinoLCD\test\Pain Drain\libraries\lvgl\src\core/lv_obj_style.c **** 
 1616              		.loc 1 615 0
 1617 00ce 07AA     		add	r2, sp, #28
 1618 00d0 0299     		ldr	r1, [sp, #8]
 1619 00d2 3800     		movs	r0, r7
 1620              	.LVL198:
 1621 00d4 FFF7FEFF 		bl	lv_style_get_prop
 1622              	.LVL199:
 617:..\..\..\arduinoLCD\test\Pain Drain\libraries\lvgl\src\core/lv_obj_style.c ****             if(state_act == state) {
 1623              		.loc 1 617 0
ARM GAS  C:\Users\haske\AppData\Local\Temp\ccLxalmh.s 			page 52


 1624 00d8 0128     		cmp	r0, #1
 1625 00da 10D1     		bne	.L106
 618:..\..\..\arduinoLCD\test\Pain Drain\libraries\lvgl\src\core/lv_obj_style.c ****                 *v = value_tmp;
 1626              		.loc 1 618 0
 1627 00dc 059B     		ldr	r3, [sp, #20]
 1628 00de 009A     		ldr	r2, [sp]
 1629 00e0 9342     		cmp	r3, r2
 1630 00e2 03D1     		bne	.L107
 619:..\..\..\arduinoLCD\test\Pain Drain\libraries\lvgl\src\core/lv_obj_style.c ****                 return LV_STYLE_RES_FOUND;
 1631              		.loc 1 619 0
 1632 00e4 049B     		ldr	r3, [sp, #16]
 1633 00e6 079A     		ldr	r2, [sp, #28]
 1634 00e8 1A60     		str	r2, [r3]
 620:..\..\..\arduinoLCD\test\Pain Drain\libraries\lvgl\src\core/lv_obj_style.c ****             }
 1635              		.loc 1 620 0
 1636 00ea 22E0     		b	.L103
 1637              	.L107:
 622:..\..\..\arduinoLCD\test\Pain Drain\libraries\lvgl\src\core/lv_obj_style.c ****                 weight = state_act;
 1638              		.loc 1 622 0
 1639 00ec 019B     		ldr	r3, [sp, #4]
 1640 00ee 039A     		ldr	r2, [sp, #12]
 1641 00f0 9342     		cmp	r3, r2
 1642 00f2 06DA     		bge	.L105
 1643              	.LVL200:
 624:..\..\..\arduinoLCD\test\Pain Drain\libraries\lvgl\src\core/lv_obj_style.c ****             }
 1644              		.loc 1 624 0
 1645 00f4 049B     		ldr	r3, [sp, #16]
 1646 00f6 079A     		ldr	r2, [sp, #28]
 1647 00f8 1A60     		str	r2, [r3]
 623:..\..\..\arduinoLCD\test\Pain Drain\libraries\lvgl\src\core/lv_obj_style.c ****                 *v = value_tmp;
 1648              		.loc 1 623 0
 1649 00fa 0196     		str	r6, [sp, #4]
 1650 00fc 01E0     		b	.L105
 1651              	.LVL201:
 1652              	.L106:
 627:..\..\..\arduinoLCD\test\Pain Drain\libraries\lvgl\src\core/lv_obj_style.c ****             return LV_STYLE_RES_INHERIT;
 1653              		.loc 1 627 0
 1654 00fe 0228     		cmp	r0, #2
 1655 0100 14D0     		beq	.L111
 1656              	.LVL202:
 1657              	.L105:
 1658              	.LBE102:
 601:..\..\..\arduinoLCD\test\Pain Drain\libraries\lvgl\src\core/lv_obj_style.c ****         if((obj->styles[i].style->has_group & group) == 0) continue;
 1659              		.loc 1 601 0
 1660 0102 0134     		adds	r4, r4, #1
 1661              	.LVL203:
 1662 0104 03E0     		b	.L100
 1663              	.LVL204:
 1664              	.L109:
 1665 0106 C346     		mov	fp, r8
 1666 0108 0123     		movs	r3, #1
 1667 010a 5B42     		rsbs	r3, r3, #0
 1668 010c 0193     		str	r3, [sp, #4]
 1669              	.LVL205:
 1670              	.L100:
 601:..\..\..\arduinoLCD\test\Pain Drain\libraries\lvgl\src\core/lv_obj_style.c ****         if((obj->styles[i].style->has_group & group) == 0) continue;
 1671              		.loc 1 601 0 is_stmt 0 discriminator 1
ARM GAS  C:\Users\haske\AppData\Local\Temp\ccLxalmh.s 			page 53


 1672 010e 6B8C     		ldrh	r3, [r5, #34]
 1673 0110 DB05     		lsls	r3, r3, #23
 1674 0112 9B0E     		lsrs	r3, r3, #26
 1675 0114 9C42     		cmp	r4, r3
 1676 0116 BCD3     		bcc	.L108
 632:..\..\..\arduinoLCD\test\Pain Drain\libraries\lvgl\src\core/lv_obj_style.c ****         *v = value_tmp;
 1677              		.loc 1 632 0 is_stmt 1
 1678 0118 019B     		ldr	r3, [sp, #4]
 1679 011a 002B     		cmp	r3, #0
 1680 011c 08DB     		blt	.L112
 633:..\..\..\arduinoLCD\test\Pain Drain\libraries\lvgl\src\core/lv_obj_style.c ****         return LV_STYLE_RES_FOUND;
 1681              		.loc 1 633 0
 1682 011e 049B     		ldr	r3, [sp, #16]
 1683 0120 079A     		ldr	r2, [sp, #28]
 1684 0122 1A60     		str	r2, [r3]
 634:..\..\..\arduinoLCD\test\Pain Drain\libraries\lvgl\src\core/lv_obj_style.c ****     }
 1685              		.loc 1 634 0
 1686 0124 0120     		movs	r0, #1
 1687 0126 04E0     		b	.L103
 1688              	.LVL206:
 1689              	.L110:
 1690              	.LBB103:
 597:..\..\..\arduinoLCD\test\Pain Drain\libraries\lvgl\src\core/lv_obj_style.c ****         }
 1691              		.loc 1 597 0
 1692 0128 0220     		movs	r0, #2
 1693              	.LVL207:
 1694 012a 02E0     		b	.L103
 1695              	.LVL208:
 1696              	.L111:
 1697              	.LBE103:
 1698              	.LBB104:
 628:..\..\..\arduinoLCD\test\Pain Drain\libraries\lvgl\src\core/lv_obj_style.c ****         }
 1699              		.loc 1 628 0
 1700 012c 0220     		movs	r0, #2
 1701              	.LVL209:
 1702 012e 00E0     		b	.L103
 1703              	.LVL210:
 1704              	.L112:
 1705              	.LBE104:
 636:..\..\..\arduinoLCD\test\Pain Drain\libraries\lvgl\src\core/lv_obj_style.c **** }
 1706              		.loc 1 636 0
 1707 0130 0020     		movs	r0, #0
 1708              	.LVL211:
 1709              	.L103:
 637:..\..\..\arduinoLCD\test\Pain Drain\libraries\lvgl\src\core/lv_obj_style.c **** 
 1710              		.loc 1 637 0
 1711 0132 09B0     		add	sp, sp, #36
 1712              		@ sp needed
 1713              	.LVL212:
 1714              	.LVL213:
 1715              	.LVL214:
 1716              	.LVL215:
 1717              	.LVL216:
 1718 0134 3CBC     		pop	{r2, r3, r4, r5}
 1719 0136 9046     		mov	r8, r2
 1720 0138 9946     		mov	r9, r3
 1721 013a A246     		mov	r10, r4
ARM GAS  C:\Users\haske\AppData\Local\Temp\ccLxalmh.s 			page 54


 1722 013c AB46     		mov	fp, r5
 1723 013e F0BD     		pop	{r4, r5, r6, r7, pc}
 1724              		.cfi_endproc
 1725              	.LFE186:
 1726              		.size	get_prop_core, .-get_prop_core
 1727              		.section	.text.lv_obj_get_style_prop,"ax",%progbits
 1728              		.align	2
 1729              		.global	lv_obj_get_style_prop
 1730              		.code	16
 1731              		.thumb_func
 1732              		.type	lv_obj_get_style_prop, %function
 1733              	lv_obj_get_style_prop:
 1734              	.LFB171:
 224:..\..\..\arduinoLCD\test\Pain Drain\libraries\lvgl\src\core/lv_obj_style.c ****     lv_style_value_t value_act;
 1735              		.loc 1 224 0
 1736              		.cfi_startproc
 1737              		@ args = 0, pretend = 0, frame = 8
 1738              		@ frame_needed = 0, uses_anonymous_args = 0
 1739              	.LVL217:
 1740 0000 F0B5     		push	{r4, r5, r6, r7, lr}
 1741              		.cfi_def_cfa_offset 20
 1742              		.cfi_offset 4, -20
 1743              		.cfi_offset 5, -16
 1744              		.cfi_offset 6, -12
 1745              		.cfi_offset 7, -8
 1746              		.cfi_offset 14, -4
 1747 0002 4746     		mov	r7, r8
 1748 0004 80B4     		push	{r7}
 1749              		.cfi_def_cfa_offset 24
 1750              		.cfi_offset 8, -24
 1751 0006 82B0     		sub	sp, sp, #8
 1752              		.cfi_def_cfa_offset 32
 1753 0008 0500     		movs	r5, r0
 1754 000a 0F00     		movs	r7, r1
 1755 000c 1600     		movs	r6, r2
 1756              	.LVL218:
 1757              	.LBB105:
 1758              	.LBB106:
 1759              		.file 3 "..\\..\\..\\arduinoLCD\\test\\Pain Drain\\libraries\\lvgl\\src\\core\\../misc/lv_style.h"
   1:..\..\..\arduinoLCD\test\Pain Drain\libraries\lvgl\src\core\../misc/lv_style.h **** /**
   2:..\..\..\arduinoLCD\test\Pain Drain\libraries\lvgl\src\core\../misc/lv_style.h ****  * @file lv_style.h
   3:..\..\..\arduinoLCD\test\Pain Drain\libraries\lvgl\src\core\../misc/lv_style.h ****  *
   4:..\..\..\arduinoLCD\test\Pain Drain\libraries\lvgl\src\core\../misc/lv_style.h ****  */
   5:..\..\..\arduinoLCD\test\Pain Drain\libraries\lvgl\src\core\../misc/lv_style.h **** 
   6:..\..\..\arduinoLCD\test\Pain Drain\libraries\lvgl\src\core\../misc/lv_style.h **** #ifndef LV_STYLE_H
   7:..\..\..\arduinoLCD\test\Pain Drain\libraries\lvgl\src\core\../misc/lv_style.h **** #define LV_STYLE_H
   8:..\..\..\arduinoLCD\test\Pain Drain\libraries\lvgl\src\core\../misc/lv_style.h **** 
   9:..\..\..\arduinoLCD\test\Pain Drain\libraries\lvgl\src\core\../misc/lv_style.h **** #ifdef __cplusplus
  10:..\..\..\arduinoLCD\test\Pain Drain\libraries\lvgl\src\core\../misc/lv_style.h **** extern "C" {
  11:..\..\..\arduinoLCD\test\Pain Drain\libraries\lvgl\src\core\../misc/lv_style.h **** #endif
  12:..\..\..\arduinoLCD\test\Pain Drain\libraries\lvgl\src\core\../misc/lv_style.h **** 
  13:..\..\..\arduinoLCD\test\Pain Drain\libraries\lvgl\src\core\../misc/lv_style.h **** /*********************
  14:..\..\..\arduinoLCD\test\Pain Drain\libraries\lvgl\src\core\../misc/lv_style.h ****  *      INCLUDES
  15:..\..\..\arduinoLCD\test\Pain Drain\libraries\lvgl\src\core\../misc/lv_style.h ****  *********************/
  16:..\..\..\arduinoLCD\test\Pain Drain\libraries\lvgl\src\core\../misc/lv_style.h **** #include <stdbool.h>
  17:..\..\..\arduinoLCD\test\Pain Drain\libraries\lvgl\src\core\../misc/lv_style.h **** #include <stdint.h>
  18:..\..\..\arduinoLCD\test\Pain Drain\libraries\lvgl\src\core\../misc/lv_style.h **** #include "../font/lv_font.h"
ARM GAS  C:\Users\haske\AppData\Local\Temp\ccLxalmh.s 			page 55


  19:..\..\..\arduinoLCD\test\Pain Drain\libraries\lvgl\src\core\../misc/lv_style.h **** #include "lv_color.h"
  20:..\..\..\arduinoLCD\test\Pain Drain\libraries\lvgl\src\core\../misc/lv_style.h **** #include "lv_area.h"
  21:..\..\..\arduinoLCD\test\Pain Drain\libraries\lvgl\src\core\../misc/lv_style.h **** #include "lv_anim.h"
  22:..\..\..\arduinoLCD\test\Pain Drain\libraries\lvgl\src\core\../misc/lv_style.h **** #include "lv_txt.h"
  23:..\..\..\arduinoLCD\test\Pain Drain\libraries\lvgl\src\core\../misc/lv_style.h **** #include "lv_types.h"
  24:..\..\..\arduinoLCD\test\Pain Drain\libraries\lvgl\src\core\../misc/lv_style.h **** #include "lv_assert.h"
  25:..\..\..\arduinoLCD\test\Pain Drain\libraries\lvgl\src\core\../misc/lv_style.h **** #include "lv_bidi.h"
  26:..\..\..\arduinoLCD\test\Pain Drain\libraries\lvgl\src\core\../misc/lv_style.h **** 
  27:..\..\..\arduinoLCD\test\Pain Drain\libraries\lvgl\src\core\../misc/lv_style.h **** /*********************
  28:..\..\..\arduinoLCD\test\Pain Drain\libraries\lvgl\src\core\../misc/lv_style.h ****  *      DEFINES
  29:..\..\..\arduinoLCD\test\Pain Drain\libraries\lvgl\src\core\../misc/lv_style.h ****  *********************/
  30:..\..\..\arduinoLCD\test\Pain Drain\libraries\lvgl\src\core\../misc/lv_style.h **** 
  31:..\..\..\arduinoLCD\test\Pain Drain\libraries\lvgl\src\core\../misc/lv_style.h **** #define LV_STYLE_SENTINEL_VALUE     0xAABBCCDD
  32:..\..\..\arduinoLCD\test\Pain Drain\libraries\lvgl\src\core\../misc/lv_style.h **** 
  33:..\..\..\arduinoLCD\test\Pain Drain\libraries\lvgl\src\core\../misc/lv_style.h **** /**
  34:..\..\..\arduinoLCD\test\Pain Drain\libraries\lvgl\src\core\../misc/lv_style.h ****  * Flags for style behavior
  35:..\..\..\arduinoLCD\test\Pain Drain\libraries\lvgl\src\core\../misc/lv_style.h ****  *
  36:..\..\..\arduinoLCD\test\Pain Drain\libraries\lvgl\src\core\../misc/lv_style.h ****  * The rest of the flags will have _FLAG added to their name in v9.
  37:..\..\..\arduinoLCD\test\Pain Drain\libraries\lvgl\src\core\../misc/lv_style.h ****  */
  38:..\..\..\arduinoLCD\test\Pain Drain\libraries\lvgl\src\core\../misc/lv_style.h **** #define LV_STYLE_PROP_FLAG_NONE             (0)
  39:..\..\..\arduinoLCD\test\Pain Drain\libraries\lvgl\src\core\../misc/lv_style.h **** #define LV_STYLE_PROP_INHERIT               (1 << 0)  /*Inherited*/
  40:..\..\..\arduinoLCD\test\Pain Drain\libraries\lvgl\src\core\../misc/lv_style.h **** #define LV_STYLE_PROP_EXT_DRAW              (1 << 1)  /*Requires ext. draw size update when changed
  41:..\..\..\arduinoLCD\test\Pain Drain\libraries\lvgl\src\core\../misc/lv_style.h **** #define LV_STYLE_PROP_LAYOUT_REFR           (1 << 2)  /*Requires layout update when changed*/
  42:..\..\..\arduinoLCD\test\Pain Drain\libraries\lvgl\src\core\../misc/lv_style.h **** #define LV_STYLE_PROP_PARENT_LAYOUT_REFR    (1 << 3)  /*Requires layout update on parent when chang
  43:..\..\..\arduinoLCD\test\Pain Drain\libraries\lvgl\src\core\../misc/lv_style.h **** #define LV_STYLE_PROP_LAYER_REFR            (1 << 4)  /*Affects layer handling*/
  44:..\..\..\arduinoLCD\test\Pain Drain\libraries\lvgl\src\core\../misc/lv_style.h **** #define LV_STYLE_PROP_ALL                   (0x1F)     /*Indicating all flags*/
  45:..\..\..\arduinoLCD\test\Pain Drain\libraries\lvgl\src\core\../misc/lv_style.h **** 
  46:..\..\..\arduinoLCD\test\Pain Drain\libraries\lvgl\src\core\../misc/lv_style.h **** /**
  47:..\..\..\arduinoLCD\test\Pain Drain\libraries\lvgl\src\core\../misc/lv_style.h ****  * Other constants
  48:..\..\..\arduinoLCD\test\Pain Drain\libraries\lvgl\src\core\../misc/lv_style.h ****  */
  49:..\..\..\arduinoLCD\test\Pain Drain\libraries\lvgl\src\core\../misc/lv_style.h **** #define LV_IMG_ZOOM_NONE            256        /*Value for not zooming the image*/
  50:..\..\..\arduinoLCD\test\Pain Drain\libraries\lvgl\src\core\../misc/lv_style.h **** LV_EXPORT_CONST_INT(LV_IMG_ZOOM_NONE);
  51:..\..\..\arduinoLCD\test\Pain Drain\libraries\lvgl\src\core\../misc/lv_style.h **** 
  52:..\..\..\arduinoLCD\test\Pain Drain\libraries\lvgl\src\core\../misc/lv_style.h **** // *INDENT-OFF*
  53:..\..\..\arduinoLCD\test\Pain Drain\libraries\lvgl\src\core\../misc/lv_style.h **** #if LV_USE_ASSERT_STYLE
  54:..\..\..\arduinoLCD\test\Pain Drain\libraries\lvgl\src\core\../misc/lv_style.h **** #define LV_STYLE_CONST_INIT(var_name, prop_array)                       \
  55:..\..\..\arduinoLCD\test\Pain Drain\libraries\lvgl\src\core\../misc/lv_style.h ****     const lv_style_t var_name = {                                       \
  56:..\..\..\arduinoLCD\test\Pain Drain\libraries\lvgl\src\core\../misc/lv_style.h ****         .sentinel = LV_STYLE_SENTINEL_VALUE,                            \
  57:..\..\..\arduinoLCD\test\Pain Drain\libraries\lvgl\src\core\../misc/lv_style.h ****         .v_p = { .const_props = prop_array },                           \
  58:..\..\..\arduinoLCD\test\Pain Drain\libraries\lvgl\src\core\../misc/lv_style.h ****         .has_group = 0xFF,                                              \
  59:..\..\..\arduinoLCD\test\Pain Drain\libraries\lvgl\src\core\../misc/lv_style.h ****         .prop1 = LV_STYLE_PROP_ANY,                                     \
  60:..\..\..\arduinoLCD\test\Pain Drain\libraries\lvgl\src\core\../misc/lv_style.h ****         .prop_cnt = (sizeof(prop_array) / sizeof((prop_array)[0])),     \
  61:..\..\..\arduinoLCD\test\Pain Drain\libraries\lvgl\src\core\../misc/lv_style.h ****     }
  62:..\..\..\arduinoLCD\test\Pain Drain\libraries\lvgl\src\core\../misc/lv_style.h **** #else
  63:..\..\..\arduinoLCD\test\Pain Drain\libraries\lvgl\src\core\../misc/lv_style.h **** #define LV_STYLE_CONST_INIT(var_name, prop_array)                       \
  64:..\..\..\arduinoLCD\test\Pain Drain\libraries\lvgl\src\core\../misc/lv_style.h ****     const lv_style_t var_name = {                                       \
  65:..\..\..\arduinoLCD\test\Pain Drain\libraries\lvgl\src\core\../misc/lv_style.h ****         .v_p = { .const_props = prop_array },                           \
  66:..\..\..\arduinoLCD\test\Pain Drain\libraries\lvgl\src\core\../misc/lv_style.h ****         .has_group = 0xFF,                                              \
  67:..\..\..\arduinoLCD\test\Pain Drain\libraries\lvgl\src\core\../misc/lv_style.h ****         .prop1 = LV_STYLE_PROP_ANY,                                     \
  68:..\..\..\arduinoLCD\test\Pain Drain\libraries\lvgl\src\core\../misc/lv_style.h ****         .prop_cnt = (sizeof(prop_array) / sizeof((prop_array)[0])),     \
  69:..\..\..\arduinoLCD\test\Pain Drain\libraries\lvgl\src\core\../misc/lv_style.h ****     }
  70:..\..\..\arduinoLCD\test\Pain Drain\libraries\lvgl\src\core\../misc/lv_style.h **** #endif
  71:..\..\..\arduinoLCD\test\Pain Drain\libraries\lvgl\src\core\../misc/lv_style.h **** // *INDENT-ON*
  72:..\..\..\arduinoLCD\test\Pain Drain\libraries\lvgl\src\core\../misc/lv_style.h **** 
  73:..\..\..\arduinoLCD\test\Pain Drain\libraries\lvgl\src\core\../misc/lv_style.h **** #define LV_STYLE_PROP_META_INHERIT 0x8000
  74:..\..\..\arduinoLCD\test\Pain Drain\libraries\lvgl\src\core\../misc/lv_style.h **** #define LV_STYLE_PROP_META_INITIAL 0x4000
  75:..\..\..\arduinoLCD\test\Pain Drain\libraries\lvgl\src\core\../misc/lv_style.h **** #define LV_STYLE_PROP_META_MASK (LV_STYLE_PROP_META_INHERIT | LV_STYLE_PROP_META_INITIAL)
ARM GAS  C:\Users\haske\AppData\Local\Temp\ccLxalmh.s 			page 56


  76:..\..\..\arduinoLCD\test\Pain Drain\libraries\lvgl\src\core\../misc/lv_style.h **** 
  77:..\..\..\arduinoLCD\test\Pain Drain\libraries\lvgl\src\core\../misc/lv_style.h **** #define LV_STYLE_PROP_ID_MASK(prop) ((lv_style_prop_t)((prop) & ~LV_STYLE_PROP_META_MASK))
  78:..\..\..\arduinoLCD\test\Pain Drain\libraries\lvgl\src\core\../misc/lv_style.h **** 
  79:..\..\..\arduinoLCD\test\Pain Drain\libraries\lvgl\src\core\../misc/lv_style.h **** /**********************
  80:..\..\..\arduinoLCD\test\Pain Drain\libraries\lvgl\src\core\../misc/lv_style.h ****  *      TYPEDEFS
  81:..\..\..\arduinoLCD\test\Pain Drain\libraries\lvgl\src\core\../misc/lv_style.h ****  **********************/
  82:..\..\..\arduinoLCD\test\Pain Drain\libraries\lvgl\src\core\../misc/lv_style.h **** 
  83:..\..\..\arduinoLCD\test\Pain Drain\libraries\lvgl\src\core\../misc/lv_style.h **** /**
  84:..\..\..\arduinoLCD\test\Pain Drain\libraries\lvgl\src\core\../misc/lv_style.h ****  * Possible options how to blend opaque drawings
  85:..\..\..\arduinoLCD\test\Pain Drain\libraries\lvgl\src\core\../misc/lv_style.h ****  */
  86:..\..\..\arduinoLCD\test\Pain Drain\libraries\lvgl\src\core\../misc/lv_style.h **** enum {
  87:..\..\..\arduinoLCD\test\Pain Drain\libraries\lvgl\src\core\../misc/lv_style.h ****     LV_BLEND_MODE_NORMAL,     /**< Simply mix according to the opacity value*/
  88:..\..\..\arduinoLCD\test\Pain Drain\libraries\lvgl\src\core\../misc/lv_style.h ****     LV_BLEND_MODE_ADDITIVE,   /**< Add the respective color channels*/
  89:..\..\..\arduinoLCD\test\Pain Drain\libraries\lvgl\src\core\../misc/lv_style.h ****     LV_BLEND_MODE_SUBTRACTIVE,/**< Subtract the foreground from the background*/
  90:..\..\..\arduinoLCD\test\Pain Drain\libraries\lvgl\src\core\../misc/lv_style.h ****     LV_BLEND_MODE_MULTIPLY,   /**< Multiply the foreground and background*/
  91:..\..\..\arduinoLCD\test\Pain Drain\libraries\lvgl\src\core\../misc/lv_style.h ****     LV_BLEND_MODE_REPLACE,    /**< Replace background with foreground in the area*/
  92:..\..\..\arduinoLCD\test\Pain Drain\libraries\lvgl\src\core\../misc/lv_style.h **** };
  93:..\..\..\arduinoLCD\test\Pain Drain\libraries\lvgl\src\core\../misc/lv_style.h **** 
  94:..\..\..\arduinoLCD\test\Pain Drain\libraries\lvgl\src\core\../misc/lv_style.h **** typedef uint8_t lv_blend_mode_t;
  95:..\..\..\arduinoLCD\test\Pain Drain\libraries\lvgl\src\core\../misc/lv_style.h **** 
  96:..\..\..\arduinoLCD\test\Pain Drain\libraries\lvgl\src\core\../misc/lv_style.h **** /**
  97:..\..\..\arduinoLCD\test\Pain Drain\libraries\lvgl\src\core\../misc/lv_style.h ****  * Some options to apply decorations on texts.
  98:..\..\..\arduinoLCD\test\Pain Drain\libraries\lvgl\src\core\../misc/lv_style.h ****  * 'OR'ed values can be used.
  99:..\..\..\arduinoLCD\test\Pain Drain\libraries\lvgl\src\core\../misc/lv_style.h ****  */
 100:..\..\..\arduinoLCD\test\Pain Drain\libraries\lvgl\src\core\../misc/lv_style.h **** enum {
 101:..\..\..\arduinoLCD\test\Pain Drain\libraries\lvgl\src\core\../misc/lv_style.h ****     LV_TEXT_DECOR_NONE          = 0x00,
 102:..\..\..\arduinoLCD\test\Pain Drain\libraries\lvgl\src\core\../misc/lv_style.h ****     LV_TEXT_DECOR_UNDERLINE     = 0x01,
 103:..\..\..\arduinoLCD\test\Pain Drain\libraries\lvgl\src\core\../misc/lv_style.h ****     LV_TEXT_DECOR_STRIKETHROUGH = 0x02,
 104:..\..\..\arduinoLCD\test\Pain Drain\libraries\lvgl\src\core\../misc/lv_style.h **** };
 105:..\..\..\arduinoLCD\test\Pain Drain\libraries\lvgl\src\core\../misc/lv_style.h **** 
 106:..\..\..\arduinoLCD\test\Pain Drain\libraries\lvgl\src\core\../misc/lv_style.h **** typedef uint8_t lv_text_decor_t;
 107:..\..\..\arduinoLCD\test\Pain Drain\libraries\lvgl\src\core\../misc/lv_style.h **** 
 108:..\..\..\arduinoLCD\test\Pain Drain\libraries\lvgl\src\core\../misc/lv_style.h **** /**
 109:..\..\..\arduinoLCD\test\Pain Drain\libraries\lvgl\src\core\../misc/lv_style.h ****  * Selects on which sides border should be drawn
 110:..\..\..\arduinoLCD\test\Pain Drain\libraries\lvgl\src\core\../misc/lv_style.h ****  * 'OR'ed values can be used.
 111:..\..\..\arduinoLCD\test\Pain Drain\libraries\lvgl\src\core\../misc/lv_style.h ****  */
 112:..\..\..\arduinoLCD\test\Pain Drain\libraries\lvgl\src\core\../misc/lv_style.h **** enum {
 113:..\..\..\arduinoLCD\test\Pain Drain\libraries\lvgl\src\core\../misc/lv_style.h ****     LV_BORDER_SIDE_NONE     = 0x00,
 114:..\..\..\arduinoLCD\test\Pain Drain\libraries\lvgl\src\core\../misc/lv_style.h ****     LV_BORDER_SIDE_BOTTOM   = 0x01,
 115:..\..\..\arduinoLCD\test\Pain Drain\libraries\lvgl\src\core\../misc/lv_style.h ****     LV_BORDER_SIDE_TOP      = 0x02,
 116:..\..\..\arduinoLCD\test\Pain Drain\libraries\lvgl\src\core\../misc/lv_style.h ****     LV_BORDER_SIDE_LEFT     = 0x04,
 117:..\..\..\arduinoLCD\test\Pain Drain\libraries\lvgl\src\core\../misc/lv_style.h ****     LV_BORDER_SIDE_RIGHT    = 0x08,
 118:..\..\..\arduinoLCD\test\Pain Drain\libraries\lvgl\src\core\../misc/lv_style.h ****     LV_BORDER_SIDE_FULL     = 0x0F,
 119:..\..\..\arduinoLCD\test\Pain Drain\libraries\lvgl\src\core\../misc/lv_style.h ****     LV_BORDER_SIDE_INTERNAL = 0x10, /**< FOR matrix-like objects (e.g. Button matrix)*/
 120:..\..\..\arduinoLCD\test\Pain Drain\libraries\lvgl\src\core\../misc/lv_style.h **** };
 121:..\..\..\arduinoLCD\test\Pain Drain\libraries\lvgl\src\core\../misc/lv_style.h **** typedef uint8_t lv_border_side_t;
 122:..\..\..\arduinoLCD\test\Pain Drain\libraries\lvgl\src\core\../misc/lv_style.h **** 
 123:..\..\..\arduinoLCD\test\Pain Drain\libraries\lvgl\src\core\../misc/lv_style.h **** /**
 124:..\..\..\arduinoLCD\test\Pain Drain\libraries\lvgl\src\core\../misc/lv_style.h ****  * The direction of the gradient.
 125:..\..\..\arduinoLCD\test\Pain Drain\libraries\lvgl\src\core\../misc/lv_style.h ****  */
 126:..\..\..\arduinoLCD\test\Pain Drain\libraries\lvgl\src\core\../misc/lv_style.h **** enum {
 127:..\..\..\arduinoLCD\test\Pain Drain\libraries\lvgl\src\core\../misc/lv_style.h ****     LV_GRAD_DIR_NONE, /**< No gradient (the `grad_color` property is ignored)*/
 128:..\..\..\arduinoLCD\test\Pain Drain\libraries\lvgl\src\core\../misc/lv_style.h ****     LV_GRAD_DIR_VER,  /**< Vertical (top to bottom) gradient*/
 129:..\..\..\arduinoLCD\test\Pain Drain\libraries\lvgl\src\core\../misc/lv_style.h ****     LV_GRAD_DIR_HOR,  /**< Horizontal (left to right) gradient*/
 130:..\..\..\arduinoLCD\test\Pain Drain\libraries\lvgl\src\core\../misc/lv_style.h **** };
 131:..\..\..\arduinoLCD\test\Pain Drain\libraries\lvgl\src\core\../misc/lv_style.h **** 
 132:..\..\..\arduinoLCD\test\Pain Drain\libraries\lvgl\src\core\../misc/lv_style.h **** typedef uint8_t lv_grad_dir_t;
ARM GAS  C:\Users\haske\AppData\Local\Temp\ccLxalmh.s 			page 57


 133:..\..\..\arduinoLCD\test\Pain Drain\libraries\lvgl\src\core\../misc/lv_style.h **** 
 134:..\..\..\arduinoLCD\test\Pain Drain\libraries\lvgl\src\core\../misc/lv_style.h **** /**
 135:..\..\..\arduinoLCD\test\Pain Drain\libraries\lvgl\src\core\../misc/lv_style.h ****  * The dithering algorithm for the gradient
 136:..\..\..\arduinoLCD\test\Pain Drain\libraries\lvgl\src\core\../misc/lv_style.h ****  * Depends on LV_DITHER_GRADIENT
 137:..\..\..\arduinoLCD\test\Pain Drain\libraries\lvgl\src\core\../misc/lv_style.h ****  */
 138:..\..\..\arduinoLCD\test\Pain Drain\libraries\lvgl\src\core\../misc/lv_style.h **** enum {
 139:..\..\..\arduinoLCD\test\Pain Drain\libraries\lvgl\src\core\../misc/lv_style.h ****     LV_DITHER_NONE,     /**< No dithering, colors are just quantized to the output resolution*/
 140:..\..\..\arduinoLCD\test\Pain Drain\libraries\lvgl\src\core\../misc/lv_style.h ****     LV_DITHER_ORDERED,  /**< Ordered dithering. Faster to compute and use less memory but lower qua
 141:..\..\..\arduinoLCD\test\Pain Drain\libraries\lvgl\src\core\../misc/lv_style.h ****     LV_DITHER_ERR_DIFF, /**< Error diffusion mode. Slower to compute and use more memory but give h
 142:..\..\..\arduinoLCD\test\Pain Drain\libraries\lvgl\src\core\../misc/lv_style.h **** };
 143:..\..\..\arduinoLCD\test\Pain Drain\libraries\lvgl\src\core\../misc/lv_style.h **** 
 144:..\..\..\arduinoLCD\test\Pain Drain\libraries\lvgl\src\core\../misc/lv_style.h **** typedef uint8_t lv_dither_mode_t;
 145:..\..\..\arduinoLCD\test\Pain Drain\libraries\lvgl\src\core\../misc/lv_style.h **** 
 146:..\..\..\arduinoLCD\test\Pain Drain\libraries\lvgl\src\core\../misc/lv_style.h **** /** A gradient stop definition.
 147:..\..\..\arduinoLCD\test\Pain Drain\libraries\lvgl\src\core\../misc/lv_style.h ****  *  This matches a color and a position in a virtual 0-255 scale.
 148:..\..\..\arduinoLCD\test\Pain Drain\libraries\lvgl\src\core\../misc/lv_style.h ****  */
 149:..\..\..\arduinoLCD\test\Pain Drain\libraries\lvgl\src\core\../misc/lv_style.h **** typedef struct {
 150:..\..\..\arduinoLCD\test\Pain Drain\libraries\lvgl\src\core\../misc/lv_style.h ****     lv_color_t color;   /**< The stop color */
 151:..\..\..\arduinoLCD\test\Pain Drain\libraries\lvgl\src\core\../misc/lv_style.h ****     uint8_t    frac;    /**< The stop position in 1/255 unit */
 152:..\..\..\arduinoLCD\test\Pain Drain\libraries\lvgl\src\core\../misc/lv_style.h **** } lv_gradient_stop_t;
 153:..\..\..\arduinoLCD\test\Pain Drain\libraries\lvgl\src\core\../misc/lv_style.h **** 
 154:..\..\..\arduinoLCD\test\Pain Drain\libraries\lvgl\src\core\../misc/lv_style.h **** /** A descriptor of a gradient. */
 155:..\..\..\arduinoLCD\test\Pain Drain\libraries\lvgl\src\core\../misc/lv_style.h **** typedef struct {
 156:..\..\..\arduinoLCD\test\Pain Drain\libraries\lvgl\src\core\../misc/lv_style.h ****     lv_gradient_stop_t   stops[LV_GRADIENT_MAX_STOPS]; /**< A gradient stop array */
 157:..\..\..\arduinoLCD\test\Pain Drain\libraries\lvgl\src\core\../misc/lv_style.h ****     uint8_t              stops_count;                  /**< The number of used stops in the array *
 158:..\..\..\arduinoLCD\test\Pain Drain\libraries\lvgl\src\core\../misc/lv_style.h ****     lv_grad_dir_t        dir : 3;                      /**< The gradient direction.
 159:..\..\..\arduinoLCD\test\Pain Drain\libraries\lvgl\src\core\../misc/lv_style.h ****                                                         * Any of LV_GRAD_DIR_HOR, LV_GRAD_DIR_VER, 
 160:..\..\..\arduinoLCD\test\Pain Drain\libraries\lvgl\src\core\../misc/lv_style.h ****     lv_dither_mode_t     dither : 3;                   /**< Whether to dither the gradient or not.
 161:..\..\..\arduinoLCD\test\Pain Drain\libraries\lvgl\src\core\../misc/lv_style.h ****                                                         * Any of LV_DITHER_NONE, LV_DITHER_ORDERED,
 162:..\..\..\arduinoLCD\test\Pain Drain\libraries\lvgl\src\core\../misc/lv_style.h **** } lv_grad_dsc_t;
 163:..\..\..\arduinoLCD\test\Pain Drain\libraries\lvgl\src\core\../misc/lv_style.h **** 
 164:..\..\..\arduinoLCD\test\Pain Drain\libraries\lvgl\src\core\../misc/lv_style.h **** /**
 165:..\..\..\arduinoLCD\test\Pain Drain\libraries\lvgl\src\core\../misc/lv_style.h ****  * A common type to handle all the property types in the same way.
 166:..\..\..\arduinoLCD\test\Pain Drain\libraries\lvgl\src\core\../misc/lv_style.h ****  */
 167:..\..\..\arduinoLCD\test\Pain Drain\libraries\lvgl\src\core\../misc/lv_style.h **** typedef union {
 168:..\..\..\arduinoLCD\test\Pain Drain\libraries\lvgl\src\core\../misc/lv_style.h ****     int32_t num;         /**< Number integer number (opacity, enums, booleans or "normal" numbers)*
 169:..\..\..\arduinoLCD\test\Pain Drain\libraries\lvgl\src\core\../misc/lv_style.h ****     const void * ptr;    /**< Constant pointers  (font, cone text, etc)*/
 170:..\..\..\arduinoLCD\test\Pain Drain\libraries\lvgl\src\core\../misc/lv_style.h ****     lv_color_t color;    /**< Colors*/
 171:..\..\..\arduinoLCD\test\Pain Drain\libraries\lvgl\src\core\../misc/lv_style.h **** } lv_style_value_t;
 172:..\..\..\arduinoLCD\test\Pain Drain\libraries\lvgl\src\core\../misc/lv_style.h **** 
 173:..\..\..\arduinoLCD\test\Pain Drain\libraries\lvgl\src\core\../misc/lv_style.h **** /**
 174:..\..\..\arduinoLCD\test\Pain Drain\libraries\lvgl\src\core\../misc/lv_style.h ****  * Enumeration of all built in style properties
 175:..\..\..\arduinoLCD\test\Pain Drain\libraries\lvgl\src\core\../misc/lv_style.h ****  *
 176:..\..\..\arduinoLCD\test\Pain Drain\libraries\lvgl\src\core\../misc/lv_style.h ****  * Props are split into groups of 16. When adding a new prop to a group, ensure it does not overflo
 177:..\..\..\arduinoLCD\test\Pain Drain\libraries\lvgl\src\core\../misc/lv_style.h ****  */
 178:..\..\..\arduinoLCD\test\Pain Drain\libraries\lvgl\src\core\../misc/lv_style.h **** typedef enum {
 179:..\..\..\arduinoLCD\test\Pain Drain\libraries\lvgl\src\core\../misc/lv_style.h ****     LV_STYLE_PROP_INV               = 0,
 180:..\..\..\arduinoLCD\test\Pain Drain\libraries\lvgl\src\core\../misc/lv_style.h **** 
 181:..\..\..\arduinoLCD\test\Pain Drain\libraries\lvgl\src\core\../misc/lv_style.h ****     /*Group 0*/
 182:..\..\..\arduinoLCD\test\Pain Drain\libraries\lvgl\src\core\../misc/lv_style.h ****     LV_STYLE_WIDTH                  = 1,
 183:..\..\..\arduinoLCD\test\Pain Drain\libraries\lvgl\src\core\../misc/lv_style.h ****     LV_STYLE_MIN_WIDTH              = 2,
 184:..\..\..\arduinoLCD\test\Pain Drain\libraries\lvgl\src\core\../misc/lv_style.h ****     LV_STYLE_MAX_WIDTH              = 3,
 185:..\..\..\arduinoLCD\test\Pain Drain\libraries\lvgl\src\core\../misc/lv_style.h ****     LV_STYLE_HEIGHT                 = 4,
 186:..\..\..\arduinoLCD\test\Pain Drain\libraries\lvgl\src\core\../misc/lv_style.h ****     LV_STYLE_MIN_HEIGHT             = 5,
 187:..\..\..\arduinoLCD\test\Pain Drain\libraries\lvgl\src\core\../misc/lv_style.h ****     LV_STYLE_MAX_HEIGHT             = 6,
 188:..\..\..\arduinoLCD\test\Pain Drain\libraries\lvgl\src\core\../misc/lv_style.h ****     LV_STYLE_X                      = 7,
 189:..\..\..\arduinoLCD\test\Pain Drain\libraries\lvgl\src\core\../misc/lv_style.h ****     LV_STYLE_Y                      = 8,
ARM GAS  C:\Users\haske\AppData\Local\Temp\ccLxalmh.s 			page 58


 190:..\..\..\arduinoLCD\test\Pain Drain\libraries\lvgl\src\core\../misc/lv_style.h ****     LV_STYLE_ALIGN                  = 9,
 191:..\..\..\arduinoLCD\test\Pain Drain\libraries\lvgl\src\core\../misc/lv_style.h ****     LV_STYLE_LAYOUT                 = 10,
 192:..\..\..\arduinoLCD\test\Pain Drain\libraries\lvgl\src\core\../misc/lv_style.h ****     LV_STYLE_RADIUS                 = 11,
 193:..\..\..\arduinoLCD\test\Pain Drain\libraries\lvgl\src\core\../misc/lv_style.h **** 
 194:..\..\..\arduinoLCD\test\Pain Drain\libraries\lvgl\src\core\../misc/lv_style.h ****     /*Group 1*/
 195:..\..\..\arduinoLCD\test\Pain Drain\libraries\lvgl\src\core\../misc/lv_style.h ****     LV_STYLE_PAD_TOP                = 16,
 196:..\..\..\arduinoLCD\test\Pain Drain\libraries\lvgl\src\core\../misc/lv_style.h ****     LV_STYLE_PAD_BOTTOM             = 17,
