ARM GAS  C:\Users\haske\AppData\Local\Temp\ccmHOPq6.s 			page 1


   1              		.syntax unified
   2              		.cpu cortex-m0plus
   3              		.fpu softvfp
   4              		.eabi_attribute 20, 1
   5              		.eabi_attribute 21, 1
   6              		.eabi_attribute 23, 3
   7              		.eabi_attribute 24, 1
   8              		.eabi_attribute 25, 1
   9              		.eabi_attribute 26, 1
  10              		.eabi_attribute 30, 1
  11              		.eabi_attribute 34, 0
  12              		.eabi_attribute 18, 4
  13              		.thumb
  14              		.syntax unified
  15              		.file	"lv_obj_class.c"
  16              		.text
  17              	.Ltext0:
  18              		.cfi_sections	.debug_frame
  19              		.section	.text.lv_obj_construct,"ax",%progbits
  20              		.align	2
  21              		.code	16
  22              		.thumb_func
  23              		.type	lv_obj_construct, %function
  24              	lv_obj_construct:
  25              	.LFB164:
  26              		.file 1 "..\\..\\..\\arduinoLCD\\test\\Pain Drain\\libraries\\lvgl\\src\\core\\lv_obj_class.c"
   1:..\..\..\arduinoLCD\test\Pain Drain\libraries\lvgl\src\core/lv_obj_class.c **** /**
   2:..\..\..\arduinoLCD\test\Pain Drain\libraries\lvgl\src\core/lv_obj_class.c ****  * @file lv_obj_class.c
   3:..\..\..\arduinoLCD\test\Pain Drain\libraries\lvgl\src\core/lv_obj_class.c ****  *
   4:..\..\..\arduinoLCD\test\Pain Drain\libraries\lvgl\src\core/lv_obj_class.c ****  */
   5:..\..\..\arduinoLCD\test\Pain Drain\libraries\lvgl\src\core/lv_obj_class.c **** 
   6:..\..\..\arduinoLCD\test\Pain Drain\libraries\lvgl\src\core/lv_obj_class.c **** /*********************
   7:..\..\..\arduinoLCD\test\Pain Drain\libraries\lvgl\src\core/lv_obj_class.c ****  *      INCLUDES
   8:..\..\..\arduinoLCD\test\Pain Drain\libraries\lvgl\src\core/lv_obj_class.c ****  *********************/
   9:..\..\..\arduinoLCD\test\Pain Drain\libraries\lvgl\src\core/lv_obj_class.c **** #include "lv_obj.h"
  10:..\..\..\arduinoLCD\test\Pain Drain\libraries\lvgl\src\core/lv_obj_class.c **** #include "lv_theme.h"
  11:..\..\..\arduinoLCD\test\Pain Drain\libraries\lvgl\src\core/lv_obj_class.c **** 
  12:..\..\..\arduinoLCD\test\Pain Drain\libraries\lvgl\src\core/lv_obj_class.c **** /*********************
  13:..\..\..\arduinoLCD\test\Pain Drain\libraries\lvgl\src\core/lv_obj_class.c ****  *      DEFINES
  14:..\..\..\arduinoLCD\test\Pain Drain\libraries\lvgl\src\core/lv_obj_class.c ****  *********************/
  15:..\..\..\arduinoLCD\test\Pain Drain\libraries\lvgl\src\core/lv_obj_class.c **** #define MY_CLASS &lv_obj_class
  16:..\..\..\arduinoLCD\test\Pain Drain\libraries\lvgl\src\core/lv_obj_class.c **** 
  17:..\..\..\arduinoLCD\test\Pain Drain\libraries\lvgl\src\core/lv_obj_class.c **** /**********************
  18:..\..\..\arduinoLCD\test\Pain Drain\libraries\lvgl\src\core/lv_obj_class.c ****  *      TYPEDEFS
  19:..\..\..\arduinoLCD\test\Pain Drain\libraries\lvgl\src\core/lv_obj_class.c ****  **********************/
  20:..\..\..\arduinoLCD\test\Pain Drain\libraries\lvgl\src\core/lv_obj_class.c **** 
  21:..\..\..\arduinoLCD\test\Pain Drain\libraries\lvgl\src\core/lv_obj_class.c **** /**********************
  22:..\..\..\arduinoLCD\test\Pain Drain\libraries\lvgl\src\core/lv_obj_class.c ****  *  GLOBAL PROTOTYPES
  23:..\..\..\arduinoLCD\test\Pain Drain\libraries\lvgl\src\core/lv_obj_class.c ****  **********************/
  24:..\..\..\arduinoLCD\test\Pain Drain\libraries\lvgl\src\core/lv_obj_class.c **** 
  25:..\..\..\arduinoLCD\test\Pain Drain\libraries\lvgl\src\core/lv_obj_class.c **** /**********************
  26:..\..\..\arduinoLCD\test\Pain Drain\libraries\lvgl\src\core/lv_obj_class.c ****  *  STATIC PROTOTYPES
  27:..\..\..\arduinoLCD\test\Pain Drain\libraries\lvgl\src\core/lv_obj_class.c ****  **********************/
  28:..\..\..\arduinoLCD\test\Pain Drain\libraries\lvgl\src\core/lv_obj_class.c **** static void lv_obj_construct(lv_obj_t * obj);
  29:..\..\..\arduinoLCD\test\Pain Drain\libraries\lvgl\src\core/lv_obj_class.c **** static uint32_t get_instance_size(const lv_obj_class_t * class_p);
  30:..\..\..\arduinoLCD\test\Pain Drain\libraries\lvgl\src\core/lv_obj_class.c **** 
  31:..\..\..\arduinoLCD\test\Pain Drain\libraries\lvgl\src\core/lv_obj_class.c **** /**********************
ARM GAS  C:\Users\haske\AppData\Local\Temp\ccmHOPq6.s 			page 2


  32:..\..\..\arduinoLCD\test\Pain Drain\libraries\lvgl\src\core/lv_obj_class.c ****  *  STATIC VARIABLES
  33:..\..\..\arduinoLCD\test\Pain Drain\libraries\lvgl\src\core/lv_obj_class.c ****  **********************/
  34:..\..\..\arduinoLCD\test\Pain Drain\libraries\lvgl\src\core/lv_obj_class.c **** 
  35:..\..\..\arduinoLCD\test\Pain Drain\libraries\lvgl\src\core/lv_obj_class.c **** /**********************
  36:..\..\..\arduinoLCD\test\Pain Drain\libraries\lvgl\src\core/lv_obj_class.c ****  *      MACROS
  37:..\..\..\arduinoLCD\test\Pain Drain\libraries\lvgl\src\core/lv_obj_class.c ****  **********************/
  38:..\..\..\arduinoLCD\test\Pain Drain\libraries\lvgl\src\core/lv_obj_class.c **** 
  39:..\..\..\arduinoLCD\test\Pain Drain\libraries\lvgl\src\core/lv_obj_class.c **** /**********************
  40:..\..\..\arduinoLCD\test\Pain Drain\libraries\lvgl\src\core/lv_obj_class.c ****  *   GLOBAL FUNCTIONS
  41:..\..\..\arduinoLCD\test\Pain Drain\libraries\lvgl\src\core/lv_obj_class.c ****  **********************/
  42:..\..\..\arduinoLCD\test\Pain Drain\libraries\lvgl\src\core/lv_obj_class.c **** 
  43:..\..\..\arduinoLCD\test\Pain Drain\libraries\lvgl\src\core/lv_obj_class.c **** lv_obj_t * lv_obj_class_create_obj(const lv_obj_class_t * class_p, lv_obj_t * parent)
  44:..\..\..\arduinoLCD\test\Pain Drain\libraries\lvgl\src\core/lv_obj_class.c **** {
  45:..\..\..\arduinoLCD\test\Pain Drain\libraries\lvgl\src\core/lv_obj_class.c ****     LV_TRACE_OBJ_CREATE("Creating object with %p class on %p parent", (void *)class_p, (void *)pare
  46:..\..\..\arduinoLCD\test\Pain Drain\libraries\lvgl\src\core/lv_obj_class.c ****     uint32_t s = get_instance_size(class_p);
  47:..\..\..\arduinoLCD\test\Pain Drain\libraries\lvgl\src\core/lv_obj_class.c ****     lv_obj_t * obj = lv_mem_alloc(s);
  48:..\..\..\arduinoLCD\test\Pain Drain\libraries\lvgl\src\core/lv_obj_class.c ****     if(obj == NULL) return NULL;
  49:..\..\..\arduinoLCD\test\Pain Drain\libraries\lvgl\src\core/lv_obj_class.c ****     lv_memset_00(obj, s);
  50:..\..\..\arduinoLCD\test\Pain Drain\libraries\lvgl\src\core/lv_obj_class.c ****     obj->class_p = class_p;
  51:..\..\..\arduinoLCD\test\Pain Drain\libraries\lvgl\src\core/lv_obj_class.c ****     obj->parent = parent;
  52:..\..\..\arduinoLCD\test\Pain Drain\libraries\lvgl\src\core/lv_obj_class.c **** 
  53:..\..\..\arduinoLCD\test\Pain Drain\libraries\lvgl\src\core/lv_obj_class.c ****     /*Create a screen*/
  54:..\..\..\arduinoLCD\test\Pain Drain\libraries\lvgl\src\core/lv_obj_class.c ****     if(parent == NULL) {
  55:..\..\..\arduinoLCD\test\Pain Drain\libraries\lvgl\src\core/lv_obj_class.c ****         LV_TRACE_OBJ_CREATE("creating a screen");
  56:..\..\..\arduinoLCD\test\Pain Drain\libraries\lvgl\src\core/lv_obj_class.c ****         lv_disp_t * disp = lv_disp_get_default();
  57:..\..\..\arduinoLCD\test\Pain Drain\libraries\lvgl\src\core/lv_obj_class.c ****         if(!disp) {
  58:..\..\..\arduinoLCD\test\Pain Drain\libraries\lvgl\src\core/lv_obj_class.c ****             LV_LOG_WARN("No display created yet. No place to assign the new screen");
  59:..\..\..\arduinoLCD\test\Pain Drain\libraries\lvgl\src\core/lv_obj_class.c ****             lv_mem_free(obj);
  60:..\..\..\arduinoLCD\test\Pain Drain\libraries\lvgl\src\core/lv_obj_class.c ****             return NULL;
  61:..\..\..\arduinoLCD\test\Pain Drain\libraries\lvgl\src\core/lv_obj_class.c ****         }
  62:..\..\..\arduinoLCD\test\Pain Drain\libraries\lvgl\src\core/lv_obj_class.c **** 
  63:..\..\..\arduinoLCD\test\Pain Drain\libraries\lvgl\src\core/lv_obj_class.c ****         if(disp->screens == NULL) {
  64:..\..\..\arduinoLCD\test\Pain Drain\libraries\lvgl\src\core/lv_obj_class.c ****             disp->screens = lv_mem_alloc(sizeof(lv_obj_t *));
  65:..\..\..\arduinoLCD\test\Pain Drain\libraries\lvgl\src\core/lv_obj_class.c ****             disp->screens[0] = obj;
  66:..\..\..\arduinoLCD\test\Pain Drain\libraries\lvgl\src\core/lv_obj_class.c ****             disp->screen_cnt = 1;
  67:..\..\..\arduinoLCD\test\Pain Drain\libraries\lvgl\src\core/lv_obj_class.c ****         }
  68:..\..\..\arduinoLCD\test\Pain Drain\libraries\lvgl\src\core/lv_obj_class.c ****         else {
  69:..\..\..\arduinoLCD\test\Pain Drain\libraries\lvgl\src\core/lv_obj_class.c ****             disp->screen_cnt++;
  70:..\..\..\arduinoLCD\test\Pain Drain\libraries\lvgl\src\core/lv_obj_class.c ****             disp->screens = lv_mem_realloc(disp->screens, sizeof(lv_obj_t *) * disp->screen_cnt);
  71:..\..\..\arduinoLCD\test\Pain Drain\libraries\lvgl\src\core/lv_obj_class.c ****             disp->screens[disp->screen_cnt - 1] = obj;
  72:..\..\..\arduinoLCD\test\Pain Drain\libraries\lvgl\src\core/lv_obj_class.c ****         }
  73:..\..\..\arduinoLCD\test\Pain Drain\libraries\lvgl\src\core/lv_obj_class.c **** 
  74:..\..\..\arduinoLCD\test\Pain Drain\libraries\lvgl\src\core/lv_obj_class.c ****         /*Set coordinates to full screen size*/
  75:..\..\..\arduinoLCD\test\Pain Drain\libraries\lvgl\src\core/lv_obj_class.c ****         obj->coords.x1 = 0;
  76:..\..\..\arduinoLCD\test\Pain Drain\libraries\lvgl\src\core/lv_obj_class.c ****         obj->coords.y1 = 0;
  77:..\..\..\arduinoLCD\test\Pain Drain\libraries\lvgl\src\core/lv_obj_class.c ****         obj->coords.x2 = lv_disp_get_hor_res(NULL) - 1;
  78:..\..\..\arduinoLCD\test\Pain Drain\libraries\lvgl\src\core/lv_obj_class.c ****         obj->coords.y2 = lv_disp_get_ver_res(NULL) - 1;
  79:..\..\..\arduinoLCD\test\Pain Drain\libraries\lvgl\src\core/lv_obj_class.c ****     }
  80:..\..\..\arduinoLCD\test\Pain Drain\libraries\lvgl\src\core/lv_obj_class.c ****     /*Create a normal object*/
  81:..\..\..\arduinoLCD\test\Pain Drain\libraries\lvgl\src\core/lv_obj_class.c ****     else {
  82:..\..\..\arduinoLCD\test\Pain Drain\libraries\lvgl\src\core/lv_obj_class.c ****         LV_TRACE_OBJ_CREATE("creating normal object");
  83:..\..\..\arduinoLCD\test\Pain Drain\libraries\lvgl\src\core/lv_obj_class.c ****         LV_ASSERT_OBJ(parent, MY_CLASS);
  84:..\..\..\arduinoLCD\test\Pain Drain\libraries\lvgl\src\core/lv_obj_class.c ****         if(parent->spec_attr == NULL) {
  85:..\..\..\arduinoLCD\test\Pain Drain\libraries\lvgl\src\core/lv_obj_class.c ****             lv_obj_allocate_spec_attr(parent);
  86:..\..\..\arduinoLCD\test\Pain Drain\libraries\lvgl\src\core/lv_obj_class.c ****         }
  87:..\..\..\arduinoLCD\test\Pain Drain\libraries\lvgl\src\core/lv_obj_class.c **** 
  88:..\..\..\arduinoLCD\test\Pain Drain\libraries\lvgl\src\core/lv_obj_class.c ****         if(parent->spec_attr->children == NULL) {
ARM GAS  C:\Users\haske\AppData\Local\Temp\ccmHOPq6.s 			page 3


  89:..\..\..\arduinoLCD\test\Pain Drain\libraries\lvgl\src\core/lv_obj_class.c ****             parent->spec_attr->children = lv_mem_alloc(sizeof(lv_obj_t *));
  90:..\..\..\arduinoLCD\test\Pain Drain\libraries\lvgl\src\core/lv_obj_class.c ****             parent->spec_attr->children[0] = obj;
  91:..\..\..\arduinoLCD\test\Pain Drain\libraries\lvgl\src\core/lv_obj_class.c ****             parent->spec_attr->child_cnt = 1;
  92:..\..\..\arduinoLCD\test\Pain Drain\libraries\lvgl\src\core/lv_obj_class.c ****         }
  93:..\..\..\arduinoLCD\test\Pain Drain\libraries\lvgl\src\core/lv_obj_class.c ****         else {
  94:..\..\..\arduinoLCD\test\Pain Drain\libraries\lvgl\src\core/lv_obj_class.c ****             parent->spec_attr->child_cnt++;
  95:..\..\..\arduinoLCD\test\Pain Drain\libraries\lvgl\src\core/lv_obj_class.c ****             parent->spec_attr->children = lv_mem_realloc(parent->spec_attr->children,
  96:..\..\..\arduinoLCD\test\Pain Drain\libraries\lvgl\src\core/lv_obj_class.c ****                                                          sizeof(lv_obj_t *) * parent->spec_attr->ch
  97:..\..\..\arduinoLCD\test\Pain Drain\libraries\lvgl\src\core/lv_obj_class.c ****             parent->spec_attr->children[parent->spec_attr->child_cnt - 1] = obj;
  98:..\..\..\arduinoLCD\test\Pain Drain\libraries\lvgl\src\core/lv_obj_class.c ****         }
  99:..\..\..\arduinoLCD\test\Pain Drain\libraries\lvgl\src\core/lv_obj_class.c ****     }
 100:..\..\..\arduinoLCD\test\Pain Drain\libraries\lvgl\src\core/lv_obj_class.c **** 
 101:..\..\..\arduinoLCD\test\Pain Drain\libraries\lvgl\src\core/lv_obj_class.c ****     return obj;
 102:..\..\..\arduinoLCD\test\Pain Drain\libraries\lvgl\src\core/lv_obj_class.c **** }
 103:..\..\..\arduinoLCD\test\Pain Drain\libraries\lvgl\src\core/lv_obj_class.c **** 
 104:..\..\..\arduinoLCD\test\Pain Drain\libraries\lvgl\src\core/lv_obj_class.c **** void lv_obj_class_init_obj(lv_obj_t * obj)
 105:..\..\..\arduinoLCD\test\Pain Drain\libraries\lvgl\src\core/lv_obj_class.c **** {
 106:..\..\..\arduinoLCD\test\Pain Drain\libraries\lvgl\src\core/lv_obj_class.c ****     lv_obj_mark_layout_as_dirty(obj);
 107:..\..\..\arduinoLCD\test\Pain Drain\libraries\lvgl\src\core/lv_obj_class.c ****     lv_obj_enable_style_refresh(false);
 108:..\..\..\arduinoLCD\test\Pain Drain\libraries\lvgl\src\core/lv_obj_class.c **** 
 109:..\..\..\arduinoLCD\test\Pain Drain\libraries\lvgl\src\core/lv_obj_class.c ****     lv_theme_apply(obj);
 110:..\..\..\arduinoLCD\test\Pain Drain\libraries\lvgl\src\core/lv_obj_class.c ****     lv_obj_construct(obj);
 111:..\..\..\arduinoLCD\test\Pain Drain\libraries\lvgl\src\core/lv_obj_class.c **** 
 112:..\..\..\arduinoLCD\test\Pain Drain\libraries\lvgl\src\core/lv_obj_class.c ****     lv_obj_enable_style_refresh(true);
 113:..\..\..\arduinoLCD\test\Pain Drain\libraries\lvgl\src\core/lv_obj_class.c ****     lv_obj_refresh_style(obj, LV_PART_ANY, LV_STYLE_PROP_ANY);
 114:..\..\..\arduinoLCD\test\Pain Drain\libraries\lvgl\src\core/lv_obj_class.c **** 
 115:..\..\..\arduinoLCD\test\Pain Drain\libraries\lvgl\src\core/lv_obj_class.c ****     lv_obj_refresh_self_size(obj);
 116:..\..\..\arduinoLCD\test\Pain Drain\libraries\lvgl\src\core/lv_obj_class.c **** 
 117:..\..\..\arduinoLCD\test\Pain Drain\libraries\lvgl\src\core/lv_obj_class.c ****     lv_group_t * def_group = lv_group_get_default();
 118:..\..\..\arduinoLCD\test\Pain Drain\libraries\lvgl\src\core/lv_obj_class.c ****     if(def_group && lv_obj_is_group_def(obj)) {
 119:..\..\..\arduinoLCD\test\Pain Drain\libraries\lvgl\src\core/lv_obj_class.c ****         lv_group_add_obj(def_group, obj);
 120:..\..\..\arduinoLCD\test\Pain Drain\libraries\lvgl\src\core/lv_obj_class.c ****     }
 121:..\..\..\arduinoLCD\test\Pain Drain\libraries\lvgl\src\core/lv_obj_class.c **** 
 122:..\..\..\arduinoLCD\test\Pain Drain\libraries\lvgl\src\core/lv_obj_class.c ****     lv_obj_t * parent = lv_obj_get_parent(obj);
 123:..\..\..\arduinoLCD\test\Pain Drain\libraries\lvgl\src\core/lv_obj_class.c ****     if(parent) {
 124:..\..\..\arduinoLCD\test\Pain Drain\libraries\lvgl\src\core/lv_obj_class.c ****         /*Call the ancestor's event handler to the parent to notify it about the new child.
 125:..\..\..\arduinoLCD\test\Pain Drain\libraries\lvgl\src\core/lv_obj_class.c ****          *Also triggers layout update*/
 126:..\..\..\arduinoLCD\test\Pain Drain\libraries\lvgl\src\core/lv_obj_class.c ****         lv_event_send(parent, LV_EVENT_CHILD_CHANGED, obj);
 127:..\..\..\arduinoLCD\test\Pain Drain\libraries\lvgl\src\core/lv_obj_class.c ****         lv_event_send(parent, LV_EVENT_CHILD_CREATED, obj);
 128:..\..\..\arduinoLCD\test\Pain Drain\libraries\lvgl\src\core/lv_obj_class.c **** 
 129:..\..\..\arduinoLCD\test\Pain Drain\libraries\lvgl\src\core/lv_obj_class.c ****         /*Invalidate the area if not screen created*/
 130:..\..\..\arduinoLCD\test\Pain Drain\libraries\lvgl\src\core/lv_obj_class.c ****         lv_obj_invalidate(obj);
 131:..\..\..\arduinoLCD\test\Pain Drain\libraries\lvgl\src\core/lv_obj_class.c ****     }
 132:..\..\..\arduinoLCD\test\Pain Drain\libraries\lvgl\src\core/lv_obj_class.c **** }
 133:..\..\..\arduinoLCD\test\Pain Drain\libraries\lvgl\src\core/lv_obj_class.c **** 
 134:..\..\..\arduinoLCD\test\Pain Drain\libraries\lvgl\src\core/lv_obj_class.c **** void _lv_obj_destruct(lv_obj_t * obj)
 135:..\..\..\arduinoLCD\test\Pain Drain\libraries\lvgl\src\core/lv_obj_class.c **** {
 136:..\..\..\arduinoLCD\test\Pain Drain\libraries\lvgl\src\core/lv_obj_class.c ****     if(obj->class_p->destructor_cb) obj->class_p->destructor_cb(obj->class_p, obj);
 137:..\..\..\arduinoLCD\test\Pain Drain\libraries\lvgl\src\core/lv_obj_class.c **** 
 138:..\..\..\arduinoLCD\test\Pain Drain\libraries\lvgl\src\core/lv_obj_class.c ****     if(obj->class_p->base_class) {
 139:..\..\..\arduinoLCD\test\Pain Drain\libraries\lvgl\src\core/lv_obj_class.c ****         /*Don't let the descendant methods run during destructing the ancestor type*/
 140:..\..\..\arduinoLCD\test\Pain Drain\libraries\lvgl\src\core/lv_obj_class.c ****         obj->class_p = obj->class_p->base_class;
 141:..\..\..\arduinoLCD\test\Pain Drain\libraries\lvgl\src\core/lv_obj_class.c **** 
 142:..\..\..\arduinoLCD\test\Pain Drain\libraries\lvgl\src\core/lv_obj_class.c ****         /*Call the base class's destructor too*/
 143:..\..\..\arduinoLCD\test\Pain Drain\libraries\lvgl\src\core/lv_obj_class.c ****         _lv_obj_destruct(obj);
 144:..\..\..\arduinoLCD\test\Pain Drain\libraries\lvgl\src\core/lv_obj_class.c ****     }
 145:..\..\..\arduinoLCD\test\Pain Drain\libraries\lvgl\src\core/lv_obj_class.c **** }
ARM GAS  C:\Users\haske\AppData\Local\Temp\ccmHOPq6.s 			page 4


 146:..\..\..\arduinoLCD\test\Pain Drain\libraries\lvgl\src\core/lv_obj_class.c **** 
 147:..\..\..\arduinoLCD\test\Pain Drain\libraries\lvgl\src\core/lv_obj_class.c **** bool lv_obj_is_editable(lv_obj_t * obj)
 148:..\..\..\arduinoLCD\test\Pain Drain\libraries\lvgl\src\core/lv_obj_class.c **** {
 149:..\..\..\arduinoLCD\test\Pain Drain\libraries\lvgl\src\core/lv_obj_class.c ****     const lv_obj_class_t * class_p = obj->class_p;
 150:..\..\..\arduinoLCD\test\Pain Drain\libraries\lvgl\src\core/lv_obj_class.c **** 
 151:..\..\..\arduinoLCD\test\Pain Drain\libraries\lvgl\src\core/lv_obj_class.c ****     /*Find a base in which editable is set*/
 152:..\..\..\arduinoLCD\test\Pain Drain\libraries\lvgl\src\core/lv_obj_class.c ****     while(class_p && class_p->editable == LV_OBJ_CLASS_EDITABLE_INHERIT) class_p = class_p->base_cl
 153:..\..\..\arduinoLCD\test\Pain Drain\libraries\lvgl\src\core/lv_obj_class.c **** 
 154:..\..\..\arduinoLCD\test\Pain Drain\libraries\lvgl\src\core/lv_obj_class.c ****     if(class_p == NULL) return false;
 155:..\..\..\arduinoLCD\test\Pain Drain\libraries\lvgl\src\core/lv_obj_class.c **** 
 156:..\..\..\arduinoLCD\test\Pain Drain\libraries\lvgl\src\core/lv_obj_class.c ****     return class_p->editable == LV_OBJ_CLASS_EDITABLE_TRUE ? true : false;
 157:..\..\..\arduinoLCD\test\Pain Drain\libraries\lvgl\src\core/lv_obj_class.c **** }
 158:..\..\..\arduinoLCD\test\Pain Drain\libraries\lvgl\src\core/lv_obj_class.c **** 
 159:..\..\..\arduinoLCD\test\Pain Drain\libraries\lvgl\src\core/lv_obj_class.c **** bool lv_obj_is_group_def(lv_obj_t * obj)
 160:..\..\..\arduinoLCD\test\Pain Drain\libraries\lvgl\src\core/lv_obj_class.c **** {
 161:..\..\..\arduinoLCD\test\Pain Drain\libraries\lvgl\src\core/lv_obj_class.c ****     const lv_obj_class_t * class_p = obj->class_p;
 162:..\..\..\arduinoLCD\test\Pain Drain\libraries\lvgl\src\core/lv_obj_class.c **** 
 163:..\..\..\arduinoLCD\test\Pain Drain\libraries\lvgl\src\core/lv_obj_class.c ****     /*Find a base in which group_def is set*/
 164:..\..\..\arduinoLCD\test\Pain Drain\libraries\lvgl\src\core/lv_obj_class.c ****     while(class_p && class_p->group_def == LV_OBJ_CLASS_GROUP_DEF_INHERIT) class_p = class_p->base_
 165:..\..\..\arduinoLCD\test\Pain Drain\libraries\lvgl\src\core/lv_obj_class.c **** 
 166:..\..\..\arduinoLCD\test\Pain Drain\libraries\lvgl\src\core/lv_obj_class.c ****     if(class_p == NULL) return false;
 167:..\..\..\arduinoLCD\test\Pain Drain\libraries\lvgl\src\core/lv_obj_class.c **** 
 168:..\..\..\arduinoLCD\test\Pain Drain\libraries\lvgl\src\core/lv_obj_class.c ****     return class_p->group_def == LV_OBJ_CLASS_GROUP_DEF_TRUE ? true : false;
 169:..\..\..\arduinoLCD\test\Pain Drain\libraries\lvgl\src\core/lv_obj_class.c **** }
 170:..\..\..\arduinoLCD\test\Pain Drain\libraries\lvgl\src\core/lv_obj_class.c **** 
 171:..\..\..\arduinoLCD\test\Pain Drain\libraries\lvgl\src\core/lv_obj_class.c **** /**********************
 172:..\..\..\arduinoLCD\test\Pain Drain\libraries\lvgl\src\core/lv_obj_class.c ****  *   STATIC FUNCTIONS
 173:..\..\..\arduinoLCD\test\Pain Drain\libraries\lvgl\src\core/lv_obj_class.c ****  **********************/
 174:..\..\..\arduinoLCD\test\Pain Drain\libraries\lvgl\src\core/lv_obj_class.c **** 
 175:..\..\..\arduinoLCD\test\Pain Drain\libraries\lvgl\src\core/lv_obj_class.c **** static void lv_obj_construct(lv_obj_t * obj)
 176:..\..\..\arduinoLCD\test\Pain Drain\libraries\lvgl\src\core/lv_obj_class.c **** {
  27              		.loc 1 176 0
  28              		.cfi_startproc
  29              		@ args = 0, pretend = 0, frame = 0
  30              		@ frame_needed = 0, uses_anonymous_args = 0
  31              	.LVL0:
  32 0000 70B5     		push	{r4, r5, r6, lr}
  33              		.cfi_def_cfa_offset 16
  34              		.cfi_offset 4, -16
  35              		.cfi_offset 5, -12
  36              		.cfi_offset 6, -8
  37              		.cfi_offset 14, -4
  38 0002 0400     		movs	r4, r0
 177:..\..\..\arduinoLCD\test\Pain Drain\libraries\lvgl\src\core/lv_obj_class.c ****     const lv_obj_class_t * original_class_p = obj->class_p;
  39              		.loc 1 177 0
  40 0004 0568     		ldr	r5, [r0]
  41              	.LVL1:
 178:..\..\..\arduinoLCD\test\Pain Drain\libraries\lvgl\src\core/lv_obj_class.c **** 
 179:..\..\..\arduinoLCD\test\Pain Drain\libraries\lvgl\src\core/lv_obj_class.c ****     if(obj->class_p->base_class) {
  42              		.loc 1 179 0
  43 0006 2B68     		ldr	r3, [r5]
  44 0008 002B     		cmp	r3, #0
  45 000a 02D0     		beq	.L2
 180:..\..\..\arduinoLCD\test\Pain Drain\libraries\lvgl\src\core/lv_obj_class.c ****         /*Don't let the descendant methods run during constructing the ancestor type*/
 181:..\..\..\arduinoLCD\test\Pain Drain\libraries\lvgl\src\core/lv_obj_class.c ****         obj->class_p = obj->class_p->base_class;
  46              		.loc 1 181 0
  47 000c 0360     		str	r3, [r0]
ARM GAS  C:\Users\haske\AppData\Local\Temp\ccmHOPq6.s 			page 5


 182:..\..\..\arduinoLCD\test\Pain Drain\libraries\lvgl\src\core/lv_obj_class.c **** 
 183:..\..\..\arduinoLCD\test\Pain Drain\libraries\lvgl\src\core/lv_obj_class.c ****         /*Construct the base first*/
 184:..\..\..\arduinoLCD\test\Pain Drain\libraries\lvgl\src\core/lv_obj_class.c ****         lv_obj_construct(obj);
  48              		.loc 1 184 0
  49 000e FFF7F7FF 		bl	lv_obj_construct
  50              	.LVL2:
  51              	.L2:
 185:..\..\..\arduinoLCD\test\Pain Drain\libraries\lvgl\src\core/lv_obj_class.c ****     }
 186:..\..\..\arduinoLCD\test\Pain Drain\libraries\lvgl\src\core/lv_obj_class.c **** 
 187:..\..\..\arduinoLCD\test\Pain Drain\libraries\lvgl\src\core/lv_obj_class.c ****     /*Restore the original class*/
 188:..\..\..\arduinoLCD\test\Pain Drain\libraries\lvgl\src\core/lv_obj_class.c ****     obj->class_p = original_class_p;
  52              		.loc 1 188 0
  53 0012 2560     		str	r5, [r4]
 189:..\..\..\arduinoLCD\test\Pain Drain\libraries\lvgl\src\core/lv_obj_class.c **** 
 190:..\..\..\arduinoLCD\test\Pain Drain\libraries\lvgl\src\core/lv_obj_class.c ****     if(obj->class_p->constructor_cb) obj->class_p->constructor_cb(obj->class_p, obj);
  54              		.loc 1 190 0
  55 0014 6B68     		ldr	r3, [r5, #4]
  56 0016 002B     		cmp	r3, #0
  57 0018 02D0     		beq	.L1
  58              		.loc 1 190 0 is_stmt 0 discriminator 1
  59 001a 2100     		movs	r1, r4
  60 001c 2800     		movs	r0, r5
  61 001e 9847     		blx	r3
  62              	.LVL3:
  63              	.L1:
 191:..\..\..\arduinoLCD\test\Pain Drain\libraries\lvgl\src\core/lv_obj_class.c **** }
  64              		.loc 1 191 0 is_stmt 1
  65              		@ sp needed
  66              	.LVL4:
  67              	.LVL5:
  68 0020 70BD     		pop	{r4, r5, r6, pc}
  69              		.cfi_endproc
  70              	.LFE164:
  71              		.size	lv_obj_construct, .-lv_obj_construct
  72 0022 C046     		.section	.text.get_instance_size,"ax",%progbits
  73              		.align	2
  74              		.code	16
  75              		.thumb_func
  76              		.type	get_instance_size, %function
  77              	get_instance_size:
  78              	.LFB165:
 192:..\..\..\arduinoLCD\test\Pain Drain\libraries\lvgl\src\core/lv_obj_class.c **** 
 193:..\..\..\arduinoLCD\test\Pain Drain\libraries\lvgl\src\core/lv_obj_class.c **** static uint32_t get_instance_size(const lv_obj_class_t * class_p)
 194:..\..\..\arduinoLCD\test\Pain Drain\libraries\lvgl\src\core/lv_obj_class.c **** {
  79              		.loc 1 194 0
  80              		.cfi_startproc
  81              		@ args = 0, pretend = 0, frame = 0
  82              		@ frame_needed = 0, uses_anonymous_args = 0
  83              		@ link register save eliminated.
  84              	.LVL6:
 195:..\..\..\arduinoLCD\test\Pain Drain\libraries\lvgl\src\core/lv_obj_class.c ****     /*Find a base in which instance size is set*/
 196:..\..\..\arduinoLCD\test\Pain Drain\libraries\lvgl\src\core/lv_obj_class.c ****     const lv_obj_class_t * base = class_p;
 197:..\..\..\arduinoLCD\test\Pain Drain\libraries\lvgl\src\core/lv_obj_class.c ****     while(base && base->instance_size == 0) base = base->base_class;
  85              		.loc 1 197 0
  86 0000 00E0     		b	.L5
  87              	.LVL7:
  88              	.L7:
ARM GAS  C:\Users\haske\AppData\Local\Temp\ccmHOPq6.s 			page 6


  89              		.loc 1 197 0 is_stmt 0 discriminator 3
  90 0002 0068     		ldr	r0, [r0]
  91              	.LVL8:
  92              	.L5:
  93              		.loc 1 197 0 discriminator 1
  94 0004 0028     		cmp	r0, #0
  95 0006 03D0     		beq	.L6
  96              		.loc 1 197 0 discriminator 2
  97 0008 054B     		ldr	r3, .L10
  98 000a 8269     		ldr	r2, [r0, #24]
  99 000c 1A42     		tst	r2, r3
 100 000e F8D0     		beq	.L7
 101              	.L6:
 198:..\..\..\arduinoLCD\test\Pain Drain\libraries\lvgl\src\core/lv_obj_class.c **** 
 199:..\..\..\arduinoLCD\test\Pain Drain\libraries\lvgl\src\core/lv_obj_class.c ****     if(base == NULL) return 0;  /*Never happens: set at least in `lv_obj` class*/
 102              		.loc 1 199 0 is_stmt 1
 103 0010 0028     		cmp	r0, #0
 104 0012 03D0     		beq	.L9
 200:..\..\..\arduinoLCD\test\Pain Drain\libraries\lvgl\src\core/lv_obj_class.c **** 
 201:..\..\..\arduinoLCD\test\Pain Drain\libraries\lvgl\src\core/lv_obj_class.c ****     return base->instance_size;
 105              		.loc 1 201 0
 106 0014 8069     		ldr	r0, [r0, #24]
 107              	.LVL9:
 108 0016 0003     		lsls	r0, r0, #12
 109 0018 000C     		lsrs	r0, r0, #16
 110 001a 00E0     		b	.L8
 111              	.LVL10:
 112              	.L9:
 199:..\..\..\arduinoLCD\test\Pain Drain\libraries\lvgl\src\core/lv_obj_class.c **** 
 113              		.loc 1 199 0
 114 001c 0020     		movs	r0, #0
 115              	.LVL11:
 116              	.L8:
 202:..\..\..\arduinoLCD\test\Pain Drain\libraries\lvgl\src\core/lv_obj_class.c **** }
 117              		.loc 1 202 0
 118              		@ sp needed
 119 001e 7047     		bx	lr
 120              	.L11:
 121              		.align	2
 122              	.L10:
 123 0020 F0FF0F00 		.word	1048560
 124              		.cfi_endproc
 125              	.LFE165:
 126              		.size	get_instance_size, .-get_instance_size
 127              		.section	.text.lv_obj_class_create_obj,"ax",%progbits
 128              		.align	2
 129              		.global	lv_obj_class_create_obj
 130              		.code	16
 131              		.thumb_func
 132              		.type	lv_obj_class_create_obj, %function
 133              	lv_obj_class_create_obj:
 134              	.LFB159:
  44:..\..\..\arduinoLCD\test\Pain Drain\libraries\lvgl\src\core/lv_obj_class.c ****     LV_TRACE_OBJ_CREATE("Creating object with %p class on %p parent", (void *)class_p, (void *)pare
 135              		.loc 1 44 0
 136              		.cfi_startproc
 137              		@ args = 0, pretend = 0, frame = 0
 138              		@ frame_needed = 0, uses_anonymous_args = 0
ARM GAS  C:\Users\haske\AppData\Local\Temp\ccmHOPq6.s 			page 7


 139              	.LVL12:
 140 0000 F8B5     		push	{r3, r4, r5, r6, r7, lr}
 141              		.cfi_def_cfa_offset 24
 142              		.cfi_offset 3, -24
 143              		.cfi_offset 4, -20
 144              		.cfi_offset 5, -16
 145              		.cfi_offset 6, -12
 146              		.cfi_offset 7, -8
 147              		.cfi_offset 14, -4
 148 0002 0600     		movs	r6, r0
 149 0004 0D00     		movs	r5, r1
  46:..\..\..\arduinoLCD\test\Pain Drain\libraries\lvgl\src\core/lv_obj_class.c ****     lv_obj_t * obj = lv_mem_alloc(s);
 150              		.loc 1 46 0
 151 0006 FFF7FEFF 		bl	get_instance_size
 152              	.LVL13:
 153 000a 0700     		movs	r7, r0
 154              	.LVL14:
  47:..\..\..\arduinoLCD\test\Pain Drain\libraries\lvgl\src\core/lv_obj_class.c ****     if(obj == NULL) return NULL;
 155              		.loc 1 47 0
 156 000c FFF7FEFF 		bl	lv_mem_alloc
 157              	.LVL15:
 158 0010 041E     		subs	r4, r0, #0
 159              	.LVL16:
  48:..\..\..\arduinoLCD\test\Pain Drain\libraries\lvgl\src\core/lv_obj_class.c ****     lv_memset_00(obj, s);
 160              		.loc 1 48 0
 161 0012 60D0     		beq	.L20
  49:..\..\..\arduinoLCD\test\Pain Drain\libraries\lvgl\src\core/lv_obj_class.c ****     obj->class_p = class_p;
 162              		.loc 1 49 0
 163 0014 3900     		movs	r1, r7
 164 0016 FFF7FEFF 		bl	lv_memset_00
 165              	.LVL17:
  50:..\..\..\arduinoLCD\test\Pain Drain\libraries\lvgl\src\core/lv_obj_class.c ****     obj->parent = parent;
 166              		.loc 1 50 0
 167 001a 2660     		str	r6, [r4]
  51:..\..\..\arduinoLCD\test\Pain Drain\libraries\lvgl\src\core/lv_obj_class.c **** 
 168              		.loc 1 51 0
 169 001c 6560     		str	r5, [r4, #4]
  54:..\..\..\arduinoLCD\test\Pain Drain\libraries\lvgl\src\core/lv_obj_class.c ****         LV_TRACE_OBJ_CREATE("creating a screen");
 170              		.loc 1 54 0
 171 001e 002D     		cmp	r5, #0
 172 0020 2FD1     		bne	.L14
 173              	.LBB2:
  56:..\..\..\arduinoLCD\test\Pain Drain\libraries\lvgl\src\core/lv_obj_class.c ****         if(!disp) {
 174              		.loc 1 56 0
 175 0022 FFF7FEFF 		bl	lv_disp_get_default
 176              	.LVL18:
 177 0026 051E     		subs	r5, r0, #0
 178              	.LVL19:
  57:..\..\..\arduinoLCD\test\Pain Drain\libraries\lvgl\src\core/lv_obj_class.c ****             LV_LOG_WARN("No display created yet. No place to assign the new screen");
 179              		.loc 1 57 0
 180 0028 04D1     		bne	.L15
  59:..\..\..\arduinoLCD\test\Pain Drain\libraries\lvgl\src\core/lv_obj_class.c ****             return NULL;
 181              		.loc 1 59 0
 182 002a 2000     		movs	r0, r4
 183              	.LVL20:
 184 002c FFF7FEFF 		bl	lv_mem_free
 185              	.LVL21:
ARM GAS  C:\Users\haske\AppData\Local\Temp\ccmHOPq6.s 			page 8


  60:..\..\..\arduinoLCD\test\Pain Drain\libraries\lvgl\src\core/lv_obj_class.c ****         }
 186              		.loc 1 60 0
 187 0030 0020     		movs	r0, #0
 188 0032 51E0     		b	.L13
 189              	.LVL22:
 190              	.L15:
  63:..\..\..\arduinoLCD\test\Pain Drain\libraries\lvgl\src\core/lv_obj_class.c ****             disp->screens = lv_mem_alloc(sizeof(lv_obj_t *));
 191              		.loc 1 63 0
 192 0034 C068     		ldr	r0, [r0, #12]
 193              	.LVL23:
 194 0036 0028     		cmp	r0, #0
 195 0038 07D1     		bne	.L16
  64:..\..\..\arduinoLCD\test\Pain Drain\libraries\lvgl\src\core/lv_obj_class.c ****             disp->screens[0] = obj;
 196              		.loc 1 64 0
 197 003a 0430     		adds	r0, r0, #4
 198 003c FFF7FEFF 		bl	lv_mem_alloc
 199              	.LVL24:
 200 0040 E860     		str	r0, [r5, #12]
  65:..\..\..\arduinoLCD\test\Pain Drain\libraries\lvgl\src\core/lv_obj_class.c ****             disp->screen_cnt = 1;
 201              		.loc 1 65 0
 202 0042 0460     		str	r4, [r0]
  66:..\..\..\arduinoLCD\test\Pain Drain\libraries\lvgl\src\core/lv_obj_class.c ****         }
 203              		.loc 1 66 0
 204 0044 0123     		movs	r3, #1
 205 0046 6B62     		str	r3, [r5, #36]
 206 0048 0CE0     		b	.L17
 207              	.L16:
  69:..\..\..\arduinoLCD\test\Pain Drain\libraries\lvgl\src\core/lv_obj_class.c ****             disp->screens = lv_mem_realloc(disp->screens, sizeof(lv_obj_t *) * disp->screen_cnt);
 208              		.loc 1 69 0
 209 004a 6B6A     		ldr	r3, [r5, #36]
 210 004c 591C     		adds	r1, r3, #1
 211 004e 6962     		str	r1, [r5, #36]
  70:..\..\..\arduinoLCD\test\Pain Drain\libraries\lvgl\src\core/lv_obj_class.c ****             disp->screens[disp->screen_cnt - 1] = obj;
 212              		.loc 1 70 0
 213 0050 8900     		lsls	r1, r1, #2
 214 0052 FFF7FEFF 		bl	lv_mem_realloc
 215              	.LVL25:
 216 0056 E860     		str	r0, [r5, #12]
  71:..\..\..\arduinoLCD\test\Pain Drain\libraries\lvgl\src\core/lv_obj_class.c ****         }
 217              		.loc 1 71 0
 218 0058 6B6A     		ldr	r3, [r5, #36]
 219 005a 204A     		ldr	r2, .L21
 220 005c 9446     		mov	ip, r2
 221 005e 6344     		add	r3, r3, ip
 222 0060 9B00     		lsls	r3, r3, #2
 223 0062 C450     		str	r4, [r0, r3]
 224              	.L17:
  75:..\..\..\arduinoLCD\test\Pain Drain\libraries\lvgl\src\core/lv_obj_class.c ****         obj->coords.y1 = 0;
 225              		.loc 1 75 0
 226 0064 0023     		movs	r3, #0
 227 0066 A382     		strh	r3, [r4, #20]
  76:..\..\..\arduinoLCD\test\Pain Drain\libraries\lvgl\src\core/lv_obj_class.c ****         obj->coords.x2 = lv_disp_get_hor_res(NULL) - 1;
 228              		.loc 1 76 0
 229 0068 E382     		strh	r3, [r4, #22]
  77:..\..\..\arduinoLCD\test\Pain Drain\libraries\lvgl\src\core/lv_obj_class.c ****         obj->coords.y2 = lv_disp_get_ver_res(NULL) - 1;
 230              		.loc 1 77 0
 231 006a 0020     		movs	r0, #0
ARM GAS  C:\Users\haske\AppData\Local\Temp\ccmHOPq6.s 			page 9


 232 006c FFF7FEFF 		bl	lv_disp_get_hor_res
 233              	.LVL26:
 234 0070 0138     		subs	r0, r0, #1
 235 0072 2083     		strh	r0, [r4, #24]
  78:..\..\..\arduinoLCD\test\Pain Drain\libraries\lvgl\src\core/lv_obj_class.c ****     }
 236              		.loc 1 78 0
 237 0074 0020     		movs	r0, #0
 238 0076 FFF7FEFF 		bl	lv_disp_get_ver_res
 239              	.LVL27:
 240 007a 0138     		subs	r0, r0, #1
 241 007c 6083     		strh	r0, [r4, #26]
 242              	.LBE2:
 101:..\..\..\arduinoLCD\test\Pain Drain\libraries\lvgl\src\core/lv_obj_class.c **** }
 243              		.loc 1 101 0
 244 007e 2000     		movs	r0, r4
 245 0080 2AE0     		b	.L13
 246              	.LVL28:
 247              	.L14:
  84:..\..\..\arduinoLCD\test\Pain Drain\libraries\lvgl\src\core/lv_obj_class.c ****             lv_obj_allocate_spec_attr(parent);
 248              		.loc 1 84 0
 249 0082 AB68     		ldr	r3, [r5, #8]
 250 0084 002B     		cmp	r3, #0
 251 0086 02D1     		bne	.L18
  85:..\..\..\arduinoLCD\test\Pain Drain\libraries\lvgl\src\core/lv_obj_class.c ****         }
 252              		.loc 1 85 0
 253 0088 2800     		movs	r0, r5
 254 008a FFF7FEFF 		bl	lv_obj_allocate_spec_attr
 255              	.LVL29:
 256              	.L18:
  88:..\..\..\arduinoLCD\test\Pain Drain\libraries\lvgl\src\core/lv_obj_class.c ****             parent->spec_attr->children = lv_mem_alloc(sizeof(lv_obj_t *));
 257              		.loc 1 88 0
 258 008e AE68     		ldr	r6, [r5, #8]
 259              	.LVL30:
 260 0090 3368     		ldr	r3, [r6]
 261 0092 002B     		cmp	r3, #0
 262 0094 0BD1     		bne	.L19
  89:..\..\..\arduinoLCD\test\Pain Drain\libraries\lvgl\src\core/lv_obj_class.c ****             parent->spec_attr->children[0] = obj;
 263              		.loc 1 89 0
 264 0096 0420     		movs	r0, #4
 265 0098 FFF7FEFF 		bl	lv_mem_alloc
 266              	.LVL31:
 267 009c 3060     		str	r0, [r6]
  90:..\..\..\arduinoLCD\test\Pain Drain\libraries\lvgl\src\core/lv_obj_class.c ****             parent->spec_attr->child_cnt = 1;
 268              		.loc 1 90 0
 269 009e AB68     		ldr	r3, [r5, #8]
 270 00a0 1B68     		ldr	r3, [r3]
 271 00a2 1C60     		str	r4, [r3]
  91:..\..\..\arduinoLCD\test\Pain Drain\libraries\lvgl\src\core/lv_obj_class.c ****         }
 272              		.loc 1 91 0
 273 00a4 AB68     		ldr	r3, [r5, #8]
 274 00a6 0122     		movs	r2, #1
 275 00a8 5A60     		str	r2, [r3, #4]
 101:..\..\..\arduinoLCD\test\Pain Drain\libraries\lvgl\src\core/lv_obj_class.c **** }
 276              		.loc 1 101 0
 277 00aa 2000     		movs	r0, r4
 278 00ac 14E0     		b	.L13
 279              	.L19:
ARM GAS  C:\Users\haske\AppData\Local\Temp\ccmHOPq6.s 			page 10


  94:..\..\..\arduinoLCD\test\Pain Drain\libraries\lvgl\src\core/lv_obj_class.c ****             parent->spec_attr->children = lv_mem_realloc(parent->spec_attr->children,
 280              		.loc 1 94 0
 281 00ae 7368     		ldr	r3, [r6, #4]
 282 00b0 0133     		adds	r3, r3, #1
 283 00b2 7360     		str	r3, [r6, #4]
  95:..\..\..\arduinoLCD\test\Pain Drain\libraries\lvgl\src\core/lv_obj_class.c ****                                                          sizeof(lv_obj_t *) * parent->spec_attr->ch
 284              		.loc 1 95 0
 285 00b4 AE68     		ldr	r6, [r5, #8]
  96:..\..\..\arduinoLCD\test\Pain Drain\libraries\lvgl\src\core/lv_obj_class.c ****             parent->spec_attr->children[parent->spec_attr->child_cnt - 1] = obj;
 286              		.loc 1 96 0
 287 00b6 7368     		ldr	r3, [r6, #4]
 288 00b8 9900     		lsls	r1, r3, #2
  95:..\..\..\arduinoLCD\test\Pain Drain\libraries\lvgl\src\core/lv_obj_class.c ****                                                          sizeof(lv_obj_t *) * parent->spec_attr->ch
 289              		.loc 1 95 0
 290 00ba 3068     		ldr	r0, [r6]
 291 00bc FFF7FEFF 		bl	lv_mem_realloc
 292              	.LVL32:
 293 00c0 3060     		str	r0, [r6]
  97:..\..\..\arduinoLCD\test\Pain Drain\libraries\lvgl\src\core/lv_obj_class.c ****         }
 294              		.loc 1 97 0
 295 00c2 AB68     		ldr	r3, [r5, #8]
 296 00c4 1A68     		ldr	r2, [r3]
 297 00c6 5B68     		ldr	r3, [r3, #4]
 298 00c8 0449     		ldr	r1, .L21
 299 00ca 8C46     		mov	ip, r1
 300 00cc 6344     		add	r3, r3, ip
 301 00ce 9B00     		lsls	r3, r3, #2
 302 00d0 D450     		str	r4, [r2, r3]
 101:..\..\..\arduinoLCD\test\Pain Drain\libraries\lvgl\src\core/lv_obj_class.c **** }
 303              		.loc 1 101 0
 304 00d2 2000     		movs	r0, r4
 305 00d4 00E0     		b	.L13
 306              	.LVL33:
 307              	.L20:
  48:..\..\..\arduinoLCD\test\Pain Drain\libraries\lvgl\src\core/lv_obj_class.c ****     lv_memset_00(obj, s);
 308              		.loc 1 48 0
 309 00d6 0020     		movs	r0, #0
 310              	.LVL34:
 311              	.L13:
 102:..\..\..\arduinoLCD\test\Pain Drain\libraries\lvgl\src\core/lv_obj_class.c **** 
 312              		.loc 1 102 0
 313              		@ sp needed
 314              	.LVL35:
 315              	.LVL36:
 316 00d8 F8BD     		pop	{r3, r4, r5, r6, r7, pc}
 317              	.L22:
 318 00da C046     		.align	2
 319              	.L21:
 320 00dc FFFFFF3F 		.word	1073741823
 321              		.cfi_endproc
 322              	.LFE159:
 323              		.size	lv_obj_class_create_obj, .-lv_obj_class_create_obj
 324              		.section	.text._lv_obj_destruct,"ax",%progbits
 325              		.align	2
 326              		.global	_lv_obj_destruct
 327              		.code	16
 328              		.thumb_func
ARM GAS  C:\Users\haske\AppData\Local\Temp\ccmHOPq6.s 			page 11


 329              		.type	_lv_obj_destruct, %function
 330              	_lv_obj_destruct:
 331              	.LFB161:
 135:..\..\..\arduinoLCD\test\Pain Drain\libraries\lvgl\src\core/lv_obj_class.c ****     if(obj->class_p->destructor_cb) obj->class_p->destructor_cb(obj->class_p, obj);
 332              		.loc 1 135 0
 333              		.cfi_startproc
 334              		@ args = 0, pretend = 0, frame = 0
 335              		@ frame_needed = 0, uses_anonymous_args = 0
 336              	.LVL37:
 337 0000 10B5     		push	{r4, lr}
 338              		.cfi_def_cfa_offset 8
 339              		.cfi_offset 4, -8
 340              		.cfi_offset 14, -4
 341 0002 0400     		movs	r4, r0
 136:..\..\..\arduinoLCD\test\Pain Drain\libraries\lvgl\src\core/lv_obj_class.c **** 
 342              		.loc 1 136 0
 343 0004 0068     		ldr	r0, [r0]
 344              	.LVL38:
 345 0006 8368     		ldr	r3, [r0, #8]
 346 0008 002B     		cmp	r3, #0
 347 000a 01D0     		beq	.L24
 136:..\..\..\arduinoLCD\test\Pain Drain\libraries\lvgl\src\core/lv_obj_class.c **** 
 348              		.loc 1 136 0 is_stmt 0 discriminator 1
 349 000c 2100     		movs	r1, r4
 350 000e 9847     		blx	r3
 351              	.LVL39:
 352              	.L24:
 138:..\..\..\arduinoLCD\test\Pain Drain\libraries\lvgl\src\core/lv_obj_class.c ****         /*Don't let the descendant methods run during destructing the ancestor type*/
 353              		.loc 1 138 0 is_stmt 1
 354 0010 2368     		ldr	r3, [r4]
 355 0012 1B68     		ldr	r3, [r3]
 356 0014 002B     		cmp	r3, #0
 357 0016 03D0     		beq	.L23
 140:..\..\..\arduinoLCD\test\Pain Drain\libraries\lvgl\src\core/lv_obj_class.c **** 
 358              		.loc 1 140 0
 359 0018 2360     		str	r3, [r4]
 143:..\..\..\arduinoLCD\test\Pain Drain\libraries\lvgl\src\core/lv_obj_class.c ****     }
 360              		.loc 1 143 0
 361 001a 2000     		movs	r0, r4
 362 001c FFF7FEFF 		bl	_lv_obj_destruct
 363              	.LVL40:
 364              	.L23:
 145:..\..\..\arduinoLCD\test\Pain Drain\libraries\lvgl\src\core/lv_obj_class.c **** 
 365              		.loc 1 145 0
 366              		@ sp needed
 367              	.LVL41:
 368 0020 10BD     		pop	{r4, pc}
 369              		.cfi_endproc
 370              	.LFE161:
 371              		.size	_lv_obj_destruct, .-_lv_obj_destruct
 372 0022 C046     		.section	.text.lv_obj_is_editable,"ax",%progbits
 373              		.align	2
 374              		.global	lv_obj_is_editable
 375              		.code	16
 376              		.thumb_func
 377              		.type	lv_obj_is_editable, %function
 378              	lv_obj_is_editable:
ARM GAS  C:\Users\haske\AppData\Local\Temp\ccmHOPq6.s 			page 12


 379              	.LFB162:
 148:..\..\..\arduinoLCD\test\Pain Drain\libraries\lvgl\src\core/lv_obj_class.c ****     const lv_obj_class_t * class_p = obj->class_p;
 380              		.loc 1 148 0
 381              		.cfi_startproc
 382              		@ args = 0, pretend = 0, frame = 0
 383              		@ frame_needed = 0, uses_anonymous_args = 0
 384              		@ link register save eliminated.
 385              	.LVL42:
 149:..\..\..\arduinoLCD\test\Pain Drain\libraries\lvgl\src\core/lv_obj_class.c **** 
 386              		.loc 1 149 0
 387 0000 0368     		ldr	r3, [r0]
 388              	.LVL43:
 152:..\..\..\arduinoLCD\test\Pain Drain\libraries\lvgl\src\core/lv_obj_class.c **** 
 389              		.loc 1 152 0
 390 0002 00E0     		b	.L27
 391              	.L29:
 152:..\..\..\arduinoLCD\test\Pain Drain\libraries\lvgl\src\core/lv_obj_class.c **** 
 392              		.loc 1 152 0 is_stmt 0 discriminator 3
 393 0004 1B68     		ldr	r3, [r3]
 394              	.LVL44:
 395              	.L27:
 152:..\..\..\arduinoLCD\test\Pain Drain\libraries\lvgl\src\core/lv_obj_class.c **** 
 396              		.loc 1 152 0 discriminator 1
 397 0006 002B     		cmp	r3, #0
 398 0008 02D0     		beq	.L28
 152:..\..\..\arduinoLCD\test\Pain Drain\libraries\lvgl\src\core/lv_obj_class.c **** 
 399              		.loc 1 152 0 discriminator 2
 400 000a 1A7E     		ldrb	r2, [r3, #24]
 401 000c 9207     		lsls	r2, r2, #30
 402 000e F9D0     		beq	.L29
 403              	.L28:
 154:..\..\..\arduinoLCD\test\Pain Drain\libraries\lvgl\src\core/lv_obj_class.c **** 
 404              		.loc 1 154 0 is_stmt 1
 405 0010 002B     		cmp	r3, #0
 406 0012 07D0     		beq	.L31
 156:..\..\..\arduinoLCD\test\Pain Drain\libraries\lvgl\src\core/lv_obj_class.c **** }
 407              		.loc 1 156 0
 408 0014 1B7E     		ldrb	r3, [r3, #24]
 409              	.LVL45:
 410 0016 0320     		movs	r0, #3
 411              	.LVL46:
 412 0018 1840     		ands	r0, r3
 413 001a 0138     		subs	r0, r0, #1
 414 001c 4342     		rsbs	r3, r0, #0
 415 001e 5841     		adcs	r0, r0, r3
 416 0020 C0B2     		uxtb	r0, r0
 417 0022 00E0     		b	.L30
 418              	.LVL47:
 419              	.L31:
 154:..\..\..\arduinoLCD\test\Pain Drain\libraries\lvgl\src\core/lv_obj_class.c **** 
 420              		.loc 1 154 0
 421 0024 0020     		movs	r0, #0
 422              	.LVL48:
 423              	.L30:
 157:..\..\..\arduinoLCD\test\Pain Drain\libraries\lvgl\src\core/lv_obj_class.c **** 
 424              		.loc 1 157 0
 425              		@ sp needed
ARM GAS  C:\Users\haske\AppData\Local\Temp\ccmHOPq6.s 			page 13


 426 0026 7047     		bx	lr
 427              		.cfi_endproc
 428              	.LFE162:
 429              		.size	lv_obj_is_editable, .-lv_obj_is_editable
 430              		.section	.text.lv_obj_is_group_def,"ax",%progbits
 431              		.align	2
 432              		.global	lv_obj_is_group_def
 433              		.code	16
 434              		.thumb_func
 435              		.type	lv_obj_is_group_def, %function
 436              	lv_obj_is_group_def:
 437              	.LFB163:
 160:..\..\..\arduinoLCD\test\Pain Drain\libraries\lvgl\src\core/lv_obj_class.c ****     const lv_obj_class_t * class_p = obj->class_p;
 438              		.loc 1 160 0
 439              		.cfi_startproc
 440              		@ args = 0, pretend = 0, frame = 0
 441              		@ frame_needed = 0, uses_anonymous_args = 0
 442              		@ link register save eliminated.
 443              	.LVL49:
 161:..\..\..\arduinoLCD\test\Pain Drain\libraries\lvgl\src\core/lv_obj_class.c **** 
 444              		.loc 1 161 0
 445 0000 0368     		ldr	r3, [r0]
 446              	.LVL50:
 164:..\..\..\arduinoLCD\test\Pain Drain\libraries\lvgl\src\core/lv_obj_class.c **** 
 447              		.loc 1 164 0
 448 0002 00E0     		b	.L33
 449              	.L35:
 164:..\..\..\arduinoLCD\test\Pain Drain\libraries\lvgl\src\core/lv_obj_class.c **** 
 450              		.loc 1 164 0 is_stmt 0 discriminator 3
 451 0004 1B68     		ldr	r3, [r3]
 452              	.LVL51:
 453              	.L33:
 164:..\..\..\arduinoLCD\test\Pain Drain\libraries\lvgl\src\core/lv_obj_class.c **** 
 454              		.loc 1 164 0 discriminator 1
 455 0006 002B     		cmp	r3, #0
 456 0008 03D0     		beq	.L34
 164:..\..\..\arduinoLCD\test\Pain Drain\libraries\lvgl\src\core/lv_obj_class.c **** 
 457              		.loc 1 164 0 discriminator 2
 458 000a 1A7E     		ldrb	r2, [r3, #24]
 459 000c 0C21     		movs	r1, #12
 460 000e 1142     		tst	r1, r2
 461 0010 F8D0     		beq	.L35
 462              	.L34:
 166:..\..\..\arduinoLCD\test\Pain Drain\libraries\lvgl\src\core/lv_obj_class.c **** 
 463              		.loc 1 166 0 is_stmt 1
 464 0012 002B     		cmp	r3, #0
 465 0014 07D0     		beq	.L37
 168:..\..\..\arduinoLCD\test\Pain Drain\libraries\lvgl\src\core/lv_obj_class.c **** }
 466              		.loc 1 168 0
 467 0016 1B7E     		ldrb	r3, [r3, #24]
 468              	.LVL52:
 469 0018 0C20     		movs	r0, #12
 470              	.LVL53:
 471 001a 1840     		ands	r0, r3
 472 001c 0438     		subs	r0, r0, #4
 473 001e 4342     		rsbs	r3, r0, #0
 474 0020 5841     		adcs	r0, r0, r3
ARM GAS  C:\Users\haske\AppData\Local\Temp\ccmHOPq6.s 			page 14


 475 0022 C0B2     		uxtb	r0, r0
 476 0024 00E0     		b	.L36
 477              	.LVL54:
 478              	.L37:
 166:..\..\..\arduinoLCD\test\Pain Drain\libraries\lvgl\src\core/lv_obj_class.c **** 
 479              		.loc 1 166 0
 480 0026 0020     		movs	r0, #0
 481              	.LVL55:
 482              	.L36:
 169:..\..\..\arduinoLCD\test\Pain Drain\libraries\lvgl\src\core/lv_obj_class.c **** 
 483              		.loc 1 169 0
 484              		@ sp needed
 485 0028 7047     		bx	lr
 486              		.cfi_endproc
 487              	.LFE163:
 488              		.size	lv_obj_is_group_def, .-lv_obj_is_group_def
 489 002a C046     		.section	.text.lv_obj_class_init_obj,"ax",%progbits
 490              		.align	2
 491              		.global	lv_obj_class_init_obj
 492              		.code	16
 493              		.thumb_func
 494              		.type	lv_obj_class_init_obj, %function
 495              	lv_obj_class_init_obj:
 496              	.LFB160:
 105:..\..\..\arduinoLCD\test\Pain Drain\libraries\lvgl\src\core/lv_obj_class.c ****     lv_obj_mark_layout_as_dirty(obj);
 497              		.loc 1 105 0
 498              		.cfi_startproc
 499              		@ args = 0, pretend = 0, frame = 0
 500              		@ frame_needed = 0, uses_anonymous_args = 0
 501              	.LVL56:
 502 0000 70B5     		push	{r4, r5, r6, lr}
 503              		.cfi_def_cfa_offset 16
 504              		.cfi_offset 4, -16
 505              		.cfi_offset 5, -12
 506              		.cfi_offset 6, -8
 507              		.cfi_offset 14, -4
 508 0002 0400     		movs	r4, r0
 106:..\..\..\arduinoLCD\test\Pain Drain\libraries\lvgl\src\core/lv_obj_class.c ****     lv_obj_enable_style_refresh(false);
 509              		.loc 1 106 0
 510 0004 FFF7FEFF 		bl	lv_obj_mark_layout_as_dirty
 511              	.LVL57:
 107:..\..\..\arduinoLCD\test\Pain Drain\libraries\lvgl\src\core/lv_obj_class.c **** 
 512              		.loc 1 107 0
 513 0008 0020     		movs	r0, #0
 514 000a FFF7FEFF 		bl	lv_obj_enable_style_refresh
 515              	.LVL58:
 109:..\..\..\arduinoLCD\test\Pain Drain\libraries\lvgl\src\core/lv_obj_class.c ****     lv_obj_construct(obj);
 516              		.loc 1 109 0
 517 000e 2000     		movs	r0, r4
 518 0010 FFF7FEFF 		bl	lv_theme_apply
 519              	.LVL59:
 110:..\..\..\arduinoLCD\test\Pain Drain\libraries\lvgl\src\core/lv_obj_class.c **** 
 520              		.loc 1 110 0
 521 0014 2000     		movs	r0, r4
 522 0016 FFF7FEFF 		bl	lv_obj_construct
 523              	.LVL60:
 112:..\..\..\arduinoLCD\test\Pain Drain\libraries\lvgl\src\core/lv_obj_class.c ****     lv_obj_refresh_style(obj, LV_PART_ANY, LV_STYLE_PROP_ANY);
ARM GAS  C:\Users\haske\AppData\Local\Temp\ccmHOPq6.s 			page 15


 524              		.loc 1 112 0
 525 001a 0120     		movs	r0, #1
 526 001c FFF7FEFF 		bl	lv_obj_enable_style_refresh
 527              	.LVL61:
 113:..\..\..\arduinoLCD\test\Pain Drain\libraries\lvgl\src\core/lv_obj_class.c **** 
 528              		.loc 1 113 0
 529 0020 134A     		ldr	r2, .L41
 530 0022 F021     		movs	r1, #240
 531 0024 0903     		lsls	r1, r1, #12
 532 0026 2000     		movs	r0, r4
 533 0028 FFF7FEFF 		bl	lv_obj_refresh_style
 534              	.LVL62:
 115:..\..\..\arduinoLCD\test\Pain Drain\libraries\lvgl\src\core/lv_obj_class.c **** 
 535              		.loc 1 115 0
 536 002c 2000     		movs	r0, r4
 537 002e FFF7FEFF 		bl	lv_obj_refresh_self_size
 538              	.LVL63:
 117:..\..\..\arduinoLCD\test\Pain Drain\libraries\lvgl\src\core/lv_obj_class.c ****     if(def_group && lv_obj_is_group_def(obj)) {
 539              		.loc 1 117 0
 540 0032 FFF7FEFF 		bl	lv_group_get_default
 541              	.LVL64:
 542 0036 051E     		subs	r5, r0, #0
 543              	.LVL65:
 118:..\..\..\arduinoLCD\test\Pain Drain\libraries\lvgl\src\core/lv_obj_class.c ****         lv_group_add_obj(def_group, obj);
 544              		.loc 1 118 0
 545 0038 08D0     		beq	.L39
 118:..\..\..\arduinoLCD\test\Pain Drain\libraries\lvgl\src\core/lv_obj_class.c ****         lv_group_add_obj(def_group, obj);
 546              		.loc 1 118 0 is_stmt 0 discriminator 1
 547 003a 2000     		movs	r0, r4
 548              	.LVL66:
 549 003c FFF7FEFF 		bl	lv_obj_is_group_def
 550              	.LVL67:
 551 0040 0028     		cmp	r0, #0
 552 0042 03D0     		beq	.L39
 119:..\..\..\arduinoLCD\test\Pain Drain\libraries\lvgl\src\core/lv_obj_class.c ****     }
 553              		.loc 1 119 0 is_stmt 1
 554 0044 2100     		movs	r1, r4
 555 0046 2800     		movs	r0, r5
 556 0048 FFF7FEFF 		bl	lv_group_add_obj
 557              	.LVL68:
 558              	.L39:
 122:..\..\..\arduinoLCD\test\Pain Drain\libraries\lvgl\src\core/lv_obj_class.c ****     if(parent) {
 559              		.loc 1 122 0
 560 004c 2000     		movs	r0, r4
 561 004e FFF7FEFF 		bl	lv_obj_get_parent
 562              	.LVL69:
 563 0052 051E     		subs	r5, r0, #0
 564              	.LVL70:
 123:..\..\..\arduinoLCD\test\Pain Drain\libraries\lvgl\src\core/lv_obj_class.c ****         /*Call the ancestor's event handler to the parent to notify it about the new child.
 565              		.loc 1 123 0
 566 0054 0BD0     		beq	.L38
 126:..\..\..\arduinoLCD\test\Pain Drain\libraries\lvgl\src\core/lv_obj_class.c ****         lv_event_send(parent, LV_EVENT_CHILD_CREATED, obj);
 567              		.loc 1 126 0
 568 0056 2200     		movs	r2, r4
 569 0058 2221     		movs	r1, #34
 570 005a FFF7FEFF 		bl	lv_event_send
 571              	.LVL71:
ARM GAS  C:\Users\haske\AppData\Local\Temp\ccmHOPq6.s 			page 16


 127:..\..\..\arduinoLCD\test\Pain Drain\libraries\lvgl\src\core/lv_obj_class.c **** 
 572              		.loc 1 127 0
 573 005e 2200     		movs	r2, r4
 574 0060 2321     		movs	r1, #35
 575 0062 2800     		movs	r0, r5
 576 0064 FFF7FEFF 		bl	lv_event_send
 577              	.LVL72:
 130:..\..\..\arduinoLCD\test\Pain Drain\libraries\lvgl\src\core/lv_obj_class.c ****     }
 578              		.loc 1 130 0
 579 0068 2000     		movs	r0, r4
 580 006a FFF7FEFF 		bl	lv_obj_invalidate
 581              	.LVL73:
 582              	.L38:
 132:..\..\..\arduinoLCD\test\Pain Drain\libraries\lvgl\src\core/lv_obj_class.c **** 
 583              		.loc 1 132 0
 584              		@ sp needed
 585              	.LVL74:
 586              	.LVL75:
 587 006e 70BD     		pop	{r4, r5, r6, pc}
 588              	.L42:
 589              		.align	2
 590              	.L41:
 591 0070 FFFF0000 		.word	65535
 592              		.cfi_endproc
 593              	.LFE160:
 594              		.size	lv_obj_class_init_obj, .-lv_obj_class_init_obj
 595              		.text
 596              	.Letext0:
 597              		.file 2 "c:\\program files (x86)\\cypress\\psoc creator\\4.4\\psoc creator\\import\\gnu\\arm\\5.4.
 598              		.file 3 "c:\\program files (x86)\\cypress\\psoc creator\\4.4\\psoc creator\\import\\gnu\\arm\\5.4.
 599              		.file 4 "c:\\program files (x86)\\cypress\\psoc creator\\4.4\\psoc creator\\import\\gnu\\arm\\5.4.
 600              		.file 5 "c:\\projects\\paindrain\\arduinolcd\\test\\pain drain\\libraries\\lvgl\\src\\misc\\lv_are
 601              		.file 6 "c:\\projects\\paindrain\\arduinolcd\\test\\pain drain\\libraries\\lvgl\\src\\font\\lv_fon
 602              		.file 7 "..\\..\\..\\arduinoLCD\\test\\Pain Drain\\libraries\\lvgl\\src\\core\\../misc/lv_types.h"
 603              		.file 8 "..\\..\\..\\arduinoLCD\\test\\Pain Drain\\libraries\\lvgl\\src\\core\\../misc/lv_color.h"
 604              		.file 9 "..\\..\\..\\arduinoLCD\\test\\Pain Drain\\libraries\\lvgl\\src\\core\\../misc/lv_txt.h"
 605              		.file 10 "..\\..\\..\\arduinoLCD\\test\\Pain Drain\\libraries\\lvgl\\src\\core\\../misc/lv_bidi.h"
 606              		.file 11 "..\\..\\..\\arduinoLCD\\test\\Pain Drain\\libraries\\lvgl\\src\\core\\../misc/lv_style.h
 607              		.file 12 "c:\\projects\\paindrain\\arduinolcd\\test\\pain drain\\libraries\\lvgl\\src\\draw\\lv_im
 608              		.file 13 "..\\..\\..\\arduinoLCD\\test\\Pain Drain\\libraries\\lvgl\\src\\core\\lv_obj.h"
 609              		.file 14 "c:\\projects\\paindrain\\arduinolcd\\test\\pain drain\\libraries\\lvgl\\src\\draw\\lv_dr
 610              		.file 15 "c:\\projects\\paindrain\\arduinolcd\\test\\pain drain\\libraries\\lvgl\\src\\draw\\lv_dr
 611              		.file 16 "c:\\projects\\paindrain\\arduinolcd\\test\\pain drain\\libraries\\lvgl\\src\\draw\\lv_dr
 612              		.file 17 "c:\\projects\\paindrain\\arduinolcd\\test\\pain drain\\libraries\\lvgl\\src\\draw\\lv_dr
 613              		.file 18 "c:\\projects\\paindrain\\arduinolcd\\test\\pain drain\\libraries\\lvgl\\src\\draw\\lv_dr
 614              		.file 19 "c:\\projects\\paindrain\\arduinolcd\\test\\pain drain\\libraries\\lvgl\\src\\draw\\lv_dr
 615              		.file 20 "c:\\projects\\paindrain\\arduinolcd\\test\\pain drain\\libraries\\lvgl\\src\\draw\\lv_dr
 616              		.file 21 "c:\\projects\\paindrain\\arduinolcd\\test\\pain drain\\libraries\\lvgl\\src\\misc\\lv_ll
 617              		.file 22 "c:\\projects\\paindrain\\arduinolcd\\test\\pain drain\\libraries\\lvgl\\src\\misc\\lv_ti
 618              		.file 23 "..\\..\\..\\arduinoLCD\\test\\Pain Drain\\libraries\\lvgl\\src\\core\\../hal/lv_hal_disp
 619              		.file 24 "..\\..\\..\\arduinoLCD\\test\\Pain Drain\\libraries\\lvgl\\src\\core\\lv_theme.h"
 620              		.file 25 "..\\..\\..\\arduinoLCD\\test\\Pain Drain\\libraries\\lvgl\\src\\core\\lv_group.h"
 621              		.file 26 "..\\..\\..\\arduinoLCD\\test\\Pain Drain\\libraries\\lvgl\\src\\core\\lv_obj_scroll.h"
 622              		.file 27 "..\\..\\..\\arduinoLCD\\test\\Pain Drain\\libraries\\lvgl\\src\\core\\lv_obj_style.h"
 623              		.file 28 "..\\..\\..\\arduinoLCD\\test\\Pain Drain\\libraries\\lvgl\\src\\core\\lv_obj_class.h"
 624              		.file 29 "..\\..\\..\\arduinoLCD\\test\\Pain Drain\\libraries\\lvgl\\src\\core\\lv_event.h"
 625              		.file 30 "..\\..\\..\\arduinoLCD\\test\\Pain Drain\\libraries\\lvgl\\src\\core\\../misc/lv_mem.h"
ARM GAS  C:\Users\haske\AppData\Local\Temp\ccmHOPq6.s 			page 17


 626              		.file 31 "c:\\projects\\paindrain\\arduinolcd\\test\\pain drain\\libraries\\lvgl\\src\\core\\lv_ob
 627              		.file 32 "..\\..\\..\\arduinoLCD\\test\\Pain Drain\\libraries\\lvgl\\src\\core\\lv_obj_tree.h"