ARM GAS  C:\Users\haske\AppData\Local\Temp\cc0eRFVw.s 			page 1


   1              		.syntax unified
   2              		.cpu cortex-m0plus
   3              		.fpu softvfp
   4              		.eabi_attribute 20, 1
   5              		.eabi_attribute 21, 1
   6              		.eabi_attribute 23, 3
   7              		.eabi_attribute 24, 1
   8              		.eabi_attribute 25, 1
   9              		.eabi_attribute 26, 1
  10              		.eabi_attribute 30, 1
  11              		.eabi_attribute 34, 0
  12              		.eabi_attribute 18, 4
  13              		.thumb
  14              		.syntax unified
  15              		.file	"lv_obj_style_gen.c"
  16              		.text
  17              	.Ltext0:
  18              		.cfi_sections	.debug_frame
  19              		.section	.text.lv_obj_set_style_width,"ax",%progbits
  20              		.align	2
  21              		.global	lv_obj_set_style_width
  22              		.code	16
  23              		.thumb_func
  24              		.type	lv_obj_set_style_width, %function
  25              	lv_obj_set_style_width:
  26              	.LFB159:
  27              		.file 1 "..\\..\\..\\arduinoLCD\\test\\Pain Drain\\libraries\\lvgl\\src\\core\\lv_obj_style_gen.c"
   1:..\..\..\arduinoLCD\test\Pain Drain\libraries\lvgl\src\core/lv_obj_style_gen.c **** #include "lv_obj.h"
   2:..\..\..\arduinoLCD\test\Pain Drain\libraries\lvgl\src\core/lv_obj_style_gen.c **** 
   3:..\..\..\arduinoLCD\test\Pain Drain\libraries\lvgl\src\core/lv_obj_style_gen.c **** void lv_obj_set_style_width(struct _lv_obj_t * obj, lv_coord_t value, lv_style_selector_t selector)
   4:..\..\..\arduinoLCD\test\Pain Drain\libraries\lvgl\src\core/lv_obj_style_gen.c **** {
  28              		.loc 1 4 0
  29              		.cfi_startproc
  30              		@ args = 0, pretend = 0, frame = 0
  31              		@ frame_needed = 0, uses_anonymous_args = 0
  32              	.LVL0:
  33 0000 10B5     		push	{r4, lr}
  34              		.cfi_def_cfa_offset 8
  35              		.cfi_offset 4, -8
  36              		.cfi_offset 14, -4
  37 0002 1300     		movs	r3, r2
   5:..\..\..\arduinoLCD\test\Pain Drain\libraries\lvgl\src\core/lv_obj_style_gen.c ****     lv_style_value_t v = {
   6:..\..\..\arduinoLCD\test\Pain Drain\libraries\lvgl\src\core/lv_obj_style_gen.c ****         .num = (int32_t)value
   7:..\..\..\arduinoLCD\test\Pain Drain\libraries\lvgl\src\core/lv_obj_style_gen.c ****     };
   8:..\..\..\arduinoLCD\test\Pain Drain\libraries\lvgl\src\core/lv_obj_style_gen.c ****     lv_obj_set_local_style_prop(obj, LV_STYLE_WIDTH, v, selector);
  38              		.loc 1 8 0
  39 0004 0A00     		movs	r2, r1
  40              	.LVL1:
  41 0006 0121     		movs	r1, #1
  42              	.LVL2:
  43 0008 FFF7FEFF 		bl	lv_obj_set_local_style_prop
  44              	.LVL3:
   9:..\..\..\arduinoLCD\test\Pain Drain\libraries\lvgl\src\core/lv_obj_style_gen.c **** }
  45              		.loc 1 9 0
  46              		@ sp needed
  47 000c 10BD     		pop	{r4, pc}
  48              		.cfi_endproc
ARM GAS  C:\Users\haske\AppData\Local\Temp\cc0eRFVw.s 			page 2


  49              	.LFE159:
  50              		.size	lv_obj_set_style_width, .-lv_obj_set_style_width
  51 000e C046     		.section	.text.lv_obj_set_style_min_width,"ax",%progbits
  52              		.align	2
  53              		.global	lv_obj_set_style_min_width
  54              		.code	16
  55              		.thumb_func
  56              		.type	lv_obj_set_style_min_width, %function
  57              	lv_obj_set_style_min_width:
  58              	.LFB160:
  10:..\..\..\arduinoLCD\test\Pain Drain\libraries\lvgl\src\core/lv_obj_style_gen.c **** 
  11:..\..\..\arduinoLCD\test\Pain Drain\libraries\lvgl\src\core/lv_obj_style_gen.c **** void lv_obj_set_style_min_width(struct _lv_obj_t * obj, lv_coord_t value, lv_style_selector_t selec
  12:..\..\..\arduinoLCD\test\Pain Drain\libraries\lvgl\src\core/lv_obj_style_gen.c **** {
  59              		.loc 1 12 0
  60              		.cfi_startproc
  61              		@ args = 0, pretend = 0, frame = 0
  62              		@ frame_needed = 0, uses_anonymous_args = 0
  63              	.LVL4:
  64 0000 10B5     		push	{r4, lr}
  65              		.cfi_def_cfa_offset 8
  66              		.cfi_offset 4, -8
  67              		.cfi_offset 14, -4
  68 0002 1300     		movs	r3, r2
  13:..\..\..\arduinoLCD\test\Pain Drain\libraries\lvgl\src\core/lv_obj_style_gen.c ****     lv_style_value_t v = {
  14:..\..\..\arduinoLCD\test\Pain Drain\libraries\lvgl\src\core/lv_obj_style_gen.c ****         .num = (int32_t)value
  15:..\..\..\arduinoLCD\test\Pain Drain\libraries\lvgl\src\core/lv_obj_style_gen.c ****     };
  16:..\..\..\arduinoLCD\test\Pain Drain\libraries\lvgl\src\core/lv_obj_style_gen.c ****     lv_obj_set_local_style_prop(obj, LV_STYLE_MIN_WIDTH, v, selector);
  69              		.loc 1 16 0
  70 0004 0A00     		movs	r2, r1
  71              	.LVL5:
  72 0006 0221     		movs	r1, #2
  73              	.LVL6:
  74 0008 FFF7FEFF 		bl	lv_obj_set_local_style_prop
  75              	.LVL7:
  17:..\..\..\arduinoLCD\test\Pain Drain\libraries\lvgl\src\core/lv_obj_style_gen.c **** }
  76              		.loc 1 17 0
  77              		@ sp needed
  78 000c 10BD     		pop	{r4, pc}
  79              		.cfi_endproc
  80              	.LFE160:
  81              		.size	lv_obj_set_style_min_width, .-lv_obj_set_style_min_width
  82 000e C046     		.section	.text.lv_obj_set_style_max_width,"ax",%progbits
  83              		.align	2
  84              		.global	lv_obj_set_style_max_width
  85              		.code	16
  86              		.thumb_func
  87              		.type	lv_obj_set_style_max_width, %function
  88              	lv_obj_set_style_max_width:
  89              	.LFB161:
  18:..\..\..\arduinoLCD\test\Pain Drain\libraries\lvgl\src\core/lv_obj_style_gen.c **** 
  19:..\..\..\arduinoLCD\test\Pain Drain\libraries\lvgl\src\core/lv_obj_style_gen.c **** void lv_obj_set_style_max_width(struct _lv_obj_t * obj, lv_coord_t value, lv_style_selector_t selec
  20:..\..\..\arduinoLCD\test\Pain Drain\libraries\lvgl\src\core/lv_obj_style_gen.c **** {
  90              		.loc 1 20 0
  91              		.cfi_startproc
  92              		@ args = 0, pretend = 0, frame = 0
  93              		@ frame_needed = 0, uses_anonymous_args = 0
  94              	.LVL8:
ARM GAS  C:\Users\haske\AppData\Local\Temp\cc0eRFVw.s 			page 3


  95 0000 10B5     		push	{r4, lr}
  96              		.cfi_def_cfa_offset 8
  97              		.cfi_offset 4, -8
  98              		.cfi_offset 14, -4
  99 0002 1300     		movs	r3, r2
  21:..\..\..\arduinoLCD\test\Pain Drain\libraries\lvgl\src\core/lv_obj_style_gen.c ****     lv_style_value_t v = {
  22:..\..\..\arduinoLCD\test\Pain Drain\libraries\lvgl\src\core/lv_obj_style_gen.c ****         .num = (int32_t)value
  23:..\..\..\arduinoLCD\test\Pain Drain\libraries\lvgl\src\core/lv_obj_style_gen.c ****     };
  24:..\..\..\arduinoLCD\test\Pain Drain\libraries\lvgl\src\core/lv_obj_style_gen.c ****     lv_obj_set_local_style_prop(obj, LV_STYLE_MAX_WIDTH, v, selector);
 100              		.loc 1 24 0
 101 0004 0A00     		movs	r2, r1
 102              	.LVL9:
 103 0006 0321     		movs	r1, #3
 104              	.LVL10:
 105 0008 FFF7FEFF 		bl	lv_obj_set_local_style_prop
 106              	.LVL11:
  25:..\..\..\arduinoLCD\test\Pain Drain\libraries\lvgl\src\core/lv_obj_style_gen.c **** }
 107              		.loc 1 25 0
 108              		@ sp needed
 109 000c 10BD     		pop	{r4, pc}
 110              		.cfi_endproc
 111              	.LFE161:
 112              		.size	lv_obj_set_style_max_width, .-lv_obj_set_style_max_width
 113 000e C046     		.section	.text.lv_obj_set_style_height,"ax",%progbits
 114              		.align	2
 115              		.global	lv_obj_set_style_height
 116              		.code	16
 117              		.thumb_func
 118              		.type	lv_obj_set_style_height, %function
 119              	lv_obj_set_style_height:
 120              	.LFB162:
  26:..\..\..\arduinoLCD\test\Pain Drain\libraries\lvgl\src\core/lv_obj_style_gen.c **** 
  27:..\..\..\arduinoLCD\test\Pain Drain\libraries\lvgl\src\core/lv_obj_style_gen.c **** void lv_obj_set_style_height(struct _lv_obj_t * obj, lv_coord_t value, lv_style_selector_t selector
  28:..\..\..\arduinoLCD\test\Pain Drain\libraries\lvgl\src\core/lv_obj_style_gen.c **** {
 121              		.loc 1 28 0
 122              		.cfi_startproc
 123              		@ args = 0, pretend = 0, frame = 0
 124              		@ frame_needed = 0, uses_anonymous_args = 0
 125              	.LVL12:
 126 0000 10B5     		push	{r4, lr}
 127              		.cfi_def_cfa_offset 8
 128              		.cfi_offset 4, -8
 129              		.cfi_offset 14, -4
 130 0002 1300     		movs	r3, r2
  29:..\..\..\arduinoLCD\test\Pain Drain\libraries\lvgl\src\core/lv_obj_style_gen.c ****     lv_style_value_t v = {
  30:..\..\..\arduinoLCD\test\Pain Drain\libraries\lvgl\src\core/lv_obj_style_gen.c ****         .num = (int32_t)value
  31:..\..\..\arduinoLCD\test\Pain Drain\libraries\lvgl\src\core/lv_obj_style_gen.c ****     };
  32:..\..\..\arduinoLCD\test\Pain Drain\libraries\lvgl\src\core/lv_obj_style_gen.c ****     lv_obj_set_local_style_prop(obj, LV_STYLE_HEIGHT, v, selector);
 131              		.loc 1 32 0
 132 0004 0A00     		movs	r2, r1
 133              	.LVL13:
 134 0006 0421     		movs	r1, #4
 135              	.LVL14:
 136 0008 FFF7FEFF 		bl	lv_obj_set_local_style_prop
 137              	.LVL15:
  33:..\..\..\arduinoLCD\test\Pain Drain\libraries\lvgl\src\core/lv_obj_style_gen.c **** }
 138              		.loc 1 33 0
ARM GAS  C:\Users\haske\AppData\Local\Temp\cc0eRFVw.s 			page 4


 139              		@ sp needed
 140 000c 10BD     		pop	{r4, pc}
 141              		.cfi_endproc
 142              	.LFE162:
 143              		.size	lv_obj_set_style_height, .-lv_obj_set_style_height
 144 000e C046     		.section	.text.lv_obj_set_style_min_height,"ax",%progbits
 145              		.align	2
 146              		.global	lv_obj_set_style_min_height
 147              		.code	16
 148              		.thumb_func
 149              		.type	lv_obj_set_style_min_height, %function
 150              	lv_obj_set_style_min_height:
 151              	.LFB163:
  34:..\..\..\arduinoLCD\test\Pain Drain\libraries\lvgl\src\core/lv_obj_style_gen.c **** 
  35:..\..\..\arduinoLCD\test\Pain Drain\libraries\lvgl\src\core/lv_obj_style_gen.c **** void lv_obj_set_style_min_height(struct _lv_obj_t * obj, lv_coord_t value, lv_style_selector_t sele
  36:..\..\..\arduinoLCD\test\Pain Drain\libraries\lvgl\src\core/lv_obj_style_gen.c **** {
 152              		.loc 1 36 0
 153              		.cfi_startproc
 154              		@ args = 0, pretend = 0, frame = 0
 155              		@ frame_needed = 0, uses_anonymous_args = 0
 156              	.LVL16:
 157 0000 10B5     		push	{r4, lr}
 158              		.cfi_def_cfa_offset 8
 159              		.cfi_offset 4, -8
 160              		.cfi_offset 14, -4
 161 0002 1300     		movs	r3, r2
  37:..\..\..\arduinoLCD\test\Pain Drain\libraries\lvgl\src\core/lv_obj_style_gen.c ****     lv_style_value_t v = {
  38:..\..\..\arduinoLCD\test\Pain Drain\libraries\lvgl\src\core/lv_obj_style_gen.c ****         .num = (int32_t)value
  39:..\..\..\arduinoLCD\test\Pain Drain\libraries\lvgl\src\core/lv_obj_style_gen.c ****     };
  40:..\..\..\arduinoLCD\test\Pain Drain\libraries\lvgl\src\core/lv_obj_style_gen.c ****     lv_obj_set_local_style_prop(obj, LV_STYLE_MIN_HEIGHT, v, selector);
 162              		.loc 1 40 0
 163 0004 0A00     		movs	r2, r1
 164              	.LVL17:
 165 0006 0521     		movs	r1, #5
 166              	.LVL18:
 167 0008 FFF7FEFF 		bl	lv_obj_set_local_style_prop
 168              	.LVL19:
  41:..\..\..\arduinoLCD\test\Pain Drain\libraries\lvgl\src\core/lv_obj_style_gen.c **** }
 169              		.loc 1 41 0
 170              		@ sp needed
 171 000c 10BD     		pop	{r4, pc}
 172              		.cfi_endproc
 173              	.LFE163:
 174              		.size	lv_obj_set_style_min_height, .-lv_obj_set_style_min_height
 175 000e C046     		.section	.text.lv_obj_set_style_max_height,"ax",%progbits
 176              		.align	2
 177              		.global	lv_obj_set_style_max_height
 178              		.code	16
 179              		.thumb_func
 180              		.type	lv_obj_set_style_max_height, %function
 181              	lv_obj_set_style_max_height:
 182              	.LFB164:
  42:..\..\..\arduinoLCD\test\Pain Drain\libraries\lvgl\src\core/lv_obj_style_gen.c **** 
  43:..\..\..\arduinoLCD\test\Pain Drain\libraries\lvgl\src\core/lv_obj_style_gen.c **** void lv_obj_set_style_max_height(struct _lv_obj_t * obj, lv_coord_t value, lv_style_selector_t sele
  44:..\..\..\arduinoLCD\test\Pain Drain\libraries\lvgl\src\core/lv_obj_style_gen.c **** {
 183              		.loc 1 44 0
 184              		.cfi_startproc
ARM GAS  C:\Users\haske\AppData\Local\Temp\cc0eRFVw.s 			page 5


 185              		@ args = 0, pretend = 0, frame = 0
 186              		@ frame_needed = 0, uses_anonymous_args = 0
 187              	.LVL20:
 188 0000 10B5     		push	{r4, lr}
 189              		.cfi_def_cfa_offset 8
 190              		.cfi_offset 4, -8
 191              		.cfi_offset 14, -4
 192 0002 1300     		movs	r3, r2
  45:..\..\..\arduinoLCD\test\Pain Drain\libraries\lvgl\src\core/lv_obj_style_gen.c ****     lv_style_value_t v = {
  46:..\..\..\arduinoLCD\test\Pain Drain\libraries\lvgl\src\core/lv_obj_style_gen.c ****         .num = (int32_t)value
  47:..\..\..\arduinoLCD\test\Pain Drain\libraries\lvgl\src\core/lv_obj_style_gen.c ****     };
  48:..\..\..\arduinoLCD\test\Pain Drain\libraries\lvgl\src\core/lv_obj_style_gen.c ****     lv_obj_set_local_style_prop(obj, LV_STYLE_MAX_HEIGHT, v, selector);
 193              		.loc 1 48 0
 194 0004 0A00     		movs	r2, r1
 195              	.LVL21:
 196 0006 0621     		movs	r1, #6
 197              	.LVL22:
 198 0008 FFF7FEFF 		bl	lv_obj_set_local_style_prop
 199              	.LVL23:
  49:..\..\..\arduinoLCD\test\Pain Drain\libraries\lvgl\src\core/lv_obj_style_gen.c **** }
 200              		.loc 1 49 0
 201              		@ sp needed
 202 000c 10BD     		pop	{r4, pc}
 203              		.cfi_endproc
 204              	.LFE164:
 205              		.size	lv_obj_set_style_max_height, .-lv_obj_set_style_max_height
 206 000e C046     		.section	.text.lv_obj_set_style_x,"ax",%progbits
 207              		.align	2
 208              		.global	lv_obj_set_style_x
 209              		.code	16
 210              		.thumb_func
 211              		.type	lv_obj_set_style_x, %function
 212              	lv_obj_set_style_x:
 213              	.LFB165:
  50:..\..\..\arduinoLCD\test\Pain Drain\libraries\lvgl\src\core/lv_obj_style_gen.c **** 
  51:..\..\..\arduinoLCD\test\Pain Drain\libraries\lvgl\src\core/lv_obj_style_gen.c **** void lv_obj_set_style_x(struct _lv_obj_t * obj, lv_coord_t value, lv_style_selector_t selector)
  52:..\..\..\arduinoLCD\test\Pain Drain\libraries\lvgl\src\core/lv_obj_style_gen.c **** {
 214              		.loc 1 52 0
 215              		.cfi_startproc
 216              		@ args = 0, pretend = 0, frame = 0
 217              		@ frame_needed = 0, uses_anonymous_args = 0
 218              	.LVL24:
 219 0000 10B5     		push	{r4, lr}
 220              		.cfi_def_cfa_offset 8
 221              		.cfi_offset 4, -8
 222              		.cfi_offset 14, -4
 223 0002 1300     		movs	r3, r2
  53:..\..\..\arduinoLCD\test\Pain Drain\libraries\lvgl\src\core/lv_obj_style_gen.c ****     lv_style_value_t v = {
  54:..\..\..\arduinoLCD\test\Pain Drain\libraries\lvgl\src\core/lv_obj_style_gen.c ****         .num = (int32_t)value
  55:..\..\..\arduinoLCD\test\Pain Drain\libraries\lvgl\src\core/lv_obj_style_gen.c ****     };
  56:..\..\..\arduinoLCD\test\Pain Drain\libraries\lvgl\src\core/lv_obj_style_gen.c ****     lv_obj_set_local_style_prop(obj, LV_STYLE_X, v, selector);
 224              		.loc 1 56 0
 225 0004 0A00     		movs	r2, r1
 226              	.LVL25:
 227 0006 0721     		movs	r1, #7
 228              	.LVL26:
 229 0008 FFF7FEFF 		bl	lv_obj_set_local_style_prop
ARM GAS  C:\Users\haske\AppData\Local\Temp\cc0eRFVw.s 			page 6


 230              	.LVL27:
  57:..\..\..\arduinoLCD\test\Pain Drain\libraries\lvgl\src\core/lv_obj_style_gen.c **** }
 231              		.loc 1 57 0
 232              		@ sp needed
 233 000c 10BD     		pop	{r4, pc}
 234              		.cfi_endproc
 235              	.LFE165:
 236              		.size	lv_obj_set_style_x, .-lv_obj_set_style_x
 237 000e C046     		.section	.text.lv_obj_set_style_y,"ax",%progbits
 238              		.align	2
 239              		.global	lv_obj_set_style_y
 240              		.code	16
 241              		.thumb_func
 242              		.type	lv_obj_set_style_y, %function
 243              	lv_obj_set_style_y:
 244              	.LFB166:
  58:..\..\..\arduinoLCD\test\Pain Drain\libraries\lvgl\src\core/lv_obj_style_gen.c **** 
  59:..\..\..\arduinoLCD\test\Pain Drain\libraries\lvgl\src\core/lv_obj_style_gen.c **** void lv_obj_set_style_y(struct _lv_obj_t * obj, lv_coord_t value, lv_style_selector_t selector)
  60:..\..\..\arduinoLCD\test\Pain Drain\libraries\lvgl\src\core/lv_obj_style_gen.c **** {
 245              		.loc 1 60 0
 246              		.cfi_startproc
 247              		@ args = 0, pretend = 0, frame = 0
 248              		@ frame_needed = 0, uses_anonymous_args = 0
 249              	.LVL28:
 250 0000 10B5     		push	{r4, lr}
 251              		.cfi_def_cfa_offset 8
 252              		.cfi_offset 4, -8
 253              		.cfi_offset 14, -4
 254 0002 1300     		movs	r3, r2
  61:..\..\..\arduinoLCD\test\Pain Drain\libraries\lvgl\src\core/lv_obj_style_gen.c ****     lv_style_value_t v = {
  62:..\..\..\arduinoLCD\test\Pain Drain\libraries\lvgl\src\core/lv_obj_style_gen.c ****         .num = (int32_t)value
  63:..\..\..\arduinoLCD\test\Pain Drain\libraries\lvgl\src\core/lv_obj_style_gen.c ****     };
  64:..\..\..\arduinoLCD\test\Pain Drain\libraries\lvgl\src\core/lv_obj_style_gen.c ****     lv_obj_set_local_style_prop(obj, LV_STYLE_Y, v, selector);
 255              		.loc 1 64 0
 256 0004 0A00     		movs	r2, r1
 257              	.LVL29:
 258 0006 0821     		movs	r1, #8
 259              	.LVL30:
 260 0008 FFF7FEFF 		bl	lv_obj_set_local_style_prop
 261              	.LVL31:
  65:..\..\..\arduinoLCD\test\Pain Drain\libraries\lvgl\src\core/lv_obj_style_gen.c **** }
 262              		.loc 1 65 0
 263              		@ sp needed
 264 000c 10BD     		pop	{r4, pc}
 265              		.cfi_endproc
 266              	.LFE166:
 267              		.size	lv_obj_set_style_y, .-lv_obj_set_style_y
 268 000e C046     		.section	.text.lv_obj_set_style_align,"ax",%progbits
 269              		.align	2
 270              		.global	lv_obj_set_style_align
 271              		.code	16
 272              		.thumb_func
 273              		.type	lv_obj_set_style_align, %function
 274              	lv_obj_set_style_align:
 275              	.LFB167:
  66:..\..\..\arduinoLCD\test\Pain Drain\libraries\lvgl\src\core/lv_obj_style_gen.c **** 
  67:..\..\..\arduinoLCD\test\Pain Drain\libraries\lvgl\src\core/lv_obj_style_gen.c **** void lv_obj_set_style_align(struct _lv_obj_t * obj, lv_align_t value, lv_style_selector_t selector)
ARM GAS  C:\Users\haske\AppData\Local\Temp\cc0eRFVw.s 			page 7


  68:..\..\..\arduinoLCD\test\Pain Drain\libraries\lvgl\src\core/lv_obj_style_gen.c **** {
 276              		.loc 1 68 0
 277              		.cfi_startproc
 278              		@ args = 0, pretend = 0, frame = 0
 279              		@ frame_needed = 0, uses_anonymous_args = 0
 280              	.LVL32:
 281 0000 10B5     		push	{r4, lr}
 282              		.cfi_def_cfa_offset 8
 283              		.cfi_offset 4, -8
 284              		.cfi_offset 14, -4
 285 0002 1300     		movs	r3, r2
  69:..\..\..\arduinoLCD\test\Pain Drain\libraries\lvgl\src\core/lv_obj_style_gen.c ****     lv_style_value_t v = {
  70:..\..\..\arduinoLCD\test\Pain Drain\libraries\lvgl\src\core/lv_obj_style_gen.c ****         .num = (int32_t)value
  71:..\..\..\arduinoLCD\test\Pain Drain\libraries\lvgl\src\core/lv_obj_style_gen.c ****     };
  72:..\..\..\arduinoLCD\test\Pain Drain\libraries\lvgl\src\core/lv_obj_style_gen.c ****     lv_obj_set_local_style_prop(obj, LV_STYLE_ALIGN, v, selector);
 286              		.loc 1 72 0
 287 0004 0A00     		movs	r2, r1
 288              	.LVL33:
 289 0006 0921     		movs	r1, #9
 290              	.LVL34:
 291 0008 FFF7FEFF 		bl	lv_obj_set_local_style_prop
 292              	.LVL35:
  73:..\..\..\arduinoLCD\test\Pain Drain\libraries\lvgl\src\core/lv_obj_style_gen.c **** }
 293              		.loc 1 73 0
 294              		@ sp needed
 295 000c 10BD     		pop	{r4, pc}
 296              		.cfi_endproc
 297              	.LFE167:
 298              		.size	lv_obj_set_style_align, .-lv_obj_set_style_align
 299 000e C046     		.section	.text.lv_obj_set_style_transform_width,"ax",%progbits
 300              		.align	2
 301              		.global	lv_obj_set_style_transform_width
 302              		.code	16
 303              		.thumb_func
 304              		.type	lv_obj_set_style_transform_width, %function
 305              	lv_obj_set_style_transform_width:
 306              	.LFB168:
  74:..\..\..\arduinoLCD\test\Pain Drain\libraries\lvgl\src\core/lv_obj_style_gen.c **** 
  75:..\..\..\arduinoLCD\test\Pain Drain\libraries\lvgl\src\core/lv_obj_style_gen.c **** void lv_obj_set_style_transform_width(struct _lv_obj_t * obj, lv_coord_t value, lv_style_selector_t
  76:..\..\..\arduinoLCD\test\Pain Drain\libraries\lvgl\src\core/lv_obj_style_gen.c **** {
 307              		.loc 1 76 0
 308              		.cfi_startproc
 309              		@ args = 0, pretend = 0, frame = 0
 310              		@ frame_needed = 0, uses_anonymous_args = 0
 311              	.LVL36:
 312 0000 10B5     		push	{r4, lr}
 313              		.cfi_def_cfa_offset 8
 314              		.cfi_offset 4, -8
 315              		.cfi_offset 14, -4
 316 0002 1300     		movs	r3, r2
  77:..\..\..\arduinoLCD\test\Pain Drain\libraries\lvgl\src\core/lv_obj_style_gen.c ****     lv_style_value_t v = {
  78:..\..\..\arduinoLCD\test\Pain Drain\libraries\lvgl\src\core/lv_obj_style_gen.c ****         .num = (int32_t)value
  79:..\..\..\arduinoLCD\test\Pain Drain\libraries\lvgl\src\core/lv_obj_style_gen.c ****     };
  80:..\..\..\arduinoLCD\test\Pain Drain\libraries\lvgl\src\core/lv_obj_style_gen.c ****     lv_obj_set_local_style_prop(obj, LV_STYLE_TRANSFORM_WIDTH, v, selector);
 317              		.loc 1 80 0
 318 0004 0A00     		movs	r2, r1
 319              	.LVL37:
ARM GAS  C:\Users\haske\AppData\Local\Temp\cc0eRFVw.s 			page 8


 320 0006 6821     		movs	r1, #104
 321              	.LVL38:
 322 0008 FFF7FEFF 		bl	lv_obj_set_local_style_prop
 323              	.LVL39:
  81:..\..\..\arduinoLCD\test\Pain Drain\libraries\lvgl\src\core/lv_obj_style_gen.c **** }
 324              		.loc 1 81 0
 325              		@ sp needed
 326 000c 10BD     		pop	{r4, pc}
 327              		.cfi_endproc
 328              	.LFE168:
 329              		.size	lv_obj_set_style_transform_width, .-lv_obj_set_style_transform_width
 330 000e C046     		.section	.text.lv_obj_set_style_transform_height,"ax",%progbits
 331              		.align	2
 332              		.global	lv_obj_set_style_transform_height
 333              		.code	16
 334              		.thumb_func
 335              		.type	lv_obj_set_style_transform_height, %function
 336              	lv_obj_set_style_transform_height:
 337              	.LFB169:
  82:..\..\..\arduinoLCD\test\Pain Drain\libraries\lvgl\src\core/lv_obj_style_gen.c **** 
  83:..\..\..\arduinoLCD\test\Pain Drain\libraries\lvgl\src\core/lv_obj_style_gen.c **** void lv_obj_set_style_transform_height(struct _lv_obj_t * obj, lv_coord_t value, lv_style_selector_
  84:..\..\..\arduinoLCD\test\Pain Drain\libraries\lvgl\src\core/lv_obj_style_gen.c **** {
 338              		.loc 1 84 0
 339              		.cfi_startproc
 340              		@ args = 0, pretend = 0, frame = 0
 341              		@ frame_needed = 0, uses_anonymous_args = 0
 342              	.LVL40:
 343 0000 10B5     		push	{r4, lr}
 344              		.cfi_def_cfa_offset 8
 345              		.cfi_offset 4, -8
 346              		.cfi_offset 14, -4
 347 0002 1300     		movs	r3, r2
  85:..\..\..\arduinoLCD\test\Pain Drain\libraries\lvgl\src\core/lv_obj_style_gen.c ****     lv_style_value_t v = {
  86:..\..\..\arduinoLCD\test\Pain Drain\libraries\lvgl\src\core/lv_obj_style_gen.c ****         .num = (int32_t)value
  87:..\..\..\arduinoLCD\test\Pain Drain\libraries\lvgl\src\core/lv_obj_style_gen.c ****     };
  88:..\..\..\arduinoLCD\test\Pain Drain\libraries\lvgl\src\core/lv_obj_style_gen.c ****     lv_obj_set_local_style_prop(obj, LV_STYLE_TRANSFORM_HEIGHT, v, selector);
 348              		.loc 1 88 0
 349 0004 0A00     		movs	r2, r1
 350              	.LVL41:
 351 0006 6921     		movs	r1, #105
 352              	.LVL42:
 353 0008 FFF7FEFF 		bl	lv_obj_set_local_style_prop
 354              	.LVL43:
  89:..\..\..\arduinoLCD\test\Pain Drain\libraries\lvgl\src\core/lv_obj_style_gen.c **** }
 355              		.loc 1 89 0
 356              		@ sp needed
 357 000c 10BD     		pop	{r4, pc}
 358              		.cfi_endproc
 359              	.LFE169:
 360              		.size	lv_obj_set_style_transform_height, .-lv_obj_set_style_transform_height
 361 000e C046     		.section	.text.lv_obj_set_style_translate_x,"ax",%progbits
 362              		.align	2
 363              		.global	lv_obj_set_style_translate_x
 364              		.code	16
 365              		.thumb_func
 366              		.type	lv_obj_set_style_translate_x, %function
 367              	lv_obj_set_style_translate_x:
ARM GAS  C:\Users\haske\AppData\Local\Temp\cc0eRFVw.s 			page 9


 368              	.LFB170:
  90:..\..\..\arduinoLCD\test\Pain Drain\libraries\lvgl\src\core/lv_obj_style_gen.c **** 
  91:..\..\..\arduinoLCD\test\Pain Drain\libraries\lvgl\src\core/lv_obj_style_gen.c **** void lv_obj_set_style_translate_x(struct _lv_obj_t * obj, lv_coord_t value, lv_style_selector_t sel
  92:..\..\..\arduinoLCD\test\Pain Drain\libraries\lvgl\src\core/lv_obj_style_gen.c **** {
 369              		.loc 1 92 0
 370              		.cfi_startproc
 371              		@ args = 0, pretend = 0, frame = 0
 372              		@ frame_needed = 0, uses_anonymous_args = 0
 373              	.LVL44:
 374 0000 10B5     		push	{r4, lr}
 375              		.cfi_def_cfa_offset 8
 376              		.cfi_offset 4, -8
 377              		.cfi_offset 14, -4
 378 0002 1300     		movs	r3, r2
  93:..\..\..\arduinoLCD\test\Pain Drain\libraries\lvgl\src\core/lv_obj_style_gen.c ****     lv_style_value_t v = {
  94:..\..\..\arduinoLCD\test\Pain Drain\libraries\lvgl\src\core/lv_obj_style_gen.c ****         .num = (int32_t)value
  95:..\..\..\arduinoLCD\test\Pain Drain\libraries\lvgl\src\core/lv_obj_style_gen.c ****     };
  96:..\..\..\arduinoLCD\test\Pain Drain\libraries\lvgl\src\core/lv_obj_style_gen.c ****     lv_obj_set_local_style_prop(obj, LV_STYLE_TRANSLATE_X, v, selector);
 379              		.loc 1 96 0
 380 0004 0A00     		movs	r2, r1
 381              	.LVL45:
 382 0006 6A21     		movs	r1, #106
 383              	.LVL46:
 384 0008 FFF7FEFF 		bl	lv_obj_set_local_style_prop
 385              	.LVL47:
  97:..\..\..\arduinoLCD\test\Pain Drain\libraries\lvgl\src\core/lv_obj_style_gen.c **** }
 386              		.loc 1 97 0
 387              		@ sp needed
 388 000c 10BD     		pop	{r4, pc}
 389              		.cfi_endproc
 390              	.LFE170:
 391              		.size	lv_obj_set_style_translate_x, .-lv_obj_set_style_translate_x
 392 000e C046     		.section	.text.lv_obj_set_style_translate_y,"ax",%progbits
 393              		.align	2
 394              		.global	lv_obj_set_style_translate_y
 395              		.code	16
 396              		.thumb_func
 397              		.type	lv_obj_set_style_translate_y, %function
 398              	lv_obj_set_style_translate_y:
 399              	.LFB171:
  98:..\..\..\arduinoLCD\test\Pain Drain\libraries\lvgl\src\core/lv_obj_style_gen.c **** 
  99:..\..\..\arduinoLCD\test\Pain Drain\libraries\lvgl\src\core/lv_obj_style_gen.c **** void lv_obj_set_style_translate_y(struct _lv_obj_t * obj, lv_coord_t value, lv_style_selector_t sel
 100:..\..\..\arduinoLCD\test\Pain Drain\libraries\lvgl\src\core/lv_obj_style_gen.c **** {
 400              		.loc 1 100 0
 401              		.cfi_startproc
 402              		@ args = 0, pretend = 0, frame = 0
 403              		@ frame_needed = 0, uses_anonymous_args = 0
 404              	.LVL48:
 405 0000 10B5     		push	{r4, lr}
 406              		.cfi_def_cfa_offset 8
 407              		.cfi_offset 4, -8
 408              		.cfi_offset 14, -4
 409 0002 1300     		movs	r3, r2
 101:..\..\..\arduinoLCD\test\Pain Drain\libraries\lvgl\src\core/lv_obj_style_gen.c ****     lv_style_value_t v = {
 102:..\..\..\arduinoLCD\test\Pain Drain\libraries\lvgl\src\core/lv_obj_style_gen.c ****         .num = (int32_t)value
 103:..\..\..\arduinoLCD\test\Pain Drain\libraries\lvgl\src\core/lv_obj_style_gen.c ****     };
 104:..\..\..\arduinoLCD\test\Pain Drain\libraries\lvgl\src\core/lv_obj_style_gen.c ****     lv_obj_set_local_style_prop(obj, LV_STYLE_TRANSLATE_Y, v, selector);
ARM GAS  C:\Users\haske\AppData\Local\Temp\cc0eRFVw.s 			page 10


 410              		.loc 1 104 0
 411 0004 0A00     		movs	r2, r1
 412              	.LVL49:
 413 0006 6B21     		movs	r1, #107
 414              	.LVL50:
 415 0008 FFF7FEFF 		bl	lv_obj_set_local_style_prop
 416              	.LVL51:
 105:..\..\..\arduinoLCD\test\Pain Drain\libraries\lvgl\src\core/lv_obj_style_gen.c **** }
 417              		.loc 1 105 0
 418              		@ sp needed
 419 000c 10BD     		pop	{r4, pc}
 420              		.cfi_endproc
 421              	.LFE171:
 422              		.size	lv_obj_set_style_translate_y, .-lv_obj_set_style_translate_y
 423 000e C046     		.section	.text.lv_obj_set_style_transform_zoom,"ax",%progbits
 424              		.align	2
 425              		.global	lv_obj_set_style_transform_zoom
 426              		.code	16
 427              		.thumb_func
 428              		.type	lv_obj_set_style_transform_zoom, %function
 429              	lv_obj_set_style_transform_zoom:
 430              	.LFB172:
 106:..\..\..\arduinoLCD\test\Pain Drain\libraries\lvgl\src\core/lv_obj_style_gen.c **** 
 107:..\..\..\arduinoLCD\test\Pain Drain\libraries\lvgl\src\core/lv_obj_style_gen.c **** void lv_obj_set_style_transform_zoom(struct _lv_obj_t * obj, lv_coord_t value, lv_style_selector_t 
 108:..\..\..\arduinoLCD\test\Pain Drain\libraries\lvgl\src\core/lv_obj_style_gen.c **** {
 431              		.loc 1 108 0
 432              		.cfi_startproc
 433              		@ args = 0, pretend = 0, frame = 0
 434              		@ frame_needed = 0, uses_anonymous_args = 0
 435              	.LVL52:
 436 0000 10B5     		push	{r4, lr}
 437              		.cfi_def_cfa_offset 8
 438              		.cfi_offset 4, -8
 439              		.cfi_offset 14, -4
 440 0002 1300     		movs	r3, r2
 109:..\..\..\arduinoLCD\test\Pain Drain\libraries\lvgl\src\core/lv_obj_style_gen.c ****     lv_style_value_t v = {
 110:..\..\..\arduinoLCD\test\Pain Drain\libraries\lvgl\src\core/lv_obj_style_gen.c ****         .num = (int32_t)value
 111:..\..\..\arduinoLCD\test\Pain Drain\libraries\lvgl\src\core/lv_obj_style_gen.c ****     };
 112:..\..\..\arduinoLCD\test\Pain Drain\libraries\lvgl\src\core/lv_obj_style_gen.c ****     lv_obj_set_local_style_prop(obj, LV_STYLE_TRANSFORM_ZOOM, v, selector);
 441              		.loc 1 112 0
 442 0004 0A00     		movs	r2, r1
 443              	.LVL53:
 444 0006 6C21     		movs	r1, #108
 445              	.LVL54:
 446 0008 FFF7FEFF 		bl	lv_obj_set_local_style_prop
 447              	.LVL55:
 113:..\..\..\arduinoLCD\test\Pain Drain\libraries\lvgl\src\core/lv_obj_style_gen.c **** }
 448              		.loc 1 113 0
 449              		@ sp needed
 450 000c 10BD     		pop	{r4, pc}
 451              		.cfi_endproc
 452              	.LFE172:
 453              		.size	lv_obj_set_style_transform_zoom, .-lv_obj_set_style_transform_zoom
 454 000e C046     		.section	.text.lv_obj_set_style_transform_angle,"ax",%progbits
 455              		.align	2
 456              		.global	lv_obj_set_style_transform_angle
 457              		.code	16
ARM GAS  C:\Users\haske\AppData\Local\Temp\cc0eRFVw.s 			page 11


 458              		.thumb_func
 459              		.type	lv_obj_set_style_transform_angle, %function
 460              	lv_obj_set_style_transform_angle:
 461              	.LFB173:
 114:..\..\..\arduinoLCD\test\Pain Drain\libraries\lvgl\src\core/lv_obj_style_gen.c **** 
 115:..\..\..\arduinoLCD\test\Pain Drain\libraries\lvgl\src\core/lv_obj_style_gen.c **** void lv_obj_set_style_transform_angle(struct _lv_obj_t * obj, lv_coord_t value, lv_style_selector_t
 116:..\..\..\arduinoLCD\test\Pain Drain\libraries\lvgl\src\core/lv_obj_style_gen.c **** {
 462              		.loc 1 116 0
 463              		.cfi_startproc
 464              		@ args = 0, pretend = 0, frame = 0
 465              		@ frame_needed = 0, uses_anonymous_args = 0
 466              	.LVL56:
 467 0000 10B5     		push	{r4, lr}
 468              		.cfi_def_cfa_offset 8
 469              		.cfi_offset 4, -8
 470              		.cfi_offset 14, -4
 471 0002 1300     		movs	r3, r2
 117:..\..\..\arduinoLCD\test\Pain Drain\libraries\lvgl\src\core/lv_obj_style_gen.c ****     lv_style_value_t v = {
 118:..\..\..\arduinoLCD\test\Pain Drain\libraries\lvgl\src\core/lv_obj_style_gen.c ****         .num = (int32_t)value
 119:..\..\..\arduinoLCD\test\Pain Drain\libraries\lvgl\src\core/lv_obj_style_gen.c ****     };
 120:..\..\..\arduinoLCD\test\Pain Drain\libraries\lvgl\src\core/lv_obj_style_gen.c ****     lv_obj_set_local_style_prop(obj, LV_STYLE_TRANSFORM_ANGLE, v, selector);
 472              		.loc 1 120 0
 473 0004 0A00     		movs	r2, r1
 474              	.LVL57:
 475 0006 6D21     		movs	r1, #109
 476              	.LVL58:
 477 0008 FFF7FEFF 		bl	lv_obj_set_local_style_prop
 478              	.LVL59:
 121:..\..\..\arduinoLCD\test\Pain Drain\libraries\lvgl\src\core/lv_obj_style_gen.c **** }
 479              		.loc 1 121 0
 480              		@ sp needed
 481 000c 10BD     		pop	{r4, pc}
 482              		.cfi_endproc
 483              	.LFE173:
 484              		.size	lv_obj_set_style_transform_angle, .-lv_obj_set_style_transform_angle
 485 000e C046     		.section	.text.lv_obj_set_style_transform_pivot_x,"ax",%progbits
 486              		.align	2
 487              		.global	lv_obj_set_style_transform_pivot_x
 488              		.code	16
 489              		.thumb_func
 490              		.type	lv_obj_set_style_transform_pivot_x, %function
 491              	lv_obj_set_style_transform_pivot_x:
 492              	.LFB174:
 122:..\..\..\arduinoLCD\test\Pain Drain\libraries\lvgl\src\core/lv_obj_style_gen.c **** 
 123:..\..\..\arduinoLCD\test\Pain Drain\libraries\lvgl\src\core/lv_obj_style_gen.c **** void lv_obj_set_style_transform_pivot_x(struct _lv_obj_t * obj, lv_coord_t value, lv_style_selector
 124:..\..\..\arduinoLCD\test\Pain Drain\libraries\lvgl\src\core/lv_obj_style_gen.c **** {
 493              		.loc 1 124 0
 494              		.cfi_startproc
 495              		@ args = 0, pretend = 0, frame = 0
 496              		@ frame_needed = 0, uses_anonymous_args = 0
 497              	.LVL60:
 498 0000 10B5     		push	{r4, lr}
 499              		.cfi_def_cfa_offset 8
 500              		.cfi_offset 4, -8
 501              		.cfi_offset 14, -4
 502 0002 1300     		movs	r3, r2
 125:..\..\..\arduinoLCD\test\Pain Drain\libraries\lvgl\src\core/lv_obj_style_gen.c ****     lv_style_value_t v = {
ARM GAS  C:\Users\haske\AppData\Local\Temp\cc0eRFVw.s 			page 12


 126:..\..\..\arduinoLCD\test\Pain Drain\libraries\lvgl\src\core/lv_obj_style_gen.c ****         .num = (int32_t)value
 127:..\..\..\arduinoLCD\test\Pain Drain\libraries\lvgl\src\core/lv_obj_style_gen.c ****     };
 128:..\..\..\arduinoLCD\test\Pain Drain\libraries\lvgl\src\core/lv_obj_style_gen.c ****     lv_obj_set_local_style_prop(obj, LV_STYLE_TRANSFORM_PIVOT_X, v, selector);
 503              		.loc 1 128 0
 504 0004 0A00     		movs	r2, r1
 505              	.LVL61:
 506 0006 6E21     		movs	r1, #110
 507              	.LVL62:
 508 0008 FFF7FEFF 		bl	lv_obj_set_local_style_prop
 509              	.LVL63:
 129:..\..\..\arduinoLCD\test\Pain Drain\libraries\lvgl\src\core/lv_obj_style_gen.c **** }
 510              		.loc 1 129 0
 511              		@ sp needed
 512 000c 10BD     		pop	{r4, pc}
 513              		.cfi_endproc
 514              	.LFE174:
 515              		.size	lv_obj_set_style_transform_pivot_x, .-lv_obj_set_style_transform_pivot_x
 516 000e C046     		.section	.text.lv_obj_set_style_transform_pivot_y,"ax",%progbits
 517              		.align	2
 518              		.global	lv_obj_set_style_transform_pivot_y
 519              		.code	16
 520              		.thumb_func
 521              		.type	lv_obj_set_style_transform_pivot_y, %function
 522              	lv_obj_set_style_transform_pivot_y:
 523              	.LFB175:
 130:..\..\..\arduinoLCD\test\Pain Drain\libraries\lvgl\src\core/lv_obj_style_gen.c **** 
 131:..\..\..\arduinoLCD\test\Pain Drain\libraries\lvgl\src\core/lv_obj_style_gen.c **** void lv_obj_set_style_transform_pivot_y(struct _lv_obj_t * obj, lv_coord_t value, lv_style_selector
 132:..\..\..\arduinoLCD\test\Pain Drain\libraries\lvgl\src\core/lv_obj_style_gen.c **** {
 524              		.loc 1 132 0
 525              		.cfi_startproc
 526              		@ args = 0, pretend = 0, frame = 0
 527              		@ frame_needed = 0, uses_anonymous_args = 0
 528              	.LVL64:
 529 0000 10B5     		push	{r4, lr}
 530              		.cfi_def_cfa_offset 8
 531              		.cfi_offset 4, -8
 532              		.cfi_offset 14, -4
 533 0002 1300     		movs	r3, r2
 133:..\..\..\arduinoLCD\test\Pain Drain\libraries\lvgl\src\core/lv_obj_style_gen.c ****     lv_style_value_t v = {
 134:..\..\..\arduinoLCD\test\Pain Drain\libraries\lvgl\src\core/lv_obj_style_gen.c ****         .num = (int32_t)value
 135:..\..\..\arduinoLCD\test\Pain Drain\libraries\lvgl\src\core/lv_obj_style_gen.c ****     };
 136:..\..\..\arduinoLCD\test\Pain Drain\libraries\lvgl\src\core/lv_obj_style_gen.c ****     lv_obj_set_local_style_prop(obj, LV_STYLE_TRANSFORM_PIVOT_Y, v, selector);
 534              		.loc 1 136 0
 535 0004 0A00     		movs	r2, r1
 536              	.LVL65:
 537 0006 6F21     		movs	r1, #111
 538              	.LVL66:
 539 0008 FFF7FEFF 		bl	lv_obj_set_local_style_prop
 540              	.LVL67:
 137:..\..\..\arduinoLCD\test\Pain Drain\libraries\lvgl\src\core/lv_obj_style_gen.c **** }
 541              		.loc 1 137 0
 542              		@ sp needed
 543 000c 10BD     		pop	{r4, pc}
 544              		.cfi_endproc
 545              	.LFE175:
 546              		.size	lv_obj_set_style_transform_pivot_y, .-lv_obj_set_style_transform_pivot_y
 547 000e C046     		.section	.text.lv_obj_set_style_pad_top,"ax",%progbits
ARM GAS  C:\Users\haske\AppData\Local\Temp\cc0eRFVw.s 			page 13


 548              		.align	2
 549              		.global	lv_obj_set_style_pad_top
 550              		.code	16
 551              		.thumb_func
 552              		.type	lv_obj_set_style_pad_top, %function
 553              	lv_obj_set_style_pad_top:
 554              	.LFB176:
 138:..\..\..\arduinoLCD\test\Pain Drain\libraries\lvgl\src\core/lv_obj_style_gen.c **** 
 139:..\..\..\arduinoLCD\test\Pain Drain\libraries\lvgl\src\core/lv_obj_style_gen.c **** void lv_obj_set_style_pad_top(struct _lv_obj_t * obj, lv_coord_t value, lv_style_selector_t selecto
 140:..\..\..\arduinoLCD\test\Pain Drain\libraries\lvgl\src\core/lv_obj_style_gen.c **** {
 555              		.loc 1 140 0
 556              		.cfi_startproc
 557              		@ args = 0, pretend = 0, frame = 0
 558              		@ frame_needed = 0, uses_anonymous_args = 0
 559              	.LVL68:
 560 0000 10B5     		push	{r4, lr}
 561              		.cfi_def_cfa_offset 8
 562              		.cfi_offset 4, -8
 563              		.cfi_offset 14, -4
 564 0002 1300     		movs	r3, r2
 141:..\..\..\arduinoLCD\test\Pain Drain\libraries\lvgl\src\core/lv_obj_style_gen.c ****     lv_style_value_t v = {
 142:..\..\..\arduinoLCD\test\Pain Drain\libraries\lvgl\src\core/lv_obj_style_gen.c ****         .num = (int32_t)value
 143:..\..\..\arduinoLCD\test\Pain Drain\libraries\lvgl\src\core/lv_obj_style_gen.c ****     };
 144:..\..\..\arduinoLCD\test\Pain Drain\libraries\lvgl\src\core/lv_obj_style_gen.c ****     lv_obj_set_local_style_prop(obj, LV_STYLE_PAD_TOP, v, selector);
 565              		.loc 1 144 0
 566 0004 0A00     		movs	r2, r1
 567              	.LVL69:
 568 0006 1021     		movs	r1, #16
 569              	.LVL70:
 570 0008 FFF7FEFF 		bl	lv_obj_set_local_style_prop
 571              	.LVL71:
 145:..\..\..\arduinoLCD\test\Pain Drain\libraries\lvgl\src\core/lv_obj_style_gen.c **** }
 572              		.loc 1 145 0
 573              		@ sp needed
 574 000c 10BD     		pop	{r4, pc}
 575              		.cfi_endproc
 576              	.LFE176:
 577              		.size	lv_obj_set_style_pad_top, .-lv_obj_set_style_pad_top
 578 000e C046     		.section	.text.lv_obj_set_style_pad_bottom,"ax",%progbits
 579              		.align	2
 580              		.global	lv_obj_set_style_pad_bottom
 581              		.code	16
 582              		.thumb_func
 583              		.type	lv_obj_set_style_pad_bottom, %function
 584              	lv_obj_set_style_pad_bottom:
 585              	.LFB177:
 146:..\..\..\arduinoLCD\test\Pain Drain\libraries\lvgl\src\core/lv_obj_style_gen.c **** 
 147:..\..\..\arduinoLCD\test\Pain Drain\libraries\lvgl\src\core/lv_obj_style_gen.c **** void lv_obj_set_style_pad_bottom(struct _lv_obj_t * obj, lv_coord_t value, lv_style_selector_t sele
 148:..\..\..\arduinoLCD\test\Pain Drain\libraries\lvgl\src\core/lv_obj_style_gen.c **** {
 586              		.loc 1 148 0
 587              		.cfi_startproc
 588              		@ args = 0, pretend = 0, frame = 0
 589              		@ frame_needed = 0, uses_anonymous_args = 0
 590              	.LVL72:
 591 0000 10B5     		push	{r4, lr}
 592              		.cfi_def_cfa_offset 8
 593              		.cfi_offset 4, -8
ARM GAS  C:\Users\haske\AppData\Local\Temp\cc0eRFVw.s 			page 14


 594              		.cfi_offset 14, -4
 595 0002 1300     		movs	r3, r2
 149:..\..\..\arduinoLCD\test\Pain Drain\libraries\lvgl\src\core/lv_obj_style_gen.c ****     lv_style_value_t v = {
 150:..\..\..\arduinoLCD\test\Pain Drain\libraries\lvgl\src\core/lv_obj_style_gen.c ****         .num = (int32_t)value
 151:..\..\..\arduinoLCD\test\Pain Drain\libraries\lvgl\src\core/lv_obj_style_gen.c ****     };
 152:..\..\..\arduinoLCD\test\Pain Drain\libraries\lvgl\src\core/lv_obj_style_gen.c ****     lv_obj_set_local_style_prop(obj, LV_STYLE_PAD_BOTTOM, v, selector);
 596              		.loc 1 152 0
 597 0004 0A00     		movs	r2, r1
 598              	.LVL73:
 599 0006 1121     		movs	r1, #17
 600              	.LVL74:
 601 0008 FFF7FEFF 		bl	lv_obj_set_local_style_prop
 602              	.LVL75:
 153:..\..\..\arduinoLCD\test\Pain Drain\libraries\lvgl\src\core/lv_obj_style_gen.c **** }
 603              		.loc 1 153 0
 604              		@ sp needed
 605 000c 10BD     		pop	{r4, pc}
 606              		.cfi_endproc
 607              	.LFE177:
 608              		.size	lv_obj_set_style_pad_bottom, .-lv_obj_set_style_pad_bottom
 609 000e C046     		.section	.text.lv_obj_set_style_pad_left,"ax",%progbits
 610              		.align	2
 611              		.global	lv_obj_set_style_pad_left
 612              		.code	16
 613              		.thumb_func
 614              		.type	lv_obj_set_style_pad_left, %function
 615              	lv_obj_set_style_pad_left:
 616              	.LFB178:
 154:..\..\..\arduinoLCD\test\Pain Drain\libraries\lvgl\src\core/lv_obj_style_gen.c **** 
 155:..\..\..\arduinoLCD\test\Pain Drain\libraries\lvgl\src\core/lv_obj_style_gen.c **** void lv_obj_set_style_pad_left(struct _lv_obj_t * obj, lv_coord_t value, lv_style_selector_t select
 156:..\..\..\arduinoLCD\test\Pain Drain\libraries\lvgl\src\core/lv_obj_style_gen.c **** {
 617              		.loc 1 156 0
 618              		.cfi_startproc
 619              		@ args = 0, pretend = 0, frame = 0
 620              		@ frame_needed = 0, uses_anonymous_args = 0
 621              	.LVL76:
 622 0000 10B5     		push	{r4, lr}
 623              		.cfi_def_cfa_offset 8
 624              		.cfi_offset 4, -8
 625              		.cfi_offset 14, -4
 626 0002 1300     		movs	r3, r2
 157:..\..\..\arduinoLCD\test\Pain Drain\libraries\lvgl\src\core/lv_obj_style_gen.c ****     lv_style_value_t v = {
 158:..\..\..\arduinoLCD\test\Pain Drain\libraries\lvgl\src\core/lv_obj_style_gen.c ****         .num = (int32_t)value
 159:..\..\..\arduinoLCD\test\Pain Drain\libraries\lvgl\src\core/lv_obj_style_gen.c ****     };
 160:..\..\..\arduinoLCD\test\Pain Drain\libraries\lvgl\src\core/lv_obj_style_gen.c ****     lv_obj_set_local_style_prop(obj, LV_STYLE_PAD_LEFT, v, selector);
 627              		.loc 1 160 0
 628 0004 0A00     		movs	r2, r1
 629              	.LVL77:
 630 0006 1221     		movs	r1, #18
 631              	.LVL78:
 632 0008 FFF7FEFF 		bl	lv_obj_set_local_style_prop
 633              	.LVL79:
 161:..\..\..\arduinoLCD\test\Pain Drain\libraries\lvgl\src\core/lv_obj_style_gen.c **** }
 634              		.loc 1 161 0
 635              		@ sp needed
 636 000c 10BD     		pop	{r4, pc}
 637              		.cfi_endproc
ARM GAS  C:\Users\haske\AppData\Local\Temp\cc0eRFVw.s 			page 15


 638              	.LFE178:
 639              		.size	lv_obj_set_style_pad_left, .-lv_obj_set_style_pad_left
 640 000e C046     		.section	.text.lv_obj_set_style_pad_right,"ax",%progbits
 641              		.align	2
 642              		.global	lv_obj_set_style_pad_right
 643              		.code	16
 644              		.thumb_func
 645              		.type	lv_obj_set_style_pad_right, %function
 646              	lv_obj_set_style_pad_right:
 647              	.LFB179:
 162:..\..\..\arduinoLCD\test\Pain Drain\libraries\lvgl\src\core/lv_obj_style_gen.c **** 
 163:..\..\..\arduinoLCD\test\Pain Drain\libraries\lvgl\src\core/lv_obj_style_gen.c **** void lv_obj_set_style_pad_right(struct _lv_obj_t * obj, lv_coord_t value, lv_style_selector_t selec
 164:..\..\..\arduinoLCD\test\Pain Drain\libraries\lvgl\src\core/lv_obj_style_gen.c **** {
 648              		.loc 1 164 0
 649              		.cfi_startproc
 650              		@ args = 0, pretend = 0, frame = 0
 651              		@ frame_needed = 0, uses_anonymous_args = 0
 652              	.LVL80:
 653 0000 10B5     		push	{r4, lr}
 654              		.cfi_def_cfa_offset 8
 655              		.cfi_offset 4, -8
 656              		.cfi_offset 14, -4
 657 0002 1300     		movs	r3, r2
 165:..\..\..\arduinoLCD\test\Pain Drain\libraries\lvgl\src\core/lv_obj_style_gen.c ****     lv_style_value_t v = {
 166:..\..\..\arduinoLCD\test\Pain Drain\libraries\lvgl\src\core/lv_obj_style_gen.c ****         .num = (int32_t)value
 167:..\..\..\arduinoLCD\test\Pain Drain\libraries\lvgl\src\core/lv_obj_style_gen.c ****     };
 168:..\..\..\arduinoLCD\test\Pain Drain\libraries\lvgl\src\core/lv_obj_style_gen.c ****     lv_obj_set_local_style_prop(obj, LV_STYLE_PAD_RIGHT, v, selector);
 658              		.loc 1 168 0
 659 0004 0A00     		movs	r2, r1
 660              	.LVL81:
 661 0006 1321     		movs	r1, #19
 662              	.LVL82:
 663 0008 FFF7FEFF 		bl	lv_obj_set_local_style_prop
 664              	.LVL83:
 169:..\..\..\arduinoLCD\test\Pain Drain\libraries\lvgl\src\core/lv_obj_style_gen.c **** }
 665              		.loc 1 169 0
 666              		@ sp needed
 667 000c 10BD     		pop	{r4, pc}
 668              		.cfi_endproc
 669              	.LFE179:
 670              		.size	lv_obj_set_style_pad_right, .-lv_obj_set_style_pad_right
 671 000e C046     		.section	.text.lv_obj_set_style_pad_row,"ax",%progbits
 672              		.align	2
 673              		.global	lv_obj_set_style_pad_row
 674              		.code	16
 675              		.thumb_func
 676              		.type	lv_obj_set_style_pad_row, %function
 677              	lv_obj_set_style_pad_row:
 678              	.LFB180:
 170:..\..\..\arduinoLCD\test\Pain Drain\libraries\lvgl\src\core/lv_obj_style_gen.c **** 
 171:..\..\..\arduinoLCD\test\Pain Drain\libraries\lvgl\src\core/lv_obj_style_gen.c **** void lv_obj_set_style_pad_row(struct _lv_obj_t * obj, lv_coord_t value, lv_style_selector_t selecto
 172:..\..\..\arduinoLCD\test\Pain Drain\libraries\lvgl\src\core/lv_obj_style_gen.c **** {
 679              		.loc 1 172 0
 680              		.cfi_startproc
 681              		@ args = 0, pretend = 0, frame = 0
 682              		@ frame_needed = 0, uses_anonymous_args = 0
 683              	.LVL84:
ARM GAS  C:\Users\haske\AppData\Local\Temp\cc0eRFVw.s 			page 16


 684 0000 10B5     		push	{r4, lr}
 685              		.cfi_def_cfa_offset 8
 686              		.cfi_offset 4, -8
 687              		.cfi_offset 14, -4
 688 0002 1300     		movs	r3, r2
 173:..\..\..\arduinoLCD\test\Pain Drain\libraries\lvgl\src\core/lv_obj_style_gen.c ****     lv_style_value_t v = {
 174:..\..\..\arduinoLCD\test\Pain Drain\libraries\lvgl\src\core/lv_obj_style_gen.c ****         .num = (int32_t)value
 175:..\..\..\arduinoLCD\test\Pain Drain\libraries\lvgl\src\core/lv_obj_style_gen.c ****     };
 176:..\..\..\arduinoLCD\test\Pain Drain\libraries\lvgl\src\core/lv_obj_style_gen.c ****     lv_obj_set_local_style_prop(obj, LV_STYLE_PAD_ROW, v, selector);
 689              		.loc 1 176 0
 690 0004 0A00     		movs	r2, r1
 691              	.LVL85:
 692 0006 1421     		movs	r1, #20
 693              	.LVL86:
 694 0008 FFF7FEFF 		bl	lv_obj_set_local_style_prop
 695              	.LVL87:
 177:..\..\..\arduinoLCD\test\Pain Drain\libraries\lvgl\src\core/lv_obj_style_gen.c **** }
 696              		.loc 1 177 0
 697              		@ sp needed
 698 000c 10BD     		pop	{r4, pc}
 699              		.cfi_endproc
 700              	.LFE180:
 701              		.size	lv_obj_set_style_pad_row, .-lv_obj_set_style_pad_row
 702 000e C046     		.section	.text.lv_obj_set_style_pad_column,"ax",%progbits
 703              		.align	2
 704              		.global	lv_obj_set_style_pad_column
 705              		.code	16
 706              		.thumb_func
 707              		.type	lv_obj_set_style_pad_column, %function
 708              	lv_obj_set_style_pad_column:
 709              	.LFB181:
 178:..\..\..\arduinoLCD\test\Pain Drain\libraries\lvgl\src\core/lv_obj_style_gen.c **** 
 179:..\..\..\arduinoLCD\test\Pain Drain\libraries\lvgl\src\core/lv_obj_style_gen.c **** void lv_obj_set_style_pad_column(struct _lv_obj_t * obj, lv_coord_t value, lv_style_selector_t sele
 180:..\..\..\arduinoLCD\test\Pain Drain\libraries\lvgl\src\core/lv_obj_style_gen.c **** {
 710              		.loc 1 180 0
 711              		.cfi_startproc
 712              		@ args = 0, pretend = 0, frame = 0
 713              		@ frame_needed = 0, uses_anonymous_args = 0
 714              	.LVL88:
 715 0000 10B5     		push	{r4, lr}
 716              		.cfi_def_cfa_offset 8
 717              		.cfi_offset 4, -8
 718              		.cfi_offset 14, -4
 719 0002 1300     		movs	r3, r2
 181:..\..\..\arduinoLCD\test\Pain Drain\libraries\lvgl\src\core/lv_obj_style_gen.c ****     lv_style_value_t v = {
 182:..\..\..\arduinoLCD\test\Pain Drain\libraries\lvgl\src\core/lv_obj_style_gen.c ****         .num = (int32_t)value
 183:..\..\..\arduinoLCD\test\Pain Drain\libraries\lvgl\src\core/lv_obj_style_gen.c ****     };
 184:..\..\..\arduinoLCD\test\Pain Drain\libraries\lvgl\src\core/lv_obj_style_gen.c ****     lv_obj_set_local_style_prop(obj, LV_STYLE_PAD_COLUMN, v, selector);
 720              		.loc 1 184 0
 721 0004 0A00     		movs	r2, r1
 722              	.LVL89:
 723 0006 1521     		movs	r1, #21
 724              	.LVL90:
 725 0008 FFF7FEFF 		bl	lv_obj_set_local_style_prop
 726              	.LVL91:
 185:..\..\..\arduinoLCD\test\Pain Drain\libraries\lvgl\src\core/lv_obj_style_gen.c **** }
 727              		.loc 1 185 0
ARM GAS  C:\Users\haske\AppData\Local\Temp\cc0eRFVw.s 			page 17


 728              		@ sp needed
 729 000c 10BD     		pop	{r4, pc}
 730              		.cfi_endproc
 731              	.LFE181:
 732              		.size	lv_obj_set_style_pad_column, .-lv_obj_set_style_pad_column
 733 000e C046     		.section	.text.lv_obj_set_style_bg_color,"ax",%progbits
 734              		.align	2
 735              		.global	lv_obj_set_style_bg_color
 736              		.code	16
 737              		.thumb_func
 738              		.type	lv_obj_set_style_bg_color, %function
 739              	lv_obj_set_style_bg_color:
 740              	.LFB182:
 186:..\..\..\arduinoLCD\test\Pain Drain\libraries\lvgl\src\core/lv_obj_style_gen.c **** 
 187:..\..\..\arduinoLCD\test\Pain Drain\libraries\lvgl\src\core/lv_obj_style_gen.c **** void lv_obj_set_style_bg_color(struct _lv_obj_t * obj, lv_color_t value, lv_style_selector_t select
 188:..\..\..\arduinoLCD\test\Pain Drain\libraries\lvgl\src\core/lv_obj_style_gen.c **** {
 741              		.loc 1 188 0
 742              		.cfi_startproc
 743              		@ args = 0, pretend = 0, frame = 0
 744              		@ frame_needed = 0, uses_anonymous_args = 0
 745              	.LVL92:
 746 0000 10B5     		push	{r4, lr}
 747              		.cfi_def_cfa_offset 8
 748              		.cfi_offset 4, -8
 749              		.cfi_offset 14, -4
 750 0002 1300     		movs	r3, r2
 189:..\..\..\arduinoLCD\test\Pain Drain\libraries\lvgl\src\core/lv_obj_style_gen.c ****     lv_style_value_t v = {
 751              		.loc 1 189 0
 752 0004 8AB2     		uxth	r2, r1
 753              	.LVL93:
 190:..\..\..\arduinoLCD\test\Pain Drain\libraries\lvgl\src\core/lv_obj_style_gen.c ****         .color = value
 191:..\..\..\arduinoLCD\test\Pain Drain\libraries\lvgl\src\core/lv_obj_style_gen.c ****     };
 192:..\..\..\arduinoLCD\test\Pain Drain\libraries\lvgl\src\core/lv_obj_style_gen.c ****     lv_obj_set_local_style_prop(obj, LV_STYLE_BG_COLOR, v, selector);
 754              		.loc 1 192 0
 755 0006 2021     		movs	r1, #32
 756 0008 FFF7FEFF 		bl	lv_obj_set_local_style_prop
 757              	.LVL94:
 193:..\..\..\arduinoLCD\test\Pain Drain\libraries\lvgl\src\core/lv_obj_style_gen.c **** }
 758              		.loc 1 193 0
 759              		@ sp needed
 760 000c 10BD     		pop	{r4, pc}
 761              		.cfi_endproc
 762              	.LFE182:
 763              		.size	lv_obj_set_style_bg_color, .-lv_obj_set_style_bg_color
 764 000e C046     		.section	.text.lv_obj_set_style_bg_opa,"ax",%progbits
 765              		.align	2
 766              		.global	lv_obj_set_style_bg_opa
 767              		.code	16
 768              		.thumb_func
 769              		.type	lv_obj_set_style_bg_opa, %function
 770              	lv_obj_set_style_bg_opa:
 771              	.LFB183:
 194:..\..\..\arduinoLCD\test\Pain Drain\libraries\lvgl\src\core/lv_obj_style_gen.c **** 
 195:..\..\..\arduinoLCD\test\Pain Drain\libraries\lvgl\src\core/lv_obj_style_gen.c **** void lv_obj_set_style_bg_opa(struct _lv_obj_t * obj, lv_opa_t value, lv_style_selector_t selector)
 196:..\..\..\arduinoLCD\test\Pain Drain\libraries\lvgl\src\core/lv_obj_style_gen.c **** {
 772              		.loc 1 196 0
 773              		.cfi_startproc
ARM GAS  C:\Users\haske\AppData\Local\Temp\cc0eRFVw.s 			page 18


 774              		@ args = 0, pretend = 0, frame = 0
 775              		@ frame_needed = 0, uses_anonymous_args = 0
 776              	.LVL95:
 777 0000 10B5     		push	{r4, lr}
 778              		.cfi_def_cfa_offset 8
 779              		.cfi_offset 4, -8
 780              		.cfi_offset 14, -4
 781 0002 1300     		movs	r3, r2
 197:..\..\..\arduinoLCD\test\Pain Drain\libraries\lvgl\src\core/lv_obj_style_gen.c ****     lv_style_value_t v = {
 198:..\..\..\arduinoLCD\test\Pain Drain\libraries\lvgl\src\core/lv_obj_style_gen.c ****         .num = (int32_t)value
 199:..\..\..\arduinoLCD\test\Pain Drain\libraries\lvgl\src\core/lv_obj_style_gen.c ****     };
 200:..\..\..\arduinoLCD\test\Pain Drain\libraries\lvgl\src\core/lv_obj_style_gen.c ****     lv_obj_set_local_style_prop(obj, LV_STYLE_BG_OPA, v, selector);
 782              		.loc 1 200 0
 783 0004 0A00     		movs	r2, r1
 784              	.LVL96:
 785 0006 2121     		movs	r1, #33
 786              	.LVL97:
 787 0008 FFF7FEFF 		bl	lv_obj_set_local_style_prop
 788              	.LVL98:
 201:..\..\..\arduinoLCD\test\Pain Drain\libraries\lvgl\src\core/lv_obj_style_gen.c **** }
 789              		.loc 1 201 0
 790              		@ sp needed
 791 000c 10BD     		pop	{r4, pc}
 792              		.cfi_endproc
 793              	.LFE183:
 794              		.size	lv_obj_set_style_bg_opa, .-lv_obj_set_style_bg_opa
 795 000e C046     		.section	.text.lv_obj_set_style_bg_grad_color,"ax",%progbits
 796              		.align	2
 797              		.global	lv_obj_set_style_bg_grad_color
 798              		.code	16
 799              		.thumb_func
 800              		.type	lv_obj_set_style_bg_grad_color, %function
 801              	lv_obj_set_style_bg_grad_color:
 802              	.LFB184:
 202:..\..\..\arduinoLCD\test\Pain Drain\libraries\lvgl\src\core/lv_obj_style_gen.c **** 
 203:..\..\..\arduinoLCD\test\Pain Drain\libraries\lvgl\src\core/lv_obj_style_gen.c **** void lv_obj_set_style_bg_grad_color(struct _lv_obj_t * obj, lv_color_t value, lv_style_selector_t s
 204:..\..\..\arduinoLCD\test\Pain Drain\libraries\lvgl\src\core/lv_obj_style_gen.c **** {
 803              		.loc 1 204 0
 804              		.cfi_startproc
 805              		@ args = 0, pretend = 0, frame = 0
 806              		@ frame_needed = 0, uses_anonymous_args = 0
 807              	.LVL99:
 808 0000 10B5     		push	{r4, lr}
 809              		.cfi_def_cfa_offset 8
 810              		.cfi_offset 4, -8
 811              		.cfi_offset 14, -4
 812 0002 1300     		movs	r3, r2
 205:..\..\..\arduinoLCD\test\Pain Drain\libraries\lvgl\src\core/lv_obj_style_gen.c ****     lv_style_value_t v = {
 813              		.loc 1 205 0
 814 0004 8AB2     		uxth	r2, r1
 815              	.LVL100:
 206:..\..\..\arduinoLCD\test\Pain Drain\libraries\lvgl\src\core/lv_obj_style_gen.c ****         .color = value
 207:..\..\..\arduinoLCD\test\Pain Drain\libraries\lvgl\src\core/lv_obj_style_gen.c ****     };
 208:..\..\..\arduinoLCD\test\Pain Drain\libraries\lvgl\src\core/lv_obj_style_gen.c ****     lv_obj_set_local_style_prop(obj, LV_STYLE_BG_GRAD_COLOR, v, selector);
 816              		.loc 1 208 0
 817 0006 2221     		movs	r1, #34
 818 0008 FFF7FEFF 		bl	lv_obj_set_local_style_prop
ARM GAS  C:\Users\haske\AppData\Local\Temp\cc0eRFVw.s 			page 19


 819              	.LVL101:
 209:..\..\..\arduinoLCD\test\Pain Drain\libraries\lvgl\src\core/lv_obj_style_gen.c **** }
 820              		.loc 1 209 0
 821              		@ sp needed
 822 000c 10BD     		pop	{r4, pc}
 823              		.cfi_endproc
 824              	.LFE184:
 825              		.size	lv_obj_set_style_bg_grad_color, .-lv_obj_set_style_bg_grad_color
 826 000e C046     		.section	.text.lv_obj_set_style_bg_grad_dir,"ax",%progbits
 827              		.align	2
 828              		.global	lv_obj_set_style_bg_grad_dir
 829              		.code	16
 830              		.thumb_func
 831              		.type	lv_obj_set_style_bg_grad_dir, %function
 832              	lv_obj_set_style_bg_grad_dir:
 833              	.LFB185:
 210:..\..\..\arduinoLCD\test\Pain Drain\libraries\lvgl\src\core/lv_obj_style_gen.c **** 
 211:..\..\..\arduinoLCD\test\Pain Drain\libraries\lvgl\src\core/lv_obj_style_gen.c **** void lv_obj_set_style_bg_grad_dir(struct _lv_obj_t * obj, lv_grad_dir_t value, lv_style_selector_t 
 212:..\..\..\arduinoLCD\test\Pain Drain\libraries\lvgl\src\core/lv_obj_style_gen.c **** {
 834              		.loc 1 212 0
 835              		.cfi_startproc
 836              		@ args = 0, pretend = 0, frame = 0
 837              		@ frame_needed = 0, uses_anonymous_args = 0
 838              	.LVL102:
 839 0000 10B5     		push	{r4, lr}
 840              		.cfi_def_cfa_offset 8
 841              		.cfi_offset 4, -8
 842              		.cfi_offset 14, -4
 843 0002 1300     		movs	r3, r2
 213:..\..\..\arduinoLCD\test\Pain Drain\libraries\lvgl\src\core/lv_obj_style_gen.c ****     lv_style_value_t v = {
 214:..\..\..\arduinoLCD\test\Pain Drain\libraries\lvgl\src\core/lv_obj_style_gen.c ****         .num = (int32_t)value
 215:..\..\..\arduinoLCD\test\Pain Drain\libraries\lvgl\src\core/lv_obj_style_gen.c ****     };
 216:..\..\..\arduinoLCD\test\Pain Drain\libraries\lvgl\src\core/lv_obj_style_gen.c ****     lv_obj_set_local_style_prop(obj, LV_STYLE_BG_GRAD_DIR, v, selector);
 844              		.loc 1 216 0
 845 0004 0A00     		movs	r2, r1
 846              	.LVL103:
 847 0006 2321     		movs	r1, #35
 848              	.LVL104:
 849 0008 FFF7FEFF 		bl	lv_obj_set_local_style_prop
 850              	.LVL105:
 217:..\..\..\arduinoLCD\test\Pain Drain\libraries\lvgl\src\core/lv_obj_style_gen.c **** }
 851              		.loc 1 217 0
 852              		@ sp needed
 853 000c 10BD     		pop	{r4, pc}
 854              		.cfi_endproc
 855              	.LFE185:
 856              		.size	lv_obj_set_style_bg_grad_dir, .-lv_obj_set_style_bg_grad_dir
 857 000e C046     		.section	.text.lv_obj_set_style_bg_main_stop,"ax",%progbits
 858              		.align	2
 859              		.global	lv_obj_set_style_bg_main_stop
 860              		.code	16
 861              		.thumb_func
 862              		.type	lv_obj_set_style_bg_main_stop, %function
 863              	lv_obj_set_style_bg_main_stop:
 864              	.LFB186:
 218:..\..\..\arduinoLCD\test\Pain Drain\libraries\lvgl\src\core/lv_obj_style_gen.c **** 
 219:..\..\..\arduinoLCD\test\Pain Drain\libraries\lvgl\src\core/lv_obj_style_gen.c **** void lv_obj_set_style_bg_main_stop(struct _lv_obj_t * obj, lv_coord_t value, lv_style_selector_t se
ARM GAS  C:\Users\haske\AppData\Local\Temp\cc0eRFVw.s 			page 20


 220:..\..\..\arduinoLCD\test\Pain Drain\libraries\lvgl\src\core/lv_obj_style_gen.c **** {
 865              		.loc 1 220 0
 866              		.cfi_startproc
 867              		@ args = 0, pretend = 0, frame = 0
 868              		@ frame_needed = 0, uses_anonymous_args = 0
 869              	.LVL106:
 870 0000 10B5     		push	{r4, lr}
 871              		.cfi_def_cfa_offset 8
 872              		.cfi_offset 4, -8
 873              		.cfi_offset 14, -4
 874 0002 1300     		movs	r3, r2
 221:..\..\..\arduinoLCD\test\Pain Drain\libraries\lvgl\src\core/lv_obj_style_gen.c ****     lv_style_value_t v = {
 222:..\..\..\arduinoLCD\test\Pain Drain\libraries\lvgl\src\core/lv_obj_style_gen.c ****         .num = (int32_t)value
 223:..\..\..\arduinoLCD\test\Pain Drain\libraries\lvgl\src\core/lv_obj_style_gen.c ****     };
 224:..\..\..\arduinoLCD\test\Pain Drain\libraries\lvgl\src\core/lv_obj_style_gen.c ****     lv_obj_set_local_style_prop(obj, LV_STYLE_BG_MAIN_STOP, v, selector);
 875              		.loc 1 224 0
 876 0004 0A00     		movs	r2, r1
 877              	.LVL107:
 878 0006 2421     		movs	r1, #36
 879              	.LVL108:
 880 0008 FFF7FEFF 		bl	lv_obj_set_local_style_prop
 881              	.LVL109:
 225:..\..\..\arduinoLCD\test\Pain Drain\libraries\lvgl\src\core/lv_obj_style_gen.c **** }
 882              		.loc 1 225 0
 883              		@ sp needed
 884 000c 10BD     		pop	{r4, pc}
 885              		.cfi_endproc
 886              	.LFE186:
 887              		.size	lv_obj_set_style_bg_main_stop, .-lv_obj_set_style_bg_main_stop
 888 000e C046     		.section	.text.lv_obj_set_style_bg_grad_stop,"ax",%progbits
 889              		.align	2
 890              		.global	lv_obj_set_style_bg_grad_stop
 891              		.code	16
 892              		.thumb_func
 893              		.type	lv_obj_set_style_bg_grad_stop, %function
 894              	lv_obj_set_style_bg_grad_stop:
 895              	.LFB187:
 226:..\..\..\arduinoLCD\test\Pain Drain\libraries\lvgl\src\core/lv_obj_style_gen.c **** 
 227:..\..\..\arduinoLCD\test\Pain Drain\libraries\lvgl\src\core/lv_obj_style_gen.c **** void lv_obj_set_style_bg_grad_stop(struct _lv_obj_t * obj, lv_coord_t value, lv_style_selector_t se
 228:..\..\..\arduinoLCD\test\Pain Drain\libraries\lvgl\src\core/lv_obj_style_gen.c **** {
 896              		.loc 1 228 0
 897              		.cfi_startproc
 898              		@ args = 0, pretend = 0, frame = 0
 899              		@ frame_needed = 0, uses_anonymous_args = 0
 900              	.LVL110:
 901 0000 10B5     		push	{r4, lr}
 902              		.cfi_def_cfa_offset 8
 903              		.cfi_offset 4, -8
 904              		.cfi_offset 14, -4
 905 0002 1300     		movs	r3, r2
 229:..\..\..\arduinoLCD\test\Pain Drain\libraries\lvgl\src\core/lv_obj_style_gen.c ****     lv_style_value_t v = {
 230:..\..\..\arduinoLCD\test\Pain Drain\libraries\lvgl\src\core/lv_obj_style_gen.c ****         .num = (int32_t)value
 231:..\..\..\arduinoLCD\test\Pain Drain\libraries\lvgl\src\core/lv_obj_style_gen.c ****     };
 232:..\..\..\arduinoLCD\test\Pain Drain\libraries\lvgl\src\core/lv_obj_style_gen.c ****     lv_obj_set_local_style_prop(obj, LV_STYLE_BG_GRAD_STOP, v, selector);
 906              		.loc 1 232 0
 907 0004 0A00     		movs	r2, r1
 908              	.LVL111:
ARM GAS  C:\Users\haske\AppData\Local\Temp\cc0eRFVw.s 			page 21


 909 0006 2521     		movs	r1, #37
 910              	.LVL112:
 911 0008 FFF7FEFF 		bl	lv_obj_set_local_style_prop
 912              	.LVL113:
 233:..\..\..\arduinoLCD\test\Pain Drain\libraries\lvgl\src\core/lv_obj_style_gen.c **** }
 913              		.loc 1 233 0
 914              		@ sp needed
 915 000c 10BD     		pop	{r4, pc}
 916              		.cfi_endproc
 917              	.LFE187:
 918              		.size	lv_obj_set_style_bg_grad_stop, .-lv_obj_set_style_bg_grad_stop
 919 000e C046     		.section	.text.lv_obj_set_style_bg_grad,"ax",%progbits
 920              		.align	2
 921              		.global	lv_obj_set_style_bg_grad
 922              		.code	16
 923              		.thumb_func
 924              		.type	lv_obj_set_style_bg_grad, %function
 925              	lv_obj_set_style_bg_grad:
 926              	.LFB188:
 234:..\..\..\arduinoLCD\test\Pain Drain\libraries\lvgl\src\core/lv_obj_style_gen.c **** 
 235:..\..\..\arduinoLCD\test\Pain Drain\libraries\lvgl\src\core/lv_obj_style_gen.c **** void lv_obj_set_style_bg_grad(struct _lv_obj_t * obj, const lv_grad_dsc_t * value, lv_style_selecto
 236:..\..\..\arduinoLCD\test\Pain Drain\libraries\lvgl\src\core/lv_obj_style_gen.c **** {
 927              		.loc 1 236 0
 928              		.cfi_startproc
 929              		@ args = 0, pretend = 0, frame = 0
 930              		@ frame_needed = 0, uses_anonymous_args = 0
 931              	.LVL114:
 932 0000 10B5     		push	{r4, lr}
 933              		.cfi_def_cfa_offset 8
 934              		.cfi_offset 4, -8
 935              		.cfi_offset 14, -4
 936 0002 1300     		movs	r3, r2
 237:..\..\..\arduinoLCD\test\Pain Drain\libraries\lvgl\src\core/lv_obj_style_gen.c ****     lv_style_value_t v = {
 238:..\..\..\arduinoLCD\test\Pain Drain\libraries\lvgl\src\core/lv_obj_style_gen.c ****         .ptr = value
 239:..\..\..\arduinoLCD\test\Pain Drain\libraries\lvgl\src\core/lv_obj_style_gen.c ****     };
 240:..\..\..\arduinoLCD\test\Pain Drain\libraries\lvgl\src\core/lv_obj_style_gen.c ****     lv_obj_set_local_style_prop(obj, LV_STYLE_BG_GRAD, v, selector);
 937              		.loc 1 240 0
 938 0004 0A00     		movs	r2, r1
 939              	.LVL115:
 940 0006 2621     		movs	r1, #38
 941              	.LVL116:
 942 0008 FFF7FEFF 		bl	lv_obj_set_local_style_prop
 943              	.LVL117:
 241:..\..\..\arduinoLCD\test\Pain Drain\libraries\lvgl\src\core/lv_obj_style_gen.c **** }
 944              		.loc 1 241 0
 945              		@ sp needed
 946 000c 10BD     		pop	{r4, pc}
 947              		.cfi_endproc
 948              	.LFE188:
 949              		.size	lv_obj_set_style_bg_grad, .-lv_obj_set_style_bg_grad
 950 000e C046     		.section	.text.lv_obj_set_style_bg_dither_mode,"ax",%progbits
 951              		.align	2
 952              		.global	lv_obj_set_style_bg_dither_mode
 953              		.code	16
 954              		.thumb_func
 955              		.type	lv_obj_set_style_bg_dither_mode, %function
 956              	lv_obj_set_style_bg_dither_mode:
ARM GAS  C:\Users\haske\AppData\Local\Temp\cc0eRFVw.s 			page 22


 957              	.LFB189:
 242:..\..\..\arduinoLCD\test\Pain Drain\libraries\lvgl\src\core/lv_obj_style_gen.c **** 
 243:..\..\..\arduinoLCD\test\Pain Drain\libraries\lvgl\src\core/lv_obj_style_gen.c **** void lv_obj_set_style_bg_dither_mode(struct _lv_obj_t * obj, lv_dither_mode_t value, lv_style_selec
 244:..\..\..\arduinoLCD\test\Pain Drain\libraries\lvgl\src\core/lv_obj_style_gen.c **** {
 958              		.loc 1 244 0
 959              		.cfi_startproc
 960              		@ args = 0, pretend = 0, frame = 0
 961              		@ frame_needed = 0, uses_anonymous_args = 0
 962              	.LVL118:
 963 0000 10B5     		push	{r4, lr}
 964              		.cfi_def_cfa_offset 8
 965              		.cfi_offset 4, -8
 966              		.cfi_offset 14, -4
 967 0002 1300     		movs	r3, r2
 245:..\..\..\arduinoLCD\test\Pain Drain\libraries\lvgl\src\core/lv_obj_style_gen.c ****     lv_style_value_t v = {
 246:..\..\..\arduinoLCD\test\Pain Drain\libraries\lvgl\src\core/lv_obj_style_gen.c ****         .num = (int32_t)value
 247:..\..\..\arduinoLCD\test\Pain Drain\libraries\lvgl\src\core/lv_obj_style_gen.c ****     };
 248:..\..\..\arduinoLCD\test\Pain Drain\libraries\lvgl\src\core/lv_obj_style_gen.c ****     lv_obj_set_local_style_prop(obj, LV_STYLE_BG_DITHER_MODE, v, selector);
 968              		.loc 1 248 0
 969 0004 0A00     		movs	r2, r1
 970              	.LVL119:
 971 0006 2721     		movs	r1, #39
 972              	.LVL120:
 973 0008 FFF7FEFF 		bl	lv_obj_set_local_style_prop
 974              	.LVL121:
 249:..\..\..\arduinoLCD\test\Pain Drain\libraries\lvgl\src\core/lv_obj_style_gen.c **** }
 975              		.loc 1 249 0
 976              		@ sp needed
 977 000c 10BD     		pop	{r4, pc}
 978              		.cfi_endproc
 979              	.LFE189:
 980              		.size	lv_obj_set_style_bg_dither_mode, .-lv_obj_set_style_bg_dither_mode
 981 000e C046     		.section	.text.lv_obj_set_style_bg_img_src,"ax",%progbits
 982              		.align	2
 983              		.global	lv_obj_set_style_bg_img_src
 984              		.code	16
 985              		.thumb_func
 986              		.type	lv_obj_set_style_bg_img_src, %function
 987              	lv_obj_set_style_bg_img_src:
 988              	.LFB190:
 250:..\..\..\arduinoLCD\test\Pain Drain\libraries\lvgl\src\core/lv_obj_style_gen.c **** 
 251:..\..\..\arduinoLCD\test\Pain Drain\libraries\lvgl\src\core/lv_obj_style_gen.c **** void lv_obj_set_style_bg_img_src(struct _lv_obj_t * obj, const void * value, lv_style_selector_t se
 252:..\..\..\arduinoLCD\test\Pain Drain\libraries\lvgl\src\core/lv_obj_style_gen.c **** {
 989              		.loc 1 252 0
 990              		.cfi_startproc
 991              		@ args = 0, pretend = 0, frame = 0
 992              		@ frame_needed = 0, uses_anonymous_args = 0
 993              	.LVL122:
 994 0000 10B5     		push	{r4, lr}
 995              		.cfi_def_cfa_offset 8
 996              		.cfi_offset 4, -8
 997              		.cfi_offset 14, -4
 998 0002 1300     		movs	r3, r2
 253:..\..\..\arduinoLCD\test\Pain Drain\libraries\lvgl\src\core/lv_obj_style_gen.c ****     lv_style_value_t v = {
 254:..\..\..\arduinoLCD\test\Pain Drain\libraries\lvgl\src\core/lv_obj_style_gen.c ****         .ptr = value
 255:..\..\..\arduinoLCD\test\Pain Drain\libraries\lvgl\src\core/lv_obj_style_gen.c ****     };
 256:..\..\..\arduinoLCD\test\Pain Drain\libraries\lvgl\src\core/lv_obj_style_gen.c ****     lv_obj_set_local_style_prop(obj, LV_STYLE_BG_IMG_SRC, v, selector);
ARM GAS  C:\Users\haske\AppData\Local\Temp\cc0eRFVw.s 			page 23


 999              		.loc 1 256 0
 1000 0004 0A00     		movs	r2, r1
 1001              	.LVL123:
 1002 0006 2821     		movs	r1, #40
 1003              	.LVL124:
 1004 0008 FFF7FEFF 		bl	lv_obj_set_local_style_prop
 1005              	.LVL125:
 257:..\..\..\arduinoLCD\test\Pain Drain\libraries\lvgl\src\core/lv_obj_style_gen.c **** }
 1006              		.loc 1 257 0
 1007              		@ sp needed
 1008 000c 10BD     		pop	{r4, pc}
 1009              		.cfi_endproc
 1010              	.LFE190:
 1011              		.size	lv_obj_set_style_bg_img_src, .-lv_obj_set_style_bg_img_src
 1012 000e C046     		.section	.text.lv_obj_set_style_bg_img_opa,"ax",%progbits
 1013              		.align	2
 1014              		.global	lv_obj_set_style_bg_img_opa
 1015              		.code	16
 1016              		.thumb_func
 1017              		.type	lv_obj_set_style_bg_img_opa, %function
 1018              	lv_obj_set_style_bg_img_opa:
 1019              	.LFB191:
 258:..\..\..\arduinoLCD\test\Pain Drain\libraries\lvgl\src\core/lv_obj_style_gen.c **** 
 259:..\..\..\arduinoLCD\test\Pain Drain\libraries\lvgl\src\core/lv_obj_style_gen.c **** void lv_obj_set_style_bg_img_opa(struct _lv_obj_t * obj, lv_opa_t value, lv_style_selector_t select
 260:..\..\..\arduinoLCD\test\Pain Drain\libraries\lvgl\src\core/lv_obj_style_gen.c **** {
 1020              		.loc 1 260 0
 1021              		.cfi_startproc
 1022              		@ args = 0, pretend = 0, frame = 0
 1023              		@ frame_needed = 0, uses_anonymous_args = 0
 1024              	.LVL126:
 1025 0000 10B5     		push	{r4, lr}
 1026              		.cfi_def_cfa_offset 8
 1027              		.cfi_offset 4, -8
 1028              		.cfi_offset 14, -4
 1029 0002 1300     		movs	r3, r2
 261:..\..\..\arduinoLCD\test\Pain Drain\libraries\lvgl\src\core/lv_obj_style_gen.c ****     lv_style_value_t v = {
 262:..\..\..\arduinoLCD\test\Pain Drain\libraries\lvgl\src\core/lv_obj_style_gen.c ****         .num = (int32_t)value
 263:..\..\..\arduinoLCD\test\Pain Drain\libraries\lvgl\src\core/lv_obj_style_gen.c ****     };
 264:..\..\..\arduinoLCD\test\Pain Drain\libraries\lvgl\src\core/lv_obj_style_gen.c ****     lv_obj_set_local_style_prop(obj, LV_STYLE_BG_IMG_OPA, v, selector);
 1030              		.loc 1 264 0
 1031 0004 0A00     		movs	r2, r1
 1032              	.LVL127:
 1033 0006 2921     		movs	r1, #41
 1034              	.LVL128:
 1035 0008 FFF7FEFF 		bl	lv_obj_set_local_style_prop
 1036              	.LVL129:
 265:..\..\..\arduinoLCD\test\Pain Drain\libraries\lvgl\src\core/lv_obj_style_gen.c **** }
 1037              		.loc 1 265 0
 1038              		@ sp needed
 1039 000c 10BD     		pop	{r4, pc}
 1040              		.cfi_endproc
 1041              	.LFE191:
 1042              		.size	lv_obj_set_style_bg_img_opa, .-lv_obj_set_style_bg_img_opa
 1043 000e C046     		.section	.text.lv_obj_set_style_bg_img_recolor,"ax",%progbits
 1044              		.align	2
 1045              		.global	lv_obj_set_style_bg_img_recolor
 1046              		.code	16
ARM GAS  C:\Users\haske\AppData\Local\Temp\cc0eRFVw.s 			page 24


 1047              		.thumb_func
 1048              		.type	lv_obj_set_style_bg_img_recolor, %function
 1049              	lv_obj_set_style_bg_img_recolor:
 1050              	.LFB192:
 266:..\..\..\arduinoLCD\test\Pain Drain\libraries\lvgl\src\core/lv_obj_style_gen.c **** 
 267:..\..\..\arduinoLCD\test\Pain Drain\libraries\lvgl\src\core/lv_obj_style_gen.c **** void lv_obj_set_style_bg_img_recolor(struct _lv_obj_t * obj, lv_color_t value, lv_style_selector_t 
 268:..\..\..\arduinoLCD\test\Pain Drain\libraries\lvgl\src\core/lv_obj_style_gen.c **** {
 1051              		.loc 1 268 0
 1052              		.cfi_startproc
 1053              		@ args = 0, pretend = 0, frame = 0
 1054              		@ frame_needed = 0, uses_anonymous_args = 0
 1055              	.LVL130:
 1056 0000 10B5     		push	{r4, lr}
 1057              		.cfi_def_cfa_offset 8
 1058              		.cfi_offset 4, -8
 1059              		.cfi_offset 14, -4
 1060 0002 1300     		movs	r3, r2
 269:..\..\..\arduinoLCD\test\Pain Drain\libraries\lvgl\src\core/lv_obj_style_gen.c ****     lv_style_value_t v = {
 1061              		.loc 1 269 0
 1062 0004 8AB2     		uxth	r2, r1
 1063              	.LVL131:
 270:..\..\..\arduinoLCD\test\Pain Drain\libraries\lvgl\src\core/lv_obj_style_gen.c ****         .color = value
 271:..\..\..\arduinoLCD\test\Pain Drain\libraries\lvgl\src\core/lv_obj_style_gen.c ****     };
 272:..\..\..\arduinoLCD\test\Pain Drain\libraries\lvgl\src\core/lv_obj_style_gen.c ****     lv_obj_set_local_style_prop(obj, LV_STYLE_BG_IMG_RECOLOR, v, selector);
 1064              		.loc 1 272 0
 1065 0006 2A21     		movs	r1, #42
 1066 0008 FFF7FEFF 		bl	lv_obj_set_local_style_prop
 1067              	.LVL132:
 273:..\..\..\arduinoLCD\test\Pain Drain\libraries\lvgl\src\core/lv_obj_style_gen.c **** }
 1068              		.loc 1 273 0
 1069              		@ sp needed
 1070 000c 10BD     		pop	{r4, pc}
 1071              		.cfi_endproc
 1072              	.LFE192:
 1073              		.size	lv_obj_set_style_bg_img_recolor, .-lv_obj_set_style_bg_img_recolor
 1074 000e C046     		.section	.text.lv_obj_set_style_bg_img_recolor_opa,"ax",%progbits
 1075              		.align	2
 1076              		.global	lv_obj_set_style_bg_img_recolor_opa
 1077              		.code	16
 1078              		.thumb_func
 1079              		.type	lv_obj_set_style_bg_img_recolor_opa, %function
 1080              	lv_obj_set_style_bg_img_recolor_opa:
 1081              	.LFB193:
 274:..\..\..\arduinoLCD\test\Pain Drain\libraries\lvgl\src\core/lv_obj_style_gen.c **** 
 275:..\..\..\arduinoLCD\test\Pain Drain\libraries\lvgl\src\core/lv_obj_style_gen.c **** void lv_obj_set_style_bg_img_recolor_opa(struct _lv_obj_t * obj, lv_opa_t value, lv_style_selector_
 276:..\..\..\arduinoLCD\test\Pain Drain\libraries\lvgl\src\core/lv_obj_style_gen.c **** {
 1082              		.loc 1 276 0
 1083              		.cfi_startproc
 1084              		@ args = 0, pretend = 0, frame = 0
 1085              		@ frame_needed = 0, uses_anonymous_args = 0
 1086              	.LVL133:
 1087 0000 10B5     		push	{r4, lr}
 1088              		.cfi_def_cfa_offset 8
 1089              		.cfi_offset 4, -8
 1090              		.cfi_offset 14, -4
 1091 0002 1300     		movs	r3, r2
 277:..\..\..\arduinoLCD\test\Pain Drain\libraries\lvgl\src\core/lv_obj_style_gen.c ****     lv_style_value_t v = {
ARM GAS  C:\Users\haske\AppData\Local\Temp\cc0eRFVw.s 			page 25


 278:..\..\..\arduinoLCD\test\Pain Drain\libraries\lvgl\src\core/lv_obj_style_gen.c ****         .num = (int32_t)value
 279:..\..\..\arduinoLCD\test\Pain Drain\libraries\lvgl\src\core/lv_obj_style_gen.c ****     };
 280:..\..\..\arduinoLCD\test\Pain Drain\libraries\lvgl\src\core/lv_obj_style_gen.c ****     lv_obj_set_local_style_prop(obj, LV_STYLE_BG_IMG_RECOLOR_OPA, v, selector);
 1092              		.loc 1 280 0
 1093 0004 0A00     		movs	r2, r1
 1094              	.LVL134:
 1095 0006 2B21     		movs	r1, #43
 1096              	.LVL135:
 1097 0008 FFF7FEFF 		bl	lv_obj_set_local_style_prop
 1098              	.LVL136:
 281:..\..\..\arduinoLCD\test\Pain Drain\libraries\lvgl\src\core/lv_obj_style_gen.c **** }
 1099              		.loc 1 281 0
 1100              		@ sp needed
 1101 000c 10BD     		pop	{r4, pc}
 1102              		.cfi_endproc
 1103              	.LFE193:
 1104              		.size	lv_obj_set_style_bg_img_recolor_opa, .-lv_obj_set_style_bg_img_recolor_opa
 1105 000e C046     		.section	.text.lv_obj_set_style_bg_img_tiled,"ax",%progbits
 1106              		.align	2
 1107              		.global	lv_obj_set_style_bg_img_tiled
 1108              		.code	16
 1109              		.thumb_func
 1110              		.type	lv_obj_set_style_bg_img_tiled, %function
 1111              	lv_obj_set_style_bg_img_tiled:
 1112              	.LFB194:
 282:..\..\..\arduinoLCD\test\Pain Drain\libraries\lvgl\src\core/lv_obj_style_gen.c **** 
 283:..\..\..\arduinoLCD\test\Pain Drain\libraries\lvgl\src\core/lv_obj_style_gen.c **** void lv_obj_set_style_bg_img_tiled(struct _lv_obj_t * obj, bool value, lv_style_selector_t selector
 284:..\..\..\arduinoLCD\test\Pain Drain\libraries\lvgl\src\core/lv_obj_style_gen.c **** {
 1113              		.loc 1 284 0
 1114              		.cfi_startproc
 1115              		@ args = 0, pretend = 0, frame = 0
 1116              		@ frame_needed = 0, uses_anonymous_args = 0
 1117              	.LVL137:
 1118 0000 10B5     		push	{r4, lr}
 1119              		.cfi_def_cfa_offset 8
 1120              		.cfi_offset 4, -8
 1121              		.cfi_offset 14, -4
 1122 0002 1300     		movs	r3, r2
 285:..\..\..\arduinoLCD\test\Pain Drain\libraries\lvgl\src\core/lv_obj_style_gen.c ****     lv_style_value_t v = {
 286:..\..\..\arduinoLCD\test\Pain Drain\libraries\lvgl\src\core/lv_obj_style_gen.c ****         .num = (int32_t)value
 287:..\..\..\arduinoLCD\test\Pain Drain\libraries\lvgl\src\core/lv_obj_style_gen.c ****     };
 288:..\..\..\arduinoLCD\test\Pain Drain\libraries\lvgl\src\core/lv_obj_style_gen.c ****     lv_obj_set_local_style_prop(obj, LV_STYLE_BG_IMG_TILED, v, selector);
 1123              		.loc 1 288 0
 1124 0004 0A00     		movs	r2, r1
 1125              	.LVL138:
 1126 0006 2C21     		movs	r1, #44
 1127              	.LVL139:
 1128 0008 FFF7FEFF 		bl	lv_obj_set_local_style_prop
 1129              	.LVL140:
 289:..\..\..\arduinoLCD\test\Pain Drain\libraries\lvgl\src\core/lv_obj_style_gen.c **** }
 1130              		.loc 1 289 0
 1131              		@ sp needed
 1132 000c 10BD     		pop	{r4, pc}
 1133              		.cfi_endproc
 1134              	.LFE194:
 1135              		.size	lv_obj_set_style_bg_img_tiled, .-lv_obj_set_style_bg_img_tiled
 1136 000e C046     		.section	.text.lv_obj_set_style_border_color,"ax",%progbits
ARM GAS  C:\Users\haske\AppData\Local\Temp\cc0eRFVw.s 			page 26


 1137              		.align	2
 1138              		.global	lv_obj_set_style_border_color
 1139              		.code	16
 1140              		.thumb_func
 1141              		.type	lv_obj_set_style_border_color, %function
 1142              	lv_obj_set_style_border_color:
 1143              	.LFB195:
 290:..\..\..\arduinoLCD\test\Pain Drain\libraries\lvgl\src\core/lv_obj_style_gen.c **** 
 291:..\..\..\arduinoLCD\test\Pain Drain\libraries\lvgl\src\core/lv_obj_style_gen.c **** void lv_obj_set_style_border_color(struct _lv_obj_t * obj, lv_color_t value, lv_style_selector_t se
 292:..\..\..\arduinoLCD\test\Pain Drain\libraries\lvgl\src\core/lv_obj_style_gen.c **** {
 1144              		.loc 1 292 0
 1145              		.cfi_startproc
 1146              		@ args = 0, pretend = 0, frame = 0
 1147              		@ frame_needed = 0, uses_anonymous_args = 0
 1148              	.LVL141:
 1149 0000 10B5     		push	{r4, lr}
 1150              		.cfi_def_cfa_offset 8
 1151              		.cfi_offset 4, -8
 1152              		.cfi_offset 14, -4
 1153 0002 1300     		movs	r3, r2
 293:..\..\..\arduinoLCD\test\Pain Drain\libraries\lvgl\src\core/lv_obj_style_gen.c ****     lv_style_value_t v = {
 1154              		.loc 1 293 0
 1155 0004 8AB2     		uxth	r2, r1
 1156              	.LVL142:
 294:..\..\..\arduinoLCD\test\Pain Drain\libraries\lvgl\src\core/lv_obj_style_gen.c ****         .color = value
 295:..\..\..\arduinoLCD\test\Pain Drain\libraries\lvgl\src\core/lv_obj_style_gen.c ****     };
 296:..\..\..\arduinoLCD\test\Pain Drain\libraries\lvgl\src\core/lv_obj_style_gen.c ****     lv_obj_set_local_style_prop(obj, LV_STYLE_BORDER_COLOR, v, selector);
 1157              		.loc 1 296 0
 1158 0006 3021     		movs	r1, #48
 1159 0008 FFF7FEFF 		bl	lv_obj_set_local_style_prop
 1160              	.LVL143:
 297:..\..\..\arduinoLCD\test\Pain Drain\libraries\lvgl\src\core/lv_obj_style_gen.c **** }
 1161              		.loc 1 297 0
 1162              		@ sp needed
 1163 000c 10BD     		pop	{r4, pc}
 1164              		.cfi_endproc
 1165              	.LFE195:
 1166              		.size	lv_obj_set_style_border_color, .-lv_obj_set_style_border_color
 1167 000e C046     		.section	.text.lv_obj_set_style_border_opa,"ax",%progbits
 1168              		.align	2
 1169              		.global	lv_obj_set_style_border_opa
 1170              		.code	16
 1171              		.thumb_func
 1172              		.type	lv_obj_set_style_border_opa, %function
 1173              	lv_obj_set_style_border_opa:
 1174              	.LFB196:
 298:..\..\..\arduinoLCD\test\Pain Drain\libraries\lvgl\src\core/lv_obj_style_gen.c **** 
 299:..\..\..\arduinoLCD\test\Pain Drain\libraries\lvgl\src\core/lv_obj_style_gen.c **** void lv_obj_set_style_border_opa(struct _lv_obj_t * obj, lv_opa_t value, lv_style_selector_t select
 300:..\..\..\arduinoLCD\test\Pain Drain\libraries\lvgl\src\core/lv_obj_style_gen.c **** {
 1175              		.loc 1 300 0
 1176              		.cfi_startproc
 1177              		@ args = 0, pretend = 0, frame = 0
 1178              		@ frame_needed = 0, uses_anonymous_args = 0
 1179              	.LVL144:
 1180 0000 10B5     		push	{r4, lr}
 1181              		.cfi_def_cfa_offset 8
 1182              		.cfi_offset 4, -8
ARM GAS  C:\Users\haske\AppData\Local\Temp\cc0eRFVw.s 			page 27


 1183              		.cfi_offset 14, -4
 1184 0002 1300     		movs	r3, r2
 301:..\..\..\arduinoLCD\test\Pain Drain\libraries\lvgl\src\core/lv_obj_style_gen.c ****     lv_style_value_t v = {
 302:..\..\..\arduinoLCD\test\Pain Drain\libraries\lvgl\src\core/lv_obj_style_gen.c ****         .num = (int32_t)value
 303:..\..\..\arduinoLCD\test\Pain Drain\libraries\lvgl\src\core/lv_obj_style_gen.c ****     };
 304:..\..\..\arduinoLCD\test\Pain Drain\libraries\lvgl\src\core/lv_obj_style_gen.c ****     lv_obj_set_local_style_prop(obj, LV_STYLE_BORDER_OPA, v, selector);
 1185              		.loc 1 304 0
 1186 0004 0A00     		movs	r2, r1
 1187              	.LVL145:
 1188 0006 3121     		movs	r1, #49
 1189              	.LVL146:
 1190 0008 FFF7FEFF 		bl	lv_obj_set_local_style_prop
 1191              	.LVL147:
 305:..\..\..\arduinoLCD\test\Pain Drain\libraries\lvgl\src\core/lv_obj_style_gen.c **** }
 1192              		.loc 1 305 0
 1193              		@ sp needed
 1194 000c 10BD     		pop	{r4, pc}
 1195              		.cfi_endproc
 1196              	.LFE196:
 1197              		.size	lv_obj_set_style_border_opa, .-lv_obj_set_style_border_opa
 1198 000e C046     		.section	.text.lv_obj_set_style_border_width,"ax",%progbits
 1199              		.align	2
 1200              		.global	lv_obj_set_style_border_width
 1201              		.code	16
 1202              		.thumb_func
 1203              		.type	lv_obj_set_style_border_width, %function
 1204              	lv_obj_set_style_border_width:
 1205              	.LFB197:
 306:..\..\..\arduinoLCD\test\Pain Drain\libraries\lvgl\src\core/lv_obj_style_gen.c **** 
 307:..\..\..\arduinoLCD\test\Pain Drain\libraries\lvgl\src\core/lv_obj_style_gen.c **** void lv_obj_set_style_border_width(struct _lv_obj_t * obj, lv_coord_t value, lv_style_selector_t se
 308:..\..\..\arduinoLCD\test\Pain Drain\libraries\lvgl\src\core/lv_obj_style_gen.c **** {
 1206              		.loc 1 308 0
 1207              		.cfi_startproc
 1208              		@ args = 0, pretend = 0, frame = 0
 1209              		@ frame_needed = 0, uses_anonymous_args = 0
 1210              	.LVL148:
 1211 0000 10B5     		push	{r4, lr}
 1212              		.cfi_def_cfa_offset 8
 1213              		.cfi_offset 4, -8
 1214              		.cfi_offset 14, -4
 1215 0002 1300     		movs	r3, r2
 309:..\..\..\arduinoLCD\test\Pain Drain\libraries\lvgl\src\core/lv_obj_style_gen.c ****     lv_style_value_t v = {
 310:..\..\..\arduinoLCD\test\Pain Drain\libraries\lvgl\src\core/lv_obj_style_gen.c ****         .num = (int32_t)value
 311:..\..\..\arduinoLCD\test\Pain Drain\libraries\lvgl\src\core/lv_obj_style_gen.c ****     };
 312:..\..\..\arduinoLCD\test\Pain Drain\libraries\lvgl\src\core/lv_obj_style_gen.c ****     lv_obj_set_local_style_prop(obj, LV_STYLE_BORDER_WIDTH, v, selector);
 1216              		.loc 1 312 0
 1217 0004 0A00     		movs	r2, r1
 1218              	.LVL149:
 1219 0006 3221     		movs	r1, #50
 1220              	.LVL150:
 1221 0008 FFF7FEFF 		bl	lv_obj_set_local_style_prop
 1222              	.LVL151:
 313:..\..\..\arduinoLCD\test\Pain Drain\libraries\lvgl\src\core/lv_obj_style_gen.c **** }
 1223              		.loc 1 313 0
 1224              		@ sp needed
 1225 000c 10BD     		pop	{r4, pc}
 1226              		.cfi_endproc
ARM GAS  C:\Users\haske\AppData\Local\Temp\cc0eRFVw.s 			page 28


 1227              	.LFE197:
 1228              		.size	lv_obj_set_style_border_width, .-lv_obj_set_style_border_width
 1229 000e C046     		.section	.text.lv_obj_set_style_border_side,"ax",%progbits
 1230              		.align	2
 1231              		.global	lv_obj_set_style_border_side
 1232              		.code	16
 1233              		.thumb_func
 1234              		.type	lv_obj_set_style_border_side, %function
 1235              	lv_obj_set_style_border_side:
 1236              	.LFB198:
 314:..\..\..\arduinoLCD\test\Pain Drain\libraries\lvgl\src\core/lv_obj_style_gen.c **** 
 315:..\..\..\arduinoLCD\test\Pain Drain\libraries\lvgl\src\core/lv_obj_style_gen.c **** void lv_obj_set_style_border_side(struct _lv_obj_t * obj, lv_border_side_t value, lv_style_selector
 316:..\..\..\arduinoLCD\test\Pain Drain\libraries\lvgl\src\core/lv_obj_style_gen.c **** {
 1237              		.loc 1 316 0
 1238              		.cfi_startproc
 1239              		@ args = 0, pretend = 0, frame = 0
 1240              		@ frame_needed = 0, uses_anonymous_args = 0
 1241              	.LVL152:
 1242 0000 10B5     		push	{r4, lr}
 1243              		.cfi_def_cfa_offset 8
 1244              		.cfi_offset 4, -8
 1245              		.cfi_offset 14, -4
 1246 0002 1300     		movs	r3, r2
 317:..\..\..\arduinoLCD\test\Pain Drain\libraries\lvgl\src\core/lv_obj_style_gen.c ****     lv_style_value_t v = {
 318:..\..\..\arduinoLCD\test\Pain Drain\libraries\lvgl\src\core/lv_obj_style_gen.c ****         .num = (int32_t)value
 319:..\..\..\arduinoLCD\test\Pain Drain\libraries\lvgl\src\core/lv_obj_style_gen.c ****     };
 320:..\..\..\arduinoLCD\test\Pain Drain\libraries\lvgl\src\core/lv_obj_style_gen.c ****     lv_obj_set_local_style_prop(obj, LV_STYLE_BORDER_SIDE, v, selector);
 1247              		.loc 1 320 0
 1248 0004 0A00     		movs	r2, r1
 1249              	.LVL153:
 1250 0006 3321     		movs	r1, #51
 1251              	.LVL154:
 1252 0008 FFF7FEFF 		bl	lv_obj_set_local_style_prop
 1253              	.LVL155:
 321:..\..\..\arduinoLCD\test\Pain Drain\libraries\lvgl\src\core/lv_obj_style_gen.c **** }
 1254              		.loc 1 321 0
 1255              		@ sp needed
 1256 000c 10BD     		pop	{r4, pc}
 1257              		.cfi_endproc
 1258              	.LFE198:
 1259              		.size	lv_obj_set_style_border_side, .-lv_obj_set_style_border_side
 1260 000e C046     		.section	.text.lv_obj_set_style_border_post,"ax",%progbits
 1261              		.align	2
 1262              		.global	lv_obj_set_style_border_post
 1263              		.code	16
 1264              		.thumb_func
 1265              		.type	lv_obj_set_style_border_post, %function
 1266              	lv_obj_set_style_border_post:
 1267              	.LFB199:
 322:..\..\..\arduinoLCD\test\Pain Drain\libraries\lvgl\src\core/lv_obj_style_gen.c **** 
 323:..\..\..\arduinoLCD\test\Pain Drain\libraries\lvgl\src\core/lv_obj_style_gen.c **** void lv_obj_set_style_border_post(struct _lv_obj_t * obj, bool value, lv_style_selector_t selector)
 324:..\..\..\arduinoLCD\test\Pain Drain\libraries\lvgl\src\core/lv_obj_style_gen.c **** {
 1268              		.loc 1 324 0
 1269              		.cfi_startproc
 1270              		@ args = 0, pretend = 0, frame = 0
 1271              		@ frame_needed = 0, uses_anonymous_args = 0
 1272              	.LVL156:
ARM GAS  C:\Users\haske\AppData\Local\Temp\cc0eRFVw.s 			page 29


 1273 0000 10B5     		push	{r4, lr}
 1274              		.cfi_def_cfa_offset 8
 1275              		.cfi_offset 4, -8
 1276              		.cfi_offset 14, -4
 1277 0002 1300     		movs	r3, r2
 325:..\..\..\arduinoLCD\test\Pain Drain\libraries\lvgl\src\core/lv_obj_style_gen.c ****     lv_style_value_t v = {
 326:..\..\..\arduinoLCD\test\Pain Drain\libraries\lvgl\src\core/lv_obj_style_gen.c ****         .num = (int32_t)value
 327:..\..\..\arduinoLCD\test\Pain Drain\libraries\lvgl\src\core/lv_obj_style_gen.c ****     };
 328:..\..\..\arduinoLCD\test\Pain Drain\libraries\lvgl\src\core/lv_obj_style_gen.c ****     lv_obj_set_local_style_prop(obj, LV_STYLE_BORDER_POST, v, selector);
 1278              		.loc 1 328 0
 1279 0004 0A00     		movs	r2, r1
 1280              	.LVL157:
 1281 0006 3421     		movs	r1, #52
 1282              	.LVL158:
 1283 0008 FFF7FEFF 		bl	lv_obj_set_local_style_prop
 1284              	.LVL159:
 329:..\..\..\arduinoLCD\test\Pain Drain\libraries\lvgl\src\core/lv_obj_style_gen.c **** }
 1285              		.loc 1 329 0
 1286              		@ sp needed
 1287 000c 10BD     		pop	{r4, pc}
 1288              		.cfi_endproc
 1289              	.LFE199:
 1290              		.size	lv_obj_set_style_border_post, .-lv_obj_set_style_border_post
 1291 000e C046     		.section	.text.lv_obj_set_style_outline_width,"ax",%progbits
 1292              		.align	2
 1293              		.global	lv_obj_set_style_outline_width
 1294              		.code	16
 1295              		.thumb_func
 1296              		.type	lv_obj_set_style_outline_width, %function
 1297              	lv_obj_set_style_outline_width:
 1298              	.LFB200:
 330:..\..\..\arduinoLCD\test\Pain Drain\libraries\lvgl\src\core/lv_obj_style_gen.c **** 
 331:..\..\..\arduinoLCD\test\Pain Drain\libraries\lvgl\src\core/lv_obj_style_gen.c **** void lv_obj_set_style_outline_width(struct _lv_obj_t * obj, lv_coord_t value, lv_style_selector_t s
 332:..\..\..\arduinoLCD\test\Pain Drain\libraries\lvgl\src\core/lv_obj_style_gen.c **** {
 1299              		.loc 1 332 0
 1300              		.cfi_startproc
 1301              		@ args = 0, pretend = 0, frame = 0
 1302              		@ frame_needed = 0, uses_anonymous_args = 0
 1303              	.LVL160:
 1304 0000 10B5     		push	{r4, lr}
 1305              		.cfi_def_cfa_offset 8
 1306              		.cfi_offset 4, -8
 1307              		.cfi_offset 14, -4
 1308 0002 1300     		movs	r3, r2
 333:..\..\..\arduinoLCD\test\Pain Drain\libraries\lvgl\src\core/lv_obj_style_gen.c ****     lv_style_value_t v = {
 334:..\..\..\arduinoLCD\test\Pain Drain\libraries\lvgl\src\core/lv_obj_style_gen.c ****         .num = (int32_t)value
 335:..\..\..\arduinoLCD\test\Pain Drain\libraries\lvgl\src\core/lv_obj_style_gen.c ****     };
 336:..\..\..\arduinoLCD\test\Pain Drain\libraries\lvgl\src\core/lv_obj_style_gen.c ****     lv_obj_set_local_style_prop(obj, LV_STYLE_OUTLINE_WIDTH, v, selector);
 1309              		.loc 1 336 0
 1310 0004 0A00     		movs	r2, r1
 1311              	.LVL161:
 1312 0006 3521     		movs	r1, #53
 1313              	.LVL162:
 1314 0008 FFF7FEFF 		bl	lv_obj_set_local_style_prop
 1315              	.LVL163:
 337:..\..\..\arduinoLCD\test\Pain Drain\libraries\lvgl\src\core/lv_obj_style_gen.c **** }
 1316              		.loc 1 337 0
ARM GAS  C:\Users\haske\AppData\Local\Temp\cc0eRFVw.s 			page 30


 1317              		@ sp needed
 1318 000c 10BD     		pop	{r4, pc}
 1319              		.cfi_endproc
 1320              	.LFE200:
 1321              		.size	lv_obj_set_style_outline_width, .-lv_obj_set_style_outline_width
 1322 000e C046     		.section	.text.lv_obj_set_style_outline_color,"ax",%progbits
 1323              		.align	2
 1324              		.global	lv_obj_set_style_outline_color
 1325              		.code	16
 1326              		.thumb_func
 1327              		.type	lv_obj_set_style_outline_color, %function
 1328              	lv_obj_set_style_outline_color:
 1329              	.LFB201:
 338:..\..\..\arduinoLCD\test\Pain Drain\libraries\lvgl\src\core/lv_obj_style_gen.c **** 
 339:..\..\..\arduinoLCD\test\Pain Drain\libraries\lvgl\src\core/lv_obj_style_gen.c **** void lv_obj_set_style_outline_color(struct _lv_obj_t * obj, lv_color_t value, lv_style_selector_t s
 340:..\..\..\arduinoLCD\test\Pain Drain\libraries\lvgl\src\core/lv_obj_style_gen.c **** {
 1330              		.loc 1 340 0
 1331              		.cfi_startproc
 1332              		@ args = 0, pretend = 0, frame = 0
 1333              		@ frame_needed = 0, uses_anonymous_args = 0
 1334              	.LVL164:
 1335 0000 10B5     		push	{r4, lr}
 1336              		.cfi_def_cfa_offset 8
 1337              		.cfi_offset 4, -8
 1338              		.cfi_offset 14, -4
 1339 0002 1300     		movs	r3, r2
 341:..\..\..\arduinoLCD\test\Pain Drain\libraries\lvgl\src\core/lv_obj_style_gen.c ****     lv_style_value_t v = {
 1340              		.loc 1 341 0
 1341 0004 8AB2     		uxth	r2, r1
 1342              	.LVL165:
 342:..\..\..\arduinoLCD\test\Pain Drain\libraries\lvgl\src\core/lv_obj_style_gen.c ****         .color = value
 343:..\..\..\arduinoLCD\test\Pain Drain\libraries\lvgl\src\core/lv_obj_style_gen.c ****     };
 344:..\..\..\arduinoLCD\test\Pain Drain\libraries\lvgl\src\core/lv_obj_style_gen.c ****     lv_obj_set_local_style_prop(obj, LV_STYLE_OUTLINE_COLOR, v, selector);
 1343              		.loc 1 344 0
 1344 0006 3621     		movs	r1, #54
 1345 0008 FFF7FEFF 		bl	lv_obj_set_local_style_prop
 1346              	.LVL166:
 345:..\..\..\arduinoLCD\test\Pain Drain\libraries\lvgl\src\core/lv_obj_style_gen.c **** }
 1347              		.loc 1 345 0
 1348              		@ sp needed
 1349 000c 10BD     		pop	{r4, pc}
 1350              		.cfi_endproc
 1351              	.LFE201:
 1352              		.size	lv_obj_set_style_outline_color, .-lv_obj_set_style_outline_color
 1353 000e C046     		.section	.text.lv_obj_set_style_outline_opa,"ax",%progbits
 1354              		.align	2
 1355              		.global	lv_obj_set_style_outline_opa
 1356              		.code	16
 1357              		.thumb_func
 1358              		.type	lv_obj_set_style_outline_opa, %function
 1359              	lv_obj_set_style_outline_opa:
 1360              	.LFB202:
 346:..\..\..\arduinoLCD\test\Pain Drain\libraries\lvgl\src\core/lv_obj_style_gen.c **** 
 347:..\..\..\arduinoLCD\test\Pain Drain\libraries\lvgl\src\core/lv_obj_style_gen.c **** void lv_obj_set_style_outline_opa(struct _lv_obj_t * obj, lv_opa_t value, lv_style_selector_t selec
 348:..\..\..\arduinoLCD\test\Pain Drain\libraries\lvgl\src\core/lv_obj_style_gen.c **** {
 1361              		.loc 1 348 0
 1362              		.cfi_startproc
ARM GAS  C:\Users\haske\AppData\Local\Temp\cc0eRFVw.s 			page 31


 1363              		@ args = 0, pretend = 0, frame = 0
 1364              		@ frame_needed = 0, uses_anonymous_args = 0
 1365              	.LVL167:
 1366 0000 10B5     		push	{r4, lr}
 1367              		.cfi_def_cfa_offset 8
 1368              		.cfi_offset 4, -8
 1369              		.cfi_offset 14, -4
 1370 0002 1300     		movs	r3, r2
 349:..\..\..\arduinoLCD\test\Pain Drain\libraries\lvgl\src\core/lv_obj_style_gen.c ****     lv_style_value_t v = {
 350:..\..\..\arduinoLCD\test\Pain Drain\libraries\lvgl\src\core/lv_obj_style_gen.c ****         .num = (int32_t)value
 351:..\..\..\arduinoLCD\test\Pain Drain\libraries\lvgl\src\core/lv_obj_style_gen.c ****     };
 352:..\..\..\arduinoLCD\test\Pain Drain\libraries\lvgl\src\core/lv_obj_style_gen.c ****     lv_obj_set_local_style_prop(obj, LV_STYLE_OUTLINE_OPA, v, selector);
 1371              		.loc 1 352 0
 1372 0004 0A00     		movs	r2, r1
 1373              	.LVL168:
 1374 0006 3721     		movs	r1, #55
 1375              	.LVL169:
 1376 0008 FFF7FEFF 		bl	lv_obj_set_local_style_prop
 1377              	.LVL170:
 353:..\..\..\arduinoLCD\test\Pain Drain\libraries\lvgl\src\core/lv_obj_style_gen.c **** }
 1378              		.loc 1 353 0
 1379              		@ sp needed
 1380 000c 10BD     		pop	{r4, pc}
 1381              		.cfi_endproc
 1382              	.LFE202:
 1383              		.size	lv_obj_set_style_outline_opa, .-lv_obj_set_style_outline_opa
 1384 000e C046     		.section	.text.lv_obj_set_style_outline_pad,"ax",%progbits
 1385              		.align	2
 1386              		.global	lv_obj_set_style_outline_pad
 1387              		.code	16
 1388              		.thumb_func
 1389              		.type	lv_obj_set_style_outline_pad, %function
 1390              	lv_obj_set_style_outline_pad:
 1391              	.LFB203:
 354:..\..\..\arduinoLCD\test\Pain Drain\libraries\lvgl\src\core/lv_obj_style_gen.c **** 
 355:..\..\..\arduinoLCD\test\Pain Drain\libraries\lvgl\src\core/lv_obj_style_gen.c **** void lv_obj_set_style_outline_pad(struct _lv_obj_t * obj, lv_coord_t value, lv_style_selector_t sel
 356:..\..\..\arduinoLCD\test\Pain Drain\libraries\lvgl\src\core/lv_obj_style_gen.c **** {
 1392              		.loc 1 356 0
 1393              		.cfi_startproc
 1394              		@ args = 0, pretend = 0, frame = 0
 1395              		@ frame_needed = 0, uses_anonymous_args = 0
 1396              	.LVL171:
 1397 0000 10B5     		push	{r4, lr}
 1398              		.cfi_def_cfa_offset 8
 1399              		.cfi_offset 4, -8
 1400              		.cfi_offset 14, -4
 1401 0002 1300     		movs	r3, r2
 357:..\..\..\arduinoLCD\test\Pain Drain\libraries\lvgl\src\core/lv_obj_style_gen.c ****     lv_style_value_t v = {
 358:..\..\..\arduinoLCD\test\Pain Drain\libraries\lvgl\src\core/lv_obj_style_gen.c ****         .num = (int32_t)value
 359:..\..\..\arduinoLCD\test\Pain Drain\libraries\lvgl\src\core/lv_obj_style_gen.c ****     };
 360:..\..\..\arduinoLCD\test\Pain Drain\libraries\lvgl\src\core/lv_obj_style_gen.c ****     lv_obj_set_local_style_prop(obj, LV_STYLE_OUTLINE_PAD, v, selector);
 1402              		.loc 1 360 0
 1403 0004 0A00     		movs	r2, r1
 1404              	.LVL172:
 1405 0006 3821     		movs	r1, #56
 1406              	.LVL173:
 1407 0008 FFF7FEFF 		bl	lv_obj_set_local_style_prop
ARM GAS  C:\Users\haske\AppData\Local\Temp\cc0eRFVw.s 			page 32


 1408              	.LVL174:
 361:..\..\..\arduinoLCD\test\Pain Drain\libraries\lvgl\src\core/lv_obj_style_gen.c **** }
 1409              		.loc 1 361 0
 1410              		@ sp needed
 1411 000c 10BD     		pop	{r4, pc}
 1412              		.cfi_endproc
 1413              	.LFE203:
 1414              		.size	lv_obj_set_style_outline_pad, .-lv_obj_set_style_outline_pad
 1415 000e C046     		.section	.text.lv_obj_set_style_shadow_width,"ax",%progbits
 1416              		.align	2
 1417              		.global	lv_obj_set_style_shadow_width
 1418              		.code	16
 1419              		.thumb_func
 1420              		.type	lv_obj_set_style_shadow_width, %function
 1421              	lv_obj_set_style_shadow_width:
 1422              	.LFB204:
 362:..\..\..\arduinoLCD\test\Pain Drain\libraries\lvgl\src\core/lv_obj_style_gen.c **** 
 363:..\..\..\arduinoLCD\test\Pain Drain\libraries\lvgl\src\core/lv_obj_style_gen.c **** void lv_obj_set_style_shadow_width(struct _lv_obj_t * obj, lv_coord_t value, lv_style_selector_t se
 364:..\..\..\arduinoLCD\test\Pain Drain\libraries\lvgl\src\core/lv_obj_style_gen.c **** {
 1423              		.loc 1 364 0
 1424              		.cfi_startproc
 1425              		@ args = 0, pretend = 0, frame = 0
 1426              		@ frame_needed = 0, uses_anonymous_args = 0
 1427              	.LVL175:
 1428 0000 10B5     		push	{r4, lr}
 1429              		.cfi_def_cfa_offset 8
 1430              		.cfi_offset 4, -8
 1431              		.cfi_offset 14, -4
 1432 0002 1300     		movs	r3, r2
 365:..\..\..\arduinoLCD\test\Pain Drain\libraries\lvgl\src\core/lv_obj_style_gen.c ****     lv_style_value_t v = {
 366:..\..\..\arduinoLCD\test\Pain Drain\libraries\lvgl\src\core/lv_obj_style_gen.c ****         .num = (int32_t)value
 367:..\..\..\arduinoLCD\test\Pain Drain\libraries\lvgl\src\core/lv_obj_style_gen.c ****     };
 368:..\..\..\arduinoLCD\test\Pain Drain\libraries\lvgl\src\core/lv_obj_style_gen.c ****     lv_obj_set_local_style_prop(obj, LV_STYLE_SHADOW_WIDTH, v, selector);
 1433              		.loc 1 368 0
 1434 0004 0A00     		movs	r2, r1
 1435              	.LVL176:
 1436 0006 4021     		movs	r1, #64
 1437              	.LVL177:
 1438 0008 FFF7FEFF 		bl	lv_obj_set_local_style_prop
 1439              	.LVL178:
 369:..\..\..\arduinoLCD\test\Pain Drain\libraries\lvgl\src\core/lv_obj_style_gen.c **** }
 1440              		.loc 1 369 0
 1441              		@ sp needed
 1442 000c 10BD     		pop	{r4, pc}
 1443              		.cfi_endproc
 1444              	.LFE204:
 1445              		.size	lv_obj_set_style_shadow_width, .-lv_obj_set_style_shadow_width
 1446 000e C046     		.section	.text.lv_obj_set_style_shadow_ofs_x,"ax",%progbits
 1447              		.align	2
 1448              		.global	lv_obj_set_style_shadow_ofs_x
 1449              		.code	16
 1450              		.thumb_func
 1451              		.type	lv_obj_set_style_shadow_ofs_x, %function
 1452              	lv_obj_set_style_shadow_ofs_x:
 1453              	.LFB205:
 370:..\..\..\arduinoLCD\test\Pain Drain\libraries\lvgl\src\core/lv_obj_style_gen.c **** 
 371:..\..\..\arduinoLCD\test\Pain Drain\libraries\lvgl\src\core/lv_obj_style_gen.c **** void lv_obj_set_style_shadow_ofs_x(struct _lv_obj_t * obj, lv_coord_t value, lv_style_selector_t se
ARM GAS  C:\Users\haske\AppData\Local\Temp\cc0eRFVw.s 			page 33


 372:..\..\..\arduinoLCD\test\Pain Drain\libraries\lvgl\src\core/lv_obj_style_gen.c **** {
 1454              		.loc 1 372 0
 1455              		.cfi_startproc
 1456              		@ args = 0, pretend = 0, frame = 0
 1457              		@ frame_needed = 0, uses_anonymous_args = 0
 1458              	.LVL179:
 1459 0000 10B5     		push	{r4, lr}
 1460              		.cfi_def_cfa_offset 8
 1461              		.cfi_offset 4, -8
 1462              		.cfi_offset 14, -4
 1463 0002 1300     		movs	r3, r2
 373:..\..\..\arduinoLCD\test\Pain Drain\libraries\lvgl\src\core/lv_obj_style_gen.c ****     lv_style_value_t v = {
 374:..\..\..\arduinoLCD\test\Pain Drain\libraries\lvgl\src\core/lv_obj_style_gen.c ****         .num = (int32_t)value
 375:..\..\..\arduinoLCD\test\Pain Drain\libraries\lvgl\src\core/lv_obj_style_gen.c ****     };
 376:..\..\..\arduinoLCD\test\Pain Drain\libraries\lvgl\src\core/lv_obj_style_gen.c ****     lv_obj_set_local_style_prop(obj, LV_STYLE_SHADOW_OFS_X, v, selector);
 1464              		.loc 1 376 0
 1465 0004 0A00     		movs	r2, r1
 1466              	.LVL180:
 1467 0006 4121     		movs	r1, #65
 1468              	.LVL181:
 1469 0008 FFF7FEFF 		bl	lv_obj_set_local_style_prop
 1470              	.LVL182:
 377:..\..\..\arduinoLCD\test\Pain Drain\libraries\lvgl\src\core/lv_obj_style_gen.c **** }
 1471              		.loc 1 377 0
 1472              		@ sp needed
 1473 000c 10BD     		pop	{r4, pc}
 1474              		.cfi_endproc
 1475              	.LFE205:
 1476              		.size	lv_obj_set_style_shadow_ofs_x, .-lv_obj_set_style_shadow_ofs_x
 1477 000e C046     		.section	.text.lv_obj_set_style_shadow_ofs_y,"ax",%progbits
 1478              		.align	2
 1479              		.global	lv_obj_set_style_shadow_ofs_y
 1480              		.code	16
 1481              		.thumb_func
 1482              		.type	lv_obj_set_style_shadow_ofs_y, %function
 1483              	lv_obj_set_style_shadow_ofs_y:
 1484              	.LFB206:
 378:..\..\..\arduinoLCD\test\Pain Drain\libraries\lvgl\src\core/lv_obj_style_gen.c **** 
 379:..\..\..\arduinoLCD\test\Pain Drain\libraries\lvgl\src\core/lv_obj_style_gen.c **** void lv_obj_set_style_shadow_ofs_y(struct _lv_obj_t * obj, lv_coord_t value, lv_style_selector_t se
 380:..\..\..\arduinoLCD\test\Pain Drain\libraries\lvgl\src\core/lv_obj_style_gen.c **** {
 1485              		.loc 1 380 0
 1486              		.cfi_startproc
 1487              		@ args = 0, pretend = 0, frame = 0
 1488              		@ frame_needed = 0, uses_anonymous_args = 0
 1489              	.LVL183:
 1490 0000 10B5     		push	{r4, lr}
 1491              		.cfi_def_cfa_offset 8
 1492              		.cfi_offset 4, -8
 1493              		.cfi_offset 14, -4
 1494 0002 1300     		movs	r3, r2
 381:..\..\..\arduinoLCD\test\Pain Drain\libraries\lvgl\src\core/lv_obj_style_gen.c ****     lv_style_value_t v = {
 382:..\..\..\arduinoLCD\test\Pain Drain\libraries\lvgl\src\core/lv_obj_style_gen.c ****         .num = (int32_t)value
 383:..\..\..\arduinoLCD\test\Pain Drain\libraries\lvgl\src\core/lv_obj_style_gen.c ****     };
 384:..\..\..\arduinoLCD\test\Pain Drain\libraries\lvgl\src\core/lv_obj_style_gen.c ****     lv_obj_set_local_style_prop(obj, LV_STYLE_SHADOW_OFS_Y, v, selector);
 1495              		.loc 1 384 0
 1496 0004 0A00     		movs	r2, r1
 1497              	.LVL184:
ARM GAS  C:\Users\haske\AppData\Local\Temp\cc0eRFVw.s 			page 34


 1498 0006 4221     		movs	r1, #66
 1499              	.LVL185:
 1500 0008 FFF7FEFF 		bl	lv_obj_set_local_style_prop
 1501              	.LVL186:
 385:..\..\..\arduinoLCD\test\Pain Drain\libraries\lvgl\src\core/lv_obj_style_gen.c **** }
 1502              		.loc 1 385 0
 1503              		@ sp needed
 1504 000c 10BD     		pop	{r4, pc}
 1505              		.cfi_endproc
 1506              	.LFE206:
 1507              		.size	lv_obj_set_style_shadow_ofs_y, .-lv_obj_set_style_shadow_ofs_y
 1508 000e C046     		.section	.text.lv_obj_set_style_shadow_spread,"ax",%progbits
 1509              		.align	2
 1510              		.global	lv_obj_set_style_shadow_spread
 1511              		.code	16
 1512              		.thumb_func
 1513              		.type	lv_obj_set_style_shadow_spread, %function
 1514              	lv_obj_set_style_shadow_spread:
 1515              	.LFB207:
 386:..\..\..\arduinoLCD\test\Pain Drain\libraries\lvgl\src\core/lv_obj_style_gen.c **** 
 387:..\..\..\arduinoLCD\test\Pain Drain\libraries\lvgl\src\core/lv_obj_style_gen.c **** void lv_obj_set_style_shadow_spread(struct _lv_obj_t * obj, lv_coord_t value, lv_style_selector_t s
 388:..\..\..\arduinoLCD\test\Pain Drain\libraries\lvgl\src\core/lv_obj_style_gen.c **** {
 1516              		.loc 1 388 0
 1517              		.cfi_startproc
 1518              		@ args = 0, pretend = 0, frame = 0
 1519              		@ frame_needed = 0, uses_anonymous_args = 0
 1520              	.LVL187:
 1521 0000 10B5     		push	{r4, lr}
 1522              		.cfi_def_cfa_offset 8
 1523              		.cfi_offset 4, -8
 1524              		.cfi_offset 14, -4
 1525 0002 1300     		movs	r3, r2
 389:..\..\..\arduinoLCD\test\Pain Drain\libraries\lvgl\src\core/lv_obj_style_gen.c ****     lv_style_value_t v = {
 390:..\..\..\arduinoLCD\test\Pain Drain\libraries\lvgl\src\core/lv_obj_style_gen.c ****         .num = (int32_t)value
 391:..\..\..\arduinoLCD\test\Pain Drain\libraries\lvgl\src\core/lv_obj_style_gen.c ****     };
 392:..\..\..\arduinoLCD\test\Pain Drain\libraries\lvgl\src\core/lv_obj_style_gen.c ****     lv_obj_set_local_style_prop(obj, LV_STYLE_SHADOW_SPREAD, v, selector);
 1526              		.loc 1 392 0
 1527 0004 0A00     		movs	r2, r1
 1528              	.LVL188:
 1529 0006 4321     		movs	r1, #67
 1530              	.LVL189:
 1531 0008 FFF7FEFF 		bl	lv_obj_set_local_style_prop
 1532              	.LVL190:
 393:..\..\..\arduinoLCD\test\Pain Drain\libraries\lvgl\src\core/lv_obj_style_gen.c **** }
 1533              		.loc 1 393 0
 1534              		@ sp needed
 1535 000c 10BD     		pop	{r4, pc}
 1536              		.cfi_endproc
 1537              	.LFE207:
 1538              		.size	lv_obj_set_style_shadow_spread, .-lv_obj_set_style_shadow_spread
 1539 000e C046     		.section	.text.lv_obj_set_style_shadow_color,"ax",%progbits
 1540              		.align	2
 1541              		.global	lv_obj_set_style_shadow_color
 1542              		.code	16
 1543              		.thumb_func
 1544              		.type	lv_obj_set_style_shadow_color, %function
 1545              	lv_obj_set_style_shadow_color:
ARM GAS  C:\Users\haske\AppData\Local\Temp\cc0eRFVw.s 			page 35


 1546              	.LFB208:
 394:..\..\..\arduinoLCD\test\Pain Drain\libraries\lvgl\src\core/lv_obj_style_gen.c **** 
 395:..\..\..\arduinoLCD\test\Pain Drain\libraries\lvgl\src\core/lv_obj_style_gen.c **** void lv_obj_set_style_shadow_color(struct _lv_obj_t * obj, lv_color_t value, lv_style_selector_t se
 396:..\..\..\arduinoLCD\test\Pain Drain\libraries\lvgl\src\core/lv_obj_style_gen.c **** {
 1547              		.loc 1 396 0
 1548              		.cfi_startproc
 1549              		@ args = 0, pretend = 0, frame = 0
 1550              		@ frame_needed = 0, uses_anonymous_args = 0
 1551              	.LVL191:
 1552 0000 10B5     		push	{r4, lr}
 1553              		.cfi_def_cfa_offset 8
 1554              		.cfi_offset 4, -8
 1555              		.cfi_offset 14, -4
 1556 0002 1300     		movs	r3, r2
 397:..\..\..\arduinoLCD\test\Pain Drain\libraries\lvgl\src\core/lv_obj_style_gen.c ****     lv_style_value_t v = {
 1557              		.loc 1 397 0
 1558 0004 8AB2     		uxth	r2, r1
 1559              	.LVL192:
 398:..\..\..\arduinoLCD\test\Pain Drain\libraries\lvgl\src\core/lv_obj_style_gen.c ****         .color = value
 399:..\..\..\arduinoLCD\test\Pain Drain\libraries\lvgl\src\core/lv_obj_style_gen.c ****     };
 400:..\..\..\arduinoLCD\test\Pain Drain\libraries\lvgl\src\core/lv_obj_style_gen.c ****     lv_obj_set_local_style_prop(obj, LV_STYLE_SHADOW_COLOR, v, selector);
 1560              		.loc 1 400 0
 1561 0006 4421     		movs	r1, #68
 1562 0008 FFF7FEFF 		bl	lv_obj_set_local_style_prop
 1563              	.LVL193:
 401:..\..\..\arduinoLCD\test\Pain Drain\libraries\lvgl\src\core/lv_obj_style_gen.c **** }
 1564              		.loc 1 401 0
 1565              		@ sp needed
 1566 000c 10BD     		pop	{r4, pc}
 1567              		.cfi_endproc
 1568              	.LFE208:
 1569              		.size	lv_obj_set_style_shadow_color, .-lv_obj_set_style_shadow_color
 1570 000e C046     		.section	.text.lv_obj_set_style_shadow_opa,"ax",%progbits
 1571              		.align	2
 1572              		.global	lv_obj_set_style_shadow_opa
 1573              		.code	16
 1574              		.thumb_func
 1575              		.type	lv_obj_set_style_shadow_opa, %function
 1576              	lv_obj_set_style_shadow_opa:
 1577              	.LFB209:
 402:..\..\..\arduinoLCD\test\Pain Drain\libraries\lvgl\src\core/lv_obj_style_gen.c **** 
 403:..\..\..\arduinoLCD\test\Pain Drain\libraries\lvgl\src\core/lv_obj_style_gen.c **** void lv_obj_set_style_shadow_opa(struct _lv_obj_t * obj, lv_opa_t value, lv_style_selector_t select
 404:..\..\..\arduinoLCD\test\Pain Drain\libraries\lvgl\src\core/lv_obj_style_gen.c **** {
 1578              		.loc 1 404 0
 1579              		.cfi_startproc
 1580              		@ args = 0, pretend = 0, frame = 0
 1581              		@ frame_needed = 0, uses_anonymous_args = 0
 1582              	.LVL194:
 1583 0000 10B5     		push	{r4, lr}
 1584              		.cfi_def_cfa_offset 8
 1585              		.cfi_offset 4, -8
 1586              		.cfi_offset 14, -4
 1587 0002 1300     		movs	r3, r2
 405:..\..\..\arduinoLCD\test\Pain Drain\libraries\lvgl\src\core/lv_obj_style_gen.c ****     lv_style_value_t v = {
 406:..\..\..\arduinoLCD\test\Pain Drain\libraries\lvgl\src\core/lv_obj_style_gen.c ****         .num = (int32_t)value
 407:..\..\..\arduinoLCD\test\Pain Drain\libraries\lvgl\src\core/lv_obj_style_gen.c ****     };
 408:..\..\..\arduinoLCD\test\Pain Drain\libraries\lvgl\src\core/lv_obj_style_gen.c ****     lv_obj_set_local_style_prop(obj, LV_STYLE_SHADOW_OPA, v, selector);
ARM GAS  C:\Users\haske\AppData\Local\Temp\cc0eRFVw.s 			page 36


 1588              		.loc 1 408 0
 1589 0004 0A00     		movs	r2, r1
 1590              	.LVL195:
 1591 0006 4521     		movs	r1, #69
 1592              	.LVL196:
 1593 0008 FFF7FEFF 		bl	lv_obj_set_local_style_prop
 1594              	.LVL197:
 409:..\..\..\arduinoLCD\test\Pain Drain\libraries\lvgl\src\core/lv_obj_style_gen.c **** }
 1595              		.loc 1 409 0
 1596              		@ sp needed
 1597 000c 10BD     		pop	{r4, pc}
 1598              		.cfi_endproc
 1599              	.LFE209:
 1600              		.size	lv_obj_set_style_shadow_opa, .-lv_obj_set_style_shadow_opa
 1601 000e C046     		.section	.text.lv_obj_set_style_img_opa,"ax",%progbits
 1602              		.align	2
 1603              		.global	lv_obj_set_style_img_opa
 1604              		.code	16
 1605              		.thumb_func
 1606              		.type	lv_obj_set_style_img_opa, %function
 1607              	lv_obj_set_style_img_opa:
 1608              	.LFB210:
 410:..\..\..\arduinoLCD\test\Pain Drain\libraries\lvgl\src\core/lv_obj_style_gen.c **** 
 411:..\..\..\arduinoLCD\test\Pain Drain\libraries\lvgl\src\core/lv_obj_style_gen.c **** void lv_obj_set_style_img_opa(struct _lv_obj_t * obj, lv_opa_t value, lv_style_selector_t selector)
 412:..\..\..\arduinoLCD\test\Pain Drain\libraries\lvgl\src\core/lv_obj_style_gen.c **** {
 1609              		.loc 1 412 0
 1610              		.cfi_startproc
 1611              		@ args = 0, pretend = 0, frame = 0
 1612              		@ frame_needed = 0, uses_anonymous_args = 0
 1613              	.LVL198:
 1614 0000 10B5     		push	{r4, lr}
 1615              		.cfi_def_cfa_offset 8
 1616              		.cfi_offset 4, -8
 1617              		.cfi_offset 14, -4
 1618 0002 1300     		movs	r3, r2
 413:..\..\..\arduinoLCD\test\Pain Drain\libraries\lvgl\src\core/lv_obj_style_gen.c ****     lv_style_value_t v = {
 414:..\..\..\arduinoLCD\test\Pain Drain\libraries\lvgl\src\core/lv_obj_style_gen.c ****         .num = (int32_t)value
 415:..\..\..\arduinoLCD\test\Pain Drain\libraries\lvgl\src\core/lv_obj_style_gen.c ****     };
 416:..\..\..\arduinoLCD\test\Pain Drain\libraries\lvgl\src\core/lv_obj_style_gen.c ****     lv_obj_set_local_style_prop(obj, LV_STYLE_IMG_OPA, v, selector);
 1619              		.loc 1 416 0
 1620 0004 0A00     		movs	r2, r1
 1621              	.LVL199:
 1622 0006 4621     		movs	r1, #70
 1623              	.LVL200:
 1624 0008 FFF7FEFF 		bl	lv_obj_set_local_style_prop
 1625              	.LVL201:
 417:..\..\..\arduinoLCD\test\Pain Drain\libraries\lvgl\src\core/lv_obj_style_gen.c **** }
 1626              		.loc 1 417 0
 1627              		@ sp needed
 1628 000c 10BD     		pop	{r4, pc}
 1629              		.cfi_endproc
 1630              	.LFE210:
 1631              		.size	lv_obj_set_style_img_opa, .-lv_obj_set_style_img_opa
 1632 000e C046     		.section	.text.lv_obj_set_style_img_recolor,"ax",%progbits
 1633              		.align	2
 1634              		.global	lv_obj_set_style_img_recolor
 1635              		.code	16
ARM GAS  C:\Users\haske\AppData\Local\Temp\cc0eRFVw.s 			page 37


 1636              		.thumb_func
 1637              		.type	lv_obj_set_style_img_recolor, %function
 1638              	lv_obj_set_style_img_recolor:
 1639              	.LFB211:
 418:..\..\..\arduinoLCD\test\Pain Drain\libraries\lvgl\src\core/lv_obj_style_gen.c **** 
 419:..\..\..\arduinoLCD\test\Pain Drain\libraries\lvgl\src\core/lv_obj_style_gen.c **** void lv_obj_set_style_img_recolor(struct _lv_obj_t * obj, lv_color_t value, lv_style_selector_t sel
 420:..\..\..\arduinoLCD\test\Pain Drain\libraries\lvgl\src\core/lv_obj_style_gen.c **** {
 1640              		.loc 1 420 0
 1641              		.cfi_startproc
 1642              		@ args = 0, pretend = 0, frame = 0
 1643              		@ frame_needed = 0, uses_anonymous_args = 0
 1644              	.LVL202:
 1645 0000 10B5     		push	{r4, lr}
 1646              		.cfi_def_cfa_offset 8
 1647              		.cfi_offset 4, -8
 1648              		.cfi_offset 14, -4
 1649 0002 1300     		movs	r3, r2
 421:..\..\..\arduinoLCD\test\Pain Drain\libraries\lvgl\src\core/lv_obj_style_gen.c ****     lv_style_value_t v = {
 1650              		.loc 1 421 0
 1651 0004 8AB2     		uxth	r2, r1
 1652              	.LVL203:
 422:..\..\..\arduinoLCD\test\Pain Drain\libraries\lvgl\src\core/lv_obj_style_gen.c ****         .color = value
 423:..\..\..\arduinoLCD\test\Pain Drain\libraries\lvgl\src\core/lv_obj_style_gen.c ****     };
 424:..\..\..\arduinoLCD\test\Pain Drain\libraries\lvgl\src\core/lv_obj_style_gen.c ****     lv_obj_set_local_style_prop(obj, LV_STYLE_IMG_RECOLOR, v, selector);
 1653              		.loc 1 424 0
 1654 0006 4721     		movs	r1, #71
 1655 0008 FFF7FEFF 		bl	lv_obj_set_local_style_prop
 1656              	.LVL204:
 425:..\..\..\arduinoLCD\test\Pain Drain\libraries\lvgl\src\core/lv_obj_style_gen.c **** }
 1657              		.loc 1 425 0
 1658              		@ sp needed
 1659 000c 10BD     		pop	{r4, pc}
 1660              		.cfi_endproc
 1661              	.LFE211:
 1662              		.size	lv_obj_set_style_img_recolor, .-lv_obj_set_style_img_recolor
 1663 000e C046     		.section	.text.lv_obj_set_style_img_recolor_opa,"ax",%progbits
 1664              		.align	2
 1665              		.global	lv_obj_set_style_img_recolor_opa
 1666              		.code	16
 1667              		.thumb_func
 1668              		.type	lv_obj_set_style_img_recolor_opa, %function
 1669              	lv_obj_set_style_img_recolor_opa:
 1670              	.LFB212:
 426:..\..\..\arduinoLCD\test\Pain Drain\libraries\lvgl\src\core/lv_obj_style_gen.c **** 
 427:..\..\..\arduinoLCD\test\Pain Drain\libraries\lvgl\src\core/lv_obj_style_gen.c **** void lv_obj_set_style_img_recolor_opa(struct _lv_obj_t * obj, lv_opa_t value, lv_style_selector_t s
 428:..\..\..\arduinoLCD\test\Pain Drain\libraries\lvgl\src\core/lv_obj_style_gen.c **** {
 1671              		.loc 1 428 0
 1672              		.cfi_startproc
 1673              		@ args = 0, pretend = 0, frame = 0
 1674              		@ frame_needed = 0, uses_anonymous_args = 0
 1675              	.LVL205:
 1676 0000 10B5     		push	{r4, lr}
 1677              		.cfi_def_cfa_offset 8
 1678              		.cfi_offset 4, -8
 1679              		.cfi_offset 14, -4
 1680 0002 1300     		movs	r3, r2
 429:..\..\..\arduinoLCD\test\Pain Drain\libraries\lvgl\src\core/lv_obj_style_gen.c ****     lv_style_value_t v = {
ARM GAS  C:\Users\haske\AppData\Local\Temp\cc0eRFVw.s 			page 38


 430:..\..\..\arduinoLCD\test\Pain Drain\libraries\lvgl\src\core/lv_obj_style_gen.c ****         .num = (int32_t)value
 431:..\..\..\arduinoLCD\test\Pain Drain\libraries\lvgl\src\core/lv_obj_style_gen.c ****     };
 432:..\..\..\arduinoLCD\test\Pain Drain\libraries\lvgl\src\core/lv_obj_style_gen.c ****     lv_obj_set_local_style_prop(obj, LV_STYLE_IMG_RECOLOR_OPA, v, selector);
 1681              		.loc 1 432 0
 1682 0004 0A00     		movs	r2, r1
 1683              	.LVL206:
 1684 0006 4821     		movs	r1, #72
 1685              	.LVL207:
 1686 0008 FFF7FEFF 		bl	lv_obj_set_local_style_prop
 1687              	.LVL208:
 433:..\..\..\arduinoLCD\test\Pain Drain\libraries\lvgl\src\core/lv_obj_style_gen.c **** }
 1688              		.loc 1 433 0
 1689              		@ sp needed
 1690 000c 10BD     		pop	{r4, pc}
 1691              		.cfi_endproc
 1692              	.LFE212:
 1693              		.size	lv_obj_set_style_img_recolor_opa, .-lv_obj_set_style_img_recolor_opa
 1694 000e C046     		.section	.text.lv_obj_set_style_line_width,"ax",%progbits
 1695              		.align	2
 1696              		.global	lv_obj_set_style_line_width
 1697              		.code	16
 1698              		.thumb_func
 1699              		.type	lv_obj_set_style_line_width, %function
 1700              	lv_obj_set_style_line_width:
 1701              	.LFB213:
 434:..\..\..\arduinoLCD\test\Pain Drain\libraries\lvgl\src\core/lv_obj_style_gen.c **** 
 435:..\..\..\arduinoLCD\test\Pain Drain\libraries\lvgl\src\core/lv_obj_style_gen.c **** void lv_obj_set_style_line_width(struct _lv_obj_t * obj, lv_coord_t value, lv_style_selector_t sele
 436:..\..\..\arduinoLCD\test\Pain Drain\libraries\lvgl\src\core/lv_obj_style_gen.c **** {
 1702              		.loc 1 436 0
 1703              		.cfi_startproc
 1704              		@ args = 0, pretend = 0, frame = 0
 1705              		@ frame_needed = 0, uses_anonymous_args = 0
 1706              	.LVL209:
 1707 0000 10B5     		push	{r4, lr}
 1708              		.cfi_def_cfa_offset 8
 1709              		.cfi_offset 4, -8
 1710              		.cfi_offset 14, -4
 1711 0002 1300     		movs	r3, r2
 437:..\..\..\arduinoLCD\test\Pain Drain\libraries\lvgl\src\core/lv_obj_style_gen.c ****     lv_style_value_t v = {
 438:..\..\..\arduinoLCD\test\Pain Drain\libraries\lvgl\src\core/lv_obj_style_gen.c ****         .num = (int32_t)value
 439:..\..\..\arduinoLCD\test\Pain Drain\libraries\lvgl\src\core/lv_obj_style_gen.c ****     };
 440:..\..\..\arduinoLCD\test\Pain Drain\libraries\lvgl\src\core/lv_obj_style_gen.c ****     lv_obj_set_local_style_prop(obj, LV_STYLE_LINE_WIDTH, v, selector);
 1712              		.loc 1 440 0
 1713 0004 0A00     		movs	r2, r1
 1714              	.LVL210:
 1715 0006 4921     		movs	r1, #73
 1716              	.LVL211:
 1717 0008 FFF7FEFF 		bl	lv_obj_set_local_style_prop
 1718              	.LVL212:
 441:..\..\..\arduinoLCD\test\Pain Drain\libraries\lvgl\src\core/lv_obj_style_gen.c **** }
 1719              		.loc 1 441 0
 1720              		@ sp needed
 1721 000c 10BD     		pop	{r4, pc}
 1722              		.cfi_endproc
 1723              	.LFE213:
 1724              		.size	lv_obj_set_style_line_width, .-lv_obj_set_style_line_width
 1725 000e C046     		.section	.text.lv_obj_set_style_line_dash_width,"ax",%progbits
ARM GAS  C:\Users\haske\AppData\Local\Temp\cc0eRFVw.s 			page 39


 1726              		.align	2
 1727              		.global	lv_obj_set_style_line_dash_width
 1728              		.code	16
 1729              		.thumb_func
 1730              		.type	lv_obj_set_style_line_dash_width, %function
 1731              	lv_obj_set_style_line_dash_width:
 1732              	.LFB214:
 442:..\..\..\arduinoLCD\test\Pain Drain\libraries\lvgl\src\core/lv_obj_style_gen.c **** 
 443:..\..\..\arduinoLCD\test\Pain Drain\libraries\lvgl\src\core/lv_obj_style_gen.c **** void lv_obj_set_style_line_dash_width(struct _lv_obj_t * obj, lv_coord_t value, lv_style_selector_t
 444:..\..\..\arduinoLCD\test\Pain Drain\libraries\lvgl\src\core/lv_obj_style_gen.c **** {
 1733              		.loc 1 444 0
 1734              		.cfi_startproc
 1735              		@ args = 0, pretend = 0, frame = 0
 1736              		@ frame_needed = 0, uses_anonymous_args = 0
 1737              	.LVL213:
 1738 0000 10B5     		push	{r4, lr}
 1739              		.cfi_def_cfa_offset 8
 1740              		.cfi_offset 4, -8
 1741              		.cfi_offset 14, -4
 1742 0002 1300     		movs	r3, r2
 445:..\..\..\arduinoLCD\test\Pain Drain\libraries\lvgl\src\core/lv_obj_style_gen.c ****     lv_style_value_t v = {
 446:..\..\..\arduinoLCD\test\Pain Drain\libraries\lvgl\src\core/lv_obj_style_gen.c ****         .num = (int32_t)value
 447:..\..\..\arduinoLCD\test\Pain Drain\libraries\lvgl\src\core/lv_obj_style_gen.c ****     };
 448:..\..\..\arduinoLCD\test\Pain Drain\libraries\lvgl\src\core/lv_obj_style_gen.c ****     lv_obj_set_local_style_prop(obj, LV_STYLE_LINE_DASH_WIDTH, v, selector);
 1743              		.loc 1 448 0
 1744 0004 0A00     		movs	r2, r1
 1745              	.LVL214:
 1746 0006 4A21     		movs	r1, #74
 1747              	.LVL215:
 1748 0008 FFF7FEFF 		bl	lv_obj_set_local_style_prop
 1749              	.LVL216:
 449:..\..\..\arduinoLCD\test\Pain Drain\libraries\lvgl\src\core/lv_obj_style_gen.c **** }
 1750              		.loc 1 449 0
 1751              		@ sp needed
 1752 000c 10BD     		pop	{r4, pc}
 1753              		.cfi_endproc
 1754              	.LFE214:
 1755              		.size	lv_obj_set_style_line_dash_width, .-lv_obj_set_style_line_dash_width
 1756 000e C046     		.section	.text.lv_obj_set_style_line_dash_gap,"ax",%progbits
 1757              		.align	2
 1758              		.global	lv_obj_set_style_line_dash_gap
 1759              		.code	16
 1760              		.thumb_func
 1761              		.type	lv_obj_set_style_line_dash_gap, %function
 1762              	lv_obj_set_style_line_dash_gap:
 1763              	.LFB215:
 450:..\..\..\arduinoLCD\test\Pain Drain\libraries\lvgl\src\core/lv_obj_style_gen.c **** 
 451:..\..\..\arduinoLCD\test\Pain Drain\libraries\lvgl\src\core/lv_obj_style_gen.c **** void lv_obj_set_style_line_dash_gap(struct _lv_obj_t * obj, lv_coord_t value, lv_style_selector_t s
 452:..\..\..\arduinoLCD\test\Pain Drain\libraries\lvgl\src\core/lv_obj_style_gen.c **** {
 1764              		.loc 1 452 0
 1765              		.cfi_startproc
 1766              		@ args = 0, pretend = 0, frame = 0
 1767              		@ frame_needed = 0, uses_anonymous_args = 0
 1768              	.LVL217:
 1769 0000 10B5     		push	{r4, lr}
 1770              		.cfi_def_cfa_offset 8
 1771              		.cfi_offset 4, -8
ARM GAS  C:\Users\haske\AppData\Local\Temp\cc0eRFVw.s 			page 40


 1772              		.cfi_offset 14, -4
 1773 0002 1300     		movs	r3, r2
 453:..\..\..\arduinoLCD\test\Pain Drain\libraries\lvgl\src\core/lv_obj_style_gen.c ****     lv_style_value_t v = {
 454:..\..\..\arduinoLCD\test\Pain Drain\libraries\lvgl\src\core/lv_obj_style_gen.c ****         .num = (int32_t)value
 455:..\..\..\arduinoLCD\test\Pain Drain\libraries\lvgl\src\core/lv_obj_style_gen.c ****     };
 456:..\..\..\arduinoLCD\test\Pain Drain\libraries\lvgl\src\core/lv_obj_style_gen.c ****     lv_obj_set_local_style_prop(obj, LV_STYLE_LINE_DASH_GAP, v, selector);
 1774              		.loc 1 456 0
 1775 0004 0A00     		movs	r2, r1
 1776              	.LVL218:
 1777 0006 4B21     		movs	r1, #75
 1778              	.LVL219:
 1779 0008 FFF7FEFF 		bl	lv_obj_set_local_style_prop
 1780              	.LVL220:
 457:..\..\..\arduinoLCD\test\Pain Drain\libraries\lvgl\src\core/lv_obj_style_gen.c **** }
 1781              		.loc 1 457 0
 1782              		@ sp needed
 1783 000c 10BD     		pop	{r4, pc}
 1784              		.cfi_endproc
 1785              	.LFE215:
 1786              		.size	lv_obj_set_style_line_dash_gap, .-lv_obj_set_style_line_dash_gap
 1787 000e C046     		.section	.text.lv_obj_set_style_line_rounded,"ax",%progbits
 1788              		.align	2
 1789              		.global	lv_obj_set_style_line_rounded
 1790              		.code	16
 1791              		.thumb_func
 1792              		.type	lv_obj_set_style_line_rounded, %function
 1793              	lv_obj_set_style_line_rounded:
 1794              	.LFB216:
 458:..\..\..\arduinoLCD\test\Pain Drain\libraries\lvgl\src\core/lv_obj_style_gen.c **** 
 459:..\..\..\arduinoLCD\test\Pain Drain\libraries\lvgl\src\core/lv_obj_style_gen.c **** void lv_obj_set_style_line_rounded(struct _lv_obj_t * obj, bool value, lv_style_selector_t selector
 460:..\..\..\arduinoLCD\test\Pain Drain\libraries\lvgl\src\core/lv_obj_style_gen.c **** {
 1795              		.loc 1 460 0
 1796              		.cfi_startproc
 1797              		@ args = 0, pretend = 0, frame = 0
 1798              		@ frame_needed = 0, uses_anonymous_args = 0
 1799              	.LVL221:
 1800 0000 10B5     		push	{r4, lr}
 1801              		.cfi_def_cfa_offset 8
 1802              		.cfi_offset 4, -8
 1803              		.cfi_offset 14, -4
 1804 0002 1300     		movs	r3, r2
 461:..\..\..\arduinoLCD\test\Pain Drain\libraries\lvgl\src\core/lv_obj_style_gen.c ****     lv_style_value_t v = {
 462:..\..\..\arduinoLCD\test\Pain Drain\libraries\lvgl\src\core/lv_obj_style_gen.c ****         .num = (int32_t)value
 463:..\..\..\arduinoLCD\test\Pain Drain\libraries\lvgl\src\core/lv_obj_style_gen.c ****     };
 464:..\..\..\arduinoLCD\test\Pain Drain\libraries\lvgl\src\core/lv_obj_style_gen.c ****     lv_obj_set_local_style_prop(obj, LV_STYLE_LINE_ROUNDED, v, selector);
 1805              		.loc 1 464 0
 1806 0004 0A00     		movs	r2, r1
 1807              	.LVL222:
 1808 0006 4C21     		movs	r1, #76
 1809              	.LVL223:
 1810 0008 FFF7FEFF 		bl	lv_obj_set_local_style_prop
 1811              	.LVL224:
 465:..\..\..\arduinoLCD\test\Pain Drain\libraries\lvgl\src\core/lv_obj_style_gen.c **** }
 1812              		.loc 1 465 0
 1813              		@ sp needed
 1814 000c 10BD     		pop	{r4, pc}
 1815              		.cfi_endproc
ARM GAS  C:\Users\haske\AppData\Local\Temp\cc0eRFVw.s 			page 41


 1816              	.LFE216:
 1817              		.size	lv_obj_set_style_line_rounded, .-lv_obj_set_style_line_rounded
 1818 000e C046     		.section	.text.lv_obj_set_style_line_color,"ax",%progbits
 1819              		.align	2
 1820              		.global	lv_obj_set_style_line_color
 1821              		.code	16
 1822              		.thumb_func
 1823              		.type	lv_obj_set_style_line_color, %function
 1824              	lv_obj_set_style_line_color:
 1825              	.LFB217:
 466:..\..\..\arduinoLCD\test\Pain Drain\libraries\lvgl\src\core/lv_obj_style_gen.c **** 
 467:..\..\..\arduinoLCD\test\Pain Drain\libraries\lvgl\src\core/lv_obj_style_gen.c **** void lv_obj_set_style_line_color(struct _lv_obj_t * obj, lv_color_t value, lv_style_selector_t sele
 468:..\..\..\arduinoLCD\test\Pain Drain\libraries\lvgl\src\core/lv_obj_style_gen.c **** {
 1826              		.loc 1 468 0
 1827              		.cfi_startproc
 1828              		@ args = 0, pretend = 0, frame = 0
 1829              		@ frame_needed = 0, uses_anonymous_args = 0
 1830              	.LVL225:
 1831 0000 10B5     		push	{r4, lr}
 1832              		.cfi_def_cfa_offset 8
 1833              		.cfi_offset 4, -8
 1834              		.cfi_offset 14, -4
 1835 0002 1300     		movs	r3, r2
 469:..\..\..\arduinoLCD\test\Pain Drain\libraries\lvgl\src\core/lv_obj_style_gen.c ****     lv_style_value_t v = {
 1836              		.loc 1 469 0
 1837 0004 8AB2     		uxth	r2, r1
 1838              	.LVL226:
 470:..\..\..\arduinoLCD\test\Pain Drain\libraries\lvgl\src\core/lv_obj_style_gen.c ****         .color = value
 471:..\..\..\arduinoLCD\test\Pain Drain\libraries\lvgl\src\core/lv_obj_style_gen.c ****     };
 472:..\..\..\arduinoLCD\test\Pain Drain\libraries\lvgl\src\core/lv_obj_style_gen.c ****     lv_obj_set_local_style_prop(obj, LV_STYLE_LINE_COLOR, v, selector);
 1839              		.loc 1 472 0
 1840 0006 4D21     		movs	r1, #77
 1841 0008 FFF7FEFF 		bl	lv_obj_set_local_style_prop
 1842              	.LVL227:
 473:..\..\..\arduinoLCD\test\Pain Drain\libraries\lvgl\src\core/lv_obj_style_gen.c **** }
 1843              		.loc 1 473 0
 1844              		@ sp needed
 1845 000c 10BD     		pop	{r4, pc}
 1846              		.cfi_endproc
 1847              	.LFE217:
 1848              		.size	lv_obj_set_style_line_color, .-lv_obj_set_style_line_color
 1849 000e C046     		.section	.text.lv_obj_set_style_line_opa,"ax",%progbits
 1850              		.align	2
 1851              		.global	lv_obj_set_style_line_opa
 1852              		.code	16
 1853              		.thumb_func
 1854              		.type	lv_obj_set_style_line_opa, %function
 1855              	lv_obj_set_style_line_opa:
 1856              	.LFB218:
 474:..\..\..\arduinoLCD\test\Pain Drain\libraries\lvgl\src\core/lv_obj_style_gen.c **** 
 475:..\..\..\arduinoLCD\test\Pain Drain\libraries\lvgl\src\core/lv_obj_style_gen.c **** void lv_obj_set_style_line_opa(struct _lv_obj_t * obj, lv_opa_t value, lv_style_selector_t selector
 476:..\..\..\arduinoLCD\test\Pain Drain\libraries\lvgl\src\core/lv_obj_style_gen.c **** {
 1857              		.loc 1 476 0
 1858              		.cfi_startproc
 1859              		@ args = 0, pretend = 0, frame = 0
 1860              		@ frame_needed = 0, uses_anonymous_args = 0
 1861              	.LVL228:
ARM GAS  C:\Users\haske\AppData\Local\Temp\cc0eRFVw.s 			page 42


 1862 0000 10B5     		push	{r4, lr}
 1863              		.cfi_def_cfa_offset 8
 1864              		.cfi_offset 4, -8
 1865              		.cfi_offset 14, -4
 1866 0002 1300     		movs	r3, r2
 477:..\..\..\arduinoLCD\test\Pain Drain\libraries\lvgl\src\core/lv_obj_style_gen.c ****     lv_style_value_t v = {
 478:..\..\..\arduinoLCD\test\Pain Drain\libraries\lvgl\src\core/lv_obj_style_gen.c ****         .num = (int32_t)value
 479:..\..\..\arduinoLCD\test\Pain Drain\libraries\lvgl\src\core/lv_obj_style_gen.c ****     };
 480:..\..\..\arduinoLCD\test\Pain Drain\libraries\lvgl\src\core/lv_obj_style_gen.c ****     lv_obj_set_local_style_prop(obj, LV_STYLE_LINE_OPA, v, selector);
 1867              		.loc 1 480 0
 1868 0004 0A00     		movs	r2, r1
 1869              	.LVL229:
 1870 0006 4E21     		movs	r1, #78
 1871              	.LVL230:
 1872 0008 FFF7FEFF 		bl	lv_obj_set_local_style_prop
 1873              	.LVL231:
 481:..\..\..\arduinoLCD\test\Pain Drain\libraries\lvgl\src\core/lv_obj_style_gen.c **** }
 1874              		.loc 1 481 0
 1875              		@ sp needed
 1876 000c 10BD     		pop	{r4, pc}
 1877              		.cfi_endproc
 1878              	.LFE218:
 1879              		.size	lv_obj_set_style_line_opa, .-lv_obj_set_style_line_opa
 1880 000e C046     		.section	.text.lv_obj_set_style_arc_width,"ax",%progbits
 1881              		.align	2
 1882              		.global	lv_obj_set_style_arc_width
 1883              		.code	16
 1884              		.thumb_func
 1885              		.type	lv_obj_set_style_arc_width, %function
 1886              	lv_obj_set_style_arc_width:
 1887              	.LFB219:
 482:..\..\..\arduinoLCD\test\Pain Drain\libraries\lvgl\src\core/lv_obj_style_gen.c **** 
 483:..\..\..\arduinoLCD\test\Pain Drain\libraries\lvgl\src\core/lv_obj_style_gen.c **** void lv_obj_set_style_arc_width(struct _lv_obj_t * obj, lv_coord_t value, lv_style_selector_t selec
 484:..\..\..\arduinoLCD\test\Pain Drain\libraries\lvgl\src\core/lv_obj_style_gen.c **** {
 1888              		.loc 1 484 0
 1889              		.cfi_startproc
 1890              		@ args = 0, pretend = 0, frame = 0
 1891              		@ frame_needed = 0, uses_anonymous_args = 0
 1892              	.LVL232:
 1893 0000 10B5     		push	{r4, lr}
 1894              		.cfi_def_cfa_offset 8
 1895              		.cfi_offset 4, -8
 1896              		.cfi_offset 14, -4
 1897 0002 1300     		movs	r3, r2
 485:..\..\..\arduinoLCD\test\Pain Drain\libraries\lvgl\src\core/lv_obj_style_gen.c ****     lv_style_value_t v = {
 486:..\..\..\arduinoLCD\test\Pain Drain\libraries\lvgl\src\core/lv_obj_style_gen.c ****         .num = (int32_t)value
 487:..\..\..\arduinoLCD\test\Pain Drain\libraries\lvgl\src\core/lv_obj_style_gen.c ****     };
 488:..\..\..\arduinoLCD\test\Pain Drain\libraries\lvgl\src\core/lv_obj_style_gen.c ****     lv_obj_set_local_style_prop(obj, LV_STYLE_ARC_WIDTH, v, selector);
 1898              		.loc 1 488 0
 1899 0004 0A00     		movs	r2, r1
 1900              	.LVL233:
 1901 0006 5021     		movs	r1, #80
 1902              	.LVL234:
 1903 0008 FFF7FEFF 		bl	lv_obj_set_local_style_prop
 1904              	.LVL235:
 489:..\..\..\arduinoLCD\test\Pain Drain\libraries\lvgl\src\core/lv_obj_style_gen.c **** }
 1905              		.loc 1 489 0
ARM GAS  C:\Users\haske\AppData\Local\Temp\cc0eRFVw.s 			page 43


 1906              		@ sp needed
 1907 000c 10BD     		pop	{r4, pc}
 1908              		.cfi_endproc
 1909              	.LFE219:
 1910              		.size	lv_obj_set_style_arc_width, .-lv_obj_set_style_arc_width
 1911 000e C046     		.section	.text.lv_obj_set_style_arc_rounded,"ax",%progbits
 1912              		.align	2
 1913              		.global	lv_obj_set_style_arc_rounded
 1914              		.code	16
 1915              		.thumb_func
 1916              		.type	lv_obj_set_style_arc_rounded, %function
 1917              	lv_obj_set_style_arc_rounded:
 1918              	.LFB220:
 490:..\..\..\arduinoLCD\test\Pain Drain\libraries\lvgl\src\core/lv_obj_style_gen.c **** 
 491:..\..\..\arduinoLCD\test\Pain Drain\libraries\lvgl\src\core/lv_obj_style_gen.c **** void lv_obj_set_style_arc_rounded(struct _lv_obj_t * obj, bool value, lv_style_selector_t selector)
 492:..\..\..\arduinoLCD\test\Pain Drain\libraries\lvgl\src\core/lv_obj_style_gen.c **** {
 1919              		.loc 1 492 0
 1920              		.cfi_startproc
 1921              		@ args = 0, pretend = 0, frame = 0
 1922              		@ frame_needed = 0, uses_anonymous_args = 0
 1923              	.LVL236:
 1924 0000 10B5     		push	{r4, lr}
 1925              		.cfi_def_cfa_offset 8
 1926              		.cfi_offset 4, -8
 1927              		.cfi_offset 14, -4
 1928 0002 1300     		movs	r3, r2
 493:..\..\..\arduinoLCD\test\Pain Drain\libraries\lvgl\src\core/lv_obj_style_gen.c ****     lv_style_value_t v = {
 494:..\..\..\arduinoLCD\test\Pain Drain\libraries\lvgl\src\core/lv_obj_style_gen.c ****         .num = (int32_t)value
 495:..\..\..\arduinoLCD\test\Pain Drain\libraries\lvgl\src\core/lv_obj_style_gen.c ****     };
 496:..\..\..\arduinoLCD\test\Pain Drain\libraries\lvgl\src\core/lv_obj_style_gen.c ****     lv_obj_set_local_style_prop(obj, LV_STYLE_ARC_ROUNDED, v, selector);
 1929              		.loc 1 496 0
 1930 0004 0A00     		movs	r2, r1
 1931              	.LVL237:
 1932 0006 5121     		movs	r1, #81
 1933              	.LVL238:
 1934 0008 FFF7FEFF 		bl	lv_obj_set_local_style_prop
 1935              	.LVL239:
 497:..\..\..\arduinoLCD\test\Pain Drain\libraries\lvgl\src\core/lv_obj_style_gen.c **** }
 1936              		.loc 1 497 0
 1937              		@ sp needed
 1938 000c 10BD     		pop	{r4, pc}
 1939              		.cfi_endproc
 1940              	.LFE220:
 1941              		.size	lv_obj_set_style_arc_rounded, .-lv_obj_set_style_arc_rounded
 1942 000e C046     		.section	.text.lv_obj_set_style_arc_color,"ax",%progbits
 1943              		.align	2
 1944              		.global	lv_obj_set_style_arc_color
 1945              		.code	16
 1946              		.thumb_func
 1947              		.type	lv_obj_set_style_arc_color, %function
 1948              	lv_obj_set_style_arc_color:
 1949              	.LFB221:
 498:..\..\..\arduinoLCD\test\Pain Drain\libraries\lvgl\src\core/lv_obj_style_gen.c **** 
 499:..\..\..\arduinoLCD\test\Pain Drain\libraries\lvgl\src\core/lv_obj_style_gen.c **** void lv_obj_set_style_arc_color(struct _lv_obj_t * obj, lv_color_t value, lv_style_selector_t selec
 500:..\..\..\arduinoLCD\test\Pain Drain\libraries\lvgl\src\core/lv_obj_style_gen.c **** {
 1950              		.loc 1 500 0
 1951              		.cfi_startproc
ARM GAS  C:\Users\haske\AppData\Local\Temp\cc0eRFVw.s 			page 44


 1952              		@ args = 0, pretend = 0, frame = 0
 1953              		@ frame_needed = 0, uses_anonymous_args = 0
 1954              	.LVL240:
 1955 0000 10B5     		push	{r4, lr}
 1956              		.cfi_def_cfa_offset 8
 1957              		.cfi_offset 4, -8
 1958              		.cfi_offset 14, -4
 1959 0002 1300     		movs	r3, r2
 501:..\..\..\arduinoLCD\test\Pain Drain\libraries\lvgl\src\core/lv_obj_style_gen.c ****     lv_style_value_t v = {
 1960              		.loc 1 501 0
 1961 0004 8AB2     		uxth	r2, r1
 1962              	.LVL241:
 502:..\..\..\arduinoLCD\test\Pain Drain\libraries\lvgl\src\core/lv_obj_style_gen.c ****         .color = value
 503:..\..\..\arduinoLCD\test\Pain Drain\libraries\lvgl\src\core/lv_obj_style_gen.c ****     };
 504:..\..\..\arduinoLCD\test\Pain Drain\libraries\lvgl\src\core/lv_obj_style_gen.c ****     lv_obj_set_local_style_prop(obj, LV_STYLE_ARC_COLOR, v, selector);
 1963              		.loc 1 504 0
 1964 0006 5221     		movs	r1, #82
 1965 0008 FFF7FEFF 		bl	lv_obj_set_local_style_prop
 1966              	.LVL242:
 505:..\..\..\arduinoLCD\test\Pain Drain\libraries\lvgl\src\core/lv_obj_style_gen.c **** }
 1967              		.loc 1 505 0
 1968              		@ sp needed
 1969 000c 10BD     		pop	{r4, pc}
 1970              		.cfi_endproc
 1971              	.LFE221:
 1972              		.size	lv_obj_set_style_arc_color, .-lv_obj_set_style_arc_color
 1973 000e C046     		.section	.text.lv_obj_set_style_arc_opa,"ax",%progbits
 1974              		.align	2
 1975              		.global	lv_obj_set_style_arc_opa
 1976              		.code	16
 1977              		.thumb_func
 1978              		.type	lv_obj_set_style_arc_opa, %function
 1979              	lv_obj_set_style_arc_opa:
 1980              	.LFB222:
 506:..\..\..\arduinoLCD\test\Pain Drain\libraries\lvgl\src\core/lv_obj_style_gen.c **** 
 507:..\..\..\arduinoLCD\test\Pain Drain\libraries\lvgl\src\core/lv_obj_style_gen.c **** void lv_obj_set_style_arc_opa(struct _lv_obj_t * obj, lv_opa_t value, lv_style_selector_t selector)
 508:..\..\..\arduinoLCD\test\Pain Drain\libraries\lvgl\src\core/lv_obj_style_gen.c **** {
 1981              		.loc 1 508 0
 1982              		.cfi_startproc
 1983              		@ args = 0, pretend = 0, frame = 0
 1984              		@ frame_needed = 0, uses_anonymous_args = 0
 1985              	.LVL243:
 1986 0000 10B5     		push	{r4, lr}
 1987              		.cfi_def_cfa_offset 8
 1988              		.cfi_offset 4, -8
 1989              		.cfi_offset 14, -4
 1990 0002 1300     		movs	r3, r2
 509:..\..\..\arduinoLCD\test\Pain Drain\libraries\lvgl\src\core/lv_obj_style_gen.c ****     lv_style_value_t v = {
 510:..\..\..\arduinoLCD\test\Pain Drain\libraries\lvgl\src\core/lv_obj_style_gen.c ****         .num = (int32_t)value
 511:..\..\..\arduinoLCD\test\Pain Drain\libraries\lvgl\src\core/lv_obj_style_gen.c ****     };
 512:..\..\..\arduinoLCD\test\Pain Drain\libraries\lvgl\src\core/lv_obj_style_gen.c ****     lv_obj_set_local_style_prop(obj, LV_STYLE_ARC_OPA, v, selector);
 1991              		.loc 1 512 0
 1992 0004 0A00     		movs	r2, r1
 1993              	.LVL244:
 1994 0006 5321     		movs	r1, #83
 1995              	.LVL245:
 1996 0008 FFF7FEFF 		bl	lv_obj_set_local_style_prop
ARM GAS  C:\Users\haske\AppData\Local\Temp\cc0eRFVw.s 			page 45


 1997              	.LVL246:
 513:..\..\..\arduinoLCD\test\Pain Drain\libraries\lvgl\src\core/lv_obj_style_gen.c **** }
 1998              		.loc 1 513 0
 1999              		@ sp needed
 2000 000c 10BD     		pop	{r4, pc}
 2001              		.cfi_endproc
 2002              	.LFE222:
 2003              		.size	lv_obj_set_style_arc_opa, .-lv_obj_set_style_arc_opa
 2004 000e C046     		.section	.text.lv_obj_set_style_arc_img_src,"ax",%progbits
 2005              		.align	2
 2006              		.global	lv_obj_set_style_arc_img_src
 2007              		.code	16
 2008              		.thumb_func
 2009              		.type	lv_obj_set_style_arc_img_src, %function
 2010              	lv_obj_set_style_arc_img_src:
 2011              	.LFB223:
 514:..\..\..\arduinoLCD\test\Pain Drain\libraries\lvgl\src\core/lv_obj_style_gen.c **** 
 515:..\..\..\arduinoLCD\test\Pain Drain\libraries\lvgl\src\core/lv_obj_style_gen.c **** void lv_obj_set_style_arc_img_src(struct _lv_obj_t * obj, const void * value, lv_style_selector_t s
 516:..\..\..\arduinoLCD\test\Pain Drain\libraries\lvgl\src\core/lv_obj_style_gen.c **** {
 2012              		.loc 1 516 0
 2013              		.cfi_startproc
 2014              		@ args = 0, pretend = 0, frame = 0
 2015              		@ frame_needed = 0, uses_anonymous_args = 0
 2016              	.LVL247:
 2017 0000 10B5     		push	{r4, lr}
 2018              		.cfi_def_cfa_offset 8
 2019              		.cfi_offset 4, -8
 2020              		.cfi_offset 14, -4
 2021 0002 1300     		movs	r3, r2
 517:..\..\..\arduinoLCD\test\Pain Drain\libraries\lvgl\src\core/lv_obj_style_gen.c ****     lv_style_value_t v = {
 518:..\..\..\arduinoLCD\test\Pain Drain\libraries\lvgl\src\core/lv_obj_style_gen.c ****         .ptr = value
 519:..\..\..\arduinoLCD\test\Pain Drain\libraries\lvgl\src\core/lv_obj_style_gen.c ****     };
 520:..\..\..\arduinoLCD\test\Pain Drain\libraries\lvgl\src\core/lv_obj_style_gen.c ****     lv_obj_set_local_style_prop(obj, LV_STYLE_ARC_IMG_SRC, v, selector);
 2022              		.loc 1 520 0
 2023 0004 0A00     		movs	r2, r1
 2024              	.LVL248:
 2025 0006 5421     		movs	r1, #84
 2026              	.LVL249:
 2027 0008 FFF7FEFF 		bl	lv_obj_set_local_style_prop
 2028              	.LVL250:
 521:..\..\..\arduinoLCD\test\Pain Drain\libraries\lvgl\src\core/lv_obj_style_gen.c **** }
 2029              		.loc 1 521 0
 2030              		@ sp needed
 2031 000c 10BD     		pop	{r4, pc}
 2032              		.cfi_endproc
 2033              	.LFE223:
 2034              		.size	lv_obj_set_style_arc_img_src, .-lv_obj_set_style_arc_img_src
 2035 000e C046     		.section	.text.lv_obj_set_style_text_color,"ax",%progbits
 2036              		.align	2
 2037              		.global	lv_obj_set_style_text_color
 2038              		.code	16
 2039              		.thumb_func
 2040              		.type	lv_obj_set_style_text_color, %function
 2041              	lv_obj_set_style_text_color:
 2042              	.LFB224:
 522:..\..\..\arduinoLCD\test\Pain Drain\libraries\lvgl\src\core/lv_obj_style_gen.c **** 
 523:..\..\..\arduinoLCD\test\Pain Drain\libraries\lvgl\src\core/lv_obj_style_gen.c **** void lv_obj_set_style_text_color(struct _lv_obj_t * obj, lv_color_t value, lv_style_selector_t sele
ARM GAS  C:\Users\haske\AppData\Local\Temp\cc0eRFVw.s 			page 46


 524:..\..\..\arduinoLCD\test\Pain Drain\libraries\lvgl\src\core/lv_obj_style_gen.c **** {
 2043              		.loc 1 524 0
 2044              		.cfi_startproc
 2045              		@ args = 0, pretend = 0, frame = 0
 2046              		@ frame_needed = 0, uses_anonymous_args = 0
 2047              	.LVL251:
 2048 0000 10B5     		push	{r4, lr}
 2049              		.cfi_def_cfa_offset 8
 2050              		.cfi_offset 4, -8
 2051              		.cfi_offset 14, -4
 2052 0002 1300     		movs	r3, r2
 525:..\..\..\arduinoLCD\test\Pain Drain\libraries\lvgl\src\core/lv_obj_style_gen.c ****     lv_style_value_t v = {
 2053              		.loc 1 525 0
 2054 0004 8AB2     		uxth	r2, r1
 2055              	.LVL252:
 526:..\..\..\arduinoLCD\test\Pain Drain\libraries\lvgl\src\core/lv_obj_style_gen.c ****         .color = value
 527:..\..\..\arduinoLCD\test\Pain Drain\libraries\lvgl\src\core/lv_obj_style_gen.c ****     };
 528:..\..\..\arduinoLCD\test\Pain Drain\libraries\lvgl\src\core/lv_obj_style_gen.c ****     lv_obj_set_local_style_prop(obj, LV_STYLE_TEXT_COLOR, v, selector);
 2056              		.loc 1 528 0
 2057 0006 5521     		movs	r1, #85
 2058 0008 FFF7FEFF 		bl	lv_obj_set_local_style_prop
 2059              	.LVL253:
 529:..\..\..\arduinoLCD\test\Pain Drain\libraries\lvgl\src\core/lv_obj_style_gen.c **** }
 2060              		.loc 1 529 0
 2061              		@ sp needed
 2062 000c 10BD     		pop	{r4, pc}
 2063              		.cfi_endproc
 2064              	.LFE224:
 2065              		.size	lv_obj_set_style_text_color, .-lv_obj_set_style_text_color
 2066 000e C046     		.section	.text.lv_obj_set_style_text_opa,"ax",%progbits
 2067              		.align	2
 2068              		.global	lv_obj_set_style_text_opa
 2069              		.code	16
 2070              		.thumb_func
 2071              		.type	lv_obj_set_style_text_opa, %function
 2072              	lv_obj_set_style_text_opa:
 2073              	.LFB225:
 530:..\..\..\arduinoLCD\test\Pain Drain\libraries\lvgl\src\core/lv_obj_style_gen.c **** 
 531:..\..\..\arduinoLCD\test\Pain Drain\libraries\lvgl\src\core/lv_obj_style_gen.c **** void lv_obj_set_style_text_opa(struct _lv_obj_t * obj, lv_opa_t value, lv_style_selector_t selector
 532:..\..\..\arduinoLCD\test\Pain Drain\libraries\lvgl\src\core/lv_obj_style_gen.c **** {
 2074              		.loc 1 532 0
 2075              		.cfi_startproc
 2076              		@ args = 0, pretend = 0, frame = 0
 2077              		@ frame_needed = 0, uses_anonymous_args = 0
 2078              	.LVL254:
 2079 0000 10B5     		push	{r4, lr}
 2080              		.cfi_def_cfa_offset 8
 2081              		.cfi_offset 4, -8
 2082              		.cfi_offset 14, -4
 2083 0002 1300     		movs	r3, r2
 533:..\..\..\arduinoLCD\test\Pain Drain\libraries\lvgl\src\core/lv_obj_style_gen.c ****     lv_style_value_t v = {
 534:..\..\..\arduinoLCD\test\Pain Drain\libraries\lvgl\src\core/lv_obj_style_gen.c ****         .num = (int32_t)value
 535:..\..\..\arduinoLCD\test\Pain Drain\libraries\lvgl\src\core/lv_obj_style_gen.c ****     };
 536:..\..\..\arduinoLCD\test\Pain Drain\libraries\lvgl\src\core/lv_obj_style_gen.c ****     lv_obj_set_local_style_prop(obj, LV_STYLE_TEXT_OPA, v, selector);
 2084              		.loc 1 536 0
 2085 0004 0A00     		movs	r2, r1
 2086              	.LVL255:
ARM GAS  C:\Users\haske\AppData\Local\Temp\cc0eRFVw.s 			page 47


 2087 0006 5621     		movs	r1, #86
 2088              	.LVL256:
 2089 0008 FFF7FEFF 		bl	lv_obj_set_local_style_prop
 2090              	.LVL257:
 537:..\..\..\arduinoLCD\test\Pain Drain\libraries\lvgl\src\core/lv_obj_style_gen.c **** }
 2091              		.loc 1 537 0
 2092              		@ sp needed
 2093 000c 10BD     		pop	{r4, pc}
 2094              		.cfi_endproc
 2095              	.LFE225:
 2096              		.size	lv_obj_set_style_text_opa, .-lv_obj_set_style_text_opa
 2097 000e C046     		.section	.text.lv_obj_set_style_text_font,"ax",%progbits
 2098              		.align	2
 2099              		.global	lv_obj_set_style_text_font
 2100              		.code	16
 2101              		.thumb_func
 2102              		.type	lv_obj_set_style_text_font, %function
 2103              	lv_obj_set_style_text_font:
 2104              	.LFB226:
 538:..\..\..\arduinoLCD\test\Pain Drain\libraries\lvgl\src\core/lv_obj_style_gen.c **** 
 539:..\..\..\arduinoLCD\test\Pain Drain\libraries\lvgl\src\core/lv_obj_style_gen.c **** void lv_obj_set_style_text_font(struct _lv_obj_t * obj, const lv_font_t * value, lv_style_selector_
 540:..\..\..\arduinoLCD\test\Pain Drain\libraries\lvgl\src\core/lv_obj_style_gen.c **** {
 2105              		.loc 1 540 0
 2106              		.cfi_startproc
 2107              		@ args = 0, pretend = 0, frame = 0
 2108              		@ frame_needed = 0, uses_anonymous_args = 0
 2109              	.LVL258:
 2110 0000 10B5     		push	{r4, lr}
 2111              		.cfi_def_cfa_offset 8
 2112              		.cfi_offset 4, -8
 2113              		.cfi_offset 14, -4
 2114 0002 1300     		movs	r3, r2
 541:..\..\..\arduinoLCD\test\Pain Drain\libraries\lvgl\src\core/lv_obj_style_gen.c ****     lv_style_value_t v = {
 542:..\..\..\arduinoLCD\test\Pain Drain\libraries\lvgl\src\core/lv_obj_style_gen.c ****         .ptr = value
 543:..\..\..\arduinoLCD\test\Pain Drain\libraries\lvgl\src\core/lv_obj_style_gen.c ****     };
 544:..\..\..\arduinoLCD\test\Pain Drain\libraries\lvgl\src\core/lv_obj_style_gen.c ****     lv_obj_set_local_style_prop(obj, LV_STYLE_TEXT_FONT, v, selector);
 2115              		.loc 1 544 0
 2116 0004 0A00     		movs	r2, r1
 2117              	.LVL259:
 2118 0006 5721     		movs	r1, #87
 2119              	.LVL260:
 2120 0008 FFF7FEFF 		bl	lv_obj_set_local_style_prop
 2121              	.LVL261:
 545:..\..\..\arduinoLCD\test\Pain Drain\libraries\lvgl\src\core/lv_obj_style_gen.c **** }
 2122              		.loc 1 545 0
 2123              		@ sp needed
 2124 000c 10BD     		pop	{r4, pc}
 2125              		.cfi_endproc
 2126              	.LFE226:
 2127              		.size	lv_obj_set_style_text_font, .-lv_obj_set_style_text_font
 2128 000e C046     		.section	.text.lv_obj_set_style_text_letter_space,"ax",%progbits
 2129              		.align	2
 2130              		.global	lv_obj_set_style_text_letter_space
 2131              		.code	16
 2132              		.thumb_func
 2133              		.type	lv_obj_set_style_text_letter_space, %function
 2134              	lv_obj_set_style_text_letter_space:
ARM GAS  C:\Users\haske\AppData\Local\Temp\cc0eRFVw.s 			page 48


 2135              	.LFB227:
 546:..\..\..\arduinoLCD\test\Pain Drain\libraries\lvgl\src\core/lv_obj_style_gen.c **** 
 547:..\..\..\arduinoLCD\test\Pain Drain\libraries\lvgl\src\core/lv_obj_style_gen.c **** void lv_obj_set_style_text_letter_space(struct _lv_obj_t * obj, lv_coord_t value, lv_style_selector
 548:..\..\..\arduinoLCD\test\Pain Drain\libraries\lvgl\src\core/lv_obj_style_gen.c **** {
 2136              		.loc 1 548 0
 2137              		.cfi_startproc
 2138              		@ args = 0, pretend = 0, frame = 0
 2139              		@ frame_needed = 0, uses_anonymous_args = 0
 2140              	.LVL262:
 2141 0000 10B5     		push	{r4, lr}
 2142              		.cfi_def_cfa_offset 8
 2143              		.cfi_offset 4, -8
 2144              		.cfi_offset 14, -4
 2145 0002 1300     		movs	r3, r2
 549:..\..\..\arduinoLCD\test\Pain Drain\libraries\lvgl\src\core/lv_obj_style_gen.c ****     lv_style_value_t v = {
 550:..\..\..\arduinoLCD\test\Pain Drain\libraries\lvgl\src\core/lv_obj_style_gen.c ****         .num = (int32_t)value
 551:..\..\..\arduinoLCD\test\Pain Drain\libraries\lvgl\src\core/lv_obj_style_gen.c ****     };
 552:..\..\..\arduinoLCD\test\Pain Drain\libraries\lvgl\src\core/lv_obj_style_gen.c ****     lv_obj_set_local_style_prop(obj, LV_STYLE_TEXT_LETTER_SPACE, v, selector);
 2146              		.loc 1 552 0
 2147 0004 0A00     		movs	r2, r1
 2148              	.LVL263:
 2149 0006 5821     		movs	r1, #88
 2150              	.LVL264:
 2151 0008 FFF7FEFF 		bl	lv_obj_set_local_style_prop
 2152              	.LVL265:
 553:..\..\..\arduinoLCD\test\Pain Drain\libraries\lvgl\src\core/lv_obj_style_gen.c **** }
 2153              		.loc 1 553 0
 2154              		@ sp needed
 2155 000c 10BD     		pop	{r4, pc}
 2156              		.cfi_endproc
 2157              	.LFE227:
 2158              		.size	lv_obj_set_style_text_letter_space, .-lv_obj_set_style_text_letter_space
 2159 000e C046     		.section	.text.lv_obj_set_style_text_line_space,"ax",%progbits
 2160              		.align	2
 2161              		.global	lv_obj_set_style_text_line_space
 2162              		.code	16
 2163              		.thumb_func
 2164              		.type	lv_obj_set_style_text_line_space, %function
 2165              	lv_obj_set_style_text_line_space:
 2166              	.LFB228:
 554:..\..\..\arduinoLCD\test\Pain Drain\libraries\lvgl\src\core/lv_obj_style_gen.c **** 
 555:..\..\..\arduinoLCD\test\Pain Drain\libraries\lvgl\src\core/lv_obj_style_gen.c **** void lv_obj_set_style_text_line_space(struct _lv_obj_t * obj, lv_coord_t value, lv_style_selector_t
 556:..\..\..\arduinoLCD\test\Pain Drain\libraries\lvgl\src\core/lv_obj_style_gen.c **** {
 2167              		.loc 1 556 0
 2168              		.cfi_startproc
 2169              		@ args = 0, pretend = 0, frame = 0
 2170              		@ frame_needed = 0, uses_anonymous_args = 0
 2171              	.LVL266:
 2172 0000 10B5     		push	{r4, lr}
 2173              		.cfi_def_cfa_offset 8
 2174              		.cfi_offset 4, -8
 2175              		.cfi_offset 14, -4
 2176 0002 1300     		movs	r3, r2
 557:..\..\..\arduinoLCD\test\Pain Drain\libraries\lvgl\src\core/lv_obj_style_gen.c ****     lv_style_value_t v = {
 558:..\..\..\arduinoLCD\test\Pain Drain\libraries\lvgl\src\core/lv_obj_style_gen.c ****         .num = (int32_t)value
 559:..\..\..\arduinoLCD\test\Pain Drain\libraries\lvgl\src\core/lv_obj_style_gen.c ****     };
 560:..\..\..\arduinoLCD\test\Pain Drain\libraries\lvgl\src\core/lv_obj_style_gen.c ****     lv_obj_set_local_style_prop(obj, LV_STYLE_TEXT_LINE_SPACE, v, selector);
ARM GAS  C:\Users\haske\AppData\Local\Temp\cc0eRFVw.s 			page 49


 2177              		.loc 1 560 0
 2178 0004 0A00     		movs	r2, r1
 2179              	.LVL267:
 2180 0006 5921     		movs	r1, #89
 2181              	.LVL268:
 2182 0008 FFF7FEFF 		bl	lv_obj_set_local_style_prop
 2183              	.LVL269:
 561:..\..\..\arduinoLCD\test\Pain Drain\libraries\lvgl\src\core/lv_obj_style_gen.c **** }
 2184              		.loc 1 561 0
 2185              		@ sp needed
 2186 000c 10BD     		pop	{r4, pc}
 2187              		.cfi_endproc
 2188              	.LFE228:
 2189              		.size	lv_obj_set_style_text_line_space, .-lv_obj_set_style_text_line_space
 2190 000e C046     		.section	.text.lv_obj_set_style_text_decor,"ax",%progbits
 2191              		.align	2
 2192              		.global	lv_obj_set_style_text_decor
 2193              		.code	16
 2194              		.thumb_func
 2195              		.type	lv_obj_set_style_text_decor, %function
 2196              	lv_obj_set_style_text_decor:
 2197              	.LFB229:
 562:..\..\..\arduinoLCD\test\Pain Drain\libraries\lvgl\src\core/lv_obj_style_gen.c **** 
 563:..\..\..\arduinoLCD\test\Pain Drain\libraries\lvgl\src\core/lv_obj_style_gen.c **** void lv_obj_set_style_text_decor(struct _lv_obj_t * obj, lv_text_decor_t value, lv_style_selector_t
 564:..\..\..\arduinoLCD\test\Pain Drain\libraries\lvgl\src\core/lv_obj_style_gen.c **** {
 2198              		.loc 1 564 0
 2199              		.cfi_startproc
 2200              		@ args = 0, pretend = 0, frame = 0
 2201              		@ frame_needed = 0, uses_anonymous_args = 0
 2202              	.LVL270:
 2203 0000 10B5     		push	{r4, lr}
 2204              		.cfi_def_cfa_offset 8
 2205              		.cfi_offset 4, -8
 2206              		.cfi_offset 14, -4
 2207 0002 1300     		movs	r3, r2
 565:..\..\..\arduinoLCD\test\Pain Drain\libraries\lvgl\src\core/lv_obj_style_gen.c ****     lv_style_value_t v = {
 566:..\..\..\arduinoLCD\test\Pain Drain\libraries\lvgl\src\core/lv_obj_style_gen.c ****         .num = (int32_t)value
 567:..\..\..\arduinoLCD\test\Pain Drain\libraries\lvgl\src\core/lv_obj_style_gen.c ****     };
 568:..\..\..\arduinoLCD\test\Pain Drain\libraries\lvgl\src\core/lv_obj_style_gen.c ****     lv_obj_set_local_style_prop(obj, LV_STYLE_TEXT_DECOR, v, selector);
 2208              		.loc 1 568 0
 2209 0004 0A00     		movs	r2, r1
 2210              	.LVL271:
 2211 0006 5A21     		movs	r1, #90
 2212              	.LVL272:
 2213 0008 FFF7FEFF 		bl	lv_obj_set_local_style_prop
 2214              	.LVL273:
 569:..\..\..\arduinoLCD\test\Pain Drain\libraries\lvgl\src\core/lv_obj_style_gen.c **** }
 2215              		.loc 1 569 0
 2216              		@ sp needed
 2217 000c 10BD     		pop	{r4, pc}
 2218              		.cfi_endproc
 2219              	.LFE229:
 2220              		.size	lv_obj_set_style_text_decor, .-lv_obj_set_style_text_decor
 2221 000e C046     		.section	.text.lv_obj_set_style_text_align,"ax",%progbits
 2222              		.align	2
 2223              		.global	lv_obj_set_style_text_align
 2224              		.code	16
ARM GAS  C:\Users\haske\AppData\Local\Temp\cc0eRFVw.s 			page 50


 2225              		.thumb_func
 2226              		.type	lv_obj_set_style_text_align, %function
 2227              	lv_obj_set_style_text_align:
 2228              	.LFB230:
 570:..\..\..\arduinoLCD\test\Pain Drain\libraries\lvgl\src\core/lv_obj_style_gen.c **** 
 571:..\..\..\arduinoLCD\test\Pain Drain\libraries\lvgl\src\core/lv_obj_style_gen.c **** void lv_obj_set_style_text_align(struct _lv_obj_t * obj, lv_text_align_t value, lv_style_selector_t
 572:..\..\..\arduinoLCD\test\Pain Drain\libraries\lvgl\src\core/lv_obj_style_gen.c **** {
 2229              		.loc 1 572 0
 2230              		.cfi_startproc
 2231              		@ args = 0, pretend = 0, frame = 0
 2232              		@ frame_needed = 0, uses_anonymous_args = 0
 2233              	.LVL274:
 2234 0000 10B5     		push	{r4, lr}
 2235              		.cfi_def_cfa_offset 8
 2236              		.cfi_offset 4, -8
 2237              		.cfi_offset 14, -4
 2238 0002 1300     		movs	r3, r2
 573:..\..\..\arduinoLCD\test\Pain Drain\libraries\lvgl\src\core/lv_obj_style_gen.c ****     lv_style_value_t v = {
 574:..\..\..\arduinoLCD\test\Pain Drain\libraries\lvgl\src\core/lv_obj_style_gen.c ****         .num = (int32_t)value
 575:..\..\..\arduinoLCD\test\Pain Drain\libraries\lvgl\src\core/lv_obj_style_gen.c ****     };
 576:..\..\..\arduinoLCD\test\Pain Drain\libraries\lvgl\src\core/lv_obj_style_gen.c ****     lv_obj_set_local_style_prop(obj, LV_STYLE_TEXT_ALIGN, v, selector);
 2239              		.loc 1 576 0
 2240 0004 0A00     		movs	r2, r1
 2241              	.LVL275:
 2242 0006 5B21     		movs	r1, #91
 2243              	.LVL276:
 2244 0008 FFF7FEFF 		bl	lv_obj_set_local_style_prop
 2245              	.LVL277:
 577:..\..\..\arduinoLCD\test\Pain Drain\libraries\lvgl\src\core/lv_obj_style_gen.c **** }
 2246              		.loc 1 577 0
 2247              		@ sp needed
 2248 000c 10BD     		pop	{r4, pc}
 2249              		.cfi_endproc
 2250              	.LFE230:
 2251              		.size	lv_obj_set_style_text_align, .-lv_obj_set_style_text_align
 2252 000e C046     		.section	.text.lv_obj_set_style_radius,"ax",%progbits
 2253              		.align	2
 2254              		.global	lv_obj_set_style_radius
 2255              		.code	16
 2256              		.thumb_func
 2257              		.type	lv_obj_set_style_radius, %function
 2258              	lv_obj_set_style_radius:
 2259              	.LFB231:
 578:..\..\..\arduinoLCD\test\Pain Drain\libraries\lvgl\src\core/lv_obj_style_gen.c **** 
 579:..\..\..\arduinoLCD\test\Pain Drain\libraries\lvgl\src\core/lv_obj_style_gen.c **** void lv_obj_set_style_radius(struct _lv_obj_t * obj, lv_coord_t value, lv_style_selector_t selector
 580:..\..\..\arduinoLCD\test\Pain Drain\libraries\lvgl\src\core/lv_obj_style_gen.c **** {
 2260              		.loc 1 580 0
 2261              		.cfi_startproc
 2262              		@ args = 0, pretend = 0, frame = 0
 2263              		@ frame_needed = 0, uses_anonymous_args = 0
 2264              	.LVL278:
 2265 0000 10B5     		push	{r4, lr}
 2266              		.cfi_def_cfa_offset 8
 2267              		.cfi_offset 4, -8
 2268              		.cfi_offset 14, -4
 2269 0002 1300     		movs	r3, r2
 581:..\..\..\arduinoLCD\test\Pain Drain\libraries\lvgl\src\core/lv_obj_style_gen.c ****     lv_style_value_t v = {
ARM GAS  C:\Users\haske\AppData\Local\Temp\cc0eRFVw.s 			page 51


 582:..\..\..\arduinoLCD\test\Pain Drain\libraries\lvgl\src\core/lv_obj_style_gen.c ****         .num = (int32_t)value
 583:..\..\..\arduinoLCD\test\Pain Drain\libraries\lvgl\src\core/lv_obj_style_gen.c ****     };
 584:..\..\..\arduinoLCD\test\Pain Drain\libraries\lvgl\src\core/lv_obj_style_gen.c ****     lv_obj_set_local_style_prop(obj, LV_STYLE_RADIUS, v, selector);
 2270              		.loc 1 584 0
 2271 0004 0A00     		movs	r2, r1
 2272              	.LVL279:
 2273 0006 0B21     		movs	r1, #11
 2274              	.LVL280:
 2275 0008 FFF7FEFF 		bl	lv_obj_set_local_style_prop
 2276              	.LVL281:
 585:..\..\..\arduinoLCD\test\Pain Drain\libraries\lvgl\src\core/lv_obj_style_gen.c **** }
 2277              		.loc 1 585 0
 2278              		@ sp needed
 2279 000c 10BD     		pop	{r4, pc}
 2280              		.cfi_endproc
 2281              	.LFE231:
 2282              		.size	lv_obj_set_style_radius, .-lv_obj_set_style_radius
 2283 000e C046     		.section	.text.lv_obj_set_style_clip_corner,"ax",%progbits
 2284              		.align	2
 2285              		.global	lv_obj_set_style_clip_corner
 2286              		.code	16
 2287              		.thumb_func
 2288              		.type	lv_obj_set_style_clip_corner, %function
 2289              	lv_obj_set_style_clip_corner:
 2290              	.LFB232:
 586:..\..\..\arduinoLCD\test\Pain Drain\libraries\lvgl\src\core/lv_obj_style_gen.c **** 
 587:..\..\..\arduinoLCD\test\Pain Drain\libraries\lvgl\src\core/lv_obj_style_gen.c **** void lv_obj_set_style_clip_corner(struct _lv_obj_t * obj, bool value, lv_style_selector_t selector)
 588:..\..\..\arduinoLCD\test\Pain Drain\libraries\lvgl\src\core/lv_obj_style_gen.c **** {
 2291              		.loc 1 588 0
 2292              		.cfi_startproc
 2293              		@ args = 0, pretend = 0, frame = 0
 2294              		@ frame_needed = 0, uses_anonymous_args = 0
 2295              	.LVL282:
 2296 0000 10B5     		push	{r4, lr}
 2297              		.cfi_def_cfa_offset 8
 2298              		.cfi_offset 4, -8
 2299              		.cfi_offset 14, -4
 2300 0002 1300     		movs	r3, r2
 589:..\..\..\arduinoLCD\test\Pain Drain\libraries\lvgl\src\core/lv_obj_style_gen.c ****     lv_style_value_t v = {
 590:..\..\..\arduinoLCD\test\Pain Drain\libraries\lvgl\src\core/lv_obj_style_gen.c ****         .num = (int32_t)value
 591:..\..\..\arduinoLCD\test\Pain Drain\libraries\lvgl\src\core/lv_obj_style_gen.c ****     };
 592:..\..\..\arduinoLCD\test\Pain Drain\libraries\lvgl\src\core/lv_obj_style_gen.c ****     lv_obj_set_local_style_prop(obj, LV_STYLE_CLIP_CORNER, v, selector);
 2301              		.loc 1 592 0
 2302 0004 0A00     		movs	r2, r1
 2303              	.LVL283:
 2304 0006 1721     		movs	r1, #23
 2305              	.LVL284:
 2306 0008 FFF7FEFF 		bl	lv_obj_set_local_style_prop
 2307              	.LVL285:
 593:..\..\..\arduinoLCD\test\Pain Drain\libraries\lvgl\src\core/lv_obj_style_gen.c **** }
 2308              		.loc 1 593 0
 2309              		@ sp needed
 2310 000c 10BD     		pop	{r4, pc}
 2311              		.cfi_endproc
 2312              	.LFE232:
 2313              		.size	lv_obj_set_style_clip_corner, .-lv_obj_set_style_clip_corner
 2314 000e C046     		.section	.text.lv_obj_set_style_opa,"ax",%progbits
ARM GAS  C:\Users\haske\AppData\Local\Temp\cc0eRFVw.s 			page 52


 2315              		.align	2
 2316              		.global	lv_obj_set_style_opa
 2317              		.code	16
 2318              		.thumb_func
 2319              		.type	lv_obj_set_style_opa, %function
 2320              	lv_obj_set_style_opa:
 2321              	.LFB233:
 594:..\..\..\arduinoLCD\test\Pain Drain\libraries\lvgl\src\core/lv_obj_style_gen.c **** 
 595:..\..\..\arduinoLCD\test\Pain Drain\libraries\lvgl\src\core/lv_obj_style_gen.c **** void lv_obj_set_style_opa(struct _lv_obj_t * obj, lv_opa_t value, lv_style_selector_t selector)
 596:..\..\..\arduinoLCD\test\Pain Drain\libraries\lvgl\src\core/lv_obj_style_gen.c **** {
 2322              		.loc 1 596 0
 2323              		.cfi_startproc
 2324              		@ args = 0, pretend = 0, frame = 0
 2325              		@ frame_needed = 0, uses_anonymous_args = 0
 2326              	.LVL286:
 2327 0000 10B5     		push	{r4, lr}
 2328              		.cfi_def_cfa_offset 8
 2329              		.cfi_offset 4, -8
 2330              		.cfi_offset 14, -4
 2331 0002 1300     		movs	r3, r2
 597:..\..\..\arduinoLCD\test\Pain Drain\libraries\lvgl\src\core/lv_obj_style_gen.c ****     lv_style_value_t v = {
 598:..\..\..\arduinoLCD\test\Pain Drain\libraries\lvgl\src\core/lv_obj_style_gen.c ****         .num = (int32_t)value
 599:..\..\..\arduinoLCD\test\Pain Drain\libraries\lvgl\src\core/lv_obj_style_gen.c ****     };
 600:..\..\..\arduinoLCD\test\Pain Drain\libraries\lvgl\src\core/lv_obj_style_gen.c ****     lv_obj_set_local_style_prop(obj, LV_STYLE_OPA, v, selector);
 2332              		.loc 1 600 0
 2333 0004 0A00     		movs	r2, r1
 2334              	.LVL287:
 2335 0006 6021     		movs	r1, #96
 2336              	.LVL288:
 2337 0008 FFF7FEFF 		bl	lv_obj_set_local_style_prop
 2338              	.LVL289:
 601:..\..\..\arduinoLCD\test\Pain Drain\libraries\lvgl\src\core/lv_obj_style_gen.c **** }
 2339              		.loc 1 601 0
 2340              		@ sp needed
 2341 000c 10BD     		pop	{r4, pc}
 2342              		.cfi_endproc
 2343              	.LFE233:
 2344              		.size	lv_obj_set_style_opa, .-lv_obj_set_style_opa
 2345 000e C046     		.section	.text.lv_obj_set_style_color_filter_dsc,"ax",%progbits
 2346              		.align	2
 2347              		.global	lv_obj_set_style_color_filter_dsc
 2348              		.code	16
 2349              		.thumb_func
 2350              		.type	lv_obj_set_style_color_filter_dsc, %function
 2351              	lv_obj_set_style_color_filter_dsc:
 2352              	.LFB234:
 602:..\..\..\arduinoLCD\test\Pain Drain\libraries\lvgl\src\core/lv_obj_style_gen.c **** 
 603:..\..\..\arduinoLCD\test\Pain Drain\libraries\lvgl\src\core/lv_obj_style_gen.c **** void lv_obj_set_style_color_filter_dsc(struct _lv_obj_t * obj, const lv_color_filter_dsc_t * value,
 604:..\..\..\arduinoLCD\test\Pain Drain\libraries\lvgl\src\core/lv_obj_style_gen.c **** {
 2353              		.loc 1 604 0
 2354              		.cfi_startproc
 2355              		@ args = 0, pretend = 0, frame = 0
 2356              		@ frame_needed = 0, uses_anonymous_args = 0
 2357              	.LVL290:
 2358 0000 10B5     		push	{r4, lr}
 2359              		.cfi_def_cfa_offset 8
 2360              		.cfi_offset 4, -8
ARM GAS  C:\Users\haske\AppData\Local\Temp\cc0eRFVw.s 			page 53


 2361              		.cfi_offset 14, -4
 2362 0002 1300     		movs	r3, r2
 605:..\..\..\arduinoLCD\test\Pain Drain\libraries\lvgl\src\core/lv_obj_style_gen.c ****     lv_style_value_t v = {
 606:..\..\..\arduinoLCD\test\Pain Drain\libraries\lvgl\src\core/lv_obj_style_gen.c ****         .ptr = value
 607:..\..\..\arduinoLCD\test\Pain Drain\libraries\lvgl\src\core/lv_obj_style_gen.c ****     };
 608:..\..\..\arduinoLCD\test\Pain Drain\libraries\lvgl\src\core/lv_obj_style_gen.c ****     lv_obj_set_local_style_prop(obj, LV_STYLE_COLOR_FILTER_DSC, v, selector);
 2363              		.loc 1 608 0
 2364 0004 0A00     		movs	r2, r1
 2365              	.LVL291:
 2366 0006 6121     		movs	r1, #97
 2367              	.LVL292:
 2368 0008 FFF7FEFF 		bl	lv_obj_set_local_style_prop
 2369              	.LVL293:
 609:..\..\..\arduinoLCD\test\Pain Drain\libraries\lvgl\src\core/lv_obj_style_gen.c **** }
 2370              		.loc 1 609 0
 2371              		@ sp needed
 2372 000c 10BD     		pop	{r4, pc}
 2373              		.cfi_endproc
 2374              	.LFE234:
 2375              		.size	lv_obj_set_style_color_filter_dsc, .-lv_obj_set_style_color_filter_dsc
 2376 000e C046     		.section	.text.lv_obj_set_style_color_filter_opa,"ax",%progbits
 2377              		.align	2
 2378              		.global	lv_obj_set_style_color_filter_opa
 2379              		.code	16
 2380              		.thumb_func
 2381              		.type	lv_obj_set_style_color_filter_opa, %function
 2382              	lv_obj_set_style_color_filter_opa:
 2383              	.LFB235:
 610:..\..\..\arduinoLCD\test\Pain Drain\libraries\lvgl\src\core/lv_obj_style_gen.c **** 
 611:..\..\..\arduinoLCD\test\Pain Drain\libraries\lvgl\src\core/lv_obj_style_gen.c **** void lv_obj_set_style_color_filter_opa(struct _lv_obj_t * obj, lv_opa_t value, lv_style_selector_t 
 612:..\..\..\arduinoLCD\test\Pain Drain\libraries\lvgl\src\core/lv_obj_style_gen.c **** {
 2384              		.loc 1 612 0
 2385              		.cfi_startproc
 2386              		@ args = 0, pretend = 0, frame = 0
 2387              		@ frame_needed = 0, uses_anonymous_args = 0
 2388              	.LVL294:
 2389 0000 10B5     		push	{r4, lr}
 2390              		.cfi_def_cfa_offset 8
 2391              		.cfi_offset 4, -8
 2392              		.cfi_offset 14, -4
 2393 0002 1300     		movs	r3, r2
 613:..\..\..\arduinoLCD\test\Pain Drain\libraries\lvgl\src\core/lv_obj_style_gen.c ****     lv_style_value_t v = {
 614:..\..\..\arduinoLCD\test\Pain Drain\libraries\lvgl\src\core/lv_obj_style_gen.c ****         .num = (int32_t)value
 615:..\..\..\arduinoLCD\test\Pain Drain\libraries\lvgl\src\core/lv_obj_style_gen.c ****     };
 616:..\..\..\arduinoLCD\test\Pain Drain\libraries\lvgl\src\core/lv_obj_style_gen.c ****     lv_obj_set_local_style_prop(obj, LV_STYLE_COLOR_FILTER_OPA, v, selector);
 2394              		.loc 1 616 0
 2395 0004 0A00     		movs	r2, r1
 2396              	.LVL295:
 2397 0006 6221     		movs	r1, #98
 2398              	.LVL296:
 2399 0008 FFF7FEFF 		bl	lv_obj_set_local_style_prop
 2400              	.LVL297:
 617:..\..\..\arduinoLCD\test\Pain Drain\libraries\lvgl\src\core/lv_obj_style_gen.c **** }
 2401              		.loc 1 617 0
 2402              		@ sp needed
 2403 000c 10BD     		pop	{r4, pc}
 2404              		.cfi_endproc
ARM GAS  C:\Users\haske\AppData\Local\Temp\cc0eRFVw.s 			page 54


 2405              	.LFE235:
 2406              		.size	lv_obj_set_style_color_filter_opa, .-lv_obj_set_style_color_filter_opa
 2407 000e C046     		.section	.text.lv_obj_set_style_anim,"ax",%progbits
 2408              		.align	2
 2409              		.global	lv_obj_set_style_anim
 2410              		.code	16
 2411              		.thumb_func
 2412              		.type	lv_obj_set_style_anim, %function
 2413              	lv_obj_set_style_anim:
 2414              	.LFB236:
 618:..\..\..\arduinoLCD\test\Pain Drain\libraries\lvgl\src\core/lv_obj_style_gen.c **** 
 619:..\..\..\arduinoLCD\test\Pain Drain\libraries\lvgl\src\core/lv_obj_style_gen.c **** void lv_obj_set_style_anim(struct _lv_obj_t * obj, const lv_anim_t * value, lv_style_selector_t sel
 620:..\..\..\arduinoLCD\test\Pain Drain\libraries\lvgl\src\core/lv_obj_style_gen.c **** {
 2415              		.loc 1 620 0
 2416              		.cfi_startproc
 2417              		@ args = 0, pretend = 0, frame = 0
 2418              		@ frame_needed = 0, uses_anonymous_args = 0
 2419              	.LVL298:
 2420 0000 10B5     		push	{r4, lr}
 2421              		.cfi_def_cfa_offset 8
 2422              		.cfi_offset 4, -8
 2423              		.cfi_offset 14, -4
 2424 0002 1300     		movs	r3, r2
 621:..\..\..\arduinoLCD\test\Pain Drain\libraries\lvgl\src\core/lv_obj_style_gen.c ****     lv_style_value_t v = {
 622:..\..\..\arduinoLCD\test\Pain Drain\libraries\lvgl\src\core/lv_obj_style_gen.c ****         .ptr = value
 623:..\..\..\arduinoLCD\test\Pain Drain\libraries\lvgl\src\core/lv_obj_style_gen.c ****     };
 624:..\..\..\arduinoLCD\test\Pain Drain\libraries\lvgl\src\core/lv_obj_style_gen.c ****     lv_obj_set_local_style_prop(obj, LV_STYLE_ANIM, v, selector);
 2425              		.loc 1 624 0
 2426 0004 0A00     		movs	r2, r1
 2427              	.LVL299:
 2428 0006 6321     		movs	r1, #99
 2429              	.LVL300:
 2430 0008 FFF7FEFF 		bl	lv_obj_set_local_style_prop
 2431              	.LVL301:
 625:..\..\..\arduinoLCD\test\Pain Drain\libraries\lvgl\src\core/lv_obj_style_gen.c **** }
 2432              		.loc 1 625 0
 2433              		@ sp needed
 2434 000c 10BD     		pop	{r4, pc}
 2435              		.cfi_endproc
 2436              	.LFE236:
 2437              		.size	lv_obj_set_style_anim, .-lv_obj_set_style_anim
 2438 000e C046     		.section	.text.lv_obj_set_style_anim_time,"ax",%progbits
 2439              		.align	2
 2440              		.global	lv_obj_set_style_anim_time
 2441              		.code	16
 2442              		.thumb_func
 2443              		.type	lv_obj_set_style_anim_time, %function
 2444              	lv_obj_set_style_anim_time:
 2445              	.LFB237:
 626:..\..\..\arduinoLCD\test\Pain Drain\libraries\lvgl\src\core/lv_obj_style_gen.c **** 
 627:..\..\..\arduinoLCD\test\Pain Drain\libraries\lvgl\src\core/lv_obj_style_gen.c **** void lv_obj_set_style_anim_time(struct _lv_obj_t * obj, uint32_t value, lv_style_selector_t selecto
 628:..\..\..\arduinoLCD\test\Pain Drain\libraries\lvgl\src\core/lv_obj_style_gen.c **** {
 2446              		.loc 1 628 0
 2447              		.cfi_startproc
 2448              		@ args = 0, pretend = 0, frame = 0
 2449              		@ frame_needed = 0, uses_anonymous_args = 0
 2450              	.LVL302:
ARM GAS  C:\Users\haske\AppData\Local\Temp\cc0eRFVw.s 			page 55


 2451 0000 10B5     		push	{r4, lr}
 2452              		.cfi_def_cfa_offset 8
 2453              		.cfi_offset 4, -8
 2454              		.cfi_offset 14, -4
 2455 0002 1300     		movs	r3, r2
 629:..\..\..\arduinoLCD\test\Pain Drain\libraries\lvgl\src\core/lv_obj_style_gen.c ****     lv_style_value_t v = {
 630:..\..\..\arduinoLCD\test\Pain Drain\libraries\lvgl\src\core/lv_obj_style_gen.c ****         .num = (int32_t)value
 631:..\..\..\arduinoLCD\test\Pain Drain\libraries\lvgl\src\core/lv_obj_style_gen.c ****     };
 632:..\..\..\arduinoLCD\test\Pain Drain\libraries\lvgl\src\core/lv_obj_style_gen.c ****     lv_obj_set_local_style_prop(obj, LV_STYLE_ANIM_TIME, v, selector);
 2456              		.loc 1 632 0
 2457 0004 0A00     		movs	r2, r1
 2458              	.LVL303:
 2459 0006 6421     		movs	r1, #100
 2460              	.LVL304:
 2461 0008 FFF7FEFF 		bl	lv_obj_set_local_style_prop
 2462              	.LVL305:
 633:..\..\..\arduinoLCD\test\Pain Drain\libraries\lvgl\src\core/lv_obj_style_gen.c **** }
 2463              		.loc 1 633 0
 2464              		@ sp needed
 2465 000c 10BD     		pop	{r4, pc}
 2466              		.cfi_endproc
 2467              	.LFE237:
 2468              		.size	lv_obj_set_style_anim_time, .-lv_obj_set_style_anim_time
 2469 000e C046     		.section	.text.lv_obj_set_style_anim_speed,"ax",%progbits
 2470              		.align	2
 2471              		.global	lv_obj_set_style_anim_speed
 2472              		.code	16
 2473              		.thumb_func
 2474              		.type	lv_obj_set_style_anim_speed, %function
 2475              	lv_obj_set_style_anim_speed:
 2476              	.LFB238:
 634:..\..\..\arduinoLCD\test\Pain Drain\libraries\lvgl\src\core/lv_obj_style_gen.c **** 
 635:..\..\..\arduinoLCD\test\Pain Drain\libraries\lvgl\src\core/lv_obj_style_gen.c **** void lv_obj_set_style_anim_speed(struct _lv_obj_t * obj, uint32_t value, lv_style_selector_t select
 636:..\..\..\arduinoLCD\test\Pain Drain\libraries\lvgl\src\core/lv_obj_style_gen.c **** {
 2477              		.loc 1 636 0
 2478              		.cfi_startproc
 2479              		@ args = 0, pretend = 0, frame = 0
 2480              		@ frame_needed = 0, uses_anonymous_args = 0
 2481              	.LVL306:
 2482 0000 10B5     		push	{r4, lr}
 2483              		.cfi_def_cfa_offset 8
 2484              		.cfi_offset 4, -8
 2485              		.cfi_offset 14, -4
 2486 0002 1300     		movs	r3, r2
 637:..\..\..\arduinoLCD\test\Pain Drain\libraries\lvgl\src\core/lv_obj_style_gen.c ****     lv_style_value_t v = {
 638:..\..\..\arduinoLCD\test\Pain Drain\libraries\lvgl\src\core/lv_obj_style_gen.c ****         .num = (int32_t)value
 639:..\..\..\arduinoLCD\test\Pain Drain\libraries\lvgl\src\core/lv_obj_style_gen.c ****     };
 640:..\..\..\arduinoLCD\test\Pain Drain\libraries\lvgl\src\core/lv_obj_style_gen.c ****     lv_obj_set_local_style_prop(obj, LV_STYLE_ANIM_SPEED, v, selector);
 2487              		.loc 1 640 0
 2488 0004 0A00     		movs	r2, r1
 2489              	.LVL307:
 2490 0006 6521     		movs	r1, #101
 2491              	.LVL308:
 2492 0008 FFF7FEFF 		bl	lv_obj_set_local_style_prop
 2493              	.LVL309:
 641:..\..\..\arduinoLCD\test\Pain Drain\libraries\lvgl\src\core/lv_obj_style_gen.c **** }
 2494              		.loc 1 641 0
ARM GAS  C:\Users\haske\AppData\Local\Temp\cc0eRFVw.s 			page 56


 2495              		@ sp needed
 2496 000c 10BD     		pop	{r4, pc}
 2497              		.cfi_endproc
 2498              	.LFE238:
 2499              		.size	lv_obj_set_style_anim_speed, .-lv_obj_set_style_anim_speed
 2500 000e C046     		.section	.text.lv_obj_set_style_transition,"ax",%progbits
 2501              		.align	2
 2502              		.global	lv_obj_set_style_transition
 2503              		.code	16
 2504              		.thumb_func
 2505              		.type	lv_obj_set_style_transition, %function
 2506              	lv_obj_set_style_transition:
 2507              	.LFB239:
 642:..\..\..\arduinoLCD\test\Pain Drain\libraries\lvgl\src\core/lv_obj_style_gen.c **** 
 643:..\..\..\arduinoLCD\test\Pain Drain\libraries\lvgl\src\core/lv_obj_style_gen.c **** void lv_obj_set_style_transition(struct _lv_obj_t * obj, const lv_style_transition_dsc_t * value, l
 644:..\..\..\arduinoLCD\test\Pain Drain\libraries\lvgl\src\core/lv_obj_style_gen.c **** {
 2508              		.loc 1 644 0
 2509              		.cfi_startproc
 2510              		@ args = 0, pretend = 0, frame = 0
 2511              		@ frame_needed = 0, uses_anonymous_args = 0
 2512              	.LVL310:
 2513 0000 10B5     		push	{r4, lr}
 2514              		.cfi_def_cfa_offset 8
 2515              		.cfi_offset 4, -8
 2516              		.cfi_offset 14, -4
 2517 0002 1300     		movs	r3, r2
 645:..\..\..\arduinoLCD\test\Pain Drain\libraries\lvgl\src\core/lv_obj_style_gen.c ****     lv_style_value_t v = {
 646:..\..\..\arduinoLCD\test\Pain Drain\libraries\lvgl\src\core/lv_obj_style_gen.c ****         .ptr = value
 647:..\..\..\arduinoLCD\test\Pain Drain\libraries\lvgl\src\core/lv_obj_style_gen.c ****     };
 648:..\..\..\arduinoLCD\test\Pain Drain\libraries\lvgl\src\core/lv_obj_style_gen.c ****     lv_obj_set_local_style_prop(obj, LV_STYLE_TRANSITION, v, selector);
 2518              		.loc 1 648 0
 2519 0004 0A00     		movs	r2, r1
 2520              	.LVL311:
 2521 0006 6621     		movs	r1, #102
 2522              	.LVL312:
 2523 0008 FFF7FEFF 		bl	lv_obj_set_local_style_prop
 2524              	.LVL313:
 649:..\..\..\arduinoLCD\test\Pain Drain\libraries\lvgl\src\core/lv_obj_style_gen.c **** }
 2525              		.loc 1 649 0
 2526              		@ sp needed
 2527 000c 10BD     		pop	{r4, pc}
 2528              		.cfi_endproc
 2529              	.LFE239:
 2530              		.size	lv_obj_set_style_transition, .-lv_obj_set_style_transition
 2531 000e C046     		.section	.text.lv_obj_set_style_blend_mode,"ax",%progbits
 2532              		.align	2
 2533              		.global	lv_obj_set_style_blend_mode
 2534              		.code	16
 2535              		.thumb_func
 2536              		.type	lv_obj_set_style_blend_mode, %function
 2537              	lv_obj_set_style_blend_mode:
 2538              	.LFB240:
 650:..\..\..\arduinoLCD\test\Pain Drain\libraries\lvgl\src\core/lv_obj_style_gen.c **** 
 651:..\..\..\arduinoLCD\test\Pain Drain\libraries\lvgl\src\core/lv_obj_style_gen.c **** void lv_obj_set_style_blend_mode(struct _lv_obj_t * obj, lv_blend_mode_t value, lv_style_selector_t
 652:..\..\..\arduinoLCD\test\Pain Drain\libraries\lvgl\src\core/lv_obj_style_gen.c **** {
 2539              		.loc 1 652 0
 2540              		.cfi_startproc
ARM GAS  C:\Users\haske\AppData\Local\Temp\cc0eRFVw.s 			page 57


 2541              		@ args = 0, pretend = 0, frame = 0
 2542              		@ frame_needed = 0, uses_anonymous_args = 0
 2543              	.LVL314:
 2544 0000 10B5     		push	{r4, lr}
 2545              		.cfi_def_cfa_offset 8
 2546              		.cfi_offset 4, -8
 2547              		.cfi_offset 14, -4
 2548 0002 1300     		movs	r3, r2
 653:..\..\..\arduinoLCD\test\Pain Drain\libraries\lvgl\src\core/lv_obj_style_gen.c ****     lv_style_value_t v = {
 654:..\..\..\arduinoLCD\test\Pain Drain\libraries\lvgl\src\core/lv_obj_style_gen.c ****         .num = (int32_t)value
 655:..\..\..\arduinoLCD\test\Pain Drain\libraries\lvgl\src\core/lv_obj_style_gen.c ****     };
 656:..\..\..\arduinoLCD\test\Pain Drain\libraries\lvgl\src\core/lv_obj_style_gen.c ****     lv_obj_set_local_style_prop(obj, LV_STYLE_BLEND_MODE, v, selector);
 2549              		.loc 1 656 0
 2550 0004 0A00     		movs	r2, r1
 2551              	.LVL315:
 2552 0006 6721     		movs	r1, #103
 2553              	.LVL316:
 2554 0008 FFF7FEFF 		bl	lv_obj_set_local_style_prop
 2555              	.LVL317:
 657:..\..\..\arduinoLCD\test\Pain Drain\libraries\lvgl\src\core/lv_obj_style_gen.c **** }
 2556              		.loc 1 657 0
 2557              		@ sp needed
 2558 000c 10BD     		pop	{r4, pc}
 2559              		.cfi_endproc
 2560              	.LFE240:
 2561              		.size	lv_obj_set_style_blend_mode, .-lv_obj_set_style_blend_mode
 2562 000e C046     		.section	.text.lv_obj_set_style_layout,"ax",%progbits
 2563              		.align	2
 2564              		.global	lv_obj_set_style_layout
 2565              		.code	16
 2566              		.thumb_func
 2567              		.type	lv_obj_set_style_layout, %function
 2568              	lv_obj_set_style_layout:
 2569              	.LFB241:
 658:..\..\..\arduinoLCD\test\Pain Drain\libraries\lvgl\src\core/lv_obj_style_gen.c **** 
 659:..\..\..\arduinoLCD\test\Pain Drain\libraries\lvgl\src\core/lv_obj_style_gen.c **** void lv_obj_set_style_layout(struct _lv_obj_t * obj, uint16_t value, lv_style_selector_t selector)
 660:..\..\..\arduinoLCD\test\Pain Drain\libraries\lvgl\src\core/lv_obj_style_gen.c **** {
 2570              		.loc 1 660 0
 2571              		.cfi_startproc
 2572              		@ args = 0, pretend = 0, frame = 0
 2573              		@ frame_needed = 0, uses_anonymous_args = 0
 2574              	.LVL318:
 2575 0000 10B5     		push	{r4, lr}
 2576              		.cfi_def_cfa_offset 8
 2577              		.cfi_offset 4, -8
 2578              		.cfi_offset 14, -4
 2579 0002 1300     		movs	r3, r2
 661:..\..\..\arduinoLCD\test\Pain Drain\libraries\lvgl\src\core/lv_obj_style_gen.c ****     lv_style_value_t v = {
 662:..\..\..\arduinoLCD\test\Pain Drain\libraries\lvgl\src\core/lv_obj_style_gen.c ****         .num = (int32_t)value
 663:..\..\..\arduinoLCD\test\Pain Drain\libraries\lvgl\src\core/lv_obj_style_gen.c ****     };
 664:..\..\..\arduinoLCD\test\Pain Drain\libraries\lvgl\src\core/lv_obj_style_gen.c ****     lv_obj_set_local_style_prop(obj, LV_STYLE_LAYOUT, v, selector);
 2580              		.loc 1 664 0
 2581 0004 0A00     		movs	r2, r1
 2582              	.LVL319:
 2583 0006 0A21     		movs	r1, #10
 2584              	.LVL320:
 2585 0008 FFF7FEFF 		bl	lv_obj_set_local_style_prop
ARM GAS  C:\Users\haske\AppData\Local\Temp\cc0eRFVw.s 			page 58


 2586              	.LVL321:
 665:..\..\..\arduinoLCD\test\Pain Drain\libraries\lvgl\src\core/lv_obj_style_gen.c **** }
 2587              		.loc 1 665 0
 2588              		@ sp needed
 2589 000c 10BD     		pop	{r4, pc}
 2590              		.cfi_endproc
 2591              	.LFE241:
 2592              		.size	lv_obj_set_style_layout, .-lv_obj_set_style_layout
 2593 000e C046     		.section	.text.lv_obj_set_style_base_dir,"ax",%progbits
 2594              		.align	2
 2595              		.global	lv_obj_set_style_base_dir
 2596              		.code	16
 2597              		.thumb_func
 2598              		.type	lv_obj_set_style_base_dir, %function
 2599              	lv_obj_set_style_base_dir:
 2600              	.LFB242:
 666:..\..\..\arduinoLCD\test\Pain Drain\libraries\lvgl\src\core/lv_obj_style_gen.c **** 
 667:..\..\..\arduinoLCD\test\Pain Drain\libraries\lvgl\src\core/lv_obj_style_gen.c **** void lv_obj_set_style_base_dir(struct _lv_obj_t * obj, lv_base_dir_t value, lv_style_selector_t sel
 668:..\..\..\arduinoLCD\test\Pain Drain\libraries\lvgl\src\core/lv_obj_style_gen.c **** {
 2601              		.loc 1 668 0
 2602              		.cfi_startproc
 2603              		@ args = 0, pretend = 0, frame = 0
 2604              		@ frame_needed = 0, uses_anonymous_args = 0
 2605              	.LVL322:
 2606 0000 10B5     		push	{r4, lr}
 2607              		.cfi_def_cfa_offset 8
 2608              		.cfi_offset 4, -8
 2609              		.cfi_offset 14, -4
 2610 0002 1300     		movs	r3, r2
 669:..\..\..\arduinoLCD\test\Pain Drain\libraries\lvgl\src\core/lv_obj_style_gen.c ****     lv_style_value_t v = {
 670:..\..\..\arduinoLCD\test\Pain Drain\libraries\lvgl\src\core/lv_obj_style_gen.c ****         .num = (int32_t)value
 671:..\..\..\arduinoLCD\test\Pain Drain\libraries\lvgl\src\core/lv_obj_style_gen.c ****     };
 672:..\..\..\arduinoLCD\test\Pain Drain\libraries\lvgl\src\core/lv_obj_style_gen.c ****     lv_obj_set_local_style_prop(obj, LV_STYLE_BASE_DIR, v, selector);
 2611              		.loc 1 672 0
 2612 0004 0A00     		movs	r2, r1
 2613              	.LVL323:
 2614 0006 1621     		movs	r1, #22
 2615              	.LVL324:
 2616 0008 FFF7FEFF 		bl	lv_obj_set_local_style_prop
 2617              	.LVL325:
 673:..\..\..\arduinoLCD\test\Pain Drain\libraries\lvgl\src\core/lv_obj_style_gen.c **** }
 2618              		.loc 1 673 0
 2619              		@ sp needed
 2620 000c 10BD     		pop	{r4, pc}
 2621              		.cfi_endproc
 2622              	.LFE242:
 2623              		.size	lv_obj_set_style_base_dir, .-lv_obj_set_style_base_dir
 2624 000e C046     		.text
 2625              	.Letext0:
 2626              		.file 2 "c:\\program files (x86)\\cypress\\psoc creator\\4.4\\psoc creator\\import\\gnu\\arm\\5.4.
 2627              		.file 3 "c:\\program files (x86)\\cypress\\psoc creator\\4.4\\psoc creator\\import\\gnu\\arm\\5.4.
 2628              		.file 4 "c:\\projects\\paindrain\\arduinolcd\\test\\pain drain\\libraries\\lvgl\\src\\misc\\lv_are
 2629              		.file 5 "c:\\projects\\paindrain\\arduinolcd\\test\\pain drain\\libraries\\lvgl\\src\\font\\lv_fon
 2630              		.file 6 "..\\..\\..\\arduinoLCD\\test\\Pain Drain\\libraries\\lvgl\\src\\core\\../misc/lv_color.h"
 2631              		.file 7 "..\\..\\..\\arduinoLCD\\test\\Pain Drain\\libraries\\lvgl\\src\\core\\../misc/lv_anim.h"
 2632              		.file 8 "..\\..\\..\\arduinoLCD\\test\\Pain Drain\\libraries\\lvgl\\src\\core\\../misc/lv_txt.h"
 2633              		.file 9 "..\\..\\..\\arduinoLCD\\test\\Pain Drain\\libraries\\lvgl\\src\\core\\../misc/lv_bidi.h"
ARM GAS  C:\Users\haske\AppData\Local\Temp\cc0eRFVw.s 			page 59


 2634              		.file 10 "..\\..\\..\\arduinoLCD\\test\\Pain Drain\\libraries\\lvgl\\src\\core\\../misc/lv_style.h
 2635              		.file 11 "..\\..\\..\\arduinoLCD\\test\\Pain Drain\\libraries\\lvgl\\src\\core\\lv_obj.h"
 2636              		.file 12 "c:\\projects\\paindrain\\arduinolcd\\test\\pain drain\\libraries\\lvgl\\src\\misc\\lv_ll
 2637              		.file 13 "..\\..\\..\\arduinoLCD\\test\\Pain Drain\\libraries\\lvgl\\src\\core\\lv_group.h"
 2638              		.file 14 "..\\..\\..\\arduinoLCD\\test\\Pain Drain\\libraries\\lvgl\\src\\core\\lv_obj_scroll.h"
 2639              		.file 15 "..\\..\\..\\arduinoLCD\\test\\Pain Drain\\libraries\\lvgl\\src\\core\\lv_obj_style.h"
 2640              		.file 16 "..\\..\\..\\arduinoLCD\\test\\Pain Drain\\libraries\\lvgl\\src\\core\\lv_obj_class.h"
 2641              		.file 17 "..\\..\\..\\arduinoLCD\\test\\Pain Drain\\libraries\\lvgl\\src\\core\\lv_event.h"