ARM GAS  C:\Users\haske\AppData\Local\Temp\ccU9uRZG.s 			page 1


   1              		.syntax unified
   2              		.cpu cortex-m0plus
   3              		.fpu softvfp
   4              		.eabi_attribute 20, 1
   5              		.eabi_attribute 21, 1
   6              		.eabi_attribute 23, 3
   7              		.eabi_attribute 24, 1
   8              		.eabi_attribute 25, 1
   9              		.eabi_attribute 26, 1
  10              		.eabi_attribute 30, 1
  11              		.eabi_attribute 34, 0
  12              		.eabi_attribute 18, 4
  13              		.thumb
  14              		.syntax unified
  15              		.file	"lv_obj_tree.c"
  16              		.text
  17              	.Ltext0:
  18              		.cfi_sections	.debug_frame
  19              		.section	.text.lv_obj_del_delayed,"ax",%progbits
  20              		.align	2
  21              		.global	lv_obj_del_delayed
  22              		.code	16
  23              		.thumb_func
  24              		.type	lv_obj_del_delayed, %function
  25              	lv_obj_del_delayed:
  26              	.LFB161:
  27              		.file 1 "..\\..\\..\\arduinoLCD\\test\\Pain Drain\\libraries\\lvgl\\src\\core\\lv_obj_tree.c"
   1:..\..\..\arduinoLCD\test\Pain Drain\libraries\lvgl\src\core/lv_obj_tree.c **** /**
   2:..\..\..\arduinoLCD\test\Pain Drain\libraries\lvgl\src\core/lv_obj_tree.c ****  * @file lv_obj_tree.c
   3:..\..\..\arduinoLCD\test\Pain Drain\libraries\lvgl\src\core/lv_obj_tree.c ****  *
   4:..\..\..\arduinoLCD\test\Pain Drain\libraries\lvgl\src\core/lv_obj_tree.c ****  */
   5:..\..\..\arduinoLCD\test\Pain Drain\libraries\lvgl\src\core/lv_obj_tree.c **** 
   6:..\..\..\arduinoLCD\test\Pain Drain\libraries\lvgl\src\core/lv_obj_tree.c **** /*********************
   7:..\..\..\arduinoLCD\test\Pain Drain\libraries\lvgl\src\core/lv_obj_tree.c ****  *      INCLUDES
   8:..\..\..\arduinoLCD\test\Pain Drain\libraries\lvgl\src\core/lv_obj_tree.c ****  *********************/
   9:..\..\..\arduinoLCD\test\Pain Drain\libraries\lvgl\src\core/lv_obj_tree.c **** #include <stdlib.h>
  10:..\..\..\arduinoLCD\test\Pain Drain\libraries\lvgl\src\core/lv_obj_tree.c **** 
  11:..\..\..\arduinoLCD\test\Pain Drain\libraries\lvgl\src\core/lv_obj_tree.c **** #include "lv_obj.h"
  12:..\..\..\arduinoLCD\test\Pain Drain\libraries\lvgl\src\core/lv_obj_tree.c **** #include "lv_indev.h"
  13:..\..\..\arduinoLCD\test\Pain Drain\libraries\lvgl\src\core/lv_obj_tree.c **** #include "../misc/lv_anim.h"
  14:..\..\..\arduinoLCD\test\Pain Drain\libraries\lvgl\src\core/lv_obj_tree.c **** #include "../misc/lv_gc.h"
  15:..\..\..\arduinoLCD\test\Pain Drain\libraries\lvgl\src\core/lv_obj_tree.c **** #include "../misc/lv_async.h"
  16:..\..\..\arduinoLCD\test\Pain Drain\libraries\lvgl\src\core/lv_obj_tree.c **** 
  17:..\..\..\arduinoLCD\test\Pain Drain\libraries\lvgl\src\core/lv_obj_tree.c **** /*********************
  18:..\..\..\arduinoLCD\test\Pain Drain\libraries\lvgl\src\core/lv_obj_tree.c ****  *      DEFINES
  19:..\..\..\arduinoLCD\test\Pain Drain\libraries\lvgl\src\core/lv_obj_tree.c ****  *********************/
  20:..\..\..\arduinoLCD\test\Pain Drain\libraries\lvgl\src\core/lv_obj_tree.c **** #define MY_CLASS &lv_obj_class
  21:..\..\..\arduinoLCD\test\Pain Drain\libraries\lvgl\src\core/lv_obj_tree.c **** 
  22:..\..\..\arduinoLCD\test\Pain Drain\libraries\lvgl\src\core/lv_obj_tree.c **** /**********************
  23:..\..\..\arduinoLCD\test\Pain Drain\libraries\lvgl\src\core/lv_obj_tree.c ****  *      TYPEDEFS
  24:..\..\..\arduinoLCD\test\Pain Drain\libraries\lvgl\src\core/lv_obj_tree.c ****  **********************/
  25:..\..\..\arduinoLCD\test\Pain Drain\libraries\lvgl\src\core/lv_obj_tree.c **** 
  26:..\..\..\arduinoLCD\test\Pain Drain\libraries\lvgl\src\core/lv_obj_tree.c **** /**********************
  27:..\..\..\arduinoLCD\test\Pain Drain\libraries\lvgl\src\core/lv_obj_tree.c ****  *  STATIC PROTOTYPES
  28:..\..\..\arduinoLCD\test\Pain Drain\libraries\lvgl\src\core/lv_obj_tree.c ****  **********************/
  29:..\..\..\arduinoLCD\test\Pain Drain\libraries\lvgl\src\core/lv_obj_tree.c **** static void lv_obj_del_async_cb(void * obj);
  30:..\..\..\arduinoLCD\test\Pain Drain\libraries\lvgl\src\core/lv_obj_tree.c **** static void obj_del_core(lv_obj_t * obj);
ARM GAS  C:\Users\haske\AppData\Local\Temp\ccU9uRZG.s 			page 2


  31:..\..\..\arduinoLCD\test\Pain Drain\libraries\lvgl\src\core/lv_obj_tree.c **** static lv_obj_tree_walk_res_t walk_core(lv_obj_t * obj, lv_obj_tree_walk_cb_t cb, void * user_data)
  32:..\..\..\arduinoLCD\test\Pain Drain\libraries\lvgl\src\core/lv_obj_tree.c **** 
  33:..\..\..\arduinoLCD\test\Pain Drain\libraries\lvgl\src\core/lv_obj_tree.c **** /**********************
  34:..\..\..\arduinoLCD\test\Pain Drain\libraries\lvgl\src\core/lv_obj_tree.c ****  *  STATIC VARIABLES
  35:..\..\..\arduinoLCD\test\Pain Drain\libraries\lvgl\src\core/lv_obj_tree.c ****  **********************/
  36:..\..\..\arduinoLCD\test\Pain Drain\libraries\lvgl\src\core/lv_obj_tree.c **** 
  37:..\..\..\arduinoLCD\test\Pain Drain\libraries\lvgl\src\core/lv_obj_tree.c **** /**********************
  38:..\..\..\arduinoLCD\test\Pain Drain\libraries\lvgl\src\core/lv_obj_tree.c ****  *      MACROS
  39:..\..\..\arduinoLCD\test\Pain Drain\libraries\lvgl\src\core/lv_obj_tree.c ****  **********************/
  40:..\..\..\arduinoLCD\test\Pain Drain\libraries\lvgl\src\core/lv_obj_tree.c **** 
  41:..\..\..\arduinoLCD\test\Pain Drain\libraries\lvgl\src\core/lv_obj_tree.c **** /**********************
  42:..\..\..\arduinoLCD\test\Pain Drain\libraries\lvgl\src\core/lv_obj_tree.c ****  *   GLOBAL FUNCTIONS
  43:..\..\..\arduinoLCD\test\Pain Drain\libraries\lvgl\src\core/lv_obj_tree.c ****  **********************/
  44:..\..\..\arduinoLCD\test\Pain Drain\libraries\lvgl\src\core/lv_obj_tree.c **** 
  45:..\..\..\arduinoLCD\test\Pain Drain\libraries\lvgl\src\core/lv_obj_tree.c **** void lv_obj_del(lv_obj_t * obj)
  46:..\..\..\arduinoLCD\test\Pain Drain\libraries\lvgl\src\core/lv_obj_tree.c **** {
  47:..\..\..\arduinoLCD\test\Pain Drain\libraries\lvgl\src\core/lv_obj_tree.c ****     LV_LOG_TRACE("begin (delete %p)", (void *)obj);
  48:..\..\..\arduinoLCD\test\Pain Drain\libraries\lvgl\src\core/lv_obj_tree.c ****     LV_ASSERT_OBJ(obj, MY_CLASS);
  49:..\..\..\arduinoLCD\test\Pain Drain\libraries\lvgl\src\core/lv_obj_tree.c ****     lv_obj_invalidate(obj);
  50:..\..\..\arduinoLCD\test\Pain Drain\libraries\lvgl\src\core/lv_obj_tree.c **** 
  51:..\..\..\arduinoLCD\test\Pain Drain\libraries\lvgl\src\core/lv_obj_tree.c ****     lv_obj_t * par = lv_obj_get_parent(obj);
  52:..\..\..\arduinoLCD\test\Pain Drain\libraries\lvgl\src\core/lv_obj_tree.c ****     if(par) {
  53:..\..\..\arduinoLCD\test\Pain Drain\libraries\lvgl\src\core/lv_obj_tree.c ****         lv_obj_scrollbar_invalidate(par);
  54:..\..\..\arduinoLCD\test\Pain Drain\libraries\lvgl\src\core/lv_obj_tree.c ****     }
  55:..\..\..\arduinoLCD\test\Pain Drain\libraries\lvgl\src\core/lv_obj_tree.c **** 
  56:..\..\..\arduinoLCD\test\Pain Drain\libraries\lvgl\src\core/lv_obj_tree.c ****     lv_disp_t * disp = NULL;
  57:..\..\..\arduinoLCD\test\Pain Drain\libraries\lvgl\src\core/lv_obj_tree.c ****     bool act_scr_del = false;
  58:..\..\..\arduinoLCD\test\Pain Drain\libraries\lvgl\src\core/lv_obj_tree.c ****     if(par == NULL) {
  59:..\..\..\arduinoLCD\test\Pain Drain\libraries\lvgl\src\core/lv_obj_tree.c ****         disp = lv_obj_get_disp(obj);
  60:..\..\..\arduinoLCD\test\Pain Drain\libraries\lvgl\src\core/lv_obj_tree.c ****         if(!disp) return;   /*Shouldn't happen*/
  61:..\..\..\arduinoLCD\test\Pain Drain\libraries\lvgl\src\core/lv_obj_tree.c ****         if(disp->act_scr == obj) act_scr_del = true;
  62:..\..\..\arduinoLCD\test\Pain Drain\libraries\lvgl\src\core/lv_obj_tree.c ****     }
  63:..\..\..\arduinoLCD\test\Pain Drain\libraries\lvgl\src\core/lv_obj_tree.c **** 
  64:..\..\..\arduinoLCD\test\Pain Drain\libraries\lvgl\src\core/lv_obj_tree.c ****     obj_del_core(obj);
  65:..\..\..\arduinoLCD\test\Pain Drain\libraries\lvgl\src\core/lv_obj_tree.c **** 
  66:..\..\..\arduinoLCD\test\Pain Drain\libraries\lvgl\src\core/lv_obj_tree.c ****     /*Call the ancestor's event handler to the parent to notify it about the child delete*/
  67:..\..\..\arduinoLCD\test\Pain Drain\libraries\lvgl\src\core/lv_obj_tree.c ****     if(par) {
  68:..\..\..\arduinoLCD\test\Pain Drain\libraries\lvgl\src\core/lv_obj_tree.c ****         lv_obj_update_layout(par);
  69:..\..\..\arduinoLCD\test\Pain Drain\libraries\lvgl\src\core/lv_obj_tree.c ****         lv_obj_readjust_scroll(par, LV_ANIM_OFF);
  70:..\..\..\arduinoLCD\test\Pain Drain\libraries\lvgl\src\core/lv_obj_tree.c ****         lv_obj_scrollbar_invalidate(par);
  71:..\..\..\arduinoLCD\test\Pain Drain\libraries\lvgl\src\core/lv_obj_tree.c ****         lv_event_send(par, LV_EVENT_CHILD_CHANGED, NULL);
  72:..\..\..\arduinoLCD\test\Pain Drain\libraries\lvgl\src\core/lv_obj_tree.c ****         lv_event_send(par, LV_EVENT_CHILD_DELETED, NULL);
  73:..\..\..\arduinoLCD\test\Pain Drain\libraries\lvgl\src\core/lv_obj_tree.c ****     }
  74:..\..\..\arduinoLCD\test\Pain Drain\libraries\lvgl\src\core/lv_obj_tree.c **** 
  75:..\..\..\arduinoLCD\test\Pain Drain\libraries\lvgl\src\core/lv_obj_tree.c ****     /*Handle if the active screen was deleted*/
  76:..\..\..\arduinoLCD\test\Pain Drain\libraries\lvgl\src\core/lv_obj_tree.c ****     if(act_scr_del) {
  77:..\..\..\arduinoLCD\test\Pain Drain\libraries\lvgl\src\core/lv_obj_tree.c ****         LV_LOG_WARN("the active screen was deleted");
  78:..\..\..\arduinoLCD\test\Pain Drain\libraries\lvgl\src\core/lv_obj_tree.c ****         disp->act_scr = NULL;
  79:..\..\..\arduinoLCD\test\Pain Drain\libraries\lvgl\src\core/lv_obj_tree.c ****     }
  80:..\..\..\arduinoLCD\test\Pain Drain\libraries\lvgl\src\core/lv_obj_tree.c **** 
  81:..\..\..\arduinoLCD\test\Pain Drain\libraries\lvgl\src\core/lv_obj_tree.c ****     LV_ASSERT_MEM_INTEGRITY();
  82:..\..\..\arduinoLCD\test\Pain Drain\libraries\lvgl\src\core/lv_obj_tree.c ****     LV_LOG_TRACE("finished (delete %p)", (void *)obj);
  83:..\..\..\arduinoLCD\test\Pain Drain\libraries\lvgl\src\core/lv_obj_tree.c **** }
  84:..\..\..\arduinoLCD\test\Pain Drain\libraries\lvgl\src\core/lv_obj_tree.c **** 
  85:..\..\..\arduinoLCD\test\Pain Drain\libraries\lvgl\src\core/lv_obj_tree.c **** void lv_obj_clean(lv_obj_t * obj)
  86:..\..\..\arduinoLCD\test\Pain Drain\libraries\lvgl\src\core/lv_obj_tree.c **** {
  87:..\..\..\arduinoLCD\test\Pain Drain\libraries\lvgl\src\core/lv_obj_tree.c ****     LV_LOG_TRACE("begin (delete %p)", (void *)obj);
ARM GAS  C:\Users\haske\AppData\Local\Temp\ccU9uRZG.s 			page 3


  88:..\..\..\arduinoLCD\test\Pain Drain\libraries\lvgl\src\core/lv_obj_tree.c ****     LV_ASSERT_OBJ(obj, MY_CLASS);
  89:..\..\..\arduinoLCD\test\Pain Drain\libraries\lvgl\src\core/lv_obj_tree.c **** 
  90:..\..\..\arduinoLCD\test\Pain Drain\libraries\lvgl\src\core/lv_obj_tree.c ****     lv_obj_invalidate(obj);
  91:..\..\..\arduinoLCD\test\Pain Drain\libraries\lvgl\src\core/lv_obj_tree.c **** 
  92:..\..\..\arduinoLCD\test\Pain Drain\libraries\lvgl\src\core/lv_obj_tree.c ****     lv_obj_t * child = lv_obj_get_child(obj, 0);
  93:..\..\..\arduinoLCD\test\Pain Drain\libraries\lvgl\src\core/lv_obj_tree.c ****     while(child) {
  94:..\..\..\arduinoLCD\test\Pain Drain\libraries\lvgl\src\core/lv_obj_tree.c ****         obj_del_core(child);
  95:..\..\..\arduinoLCD\test\Pain Drain\libraries\lvgl\src\core/lv_obj_tree.c ****         child = lv_obj_get_child(obj, 0);
  96:..\..\..\arduinoLCD\test\Pain Drain\libraries\lvgl\src\core/lv_obj_tree.c ****     }
  97:..\..\..\arduinoLCD\test\Pain Drain\libraries\lvgl\src\core/lv_obj_tree.c ****     /*Just to remove scroll animations if any*/
  98:..\..\..\arduinoLCD\test\Pain Drain\libraries\lvgl\src\core/lv_obj_tree.c ****     lv_obj_scroll_to(obj, 0, 0, LV_ANIM_OFF);
  99:..\..\..\arduinoLCD\test\Pain Drain\libraries\lvgl\src\core/lv_obj_tree.c ****     if(obj->spec_attr) {
 100:..\..\..\arduinoLCD\test\Pain Drain\libraries\lvgl\src\core/lv_obj_tree.c ****         obj->spec_attr->scroll.x = 0;
 101:..\..\..\arduinoLCD\test\Pain Drain\libraries\lvgl\src\core/lv_obj_tree.c ****         obj->spec_attr->scroll.y = 0;
 102:..\..\..\arduinoLCD\test\Pain Drain\libraries\lvgl\src\core/lv_obj_tree.c ****     }
 103:..\..\..\arduinoLCD\test\Pain Drain\libraries\lvgl\src\core/lv_obj_tree.c **** 
 104:..\..\..\arduinoLCD\test\Pain Drain\libraries\lvgl\src\core/lv_obj_tree.c ****     LV_ASSERT_MEM_INTEGRITY();
 105:..\..\..\arduinoLCD\test\Pain Drain\libraries\lvgl\src\core/lv_obj_tree.c **** 
 106:..\..\..\arduinoLCD\test\Pain Drain\libraries\lvgl\src\core/lv_obj_tree.c ****     LV_LOG_TRACE("finished (delete %p)", (void *)obj);
 107:..\..\..\arduinoLCD\test\Pain Drain\libraries\lvgl\src\core/lv_obj_tree.c **** }
 108:..\..\..\arduinoLCD\test\Pain Drain\libraries\lvgl\src\core/lv_obj_tree.c **** 
 109:..\..\..\arduinoLCD\test\Pain Drain\libraries\lvgl\src\core/lv_obj_tree.c **** void lv_obj_del_delayed(lv_obj_t * obj, uint32_t delay_ms)
 110:..\..\..\arduinoLCD\test\Pain Drain\libraries\lvgl\src\core/lv_obj_tree.c **** {
  28              		.loc 1 110 0
  29              		.cfi_startproc
  30              		@ args = 0, pretend = 0, frame = 72
  31              		@ frame_needed = 0, uses_anonymous_args = 0
  32              	.LVL0:
  33 0000 30B5     		push	{r4, r5, lr}
  34              		.cfi_def_cfa_offset 12
  35              		.cfi_offset 4, -12
  36              		.cfi_offset 5, -8
  37              		.cfi_offset 14, -4
  38 0002 93B0     		sub	sp, sp, #76
  39              		.cfi_def_cfa_offset 88
  40 0004 0500     		movs	r5, r0
  41 0006 0C00     		movs	r4, r1
 111:..\..\..\arduinoLCD\test\Pain Drain\libraries\lvgl\src\core/lv_obj_tree.c ****     lv_anim_t a;
 112:..\..\..\arduinoLCD\test\Pain Drain\libraries\lvgl\src\core/lv_obj_tree.c ****     lv_anim_init(&a);
  42              		.loc 1 112 0
  43 0008 01A8     		add	r0, sp, #4
  44              	.LVL1:
  45 000a FFF7FEFF 		bl	lv_anim_init
  46              	.LVL2:
  47              	.LBB12:
  48              	.LBB13:
  49              		.file 2 "..\\..\\..\\arduinoLCD\\test\\Pain Drain\\libraries\\lvgl\\src\\core\\../misc/lv_anim.h"
   1:..\..\..\arduinoLCD\test\Pain Drain\libraries\lvgl\src\core\../misc/lv_anim.h **** /**
   2:..\..\..\arduinoLCD\test\Pain Drain\libraries\lvgl\src\core\../misc/lv_anim.h ****  * @file lv_anim.h
   3:..\..\..\arduinoLCD\test\Pain Drain\libraries\lvgl\src\core\../misc/lv_anim.h ****  *
   4:..\..\..\arduinoLCD\test\Pain Drain\libraries\lvgl\src\core\../misc/lv_anim.h ****  */
   5:..\..\..\arduinoLCD\test\Pain Drain\libraries\lvgl\src\core\../misc/lv_anim.h **** 
   6:..\..\..\arduinoLCD\test\Pain Drain\libraries\lvgl\src\core\../misc/lv_anim.h **** #ifndef LV_ANIM_H
   7:..\..\..\arduinoLCD\test\Pain Drain\libraries\lvgl\src\core\../misc/lv_anim.h **** #define LV_ANIM_H
   8:..\..\..\arduinoLCD\test\Pain Drain\libraries\lvgl\src\core\../misc/lv_anim.h **** 
   9:..\..\..\arduinoLCD\test\Pain Drain\libraries\lvgl\src\core\../misc/lv_anim.h **** #ifdef __cplusplus
  10:..\..\..\arduinoLCD\test\Pain Drain\libraries\lvgl\src\core\../misc/lv_anim.h **** extern "C" {
ARM GAS  C:\Users\haske\AppData\Local\Temp\ccU9uRZG.s 			page 4


  11:..\..\..\arduinoLCD\test\Pain Drain\libraries\lvgl\src\core\../misc/lv_anim.h **** #endif
  12:..\..\..\arduinoLCD\test\Pain Drain\libraries\lvgl\src\core\../misc/lv_anim.h **** 
  13:..\..\..\arduinoLCD\test\Pain Drain\libraries\lvgl\src\core\../misc/lv_anim.h **** /*********************
  14:..\..\..\arduinoLCD\test\Pain Drain\libraries\lvgl\src\core\../misc/lv_anim.h ****  *      INCLUDES
  15:..\..\..\arduinoLCD\test\Pain Drain\libraries\lvgl\src\core\../misc/lv_anim.h ****  *********************/
  16:..\..\..\arduinoLCD\test\Pain Drain\libraries\lvgl\src\core\../misc/lv_anim.h **** #include "../lv_conf_internal.h"
  17:..\..\..\arduinoLCD\test\Pain Drain\libraries\lvgl\src\core\../misc/lv_anim.h **** 
  18:..\..\..\arduinoLCD\test\Pain Drain\libraries\lvgl\src\core\../misc/lv_anim.h **** #include <stdint.h>
  19:..\..\..\arduinoLCD\test\Pain Drain\libraries\lvgl\src\core\../misc/lv_anim.h **** #include <stdbool.h>
  20:..\..\..\arduinoLCD\test\Pain Drain\libraries\lvgl\src\core\../misc/lv_anim.h **** #include <stddef.h>
  21:..\..\..\arduinoLCD\test\Pain Drain\libraries\lvgl\src\core\../misc/lv_anim.h **** 
  22:..\..\..\arduinoLCD\test\Pain Drain\libraries\lvgl\src\core\../misc/lv_anim.h **** /*********************
  23:..\..\..\arduinoLCD\test\Pain Drain\libraries\lvgl\src\core\../misc/lv_anim.h ****  *      DEFINES
  24:..\..\..\arduinoLCD\test\Pain Drain\libraries\lvgl\src\core\../misc/lv_anim.h ****  *********************/
  25:..\..\..\arduinoLCD\test\Pain Drain\libraries\lvgl\src\core\../misc/lv_anim.h **** 
  26:..\..\..\arduinoLCD\test\Pain Drain\libraries\lvgl\src\core\../misc/lv_anim.h **** #define LV_ANIM_REPEAT_INFINITE      0xFFFF
  27:..\..\..\arduinoLCD\test\Pain Drain\libraries\lvgl\src\core\../misc/lv_anim.h **** #define LV_ANIM_PLAYTIME_INFINITE    0xFFFFFFFF
  28:..\..\..\arduinoLCD\test\Pain Drain\libraries\lvgl\src\core\../misc/lv_anim.h **** 
  29:..\..\..\arduinoLCD\test\Pain Drain\libraries\lvgl\src\core\../misc/lv_anim.h **** LV_EXPORT_CONST_INT(LV_ANIM_REPEAT_INFINITE);
  30:..\..\..\arduinoLCD\test\Pain Drain\libraries\lvgl\src\core\../misc/lv_anim.h **** LV_EXPORT_CONST_INT(LV_ANIM_PLAYTIME_INFINITE);
  31:..\..\..\arduinoLCD\test\Pain Drain\libraries\lvgl\src\core\../misc/lv_anim.h **** 
  32:..\..\..\arduinoLCD\test\Pain Drain\libraries\lvgl\src\core\../misc/lv_anim.h **** /**********************
  33:..\..\..\arduinoLCD\test\Pain Drain\libraries\lvgl\src\core\../misc/lv_anim.h ****  *      TYPEDEFS
  34:..\..\..\arduinoLCD\test\Pain Drain\libraries\lvgl\src\core\../misc/lv_anim.h ****  **********************/
  35:..\..\..\arduinoLCD\test\Pain Drain\libraries\lvgl\src\core\../misc/lv_anim.h **** 
  36:..\..\..\arduinoLCD\test\Pain Drain\libraries\lvgl\src\core\../misc/lv_anim.h **** /** Can be used to indicate if animations are enabled or disabled in a case*/
  37:..\..\..\arduinoLCD\test\Pain Drain\libraries\lvgl\src\core\../misc/lv_anim.h **** typedef enum {
  38:..\..\..\arduinoLCD\test\Pain Drain\libraries\lvgl\src\core\../misc/lv_anim.h ****     LV_ANIM_OFF,
  39:..\..\..\arduinoLCD\test\Pain Drain\libraries\lvgl\src\core\../misc/lv_anim.h ****     LV_ANIM_ON,
  40:..\..\..\arduinoLCD\test\Pain Drain\libraries\lvgl\src\core\../misc/lv_anim.h **** } lv_anim_enable_t;
  41:..\..\..\arduinoLCD\test\Pain Drain\libraries\lvgl\src\core\../misc/lv_anim.h **** 
  42:..\..\..\arduinoLCD\test\Pain Drain\libraries\lvgl\src\core\../misc/lv_anim.h **** struct _lv_anim_t;
  43:..\..\..\arduinoLCD\test\Pain Drain\libraries\lvgl\src\core\../misc/lv_anim.h **** struct _lv_timer_t;
  44:..\..\..\arduinoLCD\test\Pain Drain\libraries\lvgl\src\core\../misc/lv_anim.h **** 
  45:..\..\..\arduinoLCD\test\Pain Drain\libraries\lvgl\src\core\../misc/lv_anim.h **** /** Get the current value during an animation*/
  46:..\..\..\arduinoLCD\test\Pain Drain\libraries\lvgl\src\core\../misc/lv_anim.h **** typedef int32_t (*lv_anim_path_cb_t)(const struct _lv_anim_t *);
  47:..\..\..\arduinoLCD\test\Pain Drain\libraries\lvgl\src\core\../misc/lv_anim.h **** 
  48:..\..\..\arduinoLCD\test\Pain Drain\libraries\lvgl\src\core\../misc/lv_anim.h **** /** Generic prototype of "animator" functions.
  49:..\..\..\arduinoLCD\test\Pain Drain\libraries\lvgl\src\core\../misc/lv_anim.h ****  * First parameter is the variable to animate.
  50:..\..\..\arduinoLCD\test\Pain Drain\libraries\lvgl\src\core\../misc/lv_anim.h ****  * Second parameter is the value to set.
  51:..\..\..\arduinoLCD\test\Pain Drain\libraries\lvgl\src\core\../misc/lv_anim.h ****  * Compatible with `lv_xxx_set_yyy(obj, value)` functions
  52:..\..\..\arduinoLCD\test\Pain Drain\libraries\lvgl\src\core\../misc/lv_anim.h ****  * The `x` in `_xcb_t` means it's not a fully generic prototype because
  53:..\..\..\arduinoLCD\test\Pain Drain\libraries\lvgl\src\core\../misc/lv_anim.h ****  * it doesn't receive `lv_anim_t *` as its first argument*/
  54:..\..\..\arduinoLCD\test\Pain Drain\libraries\lvgl\src\core\../misc/lv_anim.h **** typedef void (*lv_anim_exec_xcb_t)(void *, int32_t);
  55:..\..\..\arduinoLCD\test\Pain Drain\libraries\lvgl\src\core\../misc/lv_anim.h **** 
  56:..\..\..\arduinoLCD\test\Pain Drain\libraries\lvgl\src\core\../misc/lv_anim.h **** /** Same as `lv_anim_exec_xcb_t` but receives `lv_anim_t *` as the first parameter.
  57:..\..\..\arduinoLCD\test\Pain Drain\libraries\lvgl\src\core\../misc/lv_anim.h ****  * It's more consistent but less convenient. Might be used by binding generator functions.*/
  58:..\..\..\arduinoLCD\test\Pain Drain\libraries\lvgl\src\core\../misc/lv_anim.h **** typedef void (*lv_anim_custom_exec_cb_t)(struct _lv_anim_t *, int32_t);
  59:..\..\..\arduinoLCD\test\Pain Drain\libraries\lvgl\src\core\../misc/lv_anim.h **** 
  60:..\..\..\arduinoLCD\test\Pain Drain\libraries\lvgl\src\core\../misc/lv_anim.h **** /** Callback to call when the animation is ready*/
  61:..\..\..\arduinoLCD\test\Pain Drain\libraries\lvgl\src\core\../misc/lv_anim.h **** typedef void (*lv_anim_ready_cb_t)(struct _lv_anim_t *);
  62:..\..\..\arduinoLCD\test\Pain Drain\libraries\lvgl\src\core\../misc/lv_anim.h **** 
  63:..\..\..\arduinoLCD\test\Pain Drain\libraries\lvgl\src\core\../misc/lv_anim.h **** /** Callback to call when the animation really stars (considering `delay`)*/
  64:..\..\..\arduinoLCD\test\Pain Drain\libraries\lvgl\src\core\../misc/lv_anim.h **** typedef void (*lv_anim_start_cb_t)(struct _lv_anim_t *);
  65:..\..\..\arduinoLCD\test\Pain Drain\libraries\lvgl\src\core\../misc/lv_anim.h **** 
  66:..\..\..\arduinoLCD\test\Pain Drain\libraries\lvgl\src\core\../misc/lv_anim.h **** /** Callback used when the animation values are relative to get the current value*/
  67:..\..\..\arduinoLCD\test\Pain Drain\libraries\lvgl\src\core\../misc/lv_anim.h **** typedef int32_t (*lv_anim_get_value_cb_t)(struct _lv_anim_t *);
ARM GAS  C:\Users\haske\AppData\Local\Temp\ccU9uRZG.s 			page 5


  68:..\..\..\arduinoLCD\test\Pain Drain\libraries\lvgl\src\core\../misc/lv_anim.h **** 
  69:..\..\..\arduinoLCD\test\Pain Drain\libraries\lvgl\src\core\../misc/lv_anim.h **** /** Callback used when the animation is deleted*/
  70:..\..\..\arduinoLCD\test\Pain Drain\libraries\lvgl\src\core\../misc/lv_anim.h **** typedef void (*lv_anim_deleted_cb_t)(struct _lv_anim_t *);
  71:..\..\..\arduinoLCD\test\Pain Drain\libraries\lvgl\src\core\../misc/lv_anim.h **** 
  72:..\..\..\arduinoLCD\test\Pain Drain\libraries\lvgl\src\core\../misc/lv_anim.h **** /** Describes an animation*/
  73:..\..\..\arduinoLCD\test\Pain Drain\libraries\lvgl\src\core\../misc/lv_anim.h **** typedef struct _lv_anim_t {
  74:..\..\..\arduinoLCD\test\Pain Drain\libraries\lvgl\src\core\../misc/lv_anim.h ****     void * var;                          /**<Variable to animate*/
  75:..\..\..\arduinoLCD\test\Pain Drain\libraries\lvgl\src\core\../misc/lv_anim.h ****     lv_anim_exec_xcb_t exec_cb;          /**< Function to execute to animate*/
  76:..\..\..\arduinoLCD\test\Pain Drain\libraries\lvgl\src\core\../misc/lv_anim.h ****     lv_anim_start_cb_t start_cb;         /**< Call it when the animation is starts (considering `de
  77:..\..\..\arduinoLCD\test\Pain Drain\libraries\lvgl\src\core\../misc/lv_anim.h ****     lv_anim_ready_cb_t ready_cb;         /**< Call it when the animation is ready*/
  78:..\..\..\arduinoLCD\test\Pain Drain\libraries\lvgl\src\core\../misc/lv_anim.h ****     lv_anim_deleted_cb_t deleted_cb;     /**< Call it when the animation is deleted*/
  79:..\..\..\arduinoLCD\test\Pain Drain\libraries\lvgl\src\core\../misc/lv_anim.h ****     lv_anim_get_value_cb_t get_value_cb; /**< Get the current value in relative mode*/
  80:..\..\..\arduinoLCD\test\Pain Drain\libraries\lvgl\src\core\../misc/lv_anim.h **** #if LV_USE_USER_DATA
  81:..\..\..\arduinoLCD\test\Pain Drain\libraries\lvgl\src\core\../misc/lv_anim.h ****     void * user_data; /**< Custom user data*/
  82:..\..\..\arduinoLCD\test\Pain Drain\libraries\lvgl\src\core\../misc/lv_anim.h **** #endif
  83:..\..\..\arduinoLCD\test\Pain Drain\libraries\lvgl\src\core\../misc/lv_anim.h ****     lv_anim_path_cb_t path_cb;         /**< Describe the path (curve) of animations*/
  84:..\..\..\arduinoLCD\test\Pain Drain\libraries\lvgl\src\core\../misc/lv_anim.h ****     int32_t start_value;               /**< Start value*/
  85:..\..\..\arduinoLCD\test\Pain Drain\libraries\lvgl\src\core\../misc/lv_anim.h ****     int32_t current_value;             /**< Current value*/
  86:..\..\..\arduinoLCD\test\Pain Drain\libraries\lvgl\src\core\../misc/lv_anim.h ****     int32_t end_value;                 /**< End value*/
  87:..\..\..\arduinoLCD\test\Pain Drain\libraries\lvgl\src\core\../misc/lv_anim.h ****     int32_t time;                /**< Animation time in ms*/
  88:..\..\..\arduinoLCD\test\Pain Drain\libraries\lvgl\src\core\../misc/lv_anim.h ****     int32_t act_time;            /**< Current time in animation. Set to negative to make delay.*/
  89:..\..\..\arduinoLCD\test\Pain Drain\libraries\lvgl\src\core\../misc/lv_anim.h ****     uint32_t playback_delay;     /**< Wait before play back*/
  90:..\..\..\arduinoLCD\test\Pain Drain\libraries\lvgl\src\core\../misc/lv_anim.h ****     uint32_t playback_time;      /**< Duration of playback animation*/
  91:..\..\..\arduinoLCD\test\Pain Drain\libraries\lvgl\src\core\../misc/lv_anim.h ****     uint32_t repeat_delay;       /**< Wait before repeat*/
  92:..\..\..\arduinoLCD\test\Pain Drain\libraries\lvgl\src\core\../misc/lv_anim.h ****     uint16_t repeat_cnt;         /**< Repeat count for the animation*/
  93:..\..\..\arduinoLCD\test\Pain Drain\libraries\lvgl\src\core\../misc/lv_anim.h ****     uint8_t early_apply  : 1;    /**< 1: Apply start value immediately even is there is `delay`*/
  94:..\..\..\arduinoLCD\test\Pain Drain\libraries\lvgl\src\core\../misc/lv_anim.h **** 
  95:..\..\..\arduinoLCD\test\Pain Drain\libraries\lvgl\src\core\../misc/lv_anim.h ****     /*Animation system use these - user shouldn't set*/
  96:..\..\..\arduinoLCD\test\Pain Drain\libraries\lvgl\src\core\../misc/lv_anim.h ****     uint8_t playback_now : 1; /**< Play back is in progress*/
  97:..\..\..\arduinoLCD\test\Pain Drain\libraries\lvgl\src\core\../misc/lv_anim.h ****     uint8_t run_round : 1;    /**< Indicates the animation has run in this round*/
  98:..\..\..\arduinoLCD\test\Pain Drain\libraries\lvgl\src\core\../misc/lv_anim.h ****     uint8_t start_cb_called : 1;    /**< Indicates that the `start_cb` was already called*/
  99:..\..\..\arduinoLCD\test\Pain Drain\libraries\lvgl\src\core\../misc/lv_anim.h **** } lv_anim_t;
 100:..\..\..\arduinoLCD\test\Pain Drain\libraries\lvgl\src\core\../misc/lv_anim.h **** 
 101:..\..\..\arduinoLCD\test\Pain Drain\libraries\lvgl\src\core\../misc/lv_anim.h **** /**********************
 102:..\..\..\arduinoLCD\test\Pain Drain\libraries\lvgl\src\core\../misc/lv_anim.h ****  * GLOBAL PROTOTYPES
 103:..\..\..\arduinoLCD\test\Pain Drain\libraries\lvgl\src\core\../misc/lv_anim.h ****  **********************/
 104:..\..\..\arduinoLCD\test\Pain Drain\libraries\lvgl\src\core\../misc/lv_anim.h **** 
 105:..\..\..\arduinoLCD\test\Pain Drain\libraries\lvgl\src\core\../misc/lv_anim.h **** /**
 106:..\..\..\arduinoLCD\test\Pain Drain\libraries\lvgl\src\core\../misc/lv_anim.h ****  * Init. the animation module
 107:..\..\..\arduinoLCD\test\Pain Drain\libraries\lvgl\src\core\../misc/lv_anim.h ****  */
 108:..\..\..\arduinoLCD\test\Pain Drain\libraries\lvgl\src\core\../misc/lv_anim.h **** void _lv_anim_core_init(void);
 109:..\..\..\arduinoLCD\test\Pain Drain\libraries\lvgl\src\core\../misc/lv_anim.h **** 
 110:..\..\..\arduinoLCD\test\Pain Drain\libraries\lvgl\src\core\../misc/lv_anim.h **** /**
 111:..\..\..\arduinoLCD\test\Pain Drain\libraries\lvgl\src\core\../misc/lv_anim.h ****  * Initialize an animation variable.
 112:..\..\..\arduinoLCD\test\Pain Drain\libraries\lvgl\src\core\../misc/lv_anim.h ****  * E.g.:
 113:..\..\..\arduinoLCD\test\Pain Drain\libraries\lvgl\src\core\../misc/lv_anim.h ****  * lv_anim_t a;
 114:..\..\..\arduinoLCD\test\Pain Drain\libraries\lvgl\src\core\../misc/lv_anim.h ****  * lv_anim_init(&a);
 115:..\..\..\arduinoLCD\test\Pain Drain\libraries\lvgl\src\core\../misc/lv_anim.h ****  * lv_anim_set_...(&a);
 116:..\..\..\arduinoLCD\test\Pain Drain\libraries\lvgl\src\core\../misc/lv_anim.h ****  * lv_anim_start(&a);
 117:..\..\..\arduinoLCD\test\Pain Drain\libraries\lvgl\src\core\../misc/lv_anim.h ****  * @param a     pointer to an `lv_anim_t` variable to initialize
 118:..\..\..\arduinoLCD\test\Pain Drain\libraries\lvgl\src\core\../misc/lv_anim.h ****  */
 119:..\..\..\arduinoLCD\test\Pain Drain\libraries\lvgl\src\core\../misc/lv_anim.h **** void lv_anim_init(lv_anim_t * a);
 120:..\..\..\arduinoLCD\test\Pain Drain\libraries\lvgl\src\core\../misc/lv_anim.h **** 
 121:..\..\..\arduinoLCD\test\Pain Drain\libraries\lvgl\src\core\../misc/lv_anim.h **** /**
 122:..\..\..\arduinoLCD\test\Pain Drain\libraries\lvgl\src\core\../misc/lv_anim.h ****  * Set a variable to animate
 123:..\..\..\arduinoLCD\test\Pain Drain\libraries\lvgl\src\core\../misc/lv_anim.h ****  * @param a     pointer to an initialized `lv_anim_t` variable
 124:..\..\..\arduinoLCD\test\Pain Drain\libraries\lvgl\src\core\../misc/lv_anim.h ****  * @param var   pointer to a variable to animate
ARM GAS  C:\Users\haske\AppData\Local\Temp\ccU9uRZG.s 			page 6


 125:..\..\..\arduinoLCD\test\Pain Drain\libraries\lvgl\src\core\../misc/lv_anim.h ****  */
 126:..\..\..\arduinoLCD\test\Pain Drain\libraries\lvgl\src\core\../misc/lv_anim.h **** static inline void lv_anim_set_var(lv_anim_t * a, void * var)
 127:..\..\..\arduinoLCD\test\Pain Drain\libraries\lvgl\src\core\../misc/lv_anim.h **** {
 128:..\..\..\arduinoLCD\test\Pain Drain\libraries\lvgl\src\core\../misc/lv_anim.h ****     a->var = var;
  50              		.loc 2 128 0
  51 000e 0195     		str	r5, [sp, #4]
  52              	.LVL3:
  53              	.LBE13:
  54              	.LBE12:
  55              	.LBB14:
  56              	.LBB15:
 129:..\..\..\arduinoLCD\test\Pain Drain\libraries\lvgl\src\core\../misc/lv_anim.h **** }
 130:..\..\..\arduinoLCD\test\Pain Drain\libraries\lvgl\src\core\../misc/lv_anim.h **** 
 131:..\..\..\arduinoLCD\test\Pain Drain\libraries\lvgl\src\core\../misc/lv_anim.h **** /**
 132:..\..\..\arduinoLCD\test\Pain Drain\libraries\lvgl\src\core\../misc/lv_anim.h ****  * Set a function to animate `var`
 133:..\..\..\arduinoLCD\test\Pain Drain\libraries\lvgl\src\core\../misc/lv_anim.h ****  * @param a         pointer to an initialized `lv_anim_t` variable
 134:..\..\..\arduinoLCD\test\Pain Drain\libraries\lvgl\src\core\../misc/lv_anim.h ****  * @param exec_cb   a function to execute during animation
 135:..\..\..\arduinoLCD\test\Pain Drain\libraries\lvgl\src\core\../misc/lv_anim.h ****  *                  LVGL's built-in functions can be used.
 136:..\..\..\arduinoLCD\test\Pain Drain\libraries\lvgl\src\core\../misc/lv_anim.h ****  *                  E.g. lv_obj_set_x
 137:..\..\..\arduinoLCD\test\Pain Drain\libraries\lvgl\src\core\../misc/lv_anim.h ****  */
 138:..\..\..\arduinoLCD\test\Pain Drain\libraries\lvgl\src\core\../misc/lv_anim.h **** static inline void lv_anim_set_exec_cb(lv_anim_t * a, lv_anim_exec_xcb_t exec_cb)
 139:..\..\..\arduinoLCD\test\Pain Drain\libraries\lvgl\src\core\../misc/lv_anim.h **** {
 140:..\..\..\arduinoLCD\test\Pain Drain\libraries\lvgl\src\core\../misc/lv_anim.h ****     a->exec_cb = exec_cb;
  57              		.loc 2 140 0
  58 0010 0023     		movs	r3, #0
  59 0012 0293     		str	r3, [sp, #8]
  60              	.LVL4:
  61              	.LBE15:
  62              	.LBE14:
  63              	.LBB16:
  64              	.LBB17:
 141:..\..\..\arduinoLCD\test\Pain Drain\libraries\lvgl\src\core\../misc/lv_anim.h **** }
 142:..\..\..\arduinoLCD\test\Pain Drain\libraries\lvgl\src\core\../misc/lv_anim.h **** 
 143:..\..\..\arduinoLCD\test\Pain Drain\libraries\lvgl\src\core\../misc/lv_anim.h **** /**
 144:..\..\..\arduinoLCD\test\Pain Drain\libraries\lvgl\src\core\../misc/lv_anim.h ****  * Set the duration of an animation
 145:..\..\..\arduinoLCD\test\Pain Drain\libraries\lvgl\src\core\../misc/lv_anim.h ****  * @param a         pointer to an initialized `lv_anim_t` variable
 146:..\..\..\arduinoLCD\test\Pain Drain\libraries\lvgl\src\core\../misc/lv_anim.h ****  * @param duration  duration of the animation in milliseconds
 147:..\..\..\arduinoLCD\test\Pain Drain\libraries\lvgl\src\core\../misc/lv_anim.h ****  */
 148:..\..\..\arduinoLCD\test\Pain Drain\libraries\lvgl\src\core\../misc/lv_anim.h **** static inline void lv_anim_set_time(lv_anim_t * a, uint32_t duration)
 149:..\..\..\arduinoLCD\test\Pain Drain\libraries\lvgl\src\core\../misc/lv_anim.h **** {
 150:..\..\..\arduinoLCD\test\Pain Drain\libraries\lvgl\src\core\../misc/lv_anim.h ****     a->time = duration;
  65              		.loc 2 150 0
  66 0014 0133     		adds	r3, r3, #1
  67 0016 0C93     		str	r3, [sp, #48]
  68              	.LVL5:
  69              	.LBE17:
  70              	.LBE16:
  71              	.LBB18:
  72              	.LBB19:
 151:..\..\..\arduinoLCD\test\Pain Drain\libraries\lvgl\src\core\../misc/lv_anim.h **** }
 152:..\..\..\arduinoLCD\test\Pain Drain\libraries\lvgl\src\core\../misc/lv_anim.h **** 
 153:..\..\..\arduinoLCD\test\Pain Drain\libraries\lvgl\src\core\../misc/lv_anim.h **** /**
 154:..\..\..\arduinoLCD\test\Pain Drain\libraries\lvgl\src\core\../misc/lv_anim.h ****  * Set a delay before starting the animation
 155:..\..\..\arduinoLCD\test\Pain Drain\libraries\lvgl\src\core\../misc/lv_anim.h ****  * @param a         pointer to an initialized `lv_anim_t` variable
 156:..\..\..\arduinoLCD\test\Pain Drain\libraries\lvgl\src\core\../misc/lv_anim.h ****  * @param delay     delay before the animation in milliseconds
 157:..\..\..\arduinoLCD\test\Pain Drain\libraries\lvgl\src\core\../misc/lv_anim.h ****  */
 158:..\..\..\arduinoLCD\test\Pain Drain\libraries\lvgl\src\core\../misc/lv_anim.h **** static inline void lv_anim_set_delay(lv_anim_t * a, uint32_t delay)
ARM GAS  C:\Users\haske\AppData\Local\Temp\ccU9uRZG.s 			page 7


 159:..\..\..\arduinoLCD\test\Pain Drain\libraries\lvgl\src\core\../misc/lv_anim.h **** {
 160:..\..\..\arduinoLCD\test\Pain Drain\libraries\lvgl\src\core\../misc/lv_anim.h ****     a->act_time = -(int32_t)(delay);
  73              		.loc 2 160 0
  74 0018 6442     		rsbs	r4, r4, #0
  75              	.LVL6:
  76 001a 0D94     		str	r4, [sp, #52]
  77              	.LVL7:
  78              	.LBE19:
  79              	.LBE18:
  80              	.LBB20:
  81              	.LBB21:
 161:..\..\..\arduinoLCD\test\Pain Drain\libraries\lvgl\src\core\../misc/lv_anim.h **** }
 162:..\..\..\arduinoLCD\test\Pain Drain\libraries\lvgl\src\core\../misc/lv_anim.h **** 
 163:..\..\..\arduinoLCD\test\Pain Drain\libraries\lvgl\src\core\../misc/lv_anim.h **** /**
 164:..\..\..\arduinoLCD\test\Pain Drain\libraries\lvgl\src\core\../misc/lv_anim.h ****  * Set the start and end values of an animation
 165:..\..\..\arduinoLCD\test\Pain Drain\libraries\lvgl\src\core\../misc/lv_anim.h ****  * @param a         pointer to an initialized `lv_anim_t` variable
 166:..\..\..\arduinoLCD\test\Pain Drain\libraries\lvgl\src\core\../misc/lv_anim.h ****  * @param start     the start value
 167:..\..\..\arduinoLCD\test\Pain Drain\libraries\lvgl\src\core\../misc/lv_anim.h ****  * @param end       the end value
 168:..\..\..\arduinoLCD\test\Pain Drain\libraries\lvgl\src\core\../misc/lv_anim.h ****  */
 169:..\..\..\arduinoLCD\test\Pain Drain\libraries\lvgl\src\core\../misc/lv_anim.h **** static inline void lv_anim_set_values(lv_anim_t * a, int32_t start, int32_t end)
 170:..\..\..\arduinoLCD\test\Pain Drain\libraries\lvgl\src\core\../misc/lv_anim.h **** {
 171:..\..\..\arduinoLCD\test\Pain Drain\libraries\lvgl\src\core\../misc/lv_anim.h ****     a->start_value = start;
 172:..\..\..\arduinoLCD\test\Pain Drain\libraries\lvgl\src\core\../misc/lv_anim.h ****     a->current_value = start;
 173:..\..\..\arduinoLCD\test\Pain Drain\libraries\lvgl\src\core\../misc/lv_anim.h ****     a->end_value = end;
 174:..\..\..\arduinoLCD\test\Pain Drain\libraries\lvgl\src\core\../misc/lv_anim.h **** }
 175:..\..\..\arduinoLCD\test\Pain Drain\libraries\lvgl\src\core\../misc/lv_anim.h **** 
 176:..\..\..\arduinoLCD\test\Pain Drain\libraries\lvgl\src\core\../misc/lv_anim.h **** /**
 177:..\..\..\arduinoLCD\test\Pain Drain\libraries\lvgl\src\core\../misc/lv_anim.h ****  * Similar to `lv_anim_set_exec_cb` but `lv_anim_custom_exec_cb_t` receives
 178:..\..\..\arduinoLCD\test\Pain Drain\libraries\lvgl\src\core\../misc/lv_anim.h ****  * `lv_anim_t * ` as its first parameter instead of `void *`.
 179:..\..\..\arduinoLCD\test\Pain Drain\libraries\lvgl\src\core\../misc/lv_anim.h ****  * This function might be used when LVGL is bound to other languages because
 180:..\..\..\arduinoLCD\test\Pain Drain\libraries\lvgl\src\core\../misc/lv_anim.h ****  * it's more consistent to have `lv_anim_t *` as first parameter.
 181:..\..\..\arduinoLCD\test\Pain Drain\libraries\lvgl\src\core\../misc/lv_anim.h ****  * The variable to animate can be stored in the animation's `user_data`
 182:..\..\..\arduinoLCD\test\Pain Drain\libraries\lvgl\src\core\../misc/lv_anim.h ****  * @param a         pointer to an initialized `lv_anim_t` variable
 183:..\..\..\arduinoLCD\test\Pain Drain\libraries\lvgl\src\core\../misc/lv_anim.h ****  * @param exec_cb   a function to execute.
 184:..\..\..\arduinoLCD\test\Pain Drain\libraries\lvgl\src\core\../misc/lv_anim.h ****  */
 185:..\..\..\arduinoLCD\test\Pain Drain\libraries\lvgl\src\core\../misc/lv_anim.h **** static inline void lv_anim_set_custom_exec_cb(lv_anim_t * a, lv_anim_custom_exec_cb_t exec_cb)
 186:..\..\..\arduinoLCD\test\Pain Drain\libraries\lvgl\src\core\../misc/lv_anim.h **** {
 187:..\..\..\arduinoLCD\test\Pain Drain\libraries\lvgl\src\core\../misc/lv_anim.h ****     a->var     = a;
 188:..\..\..\arduinoLCD\test\Pain Drain\libraries\lvgl\src\core\../misc/lv_anim.h ****     a->exec_cb = (lv_anim_exec_xcb_t)exec_cb;
 189:..\..\..\arduinoLCD\test\Pain Drain\libraries\lvgl\src\core\../misc/lv_anim.h **** }
 190:..\..\..\arduinoLCD\test\Pain Drain\libraries\lvgl\src\core\../misc/lv_anim.h **** 
 191:..\..\..\arduinoLCD\test\Pain Drain\libraries\lvgl\src\core\../misc/lv_anim.h **** /**
 192:..\..\..\arduinoLCD\test\Pain Drain\libraries\lvgl\src\core\../misc/lv_anim.h ****  * Set the path (curve) of the animation.
 193:..\..\..\arduinoLCD\test\Pain Drain\libraries\lvgl\src\core\../misc/lv_anim.h ****  * @param a         pointer to an initialized `lv_anim_t` variable
 194:..\..\..\arduinoLCD\test\Pain Drain\libraries\lvgl\src\core\../misc/lv_anim.h ****  * @param path_cb a function to set the current value of the animation.
 195:..\..\..\arduinoLCD\test\Pain Drain\libraries\lvgl\src\core\../misc/lv_anim.h ****  */
 196:..\..\..\arduinoLCD\test\Pain Drain\libraries\lvgl\src\core\../misc/lv_anim.h **** static inline void lv_anim_set_path_cb(lv_anim_t * a, lv_anim_path_cb_t path_cb)
 197:..\..\..\arduinoLCD\test\Pain Drain\libraries\lvgl\src\core\../misc/lv_anim.h **** {
 198:..\..\..\arduinoLCD\test\Pain Drain\libraries\lvgl\src\core\../misc/lv_anim.h ****     a->path_cb = path_cb;
 199:..\..\..\arduinoLCD\test\Pain Drain\libraries\lvgl\src\core\../misc/lv_anim.h **** }
 200:..\..\..\arduinoLCD\test\Pain Drain\libraries\lvgl\src\core\../misc/lv_anim.h **** 
 201:..\..\..\arduinoLCD\test\Pain Drain\libraries\lvgl\src\core\../misc/lv_anim.h **** /**
 202:..\..\..\arduinoLCD\test\Pain Drain\libraries\lvgl\src\core\../misc/lv_anim.h ****  * Set a function call when the animation really starts (considering `delay`)
 203:..\..\..\arduinoLCD\test\Pain Drain\libraries\lvgl\src\core\../misc/lv_anim.h ****  * @param a         pointer to an initialized `lv_anim_t` variable
 204:..\..\..\arduinoLCD\test\Pain Drain\libraries\lvgl\src\core\../misc/lv_anim.h ****  * @param start_cb  a function call when the animation starts
 205:..\..\..\arduinoLCD\test\Pain Drain\libraries\lvgl\src\core\../misc/lv_anim.h ****  */
 206:..\..\..\arduinoLCD\test\Pain Drain\libraries\lvgl\src\core\../misc/lv_anim.h **** static inline void lv_anim_set_start_cb(lv_anim_t * a, lv_anim_start_cb_t start_cb)
ARM GAS  C:\Users\haske\AppData\Local\Temp\ccU9uRZG.s 			page 8


 207:..\..\..\arduinoLCD\test\Pain Drain\libraries\lvgl\src\core\../misc/lv_anim.h **** {
 208:..\..\..\arduinoLCD\test\Pain Drain\libraries\lvgl\src\core\../misc/lv_anim.h ****     a->start_cb = start_cb;
 209:..\..\..\arduinoLCD\test\Pain Drain\libraries\lvgl\src\core\../misc/lv_anim.h **** }
 210:..\..\..\arduinoLCD\test\Pain Drain\libraries\lvgl\src\core\../misc/lv_anim.h **** 
 211:..\..\..\arduinoLCD\test\Pain Drain\libraries\lvgl\src\core\../misc/lv_anim.h **** /**
 212:..\..\..\arduinoLCD\test\Pain Drain\libraries\lvgl\src\core\../misc/lv_anim.h ****  * Set a function to use the current value of the variable and make start and end value
 213:..\..\..\arduinoLCD\test\Pain Drain\libraries\lvgl\src\core\../misc/lv_anim.h ****  * relative to the returned current value.
 214:..\..\..\arduinoLCD\test\Pain Drain\libraries\lvgl\src\core\../misc/lv_anim.h ****  * @param a             pointer to an initialized `lv_anim_t` variable
 215:..\..\..\arduinoLCD\test\Pain Drain\libraries\lvgl\src\core\../misc/lv_anim.h ****  * @param get_value_cb  a function call when the animation starts
 216:..\..\..\arduinoLCD\test\Pain Drain\libraries\lvgl\src\core\../misc/lv_anim.h ****  */
 217:..\..\..\arduinoLCD\test\Pain Drain\libraries\lvgl\src\core\../misc/lv_anim.h **** static inline void lv_anim_set_get_value_cb(lv_anim_t * a, lv_anim_get_value_cb_t get_value_cb)
 218:..\..\..\arduinoLCD\test\Pain Drain\libraries\lvgl\src\core\../misc/lv_anim.h **** {
 219:..\..\..\arduinoLCD\test\Pain Drain\libraries\lvgl\src\core\../misc/lv_anim.h ****     a->get_value_cb = get_value_cb;
 220:..\..\..\arduinoLCD\test\Pain Drain\libraries\lvgl\src\core\../misc/lv_anim.h **** }
 221:..\..\..\arduinoLCD\test\Pain Drain\libraries\lvgl\src\core\../misc/lv_anim.h **** 
 222:..\..\..\arduinoLCD\test\Pain Drain\libraries\lvgl\src\core\../misc/lv_anim.h **** /**
 223:..\..\..\arduinoLCD\test\Pain Drain\libraries\lvgl\src\core\../misc/lv_anim.h ****  * Set a function call when the animation is ready
 224:..\..\..\arduinoLCD\test\Pain Drain\libraries\lvgl\src\core\../misc/lv_anim.h ****  * @param a         pointer to an initialized `lv_anim_t` variable
 225:..\..\..\arduinoLCD\test\Pain Drain\libraries\lvgl\src\core\../misc/lv_anim.h ****  * @param ready_cb  a function call when the animation is ready
 226:..\..\..\arduinoLCD\test\Pain Drain\libraries\lvgl\src\core\../misc/lv_anim.h ****  */
 227:..\..\..\arduinoLCD\test\Pain Drain\libraries\lvgl\src\core\../misc/lv_anim.h **** static inline void lv_anim_set_ready_cb(lv_anim_t * a, lv_anim_ready_cb_t ready_cb)
 228:..\..\..\arduinoLCD\test\Pain Drain\libraries\lvgl\src\core\../misc/lv_anim.h **** {
 229:..\..\..\arduinoLCD\test\Pain Drain\libraries\lvgl\src\core\../misc/lv_anim.h ****     a->ready_cb = ready_cb;
  82              		.loc 2 229 0
  83 001c 034B     		ldr	r3, .L2
  84 001e 0493     		str	r3, [sp, #16]
  85              	.LVL8:
  86              	.LBE21:
  87              	.LBE20:
 113:..\..\..\arduinoLCD\test\Pain Drain\libraries\lvgl\src\core/lv_obj_tree.c ****     lv_anim_set_var(&a, obj);
 114:..\..\..\arduinoLCD\test\Pain Drain\libraries\lvgl\src\core/lv_obj_tree.c ****     lv_anim_set_exec_cb(&a, NULL);
 115:..\..\..\arduinoLCD\test\Pain Drain\libraries\lvgl\src\core/lv_obj_tree.c ****     lv_anim_set_time(&a, 1);
 116:..\..\..\arduinoLCD\test\Pain Drain\libraries\lvgl\src\core/lv_obj_tree.c ****     lv_anim_set_delay(&a, delay_ms);
 117:..\..\..\arduinoLCD\test\Pain Drain\libraries\lvgl\src\core/lv_obj_tree.c ****     lv_anim_set_ready_cb(&a, lv_obj_del_anim_ready_cb);
 118:..\..\..\arduinoLCD\test\Pain Drain\libraries\lvgl\src\core/lv_obj_tree.c ****     lv_anim_start(&a);
  88              		.loc 1 118 0
  89 0020 01A8     		add	r0, sp, #4
  90 0022 FFF7FEFF 		bl	lv_anim_start
  91              	.LVL9:
 119:..\..\..\arduinoLCD\test\Pain Drain\libraries\lvgl\src\core/lv_obj_tree.c **** }
  92              		.loc 1 119 0
  93 0026 13B0     		add	sp, sp, #76
  94              		@ sp needed
  95              	.LVL10:
  96              	.LVL11:
  97 0028 30BD     		pop	{r4, r5, pc}
  98              	.L3:
  99 002a C046     		.align	2
 100              	.L2:
 101 002c 00000000 		.word	lv_obj_del_anim_ready_cb
 102              		.cfi_endproc
 103              	.LFE161:
 104              		.size	lv_obj_del_delayed, .-lv_obj_del_delayed
 105              		.section	.text.lv_obj_del_async,"ax",%progbits
 106              		.align	2
 107              		.global	lv_obj_del_async
 108              		.code	16
ARM GAS  C:\Users\haske\AppData\Local\Temp\ccU9uRZG.s 			page 9


 109              		.thumb_func
 110              		.type	lv_obj_del_async, %function
 111              	lv_obj_del_async:
 112              	.LFB163:
 120:..\..\..\arduinoLCD\test\Pain Drain\libraries\lvgl\src\core/lv_obj_tree.c **** 
 121:..\..\..\arduinoLCD\test\Pain Drain\libraries\lvgl\src\core/lv_obj_tree.c **** void lv_obj_del_anim_ready_cb(lv_anim_t * a)
 122:..\..\..\arduinoLCD\test\Pain Drain\libraries\lvgl\src\core/lv_obj_tree.c **** {
 123:..\..\..\arduinoLCD\test\Pain Drain\libraries\lvgl\src\core/lv_obj_tree.c ****     lv_obj_del(a->var);
 124:..\..\..\arduinoLCD\test\Pain Drain\libraries\lvgl\src\core/lv_obj_tree.c **** }
 125:..\..\..\arduinoLCD\test\Pain Drain\libraries\lvgl\src\core/lv_obj_tree.c **** 
 126:..\..\..\arduinoLCD\test\Pain Drain\libraries\lvgl\src\core/lv_obj_tree.c **** void lv_obj_del_async(lv_obj_t * obj)
 127:..\..\..\arduinoLCD\test\Pain Drain\libraries\lvgl\src\core/lv_obj_tree.c **** {
 113              		.loc 1 127 0
 114              		.cfi_startproc
 115              		@ args = 0, pretend = 0, frame = 0
 116              		@ frame_needed = 0, uses_anonymous_args = 0
 117              	.LVL12:
 118 0000 10B5     		push	{r4, lr}
 119              		.cfi_def_cfa_offset 8
 120              		.cfi_offset 4, -8
 121              		.cfi_offset 14, -4
 122 0002 0100     		movs	r1, r0
 128:..\..\..\arduinoLCD\test\Pain Drain\libraries\lvgl\src\core/lv_obj_tree.c ****     LV_ASSERT_OBJ(obj, MY_CLASS);
 129:..\..\..\arduinoLCD\test\Pain Drain\libraries\lvgl\src\core/lv_obj_tree.c ****     lv_async_call(lv_obj_del_async_cb, obj);
 123              		.loc 1 129 0
 124 0004 0148     		ldr	r0, .L5
 125              	.LVL13:
 126 0006 FFF7FEFF 		bl	lv_async_call
 127              	.LVL14:
 130:..\..\..\arduinoLCD\test\Pain Drain\libraries\lvgl\src\core/lv_obj_tree.c **** }
 128              		.loc 1 130 0
 129              		@ sp needed
 130 000a 10BD     		pop	{r4, pc}
 131              	.L6:
 132              		.align	2
 133              	.L5:
 134 000c 00000000 		.word	lv_obj_del_async_cb
 135              		.cfi_endproc
 136              	.LFE163:
 137              		.size	lv_obj_del_async, .-lv_obj_del_async
 138              		.section	.text.lv_obj_get_parent,"ax",%progbits
 139              		.align	2
 140              		.global	lv_obj_get_parent
 141              		.code	16
 142              		.thumb_func
 143              		.type	lv_obj_get_parent, %function
 144              	lv_obj_get_parent:
 145              	.LFB169:
 131:..\..\..\arduinoLCD\test\Pain Drain\libraries\lvgl\src\core/lv_obj_tree.c **** 
 132:..\..\..\arduinoLCD\test\Pain Drain\libraries\lvgl\src\core/lv_obj_tree.c **** void lv_obj_set_parent(lv_obj_t * obj, lv_obj_t * parent)
 133:..\..\..\arduinoLCD\test\Pain Drain\libraries\lvgl\src\core/lv_obj_tree.c **** {
 134:..\..\..\arduinoLCD\test\Pain Drain\libraries\lvgl\src\core/lv_obj_tree.c ****     LV_ASSERT_OBJ(obj, MY_CLASS);
 135:..\..\..\arduinoLCD\test\Pain Drain\libraries\lvgl\src\core/lv_obj_tree.c ****     LV_ASSERT_OBJ(parent, MY_CLASS);
 136:..\..\..\arduinoLCD\test\Pain Drain\libraries\lvgl\src\core/lv_obj_tree.c **** 
 137:..\..\..\arduinoLCD\test\Pain Drain\libraries\lvgl\src\core/lv_obj_tree.c ****     if(obj->parent == NULL) {
 138:..\..\..\arduinoLCD\test\Pain Drain\libraries\lvgl\src\core/lv_obj_tree.c ****         LV_LOG_WARN("Can't set the parent of a screen");
 139:..\..\..\arduinoLCD\test\Pain Drain\libraries\lvgl\src\core/lv_obj_tree.c ****         return;
ARM GAS  C:\Users\haske\AppData\Local\Temp\ccU9uRZG.s 			page 10


 140:..\..\..\arduinoLCD\test\Pain Drain\libraries\lvgl\src\core/lv_obj_tree.c ****     }
 141:..\..\..\arduinoLCD\test\Pain Drain\libraries\lvgl\src\core/lv_obj_tree.c **** 
 142:..\..\..\arduinoLCD\test\Pain Drain\libraries\lvgl\src\core/lv_obj_tree.c ****     if(parent == NULL) {
 143:..\..\..\arduinoLCD\test\Pain Drain\libraries\lvgl\src\core/lv_obj_tree.c ****         LV_LOG_WARN("Can't set parent == NULL to an object");
 144:..\..\..\arduinoLCD\test\Pain Drain\libraries\lvgl\src\core/lv_obj_tree.c ****         return;
 145:..\..\..\arduinoLCD\test\Pain Drain\libraries\lvgl\src\core/lv_obj_tree.c ****     }
 146:..\..\..\arduinoLCD\test\Pain Drain\libraries\lvgl\src\core/lv_obj_tree.c **** 
 147:..\..\..\arduinoLCD\test\Pain Drain\libraries\lvgl\src\core/lv_obj_tree.c ****     lv_obj_invalidate(obj);
 148:..\..\..\arduinoLCD\test\Pain Drain\libraries\lvgl\src\core/lv_obj_tree.c **** 
 149:..\..\..\arduinoLCD\test\Pain Drain\libraries\lvgl\src\core/lv_obj_tree.c ****     lv_obj_allocate_spec_attr(parent);
 150:..\..\..\arduinoLCD\test\Pain Drain\libraries\lvgl\src\core/lv_obj_tree.c **** 
 151:..\..\..\arduinoLCD\test\Pain Drain\libraries\lvgl\src\core/lv_obj_tree.c ****     lv_obj_t * old_parent = obj->parent;
 152:..\..\..\arduinoLCD\test\Pain Drain\libraries\lvgl\src\core/lv_obj_tree.c ****     /*Remove the object from the old parent's child list*/
 153:..\..\..\arduinoLCD\test\Pain Drain\libraries\lvgl\src\core/lv_obj_tree.c ****     int32_t i;
 154:..\..\..\arduinoLCD\test\Pain Drain\libraries\lvgl\src\core/lv_obj_tree.c ****     for(i = lv_obj_get_index(obj); i <= (int32_t)lv_obj_get_child_cnt(old_parent) - 2; i++) {
 155:..\..\..\arduinoLCD\test\Pain Drain\libraries\lvgl\src\core/lv_obj_tree.c ****         old_parent->spec_attr->children[i] = old_parent->spec_attr->children[i + 1];
 156:..\..\..\arduinoLCD\test\Pain Drain\libraries\lvgl\src\core/lv_obj_tree.c ****     }
 157:..\..\..\arduinoLCD\test\Pain Drain\libraries\lvgl\src\core/lv_obj_tree.c ****     old_parent->spec_attr->child_cnt--;
 158:..\..\..\arduinoLCD\test\Pain Drain\libraries\lvgl\src\core/lv_obj_tree.c ****     if(old_parent->spec_attr->child_cnt) {
 159:..\..\..\arduinoLCD\test\Pain Drain\libraries\lvgl\src\core/lv_obj_tree.c ****         old_parent->spec_attr->children = lv_mem_realloc(old_parent->spec_attr->children,
 160:..\..\..\arduinoLCD\test\Pain Drain\libraries\lvgl\src\core/lv_obj_tree.c ****                                                          old_parent->spec_attr->child_cnt * (sizeof
 161:..\..\..\arduinoLCD\test\Pain Drain\libraries\lvgl\src\core/lv_obj_tree.c ****     }
 162:..\..\..\arduinoLCD\test\Pain Drain\libraries\lvgl\src\core/lv_obj_tree.c ****     else {
 163:..\..\..\arduinoLCD\test\Pain Drain\libraries\lvgl\src\core/lv_obj_tree.c ****         lv_mem_free(old_parent->spec_attr->children);
 164:..\..\..\arduinoLCD\test\Pain Drain\libraries\lvgl\src\core/lv_obj_tree.c ****         old_parent->spec_attr->children = NULL;
 165:..\..\..\arduinoLCD\test\Pain Drain\libraries\lvgl\src\core/lv_obj_tree.c ****     }
 166:..\..\..\arduinoLCD\test\Pain Drain\libraries\lvgl\src\core/lv_obj_tree.c **** 
 167:..\..\..\arduinoLCD\test\Pain Drain\libraries\lvgl\src\core/lv_obj_tree.c ****     /*Add the child to the new parent as the last (newest child)*/
 168:..\..\..\arduinoLCD\test\Pain Drain\libraries\lvgl\src\core/lv_obj_tree.c ****     parent->spec_attr->child_cnt++;
 169:..\..\..\arduinoLCD\test\Pain Drain\libraries\lvgl\src\core/lv_obj_tree.c ****     parent->spec_attr->children = lv_mem_realloc(parent->spec_attr->children,
 170:..\..\..\arduinoLCD\test\Pain Drain\libraries\lvgl\src\core/lv_obj_tree.c ****                                                  parent->spec_attr->child_cnt * (sizeof(lv_obj_t *)
 171:..\..\..\arduinoLCD\test\Pain Drain\libraries\lvgl\src\core/lv_obj_tree.c ****     parent->spec_attr->children[lv_obj_get_child_cnt(parent) - 1] = obj;
 172:..\..\..\arduinoLCD\test\Pain Drain\libraries\lvgl\src\core/lv_obj_tree.c **** 
 173:..\..\..\arduinoLCD\test\Pain Drain\libraries\lvgl\src\core/lv_obj_tree.c ****     obj->parent = parent;
 174:..\..\..\arduinoLCD\test\Pain Drain\libraries\lvgl\src\core/lv_obj_tree.c **** 
 175:..\..\..\arduinoLCD\test\Pain Drain\libraries\lvgl\src\core/lv_obj_tree.c ****     /*Notify the original parent because one of its children is lost*/
 176:..\..\..\arduinoLCD\test\Pain Drain\libraries\lvgl\src\core/lv_obj_tree.c ****     lv_obj_readjust_scroll(old_parent, LV_ANIM_OFF);
 177:..\..\..\arduinoLCD\test\Pain Drain\libraries\lvgl\src\core/lv_obj_tree.c ****     lv_obj_scrollbar_invalidate(old_parent);
 178:..\..\..\arduinoLCD\test\Pain Drain\libraries\lvgl\src\core/lv_obj_tree.c ****     lv_event_send(old_parent, LV_EVENT_CHILD_CHANGED, obj);
 179:..\..\..\arduinoLCD\test\Pain Drain\libraries\lvgl\src\core/lv_obj_tree.c ****     lv_event_send(old_parent, LV_EVENT_CHILD_DELETED, NULL);
 180:..\..\..\arduinoLCD\test\Pain Drain\libraries\lvgl\src\core/lv_obj_tree.c **** 
 181:..\..\..\arduinoLCD\test\Pain Drain\libraries\lvgl\src\core/lv_obj_tree.c ****     /*Notify the new parent about the child*/
 182:..\..\..\arduinoLCD\test\Pain Drain\libraries\lvgl\src\core/lv_obj_tree.c ****     lv_event_send(parent, LV_EVENT_CHILD_CHANGED, obj);
 183:..\..\..\arduinoLCD\test\Pain Drain\libraries\lvgl\src\core/lv_obj_tree.c ****     lv_event_send(parent, LV_EVENT_CHILD_CREATED, NULL);
 184:..\..\..\arduinoLCD\test\Pain Drain\libraries\lvgl\src\core/lv_obj_tree.c **** 
 185:..\..\..\arduinoLCD\test\Pain Drain\libraries\lvgl\src\core/lv_obj_tree.c ****     lv_obj_mark_layout_as_dirty(obj);
 186:..\..\..\arduinoLCD\test\Pain Drain\libraries\lvgl\src\core/lv_obj_tree.c **** 
 187:..\..\..\arduinoLCD\test\Pain Drain\libraries\lvgl\src\core/lv_obj_tree.c ****     lv_obj_invalidate(obj);
 188:..\..\..\arduinoLCD\test\Pain Drain\libraries\lvgl\src\core/lv_obj_tree.c **** }
 189:..\..\..\arduinoLCD\test\Pain Drain\libraries\lvgl\src\core/lv_obj_tree.c **** 
 190:..\..\..\arduinoLCD\test\Pain Drain\libraries\lvgl\src\core/lv_obj_tree.c **** void lv_obj_move_to_index(lv_obj_t * obj, int32_t index)
 191:..\..\..\arduinoLCD\test\Pain Drain\libraries\lvgl\src\core/lv_obj_tree.c **** {
 192:..\..\..\arduinoLCD\test\Pain Drain\libraries\lvgl\src\core/lv_obj_tree.c ****     LV_ASSERT_OBJ(obj, MY_CLASS);
 193:..\..\..\arduinoLCD\test\Pain Drain\libraries\lvgl\src\core/lv_obj_tree.c **** 
 194:..\..\..\arduinoLCD\test\Pain Drain\libraries\lvgl\src\core/lv_obj_tree.c ****     if(index < 0) {
 195:..\..\..\arduinoLCD\test\Pain Drain\libraries\lvgl\src\core/lv_obj_tree.c ****         index = lv_obj_get_child_cnt(lv_obj_get_parent(obj)) + index;
 196:..\..\..\arduinoLCD\test\Pain Drain\libraries\lvgl\src\core/lv_obj_tree.c ****     }
ARM GAS  C:\Users\haske\AppData\Local\Temp\ccU9uRZG.s 			page 11


 197:..\..\..\arduinoLCD\test\Pain Drain\libraries\lvgl\src\core/lv_obj_tree.c **** 
 198:..\..\..\arduinoLCD\test\Pain Drain\libraries\lvgl\src\core/lv_obj_tree.c ****     const int32_t old_index = lv_obj_get_index(obj);
 199:..\..\..\arduinoLCD\test\Pain Drain\libraries\lvgl\src\core/lv_obj_tree.c **** 
 200:..\..\..\arduinoLCD\test\Pain Drain\libraries\lvgl\src\core/lv_obj_tree.c ****     lv_obj_t * parent = lv_obj_get_parent(obj);
 201:..\..\..\arduinoLCD\test\Pain Drain\libraries\lvgl\src\core/lv_obj_tree.c **** 
 202:..\..\..\arduinoLCD\test\Pain Drain\libraries\lvgl\src\core/lv_obj_tree.c ****     if(index < 0) return;
 203:..\..\..\arduinoLCD\test\Pain Drain\libraries\lvgl\src\core/lv_obj_tree.c ****     if(index >= (int32_t) lv_obj_get_child_cnt(parent)) return;
 204:..\..\..\arduinoLCD\test\Pain Drain\libraries\lvgl\src\core/lv_obj_tree.c ****     if(index == old_index) return;
 205:..\..\..\arduinoLCD\test\Pain Drain\libraries\lvgl\src\core/lv_obj_tree.c **** 
 206:..\..\..\arduinoLCD\test\Pain Drain\libraries\lvgl\src\core/lv_obj_tree.c ****     int32_t i = old_index;
 207:..\..\..\arduinoLCD\test\Pain Drain\libraries\lvgl\src\core/lv_obj_tree.c ****     if(index < old_index) {
 208:..\..\..\arduinoLCD\test\Pain Drain\libraries\lvgl\src\core/lv_obj_tree.c ****         while(i > index)  {
 209:..\..\..\arduinoLCD\test\Pain Drain\libraries\lvgl\src\core/lv_obj_tree.c ****             parent->spec_attr->children[i] = parent->spec_attr->children[i - 1];
 210:..\..\..\arduinoLCD\test\Pain Drain\libraries\lvgl\src\core/lv_obj_tree.c ****             i--;
 211:..\..\..\arduinoLCD\test\Pain Drain\libraries\lvgl\src\core/lv_obj_tree.c ****         }
 212:..\..\..\arduinoLCD\test\Pain Drain\libraries\lvgl\src\core/lv_obj_tree.c ****     }
 213:..\..\..\arduinoLCD\test\Pain Drain\libraries\lvgl\src\core/lv_obj_tree.c ****     else {
 214:..\..\..\arduinoLCD\test\Pain Drain\libraries\lvgl\src\core/lv_obj_tree.c ****         while(i < index) {
 215:..\..\..\arduinoLCD\test\Pain Drain\libraries\lvgl\src\core/lv_obj_tree.c ****             parent->spec_attr->children[i] = parent->spec_attr->children[i + 1];
 216:..\..\..\arduinoLCD\test\Pain Drain\libraries\lvgl\src\core/lv_obj_tree.c ****             i++;
 217:..\..\..\arduinoLCD\test\Pain Drain\libraries\lvgl\src\core/lv_obj_tree.c ****         }
 218:..\..\..\arduinoLCD\test\Pain Drain\libraries\lvgl\src\core/lv_obj_tree.c ****     }
 219:..\..\..\arduinoLCD\test\Pain Drain\libraries\lvgl\src\core/lv_obj_tree.c **** 
 220:..\..\..\arduinoLCD\test\Pain Drain\libraries\lvgl\src\core/lv_obj_tree.c ****     parent->spec_attr->children[index] = obj;
 221:..\..\..\arduinoLCD\test\Pain Drain\libraries\lvgl\src\core/lv_obj_tree.c ****     lv_event_send(parent, LV_EVENT_CHILD_CHANGED, NULL);
 222:..\..\..\arduinoLCD\test\Pain Drain\libraries\lvgl\src\core/lv_obj_tree.c ****     lv_obj_invalidate(parent);
 223:..\..\..\arduinoLCD\test\Pain Drain\libraries\lvgl\src\core/lv_obj_tree.c **** }
 224:..\..\..\arduinoLCD\test\Pain Drain\libraries\lvgl\src\core/lv_obj_tree.c **** 
 225:..\..\..\arduinoLCD\test\Pain Drain\libraries\lvgl\src\core/lv_obj_tree.c **** void lv_obj_swap(lv_obj_t * obj1, lv_obj_t * obj2)
 226:..\..\..\arduinoLCD\test\Pain Drain\libraries\lvgl\src\core/lv_obj_tree.c **** {
 227:..\..\..\arduinoLCD\test\Pain Drain\libraries\lvgl\src\core/lv_obj_tree.c ****     LV_ASSERT_OBJ(obj1, MY_CLASS);
 228:..\..\..\arduinoLCD\test\Pain Drain\libraries\lvgl\src\core/lv_obj_tree.c ****     LV_ASSERT_OBJ(obj2, MY_CLASS);
 229:..\..\..\arduinoLCD\test\Pain Drain\libraries\lvgl\src\core/lv_obj_tree.c **** 
 230:..\..\..\arduinoLCD\test\Pain Drain\libraries\lvgl\src\core/lv_obj_tree.c ****     lv_obj_t * parent = lv_obj_get_parent(obj1);
 231:..\..\..\arduinoLCD\test\Pain Drain\libraries\lvgl\src\core/lv_obj_tree.c ****     lv_obj_t * parent2 = lv_obj_get_parent(obj2);
 232:..\..\..\arduinoLCD\test\Pain Drain\libraries\lvgl\src\core/lv_obj_tree.c **** 
 233:..\..\..\arduinoLCD\test\Pain Drain\libraries\lvgl\src\core/lv_obj_tree.c ****     uint_fast32_t index1 = lv_obj_get_index(obj1);
 234:..\..\..\arduinoLCD\test\Pain Drain\libraries\lvgl\src\core/lv_obj_tree.c ****     uint_fast32_t index2 = lv_obj_get_index(obj2);
 235:..\..\..\arduinoLCD\test\Pain Drain\libraries\lvgl\src\core/lv_obj_tree.c **** 
 236:..\..\..\arduinoLCD\test\Pain Drain\libraries\lvgl\src\core/lv_obj_tree.c ****     lv_event_send(parent2, LV_EVENT_CHILD_DELETED, obj2);
 237:..\..\..\arduinoLCD\test\Pain Drain\libraries\lvgl\src\core/lv_obj_tree.c ****     lv_event_send(parent, LV_EVENT_CHILD_DELETED, obj1);
 238:..\..\..\arduinoLCD\test\Pain Drain\libraries\lvgl\src\core/lv_obj_tree.c **** 
 239:..\..\..\arduinoLCD\test\Pain Drain\libraries\lvgl\src\core/lv_obj_tree.c ****     parent->spec_attr->children[index1] = obj2;
 240:..\..\..\arduinoLCD\test\Pain Drain\libraries\lvgl\src\core/lv_obj_tree.c ****     parent2->spec_attr->children[index2] = obj1;
 241:..\..\..\arduinoLCD\test\Pain Drain\libraries\lvgl\src\core/lv_obj_tree.c **** 
 242:..\..\..\arduinoLCD\test\Pain Drain\libraries\lvgl\src\core/lv_obj_tree.c ****     lv_event_send(parent, LV_EVENT_CHILD_CHANGED, obj2);
 243:..\..\..\arduinoLCD\test\Pain Drain\libraries\lvgl\src\core/lv_obj_tree.c ****     lv_event_send(parent, LV_EVENT_CHILD_CREATED, obj2);
 244:..\..\..\arduinoLCD\test\Pain Drain\libraries\lvgl\src\core/lv_obj_tree.c ****     lv_event_send(parent2, LV_EVENT_CHILD_CHANGED, obj1);
 245:..\..\..\arduinoLCD\test\Pain Drain\libraries\lvgl\src\core/lv_obj_tree.c ****     lv_event_send(parent2, LV_EVENT_CHILD_CREATED, obj1);
 246:..\..\..\arduinoLCD\test\Pain Drain\libraries\lvgl\src\core/lv_obj_tree.c **** 
 247:..\..\..\arduinoLCD\test\Pain Drain\libraries\lvgl\src\core/lv_obj_tree.c ****     lv_obj_invalidate(parent);
 248:..\..\..\arduinoLCD\test\Pain Drain\libraries\lvgl\src\core/lv_obj_tree.c **** 
 249:..\..\..\arduinoLCD\test\Pain Drain\libraries\lvgl\src\core/lv_obj_tree.c ****     if(parent != parent2) {
 250:..\..\..\arduinoLCD\test\Pain Drain\libraries\lvgl\src\core/lv_obj_tree.c ****         lv_obj_invalidate(parent2);
 251:..\..\..\arduinoLCD\test\Pain Drain\libraries\lvgl\src\core/lv_obj_tree.c ****     }
 252:..\..\..\arduinoLCD\test\Pain Drain\libraries\lvgl\src\core/lv_obj_tree.c ****     lv_group_swap_obj(obj1, obj2);
 253:..\..\..\arduinoLCD\test\Pain Drain\libraries\lvgl\src\core/lv_obj_tree.c **** }
ARM GAS  C:\Users\haske\AppData\Local\Temp\ccU9uRZG.s 			page 12


 254:..\..\..\arduinoLCD\test\Pain Drain\libraries\lvgl\src\core/lv_obj_tree.c **** 
 255:..\..\..\arduinoLCD\test\Pain Drain\libraries\lvgl\src\core/lv_obj_tree.c **** lv_obj_t * lv_obj_get_screen(const lv_obj_t * obj)
 256:..\..\..\arduinoLCD\test\Pain Drain\libraries\lvgl\src\core/lv_obj_tree.c **** {
 257:..\..\..\arduinoLCD\test\Pain Drain\libraries\lvgl\src\core/lv_obj_tree.c ****     LV_ASSERT_OBJ(obj, MY_CLASS);
 258:..\..\..\arduinoLCD\test\Pain Drain\libraries\lvgl\src\core/lv_obj_tree.c **** 
 259:..\..\..\arduinoLCD\test\Pain Drain\libraries\lvgl\src\core/lv_obj_tree.c ****     const lv_obj_t * par = obj;
 260:..\..\..\arduinoLCD\test\Pain Drain\libraries\lvgl\src\core/lv_obj_tree.c ****     const lv_obj_t * act_par;
 261:..\..\..\arduinoLCD\test\Pain Drain\libraries\lvgl\src\core/lv_obj_tree.c **** 
 262:..\..\..\arduinoLCD\test\Pain Drain\libraries\lvgl\src\core/lv_obj_tree.c ****     do {
 263:..\..\..\arduinoLCD\test\Pain Drain\libraries\lvgl\src\core/lv_obj_tree.c ****         act_par = par;
 264:..\..\..\arduinoLCD\test\Pain Drain\libraries\lvgl\src\core/lv_obj_tree.c ****         par = lv_obj_get_parent(act_par);
 265:..\..\..\arduinoLCD\test\Pain Drain\libraries\lvgl\src\core/lv_obj_tree.c ****     } while(par != NULL);
 266:..\..\..\arduinoLCD\test\Pain Drain\libraries\lvgl\src\core/lv_obj_tree.c **** 
 267:..\..\..\arduinoLCD\test\Pain Drain\libraries\lvgl\src\core/lv_obj_tree.c ****     return (lv_obj_t *)act_par;
 268:..\..\..\arduinoLCD\test\Pain Drain\libraries\lvgl\src\core/lv_obj_tree.c **** }
 269:..\..\..\arduinoLCD\test\Pain Drain\libraries\lvgl\src\core/lv_obj_tree.c **** 
 270:..\..\..\arduinoLCD\test\Pain Drain\libraries\lvgl\src\core/lv_obj_tree.c **** lv_disp_t * lv_obj_get_disp(const lv_obj_t * obj)
 271:..\..\..\arduinoLCD\test\Pain Drain\libraries\lvgl\src\core/lv_obj_tree.c **** {
 272:..\..\..\arduinoLCD\test\Pain Drain\libraries\lvgl\src\core/lv_obj_tree.c ****     LV_ASSERT_OBJ(obj, MY_CLASS);
 273:..\..\..\arduinoLCD\test\Pain Drain\libraries\lvgl\src\core/lv_obj_tree.c **** 
 274:..\..\..\arduinoLCD\test\Pain Drain\libraries\lvgl\src\core/lv_obj_tree.c ****     const lv_obj_t * scr;
 275:..\..\..\arduinoLCD\test\Pain Drain\libraries\lvgl\src\core/lv_obj_tree.c **** 
 276:..\..\..\arduinoLCD\test\Pain Drain\libraries\lvgl\src\core/lv_obj_tree.c ****     if(obj->parent == NULL) scr = obj;  /*`obj` is a screen*/
 277:..\..\..\arduinoLCD\test\Pain Drain\libraries\lvgl\src\core/lv_obj_tree.c ****     else scr = lv_obj_get_screen(obj);  /*get the screen of `obj`*/
 278:..\..\..\arduinoLCD\test\Pain Drain\libraries\lvgl\src\core/lv_obj_tree.c **** 
 279:..\..\..\arduinoLCD\test\Pain Drain\libraries\lvgl\src\core/lv_obj_tree.c ****     lv_disp_t * d;
 280:..\..\..\arduinoLCD\test\Pain Drain\libraries\lvgl\src\core/lv_obj_tree.c ****     _LV_LL_READ(&LV_GC_ROOT(_lv_disp_ll), d) {
 281:..\..\..\arduinoLCD\test\Pain Drain\libraries\lvgl\src\core/lv_obj_tree.c ****         uint32_t i;
 282:..\..\..\arduinoLCD\test\Pain Drain\libraries\lvgl\src\core/lv_obj_tree.c ****         for(i = 0; i < d->screen_cnt; i++) {
 283:..\..\..\arduinoLCD\test\Pain Drain\libraries\lvgl\src\core/lv_obj_tree.c ****             if(d->screens[i] == scr) return d;
 284:..\..\..\arduinoLCD\test\Pain Drain\libraries\lvgl\src\core/lv_obj_tree.c ****         }
 285:..\..\..\arduinoLCD\test\Pain Drain\libraries\lvgl\src\core/lv_obj_tree.c ****     }
 286:..\..\..\arduinoLCD\test\Pain Drain\libraries\lvgl\src\core/lv_obj_tree.c **** 
 287:..\..\..\arduinoLCD\test\Pain Drain\libraries\lvgl\src\core/lv_obj_tree.c ****     LV_LOG_WARN("No screen found");
 288:..\..\..\arduinoLCD\test\Pain Drain\libraries\lvgl\src\core/lv_obj_tree.c ****     return NULL;
 289:..\..\..\arduinoLCD\test\Pain Drain\libraries\lvgl\src\core/lv_obj_tree.c **** }
 290:..\..\..\arduinoLCD\test\Pain Drain\libraries\lvgl\src\core/lv_obj_tree.c **** 
 291:..\..\..\arduinoLCD\test\Pain Drain\libraries\lvgl\src\core/lv_obj_tree.c **** lv_obj_t * lv_obj_get_parent(const lv_obj_t * obj)
 292:..\..\..\arduinoLCD\test\Pain Drain\libraries\lvgl\src\core/lv_obj_tree.c **** {
 146              		.loc 1 292 0
 147              		.cfi_startproc
 148              		@ args = 0, pretend = 0, frame = 0
 149              		@ frame_needed = 0, uses_anonymous_args = 0
 150              		@ link register save eliminated.
 151              	.LVL15:
 293:..\..\..\arduinoLCD\test\Pain Drain\libraries\lvgl\src\core/lv_obj_tree.c ****     if(obj == NULL) return NULL;
 152              		.loc 1 293 0
 153 0000 0028     		cmp	r0, #0
 154 0002 01D0     		beq	.L9
 294:..\..\..\arduinoLCD\test\Pain Drain\libraries\lvgl\src\core/lv_obj_tree.c ****     LV_ASSERT_OBJ(obj, MY_CLASS);
 295:..\..\..\arduinoLCD\test\Pain Drain\libraries\lvgl\src\core/lv_obj_tree.c **** 
 296:..\..\..\arduinoLCD\test\Pain Drain\libraries\lvgl\src\core/lv_obj_tree.c ****     return obj->parent;
 155              		.loc 1 296 0
 156 0004 4068     		ldr	r0, [r0, #4]
 157              	.LVL16:
 158 0006 00E0     		b	.L8
 159              	.LVL17:
ARM GAS  C:\Users\haske\AppData\Local\Temp\ccU9uRZG.s 			page 13


 160              	.L9:
 293:..\..\..\arduinoLCD\test\Pain Drain\libraries\lvgl\src\core/lv_obj_tree.c ****     if(obj == NULL) return NULL;
 161              		.loc 1 293 0
 162 0008 0020     		movs	r0, #0
 163              	.LVL18:
 164              	.L8:
 297:..\..\..\arduinoLCD\test\Pain Drain\libraries\lvgl\src\core/lv_obj_tree.c **** }
 165              		.loc 1 297 0
 166              		@ sp needed
 167 000a 7047     		bx	lr
 168              		.cfi_endproc
 169              	.LFE169:
 170              		.size	lv_obj_get_parent, .-lv_obj_get_parent
 171              		.section	.text.lv_obj_get_screen,"ax",%progbits
 172              		.align	2
 173              		.global	lv_obj_get_screen
 174              		.code	16
 175              		.thumb_func
 176              		.type	lv_obj_get_screen, %function
 177              	lv_obj_get_screen:
 178              	.LFB167:
 256:..\..\..\arduinoLCD\test\Pain Drain\libraries\lvgl\src\core/lv_obj_tree.c ****     LV_ASSERT_OBJ(obj, MY_CLASS);
 179              		.loc 1 256 0
 180              		.cfi_startproc
 181              		@ args = 0, pretend = 0, frame = 0
 182              		@ frame_needed = 0, uses_anonymous_args = 0
 183              	.LVL19:
 184 0000 10B5     		push	{r4, lr}
 185              		.cfi_def_cfa_offset 8
 186              		.cfi_offset 4, -8
 187              		.cfi_offset 14, -4
 188 0002 0400     		movs	r4, r0
 189              	.LVL20:
 190 0004 00E0     		b	.L11
 191              	.LVL21:
 192              	.L12:
 264:..\..\..\arduinoLCD\test\Pain Drain\libraries\lvgl\src\core/lv_obj_tree.c ****     } while(par != NULL);
 193              		.loc 1 264 0
 194 0006 0400     		movs	r4, r0
 195              	.LVL22:
 196              	.L11:
 264:..\..\..\arduinoLCD\test\Pain Drain\libraries\lvgl\src\core/lv_obj_tree.c ****     } while(par != NULL);
 197              		.loc 1 264 0 is_stmt 0 discriminator 1
 198 0008 2000     		movs	r0, r4
 199 000a FFF7FEFF 		bl	lv_obj_get_parent
 200              	.LVL23:
 265:..\..\..\arduinoLCD\test\Pain Drain\libraries\lvgl\src\core/lv_obj_tree.c **** 
 201              		.loc 1 265 0 is_stmt 1 discriminator 1
 202 000e 0028     		cmp	r0, #0
 203 0010 F9D1     		bne	.L12
 268:..\..\..\arduinoLCD\test\Pain Drain\libraries\lvgl\src\core/lv_obj_tree.c **** 
 204              		.loc 1 268 0
 205 0012 2000     		movs	r0, r4
 206              	.LVL24:
 207              		@ sp needed
 208              	.LVL25:
 209 0014 10BD     		pop	{r4, pc}
ARM GAS  C:\Users\haske\AppData\Local\Temp\ccU9uRZG.s 			page 14


 210              		.cfi_endproc
 211              	.LFE167:
 212              		.size	lv_obj_get_screen, .-lv_obj_get_screen
 213 0016 C046     		.section	.text.lv_obj_get_disp,"ax",%progbits
 214              		.align	2
 215              		.global	lv_obj_get_disp
 216              		.code	16
 217              		.thumb_func
 218              		.type	lv_obj_get_disp, %function
 219              	lv_obj_get_disp:
 220              	.LFB168:
 271:..\..\..\arduinoLCD\test\Pain Drain\libraries\lvgl\src\core/lv_obj_tree.c ****     LV_ASSERT_OBJ(obj, MY_CLASS);
 221              		.loc 1 271 0
 222              		.cfi_startproc
 223              		@ args = 0, pretend = 0, frame = 0
 224              		@ frame_needed = 0, uses_anonymous_args = 0
 225              	.LVL26:
 226 0000 10B5     		push	{r4, lr}
 227              		.cfi_def_cfa_offset 8
 228              		.cfi_offset 4, -8
 229              		.cfi_offset 14, -4
 230 0002 0400     		movs	r4, r0
 276:..\..\..\arduinoLCD\test\Pain Drain\libraries\lvgl\src\core/lv_obj_tree.c ****     else scr = lv_obj_get_screen(obj);  /*get the screen of `obj`*/
 231              		.loc 1 276 0
 232 0004 4368     		ldr	r3, [r0, #4]
 233 0006 002B     		cmp	r3, #0
 234 0008 02D0     		beq	.L14
 277:..\..\..\arduinoLCD\test\Pain Drain\libraries\lvgl\src\core/lv_obj_tree.c **** 
 235              		.loc 1 277 0
 236 000a FFF7FEFF 		bl	lv_obj_get_screen
 237              	.LVL27:
 238 000e 0400     		movs	r4, r0
 239              	.LVL28:
 240              	.L14:
 280:..\..\..\arduinoLCD\test\Pain Drain\libraries\lvgl\src\core/lv_obj_tree.c ****         uint32_t i;
 241              		.loc 1 280 0
 242 0010 0A48     		ldr	r0, .L21
 243 0012 FFF7FEFF 		bl	_lv_ll_get_head
 244              	.LVL29:
 245 0016 0EE0     		b	.L15
 246              	.LVL30:
 247              	.L17:
 248              	.LBB22:
 283:..\..\..\arduinoLCD\test\Pain Drain\libraries\lvgl\src\core/lv_obj_tree.c ****         }
 249              		.loc 1 283 0
 250 0018 9A00     		lsls	r2, r3, #2
 251 001a C168     		ldr	r1, [r0, #12]
 252 001c 5258     		ldr	r2, [r2, r1]
 253 001e 9442     		cmp	r4, r2
 254 0020 0BD0     		beq	.L16
 282:..\..\..\arduinoLCD\test\Pain Drain\libraries\lvgl\src\core/lv_obj_tree.c ****             if(d->screens[i] == scr) return d;
 255              		.loc 1 282 0 discriminator 2
 256 0022 0133     		adds	r3, r3, #1
 257              	.LVL31:
 258 0024 00E0     		b	.L18
 259              	.LVL32:
 260              	.L20:
ARM GAS  C:\Users\haske\AppData\Local\Temp\ccU9uRZG.s 			page 15


 261              	.LBE22:
 262 0026 0023     		movs	r3, #0
 263              	.L18:
 264              	.LVL33:
 265              	.LBB23:
 282:..\..\..\arduinoLCD\test\Pain Drain\libraries\lvgl\src\core/lv_obj_tree.c ****             if(d->screens[i] == scr) return d;
 266              		.loc 1 282 0 is_stmt 0 discriminator 1
 267 0028 426A     		ldr	r2, [r0, #36]
 268 002a 9342     		cmp	r3, r2
 269 002c F4D3     		bcc	.L17
 270              	.LBE23:
 280:..\..\..\arduinoLCD\test\Pain Drain\libraries\lvgl\src\core/lv_obj_tree.c ****         uint32_t i;
 271              		.loc 1 280 0 is_stmt 1 discriminator 2
 272 002e 0100     		movs	r1, r0
 273 0030 0248     		ldr	r0, .L21
 274              	.LVL34:
 275 0032 FFF7FEFF 		bl	_lv_ll_get_next
 276              	.LVL35:
 277              	.L15:
 280:..\..\..\arduinoLCD\test\Pain Drain\libraries\lvgl\src\core/lv_obj_tree.c ****         uint32_t i;
 278              		.loc 1 280 0 is_stmt 0 discriminator 1
 279 0036 0028     		cmp	r0, #0
 280 0038 F5D1     		bne	.L20
 281              	.L16:
 289:..\..\..\arduinoLCD\test\Pain Drain\libraries\lvgl\src\core/lv_obj_tree.c **** 
 282              		.loc 1 289 0 is_stmt 1
 283              		@ sp needed
 284              	.LVL36:
 285 003a 10BD     		pop	{r4, pc}
 286              	.L22:
 287              		.align	2
 288              	.L21:
 289 003c 00000000 		.word	_lv_disp_ll
 290              		.cfi_endproc
 291              	.LFE168:
 292              		.size	lv_obj_get_disp, .-lv_obj_get_disp
 293              		.section	.text.lv_obj_get_child,"ax",%progbits
 294              		.align	2
 295              		.global	lv_obj_get_child
 296              		.code	16
 297              		.thumb_func
 298              		.type	lv_obj_get_child, %function
 299              	lv_obj_get_child:
 300              	.LFB170:
 298:..\..\..\arduinoLCD\test\Pain Drain\libraries\lvgl\src\core/lv_obj_tree.c **** 
 299:..\..\..\arduinoLCD\test\Pain Drain\libraries\lvgl\src\core/lv_obj_tree.c **** lv_obj_t * lv_obj_get_child(const lv_obj_t * obj, int32_t id)
 300:..\..\..\arduinoLCD\test\Pain Drain\libraries\lvgl\src\core/lv_obj_tree.c **** {
 301              		.loc 1 300 0
 302              		.cfi_startproc
 303              		@ args = 0, pretend = 0, frame = 0
 304              		@ frame_needed = 0, uses_anonymous_args = 0
 305              		@ link register save eliminated.
 306              	.LVL37:
 301:..\..\..\arduinoLCD\test\Pain Drain\libraries\lvgl\src\core/lv_obj_tree.c ****     LV_ASSERT_OBJ(obj, MY_CLASS);
 302:..\..\..\arduinoLCD\test\Pain Drain\libraries\lvgl\src\core/lv_obj_tree.c **** 
 303:..\..\..\arduinoLCD\test\Pain Drain\libraries\lvgl\src\core/lv_obj_tree.c ****     if(obj->spec_attr == NULL) return NULL;
 307              		.loc 1 303 0
ARM GAS  C:\Users\haske\AppData\Local\Temp\ccU9uRZG.s 			page 16


 308 0000 8368     		ldr	r3, [r0, #8]
 309 0002 002B     		cmp	r3, #0
 310 0004 0FD0     		beq	.L27
 304:..\..\..\arduinoLCD\test\Pain Drain\libraries\lvgl\src\core/lv_obj_tree.c **** 
 305:..\..\..\arduinoLCD\test\Pain Drain\libraries\lvgl\src\core/lv_obj_tree.c ****     uint32_t idu;
 306:..\..\..\arduinoLCD\test\Pain Drain\libraries\lvgl\src\core/lv_obj_tree.c ****     if(id < 0) {
 311              		.loc 1 306 0
 312 0006 0029     		cmp	r1, #0
 313 0008 05DA     		bge	.L25
 307:..\..\..\arduinoLCD\test\Pain Drain\libraries\lvgl\src\core/lv_obj_tree.c ****         id = obj->spec_attr->child_cnt + id;
 314              		.loc 1 307 0
 315 000a 5A68     		ldr	r2, [r3, #4]
 316 000c 9446     		mov	ip, r2
 317 000e 6144     		add	r1, r1, ip
 318              	.LVL38:
 319 0010 0A1E     		subs	r2, r1, #0
 320              	.LVL39:
 308:..\..\..\arduinoLCD\test\Pain Drain\libraries\lvgl\src\core/lv_obj_tree.c ****         if(id < 0) return NULL;
 321              		.loc 1 308 0
 322 0012 01DA     		bge	.L26
 323 0014 09E0     		b	.L28
 324              	.L25:
 309:..\..\..\arduinoLCD\test\Pain Drain\libraries\lvgl\src\core/lv_obj_tree.c ****         idu = (uint32_t) id;
 310:..\..\..\arduinoLCD\test\Pain Drain\libraries\lvgl\src\core/lv_obj_tree.c ****     }
 311:..\..\..\arduinoLCD\test\Pain Drain\libraries\lvgl\src\core/lv_obj_tree.c ****     else {
 312:..\..\..\arduinoLCD\test\Pain Drain\libraries\lvgl\src\core/lv_obj_tree.c ****         idu = id;
 325              		.loc 1 312 0
 326 0016 0A00     		movs	r2, r1
 327              	.LVL40:
 328              	.L26:
 313:..\..\..\arduinoLCD\test\Pain Drain\libraries\lvgl\src\core/lv_obj_tree.c ****     }
 314:..\..\..\arduinoLCD\test\Pain Drain\libraries\lvgl\src\core/lv_obj_tree.c **** 
 315:..\..\..\arduinoLCD\test\Pain Drain\libraries\lvgl\src\core/lv_obj_tree.c ****     if(idu >= obj->spec_attr->child_cnt) return NULL;
 329              		.loc 1 315 0
 330 0018 5868     		ldr	r0, [r3, #4]
 331              	.LVL41:
 332 001a 8242     		cmp	r2, r0
 333 001c 07D2     		bcs	.L29
 316:..\..\..\arduinoLCD\test\Pain Drain\libraries\lvgl\src\core/lv_obj_tree.c ****     else return obj->spec_attr->children[id];
 334              		.loc 1 316 0
 335 001e 1B68     		ldr	r3, [r3]
 336 0020 8900     		lsls	r1, r1, #2
 337              	.LVL42:
 338 0022 5858     		ldr	r0, [r3, r1]
 339 0024 04E0     		b	.L24
 340              	.LVL43:
 341              	.L27:
 303:..\..\..\arduinoLCD\test\Pain Drain\libraries\lvgl\src\core/lv_obj_tree.c **** 
 342              		.loc 1 303 0
 343 0026 0020     		movs	r0, #0
 344              	.LVL44:
 345 0028 02E0     		b	.L24
 346              	.LVL45:
 347              	.L28:
 308:..\..\..\arduinoLCD\test\Pain Drain\libraries\lvgl\src\core/lv_obj_tree.c ****         idu = (uint32_t) id;
 348              		.loc 1 308 0
 349 002a 0020     		movs	r0, #0
ARM GAS  C:\Users\haske\AppData\Local\Temp\ccU9uRZG.s 			page 17


 350              	.LVL46:
 351 002c 00E0     		b	.L24
 352              	.LVL47:
 353              	.L29:
 315:..\..\..\arduinoLCD\test\Pain Drain\libraries\lvgl\src\core/lv_obj_tree.c ****     else return obj->spec_attr->children[id];
 354              		.loc 1 315 0
 355 002e 0020     		movs	r0, #0
 356              	.LVL48:
 357              	.L24:
 317:..\..\..\arduinoLCD\test\Pain Drain\libraries\lvgl\src\core/lv_obj_tree.c **** }
 358              		.loc 1 317 0
 359              		@ sp needed
 360 0030 7047     		bx	lr
 361              		.cfi_endproc
 362              	.LFE170:
 363              		.size	lv_obj_get_child, .-lv_obj_get_child
 364 0032 C046     		.section	.text.lv_obj_get_child_cnt,"ax",%progbits
 365              		.align	2
 366              		.global	lv_obj_get_child_cnt
 367              		.code	16
 368              		.thumb_func
 369              		.type	lv_obj_get_child_cnt, %function
 370              	lv_obj_get_child_cnt:
 371              	.LFB171:
 318:..\..\..\arduinoLCD\test\Pain Drain\libraries\lvgl\src\core/lv_obj_tree.c **** 
 319:..\..\..\arduinoLCD\test\Pain Drain\libraries\lvgl\src\core/lv_obj_tree.c **** uint32_t lv_obj_get_child_cnt(const lv_obj_t * obj)
 320:..\..\..\arduinoLCD\test\Pain Drain\libraries\lvgl\src\core/lv_obj_tree.c **** {
 372              		.loc 1 320 0
 373              		.cfi_startproc
 374              		@ args = 0, pretend = 0, frame = 0
 375              		@ frame_needed = 0, uses_anonymous_args = 0
 376              		@ link register save eliminated.
 377              	.LVL49:
 321:..\..\..\arduinoLCD\test\Pain Drain\libraries\lvgl\src\core/lv_obj_tree.c ****     LV_ASSERT_OBJ(obj, MY_CLASS);
 322:..\..\..\arduinoLCD\test\Pain Drain\libraries\lvgl\src\core/lv_obj_tree.c ****     if(obj->spec_attr == NULL) return 0;
 378              		.loc 1 322 0
 379 0000 8368     		ldr	r3, [r0, #8]
 380 0002 002B     		cmp	r3, #0
 381 0004 01D0     		beq	.L32
 323:..\..\..\arduinoLCD\test\Pain Drain\libraries\lvgl\src\core/lv_obj_tree.c ****     return obj->spec_attr->child_cnt;
 382              		.loc 1 323 0
 383 0006 5868     		ldr	r0, [r3, #4]
 384              	.LVL50:
 385 0008 00E0     		b	.L31
 386              	.LVL51:
 387              	.L32:
 322:..\..\..\arduinoLCD\test\Pain Drain\libraries\lvgl\src\core/lv_obj_tree.c ****     return obj->spec_attr->child_cnt;
 388              		.loc 1 322 0
 389 000a 0020     		movs	r0, #0
 390              	.LVL52:
 391              	.L31:
 324:..\..\..\arduinoLCD\test\Pain Drain\libraries\lvgl\src\core/lv_obj_tree.c **** }
 392              		.loc 1 324 0
 393              		@ sp needed
 394 000c 7047     		bx	lr
 395              		.cfi_endproc
 396              	.LFE171:
ARM GAS  C:\Users\haske\AppData\Local\Temp\ccU9uRZG.s 			page 18


 397              		.size	lv_obj_get_child_cnt, .-lv_obj_get_child_cnt
 398 000e C046     		.section	.text.walk_core,"ax",%progbits
 399              		.align	2
 400              		.code	16
 401              		.thumb_func
 402              		.type	walk_core, %function
 403              	walk_core:
 404              	.LFB176:
 325:..\..\..\arduinoLCD\test\Pain Drain\libraries\lvgl\src\core/lv_obj_tree.c **** 
 326:..\..\..\arduinoLCD\test\Pain Drain\libraries\lvgl\src\core/lv_obj_tree.c **** uint32_t lv_obj_get_index(const lv_obj_t * obj)
 327:..\..\..\arduinoLCD\test\Pain Drain\libraries\lvgl\src\core/lv_obj_tree.c **** {
 328:..\..\..\arduinoLCD\test\Pain Drain\libraries\lvgl\src\core/lv_obj_tree.c ****     LV_ASSERT_OBJ(obj, MY_CLASS);
 329:..\..\..\arduinoLCD\test\Pain Drain\libraries\lvgl\src\core/lv_obj_tree.c **** 
 330:..\..\..\arduinoLCD\test\Pain Drain\libraries\lvgl\src\core/lv_obj_tree.c ****     lv_obj_t * parent = lv_obj_get_parent(obj);
 331:..\..\..\arduinoLCD\test\Pain Drain\libraries\lvgl\src\core/lv_obj_tree.c ****     if(parent == NULL) return 0;
 332:..\..\..\arduinoLCD\test\Pain Drain\libraries\lvgl\src\core/lv_obj_tree.c **** 
 333:..\..\..\arduinoLCD\test\Pain Drain\libraries\lvgl\src\core/lv_obj_tree.c ****     uint32_t i = 0;
 334:..\..\..\arduinoLCD\test\Pain Drain\libraries\lvgl\src\core/lv_obj_tree.c ****     for(i = 0; i < lv_obj_get_child_cnt(parent); i++) {
 335:..\..\..\arduinoLCD\test\Pain Drain\libraries\lvgl\src\core/lv_obj_tree.c ****         if(lv_obj_get_child(parent, i) == obj) return i;
 336:..\..\..\arduinoLCD\test\Pain Drain\libraries\lvgl\src\core/lv_obj_tree.c ****     }
 337:..\..\..\arduinoLCD\test\Pain Drain\libraries\lvgl\src\core/lv_obj_tree.c **** 
 338:..\..\..\arduinoLCD\test\Pain Drain\libraries\lvgl\src\core/lv_obj_tree.c ****     return 0xFFFFFFFF; /*Shouldn't happen*/
 339:..\..\..\arduinoLCD\test\Pain Drain\libraries\lvgl\src\core/lv_obj_tree.c **** }
 340:..\..\..\arduinoLCD\test\Pain Drain\libraries\lvgl\src\core/lv_obj_tree.c **** 
 341:..\..\..\arduinoLCD\test\Pain Drain\libraries\lvgl\src\core/lv_obj_tree.c **** void lv_obj_tree_walk(lv_obj_t * start_obj, lv_obj_tree_walk_cb_t cb, void * user_data)
 342:..\..\..\arduinoLCD\test\Pain Drain\libraries\lvgl\src\core/lv_obj_tree.c **** {
 343:..\..\..\arduinoLCD\test\Pain Drain\libraries\lvgl\src\core/lv_obj_tree.c ****     walk_core(start_obj, cb, user_data);
 344:..\..\..\arduinoLCD\test\Pain Drain\libraries\lvgl\src\core/lv_obj_tree.c **** }
 345:..\..\..\arduinoLCD\test\Pain Drain\libraries\lvgl\src\core/lv_obj_tree.c **** 
 346:..\..\..\arduinoLCD\test\Pain Drain\libraries\lvgl\src\core/lv_obj_tree.c **** /**********************
 347:..\..\..\arduinoLCD\test\Pain Drain\libraries\lvgl\src\core/lv_obj_tree.c ****  *   STATIC FUNCTIONS
 348:..\..\..\arduinoLCD\test\Pain Drain\libraries\lvgl\src\core/lv_obj_tree.c ****  **********************/
 349:..\..\..\arduinoLCD\test\Pain Drain\libraries\lvgl\src\core/lv_obj_tree.c **** 
 350:..\..\..\arduinoLCD\test\Pain Drain\libraries\lvgl\src\core/lv_obj_tree.c **** static void lv_obj_del_async_cb(void * obj)
 351:..\..\..\arduinoLCD\test\Pain Drain\libraries\lvgl\src\core/lv_obj_tree.c **** {
 352:..\..\..\arduinoLCD\test\Pain Drain\libraries\lvgl\src\core/lv_obj_tree.c ****     LV_ASSERT_OBJ(obj, MY_CLASS);
 353:..\..\..\arduinoLCD\test\Pain Drain\libraries\lvgl\src\core/lv_obj_tree.c **** 
 354:..\..\..\arduinoLCD\test\Pain Drain\libraries\lvgl\src\core/lv_obj_tree.c ****     lv_obj_del(obj);
 355:..\..\..\arduinoLCD\test\Pain Drain\libraries\lvgl\src\core/lv_obj_tree.c **** }
 356:..\..\..\arduinoLCD\test\Pain Drain\libraries\lvgl\src\core/lv_obj_tree.c **** 
 357:..\..\..\arduinoLCD\test\Pain Drain\libraries\lvgl\src\core/lv_obj_tree.c **** static void obj_del_core(lv_obj_t * obj)
 358:..\..\..\arduinoLCD\test\Pain Drain\libraries\lvgl\src\core/lv_obj_tree.c **** {
 359:..\..\..\arduinoLCD\test\Pain Drain\libraries\lvgl\src\core/lv_obj_tree.c ****     /*Let the user free the resources used in `LV_EVENT_DELETE`*/
 360:..\..\..\arduinoLCD\test\Pain Drain\libraries\lvgl\src\core/lv_obj_tree.c ****     lv_res_t res = lv_event_send(obj, LV_EVENT_DELETE, NULL);
 361:..\..\..\arduinoLCD\test\Pain Drain\libraries\lvgl\src\core/lv_obj_tree.c ****     if(res == LV_RES_INV) return;
 362:..\..\..\arduinoLCD\test\Pain Drain\libraries\lvgl\src\core/lv_obj_tree.c **** 
 363:..\..\..\arduinoLCD\test\Pain Drain\libraries\lvgl\src\core/lv_obj_tree.c ****     /*Recursively delete the children*/
 364:..\..\..\arduinoLCD\test\Pain Drain\libraries\lvgl\src\core/lv_obj_tree.c ****     lv_obj_t * child = lv_obj_get_child(obj, 0);
 365:..\..\..\arduinoLCD\test\Pain Drain\libraries\lvgl\src\core/lv_obj_tree.c ****     while(child) {
 366:..\..\..\arduinoLCD\test\Pain Drain\libraries\lvgl\src\core/lv_obj_tree.c ****         obj_del_core(child);
 367:..\..\..\arduinoLCD\test\Pain Drain\libraries\lvgl\src\core/lv_obj_tree.c ****         child = lv_obj_get_child(obj, 0);
 368:..\..\..\arduinoLCD\test\Pain Drain\libraries\lvgl\src\core/lv_obj_tree.c ****     }
 369:..\..\..\arduinoLCD\test\Pain Drain\libraries\lvgl\src\core/lv_obj_tree.c **** 
 370:..\..\..\arduinoLCD\test\Pain Drain\libraries\lvgl\src\core/lv_obj_tree.c ****     lv_group_t * group = lv_obj_get_group(obj);
 371:..\..\..\arduinoLCD\test\Pain Drain\libraries\lvgl\src\core/lv_obj_tree.c **** 
 372:..\..\..\arduinoLCD\test\Pain Drain\libraries\lvgl\src\core/lv_obj_tree.c ****     /*Reset all input devices if the object to delete is used*/
 373:..\..\..\arduinoLCD\test\Pain Drain\libraries\lvgl\src\core/lv_obj_tree.c ****     lv_indev_t * indev = lv_indev_get_next(NULL);
ARM GAS  C:\Users\haske\AppData\Local\Temp\ccU9uRZG.s 			page 19


 374:..\..\..\arduinoLCD\test\Pain Drain\libraries\lvgl\src\core/lv_obj_tree.c ****     while(indev) {
 375:..\..\..\arduinoLCD\test\Pain Drain\libraries\lvgl\src\core/lv_obj_tree.c ****         if(indev->proc.types.pointer.act_obj == obj || indev->proc.types.pointer.last_obj == obj) {
 376:..\..\..\arduinoLCD\test\Pain Drain\libraries\lvgl\src\core/lv_obj_tree.c ****             lv_indev_reset(indev, obj);
 377:..\..\..\arduinoLCD\test\Pain Drain\libraries\lvgl\src\core/lv_obj_tree.c ****         }
 378:..\..\..\arduinoLCD\test\Pain Drain\libraries\lvgl\src\core/lv_obj_tree.c ****         if(indev->proc.types.pointer.last_pressed == obj) {
 379:..\..\..\arduinoLCD\test\Pain Drain\libraries\lvgl\src\core/lv_obj_tree.c ****             indev->proc.types.pointer.last_pressed = NULL;
 380:..\..\..\arduinoLCD\test\Pain Drain\libraries\lvgl\src\core/lv_obj_tree.c ****         }
 381:..\..\..\arduinoLCD\test\Pain Drain\libraries\lvgl\src\core/lv_obj_tree.c **** 
 382:..\..\..\arduinoLCD\test\Pain Drain\libraries\lvgl\src\core/lv_obj_tree.c ****         if(indev->group == group && obj == lv_indev_get_obj_act()) {
 383:..\..\..\arduinoLCD\test\Pain Drain\libraries\lvgl\src\core/lv_obj_tree.c ****             lv_indev_reset(indev, obj);
 384:..\..\..\arduinoLCD\test\Pain Drain\libraries\lvgl\src\core/lv_obj_tree.c ****         }
 385:..\..\..\arduinoLCD\test\Pain Drain\libraries\lvgl\src\core/lv_obj_tree.c ****         indev = lv_indev_get_next(indev);
 386:..\..\..\arduinoLCD\test\Pain Drain\libraries\lvgl\src\core/lv_obj_tree.c ****     }
 387:..\..\..\arduinoLCD\test\Pain Drain\libraries\lvgl\src\core/lv_obj_tree.c **** 
 388:..\..\..\arduinoLCD\test\Pain Drain\libraries\lvgl\src\core/lv_obj_tree.c ****     /*All children deleted. Now clean up the object specific data*/
 389:..\..\..\arduinoLCD\test\Pain Drain\libraries\lvgl\src\core/lv_obj_tree.c ****     _lv_obj_destruct(obj);
 390:..\..\..\arduinoLCD\test\Pain Drain\libraries\lvgl\src\core/lv_obj_tree.c **** 
 391:..\..\..\arduinoLCD\test\Pain Drain\libraries\lvgl\src\core/lv_obj_tree.c ****     /*Remove the screen for the screen list*/
 392:..\..\..\arduinoLCD\test\Pain Drain\libraries\lvgl\src\core/lv_obj_tree.c ****     if(obj->parent == NULL) {
 393:..\..\..\arduinoLCD\test\Pain Drain\libraries\lvgl\src\core/lv_obj_tree.c ****         lv_disp_t * disp = lv_obj_get_disp(obj);
 394:..\..\..\arduinoLCD\test\Pain Drain\libraries\lvgl\src\core/lv_obj_tree.c ****         uint32_t i;
 395:..\..\..\arduinoLCD\test\Pain Drain\libraries\lvgl\src\core/lv_obj_tree.c ****         /*Find the screen in the list*/
 396:..\..\..\arduinoLCD\test\Pain Drain\libraries\lvgl\src\core/lv_obj_tree.c ****         for(i = 0; i < disp->screen_cnt; i++) {
 397:..\..\..\arduinoLCD\test\Pain Drain\libraries\lvgl\src\core/lv_obj_tree.c ****             if(disp->screens[i] == obj) break;
 398:..\..\..\arduinoLCD\test\Pain Drain\libraries\lvgl\src\core/lv_obj_tree.c ****         }
 399:..\..\..\arduinoLCD\test\Pain Drain\libraries\lvgl\src\core/lv_obj_tree.c **** 
 400:..\..\..\arduinoLCD\test\Pain Drain\libraries\lvgl\src\core/lv_obj_tree.c ****         uint32_t id = i;
 401:..\..\..\arduinoLCD\test\Pain Drain\libraries\lvgl\src\core/lv_obj_tree.c ****         for(i = id; i < disp->screen_cnt - 1; i++) {
 402:..\..\..\arduinoLCD\test\Pain Drain\libraries\lvgl\src\core/lv_obj_tree.c ****             disp->screens[i] = disp->screens[i + 1];
 403:..\..\..\arduinoLCD\test\Pain Drain\libraries\lvgl\src\core/lv_obj_tree.c ****         }
 404:..\..\..\arduinoLCD\test\Pain Drain\libraries\lvgl\src\core/lv_obj_tree.c ****         disp->screen_cnt--;
 405:..\..\..\arduinoLCD\test\Pain Drain\libraries\lvgl\src\core/lv_obj_tree.c ****         disp->screens = lv_mem_realloc(disp->screens, disp->screen_cnt * sizeof(lv_obj_t *));
 406:..\..\..\arduinoLCD\test\Pain Drain\libraries\lvgl\src\core/lv_obj_tree.c ****     }
 407:..\..\..\arduinoLCD\test\Pain Drain\libraries\lvgl\src\core/lv_obj_tree.c ****     /*Remove the object from the child list of its parent*/
 408:..\..\..\arduinoLCD\test\Pain Drain\libraries\lvgl\src\core/lv_obj_tree.c ****     else {
 409:..\..\..\arduinoLCD\test\Pain Drain\libraries\lvgl\src\core/lv_obj_tree.c ****         uint32_t id = lv_obj_get_index(obj);
 410:..\..\..\arduinoLCD\test\Pain Drain\libraries\lvgl\src\core/lv_obj_tree.c ****         uint32_t i;
 411:..\..\..\arduinoLCD\test\Pain Drain\libraries\lvgl\src\core/lv_obj_tree.c ****         for(i = id; i < obj->parent->spec_attr->child_cnt - 1; i++) {
 412:..\..\..\arduinoLCD\test\Pain Drain\libraries\lvgl\src\core/lv_obj_tree.c ****             obj->parent->spec_attr->children[i] = obj->parent->spec_attr->children[i + 1];
 413:..\..\..\arduinoLCD\test\Pain Drain\libraries\lvgl\src\core/lv_obj_tree.c ****         }
 414:..\..\..\arduinoLCD\test\Pain Drain\libraries\lvgl\src\core/lv_obj_tree.c ****         obj->parent->spec_attr->child_cnt--;
 415:..\..\..\arduinoLCD\test\Pain Drain\libraries\lvgl\src\core/lv_obj_tree.c ****         obj->parent->spec_attr->children = lv_mem_realloc(obj->parent->spec_attr->children,
 416:..\..\..\arduinoLCD\test\Pain Drain\libraries\lvgl\src\core/lv_obj_tree.c ****                                                           obj->parent->spec_attr->child_cnt * sizeo
 417:..\..\..\arduinoLCD\test\Pain Drain\libraries\lvgl\src\core/lv_obj_tree.c ****     }
 418:..\..\..\arduinoLCD\test\Pain Drain\libraries\lvgl\src\core/lv_obj_tree.c **** 
 419:..\..\..\arduinoLCD\test\Pain Drain\libraries\lvgl\src\core/lv_obj_tree.c ****     /*Free the object itself*/
 420:..\..\..\arduinoLCD\test\Pain Drain\libraries\lvgl\src\core/lv_obj_tree.c ****     lv_mem_free(obj);
 421:..\..\..\arduinoLCD\test\Pain Drain\libraries\lvgl\src\core/lv_obj_tree.c **** }
 422:..\..\..\arduinoLCD\test\Pain Drain\libraries\lvgl\src\core/lv_obj_tree.c **** 
 423:..\..\..\arduinoLCD\test\Pain Drain\libraries\lvgl\src\core/lv_obj_tree.c **** 
 424:..\..\..\arduinoLCD\test\Pain Drain\libraries\lvgl\src\core/lv_obj_tree.c **** static lv_obj_tree_walk_res_t walk_core(lv_obj_t * obj, lv_obj_tree_walk_cb_t cb, void * user_data)
 425:..\..\..\arduinoLCD\test\Pain Drain\libraries\lvgl\src\core/lv_obj_tree.c **** {
 405              		.loc 1 425 0
 406              		.cfi_startproc
 407              		@ args = 0, pretend = 0, frame = 0
 408              		@ frame_needed = 0, uses_anonymous_args = 0
 409              	.LVL53:
ARM GAS  C:\Users\haske\AppData\Local\Temp\ccU9uRZG.s 			page 20


 410 0000 F8B5     		push	{r3, r4, r5, r6, r7, lr}
 411              		.cfi_def_cfa_offset 24
 412              		.cfi_offset 3, -24
 413              		.cfi_offset 4, -20
 414              		.cfi_offset 5, -16
 415              		.cfi_offset 6, -12
 416              		.cfi_offset 7, -8
 417              		.cfi_offset 14, -4
 418 0002 0500     		movs	r5, r0
 419 0004 0E00     		movs	r6, r1
 420 0006 1700     		movs	r7, r2
 421              	.LVL54:
 426:..\..\..\arduinoLCD\test\Pain Drain\libraries\lvgl\src\core/lv_obj_tree.c ****     lv_obj_tree_walk_res_t res = LV_OBJ_TREE_WALK_NEXT;
 427:..\..\..\arduinoLCD\test\Pain Drain\libraries\lvgl\src\core/lv_obj_tree.c **** 
 428:..\..\..\arduinoLCD\test\Pain Drain\libraries\lvgl\src\core/lv_obj_tree.c ****     if(obj == NULL) {
 422              		.loc 1 428 0
 423 0008 0028     		cmp	r0, #0
 424 000a 19D1     		bne	.L34
 425              	.LBB24:
 429:..\..\..\arduinoLCD\test\Pain Drain\libraries\lvgl\src\core/lv_obj_tree.c ****         lv_disp_t * disp = lv_disp_get_next(NULL);
 426              		.loc 1 429 0
 427 000c 0020     		movs	r0, #0
 428              	.LVL55:
 429 000e FFF7FEFF 		bl	lv_disp_get_next
 430              	.LVL56:
 431 0012 0500     		movs	r5, r0
 432              	.LVL57:
 430:..\..\..\arduinoLCD\test\Pain Drain\libraries\lvgl\src\core/lv_obj_tree.c ****         while(disp) {
 433              		.loc 1 430 0
 434 0014 10E0     		b	.L35
 435              	.LVL58:
 436              	.L36:
 437              	.LBB25:
 431:..\..\..\arduinoLCD\test\Pain Drain\libraries\lvgl\src\core/lv_obj_tree.c ****             uint32_t i;
 432:..\..\..\arduinoLCD\test\Pain Drain\libraries\lvgl\src\core/lv_obj_tree.c ****             for(i = 0; i < disp->screen_cnt; i++) {
 433:..\..\..\arduinoLCD\test\Pain Drain\libraries\lvgl\src\core/lv_obj_tree.c ****                 walk_core(disp->screens[i], cb, user_data);
 438              		.loc 1 433 0 discriminator 3
 439 0016 A300     		lsls	r3, r4, #2
 440 0018 EA68     		ldr	r2, [r5, #12]
 441 001a D058     		ldr	r0, [r2, r3]
 442 001c 3A00     		movs	r2, r7
 443 001e 3100     		movs	r1, r6
 444 0020 FFF7EEFF 		bl	walk_core
 445              	.LVL59:
 432:..\..\..\arduinoLCD\test\Pain Drain\libraries\lvgl\src\core/lv_obj_tree.c ****                 walk_core(disp->screens[i], cb, user_data);
 446              		.loc 1 432 0 discriminator 3
 447 0024 0134     		adds	r4, r4, #1
 448              	.LVL60:
 449 0026 00E0     		b	.L37
 450              	.LVL61:
 451              	.L41:
 452              	.LBE25:
 453 0028 0024     		movs	r4, #0
 454              	.LVL62:
 455              	.L37:
 456              	.LBB26:
 432:..\..\..\arduinoLCD\test\Pain Drain\libraries\lvgl\src\core/lv_obj_tree.c ****                 walk_core(disp->screens[i], cb, user_data);
ARM GAS  C:\Users\haske\AppData\Local\Temp\ccU9uRZG.s 			page 21


 457              		.loc 1 432 0 is_stmt 0 discriminator 1
 458 002a 6B6A     		ldr	r3, [r5, #36]
 459 002c 9C42     		cmp	r4, r3
 460 002e F2D3     		bcc	.L36
 434:..\..\..\arduinoLCD\test\Pain Drain\libraries\lvgl\src\core/lv_obj_tree.c ****             }
 435:..\..\..\arduinoLCD\test\Pain Drain\libraries\lvgl\src\core/lv_obj_tree.c ****             disp = lv_disp_get_next(disp);
 461              		.loc 1 435 0 is_stmt 1
 462 0030 2800     		movs	r0, r5
 463 0032 FFF7FEFF 		bl	lv_disp_get_next
 464              	.LVL63:
 465 0036 0500     		movs	r5, r0
 466              	.LVL64:
 467              	.L35:
 468              	.LBE26:
 430:..\..\..\arduinoLCD\test\Pain Drain\libraries\lvgl\src\core/lv_obj_tree.c ****             uint32_t i;
 469              		.loc 1 430 0
 470 0038 002D     		cmp	r5, #0
 471 003a F5D1     		bne	.L41
 436:..\..\..\arduinoLCD\test\Pain Drain\libraries\lvgl\src\core/lv_obj_tree.c ****         }
 437:..\..\..\arduinoLCD\test\Pain Drain\libraries\lvgl\src\core/lv_obj_tree.c ****         return LV_OBJ_TREE_WALK_END;    /*The value doesn't matter as it wasn't called recursively*
 472              		.loc 1 437 0
 473 003c 0220     		movs	r0, #2
 474              	.LVL65:
 475 003e 1EE0     		b	.L38
 476              	.LVL66:
 477              	.L34:
 478              	.LBE24:
 438:..\..\..\arduinoLCD\test\Pain Drain\libraries\lvgl\src\core/lv_obj_tree.c ****     }
 439:..\..\..\arduinoLCD\test\Pain Drain\libraries\lvgl\src\core/lv_obj_tree.c **** 
 440:..\..\..\arduinoLCD\test\Pain Drain\libraries\lvgl\src\core/lv_obj_tree.c ****     res = cb(obj, user_data);
 479              		.loc 1 440 0
 480 0040 1100     		movs	r1, r2
 481              	.LVL67:
 482 0042 B047     		blx	r6
 483              	.LVL68:
 441:..\..\..\arduinoLCD\test\Pain Drain\libraries\lvgl\src\core/lv_obj_tree.c **** 
 442:..\..\..\arduinoLCD\test\Pain Drain\libraries\lvgl\src\core/lv_obj_tree.c ****     if(res == LV_OBJ_TREE_WALK_END) return LV_OBJ_TREE_WALK_END;
 484              		.loc 1 442 0
 485 0044 0228     		cmp	r0, #2
 486 0046 17D0     		beq	.L42
 443:..\..\..\arduinoLCD\test\Pain Drain\libraries\lvgl\src\core/lv_obj_tree.c **** 
 444:..\..\..\arduinoLCD\test\Pain Drain\libraries\lvgl\src\core/lv_obj_tree.c ****     if(res != LV_OBJ_TREE_WALK_SKIP_CHILDREN) {
 487              		.loc 1 444 0
 488 0048 0128     		cmp	r0, #1
 489 004a 0DD1     		bne	.L43
 445:..\..\..\arduinoLCD\test\Pain Drain\libraries\lvgl\src\core/lv_obj_tree.c ****         uint32_t i;
 446:..\..\..\arduinoLCD\test\Pain Drain\libraries\lvgl\src\core/lv_obj_tree.c ****         for(i = 0; i < lv_obj_get_child_cnt(obj); i++) {
 447:..\..\..\arduinoLCD\test\Pain Drain\libraries\lvgl\src\core/lv_obj_tree.c ****             res = walk_core(lv_obj_get_child(obj, i), cb, user_data);
 448:..\..\..\arduinoLCD\test\Pain Drain\libraries\lvgl\src\core/lv_obj_tree.c ****             if(res == LV_OBJ_TREE_WALK_END) return LV_OBJ_TREE_WALK_END;
 449:..\..\..\arduinoLCD\test\Pain Drain\libraries\lvgl\src\core/lv_obj_tree.c ****         }
 450:..\..\..\arduinoLCD\test\Pain Drain\libraries\lvgl\src\core/lv_obj_tree.c ****     }
 451:..\..\..\arduinoLCD\test\Pain Drain\libraries\lvgl\src\core/lv_obj_tree.c ****     return LV_OBJ_TREE_WALK_NEXT;
 490              		.loc 1 451 0
 491 004c 0020     		movs	r0, #0
 492              	.LVL69:
 493 004e 16E0     		b	.L38
 494              	.LVL70:
ARM GAS  C:\Users\haske\AppData\Local\Temp\ccU9uRZG.s 			page 22


 495              	.L40:
 496              	.LBB27:
 447:..\..\..\arduinoLCD\test\Pain Drain\libraries\lvgl\src\core/lv_obj_tree.c ****             if(res == LV_OBJ_TREE_WALK_END) return LV_OBJ_TREE_WALK_END;
 497              		.loc 1 447 0
 498 0050 2100     		movs	r1, r4
 499 0052 2800     		movs	r0, r5
 500 0054 FFF7FEFF 		bl	lv_obj_get_child
 501              	.LVL71:
 502 0058 3A00     		movs	r2, r7
 503 005a 3100     		movs	r1, r6
 504 005c FFF7D0FF 		bl	walk_core
 505              	.LVL72:
 448:..\..\..\arduinoLCD\test\Pain Drain\libraries\lvgl\src\core/lv_obj_tree.c ****         }
 506              		.loc 1 448 0
 507 0060 0228     		cmp	r0, #2
 508 0062 0BD0     		beq	.L44
 446:..\..\..\arduinoLCD\test\Pain Drain\libraries\lvgl\src\core/lv_obj_tree.c ****             res = walk_core(lv_obj_get_child(obj, i), cb, user_data);
 509              		.loc 1 446 0 discriminator 2
 510 0064 0134     		adds	r4, r4, #1
 511              	.LVL73:
 512 0066 00E0     		b	.L39
 513              	.LVL74:
 514              	.L43:
 515              	.LBE27:
 516 0068 0024     		movs	r4, #0
 517              	.LVL75:
 518              	.L39:
 519              	.LBB28:
 446:..\..\..\arduinoLCD\test\Pain Drain\libraries\lvgl\src\core/lv_obj_tree.c ****             res = walk_core(lv_obj_get_child(obj, i), cb, user_data);
 520              		.loc 1 446 0 is_stmt 0 discriminator 1
 521 006a 2800     		movs	r0, r5
 522 006c FFF7FEFF 		bl	lv_obj_get_child_cnt
 523              	.LVL76:
 524 0070 8442     		cmp	r4, r0
 525 0072 EDD3     		bcc	.L40
 526              	.LBE28:
 527              		.loc 1 451 0 is_stmt 1
 528 0074 0020     		movs	r0, #0
 529              	.LBB29:
 530 0076 02E0     		b	.L38
 531              	.LVL77:
 532              	.L42:
 533              	.LBE29:
 442:..\..\..\arduinoLCD\test\Pain Drain\libraries\lvgl\src\core/lv_obj_tree.c **** 
 534              		.loc 1 442 0
 535 0078 0220     		movs	r0, #2
 536              	.LVL78:
 537 007a 00E0     		b	.L38
 538              	.LVL79:
 539              	.L44:
 540              	.LBB30:
 448:..\..\..\arduinoLCD\test\Pain Drain\libraries\lvgl\src\core/lv_obj_tree.c ****         }
 541              		.loc 1 448 0
 542 007c 0220     		movs	r0, #2
 543              	.LVL80:
 544              	.L38:
 545              	.LBE30:
ARM GAS  C:\Users\haske\AppData\Local\Temp\ccU9uRZG.s 			page 23


 452:..\..\..\arduinoLCD\test\Pain Drain\libraries\lvgl\src\core/lv_obj_tree.c **** }
 546              		.loc 1 452 0
 547              		@ sp needed
 548              	.LVL81:
 549              	.LVL82:
 550 007e F8BD     		pop	{r3, r4, r5, r6, r7, pc}
 551              		.cfi_endproc
 552              	.LFE176:
 553              		.size	walk_core, .-walk_core
 554              		.section	.text.lv_obj_get_index,"ax",%progbits
 555              		.align	2
 556              		.global	lv_obj_get_index
 557              		.code	16
 558              		.thumb_func
 559              		.type	lv_obj_get_index, %function
 560              	lv_obj_get_index:
 561              	.LFB172:
 327:..\..\..\arduinoLCD\test\Pain Drain\libraries\lvgl\src\core/lv_obj_tree.c ****     LV_ASSERT_OBJ(obj, MY_CLASS);
 562              		.loc 1 327 0
 563              		.cfi_startproc
 564              		@ args = 0, pretend = 0, frame = 0
 565              		@ frame_needed = 0, uses_anonymous_args = 0
 566              	.LVL83:
 567 0000 70B5     		push	{r4, r5, r6, lr}
 568              		.cfi_def_cfa_offset 16
 569              		.cfi_offset 4, -16
 570              		.cfi_offset 5, -12
 571              		.cfi_offset 6, -8
 572              		.cfi_offset 14, -4
 573 0002 0600     		movs	r6, r0
 330:..\..\..\arduinoLCD\test\Pain Drain\libraries\lvgl\src\core/lv_obj_tree.c ****     if(parent == NULL) return 0;
 574              		.loc 1 330 0
 575 0004 FFF7FEFF 		bl	lv_obj_get_parent
 576              	.LVL84:
 577 0008 051E     		subs	r5, r0, #0
 578              	.LVL85:
 331:..\..\..\arduinoLCD\test\Pain Drain\libraries\lvgl\src\core/lv_obj_tree.c **** 
 579              		.loc 1 331 0
 580 000a 10D0     		beq	.L49
 581 000c 0024     		movs	r4, #0
 582 000e 06E0     		b	.L47
 583              	.LVL86:
 584              	.L48:
 335:..\..\..\arduinoLCD\test\Pain Drain\libraries\lvgl\src\core/lv_obj_tree.c ****     }
 585              		.loc 1 335 0
 586 0010 2100     		movs	r1, r4
 587 0012 2800     		movs	r0, r5
 588 0014 FFF7FEFF 		bl	lv_obj_get_child
 589              	.LVL87:
 590 0018 8642     		cmp	r6, r0
 591 001a 0AD0     		beq	.L50
 334:..\..\..\arduinoLCD\test\Pain Drain\libraries\lvgl\src\core/lv_obj_tree.c ****         if(lv_obj_get_child(parent, i) == obj) return i;
 592              		.loc 1 334 0 discriminator 2
 593 001c 0134     		adds	r4, r4, #1
 594              	.LVL88:
 595              	.L47:
 334:..\..\..\arduinoLCD\test\Pain Drain\libraries\lvgl\src\core/lv_obj_tree.c ****         if(lv_obj_get_child(parent, i) == obj) return i;
ARM GAS  C:\Users\haske\AppData\Local\Temp\ccU9uRZG.s 			page 24


 596              		.loc 1 334 0 is_stmt 0 discriminator 1
 597 001e 2800     		movs	r0, r5
 598 0020 FFF7FEFF 		bl	lv_obj_get_child_cnt
 599              	.LVL89:
 600 0024 8442     		cmp	r4, r0
 601 0026 F3D3     		bcc	.L48
 338:..\..\..\arduinoLCD\test\Pain Drain\libraries\lvgl\src\core/lv_obj_tree.c **** }
 602              		.loc 1 338 0 is_stmt 1
 603 0028 0120     		movs	r0, #1
 604 002a 4042     		rsbs	r0, r0, #0
 605 002c 02E0     		b	.L46
 606              	.LVL90:
 607              	.L49:
 331:..\..\..\arduinoLCD\test\Pain Drain\libraries\lvgl\src\core/lv_obj_tree.c **** 
 608              		.loc 1 331 0
 609 002e 0020     		movs	r0, #0
 610              	.LVL91:
 611 0030 00E0     		b	.L46
 612              	.LVL92:
 613              	.L50:
 335:..\..\..\arduinoLCD\test\Pain Drain\libraries\lvgl\src\core/lv_obj_tree.c ****     }
 614              		.loc 1 335 0
 615 0032 2000     		movs	r0, r4
 616              	.LVL93:
 617              	.L46:
 339:..\..\..\arduinoLCD\test\Pain Drain\libraries\lvgl\src\core/lv_obj_tree.c **** 
 618              		.loc 1 339 0
 619              		@ sp needed
 620              	.LVL94:
 621              	.LVL95:
 622 0034 70BD     		pop	{r4, r5, r6, pc}
 623              		.cfi_endproc
 624              	.LFE172:
 625              		.size	lv_obj_get_index, .-lv_obj_get_index
 626 0036 C046     		.section	.text.obj_del_core,"ax",%progbits
 627              		.align	2
 628              		.code	16
 629              		.thumb_func
 630              		.type	obj_del_core, %function
 631              	obj_del_core:
 632              	.LFB175:
 358:..\..\..\arduinoLCD\test\Pain Drain\libraries\lvgl\src\core/lv_obj_tree.c ****     /*Let the user free the resources used in `LV_EVENT_DELETE`*/
 633              		.loc 1 358 0
 634              		.cfi_startproc
 635              		@ args = 0, pretend = 0, frame = 0
 636              		@ frame_needed = 0, uses_anonymous_args = 0
 637              	.LVL96:
 638 0000 70B5     		push	{r4, r5, r6, lr}
 639              		.cfi_def_cfa_offset 16
 640              		.cfi_offset 4, -16
 641              		.cfi_offset 5, -12
 642              		.cfi_offset 6, -8
 643              		.cfi_offset 14, -4
 644 0002 0500     		movs	r5, r0
 360:..\..\..\arduinoLCD\test\Pain Drain\libraries\lvgl\src\core/lv_obj_tree.c ****     if(res == LV_RES_INV) return;
 645              		.loc 1 360 0
 646 0004 0022     		movs	r2, #0
ARM GAS  C:\Users\haske\AppData\Local\Temp\ccU9uRZG.s 			page 25


 647 0006 2121     		movs	r1, #33
 648 0008 FFF7FEFF 		bl	lv_event_send
 649              	.LVL97:
 361:..\..\..\arduinoLCD\test\Pain Drain\libraries\lvgl\src\core/lv_obj_tree.c **** 
 650              		.loc 1 361 0
 651 000c 0028     		cmp	r0, #0
 652 000e 78D0     		beq	.L51
 364:..\..\..\arduinoLCD\test\Pain Drain\libraries\lvgl\src\core/lv_obj_tree.c ****     while(child) {
 653              		.loc 1 364 0
 654 0010 0021     		movs	r1, #0
 655 0012 2800     		movs	r0, r5
 656              	.LVL98:
 657 0014 FFF7FEFF 		bl	lv_obj_get_child
 658              	.LVL99:
 365:..\..\..\arduinoLCD\test\Pain Drain\libraries\lvgl\src\core/lv_obj_tree.c ****         obj_del_core(child);
 659              		.loc 1 365 0
 660 0018 05E0     		b	.L53
 661              	.L54:
 366:..\..\..\arduinoLCD\test\Pain Drain\libraries\lvgl\src\core/lv_obj_tree.c ****         child = lv_obj_get_child(obj, 0);
 662              		.loc 1 366 0
 663 001a FFF7F1FF 		bl	obj_del_core
 664              	.LVL100:
 367:..\..\..\arduinoLCD\test\Pain Drain\libraries\lvgl\src\core/lv_obj_tree.c ****     }
 665              		.loc 1 367 0
 666 001e 0021     		movs	r1, #0
 667 0020 2800     		movs	r0, r5
 668 0022 FFF7FEFF 		bl	lv_obj_get_child
 669              	.LVL101:
 670              	.L53:
 365:..\..\..\arduinoLCD\test\Pain Drain\libraries\lvgl\src\core/lv_obj_tree.c ****         obj_del_core(child);
 671              		.loc 1 365 0
 672 0026 0028     		cmp	r0, #0
 673 0028 F7D1     		bne	.L54
 370:..\..\..\arduinoLCD\test\Pain Drain\libraries\lvgl\src\core/lv_obj_tree.c **** 
 674              		.loc 1 370 0
 675 002a 2800     		movs	r0, r5
 676              	.LVL102:
 677 002c FFF7FEFF 		bl	lv_obj_get_group
 678              	.LVL103:
 679 0030 0600     		movs	r6, r0
 680              	.LVL104:
 373:..\..\..\arduinoLCD\test\Pain Drain\libraries\lvgl\src\core/lv_obj_tree.c ****     while(indev) {
 681              		.loc 1 373 0
 682 0032 0020     		movs	r0, #0
 683              	.LVL105:
 684 0034 FFF7FEFF 		bl	lv_indev_get_next
 685              	.LVL106:
 686 0038 0400     		movs	r4, r0
 687              	.LVL107:
 374:..\..\..\arduinoLCD\test\Pain Drain\libraries\lvgl\src\core/lv_obj_tree.c ****         if(indev->proc.types.pointer.act_obj == obj || indev->proc.types.pointer.last_obj == obj) {
 688              		.loc 1 374 0
 689 003a 1DE0     		b	.L55
 690              	.L60:
 375:..\..\..\arduinoLCD\test\Pain Drain\libraries\lvgl\src\core/lv_obj_tree.c ****             lv_indev_reset(indev, obj);
 691              		.loc 1 375 0
 692 003c A36A     		ldr	r3, [r4, #40]
 693 003e 9D42     		cmp	r5, r3
ARM GAS  C:\Users\haske\AppData\Local\Temp\ccU9uRZG.s 			page 26


 694 0040 02D0     		beq	.L56
 375:..\..\..\arduinoLCD\test\Pain Drain\libraries\lvgl\src\core/lv_obj_tree.c ****             lv_indev_reset(indev, obj);
 695              		.loc 1 375 0 is_stmt 0 discriminator 1
 696 0042 E36A     		ldr	r3, [r4, #44]
 697 0044 9D42     		cmp	r5, r3
 698 0046 03D1     		bne	.L57
 699              	.L56:
 376:..\..\..\arduinoLCD\test\Pain Drain\libraries\lvgl\src\core/lv_obj_tree.c ****         }
 700              		.loc 1 376 0 is_stmt 1
 701 0048 2900     		movs	r1, r5
 702 004a 2000     		movs	r0, r4
 703              	.LVL108:
 704 004c FFF7FEFF 		bl	lv_indev_reset
 705              	.LVL109:
 706              	.L57:
 378:..\..\..\arduinoLCD\test\Pain Drain\libraries\lvgl\src\core/lv_obj_tree.c ****             indev->proc.types.pointer.last_pressed = NULL;
 707              		.loc 1 378 0
 708 0050 636B     		ldr	r3, [r4, #52]
 709 0052 9D42     		cmp	r5, r3
 710 0054 01D1     		bne	.L58
 379:..\..\..\arduinoLCD\test\Pain Drain\libraries\lvgl\src\core/lv_obj_tree.c ****         }
 711              		.loc 1 379 0
 712 0056 0023     		movs	r3, #0
 713 0058 6363     		str	r3, [r4, #52]
 714              	.L58:
 382:..\..\..\arduinoLCD\test\Pain Drain\libraries\lvgl\src\core/lv_obj_tree.c ****             lv_indev_reset(indev, obj);
 715              		.loc 1 382 0
 716 005a 636D     		ldr	r3, [r4, #84]
 717 005c 9E42     		cmp	r6, r3
 718 005e 07D1     		bne	.L59
 382:..\..\..\arduinoLCD\test\Pain Drain\libraries\lvgl\src\core/lv_obj_tree.c ****             lv_indev_reset(indev, obj);
 719              		.loc 1 382 0 is_stmt 0 discriminator 1
 720 0060 FFF7FEFF 		bl	lv_indev_get_obj_act
 721              	.LVL110:
 722 0064 8542     		cmp	r5, r0
 723 0066 03D1     		bne	.L59
 383:..\..\..\arduinoLCD\test\Pain Drain\libraries\lvgl\src\core/lv_obj_tree.c ****         }
 724              		.loc 1 383 0 is_stmt 1
 725 0068 2900     		movs	r1, r5
 726 006a 2000     		movs	r0, r4
 727 006c FFF7FEFF 		bl	lv_indev_reset
 728              	.LVL111:
 729              	.L59:
 385:..\..\..\arduinoLCD\test\Pain Drain\libraries\lvgl\src\core/lv_obj_tree.c ****     }
 730              		.loc 1 385 0
 731 0070 2000     		movs	r0, r4
 732 0072 FFF7FEFF 		bl	lv_indev_get_next
 733              	.LVL112:
 734 0076 0400     		movs	r4, r0
 735              	.LVL113:
 736              	.L55:
 374:..\..\..\arduinoLCD\test\Pain Drain\libraries\lvgl\src\core/lv_obj_tree.c ****         if(indev->proc.types.pointer.act_obj == obj || indev->proc.types.pointer.last_obj == obj) {
 737              		.loc 1 374 0
 738 0078 002C     		cmp	r4, #0
 739 007a DFD1     		bne	.L60
 389:..\..\..\arduinoLCD\test\Pain Drain\libraries\lvgl\src\core/lv_obj_tree.c **** 
 740              		.loc 1 389 0
ARM GAS  C:\Users\haske\AppData\Local\Temp\ccU9uRZG.s 			page 27


 741 007c 2800     		movs	r0, r5
 742              	.LVL114:
 743 007e FFF7FEFF 		bl	_lv_obj_destruct
 744              	.LVL115:
 392:..\..\..\arduinoLCD\test\Pain Drain\libraries\lvgl\src\core/lv_obj_tree.c ****         lv_disp_t * disp = lv_obj_get_disp(obj);
 745              		.loc 1 392 0
 746 0082 6B68     		ldr	r3, [r5, #4]
 747 0084 002B     		cmp	r3, #0
 748 0086 20D1     		bne	.L61
 749              	.LBB31:
 393:..\..\..\arduinoLCD\test\Pain Drain\libraries\lvgl\src\core/lv_obj_tree.c ****         uint32_t i;
 750              		.loc 1 393 0
 751 0088 2800     		movs	r0, r5
 752 008a FFF7FEFF 		bl	lv_obj_get_disp
 753              	.LVL116:
 754 008e 0400     		movs	r4, r0
 755              	.LVL117:
 396:..\..\..\arduinoLCD\test\Pain Drain\libraries\lvgl\src\core/lv_obj_tree.c ****             if(disp->screens[i] == obj) break;
 756              		.loc 1 396 0
 757 0090 0023     		movs	r3, #0
 758 0092 05E0     		b	.L62
 759              	.LVL118:
 760              	.L64:
 397:..\..\..\arduinoLCD\test\Pain Drain\libraries\lvgl\src\core/lv_obj_tree.c ****         }
 761              		.loc 1 397 0
 762 0094 9A00     		lsls	r2, r3, #2
 763 0096 E168     		ldr	r1, [r4, #12]
 764 0098 5258     		ldr	r2, [r2, r1]
 765 009a 9542     		cmp	r5, r2
 766 009c 0AD0     		beq	.L63
 396:..\..\..\arduinoLCD\test\Pain Drain\libraries\lvgl\src\core/lv_obj_tree.c ****             if(disp->screens[i] == obj) break;
 767              		.loc 1 396 0 discriminator 2
 768 009e 0133     		adds	r3, r3, #1
 769              	.LVL119:
 770              	.L62:
 396:..\..\..\arduinoLCD\test\Pain Drain\libraries\lvgl\src\core/lv_obj_tree.c ****             if(disp->screens[i] == obj) break;
 771              		.loc 1 396 0 is_stmt 0 discriminator 1
 772 00a0 626A     		ldr	r2, [r4, #36]
 773 00a2 9342     		cmp	r3, r2
 774 00a4 F6D3     		bcc	.L64
 775 00a6 05E0     		b	.L63
 776              	.LVL120:
 777              	.L65:
 402:..\..\..\arduinoLCD\test\Pain Drain\libraries\lvgl\src\core/lv_obj_tree.c ****         }
 778              		.loc 1 402 0 is_stmt 1 discriminator 3
 779 00a8 E268     		ldr	r2, [r4, #12]
 780 00aa 9900     		lsls	r1, r3, #2
 781 00ac 0133     		adds	r3, r3, #1
 782              	.LVL121:
 783 00ae 9800     		lsls	r0, r3, #2
 784 00b0 8058     		ldr	r0, [r0, r2]
 785 00b2 5050     		str	r0, [r2, r1]
 786              	.LVL122:
 787              	.L63:
 401:..\..\..\arduinoLCD\test\Pain Drain\libraries\lvgl\src\core/lv_obj_tree.c ****             disp->screens[i] = disp->screens[i + 1];
 788              		.loc 1 401 0 discriminator 1
 789 00b4 626A     		ldr	r2, [r4, #36]
ARM GAS  C:\Users\haske\AppData\Local\Temp\ccU9uRZG.s 			page 28


 790 00b6 511E     		subs	r1, r2, #1
 791 00b8 8B42     		cmp	r3, r1
 792 00ba F5D3     		bcc	.L65
 404:..\..\..\arduinoLCD\test\Pain Drain\libraries\lvgl\src\core/lv_obj_tree.c ****         disp->screens = lv_mem_realloc(disp->screens, disp->screen_cnt * sizeof(lv_obj_t *));
 793              		.loc 1 404 0
 794 00bc 6162     		str	r1, [r4, #36]
 405:..\..\..\arduinoLCD\test\Pain Drain\libraries\lvgl\src\core/lv_obj_tree.c ****     }
 795              		.loc 1 405 0
 796 00be 8900     		lsls	r1, r1, #2
 797 00c0 E068     		ldr	r0, [r4, #12]
 798 00c2 FFF7FEFF 		bl	lv_mem_realloc
 799              	.LVL123:
 800 00c6 E060     		str	r0, [r4, #12]
 801              	.LBE31:
 802 00c8 18E0     		b	.L66
 803              	.LVL124:
 804              	.L61:
 805              	.LBB32:
 409:..\..\..\arduinoLCD\test\Pain Drain\libraries\lvgl\src\core/lv_obj_tree.c ****         uint32_t i;
 806              		.loc 1 409 0
 807 00ca 2800     		movs	r0, r5
 808 00cc FFF7FEFF 		bl	lv_obj_get_index
 809              	.LVL125:
 411:..\..\..\arduinoLCD\test\Pain Drain\libraries\lvgl\src\core/lv_obj_tree.c ****             obj->parent->spec_attr->children[i] = obj->parent->spec_attr->children[i + 1];
 810              		.loc 1 411 0
 811 00d0 05E0     		b	.L67
 812              	.LVL126:
 813              	.L68:
 412:..\..\..\arduinoLCD\test\Pain Drain\libraries\lvgl\src\core/lv_obj_tree.c ****         }
 814              		.loc 1 412 0 discriminator 3
 815 00d2 1368     		ldr	r3, [r2]
 816 00d4 8200     		lsls	r2, r0, #2
 817 00d6 0130     		adds	r0, r0, #1
 818              	.LVL127:
 819 00d8 8100     		lsls	r1, r0, #2
 820 00da C958     		ldr	r1, [r1, r3]
 821 00dc 9950     		str	r1, [r3, r2]
 822              	.LVL128:
 823              	.L67:
 411:..\..\..\arduinoLCD\test\Pain Drain\libraries\lvgl\src\core/lv_obj_tree.c ****             obj->parent->spec_attr->children[i] = obj->parent->spec_attr->children[i + 1];
 824              		.loc 1 411 0 discriminator 1
 825 00de 6B68     		ldr	r3, [r5, #4]
 826 00e0 9A68     		ldr	r2, [r3, #8]
 827 00e2 5368     		ldr	r3, [r2, #4]
 828 00e4 013B     		subs	r3, r3, #1
 829 00e6 9842     		cmp	r0, r3
 830 00e8 F3D3     		bcc	.L68
 414:..\..\..\arduinoLCD\test\Pain Drain\libraries\lvgl\src\core/lv_obj_tree.c ****         obj->parent->spec_attr->children = lv_mem_realloc(obj->parent->spec_attr->children,
 831              		.loc 1 414 0
 832 00ea 5360     		str	r3, [r2, #4]
 415:..\..\..\arduinoLCD\test\Pain Drain\libraries\lvgl\src\core/lv_obj_tree.c ****                                                           obj->parent->spec_attr->child_cnt * sizeo
 833              		.loc 1 415 0
 834 00ec 6B68     		ldr	r3, [r5, #4]
 835 00ee 9C68     		ldr	r4, [r3, #8]
 836              	.LVL129:
 416:..\..\..\arduinoLCD\test\Pain Drain\libraries\lvgl\src\core/lv_obj_tree.c ****     }
 837              		.loc 1 416 0
ARM GAS  C:\Users\haske\AppData\Local\Temp\ccU9uRZG.s 			page 29


 838 00f0 6368     		ldr	r3, [r4, #4]
 839 00f2 9900     		lsls	r1, r3, #2
 415:..\..\..\arduinoLCD\test\Pain Drain\libraries\lvgl\src\core/lv_obj_tree.c ****                                                           obj->parent->spec_attr->child_cnt * sizeo
 840              		.loc 1 415 0
 841 00f4 2068     		ldr	r0, [r4]
 842              	.LVL130:
 843 00f6 FFF7FEFF 		bl	lv_mem_realloc
 844              	.LVL131:
 845 00fa 2060     		str	r0, [r4]
 846              	.L66:
 847              	.LBE32:
 420:..\..\..\arduinoLCD\test\Pain Drain\libraries\lvgl\src\core/lv_obj_tree.c **** }
 848              		.loc 1 420 0
 849 00fc 2800     		movs	r0, r5
 850 00fe FFF7FEFF 		bl	lv_mem_free
 851              	.LVL132:
 852              	.L51:
 421:..\..\..\arduinoLCD\test\Pain Drain\libraries\lvgl\src\core/lv_obj_tree.c **** 
 853              		.loc 1 421 0
 854              		@ sp needed
 855              	.LVL133:
 856 0102 70BD     		pop	{r4, r5, r6, pc}
 857              		.cfi_endproc
 858              	.LFE175:
 859              		.size	obj_del_core, .-obj_del_core
 860              		.section	.text.lv_obj_del,"ax",%progbits
 861              		.align	2
 862              		.global	lv_obj_del
 863              		.code	16
 864              		.thumb_func
 865              		.type	lv_obj_del, %function
 866              	lv_obj_del:
 867              	.LFB159:
  46:..\..\..\arduinoLCD\test\Pain Drain\libraries\lvgl\src\core/lv_obj_tree.c ****     LV_LOG_TRACE("begin (delete %p)", (void *)obj);
 868              		.loc 1 46 0
 869              		.cfi_startproc
 870              		@ args = 0, pretend = 0, frame = 0
 871              		@ frame_needed = 0, uses_anonymous_args = 0
 872              	.LVL134:
 873 0000 F8B5     		push	{r3, r4, r5, r6, r7, lr}
 874              		.cfi_def_cfa_offset 24
 875              		.cfi_offset 3, -24
 876              		.cfi_offset 4, -20
 877              		.cfi_offset 5, -16
 878              		.cfi_offset 6, -12
 879              		.cfi_offset 7, -8
 880              		.cfi_offset 14, -4
 881 0002 0500     		movs	r5, r0
  49:..\..\..\arduinoLCD\test\Pain Drain\libraries\lvgl\src\core/lv_obj_tree.c **** 
 882              		.loc 1 49 0
 883 0004 FFF7FEFF 		bl	lv_obj_invalidate
 884              	.LVL135:
  51:..\..\..\arduinoLCD\test\Pain Drain\libraries\lvgl\src\core/lv_obj_tree.c ****     if(par) {
 885              		.loc 1 51 0
 886 0008 2800     		movs	r0, r5
 887 000a FFF7FEFF 		bl	lv_obj_get_parent
 888              	.LVL136:
ARM GAS  C:\Users\haske\AppData\Local\Temp\ccU9uRZG.s 			page 30


 889 000e 041E     		subs	r4, r0, #0
 890              	.LVL137:
  52:..\..\..\arduinoLCD\test\Pain Drain\libraries\lvgl\src\core/lv_obj_tree.c ****         lv_obj_scrollbar_invalidate(par);
 891              		.loc 1 52 0
 892 0010 01D0     		beq	.L70
  53:..\..\..\arduinoLCD\test\Pain Drain\libraries\lvgl\src\core/lv_obj_tree.c ****     }
 893              		.loc 1 53 0
 894 0012 FFF7FEFF 		bl	lv_obj_scrollbar_invalidate
 895              	.LVL138:
 896              	.L70:
  58:..\..\..\arduinoLCD\test\Pain Drain\libraries\lvgl\src\core/lv_obj_tree.c ****         disp = lv_obj_get_disp(obj);
 897              		.loc 1 58 0
 898 0016 002C     		cmp	r4, #0
 899 0018 09D1     		bne	.L74
  59:..\..\..\arduinoLCD\test\Pain Drain\libraries\lvgl\src\core/lv_obj_tree.c ****         if(!disp) return;   /*Shouldn't happen*/
 900              		.loc 1 59 0
 901 001a 2800     		movs	r0, r5
 902 001c FFF7FEFF 		bl	lv_obj_get_disp
 903              	.LVL139:
 904 0020 071E     		subs	r7, r0, #0
 905              	.LVL140:
  60:..\..\..\arduinoLCD\test\Pain Drain\libraries\lvgl\src\core/lv_obj_tree.c ****         if(disp->act_scr == obj) act_scr_del = true;
 906              		.loc 1 60 0
 907 0022 25D0     		beq	.L69
  61:..\..\..\arduinoLCD\test\Pain Drain\libraries\lvgl\src\core/lv_obj_tree.c ****     }
 908              		.loc 1 61 0
 909 0024 0369     		ldr	r3, [r0, #16]
 910 0026 9D42     		cmp	r5, r3
 911 0028 04D0     		beq	.L75
  57:..\..\..\arduinoLCD\test\Pain Drain\libraries\lvgl\src\core/lv_obj_tree.c ****     if(par == NULL) {
 912              		.loc 1 57 0
 913 002a 0026     		movs	r6, #0
 914 002c 03E0     		b	.L71
 915              	.LVL141:
 916              	.L74:
 917 002e 0026     		movs	r6, #0
  56:..\..\..\arduinoLCD\test\Pain Drain\libraries\lvgl\src\core/lv_obj_tree.c ****     bool act_scr_del = false;
 918              		.loc 1 56 0
 919 0030 0027     		movs	r7, #0
 920 0032 00E0     		b	.L71
 921              	.LVL142:
 922              	.L75:
  61:..\..\..\arduinoLCD\test\Pain Drain\libraries\lvgl\src\core/lv_obj_tree.c ****     }
 923              		.loc 1 61 0
 924 0034 0126     		movs	r6, #1
 925              	.LVL143:
 926              	.L71:
  64:..\..\..\arduinoLCD\test\Pain Drain\libraries\lvgl\src\core/lv_obj_tree.c **** 
 927              		.loc 1 64 0
 928 0036 2800     		movs	r0, r5
 929 0038 FFF7FEFF 		bl	obj_del_core
 930              	.LVL144:
  67:..\..\..\arduinoLCD\test\Pain Drain\libraries\lvgl\src\core/lv_obj_tree.c ****         lv_obj_update_layout(par);
 931              		.loc 1 67 0
 932 003c 002C     		cmp	r4, #0
 933 003e 13D0     		beq	.L73
  68:..\..\..\arduinoLCD\test\Pain Drain\libraries\lvgl\src\core/lv_obj_tree.c ****         lv_obj_readjust_scroll(par, LV_ANIM_OFF);
ARM GAS  C:\Users\haske\AppData\Local\Temp\ccU9uRZG.s 			page 31


 934              		.loc 1 68 0
 935 0040 2000     		movs	r0, r4
 936 0042 FFF7FEFF 		bl	lv_obj_update_layout
 937              	.LVL145:
  69:..\..\..\arduinoLCD\test\Pain Drain\libraries\lvgl\src\core/lv_obj_tree.c ****         lv_obj_scrollbar_invalidate(par);
 938              		.loc 1 69 0
 939 0046 0021     		movs	r1, #0
 940 0048 2000     		movs	r0, r4
 941 004a FFF7FEFF 		bl	lv_obj_readjust_scroll
 942              	.LVL146:
  70:..\..\..\arduinoLCD\test\Pain Drain\libraries\lvgl\src\core/lv_obj_tree.c ****         lv_event_send(par, LV_EVENT_CHILD_CHANGED, NULL);
 943              		.loc 1 70 0
 944 004e 2000     		movs	r0, r4
 945 0050 FFF7FEFF 		bl	lv_obj_scrollbar_invalidate
 946              	.LVL147:
  71:..\..\..\arduinoLCD\test\Pain Drain\libraries\lvgl\src\core/lv_obj_tree.c ****         lv_event_send(par, LV_EVENT_CHILD_DELETED, NULL);
 947              		.loc 1 71 0
 948 0054 0022     		movs	r2, #0
 949 0056 2221     		movs	r1, #34
 950 0058 2000     		movs	r0, r4
 951 005a FFF7FEFF 		bl	lv_event_send
 952              	.LVL148:
  72:..\..\..\arduinoLCD\test\Pain Drain\libraries\lvgl\src\core/lv_obj_tree.c ****     }
 953              		.loc 1 72 0
 954 005e 0022     		movs	r2, #0
 955 0060 2421     		movs	r1, #36
 956 0062 2000     		movs	r0, r4
 957 0064 FFF7FEFF 		bl	lv_event_send
 958              	.LVL149:
 959              	.L73:
  76:..\..\..\arduinoLCD\test\Pain Drain\libraries\lvgl\src\core/lv_obj_tree.c ****         LV_LOG_WARN("the active screen was deleted");
 960              		.loc 1 76 0
 961 0068 002E     		cmp	r6, #0
 962 006a 01D0     		beq	.L69
  78:..\..\..\arduinoLCD\test\Pain Drain\libraries\lvgl\src\core/lv_obj_tree.c ****     }
 963              		.loc 1 78 0
 964 006c 0023     		movs	r3, #0
 965 006e 3B61     		str	r3, [r7, #16]
 966              	.LVL150:
 967              	.L69:
  83:..\..\..\arduinoLCD\test\Pain Drain\libraries\lvgl\src\core/lv_obj_tree.c **** 
 968              		.loc 1 83 0
 969              		@ sp needed
 970              	.LVL151:
 971              	.LVL152:
 972              	.LVL153:
 973 0070 F8BD     		pop	{r3, r4, r5, r6, r7, pc}
 974              		.cfi_endproc
 975              	.LFE159:
 976              		.size	lv_obj_del, .-lv_obj_del
 977 0072 C046     		.section	.text.lv_obj_del_anim_ready_cb,"ax",%progbits
 978              		.align	2
 979              		.global	lv_obj_del_anim_ready_cb
 980              		.code	16
 981              		.thumb_func
 982              		.type	lv_obj_del_anim_ready_cb, %function
 983              	lv_obj_del_anim_ready_cb:
ARM GAS  C:\Users\haske\AppData\Local\Temp\ccU9uRZG.s 			page 32


 984              	.LFB162:
 122:..\..\..\arduinoLCD\test\Pain Drain\libraries\lvgl\src\core/lv_obj_tree.c ****     lv_obj_del(a->var);
 985              		.loc 1 122 0
 986              		.cfi_startproc
 987              		@ args = 0, pretend = 0, frame = 0
 988              		@ frame_needed = 0, uses_anonymous_args = 0
 989              	.LVL154:
 990 0000 10B5     		push	{r4, lr}
 991              		.cfi_def_cfa_offset 8
 992              		.cfi_offset 4, -8
 993              		.cfi_offset 14, -4
 123:..\..\..\arduinoLCD\test\Pain Drain\libraries\lvgl\src\core/lv_obj_tree.c **** }
 994              		.loc 1 123 0
 995 0002 0068     		ldr	r0, [r0]
 996              	.LVL155:
 997 0004 FFF7FEFF 		bl	lv_obj_del
 998              	.LVL156:
 124:..\..\..\arduinoLCD\test\Pain Drain\libraries\lvgl\src\core/lv_obj_tree.c **** 
 999              		.loc 1 124 0
 1000              		@ sp needed
 1001 0008 10BD     		pop	{r4, pc}
 1002              		.cfi_endproc
 1003              	.LFE162:
 1004              		.size	lv_obj_del_anim_ready_cb, .-lv_obj_del_anim_ready_cb
 1005 000a C046     		.section	.text.lv_obj_del_async_cb,"ax",%progbits
 1006              		.align	2
 1007              		.code	16
 1008              		.thumb_func
 1009              		.type	lv_obj_del_async_cb, %function
 1010              	lv_obj_del_async_cb:
 1011              	.LFB174:
 351:..\..\..\arduinoLCD\test\Pain Drain\libraries\lvgl\src\core/lv_obj_tree.c ****     LV_ASSERT_OBJ(obj, MY_CLASS);
 1012              		.loc 1 351 0
 1013              		.cfi_startproc
 1014              		@ args = 0, pretend = 0, frame = 0
 1015              		@ frame_needed = 0, uses_anonymous_args = 0
 1016              	.LVL157:
 1017 0000 10B5     		push	{r4, lr}
 1018              		.cfi_def_cfa_offset 8
 1019              		.cfi_offset 4, -8
 1020              		.cfi_offset 14, -4
 354:..\..\..\arduinoLCD\test\Pain Drain\libraries\lvgl\src\core/lv_obj_tree.c **** }
 1021              		.loc 1 354 0
 1022 0002 FFF7FEFF 		bl	lv_obj_del
 1023              	.LVL158:
 355:..\..\..\arduinoLCD\test\Pain Drain\libraries\lvgl\src\core/lv_obj_tree.c **** 
 1024              		.loc 1 355 0
 1025              		@ sp needed
 1026 0006 10BD     		pop	{r4, pc}
 1027              		.cfi_endproc
 1028              	.LFE174:
 1029              		.size	lv_obj_del_async_cb, .-lv_obj_del_async_cb
 1030              		.section	.text.lv_obj_clean,"ax",%progbits
 1031              		.align	2
 1032              		.global	lv_obj_clean
 1033              		.code	16
 1034              		.thumb_func
ARM GAS  C:\Users\haske\AppData\Local\Temp\ccU9uRZG.s 			page 33


 1035              		.type	lv_obj_clean, %function
 1036              	lv_obj_clean:
 1037              	.LFB160:
  86:..\..\..\arduinoLCD\test\Pain Drain\libraries\lvgl\src\core/lv_obj_tree.c ****     LV_LOG_TRACE("begin (delete %p)", (void *)obj);
 1038              		.loc 1 86 0
 1039              		.cfi_startproc
 1040              		@ args = 0, pretend = 0, frame = 0
 1041              		@ frame_needed = 0, uses_anonymous_args = 0
 1042              	.LVL159:
 1043 0000 10B5     		push	{r4, lr}
 1044              		.cfi_def_cfa_offset 8
 1045              		.cfi_offset 4, -8
 1046              		.cfi_offset 14, -4
 1047 0002 0400     		movs	r4, r0
  90:..\..\..\arduinoLCD\test\Pain Drain\libraries\lvgl\src\core/lv_obj_tree.c **** 
 1048              		.loc 1 90 0
 1049 0004 FFF7FEFF 		bl	lv_obj_invalidate
 1050              	.LVL160:
  92:..\..\..\arduinoLCD\test\Pain Drain\libraries\lvgl\src\core/lv_obj_tree.c ****     while(child) {
 1051              		.loc 1 92 0
 1052 0008 0021     		movs	r1, #0
 1053 000a 2000     		movs	r0, r4
 1054 000c FFF7FEFF 		bl	lv_obj_get_child
 1055              	.LVL161:
  93:..\..\..\arduinoLCD\test\Pain Drain\libraries\lvgl\src\core/lv_obj_tree.c ****         obj_del_core(child);
 1056              		.loc 1 93 0
 1057 0010 05E0     		b	.L79
 1058              	.L80:
  94:..\..\..\arduinoLCD\test\Pain Drain\libraries\lvgl\src\core/lv_obj_tree.c ****         child = lv_obj_get_child(obj, 0);
 1059              		.loc 1 94 0
 1060 0012 FFF7FEFF 		bl	obj_del_core
 1061              	.LVL162:
  95:..\..\..\arduinoLCD\test\Pain Drain\libraries\lvgl\src\core/lv_obj_tree.c ****     }
 1062              		.loc 1 95 0
 1063 0016 0021     		movs	r1, #0
 1064 0018 2000     		movs	r0, r4
 1065 001a FFF7FEFF 		bl	lv_obj_get_child
 1066              	.LVL163:
 1067              	.L79:
  93:..\..\..\arduinoLCD\test\Pain Drain\libraries\lvgl\src\core/lv_obj_tree.c ****         obj_del_core(child);
 1068              		.loc 1 93 0
 1069 001e 0028     		cmp	r0, #0
 1070 0020 F7D1     		bne	.L80
  98:..\..\..\arduinoLCD\test\Pain Drain\libraries\lvgl\src\core/lv_obj_tree.c ****     if(obj->spec_attr) {
 1071              		.loc 1 98 0
 1072 0022 0023     		movs	r3, #0
 1073 0024 0022     		movs	r2, #0
 1074 0026 0021     		movs	r1, #0
 1075 0028 2000     		movs	r0, r4
 1076              	.LVL164:
 1077 002a FFF7FEFF 		bl	lv_obj_scroll_to
 1078              	.LVL165:
  99:..\..\..\arduinoLCD\test\Pain Drain\libraries\lvgl\src\core/lv_obj_tree.c ****         obj->spec_attr->scroll.x = 0;
 1079              		.loc 1 99 0
 1080 002e A368     		ldr	r3, [r4, #8]
 1081 0030 002B     		cmp	r3, #0
 1082 0032 03D0     		beq	.L78
ARM GAS  C:\Users\haske\AppData\Local\Temp\ccU9uRZG.s 			page 34


 100:..\..\..\arduinoLCD\test\Pain Drain\libraries\lvgl\src\core/lv_obj_tree.c ****         obj->spec_attr->scroll.y = 0;
 1083              		.loc 1 100 0
 1084 0034 0022     		movs	r2, #0
 1085 0036 1A82     		strh	r2, [r3, #16]
 101:..\..\..\arduinoLCD\test\Pain Drain\libraries\lvgl\src\core/lv_obj_tree.c ****     }
 1086              		.loc 1 101 0
 1087 0038 A368     		ldr	r3, [r4, #8]
 1088 003a 5A82     		strh	r2, [r3, #18]
 1089              	.L78:
 107:..\..\..\arduinoLCD\test\Pain Drain\libraries\lvgl\src\core/lv_obj_tree.c **** 
 1090              		.loc 1 107 0
 1091              		@ sp needed
 1092              	.LVL166:
 1093 003c 10BD     		pop	{r4, pc}
 1094              		.cfi_endproc
 1095              	.LFE160:
 1096              		.size	lv_obj_clean, .-lv_obj_clean
 1097 003e C046     		.section	.text.lv_obj_set_parent,"ax",%progbits
 1098              		.align	2
 1099              		.global	lv_obj_set_parent
 1100              		.code	16
 1101              		.thumb_func
 1102              		.type	lv_obj_set_parent, %function
 1103              	lv_obj_set_parent:
 1104              	.LFB164:
 133:..\..\..\arduinoLCD\test\Pain Drain\libraries\lvgl\src\core/lv_obj_tree.c ****     LV_ASSERT_OBJ(obj, MY_CLASS);
 1105              		.loc 1 133 0
 1106              		.cfi_startproc
 1107              		@ args = 0, pretend = 0, frame = 0
 1108              		@ frame_needed = 0, uses_anonymous_args = 0
 1109              	.LVL167:
 1110 0000 F8B5     		push	{r3, r4, r5, r6, r7, lr}
 1111              		.cfi_def_cfa_offset 24
 1112              		.cfi_offset 3, -24
 1113              		.cfi_offset 4, -20
 1114              		.cfi_offset 5, -16
 1115              		.cfi_offset 6, -12
 1116              		.cfi_offset 7, -8
 1117              		.cfi_offset 14, -4
 1118 0002 0600     		movs	r6, r0
 1119 0004 0F00     		movs	r7, r1
 137:..\..\..\arduinoLCD\test\Pain Drain\libraries\lvgl\src\core/lv_obj_tree.c ****         LV_LOG_WARN("Can't set the parent of a screen");
 1120              		.loc 1 137 0
 1121 0006 4368     		ldr	r3, [r0, #4]
 1122 0008 002B     		cmp	r3, #0
 1123 000a 64D0     		beq	.L82
 142:..\..\..\arduinoLCD\test\Pain Drain\libraries\lvgl\src\core/lv_obj_tree.c ****         LV_LOG_WARN("Can't set parent == NULL to an object");
 1124              		.loc 1 142 0
 1125 000c 0029     		cmp	r1, #0
 1126 000e 62D0     		beq	.L82
 147:..\..\..\arduinoLCD\test\Pain Drain\libraries\lvgl\src\core/lv_obj_tree.c **** 
 1127              		.loc 1 147 0
 1128 0010 FFF7FEFF 		bl	lv_obj_invalidate
 1129              	.LVL168:
 149:..\..\..\arduinoLCD\test\Pain Drain\libraries\lvgl\src\core/lv_obj_tree.c **** 
 1130              		.loc 1 149 0
 1131 0014 3800     		movs	r0, r7
ARM GAS  C:\Users\haske\AppData\Local\Temp\ccU9uRZG.s 			page 35


 1132 0016 FFF7FEFF 		bl	lv_obj_allocate_spec_attr
 1133              	.LVL169:
 151:..\..\..\arduinoLCD\test\Pain Drain\libraries\lvgl\src\core/lv_obj_tree.c ****     /*Remove the object from the old parent's child list*/
 1134              		.loc 1 151 0
 1135 001a 7568     		ldr	r5, [r6, #4]
 1136              	.LVL170:
 154:..\..\..\arduinoLCD\test\Pain Drain\libraries\lvgl\src\core/lv_obj_tree.c ****         old_parent->spec_attr->children[i] = old_parent->spec_attr->children[i + 1];
 1137              		.loc 1 154 0
 1138 001c 3000     		movs	r0, r6
 1139 001e FFF7FEFF 		bl	lv_obj_get_index
 1140              	.LVL171:
 1141 0022 0400     		movs	r4, r0
 1142              	.LVL172:
 1143 0024 06E0     		b	.L84
 1144              	.LVL173:
 1145              	.L85:
 155:..\..\..\arduinoLCD\test\Pain Drain\libraries\lvgl\src\core/lv_obj_tree.c ****     }
 1146              		.loc 1 155 0 discriminator 3
 1147 0026 AB68     		ldr	r3, [r5, #8]
 1148 0028 1B68     		ldr	r3, [r3]
 1149 002a A200     		lsls	r2, r4, #2
 1150 002c 0134     		adds	r4, r4, #1
 1151              	.LVL174:
 1152 002e A100     		lsls	r1, r4, #2
 1153 0030 C958     		ldr	r1, [r1, r3]
 1154 0032 9950     		str	r1, [r3, r2]
 1155              	.LVL175:
 1156              	.L84:
 154:..\..\..\arduinoLCD\test\Pain Drain\libraries\lvgl\src\core/lv_obj_tree.c ****         old_parent->spec_attr->children[i] = old_parent->spec_attr->children[i + 1];
 1157              		.loc 1 154 0 discriminator 1
 1158 0034 2800     		movs	r0, r5
 1159 0036 FFF7FEFF 		bl	lv_obj_get_child_cnt
 1160              	.LVL176:
 1161 003a 0238     		subs	r0, r0, #2
 1162 003c 8442     		cmp	r4, r0
 1163 003e F2DD     		ble	.L85
 157:..\..\..\arduinoLCD\test\Pain Drain\libraries\lvgl\src\core/lv_obj_tree.c ****     if(old_parent->spec_attr->child_cnt) {
 1164              		.loc 1 157 0
 1165 0040 AA68     		ldr	r2, [r5, #8]
 1166 0042 5368     		ldr	r3, [r2, #4]
 1167 0044 013B     		subs	r3, r3, #1
 1168 0046 5360     		str	r3, [r2, #4]
 158:..\..\..\arduinoLCD\test\Pain Drain\libraries\lvgl\src\core/lv_obj_tree.c ****         old_parent->spec_attr->children = lv_mem_realloc(old_parent->spec_attr->children,
 1169              		.loc 1 158 0
 1170 0048 AC68     		ldr	r4, [r5, #8]
 1171              	.LVL177:
 1172 004a 6168     		ldr	r1, [r4, #4]
 1173 004c 0029     		cmp	r1, #0
 1174 004e 05D0     		beq	.L86
 160:..\..\..\arduinoLCD\test\Pain Drain\libraries\lvgl\src\core/lv_obj_tree.c ****     }
 1175              		.loc 1 160 0
 1176 0050 8900     		lsls	r1, r1, #2
 159:..\..\..\arduinoLCD\test\Pain Drain\libraries\lvgl\src\core/lv_obj_tree.c ****                                                          old_parent->spec_attr->child_cnt * (sizeof
 1177              		.loc 1 159 0
 1178 0052 2068     		ldr	r0, [r4]
 1179 0054 FFF7FEFF 		bl	lv_mem_realloc
 1180              	.LVL178:
ARM GAS  C:\Users\haske\AppData\Local\Temp\ccU9uRZG.s 			page 36


 1181 0058 2060     		str	r0, [r4]
 1182 005a 05E0     		b	.L87
 1183              	.L86:
 163:..\..\..\arduinoLCD\test\Pain Drain\libraries\lvgl\src\core/lv_obj_tree.c ****         old_parent->spec_attr->children = NULL;
 1184              		.loc 1 163 0
 1185 005c 2068     		ldr	r0, [r4]
 1186 005e FFF7FEFF 		bl	lv_mem_free
 1187              	.LVL179:
 164:..\..\..\arduinoLCD\test\Pain Drain\libraries\lvgl\src\core/lv_obj_tree.c ****     }
 1188              		.loc 1 164 0
 1189 0062 AB68     		ldr	r3, [r5, #8]
 1190 0064 0022     		movs	r2, #0
 1191 0066 1A60     		str	r2, [r3]
 1192              	.L87:
 168:..\..\..\arduinoLCD\test\Pain Drain\libraries\lvgl\src\core/lv_obj_tree.c ****     parent->spec_attr->children = lv_mem_realloc(parent->spec_attr->children,
 1193              		.loc 1 168 0
 1194 0068 BA68     		ldr	r2, [r7, #8]
 1195 006a 5368     		ldr	r3, [r2, #4]
 1196 006c 0133     		adds	r3, r3, #1
 1197 006e 5360     		str	r3, [r2, #4]
 169:..\..\..\arduinoLCD\test\Pain Drain\libraries\lvgl\src\core/lv_obj_tree.c ****                                                  parent->spec_attr->child_cnt * (sizeof(lv_obj_t *)
 1198              		.loc 1 169 0
 1199 0070 BC68     		ldr	r4, [r7, #8]
 170:..\..\..\arduinoLCD\test\Pain Drain\libraries\lvgl\src\core/lv_obj_tree.c ****     parent->spec_attr->children[lv_obj_get_child_cnt(parent) - 1] = obj;
 1200              		.loc 1 170 0
 1201 0072 6368     		ldr	r3, [r4, #4]
 1202 0074 9900     		lsls	r1, r3, #2
 169:..\..\..\arduinoLCD\test\Pain Drain\libraries\lvgl\src\core/lv_obj_tree.c ****                                                  parent->spec_attr->child_cnt * (sizeof(lv_obj_t *)
 1203              		.loc 1 169 0
 1204 0076 2068     		ldr	r0, [r4]
 1205 0078 FFF7FEFF 		bl	lv_mem_realloc
 1206              	.LVL180:
 1207 007c 2060     		str	r0, [r4]
 171:..\..\..\arduinoLCD\test\Pain Drain\libraries\lvgl\src\core/lv_obj_tree.c **** 
 1208              		.loc 1 171 0
 1209 007e BB68     		ldr	r3, [r7, #8]
 1210 0080 1C68     		ldr	r4, [r3]
 1211 0082 3800     		movs	r0, r7
 1212 0084 FFF7FEFF 		bl	lv_obj_get_child_cnt
 1213              	.LVL181:
 1214 0088 134B     		ldr	r3, .L88
 1215 008a 9C46     		mov	ip, r3
 1216 008c 6044     		add	r0, r0, ip
 1217 008e 8000     		lsls	r0, r0, #2
 1218 0090 2650     		str	r6, [r4, r0]
 173:..\..\..\arduinoLCD\test\Pain Drain\libraries\lvgl\src\core/lv_obj_tree.c **** 
 1219              		.loc 1 173 0
 1220 0092 7760     		str	r7, [r6, #4]
 176:..\..\..\arduinoLCD\test\Pain Drain\libraries\lvgl\src\core/lv_obj_tree.c ****     lv_obj_scrollbar_invalidate(old_parent);
 1221              		.loc 1 176 0
 1222 0094 0021     		movs	r1, #0
 1223 0096 2800     		movs	r0, r5
 1224 0098 FFF7FEFF 		bl	lv_obj_readjust_scroll
 1225              	.LVL182:
 177:..\..\..\arduinoLCD\test\Pain Drain\libraries\lvgl\src\core/lv_obj_tree.c ****     lv_event_send(old_parent, LV_EVENT_CHILD_CHANGED, obj);
 1226              		.loc 1 177 0
 1227 009c 2800     		movs	r0, r5
ARM GAS  C:\Users\haske\AppData\Local\Temp\ccU9uRZG.s 			page 37


 1228 009e FFF7FEFF 		bl	lv_obj_scrollbar_invalidate
 1229              	.LVL183:
 178:..\..\..\arduinoLCD\test\Pain Drain\libraries\lvgl\src\core/lv_obj_tree.c ****     lv_event_send(old_parent, LV_EVENT_CHILD_DELETED, NULL);
 1230              		.loc 1 178 0
 1231 00a2 3200     		movs	r2, r6
 1232 00a4 2221     		movs	r1, #34
 1233 00a6 2800     		movs	r0, r5
 1234 00a8 FFF7FEFF 		bl	lv_event_send
 1235              	.LVL184:
 179:..\..\..\arduinoLCD\test\Pain Drain\libraries\lvgl\src\core/lv_obj_tree.c **** 
 1236              		.loc 1 179 0
 1237 00ac 0022     		movs	r2, #0
 1238 00ae 2421     		movs	r1, #36
 1239 00b0 2800     		movs	r0, r5
 1240 00b2 FFF7FEFF 		bl	lv_event_send
 1241              	.LVL185:
 182:..\..\..\arduinoLCD\test\Pain Drain\libraries\lvgl\src\core/lv_obj_tree.c ****     lv_event_send(parent, LV_EVENT_CHILD_CREATED, NULL);
 1242              		.loc 1 182 0
 1243 00b6 3200     		movs	r2, r6
 1244 00b8 2221     		movs	r1, #34
 1245 00ba 3800     		movs	r0, r7
 1246 00bc FFF7FEFF 		bl	lv_event_send
 1247              	.LVL186:
 183:..\..\..\arduinoLCD\test\Pain Drain\libraries\lvgl\src\core/lv_obj_tree.c **** 
 1248              		.loc 1 183 0
 1249 00c0 0022     		movs	r2, #0
 1250 00c2 2321     		movs	r1, #35
 1251 00c4 3800     		movs	r0, r7
 1252 00c6 FFF7FEFF 		bl	lv_event_send
 1253              	.LVL187:
 185:..\..\..\arduinoLCD\test\Pain Drain\libraries\lvgl\src\core/lv_obj_tree.c **** 
 1254              		.loc 1 185 0
 1255 00ca 3000     		movs	r0, r6
 1256 00cc FFF7FEFF 		bl	lv_obj_mark_layout_as_dirty
 1257              	.LVL188:
 187:..\..\..\arduinoLCD\test\Pain Drain\libraries\lvgl\src\core/lv_obj_tree.c **** }
 1258              		.loc 1 187 0
 1259 00d0 3000     		movs	r0, r6
 1260 00d2 FFF7FEFF 		bl	lv_obj_invalidate
 1261              	.LVL189:
 1262              	.L82:
 188:..\..\..\arduinoLCD\test\Pain Drain\libraries\lvgl\src\core/lv_obj_tree.c **** 
 1263              		.loc 1 188 0
 1264              		@ sp needed
 1265              	.LVL190:
 1266              	.LVL191:
 1267 00d6 F8BD     		pop	{r3, r4, r5, r6, r7, pc}
 1268              	.L89:
 1269              		.align	2
 1270              	.L88:
 1271 00d8 FFFFFF3F 		.word	1073741823
 1272              		.cfi_endproc
 1273              	.LFE164:
 1274              		.size	lv_obj_set_parent, .-lv_obj_set_parent
 1275              		.section	.text.lv_obj_move_to_index,"ax",%progbits
 1276              		.align	2
 1277              		.global	lv_obj_move_to_index
ARM GAS  C:\Users\haske\AppData\Local\Temp\ccU9uRZG.s 			page 38


 1278              		.code	16
 1279              		.thumb_func
 1280              		.type	lv_obj_move_to_index, %function
 1281              	lv_obj_move_to_index:
 1282              	.LFB165:
 191:..\..\..\arduinoLCD\test\Pain Drain\libraries\lvgl\src\core/lv_obj_tree.c ****     LV_ASSERT_OBJ(obj, MY_CLASS);
 1283              		.loc 1 191 0
 1284              		.cfi_startproc
 1285              		@ args = 0, pretend = 0, frame = 0
 1286              		@ frame_needed = 0, uses_anonymous_args = 0
 1287              	.LVL192:
 1288 0000 F8B5     		push	{r3, r4, r5, r6, r7, lr}
 1289              		.cfi_def_cfa_offset 24
 1290              		.cfi_offset 3, -24
 1291              		.cfi_offset 4, -20
 1292              		.cfi_offset 5, -16
 1293              		.cfi_offset 6, -12
 1294              		.cfi_offset 7, -8
 1295              		.cfi_offset 14, -4
 1296 0002 0500     		movs	r5, r0
 1297 0004 0E1E     		subs	r6, r1, #0
 194:..\..\..\arduinoLCD\test\Pain Drain\libraries\lvgl\src\core/lv_obj_tree.c ****         index = lv_obj_get_child_cnt(lv_obj_get_parent(obj)) + index;
 1298              		.loc 1 194 0
 1299 0006 04DA     		bge	.L91
 195:..\..\..\arduinoLCD\test\Pain Drain\libraries\lvgl\src\core/lv_obj_tree.c ****     }
 1300              		.loc 1 195 0
 1301 0008 FFF7FEFF 		bl	lv_obj_get_parent
 1302              	.LVL193:
 1303 000c FFF7FEFF 		bl	lv_obj_get_child_cnt
 1304              	.LVL194:
 1305 0010 3618     		adds	r6, r6, r0
 1306              	.LVL195:
 1307              	.L91:
 198:..\..\..\arduinoLCD\test\Pain Drain\libraries\lvgl\src\core/lv_obj_tree.c **** 
 1308              		.loc 1 198 0
 1309 0012 2800     		movs	r0, r5
 1310 0014 FFF7FEFF 		bl	lv_obj_get_index
 1311              	.LVL196:
 1312 0018 0400     		movs	r4, r0
 1313              	.LVL197:
 200:..\..\..\arduinoLCD\test\Pain Drain\libraries\lvgl\src\core/lv_obj_tree.c **** 
 1314              		.loc 1 200 0
 1315 001a 2800     		movs	r0, r5
 1316              	.LVL198:
 1317 001c FFF7FEFF 		bl	lv_obj_get_parent
 1318              	.LVL199:
 1319 0020 0700     		movs	r7, r0
 1320              	.LVL200:
 202:..\..\..\arduinoLCD\test\Pain Drain\libraries\lvgl\src\core/lv_obj_tree.c ****     if(index >= (int32_t) lv_obj_get_child_cnt(parent)) return;
 1321              		.loc 1 202 0
 1322 0022 002E     		cmp	r6, #0
 1323 0024 28DB     		blt	.L90
 203:..\..\..\arduinoLCD\test\Pain Drain\libraries\lvgl\src\core/lv_obj_tree.c ****     if(index == old_index) return;
 1324              		.loc 1 203 0
 1325 0026 FFF7FEFF 		bl	lv_obj_get_child_cnt
 1326              	.LVL201:
 1327 002a 8642     		cmp	r6, r0
ARM GAS  C:\Users\haske\AppData\Local\Temp\ccU9uRZG.s 			page 39


 1328 002c 24DA     		bge	.L90
 204:..\..\..\arduinoLCD\test\Pain Drain\libraries\lvgl\src\core/lv_obj_tree.c **** 
 1329              		.loc 1 204 0
 1330 002e A642     		cmp	r6, r4
 1331 0030 22D0     		beq	.L90
 1332              	.LVL202:
 207:..\..\..\arduinoLCD\test\Pain Drain\libraries\lvgl\src\core/lv_obj_tree.c ****         while(i > index)  {
 1333              		.loc 1 207 0
 1334 0032 09DB     		blt	.L93
 1335 0034 12E0     		b	.L94
 1336              	.LVL203:
 1337              	.L95:
 209:..\..\..\arduinoLCD\test\Pain Drain\libraries\lvgl\src\core/lv_obj_tree.c ****             i--;
 1338              		.loc 1 209 0
 1339 0036 BB68     		ldr	r3, [r7, #8]
 1340 0038 1A68     		ldr	r2, [r3]
 1341 003a A100     		lsls	r1, r4, #2
 1342 003c 0F4B     		ldr	r3, .L98
 1343 003e E318     		adds	r3, r4, r3
 1344 0040 9B00     		lsls	r3, r3, #2
 1345 0042 9B58     		ldr	r3, [r3, r2]
 1346 0044 5350     		str	r3, [r2, r1]
 210:..\..\..\arduinoLCD\test\Pain Drain\libraries\lvgl\src\core/lv_obj_tree.c ****         }
 1347              		.loc 1 210 0
 1348 0046 013C     		subs	r4, r4, #1
 1349              	.LVL204:
 1350              	.L93:
 208:..\..\..\arduinoLCD\test\Pain Drain\libraries\lvgl\src\core/lv_obj_tree.c ****             parent->spec_attr->children[i] = parent->spec_attr->children[i - 1];
 1351              		.loc 1 208 0
 1352 0048 A642     		cmp	r6, r4
 1353 004a F4DB     		blt	.L95
 1354 004c 08E0     		b	.L96
 1355              	.L97:
 215:..\..\..\arduinoLCD\test\Pain Drain\libraries\lvgl\src\core/lv_obj_tree.c ****             i++;
 1356              		.loc 1 215 0
 1357 004e BB68     		ldr	r3, [r7, #8]
 1358 0050 1B68     		ldr	r3, [r3]
 1359 0052 A200     		lsls	r2, r4, #2
 1360 0054 0134     		adds	r4, r4, #1
 1361              	.LVL205:
 1362 0056 A100     		lsls	r1, r4, #2
 1363 0058 C958     		ldr	r1, [r1, r3]
 1364 005a 9950     		str	r1, [r3, r2]
 1365              	.LVL206:
 1366              	.L94:
 214:..\..\..\arduinoLCD\test\Pain Drain\libraries\lvgl\src\core/lv_obj_tree.c ****             parent->spec_attr->children[i] = parent->spec_attr->children[i + 1];
 1367              		.loc 1 214 0
 1368 005c A642     		cmp	r6, r4
 1369 005e F6DC     		bgt	.L97
 1370              	.L96:
 220:..\..\..\arduinoLCD\test\Pain Drain\libraries\lvgl\src\core/lv_obj_tree.c ****     lv_event_send(parent, LV_EVENT_CHILD_CHANGED, NULL);
 1371              		.loc 1 220 0
 1372 0060 BB68     		ldr	r3, [r7, #8]
 1373 0062 1B68     		ldr	r3, [r3]
 1374 0064 B100     		lsls	r1, r6, #2
 1375 0066 5D50     		str	r5, [r3, r1]
 221:..\..\..\arduinoLCD\test\Pain Drain\libraries\lvgl\src\core/lv_obj_tree.c ****     lv_obj_invalidate(parent);
ARM GAS  C:\Users\haske\AppData\Local\Temp\ccU9uRZG.s 			page 40


 1376              		.loc 1 221 0
 1377 0068 0022     		movs	r2, #0
 1378 006a 2221     		movs	r1, #34
 1379 006c 3800     		movs	r0, r7
 1380 006e FFF7FEFF 		bl	lv_event_send
 1381              	.LVL207:
 222:..\..\..\arduinoLCD\test\Pain Drain\libraries\lvgl\src\core/lv_obj_tree.c **** }
 1382              		.loc 1 222 0
 1383 0072 3800     		movs	r0, r7
 1384 0074 FFF7FEFF 		bl	lv_obj_invalidate
 1385              	.LVL208:
 1386              	.L90:
 223:..\..\..\arduinoLCD\test\Pain Drain\libraries\lvgl\src\core/lv_obj_tree.c **** 
 1387              		.loc 1 223 0
 1388              		@ sp needed
 1389              	.LVL209:
 1390              	.LVL210:
 1391              	.LVL211:
 1392 0078 F8BD     		pop	{r3, r4, r5, r6, r7, pc}
 1393              	.L99:
 1394 007a C046     		.align	2
 1395              	.L98:
 1396 007c FFFFFF3F 		.word	1073741823
 1397              		.cfi_endproc
 1398              	.LFE165:
 1399              		.size	lv_obj_move_to_index, .-lv_obj_move_to_index
 1400              		.section	.text.lv_obj_swap,"ax",%progbits
 1401              		.align	2
 1402              		.global	lv_obj_swap
 1403              		.code	16
 1404              		.thumb_func
 1405              		.type	lv_obj_swap, %function
 1406              	lv_obj_swap:
 1407              	.LFB166:
 226:..\..\..\arduinoLCD\test\Pain Drain\libraries\lvgl\src\core/lv_obj_tree.c ****     LV_ASSERT_OBJ(obj1, MY_CLASS);
 1408              		.loc 1 226 0
 1409              		.cfi_startproc
 1410              		@ args = 0, pretend = 0, frame = 0
 1411              		@ frame_needed = 0, uses_anonymous_args = 0
 1412              	.LVL212:
 1413 0000 F8B5     		push	{r3, r4, r5, r6, r7, lr}
 1414              		.cfi_def_cfa_offset 24
 1415              		.cfi_offset 3, -24
 1416              		.cfi_offset 4, -20
 1417              		.cfi_offset 5, -16
 1418              		.cfi_offset 6, -12
 1419              		.cfi_offset 7, -8
 1420              		.cfi_offset 14, -4
 1421 0002 4F46     		mov	r7, r9
 1422 0004 4646     		mov	r6, r8
 1423 0006 C0B4     		push	{r6, r7}
 1424              		.cfi_def_cfa_offset 32
 1425              		.cfi_offset 8, -32
 1426              		.cfi_offset 9, -28
 1427 0008 0400     		movs	r4, r0
 1428 000a 0D00     		movs	r5, r1
 230:..\..\..\arduinoLCD\test\Pain Drain\libraries\lvgl\src\core/lv_obj_tree.c ****     lv_obj_t * parent2 = lv_obj_get_parent(obj2);
ARM GAS  C:\Users\haske\AppData\Local\Temp\ccU9uRZG.s 			page 41


 1429              		.loc 1 230 0
 1430 000c FFF7FEFF 		bl	lv_obj_get_parent
 1431              	.LVL213:
 1432 0010 0600     		movs	r6, r0
 1433              	.LVL214:
 231:..\..\..\arduinoLCD\test\Pain Drain\libraries\lvgl\src\core/lv_obj_tree.c **** 
 1434              		.loc 1 231 0
 1435 0012 2800     		movs	r0, r5
 1436              	.LVL215:
 1437 0014 FFF7FEFF 		bl	lv_obj_get_parent
 1438              	.LVL216:
 1439 0018 0700     		movs	r7, r0
 1440              	.LVL217:
 233:..\..\..\arduinoLCD\test\Pain Drain\libraries\lvgl\src\core/lv_obj_tree.c ****     uint_fast32_t index2 = lv_obj_get_index(obj2);
 1441              		.loc 1 233 0
 1442 001a 2000     		movs	r0, r4
 1443              	.LVL218:
 1444 001c FFF7FEFF 		bl	lv_obj_get_index
 1445              	.LVL219:
 1446 0020 8146     		mov	r9, r0
 1447              	.LVL220:
 234:..\..\..\arduinoLCD\test\Pain Drain\libraries\lvgl\src\core/lv_obj_tree.c **** 
 1448              		.loc 1 234 0
 1449 0022 2800     		movs	r0, r5
 1450              	.LVL221:
 1451 0024 FFF7FEFF 		bl	lv_obj_get_index
 1452              	.LVL222:
 1453 0028 8046     		mov	r8, r0
 1454              	.LVL223:
 236:..\..\..\arduinoLCD\test\Pain Drain\libraries\lvgl\src\core/lv_obj_tree.c ****     lv_event_send(parent, LV_EVENT_CHILD_DELETED, obj1);
 1455              		.loc 1 236 0
 1456 002a 2A00     		movs	r2, r5
 1457 002c 2421     		movs	r1, #36
 1458 002e 3800     		movs	r0, r7
 1459              	.LVL224:
 1460 0030 FFF7FEFF 		bl	lv_event_send
 1461              	.LVL225:
 237:..\..\..\arduinoLCD\test\Pain Drain\libraries\lvgl\src\core/lv_obj_tree.c **** 
 1462              		.loc 1 237 0
 1463 0034 2200     		movs	r2, r4
 1464 0036 2421     		movs	r1, #36
 1465 0038 3000     		movs	r0, r6
 1466 003a FFF7FEFF 		bl	lv_event_send
 1467              	.LVL226:
 239:..\..\..\arduinoLCD\test\Pain Drain\libraries\lvgl\src\core/lv_obj_tree.c ****     parent2->spec_attr->children[index2] = obj1;
 1468              		.loc 1 239 0
 1469 003e B368     		ldr	r3, [r6, #8]
 1470 0040 1A68     		ldr	r2, [r3]
 1471 0042 4B46     		mov	r3, r9
 1472 0044 9B00     		lsls	r3, r3, #2
 1473 0046 D550     		str	r5, [r2, r3]
 240:..\..\..\arduinoLCD\test\Pain Drain\libraries\lvgl\src\core/lv_obj_tree.c **** 
 1474              		.loc 1 240 0
 1475 0048 BB68     		ldr	r3, [r7, #8]
 1476 004a 1A68     		ldr	r2, [r3]
 1477 004c 4346     		mov	r3, r8
 1478 004e 9B00     		lsls	r3, r3, #2
ARM GAS  C:\Users\haske\AppData\Local\Temp\ccU9uRZG.s 			page 42


 1479 0050 D450     		str	r4, [r2, r3]
 242:..\..\..\arduinoLCD\test\Pain Drain\libraries\lvgl\src\core/lv_obj_tree.c ****     lv_event_send(parent, LV_EVENT_CHILD_CREATED, obj2);
 1480              		.loc 1 242 0
 1481 0052 2A00     		movs	r2, r5
 1482 0054 2221     		movs	r1, #34
 1483 0056 3000     		movs	r0, r6
 1484 0058 FFF7FEFF 		bl	lv_event_send
 1485              	.LVL227:
 243:..\..\..\arduinoLCD\test\Pain Drain\libraries\lvgl\src\core/lv_obj_tree.c ****     lv_event_send(parent2, LV_EVENT_CHILD_CHANGED, obj1);
 1486              		.loc 1 243 0
 1487 005c 2A00     		movs	r2, r5
 1488 005e 2321     		movs	r1, #35
 1489 0060 3000     		movs	r0, r6
 1490 0062 FFF7FEFF 		bl	lv_event_send
 1491              	.LVL228:
 244:..\..\..\arduinoLCD\test\Pain Drain\libraries\lvgl\src\core/lv_obj_tree.c ****     lv_event_send(parent2, LV_EVENT_CHILD_CREATED, obj1);
 1492              		.loc 1 244 0
 1493 0066 2200     		movs	r2, r4
 1494 0068 2221     		movs	r1, #34
 1495 006a 3800     		movs	r0, r7
 1496 006c FFF7FEFF 		bl	lv_event_send
 1497              	.LVL229:
 245:..\..\..\arduinoLCD\test\Pain Drain\libraries\lvgl\src\core/lv_obj_tree.c **** 
 1498              		.loc 1 245 0
 1499 0070 2200     		movs	r2, r4
 1500 0072 2321     		movs	r1, #35
 1501 0074 3800     		movs	r0, r7
 1502 0076 FFF7FEFF 		bl	lv_event_send
 1503              	.LVL230:
 247:..\..\..\arduinoLCD\test\Pain Drain\libraries\lvgl\src\core/lv_obj_tree.c **** 
 1504              		.loc 1 247 0
 1505 007a 3000     		movs	r0, r6
 1506 007c FFF7FEFF 		bl	lv_obj_invalidate
 1507              	.LVL231:
 249:..\..\..\arduinoLCD\test\Pain Drain\libraries\lvgl\src\core/lv_obj_tree.c ****         lv_obj_invalidate(parent2);
 1508              		.loc 1 249 0
 1509 0080 BE42     		cmp	r6, r7
 1510 0082 02D0     		beq	.L101
 250:..\..\..\arduinoLCD\test\Pain Drain\libraries\lvgl\src\core/lv_obj_tree.c ****     }
 1511              		.loc 1 250 0
 1512 0084 3800     		movs	r0, r7
 1513 0086 FFF7FEFF 		bl	lv_obj_invalidate
 1514              	.LVL232:
 1515              	.L101:
 252:..\..\..\arduinoLCD\test\Pain Drain\libraries\lvgl\src\core/lv_obj_tree.c **** }
 1516              		.loc 1 252 0
 1517 008a 2900     		movs	r1, r5
 1518 008c 2000     		movs	r0, r4
 1519 008e FFF7FEFF 		bl	lv_group_swap_obj
 1520              	.LVL233:
 253:..\..\..\arduinoLCD\test\Pain Drain\libraries\lvgl\src\core/lv_obj_tree.c **** 
 1521              		.loc 1 253 0
 1522              		@ sp needed
 1523              	.LVL234:
 1524              	.LVL235:
 1525              	.LVL236:
 1526              	.LVL237:
ARM GAS  C:\Users\haske\AppData\Local\Temp\ccU9uRZG.s 			page 43


 1527              	.LVL238:
 1528              	.LVL239:
 1529 0092 0CBC     		pop	{r2, r3}
 1530 0094 9046     		mov	r8, r2
 1531 0096 9946     		mov	r9, r3
 1532 0098 F8BD     		pop	{r3, r4, r5, r6, r7, pc}
 1533              		.cfi_endproc
 1534              	.LFE166:
 1535              		.size	lv_obj_swap, .-lv_obj_swap
 1536 009a C046     		.section	.text.lv_obj_tree_walk,"ax",%progbits
 1537              		.align	2
 1538              		.global	lv_obj_tree_walk
 1539              		.code	16
 1540              		.thumb_func
 1541              		.type	lv_obj_tree_walk, %function
 1542              	lv_obj_tree_walk:
 1543              	.LFB173:
 342:..\..\..\arduinoLCD\test\Pain Drain\libraries\lvgl\src\core/lv_obj_tree.c ****     walk_core(start_obj, cb, user_data);
 1544              		.loc 1 342 0
 1545              		.cfi_startproc
 1546              		@ args = 0, pretend = 0, frame = 0
 1547              		@ frame_needed = 0, uses_anonymous_args = 0
 1548              	.LVL240:
 1549 0000 10B5     		push	{r4, lr}
 1550              		.cfi_def_cfa_offset 8
 1551              		.cfi_offset 4, -8
 1552              		.cfi_offset 14, -4
 343:..\..\..\arduinoLCD\test\Pain Drain\libraries\lvgl\src\core/lv_obj_tree.c **** }
 1553              		.loc 1 343 0
 1554 0002 FFF7FEFF 		bl	walk_core
 1555              	.LVL241:
 344:..\..\..\arduinoLCD\test\Pain Drain\libraries\lvgl\src\core/lv_obj_tree.c **** 
 1556              		.loc 1 344 0
 1557              		@ sp needed
 1558 0006 10BD     		pop	{r4, pc}
 1559              		.cfi_endproc
 1560              	.LFE173:
 1561              		.size	lv_obj_tree_walk, .-lv_obj_tree_walk
 1562              		.text
 1563              	.Letext0:
 1564              		.file 3 "c:\\program files (x86)\\cypress\\psoc creator\\4.4\\psoc creator\\import\\gnu\\arm\\5.4.
 1565              		.file 4 "c:\\program files (x86)\\cypress\\psoc creator\\4.4\\psoc creator\\import\\gnu\\arm\\5.4.
 1566              		.file 5 "c:\\program files (x86)\\cypress\\psoc creator\\4.4\\psoc creator\\import\\gnu\\arm\\5.4.
 1567              		.file 6 "c:\\program files (x86)\\cypress\\psoc creator\\4.4\\psoc creator\\import\\gnu\\arm\\5.4.
 1568              		.file 7 "c:\\projects\\paindrain\\arduinolcd\\test\\pain drain\\libraries\\lvgl\\src\\misc\\lv_are
 1569              		.file 8 "c:\\projects\\paindrain\\arduinolcd\\test\\pain drain\\libraries\\lvgl\\src\\font\\lv_fon
 1570              		.file 9 "..\\..\\..\\arduinoLCD\\test\\Pain Drain\\libraries\\lvgl\\src\\core\\../misc/lv_types.h"
 1571              		.file 10 "..\\..\\..\\arduinoLCD\\test\\Pain Drain\\libraries\\lvgl\\src\\core\\../misc/lv_color.h
 1572              		.file 11 "..\\..\\..\\arduinoLCD\\test\\Pain Drain\\libraries\\lvgl\\src\\core\\../misc/lv_txt.h"
 1573              		.file 12 "..\\..\\..\\arduinoLCD\\test\\Pain Drain\\libraries\\lvgl\\src\\core\\../misc/lv_bidi.h"
 1574              		.file 13 "..\\..\\..\\arduinoLCD\\test\\Pain Drain\\libraries\\lvgl\\src\\core\\../misc/lv_style.h
 1575              		.file 14 "c:\\projects\\paindrain\\arduinolcd\\test\\pain drain\\libraries\\lvgl\\src\\draw\\lv_im
 1576              		.file 15 "..\\..\\..\\arduinoLCD\\test\\Pain Drain\\libraries\\lvgl\\src\\core\\lv_obj.h"
 1577              		.file 16 "c:\\projects\\paindrain\\arduinolcd\\test\\pain drain\\libraries\\lvgl\\src\\draw\\lv_dr
 1578              		.file 17 "c:\\projects\\paindrain\\arduinolcd\\test\\pain drain\\libraries\\lvgl\\src\\draw\\lv_dr
 1579              		.file 18 "c:\\projects\\paindrain\\arduinolcd\\test\\pain drain\\libraries\\lvgl\\src\\draw\\lv_dr
 1580              		.file 19 "c:\\projects\\paindrain\\arduinolcd\\test\\pain drain\\libraries\\lvgl\\src\\draw\\lv_dr
ARM GAS  C:\Users\haske\AppData\Local\Temp\ccU9uRZG.s 			page 44


 1581              		.file 20 "c:\\projects\\paindrain\\arduinolcd\\test\\pain drain\\libraries\\lvgl\\src\\draw\\lv_dr
 1582              		.file 21 "c:\\projects\\paindrain\\arduinolcd\\test\\pain drain\\libraries\\lvgl\\src\\draw\\lv_dr
 1583              		.file 22 "c:\\projects\\paindrain\\arduinolcd\\test\\pain drain\\libraries\\lvgl\\src\\draw\\lv_dr
 1584              		.file 23 "c:\\projects\\paindrain\\arduinolcd\\test\\pain drain\\libraries\\lvgl\\src\\misc\\lv_ll
 1585              		.file 24 "c:\\projects\\paindrain\\arduinolcd\\test\\pain drain\\libraries\\lvgl\\src\\misc\\lv_ti
 1586              		.file 25 "..\\..\\..\\arduinoLCD\\test\\Pain Drain\\libraries\\lvgl\\src\\core\\../hal/lv_hal_disp
 1587              		.file 26 "..\\..\\..\\arduinoLCD\\test\\Pain Drain\\libraries\\lvgl\\src\\core\\../hal/lv_hal_inde
 1588              		.file 27 "..\\..\\..\\arduinoLCD\\test\\Pain Drain\\libraries\\lvgl\\src\\core\\lv_group.h"
 1589              		.file 28 "..\\..\\..\\arduinoLCD\\test\\Pain Drain\\libraries\\lvgl\\src\\core\\lv_obj_tree.h"
 1590              		.file 29 "..\\..\\..\\arduinoLCD\\test\\Pain Drain\\libraries\\lvgl\\src\\core\\lv_obj_scroll.h"
 1591              		.file 30 "..\\..\\..\\arduinoLCD\\test\\Pain Drain\\libraries\\lvgl\\src\\core\\lv_obj_style.h"
 1592              		.file 31 "..\\..\\..\\arduinoLCD\\test\\Pain Drain\\libraries\\lvgl\\src\\core\\lv_obj_class.h"
 1593              		.file 32 "..\\..\\..\\arduinoLCD\\test\\Pain Drain\\libraries\\lvgl\\src\\core\\lv_event.h"
 1594              		.file 33 "..\\..\\..\\arduinoLCD\\test\\Pain Drain\\libraries\\lvgl\\src\\core\\../misc/lv_gc.h"
 1595              		.file 34 "..\\..\\..\\arduinoLCD\\test\\Pain Drain\\libraries\\lvgl\\src\\core\\../misc/lv_async.h
 1596              		.file 35 "..\\..\\..\\arduinoLCD\\test\\Pain Drain\\libraries\\lvgl\\src\\core\\../misc/lv_mem.h"
 1597              		.file 36 "..\\..\\..\\arduinoLCD\\test\\Pain Drain\\libraries\\lvgl\\src\\core\\lv_indev.h"
 1598              		.file 37 "c:\\projects\\paindrain\\arduinolcd\\test\\pain drain\\libraries\\lvgl\\src\\core\\lv_ob