ARM GAS  C:\Users\haske\AppData\Local\Temp\cc4f9rxb.s 			page 1


   1              		.syntax unified
   2              		.cpu cortex-m0plus
   3              		.fpu softvfp
   4              		.eabi_attribute 20, 1
   5              		.eabi_attribute 21, 1
   6              		.eabi_attribute 23, 3
   7              		.eabi_attribute 24, 1
   8              		.eabi_attribute 25, 1
   9              		.eabi_attribute 26, 1
  10              		.eabi_attribute 30, 1
  11              		.eabi_attribute 34, 0
  12              		.eabi_attribute 18, 4
  13              		.thumb
  14              		.syntax unified
  15              		.file	"lv_obj_draw.c"
  16              		.text
  17              	.Ltext0:
  18              		.cfi_sections	.debug_frame
  19              		.section	.text.lv_obj_init_draw_rect_dsc,"ax",%progbits
  20              		.align	2
  21              		.global	lv_obj_init_draw_rect_dsc
  22              		.code	16
  23              		.thumb_func
  24              		.type	lv_obj_init_draw_rect_dsc, %function
  25              	lv_obj_init_draw_rect_dsc:
  26              	.LFB165:
  27              		.file 1 "..\\..\\..\\arduinoLCD\\test\\Pain Drain\\libraries\\lvgl\\src\\core\\lv_obj_draw.c"
   1:..\..\..\arduinoLCD\test\Pain Drain\libraries\lvgl\src\core/lv_obj_draw.c **** /**
   2:..\..\..\arduinoLCD\test\Pain Drain\libraries\lvgl\src\core/lv_obj_draw.c ****  * @file lv_obj_draw.c
   3:..\..\..\arduinoLCD\test\Pain Drain\libraries\lvgl\src\core/lv_obj_draw.c ****  *
   4:..\..\..\arduinoLCD\test\Pain Drain\libraries\lvgl\src\core/lv_obj_draw.c ****  */
   5:..\..\..\arduinoLCD\test\Pain Drain\libraries\lvgl\src\core/lv_obj_draw.c **** 
   6:..\..\..\arduinoLCD\test\Pain Drain\libraries\lvgl\src\core/lv_obj_draw.c **** /*********************
   7:..\..\..\arduinoLCD\test\Pain Drain\libraries\lvgl\src\core/lv_obj_draw.c ****  *      INCLUDES
   8:..\..\..\arduinoLCD\test\Pain Drain\libraries\lvgl\src\core/lv_obj_draw.c ****  *********************/
   9:..\..\..\arduinoLCD\test\Pain Drain\libraries\lvgl\src\core/lv_obj_draw.c **** #include "lv_obj_draw.h"
  10:..\..\..\arduinoLCD\test\Pain Drain\libraries\lvgl\src\core/lv_obj_draw.c **** #include "lv_obj.h"
  11:..\..\..\arduinoLCD\test\Pain Drain\libraries\lvgl\src\core/lv_obj_draw.c **** #include "lv_disp.h"
  12:..\..\..\arduinoLCD\test\Pain Drain\libraries\lvgl\src\core/lv_obj_draw.c **** #include "lv_indev.h"
  13:..\..\..\arduinoLCD\test\Pain Drain\libraries\lvgl\src\core/lv_obj_draw.c **** 
  14:..\..\..\arduinoLCD\test\Pain Drain\libraries\lvgl\src\core/lv_obj_draw.c **** /*********************
  15:..\..\..\arduinoLCD\test\Pain Drain\libraries\lvgl\src\core/lv_obj_draw.c ****  *      DEFINES
  16:..\..\..\arduinoLCD\test\Pain Drain\libraries\lvgl\src\core/lv_obj_draw.c ****  *********************/
  17:..\..\..\arduinoLCD\test\Pain Drain\libraries\lvgl\src\core/lv_obj_draw.c **** #define MY_CLASS &lv_obj_class
  18:..\..\..\arduinoLCD\test\Pain Drain\libraries\lvgl\src\core/lv_obj_draw.c **** 
  19:..\..\..\arduinoLCD\test\Pain Drain\libraries\lvgl\src\core/lv_obj_draw.c **** /**********************
  20:..\..\..\arduinoLCD\test\Pain Drain\libraries\lvgl\src\core/lv_obj_draw.c ****  *      TYPEDEFS
  21:..\..\..\arduinoLCD\test\Pain Drain\libraries\lvgl\src\core/lv_obj_draw.c ****  **********************/
  22:..\..\..\arduinoLCD\test\Pain Drain\libraries\lvgl\src\core/lv_obj_draw.c **** 
  23:..\..\..\arduinoLCD\test\Pain Drain\libraries\lvgl\src\core/lv_obj_draw.c **** /**********************
  24:..\..\..\arduinoLCD\test\Pain Drain\libraries\lvgl\src\core/lv_obj_draw.c ****  *  STATIC PROTOTYPES
  25:..\..\..\arduinoLCD\test\Pain Drain\libraries\lvgl\src\core/lv_obj_draw.c ****  **********************/
  26:..\..\..\arduinoLCD\test\Pain Drain\libraries\lvgl\src\core/lv_obj_draw.c **** 
  27:..\..\..\arduinoLCD\test\Pain Drain\libraries\lvgl\src\core/lv_obj_draw.c **** /**********************
  28:..\..\..\arduinoLCD\test\Pain Drain\libraries\lvgl\src\core/lv_obj_draw.c ****  *  STATIC VARIABLES
  29:..\..\..\arduinoLCD\test\Pain Drain\libraries\lvgl\src\core/lv_obj_draw.c ****  **********************/
  30:..\..\..\arduinoLCD\test\Pain Drain\libraries\lvgl\src\core/lv_obj_draw.c **** 
ARM GAS  C:\Users\haske\AppData\Local\Temp\cc4f9rxb.s 			page 2


  31:..\..\..\arduinoLCD\test\Pain Drain\libraries\lvgl\src\core/lv_obj_draw.c **** /**********************
  32:..\..\..\arduinoLCD\test\Pain Drain\libraries\lvgl\src\core/lv_obj_draw.c ****  *      MACROS
  33:..\..\..\arduinoLCD\test\Pain Drain\libraries\lvgl\src\core/lv_obj_draw.c ****  **********************/
  34:..\..\..\arduinoLCD\test\Pain Drain\libraries\lvgl\src\core/lv_obj_draw.c **** 
  35:..\..\..\arduinoLCD\test\Pain Drain\libraries\lvgl\src\core/lv_obj_draw.c **** /**********************
  36:..\..\..\arduinoLCD\test\Pain Drain\libraries\lvgl\src\core/lv_obj_draw.c ****  *   GLOBAL FUNCTIONS
  37:..\..\..\arduinoLCD\test\Pain Drain\libraries\lvgl\src\core/lv_obj_draw.c ****  **********************/
  38:..\..\..\arduinoLCD\test\Pain Drain\libraries\lvgl\src\core/lv_obj_draw.c **** 
  39:..\..\..\arduinoLCD\test\Pain Drain\libraries\lvgl\src\core/lv_obj_draw.c **** void lv_obj_init_draw_rect_dsc(lv_obj_t * obj, uint32_t part, lv_draw_rect_dsc_t * draw_dsc)
  40:..\..\..\arduinoLCD\test\Pain Drain\libraries\lvgl\src\core/lv_obj_draw.c **** {
  28              		.loc 1 40 0
  29              		.cfi_startproc
  30              		@ args = 0, pretend = 0, frame = 0
  31              		@ frame_needed = 0, uses_anonymous_args = 0
  32              	.LVL0:
  33 0000 F8B5     		push	{r3, r4, r5, r6, r7, lr}
  34              		.cfi_def_cfa_offset 24
  35              		.cfi_offset 3, -24
  36              		.cfi_offset 4, -20
  37              		.cfi_offset 5, -16
  38              		.cfi_offset 6, -12
  39              		.cfi_offset 7, -8
  40              		.cfi_offset 14, -4
  41 0002 0600     		movs	r6, r0
  42 0004 0D00     		movs	r5, r1
  43 0006 1400     		movs	r4, r2
  44              	.LVL1:
  41:..\..\..\arduinoLCD\test\Pain Drain\libraries\lvgl\src\core/lv_obj_draw.c ****     lv_opa_t opa = LV_OPA_COVER;
  42:..\..\..\arduinoLCD\test\Pain Drain\libraries\lvgl\src\core/lv_obj_draw.c ****     if(part != LV_PART_MAIN) {
  45              		.loc 1 42 0
  46 0008 0029     		cmp	r1, #0
  47 000a 0FD0     		beq	.L13
  48              	.LVL2:
  49              	.LBB202:
  50              	.LBB203:
  51              		.file 2 "..\\..\\..\\arduinoLCD\\test\\Pain Drain\\libraries\\lvgl\\src\\core\\lv_obj_style_gen.h"
   1:..\..\..\arduinoLCD\test\Pain Drain\libraries\lvgl\src\core/lv_obj_style_gen.h **** static inline lv_coord_t lv_obj_get_style_width(const struct _lv_obj_t * obj, uint32_t part)
   2:..\..\..\arduinoLCD\test\Pain Drain\libraries\lvgl\src\core/lv_obj_style_gen.h **** {
   3:..\..\..\arduinoLCD\test\Pain Drain\libraries\lvgl\src\core/lv_obj_style_gen.h ****     lv_style_value_t v = lv_obj_get_style_prop(obj, part, LV_STYLE_WIDTH);
   4:..\..\..\arduinoLCD\test\Pain Drain\libraries\lvgl\src\core/lv_obj_style_gen.h ****     return (lv_coord_t)v.num;
   5:..\..\..\arduinoLCD\test\Pain Drain\libraries\lvgl\src\core/lv_obj_style_gen.h **** }
   6:..\..\..\arduinoLCD\test\Pain Drain\libraries\lvgl\src\core/lv_obj_style_gen.h **** 
   7:..\..\..\arduinoLCD\test\Pain Drain\libraries\lvgl\src\core/lv_obj_style_gen.h **** static inline lv_coord_t lv_obj_get_style_min_width(const struct _lv_obj_t * obj, uint32_t part)
   8:..\..\..\arduinoLCD\test\Pain Drain\libraries\lvgl\src\core/lv_obj_style_gen.h **** {
   9:..\..\..\arduinoLCD\test\Pain Drain\libraries\lvgl\src\core/lv_obj_style_gen.h ****     lv_style_value_t v = lv_obj_get_style_prop(obj, part, LV_STYLE_MIN_WIDTH);
  10:..\..\..\arduinoLCD\test\Pain Drain\libraries\lvgl\src\core/lv_obj_style_gen.h ****     return (lv_coord_t)v.num;
  11:..\..\..\arduinoLCD\test\Pain Drain\libraries\lvgl\src\core/lv_obj_style_gen.h **** }
  12:..\..\..\arduinoLCD\test\Pain Drain\libraries\lvgl\src\core/lv_obj_style_gen.h **** 
  13:..\..\..\arduinoLCD\test\Pain Drain\libraries\lvgl\src\core/lv_obj_style_gen.h **** static inline lv_coord_t lv_obj_get_style_max_width(const struct _lv_obj_t * obj, uint32_t part)
  14:..\..\..\arduinoLCD\test\Pain Drain\libraries\lvgl\src\core/lv_obj_style_gen.h **** {
  15:..\..\..\arduinoLCD\test\Pain Drain\libraries\lvgl\src\core/lv_obj_style_gen.h ****     lv_style_value_t v = lv_obj_get_style_prop(obj, part, LV_STYLE_MAX_WIDTH);
  16:..\..\..\arduinoLCD\test\Pain Drain\libraries\lvgl\src\core/lv_obj_style_gen.h ****     return (lv_coord_t)v.num;
  17:..\..\..\arduinoLCD\test\Pain Drain\libraries\lvgl\src\core/lv_obj_style_gen.h **** }
  18:..\..\..\arduinoLCD\test\Pain Drain\libraries\lvgl\src\core/lv_obj_style_gen.h **** 
  19:..\..\..\arduinoLCD\test\Pain Drain\libraries\lvgl\src\core/lv_obj_style_gen.h **** static inline lv_coord_t lv_obj_get_style_height(const struct _lv_obj_t * obj, uint32_t part)
  20:..\..\..\arduinoLCD\test\Pain Drain\libraries\lvgl\src\core/lv_obj_style_gen.h **** {
  21:..\..\..\arduinoLCD\test\Pain Drain\libraries\lvgl\src\core/lv_obj_style_gen.h ****     lv_style_value_t v = lv_obj_get_style_prop(obj, part, LV_STYLE_HEIGHT);
ARM GAS  C:\Users\haske\AppData\Local\Temp\cc4f9rxb.s 			page 3


  22:..\..\..\arduinoLCD\test\Pain Drain\libraries\lvgl\src\core/lv_obj_style_gen.h ****     return (lv_coord_t)v.num;
  23:..\..\..\arduinoLCD\test\Pain Drain\libraries\lvgl\src\core/lv_obj_style_gen.h **** }
  24:..\..\..\arduinoLCD\test\Pain Drain\libraries\lvgl\src\core/lv_obj_style_gen.h **** 
  25:..\..\..\arduinoLCD\test\Pain Drain\libraries\lvgl\src\core/lv_obj_style_gen.h **** static inline lv_coord_t lv_obj_get_style_min_height(const struct _lv_obj_t * obj, uint32_t part)
  26:..\..\..\arduinoLCD\test\Pain Drain\libraries\lvgl\src\core/lv_obj_style_gen.h **** {
  27:..\..\..\arduinoLCD\test\Pain Drain\libraries\lvgl\src\core/lv_obj_style_gen.h ****     lv_style_value_t v = lv_obj_get_style_prop(obj, part, LV_STYLE_MIN_HEIGHT);
  28:..\..\..\arduinoLCD\test\Pain Drain\libraries\lvgl\src\core/lv_obj_style_gen.h ****     return (lv_coord_t)v.num;
  29:..\..\..\arduinoLCD\test\Pain Drain\libraries\lvgl\src\core/lv_obj_style_gen.h **** }
  30:..\..\..\arduinoLCD\test\Pain Drain\libraries\lvgl\src\core/lv_obj_style_gen.h **** 
  31:..\..\..\arduinoLCD\test\Pain Drain\libraries\lvgl\src\core/lv_obj_style_gen.h **** static inline lv_coord_t lv_obj_get_style_max_height(const struct _lv_obj_t * obj, uint32_t part)
  32:..\..\..\arduinoLCD\test\Pain Drain\libraries\lvgl\src\core/lv_obj_style_gen.h **** {
  33:..\..\..\arduinoLCD\test\Pain Drain\libraries\lvgl\src\core/lv_obj_style_gen.h ****     lv_style_value_t v = lv_obj_get_style_prop(obj, part, LV_STYLE_MAX_HEIGHT);
  34:..\..\..\arduinoLCD\test\Pain Drain\libraries\lvgl\src\core/lv_obj_style_gen.h ****     return (lv_coord_t)v.num;
  35:..\..\..\arduinoLCD\test\Pain Drain\libraries\lvgl\src\core/lv_obj_style_gen.h **** }
  36:..\..\..\arduinoLCD\test\Pain Drain\libraries\lvgl\src\core/lv_obj_style_gen.h **** 
  37:..\..\..\arduinoLCD\test\Pain Drain\libraries\lvgl\src\core/lv_obj_style_gen.h **** static inline lv_coord_t lv_obj_get_style_x(const struct _lv_obj_t * obj, uint32_t part)
  38:..\..\..\arduinoLCD\test\Pain Drain\libraries\lvgl\src\core/lv_obj_style_gen.h **** {
  39:..\..\..\arduinoLCD\test\Pain Drain\libraries\lvgl\src\core/lv_obj_style_gen.h ****     lv_style_value_t v = lv_obj_get_style_prop(obj, part, LV_STYLE_X);
  40:..\..\..\arduinoLCD\test\Pain Drain\libraries\lvgl\src\core/lv_obj_style_gen.h ****     return (lv_coord_t)v.num;
  41:..\..\..\arduinoLCD\test\Pain Drain\libraries\lvgl\src\core/lv_obj_style_gen.h **** }
  42:..\..\..\arduinoLCD\test\Pain Drain\libraries\lvgl\src\core/lv_obj_style_gen.h **** 
  43:..\..\..\arduinoLCD\test\Pain Drain\libraries\lvgl\src\core/lv_obj_style_gen.h **** static inline lv_coord_t lv_obj_get_style_y(const struct _lv_obj_t * obj, uint32_t part)
  44:..\..\..\arduinoLCD\test\Pain Drain\libraries\lvgl\src\core/lv_obj_style_gen.h **** {
  45:..\..\..\arduinoLCD\test\Pain Drain\libraries\lvgl\src\core/lv_obj_style_gen.h ****     lv_style_value_t v = lv_obj_get_style_prop(obj, part, LV_STYLE_Y);
  46:..\..\..\arduinoLCD\test\Pain Drain\libraries\lvgl\src\core/lv_obj_style_gen.h ****     return (lv_coord_t)v.num;
  47:..\..\..\arduinoLCD\test\Pain Drain\libraries\lvgl\src\core/lv_obj_style_gen.h **** }
  48:..\..\..\arduinoLCD\test\Pain Drain\libraries\lvgl\src\core/lv_obj_style_gen.h **** 
  49:..\..\..\arduinoLCD\test\Pain Drain\libraries\lvgl\src\core/lv_obj_style_gen.h **** static inline lv_align_t lv_obj_get_style_align(const struct _lv_obj_t * obj, uint32_t part)
  50:..\..\..\arduinoLCD\test\Pain Drain\libraries\lvgl\src\core/lv_obj_style_gen.h **** {
  51:..\..\..\arduinoLCD\test\Pain Drain\libraries\lvgl\src\core/lv_obj_style_gen.h ****     lv_style_value_t v = lv_obj_get_style_prop(obj, part, LV_STYLE_ALIGN);
  52:..\..\..\arduinoLCD\test\Pain Drain\libraries\lvgl\src\core/lv_obj_style_gen.h ****     return (lv_align_t)v.num;
  53:..\..\..\arduinoLCD\test\Pain Drain\libraries\lvgl\src\core/lv_obj_style_gen.h **** }
  54:..\..\..\arduinoLCD\test\Pain Drain\libraries\lvgl\src\core/lv_obj_style_gen.h **** 
  55:..\..\..\arduinoLCD\test\Pain Drain\libraries\lvgl\src\core/lv_obj_style_gen.h **** static inline lv_coord_t lv_obj_get_style_transform_width(const struct _lv_obj_t * obj, uint32_t pa
  56:..\..\..\arduinoLCD\test\Pain Drain\libraries\lvgl\src\core/lv_obj_style_gen.h **** {
  57:..\..\..\arduinoLCD\test\Pain Drain\libraries\lvgl\src\core/lv_obj_style_gen.h ****     lv_style_value_t v = lv_obj_get_style_prop(obj, part, LV_STYLE_TRANSFORM_WIDTH);
  58:..\..\..\arduinoLCD\test\Pain Drain\libraries\lvgl\src\core/lv_obj_style_gen.h ****     return (lv_coord_t)v.num;
  59:..\..\..\arduinoLCD\test\Pain Drain\libraries\lvgl\src\core/lv_obj_style_gen.h **** }
  60:..\..\..\arduinoLCD\test\Pain Drain\libraries\lvgl\src\core/lv_obj_style_gen.h **** 
  61:..\..\..\arduinoLCD\test\Pain Drain\libraries\lvgl\src\core/lv_obj_style_gen.h **** static inline lv_coord_t lv_obj_get_style_transform_height(const struct _lv_obj_t * obj, uint32_t p
  62:..\..\..\arduinoLCD\test\Pain Drain\libraries\lvgl\src\core/lv_obj_style_gen.h **** {
  63:..\..\..\arduinoLCD\test\Pain Drain\libraries\lvgl\src\core/lv_obj_style_gen.h ****     lv_style_value_t v = lv_obj_get_style_prop(obj, part, LV_STYLE_TRANSFORM_HEIGHT);
  64:..\..\..\arduinoLCD\test\Pain Drain\libraries\lvgl\src\core/lv_obj_style_gen.h ****     return (lv_coord_t)v.num;
  65:..\..\..\arduinoLCD\test\Pain Drain\libraries\lvgl\src\core/lv_obj_style_gen.h **** }
  66:..\..\..\arduinoLCD\test\Pain Drain\libraries\lvgl\src\core/lv_obj_style_gen.h **** 
  67:..\..\..\arduinoLCD\test\Pain Drain\libraries\lvgl\src\core/lv_obj_style_gen.h **** static inline lv_coord_t lv_obj_get_style_translate_x(const struct _lv_obj_t * obj, uint32_t part)
  68:..\..\..\arduinoLCD\test\Pain Drain\libraries\lvgl\src\core/lv_obj_style_gen.h **** {
  69:..\..\..\arduinoLCD\test\Pain Drain\libraries\lvgl\src\core/lv_obj_style_gen.h ****     lv_style_value_t v = lv_obj_get_style_prop(obj, part, LV_STYLE_TRANSLATE_X);
  70:..\..\..\arduinoLCD\test\Pain Drain\libraries\lvgl\src\core/lv_obj_style_gen.h ****     return (lv_coord_t)v.num;
  71:..\..\..\arduinoLCD\test\Pain Drain\libraries\lvgl\src\core/lv_obj_style_gen.h **** }
  72:..\..\..\arduinoLCD\test\Pain Drain\libraries\lvgl\src\core/lv_obj_style_gen.h **** 
  73:..\..\..\arduinoLCD\test\Pain Drain\libraries\lvgl\src\core/lv_obj_style_gen.h **** static inline lv_coord_t lv_obj_get_style_translate_y(const struct _lv_obj_t * obj, uint32_t part)
  74:..\..\..\arduinoLCD\test\Pain Drain\libraries\lvgl\src\core/lv_obj_style_gen.h **** {
  75:..\..\..\arduinoLCD\test\Pain Drain\libraries\lvgl\src\core/lv_obj_style_gen.h ****     lv_style_value_t v = lv_obj_get_style_prop(obj, part, LV_STYLE_TRANSLATE_Y);
  76:..\..\..\arduinoLCD\test\Pain Drain\libraries\lvgl\src\core/lv_obj_style_gen.h ****     return (lv_coord_t)v.num;
  77:..\..\..\arduinoLCD\test\Pain Drain\libraries\lvgl\src\core/lv_obj_style_gen.h **** }
  78:..\..\..\arduinoLCD\test\Pain Drain\libraries\lvgl\src\core/lv_obj_style_gen.h **** 
ARM GAS  C:\Users\haske\AppData\Local\Temp\cc4f9rxb.s 			page 4


  79:..\..\..\arduinoLCD\test\Pain Drain\libraries\lvgl\src\core/lv_obj_style_gen.h **** static inline lv_coord_t lv_obj_get_style_transform_zoom(const struct _lv_obj_t * obj, uint32_t par
  80:..\..\..\arduinoLCD\test\Pain Drain\libraries\lvgl\src\core/lv_obj_style_gen.h **** {
  81:..\..\..\arduinoLCD\test\Pain Drain\libraries\lvgl\src\core/lv_obj_style_gen.h ****     lv_style_value_t v = lv_obj_get_style_prop(obj, part, LV_STYLE_TRANSFORM_ZOOM);
  82:..\..\..\arduinoLCD\test\Pain Drain\libraries\lvgl\src\core/lv_obj_style_gen.h ****     return (lv_coord_t)v.num;
  83:..\..\..\arduinoLCD\test\Pain Drain\libraries\lvgl\src\core/lv_obj_style_gen.h **** }
  84:..\..\..\arduinoLCD\test\Pain Drain\libraries\lvgl\src\core/lv_obj_style_gen.h **** 
  85:..\..\..\arduinoLCD\test\Pain Drain\libraries\lvgl\src\core/lv_obj_style_gen.h **** static inline lv_coord_t lv_obj_get_style_transform_angle(const struct _lv_obj_t * obj, uint32_t pa
  86:..\..\..\arduinoLCD\test\Pain Drain\libraries\lvgl\src\core/lv_obj_style_gen.h **** {
  87:..\..\..\arduinoLCD\test\Pain Drain\libraries\lvgl\src\core/lv_obj_style_gen.h ****     lv_style_value_t v = lv_obj_get_style_prop(obj, part, LV_STYLE_TRANSFORM_ANGLE);
  88:..\..\..\arduinoLCD\test\Pain Drain\libraries\lvgl\src\core/lv_obj_style_gen.h ****     return (lv_coord_t)v.num;
  89:..\..\..\arduinoLCD\test\Pain Drain\libraries\lvgl\src\core/lv_obj_style_gen.h **** }
  90:..\..\..\arduinoLCD\test\Pain Drain\libraries\lvgl\src\core/lv_obj_style_gen.h **** 
  91:..\..\..\arduinoLCD\test\Pain Drain\libraries\lvgl\src\core/lv_obj_style_gen.h **** static inline lv_coord_t lv_obj_get_style_transform_pivot_x(const struct _lv_obj_t * obj, uint32_t 
  92:..\..\..\arduinoLCD\test\Pain Drain\libraries\lvgl\src\core/lv_obj_style_gen.h **** {
  93:..\..\..\arduinoLCD\test\Pain Drain\libraries\lvgl\src\core/lv_obj_style_gen.h ****     lv_style_value_t v = lv_obj_get_style_prop(obj, part, LV_STYLE_TRANSFORM_PIVOT_X);
  94:..\..\..\arduinoLCD\test\Pain Drain\libraries\lvgl\src\core/lv_obj_style_gen.h ****     return (lv_coord_t)v.num;
  95:..\..\..\arduinoLCD\test\Pain Drain\libraries\lvgl\src\core/lv_obj_style_gen.h **** }
  96:..\..\..\arduinoLCD\test\Pain Drain\libraries\lvgl\src\core/lv_obj_style_gen.h **** 
  97:..\..\..\arduinoLCD\test\Pain Drain\libraries\lvgl\src\core/lv_obj_style_gen.h **** static inline lv_coord_t lv_obj_get_style_transform_pivot_y(const struct _lv_obj_t * obj, uint32_t 
  98:..\..\..\arduinoLCD\test\Pain Drain\libraries\lvgl\src\core/lv_obj_style_gen.h **** {
  99:..\..\..\arduinoLCD\test\Pain Drain\libraries\lvgl\src\core/lv_obj_style_gen.h ****     lv_style_value_t v = lv_obj_get_style_prop(obj, part, LV_STYLE_TRANSFORM_PIVOT_Y);
 100:..\..\..\arduinoLCD\test\Pain Drain\libraries\lvgl\src\core/lv_obj_style_gen.h ****     return (lv_coord_t)v.num;
 101:..\..\..\arduinoLCD\test\Pain Drain\libraries\lvgl\src\core/lv_obj_style_gen.h **** }
 102:..\..\..\arduinoLCD\test\Pain Drain\libraries\lvgl\src\core/lv_obj_style_gen.h **** 
 103:..\..\..\arduinoLCD\test\Pain Drain\libraries\lvgl\src\core/lv_obj_style_gen.h **** static inline lv_coord_t lv_obj_get_style_pad_top(const struct _lv_obj_t * obj, uint32_t part)
 104:..\..\..\arduinoLCD\test\Pain Drain\libraries\lvgl\src\core/lv_obj_style_gen.h **** {
 105:..\..\..\arduinoLCD\test\Pain Drain\libraries\lvgl\src\core/lv_obj_style_gen.h ****     lv_style_value_t v = lv_obj_get_style_prop(obj, part, LV_STYLE_PAD_TOP);
 106:..\..\..\arduinoLCD\test\Pain Drain\libraries\lvgl\src\core/lv_obj_style_gen.h ****     return (lv_coord_t)v.num;
 107:..\..\..\arduinoLCD\test\Pain Drain\libraries\lvgl\src\core/lv_obj_style_gen.h **** }
 108:..\..\..\arduinoLCD\test\Pain Drain\libraries\lvgl\src\core/lv_obj_style_gen.h **** 
 109:..\..\..\arduinoLCD\test\Pain Drain\libraries\lvgl\src\core/lv_obj_style_gen.h **** static inline lv_coord_t lv_obj_get_style_pad_bottom(const struct _lv_obj_t * obj, uint32_t part)
 110:..\..\..\arduinoLCD\test\Pain Drain\libraries\lvgl\src\core/lv_obj_style_gen.h **** {
 111:..\..\..\arduinoLCD\test\Pain Drain\libraries\lvgl\src\core/lv_obj_style_gen.h ****     lv_style_value_t v = lv_obj_get_style_prop(obj, part, LV_STYLE_PAD_BOTTOM);
 112:..\..\..\arduinoLCD\test\Pain Drain\libraries\lvgl\src\core/lv_obj_style_gen.h ****     return (lv_coord_t)v.num;
 113:..\..\..\arduinoLCD\test\Pain Drain\libraries\lvgl\src\core/lv_obj_style_gen.h **** }
 114:..\..\..\arduinoLCD\test\Pain Drain\libraries\lvgl\src\core/lv_obj_style_gen.h **** 
 115:..\..\..\arduinoLCD\test\Pain Drain\libraries\lvgl\src\core/lv_obj_style_gen.h **** static inline lv_coord_t lv_obj_get_style_pad_left(const struct _lv_obj_t * obj, uint32_t part)
 116:..\..\..\arduinoLCD\test\Pain Drain\libraries\lvgl\src\core/lv_obj_style_gen.h **** {
 117:..\..\..\arduinoLCD\test\Pain Drain\libraries\lvgl\src\core/lv_obj_style_gen.h ****     lv_style_value_t v = lv_obj_get_style_prop(obj, part, LV_STYLE_PAD_LEFT);
 118:..\..\..\arduinoLCD\test\Pain Drain\libraries\lvgl\src\core/lv_obj_style_gen.h ****     return (lv_coord_t)v.num;
 119:..\..\..\arduinoLCD\test\Pain Drain\libraries\lvgl\src\core/lv_obj_style_gen.h **** }
 120:..\..\..\arduinoLCD\test\Pain Drain\libraries\lvgl\src\core/lv_obj_style_gen.h **** 
 121:..\..\..\arduinoLCD\test\Pain Drain\libraries\lvgl\src\core/lv_obj_style_gen.h **** static inline lv_coord_t lv_obj_get_style_pad_right(const struct _lv_obj_t * obj, uint32_t part)
 122:..\..\..\arduinoLCD\test\Pain Drain\libraries\lvgl\src\core/lv_obj_style_gen.h **** {
 123:..\..\..\arduinoLCD\test\Pain Drain\libraries\lvgl\src\core/lv_obj_style_gen.h ****     lv_style_value_t v = lv_obj_get_style_prop(obj, part, LV_STYLE_PAD_RIGHT);
 124:..\..\..\arduinoLCD\test\Pain Drain\libraries\lvgl\src\core/lv_obj_style_gen.h ****     return (lv_coord_t)v.num;
 125:..\..\..\arduinoLCD\test\Pain Drain\libraries\lvgl\src\core/lv_obj_style_gen.h **** }
 126:..\..\..\arduinoLCD\test\Pain Drain\libraries\lvgl\src\core/lv_obj_style_gen.h **** 
 127:..\..\..\arduinoLCD\test\Pain Drain\libraries\lvgl\src\core/lv_obj_style_gen.h **** static inline lv_coord_t lv_obj_get_style_pad_row(const struct _lv_obj_t * obj, uint32_t part)
 128:..\..\..\arduinoLCD\test\Pain Drain\libraries\lvgl\src\core/lv_obj_style_gen.h **** {
 129:..\..\..\arduinoLCD\test\Pain Drain\libraries\lvgl\src\core/lv_obj_style_gen.h ****     lv_style_value_t v = lv_obj_get_style_prop(obj, part, LV_STYLE_PAD_ROW);
 130:..\..\..\arduinoLCD\test\Pain Drain\libraries\lvgl\src\core/lv_obj_style_gen.h ****     return (lv_coord_t)v.num;
 131:..\..\..\arduinoLCD\test\Pain Drain\libraries\lvgl\src\core/lv_obj_style_gen.h **** }
 132:..\..\..\arduinoLCD\test\Pain Drain\libraries\lvgl\src\core/lv_obj_style_gen.h **** 
 133:..\..\..\arduinoLCD\test\Pain Drain\libraries\lvgl\src\core/lv_obj_style_gen.h **** static inline lv_coord_t lv_obj_get_style_pad_column(const struct _lv_obj_t * obj, uint32_t part)
 134:..\..\..\arduinoLCD\test\Pain Drain\libraries\lvgl\src\core/lv_obj_style_gen.h **** {
 135:..\..\..\arduinoLCD\test\Pain Drain\libraries\lvgl\src\core/lv_obj_style_gen.h ****     lv_style_value_t v = lv_obj_get_style_prop(obj, part, LV_STYLE_PAD_COLUMN);
ARM GAS  C:\Users\haske\AppData\Local\Temp\cc4f9rxb.s 			page 5


 136:..\..\..\arduinoLCD\test\Pain Drain\libraries\lvgl\src\core/lv_obj_style_gen.h ****     return (lv_coord_t)v.num;
 137:..\..\..\arduinoLCD\test\Pain Drain\libraries\lvgl\src\core/lv_obj_style_gen.h **** }
 138:..\..\..\arduinoLCD\test\Pain Drain\libraries\lvgl\src\core/lv_obj_style_gen.h **** 
 139:..\..\..\arduinoLCD\test\Pain Drain\libraries\lvgl\src\core/lv_obj_style_gen.h **** static inline lv_color_t lv_obj_get_style_bg_color(const struct _lv_obj_t * obj, uint32_t part)
 140:..\..\..\arduinoLCD\test\Pain Drain\libraries\lvgl\src\core/lv_obj_style_gen.h **** {
 141:..\..\..\arduinoLCD\test\Pain Drain\libraries\lvgl\src\core/lv_obj_style_gen.h ****     lv_style_value_t v = lv_obj_get_style_prop(obj, part, LV_STYLE_BG_COLOR);
 142:..\..\..\arduinoLCD\test\Pain Drain\libraries\lvgl\src\core/lv_obj_style_gen.h ****     return v.color;
 143:..\..\..\arduinoLCD\test\Pain Drain\libraries\lvgl\src\core/lv_obj_style_gen.h **** }
 144:..\..\..\arduinoLCD\test\Pain Drain\libraries\lvgl\src\core/lv_obj_style_gen.h **** 
 145:..\..\..\arduinoLCD\test\Pain Drain\libraries\lvgl\src\core/lv_obj_style_gen.h **** static inline lv_color_t lv_obj_get_style_bg_color_filtered(const struct _lv_obj_t * obj, uint32_t 
 146:..\..\..\arduinoLCD\test\Pain Drain\libraries\lvgl\src\core/lv_obj_style_gen.h **** {
 147:..\..\..\arduinoLCD\test\Pain Drain\libraries\lvgl\src\core/lv_obj_style_gen.h ****     lv_style_value_t v = _lv_obj_style_apply_color_filter(obj, part, lv_obj_get_style_prop(obj, par
 148:..\..\..\arduinoLCD\test\Pain Drain\libraries\lvgl\src\core/lv_obj_style_gen.h ****     return v.color;
 149:..\..\..\arduinoLCD\test\Pain Drain\libraries\lvgl\src\core/lv_obj_style_gen.h **** }
 150:..\..\..\arduinoLCD\test\Pain Drain\libraries\lvgl\src\core/lv_obj_style_gen.h **** 
 151:..\..\..\arduinoLCD\test\Pain Drain\libraries\lvgl\src\core/lv_obj_style_gen.h **** static inline lv_opa_t lv_obj_get_style_bg_opa(const struct _lv_obj_t * obj, uint32_t part)
 152:..\..\..\arduinoLCD\test\Pain Drain\libraries\lvgl\src\core/lv_obj_style_gen.h **** {
 153:..\..\..\arduinoLCD\test\Pain Drain\libraries\lvgl\src\core/lv_obj_style_gen.h ****     lv_style_value_t v = lv_obj_get_style_prop(obj, part, LV_STYLE_BG_OPA);
 154:..\..\..\arduinoLCD\test\Pain Drain\libraries\lvgl\src\core/lv_obj_style_gen.h ****     return (lv_opa_t)v.num;
 155:..\..\..\arduinoLCD\test\Pain Drain\libraries\lvgl\src\core/lv_obj_style_gen.h **** }
 156:..\..\..\arduinoLCD\test\Pain Drain\libraries\lvgl\src\core/lv_obj_style_gen.h **** 
 157:..\..\..\arduinoLCD\test\Pain Drain\libraries\lvgl\src\core/lv_obj_style_gen.h **** static inline lv_color_t lv_obj_get_style_bg_grad_color(const struct _lv_obj_t * obj, uint32_t part
 158:..\..\..\arduinoLCD\test\Pain Drain\libraries\lvgl\src\core/lv_obj_style_gen.h **** {
 159:..\..\..\arduinoLCD\test\Pain Drain\libraries\lvgl\src\core/lv_obj_style_gen.h ****     lv_style_value_t v = lv_obj_get_style_prop(obj, part, LV_STYLE_BG_GRAD_COLOR);
 160:..\..\..\arduinoLCD\test\Pain Drain\libraries\lvgl\src\core/lv_obj_style_gen.h ****     return v.color;
 161:..\..\..\arduinoLCD\test\Pain Drain\libraries\lvgl\src\core/lv_obj_style_gen.h **** }
 162:..\..\..\arduinoLCD\test\Pain Drain\libraries\lvgl\src\core/lv_obj_style_gen.h **** 
 163:..\..\..\arduinoLCD\test\Pain Drain\libraries\lvgl\src\core/lv_obj_style_gen.h **** static inline lv_color_t lv_obj_get_style_bg_grad_color_filtered(const struct _lv_obj_t * obj, uint
 164:..\..\..\arduinoLCD\test\Pain Drain\libraries\lvgl\src\core/lv_obj_style_gen.h **** {
 165:..\..\..\arduinoLCD\test\Pain Drain\libraries\lvgl\src\core/lv_obj_style_gen.h ****     lv_style_value_t v = _lv_obj_style_apply_color_filter(obj, part, lv_obj_get_style_prop(obj, par
 166:..\..\..\arduinoLCD\test\Pain Drain\libraries\lvgl\src\core/lv_obj_style_gen.h ****     return v.color;
 167:..\..\..\arduinoLCD\test\Pain Drain\libraries\lvgl\src\core/lv_obj_style_gen.h **** }
 168:..\..\..\arduinoLCD\test\Pain Drain\libraries\lvgl\src\core/lv_obj_style_gen.h **** 
 169:..\..\..\arduinoLCD\test\Pain Drain\libraries\lvgl\src\core/lv_obj_style_gen.h **** static inline lv_grad_dir_t lv_obj_get_style_bg_grad_dir(const struct _lv_obj_t * obj, uint32_t par
 170:..\..\..\arduinoLCD\test\Pain Drain\libraries\lvgl\src\core/lv_obj_style_gen.h **** {
 171:..\..\..\arduinoLCD\test\Pain Drain\libraries\lvgl\src\core/lv_obj_style_gen.h ****     lv_style_value_t v = lv_obj_get_style_prop(obj, part, LV_STYLE_BG_GRAD_DIR);
 172:..\..\..\arduinoLCD\test\Pain Drain\libraries\lvgl\src\core/lv_obj_style_gen.h ****     return (lv_grad_dir_t)v.num;
 173:..\..\..\arduinoLCD\test\Pain Drain\libraries\lvgl\src\core/lv_obj_style_gen.h **** }
 174:..\..\..\arduinoLCD\test\Pain Drain\libraries\lvgl\src\core/lv_obj_style_gen.h **** 
 175:..\..\..\arduinoLCD\test\Pain Drain\libraries\lvgl\src\core/lv_obj_style_gen.h **** static inline lv_coord_t lv_obj_get_style_bg_main_stop(const struct _lv_obj_t * obj, uint32_t part)
 176:..\..\..\arduinoLCD\test\Pain Drain\libraries\lvgl\src\core/lv_obj_style_gen.h **** {
 177:..\..\..\arduinoLCD\test\Pain Drain\libraries\lvgl\src\core/lv_obj_style_gen.h ****     lv_style_value_t v = lv_obj_get_style_prop(obj, part, LV_STYLE_BG_MAIN_STOP);
 178:..\..\..\arduinoLCD\test\Pain Drain\libraries\lvgl\src\core/lv_obj_style_gen.h ****     return (lv_coord_t)v.num;
 179:..\..\..\arduinoLCD\test\Pain Drain\libraries\lvgl\src\core/lv_obj_style_gen.h **** }
 180:..\..\..\arduinoLCD\test\Pain Drain\libraries\lvgl\src\core/lv_obj_style_gen.h **** 
 181:..\..\..\arduinoLCD\test\Pain Drain\libraries\lvgl\src\core/lv_obj_style_gen.h **** static inline lv_coord_t lv_obj_get_style_bg_grad_stop(const struct _lv_obj_t * obj, uint32_t part)
 182:..\..\..\arduinoLCD\test\Pain Drain\libraries\lvgl\src\core/lv_obj_style_gen.h **** {
 183:..\..\..\arduinoLCD\test\Pain Drain\libraries\lvgl\src\core/lv_obj_style_gen.h ****     lv_style_value_t v = lv_obj_get_style_prop(obj, part, LV_STYLE_BG_GRAD_STOP);
 184:..\..\..\arduinoLCD\test\Pain Drain\libraries\lvgl\src\core/lv_obj_style_gen.h ****     return (lv_coord_t)v.num;
 185:..\..\..\arduinoLCD\test\Pain Drain\libraries\lvgl\src\core/lv_obj_style_gen.h **** }
 186:..\..\..\arduinoLCD\test\Pain Drain\libraries\lvgl\src\core/lv_obj_style_gen.h **** 
 187:..\..\..\arduinoLCD\test\Pain Drain\libraries\lvgl\src\core/lv_obj_style_gen.h **** static inline const lv_grad_dsc_t * lv_obj_get_style_bg_grad(const struct _lv_obj_t * obj, uint32_t
 188:..\..\..\arduinoLCD\test\Pain Drain\libraries\lvgl\src\core/lv_obj_style_gen.h **** {
 189:..\..\..\arduinoLCD\test\Pain Drain\libraries\lvgl\src\core/lv_obj_style_gen.h ****     lv_style_value_t v = lv_obj_get_style_prop(obj, part, LV_STYLE_BG_GRAD);
 190:..\..\..\arduinoLCD\test\Pain Drain\libraries\lvgl\src\core/lv_obj_style_gen.h ****     return (const lv_grad_dsc_t *)v.ptr;
 191:..\..\..\arduinoLCD\test\Pain Drain\libraries\lvgl\src\core/lv_obj_style_gen.h **** }
 192:..\..\..\arduinoLCD\test\Pain Drain\libraries\lvgl\src\core/lv_obj_style_gen.h **** 
ARM GAS  C:\Users\haske\AppData\Local\Temp\cc4f9rxb.s 			page 6


 193:..\..\..\arduinoLCD\test\Pain Drain\libraries\lvgl\src\core/lv_obj_style_gen.h **** static inline lv_dither_mode_t lv_obj_get_style_bg_dither_mode(const struct _lv_obj_t * obj, uint32
 194:..\..\..\arduinoLCD\test\Pain Drain\libraries\lvgl\src\core/lv_obj_style_gen.h **** {
 195:..\..\..\arduinoLCD\test\Pain Drain\libraries\lvgl\src\core/lv_obj_style_gen.h ****     lv_style_value_t v = lv_obj_get_style_prop(obj, part, LV_STYLE_BG_DITHER_MODE);
 196:..\..\..\arduinoLCD\test\Pain Drain\libraries\lvgl\src\core/lv_obj_style_gen.h ****     return (lv_dither_mode_t)v.num;
 197:..\..\..\arduinoLCD\test\Pain Drain\libraries\lvgl\src\core/lv_obj_style_gen.h **** }
 198:..\..\..\arduinoLCD\test\Pain Drain\libraries\lvgl\src\core/lv_obj_style_gen.h **** 
 199:..\..\..\arduinoLCD\test\Pain Drain\libraries\lvgl\src\core/lv_obj_style_gen.h **** static inline const void * lv_obj_get_style_bg_img_src(const struct _lv_obj_t * obj, uint32_t part)
 200:..\..\..\arduinoLCD\test\Pain Drain\libraries\lvgl\src\core/lv_obj_style_gen.h **** {
 201:..\..\..\arduinoLCD\test\Pain Drain\libraries\lvgl\src\core/lv_obj_style_gen.h ****     lv_style_value_t v = lv_obj_get_style_prop(obj, part, LV_STYLE_BG_IMG_SRC);
 202:..\..\..\arduinoLCD\test\Pain Drain\libraries\lvgl\src\core/lv_obj_style_gen.h ****     return (const void *)v.ptr;
 203:..\..\..\arduinoLCD\test\Pain Drain\libraries\lvgl\src\core/lv_obj_style_gen.h **** }
 204:..\..\..\arduinoLCD\test\Pain Drain\libraries\lvgl\src\core/lv_obj_style_gen.h **** 
 205:..\..\..\arduinoLCD\test\Pain Drain\libraries\lvgl\src\core/lv_obj_style_gen.h **** static inline lv_opa_t lv_obj_get_style_bg_img_opa(const struct _lv_obj_t * obj, uint32_t part)
 206:..\..\..\arduinoLCD\test\Pain Drain\libraries\lvgl\src\core/lv_obj_style_gen.h **** {
 207:..\..\..\arduinoLCD\test\Pain Drain\libraries\lvgl\src\core/lv_obj_style_gen.h ****     lv_style_value_t v = lv_obj_get_style_prop(obj, part, LV_STYLE_BG_IMG_OPA);
 208:..\..\..\arduinoLCD\test\Pain Drain\libraries\lvgl\src\core/lv_obj_style_gen.h ****     return (lv_opa_t)v.num;
 209:..\..\..\arduinoLCD\test\Pain Drain\libraries\lvgl\src\core/lv_obj_style_gen.h **** }
 210:..\..\..\arduinoLCD\test\Pain Drain\libraries\lvgl\src\core/lv_obj_style_gen.h **** 
 211:..\..\..\arduinoLCD\test\Pain Drain\libraries\lvgl\src\core/lv_obj_style_gen.h **** static inline lv_color_t lv_obj_get_style_bg_img_recolor(const struct _lv_obj_t * obj, uint32_t par
 212:..\..\..\arduinoLCD\test\Pain Drain\libraries\lvgl\src\core/lv_obj_style_gen.h **** {
 213:..\..\..\arduinoLCD\test\Pain Drain\libraries\lvgl\src\core/lv_obj_style_gen.h ****     lv_style_value_t v = lv_obj_get_style_prop(obj, part, LV_STYLE_BG_IMG_RECOLOR);
 214:..\..\..\arduinoLCD\test\Pain Drain\libraries\lvgl\src\core/lv_obj_style_gen.h ****     return v.color;
 215:..\..\..\arduinoLCD\test\Pain Drain\libraries\lvgl\src\core/lv_obj_style_gen.h **** }
 216:..\..\..\arduinoLCD\test\Pain Drain\libraries\lvgl\src\core/lv_obj_style_gen.h **** 
 217:..\..\..\arduinoLCD\test\Pain Drain\libraries\lvgl\src\core/lv_obj_style_gen.h **** static inline lv_color_t lv_obj_get_style_bg_img_recolor_filtered(const struct _lv_obj_t * obj, uin
 218:..\..\..\arduinoLCD\test\Pain Drain\libraries\lvgl\src\core/lv_obj_style_gen.h **** {
 219:..\..\..\arduinoLCD\test\Pain Drain\libraries\lvgl\src\core/lv_obj_style_gen.h ****     lv_style_value_t v = _lv_obj_style_apply_color_filter(obj, part, lv_obj_get_style_prop(obj, par
 220:..\..\..\arduinoLCD\test\Pain Drain\libraries\lvgl\src\core/lv_obj_style_gen.h ****     return v.color;
 221:..\..\..\arduinoLCD\test\Pain Drain\libraries\lvgl\src\core/lv_obj_style_gen.h **** }
 222:..\..\..\arduinoLCD\test\Pain Drain\libraries\lvgl\src\core/lv_obj_style_gen.h **** 
 223:..\..\..\arduinoLCD\test\Pain Drain\libraries\lvgl\src\core/lv_obj_style_gen.h **** static inline lv_opa_t lv_obj_get_style_bg_img_recolor_opa(const struct _lv_obj_t * obj, uint32_t p
 224:..\..\..\arduinoLCD\test\Pain Drain\libraries\lvgl\src\core/lv_obj_style_gen.h **** {
 225:..\..\..\arduinoLCD\test\Pain Drain\libraries\lvgl\src\core/lv_obj_style_gen.h ****     lv_style_value_t v = lv_obj_get_style_prop(obj, part, LV_STYLE_BG_IMG_RECOLOR_OPA);
 226:..\..\..\arduinoLCD\test\Pain Drain\libraries\lvgl\src\core/lv_obj_style_gen.h ****     return (lv_opa_t)v.num;
 227:..\..\..\arduinoLCD\test\Pain Drain\libraries\lvgl\src\core/lv_obj_style_gen.h **** }
 228:..\..\..\arduinoLCD\test\Pain Drain\libraries\lvgl\src\core/lv_obj_style_gen.h **** 
 229:..\..\..\arduinoLCD\test\Pain Drain\libraries\lvgl\src\core/lv_obj_style_gen.h **** static inline bool lv_obj_get_style_bg_img_tiled(const struct _lv_obj_t * obj, uint32_t part)
 230:..\..\..\arduinoLCD\test\Pain Drain\libraries\lvgl\src\core/lv_obj_style_gen.h **** {
 231:..\..\..\arduinoLCD\test\Pain Drain\libraries\lvgl\src\core/lv_obj_style_gen.h ****     lv_style_value_t v = lv_obj_get_style_prop(obj, part, LV_STYLE_BG_IMG_TILED);
 232:..\..\..\arduinoLCD\test\Pain Drain\libraries\lvgl\src\core/lv_obj_style_gen.h ****     return (bool)v.num;
 233:..\..\..\arduinoLCD\test\Pain Drain\libraries\lvgl\src\core/lv_obj_style_gen.h **** }
 234:..\..\..\arduinoLCD\test\Pain Drain\libraries\lvgl\src\core/lv_obj_style_gen.h **** 
 235:..\..\..\arduinoLCD\test\Pain Drain\libraries\lvgl\src\core/lv_obj_style_gen.h **** static inline lv_color_t lv_obj_get_style_border_color(const struct _lv_obj_t * obj, uint32_t part)
 236:..\..\..\arduinoLCD\test\Pain Drain\libraries\lvgl\src\core/lv_obj_style_gen.h **** {
 237:..\..\..\arduinoLCD\test\Pain Drain\libraries\lvgl\src\core/lv_obj_style_gen.h ****     lv_style_value_t v = lv_obj_get_style_prop(obj, part, LV_STYLE_BORDER_COLOR);
 238:..\..\..\arduinoLCD\test\Pain Drain\libraries\lvgl\src\core/lv_obj_style_gen.h ****     return v.color;
 239:..\..\..\arduinoLCD\test\Pain Drain\libraries\lvgl\src\core/lv_obj_style_gen.h **** }
 240:..\..\..\arduinoLCD\test\Pain Drain\libraries\lvgl\src\core/lv_obj_style_gen.h **** 
 241:..\..\..\arduinoLCD\test\Pain Drain\libraries\lvgl\src\core/lv_obj_style_gen.h **** static inline lv_color_t lv_obj_get_style_border_color_filtered(const struct _lv_obj_t * obj, uint3
 242:..\..\..\arduinoLCD\test\Pain Drain\libraries\lvgl\src\core/lv_obj_style_gen.h **** {
 243:..\..\..\arduinoLCD\test\Pain Drain\libraries\lvgl\src\core/lv_obj_style_gen.h ****     lv_style_value_t v = _lv_obj_style_apply_color_filter(obj, part, lv_obj_get_style_prop(obj, par
 244:..\..\..\arduinoLCD\test\Pain Drain\libraries\lvgl\src\core/lv_obj_style_gen.h ****     return v.color;
 245:..\..\..\arduinoLCD\test\Pain Drain\libraries\lvgl\src\core/lv_obj_style_gen.h **** }
 246:..\..\..\arduinoLCD\test\Pain Drain\libraries\lvgl\src\core/lv_obj_style_gen.h **** 
 247:..\..\..\arduinoLCD\test\Pain Drain\libraries\lvgl\src\core/lv_obj_style_gen.h **** static inline lv_opa_t lv_obj_get_style_border_opa(const struct _lv_obj_t * obj, uint32_t part)
 248:..\..\..\arduinoLCD\test\Pain Drain\libraries\lvgl\src\core/lv_obj_style_gen.h **** {
 249:..\..\..\arduinoLCD\test\Pain Drain\libraries\lvgl\src\core/lv_obj_style_gen.h ****     lv_style_value_t v = lv_obj_get_style_prop(obj, part, LV_STYLE_BORDER_OPA);
ARM GAS  C:\Users\haske\AppData\Local\Temp\cc4f9rxb.s 			page 7


 250:..\..\..\arduinoLCD\test\Pain Drain\libraries\lvgl\src\core/lv_obj_style_gen.h ****     return (lv_opa_t)v.num;
 251:..\..\..\arduinoLCD\test\Pain Drain\libraries\lvgl\src\core/lv_obj_style_gen.h **** }
 252:..\..\..\arduinoLCD\test\Pain Drain\libraries\lvgl\src\core/lv_obj_style_gen.h **** 
 253:..\..\..\arduinoLCD\test\Pain Drain\libraries\lvgl\src\core/lv_obj_style_gen.h **** static inline lv_coord_t lv_obj_get_style_border_width(const struct _lv_obj_t * obj, uint32_t part)
 254:..\..\..\arduinoLCD\test\Pain Drain\libraries\lvgl\src\core/lv_obj_style_gen.h **** {
 255:..\..\..\arduinoLCD\test\Pain Drain\libraries\lvgl\src\core/lv_obj_style_gen.h ****     lv_style_value_t v = lv_obj_get_style_prop(obj, part, LV_STYLE_BORDER_WIDTH);
 256:..\..\..\arduinoLCD\test\Pain Drain\libraries\lvgl\src\core/lv_obj_style_gen.h ****     return (lv_coord_t)v.num;
 257:..\..\..\arduinoLCD\test\Pain Drain\libraries\lvgl\src\core/lv_obj_style_gen.h **** }
 258:..\..\..\arduinoLCD\test\Pain Drain\libraries\lvgl\src\core/lv_obj_style_gen.h **** 
 259:..\..\..\arduinoLCD\test\Pain Drain\libraries\lvgl\src\core/lv_obj_style_gen.h **** static inline lv_border_side_t lv_obj_get_style_border_side(const struct _lv_obj_t * obj, uint32_t 
 260:..\..\..\arduinoLCD\test\Pain Drain\libraries\lvgl\src\core/lv_obj_style_gen.h **** {
 261:..\..\..\arduinoLCD\test\Pain Drain\libraries\lvgl\src\core/lv_obj_style_gen.h ****     lv_style_value_t v = lv_obj_get_style_prop(obj, part, LV_STYLE_BORDER_SIDE);
 262:..\..\..\arduinoLCD\test\Pain Drain\libraries\lvgl\src\core/lv_obj_style_gen.h ****     return (lv_border_side_t)v.num;
 263:..\..\..\arduinoLCD\test\Pain Drain\libraries\lvgl\src\core/lv_obj_style_gen.h **** }
 264:..\..\..\arduinoLCD\test\Pain Drain\libraries\lvgl\src\core/lv_obj_style_gen.h **** 
 265:..\..\..\arduinoLCD\test\Pain Drain\libraries\lvgl\src\core/lv_obj_style_gen.h **** static inline bool lv_obj_get_style_border_post(const struct _lv_obj_t * obj, uint32_t part)
 266:..\..\..\arduinoLCD\test\Pain Drain\libraries\lvgl\src\core/lv_obj_style_gen.h **** {
 267:..\..\..\arduinoLCD\test\Pain Drain\libraries\lvgl\src\core/lv_obj_style_gen.h ****     lv_style_value_t v = lv_obj_get_style_prop(obj, part, LV_STYLE_BORDER_POST);
 268:..\..\..\arduinoLCD\test\Pain Drain\libraries\lvgl\src\core/lv_obj_style_gen.h ****     return (bool)v.num;
 269:..\..\..\arduinoLCD\test\Pain Drain\libraries\lvgl\src\core/lv_obj_style_gen.h **** }
 270:..\..\..\arduinoLCD\test\Pain Drain\libraries\lvgl\src\core/lv_obj_style_gen.h **** 
 271:..\..\..\arduinoLCD\test\Pain Drain\libraries\lvgl\src\core/lv_obj_style_gen.h **** static inline lv_coord_t lv_obj_get_style_outline_width(const struct _lv_obj_t * obj, uint32_t part
 272:..\..\..\arduinoLCD\test\Pain Drain\libraries\lvgl\src\core/lv_obj_style_gen.h **** {
 273:..\..\..\arduinoLCD\test\Pain Drain\libraries\lvgl\src\core/lv_obj_style_gen.h ****     lv_style_value_t v = lv_obj_get_style_prop(obj, part, LV_STYLE_OUTLINE_WIDTH);
 274:..\..\..\arduinoLCD\test\Pain Drain\libraries\lvgl\src\core/lv_obj_style_gen.h ****     return (lv_coord_t)v.num;
 275:..\..\..\arduinoLCD\test\Pain Drain\libraries\lvgl\src\core/lv_obj_style_gen.h **** }
 276:..\..\..\arduinoLCD\test\Pain Drain\libraries\lvgl\src\core/lv_obj_style_gen.h **** 
 277:..\..\..\arduinoLCD\test\Pain Drain\libraries\lvgl\src\core/lv_obj_style_gen.h **** static inline lv_color_t lv_obj_get_style_outline_color(const struct _lv_obj_t * obj, uint32_t part
 278:..\..\..\arduinoLCD\test\Pain Drain\libraries\lvgl\src\core/lv_obj_style_gen.h **** {
 279:..\..\..\arduinoLCD\test\Pain Drain\libraries\lvgl\src\core/lv_obj_style_gen.h ****     lv_style_value_t v = lv_obj_get_style_prop(obj, part, LV_STYLE_OUTLINE_COLOR);
 280:..\..\..\arduinoLCD\test\Pain Drain\libraries\lvgl\src\core/lv_obj_style_gen.h ****     return v.color;
 281:..\..\..\arduinoLCD\test\Pain Drain\libraries\lvgl\src\core/lv_obj_style_gen.h **** }
 282:..\..\..\arduinoLCD\test\Pain Drain\libraries\lvgl\src\core/lv_obj_style_gen.h **** 
 283:..\..\..\arduinoLCD\test\Pain Drain\libraries\lvgl\src\core/lv_obj_style_gen.h **** static inline lv_color_t lv_obj_get_style_outline_color_filtered(const struct _lv_obj_t * obj, uint
 284:..\..\..\arduinoLCD\test\Pain Drain\libraries\lvgl\src\core/lv_obj_style_gen.h **** {
 285:..\..\..\arduinoLCD\test\Pain Drain\libraries\lvgl\src\core/lv_obj_style_gen.h ****     lv_style_value_t v = _lv_obj_style_apply_color_filter(obj, part, lv_obj_get_style_prop(obj, par
 286:..\..\..\arduinoLCD\test\Pain Drain\libraries\lvgl\src\core/lv_obj_style_gen.h ****     return v.color;
 287:..\..\..\arduinoLCD\test\Pain Drain\libraries\lvgl\src\core/lv_obj_style_gen.h **** }
 288:..\..\..\arduinoLCD\test\Pain Drain\libraries\lvgl\src\core/lv_obj_style_gen.h **** 
 289:..\..\..\arduinoLCD\test\Pain Drain\libraries\lvgl\src\core/lv_obj_style_gen.h **** static inline lv_opa_t lv_obj_get_style_outline_opa(const struct _lv_obj_t * obj, uint32_t part)
 290:..\..\..\arduinoLCD\test\Pain Drain\libraries\lvgl\src\core/lv_obj_style_gen.h **** {
 291:..\..\..\arduinoLCD\test\Pain Drain\libraries\lvgl\src\core/lv_obj_style_gen.h ****     lv_style_value_t v = lv_obj_get_style_prop(obj, part, LV_STYLE_OUTLINE_OPA);
 292:..\..\..\arduinoLCD\test\Pain Drain\libraries\lvgl\src\core/lv_obj_style_gen.h ****     return (lv_opa_t)v.num;
 293:..\..\..\arduinoLCD\test\Pain Drain\libraries\lvgl\src\core/lv_obj_style_gen.h **** }
 294:..\..\..\arduinoLCD\test\Pain Drain\libraries\lvgl\src\core/lv_obj_style_gen.h **** 
 295:..\..\..\arduinoLCD\test\Pain Drain\libraries\lvgl\src\core/lv_obj_style_gen.h **** static inline lv_coord_t lv_obj_get_style_outline_pad(const struct _lv_obj_t * obj, uint32_t part)
 296:..\..\..\arduinoLCD\test\Pain Drain\libraries\lvgl\src\core/lv_obj_style_gen.h **** {
 297:..\..\..\arduinoLCD\test\Pain Drain\libraries\lvgl\src\core/lv_obj_style_gen.h ****     lv_style_value_t v = lv_obj_get_style_prop(obj, part, LV_STYLE_OUTLINE_PAD);
 298:..\..\..\arduinoLCD\test\Pain Drain\libraries\lvgl\src\core/lv_obj_style_gen.h ****     return (lv_coord_t)v.num;
 299:..\..\..\arduinoLCD\test\Pain Drain\libraries\lvgl\src\core/lv_obj_style_gen.h **** }
 300:..\..\..\arduinoLCD\test\Pain Drain\libraries\lvgl\src\core/lv_obj_style_gen.h **** 
 301:..\..\..\arduinoLCD\test\Pain Drain\libraries\lvgl\src\core/lv_obj_style_gen.h **** static inline lv_coord_t lv_obj_get_style_shadow_width(const struct _lv_obj_t * obj, uint32_t part)
 302:..\..\..\arduinoLCD\test\Pain Drain\libraries\lvgl\src\core/lv_obj_style_gen.h **** {
 303:..\..\..\arduinoLCD\test\Pain Drain\libraries\lvgl\src\core/lv_obj_style_gen.h ****     lv_style_value_t v = lv_obj_get_style_prop(obj, part, LV_STYLE_SHADOW_WIDTH);
 304:..\..\..\arduinoLCD\test\Pain Drain\libraries\lvgl\src\core/lv_obj_style_gen.h ****     return (lv_coord_t)v.num;
 305:..\..\..\arduinoLCD\test\Pain Drain\libraries\lvgl\src\core/lv_obj_style_gen.h **** }
 306:..\..\..\arduinoLCD\test\Pain Drain\libraries\lvgl\src\core/lv_obj_style_gen.h **** 
ARM GAS  C:\Users\haske\AppData\Local\Temp\cc4f9rxb.s 			page 8


 307:..\..\..\arduinoLCD\test\Pain Drain\libraries\lvgl\src\core/lv_obj_style_gen.h **** static inline lv_coord_t lv_obj_get_style_shadow_ofs_x(const struct _lv_obj_t * obj, uint32_t part)
 308:..\..\..\arduinoLCD\test\Pain Drain\libraries\lvgl\src\core/lv_obj_style_gen.h **** {
 309:..\..\..\arduinoLCD\test\Pain Drain\libraries\lvgl\src\core/lv_obj_style_gen.h ****     lv_style_value_t v = lv_obj_get_style_prop(obj, part, LV_STYLE_SHADOW_OFS_X);
 310:..\..\..\arduinoLCD\test\Pain Drain\libraries\lvgl\src\core/lv_obj_style_gen.h ****     return (lv_coord_t)v.num;
 311:..\..\..\arduinoLCD\test\Pain Drain\libraries\lvgl\src\core/lv_obj_style_gen.h **** }
 312:..\..\..\arduinoLCD\test\Pain Drain\libraries\lvgl\src\core/lv_obj_style_gen.h **** 
 313:..\..\..\arduinoLCD\test\Pain Drain\libraries\lvgl\src\core/lv_obj_style_gen.h **** static inline lv_coord_t lv_obj_get_style_shadow_ofs_y(const struct _lv_obj_t * obj, uint32_t part)
 314:..\..\..\arduinoLCD\test\Pain Drain\libraries\lvgl\src\core/lv_obj_style_gen.h **** {
 315:..\..\..\arduinoLCD\test\Pain Drain\libraries\lvgl\src\core/lv_obj_style_gen.h ****     lv_style_value_t v = lv_obj_get_style_prop(obj, part, LV_STYLE_SHADOW_OFS_Y);
 316:..\..\..\arduinoLCD\test\Pain Drain\libraries\lvgl\src\core/lv_obj_style_gen.h ****     return (lv_coord_t)v.num;
 317:..\..\..\arduinoLCD\test\Pain Drain\libraries\lvgl\src\core/lv_obj_style_gen.h **** }
 318:..\..\..\arduinoLCD\test\Pain Drain\libraries\lvgl\src\core/lv_obj_style_gen.h **** 
 319:..\..\..\arduinoLCD\test\Pain Drain\libraries\lvgl\src\core/lv_obj_style_gen.h **** static inline lv_coord_t lv_obj_get_style_shadow_spread(const struct _lv_obj_t * obj, uint32_t part
 320:..\..\..\arduinoLCD\test\Pain Drain\libraries\lvgl\src\core/lv_obj_style_gen.h **** {
 321:..\..\..\arduinoLCD\test\Pain Drain\libraries\lvgl\src\core/lv_obj_style_gen.h ****     lv_style_value_t v = lv_obj_get_style_prop(obj, part, LV_STYLE_SHADOW_SPREAD);
 322:..\..\..\arduinoLCD\test\Pain Drain\libraries\lvgl\src\core/lv_obj_style_gen.h ****     return (lv_coord_t)v.num;
 323:..\..\..\arduinoLCD\test\Pain Drain\libraries\lvgl\src\core/lv_obj_style_gen.h **** }
 324:..\..\..\arduinoLCD\test\Pain Drain\libraries\lvgl\src\core/lv_obj_style_gen.h **** 
 325:..\..\..\arduinoLCD\test\Pain Drain\libraries\lvgl\src\core/lv_obj_style_gen.h **** static inline lv_color_t lv_obj_get_style_shadow_color(const struct _lv_obj_t * obj, uint32_t part)
 326:..\..\..\arduinoLCD\test\Pain Drain\libraries\lvgl\src\core/lv_obj_style_gen.h **** {
 327:..\..\..\arduinoLCD\test\Pain Drain\libraries\lvgl\src\core/lv_obj_style_gen.h ****     lv_style_value_t v = lv_obj_get_style_prop(obj, part, LV_STYLE_SHADOW_COLOR);
 328:..\..\..\arduinoLCD\test\Pain Drain\libraries\lvgl\src\core/lv_obj_style_gen.h ****     return v.color;
 329:..\..\..\arduinoLCD\test\Pain Drain\libraries\lvgl\src\core/lv_obj_style_gen.h **** }
 330:..\..\..\arduinoLCD\test\Pain Drain\libraries\lvgl\src\core/lv_obj_style_gen.h **** 
 331:..\..\..\arduinoLCD\test\Pain Drain\libraries\lvgl\src\core/lv_obj_style_gen.h **** static inline lv_color_t lv_obj_get_style_shadow_color_filtered(const struct _lv_obj_t * obj, uint3
 332:..\..\..\arduinoLCD\test\Pain Drain\libraries\lvgl\src\core/lv_obj_style_gen.h **** {
 333:..\..\..\arduinoLCD\test\Pain Drain\libraries\lvgl\src\core/lv_obj_style_gen.h ****     lv_style_value_t v = _lv_obj_style_apply_color_filter(obj, part, lv_obj_get_style_prop(obj, par
 334:..\..\..\arduinoLCD\test\Pain Drain\libraries\lvgl\src\core/lv_obj_style_gen.h ****     return v.color;
 335:..\..\..\arduinoLCD\test\Pain Drain\libraries\lvgl\src\core/lv_obj_style_gen.h **** }
 336:..\..\..\arduinoLCD\test\Pain Drain\libraries\lvgl\src\core/lv_obj_style_gen.h **** 
 337:..\..\..\arduinoLCD\test\Pain Drain\libraries\lvgl\src\core/lv_obj_style_gen.h **** static inline lv_opa_t lv_obj_get_style_shadow_opa(const struct _lv_obj_t * obj, uint32_t part)
 338:..\..\..\arduinoLCD\test\Pain Drain\libraries\lvgl\src\core/lv_obj_style_gen.h **** {
 339:..\..\..\arduinoLCD\test\Pain Drain\libraries\lvgl\src\core/lv_obj_style_gen.h ****     lv_style_value_t v = lv_obj_get_style_prop(obj, part, LV_STYLE_SHADOW_OPA);
 340:..\..\..\arduinoLCD\test\Pain Drain\libraries\lvgl\src\core/lv_obj_style_gen.h ****     return (lv_opa_t)v.num;
 341:..\..\..\arduinoLCD\test\Pain Drain\libraries\lvgl\src\core/lv_obj_style_gen.h **** }
 342:..\..\..\arduinoLCD\test\Pain Drain\libraries\lvgl\src\core/lv_obj_style_gen.h **** 
 343:..\..\..\arduinoLCD\test\Pain Drain\libraries\lvgl\src\core/lv_obj_style_gen.h **** static inline lv_opa_t lv_obj_get_style_img_opa(const struct _lv_obj_t * obj, uint32_t part)
 344:..\..\..\arduinoLCD\test\Pain Drain\libraries\lvgl\src\core/lv_obj_style_gen.h **** {
 345:..\..\..\arduinoLCD\test\Pain Drain\libraries\lvgl\src\core/lv_obj_style_gen.h ****     lv_style_value_t v = lv_obj_get_style_prop(obj, part, LV_STYLE_IMG_OPA);
 346:..\..\..\arduinoLCD\test\Pain Drain\libraries\lvgl\src\core/lv_obj_style_gen.h ****     return (lv_opa_t)v.num;
 347:..\..\..\arduinoLCD\test\Pain Drain\libraries\lvgl\src\core/lv_obj_style_gen.h **** }
 348:..\..\..\arduinoLCD\test\Pain Drain\libraries\lvgl\src\core/lv_obj_style_gen.h **** 
 349:..\..\..\arduinoLCD\test\Pain Drain\libraries\lvgl\src\core/lv_obj_style_gen.h **** static inline lv_color_t lv_obj_get_style_img_recolor(const struct _lv_obj_t * obj, uint32_t part)
 350:..\..\..\arduinoLCD\test\Pain Drain\libraries\lvgl\src\core/lv_obj_style_gen.h **** {
 351:..\..\..\arduinoLCD\test\Pain Drain\libraries\lvgl\src\core/lv_obj_style_gen.h ****     lv_style_value_t v = lv_obj_get_style_prop(obj, part, LV_STYLE_IMG_RECOLOR);
 352:..\..\..\arduinoLCD\test\Pain Drain\libraries\lvgl\src\core/lv_obj_style_gen.h ****     return v.color;
 353:..\..\..\arduinoLCD\test\Pain Drain\libraries\lvgl\src\core/lv_obj_style_gen.h **** }
 354:..\..\..\arduinoLCD\test\Pain Drain\libraries\lvgl\src\core/lv_obj_style_gen.h **** 
 355:..\..\..\arduinoLCD\test\Pain Drain\libraries\lvgl\src\core/lv_obj_style_gen.h **** static inline lv_color_t lv_obj_get_style_img_recolor_filtered(const struct _lv_obj_t * obj, uint32
 356:..\..\..\arduinoLCD\test\Pain Drain\libraries\lvgl\src\core/lv_obj_style_gen.h **** {
 357:..\..\..\arduinoLCD\test\Pain Drain\libraries\lvgl\src\core/lv_obj_style_gen.h ****     lv_style_value_t v = _lv_obj_style_apply_color_filter(obj, part, lv_obj_get_style_prop(obj, par
 358:..\..\..\arduinoLCD\test\Pain Drain\libraries\lvgl\src\core/lv_obj_style_gen.h ****     return v.color;
 359:..\..\..\arduinoLCD\test\Pain Drain\libraries\lvgl\src\core/lv_obj_style_gen.h **** }
 360:..\..\..\arduinoLCD\test\Pain Drain\libraries\lvgl\src\core/lv_obj_style_gen.h **** 
 361:..\..\..\arduinoLCD\test\Pain Drain\libraries\lvgl\src\core/lv_obj_style_gen.h **** static inline lv_opa_t lv_obj_get_style_img_recolor_opa(const struct _lv_obj_t * obj, uint32_t part
 362:..\..\..\arduinoLCD\test\Pain Drain\libraries\lvgl\src\core/lv_obj_style_gen.h **** {
 363:..\..\..\arduinoLCD\test\Pain Drain\libraries\lvgl\src\core/lv_obj_style_gen.h ****     lv_style_value_t v = lv_obj_get_style_prop(obj, part, LV_STYLE_IMG_RECOLOR_OPA);
ARM GAS  C:\Users\haske\AppData\Local\Temp\cc4f9rxb.s 			page 9


 364:..\..\..\arduinoLCD\test\Pain Drain\libraries\lvgl\src\core/lv_obj_style_gen.h ****     return (lv_opa_t)v.num;
 365:..\..\..\arduinoLCD\test\Pain Drain\libraries\lvgl\src\core/lv_obj_style_gen.h **** }
 366:..\..\..\arduinoLCD\test\Pain Drain\libraries\lvgl\src\core/lv_obj_style_gen.h **** 
 367:..\..\..\arduinoLCD\test\Pain Drain\libraries\lvgl\src\core/lv_obj_style_gen.h **** static inline lv_coord_t lv_obj_get_style_line_width(const struct _lv_obj_t * obj, uint32_t part)
 368:..\..\..\arduinoLCD\test\Pain Drain\libraries\lvgl\src\core/lv_obj_style_gen.h **** {
 369:..\..\..\arduinoLCD\test\Pain Drain\libraries\lvgl\src\core/lv_obj_style_gen.h ****     lv_style_value_t v = lv_obj_get_style_prop(obj, part, LV_STYLE_LINE_WIDTH);
 370:..\..\..\arduinoLCD\test\Pain Drain\libraries\lvgl\src\core/lv_obj_style_gen.h ****     return (lv_coord_t)v.num;
 371:..\..\..\arduinoLCD\test\Pain Drain\libraries\lvgl\src\core/lv_obj_style_gen.h **** }
 372:..\..\..\arduinoLCD\test\Pain Drain\libraries\lvgl\src\core/lv_obj_style_gen.h **** 
 373:..\..\..\arduinoLCD\test\Pain Drain\libraries\lvgl\src\core/lv_obj_style_gen.h **** static inline lv_coord_t lv_obj_get_style_line_dash_width(const struct _lv_obj_t * obj, uint32_t pa
 374:..\..\..\arduinoLCD\test\Pain Drain\libraries\lvgl\src\core/lv_obj_style_gen.h **** {
 375:..\..\..\arduinoLCD\test\Pain Drain\libraries\lvgl\src\core/lv_obj_style_gen.h ****     lv_style_value_t v = lv_obj_get_style_prop(obj, part, LV_STYLE_LINE_DASH_WIDTH);
 376:..\..\..\arduinoLCD\test\Pain Drain\libraries\lvgl\src\core/lv_obj_style_gen.h ****     return (lv_coord_t)v.num;
 377:..\..\..\arduinoLCD\test\Pain Drain\libraries\lvgl\src\core/lv_obj_style_gen.h **** }
 378:..\..\..\arduinoLCD\test\Pain Drain\libraries\lvgl\src\core/lv_obj_style_gen.h **** 
 379:..\..\..\arduinoLCD\test\Pain Drain\libraries\lvgl\src\core/lv_obj_style_gen.h **** static inline lv_coord_t lv_obj_get_style_line_dash_gap(const struct _lv_obj_t * obj, uint32_t part
 380:..\..\..\arduinoLCD\test\Pain Drain\libraries\lvgl\src\core/lv_obj_style_gen.h **** {
 381:..\..\..\arduinoLCD\test\Pain Drain\libraries\lvgl\src\core/lv_obj_style_gen.h ****     lv_style_value_t v = lv_obj_get_style_prop(obj, part, LV_STYLE_LINE_DASH_GAP);
 382:..\..\..\arduinoLCD\test\Pain Drain\libraries\lvgl\src\core/lv_obj_style_gen.h ****     return (lv_coord_t)v.num;
 383:..\..\..\arduinoLCD\test\Pain Drain\libraries\lvgl\src\core/lv_obj_style_gen.h **** }
 384:..\..\..\arduinoLCD\test\Pain Drain\libraries\lvgl\src\core/lv_obj_style_gen.h **** 
 385:..\..\..\arduinoLCD\test\Pain Drain\libraries\lvgl\src\core/lv_obj_style_gen.h **** static inline bool lv_obj_get_style_line_rounded(const struct _lv_obj_t * obj, uint32_t part)
 386:..\..\..\arduinoLCD\test\Pain Drain\libraries\lvgl\src\core/lv_obj_style_gen.h **** {
 387:..\..\..\arduinoLCD\test\Pain Drain\libraries\lvgl\src\core/lv_obj_style_gen.h ****     lv_style_value_t v = lv_obj_get_style_prop(obj, part, LV_STYLE_LINE_ROUNDED);
 388:..\..\..\arduinoLCD\test\Pain Drain\libraries\lvgl\src\core/lv_obj_style_gen.h ****     return (bool)v.num;
 389:..\..\..\arduinoLCD\test\Pain Drain\libraries\lvgl\src\core/lv_obj_style_gen.h **** }
 390:..\..\..\arduinoLCD\test\Pain Drain\libraries\lvgl\src\core/lv_obj_style_gen.h **** 
 391:..\..\..\arduinoLCD\test\Pain Drain\libraries\lvgl\src\core/lv_obj_style_gen.h **** static inline lv_color_t lv_obj_get_style_line_color(const struct _lv_obj_t * obj, uint32_t part)
 392:..\..\..\arduinoLCD\test\Pain Drain\libraries\lvgl\src\core/lv_obj_style_gen.h **** {
 393:..\..\..\arduinoLCD\test\Pain Drain\libraries\lvgl\src\core/lv_obj_style_gen.h ****     lv_style_value_t v = lv_obj_get_style_prop(obj, part, LV_STYLE_LINE_COLOR);
 394:..\..\..\arduinoLCD\test\Pain Drain\libraries\lvgl\src\core/lv_obj_style_gen.h ****     return v.color;
 395:..\..\..\arduinoLCD\test\Pain Drain\libraries\lvgl\src\core/lv_obj_style_gen.h **** }
 396:..\..\..\arduinoLCD\test\Pain Drain\libraries\lvgl\src\core/lv_obj_style_gen.h **** 
 397:..\..\..\arduinoLCD\test\Pain Drain\libraries\lvgl\src\core/lv_obj_style_gen.h **** static inline lv_color_t lv_obj_get_style_line_color_filtered(const struct _lv_obj_t * obj, uint32_
 398:..\..\..\arduinoLCD\test\Pain Drain\libraries\lvgl\src\core/lv_obj_style_gen.h **** {
 399:..\..\..\arduinoLCD\test\Pain Drain\libraries\lvgl\src\core/lv_obj_style_gen.h ****     lv_style_value_t v = _lv_obj_style_apply_color_filter(obj, part, lv_obj_get_style_prop(obj, par
 400:..\..\..\arduinoLCD\test\Pain Drain\libraries\lvgl\src\core/lv_obj_style_gen.h ****     return v.color;
 401:..\..\..\arduinoLCD\test\Pain Drain\libraries\lvgl\src\core/lv_obj_style_gen.h **** }
 402:..\..\..\arduinoLCD\test\Pain Drain\libraries\lvgl\src\core/lv_obj_style_gen.h **** 
 403:..\..\..\arduinoLCD\test\Pain Drain\libraries\lvgl\src\core/lv_obj_style_gen.h **** static inline lv_opa_t lv_obj_get_style_line_opa(const struct _lv_obj_t * obj, uint32_t part)
 404:..\..\..\arduinoLCD\test\Pain Drain\libraries\lvgl\src\core/lv_obj_style_gen.h **** {
 405:..\..\..\arduinoLCD\test\Pain Drain\libraries\lvgl\src\core/lv_obj_style_gen.h ****     lv_style_value_t v = lv_obj_get_style_prop(obj, part, LV_STYLE_LINE_OPA);
 406:..\..\..\arduinoLCD\test\Pain Drain\libraries\lvgl\src\core/lv_obj_style_gen.h ****     return (lv_opa_t)v.num;
 407:..\..\..\arduinoLCD\test\Pain Drain\libraries\lvgl\src\core/lv_obj_style_gen.h **** }
 408:..\..\..\arduinoLCD\test\Pain Drain\libraries\lvgl\src\core/lv_obj_style_gen.h **** 
 409:..\..\..\arduinoLCD\test\Pain Drain\libraries\lvgl\src\core/lv_obj_style_gen.h **** static inline lv_coord_t lv_obj_get_style_arc_width(const struct _lv_obj_t * obj, uint32_t part)
 410:..\..\..\arduinoLCD\test\Pain Drain\libraries\lvgl\src\core/lv_obj_style_gen.h **** {
 411:..\..\..\arduinoLCD\test\Pain Drain\libraries\lvgl\src\core/lv_obj_style_gen.h ****     lv_style_value_t v = lv_obj_get_style_prop(obj, part, LV_STYLE_ARC_WIDTH);
 412:..\..\..\arduinoLCD\test\Pain Drain\libraries\lvgl\src\core/lv_obj_style_gen.h ****     return (lv_coord_t)v.num;
 413:..\..\..\arduinoLCD\test\Pain Drain\libraries\lvgl\src\core/lv_obj_style_gen.h **** }
 414:..\..\..\arduinoLCD\test\Pain Drain\libraries\lvgl\src\core/lv_obj_style_gen.h **** 
 415:..\..\..\arduinoLCD\test\Pain Drain\libraries\lvgl\src\core/lv_obj_style_gen.h **** static inline bool lv_obj_get_style_arc_rounded(const struct _lv_obj_t * obj, uint32_t part)
 416:..\..\..\arduinoLCD\test\Pain Drain\libraries\lvgl\src\core/lv_obj_style_gen.h **** {
 417:..\..\..\arduinoLCD\test\Pain Drain\libraries\lvgl\src\core/lv_obj_style_gen.h ****     lv_style_value_t v = lv_obj_get_style_prop(obj, part, LV_STYLE_ARC_ROUNDED);
 418:..\..\..\arduinoLCD\test\Pain Drain\libraries\lvgl\src\core/lv_obj_style_gen.h ****     return (bool)v.num;
 419:..\..\..\arduinoLCD\test\Pain Drain\libraries\lvgl\src\core/lv_obj_style_gen.h **** }
 420:..\..\..\arduinoLCD\test\Pain Drain\libraries\lvgl\src\core/lv_obj_style_gen.h **** 
ARM GAS  C:\Users\haske\AppData\Local\Temp\cc4f9rxb.s 			page 10


 421:..\..\..\arduinoLCD\test\Pain Drain\libraries\lvgl\src\core/lv_obj_style_gen.h **** static inline lv_color_t lv_obj_get_style_arc_color(const struct _lv_obj_t * obj, uint32_t part)
 422:..\..\..\arduinoLCD\test\Pain Drain\libraries\lvgl\src\core/lv_obj_style_gen.h **** {
 423:..\..\..\arduinoLCD\test\Pain Drain\libraries\lvgl\src\core/lv_obj_style_gen.h ****     lv_style_value_t v = lv_obj_get_style_prop(obj, part, LV_STYLE_ARC_COLOR);
 424:..\..\..\arduinoLCD\test\Pain Drain\libraries\lvgl\src\core/lv_obj_style_gen.h ****     return v.color;
 425:..\..\..\arduinoLCD\test\Pain Drain\libraries\lvgl\src\core/lv_obj_style_gen.h **** }
 426:..\..\..\arduinoLCD\test\Pain Drain\libraries\lvgl\src\core/lv_obj_style_gen.h **** 
 427:..\..\..\arduinoLCD\test\Pain Drain\libraries\lvgl\src\core/lv_obj_style_gen.h **** static inline lv_color_t lv_obj_get_style_arc_color_filtered(const struct _lv_obj_t * obj, uint32_t
 428:..\..\..\arduinoLCD\test\Pain Drain\libraries\lvgl\src\core/lv_obj_style_gen.h **** {
 429:..\..\..\arduinoLCD\test\Pain Drain\libraries\lvgl\src\core/lv_obj_style_gen.h ****     lv_style_value_t v = _lv_obj_style_apply_color_filter(obj, part, lv_obj_get_style_prop(obj, par
 430:..\..\..\arduinoLCD\test\Pain Drain\libraries\lvgl\src\core/lv_obj_style_gen.h ****     return v.color;
 431:..\..\..\arduinoLCD\test\Pain Drain\libraries\lvgl\src\core/lv_obj_style_gen.h **** }
 432:..\..\..\arduinoLCD\test\Pain Drain\libraries\lvgl\src\core/lv_obj_style_gen.h **** 
 433:..\..\..\arduinoLCD\test\Pain Drain\libraries\lvgl\src\core/lv_obj_style_gen.h **** static inline lv_opa_t lv_obj_get_style_arc_opa(const struct _lv_obj_t * obj, uint32_t part)
 434:..\..\..\arduinoLCD\test\Pain Drain\libraries\lvgl\src\core/lv_obj_style_gen.h **** {
 435:..\..\..\arduinoLCD\test\Pain Drain\libraries\lvgl\src\core/lv_obj_style_gen.h ****     lv_style_value_t v = lv_obj_get_style_prop(obj, part, LV_STYLE_ARC_OPA);
 436:..\..\..\arduinoLCD\test\Pain Drain\libraries\lvgl\src\core/lv_obj_style_gen.h ****     return (lv_opa_t)v.num;
 437:..\..\..\arduinoLCD\test\Pain Drain\libraries\lvgl\src\core/lv_obj_style_gen.h **** }
 438:..\..\..\arduinoLCD\test\Pain Drain\libraries\lvgl\src\core/lv_obj_style_gen.h **** 
 439:..\..\..\arduinoLCD\test\Pain Drain\libraries\lvgl\src\core/lv_obj_style_gen.h **** static inline const void * lv_obj_get_style_arc_img_src(const struct _lv_obj_t * obj, uint32_t part
 440:..\..\..\arduinoLCD\test\Pain Drain\libraries\lvgl\src\core/lv_obj_style_gen.h **** {
 441:..\..\..\arduinoLCD\test\Pain Drain\libraries\lvgl\src\core/lv_obj_style_gen.h ****     lv_style_value_t v = lv_obj_get_style_prop(obj, part, LV_STYLE_ARC_IMG_SRC);
 442:..\..\..\arduinoLCD\test\Pain Drain\libraries\lvgl\src\core/lv_obj_style_gen.h ****     return (const void *)v.ptr;
 443:..\..\..\arduinoLCD\test\Pain Drain\libraries\lvgl\src\core/lv_obj_style_gen.h **** }
 444:..\..\..\arduinoLCD\test\Pain Drain\libraries\lvgl\src\core/lv_obj_style_gen.h **** 
 445:..\..\..\arduinoLCD\test\Pain Drain\libraries\lvgl\src\core/lv_obj_style_gen.h **** static inline lv_color_t lv_obj_get_style_text_color(const struct _lv_obj_t * obj, uint32_t part)
 446:..\..\..\arduinoLCD\test\Pain Drain\libraries\lvgl\src\core/lv_obj_style_gen.h **** {
 447:..\..\..\arduinoLCD\test\Pain Drain\libraries\lvgl\src\core/lv_obj_style_gen.h ****     lv_style_value_t v = lv_obj_get_style_prop(obj, part, LV_STYLE_TEXT_COLOR);
 448:..\..\..\arduinoLCD\test\Pain Drain\libraries\lvgl\src\core/lv_obj_style_gen.h ****     return v.color;
 449:..\..\..\arduinoLCD\test\Pain Drain\libraries\lvgl\src\core/lv_obj_style_gen.h **** }
 450:..\..\..\arduinoLCD\test\Pain Drain\libraries\lvgl\src\core/lv_obj_style_gen.h **** 
 451:..\..\..\arduinoLCD\test\Pain Drain\libraries\lvgl\src\core/lv_obj_style_gen.h **** static inline lv_color_t lv_obj_get_style_text_color_filtered(const struct _lv_obj_t * obj, uint32_
 452:..\..\..\arduinoLCD\test\Pain Drain\libraries\lvgl\src\core/lv_obj_style_gen.h **** {
 453:..\..\..\arduinoLCD\test\Pain Drain\libraries\lvgl\src\core/lv_obj_style_gen.h ****     lv_style_value_t v = _lv_obj_style_apply_color_filter(obj, part, lv_obj_get_style_prop(obj, par
 454:..\..\..\arduinoLCD\test\Pain Drain\libraries\lvgl\src\core/lv_obj_style_gen.h ****     return v.color;
 455:..\..\..\arduinoLCD\test\Pain Drain\libraries\lvgl\src\core/lv_obj_style_gen.h **** }
 456:..\..\..\arduinoLCD\test\Pain Drain\libraries\lvgl\src\core/lv_obj_style_gen.h **** 
 457:..\..\..\arduinoLCD\test\Pain Drain\libraries\lvgl\src\core/lv_obj_style_gen.h **** static inline lv_opa_t lv_obj_get_style_text_opa(const struct _lv_obj_t * obj, uint32_t part)
 458:..\..\..\arduinoLCD\test\Pain Drain\libraries\lvgl\src\core/lv_obj_style_gen.h **** {
 459:..\..\..\arduinoLCD\test\Pain Drain\libraries\lvgl\src\core/lv_obj_style_gen.h ****     lv_style_value_t v = lv_obj_get_style_prop(obj, part, LV_STYLE_TEXT_OPA);
 460:..\..\..\arduinoLCD\test\Pain Drain\libraries\lvgl\src\core/lv_obj_style_gen.h ****     return (lv_opa_t)v.num;
 461:..\..\..\arduinoLCD\test\Pain Drain\libraries\lvgl\src\core/lv_obj_style_gen.h **** }
 462:..\..\..\arduinoLCD\test\Pain Drain\libraries\lvgl\src\core/lv_obj_style_gen.h **** 
 463:..\..\..\arduinoLCD\test\Pain Drain\libraries\lvgl\src\core/lv_obj_style_gen.h **** static inline const lv_font_t * lv_obj_get_style_text_font(const struct _lv_obj_t * obj, uint32_t p
 464:..\..\..\arduinoLCD\test\Pain Drain\libraries\lvgl\src\core/lv_obj_style_gen.h **** {
 465:..\..\..\arduinoLCD\test\Pain Drain\libraries\lvgl\src\core/lv_obj_style_gen.h ****     lv_style_value_t v = lv_obj_get_style_prop(obj, part, LV_STYLE_TEXT_FONT);
 466:..\..\..\arduinoLCD\test\Pain Drain\libraries\lvgl\src\core/lv_obj_style_gen.h ****     return (const lv_font_t *)v.ptr;
 467:..\..\..\arduinoLCD\test\Pain Drain\libraries\lvgl\src\core/lv_obj_style_gen.h **** }
 468:..\..\..\arduinoLCD\test\Pain Drain\libraries\lvgl\src\core/lv_obj_style_gen.h **** 
 469:..\..\..\arduinoLCD\test\Pain Drain\libraries\lvgl\src\core/lv_obj_style_gen.h **** static inline lv_coord_t lv_obj_get_style_text_letter_space(const struct _lv_obj_t * obj, uint32_t 
 470:..\..\..\arduinoLCD\test\Pain Drain\libraries\lvgl\src\core/lv_obj_style_gen.h **** {
 471:..\..\..\arduinoLCD\test\Pain Drain\libraries\lvgl\src\core/lv_obj_style_gen.h ****     lv_style_value_t v = lv_obj_get_style_prop(obj, part, LV_STYLE_TEXT_LETTER_SPACE);
 472:..\..\..\arduinoLCD\test\Pain Drain\libraries\lvgl\src\core/lv_obj_style_gen.h ****     return (lv_coord_t)v.num;
 473:..\..\..\arduinoLCD\test\Pain Drain\libraries\lvgl\src\core/lv_obj_style_gen.h **** }
 474:..\..\..\arduinoLCD\test\Pain Drain\libraries\lvgl\src\core/lv_obj_style_gen.h **** 
 475:..\..\..\arduinoLCD\test\Pain Drain\libraries\lvgl\src\core/lv_obj_style_gen.h **** static inline lv_coord_t lv_obj_get_style_text_line_space(const struct _lv_obj_t * obj, uint32_t pa
 476:..\..\..\arduinoLCD\test\Pain Drain\libraries\lvgl\src\core/lv_obj_style_gen.h **** {
 477:..\..\..\arduinoLCD\test\Pain Drain\libraries\lvgl\src\core/lv_obj_style_gen.h ****     lv_style_value_t v = lv_obj_get_style_prop(obj, part, LV_STYLE_TEXT_LINE_SPACE);
ARM GAS  C:\Users\haske\AppData\Local\Temp\cc4f9rxb.s 			page 11


 478:..\..\..\arduinoLCD\test\Pain Drain\libraries\lvgl\src\core/lv_obj_style_gen.h ****     return (lv_coord_t)v.num;
 479:..\..\..\arduinoLCD\test\Pain Drain\libraries\lvgl\src\core/lv_obj_style_gen.h **** }
 480:..\..\..\arduinoLCD\test\Pain Drain\libraries\lvgl\src\core/lv_obj_style_gen.h **** 
 481:..\..\..\arduinoLCD\test\Pain Drain\libraries\lvgl\src\core/lv_obj_style_gen.h **** static inline lv_text_decor_t lv_obj_get_style_text_decor(const struct _lv_obj_t * obj, uint32_t pa
 482:..\..\..\arduinoLCD\test\Pain Drain\libraries\lvgl\src\core/lv_obj_style_gen.h **** {
 483:..\..\..\arduinoLCD\test\Pain Drain\libraries\lvgl\src\core/lv_obj_style_gen.h ****     lv_style_value_t v = lv_obj_get_style_prop(obj, part, LV_STYLE_TEXT_DECOR);
 484:..\..\..\arduinoLCD\test\Pain Drain\libraries\lvgl\src\core/lv_obj_style_gen.h ****     return (lv_text_decor_t)v.num;
 485:..\..\..\arduinoLCD\test\Pain Drain\libraries\lvgl\src\core/lv_obj_style_gen.h **** }
 486:..\..\..\arduinoLCD\test\Pain Drain\libraries\lvgl\src\core/lv_obj_style_gen.h **** 
 487:..\..\..\arduinoLCD\test\Pain Drain\libraries\lvgl\src\core/lv_obj_style_gen.h **** static inline lv_text_align_t lv_obj_get_style_text_align(const struct _lv_obj_t * obj, uint32_t pa
 488:..\..\..\arduinoLCD\test\Pain Drain\libraries\lvgl\src\core/lv_obj_style_gen.h **** {
 489:..\..\..\arduinoLCD\test\Pain Drain\libraries\lvgl\src\core/lv_obj_style_gen.h ****     lv_style_value_t v = lv_obj_get_style_prop(obj, part, LV_STYLE_TEXT_ALIGN);
 490:..\..\..\arduinoLCD\test\Pain Drain\libraries\lvgl\src\core/lv_obj_style_gen.h ****     return (lv_text_align_t)v.num;
 491:..\..\..\arduinoLCD\test\Pain Drain\libraries\lvgl\src\core/lv_obj_style_gen.h **** }
 492:..\..\..\arduinoLCD\test\Pain Drain\libraries\lvgl\src\core/lv_obj_style_gen.h **** 
 493:..\..\..\arduinoLCD\test\Pain Drain\libraries\lvgl\src\core/lv_obj_style_gen.h **** static inline lv_coord_t lv_obj_get_style_radius(const struct _lv_obj_t * obj, uint32_t part)
 494:..\..\..\arduinoLCD\test\Pain Drain\libraries\lvgl\src\core/lv_obj_style_gen.h **** {
 495:..\..\..\arduinoLCD\test\Pain Drain\libraries\lvgl\src\core/lv_obj_style_gen.h ****     lv_style_value_t v = lv_obj_get_style_prop(obj, part, LV_STYLE_RADIUS);
 496:..\..\..\arduinoLCD\test\Pain Drain\libraries\lvgl\src\core/lv_obj_style_gen.h ****     return (lv_coord_t)v.num;
 497:..\..\..\arduinoLCD\test\Pain Drain\libraries\lvgl\src\core/lv_obj_style_gen.h **** }
 498:..\..\..\arduinoLCD\test\Pain Drain\libraries\lvgl\src\core/lv_obj_style_gen.h **** 
 499:..\..\..\arduinoLCD\test\Pain Drain\libraries\lvgl\src\core/lv_obj_style_gen.h **** static inline bool lv_obj_get_style_clip_corner(const struct _lv_obj_t * obj, uint32_t part)
 500:..\..\..\arduinoLCD\test\Pain Drain\libraries\lvgl\src\core/lv_obj_style_gen.h **** {
 501:..\..\..\arduinoLCD\test\Pain Drain\libraries\lvgl\src\core/lv_obj_style_gen.h ****     lv_style_value_t v = lv_obj_get_style_prop(obj, part, LV_STYLE_CLIP_CORNER);
 502:..\..\..\arduinoLCD\test\Pain Drain\libraries\lvgl\src\core/lv_obj_style_gen.h ****     return (bool)v.num;
 503:..\..\..\arduinoLCD\test\Pain Drain\libraries\lvgl\src\core/lv_obj_style_gen.h **** }
 504:..\..\..\arduinoLCD\test\Pain Drain\libraries\lvgl\src\core/lv_obj_style_gen.h **** 
 505:..\..\..\arduinoLCD\test\Pain Drain\libraries\lvgl\src\core/lv_obj_style_gen.h **** static inline lv_opa_t lv_obj_get_style_opa(const struct _lv_obj_t * obj, uint32_t part)
 506:..\..\..\arduinoLCD\test\Pain Drain\libraries\lvgl\src\core/lv_obj_style_gen.h **** {
 507:..\..\..\arduinoLCD\test\Pain Drain\libraries\lvgl\src\core/lv_obj_style_gen.h ****     lv_style_value_t v = lv_obj_get_style_prop(obj, part, LV_STYLE_OPA);
  52              		.loc 2 507 0
  53 000c 6022     		movs	r2, #96
  54              	.LVL3:
  55 000e FFF7FEFF 		bl	lv_obj_get_style_prop
  56              	.LVL4:
 508:..\..\..\arduinoLCD\test\Pain Drain\libraries\lvgl\src\core/lv_obj_style_gen.h ****     return (lv_opa_t)v.num;
  57              		.loc 2 508 0
  58 0012 C7B2     		uxtb	r7, r0
  59              	.LVL5:
  60              	.LBE203:
  61              	.LBE202:
  43:..\..\..\arduinoLCD\test\Pain Drain\libraries\lvgl\src\core/lv_obj_draw.c ****         opa = lv_obj_get_style_opa(obj, part);
  44:..\..\..\arduinoLCD\test\Pain Drain\libraries\lvgl\src\core/lv_obj_draw.c ****         if(opa <= LV_OPA_MIN) {
  62              		.loc 1 44 0
  63 0014 022F     		cmp	r7, #2
  64 0016 0AD8     		bhi	.L2
  45:..\..\..\arduinoLCD\test\Pain Drain\libraries\lvgl\src\core/lv_obj_draw.c ****             draw_dsc->bg_opa = LV_OPA_TRANSP;
  65              		.loc 1 45 0
  66 0018 0023     		movs	r3, #0
  67 001a E370     		strb	r3, [r4, #3]
  46:..\..\..\arduinoLCD\test\Pain Drain\libraries\lvgl\src\core/lv_obj_draw.c ****             draw_dsc->bg_img_opa = LV_OPA_TRANSP;
  68              		.loc 1 46 0
  69 001c A376     		strb	r3, [r4, #26]
  47:..\..\..\arduinoLCD\test\Pain Drain\libraries\lvgl\src\core/lv_obj_draw.c ****             draw_dsc->border_opa = LV_OPA_TRANSP;
  70              		.loc 1 47 0
  71 001e 2222     		movs	r2, #34
  72 0020 A354     		strb	r3, [r4, r2]
ARM GAS  C:\Users\haske\AppData\Local\Temp\cc4f9rxb.s 			page 12


  48:..\..\..\arduinoLCD\test\Pain Drain\libraries\lvgl\src\core/lv_obj_draw.c ****             draw_dsc->outline_opa = LV_OPA_TRANSP;
  73              		.loc 1 48 0
  74 0022 0832     		adds	r2, r2, #8
  75 0024 A354     		strb	r3, [r4, r2]
  49:..\..\..\arduinoLCD\test\Pain Drain\libraries\lvgl\src\core/lv_obj_draw.c ****             draw_dsc->shadow_opa = LV_OPA_TRANSP;
  76              		.loc 1 49 0
  77 0026 0C32     		adds	r2, r2, #12
  78 0028 A354     		strb	r3, [r4, r2]
  50:..\..\..\arduinoLCD\test\Pain Drain\libraries\lvgl\src\core/lv_obj_draw.c ****             return;
  79              		.loc 1 50 0
  80 002a 57E1     		b	.L1
  81              	.LVL6:
  82              	.L13:
  41:..\..\..\arduinoLCD\test\Pain Drain\libraries\lvgl\src\core/lv_obj_draw.c ****     if(part != LV_PART_MAIN) {
  83              		.loc 1 41 0
  84 002c FF27     		movs	r7, #255
  85              	.LVL7:
  86              	.L2:
  51:..\..\..\arduinoLCD\test\Pain Drain\libraries\lvgl\src\core/lv_obj_draw.c ****         }
  52:..\..\..\arduinoLCD\test\Pain Drain\libraries\lvgl\src\core/lv_obj_draw.c ****     }
  53:..\..\..\arduinoLCD\test\Pain Drain\libraries\lvgl\src\core/lv_obj_draw.c **** 
  54:..\..\..\arduinoLCD\test\Pain Drain\libraries\lvgl\src\core/lv_obj_draw.c **** #if LV_DRAW_COMPLEX
  55:..\..\..\arduinoLCD\test\Pain Drain\libraries\lvgl\src\core/lv_obj_draw.c ****     if(part != LV_PART_MAIN) draw_dsc->blend_mode = lv_obj_get_style_blend_mode(obj, part);
  87              		.loc 1 55 0
  88 002e 002D     		cmp	r5, #0
  89 0030 05D0     		beq	.L4
  90              	.LVL8:
  91              	.LBB204:
  92              	.LBB205:
 509:..\..\..\arduinoLCD\test\Pain Drain\libraries\lvgl\src\core/lv_obj_style_gen.h **** }
 510:..\..\..\arduinoLCD\test\Pain Drain\libraries\lvgl\src\core/lv_obj_style_gen.h **** 
 511:..\..\..\arduinoLCD\test\Pain Drain\libraries\lvgl\src\core/lv_obj_style_gen.h **** static inline const lv_color_filter_dsc_t * lv_obj_get_style_color_filter_dsc(const struct _lv_obj_
 512:..\..\..\arduinoLCD\test\Pain Drain\libraries\lvgl\src\core/lv_obj_style_gen.h **** {
 513:..\..\..\arduinoLCD\test\Pain Drain\libraries\lvgl\src\core/lv_obj_style_gen.h ****     lv_style_value_t v = lv_obj_get_style_prop(obj, part, LV_STYLE_COLOR_FILTER_DSC);
 514:..\..\..\arduinoLCD\test\Pain Drain\libraries\lvgl\src\core/lv_obj_style_gen.h ****     return (const lv_color_filter_dsc_t *)v.ptr;
 515:..\..\..\arduinoLCD\test\Pain Drain\libraries\lvgl\src\core/lv_obj_style_gen.h **** }
 516:..\..\..\arduinoLCD\test\Pain Drain\libraries\lvgl\src\core/lv_obj_style_gen.h **** 
 517:..\..\..\arduinoLCD\test\Pain Drain\libraries\lvgl\src\core/lv_obj_style_gen.h **** static inline lv_opa_t lv_obj_get_style_color_filter_opa(const struct _lv_obj_t * obj, uint32_t par
 518:..\..\..\arduinoLCD\test\Pain Drain\libraries\lvgl\src\core/lv_obj_style_gen.h **** {
 519:..\..\..\arduinoLCD\test\Pain Drain\libraries\lvgl\src\core/lv_obj_style_gen.h ****     lv_style_value_t v = lv_obj_get_style_prop(obj, part, LV_STYLE_COLOR_FILTER_OPA);
 520:..\..\..\arduinoLCD\test\Pain Drain\libraries\lvgl\src\core/lv_obj_style_gen.h ****     return (lv_opa_t)v.num;
 521:..\..\..\arduinoLCD\test\Pain Drain\libraries\lvgl\src\core/lv_obj_style_gen.h **** }
 522:..\..\..\arduinoLCD\test\Pain Drain\libraries\lvgl\src\core/lv_obj_style_gen.h **** 
 523:..\..\..\arduinoLCD\test\Pain Drain\libraries\lvgl\src\core/lv_obj_style_gen.h **** static inline const lv_anim_t * lv_obj_get_style_anim(const struct _lv_obj_t * obj, uint32_t part)
 524:..\..\..\arduinoLCD\test\Pain Drain\libraries\lvgl\src\core/lv_obj_style_gen.h **** {
 525:..\..\..\arduinoLCD\test\Pain Drain\libraries\lvgl\src\core/lv_obj_style_gen.h ****     lv_style_value_t v = lv_obj_get_style_prop(obj, part, LV_STYLE_ANIM);
 526:..\..\..\arduinoLCD\test\Pain Drain\libraries\lvgl\src\core/lv_obj_style_gen.h ****     return (const lv_anim_t *)v.ptr;
 527:..\..\..\arduinoLCD\test\Pain Drain\libraries\lvgl\src\core/lv_obj_style_gen.h **** }
 528:..\..\..\arduinoLCD\test\Pain Drain\libraries\lvgl\src\core/lv_obj_style_gen.h **** 
 529:..\..\..\arduinoLCD\test\Pain Drain\libraries\lvgl\src\core/lv_obj_style_gen.h **** static inline uint32_t lv_obj_get_style_anim_time(const struct _lv_obj_t * obj, uint32_t part)
 530:..\..\..\arduinoLCD\test\Pain Drain\libraries\lvgl\src\core/lv_obj_style_gen.h **** {
 531:..\..\..\arduinoLCD\test\Pain Drain\libraries\lvgl\src\core/lv_obj_style_gen.h ****     lv_style_value_t v = lv_obj_get_style_prop(obj, part, LV_STYLE_ANIM_TIME);
 532:..\..\..\arduinoLCD\test\Pain Drain\libraries\lvgl\src\core/lv_obj_style_gen.h ****     return (uint32_t)v.num;
 533:..\..\..\arduinoLCD\test\Pain Drain\libraries\lvgl\src\core/lv_obj_style_gen.h **** }
 534:..\..\..\arduinoLCD\test\Pain Drain\libraries\lvgl\src\core/lv_obj_style_gen.h **** 
 535:..\..\..\arduinoLCD\test\Pain Drain\libraries\lvgl\src\core/lv_obj_style_gen.h **** static inline uint32_t lv_obj_get_style_anim_speed(const struct _lv_obj_t * obj, uint32_t part)
 536:..\..\..\arduinoLCD\test\Pain Drain\libraries\lvgl\src\core/lv_obj_style_gen.h **** {
ARM GAS  C:\Users\haske\AppData\Local\Temp\cc4f9rxb.s 			page 13


 537:..\..\..\arduinoLCD\test\Pain Drain\libraries\lvgl\src\core/lv_obj_style_gen.h ****     lv_style_value_t v = lv_obj_get_style_prop(obj, part, LV_STYLE_ANIM_SPEED);
 538:..\..\..\arduinoLCD\test\Pain Drain\libraries\lvgl\src\core/lv_obj_style_gen.h ****     return (uint32_t)v.num;
 539:..\..\..\arduinoLCD\test\Pain Drain\libraries\lvgl\src\core/lv_obj_style_gen.h **** }
 540:..\..\..\arduinoLCD\test\Pain Drain\libraries\lvgl\src\core/lv_obj_style_gen.h **** 
 541:..\..\..\arduinoLCD\test\Pain Drain\libraries\lvgl\src\core/lv_obj_style_gen.h **** static inline const lv_style_transition_dsc_t * lv_obj_get_style_transition(const struct _lv_obj_t 
 542:..\..\..\arduinoLCD\test\Pain Drain\libraries\lvgl\src\core/lv_obj_style_gen.h **** {
 543:..\..\..\arduinoLCD\test\Pain Drain\libraries\lvgl\src\core/lv_obj_style_gen.h ****     lv_style_value_t v = lv_obj_get_style_prop(obj, part, LV_STYLE_TRANSITION);
 544:..\..\..\arduinoLCD\test\Pain Drain\libraries\lvgl\src\core/lv_obj_style_gen.h ****     return (const lv_style_transition_dsc_t *)v.ptr;
 545:..\..\..\arduinoLCD\test\Pain Drain\libraries\lvgl\src\core/lv_obj_style_gen.h **** }
 546:..\..\..\arduinoLCD\test\Pain Drain\libraries\lvgl\src\core/lv_obj_style_gen.h **** 
 547:..\..\..\arduinoLCD\test\Pain Drain\libraries\lvgl\src\core/lv_obj_style_gen.h **** static inline lv_blend_mode_t lv_obj_get_style_blend_mode(const struct _lv_obj_t * obj, uint32_t pa
 548:..\..\..\arduinoLCD\test\Pain Drain\libraries\lvgl\src\core/lv_obj_style_gen.h **** {
 549:..\..\..\arduinoLCD\test\Pain Drain\libraries\lvgl\src\core/lv_obj_style_gen.h ****     lv_style_value_t v = lv_obj_get_style_prop(obj, part, LV_STYLE_BLEND_MODE);
  93              		.loc 2 549 0
  94 0032 6722     		movs	r2, #103
  95 0034 2900     		movs	r1, r5
  96 0036 3000     		movs	r0, r6
  97 0038 FFF7FEFF 		bl	lv_obj_get_style_prop
  98              	.LVL9:
  99              	.LBE205:
 100              	.LBE204:
 101              		.loc 1 55 0
 102 003c A070     		strb	r0, [r4, #2]
 103              	.L4:
 104              	.LVL10:
 105              	.LBB206:
 106              	.LBB207:
 495:..\..\..\arduinoLCD\test\Pain Drain\libraries\lvgl\src\core/lv_obj_style_gen.h ****     return (lv_coord_t)v.num;
 107              		.loc 2 495 0
 108 003e 0B22     		movs	r2, #11
 109 0040 2900     		movs	r1, r5
 110 0042 3000     		movs	r0, r6
 111 0044 FFF7FEFF 		bl	lv_obj_get_style_prop
 112              	.LVL11:
 113              	.LBE207:
 114              	.LBE206:
  56:..\..\..\arduinoLCD\test\Pain Drain\libraries\lvgl\src\core/lv_obj_draw.c **** 
  57:..\..\..\arduinoLCD\test\Pain Drain\libraries\lvgl\src\core/lv_obj_draw.c ****     draw_dsc->radius = lv_obj_get_style_radius(obj, part);
 115              		.loc 1 57 0
 116 0048 2080     		strh	r0, [r4]
  58:..\..\..\arduinoLCD\test\Pain Drain\libraries\lvgl\src\core/lv_obj_draw.c **** 
  59:..\..\..\arduinoLCD\test\Pain Drain\libraries\lvgl\src\core/lv_obj_draw.c ****     if(draw_dsc->bg_opa != LV_OPA_TRANSP) {
 117              		.loc 1 59 0
 118 004a E378     		ldrb	r3, [r4, #3]
 119 004c 002B     		cmp	r3, #0
 120 004e 61D0     		beq	.L5
 121              	.LVL12:
 122              	.LBB208:
 123              	.LBB209:
 153:..\..\..\arduinoLCD\test\Pain Drain\libraries\lvgl\src\core/lv_obj_style_gen.h ****     return (lv_opa_t)v.num;
 124              		.loc 2 153 0
 125 0050 2122     		movs	r2, #33
 126 0052 2900     		movs	r1, r5
 127 0054 3000     		movs	r0, r6
 128 0056 FFF7FEFF 		bl	lv_obj_get_style_prop
 129              	.LVL13:
 154:..\..\..\arduinoLCD\test\Pain Drain\libraries\lvgl\src\core/lv_obj_style_gen.h **** }
ARM GAS  C:\Users\haske\AppData\Local\Temp\cc4f9rxb.s 			page 14


 130              		.loc 2 154 0
 131 005a C0B2     		uxtb	r0, r0
 132              	.LVL14:
 133              	.LBE209:
 134              	.LBE208:
  60:..\..\..\arduinoLCD\test\Pain Drain\libraries\lvgl\src\core/lv_obj_draw.c ****         draw_dsc->bg_opa = lv_obj_get_style_bg_opa(obj, part);
 135              		.loc 1 60 0
 136 005c E070     		strb	r0, [r4, #3]
  61:..\..\..\arduinoLCD\test\Pain Drain\libraries\lvgl\src\core/lv_obj_draw.c ****         if(draw_dsc->bg_opa > LV_OPA_MIN) {
 137              		.loc 1 61 0
 138 005e 0228     		cmp	r0, #2
 139 0060 58D9     		bls	.L5
 140              	.LVL15:
 141              	.LBB210:
 142              	.LBB211:
 143              	.LBB212:
 147:..\..\..\arduinoLCD\test\Pain Drain\libraries\lvgl\src\core/lv_obj_style_gen.h ****     return v.color;
 144              		.loc 2 147 0
 145 0062 2022     		movs	r2, #32
 146 0064 2900     		movs	r1, r5
 147 0066 3000     		movs	r0, r6
 148 0068 FFF7FEFF 		bl	lv_obj_get_style_prop
 149              	.LVL16:
 150 006c 0200     		movs	r2, r0
 151 006e 2900     		movs	r1, r5
 152 0070 3000     		movs	r0, r6
 153 0072 FFF7FEFF 		bl	_lv_obj_style_apply_color_filter
 154              	.LVL17:
 155              	.LBE212:
 156              	.LBE211:
  62:..\..\..\arduinoLCD\test\Pain Drain\libraries\lvgl\src\core/lv_obj_draw.c ****             draw_dsc->bg_color = lv_obj_get_style_bg_color_filtered(obj, part);
 157              		.loc 1 62 0
 158 0076 A080     		strh	r0, [r4, #4]
 159              	.LVL18:
 160              	.LBB213:
 161              	.LBB214:
 189:..\..\..\arduinoLCD\test\Pain Drain\libraries\lvgl\src\core/lv_obj_style_gen.h ****     return (const lv_grad_dsc_t *)v.ptr;
 162              		.loc 2 189 0
 163 0078 2622     		movs	r2, #38
 164 007a 2900     		movs	r1, r5
 165 007c 3000     		movs	r0, r6
 166 007e FFF7FEFF 		bl	lv_obj_get_style_prop
 167              	.LVL19:
 168              	.LBE214:
 169              	.LBE213:
  63:..\..\..\arduinoLCD\test\Pain Drain\libraries\lvgl\src\core/lv_obj_draw.c ****             const lv_grad_dsc_t * grad = lv_obj_get_style_bg_grad(obj, part);
  64:..\..\..\arduinoLCD\test\Pain Drain\libraries\lvgl\src\core/lv_obj_draw.c ****             if(grad && grad->dir != LV_GRAD_DIR_NONE) {
 170              		.loc 1 64 0
 171 0082 0028     		cmp	r0, #0
 172 0084 09D0     		beq	.L6
 173              		.loc 1 64 0 is_stmt 0 discriminator 1
 174 0086 437A     		ldrb	r3, [r0, #9]
 175 0088 5B07     		lsls	r3, r3, #29
 176 008a 06D0     		beq	.L6
  65:..\..\..\arduinoLCD\test\Pain Drain\libraries\lvgl\src\core/lv_obj_draw.c ****                 lv_memcpy(&draw_dsc->bg_grad, grad, sizeof(*grad));
 177              		.loc 1 65 0 is_stmt 1
 178 008c A31D     		adds	r3, r4, #6
ARM GAS  C:\Users\haske\AppData\Local\Temp\cc4f9rxb.s 			page 15


 179 008e 0A22     		movs	r2, #10
 180 0090 0100     		movs	r1, r0
 181 0092 1800     		movs	r0, r3
 182 0094 FFF7FEFF 		bl	lv_memcpy
 183              	.LVL20:
 184 0098 3CE0     		b	.L5
 185              	.L6:
 186              	.LVL21:
 187              	.LBB215:
 188              	.LBB216:
 171:..\..\..\arduinoLCD\test\Pain Drain\libraries\lvgl\src\core/lv_obj_style_gen.h ****     return (lv_grad_dir_t)v.num;
 189              		.loc 2 171 0
 190 009a 2322     		movs	r2, #35
 191 009c 2900     		movs	r1, r5
 192 009e 3000     		movs	r0, r6
 193 00a0 FFF7FEFF 		bl	lv_obj_get_style_prop
 194              	.LVL22:
 195              	.LBE216:
 196              	.LBE215:
  66:..\..\..\arduinoLCD\test\Pain Drain\libraries\lvgl\src\core/lv_obj_draw.c ****             }
  67:..\..\..\arduinoLCD\test\Pain Drain\libraries\lvgl\src\core/lv_obj_draw.c ****             else {
  68:..\..\..\arduinoLCD\test\Pain Drain\libraries\lvgl\src\core/lv_obj_draw.c ****                 draw_dsc->bg_grad.dir = lv_obj_get_style_bg_grad_dir(obj, part);
 197              		.loc 1 68 0
 198 00a4 0722     		movs	r2, #7
 199              	.LVL23:
 200 00a6 1040     		ands	r0, r2
 201              	.LVL24:
 202 00a8 E37B     		ldrb	r3, [r4, #15]
 203 00aa 0721     		movs	r1, #7
 204 00ac 8B43     		bics	r3, r1
 205 00ae 1843     		orrs	r0, r3
 206 00b0 E073     		strb	r0, [r4, #15]
  69:..\..\..\arduinoLCD\test\Pain Drain\libraries\lvgl\src\core/lv_obj_draw.c ****                 if(draw_dsc->bg_grad.dir != LV_GRAD_DIR_NONE) {
 207              		.loc 1 69 0
 208 00b2 0242     		tst	r2, r0
 209 00b4 21D0     		beq	.L7
 210              	.LVL25:
 211              	.LBB217:
 212              	.LBB218:
 147:..\..\..\arduinoLCD\test\Pain Drain\libraries\lvgl\src\core/lv_obj_style_gen.h ****     return v.color;
 213              		.loc 2 147 0
 214 00b6 1932     		adds	r2, r2, #25
 215 00b8 2900     		movs	r1, r5
 216 00ba 3000     		movs	r0, r6
 217 00bc FFF7FEFF 		bl	lv_obj_get_style_prop
 218              	.LVL26:
 219 00c0 0200     		movs	r2, r0
 220 00c2 2900     		movs	r1, r5
 221 00c4 3000     		movs	r0, r6
 222 00c6 FFF7FEFF 		bl	_lv_obj_style_apply_color_filter
 223              	.LVL27:
 224              	.LBE218:
 225              	.LBE217:
  70:..\..\..\arduinoLCD\test\Pain Drain\libraries\lvgl\src\core/lv_obj_draw.c ****                     draw_dsc->bg_grad.stops[0].color = lv_obj_get_style_bg_color_filtered(obj, part
 226              		.loc 1 70 0
 227 00ca E080     		strh	r0, [r4, #6]
 228              	.LVL28:
ARM GAS  C:\Users\haske\AppData\Local\Temp\cc4f9rxb.s 			page 16


 229              	.LBB219:
 230              	.LBB220:
 165:..\..\..\arduinoLCD\test\Pain Drain\libraries\lvgl\src\core/lv_obj_style_gen.h ****     return v.color;
 231              		.loc 2 165 0
 232 00cc 2222     		movs	r2, #34
 233 00ce 2900     		movs	r1, r5
 234 00d0 3000     		movs	r0, r6
 235 00d2 FFF7FEFF 		bl	lv_obj_get_style_prop
 236              	.LVL29:
 237 00d6 0200     		movs	r2, r0
 238 00d8 2900     		movs	r1, r5
 239 00da 3000     		movs	r0, r6
 240 00dc FFF7FEFF 		bl	_lv_obj_style_apply_color_filter
 241              	.LVL30:
 242              	.LBE220:
 243              	.LBE219:
  71:..\..\..\arduinoLCD\test\Pain Drain\libraries\lvgl\src\core/lv_obj_draw.c ****                     draw_dsc->bg_grad.stops[1].color = lv_obj_get_style_bg_grad_color_filtered(obj,
 244              		.loc 1 71 0
 245 00e0 6081     		strh	r0, [r4, #10]
 246              	.LVL31:
 247              	.LBB221:
 248              	.LBB222:
 177:..\..\..\arduinoLCD\test\Pain Drain\libraries\lvgl\src\core/lv_obj_style_gen.h ****     return (lv_coord_t)v.num;
 249              		.loc 2 177 0
 250 00e2 2422     		movs	r2, #36
 251 00e4 2900     		movs	r1, r5
 252 00e6 3000     		movs	r0, r6
 253 00e8 FFF7FEFF 		bl	lv_obj_get_style_prop
 254              	.LVL32:
 255              	.LBE222:
 256              	.LBE221:
  72:..\..\..\arduinoLCD\test\Pain Drain\libraries\lvgl\src\core/lv_obj_draw.c ****                     draw_dsc->bg_grad.stops[0].frac = lv_obj_get_style_bg_main_stop(obj, part);
 257              		.loc 1 72 0
 258 00ec 2072     		strb	r0, [r4, #8]
 259              	.LVL33:
 260              	.LBB223:
 261              	.LBB224:
 183:..\..\..\arduinoLCD\test\Pain Drain\libraries\lvgl\src\core/lv_obj_style_gen.h ****     return (lv_coord_t)v.num;
 262              		.loc 2 183 0
 263 00ee 2522     		movs	r2, #37
 264 00f0 2900     		movs	r1, r5
 265 00f2 3000     		movs	r0, r6
 266 00f4 FFF7FEFF 		bl	lv_obj_get_style_prop
 267              	.LVL34:
 268              	.LBE224:
 269              	.LBE223:
  73:..\..\..\arduinoLCD\test\Pain Drain\libraries\lvgl\src\core/lv_obj_draw.c ****                     draw_dsc->bg_grad.stops[1].frac = lv_obj_get_style_bg_grad_stop(obj, part);
 270              		.loc 1 73 0
 271 00f8 2073     		strb	r0, [r4, #12]
 272              	.L7:
 273              	.LVL35:
 274              	.LBB225:
 275              	.LBB226:
 195:..\..\..\arduinoLCD\test\Pain Drain\libraries\lvgl\src\core/lv_obj_style_gen.h ****     return (lv_dither_mode_t)v.num;
 276              		.loc 2 195 0
 277 00fa 2722     		movs	r2, #39
 278 00fc 2900     		movs	r1, r5
ARM GAS  C:\Users\haske\AppData\Local\Temp\cc4f9rxb.s 			page 17


 279 00fe 3000     		movs	r0, r6
 280 0100 FFF7FEFF 		bl	lv_obj_get_style_prop
 281              	.LVL36:
 282              	.LBE226:
 283              	.LBE225:
  74:..\..\..\arduinoLCD\test\Pain Drain\libraries\lvgl\src\core/lv_obj_draw.c ****                 }
  75:..\..\..\arduinoLCD\test\Pain Drain\libraries\lvgl\src\core/lv_obj_draw.c ****                 draw_dsc->bg_grad.dither = lv_obj_get_style_bg_dither_mode(obj, part);
 284              		.loc 1 75 0
 285 0104 0723     		movs	r3, #7
 286              	.LVL37:
 287 0106 1840     		ands	r0, r3
 288              	.LVL38:
 289 0108 C300     		lsls	r3, r0, #3
 290 010a E07B     		ldrb	r0, [r4, #15]
 291 010c 3822     		movs	r2, #56
 292 010e 9043     		bics	r0, r2
 293 0110 1843     		orrs	r0, r3
 294 0112 E073     		strb	r0, [r4, #15]
 295              	.L5:
 296              	.LVL39:
 297              	.LBE210:
 298              	.LBB227:
 299              	.LBB228:
 255:..\..\..\arduinoLCD\test\Pain Drain\libraries\lvgl\src\core/lv_obj_style_gen.h ****     return (lv_coord_t)v.num;
 300              		.loc 2 255 0
 301 0114 3222     		movs	r2, #50
 302 0116 2900     		movs	r1, r5
 303 0118 3000     		movs	r0, r6
 304 011a FFF7FEFF 		bl	lv_obj_get_style_prop
 305              	.LVL40:
 256:..\..\..\arduinoLCD\test\Pain Drain\libraries\lvgl\src\core/lv_obj_style_gen.h **** }
 306              		.loc 2 256 0
 307 011e 00B2     		sxth	r0, r0
 308              	.LVL41:
 309              	.LBE228:
 310              	.LBE227:
  76:..\..\..\arduinoLCD\test\Pain Drain\libraries\lvgl\src\core/lv_obj_draw.c ****             }
  77:..\..\..\arduinoLCD\test\Pain Drain\libraries\lvgl\src\core/lv_obj_draw.c ****         }
  78:..\..\..\arduinoLCD\test\Pain Drain\libraries\lvgl\src\core/lv_obj_draw.c ****     }
  79:..\..\..\arduinoLCD\test\Pain Drain\libraries\lvgl\src\core/lv_obj_draw.c **** 
  80:..\..\..\arduinoLCD\test\Pain Drain\libraries\lvgl\src\core/lv_obj_draw.c ****     draw_dsc->border_width = lv_obj_get_style_border_width(obj, part);
 311              		.loc 1 80 0
 312 0120 2084     		strh	r0, [r4, #32]
  81:..\..\..\arduinoLCD\test\Pain Drain\libraries\lvgl\src\core/lv_obj_draw.c ****     if(draw_dsc->border_width) {
 313              		.loc 1 81 0
 314 0122 0028     		cmp	r0, #0
 315 0124 26D0     		beq	.L8
  82:..\..\..\arduinoLCD\test\Pain Drain\libraries\lvgl\src\core/lv_obj_draw.c ****         if(draw_dsc->border_opa != LV_OPA_TRANSP) {
 316              		.loc 1 82 0
 317 0126 2223     		movs	r3, #34
 318 0128 E35C     		ldrb	r3, [r4, r3]
 319 012a 002B     		cmp	r3, #0
 320 012c 22D0     		beq	.L8
 321              	.LVL42:
 322              	.LBB229:
 323              	.LBB230:
 249:..\..\..\arduinoLCD\test\Pain Drain\libraries\lvgl\src\core/lv_obj_style_gen.h ****     return (lv_opa_t)v.num;
ARM GAS  C:\Users\haske\AppData\Local\Temp\cc4f9rxb.s 			page 18


 324              		.loc 2 249 0
 325 012e 3122     		movs	r2, #49
 326 0130 2900     		movs	r1, r5
 327 0132 3000     		movs	r0, r6
 328 0134 FFF7FEFF 		bl	lv_obj_get_style_prop
 329              	.LVL43:
 250:..\..\..\arduinoLCD\test\Pain Drain\libraries\lvgl\src\core/lv_obj_style_gen.h **** }
 330              		.loc 2 250 0
 331 0138 C0B2     		uxtb	r0, r0
 332              	.LVL44:
 333              	.LBE230:
 334              	.LBE229:
  83:..\..\..\arduinoLCD\test\Pain Drain\libraries\lvgl\src\core/lv_obj_draw.c ****             draw_dsc->border_opa = lv_obj_get_style_border_opa(obj, part);
 335              		.loc 1 83 0
 336 013a 2223     		movs	r3, #34
 337 013c E054     		strb	r0, [r4, r3]
  84:..\..\..\arduinoLCD\test\Pain Drain\libraries\lvgl\src\core/lv_obj_draw.c ****             if(draw_dsc->border_opa > LV_OPA_MIN) {
 338              		.loc 1 84 0
 339 013e 0228     		cmp	r0, #2
 340 0140 18D9     		bls	.L8
 341              	.LVL45:
 342              	.LBB231:
 343              	.LBB232:
 261:..\..\..\arduinoLCD\test\Pain Drain\libraries\lvgl\src\core/lv_obj_style_gen.h ****     return (lv_border_side_t)v.num;
 344              		.loc 2 261 0
 345 0142 3322     		movs	r2, #51
 346 0144 2900     		movs	r1, r5
 347 0146 3000     		movs	r0, r6
 348 0148 FFF7FEFF 		bl	lv_obj_get_style_prop
 349              	.LVL46:
 350              	.LBE232:
 351              	.LBE231:
  85:..\..\..\arduinoLCD\test\Pain Drain\libraries\lvgl\src\core/lv_obj_draw.c ****                 draw_dsc->border_side = lv_obj_get_style_border_side(obj, part);
 352              		.loc 1 85 0
 353 014c 2322     		movs	r2, #35
 354 014e 1F23     		movs	r3, #31
 355              	.LVL47:
 356 0150 1840     		ands	r0, r3
 357              	.LVL48:
 358 0152 4300     		lsls	r3, r0, #1
 359 0154 A05C     		ldrb	r0, [r4, r2]
 360 0156 3E21     		movs	r1, #62
 361 0158 8843     		bics	r0, r1
 362 015a 1843     		orrs	r0, r3
 363 015c A054     		strb	r0, [r4, r2]
 364              	.LVL49:
 365              	.LBB233:
 366              	.LBB234:
 243:..\..\..\arduinoLCD\test\Pain Drain\libraries\lvgl\src\core/lv_obj_style_gen.h ****     return v.color;
 367              		.loc 2 243 0
 368 015e 0D32     		adds	r2, r2, #13
 369 0160 2900     		movs	r1, r5
 370 0162 3000     		movs	r0, r6
 371 0164 FFF7FEFF 		bl	lv_obj_get_style_prop
 372              	.LVL50:
 373 0168 0200     		movs	r2, r0
 374 016a 2900     		movs	r1, r5
ARM GAS  C:\Users\haske\AppData\Local\Temp\cc4f9rxb.s 			page 19


 375 016c 3000     		movs	r0, r6
 376 016e FFF7FEFF 		bl	_lv_obj_style_apply_color_filter
 377              	.LVL51:
 378              	.LBE234:
 379              	.LBE233:
  86:..\..\..\arduinoLCD\test\Pain Drain\libraries\lvgl\src\core/lv_obj_draw.c ****                 draw_dsc->border_color = lv_obj_get_style_border_color_filtered(obj, part);
 380              		.loc 1 86 0
 381 0172 E083     		strh	r0, [r4, #30]
 382              	.L8:
 383              	.LVL52:
 384              	.LBB235:
 385              	.LBB236:
 273:..\..\..\arduinoLCD\test\Pain Drain\libraries\lvgl\src\core/lv_obj_style_gen.h ****     return (lv_coord_t)v.num;
 386              		.loc 2 273 0
 387 0174 3522     		movs	r2, #53
 388 0176 2900     		movs	r1, r5
 389 0178 3000     		movs	r0, r6
 390 017a FFF7FEFF 		bl	lv_obj_get_style_prop
 391              	.LVL53:
 274:..\..\..\arduinoLCD\test\Pain Drain\libraries\lvgl\src\core/lv_obj_style_gen.h **** }
 392              		.loc 2 274 0
 393 017e 00B2     		sxth	r0, r0
 394              	.LVL54:
 395              	.LBE236:
 396              	.LBE235:
  87:..\..\..\arduinoLCD\test\Pain Drain\libraries\lvgl\src\core/lv_obj_draw.c ****             }
  88:..\..\..\arduinoLCD\test\Pain Drain\libraries\lvgl\src\core/lv_obj_draw.c ****         }
  89:..\..\..\arduinoLCD\test\Pain Drain\libraries\lvgl\src\core/lv_obj_draw.c ****     }
  90:..\..\..\arduinoLCD\test\Pain Drain\libraries\lvgl\src\core/lv_obj_draw.c **** 
  91:..\..\..\arduinoLCD\test\Pain Drain\libraries\lvgl\src\core/lv_obj_draw.c ****     draw_dsc->outline_width = lv_obj_get_style_outline_width(obj, part);
 397              		.loc 1 91 0
 398 0180 E084     		strh	r0, [r4, #38]
  92:..\..\..\arduinoLCD\test\Pain Drain\libraries\lvgl\src\core/lv_obj_draw.c ****     if(draw_dsc->outline_width) {
 399              		.loc 1 92 0
 400 0182 0028     		cmp	r0, #0
 401 0184 1ED0     		beq	.L9
  93:..\..\..\arduinoLCD\test\Pain Drain\libraries\lvgl\src\core/lv_obj_draw.c ****         if(draw_dsc->outline_opa != LV_OPA_TRANSP) {
 402              		.loc 1 93 0
 403 0186 2A23     		movs	r3, #42
 404 0188 E35C     		ldrb	r3, [r4, r3]
 405 018a 002B     		cmp	r3, #0
 406 018c 1AD0     		beq	.L9
 407              	.LVL55:
 408              	.LBB237:
 409              	.LBB238:
 291:..\..\..\arduinoLCD\test\Pain Drain\libraries\lvgl\src\core/lv_obj_style_gen.h ****     return (lv_opa_t)v.num;
 410              		.loc 2 291 0
 411 018e 3722     		movs	r2, #55
 412 0190 2900     		movs	r1, r5
 413 0192 3000     		movs	r0, r6
 414 0194 FFF7FEFF 		bl	lv_obj_get_style_prop
 415              	.LVL56:
 292:..\..\..\arduinoLCD\test\Pain Drain\libraries\lvgl\src\core/lv_obj_style_gen.h **** }
 416              		.loc 2 292 0
 417 0198 C0B2     		uxtb	r0, r0
 418              	.LVL57:
 419              	.LBE238:
ARM GAS  C:\Users\haske\AppData\Local\Temp\cc4f9rxb.s 			page 20


 420              	.LBE237:
  94:..\..\..\arduinoLCD\test\Pain Drain\libraries\lvgl\src\core/lv_obj_draw.c ****             draw_dsc->outline_opa = lv_obj_get_style_outline_opa(obj, part);
 421              		.loc 1 94 0
 422 019a 2A23     		movs	r3, #42
 423 019c E054     		strb	r0, [r4, r3]
  95:..\..\..\arduinoLCD\test\Pain Drain\libraries\lvgl\src\core/lv_obj_draw.c ****             if(draw_dsc->outline_opa > LV_OPA_MIN) {
 424              		.loc 1 95 0
 425 019e 0228     		cmp	r0, #2
 426 01a0 10D9     		bls	.L9
 427              	.LVL58:
 428              	.LBB239:
 429              	.LBB240:
 297:..\..\..\arduinoLCD\test\Pain Drain\libraries\lvgl\src\core/lv_obj_style_gen.h ****     return (lv_coord_t)v.num;
 430              		.loc 2 297 0
 431 01a2 3822     		movs	r2, #56
 432 01a4 2900     		movs	r1, r5
 433 01a6 3000     		movs	r0, r6
 434 01a8 FFF7FEFF 		bl	lv_obj_get_style_prop
 435              	.LVL59:
 436              	.LBE240:
 437              	.LBE239:
  96:..\..\..\arduinoLCD\test\Pain Drain\libraries\lvgl\src\core/lv_obj_draw.c ****                 draw_dsc->outline_pad = lv_obj_get_style_outline_pad(obj, part);
 438              		.loc 1 96 0
 439 01ac 2085     		strh	r0, [r4, #40]
 440              	.LVL60:
 441              	.LBB241:
 442              	.LBB242:
 285:..\..\..\arduinoLCD\test\Pain Drain\libraries\lvgl\src\core/lv_obj_style_gen.h ****     return v.color;
 443              		.loc 2 285 0
 444 01ae 3622     		movs	r2, #54
 445 01b0 2900     		movs	r1, r5
 446 01b2 3000     		movs	r0, r6
 447 01b4 FFF7FEFF 		bl	lv_obj_get_style_prop
 448              	.LVL61:
 449 01b8 0200     		movs	r2, r0
 450 01ba 2900     		movs	r1, r5
 451 01bc 3000     		movs	r0, r6
 452 01be FFF7FEFF 		bl	_lv_obj_style_apply_color_filter
 453              	.LVL62:
 454              	.LBE242:
 455              	.LBE241:
  97:..\..\..\arduinoLCD\test\Pain Drain\libraries\lvgl\src\core/lv_obj_draw.c ****                 draw_dsc->outline_color = lv_obj_get_style_outline_color_filtered(obj, part);
 456              		.loc 1 97 0
 457 01c2 A084     		strh	r0, [r4, #36]
 458              	.L9:
  98:..\..\..\arduinoLCD\test\Pain Drain\libraries\lvgl\src\core/lv_obj_draw.c ****             }
  99:..\..\..\arduinoLCD\test\Pain Drain\libraries\lvgl\src\core/lv_obj_draw.c ****         }
 100:..\..\..\arduinoLCD\test\Pain Drain\libraries\lvgl\src\core/lv_obj_draw.c ****     }
 101:..\..\..\arduinoLCD\test\Pain Drain\libraries\lvgl\src\core/lv_obj_draw.c **** 
 102:..\..\..\arduinoLCD\test\Pain Drain\libraries\lvgl\src\core/lv_obj_draw.c ****     if(draw_dsc->bg_img_opa != LV_OPA_TRANSP) {
 459              		.loc 1 102 0
 460 01c4 A37E     		ldrb	r3, [r4, #26]
 461 01c6 002B     		cmp	r3, #0
 462 01c8 40D0     		beq	.L10
 463              	.LVL63:
 464              	.LBB243:
 465              	.LBB244:
ARM GAS  C:\Users\haske\AppData\Local\Temp\cc4f9rxb.s 			page 21


 201:..\..\..\arduinoLCD\test\Pain Drain\libraries\lvgl\src\core/lv_obj_style_gen.h ****     return (const void *)v.ptr;
 466              		.loc 2 201 0
 467 01ca 2822     		movs	r2, #40
 468 01cc 2900     		movs	r1, r5
 469 01ce 3000     		movs	r0, r6
 470 01d0 FFF7FEFF 		bl	lv_obj_get_style_prop
 471              	.LVL64:
 472              	.LBE244:
 473              	.LBE243:
 103:..\..\..\arduinoLCD\test\Pain Drain\libraries\lvgl\src\core/lv_obj_draw.c ****         draw_dsc->bg_img_src = lv_obj_get_style_bg_img_src(obj, part);
 474              		.loc 1 103 0
 475 01d4 2061     		str	r0, [r4, #16]
 104:..\..\..\arduinoLCD\test\Pain Drain\libraries\lvgl\src\core/lv_obj_draw.c ****         if(draw_dsc->bg_img_src) {
 476              		.loc 1 104 0
 477 01d6 0028     		cmp	r0, #0
 478 01d8 38D0     		beq	.L10
 479              	.LVL65:
 480              	.LBB245:
 481              	.LBB246:
 207:..\..\..\arduinoLCD\test\Pain Drain\libraries\lvgl\src\core/lv_obj_style_gen.h ****     return (lv_opa_t)v.num;
 482              		.loc 2 207 0
 483 01da 2922     		movs	r2, #41
 484 01dc 2900     		movs	r1, r5
 485 01de 3000     		movs	r0, r6
 486              	.LVL66:
 487 01e0 FFF7FEFF 		bl	lv_obj_get_style_prop
 488              	.LVL67:
 208:..\..\..\arduinoLCD\test\Pain Drain\libraries\lvgl\src\core/lv_obj_style_gen.h **** }
 489              		.loc 2 208 0
 490 01e4 C0B2     		uxtb	r0, r0
 491              	.LVL68:
 492              	.LBE246:
 493              	.LBE245:
 105:..\..\..\arduinoLCD\test\Pain Drain\libraries\lvgl\src\core/lv_obj_draw.c ****             draw_dsc->bg_img_opa = lv_obj_get_style_bg_img_opa(obj, part);
 494              		.loc 1 105 0
 495 01e6 A076     		strb	r0, [r4, #26]
 106:..\..\..\arduinoLCD\test\Pain Drain\libraries\lvgl\src\core/lv_obj_draw.c ****             if(draw_dsc->bg_img_opa > LV_OPA_MIN) {
 496              		.loc 1 106 0
 497 01e8 0228     		cmp	r0, #2
 498 01ea 2FD9     		bls	.L10
 107:..\..\..\arduinoLCD\test\Pain Drain\libraries\lvgl\src\core/lv_obj_draw.c ****                 if(lv_img_src_get_type(draw_dsc->bg_img_src) == LV_IMG_SRC_SYMBOL) {
 499              		.loc 1 107 0
 500 01ec 2069     		ldr	r0, [r4, #16]
 501 01ee FFF7FEFF 		bl	lv_img_src_get_type
 502              	.LVL69:
 503 01f2 0228     		cmp	r0, #2
 504 01f4 11D1     		bne	.L11
 505              	.LVL70:
 506              	.LBB247:
 507              	.LBB248:
 465:..\..\..\arduinoLCD\test\Pain Drain\libraries\lvgl\src\core/lv_obj_style_gen.h ****     return (const lv_font_t *)v.ptr;
 508              		.loc 2 465 0
 509 01f6 5722     		movs	r2, #87
 510 01f8 2900     		movs	r1, r5
 511 01fa 3000     		movs	r0, r6
 512 01fc FFF7FEFF 		bl	lv_obj_get_style_prop
 513              	.LVL71:
ARM GAS  C:\Users\haske\AppData\Local\Temp\cc4f9rxb.s 			page 22


 514              	.LBE248:
 515              	.LBE247:
 108:..\..\..\arduinoLCD\test\Pain Drain\libraries\lvgl\src\core/lv_obj_draw.c ****                     draw_dsc->bg_img_symbol_font = lv_obj_get_style_text_font(obj, part);
 516              		.loc 1 108 0
 517 0200 6061     		str	r0, [r4, #20]
 518              	.LVL72:
 519              	.LBB249:
 520              	.LBB250:
 453:..\..\..\arduinoLCD\test\Pain Drain\libraries\lvgl\src\core/lv_obj_style_gen.h ****     return v.color;
 521              		.loc 2 453 0
 522 0202 5522     		movs	r2, #85
 523 0204 2900     		movs	r1, r5
 524 0206 3000     		movs	r0, r6
 525              	.LVL73:
 526 0208 FFF7FEFF 		bl	lv_obj_get_style_prop
 527              	.LVL74:
 528 020c 0200     		movs	r2, r0
 529 020e 2900     		movs	r1, r5
 530 0210 3000     		movs	r0, r6
 531 0212 FFF7FEFF 		bl	_lv_obj_style_apply_color_filter
 532              	.LVL75:
 533              	.LBE250:
 534              	.LBE249:
 109:..\..\..\arduinoLCD\test\Pain Drain\libraries\lvgl\src\core/lv_obj_draw.c ****                     draw_dsc->bg_img_recolor = lv_obj_get_style_text_color_filtered(obj, part);
 535              		.loc 1 109 0
 536 0216 2083     		strh	r0, [r4, #24]
 537 0218 18E0     		b	.L10
 538              	.L11:
 539              	.LVL76:
 540              	.LBB251:
 541              	.LBB252:
 219:..\..\..\arduinoLCD\test\Pain Drain\libraries\lvgl\src\core/lv_obj_style_gen.h ****     return v.color;
 542              		.loc 2 219 0
 543 021a 2A22     		movs	r2, #42
 544 021c 2900     		movs	r1, r5
 545 021e 3000     		movs	r0, r6
 546 0220 FFF7FEFF 		bl	lv_obj_get_style_prop
 547              	.LVL77:
 548 0224 0200     		movs	r2, r0
 549 0226 2900     		movs	r1, r5
 550 0228 3000     		movs	r0, r6
 551 022a FFF7FEFF 		bl	_lv_obj_style_apply_color_filter
 552              	.LVL78:
 553              	.LBE252:
 554              	.LBE251:
 110:..\..\..\arduinoLCD\test\Pain Drain\libraries\lvgl\src\core/lv_obj_draw.c ****                 }
 111:..\..\..\arduinoLCD\test\Pain Drain\libraries\lvgl\src\core/lv_obj_draw.c ****                 else {
 112:..\..\..\arduinoLCD\test\Pain Drain\libraries\lvgl\src\core/lv_obj_draw.c ****                     draw_dsc->bg_img_recolor = lv_obj_get_style_bg_img_recolor_filtered(obj, part);
 555              		.loc 1 112 0
 556 022e 2083     		strh	r0, [r4, #24]
 557              	.LVL79:
 558              	.LBB253:
 559              	.LBB254:
 225:..\..\..\arduinoLCD\test\Pain Drain\libraries\lvgl\src\core/lv_obj_style_gen.h ****     return (lv_opa_t)v.num;
 560              		.loc 2 225 0
 561 0230 2B22     		movs	r2, #43
 562 0232 2900     		movs	r1, r5
ARM GAS  C:\Users\haske\AppData\Local\Temp\cc4f9rxb.s 			page 23


 563 0234 3000     		movs	r0, r6
 564 0236 FFF7FEFF 		bl	lv_obj_get_style_prop
 565              	.LVL80:
 566              	.LBE254:
 567              	.LBE253:
 113:..\..\..\arduinoLCD\test\Pain Drain\libraries\lvgl\src\core/lv_obj_draw.c ****                     draw_dsc->bg_img_recolor_opa = lv_obj_get_style_bg_img_recolor_opa(obj, part);
 568              		.loc 1 113 0
 569 023a E076     		strb	r0, [r4, #27]
 570              	.LVL81:
 571              	.LBB255:
 572              	.LBB256:
 231:..\..\..\arduinoLCD\test\Pain Drain\libraries\lvgl\src\core/lv_obj_style_gen.h ****     return (bool)v.num;
 573              		.loc 2 231 0
 574 023c 2C22     		movs	r2, #44
 575 023e 2900     		movs	r1, r5
 576 0240 3000     		movs	r0, r6
 577 0242 FFF7FEFF 		bl	lv_obj_get_style_prop
 578              	.LVL82:
 232:..\..\..\arduinoLCD\test\Pain Drain\libraries\lvgl\src\core/lv_obj_style_gen.h **** }
 579              		.loc 2 232 0
 580 0246 431E     		subs	r3, r0, #1
 581 0248 9841     		sbcs	r0, r0, r3
 582              	.LVL83:
 583              	.LBE256:
 584              	.LBE255:
 114:..\..\..\arduinoLCD\test\Pain Drain\libraries\lvgl\src\core/lv_obj_draw.c ****                     draw_dsc->bg_img_tiled = lv_obj_get_style_bg_img_tiled(obj, part);
 585              		.loc 1 114 0
 586 024a 2077     		strb	r0, [r4, #28]
 587              	.LVL84:
 588              	.L10:
 115:..\..\..\arduinoLCD\test\Pain Drain\libraries\lvgl\src\core/lv_obj_draw.c ****                 }
 116:..\..\..\arduinoLCD\test\Pain Drain\libraries\lvgl\src\core/lv_obj_draw.c ****             }
 117:..\..\..\arduinoLCD\test\Pain Drain\libraries\lvgl\src\core/lv_obj_draw.c ****         }
 118:..\..\..\arduinoLCD\test\Pain Drain\libraries\lvgl\src\core/lv_obj_draw.c ****     }
 119:..\..\..\arduinoLCD\test\Pain Drain\libraries\lvgl\src\core/lv_obj_draw.c **** 
 120:..\..\..\arduinoLCD\test\Pain Drain\libraries\lvgl\src\core/lv_obj_draw.c ****     if(draw_dsc->shadow_opa) {
 589              		.loc 1 120 0
 590 024c 3623     		movs	r3, #54
 591 024e E35C     		ldrb	r3, [r4, r3]
 592 0250 002B     		cmp	r3, #0
 593 0252 33D0     		beq	.L12
 594              	.LVL85:
 595              	.LBB257:
 596              	.LBB258:
 303:..\..\..\arduinoLCD\test\Pain Drain\libraries\lvgl\src\core/lv_obj_style_gen.h ****     return (lv_coord_t)v.num;
 597              		.loc 2 303 0
 598 0254 4022     		movs	r2, #64
 599 0256 2900     		movs	r1, r5
 600 0258 3000     		movs	r0, r6
 601              	.LVL86:
 602 025a FFF7FEFF 		bl	lv_obj_get_style_prop
 603              	.LVL87:
 304:..\..\..\arduinoLCD\test\Pain Drain\libraries\lvgl\src\core/lv_obj_style_gen.h **** }
 604              		.loc 2 304 0
 605 025e 00B2     		sxth	r0, r0
 606              	.LVL88:
 607              	.LBE258:
ARM GAS  C:\Users\haske\AppData\Local\Temp\cc4f9rxb.s 			page 24


 608              	.LBE257:
 121:..\..\..\arduinoLCD\test\Pain Drain\libraries\lvgl\src\core/lv_obj_draw.c ****         draw_dsc->shadow_width = lv_obj_get_style_shadow_width(obj, part);
 609              		.loc 1 121 0
 610 0260 E085     		strh	r0, [r4, #46]
 122:..\..\..\arduinoLCD\test\Pain Drain\libraries\lvgl\src\core/lv_obj_draw.c ****         if(draw_dsc->shadow_width) {
 611              		.loc 1 122 0
 612 0262 0028     		cmp	r0, #0
 613 0264 2AD0     		beq	.L12
 123:..\..\..\arduinoLCD\test\Pain Drain\libraries\lvgl\src\core/lv_obj_draw.c ****             if(draw_dsc->shadow_opa > LV_OPA_MIN) {
 614              		.loc 1 123 0
 615 0266 3623     		movs	r3, #54
 616 0268 E35C     		ldrb	r3, [r4, r3]
 617 026a 022B     		cmp	r3, #2
 618 026c 26D9     		bls	.L12
 619              	.LVL89:
 620              	.LBB259:
 621              	.LBB260:
 339:..\..\..\arduinoLCD\test\Pain Drain\libraries\lvgl\src\core/lv_obj_style_gen.h ****     return (lv_opa_t)v.num;
 622              		.loc 2 339 0
 623 026e 4522     		movs	r2, #69
 624 0270 2900     		movs	r1, r5
 625 0272 3000     		movs	r0, r6
 626 0274 FFF7FEFF 		bl	lv_obj_get_style_prop
 627              	.LVL90:
 340:..\..\..\arduinoLCD\test\Pain Drain\libraries\lvgl\src\core/lv_obj_style_gen.h **** }
 628              		.loc 2 340 0
 629 0278 C0B2     		uxtb	r0, r0
 630              	.LVL91:
 631              	.LBE260:
 632              	.LBE259:
 124:..\..\..\arduinoLCD\test\Pain Drain\libraries\lvgl\src\core/lv_obj_draw.c ****                 draw_dsc->shadow_opa = lv_obj_get_style_shadow_opa(obj, part);
 633              		.loc 1 124 0
 634 027a 3623     		movs	r3, #54
 635 027c E054     		strb	r0, [r4, r3]
 125:..\..\..\arduinoLCD\test\Pain Drain\libraries\lvgl\src\core/lv_obj_draw.c ****                 if(draw_dsc->shadow_opa > LV_OPA_MIN) {
 636              		.loc 1 125 0
 637 027e 0228     		cmp	r0, #2
 638 0280 1CD9     		bls	.L12
 639              	.LVL92:
 640              	.LBB261:
 641              	.LBB262:
 309:..\..\..\arduinoLCD\test\Pain Drain\libraries\lvgl\src\core/lv_obj_style_gen.h ****     return (lv_coord_t)v.num;
 642              		.loc 2 309 0
 643 0282 4122     		movs	r2, #65
 644 0284 2900     		movs	r1, r5
 645 0286 3000     		movs	r0, r6
 646 0288 FFF7FEFF 		bl	lv_obj_get_style_prop
 647              	.LVL93:
 648              	.LBE262:
 649              	.LBE261:
 126:..\..\..\arduinoLCD\test\Pain Drain\libraries\lvgl\src\core/lv_obj_draw.c ****                     draw_dsc->shadow_ofs_x = lv_obj_get_style_shadow_ofs_x(obj, part);
 650              		.loc 1 126 0
 651 028c 2086     		strh	r0, [r4, #48]
 652              	.LVL94:
 653              	.LBB263:
 654              	.LBB264:
 315:..\..\..\arduinoLCD\test\Pain Drain\libraries\lvgl\src\core/lv_obj_style_gen.h ****     return (lv_coord_t)v.num;
ARM GAS  C:\Users\haske\AppData\Local\Temp\cc4f9rxb.s 			page 25


 655              		.loc 2 315 0
 656 028e 4222     		movs	r2, #66
 657 0290 2900     		movs	r1, r5
 658 0292 3000     		movs	r0, r6
 659 0294 FFF7FEFF 		bl	lv_obj_get_style_prop
 660              	.LVL95:
 661              	.LBE264:
 662              	.LBE263:
 127:..\..\..\arduinoLCD\test\Pain Drain\libraries\lvgl\src\core/lv_obj_draw.c ****                     draw_dsc->shadow_ofs_y = lv_obj_get_style_shadow_ofs_y(obj, part);
 663              		.loc 1 127 0
 664 0298 6086     		strh	r0, [r4, #50]
 665              	.LVL96:
 666              	.LBB265:
 667              	.LBB266:
 321:..\..\..\arduinoLCD\test\Pain Drain\libraries\lvgl\src\core/lv_obj_style_gen.h ****     return (lv_coord_t)v.num;
 668              		.loc 2 321 0
 669 029a 4322     		movs	r2, #67
 670 029c 2900     		movs	r1, r5
 671 029e 3000     		movs	r0, r6
 672 02a0 FFF7FEFF 		bl	lv_obj_get_style_prop
 673              	.LVL97:
 674              	.LBE266:
 675              	.LBE265:
 128:..\..\..\arduinoLCD\test\Pain Drain\libraries\lvgl\src\core/lv_obj_draw.c ****                     draw_dsc->shadow_spread = lv_obj_get_style_shadow_spread(obj, part);
 676              		.loc 1 128 0
 677 02a4 A086     		strh	r0, [r4, #52]
 678              	.LVL98:
 679              	.LBB267:
 680              	.LBB268:
 333:..\..\..\arduinoLCD\test\Pain Drain\libraries\lvgl\src\core/lv_obj_style_gen.h ****     return v.color;
 681              		.loc 2 333 0
 682 02a6 4422     		movs	r2, #68
 683 02a8 2900     		movs	r1, r5
 684 02aa 3000     		movs	r0, r6
 685 02ac FFF7FEFF 		bl	lv_obj_get_style_prop
 686              	.LVL99:
 687 02b0 0200     		movs	r2, r0
 688 02b2 2900     		movs	r1, r5
 689 02b4 3000     		movs	r0, r6
 690 02b6 FFF7FEFF 		bl	_lv_obj_style_apply_color_filter
 691              	.LVL100:
 692              	.LBE268:
 693              	.LBE267:
 129:..\..\..\arduinoLCD\test\Pain Drain\libraries\lvgl\src\core/lv_obj_draw.c ****                     draw_dsc->shadow_color = lv_obj_get_style_shadow_color_filtered(obj, part);
 694              		.loc 1 129 0
 695 02ba A085     		strh	r0, [r4, #44]
 696              	.LVL101:
 697              	.L12:
 130:..\..\..\arduinoLCD\test\Pain Drain\libraries\lvgl\src\core/lv_obj_draw.c ****                 }
 131:..\..\..\arduinoLCD\test\Pain Drain\libraries\lvgl\src\core/lv_obj_draw.c ****             }
 132:..\..\..\arduinoLCD\test\Pain Drain\libraries\lvgl\src\core/lv_obj_draw.c ****         }
 133:..\..\..\arduinoLCD\test\Pain Drain\libraries\lvgl\src\core/lv_obj_draw.c ****     }
 134:..\..\..\arduinoLCD\test\Pain Drain\libraries\lvgl\src\core/lv_obj_draw.c **** 
 135:..\..\..\arduinoLCD\test\Pain Drain\libraries\lvgl\src\core/lv_obj_draw.c **** #else /*LV_DRAW_COMPLEX*/
 136:..\..\..\arduinoLCD\test\Pain Drain\libraries\lvgl\src\core/lv_obj_draw.c ****     if(draw_dsc->bg_opa != LV_OPA_TRANSP) {
 137:..\..\..\arduinoLCD\test\Pain Drain\libraries\lvgl\src\core/lv_obj_draw.c ****         draw_dsc->bg_opa = lv_obj_get_style_bg_opa(obj, part);
 138:..\..\..\arduinoLCD\test\Pain Drain\libraries\lvgl\src\core/lv_obj_draw.c ****         if(draw_dsc->bg_opa > LV_OPA_MIN) {
ARM GAS  C:\Users\haske\AppData\Local\Temp\cc4f9rxb.s 			page 26


 139:..\..\..\arduinoLCD\test\Pain Drain\libraries\lvgl\src\core/lv_obj_draw.c ****             draw_dsc->bg_color = lv_obj_get_style_bg_color_filtered(obj, part);
 140:..\..\..\arduinoLCD\test\Pain Drain\libraries\lvgl\src\core/lv_obj_draw.c ****         }
 141:..\..\..\arduinoLCD\test\Pain Drain\libraries\lvgl\src\core/lv_obj_draw.c ****     }
 142:..\..\..\arduinoLCD\test\Pain Drain\libraries\lvgl\src\core/lv_obj_draw.c **** 
 143:..\..\..\arduinoLCD\test\Pain Drain\libraries\lvgl\src\core/lv_obj_draw.c ****     draw_dsc->border_width = lv_obj_get_style_border_width(obj, part);
 144:..\..\..\arduinoLCD\test\Pain Drain\libraries\lvgl\src\core/lv_obj_draw.c ****     if(draw_dsc->border_width) {
 145:..\..\..\arduinoLCD\test\Pain Drain\libraries\lvgl\src\core/lv_obj_draw.c ****         if(draw_dsc->border_opa != LV_OPA_TRANSP) {
 146:..\..\..\arduinoLCD\test\Pain Drain\libraries\lvgl\src\core/lv_obj_draw.c ****             draw_dsc->border_opa = lv_obj_get_style_border_opa(obj, part);
 147:..\..\..\arduinoLCD\test\Pain Drain\libraries\lvgl\src\core/lv_obj_draw.c ****             if(draw_dsc->border_opa > LV_OPA_MIN) {
 148:..\..\..\arduinoLCD\test\Pain Drain\libraries\lvgl\src\core/lv_obj_draw.c ****                 draw_dsc->border_color = lv_obj_get_style_border_color_filtered(obj, part);
 149:..\..\..\arduinoLCD\test\Pain Drain\libraries\lvgl\src\core/lv_obj_draw.c ****                 draw_dsc->border_side = lv_obj_get_style_border_side(obj, part);
 150:..\..\..\arduinoLCD\test\Pain Drain\libraries\lvgl\src\core/lv_obj_draw.c ****             }
 151:..\..\..\arduinoLCD\test\Pain Drain\libraries\lvgl\src\core/lv_obj_draw.c ****         }
 152:..\..\..\arduinoLCD\test\Pain Drain\libraries\lvgl\src\core/lv_obj_draw.c ****     }
 153:..\..\..\arduinoLCD\test\Pain Drain\libraries\lvgl\src\core/lv_obj_draw.c **** 
 154:..\..\..\arduinoLCD\test\Pain Drain\libraries\lvgl\src\core/lv_obj_draw.c ****     draw_dsc->outline_width = lv_obj_get_style_outline_width(obj, part);
 155:..\..\..\arduinoLCD\test\Pain Drain\libraries\lvgl\src\core/lv_obj_draw.c ****     if(draw_dsc->outline_width) {
 156:..\..\..\arduinoLCD\test\Pain Drain\libraries\lvgl\src\core/lv_obj_draw.c ****         if(draw_dsc->outline_opa != LV_OPA_TRANSP) {
 157:..\..\..\arduinoLCD\test\Pain Drain\libraries\lvgl\src\core/lv_obj_draw.c ****             draw_dsc->outline_opa = lv_obj_get_style_outline_opa(obj, part);
 158:..\..\..\arduinoLCD\test\Pain Drain\libraries\lvgl\src\core/lv_obj_draw.c ****             if(draw_dsc->outline_opa > LV_OPA_MIN) {
 159:..\..\..\arduinoLCD\test\Pain Drain\libraries\lvgl\src\core/lv_obj_draw.c ****                 draw_dsc->outline_pad = lv_obj_get_style_outline_pad(obj, part);
 160:..\..\..\arduinoLCD\test\Pain Drain\libraries\lvgl\src\core/lv_obj_draw.c ****                 draw_dsc->outline_color = lv_obj_get_style_outline_color_filtered(obj, part);
 161:..\..\..\arduinoLCD\test\Pain Drain\libraries\lvgl\src\core/lv_obj_draw.c ****             }
 162:..\..\..\arduinoLCD\test\Pain Drain\libraries\lvgl\src\core/lv_obj_draw.c ****         }
 163:..\..\..\arduinoLCD\test\Pain Drain\libraries\lvgl\src\core/lv_obj_draw.c ****     }
 164:..\..\..\arduinoLCD\test\Pain Drain\libraries\lvgl\src\core/lv_obj_draw.c **** 
 165:..\..\..\arduinoLCD\test\Pain Drain\libraries\lvgl\src\core/lv_obj_draw.c ****     if(draw_dsc->bg_img_opa != LV_OPA_TRANSP) {
 166:..\..\..\arduinoLCD\test\Pain Drain\libraries\lvgl\src\core/lv_obj_draw.c ****         draw_dsc->bg_img_src = lv_obj_get_style_bg_img_src(obj, part);
 167:..\..\..\arduinoLCD\test\Pain Drain\libraries\lvgl\src\core/lv_obj_draw.c ****         if(draw_dsc->bg_img_src) {
 168:..\..\..\arduinoLCD\test\Pain Drain\libraries\lvgl\src\core/lv_obj_draw.c ****             draw_dsc->bg_img_opa = lv_obj_get_style_bg_img_opa(obj, part);
 169:..\..\..\arduinoLCD\test\Pain Drain\libraries\lvgl\src\core/lv_obj_draw.c ****             if(draw_dsc->bg_img_opa > LV_OPA_MIN) {
 170:..\..\..\arduinoLCD\test\Pain Drain\libraries\lvgl\src\core/lv_obj_draw.c ****                 if(lv_img_src_get_type(draw_dsc->bg_img_src) == LV_IMG_SRC_SYMBOL) {
 171:..\..\..\arduinoLCD\test\Pain Drain\libraries\lvgl\src\core/lv_obj_draw.c ****                     draw_dsc->bg_img_symbol_font = lv_obj_get_style_text_font(obj, part);
 172:..\..\..\arduinoLCD\test\Pain Drain\libraries\lvgl\src\core/lv_obj_draw.c ****                     draw_dsc->bg_img_recolor = lv_obj_get_style_text_color_filtered(obj, part);
 173:..\..\..\arduinoLCD\test\Pain Drain\libraries\lvgl\src\core/lv_obj_draw.c ****                 }
 174:..\..\..\arduinoLCD\test\Pain Drain\libraries\lvgl\src\core/lv_obj_draw.c ****                 else {
 175:..\..\..\arduinoLCD\test\Pain Drain\libraries\lvgl\src\core/lv_obj_draw.c ****                     draw_dsc->bg_img_recolor = lv_obj_get_style_bg_img_recolor_filtered(obj, part);
 176:..\..\..\arduinoLCD\test\Pain Drain\libraries\lvgl\src\core/lv_obj_draw.c ****                     draw_dsc->bg_img_recolor_opa = lv_obj_get_style_bg_img_recolor_opa(obj, part);
 177:..\..\..\arduinoLCD\test\Pain Drain\libraries\lvgl\src\core/lv_obj_draw.c ****                     draw_dsc->bg_img_tiled = lv_obj_get_style_bg_img_tiled(obj, part);
 178:..\..\..\arduinoLCD\test\Pain Drain\libraries\lvgl\src\core/lv_obj_draw.c ****                 }
 179:..\..\..\arduinoLCD\test\Pain Drain\libraries\lvgl\src\core/lv_obj_draw.c ****             }
 180:..\..\..\arduinoLCD\test\Pain Drain\libraries\lvgl\src\core/lv_obj_draw.c ****         }
 181:..\..\..\arduinoLCD\test\Pain Drain\libraries\lvgl\src\core/lv_obj_draw.c ****     }
 182:..\..\..\arduinoLCD\test\Pain Drain\libraries\lvgl\src\core/lv_obj_draw.c **** #endif
 183:..\..\..\arduinoLCD\test\Pain Drain\libraries\lvgl\src\core/lv_obj_draw.c **** 
 184:..\..\..\arduinoLCD\test\Pain Drain\libraries\lvgl\src\core/lv_obj_draw.c ****     if(part != LV_PART_MAIN) {
 698              		.loc 1 184 0
 699 02bc 002D     		cmp	r5, #0
 700 02be 0DD0     		beq	.L1
 185:..\..\..\arduinoLCD\test\Pain Drain\libraries\lvgl\src\core/lv_obj_draw.c ****         if(opa < LV_OPA_MAX) {
 701              		.loc 1 185 0
 702 02c0 FC2F     		cmp	r7, #252
 703 02c2 0BD8     		bhi	.L1
 186:..\..\..\arduinoLCD\test\Pain Drain\libraries\lvgl\src\core/lv_obj_draw.c ****             draw_dsc->bg_opa = (opa * draw_dsc->shadow_opa) >> 8;
 704              		.loc 1 186 0
 705 02c4 3622     		movs	r2, #54
 706 02c6 A35C     		ldrb	r3, [r4, r2]
ARM GAS  C:\Users\haske\AppData\Local\Temp\cc4f9rxb.s 			page 27


 707 02c8 7B43     		muls	r3, r7
 708 02ca 1B12     		asrs	r3, r3, #8
 709 02cc DBB2     		uxtb	r3, r3
 710 02ce E370     		strb	r3, [r4, #3]
 187:..\..\..\arduinoLCD\test\Pain Drain\libraries\lvgl\src\core/lv_obj_draw.c ****             draw_dsc->bg_img_opa = (opa * draw_dsc->shadow_opa) >> 8;
 711              		.loc 1 187 0
 712 02d0 A376     		strb	r3, [r4, #26]
 188:..\..\..\arduinoLCD\test\Pain Drain\libraries\lvgl\src\core/lv_obj_draw.c ****             draw_dsc->border_opa = (opa * draw_dsc->shadow_opa) >> 8;
 713              		.loc 1 188 0
 714 02d2 2221     		movs	r1, #34
 715 02d4 6354     		strb	r3, [r4, r1]
 189:..\..\..\arduinoLCD\test\Pain Drain\libraries\lvgl\src\core/lv_obj_draw.c ****             draw_dsc->outline_opa = (opa * draw_dsc->shadow_opa) >> 8;
 716              		.loc 1 189 0
 717 02d6 0831     		adds	r1, r1, #8
 718 02d8 6354     		strb	r3, [r4, r1]
 190:..\..\..\arduinoLCD\test\Pain Drain\libraries\lvgl\src\core/lv_obj_draw.c ****             draw_dsc->shadow_opa = (opa * draw_dsc->shadow_opa) >> 8;
 719              		.loc 1 190 0
 720 02da A354     		strb	r3, [r4, r2]
 721              	.LVL102:
 722              	.L1:
 191:..\..\..\arduinoLCD\test\Pain Drain\libraries\lvgl\src\core/lv_obj_draw.c ****         }
 192:..\..\..\arduinoLCD\test\Pain Drain\libraries\lvgl\src\core/lv_obj_draw.c ****     }
 193:..\..\..\arduinoLCD\test\Pain Drain\libraries\lvgl\src\core/lv_obj_draw.c **** }
 723              		.loc 1 193 0
 724              		@ sp needed
 725              	.LVL103:
 726              	.LVL104:
 727              	.LVL105:
 728 02dc F8BD     		pop	{r3, r4, r5, r6, r7, pc}
 729              		.cfi_endproc
 730              	.LFE165:
 731              		.size	lv_obj_init_draw_rect_dsc, .-lv_obj_init_draw_rect_dsc
 732 02de C046     		.section	.text.lv_obj_init_draw_label_dsc,"ax",%progbits
 733              		.align	2
 734              		.global	lv_obj_init_draw_label_dsc
 735              		.code	16
 736              		.thumb_func
 737              		.type	lv_obj_init_draw_label_dsc, %function
 738              	lv_obj_init_draw_label_dsc:
 739              	.LFB166:
 194:..\..\..\arduinoLCD\test\Pain Drain\libraries\lvgl\src\core/lv_obj_draw.c **** 
 195:..\..\..\arduinoLCD\test\Pain Drain\libraries\lvgl\src\core/lv_obj_draw.c **** void lv_obj_init_draw_label_dsc(lv_obj_t * obj, uint32_t part, lv_draw_label_dsc_t * draw_dsc)
 196:..\..\..\arduinoLCD\test\Pain Drain\libraries\lvgl\src\core/lv_obj_draw.c **** {
 740              		.loc 1 196 0
 741              		.cfi_startproc
 742              		@ args = 0, pretend = 0, frame = 0
 743              		@ frame_needed = 0, uses_anonymous_args = 0
 744              	.LVL106:
 745 0000 70B5     		push	{r4, r5, r6, lr}
 746              		.cfi_def_cfa_offset 16
 747              		.cfi_offset 4, -16
 748              		.cfi_offset 5, -12
 749              		.cfi_offset 6, -8
 750              		.cfi_offset 14, -4
 751 0002 0600     		movs	r6, r0
 752 0004 0C00     		movs	r4, r1
 753 0006 1500     		movs	r5, r2
ARM GAS  C:\Users\haske\AppData\Local\Temp\cc4f9rxb.s 			page 28


 754              	.LVL107:
 755              	.LBB288:
 756              	.LBB289:
 459:..\..\..\arduinoLCD\test\Pain Drain\libraries\lvgl\src\core/lv_obj_style_gen.h ****     return (lv_opa_t)v.num;
 757              		.loc 2 459 0
 758 0008 5622     		movs	r2, #86
 759              	.LVL108:
 760 000a FFF7FEFF 		bl	lv_obj_get_style_prop
 761              	.LVL109:
 460:..\..\..\arduinoLCD\test\Pain Drain\libraries\lvgl\src\core/lv_obj_style_gen.h **** }
 762              		.loc 2 460 0
 763 000e C0B2     		uxtb	r0, r0
 764              	.LVL110:
 765              	.LBE289:
 766              	.LBE288:
 197:..\..\..\arduinoLCD\test\Pain Drain\libraries\lvgl\src\core/lv_obj_draw.c ****     draw_dsc->opa = lv_obj_get_style_text_opa(obj, part);
 767              		.loc 1 197 0
 768 0010 A876     		strb	r0, [r5, #26]
 198:..\..\..\arduinoLCD\test\Pain Drain\libraries\lvgl\src\core/lv_obj_draw.c ****     if(draw_dsc->opa <= LV_OPA_MIN) return;
 769              		.loc 1 198 0
 770 0012 0228     		cmp	r0, #2
 771 0014 52D9     		bls	.L14
 199:..\..\..\arduinoLCD\test\Pain Drain\libraries\lvgl\src\core/lv_obj_draw.c **** 
 200:..\..\..\arduinoLCD\test\Pain Drain\libraries\lvgl\src\core/lv_obj_draw.c ****     if(part != LV_PART_MAIN) {
 772              		.loc 1 200 0
 773 0016 002C     		cmp	r4, #0
 774 0018 12D0     		beq	.L16
 775              	.LVL111:
 776              	.LBB290:
 777              	.LBB291:
 778              	.LBB292:
 507:..\..\..\arduinoLCD\test\Pain Drain\libraries\lvgl\src\core/lv_obj_style_gen.h ****     return (lv_opa_t)v.num;
 779              		.loc 2 507 0
 780 001a 6022     		movs	r2, #96
 781 001c 2100     		movs	r1, r4
 782 001e 3000     		movs	r0, r6
 783 0020 FFF7FEFF 		bl	lv_obj_get_style_prop
 784              	.LVL112:
 508:..\..\..\arduinoLCD\test\Pain Drain\libraries\lvgl\src\core/lv_obj_style_gen.h **** }
 785              		.loc 2 508 0
 786 0024 C3B2     		uxtb	r3, r0
 787              	.LVL113:
 788              	.LBE292:
 789              	.LBE291:
 201:..\..\..\arduinoLCD\test\Pain Drain\libraries\lvgl\src\core/lv_obj_draw.c ****         lv_opa_t opa = lv_obj_get_style_opa(obj, part);
 202:..\..\..\arduinoLCD\test\Pain Drain\libraries\lvgl\src\core/lv_obj_draw.c ****         if(opa <= LV_OPA_MIN) {
 790              		.loc 1 202 0
 791 0026 022B     		cmp	r3, #2
 792 0028 02D8     		bhi	.L17
 203:..\..\..\arduinoLCD\test\Pain Drain\libraries\lvgl\src\core/lv_obj_draw.c ****             draw_dsc->opa = LV_OPA_TRANSP;
 793              		.loc 1 203 0
 794 002a 0023     		movs	r3, #0
 795 002c AB76     		strb	r3, [r5, #26]
 204:..\..\..\arduinoLCD\test\Pain Drain\libraries\lvgl\src\core/lv_obj_draw.c ****             return;
 796              		.loc 1 204 0
 797 002e 45E0     		b	.L14
 798              	.L17:
ARM GAS  C:\Users\haske\AppData\Local\Temp\cc4f9rxb.s 			page 29


 205:..\..\..\arduinoLCD\test\Pain Drain\libraries\lvgl\src\core/lv_obj_draw.c ****         }
 206:..\..\..\arduinoLCD\test\Pain Drain\libraries\lvgl\src\core/lv_obj_draw.c ****         if(opa < LV_OPA_MAX) {
 799              		.loc 1 206 0
 800 0030 FC2B     		cmp	r3, #252
 801 0032 05D8     		bhi	.L16
 207:..\..\..\arduinoLCD\test\Pain Drain\libraries\lvgl\src\core/lv_obj_draw.c ****             draw_dsc->opa = (opa * draw_dsc->opa) >> 8;
 802              		.loc 1 207 0
 803 0034 AB7E     		ldrb	r3, [r5, #26]
 804 0036 FF22     		movs	r2, #255
 805 0038 1040     		ands	r0, r2
 806 003a 5843     		muls	r0, r3
 807 003c 0012     		asrs	r0, r0, #8
 808 003e A876     		strb	r0, [r5, #26]
 809              	.L16:
 810              	.LVL114:
 811              	.LBE290:
 812              	.LBB293:
 813              	.LBB294:
 453:..\..\..\arduinoLCD\test\Pain Drain\libraries\lvgl\src\core/lv_obj_style_gen.h ****     return v.color;
 814              		.loc 2 453 0
 815 0040 5522     		movs	r2, #85
 816 0042 2100     		movs	r1, r4
 817 0044 3000     		movs	r0, r6
 818 0046 FFF7FEFF 		bl	lv_obj_get_style_prop
 819              	.LVL115:
 820 004a 0200     		movs	r2, r0
 821 004c 2100     		movs	r1, r4
 822 004e 3000     		movs	r0, r6
 823 0050 FFF7FEFF 		bl	_lv_obj_style_apply_color_filter
 824              	.LVL116:
 825              	.LBE294:
 826              	.LBE293:
 208:..\..\..\arduinoLCD\test\Pain Drain\libraries\lvgl\src\core/lv_obj_draw.c ****         }
 209:..\..\..\arduinoLCD\test\Pain Drain\libraries\lvgl\src\core/lv_obj_draw.c ****     }
 210:..\..\..\arduinoLCD\test\Pain Drain\libraries\lvgl\src\core/lv_obj_draw.c **** 
 211:..\..\..\arduinoLCD\test\Pain Drain\libraries\lvgl\src\core/lv_obj_draw.c ****     draw_dsc->color = lv_obj_get_style_text_color_filtered(obj, part);
 827              		.loc 1 211 0
 828 0054 A881     		strh	r0, [r5, #12]
 829              	.LVL117:
 830              	.LBB295:
 831              	.LBB296:
 471:..\..\..\arduinoLCD\test\Pain Drain\libraries\lvgl\src\core/lv_obj_style_gen.h ****     return (lv_coord_t)v.num;
 832              		.loc 2 471 0
 833 0056 5822     		movs	r2, #88
 834 0058 2100     		movs	r1, r4
 835 005a 3000     		movs	r0, r6
 836 005c FFF7FEFF 		bl	lv_obj_get_style_prop
 837              	.LVL118:
 838              	.LBE296:
 839              	.LBE295:
 212:..\..\..\arduinoLCD\test\Pain Drain\libraries\lvgl\src\core/lv_obj_draw.c ****     draw_dsc->letter_space = lv_obj_get_style_text_letter_space(obj, part);
 840              		.loc 1 212 0
 841 0060 A882     		strh	r0, [r5, #20]
 842              	.LVL119:
 843              	.LBB297:
 844              	.LBB298:
 477:..\..\..\arduinoLCD\test\Pain Drain\libraries\lvgl\src\core/lv_obj_style_gen.h ****     return (lv_coord_t)v.num;
ARM GAS  C:\Users\haske\AppData\Local\Temp\cc4f9rxb.s 			page 30


 845              		.loc 2 477 0
 846 0062 5922     		movs	r2, #89
 847 0064 2100     		movs	r1, r4
 848 0066 3000     		movs	r0, r6
 849 0068 FFF7FEFF 		bl	lv_obj_get_style_prop
 850              	.LVL120:
 851              	.LBE298:
 852              	.LBE297:
 213:..\..\..\arduinoLCD\test\Pain Drain\libraries\lvgl\src\core/lv_obj_draw.c ****     draw_dsc->line_space = lv_obj_get_style_text_line_space(obj, part);
 853              		.loc 1 213 0
 854 006c 6882     		strh	r0, [r5, #18]
 855              	.LVL121:
 856              	.LBB299:
 857              	.LBB300:
 483:..\..\..\arduinoLCD\test\Pain Drain\libraries\lvgl\src\core/lv_obj_style_gen.h ****     return (lv_text_decor_t)v.num;
 858              		.loc 2 483 0
 859 006e 5A22     		movs	r2, #90
 860 0070 2100     		movs	r1, r4
 861 0072 3000     		movs	r0, r6
 862 0074 FFF7FEFF 		bl	lv_obj_get_style_prop
 863              	.LVL122:
 864              	.LBE300:
 865              	.LBE299:
 214:..\..\..\arduinoLCD\test\Pain Drain\libraries\lvgl\src\core/lv_obj_draw.c ****     draw_dsc->decor = lv_obj_get_style_text_decor(obj, part);
 866              		.loc 1 214 0
 867 0078 0723     		movs	r3, #7
 868              	.LVL123:
 869 007a 1840     		ands	r0, r3
 870              	.LVL124:
 871 007c AB7F     		ldrb	r3, [r5, #30]
 872 007e 0722     		movs	r2, #7
 873 0080 9343     		bics	r3, r2
 874 0082 1843     		orrs	r0, r3
 875 0084 A877     		strb	r0, [r5, #30]
 215:..\..\..\arduinoLCD\test\Pain Drain\libraries\lvgl\src\core/lv_obj_draw.c **** #if LV_DRAW_COMPLEX
 216:..\..\..\arduinoLCD\test\Pain Drain\libraries\lvgl\src\core/lv_obj_draw.c ****     if(part != LV_PART_MAIN) draw_dsc->blend_mode = lv_obj_get_style_blend_mode(obj, part);
 876              		.loc 1 216 0
 877 0086 002C     		cmp	r4, #0
 878 0088 0CD0     		beq	.L18
 879              	.LVL125:
 880              	.LBB301:
 881              	.LBB302:
 882              		.loc 2 549 0
 883 008a 6032     		adds	r2, r2, #96
 884 008c 2100     		movs	r1, r4
 885 008e 3000     		movs	r0, r6
 886 0090 FFF7FEFF 		bl	lv_obj_get_style_prop
 887              	.LVL126:
 888              	.LBE302:
 889              	.LBE301:
 890              		.loc 1 216 0
 891 0094 0723     		movs	r3, #7
 892              	.LVL127:
 893 0096 1840     		ands	r0, r3
 894              	.LVL128:
 895 0098 C300     		lsls	r3, r0, #3
 896 009a A87F     		ldrb	r0, [r5, #30]
ARM GAS  C:\Users\haske\AppData\Local\Temp\cc4f9rxb.s 			page 31


 897 009c 3822     		movs	r2, #56
 898 009e 9043     		bics	r0, r2
 899 00a0 1843     		orrs	r0, r3
 900 00a2 A877     		strb	r0, [r5, #30]
 901              	.L18:
 902              	.LVL129:
 903              	.LBB303:
 904              	.LBB304:
 465:..\..\..\arduinoLCD\test\Pain Drain\libraries\lvgl\src\core/lv_obj_style_gen.h ****     return (const lv_font_t *)v.ptr;
 905              		.loc 2 465 0
 906 00a4 5722     		movs	r2, #87
 907 00a6 2100     		movs	r1, r4
 908 00a8 3000     		movs	r0, r6
 909 00aa FFF7FEFF 		bl	lv_obj_get_style_prop
 910              	.LVL130:
 911              	.LBE304:
 912              	.LBE303:
 217:..\..\..\arduinoLCD\test\Pain Drain\libraries\lvgl\src\core/lv_obj_draw.c **** #endif
 218:..\..\..\arduinoLCD\test\Pain Drain\libraries\lvgl\src\core/lv_obj_draw.c **** 
 219:..\..\..\arduinoLCD\test\Pain Drain\libraries\lvgl\src\core/lv_obj_draw.c ****     draw_dsc->font = lv_obj_get_style_text_font(obj, part);
 913              		.loc 1 219 0
 914 00ae 2860     		str	r0, [r5]
 915              	.LVL131:
 916              	.LBB305:
 917              	.LBB306:
 489:..\..\..\arduinoLCD\test\Pain Drain\libraries\lvgl\src\core/lv_obj_style_gen.h ****     return (lv_text_align_t)v.num;
 918              		.loc 2 489 0
 919 00b0 5B22     		movs	r2, #91
 920 00b2 2100     		movs	r1, r4
 921 00b4 3000     		movs	r0, r6
 922              	.LVL132:
 923 00b6 FFF7FEFF 		bl	lv_obj_get_style_prop
 924              	.LVL133:
 925              	.LBE306:
 926              	.LBE305:
 220:..\..\..\arduinoLCD\test\Pain Drain\libraries\lvgl\src\core/lv_obj_draw.c **** 
 221:..\..\..\arduinoLCD\test\Pain Drain\libraries\lvgl\src\core/lv_obj_draw.c **** #if LV_USE_BIDI
 222:..\..\..\arduinoLCD\test\Pain Drain\libraries\lvgl\src\core/lv_obj_draw.c ****     draw_dsc->bidi_dir = lv_obj_get_style_base_dir(obj, LV_PART_MAIN);
 223:..\..\..\arduinoLCD\test\Pain Drain\libraries\lvgl\src\core/lv_obj_draw.c **** #endif
 224:..\..\..\arduinoLCD\test\Pain Drain\libraries\lvgl\src\core/lv_obj_draw.c **** 
 225:..\..\..\arduinoLCD\test\Pain Drain\libraries\lvgl\src\core/lv_obj_draw.c ****     draw_dsc->align = lv_obj_get_style_text_align(obj, part);
 927              		.loc 1 225 0
 928 00ba 2877     		strb	r0, [r5, #28]
 929              	.L14:
 226:..\..\..\arduinoLCD\test\Pain Drain\libraries\lvgl\src\core/lv_obj_draw.c **** }
 930              		.loc 1 226 0
 931              		@ sp needed
 932              	.LVL134:
 933              	.LVL135:
 934              	.LVL136:
 935 00bc 70BD     		pop	{r4, r5, r6, pc}
 936              		.cfi_endproc
 937              	.LFE166:
 938              		.size	lv_obj_init_draw_label_dsc, .-lv_obj_init_draw_label_dsc
 939 00be C046     		.section	.text.lv_obj_init_draw_img_dsc,"ax",%progbits
 940              		.align	2
 941              		.global	lv_obj_init_draw_img_dsc
ARM GAS  C:\Users\haske\AppData\Local\Temp\cc4f9rxb.s 			page 32


 942              		.code	16
 943              		.thumb_func
 944              		.type	lv_obj_init_draw_img_dsc, %function
 945              	lv_obj_init_draw_img_dsc:
 946              	.LFB167:
 227:..\..\..\arduinoLCD\test\Pain Drain\libraries\lvgl\src\core/lv_obj_draw.c **** 
 228:..\..\..\arduinoLCD\test\Pain Drain\libraries\lvgl\src\core/lv_obj_draw.c **** void lv_obj_init_draw_img_dsc(lv_obj_t * obj, uint32_t part, lv_draw_img_dsc_t * draw_dsc)
 229:..\..\..\arduinoLCD\test\Pain Drain\libraries\lvgl\src\core/lv_obj_draw.c **** {
 947              		.loc 1 229 0
 948              		.cfi_startproc
 949              		@ args = 0, pretend = 0, frame = 0
 950              		@ frame_needed = 0, uses_anonymous_args = 0
 951              	.LVL137:
 952 0000 70B5     		push	{r4, r5, r6, lr}
 953              		.cfi_def_cfa_offset 16
 954              		.cfi_offset 4, -16
 955              		.cfi_offset 5, -12
 956              		.cfi_offset 6, -8
 957              		.cfi_offset 14, -4
 958 0002 0400     		movs	r4, r0
 959 0004 0D00     		movs	r5, r1
 960 0006 1600     		movs	r6, r2
 961              	.LVL138:
 962              	.LBB322:
 963              	.LBB323:
 345:..\..\..\arduinoLCD\test\Pain Drain\libraries\lvgl\src\core/lv_obj_style_gen.h ****     return (lv_opa_t)v.num;
 964              		.loc 2 345 0
 965 0008 4622     		movs	r2, #70
 966              	.LVL139:
 967 000a FFF7FEFF 		bl	lv_obj_get_style_prop
 968              	.LVL140:
 346:..\..\..\arduinoLCD\test\Pain Drain\libraries\lvgl\src\core/lv_obj_style_gen.h **** }
 969              		.loc 2 346 0
 970 000e C0B2     		uxtb	r0, r0
 971              	.LVL141:
 972              	.LBE323:
 973              	.LBE322:
 230:..\..\..\arduinoLCD\test\Pain Drain\libraries\lvgl\src\core/lv_obj_draw.c ****     draw_dsc->opa = lv_obj_get_style_img_opa(obj, part);
 974              		.loc 1 230 0
 975 0010 F072     		strb	r0, [r6, #11]
 231:..\..\..\arduinoLCD\test\Pain Drain\libraries\lvgl\src\core/lv_obj_draw.c ****     if(draw_dsc->opa <= LV_OPA_MIN) return;
 976              		.loc 1 231 0
 977 0012 0228     		cmp	r0, #2
 978 0014 51D9     		bls	.L19
 232:..\..\..\arduinoLCD\test\Pain Drain\libraries\lvgl\src\core/lv_obj_draw.c **** 
 233:..\..\..\arduinoLCD\test\Pain Drain\libraries\lvgl\src\core/lv_obj_draw.c ****     if(part != LV_PART_MAIN) {
 979              		.loc 1 233 0
 980 0016 002D     		cmp	r5, #0
 981 0018 12D0     		beq	.L21
 982              	.LVL142:
 983              	.LBB324:
 984              	.LBB325:
 985              	.LBB326:
 507:..\..\..\arduinoLCD\test\Pain Drain\libraries\lvgl\src\core/lv_obj_style_gen.h ****     return (lv_opa_t)v.num;
 986              		.loc 2 507 0
 987 001a 6022     		movs	r2, #96
 988 001c 2900     		movs	r1, r5
ARM GAS  C:\Users\haske\AppData\Local\Temp\cc4f9rxb.s 			page 33


 989 001e 2000     		movs	r0, r4
 990 0020 FFF7FEFF 		bl	lv_obj_get_style_prop
 991              	.LVL143:
 508:..\..\..\arduinoLCD\test\Pain Drain\libraries\lvgl\src\core/lv_obj_style_gen.h **** }
 992              		.loc 2 508 0
 993 0024 C3B2     		uxtb	r3, r0
 994              	.LVL144:
 995              	.LBE326:
 996              	.LBE325:
 234:..\..\..\arduinoLCD\test\Pain Drain\libraries\lvgl\src\core/lv_obj_draw.c ****         lv_opa_t opa = lv_obj_get_style_opa(obj, part);
 235:..\..\..\arduinoLCD\test\Pain Drain\libraries\lvgl\src\core/lv_obj_draw.c ****         if(opa <= LV_OPA_MIN) {
 997              		.loc 1 235 0
 998 0026 022B     		cmp	r3, #2
 999 0028 02D8     		bhi	.L22
 236:..\..\..\arduinoLCD\test\Pain Drain\libraries\lvgl\src\core/lv_obj_draw.c ****             draw_dsc->opa = LV_OPA_TRANSP;
 1000              		.loc 1 236 0
 1001 002a 0023     		movs	r3, #0
 1002 002c F372     		strb	r3, [r6, #11]
 237:..\..\..\arduinoLCD\test\Pain Drain\libraries\lvgl\src\core/lv_obj_draw.c ****             return;
 1003              		.loc 1 237 0
 1004 002e 44E0     		b	.L19
 1005              	.L22:
 238:..\..\..\arduinoLCD\test\Pain Drain\libraries\lvgl\src\core/lv_obj_draw.c ****         }
 239:..\..\..\arduinoLCD\test\Pain Drain\libraries\lvgl\src\core/lv_obj_draw.c ****         if(opa < LV_OPA_MAX) {
 1006              		.loc 1 239 0
 1007 0030 FC2B     		cmp	r3, #252
 1008 0032 05D8     		bhi	.L21
 240:..\..\..\arduinoLCD\test\Pain Drain\libraries\lvgl\src\core/lv_obj_draw.c ****             draw_dsc->opa = (opa * draw_dsc->opa) >> 8;
 1009              		.loc 1 240 0
 1010 0034 F37A     		ldrb	r3, [r6, #11]
 1011 0036 FF22     		movs	r2, #255
 1012 0038 1040     		ands	r0, r2
 1013 003a 5843     		muls	r0, r3
 1014 003c 0012     		asrs	r0, r0, #8
 1015 003e F072     		strb	r0, [r6, #11]
 1016              	.L21:
 1017              	.LBE324:
 241:..\..\..\arduinoLCD\test\Pain Drain\libraries\lvgl\src\core/lv_obj_draw.c ****         }
 242:..\..\..\arduinoLCD\test\Pain Drain\libraries\lvgl\src\core/lv_obj_draw.c ****     }
 243:..\..\..\arduinoLCD\test\Pain Drain\libraries\lvgl\src\core/lv_obj_draw.c **** 
 244:..\..\..\arduinoLCD\test\Pain Drain\libraries\lvgl\src\core/lv_obj_draw.c ****     draw_dsc->angle = 0;
 1018              		.loc 1 244 0
 1019 0040 0023     		movs	r3, #0
 1020 0042 3380     		strh	r3, [r6]
 245:..\..\..\arduinoLCD\test\Pain Drain\libraries\lvgl\src\core/lv_obj_draw.c ****     draw_dsc->zoom = LV_IMG_ZOOM_NONE;
 1021              		.loc 1 245 0
 1022 0044 0133     		adds	r3, r3, #1
 1023 0046 FF33     		adds	r3, r3, #255
 1024 0048 7380     		strh	r3, [r6, #2]
 1025              	.LVL145:
 1026              	.LBB327:
 1027              	.LBB328:
 1028              		.file 3 "c:\\projects\\paindrain\\arduinolcd\\test\\pain drain\\libraries\\lvgl\\src\\misc\\lv_are
   1:c:\projects\paindrain\arduinolcd\test\pain drain\libraries\lvgl\src\misc\lv_area.h **** /**
   2:c:\projects\paindrain\arduinolcd\test\pain drain\libraries\lvgl\src\misc\lv_area.h ****  * @file lv_area.h
   3:c:\projects\paindrain\arduinolcd\test\pain drain\libraries\lvgl\src\misc\lv_area.h ****  *
   4:c:\projects\paindrain\arduinolcd\test\pain drain\libraries\lvgl\src\misc\lv_area.h ****  */
ARM GAS  C:\Users\haske\AppData\Local\Temp\cc4f9rxb.s 			page 34


   5:c:\projects\paindrain\arduinolcd\test\pain drain\libraries\lvgl\src\misc\lv_area.h **** 
   6:c:\projects\paindrain\arduinolcd\test\pain drain\libraries\lvgl\src\misc\lv_area.h **** #ifndef LV_AREA_H
   7:c:\projects\paindrain\arduinolcd\test\pain drain\libraries\lvgl\src\misc\lv_area.h **** #define LV_AREA_H
   8:c:\projects\paindrain\arduinolcd\test\pain drain\libraries\lvgl\src\misc\lv_area.h **** 
   9:c:\projects\paindrain\arduinolcd\test\pain drain\libraries\lvgl\src\misc\lv_area.h **** #ifdef __cplusplus
  10:c:\projects\paindrain\arduinolcd\test\pain drain\libraries\lvgl\src\misc\lv_area.h **** extern "C" {
  11:c:\projects\paindrain\arduinolcd\test\pain drain\libraries\lvgl\src\misc\lv_area.h **** #endif
  12:c:\projects\paindrain\arduinolcd\test\pain drain\libraries\lvgl\src\misc\lv_area.h **** 
  13:c:\projects\paindrain\arduinolcd\test\pain drain\libraries\lvgl\src\misc\lv_area.h **** /*********************
  14:c:\projects\paindrain\arduinolcd\test\pain drain\libraries\lvgl\src\misc\lv_area.h ****  *      INCLUDES
  15:c:\projects\paindrain\arduinolcd\test\pain drain\libraries\lvgl\src\misc\lv_area.h ****  *********************/
  16:c:\projects\paindrain\arduinolcd\test\pain drain\libraries\lvgl\src\misc\lv_area.h **** #include "../lv_conf_internal.h"
  17:c:\projects\paindrain\arduinolcd\test\pain drain\libraries\lvgl\src\misc\lv_area.h **** #include <stdbool.h>
  18:c:\projects\paindrain\arduinolcd\test\pain drain\libraries\lvgl\src\misc\lv_area.h **** #include <stdint.h>
  19:c:\projects\paindrain\arduinolcd\test\pain drain\libraries\lvgl\src\misc\lv_area.h **** 
  20:c:\projects\paindrain\arduinolcd\test\pain drain\libraries\lvgl\src\misc\lv_area.h **** /*********************
  21:c:\projects\paindrain\arduinolcd\test\pain drain\libraries\lvgl\src\misc\lv_area.h ****  *      DEFINES
  22:c:\projects\paindrain\arduinolcd\test\pain drain\libraries\lvgl\src\misc\lv_area.h ****  *********************/
  23:c:\projects\paindrain\arduinolcd\test\pain drain\libraries\lvgl\src\misc\lv_area.h **** 
  24:c:\projects\paindrain\arduinolcd\test\pain drain\libraries\lvgl\src\misc\lv_area.h **** #if LV_USE_LARGE_COORD
  25:c:\projects\paindrain\arduinolcd\test\pain drain\libraries\lvgl\src\misc\lv_area.h **** typedef int32_t lv_coord_t;
  26:c:\projects\paindrain\arduinolcd\test\pain drain\libraries\lvgl\src\misc\lv_area.h **** #else
  27:c:\projects\paindrain\arduinolcd\test\pain drain\libraries\lvgl\src\misc\lv_area.h **** typedef int16_t lv_coord_t;
  28:c:\projects\paindrain\arduinolcd\test\pain drain\libraries\lvgl\src\misc\lv_area.h **** #endif
  29:c:\projects\paindrain\arduinolcd\test\pain drain\libraries\lvgl\src\misc\lv_area.h **** 
  30:c:\projects\paindrain\arduinolcd\test\pain drain\libraries\lvgl\src\misc\lv_area.h **** /**********************
  31:c:\projects\paindrain\arduinolcd\test\pain drain\libraries\lvgl\src\misc\lv_area.h ****  *      TYPEDEFS
  32:c:\projects\paindrain\arduinolcd\test\pain drain\libraries\lvgl\src\misc\lv_area.h ****  **********************/
  33:c:\projects\paindrain\arduinolcd\test\pain drain\libraries\lvgl\src\misc\lv_area.h **** 
  34:c:\projects\paindrain\arduinolcd\test\pain drain\libraries\lvgl\src\misc\lv_area.h **** /**
  35:c:\projects\paindrain\arduinolcd\test\pain drain\libraries\lvgl\src\misc\lv_area.h ****  * Represents a point on the screen.
  36:c:\projects\paindrain\arduinolcd\test\pain drain\libraries\lvgl\src\misc\lv_area.h ****  */
  37:c:\projects\paindrain\arduinolcd\test\pain drain\libraries\lvgl\src\misc\lv_area.h **** typedef struct {
  38:c:\projects\paindrain\arduinolcd\test\pain drain\libraries\lvgl\src\misc\lv_area.h ****     lv_coord_t x;
  39:c:\projects\paindrain\arduinolcd\test\pain drain\libraries\lvgl\src\misc\lv_area.h ****     lv_coord_t y;
  40:c:\projects\paindrain\arduinolcd\test\pain drain\libraries\lvgl\src\misc\lv_area.h **** } lv_point_t;
  41:c:\projects\paindrain\arduinolcd\test\pain drain\libraries\lvgl\src\misc\lv_area.h **** 
  42:c:\projects\paindrain\arduinolcd\test\pain drain\libraries\lvgl\src\misc\lv_area.h **** /** Represents an area of the screen.*/
  43:c:\projects\paindrain\arduinolcd\test\pain drain\libraries\lvgl\src\misc\lv_area.h **** typedef struct {
  44:c:\projects\paindrain\arduinolcd\test\pain drain\libraries\lvgl\src\misc\lv_area.h ****     lv_coord_t x1;
  45:c:\projects\paindrain\arduinolcd\test\pain drain\libraries\lvgl\src\misc\lv_area.h ****     lv_coord_t y1;
  46:c:\projects\paindrain\arduinolcd\test\pain drain\libraries\lvgl\src\misc\lv_area.h ****     lv_coord_t x2;
  47:c:\projects\paindrain\arduinolcd\test\pain drain\libraries\lvgl\src\misc\lv_area.h ****     lv_coord_t y2;
  48:c:\projects\paindrain\arduinolcd\test\pain drain\libraries\lvgl\src\misc\lv_area.h **** } lv_area_t;
  49:c:\projects\paindrain\arduinolcd\test\pain drain\libraries\lvgl\src\misc\lv_area.h **** 
  50:c:\projects\paindrain\arduinolcd\test\pain drain\libraries\lvgl\src\misc\lv_area.h **** /** Alignments*/
  51:c:\projects\paindrain\arduinolcd\test\pain drain\libraries\lvgl\src\misc\lv_area.h **** enum {
  52:c:\projects\paindrain\arduinolcd\test\pain drain\libraries\lvgl\src\misc\lv_area.h ****     LV_ALIGN_DEFAULT = 0,
  53:c:\projects\paindrain\arduinolcd\test\pain drain\libraries\lvgl\src\misc\lv_area.h ****     LV_ALIGN_TOP_LEFT,
  54:c:\projects\paindrain\arduinolcd\test\pain drain\libraries\lvgl\src\misc\lv_area.h ****     LV_ALIGN_TOP_MID,
  55:c:\projects\paindrain\arduinolcd\test\pain drain\libraries\lvgl\src\misc\lv_area.h ****     LV_ALIGN_TOP_RIGHT,
  56:c:\projects\paindrain\arduinolcd\test\pain drain\libraries\lvgl\src\misc\lv_area.h ****     LV_ALIGN_BOTTOM_LEFT,
  57:c:\projects\paindrain\arduinolcd\test\pain drain\libraries\lvgl\src\misc\lv_area.h ****     LV_ALIGN_BOTTOM_MID,
  58:c:\projects\paindrain\arduinolcd\test\pain drain\libraries\lvgl\src\misc\lv_area.h ****     LV_ALIGN_BOTTOM_RIGHT,
  59:c:\projects\paindrain\arduinolcd\test\pain drain\libraries\lvgl\src\misc\lv_area.h ****     LV_ALIGN_LEFT_MID,
  60:c:\projects\paindrain\arduinolcd\test\pain drain\libraries\lvgl\src\misc\lv_area.h ****     LV_ALIGN_RIGHT_MID,
  61:c:\projects\paindrain\arduinolcd\test\pain drain\libraries\lvgl\src\misc\lv_area.h ****     LV_ALIGN_CENTER,
ARM GAS  C:\Users\haske\AppData\Local\Temp\cc4f9rxb.s 			page 35


  62:c:\projects\paindrain\arduinolcd\test\pain drain\libraries\lvgl\src\misc\lv_area.h **** 
  63:c:\projects\paindrain\arduinolcd\test\pain drain\libraries\lvgl\src\misc\lv_area.h ****     LV_ALIGN_OUT_TOP_LEFT,
  64:c:\projects\paindrain\arduinolcd\test\pain drain\libraries\lvgl\src\misc\lv_area.h ****     LV_ALIGN_OUT_TOP_MID,
  65:c:\projects\paindrain\arduinolcd\test\pain drain\libraries\lvgl\src\misc\lv_area.h ****     LV_ALIGN_OUT_TOP_RIGHT,
  66:c:\projects\paindrain\arduinolcd\test\pain drain\libraries\lvgl\src\misc\lv_area.h ****     LV_ALIGN_OUT_BOTTOM_LEFT,
  67:c:\projects\paindrain\arduinolcd\test\pain drain\libraries\lvgl\src\misc\lv_area.h ****     LV_ALIGN_OUT_BOTTOM_MID,
  68:c:\projects\paindrain\arduinolcd\test\pain drain\libraries\lvgl\src\misc\lv_area.h ****     LV_ALIGN_OUT_BOTTOM_RIGHT,
  69:c:\projects\paindrain\arduinolcd\test\pain drain\libraries\lvgl\src\misc\lv_area.h ****     LV_ALIGN_OUT_LEFT_TOP,
  70:c:\projects\paindrain\arduinolcd\test\pain drain\libraries\lvgl\src\misc\lv_area.h ****     LV_ALIGN_OUT_LEFT_MID,
  71:c:\projects\paindrain\arduinolcd\test\pain drain\libraries\lvgl\src\misc\lv_area.h ****     LV_ALIGN_OUT_LEFT_BOTTOM,
  72:c:\projects\paindrain\arduinolcd\test\pain drain\libraries\lvgl\src\misc\lv_area.h ****     LV_ALIGN_OUT_RIGHT_TOP,
  73:c:\projects\paindrain\arduinolcd\test\pain drain\libraries\lvgl\src\misc\lv_area.h ****     LV_ALIGN_OUT_RIGHT_MID,
  74:c:\projects\paindrain\arduinolcd\test\pain drain\libraries\lvgl\src\misc\lv_area.h ****     LV_ALIGN_OUT_RIGHT_BOTTOM,
  75:c:\projects\paindrain\arduinolcd\test\pain drain\libraries\lvgl\src\misc\lv_area.h **** };
  76:c:\projects\paindrain\arduinolcd\test\pain drain\libraries\lvgl\src\misc\lv_area.h **** typedef uint8_t lv_align_t;
  77:c:\projects\paindrain\arduinolcd\test\pain drain\libraries\lvgl\src\misc\lv_area.h **** 
  78:c:\projects\paindrain\arduinolcd\test\pain drain\libraries\lvgl\src\misc\lv_area.h **** enum {
  79:c:\projects\paindrain\arduinolcd\test\pain drain\libraries\lvgl\src\misc\lv_area.h ****     LV_DIR_NONE     = 0x00,
  80:c:\projects\paindrain\arduinolcd\test\pain drain\libraries\lvgl\src\misc\lv_area.h ****     LV_DIR_LEFT     = (1 << 0),
  81:c:\projects\paindrain\arduinolcd\test\pain drain\libraries\lvgl\src\misc\lv_area.h ****     LV_DIR_RIGHT    = (1 << 1),
  82:c:\projects\paindrain\arduinolcd\test\pain drain\libraries\lvgl\src\misc\lv_area.h ****     LV_DIR_TOP      = (1 << 2),
  83:c:\projects\paindrain\arduinolcd\test\pain drain\libraries\lvgl\src\misc\lv_area.h ****     LV_DIR_BOTTOM   = (1 << 3),
  84:c:\projects\paindrain\arduinolcd\test\pain drain\libraries\lvgl\src\misc\lv_area.h ****     LV_DIR_HOR      = LV_DIR_LEFT | LV_DIR_RIGHT,
  85:c:\projects\paindrain\arduinolcd\test\pain drain\libraries\lvgl\src\misc\lv_area.h ****     LV_DIR_VER      = LV_DIR_TOP | LV_DIR_BOTTOM,
  86:c:\projects\paindrain\arduinolcd\test\pain drain\libraries\lvgl\src\misc\lv_area.h ****     LV_DIR_ALL      = LV_DIR_HOR | LV_DIR_VER,
  87:c:\projects\paindrain\arduinolcd\test\pain drain\libraries\lvgl\src\misc\lv_area.h **** };
  88:c:\projects\paindrain\arduinolcd\test\pain drain\libraries\lvgl\src\misc\lv_area.h **** 
  89:c:\projects\paindrain\arduinolcd\test\pain drain\libraries\lvgl\src\misc\lv_area.h **** typedef uint8_t lv_dir_t;
  90:c:\projects\paindrain\arduinolcd\test\pain drain\libraries\lvgl\src\misc\lv_area.h **** 
  91:c:\projects\paindrain\arduinolcd\test\pain drain\libraries\lvgl\src\misc\lv_area.h **** /**********************
  92:c:\projects\paindrain\arduinolcd\test\pain drain\libraries\lvgl\src\misc\lv_area.h ****  * GLOBAL PROTOTYPES
  93:c:\projects\paindrain\arduinolcd\test\pain drain\libraries\lvgl\src\misc\lv_area.h ****  **********************/
  94:c:\projects\paindrain\arduinolcd\test\pain drain\libraries\lvgl\src\misc\lv_area.h **** 
  95:c:\projects\paindrain\arduinolcd\test\pain drain\libraries\lvgl\src\misc\lv_area.h **** /**
  96:c:\projects\paindrain\arduinolcd\test\pain drain\libraries\lvgl\src\misc\lv_area.h ****  * Initialize an area
  97:c:\projects\paindrain\arduinolcd\test\pain drain\libraries\lvgl\src\misc\lv_area.h ****  * @param area_p pointer to an area
  98:c:\projects\paindrain\arduinolcd\test\pain drain\libraries\lvgl\src\misc\lv_area.h ****  * @param x1 left coordinate of the area
  99:c:\projects\paindrain\arduinolcd\test\pain drain\libraries\lvgl\src\misc\lv_area.h ****  * @param y1 top coordinate of the area
 100:c:\projects\paindrain\arduinolcd\test\pain drain\libraries\lvgl\src\misc\lv_area.h ****  * @param x2 right coordinate of the area
 101:c:\projects\paindrain\arduinolcd\test\pain drain\libraries\lvgl\src\misc\lv_area.h ****  * @param y2 bottom coordinate of the area
 102:c:\projects\paindrain\arduinolcd\test\pain drain\libraries\lvgl\src\misc\lv_area.h ****  */
 103:c:\projects\paindrain\arduinolcd\test\pain drain\libraries\lvgl\src\misc\lv_area.h **** void lv_area_set(lv_area_t * area_p, lv_coord_t x1, lv_coord_t y1, lv_coord_t x2, lv_coord_t y2);
 104:c:\projects\paindrain\arduinolcd\test\pain drain\libraries\lvgl\src\misc\lv_area.h **** 
 105:c:\projects\paindrain\arduinolcd\test\pain drain\libraries\lvgl\src\misc\lv_area.h **** /**
 106:c:\projects\paindrain\arduinolcd\test\pain drain\libraries\lvgl\src\misc\lv_area.h ****  * Copy an area
 107:c:\projects\paindrain\arduinolcd\test\pain drain\libraries\lvgl\src\misc\lv_area.h ****  * @param dest pointer to the destination area
 108:c:\projects\paindrain\arduinolcd\test\pain drain\libraries\lvgl\src\misc\lv_area.h ****  * @param src pointer to the source area
 109:c:\projects\paindrain\arduinolcd\test\pain drain\libraries\lvgl\src\misc\lv_area.h ****  */
 110:c:\projects\paindrain\arduinolcd\test\pain drain\libraries\lvgl\src\misc\lv_area.h **** inline static void lv_area_copy(lv_area_t * dest, const lv_area_t * src)
 111:c:\projects\paindrain\arduinolcd\test\pain drain\libraries\lvgl\src\misc\lv_area.h **** {
 112:c:\projects\paindrain\arduinolcd\test\pain drain\libraries\lvgl\src\misc\lv_area.h ****     dest->x1 = src->x1;
 113:c:\projects\paindrain\arduinolcd\test\pain drain\libraries\lvgl\src\misc\lv_area.h ****     dest->y1 = src->y1;
 114:c:\projects\paindrain\arduinolcd\test\pain drain\libraries\lvgl\src\misc\lv_area.h ****     dest->x2 = src->x2;
 115:c:\projects\paindrain\arduinolcd\test\pain drain\libraries\lvgl\src\misc\lv_area.h ****     dest->y2 = src->y2;
 116:c:\projects\paindrain\arduinolcd\test\pain drain\libraries\lvgl\src\misc\lv_area.h **** }
 117:c:\projects\paindrain\arduinolcd\test\pain drain\libraries\lvgl\src\misc\lv_area.h **** 
 118:c:\projects\paindrain\arduinolcd\test\pain drain\libraries\lvgl\src\misc\lv_area.h **** /**
ARM GAS  C:\Users\haske\AppData\Local\Temp\cc4f9rxb.s 			page 36


 119:c:\projects\paindrain\arduinolcd\test\pain drain\libraries\lvgl\src\misc\lv_area.h ****  * Get the width of an area
 120:c:\projects\paindrain\arduinolcd\test\pain drain\libraries\lvgl\src\misc\lv_area.h ****  * @param area_p pointer to an area
 121:c:\projects\paindrain\arduinolcd\test\pain drain\libraries\lvgl\src\misc\lv_area.h ****  * @return the width of the area (if x1 == x2 -> width = 1)
 122:c:\projects\paindrain\arduinolcd\test\pain drain\libraries\lvgl\src\misc\lv_area.h ****  */
 123:c:\projects\paindrain\arduinolcd\test\pain drain\libraries\lvgl\src\misc\lv_area.h **** static inline lv_coord_t lv_area_get_width(const lv_area_t * area_p)
 124:c:\projects\paindrain\arduinolcd\test\pain drain\libraries\lvgl\src\misc\lv_area.h **** {
 125:c:\projects\paindrain\arduinolcd\test\pain drain\libraries\lvgl\src\misc\lv_area.h ****     return (lv_coord_t)(area_p->x2 - area_p->x1 + 1);
 1029              		.loc 3 125 0
 1030 004a 1822     		movs	r2, #24
 1031 004c A35E     		ldrsh	r3, [r4, r2]
 1032 004e 1421     		movs	r1, #20
 1033 0050 625E     		ldrsh	r2, [r4, r1]
 1034 0052 9B1A     		subs	r3, r3, r2
 1035 0054 0133     		adds	r3, r3, #1
 1036 0056 1BB2     		sxth	r3, r3
 1037              	.LVL146:
 1038              	.LBE328:
 1039              	.LBE327:
 246:..\..\..\arduinoLCD\test\Pain Drain\libraries\lvgl\src\core/lv_obj_draw.c ****     draw_dsc->pivot.x = lv_area_get_width(&obj->coords) / 2;
 1040              		.loc 1 246 0
 1041 0058 DA0F     		lsrs	r2, r3, #31
 1042 005a D318     		adds	r3, r2, r3
 1043 005c 5B10     		asrs	r3, r3, #1
 1044 005e B380     		strh	r3, [r6, #4]
 1045              	.LVL147:
 1046              	.LBB329:
 1047              	.LBB330:
 126:c:\projects\paindrain\arduinolcd\test\pain drain\libraries\lvgl\src\misc\lv_area.h **** }
 127:c:\projects\paindrain\arduinolcd\test\pain drain\libraries\lvgl\src\misc\lv_area.h **** 
 128:c:\projects\paindrain\arduinolcd\test\pain drain\libraries\lvgl\src\misc\lv_area.h **** /**
 129:c:\projects\paindrain\arduinolcd\test\pain drain\libraries\lvgl\src\misc\lv_area.h ****  * Get the height of an area
 130:c:\projects\paindrain\arduinolcd\test\pain drain\libraries\lvgl\src\misc\lv_area.h ****  * @param area_p pointer to an area
 131:c:\projects\paindrain\arduinolcd\test\pain drain\libraries\lvgl\src\misc\lv_area.h ****  * @return the height of the area (if y1 == y2 -> height = 1)
 132:c:\projects\paindrain\arduinolcd\test\pain drain\libraries\lvgl\src\misc\lv_area.h ****  */
 133:c:\projects\paindrain\arduinolcd\test\pain drain\libraries\lvgl\src\misc\lv_area.h **** static inline lv_coord_t lv_area_get_height(const lv_area_t * area_p)
 134:c:\projects\paindrain\arduinolcd\test\pain drain\libraries\lvgl\src\misc\lv_area.h **** {
 135:c:\projects\paindrain\arduinolcd\test\pain drain\libraries\lvgl\src\misc\lv_area.h ****     return (lv_coord_t)(area_p->y2 - area_p->y1 + 1);
 1048              		.loc 3 135 0
 1049 0060 1A22     		movs	r2, #26
 1050 0062 A35E     		ldrsh	r3, [r4, r2]
 1051 0064 1621     		movs	r1, #22
 1052 0066 625E     		ldrsh	r2, [r4, r1]
 1053 0068 9B1A     		subs	r3, r3, r2
 1054 006a 0133     		adds	r3, r3, #1
 1055 006c 1BB2     		sxth	r3, r3
 1056              	.LVL148:
 1057              	.LBE330:
 1058              	.LBE329:
 247:..\..\..\arduinoLCD\test\Pain Drain\libraries\lvgl\src\core/lv_obj_draw.c ****     draw_dsc->pivot.y = lv_area_get_height(&obj->coords) / 2;
 1059              		.loc 1 247 0
 1060 006e DA0F     		lsrs	r2, r3, #31
 1061 0070 D318     		adds	r3, r2, r3
 1062 0072 5B10     		asrs	r3, r3, #1
 1063 0074 F380     		strh	r3, [r6, #6]
 1064              	.LVL149:
 1065              	.LBB331:
 1066              	.LBB332:
ARM GAS  C:\Users\haske\AppData\Local\Temp\cc4f9rxb.s 			page 37


 363:..\..\..\arduinoLCD\test\Pain Drain\libraries\lvgl\src\core/lv_obj_style_gen.h ****     return (lv_opa_t)v.num;
 1067              		.loc 2 363 0
 1068 0076 4822     		movs	r2, #72
 1069 0078 2900     		movs	r1, r5
 1070 007a 2000     		movs	r0, r4
 1071 007c FFF7FEFF 		bl	lv_obj_get_style_prop
 1072              	.LVL150:
 364:..\..\..\arduinoLCD\test\Pain Drain\libraries\lvgl\src\core/lv_obj_style_gen.h **** }
 1073              		.loc 2 364 0
 1074 0080 C0B2     		uxtb	r0, r0
 1075              	.LVL151:
 1076              	.LBE332:
 1077              	.LBE331:
 248:..\..\..\arduinoLCD\test\Pain Drain\libraries\lvgl\src\core/lv_obj_draw.c **** 
 249:..\..\..\arduinoLCD\test\Pain Drain\libraries\lvgl\src\core/lv_obj_draw.c ****     draw_dsc->recolor_opa = lv_obj_get_style_img_recolor_opa(obj, part);
 1078              		.loc 1 249 0
 1079 0082 B072     		strb	r0, [r6, #10]
 250:..\..\..\arduinoLCD\test\Pain Drain\libraries\lvgl\src\core/lv_obj_draw.c ****     if(draw_dsc->recolor_opa > 0) {
 1080              		.loc 1 250 0
 1081 0084 0028     		cmp	r0, #0
 1082 0086 0AD0     		beq	.L23
 1083              	.LVL152:
 1084              	.LBB333:
 1085              	.LBB334:
 357:..\..\..\arduinoLCD\test\Pain Drain\libraries\lvgl\src\core/lv_obj_style_gen.h ****     return v.color;
 1086              		.loc 2 357 0
 1087 0088 4722     		movs	r2, #71
 1088 008a 2900     		movs	r1, r5
 1089 008c 2000     		movs	r0, r4
 1090 008e FFF7FEFF 		bl	lv_obj_get_style_prop
 1091              	.LVL153:
 1092 0092 0200     		movs	r2, r0
 1093 0094 2900     		movs	r1, r5
 1094 0096 2000     		movs	r0, r4
 1095 0098 FFF7FEFF 		bl	_lv_obj_style_apply_color_filter
 1096              	.LVL154:
 1097              	.LBE334:
 1098              	.LBE333:
 251:..\..\..\arduinoLCD\test\Pain Drain\libraries\lvgl\src\core/lv_obj_draw.c ****         draw_dsc->recolor = lv_obj_get_style_img_recolor_filtered(obj, part);
 1099              		.loc 1 251 0
 1100 009c 3081     		strh	r0, [r6, #8]
 1101              	.L23:
 252:..\..\..\arduinoLCD\test\Pain Drain\libraries\lvgl\src\core/lv_obj_draw.c ****     }
 253:..\..\..\arduinoLCD\test\Pain Drain\libraries\lvgl\src\core/lv_obj_draw.c **** #if LV_DRAW_COMPLEX
 254:..\..\..\arduinoLCD\test\Pain Drain\libraries\lvgl\src\core/lv_obj_draw.c ****     if(part != LV_PART_MAIN) draw_dsc->blend_mode = lv_obj_get_style_blend_mode(obj, part);
 1102              		.loc 1 254 0
 1103 009e 002D     		cmp	r5, #0
 1104 00a0 0BD0     		beq	.L19
 1105              	.LVL155:
 1106              	.LBB335:
 1107              	.LBB336:
 1108              		.loc 2 549 0
 1109 00a2 6722     		movs	r2, #103
 1110 00a4 2900     		movs	r1, r5
 1111 00a6 2000     		movs	r0, r4
 1112 00a8 FFF7FEFF 		bl	lv_obj_get_style_prop
 1113              	.LVL156:
ARM GAS  C:\Users\haske\AppData\Local\Temp\cc4f9rxb.s 			page 38


 1114              	.LBE336:
 1115              	.LBE335:
 1116              		.loc 1 254 0
 1117 00ac 0F23     		movs	r3, #15
 1118              	.LVL157:
 1119 00ae 1840     		ands	r0, r3
 1120              	.LVL158:
 1121 00b0 337B     		ldrb	r3, [r6, #12]
 1122 00b2 0F22     		movs	r2, #15
 1123 00b4 9343     		bics	r3, r2
 1124 00b6 1843     		orrs	r0, r3
 1125 00b8 3073     		strb	r0, [r6, #12]
 1126              	.L19:
 255:..\..\..\arduinoLCD\test\Pain Drain\libraries\lvgl\src\core/lv_obj_draw.c **** #endif
 256:..\..\..\arduinoLCD\test\Pain Drain\libraries\lvgl\src\core/lv_obj_draw.c **** }
 1127              		.loc 1 256 0
 1128              		@ sp needed
 1129              	.LVL159:
 1130              	.LVL160:
 1131              	.LVL161:
 1132 00ba 70BD     		pop	{r4, r5, r6, pc}
 1133              		.cfi_endproc
 1134              	.LFE167:
 1135              		.size	lv_obj_init_draw_img_dsc, .-lv_obj_init_draw_img_dsc
 1136              		.section	.text.lv_obj_init_draw_line_dsc,"ax",%progbits
 1137              		.align	2
 1138              		.global	lv_obj_init_draw_line_dsc
 1139              		.code	16
 1140              		.thumb_func
 1141              		.type	lv_obj_init_draw_line_dsc, %function
 1142              	lv_obj_init_draw_line_dsc:
 1143              	.LFB168:
 257:..\..\..\arduinoLCD\test\Pain Drain\libraries\lvgl\src\core/lv_obj_draw.c **** 
 258:..\..\..\arduinoLCD\test\Pain Drain\libraries\lvgl\src\core/lv_obj_draw.c **** void lv_obj_init_draw_line_dsc(lv_obj_t * obj, uint32_t part, lv_draw_line_dsc_t * draw_dsc)
 259:..\..\..\arduinoLCD\test\Pain Drain\libraries\lvgl\src\core/lv_obj_draw.c **** {
 1144              		.loc 1 259 0
 1145              		.cfi_startproc
 1146              		@ args = 0, pretend = 0, frame = 0
 1147              		@ frame_needed = 0, uses_anonymous_args = 0
 1148              	.LVL162:
 1149 0000 70B5     		push	{r4, r5, r6, lr}
 1150              		.cfi_def_cfa_offset 16
 1151              		.cfi_offset 4, -16
 1152              		.cfi_offset 5, -12
 1153              		.cfi_offset 6, -8
 1154              		.cfi_offset 14, -4
 1155 0002 0500     		movs	r5, r0
 1156 0004 0C00     		movs	r4, r1
 1157 0006 1600     		movs	r6, r2
 1158              	.LVL163:
 1159              	.LBB354:
 1160              	.LBB355:
 405:..\..\..\arduinoLCD\test\Pain Drain\libraries\lvgl\src\core/lv_obj_style_gen.h ****     return (lv_opa_t)v.num;
 1161              		.loc 2 405 0
 1162 0008 4E22     		movs	r2, #78
 1163              	.LVL164:
 1164 000a FFF7FEFF 		bl	lv_obj_get_style_prop
ARM GAS  C:\Users\haske\AppData\Local\Temp\cc4f9rxb.s 			page 39


 1165              	.LVL165:
 406:..\..\..\arduinoLCD\test\Pain Drain\libraries\lvgl\src\core/lv_obj_style_gen.h **** }
 1166              		.loc 2 406 0
 1167 000e C0B2     		uxtb	r0, r0
 1168              	.LVL166:
 1169              	.LBE355:
 1170              	.LBE354:
 260:..\..\..\arduinoLCD\test\Pain Drain\libraries\lvgl\src\core/lv_obj_draw.c ****     draw_dsc->opa = lv_obj_get_style_line_opa(obj, part);
 1171              		.loc 1 260 0
 1172 0010 3072     		strb	r0, [r6, #8]
 261:..\..\..\arduinoLCD\test\Pain Drain\libraries\lvgl\src\core/lv_obj_draw.c ****     if(draw_dsc->opa <= LV_OPA_MIN)  return;
 1173              		.loc 1 261 0
 1174 0012 0228     		cmp	r0, #2
 1175 0014 56D9     		bls	.L24
 262:..\..\..\arduinoLCD\test\Pain Drain\libraries\lvgl\src\core/lv_obj_draw.c **** 
 263:..\..\..\arduinoLCD\test\Pain Drain\libraries\lvgl\src\core/lv_obj_draw.c ****     if(part != LV_PART_MAIN) {
 1176              		.loc 1 263 0
 1177 0016 002C     		cmp	r4, #0
 1178 0018 12D0     		beq	.L26
 1179              	.LVL167:
 1180              	.LBB356:
 1181              	.LBB357:
 1182              	.LBB358:
 507:..\..\..\arduinoLCD\test\Pain Drain\libraries\lvgl\src\core/lv_obj_style_gen.h ****     return (lv_opa_t)v.num;
 1183              		.loc 2 507 0
 1184 001a 6022     		movs	r2, #96
 1185 001c 2100     		movs	r1, r4
 1186 001e 2800     		movs	r0, r5
 1187 0020 FFF7FEFF 		bl	lv_obj_get_style_prop
 1188              	.LVL168:
 508:..\..\..\arduinoLCD\test\Pain Drain\libraries\lvgl\src\core/lv_obj_style_gen.h **** }
 1189              		.loc 2 508 0
 1190 0024 C3B2     		uxtb	r3, r0
 1191              	.LVL169:
 1192              	.LBE358:
 1193              	.LBE357:
 264:..\..\..\arduinoLCD\test\Pain Drain\libraries\lvgl\src\core/lv_obj_draw.c ****         lv_opa_t opa = lv_obj_get_style_opa(obj, part);
 265:..\..\..\arduinoLCD\test\Pain Drain\libraries\lvgl\src\core/lv_obj_draw.c ****         if(opa <= LV_OPA_MIN) {
 1194              		.loc 1 265 0
 1195 0026 022B     		cmp	r3, #2
 1196 0028 02D8     		bhi	.L27
 266:..\..\..\arduinoLCD\test\Pain Drain\libraries\lvgl\src\core/lv_obj_draw.c ****             draw_dsc->opa = LV_OPA_TRANSP;
 1197              		.loc 1 266 0
 1198 002a 0023     		movs	r3, #0
 1199 002c 3372     		strb	r3, [r6, #8]
 267:..\..\..\arduinoLCD\test\Pain Drain\libraries\lvgl\src\core/lv_obj_draw.c ****             return;
 1200              		.loc 1 267 0
 1201 002e 49E0     		b	.L24
 1202              	.L27:
 268:..\..\..\arduinoLCD\test\Pain Drain\libraries\lvgl\src\core/lv_obj_draw.c ****         }
 269:..\..\..\arduinoLCD\test\Pain Drain\libraries\lvgl\src\core/lv_obj_draw.c ****         if(opa < LV_OPA_MAX) {
 1203              		.loc 1 269 0
 1204 0030 FC2B     		cmp	r3, #252
 1205 0032 05D8     		bhi	.L26
 270:..\..\..\arduinoLCD\test\Pain Drain\libraries\lvgl\src\core/lv_obj_draw.c ****             draw_dsc->opa = (opa * draw_dsc->opa) >> 8;
 1206              		.loc 1 270 0
 1207 0034 337A     		ldrb	r3, [r6, #8]
ARM GAS  C:\Users\haske\AppData\Local\Temp\cc4f9rxb.s 			page 40


 1208 0036 FF22     		movs	r2, #255
 1209 0038 1040     		ands	r0, r2
 1210 003a 5843     		muls	r0, r3
 1211 003c 0012     		asrs	r0, r0, #8
 1212 003e 3072     		strb	r0, [r6, #8]
 1213              	.L26:
 1214              	.LVL170:
 1215              	.LBE356:
 1216              	.LBB359:
 1217              	.LBB360:
 369:..\..\..\arduinoLCD\test\Pain Drain\libraries\lvgl\src\core/lv_obj_style_gen.h ****     return (lv_coord_t)v.num;
 1218              		.loc 2 369 0
 1219 0040 4922     		movs	r2, #73
 1220 0042 2100     		movs	r1, r4
 1221 0044 2800     		movs	r0, r5
 1222 0046 FFF7FEFF 		bl	lv_obj_get_style_prop
 1223              	.LVL171:
 370:..\..\..\arduinoLCD\test\Pain Drain\libraries\lvgl\src\core/lv_obj_style_gen.h **** }
 1224              		.loc 2 370 0
 1225 004a 00B2     		sxth	r0, r0
 1226              	.LVL172:
 1227              	.LBE360:
 1228              	.LBE359:
 271:..\..\..\arduinoLCD\test\Pain Drain\libraries\lvgl\src\core/lv_obj_draw.c ****         }
 272:..\..\..\arduinoLCD\test\Pain Drain\libraries\lvgl\src\core/lv_obj_draw.c ****     }
 273:..\..\..\arduinoLCD\test\Pain Drain\libraries\lvgl\src\core/lv_obj_draw.c **** 
 274:..\..\..\arduinoLCD\test\Pain Drain\libraries\lvgl\src\core/lv_obj_draw.c ****     draw_dsc->width = lv_obj_get_style_line_width(obj, part);
 1229              		.loc 1 274 0
 1230 004c 7080     		strh	r0, [r6, #2]
 275:..\..\..\arduinoLCD\test\Pain Drain\libraries\lvgl\src\core/lv_obj_draw.c ****     if(draw_dsc->width == 0) return;
 1231              		.loc 1 275 0
 1232 004e 0028     		cmp	r0, #0
 1233 0050 38D0     		beq	.L24
 1234              	.LVL173:
 1235              	.LBB361:
 1236              	.LBB362:
 399:..\..\..\arduinoLCD\test\Pain Drain\libraries\lvgl\src\core/lv_obj_style_gen.h ****     return v.color;
 1237              		.loc 2 399 0
 1238 0052 4D22     		movs	r2, #77
 1239 0054 2100     		movs	r1, r4
 1240 0056 2800     		movs	r0, r5
 1241 0058 FFF7FEFF 		bl	lv_obj_get_style_prop
 1242              	.LVL174:
 1243 005c 0200     		movs	r2, r0
 1244 005e 2100     		movs	r1, r4
 1245 0060 2800     		movs	r0, r5
 1246 0062 FFF7FEFF 		bl	_lv_obj_style_apply_color_filter
 1247              	.LVL175:
 1248              	.LBE362:
 1249              	.LBE361:
 276:..\..\..\arduinoLCD\test\Pain Drain\libraries\lvgl\src\core/lv_obj_draw.c **** 
 277:..\..\..\arduinoLCD\test\Pain Drain\libraries\lvgl\src\core/lv_obj_draw.c ****     draw_dsc->color = lv_obj_get_style_line_color_filtered(obj, part);
 1250              		.loc 1 277 0
 1251 0066 3080     		strh	r0, [r6]
 1252              	.LVL176:
 1253              	.LBB363:
 1254              	.LBB364:
ARM GAS  C:\Users\haske\AppData\Local\Temp\cc4f9rxb.s 			page 41


 375:..\..\..\arduinoLCD\test\Pain Drain\libraries\lvgl\src\core/lv_obj_style_gen.h ****     return (lv_coord_t)v.num;
 1255              		.loc 2 375 0
 1256 0068 4A22     		movs	r2, #74
 1257 006a 2100     		movs	r1, r4
 1258 006c 2800     		movs	r0, r5
 1259 006e FFF7FEFF 		bl	lv_obj_get_style_prop
 1260              	.LVL177:
 376:..\..\..\arduinoLCD\test\Pain Drain\libraries\lvgl\src\core/lv_obj_style_gen.h **** }
 1261              		.loc 2 376 0
 1262 0072 00B2     		sxth	r0, r0
 1263              	.LVL178:
 1264              	.LBE364:
 1265              	.LBE363:
 278:..\..\..\arduinoLCD\test\Pain Drain\libraries\lvgl\src\core/lv_obj_draw.c **** 
 279:..\..\..\arduinoLCD\test\Pain Drain\libraries\lvgl\src\core/lv_obj_draw.c ****     draw_dsc->dash_width = lv_obj_get_style_line_dash_width(obj, part);
 1266              		.loc 1 279 0
 1267 0074 B080     		strh	r0, [r6, #4]
 280:..\..\..\arduinoLCD\test\Pain Drain\libraries\lvgl\src\core/lv_obj_draw.c ****     if(draw_dsc->dash_width) {
 1268              		.loc 1 280 0
 1269 0076 0028     		cmp	r0, #0
 1270 0078 05D0     		beq	.L28
 1271              	.LVL179:
 1272              	.LBB365:
 1273              	.LBB366:
 381:..\..\..\arduinoLCD\test\Pain Drain\libraries\lvgl\src\core/lv_obj_style_gen.h ****     return (lv_coord_t)v.num;
 1274              		.loc 2 381 0
 1275 007a 4B22     		movs	r2, #75
 1276 007c 2100     		movs	r1, r4
 1277 007e 2800     		movs	r0, r5
 1278 0080 FFF7FEFF 		bl	lv_obj_get_style_prop
 1279              	.LVL180:
 1280              	.LBE366:
 1281              	.LBE365:
 281:..\..\..\arduinoLCD\test\Pain Drain\libraries\lvgl\src\core/lv_obj_draw.c ****         draw_dsc->dash_gap = lv_obj_get_style_line_dash_gap(obj, part);
 1282              		.loc 1 281 0
 1283 0084 F080     		strh	r0, [r6, #6]
 1284              	.L28:
 1285              	.LVL181:
 1286              	.LBB367:
 1287              	.LBB368:
 387:..\..\..\arduinoLCD\test\Pain Drain\libraries\lvgl\src\core/lv_obj_style_gen.h ****     return (bool)v.num;
 1288              		.loc 2 387 0
 1289 0086 4C22     		movs	r2, #76
 1290 0088 2100     		movs	r1, r4
 1291 008a 2800     		movs	r0, r5
 1292 008c FFF7FEFF 		bl	lv_obj_get_style_prop
 1293              	.LVL182:
 1294              	.LBE368:
 1295              	.LBE367:
 282:..\..\..\arduinoLCD\test\Pain Drain\libraries\lvgl\src\core/lv_obj_draw.c ****     }
 283:..\..\..\arduinoLCD\test\Pain Drain\libraries\lvgl\src\core/lv_obj_draw.c **** 
 284:..\..\..\arduinoLCD\test\Pain Drain\libraries\lvgl\src\core/lv_obj_draw.c ****     draw_dsc->round_start = lv_obj_get_style_line_rounded(obj, part);
 1296              		.loc 1 284 0
 1297 0090 431E     		subs	r3, r0, #1
 1298 0092 9841     		sbcs	r0, r0, r3
 1299              	.LVL183:
 1300 0094 8200     		lsls	r2, r0, #2
ARM GAS  C:\Users\haske\AppData\Local\Temp\cc4f9rxb.s 			page 42


 1301 0096 737A     		ldrb	r3, [r6, #9]
 1302 0098 0421     		movs	r1, #4
 1303 009a 8B43     		bics	r3, r1
 285:..\..\..\arduinoLCD\test\Pain Drain\libraries\lvgl\src\core/lv_obj_draw.c ****     draw_dsc->round_end = draw_dsc->round_start;
 1304              		.loc 1 285 0
 1305 009c C000     		lsls	r0, r0, #3
 1306 009e 1343     		orrs	r3, r2
 1307 00a0 0822     		movs	r2, #8
 1308 00a2 9343     		bics	r3, r2
 1309 00a4 1843     		orrs	r0, r3
 1310 00a6 7072     		strb	r0, [r6, #9]
 286:..\..\..\arduinoLCD\test\Pain Drain\libraries\lvgl\src\core/lv_obj_draw.c **** 
 287:..\..\..\arduinoLCD\test\Pain Drain\libraries\lvgl\src\core/lv_obj_draw.c **** #if LV_DRAW_COMPLEX
 288:..\..\..\arduinoLCD\test\Pain Drain\libraries\lvgl\src\core/lv_obj_draw.c ****     if(part != LV_PART_MAIN) draw_dsc->blend_mode = lv_obj_get_style_blend_mode(obj, part);
 1311              		.loc 1 288 0
 1312 00a8 002C     		cmp	r4, #0
 1313 00aa 0BD0     		beq	.L24
 1314              	.LVL184:
 1315              	.LBB369:
 1316              	.LBB370:
 1317              		.loc 2 549 0
 1318 00ac 5F32     		adds	r2, r2, #95
 1319 00ae 2100     		movs	r1, r4
 1320 00b0 2800     		movs	r0, r5
 1321 00b2 FFF7FEFF 		bl	lv_obj_get_style_prop
 1322              	.LVL185:
 1323              	.LBE370:
 1324              	.LBE369:
 1325              		.loc 1 288 0
 1326 00b6 0323     		movs	r3, #3
 1327              	.LVL186:
 1328 00b8 1840     		ands	r0, r3
 1329              	.LVL187:
 1330 00ba 737A     		ldrb	r3, [r6, #9]
 1331 00bc 0322     		movs	r2, #3
 1332 00be 9343     		bics	r3, r2
 1333 00c0 1843     		orrs	r0, r3
 1334 00c2 7072     		strb	r0, [r6, #9]
 1335              	.L24:
 289:..\..\..\arduinoLCD\test\Pain Drain\libraries\lvgl\src\core/lv_obj_draw.c **** #endif
 290:..\..\..\arduinoLCD\test\Pain Drain\libraries\lvgl\src\core/lv_obj_draw.c **** }
 1336              		.loc 1 290 0
 1337              		@ sp needed
 1338              	.LVL188:
 1339              	.LVL189:
 1340              	.LVL190:
 1341 00c4 70BD     		pop	{r4, r5, r6, pc}
 1342              		.cfi_endproc
 1343              	.LFE168:
 1344              		.size	lv_obj_init_draw_line_dsc, .-lv_obj_init_draw_line_dsc
 1345 00c6 C046     		.section	.text.lv_obj_init_draw_arc_dsc,"ax",%progbits
 1346              		.align	2
 1347              		.global	lv_obj_init_draw_arc_dsc
 1348              		.code	16
 1349              		.thumb_func
 1350              		.type	lv_obj_init_draw_arc_dsc, %function
 1351              	lv_obj_init_draw_arc_dsc:
ARM GAS  C:\Users\haske\AppData\Local\Temp\cc4f9rxb.s 			page 43


 1352              	.LFB169:
 291:..\..\..\arduinoLCD\test\Pain Drain\libraries\lvgl\src\core/lv_obj_draw.c **** 
 292:..\..\..\arduinoLCD\test\Pain Drain\libraries\lvgl\src\core/lv_obj_draw.c **** void lv_obj_init_draw_arc_dsc(lv_obj_t * obj, uint32_t part, lv_draw_arc_dsc_t * draw_dsc)
 293:..\..\..\arduinoLCD\test\Pain Drain\libraries\lvgl\src\core/lv_obj_draw.c **** {
 1353              		.loc 1 293 0
 1354              		.cfi_startproc
 1355              		@ args = 0, pretend = 0, frame = 0
 1356              		@ frame_needed = 0, uses_anonymous_args = 0
 1357              	.LVL191:
 1358 0000 70B5     		push	{r4, r5, r6, lr}
 1359              		.cfi_def_cfa_offset 16
 1360              		.cfi_offset 4, -16
 1361              		.cfi_offset 5, -12
 1362              		.cfi_offset 6, -8
 1363              		.cfi_offset 14, -4
 1364 0002 0500     		movs	r5, r0
 1365 0004 0C00     		movs	r4, r1
 1366 0006 1600     		movs	r6, r2
 1367              	.LVL192:
 1368              	.LBB386:
 1369              	.LBB387:
 411:..\..\..\arduinoLCD\test\Pain Drain\libraries\lvgl\src\core/lv_obj_style_gen.h ****     return (lv_coord_t)v.num;
 1370              		.loc 2 411 0
 1371 0008 5022     		movs	r2, #80
 1372              	.LVL193:
 1373 000a FFF7FEFF 		bl	lv_obj_get_style_prop
 1374              	.LVL194:
 412:..\..\..\arduinoLCD\test\Pain Drain\libraries\lvgl\src\core/lv_obj_style_gen.h **** }
 1375              		.loc 2 412 0
 1376 000e 00B2     		sxth	r0, r0
 1377              	.LVL195:
 1378              	.LBE387:
 1379              	.LBE386:
 294:..\..\..\arduinoLCD\test\Pain Drain\libraries\lvgl\src\core/lv_obj_draw.c ****     draw_dsc->width = lv_obj_get_style_arc_width(obj, part);
 1380              		.loc 1 294 0
 1381 0010 7080     		strh	r0, [r6, #2]
 295:..\..\..\arduinoLCD\test\Pain Drain\libraries\lvgl\src\core/lv_obj_draw.c ****     if(draw_dsc->width == 0) return;
 1382              		.loc 1 295 0
 1383 0012 0028     		cmp	r0, #0
 1384 0014 49D0     		beq	.L29
 1385              	.LVL196:
 1386              	.LBB388:
 1387              	.LBB389:
 435:..\..\..\arduinoLCD\test\Pain Drain\libraries\lvgl\src\core/lv_obj_style_gen.h ****     return (lv_opa_t)v.num;
 1388              		.loc 2 435 0
 1389 0016 5322     		movs	r2, #83
 1390 0018 2100     		movs	r1, r4
 1391 001a 2800     		movs	r0, r5
 1392 001c FFF7FEFF 		bl	lv_obj_get_style_prop
 1393              	.LVL197:
 436:..\..\..\arduinoLCD\test\Pain Drain\libraries\lvgl\src\core/lv_obj_style_gen.h **** }
 1394              		.loc 2 436 0
 1395 0020 C0B2     		uxtb	r0, r0
 1396              	.LVL198:
 1397              	.LBE389:
 1398              	.LBE388:
 296:..\..\..\arduinoLCD\test\Pain Drain\libraries\lvgl\src\core/lv_obj_draw.c **** 
ARM GAS  C:\Users\haske\AppData\Local\Temp\cc4f9rxb.s 			page 44


 297:..\..\..\arduinoLCD\test\Pain Drain\libraries\lvgl\src\core/lv_obj_draw.c ****     draw_dsc->opa = lv_obj_get_style_arc_opa(obj, part);
 1399              		.loc 1 297 0
 1400 0022 3073     		strb	r0, [r6, #12]
 298:..\..\..\arduinoLCD\test\Pain Drain\libraries\lvgl\src\core/lv_obj_draw.c ****     if(draw_dsc->opa <= LV_OPA_MIN)  return;
 1401              		.loc 1 298 0
 1402 0024 0228     		cmp	r0, #2
 1403 0026 40D9     		bls	.L29
 299:..\..\..\arduinoLCD\test\Pain Drain\libraries\lvgl\src\core/lv_obj_draw.c **** 
 300:..\..\..\arduinoLCD\test\Pain Drain\libraries\lvgl\src\core/lv_obj_draw.c ****     if(part != LV_PART_MAIN) {
 1404              		.loc 1 300 0
 1405 0028 002C     		cmp	r4, #0
 1406 002a 12D0     		beq	.L31
 1407              	.LVL199:
 1408              	.LBB390:
 1409              	.LBB391:
 1410              	.LBB392:
 507:..\..\..\arduinoLCD\test\Pain Drain\libraries\lvgl\src\core/lv_obj_style_gen.h ****     return (lv_opa_t)v.num;
 1411              		.loc 2 507 0
 1412 002c 6022     		movs	r2, #96
 1413 002e 2100     		movs	r1, r4
 1414 0030 2800     		movs	r0, r5
 1415 0032 FFF7FEFF 		bl	lv_obj_get_style_prop
 1416              	.LVL200:
 508:..\..\..\arduinoLCD\test\Pain Drain\libraries\lvgl\src\core/lv_obj_style_gen.h **** }
 1417              		.loc 2 508 0
 1418 0036 C3B2     		uxtb	r3, r0
 1419              	.LVL201:
 1420              	.LBE392:
 1421              	.LBE391:
 301:..\..\..\arduinoLCD\test\Pain Drain\libraries\lvgl\src\core/lv_obj_draw.c ****         lv_opa_t opa = lv_obj_get_style_opa(obj, part);
 302:..\..\..\arduinoLCD\test\Pain Drain\libraries\lvgl\src\core/lv_obj_draw.c ****         if(opa <= LV_OPA_MIN) {
 1422              		.loc 1 302 0
 1423 0038 022B     		cmp	r3, #2
 1424 003a 02D8     		bhi	.L32
 303:..\..\..\arduinoLCD\test\Pain Drain\libraries\lvgl\src\core/lv_obj_draw.c ****             draw_dsc->opa = LV_OPA_TRANSP;
 1425              		.loc 1 303 0
 1426 003c 0023     		movs	r3, #0
 1427 003e 3373     		strb	r3, [r6, #12]
 304:..\..\..\arduinoLCD\test\Pain Drain\libraries\lvgl\src\core/lv_obj_draw.c ****             return;
 1428              		.loc 1 304 0
 1429 0040 33E0     		b	.L29
 1430              	.L32:
 305:..\..\..\arduinoLCD\test\Pain Drain\libraries\lvgl\src\core/lv_obj_draw.c ****         }
 306:..\..\..\arduinoLCD\test\Pain Drain\libraries\lvgl\src\core/lv_obj_draw.c ****         if(opa < LV_OPA_MAX) {
 1431              		.loc 1 306 0
 1432 0042 FC2B     		cmp	r3, #252
 1433 0044 05D8     		bhi	.L31
 307:..\..\..\arduinoLCD\test\Pain Drain\libraries\lvgl\src\core/lv_obj_draw.c ****             draw_dsc->opa = (opa * draw_dsc->opa) >> 8;
 1434              		.loc 1 307 0
 1435 0046 337B     		ldrb	r3, [r6, #12]
 1436 0048 FF22     		movs	r2, #255
 1437 004a 1040     		ands	r0, r2
 1438 004c 5843     		muls	r0, r3
 1439 004e 0012     		asrs	r0, r0, #8
 1440 0050 3073     		strb	r0, [r6, #12]
 1441              	.L31:
 1442              	.LVL202:
ARM GAS  C:\Users\haske\AppData\Local\Temp\cc4f9rxb.s 			page 45


 1443              	.LBE390:
 1444              	.LBB393:
 1445              	.LBB394:
 429:..\..\..\arduinoLCD\test\Pain Drain\libraries\lvgl\src\core/lv_obj_style_gen.h ****     return v.color;
 1446              		.loc 2 429 0
 1447 0052 5222     		movs	r2, #82
 1448 0054 2100     		movs	r1, r4
 1449 0056 2800     		movs	r0, r5
 1450 0058 FFF7FEFF 		bl	lv_obj_get_style_prop
 1451              	.LVL203:
 1452 005c 0200     		movs	r2, r0
 1453 005e 2100     		movs	r1, r4
 1454 0060 2800     		movs	r0, r5
 1455 0062 FFF7FEFF 		bl	_lv_obj_style_apply_color_filter
 1456              	.LVL204:
 1457              	.LBE394:
 1458              	.LBE393:
 308:..\..\..\arduinoLCD\test\Pain Drain\libraries\lvgl\src\core/lv_obj_draw.c ****         }
 309:..\..\..\arduinoLCD\test\Pain Drain\libraries\lvgl\src\core/lv_obj_draw.c ****     }
 310:..\..\..\arduinoLCD\test\Pain Drain\libraries\lvgl\src\core/lv_obj_draw.c **** 
 311:..\..\..\arduinoLCD\test\Pain Drain\libraries\lvgl\src\core/lv_obj_draw.c ****     draw_dsc->color = lv_obj_get_style_arc_color_filtered(obj, part);
 1459              		.loc 1 311 0
 1460 0066 3080     		strh	r0, [r6]
 1461              	.LVL205:
 1462              	.LBB395:
 1463              	.LBB396:
 441:..\..\..\arduinoLCD\test\Pain Drain\libraries\lvgl\src\core/lv_obj_style_gen.h ****     return (const void *)v.ptr;
 1464              		.loc 2 441 0
 1465 0068 5422     		movs	r2, #84
 1466 006a 2100     		movs	r1, r4
 1467 006c 2800     		movs	r0, r5
 1468 006e FFF7FEFF 		bl	lv_obj_get_style_prop
 1469              	.LVL206:
 1470              	.LBE396:
 1471              	.LBE395:
 312:..\..\..\arduinoLCD\test\Pain Drain\libraries\lvgl\src\core/lv_obj_draw.c ****     draw_dsc->img_src = lv_obj_get_style_arc_img_src(obj, part);
 1472              		.loc 1 312 0
 1473 0072 B060     		str	r0, [r6, #8]
 1474              	.LVL207:
 1475              	.LBB397:
 1476              	.LBB398:
 417:..\..\..\arduinoLCD\test\Pain Drain\libraries\lvgl\src\core/lv_obj_style_gen.h ****     return (bool)v.num;
 1477              		.loc 2 417 0
 1478 0074 5122     		movs	r2, #81
 1479 0076 2100     		movs	r1, r4
 1480 0078 2800     		movs	r0, r5
 1481              	.LVL208:
 1482 007a FFF7FEFF 		bl	lv_obj_get_style_prop
 1483              	.LVL209:
 1484              	.LBE398:
 1485              	.LBE397:
 313:..\..\..\arduinoLCD\test\Pain Drain\libraries\lvgl\src\core/lv_obj_draw.c **** 
 314:..\..\..\arduinoLCD\test\Pain Drain\libraries\lvgl\src\core/lv_obj_draw.c ****     draw_dsc->rounded = lv_obj_get_style_arc_rounded(obj, part);
 1486              		.loc 1 314 0
 1487 007e 431E     		subs	r3, r0, #1
 1488 0080 9841     		sbcs	r0, r0, r3
 1489              	.LVL210:
ARM GAS  C:\Users\haske\AppData\Local\Temp\cc4f9rxb.s 			page 46


 1490 0082 8300     		lsls	r3, r0, #2
 1491 0084 707B     		ldrb	r0, [r6, #13]
 1492 0086 0422     		movs	r2, #4
 1493 0088 9043     		bics	r0, r2
 1494 008a 1843     		orrs	r0, r3
 1495 008c 7073     		strb	r0, [r6, #13]
 315:..\..\..\arduinoLCD\test\Pain Drain\libraries\lvgl\src\core/lv_obj_draw.c **** 
 316:..\..\..\arduinoLCD\test\Pain Drain\libraries\lvgl\src\core/lv_obj_draw.c **** #if LV_DRAW_COMPLEX
 317:..\..\..\arduinoLCD\test\Pain Drain\libraries\lvgl\src\core/lv_obj_draw.c ****     if(part != LV_PART_MAIN) draw_dsc->blend_mode = lv_obj_get_style_blend_mode(obj, part);
 1496              		.loc 1 317 0
 1497 008e 002C     		cmp	r4, #0
 1498 0090 0BD0     		beq	.L29
 1499              	.LVL211:
 1500              	.LBB399:
 1501              	.LBB400:
 1502              		.loc 2 549 0
 1503 0092 6332     		adds	r2, r2, #99
 1504 0094 2100     		movs	r1, r4
 1505 0096 2800     		movs	r0, r5
 1506 0098 FFF7FEFF 		bl	lv_obj_get_style_prop
 1507              	.LVL212:
 1508              	.LBE400:
 1509              	.LBE399:
 1510              		.loc 1 317 0
 1511 009c 0323     		movs	r3, #3
 1512              	.LVL213:
 1513 009e 1840     		ands	r0, r3
 1514              	.LVL214:
 1515 00a0 737B     		ldrb	r3, [r6, #13]
 1516 00a2 0322     		movs	r2, #3
 1517 00a4 9343     		bics	r3, r2
 1518 00a6 1843     		orrs	r0, r3
 1519 00a8 7073     		strb	r0, [r6, #13]
 1520              	.L29:
 318:..\..\..\arduinoLCD\test\Pain Drain\libraries\lvgl\src\core/lv_obj_draw.c **** #endif
 319:..\..\..\arduinoLCD\test\Pain Drain\libraries\lvgl\src\core/lv_obj_draw.c **** }
 1521              		.loc 1 319 0
 1522              		@ sp needed
 1523              	.LVL215:
 1524              	.LVL216:
 1525              	.LVL217:
 1526 00aa 70BD     		pop	{r4, r5, r6, pc}
 1527              		.cfi_endproc
 1528              	.LFE169:
 1529              		.size	lv_obj_init_draw_arc_dsc, .-lv_obj_init_draw_arc_dsc
 1530              		.section	.text.lv_obj_calculate_ext_draw_size,"ax",%progbits
 1531              		.align	2
 1532              		.global	lv_obj_calculate_ext_draw_size
 1533              		.code	16
 1534              		.thumb_func
 1535              		.type	lv_obj_calculate_ext_draw_size, %function
 1536              	lv_obj_calculate_ext_draw_size:
 1537              	.LFB170:
 320:..\..\..\arduinoLCD\test\Pain Drain\libraries\lvgl\src\core/lv_obj_draw.c **** 
 321:..\..\..\arduinoLCD\test\Pain Drain\libraries\lvgl\src\core/lv_obj_draw.c **** lv_coord_t lv_obj_calculate_ext_draw_size(lv_obj_t * obj, uint32_t part)
 322:..\..\..\arduinoLCD\test\Pain Drain\libraries\lvgl\src\core/lv_obj_draw.c **** {
 1538              		.loc 1 322 0
ARM GAS  C:\Users\haske\AppData\Local\Temp\cc4f9rxb.s 			page 47


 1539              		.cfi_startproc
 1540              		@ args = 0, pretend = 0, frame = 0
 1541              		@ frame_needed = 0, uses_anonymous_args = 0
 1542              	.LVL218:
 1543 0000 F8B5     		push	{r3, r4, r5, r6, r7, lr}
 1544              		.cfi_def_cfa_offset 24
 1545              		.cfi_offset 3, -24
 1546              		.cfi_offset 4, -20
 1547              		.cfi_offset 5, -16
 1548              		.cfi_offset 6, -12
 1549              		.cfi_offset 7, -8
 1550              		.cfi_offset 14, -4
 1551 0002 0400     		movs	r4, r0
 1552 0004 0D00     		movs	r5, r1
 1553              	.LVL219:
 1554              	.LBB401:
 1555              	.LBB402:
 303:..\..\..\arduinoLCD\test\Pain Drain\libraries\lvgl\src\core/lv_obj_style_gen.h ****     return (lv_coord_t)v.num;
 1556              		.loc 2 303 0
 1557 0006 4022     		movs	r2, #64
 1558 0008 FFF7FEFF 		bl	lv_obj_get_style_prop
 1559              	.LVL220:
 304:..\..\..\arduinoLCD\test\Pain Drain\libraries\lvgl\src\core/lv_obj_style_gen.h **** }
 1560              		.loc 2 304 0
 1561 000c 06B2     		sxth	r6, r0
 1562              	.LVL221:
 1563              	.LBE402:
 1564              	.LBE401:
 323:..\..\..\arduinoLCD\test\Pain Drain\libraries\lvgl\src\core/lv_obj_draw.c ****     lv_coord_t s = 0;
 324:..\..\..\arduinoLCD\test\Pain Drain\libraries\lvgl\src\core/lv_obj_draw.c **** 
 325:..\..\..\arduinoLCD\test\Pain Drain\libraries\lvgl\src\core/lv_obj_draw.c ****     lv_coord_t sh_width = lv_obj_get_style_shadow_width(obj, part);
 326:..\..\..\arduinoLCD\test\Pain Drain\libraries\lvgl\src\core/lv_obj_draw.c ****     if(sh_width) {
 1565              		.loc 1 326 0
 1566 000e 002E     		cmp	r6, #0
 1567 0010 30D0     		beq	.L41
 1568              	.LVL222:
 1569              	.LBB403:
 1570              	.LBB404:
 1571              	.LBB405:
 339:..\..\..\arduinoLCD\test\Pain Drain\libraries\lvgl\src\core/lv_obj_style_gen.h ****     return (lv_opa_t)v.num;
 1572              		.loc 2 339 0
 1573 0012 4522     		movs	r2, #69
 1574 0014 2900     		movs	r1, r5
 1575 0016 2000     		movs	r0, r4
 1576 0018 FFF7FEFF 		bl	lv_obj_get_style_prop
 1577              	.LVL223:
 340:..\..\..\arduinoLCD\test\Pain Drain\libraries\lvgl\src\core/lv_obj_style_gen.h **** }
 1578              		.loc 2 340 0
 1579 001c C0B2     		uxtb	r0, r0
 1580              	.LVL224:
 1581              	.LBE405:
 1582              	.LBE404:
 327:..\..\..\arduinoLCD\test\Pain Drain\libraries\lvgl\src\core/lv_obj_draw.c ****         lv_opa_t sh_opa = lv_obj_get_style_shadow_opa(obj, part);
 328:..\..\..\arduinoLCD\test\Pain Drain\libraries\lvgl\src\core/lv_obj_draw.c ****         if(sh_opa > LV_OPA_MIN) {
 1583              		.loc 1 328 0
 1584 001e 0228     		cmp	r0, #2
 1585 0020 2AD9     		bls	.L42
ARM GAS  C:\Users\haske\AppData\Local\Temp\cc4f9rxb.s 			page 48


 1586              	.LBB406:
 329:..\..\..\arduinoLCD\test\Pain Drain\libraries\lvgl\src\core/lv_obj_draw.c ****             sh_width = sh_width / 2 + 1;    /*The blur adds only half width*/
 1587              		.loc 1 329 0
 1588 0022 F00F     		lsrs	r0, r6, #31
 1589 0024 8619     		adds	r6, r0, r6
 1590 0026 7610     		asrs	r6, r6, #1
 1591 0028 0136     		adds	r6, r6, #1
 1592 002a B6B2     		uxth	r6, r6
 1593              	.LVL225:
 1594              	.LBB407:
 1595              	.LBB408:
 321:..\..\..\arduinoLCD\test\Pain Drain\libraries\lvgl\src\core/lv_obj_style_gen.h ****     return (lv_coord_t)v.num;
 1596              		.loc 2 321 0
 1597 002c 4322     		movs	r2, #67
 1598 002e 2900     		movs	r1, r5
 1599 0030 2000     		movs	r0, r4
 1600 0032 FFF7FEFF 		bl	lv_obj_get_style_prop
 1601              	.LVL226:
 1602              	.LBE408:
 1603              	.LBE407:
 330:..\..\..\arduinoLCD\test\Pain Drain\libraries\lvgl\src\core/lv_obj_draw.c ****             sh_width += lv_obj_get_style_shadow_spread(obj, part);
 1604              		.loc 1 330 0
 1605 0036 3618     		adds	r6, r6, r0
 1606              	.LVL227:
 1607 0038 B6B2     		uxth	r6, r6
 1608              	.LVL228:
 1609              	.LBB409:
 1610              	.LBB410:
 309:..\..\..\arduinoLCD\test\Pain Drain\libraries\lvgl\src\core/lv_obj_style_gen.h ****     return (lv_coord_t)v.num;
 1611              		.loc 2 309 0
 1612 003a 4122     		movs	r2, #65
 1613 003c 2900     		movs	r1, r5
 1614 003e 2000     		movs	r0, r4
 1615              	.LVL229:
 1616 0040 FFF7FEFF 		bl	lv_obj_get_style_prop
 1617              	.LVL230:
 310:..\..\..\arduinoLCD\test\Pain Drain\libraries\lvgl\src\core/lv_obj_style_gen.h **** }
 1618              		.loc 2 310 0
 1619 0044 07B2     		sxth	r7, r0
 1620              	.LVL231:
 1621              	.LBE410:
 1622              	.LBE409:
 1623              	.LBB411:
 1624              	.LBB412:
 315:..\..\..\arduinoLCD\test\Pain Drain\libraries\lvgl\src\core/lv_obj_style_gen.h ****     return (lv_coord_t)v.num;
 1625              		.loc 2 315 0
 1626 0046 4222     		movs	r2, #66
 1627 0048 2900     		movs	r1, r5
 1628 004a 2000     		movs	r0, r4
 1629 004c FFF7FEFF 		bl	lv_obj_get_style_prop
 1630              	.LVL232:
 316:..\..\..\arduinoLCD\test\Pain Drain\libraries\lvgl\src\core/lv_obj_style_gen.h **** }
 1631              		.loc 2 316 0
 1632 0050 03B2     		sxth	r3, r0
 1633              	.LVL233:
 1634              	.LBE412:
 1635              	.LBE411:
ARM GAS  C:\Users\haske\AppData\Local\Temp\cc4f9rxb.s 			page 49


 331:..\..\..\arduinoLCD\test\Pain Drain\libraries\lvgl\src\core/lv_obj_draw.c ****             lv_coord_t sh_ofs_x = lv_obj_get_style_shadow_ofs_x(obj, part);
 332:..\..\..\arduinoLCD\test\Pain Drain\libraries\lvgl\src\core/lv_obj_draw.c ****             lv_coord_t sh_ofs_y = lv_obj_get_style_shadow_ofs_y(obj, part);
 333:..\..\..\arduinoLCD\test\Pain Drain\libraries\lvgl\src\core/lv_obj_draw.c ****             sh_width += LV_MAX(LV_ABS(sh_ofs_x), LV_ABS(sh_ofs_y));
 1636              		.loc 1 333 0
 1637 0052 F917     		asrs	r1, r7, #31
 1638 0054 7A18     		adds	r2, r7, r1
 1639 0056 4A40     		eors	r2, r1
 1640 0058 D917     		asrs	r1, r3, #31
 1641 005a 5B18     		adds	r3, r3, r1
 1642 005c 4B40     		eors	r3, r1
 1643 005e 9342     		cmp	r3, r2
 1644 0060 00DA     		bge	.L35
 1645 0062 1300     		movs	r3, r2
 1646              	.L35:
 1647 0064 F318     		adds	r3, r6, r3
 1648 0066 1AB2     		sxth	r2, r3
 1649              	.LVL234:
 334:..\..\..\arduinoLCD\test\Pain Drain\libraries\lvgl\src\core/lv_obj_draw.c ****             s = LV_MAX(s, sh_width);
 1650              		.loc 1 334 0
 1651 0068 131C     		adds	r3, r2, #0
 1652 006a 002A     		cmp	r2, #0
 1653 006c 00DA     		bge	.L36
 1654 006e 0023     		movs	r3, #0
 1655              	.L36:
 1656 0070 1FB2     		sxth	r7, r3
 1657              	.LVL235:
 1658 0072 02E0     		b	.L34
 1659              	.LVL236:
 1660              	.L41:
 1661              	.LBE406:
 1662              	.LBE403:
 323:..\..\..\arduinoLCD\test\Pain Drain\libraries\lvgl\src\core/lv_obj_draw.c **** 
 1663              		.loc 1 323 0
 1664 0074 0027     		movs	r7, #0
 1665 0076 00E0     		b	.L34
 1666              	.L42:
 1667 0078 0027     		movs	r7, #0
 1668              	.LVL237:
 1669              	.L34:
 1670              	.LBB413:
 1671              	.LBB414:
 273:..\..\..\arduinoLCD\test\Pain Drain\libraries\lvgl\src\core/lv_obj_style_gen.h ****     return (lv_coord_t)v.num;
 1672              		.loc 2 273 0
 1673 007a 3522     		movs	r2, #53
 1674 007c 2900     		movs	r1, r5
 1675 007e 2000     		movs	r0, r4
 1676 0080 FFF7FEFF 		bl	lv_obj_get_style_prop
 1677              	.LVL238:
 274:..\..\..\arduinoLCD\test\Pain Drain\libraries\lvgl\src\core/lv_obj_style_gen.h **** }
 1678              		.loc 2 274 0
 1679 0084 06B2     		sxth	r6, r0
 1680              	.LVL239:
 1681              	.LBE414:
 1682              	.LBE413:
 335:..\..\..\arduinoLCD\test\Pain Drain\libraries\lvgl\src\core/lv_obj_draw.c ****         }
 336:..\..\..\arduinoLCD\test\Pain Drain\libraries\lvgl\src\core/lv_obj_draw.c ****     }
 337:..\..\..\arduinoLCD\test\Pain Drain\libraries\lvgl\src\core/lv_obj_draw.c **** 
ARM GAS  C:\Users\haske\AppData\Local\Temp\cc4f9rxb.s 			page 50


 338:..\..\..\arduinoLCD\test\Pain Drain\libraries\lvgl\src\core/lv_obj_draw.c ****     lv_coord_t outline_width = lv_obj_get_style_outline_width(obj, part);
 339:..\..\..\arduinoLCD\test\Pain Drain\libraries\lvgl\src\core/lv_obj_draw.c ****     if(outline_width) {
 1683              		.loc 1 339 0
 1684 0086 002E     		cmp	r6, #0
 1685 0088 13D0     		beq	.L37
 1686              	.LVL240:
 1687              	.LBB415:
 1688              	.LBB416:
 1689              	.LBB417:
 291:..\..\..\arduinoLCD\test\Pain Drain\libraries\lvgl\src\core/lv_obj_style_gen.h ****     return (lv_opa_t)v.num;
 1690              		.loc 2 291 0
 1691 008a 3722     		movs	r2, #55
 1692 008c 2900     		movs	r1, r5
 1693 008e 2000     		movs	r0, r4
 1694 0090 FFF7FEFF 		bl	lv_obj_get_style_prop
 1695              	.LVL241:
 292:..\..\..\arduinoLCD\test\Pain Drain\libraries\lvgl\src\core/lv_obj_style_gen.h **** }
 1696              		.loc 2 292 0
 1697 0094 C0B2     		uxtb	r0, r0
 1698              	.LVL242:
 1699              	.LBE417:
 1700              	.LBE416:
 340:..\..\..\arduinoLCD\test\Pain Drain\libraries\lvgl\src\core/lv_obj_draw.c ****         lv_opa_t outline_opa = lv_obj_get_style_outline_opa(obj, part);
 341:..\..\..\arduinoLCD\test\Pain Drain\libraries\lvgl\src\core/lv_obj_draw.c ****         if(outline_opa > LV_OPA_MIN) {
 1701              		.loc 1 341 0
 1702 0096 0228     		cmp	r0, #2
 1703 0098 0BD9     		bls	.L37
 1704              	.LVL243:
 1705              	.LBB418:
 1706              	.LBB419:
 1707              	.LBB420:
 297:..\..\..\arduinoLCD\test\Pain Drain\libraries\lvgl\src\core/lv_obj_style_gen.h ****     return (lv_coord_t)v.num;
 1708              		.loc 2 297 0
 1709 009a 3822     		movs	r2, #56
 1710 009c 2900     		movs	r1, r5
 1711 009e 2000     		movs	r0, r4
 1712 00a0 FFF7FEFF 		bl	lv_obj_get_style_prop
 1713              	.LVL244:
 298:..\..\..\arduinoLCD\test\Pain Drain\libraries\lvgl\src\core/lv_obj_style_gen.h **** }
 1714              		.loc 2 298 0
 1715 00a4 00B2     		sxth	r0, r0
 1716              	.LVL245:
 1717              	.LBE420:
 1718              	.LBE419:
 342:..\..\..\arduinoLCD\test\Pain Drain\libraries\lvgl\src\core/lv_obj_draw.c ****             lv_coord_t outline_pad = lv_obj_get_style_outline_pad(obj, part);
 343:..\..\..\arduinoLCD\test\Pain Drain\libraries\lvgl\src\core/lv_obj_draw.c ****             s = LV_MAX(s, outline_pad + outline_width);
 1719              		.loc 1 343 0
 1720 00a6 8619     		adds	r6, r0, r6
 1721 00a8 3B00     		movs	r3, r7
 1722 00aa B742     		cmp	r7, r6
 1723 00ac 00DA     		bge	.L38
 1724 00ae 3300     		movs	r3, r6
 1725              	.L38:
 1726 00b0 1FB2     		sxth	r7, r3
 1727              	.LVL246:
 1728              	.L37:
 1729              	.LBE418:
ARM GAS  C:\Users\haske\AppData\Local\Temp\cc4f9rxb.s 			page 51


 1730              	.LBE415:
 1731              	.LBB421:
 1732              	.LBB422:
  57:..\..\..\arduinoLCD\test\Pain Drain\libraries\lvgl\src\core/lv_obj_style_gen.h ****     return (lv_coord_t)v.num;
 1733              		.loc 2 57 0
 1734 00b2 6822     		movs	r2, #104
 1735 00b4 2900     		movs	r1, r5
 1736 00b6 2000     		movs	r0, r4
 1737 00b8 FFF7FEFF 		bl	lv_obj_get_style_prop
 1738              	.LVL247:
  58:..\..\..\arduinoLCD\test\Pain Drain\libraries\lvgl\src\core/lv_obj_style_gen.h **** }
 1739              		.loc 2 58 0
 1740 00bc 06B2     		sxth	r6, r0
 1741              	.LVL248:
 1742              	.LBE422:
 1743              	.LBE421:
 1744              	.LBB423:
 1745              	.LBB424:
  63:..\..\..\arduinoLCD\test\Pain Drain\libraries\lvgl\src\core/lv_obj_style_gen.h ****     return (lv_coord_t)v.num;
 1746              		.loc 2 63 0
 1747 00be 6922     		movs	r2, #105
 1748 00c0 2900     		movs	r1, r5
 1749 00c2 2000     		movs	r0, r4
 1750 00c4 FFF7FEFF 		bl	lv_obj_get_style_prop
 1751              	.LVL249:
  64:..\..\..\arduinoLCD\test\Pain Drain\libraries\lvgl\src\core/lv_obj_style_gen.h **** }
 1752              		.loc 2 64 0
 1753 00c8 00B2     		sxth	r0, r0
 1754              	.LVL250:
 1755              	.LBE424:
 1756              	.LBE423:
 344:..\..\..\arduinoLCD\test\Pain Drain\libraries\lvgl\src\core/lv_obj_draw.c ****         }
 345:..\..\..\arduinoLCD\test\Pain Drain\libraries\lvgl\src\core/lv_obj_draw.c ****     }
 346:..\..\..\arduinoLCD\test\Pain Drain\libraries\lvgl\src\core/lv_obj_draw.c **** 
 347:..\..\..\arduinoLCD\test\Pain Drain\libraries\lvgl\src\core/lv_obj_draw.c ****     lv_coord_t w = lv_obj_get_style_transform_width(obj, part);
 348:..\..\..\arduinoLCD\test\Pain Drain\libraries\lvgl\src\core/lv_obj_draw.c ****     lv_coord_t h = lv_obj_get_style_transform_height(obj, part);
 349:..\..\..\arduinoLCD\test\Pain Drain\libraries\lvgl\src\core/lv_obj_draw.c ****     lv_coord_t wh = LV_MAX(w, h);
 1757              		.loc 1 349 0
 1758 00ca 031C     		adds	r3, r0, #0
 1759 00cc B042     		cmp	r0, r6
 1760 00ce 00DA     		bge	.L39
 1761 00d0 331C     		adds	r3, r6, #0
 1762              	.L39:
 1763 00d2 1AB2     		sxth	r2, r3
 1764              	.LVL251:
 350:..\..\..\arduinoLCD\test\Pain Drain\libraries\lvgl\src\core/lv_obj_draw.c ****     if(wh > 0) s += wh;
 1765              		.loc 1 350 0
 1766 00d4 002A     		cmp	r2, #0
 1767 00d6 01DD     		ble	.L40
 1768              		.loc 1 350 0 is_stmt 0 discriminator 1
 1769 00d8 FB18     		adds	r3, r7, r3
 1770              	.LVL252:
 1771 00da 1FB2     		sxth	r7, r3
 1772              	.LVL253:
 1773              	.L40:
 351:..\..\..\arduinoLCD\test\Pain Drain\libraries\lvgl\src\core/lv_obj_draw.c **** 
 352:..\..\..\arduinoLCD\test\Pain Drain\libraries\lvgl\src\core/lv_obj_draw.c ****     return s;
ARM GAS  C:\Users\haske\AppData\Local\Temp\cc4f9rxb.s 			page 52


 353:..\..\..\arduinoLCD\test\Pain Drain\libraries\lvgl\src\core/lv_obj_draw.c **** }
 1774              		.loc 1 353 0 is_stmt 1
 1775 00dc 3800     		movs	r0, r7
 1776              		@ sp needed
 1777              	.LVL254:
 1778              	.LVL255:
 1779              	.LVL256:
 1780 00de F8BD     		pop	{r3, r4, r5, r6, r7, pc}
 1781              		.cfi_endproc
 1782              	.LFE170:
 1783              		.size	lv_obj_calculate_ext_draw_size, .-lv_obj_calculate_ext_draw_size
 1784              		.section	.text.lv_obj_draw_dsc_init,"ax",%progbits
 1785              		.align	2
 1786              		.global	lv_obj_draw_dsc_init
 1787              		.code	16
 1788              		.thumb_func
 1789              		.type	lv_obj_draw_dsc_init, %function
 1790              	lv_obj_draw_dsc_init:
 1791              	.LFB171:
 354:..\..\..\arduinoLCD\test\Pain Drain\libraries\lvgl\src\core/lv_obj_draw.c **** 
 355:..\..\..\arduinoLCD\test\Pain Drain\libraries\lvgl\src\core/lv_obj_draw.c **** void lv_obj_draw_dsc_init(lv_obj_draw_part_dsc_t * dsc, lv_draw_ctx_t * draw_ctx)
 356:..\..\..\arduinoLCD\test\Pain Drain\libraries\lvgl\src\core/lv_obj_draw.c **** {
 1792              		.loc 1 356 0
 1793              		.cfi_startproc
 1794              		@ args = 0, pretend = 0, frame = 0
 1795              		@ frame_needed = 0, uses_anonymous_args = 0
 1796              	.LVL257:
 1797 0000 70B5     		push	{r4, r5, r6, lr}
 1798              		.cfi_def_cfa_offset 16
 1799              		.cfi_offset 4, -16
 1800              		.cfi_offset 5, -12
 1801              		.cfi_offset 6, -8
 1802              		.cfi_offset 14, -4
 1803 0002 0400     		movs	r4, r0
 1804 0004 0D00     		movs	r5, r1
 357:..\..\..\arduinoLCD\test\Pain Drain\libraries\lvgl\src\core/lv_obj_draw.c ****     lv_memset_00(dsc, sizeof(lv_obj_draw_part_dsc_t));
 1805              		.loc 1 357 0
 1806 0006 4821     		movs	r1, #72
 1807              	.LVL258:
 1808 0008 FFF7FEFF 		bl	lv_memset_00
 1809              	.LVL259:
 358:..\..\..\arduinoLCD\test\Pain Drain\libraries\lvgl\src\core/lv_obj_draw.c ****     dsc->draw_ctx = draw_ctx;
 1810              		.loc 1 358 0
 1811 000c 2560     		str	r5, [r4]
 359:..\..\..\arduinoLCD\test\Pain Drain\libraries\lvgl\src\core/lv_obj_draw.c **** }
 1812              		.loc 1 359 0
 1813              		@ sp needed
 1814              	.LVL260:
 1815              	.LVL261:
 1816 000e 70BD     		pop	{r4, r5, r6, pc}
 1817              		.cfi_endproc
 1818              	.LFE171:
 1819              		.size	lv_obj_draw_dsc_init, .-lv_obj_draw_dsc_init
 1820              		.section	.text.lv_obj_draw_part_check_type,"ax",%progbits
 1821              		.align	2
 1822              		.global	lv_obj_draw_part_check_type
 1823              		.code	16
ARM GAS  C:\Users\haske\AppData\Local\Temp\cc4f9rxb.s 			page 53


 1824              		.thumb_func
 1825              		.type	lv_obj_draw_part_check_type, %function
 1826              	lv_obj_draw_part_check_type:
 1827              	.LFB172:
 360:..\..\..\arduinoLCD\test\Pain Drain\libraries\lvgl\src\core/lv_obj_draw.c **** 
 361:..\..\..\arduinoLCD\test\Pain Drain\libraries\lvgl\src\core/lv_obj_draw.c **** bool lv_obj_draw_part_check_type(lv_obj_draw_part_dsc_t * dsc, const lv_obj_class_t * class_p, uint
 362:..\..\..\arduinoLCD\test\Pain Drain\libraries\lvgl\src\core/lv_obj_draw.c **** {
 1828              		.loc 1 362 0
 1829              		.cfi_startproc
 1830              		@ args = 0, pretend = 0, frame = 0
 1831              		@ frame_needed = 0, uses_anonymous_args = 0
 1832              		@ link register save eliminated.
 1833              	.LVL262:
 363:..\..\..\arduinoLCD\test\Pain Drain\libraries\lvgl\src\core/lv_obj_draw.c ****     if(dsc->class_p == class_p && dsc->type == type) return true;
 1834              		.loc 1 363 0
 1835 0000 4368     		ldr	r3, [r0, #4]
 1836 0002 8B42     		cmp	r3, r1
 1837 0004 04D1     		bne	.L46
 1838              		.loc 1 363 0 is_stmt 0 discriminator 1
 1839 0006 8368     		ldr	r3, [r0, #8]
 1840 0008 9342     		cmp	r3, r2
 1841 000a 03D0     		beq	.L47
 364:..\..\..\arduinoLCD\test\Pain Drain\libraries\lvgl\src\core/lv_obj_draw.c ****     else return false;
 1842              		.loc 1 364 0 is_stmt 1
 1843 000c 0020     		movs	r0, #0
 1844              	.LVL263:
 1845 000e 02E0     		b	.L45
 1846              	.LVL264:
 1847              	.L46:
 1848 0010 0020     		movs	r0, #0
 1849              	.LVL265:
 1850 0012 00E0     		b	.L45
 1851              	.LVL266:
 1852              	.L47:
 363:..\..\..\arduinoLCD\test\Pain Drain\libraries\lvgl\src\core/lv_obj_draw.c ****     if(dsc->class_p == class_p && dsc->type == type) return true;
 1853              		.loc 1 363 0
 1854 0014 0120     		movs	r0, #1
 1855              	.LVL267:
 1856              	.L45:
 365:..\..\..\arduinoLCD\test\Pain Drain\libraries\lvgl\src\core/lv_obj_draw.c **** }
 1857              		.loc 1 365 0
 1858              		@ sp needed
 1859 0016 7047     		bx	lr
 1860              		.cfi_endproc
 1861              	.LFE172:
 1862              		.size	lv_obj_draw_part_check_type, .-lv_obj_draw_part_check_type
 1863              		.section	.text._lv_obj_get_ext_draw_size,"ax",%progbits
 1864              		.align	2
 1865              		.global	_lv_obj_get_ext_draw_size
 1866              		.code	16
 1867              		.thumb_func
 1868              		.type	_lv_obj_get_ext_draw_size, %function
 1869              	_lv_obj_get_ext_draw_size:
 1870              	.LFB174:
 366:..\..\..\arduinoLCD\test\Pain Drain\libraries\lvgl\src\core/lv_obj_draw.c **** 
 367:..\..\..\arduinoLCD\test\Pain Drain\libraries\lvgl\src\core/lv_obj_draw.c **** void lv_obj_refresh_ext_draw_size(lv_obj_t * obj)
 368:..\..\..\arduinoLCD\test\Pain Drain\libraries\lvgl\src\core/lv_obj_draw.c **** {
ARM GAS  C:\Users\haske\AppData\Local\Temp\cc4f9rxb.s 			page 54


 369:..\..\..\arduinoLCD\test\Pain Drain\libraries\lvgl\src\core/lv_obj_draw.c ****     LV_ASSERT_OBJ(obj, MY_CLASS);
 370:..\..\..\arduinoLCD\test\Pain Drain\libraries\lvgl\src\core/lv_obj_draw.c **** 
 371:..\..\..\arduinoLCD\test\Pain Drain\libraries\lvgl\src\core/lv_obj_draw.c ****     lv_coord_t s_old = _lv_obj_get_ext_draw_size(obj);
 372:..\..\..\arduinoLCD\test\Pain Drain\libraries\lvgl\src\core/lv_obj_draw.c ****     lv_coord_t s_new = 0;
 373:..\..\..\arduinoLCD\test\Pain Drain\libraries\lvgl\src\core/lv_obj_draw.c ****     lv_event_send(obj, LV_EVENT_REFR_EXT_DRAW_SIZE, &s_new);
 374:..\..\..\arduinoLCD\test\Pain Drain\libraries\lvgl\src\core/lv_obj_draw.c **** 
 375:..\..\..\arduinoLCD\test\Pain Drain\libraries\lvgl\src\core/lv_obj_draw.c ****     if(s_new != s_old) lv_obj_invalidate(obj);
 376:..\..\..\arduinoLCD\test\Pain Drain\libraries\lvgl\src\core/lv_obj_draw.c **** 
 377:..\..\..\arduinoLCD\test\Pain Drain\libraries\lvgl\src\core/lv_obj_draw.c ****     /*Store the result if the special attrs already allocated*/
 378:..\..\..\arduinoLCD\test\Pain Drain\libraries\lvgl\src\core/lv_obj_draw.c ****     if(obj->spec_attr) {
 379:..\..\..\arduinoLCD\test\Pain Drain\libraries\lvgl\src\core/lv_obj_draw.c ****         obj->spec_attr->ext_draw_size = s_new;
 380:..\..\..\arduinoLCD\test\Pain Drain\libraries\lvgl\src\core/lv_obj_draw.c ****     }
 381:..\..\..\arduinoLCD\test\Pain Drain\libraries\lvgl\src\core/lv_obj_draw.c ****     /*Allocate spec. attrs. only if the result is not zero.
 382:..\..\..\arduinoLCD\test\Pain Drain\libraries\lvgl\src\core/lv_obj_draw.c ****      *Zero is the default value if the spec. attr. are not defined.*/
 383:..\..\..\arduinoLCD\test\Pain Drain\libraries\lvgl\src\core/lv_obj_draw.c ****     else if(s_new != 0) {
 384:..\..\..\arduinoLCD\test\Pain Drain\libraries\lvgl\src\core/lv_obj_draw.c ****         lv_obj_allocate_spec_attr(obj);
 385:..\..\..\arduinoLCD\test\Pain Drain\libraries\lvgl\src\core/lv_obj_draw.c ****         obj->spec_attr->ext_draw_size = s_new;
 386:..\..\..\arduinoLCD\test\Pain Drain\libraries\lvgl\src\core/lv_obj_draw.c ****     }
 387:..\..\..\arduinoLCD\test\Pain Drain\libraries\lvgl\src\core/lv_obj_draw.c **** 
 388:..\..\..\arduinoLCD\test\Pain Drain\libraries\lvgl\src\core/lv_obj_draw.c ****     if(s_new != s_old) lv_obj_invalidate(obj);
 389:..\..\..\arduinoLCD\test\Pain Drain\libraries\lvgl\src\core/lv_obj_draw.c **** }
 390:..\..\..\arduinoLCD\test\Pain Drain\libraries\lvgl\src\core/lv_obj_draw.c **** 
 391:..\..\..\arduinoLCD\test\Pain Drain\libraries\lvgl\src\core/lv_obj_draw.c **** lv_coord_t _lv_obj_get_ext_draw_size(const lv_obj_t * obj)
 392:..\..\..\arduinoLCD\test\Pain Drain\libraries\lvgl\src\core/lv_obj_draw.c **** {
 1871              		.loc 1 392 0
 1872              		.cfi_startproc
 1873              		@ args = 0, pretend = 0, frame = 0
 1874              		@ frame_needed = 0, uses_anonymous_args = 0
 1875              		@ link register save eliminated.
 1876              	.LVL268:
 393:..\..\..\arduinoLCD\test\Pain Drain\libraries\lvgl\src\core/lv_obj_draw.c ****     if(obj->spec_attr) return obj->spec_attr->ext_draw_size;
 1877              		.loc 1 393 0
 1878 0000 8368     		ldr	r3, [r0, #8]
 1879 0002 002B     		cmp	r3, #0
 1880 0004 02D0     		beq	.L50
 1881              		.loc 1 393 0 is_stmt 0 discriminator 1
 1882 0006 1620     		movs	r0, #22
 1883 0008 185E     		ldrsh	r0, [r3, r0]
 1884              	.LVL269:
 1885 000a 00E0     		b	.L49
 1886              	.LVL270:
 1887              	.L50:
 394:..\..\..\arduinoLCD\test\Pain Drain\libraries\lvgl\src\core/lv_obj_draw.c ****     else return 0;
 1888              		.loc 1 394 0 is_stmt 1
 1889 000c 0020     		movs	r0, #0
 1890              	.LVL271:
 1891              	.L49:
 395:..\..\..\arduinoLCD\test\Pain Drain\libraries\lvgl\src\core/lv_obj_draw.c **** }
 1892              		.loc 1 395 0
 1893              		@ sp needed
 1894 000e 7047     		bx	lr
 1895              		.cfi_endproc
 1896              	.LFE174:
 1897              		.size	_lv_obj_get_ext_draw_size, .-_lv_obj_get_ext_draw_size
 1898              		.section	.text.lv_obj_refresh_ext_draw_size,"ax",%progbits
 1899              		.align	2
 1900              		.global	lv_obj_refresh_ext_draw_size
ARM GAS  C:\Users\haske\AppData\Local\Temp\cc4f9rxb.s 			page 55


 1901              		.code	16
 1902              		.thumb_func
 1903              		.type	lv_obj_refresh_ext_draw_size, %function
 1904              	lv_obj_refresh_ext_draw_size:
 1905              	.LFB173:
 368:..\..\..\arduinoLCD\test\Pain Drain\libraries\lvgl\src\core/lv_obj_draw.c ****     LV_ASSERT_OBJ(obj, MY_CLASS);
 1906              		.loc 1 368 0
 1907              		.cfi_startproc
 1908              		@ args = 0, pretend = 0, frame = 8
 1909              		@ frame_needed = 0, uses_anonymous_args = 0
 1910              	.LVL272:
 1911 0000 70B5     		push	{r4, r5, r6, lr}
 1912              		.cfi_def_cfa_offset 16
 1913              		.cfi_offset 4, -16
 1914              		.cfi_offset 5, -12
 1915              		.cfi_offset 6, -8
 1916              		.cfi_offset 14, -4
 1917 0002 82B0     		sub	sp, sp, #8
 1918              		.cfi_def_cfa_offset 24
 1919 0004 0400     		movs	r4, r0
 371:..\..\..\arduinoLCD\test\Pain Drain\libraries\lvgl\src\core/lv_obj_draw.c ****     lv_coord_t s_new = 0;
 1920              		.loc 1 371 0
 1921 0006 FFF7FEFF 		bl	_lv_obj_get_ext_draw_size
 1922              	.LVL273:
 1923 000a 0500     		movs	r5, r0
 1924              	.LVL274:
 372:..\..\..\arduinoLCD\test\Pain Drain\libraries\lvgl\src\core/lv_obj_draw.c ****     lv_event_send(obj, LV_EVENT_REFR_EXT_DRAW_SIZE, &s_new);
 1925              		.loc 1 372 0
 1926 000c 6B46     		mov	r3, sp
 1927 000e 9E1D     		adds	r6, r3, #6
 1928 0010 0023     		movs	r3, #0
 1929 0012 3380     		strh	r3, [r6]
 373:..\..\..\arduinoLCD\test\Pain Drain\libraries\lvgl\src\core/lv_obj_draw.c **** 
 1930              		.loc 1 373 0
 1931 0014 3200     		movs	r2, r6
 1932 0016 1321     		movs	r1, #19
 1933 0018 2000     		movs	r0, r4
 1934              	.LVL275:
 1935 001a FFF7FEFF 		bl	lv_event_send
 1936              	.LVL276:
 375:..\..\..\arduinoLCD\test\Pain Drain\libraries\lvgl\src\core/lv_obj_draw.c **** 
 1937              		.loc 1 375 0
 1938 001e 0022     		movs	r2, #0
 1939 0020 B35E     		ldrsh	r3, [r6, r2]
 1940 0022 9D42     		cmp	r5, r3
 1941 0024 02D0     		beq	.L52
 375:..\..\..\arduinoLCD\test\Pain Drain\libraries\lvgl\src\core/lv_obj_draw.c **** 
 1942              		.loc 1 375 0 is_stmt 0 discriminator 1
 1943 0026 2000     		movs	r0, r4
 1944 0028 FFF7FEFF 		bl	lv_obj_invalidate
 1945              	.LVL277:
 1946              	.L52:
 378:..\..\..\arduinoLCD\test\Pain Drain\libraries\lvgl\src\core/lv_obj_draw.c ****         obj->spec_attr->ext_draw_size = s_new;
 1947              		.loc 1 378 0 is_stmt 1
 1948 002c A368     		ldr	r3, [r4, #8]
 1949 002e 002B     		cmp	r3, #0
 1950 0030 04D0     		beq	.L53
ARM GAS  C:\Users\haske\AppData\Local\Temp\cc4f9rxb.s 			page 56


 379:..\..\..\arduinoLCD\test\Pain Drain\libraries\lvgl\src\core/lv_obj_draw.c ****     }
 1951              		.loc 1 379 0
 1952 0032 6A46     		mov	r2, sp
 1953 0034 0632     		adds	r2, r2, #6
 1954 0036 1288     		ldrh	r2, [r2]
 1955 0038 DA82     		strh	r2, [r3, #22]
 1956 003a 0DE0     		b	.L54
 1957              	.L53:
 383:..\..\..\arduinoLCD\test\Pain Drain\libraries\lvgl\src\core/lv_obj_draw.c ****         lv_obj_allocate_spec_attr(obj);
 1958              		.loc 1 383 0
 1959 003c 6B46     		mov	r3, sp
 1960 003e 0633     		adds	r3, r3, #6
 1961 0040 0022     		movs	r2, #0
 1962 0042 9B5E     		ldrsh	r3, [r3, r2]
 1963 0044 002B     		cmp	r3, #0
 1964 0046 07D0     		beq	.L54
 384:..\..\..\arduinoLCD\test\Pain Drain\libraries\lvgl\src\core/lv_obj_draw.c ****         obj->spec_attr->ext_draw_size = s_new;
 1965              		.loc 1 384 0
 1966 0048 2000     		movs	r0, r4
 1967 004a FFF7FEFF 		bl	lv_obj_allocate_spec_attr
 1968              	.LVL278:
 385:..\..\..\arduinoLCD\test\Pain Drain\libraries\lvgl\src\core/lv_obj_draw.c ****     }
 1969              		.loc 1 385 0
 1970 004e 6B46     		mov	r3, sp
 1971 0050 0633     		adds	r3, r3, #6
 1972 0052 1B88     		ldrh	r3, [r3]
 1973 0054 A268     		ldr	r2, [r4, #8]
 1974 0056 D382     		strh	r3, [r2, #22]
 1975              	.L54:
 388:..\..\..\arduinoLCD\test\Pain Drain\libraries\lvgl\src\core/lv_obj_draw.c **** }
 1976              		.loc 1 388 0
 1977 0058 6B46     		mov	r3, sp
 1978 005a 0633     		adds	r3, r3, #6
 1979 005c 0022     		movs	r2, #0
 1980 005e 9B5E     		ldrsh	r3, [r3, r2]
 1981 0060 9D42     		cmp	r5, r3
 1982 0062 02D0     		beq	.L51
 388:..\..\..\arduinoLCD\test\Pain Drain\libraries\lvgl\src\core/lv_obj_draw.c **** }
 1983              		.loc 1 388 0 is_stmt 0 discriminator 1
 1984 0064 2000     		movs	r0, r4
 1985 0066 FFF7FEFF 		bl	lv_obj_invalidate
 1986              	.LVL279:
 1987              	.L51:
 389:..\..\..\arduinoLCD\test\Pain Drain\libraries\lvgl\src\core/lv_obj_draw.c **** 
 1988              		.loc 1 389 0 is_stmt 1
 1989 006a 02B0     		add	sp, sp, #8
 1990              		@ sp needed
 1991              	.LVL280:
 1992              	.LVL281:
 1993 006c 70BD     		pop	{r4, r5, r6, pc}
 1994              		.cfi_endproc
 1995              	.LFE173:
 1996              		.size	lv_obj_refresh_ext_draw_size, .-lv_obj_refresh_ext_draw_size
 1997 006e C046     		.section	.text._lv_obj_get_layer_type,"ax",%progbits
 1998              		.align	2
 1999              		.global	_lv_obj_get_layer_type
 2000              		.code	16
ARM GAS  C:\Users\haske\AppData\Local\Temp\cc4f9rxb.s 			page 57


 2001              		.thumb_func
 2002              		.type	_lv_obj_get_layer_type, %function
 2003              	_lv_obj_get_layer_type:
 2004              	.LFB175:
 396:..\..\..\arduinoLCD\test\Pain Drain\libraries\lvgl\src\core/lv_obj_draw.c **** 
 397:..\..\..\arduinoLCD\test\Pain Drain\libraries\lvgl\src\core/lv_obj_draw.c **** lv_layer_type_t _lv_obj_get_layer_type(const lv_obj_t * obj)
 398:..\..\..\arduinoLCD\test\Pain Drain\libraries\lvgl\src\core/lv_obj_draw.c **** {
 2005              		.loc 1 398 0
 2006              		.cfi_startproc
 2007              		@ args = 0, pretend = 0, frame = 0
 2008              		@ frame_needed = 0, uses_anonymous_args = 0
 2009              		@ link register save eliminated.
 2010              	.LVL282:
 399:..\..\..\arduinoLCD\test\Pain Drain\libraries\lvgl\src\core/lv_obj_draw.c **** 
 400:..\..\..\arduinoLCD\test\Pain Drain\libraries\lvgl\src\core/lv_obj_draw.c ****     if(obj->spec_attr) return obj->spec_attr->layer_type;
 2011              		.loc 1 400 0
 2012 0000 8368     		ldr	r3, [r0, #8]
 2013 0002 002B     		cmp	r3, #0
 2014 0004 02D0     		beq	.L58
 2015              		.loc 1 400 0 is_stmt 0 discriminator 1
 2016 0006 987E     		ldrb	r0, [r3, #26]
 2017              	.LVL283:
 2018 0008 8009     		lsrs	r0, r0, #6
 2019 000a 00E0     		b	.L57
 2020              	.LVL284:
 2021              	.L58:
 401:..\..\..\arduinoLCD\test\Pain Drain\libraries\lvgl\src\core/lv_obj_draw.c ****     else return LV_LAYER_TYPE_NONE;
 2022              		.loc 1 401 0 is_stmt 1
 2023 000c 0020     		movs	r0, #0
 2024              	.LVL285:
 2025              	.L57:
 402:..\..\..\arduinoLCD\test\Pain Drain\libraries\lvgl\src\core/lv_obj_draw.c **** }
 2026              		.loc 1 402 0
 2027              		@ sp needed
 2028 000e 7047     		bx	lr
 2029              		.cfi_endproc
 2030              	.LFE175:
 2031              		.size	_lv_obj_get_layer_type, .-_lv_obj_get_layer_type
 2032              		.text
 2033              	.Letext0:
 2034              		.file 4 "c:\\program files (x86)\\cypress\\psoc creator\\4.4\\psoc creator\\import\\gnu\\arm\\5.4.
 2035              		.file 5 "c:\\program files (x86)\\cypress\\psoc creator\\4.4\\psoc creator\\import\\gnu\\arm\\5.4.
 2036              		.file 6 "c:\\program files (x86)\\cypress\\psoc creator\\4.4\\psoc creator\\import\\gnu\\arm\\5.4.
 2037              		.file 7 "c:\\projects\\paindrain\\arduinolcd\\test\\pain drain\\libraries\\lvgl\\src\\font\\lv_fon
 2038              		.file 8 "c:\\projects\\paindrain\\arduinolcd\\test\\pain drain\\libraries\\lvgl\\src\\misc\\lv_typ
 2039              		.file 9 "c:\\projects\\paindrain\\arduinolcd\\test\\pain drain\\libraries\\lvgl\\src\\misc\\lv_col
 2040              		.file 10 "c:\\projects\\paindrain\\arduinolcd\\test\\pain drain\\libraries\\lvgl\\src\\misc\\lv_tx
 2041              		.file 11 "c:\\projects\\paindrain\\arduinolcd\\test\\pain drain\\libraries\\lvgl\\src\\misc\\lv_bi
 2042              		.file 12 "c:\\projects\\paindrain\\arduinolcd\\test\\pain drain\\libraries\\lvgl\\src\\misc\\lv_st
 2043              		.file 13 "..\\..\\..\\arduinoLCD\\test\\Pain Drain\\libraries\\lvgl\\src\\core\\../draw/lv_img_buf
 2044              		.file 14 "..\\..\\..\\arduinoLCD\\test\\Pain Drain\\libraries\\lvgl\\src\\core\\../draw/lv_img_dec
 2045              		.file 15 "..\\..\\..\\arduinoLCD\\test\\Pain Drain\\libraries\\lvgl\\src\\core\\lv_obj.h"
 2046              		.file 16 "..\\..\\..\\arduinoLCD\\test\\Pain Drain\\libraries\\lvgl\\src\\core\\../draw/lv_draw_re
 2047              		.file 17 "..\\..\\..\\arduinoLCD\\test\\Pain Drain\\libraries\\lvgl\\src\\core\\../draw/lv_draw_la
 2048              		.file 18 "..\\..\\..\\arduinoLCD\\test\\Pain Drain\\libraries\\lvgl\\src\\core\\../draw/lv_draw_im
 2049              		.file 19 "..\\..\\..\\arduinoLCD\\test\\Pain Drain\\libraries\\lvgl\\src\\core\\../draw/lv_draw_li
 2050              		.file 20 "..\\..\\..\\arduinoLCD\\test\\Pain Drain\\libraries\\lvgl\\src\\core\\../draw/lv_draw_ar
ARM GAS  C:\Users\haske\AppData\Local\Temp\cc4f9rxb.s 			page 58


 2051              		.file 21 "..\\..\\..\\arduinoLCD\\test\\Pain Drain\\libraries\\lvgl\\src\\core\\../draw/lv_draw_la
 2052              		.file 22 "..\\..\\..\\arduinoLCD\\test\\Pain Drain\\libraries\\lvgl\\src\\core\\../draw/lv_draw.h"
 2053              		.file 23 "..\\..\\..\\arduinoLCD\\test\\Pain Drain\\libraries\\lvgl\\src\\core\\lv_obj_draw.h"
 2054              		.file 24 "..\\..\\..\\arduinoLCD\\test\\Pain Drain\\libraries\\lvgl\\src\\core\\lv_obj_class.h"
 2055              		.file 25 "c:\\projects\\paindrain\\arduinolcd\\test\\pain drain\\libraries\\lvgl\\src\\misc\\lv_ll
 2056              		.file 26 "..\\..\\..\\arduinoLCD\\test\\Pain Drain\\libraries\\lvgl\\src\\core\\lv_group.h"
 2057              		.file 27 "..\\..\\..\\arduinoLCD\\test\\Pain Drain\\libraries\\lvgl\\src\\core\\lv_obj_scroll.h"
 2058              		.file 28 "..\\..\\..\\arduinoLCD\\test\\Pain Drain\\libraries\\lvgl\\src\\core\\lv_obj_style.h"
 2059              		.file 29 "..\\..\\..\\arduinoLCD\\test\\Pain Drain\\libraries\\lvgl\\src\\core\\lv_event.h"
 2060              		.file 30 "c:\\projects\\paindrain\\arduinolcd\\test\\pain drain\\libraries\\lvgl\\src\\misc\\lv_me
 2061              		.file 31 "c:\\projects\\paindrain\\arduinolcd\\test\\pain drain\\libraries\\lvgl\\src\\core\\lv_ob
 2062              		.section	.debug_info,"",%progbits
 2063              	.Ldebug_info0:
 2064 0000 D63F0000 		.4byte	0x3fd6
 2065 0004 0400     		.2byte	0x4
 2066 0006 00000000 		.4byte	.Ldebug_abbrev0
 2067 000a 04       		.byte	0x4
 2068 000b 01       		.uleb128 0x1
 2069 000c F2070000 		.4byte	.LASF518
 2070 0010 0C       		.byte	0xc
 2071 0011 CA110000 		.4byte	.LASF519
 2072 0015 941D0000 		.4byte	.LASF520
 2073 0019 00000000 		.4byte	.Ldebug_ranges0+0
 2074 001d 00000000 		.4byte	0
 2075 0021 00000000 		.4byte	.Ldebug_line0
 2076 0025 02       		.uleb128 0x2
 2077 0026 92170000 		.4byte	.LASF0
 2078 002a 04       		.byte	0x4
 2079 002b 1B       		.byte	0x1b
 2080 002c 30000000 		.4byte	0x30
 2081 0030 03       		.uleb128 0x3
 2082 0031 01       		.byte	0x1
 2083 0032 06       		.byte	0x6
 2084 0033 E5050000 		.4byte	.LASF2
 2085 0037 02       		.uleb128 0x2
 2086 0038 4C030000 		.4byte	.LASF1
 2087 003c 04       		.byte	0x4
 2088 003d 1D       		.byte	0x1d
 2089 003e 42000000 		.4byte	0x42
 2090 0042 03       		.uleb128 0x3
 2091 0043 01       		.byte	0x1
 2092 0044 08       		.byte	0x8
 2093 0045 5F060000 		.4byte	.LASF3
 2094 0049 02       		.uleb128 0x2
 2095 004a CF190000 		.4byte	.LASF4
 2096 004e 04       		.byte	0x4
 2097 004f 29       		.byte	0x29
 2098 0050 54000000 		.4byte	0x54
 2099 0054 03       		.uleb128 0x3
 2100 0055 02       		.byte	0x2
 2101 0056 05       		.byte	0x5
 2102 0057 EF1B0000 		.4byte	.LASF5
 2103 005b 02       		.uleb128 0x2
 2104 005c EB090000 		.4byte	.LASF6
 2105 0060 04       		.byte	0x4
 2106 0061 2B       		.byte	0x2b
 2107 0062 66000000 		.4byte	0x66
ARM GAS  C:\Users\haske\AppData\Local\Temp\cc4f9rxb.s 			page 59


 2108 0066 03       		.uleb128 0x3
 2109 0067 02       		.byte	0x2
 2110 0068 07       		.byte	0x7
 2111 0069 611F0000 		.4byte	.LASF7
 2112 006d 02       		.uleb128 0x2
 2113 006e 39200000 		.4byte	.LASF8
 2114 0072 04       		.byte	0x4
 2115 0073 3F       		.byte	0x3f
 2116 0074 78000000 		.4byte	0x78
 2117 0078 03       		.uleb128 0x3
 2118 0079 04       		.byte	0x4
 2119 007a 05       		.byte	0x5
 2120 007b 31040000 		.4byte	.LASF9
 2121 007f 02       		.uleb128 0x2
 2122 0080 DC100000 		.4byte	.LASF10
 2123 0084 04       		.byte	0x4
 2124 0085 41       		.byte	0x41
 2125 0086 8A000000 		.4byte	0x8a
 2126 008a 03       		.uleb128 0x3
 2127 008b 04       		.byte	0x4
 2128 008c 07       		.byte	0x7
 2129 008d 590E0000 		.4byte	.LASF11
 2130 0091 03       		.uleb128 0x3
 2131 0092 08       		.byte	0x8
 2132 0093 05       		.byte	0x5
 2133 0094 37110000 		.4byte	.LASF12
 2134 0098 03       		.uleb128 0x3
 2135 0099 08       		.byte	0x8
 2136 009a 07       		.byte	0x7
 2137 009b CC170000 		.4byte	.LASF13
 2138 009f 04       		.uleb128 0x4
 2139 00a0 04       		.byte	0x4
 2140 00a1 05       		.byte	0x5
 2141 00a2 696E7400 		.ascii	"int\000"
 2142 00a6 03       		.uleb128 0x3
 2143 00a7 04       		.byte	0x4
 2144 00a8 07       		.byte	0x7
 2145 00a9 6F130000 		.4byte	.LASF14
 2146 00ad 02       		.uleb128 0x2
 2147 00ae 09000000 		.4byte	.LASF15
 2148 00b2 05       		.byte	0x5
 2149 00b3 14       		.byte	0x14
 2150 00b4 25000000 		.4byte	0x25
 2151 00b8 02       		.uleb128 0x2
 2152 00b9 F1050000 		.4byte	.LASF16
 2153 00bd 05       		.byte	0x5
 2154 00be 18       		.byte	0x18
 2155 00bf 37000000 		.4byte	0x37
 2156 00c3 02       		.uleb128 0x2
 2157 00c4 901C0000 		.4byte	.LASF17
 2158 00c8 05       		.byte	0x5
 2159 00c9 20       		.byte	0x20
 2160 00ca 49000000 		.4byte	0x49
 2161 00ce 02       		.uleb128 0x2
 2162 00cf 78180000 		.4byte	.LASF18
 2163 00d3 05       		.byte	0x5
 2164 00d4 24       		.byte	0x24
ARM GAS  C:\Users\haske\AppData\Local\Temp\cc4f9rxb.s 			page 60


 2165 00d5 5B000000 		.4byte	0x5b
 2166 00d9 02       		.uleb128 0x2
 2167 00da C3000000 		.4byte	.LASF19
 2168 00de 05       		.byte	0x5
 2169 00df 2C       		.byte	0x2c
 2170 00e0 6D000000 		.4byte	0x6d
 2171 00e4 02       		.uleb128 0x2
 2172 00e5 DF1E0000 		.4byte	.LASF20
 2173 00e9 05       		.byte	0x5
 2174 00ea 30       		.byte	0x30
 2175 00eb 7F000000 		.4byte	0x7f
 2176 00ef 02       		.uleb128 0x2
 2177 00f0 2A000000 		.4byte	.LASF21
 2178 00f4 06       		.byte	0x6
 2179 00f5 D8       		.byte	0xd8
 2180 00f6 A6000000 		.4byte	0xa6
 2181 00fa 03       		.uleb128 0x3
 2182 00fb 08       		.byte	0x8
 2183 00fc 04       		.byte	0x4
 2184 00fd 5D160000 		.4byte	.LASF22
 2185 0101 02       		.uleb128 0x2
 2186 0102 811F0000 		.4byte	.LASF23
 2187 0106 03       		.byte	0x3
 2188 0107 1B       		.byte	0x1b
 2189 0108 C3000000 		.4byte	0xc3
 2190 010c 05       		.uleb128 0x5
 2191 010d 04       		.byte	0x4
 2192 010e 03       		.byte	0x3
 2193 010f 25       		.byte	0x25
 2194 0110 29010000 		.4byte	0x129
 2195 0114 06       		.uleb128 0x6
 2196 0115 7800     		.ascii	"x\000"
 2197 0117 03       		.byte	0x3
 2198 0118 26       		.byte	0x26
 2199 0119 01010000 		.4byte	0x101
 2200 011d 00       		.byte	0
 2201 011e 06       		.uleb128 0x6
 2202 011f 7900     		.ascii	"y\000"
 2203 0121 03       		.byte	0x3
 2204 0122 27       		.byte	0x27
 2205 0123 01010000 		.4byte	0x101
 2206 0127 02       		.byte	0x2
 2207 0128 00       		.byte	0
 2208 0129 02       		.uleb128 0x2
 2209 012a 35010000 		.4byte	.LASF24
 2210 012e 03       		.byte	0x3
 2211 012f 28       		.byte	0x28
 2212 0130 0C010000 		.4byte	0x10c
 2213 0134 05       		.uleb128 0x5
 2214 0135 08       		.byte	0x8
 2215 0136 03       		.byte	0x3
 2216 0137 2B       		.byte	0x2b
 2217 0138 69010000 		.4byte	0x169
 2218 013c 06       		.uleb128 0x6
 2219 013d 783100   		.ascii	"x1\000"
 2220 0140 03       		.byte	0x3
 2221 0141 2C       		.byte	0x2c
ARM GAS  C:\Users\haske\AppData\Local\Temp\cc4f9rxb.s 			page 61


 2222 0142 01010000 		.4byte	0x101
 2223 0146 00       		.byte	0
 2224 0147 06       		.uleb128 0x6
 2225 0148 793100   		.ascii	"y1\000"
 2226 014b 03       		.byte	0x3
 2227 014c 2D       		.byte	0x2d
 2228 014d 01010000 		.4byte	0x101
 2229 0151 02       		.byte	0x2
 2230 0152 06       		.uleb128 0x6
 2231 0153 783200   		.ascii	"x2\000"
 2232 0156 03       		.byte	0x3
 2233 0157 2E       		.byte	0x2e
 2234 0158 01010000 		.4byte	0x101
 2235 015c 04       		.byte	0x4
 2236 015d 06       		.uleb128 0x6
 2237 015e 793200   		.ascii	"y2\000"
 2238 0161 03       		.byte	0x3
 2239 0162 2F       		.byte	0x2f
 2240 0163 01010000 		.4byte	0x101
 2241 0167 06       		.byte	0x6
 2242 0168 00       		.byte	0
 2243 0169 02       		.uleb128 0x2
 2244 016a 4D0C0000 		.4byte	.LASF25
 2245 016e 03       		.byte	0x3
 2246 016f 30       		.byte	0x30
 2247 0170 34010000 		.4byte	0x134
 2248 0174 02       		.uleb128 0x2
 2249 0175 CA0A0000 		.4byte	.LASF26
 2250 0179 03       		.byte	0x3
 2251 017a 59       		.byte	0x59
 2252 017b B8000000 		.4byte	0xb8
 2253 017f 05       		.uleb128 0x5
 2254 0180 10       		.byte	0x10
 2255 0181 07       		.byte	0x7
 2256 0182 29       		.byte	0x29
 2257 0183 EE010000 		.4byte	0x1ee
 2258 0187 07       		.uleb128 0x7
 2259 0188 350F0000 		.4byte	.LASF27
 2260 018c 07       		.byte	0x7
 2261 018d 2B       		.byte	0x2b
 2262 018e 76020000 		.4byte	0x276
 2263 0192 00       		.byte	0
 2264 0193 07       		.uleb128 0x7
 2265 0194 31000000 		.4byte	.LASF28
 2266 0198 07       		.byte	0x7
 2267 0199 2C       		.byte	0x2c
 2268 019a CE000000 		.4byte	0xce
 2269 019e 04       		.byte	0x4
 2270 019f 07       		.uleb128 0x7
 2271 01a0 E91B0000 		.4byte	.LASF29
 2272 01a4 07       		.byte	0x7
 2273 01a5 2D       		.byte	0x2d
 2274 01a6 CE000000 		.4byte	0xce
 2275 01aa 06       		.byte	0x6
 2276 01ab 07       		.uleb128 0x7
 2277 01ac BE1B0000 		.4byte	.LASF30
 2278 01b0 07       		.byte	0x7
ARM GAS  C:\Users\haske\AppData\Local\Temp\cc4f9rxb.s 			page 62


 2279 01b1 2E       		.byte	0x2e
 2280 01b2 CE000000 		.4byte	0xce
 2281 01b6 08       		.byte	0x8
 2282 01b7 07       		.uleb128 0x7
 2283 01b8 73070000 		.4byte	.LASF31
 2284 01bc 07       		.byte	0x7
 2285 01bd 2F       		.byte	0x2f
 2286 01be C3000000 		.4byte	0xc3
 2287 01c2 0A       		.byte	0xa
 2288 01c3 07       		.uleb128 0x7
 2289 01c4 79070000 		.4byte	.LASF32
 2290 01c8 07       		.byte	0x7
 2291 01c9 30       		.byte	0x30
 2292 01ca C3000000 		.4byte	0xc3
 2293 01ce 0C       		.byte	0xc
 2294 01cf 08       		.uleb128 0x8
 2295 01d0 62707000 		.ascii	"bpp\000"
 2296 01d4 07       		.byte	0x7
 2297 01d5 31       		.byte	0x31
 2298 01d6 B8000000 		.4byte	0xb8
 2299 01da 01       		.byte	0x1
 2300 01db 04       		.byte	0x4
 2301 01dc 04       		.byte	0x4
 2302 01dd 0E       		.byte	0xe
 2303 01de 09       		.uleb128 0x9
 2304 01df 03220000 		.4byte	.LASF33
 2305 01e3 07       		.byte	0x7
 2306 01e4 32       		.byte	0x32
 2307 01e5 B8000000 		.4byte	0xb8
 2308 01e9 01       		.byte	0x1
 2309 01ea 01       		.byte	0x1
 2310 01eb 03       		.byte	0x3
 2311 01ec 0E       		.byte	0xe
 2312 01ed 00       		.byte	0
 2313 01ee 0A       		.uleb128 0xa
 2314 01ef D1100000 		.4byte	.LASF192
 2315 01f3 1C       		.byte	0x1c
 2316 01f4 07       		.byte	0x7
 2317 01f5 40       		.byte	0x40
 2318 01f6 76020000 		.4byte	0x276
 2319 01fa 07       		.uleb128 0x7
 2320 01fb 2B200000 		.4byte	.LASF34
 2321 01ff 07       		.byte	0x7
 2322 0200 42       		.byte	0x42
 2323 0201 B7020000 		.4byte	0x2b7
 2324 0205 00       		.byte	0
 2325 0206 07       		.uleb128 0x7
 2326 0207 25060000 		.4byte	.LASF35
 2327 020b 07       		.byte	0x7
 2328 020c 45       		.byte	0x45
 2329 020d DC020000 		.4byte	0x2dc
 2330 0211 04       		.byte	0x4
 2331 0212 07       		.uleb128 0x7
 2332 0213 50010000 		.4byte	.LASF36
 2333 0217 07       		.byte	0x7
 2334 0218 48       		.byte	0x48
 2335 0219 01010000 		.4byte	0x101
ARM GAS  C:\Users\haske\AppData\Local\Temp\cc4f9rxb.s 			page 63


 2336 021d 08       		.byte	0x8
 2337 021e 07       		.uleb128 0x7
 2338 021f F91B0000 		.4byte	.LASF37
 2339 0223 07       		.byte	0x7
 2340 0224 49       		.byte	0x49
 2341 0225 01010000 		.4byte	0x101
 2342 0229 0A       		.byte	0xa
 2343 022a 09       		.uleb128 0x9
 2344 022b BA160000 		.4byte	.LASF38
 2345 022f 07       		.byte	0x7
 2346 0230 4A       		.byte	0x4a
 2347 0231 B8000000 		.4byte	0xb8
 2348 0235 01       		.byte	0x1
 2349 0236 02       		.byte	0x2
 2350 0237 06       		.byte	0x6
 2351 0238 0C       		.byte	0xc
 2352 0239 07       		.uleb128 0x7
 2353 023a 24090000 		.4byte	.LASF39
 2354 023e 07       		.byte	0x7
 2355 023f 4C       		.byte	0x4c
 2356 0240 AD000000 		.4byte	0xad
 2357 0244 0D       		.byte	0xd
 2358 0245 07       		.uleb128 0x7
 2359 0246 84120000 		.4byte	.LASF40
 2360 024a 07       		.byte	0x7
 2361 024b 4D       		.byte	0x4d
 2362 024c AD000000 		.4byte	0xad
 2363 0250 0E       		.byte	0xe
 2364 0251 06       		.uleb128 0x6
 2365 0252 64736300 		.ascii	"dsc\000"
 2366 0256 07       		.byte	0x7
 2367 0257 4F       		.byte	0x4f
 2368 0258 E2020000 		.4byte	0x2e2
 2369 025c 10       		.byte	0x10
 2370 025d 07       		.uleb128 0x7
 2371 025e BA0B0000 		.4byte	.LASF41
 2372 0262 07       		.byte	0x7
 2373 0263 50       		.byte	0x50
 2374 0264 76020000 		.4byte	0x276
 2375 0268 14       		.byte	0x14
 2376 0269 07       		.uleb128 0x7
 2377 026a B91F0000 		.4byte	.LASF42
 2378 026e 07       		.byte	0x7
 2379 026f 52       		.byte	0x52
 2380 0270 E9020000 		.4byte	0x2e9
 2381 0274 18       		.byte	0x18
 2382 0275 00       		.byte	0
 2383 0276 0B       		.uleb128 0xb
 2384 0277 04       		.byte	0x4
 2385 0278 7C020000 		.4byte	0x27c
 2386 027c 0C       		.uleb128 0xc
 2387 027d EE010000 		.4byte	0x1ee
 2388 0281 02       		.uleb128 0x2
 2389 0282 47150000 		.4byte	.LASF43
 2390 0286 07       		.byte	0x7
 2391 0287 33       		.byte	0x33
 2392 0288 7F010000 		.4byte	0x17f
ARM GAS  C:\Users\haske\AppData\Local\Temp\cc4f9rxb.s 			page 64


 2393 028c 0D       		.uleb128 0xd
 2394 028d AA020000 		.4byte	0x2aa
 2395 0291 AA020000 		.4byte	0x2aa
 2396 0295 0E       		.uleb128 0xe
 2397 0296 76020000 		.4byte	0x276
 2398 029a 0E       		.uleb128 0xe
 2399 029b B1020000 		.4byte	0x2b1
 2400 029f 0E       		.uleb128 0xe
 2401 02a0 E4000000 		.4byte	0xe4
 2402 02a4 0E       		.uleb128 0xe
 2403 02a5 E4000000 		.4byte	0xe4
 2404 02a9 00       		.byte	0
 2405 02aa 03       		.uleb128 0x3
 2406 02ab 01       		.byte	0x1
 2407 02ac 02       		.byte	0x2
 2408 02ad AA070000 		.4byte	.LASF44
 2409 02b1 0B       		.uleb128 0xb
 2410 02b2 04       		.byte	0x4
 2411 02b3 81020000 		.4byte	0x281
 2412 02b7 0B       		.uleb128 0xb
 2413 02b8 04       		.byte	0x4
 2414 02b9 8C020000 		.4byte	0x28c
 2415 02bd 0D       		.uleb128 0xd
 2416 02be D1020000 		.4byte	0x2d1
 2417 02c2 D1020000 		.4byte	0x2d1
 2418 02c6 0E       		.uleb128 0xe
 2419 02c7 76020000 		.4byte	0x276
 2420 02cb 0E       		.uleb128 0xe
 2421 02cc E4000000 		.4byte	0xe4
 2422 02d0 00       		.byte	0
 2423 02d1 0B       		.uleb128 0xb
 2424 02d2 04       		.byte	0x4
 2425 02d3 D7020000 		.4byte	0x2d7
 2426 02d7 0C       		.uleb128 0xc
 2427 02d8 B8000000 		.4byte	0xb8
 2428 02dc 0B       		.uleb128 0xb
 2429 02dd 04       		.byte	0x4
 2430 02de BD020000 		.4byte	0x2bd
 2431 02e2 0B       		.uleb128 0xb
 2432 02e3 04       		.byte	0x4
 2433 02e4 E8020000 		.4byte	0x2e8
 2434 02e8 0F       		.uleb128 0xf
 2435 02e9 10       		.uleb128 0x10
 2436 02ea 04       		.byte	0x4
 2437 02eb 02       		.uleb128 0x2
 2438 02ec 2E1F0000 		.4byte	.LASF45
 2439 02f0 07       		.byte	0x7
 2440 02f1 54       		.byte	0x54
 2441 02f2 EE010000 		.4byte	0x1ee
 2442 02f6 02       		.uleb128 0x2
 2443 02f7 3A160000 		.4byte	.LASF46
 2444 02fb 08       		.byte	0x8
 2445 02fc 2F       		.byte	0x2f
 2446 02fd B8000000 		.4byte	0xb8
 2447 0301 03       		.uleb128 0x3
 2448 0302 04       		.byte	0x4
 2449 0303 07       		.byte	0x7
ARM GAS  C:\Users\haske\AppData\Local\Temp\cc4f9rxb.s 			page 65


 2450 0304 37000000 		.4byte	.LASF47
 2451 0308 0B       		.uleb128 0xb
 2452 0309 04       		.byte	0x4
 2453 030a 0E030000 		.4byte	0x30e
 2454 030e 03       		.uleb128 0x3
 2455 030f 01       		.byte	0x1
 2456 0310 08       		.byte	0x8
 2457 0311 F1080000 		.4byte	.LASF48
 2458 0315 11       		.uleb128 0x11
 2459 0316 01       		.byte	0x1
 2460 0317 42000000 		.4byte	0x42
 2461 031b 09       		.byte	0x9
 2462 031c 29       		.byte	0x29
 2463 031d 70030000 		.4byte	0x370
 2464 0321 12       		.uleb128 0x12
 2465 0322 B2120000 		.4byte	.LASF49
 2466 0326 00       		.byte	0
 2467 0327 12       		.uleb128 0x12
 2468 0328 770F0000 		.4byte	.LASF50
 2469 032c 00       		.byte	0
 2470 032d 12       		.uleb128 0x12
 2471 032e 6D190000 		.4byte	.LASF51
 2472 0332 19       		.byte	0x19
 2473 0333 12       		.uleb128 0x12
 2474 0334 541A0000 		.4byte	.LASF52
 2475 0338 33       		.byte	0x33
 2476 0339 12       		.uleb128 0x12
 2477 033a 571B0000 		.4byte	.LASF53
 2478 033e 4C       		.byte	0x4c
 2479 033f 12       		.uleb128 0x12
 2480 0340 861C0000 		.4byte	.LASF54
 2481 0344 66       		.byte	0x66
 2482 0345 12       		.uleb128 0x12
 2483 0346 781D0000 		.4byte	.LASF55
 2484 034a 7F       		.byte	0x7f
 2485 034b 12       		.uleb128 0x12
 2486 034c 851E0000 		.4byte	.LASF56
 2487 0350 99       		.byte	0x99
 2488 0351 12       		.uleb128 0x12
 2489 0352 571F0000 		.4byte	.LASF57
 2490 0356 B2       		.byte	0xb2
 2491 0357 12       		.uleb128 0x12
 2492 0358 00210000 		.4byte	.LASF58
 2493 035c CC       		.byte	0xcc
 2494 035d 12       		.uleb128 0x12
 2495 035e 27220000 		.4byte	.LASF59
 2496 0362 E5       		.byte	0xe5
 2497 0363 12       		.uleb128 0x12
 2498 0364 09160000 		.4byte	.LASF60
 2499 0368 FF       		.byte	0xff
 2500 0369 12       		.uleb128 0x12
 2501 036a E6160000 		.4byte	.LASF61
 2502 036e FF       		.byte	0xff
 2503 036f 00       		.byte	0
 2504 0370 05       		.uleb128 0x5
 2505 0371 02       		.byte	0x2
 2506 0372 09       		.byte	0x9
ARM GAS  C:\Users\haske\AppData\Local\Temp\cc4f9rxb.s 			page 66


 2507 0373 D1       		.byte	0xd1
 2508 0374 A6030000 		.4byte	0x3a6
 2509 0378 09       		.uleb128 0x9
 2510 0379 40060000 		.4byte	.LASF62
 2511 037d 09       		.byte	0x9
 2512 037e D3       		.byte	0xd3
 2513 037f CE000000 		.4byte	0xce
 2514 0383 02       		.byte	0x2
 2515 0384 05       		.byte	0x5
 2516 0385 0B       		.byte	0xb
 2517 0386 00       		.byte	0
 2518 0387 09       		.uleb128 0x9
 2519 0388 281F0000 		.4byte	.LASF63
 2520 038c 09       		.byte	0x9
 2521 038d D4       		.byte	0xd4
 2522 038e CE000000 		.4byte	0xce
 2523 0392 02       		.byte	0x2
 2524 0393 06       		.byte	0x6
 2525 0394 05       		.byte	0x5
 2526 0395 00       		.byte	0
 2527 0396 08       		.uleb128 0x8
 2528 0397 72656400 		.ascii	"red\000"
 2529 039b 09       		.byte	0x9
 2530 039c D5       		.byte	0xd5
 2531 039d CE000000 		.4byte	0xce
 2532 03a1 02       		.byte	0x2
 2533 03a2 05       		.byte	0x5
 2534 03a3 00       		.byte	0
 2535 03a4 00       		.byte	0
 2536 03a5 00       		.byte	0
 2537 03a6 13       		.uleb128 0x13
 2538 03a7 02       		.byte	0x2
 2539 03a8 09       		.byte	0x9
 2540 03a9 D0       		.byte	0xd0
 2541 03aa C4030000 		.4byte	0x3c4
 2542 03ae 14       		.uleb128 0x14
 2543 03af 636800   		.ascii	"ch\000"
 2544 03b2 09       		.byte	0x9
 2545 03b3 DC       		.byte	0xdc
 2546 03b4 70030000 		.4byte	0x370
 2547 03b8 15       		.uleb128 0x15
 2548 03b9 3B1A0000 		.4byte	.LASF64
 2549 03bd 09       		.byte	0x9
 2550 03be DD       		.byte	0xdd
 2551 03bf CE000000 		.4byte	0xce
 2552 03c3 00       		.byte	0
 2553 03c4 02       		.uleb128 0x2
 2554 03c5 DC1B0000 		.4byte	.LASF65
 2555 03c9 09       		.byte	0x9
 2556 03ca DE       		.byte	0xde
 2557 03cb A6030000 		.4byte	0x3a6
 2558 03cf 02       		.uleb128 0x2
 2559 03d0 C0180000 		.4byte	.LASF66
 2560 03d4 09       		.byte	0x9
 2561 03d5 EB       		.byte	0xeb
 2562 03d6 C4030000 		.4byte	0x3c4
 2563 03da 02       		.uleb128 0x2
ARM GAS  C:\Users\haske\AppData\Local\Temp\cc4f9rxb.s 			page 67


 2564 03db A1000000 		.4byte	.LASF67
 2565 03df 09       		.byte	0x9
 2566 03e0 F5       		.byte	0xf5
 2567 03e1 B8000000 		.4byte	0xb8
 2568 03e5 02       		.uleb128 0x2
 2569 03e6 19190000 		.4byte	.LASF68
 2570 03ea 0A       		.byte	0xa
 2571 03eb 30       		.byte	0x30
 2572 03ec B8000000 		.4byte	0xb8
 2573 03f0 02       		.uleb128 0x2
 2574 03f1 2E120000 		.4byte	.LASF69
 2575 03f5 0A       		.byte	0xa
 2576 03f6 42       		.byte	0x42
 2577 03f7 B8000000 		.4byte	0xb8
 2578 03fb 02       		.uleb128 0x2
 2579 03fc 7F070000 		.4byte	.LASF70
 2580 0400 0B       		.byte	0xb
 2581 0401 2A       		.byte	0x2a
 2582 0402 B8000000 		.4byte	0xb8
 2583 0406 02       		.uleb128 0x2
 2584 0407 5C010000 		.4byte	.LASF71
 2585 040b 0C       		.byte	0xc
 2586 040c 5E       		.byte	0x5e
 2587 040d B8000000 		.4byte	0xb8
 2588 0411 02       		.uleb128 0x2
 2589 0412 1B110000 		.4byte	.LASF72
 2590 0416 0C       		.byte	0xc
 2591 0417 6A       		.byte	0x6a
 2592 0418 B8000000 		.4byte	0xb8
 2593 041c 02       		.uleb128 0x2
 2594 041d F71A0000 		.4byte	.LASF73
 2595 0421 0C       		.byte	0xc
 2596 0422 79       		.byte	0x79
 2597 0423 B8000000 		.4byte	0xb8
 2598 0427 11       		.uleb128 0x11
 2599 0428 01       		.byte	0x1
 2600 0429 42000000 		.4byte	0x42
 2601 042d 0C       		.byte	0xc
 2602 042e 7E       		.byte	0x7e
 2603 042f 46040000 		.4byte	0x446
 2604 0433 12       		.uleb128 0x12
 2605 0434 2A1D0000 		.4byte	.LASF74
 2606 0438 00       		.byte	0
 2607 0439 12       		.uleb128 0x12
 2608 043a C3080000 		.4byte	.LASF75
 2609 043e 01       		.byte	0x1
 2610 043f 12       		.uleb128 0x12
 2611 0440 811A0000 		.4byte	.LASF76
 2612 0444 02       		.byte	0x2
 2613 0445 00       		.byte	0
 2614 0446 02       		.uleb128 0x2
 2615 0447 A0200000 		.4byte	.LASF77
 2616 044b 0C       		.byte	0xc
 2617 044c 84       		.byte	0x84
 2618 044d B8000000 		.4byte	0xb8
 2619 0451 02       		.uleb128 0x2
 2620 0452 6F160000 		.4byte	.LASF78
ARM GAS  C:\Users\haske\AppData\Local\Temp\cc4f9rxb.s 			page 68


 2621 0456 0C       		.byte	0xc
 2622 0457 90       		.byte	0x90
 2623 0458 B8000000 		.4byte	0xb8
 2624 045c 05       		.uleb128 0x5
 2625 045d 04       		.byte	0x4
 2626 045e 0C       		.byte	0xc
 2627 045f 95       		.byte	0x95
 2628 0460 7D040000 		.4byte	0x47d
 2629 0464 07       		.uleb128 0x7
 2630 0465 5E1A0000 		.4byte	.LASF79
 2631 0469 0C       		.byte	0xc
 2632 046a 96       		.byte	0x96
 2633 046b CF030000 		.4byte	0x3cf
 2634 046f 00       		.byte	0
 2635 0470 07       		.uleb128 0x7
 2636 0471 081B0000 		.4byte	.LASF80
 2637 0475 0C       		.byte	0xc
 2638 0476 97       		.byte	0x97
 2639 0477 B8000000 		.4byte	0xb8
 2640 047b 02       		.byte	0x2
 2641 047c 00       		.byte	0
 2642 047d 02       		.uleb128 0x2
 2643 047e 511E0000 		.4byte	.LASF81
 2644 0482 0C       		.byte	0xc
 2645 0483 98       		.byte	0x98
 2646 0484 5C040000 		.4byte	0x45c
 2647 0488 05       		.uleb128 0x5
 2648 0489 0A       		.byte	0xa
 2649 048a 0C       		.byte	0xc
 2650 048b 9B       		.byte	0x9b
 2651 048c C7040000 		.4byte	0x4c7
 2652 0490 07       		.uleb128 0x7
 2653 0491 911A0000 		.4byte	.LASF82
 2654 0495 0C       		.byte	0xc
 2655 0496 9C       		.byte	0x9c
 2656 0497 C7040000 		.4byte	0x4c7
 2657 049b 00       		.byte	0
 2658 049c 07       		.uleb128 0x7
 2659 049d DF090000 		.4byte	.LASF83
 2660 04a1 0C       		.byte	0xc
 2661 04a2 9D       		.byte	0x9d
 2662 04a3 B8000000 		.4byte	0xb8
 2663 04a7 08       		.byte	0x8
 2664 04a8 08       		.uleb128 0x8
 2665 04a9 64697200 		.ascii	"dir\000"
 2666 04ad 0C       		.byte	0xc
 2667 04ae 9E       		.byte	0x9e
 2668 04af 46040000 		.4byte	0x446
 2669 04b3 01       		.byte	0x1
 2670 04b4 03       		.byte	0x3
 2671 04b5 05       		.byte	0x5
 2672 04b6 09       		.byte	0x9
 2673 04b7 09       		.uleb128 0x9
 2674 04b8 501F0000 		.4byte	.LASF84
 2675 04bc 0C       		.byte	0xc
 2676 04bd A0       		.byte	0xa0
 2677 04be 51040000 		.4byte	0x451
ARM GAS  C:\Users\haske\AppData\Local\Temp\cc4f9rxb.s 			page 69


 2678 04c2 01       		.byte	0x1
 2679 04c3 03       		.byte	0x3
 2680 04c4 02       		.byte	0x2
 2681 04c5 09       		.byte	0x9
 2682 04c6 00       		.byte	0
 2683 04c7 16       		.uleb128 0x16
 2684 04c8 7D040000 		.4byte	0x47d
 2685 04cc D7040000 		.4byte	0x4d7
 2686 04d0 17       		.uleb128 0x17
 2687 04d1 01030000 		.4byte	0x301
 2688 04d5 01       		.byte	0x1
 2689 04d6 00       		.byte	0
 2690 04d7 02       		.uleb128 0x2
 2691 04d8 AB210000 		.4byte	.LASF85
 2692 04dc 0C       		.byte	0xc
 2693 04dd A2       		.byte	0xa2
 2694 04de 88040000 		.4byte	0x488
 2695 04e2 13       		.uleb128 0x13
 2696 04e3 04       		.byte	0x4
 2697 04e4 0C       		.byte	0xc
 2698 04e5 A7       		.byte	0xa7
 2699 04e6 0C050000 		.4byte	0x50c
 2700 04ea 14       		.uleb128 0x14
 2701 04eb 6E756D00 		.ascii	"num\000"
 2702 04ef 0C       		.byte	0xc
 2703 04f0 A8       		.byte	0xa8
 2704 04f1 D9000000 		.4byte	0xd9
 2705 04f5 14       		.uleb128 0x14
 2706 04f6 70747200 		.ascii	"ptr\000"
 2707 04fa 0C       		.byte	0xc
 2708 04fb A9       		.byte	0xa9
 2709 04fc E2020000 		.4byte	0x2e2
 2710 0500 15       		.uleb128 0x15
 2711 0501 5E1A0000 		.4byte	.LASF79
 2712 0505 0C       		.byte	0xc
 2713 0506 AA       		.byte	0xaa
 2714 0507 CF030000 		.4byte	0x3cf
 2715 050b 00       		.byte	0
 2716 050c 02       		.uleb128 0x2
 2717 050d F9130000 		.4byte	.LASF86
 2718 0511 0C       		.byte	0xc
 2719 0512 AB       		.byte	0xab
 2720 0513 E2040000 		.4byte	0x4e2
 2721 0517 11       		.uleb128 0x11
 2722 0518 02       		.byte	0x2
 2723 0519 66000000 		.4byte	0x66
 2724 051d 0C       		.byte	0xc
 2725 051e B2       		.byte	0xb2
 2726 051f 3C070000 		.4byte	0x73c
 2727 0523 12       		.uleb128 0x12
 2728 0524 040D0000 		.4byte	.LASF87
 2729 0528 00       		.byte	0
 2730 0529 12       		.uleb128 0x12
 2731 052a D7180000 		.4byte	.LASF88
 2732 052e 01       		.byte	0x1
 2733 052f 12       		.uleb128 0x12
 2734 0530 06190000 		.4byte	.LASF89
ARM GAS  C:\Users\haske\AppData\Local\Temp\cc4f9rxb.s 			page 70


 2735 0534 02       		.byte	0x2
 2736 0535 12       		.uleb128 0x12
 2737 0536 89030000 		.4byte	.LASF90
 2738 053a 03       		.byte	0x3
 2739 053b 12       		.uleb128 0x12
 2740 053c D1010000 		.4byte	.LASF91
 2741 0540 04       		.byte	0x4
 2742 0541 12       		.uleb128 0x12
 2743 0542 F21D0000 		.4byte	.LASF92
 2744 0546 05       		.byte	0x5
 2745 0547 12       		.uleb128 0x12
 2746 0548 431B0000 		.4byte	.LASF93
 2747 054c 06       		.byte	0x6
 2748 054d 12       		.uleb128 0x12
 2749 054e 7E100000 		.4byte	.LASF94
 2750 0552 07       		.byte	0x7
 2751 0553 12       		.uleb128 0x12
 2752 0554 641E0000 		.4byte	.LASF95
 2753 0558 08       		.byte	0x8
 2754 0559 12       		.uleb128 0x12
 2755 055a 50060000 		.4byte	.LASF96
 2756 055e 09       		.byte	0x9
 2757 055f 12       		.uleb128 0x12
 2758 0560 37150000 		.4byte	.LASF97
 2759 0564 0A       		.byte	0xa
 2760 0565 12       		.uleb128 0x12
 2761 0566 6A030000 		.4byte	.LASF98
 2762 056a 0B       		.byte	0xb
 2763 056b 12       		.uleb128 0x12
 2764 056c D81C0000 		.4byte	.LASF99
 2765 0570 10       		.byte	0x10
 2766 0571 12       		.uleb128 0x12
 2767 0572 CF0D0000 		.4byte	.LASF100
 2768 0576 11       		.byte	0x11
 2769 0577 12       		.uleb128 0x12
 2770 0578 FE0F0000 		.4byte	.LASF101
 2771 057c 12       		.byte	0x12
 2772 057d 12       		.uleb128 0x12
 2773 057e 11040000 		.4byte	.LASF102
 2774 0582 13       		.byte	0x13
 2775 0583 12       		.uleb128 0x12
 2776 0584 800F0000 		.4byte	.LASF103
 2777 0588 14       		.byte	0x14
 2778 0589 12       		.uleb128 0x12
 2779 058a EC020000 		.4byte	.LASF104
 2780 058e 15       		.byte	0x15
 2781 058f 12       		.uleb128 0x12
 2782 0590 90090000 		.4byte	.LASF105
 2783 0594 16       		.byte	0x16
 2784 0595 12       		.uleb128 0x12
 2785 0596 BA150000 		.4byte	.LASF106
 2786 059a 17       		.byte	0x17
 2787 059b 12       		.uleb128 0x12
 2788 059c 480A0000 		.4byte	.LASF107
 2789 05a0 20       		.byte	0x20
 2790 05a1 12       		.uleb128 0x12
 2791 05a2 ED0D0000 		.4byte	.LASF108
ARM GAS  C:\Users\haske\AppData\Local\Temp\cc4f9rxb.s 			page 71


 2792 05a6 21       		.byte	0x21
 2793 05a7 12       		.uleb128 0x12
 2794 05a8 A71B0000 		.4byte	.LASF109
 2795 05ac 22       		.byte	0x22
 2796 05ad 12       		.uleb128 0x12
 2797 05ae 10060000 		.4byte	.LASF110
 2798 05b2 23       		.byte	0x23
 2799 05b3 12       		.uleb128 0x12
 2800 05b4 02020000 		.4byte	.LASF111
 2801 05b8 24       		.byte	0x24
 2802 05b9 12       		.uleb128 0x12
 2803 05ba FC170000 		.4byte	.LASF112
 2804 05be 25       		.byte	0x25
 2805 05bf 12       		.uleb128 0x12
 2806 05c0 E0210000 		.4byte	.LASF113
 2807 05c4 26       		.byte	0x26
 2808 05c5 12       		.uleb128 0x12
 2809 05c6 28030000 		.4byte	.LASF114
 2810 05ca 27       		.byte	0x27
 2811 05cb 12       		.uleb128 0x12
 2812 05cc 77190000 		.4byte	.LASF115
 2813 05d0 28       		.byte	0x28
 2814 05d1 12       		.uleb128 0x12
 2815 05d2 501D0000 		.4byte	.LASF116
 2816 05d6 29       		.byte	0x29
 2817 05d7 12       		.uleb128 0x12
 2818 05d8 9C030000 		.4byte	.LASF117
 2819 05dc 2A       		.byte	0x2a
 2820 05dd 12       		.uleb128 0x12
 2821 05de 63040000 		.4byte	.LASF118
 2822 05e2 2B       		.byte	0x2b
 2823 05e3 12       		.uleb128 0x12
 2824 05e4 F7040000 		.4byte	.LASF119
 2825 05e8 2C       		.byte	0x2c
 2826 05e9 12       		.uleb128 0x12
 2827 05ea 73170000 		.4byte	.LASF120
 2828 05ee 30       		.byte	0x30
 2829 05ef 12       		.uleb128 0x12
 2830 05f0 54050000 		.4byte	.LASF121
 2831 05f4 31       		.byte	0x31
 2832 05f5 12       		.uleb128 0x12
 2833 05f6 BF020000 		.4byte	.LASF122
 2834 05fa 32       		.byte	0x32
 2835 05fb 12       		.uleb128 0x12
 2836 05fc 12180000 		.4byte	.LASF123
 2837 0600 33       		.byte	0x33
 2838 0601 12       		.uleb128 0x12
 2839 0602 2A1E0000 		.4byte	.LASF124
 2840 0606 34       		.byte	0x34
 2841 0607 12       		.uleb128 0x12
 2842 0608 620C0000 		.4byte	.LASF125
 2843 060c 35       		.byte	0x35
 2844 060d 12       		.uleb128 0x12
 2845 060e A21F0000 		.4byte	.LASF126
 2846 0612 36       		.byte	0x36
 2847 0613 12       		.uleb128 0x12
 2848 0614 CA090000 		.4byte	.LASF127
ARM GAS  C:\Users\haske\AppData\Local\Temp\cc4f9rxb.s 			page 72


 2849 0618 37       		.byte	0x37
 2850 0619 12       		.uleb128 0x12
 2851 061a 12220000 		.4byte	.LASF128
 2852 061e 38       		.byte	0x38
 2853 061f 12       		.uleb128 0x12
 2854 0620 92150000 		.4byte	.LASF129
 2855 0624 40       		.byte	0x40
 2856 0625 12       		.uleb128 0x12
 2857 0626 41190000 		.4byte	.LASF130
 2858 062a 41       		.byte	0x41
 2859 062b 12       		.uleb128 0x12
 2860 062c 57190000 		.4byte	.LASF131
 2861 0630 42       		.byte	0x42
 2862 0631 12       		.uleb128 0x12
 2863 0632 E71F0000 		.4byte	.LASF132
 2864 0636 43       		.byte	0x43
 2865 0637 12       		.uleb128 0x12
 2866 0638 BA050000 		.4byte	.LASF133
 2867 063c 44       		.byte	0x44
 2868 063d 12       		.uleb128 0x12
 2869 063e B4030000 		.4byte	.LASF134
 2870 0642 45       		.byte	0x45
 2871 0643 12       		.uleb128 0x12
 2872 0644 210E0000 		.4byte	.LASF135
 2873 0648 46       		.byte	0x46
 2874 0649 12       		.uleb128 0x12
 2875 064a 26070000 		.4byte	.LASF136
 2876 064e 47       		.byte	0x47
 2877 064f 12       		.uleb128 0x12
 2878 0650 5A0A0000 		.4byte	.LASF137
 2879 0654 48       		.byte	0x48
 2880 0655 12       		.uleb128 0x12
 2881 0656 641D0000 		.4byte	.LASF138
 2882 065a 49       		.byte	0x49
 2883 065b 12       		.uleb128 0x12
 2884 065c 4B0B0000 		.4byte	.LASF139
 2885 0660 4A       		.byte	0x4a
 2886 0661 12       		.uleb128 0x12
 2887 0662 59000000 		.4byte	.LASF140
 2888 0666 4B       		.byte	0x4b
 2889 0667 12       		.uleb128 0x12
 2890 0668 6F1E0000 		.4byte	.LASF141
 2891 066c 4C       		.byte	0x4c
 2892 066d 12       		.uleb128 0x12
 2893 066e 630F0000 		.4byte	.LASF142
 2894 0672 4D       		.byte	0x4d
 2895 0673 12       		.uleb128 0x12
 2896 0674 FD0D0000 		.4byte	.LASF143
 2897 0678 4E       		.byte	0x4e
 2898 0679 12       		.uleb128 0x12
 2899 067a 60070000 		.4byte	.LASF144
 2900 067e 50       		.byte	0x50
 2901 067f 12       		.uleb128 0x12
 2902 0680 C0120000 		.4byte	.LASF145
 2903 0684 51       		.byte	0x51
 2904 0685 12       		.uleb128 0x12
 2905 0686 731C0000 		.4byte	.LASF146
ARM GAS  C:\Users\haske\AppData\Local\Temp\cc4f9rxb.s 			page 73


 2906 068a 52       		.byte	0x52
 2907 068b 12       		.uleb128 0x12
 2908 068c AA000000 		.4byte	.LASF147
 2909 0690 53       		.byte	0x53
 2910 0691 12       		.uleb128 0x12
 2911 0692 91190000 		.4byte	.LASF148
 2912 0696 54       		.byte	0x54
 2913 0697 12       		.uleb128 0x12
 2914 0698 0C130000 		.4byte	.LASF149
 2915 069c 55       		.byte	0x55
 2916 069d 12       		.uleb128 0x12
 2917 069e 850E0000 		.4byte	.LASF150
 2918 06a2 56       		.byte	0x56
 2919 06a3 12       		.uleb128 0x12
 2920 06a4 E6190000 		.4byte	.LASF151
 2921 06a8 57       		.byte	0x57
 2922 06a9 12       		.uleb128 0x12
 2923 06aa 58220000 		.4byte	.LASF152
 2924 06ae 58       		.byte	0x58
 2925 06af 12       		.uleb128 0x12
 2926 06b0 160D0000 		.4byte	.LASF153
 2927 06b4 59       		.byte	0x59
 2928 06b5 12       		.uleb128 0x12
 2929 06b6 98120000 		.4byte	.LASF154
 2930 06ba 5A       		.byte	0x5a
 2931 06bb 12       		.uleb128 0x12
 2932 06bc A0100000 		.4byte	.LASF155
 2933 06c0 5B       		.byte	0x5b
 2934 06c1 12       		.uleb128 0x12
 2935 06c2 10000000 		.4byte	.LASF156
 2936 06c6 60       		.byte	0x60
 2937 06c7 12       		.uleb128 0x12
 2938 06c8 14120000 		.4byte	.LASF157
 2939 06cc 61       		.byte	0x61
 2940 06cd 12       		.uleb128 0x12
 2941 06ce 43160000 		.4byte	.LASF158
 2942 06d2 62       		.byte	0x62
 2943 06d3 12       		.uleb128 0x12
 2944 06d4 70100000 		.4byte	.LASF159
 2945 06d8 63       		.byte	0x63
 2946 06d9 12       		.uleb128 0x12
 2947 06da BC0D0000 		.4byte	.LASF160
 2948 06de 64       		.byte	0x64
 2949 06df 12       		.uleb128 0x12
 2950 06e0 390C0000 		.4byte	.LASF161
 2951 06e4 65       		.byte	0x65
 2952 06e5 12       		.uleb128 0x12
 2953 06e6 3A040000 		.4byte	.LASF162
 2954 06ea 66       		.byte	0x66
 2955 06eb 12       		.uleb128 0x12
 2956 06ec A30A0000 		.4byte	.LASF163
 2957 06f0 67       		.byte	0x67
 2958 06f1 12       		.uleb128 0x12
 2959 06f2 760B0000 		.4byte	.LASF164
 2960 06f6 68       		.byte	0x68
 2961 06f7 12       		.uleb128 0x12
 2962 06f8 D6030000 		.4byte	.LASF165
ARM GAS  C:\Users\haske\AppData\Local\Temp\cc4f9rxb.s 			page 74


 2963 06fc 69       		.byte	0x69
 2964 06fd 12       		.uleb128 0x12
 2965 06fe C8070000 		.4byte	.LASF166
 2966 0702 6A       		.byte	0x6a
 2967 0703 12       		.uleb128 0x12
 2968 0704 DD070000 		.4byte	.LASF167
 2969 0708 6B       		.byte	0x6b
 2970 0709 12       		.uleb128 0x12
 2971 070a 320E0000 		.4byte	.LASF168
 2972 070e 6C       		.byte	0x6c
 2973 070f 12       		.uleb128 0x12
 2974 0710 79110000 		.4byte	.LASF169
 2975 0714 6D       		.byte	0x6d
 2976 0715 12       		.uleb128 0x12
 2977 0716 D1060000 		.4byte	.LASF170
 2978 071a 6E       		.byte	0x6e
 2979 071b 12       		.uleb128 0x12
 2980 071c EC060000 		.4byte	.LASF171
 2981 0720 6F       		.byte	0x6f
 2982 0721 12       		.uleb128 0x12
 2983 0722 38020000 		.4byte	.LASF172
 2984 0726 6F       		.byte	0x6f
 2985 0727 12       		.uleb128 0x12
 2986 0728 BB1C0000 		.4byte	.LASF173
 2987 072c 70       		.byte	0x70
 2988 072d 18       		.uleb128 0x18
 2989 072e 291A0000 		.4byte	.LASF174
 2990 0732 FFFF     		.2byte	0xffff
 2991 0734 18       		.uleb128 0x18
 2992 0735 2E140000 		.4byte	.LASF175
 2993 0739 FFFF     		.2byte	0xffff
 2994 073b 00       		.byte	0
 2995 073c 19       		.uleb128 0x19
 2996 073d 970B0000 		.4byte	.LASF176
 2997 0741 0C       		.byte	0xc
 2998 0742 1C01     		.2byte	0x11c
 2999 0744 17050000 		.4byte	0x517
 3000 0748 1A       		.uleb128 0x1a
 3001 0749 08       		.byte	0x8
 3002 074a 0C       		.byte	0xc
 3003 074b 3601     		.2byte	0x136
 3004 074d 6C070000 		.4byte	0x76c
 3005 0751 1B       		.uleb128 0x1b
 3006 0752 EA0A0000 		.4byte	.LASF177
 3007 0756 0C       		.byte	0xc
 3008 0757 3701     		.2byte	0x137
 3009 0759 3C070000 		.4byte	0x73c
 3010 075d 00       		.byte	0
 3011 075e 1B       		.uleb128 0x1b
 3012 075f 94080000 		.4byte	.LASF178
 3013 0763 0C       		.byte	0xc
 3014 0764 3801     		.2byte	0x138
 3015 0766 0C050000 		.4byte	0x50c
 3016 076a 04       		.byte	0x4
 3017 076b 00       		.byte	0
 3018 076c 19       		.uleb128 0x19
 3019 076d 3E0D0000 		.4byte	.LASF179
ARM GAS  C:\Users\haske\AppData\Local\Temp\cc4f9rxb.s 			page 75


 3020 0771 0C       		.byte	0xc
 3021 0772 3901     		.2byte	0x139
 3022 0774 48070000 		.4byte	0x748
 3023 0778 1C       		.uleb128 0x1c
 3024 0779 04       		.byte	0x4
 3025 077a 0C       		.byte	0xc
 3026 077b 4601     		.2byte	0x146
 3027 077d A6070000 		.4byte	0x7a6
 3028 0781 1D       		.uleb128 0x1d
 3029 0782 A6190000 		.4byte	.LASF180
 3030 0786 0C       		.byte	0xc
 3031 0787 4701     		.2byte	0x147
 3032 0789 0C050000 		.4byte	0x50c
 3033 078d 1D       		.uleb128 0x1d
 3034 078e EC0B0000 		.4byte	.LASF181
 3035 0792 0C       		.byte	0xc
 3036 0793 4801     		.2byte	0x148
 3037 0795 A6070000 		.4byte	0x7a6
 3038 0799 1D       		.uleb128 0x1d
 3039 079a FB0A0000 		.4byte	.LASF182
 3040 079e 0C       		.byte	0xc
 3041 079f 4901     		.2byte	0x149
 3042 07a1 AC070000 		.4byte	0x7ac
 3043 07a5 00       		.byte	0
 3044 07a6 0B       		.uleb128 0xb
 3045 07a7 04       		.byte	0x4
 3046 07a8 B8000000 		.4byte	0xb8
 3047 07ac 0B       		.uleb128 0xb
 3048 07ad 04       		.byte	0x4
 3049 07ae B2070000 		.4byte	0x7b2
 3050 07b2 0C       		.uleb128 0xc
 3051 07b3 6C070000 		.4byte	0x76c
 3052 07b7 1A       		.uleb128 0x1a
 3053 07b8 08       		.byte	0x8
 3054 07b9 0C       		.byte	0xc
 3055 07ba 3E01     		.2byte	0x13e
 3056 07bc F5070000 		.4byte	0x7f5
 3057 07c0 1E       		.uleb128 0x1e
 3058 07c1 765F7000 		.ascii	"v_p\000"
 3059 07c5 0C       		.byte	0xc
 3060 07c6 4A01     		.2byte	0x14a
 3061 07c8 78070000 		.4byte	0x778
 3062 07cc 00       		.byte	0
 3063 07cd 1B       		.uleb128 0x1b
 3064 07ce CD1D0000 		.4byte	.LASF183
 3065 07d2 0C       		.byte	0xc
 3066 07d3 4C01     		.2byte	0x14c
 3067 07d5 CE000000 		.4byte	0xce
 3068 07d9 04       		.byte	0x4
 3069 07da 1B       		.uleb128 0x1b
 3070 07db 1B010000 		.4byte	.LASF184
 3071 07df 0C       		.byte	0xc
 3072 07e0 4D01     		.2byte	0x14d
 3073 07e2 B8000000 		.4byte	0xb8
 3074 07e6 06       		.byte	0x6
 3075 07e7 1B       		.uleb128 0x1b
 3076 07e8 00000000 		.4byte	.LASF185
ARM GAS  C:\Users\haske\AppData\Local\Temp\cc4f9rxb.s 			page 76


 3077 07ec 0C       		.byte	0xc
 3078 07ed 4E01     		.2byte	0x14e
 3079 07ef B8000000 		.4byte	0xb8
 3080 07f3 07       		.byte	0x7
 3081 07f4 00       		.byte	0
 3082 07f5 19       		.uleb128 0x19
 3083 07f6 0F0E0000 		.4byte	.LASF186
 3084 07fa 0C       		.byte	0xc
 3085 07fb 4F01     		.2byte	0x14f
 3086 07fd B7070000 		.4byte	0x7b7
 3087 0801 02       		.uleb128 0x2
 3088 0802 790E0000 		.4byte	.LASF187
 3089 0806 0D       		.byte	0xd
 3090 0807 69       		.byte	0x69
 3091 0808 B8000000 		.4byte	0xb8
 3092 080c 11       		.uleb128 0x11
 3093 080d 01       		.byte	0x1
 3094 080e 42000000 		.4byte	0x42
 3095 0812 0E       		.byte	0xe
 3096 0813 22       		.byte	0x22
 3097 0814 31080000 		.4byte	0x831
 3098 0818 12       		.uleb128 0x12
 3099 0819 8D070000 		.4byte	.LASF188
 3100 081d 00       		.byte	0
 3101 081e 12       		.uleb128 0x12
 3102 081f 0B1C0000 		.4byte	.LASF189
 3103 0823 01       		.byte	0x1
 3104 0824 12       		.uleb128 0x12
 3105 0825 FE000000 		.4byte	.LASF190
 3106 0829 02       		.byte	0x2
 3107 082a 12       		.uleb128 0x12
 3108 082b B70A0000 		.4byte	.LASF191
 3109 082f 03       		.byte	0x3
 3110 0830 00       		.byte	0
 3111 0831 0B       		.uleb128 0xb
 3112 0832 04       		.byte	0x4
 3113 0833 37080000 		.4byte	0x837
 3114 0837 0A       		.uleb128 0xa
 3115 0838 0D1B0000 		.4byte	.LASF193
 3116 083c 24       		.byte	0x24
 3117 083d 0F       		.byte	0xf
 3118 083e AE       		.byte	0xae
 3119 083f FE080000 		.4byte	0x8fe
 3120 0843 07       		.uleb128 0x7
 3121 0844 4E130000 		.4byte	.LASF194
 3122 0848 0F       		.byte	0xf
 3123 0849 AF       		.byte	0xaf
 3124 084a 79170000 		.4byte	0x1779
 3125 084e 00       		.byte	0
 3126 084f 07       		.uleb128 0x7
 3127 0850 6B0D0000 		.4byte	.LASF195
 3128 0854 0F       		.byte	0xf
 3129 0855 B0       		.byte	0xb0
 3130 0856 31080000 		.4byte	0x831
 3131 085a 04       		.byte	0x4
 3132 085b 07       		.uleb128 0x7
 3133 085c 7F010000 		.4byte	.LASF196
ARM GAS  C:\Users\haske\AppData\Local\Temp\cc4f9rxb.s 			page 77


 3134 0860 0F       		.byte	0xf
 3135 0861 B1       		.byte	0xb1
 3136 0862 84170000 		.4byte	0x1784
 3137 0866 08       		.byte	0x8
 3138 0867 07       		.uleb128 0x7
 3139 0868 1A0E0000 		.4byte	.LASF197
 3140 086c 0F       		.byte	0xf
 3141 086d B2       		.byte	0xb2
 3142 086e 8A170000 		.4byte	0x178a
 3143 0872 0C       		.byte	0xc
 3144 0873 07       		.uleb128 0x7
 3145 0874 B91F0000 		.4byte	.LASF42
 3146 0878 0F       		.byte	0xf
 3147 0879 B4       		.byte	0xb4
 3148 087a E9020000 		.4byte	0x2e9
 3149 087e 10       		.byte	0x10
 3150 087f 07       		.uleb128 0x7
 3151 0880 A61C0000 		.4byte	.LASF198
 3152 0884 0F       		.byte	0xf
 3153 0885 B6       		.byte	0xb6
 3154 0886 69010000 		.4byte	0x169
 3155 088a 14       		.byte	0x14
 3156 088b 07       		.uleb128 0x7
 3157 088c A7080000 		.4byte	.LASF199
 3158 0890 0F       		.byte	0xf
 3159 0891 B7       		.byte	0xb7
 3160 0892 F9130000 		.4byte	0x13f9
 3161 0896 1C       		.byte	0x1c
 3162 0897 07       		.uleb128 0x7
 3163 0898 CB010000 		.4byte	.LASF200
 3164 089c 0F       		.byte	0xf
 3165 089d B8       		.byte	0xb8
 3166 089e 8A130000 		.4byte	0x138a
 3167 08a2 20       		.byte	0x20
 3168 08a3 09       		.uleb128 0x9
 3169 08a4 DA050000 		.4byte	.LASF201
 3170 08a8 0F       		.byte	0xf
 3171 08a9 B9       		.byte	0xb9
 3172 08aa CE000000 		.4byte	0xce
 3173 08ae 02       		.byte	0x2
 3174 08af 01       		.byte	0x1
 3175 08b0 0F       		.byte	0xf
 3176 08b1 22       		.byte	0x22
 3177 08b2 09       		.uleb128 0x9
 3178 08b3 7A030000 		.4byte	.LASF202
 3179 08b7 0F       		.byte	0xf
 3180 08b8 BA       		.byte	0xba
 3181 08b9 CE000000 		.4byte	0xce
 3182 08bd 02       		.byte	0x2
 3183 08be 01       		.byte	0x1
 3184 08bf 0E       		.byte	0xe
 3185 08c0 22       		.byte	0x22
 3186 08c1 09       		.uleb128 0x9
 3187 08c2 D5120000 		.4byte	.LASF203
 3188 08c6 0F       		.byte	0xf
 3189 08c7 BB       		.byte	0xbb
 3190 08c8 CE000000 		.4byte	0xce
ARM GAS  C:\Users\haske\AppData\Local\Temp\cc4f9rxb.s 			page 78


 3191 08cc 02       		.byte	0x2
 3192 08cd 01       		.byte	0x1
 3193 08ce 0D       		.byte	0xd
 3194 08cf 22       		.byte	0x22
 3195 08d0 09       		.uleb128 0x9
 3196 08d1 D0050000 		.4byte	.LASF204
 3197 08d5 0F       		.byte	0xf
 3198 08d6 BC       		.byte	0xbc
 3199 08d7 CE000000 		.4byte	0xce
 3200 08db 02       		.byte	0x2
 3201 08dc 06       		.byte	0x6
 3202 08dd 07       		.byte	0x7
 3203 08de 22       		.byte	0x22
 3204 08df 09       		.uleb128 0x9
 3205 08e0 A1070000 		.4byte	.LASF205
 3206 08e4 0F       		.byte	0xf
 3207 08e5 BD       		.byte	0xbd
 3208 08e6 CE000000 		.4byte	0xce
 3209 08ea 02       		.byte	0x2
 3210 08eb 01       		.byte	0x1
 3211 08ec 06       		.byte	0x6
 3212 08ed 22       		.byte	0x22
 3213 08ee 09       		.uleb128 0x9
 3214 08ef 56030000 		.4byte	.LASF206
 3215 08f3 0F       		.byte	0xf
 3216 08f4 BE       		.byte	0xbe
 3217 08f5 CE000000 		.4byte	0xce
 3218 08f9 02       		.byte	0x2
 3219 08fa 01       		.byte	0x1
 3220 08fb 05       		.byte	0x5
 3221 08fc 22       		.byte	0x22
 3222 08fd 00       		.byte	0
 3223 08fe 0B       		.uleb128 0xb
 3224 08ff 04       		.byte	0x4
 3225 0900 CF030000 		.4byte	0x3cf
 3226 0904 05       		.uleb128 0x5
 3227 0905 38       		.byte	0x38
 3228 0906 10       		.byte	0x10
 3229 0907 20       		.byte	0x20
 3230 0908 4B0A0000 		.4byte	0xa4b
 3231 090c 07       		.uleb128 0x7
 3232 090d 40010000 		.4byte	.LASF207
 3233 0911 10       		.byte	0x10
 3234 0912 21       		.byte	0x21
 3235 0913 01010000 		.4byte	0x101
 3236 0917 00       		.byte	0
 3237 0918 07       		.uleb128 0x7
 3238 0919 5F030000 		.4byte	.LASF208
 3239 091d 10       		.byte	0x10
 3240 091e 22       		.byte	0x22
 3241 091f 06040000 		.4byte	0x406
 3242 0923 02       		.byte	0x2
 3243 0924 07       		.uleb128 0x7
 3244 0925 7F040000 		.4byte	.LASF209
 3245 0929 10       		.byte	0x10
 3246 092a 25       		.byte	0x25
 3247 092b DA030000 		.4byte	0x3da
ARM GAS  C:\Users\haske\AppData\Local\Temp\cc4f9rxb.s 			page 79


 3248 092f 03       		.byte	0x3
 3249 0930 07       		.uleb128 0x7
 3250 0931 47010000 		.4byte	.LASF210
 3251 0935 10       		.byte	0x10
 3252 0936 26       		.byte	0x26
 3253 0937 CF030000 		.4byte	0x3cf
 3254 093b 04       		.byte	0x4
 3255 093c 07       		.uleb128 0x7
 3256 093d 191E0000 		.4byte	.LASF211
 3257 0941 10       		.byte	0x10
 3258 0942 27       		.byte	0x27
 3259 0943 D7040000 		.4byte	0x4d7
 3260 0947 06       		.byte	0x6
 3261 0948 07       		.uleb128 0x7
 3262 0949 B4020000 		.4byte	.LASF212
 3263 094d 10       		.byte	0x10
 3264 094e 2A       		.byte	0x2a
 3265 094f E2020000 		.4byte	0x2e2
 3266 0953 10       		.byte	0x10
 3267 0954 07       		.uleb128 0x7
 3268 0955 81210000 		.4byte	.LASF213
 3269 0959 10       		.byte	0x10
 3270 095a 2B       		.byte	0x2b
 3271 095b E2020000 		.4byte	0x2e2
 3272 095f 14       		.byte	0x14
 3273 0960 07       		.uleb128 0x7
 3274 0961 CD1B0000 		.4byte	.LASF214
 3275 0965 10       		.byte	0x10
 3276 0966 2C       		.byte	0x2c
 3277 0967 CF030000 		.4byte	0x3cf
 3278 096b 18       		.byte	0x18
 3279 096c 07       		.uleb128 0x7
 3280 096d 45060000 		.4byte	.LASF215
 3281 0971 10       		.byte	0x10
 3282 0972 2D       		.byte	0x2d
 3283 0973 DA030000 		.4byte	0x3da
 3284 0977 1A       		.byte	0x1a
 3285 0978 07       		.uleb128 0x7
 3286 0979 10170000 		.4byte	.LASF216
 3287 097d 10       		.byte	0x10
 3288 097e 2E       		.byte	0x2e
 3289 097f DA030000 		.4byte	0x3da
 3290 0983 1B       		.byte	0x1b
 3291 0984 07       		.uleb128 0x7
 3292 0985 03060000 		.4byte	.LASF217
 3293 0989 10       		.byte	0x10
 3294 098a 2F       		.byte	0x2f
 3295 098b B8000000 		.4byte	0xb8
 3296 098f 1C       		.byte	0x1c
 3297 0990 07       		.uleb128 0x7
 3298 0991 960A0000 		.4byte	.LASF218
 3299 0995 10       		.byte	0x10
 3300 0996 32       		.byte	0x32
 3301 0997 CF030000 		.4byte	0x3cf
 3302 099b 1E       		.byte	0x1e
 3303 099c 07       		.uleb128 0x7
 3304 099d F9180000 		.4byte	.LASF219
ARM GAS  C:\Users\haske\AppData\Local\Temp\cc4f9rxb.s 			page 80


 3305 09a1 10       		.byte	0x10
 3306 09a2 33       		.byte	0x33
 3307 09a3 01010000 		.4byte	0x101
 3308 09a7 20       		.byte	0x20
 3309 09a8 07       		.uleb128 0x7
 3310 09a9 E71D0000 		.4byte	.LASF220
 3311 09ad 10       		.byte	0x10
 3312 09ae 34       		.byte	0x34
 3313 09af DA030000 		.4byte	0x3da
 3314 09b3 22       		.byte	0x22
 3315 09b4 09       		.uleb128 0x9
 3316 09b5 170B0000 		.4byte	.LASF221
 3317 09b9 10       		.byte	0x10
 3318 09ba 35       		.byte	0x35
 3319 09bb B8000000 		.4byte	0xb8
 3320 09bf 01       		.byte	0x1
 3321 09c0 01       		.byte	0x1
 3322 09c1 07       		.byte	0x7
 3323 09c2 23       		.byte	0x23
 3324 09c3 09       		.uleb128 0x9
 3325 09c4 40030000 		.4byte	.LASF222
 3326 09c8 10       		.byte	0x10
 3327 09c9 36       		.byte	0x36
 3328 09ca 1C040000 		.4byte	0x41c
 3329 09ce 01       		.byte	0x1
 3330 09cf 05       		.byte	0x5
 3331 09d0 02       		.byte	0x2
 3332 09d1 23       		.byte	0x23
 3333 09d2 07       		.uleb128 0x7
 3334 09d3 AC050000 		.4byte	.LASF223
 3335 09d7 10       		.byte	0x10
 3336 09d8 39       		.byte	0x39
 3337 09d9 CF030000 		.4byte	0x3cf
 3338 09dd 24       		.byte	0x24
 3339 09de 07       		.uleb128 0x7
 3340 09df 84150000 		.4byte	.LASF224
 3341 09e3 10       		.byte	0x10
 3342 09e4 3A       		.byte	0x3a
 3343 09e5 01010000 		.4byte	0x101
 3344 09e9 26       		.byte	0x26
 3345 09ea 07       		.uleb128 0x7
 3346 09eb 2E0A0000 		.4byte	.LASF225
 3347 09ef 10       		.byte	0x10
 3348 09f0 3B       		.byte	0x3b
 3349 09f1 01010000 		.4byte	0x101
 3350 09f5 28       		.byte	0x28
 3351 09f6 07       		.uleb128 0x7
 3352 09f7 C2140000 		.4byte	.LASF226
 3353 09fb 10       		.byte	0x10
 3354 09fc 3C       		.byte	0x3c
 3355 09fd DA030000 		.4byte	0x3da
 3356 0a01 2A       		.byte	0x2a
 3357 0a02 07       		.uleb128 0x7
 3358 0a03 45110000 		.4byte	.LASF227
 3359 0a07 10       		.byte	0x10
 3360 0a08 3F       		.byte	0x3f
 3361 0a09 CF030000 		.4byte	0x3cf
ARM GAS  C:\Users\haske\AppData\Local\Temp\cc4f9rxb.s 			page 81


 3362 0a0d 2C       		.byte	0x2c
 3363 0a0e 07       		.uleb128 0x7
 3364 0a0f 1B1F0000 		.4byte	.LASF228
 3365 0a13 10       		.byte	0x10
 3366 0a14 40       		.byte	0x40
 3367 0a15 01010000 		.4byte	0x101
 3368 0a19 2E       		.byte	0x2e
 3369 0a1a 07       		.uleb128 0x7
 3370 0a1b 690B0000 		.4byte	.LASF229
 3371 0a1f 10       		.byte	0x10
 3372 0a20 41       		.byte	0x41
 3373 0a21 01010000 		.4byte	0x101
 3374 0a25 30       		.byte	0x30
 3375 0a26 07       		.uleb128 0x7
 3376 0a27 94210000 		.4byte	.LASF230
 3377 0a2b 10       		.byte	0x10
 3378 0a2c 42       		.byte	0x42
 3379 0a2d 01010000 		.4byte	0x101
 3380 0a31 32       		.byte	0x32
 3381 0a32 07       		.uleb128 0x7
 3382 0a33 AE0D0000 		.4byte	.LASF231
 3383 0a37 10       		.byte	0x10
 3384 0a38 43       		.byte	0x43
 3385 0a39 01010000 		.4byte	0x101
 3386 0a3d 34       		.byte	0x34
 3387 0a3e 07       		.uleb128 0x7
 3388 0a3f 681C0000 		.4byte	.LASF232
 3389 0a43 10       		.byte	0x10
 3390 0a44 44       		.byte	0x44
 3391 0a45 DA030000 		.4byte	0x3da
 3392 0a49 36       		.byte	0x36
 3393 0a4a 00       		.byte	0
 3394 0a4b 02       		.uleb128 0x2
 3395 0a4c 65180000 		.4byte	.LASF233
 3396 0a50 10       		.byte	0x10
 3397 0a51 45       		.byte	0x45
 3398 0a52 04090000 		.4byte	0x904
 3399 0a56 05       		.uleb128 0x5
 3400 0a57 20       		.byte	0x20
 3401 0a58 11       		.byte	0x11
 3402 0a59 1E       		.byte	0x1e
 3403 0a5a 250B0000 		.4byte	0xb25
 3404 0a5e 07       		.uleb128 0x7
 3405 0a5f 171B0000 		.4byte	.LASF234
 3406 0a63 11       		.byte	0x11
 3407 0a64 1F       		.byte	0x1f
 3408 0a65 250B0000 		.4byte	0xb25
 3409 0a69 00       		.byte	0
 3410 0a6a 07       		.uleb128 0x7
 3411 0a6b C21E0000 		.4byte	.LASF235
 3412 0a6f 11       		.byte	0x11
 3413 0a70 20       		.byte	0x20
 3414 0a71 E4000000 		.4byte	0xe4
 3415 0a75 04       		.byte	0x4
 3416 0a76 07       		.uleb128 0x7
 3417 0a77 0A140000 		.4byte	.LASF236
 3418 0a7b 11       		.byte	0x11
ARM GAS  C:\Users\haske\AppData\Local\Temp\cc4f9rxb.s 			page 82


 3419 0a7c 21       		.byte	0x21
 3420 0a7d E4000000 		.4byte	0xe4
 3421 0a81 08       		.byte	0x8
 3422 0a82 07       		.uleb128 0x7
 3423 0a83 5E1A0000 		.4byte	.LASF79
 3424 0a87 11       		.byte	0x11
 3425 0a88 22       		.byte	0x22
 3426 0a89 CF030000 		.4byte	0x3cf
 3427 0a8d 0C       		.byte	0xc
 3428 0a8e 07       		.uleb128 0x7
 3429 0a8f 50210000 		.4byte	.LASF237
 3430 0a93 11       		.byte	0x11
 3431 0a94 23       		.byte	0x23
 3432 0a95 CF030000 		.4byte	0x3cf
 3433 0a99 0E       		.byte	0xe
 3434 0a9a 07       		.uleb128 0x7
 3435 0a9b C0040000 		.4byte	.LASF238
 3436 0a9f 11       		.byte	0x11
 3437 0aa0 24       		.byte	0x24
 3438 0aa1 CF030000 		.4byte	0x3cf
 3439 0aa5 10       		.byte	0x10
 3440 0aa6 07       		.uleb128 0x7
 3441 0aa7 971A0000 		.4byte	.LASF239
 3442 0aab 11       		.byte	0x11
 3443 0aac 25       		.byte	0x25
 3444 0aad 01010000 		.4byte	0x101
 3445 0ab1 12       		.byte	0x12
 3446 0ab2 07       		.uleb128 0x7
 3447 0ab3 1C1B0000 		.4byte	.LASF240
 3448 0ab7 11       		.byte	0x11
 3449 0ab8 26       		.byte	0x26
 3450 0ab9 01010000 		.4byte	0x101
 3451 0abd 14       		.byte	0x14
 3452 0abe 07       		.uleb128 0x7
 3453 0abf 73070000 		.4byte	.LASF31
 3454 0ac3 11       		.byte	0x11
 3455 0ac4 27       		.byte	0x27
 3456 0ac5 01010000 		.4byte	0x101
 3457 0ac9 16       		.byte	0x16
 3458 0aca 07       		.uleb128 0x7
 3459 0acb 79070000 		.4byte	.LASF32
 3460 0acf 11       		.byte	0x11
 3461 0ad0 28       		.byte	0x28
 3462 0ad1 01010000 		.4byte	0x101
 3463 0ad5 18       		.byte	0x18
 3464 0ad6 06       		.uleb128 0x6
 3465 0ad7 6F706100 		.ascii	"opa\000"
 3466 0adb 11       		.byte	0x11
 3467 0adc 29       		.byte	0x29
 3468 0add DA030000 		.4byte	0x3da
 3469 0ae1 1A       		.byte	0x1a
 3470 0ae2 07       		.uleb128 0x7
 3471 0ae3 6C010000 		.4byte	.LASF241
 3472 0ae7 11       		.byte	0x11
 3473 0ae8 2A       		.byte	0x2a
 3474 0ae9 FB030000 		.4byte	0x3fb
 3475 0aed 1B       		.byte	0x1b
ARM GAS  C:\Users\haske\AppData\Local\Temp\cc4f9rxb.s 			page 83


 3476 0aee 07       		.uleb128 0x7
 3477 0aef AC120000 		.4byte	.LASF242
 3478 0af3 11       		.byte	0x11
 3479 0af4 2B       		.byte	0x2b
 3480 0af5 F0030000 		.4byte	0x3f0
 3481 0af9 1C       		.byte	0x1c
 3482 0afa 07       		.uleb128 0x7
 3483 0afb 4D140000 		.4byte	.LASF243
 3484 0aff 11       		.byte	0x11
 3485 0b00 2C       		.byte	0x2c
 3486 0b01 E5030000 		.4byte	0x3e5
 3487 0b05 1D       		.byte	0x1d
 3488 0b06 09       		.uleb128 0x9
 3489 0b07 C9190000 		.4byte	.LASF244
 3490 0b0b 11       		.byte	0x11
 3491 0b0c 2D       		.byte	0x2d
 3492 0b0d 11040000 		.4byte	0x411
 3493 0b11 01       		.byte	0x1
 3494 0b12 03       		.byte	0x3
 3495 0b13 05       		.byte	0x5
 3496 0b14 1E       		.byte	0x1e
 3497 0b15 09       		.uleb128 0x9
 3498 0b16 5F030000 		.4byte	.LASF208
 3499 0b1a 11       		.byte	0x11
 3500 0b1b 2E       		.byte	0x2e
 3501 0b1c 06040000 		.4byte	0x406
 3502 0b20 01       		.byte	0x1
 3503 0b21 03       		.byte	0x3
 3504 0b22 02       		.byte	0x2
 3505 0b23 1E       		.byte	0x1e
 3506 0b24 00       		.byte	0
 3507 0b25 0B       		.uleb128 0xb
 3508 0b26 04       		.byte	0x4
 3509 0b27 2B0B0000 		.4byte	0xb2b
 3510 0b2b 0C       		.uleb128 0xc
 3511 0b2c EB020000 		.4byte	0x2eb
 3512 0b30 02       		.uleb128 0x2
 3513 0b31 86040000 		.4byte	.LASF245
 3514 0b35 11       		.byte	0x11
 3515 0b36 2F       		.byte	0x2f
 3516 0b37 560A0000 		.4byte	0xa56
 3517 0b3b 05       		.uleb128 0x5
 3518 0b3c 18       		.byte	0x18
 3519 0b3d 12       		.byte	0x12
 3520 0b3e 20       		.byte	0x20
 3521 0b3f B60B0000 		.4byte	0xbb6
 3522 0b43 07       		.uleb128 0x7
 3523 0b44 DF0F0000 		.4byte	.LASF246
 3524 0b48 12       		.byte	0x12
 3525 0b49 22       		.byte	0x22
 3526 0b4a C3000000 		.4byte	0xc3
 3527 0b4e 00       		.byte	0
 3528 0b4f 07       		.uleb128 0x7
 3529 0b50 E1010000 		.4byte	.LASF247
 3530 0b54 12       		.byte	0x12
 3531 0b55 23       		.byte	0x23
 3532 0b56 CE000000 		.4byte	0xce
ARM GAS  C:\Users\haske\AppData\Local\Temp\cc4f9rxb.s 			page 84


 3533 0b5a 02       		.byte	0x2
 3534 0b5b 07       		.uleb128 0x7
 3535 0b5c 8B190000 		.4byte	.LASF248
 3536 0b60 12       		.byte	0x12
 3537 0b61 24       		.byte	0x24
 3538 0b62 29010000 		.4byte	0x129
 3539 0b66 04       		.byte	0x4
 3540 0b67 07       		.uleb128 0x7
 3541 0b68 B80F0000 		.4byte	.LASF249
 3542 0b6c 12       		.byte	0x12
 3543 0b6d 26       		.byte	0x26
 3544 0b6e CF030000 		.4byte	0x3cf
 3545 0b72 08       		.byte	0x8
 3546 0b73 07       		.uleb128 0x7
 3547 0b74 2B150000 		.4byte	.LASF250
 3548 0b78 12       		.byte	0x12
 3549 0b79 27       		.byte	0x27
 3550 0b7a DA030000 		.4byte	0x3da
 3551 0b7e 0A       		.byte	0xa
 3552 0b7f 06       		.uleb128 0x6
 3553 0b80 6F706100 		.ascii	"opa\000"
 3554 0b84 12       		.byte	0x12
 3555 0b85 29       		.byte	0x29
 3556 0b86 DA030000 		.4byte	0x3da
 3557 0b8a 0B       		.byte	0xb
 3558 0b8b 09       		.uleb128 0x9
 3559 0b8c 5F030000 		.4byte	.LASF208
 3560 0b90 12       		.byte	0x12
 3561 0b91 2A       		.byte	0x2a
 3562 0b92 06040000 		.4byte	0x406
 3563 0b96 01       		.byte	0x1
 3564 0b97 04       		.byte	0x4
 3565 0b98 04       		.byte	0x4
 3566 0b99 0C       		.byte	0xc
 3567 0b9a 07       		.uleb128 0x7
 3568 0b9b 14150000 		.4byte	.LASF251
 3569 0b9f 12       		.byte	0x12
 3570 0ba0 2C       		.byte	0x2c
 3571 0ba1 D9000000 		.4byte	0xd9
 3572 0ba5 10       		.byte	0x10
 3573 0ba6 09       		.uleb128 0x9
 3574 0ba7 F4150000 		.4byte	.LASF252
 3575 0bab 12       		.byte	0x12
 3576 0bac 2D       		.byte	0x2d
 3577 0bad B8000000 		.4byte	0xb8
 3578 0bb1 01       		.byte	0x1
 3579 0bb2 01       		.byte	0x1
 3580 0bb3 07       		.byte	0x7
 3581 0bb4 14       		.byte	0x14
 3582 0bb5 00       		.byte	0
 3583 0bb6 02       		.uleb128 0x2
 3584 0bb7 F6080000 		.4byte	.LASF253
 3585 0bbb 12       		.byte	0x12
 3586 0bbc 2E       		.byte	0x2e
 3587 0bbd 3B0B0000 		.4byte	0xb3b
 3588 0bc1 05       		.uleb128 0x5
 3589 0bc2 0A       		.byte	0xa
ARM GAS  C:\Users\haske\AppData\Local\Temp\cc4f9rxb.s 			page 85


 3590 0bc3 13       		.byte	0x13
 3591 0bc4 1C       		.byte	0x1c
 3592 0bc5 420C0000 		.4byte	0xc42
 3593 0bc9 07       		.uleb128 0x7
 3594 0bca 5E1A0000 		.4byte	.LASF79
 3595 0bce 13       		.byte	0x13
 3596 0bcf 1D       		.byte	0x1d
 3597 0bd0 CF030000 		.4byte	0x3cf
 3598 0bd4 00       		.byte	0
 3599 0bd5 07       		.uleb128 0x7
 3600 0bd6 5A110000 		.4byte	.LASF254
 3601 0bda 13       		.byte	0x13
 3602 0bdb 1E       		.byte	0x1e
 3603 0bdc 01010000 		.4byte	0x101
 3604 0be0 02       		.byte	0x2
 3605 0be1 07       		.uleb128 0x7
 3606 0be2 F60E0000 		.4byte	.LASF255
 3607 0be6 13       		.byte	0x13
 3608 0be7 1F       		.byte	0x1f
 3609 0be8 01010000 		.4byte	0x101
 3610 0bec 04       		.byte	0x4
 3611 0bed 07       		.uleb128 0x7
 3612 0bee 4B090000 		.4byte	.LASF256
 3613 0bf2 13       		.byte	0x13
 3614 0bf3 20       		.byte	0x20
 3615 0bf4 01010000 		.4byte	0x101
 3616 0bf8 06       		.byte	0x6
 3617 0bf9 06       		.uleb128 0x6
 3618 0bfa 6F706100 		.ascii	"opa\000"
 3619 0bfe 13       		.byte	0x13
 3620 0bff 21       		.byte	0x21
 3621 0c00 DA030000 		.4byte	0x3da
 3622 0c04 08       		.byte	0x8
 3623 0c05 09       		.uleb128 0x9
 3624 0c06 5F030000 		.4byte	.LASF208
 3625 0c0a 13       		.byte	0x13
 3626 0c0b 22       		.byte	0x22
 3627 0c0c 06040000 		.4byte	0x406
 3628 0c10 01       		.byte	0x1
 3629 0c11 02       		.byte	0x2
 3630 0c12 06       		.byte	0x6
 3631 0c13 09       		.byte	0x9
 3632 0c14 09       		.uleb128 0x9
 3633 0c15 A70B0000 		.4byte	.LASF257
 3634 0c19 13       		.byte	0x13
 3635 0c1a 23       		.byte	0x23
 3636 0c1b B8000000 		.4byte	0xb8
 3637 0c1f 01       		.byte	0x1
 3638 0c20 01       		.byte	0x1
 3639 0c21 05       		.byte	0x5
 3640 0c22 09       		.byte	0x9
 3641 0c23 09       		.uleb128 0x9
 3642 0c24 720D0000 		.4byte	.LASF258
 3643 0c28 13       		.byte	0x13
 3644 0c29 24       		.byte	0x24
 3645 0c2a B8000000 		.4byte	0xb8
 3646 0c2e 01       		.byte	0x1
ARM GAS  C:\Users\haske\AppData\Local\Temp\cc4f9rxb.s 			page 86


 3647 0c2f 01       		.byte	0x1
 3648 0c30 04       		.byte	0x4
 3649 0c31 09       		.byte	0x9
 3650 0c32 09       		.uleb128 0x9
 3651 0c33 BB000000 		.4byte	.LASF259
 3652 0c37 13       		.byte	0x13
 3653 0c38 25       		.byte	0x25
 3654 0c39 B8000000 		.4byte	0xb8
 3655 0c3d 01       		.byte	0x1
 3656 0c3e 01       		.byte	0x1
 3657 0c3f 03       		.byte	0x3
 3658 0c40 09       		.byte	0x9
 3659 0c41 00       		.byte	0
 3660 0c42 02       		.uleb128 0x2
 3661 0c43 BE060000 		.4byte	.LASF260
 3662 0c47 13       		.byte	0x13
 3663 0c48 26       		.byte	0x26
 3664 0c49 C10B0000 		.4byte	0xbc1
 3665 0c4d 05       		.uleb128 0x5
 3666 0c4e 10       		.byte	0x10
 3667 0c4f 14       		.byte	0x14
 3668 0c50 1C       		.byte	0x1c
 3669 0c51 BC0C0000 		.4byte	0xcbc
 3670 0c55 07       		.uleb128 0x7
 3671 0c56 5E1A0000 		.4byte	.LASF79
 3672 0c5a 14       		.byte	0x14
 3673 0c5b 1D       		.byte	0x1d
 3674 0c5c CF030000 		.4byte	0x3cf
 3675 0c60 00       		.byte	0
 3676 0c61 07       		.uleb128 0x7
 3677 0c62 5A110000 		.4byte	.LASF254
 3678 0c66 14       		.byte	0x14
 3679 0c67 1E       		.byte	0x1e
 3680 0c68 01010000 		.4byte	0x101
 3681 0c6c 02       		.byte	0x2
 3682 0c6d 07       		.uleb128 0x7
 3683 0c6e 970E0000 		.4byte	.LASF261
 3684 0c72 14       		.byte	0x14
 3685 0c73 1F       		.byte	0x1f
 3686 0c74 CE000000 		.4byte	0xce
 3687 0c78 04       		.byte	0x4
 3688 0c79 07       		.uleb128 0x7
 3689 0c7a 36060000 		.4byte	.LASF262
 3690 0c7e 14       		.byte	0x14
 3691 0c7f 20       		.byte	0x20
 3692 0c80 CE000000 		.4byte	0xce
 3693 0c84 06       		.byte	0x6
 3694 0c85 07       		.uleb128 0x7
 3695 0c86 7C0D0000 		.4byte	.LASF263
 3696 0c8a 14       		.byte	0x14
 3697 0c8b 21       		.byte	0x21
 3698 0c8c E2020000 		.4byte	0x2e2
 3699 0c90 08       		.byte	0x8
 3700 0c91 06       		.uleb128 0x6
 3701 0c92 6F706100 		.ascii	"opa\000"
 3702 0c96 14       		.byte	0x14
 3703 0c97 22       		.byte	0x22
ARM GAS  C:\Users\haske\AppData\Local\Temp\cc4f9rxb.s 			page 87


 3704 0c98 DA030000 		.4byte	0x3da
 3705 0c9c 0C       		.byte	0xc
 3706 0c9d 09       		.uleb128 0x9
 3707 0c9e 5F030000 		.4byte	.LASF208
 3708 0ca2 14       		.byte	0x14
 3709 0ca3 23       		.byte	0x23
 3710 0ca4 06040000 		.4byte	0x406
 3711 0ca8 01       		.byte	0x1
 3712 0ca9 02       		.byte	0x2
 3713 0caa 06       		.byte	0x6
 3714 0cab 0D       		.byte	0xd
 3715 0cac 09       		.uleb128 0x9
 3716 0cad 30020000 		.4byte	.LASF264
 3717 0cb1 14       		.byte	0x14
 3718 0cb2 24       		.byte	0x24
 3719 0cb3 B8000000 		.4byte	0xb8
 3720 0cb7 01       		.byte	0x1
 3721 0cb8 01       		.byte	0x1
 3722 0cb9 05       		.byte	0x5
 3723 0cba 0D       		.byte	0xd
 3724 0cbb 00       		.byte	0
 3725 0cbc 02       		.uleb128 0x2
 3726 0cbd 611B0000 		.4byte	.LASF265
 3727 0cc1 14       		.byte	0x14
 3728 0cc2 25       		.byte	0x25
 3729 0cc3 4D0C0000 		.4byte	0xc4d
 3730 0cc7 0B       		.uleb128 0xb
 3731 0cc8 04       		.byte	0x4
 3732 0cc9 DA030000 		.4byte	0x3da
 3733 0ccd 11       		.uleb128 0x11
 3734 0cce 01       		.byte	0x1
 3735 0ccf 42000000 		.4byte	0x42
 3736 0cd3 15       		.byte	0x15
 3737 0cd4 1C       		.byte	0x1c
 3738 0cd5 EC0C0000 		.4byte	0xcec
 3739 0cd9 12       		.uleb128 0x12
 3740 0cda B2110000 		.4byte	.LASF266
 3741 0cde 00       		.byte	0
 3742 0cdf 12       		.uleb128 0x12
 3743 0ce0 97010000 		.4byte	.LASF267
 3744 0ce4 01       		.byte	0x1
 3745 0ce5 12       		.uleb128 0x12
 3746 0ce6 23170000 		.4byte	.LASF268
 3747 0cea 02       		.byte	0x2
 3748 0ceb 00       		.byte	0
 3749 0cec 02       		.uleb128 0x2
 3750 0ced AD080000 		.4byte	.LASF269
 3751 0cf1 15       		.byte	0x15
 3752 0cf2 20       		.byte	0x20
 3753 0cf3 CD0C0000 		.4byte	0xccd
 3754 0cf7 05       		.uleb128 0x5
 3755 0cf8 10       		.byte	0x10
 3756 0cf9 16       		.byte	0x16
 3757 0cfa 33       		.byte	0x33
 3758 0cfb 300D0000 		.4byte	0xd30
 3759 0cff 07       		.uleb128 0x7
 3760 0d00 EF130000 		.4byte	.LASF270
ARM GAS  C:\Users\haske\AppData\Local\Temp\cc4f9rxb.s 			page 88


 3761 0d04 16       		.byte	0x16
 3762 0d05 34       		.byte	0x34
 3763 0d06 300D0000 		.4byte	0xd30
 3764 0d0a 00       		.byte	0
 3765 0d0b 07       		.uleb128 0x7
 3766 0d0c AF0F0000 		.4byte	.LASF271
 3767 0d10 16       		.byte	0x16
 3768 0d11 35       		.byte	0x35
 3769 0d12 3B0D0000 		.4byte	0xd3b
 3770 0d16 04       		.byte	0x4
 3771 0d17 06       		.uleb128 0x6
 3772 0d18 62756600 		.ascii	"buf\000"
 3773 0d1c 16       		.byte	0x16
 3774 0d1d 36       		.byte	0x36
 3775 0d1e E9020000 		.4byte	0x2e9
 3776 0d22 08       		.byte	0x8
 3777 0d23 07       		.uleb128 0x7
 3778 0d24 981C0000 		.4byte	.LASF272
 3779 0d28 16       		.byte	0x16
 3780 0d29 37       		.byte	0x37
 3781 0d2a AA020000 		.4byte	0x2aa
 3782 0d2e 0C       		.byte	0xc
 3783 0d2f 00       		.byte	0
 3784 0d30 0B       		.uleb128 0xb
 3785 0d31 04       		.byte	0x4
 3786 0d32 360D0000 		.4byte	0xd36
 3787 0d36 0C       		.uleb128 0xc
 3788 0d37 69010000 		.4byte	0x169
 3789 0d3b 0B       		.uleb128 0xb
 3790 0d3c 04       		.byte	0x4
 3791 0d3d 69010000 		.4byte	0x169
 3792 0d41 0A       		.uleb128 0xa
 3793 0d42 AD140000 		.4byte	.LASF273
 3794 0d46 28       		.byte	0x28
 3795 0d47 16       		.byte	0x16
 3796 0d48 2D       		.byte	0x2d
 3797 0d49 960D0000 		.4byte	0xd96
 3798 0d4d 07       		.uleb128 0x7
 3799 0d4e 43140000 		.4byte	.LASF274
 3800 0d52 16       		.byte	0x16
 3801 0d53 2E       		.byte	0x2e
 3802 0d54 69010000 		.4byte	0x169
 3803 0d58 00       		.byte	0
 3804 0d59 07       		.uleb128 0x7
 3805 0d5a 3B070000 		.4byte	.LASF275
 3806 0d5e 16       		.byte	0x16
 3807 0d5f 2F       		.byte	0x2f
 3808 0d60 69010000 		.4byte	0x169
 3809 0d64 08       		.byte	0x8
 3810 0d65 07       		.uleb128 0x7
 3811 0d66 ED140000 		.4byte	.LASF276
 3812 0d6a 16       		.byte	0x16
 3813 0d6b 30       		.byte	0x30
 3814 0d6c 01010000 		.4byte	0x101
 3815 0d70 10       		.byte	0x10
 3816 0d71 07       		.uleb128 0x7
 3817 0d72 B6170000 		.4byte	.LASF277
ARM GAS  C:\Users\haske\AppData\Local\Temp\cc4f9rxb.s 			page 89


 3818 0d76 16       		.byte	0x16
 3819 0d77 31       		.byte	0x31
 3820 0d78 01010000 		.4byte	0x101
 3821 0d7c 12       		.byte	0x12
 3822 0d7d 06       		.uleb128 0x6
 3823 0d7e 62756600 		.ascii	"buf\000"
 3824 0d82 16       		.byte	0x16
 3825 0d83 32       		.byte	0x32
 3826 0d84 E9020000 		.4byte	0x2e9
 3827 0d88 14       		.byte	0x14
 3828 0d89 07       		.uleb128 0x7
 3829 0d8a BF070000 		.4byte	.LASF278
 3830 0d8e 16       		.byte	0x16
 3831 0d8f 38       		.byte	0x38
 3832 0d90 F70C0000 		.4byte	0xcf7
 3833 0d94 18       		.byte	0x18
 3834 0d95 00       		.byte	0
 3835 0d96 02       		.uleb128 0x2
 3836 0d97 401A0000 		.4byte	.LASF279
 3837 0d9b 16       		.byte	0x16
 3838 0d9c 39       		.byte	0x39
 3839 0d9d 410D0000 		.4byte	0xd41
 3840 0da1 0A       		.uleb128 0xa
 3841 0da2 55020000 		.4byte	.LASF280
 3842 0da6 54       		.byte	0x54
 3843 0da7 16       		.byte	0x16
 3844 0da8 3B       		.byte	0x3b
 3845 0da9 AA0E0000 		.4byte	0xeaa
 3846 0dad 06       		.uleb128 0x6
 3847 0dae 62756600 		.ascii	"buf\000"
 3848 0db2 16       		.byte	0x16
 3849 0db3 3F       		.byte	0x3f
 3850 0db4 E9020000 		.4byte	0x2e9
 3851 0db8 00       		.byte	0
 3852 0db9 07       		.uleb128 0x7
 3853 0dba AF0F0000 		.4byte	.LASF271
 3854 0dbe 16       		.byte	0x16
 3855 0dbf 44       		.byte	0x44
 3856 0dc0 3B0D0000 		.4byte	0xd3b
 3857 0dc4 04       		.byte	0x4
 3858 0dc5 07       		.uleb128 0x7
 3859 0dc6 EF130000 		.4byte	.LASF270
 3860 0dca 16       		.byte	0x16
 3861 0dcb 49       		.byte	0x49
 3862 0dcc 300D0000 		.4byte	0xd30
 3863 0dd0 08       		.byte	0x8
 3864 0dd1 07       		.uleb128 0x7
 3865 0dd2 18020000 		.4byte	.LASF281
 3866 0dd6 16       		.byte	0x16
 3867 0dd7 4B       		.byte	0x4b
 3868 0dd8 BB0E0000 		.4byte	0xebb
 3869 0ddc 0C       		.byte	0xc
 3870 0ddd 07       		.uleb128 0x7
 3871 0dde EF010000 		.4byte	.LASF282
 3872 0de2 16       		.byte	0x16
 3873 0de3 4D       		.byte	0x4d
 3874 0de4 E10E0000 		.4byte	0xee1
ARM GAS  C:\Users\haske\AppData\Local\Temp\cc4f9rxb.s 			page 90


 3875 0de8 10       		.byte	0x10
 3876 0de9 07       		.uleb128 0x7
 3877 0dea 5A0F0000 		.4byte	.LASF283
 3878 0dee 16       		.byte	0x16
 3879 0def 4F       		.byte	0x4f
 3880 0df0 210F0000 		.4byte	0xf21
 3881 0df4 14       		.byte	0x14
 3882 0df5 07       		.uleb128 0x7
 3883 0df6 5F100000 		.4byte	.LASF284
 3884 0dfa 16       		.byte	0x16
 3885 0dfb 52       		.byte	0x52
 3886 0dfc 510F0000 		.4byte	0xf51
 3887 0e00 18       		.byte	0x18
 3888 0e01 07       		.uleb128 0x7
 3889 0e02 481E0000 		.4byte	.LASF285
 3890 0e06 16       		.byte	0x16
 3891 0e07 55       		.byte	0x55
 3892 0e08 750F0000 		.4byte	0xf75
 3893 0e0c 1C       		.byte	0x1c
 3894 0e0d 07       		.uleb128 0x7
 3895 0e0e CB180000 		.4byte	.LASF286
 3896 0e12 16       		.byte	0x16
 3897 0e13 58       		.byte	0x58
 3898 0e14 A00F0000 		.4byte	0xfa0
 3899 0e18 20       		.byte	0x20
 3900 0e19 07       		.uleb128 0x7
 3901 0e1a F9050000 		.4byte	.LASF287
 3902 0e1e 16       		.byte	0x16
 3903 0e1f 5C       		.byte	0x5c
 3904 0e20 CB0F0000 		.4byte	0xfcb
 3905 0e24 24       		.byte	0x24
 3906 0e25 07       		.uleb128 0x7
 3907 0e26 8F1E0000 		.4byte	.LASF288
 3908 0e2a 16       		.byte	0x16
 3909 0e2b 60       		.byte	0x60
 3910 0e2c EB0F0000 		.4byte	0xfeb
 3911 0e30 28       		.byte	0x28
 3912 0e31 07       		.uleb128 0x7
 3913 0e32 54090000 		.4byte	.LASF289
 3914 0e36 16       		.byte	0x16
 3915 0e37 71       		.byte	0x71
 3916 0e38 29100000 		.4byte	0x1029
 3917 0e3c 2C       		.byte	0x2c
 3918 0e3d 07       		.uleb128 0x7
 3919 0e3e 99000000 		.4byte	.LASF290
 3920 0e42 16       		.byte	0x16
 3921 0e43 78       		.byte	0x78
 3922 0e44 E10E0000 		.4byte	0xee1
 3923 0e48 30       		.byte	0x30
 3924 0e49 07       		.uleb128 0x7
 3925 0e4a F3160000 		.4byte	.LASF291
 3926 0e4e 16       		.byte	0x16
 3927 0e4f 7D       		.byte	0x7d
 3928 0e50 BB0E0000 		.4byte	0xebb
 3929 0e54 34       		.byte	0x34
 3930 0e55 07       		.uleb128 0x7
 3931 0e56 86050000 		.4byte	.LASF292
ARM GAS  C:\Users\haske\AppData\Local\Temp\cc4f9rxb.s 			page 91


 3932 0e5a 16       		.byte	0x16
 3933 0e5b 8D       		.byte	0x8d
 3934 0e5c 58100000 		.4byte	0x1058
 3935 0e60 38       		.byte	0x38
 3936 0e61 07       		.uleb128 0x7
 3937 0e62 570C0000 		.4byte	.LASF293
 3938 0e66 16       		.byte	0x16
 3939 0e67 99       		.byte	0x99
 3940 0e68 7D100000 		.4byte	0x107d
 3941 0e6c 3C       		.byte	0x3c
 3942 0e6d 07       		.uleb128 0x7
 3943 0e6e D9190000 		.4byte	.LASF294
 3944 0e72 16       		.byte	0x16
 3945 0e73 A3       		.byte	0xa3
 3946 0e74 98100000 		.4byte	0x1098
 3947 0e78 40       		.byte	0x40
 3948 0e79 07       		.uleb128 0x7
 3949 0e7a BE1A0000 		.4byte	.LASF295
 3950 0e7e 16       		.byte	0x16
 3951 0e7f AC       		.byte	0xac
 3952 0e80 B3100000 		.4byte	0x10b3
 3953 0e84 44       		.byte	0x44
 3954 0e85 07       		.uleb128 0x7
 3955 0e86 CC0E0000 		.4byte	.LASF296
 3956 0e8a 16       		.byte	0x16
 3957 0e8b B5       		.byte	0xb5
 3958 0e8c CF100000 		.4byte	0x10cf
 3959 0e90 48       		.byte	0x48
 3960 0e91 07       		.uleb128 0x7
 3961 0e92 37090000 		.4byte	.LASF297
 3962 0e96 16       		.byte	0x16
 3963 0e97 BA       		.byte	0xba
 3964 0e98 EF000000 		.4byte	0xef
 3965 0e9c 4C       		.byte	0x4c
 3966 0e9d 07       		.uleb128 0x7
 3967 0e9e B91F0000 		.4byte	.LASF42
 3968 0ea2 16       		.byte	0x16
 3969 0ea3 BD       		.byte	0xbd
 3970 0ea4 E9020000 		.4byte	0x2e9
 3971 0ea8 50       		.byte	0x50
 3972 0ea9 00       		.byte	0
 3973 0eaa 1F       		.uleb128 0x1f
 3974 0eab B50E0000 		.4byte	0xeb5
 3975 0eaf 0E       		.uleb128 0xe
 3976 0eb0 B50E0000 		.4byte	0xeb5
 3977 0eb4 00       		.byte	0
 3978 0eb5 0B       		.uleb128 0xb
 3979 0eb6 04       		.byte	0x4
 3980 0eb7 A10D0000 		.4byte	0xda1
 3981 0ebb 0B       		.uleb128 0xb
 3982 0ebc 04       		.byte	0x4
 3983 0ebd AA0E0000 		.4byte	0xeaa
 3984 0ec1 1F       		.uleb128 0x1f
 3985 0ec2 D60E0000 		.4byte	0xed6
 3986 0ec6 0E       		.uleb128 0xe
 3987 0ec7 B50E0000 		.4byte	0xeb5
 3988 0ecb 0E       		.uleb128 0xe
ARM GAS  C:\Users\haske\AppData\Local\Temp\cc4f9rxb.s 			page 92


 3989 0ecc D60E0000 		.4byte	0xed6
 3990 0ed0 0E       		.uleb128 0xe
 3991 0ed1 300D0000 		.4byte	0xd30
 3992 0ed5 00       		.byte	0
 3993 0ed6 0B       		.uleb128 0xb
 3994 0ed7 04       		.byte	0x4
 3995 0ed8 DC0E0000 		.4byte	0xedc
 3996 0edc 0C       		.uleb128 0xc
 3997 0edd 4B0A0000 		.4byte	0xa4b
 3998 0ee1 0B       		.uleb128 0xb
 3999 0ee2 04       		.byte	0x4
 4000 0ee3 C10E0000 		.4byte	0xec1
 4001 0ee7 1F       		.uleb128 0x1f
 4002 0ee8 0B0F0000 		.4byte	0xf0b
 4003 0eec 0E       		.uleb128 0xe
 4004 0eed B50E0000 		.4byte	0xeb5
 4005 0ef1 0E       		.uleb128 0xe
 4006 0ef2 0B0F0000 		.4byte	0xf0b
 4007 0ef6 0E       		.uleb128 0xe
 4008 0ef7 160F0000 		.4byte	0xf16
 4009 0efb 0E       		.uleb128 0xe
 4010 0efc CE000000 		.4byte	0xce
 4011 0f00 0E       		.uleb128 0xe
 4012 0f01 CE000000 		.4byte	0xce
 4013 0f05 0E       		.uleb128 0xe
 4014 0f06 CE000000 		.4byte	0xce
 4015 0f0a 00       		.byte	0
 4016 0f0b 0B       		.uleb128 0xb
 4017 0f0c 04       		.byte	0x4
 4018 0f0d 110F0000 		.4byte	0xf11
 4019 0f11 0C       		.uleb128 0xc
 4020 0f12 BC0C0000 		.4byte	0xcbc
 4021 0f16 0B       		.uleb128 0xb
 4022 0f17 04       		.byte	0x4
 4023 0f18 1C0F0000 		.4byte	0xf1c
 4024 0f1c 0C       		.uleb128 0xc
 4025 0f1d 29010000 		.4byte	0x129
 4026 0f21 0B       		.uleb128 0xb
 4027 0f22 04       		.byte	0x4
 4028 0f23 E70E0000 		.4byte	0xee7
 4029 0f27 1F       		.uleb128 0x1f
 4030 0f28 460F0000 		.4byte	0xf46
 4031 0f2c 0E       		.uleb128 0xe
 4032 0f2d B50E0000 		.4byte	0xeb5
 4033 0f31 0E       		.uleb128 0xe
 4034 0f32 460F0000 		.4byte	0xf46
 4035 0f36 0E       		.uleb128 0xe
 4036 0f37 300D0000 		.4byte	0xd30
 4037 0f3b 0E       		.uleb128 0xe
 4038 0f3c D1020000 		.4byte	0x2d1
 4039 0f40 0E       		.uleb128 0xe
 4040 0f41 01080000 		.4byte	0x801
 4041 0f45 00       		.byte	0
 4042 0f46 0B       		.uleb128 0xb
 4043 0f47 04       		.byte	0x4
 4044 0f48 4C0F0000 		.4byte	0xf4c
 4045 0f4c 0C       		.uleb128 0xc
ARM GAS  C:\Users\haske\AppData\Local\Temp\cc4f9rxb.s 			page 93


 4046 0f4d B60B0000 		.4byte	0xbb6
 4047 0f51 0B       		.uleb128 0xb
 4048 0f52 04       		.byte	0x4
 4049 0f53 270F0000 		.4byte	0xf27
 4050 0f57 0D       		.uleb128 0xd
 4051 0f58 F6020000 		.4byte	0x2f6
 4052 0f5c 750F0000 		.4byte	0xf75
 4053 0f60 0E       		.uleb128 0xe
 4054 0f61 B50E0000 		.4byte	0xeb5
 4055 0f65 0E       		.uleb128 0xe
 4056 0f66 460F0000 		.4byte	0xf46
 4057 0f6a 0E       		.uleb128 0xe
 4058 0f6b 300D0000 		.4byte	0xd30
 4059 0f6f 0E       		.uleb128 0xe
 4060 0f70 E2020000 		.4byte	0x2e2
 4061 0f74 00       		.byte	0
 4062 0f75 0B       		.uleb128 0xb
 4063 0f76 04       		.byte	0x4
 4064 0f77 570F0000 		.4byte	0xf57
 4065 0f7b 1F       		.uleb128 0x1f
 4066 0f7c 950F0000 		.4byte	0xf95
 4067 0f80 0E       		.uleb128 0xe
 4068 0f81 B50E0000 		.4byte	0xeb5
 4069 0f85 0E       		.uleb128 0xe
 4070 0f86 950F0000 		.4byte	0xf95
 4071 0f8a 0E       		.uleb128 0xe
 4072 0f8b 160F0000 		.4byte	0xf16
 4073 0f8f 0E       		.uleb128 0xe
 4074 0f90 E4000000 		.4byte	0xe4
 4075 0f94 00       		.byte	0
 4076 0f95 0B       		.uleb128 0xb
 4077 0f96 04       		.byte	0x4
 4078 0f97 9B0F0000 		.4byte	0xf9b
 4079 0f9b 0C       		.uleb128 0xc
 4080 0f9c 300B0000 		.4byte	0xb30
 4081 0fa0 0B       		.uleb128 0xb
 4082 0fa1 04       		.byte	0x4
 4083 0fa2 7B0F0000 		.4byte	0xf7b
 4084 0fa6 1F       		.uleb128 0x1f
 4085 0fa7 C00F0000 		.4byte	0xfc0
 4086 0fab 0E       		.uleb128 0xe
 4087 0fac B50E0000 		.4byte	0xeb5
 4088 0fb0 0E       		.uleb128 0xe
 4089 0fb1 C00F0000 		.4byte	0xfc0
 4090 0fb5 0E       		.uleb128 0xe
 4091 0fb6 160F0000 		.4byte	0xf16
 4092 0fba 0E       		.uleb128 0xe
 4093 0fbb 160F0000 		.4byte	0xf16
 4094 0fbf 00       		.byte	0
 4095 0fc0 0B       		.uleb128 0xb
 4096 0fc1 04       		.byte	0x4
 4097 0fc2 C60F0000 		.4byte	0xfc6
 4098 0fc6 0C       		.uleb128 0xc
 4099 0fc7 420C0000 		.4byte	0xc42
 4100 0fcb 0B       		.uleb128 0xb
 4101 0fcc 04       		.byte	0x4
 4102 0fcd A60F0000 		.4byte	0xfa6
ARM GAS  C:\Users\haske\AppData\Local\Temp\cc4f9rxb.s 			page 94


 4103 0fd1 1F       		.uleb128 0x1f
 4104 0fd2 EB0F0000 		.4byte	0xfeb
 4105 0fd6 0E       		.uleb128 0xe
 4106 0fd7 B50E0000 		.4byte	0xeb5
 4107 0fdb 0E       		.uleb128 0xe
 4108 0fdc D60E0000 		.4byte	0xed6
 4109 0fe0 0E       		.uleb128 0xe
 4110 0fe1 160F0000 		.4byte	0xf16
 4111 0fe5 0E       		.uleb128 0xe
 4112 0fe6 CE000000 		.4byte	0xce
 4113 0fea 00       		.byte	0
 4114 0feb 0B       		.uleb128 0xb
 4115 0fec 04       		.byte	0x4
 4116 0fed D10F0000 		.4byte	0xfd1
 4117 0ff1 1F       		.uleb128 0x1f
 4118 0ff2 29100000 		.4byte	0x1029
 4119 0ff6 0E       		.uleb128 0xe
 4120 0ff7 B50E0000 		.4byte	0xeb5
 4121 0ffb 0E       		.uleb128 0xe
 4122 0ffc 300D0000 		.4byte	0xd30
 4123 1000 0E       		.uleb128 0xe
 4124 1001 E2020000 		.4byte	0x2e2
 4125 1005 0E       		.uleb128 0xe
 4126 1006 01010000 		.4byte	0x101
 4127 100a 0E       		.uleb128 0xe
 4128 100b 01010000 		.4byte	0x101
 4129 100f 0E       		.uleb128 0xe
 4130 1010 01010000 		.4byte	0x101
 4131 1014 0E       		.uleb128 0xe
 4132 1015 460F0000 		.4byte	0xf46
 4133 1019 0E       		.uleb128 0xe
 4134 101a 01080000 		.4byte	0x801
 4135 101e 0E       		.uleb128 0xe
 4136 101f FE080000 		.4byte	0x8fe
 4137 1023 0E       		.uleb128 0xe
 4138 1024 C70C0000 		.4byte	0xcc7
 4139 1028 00       		.byte	0
 4140 1029 0B       		.uleb128 0xb
 4141 102a 04       		.byte	0x4
 4142 102b F10F0000 		.4byte	0xff1
 4143 102f 1F       		.uleb128 0x1f
 4144 1030 58100000 		.4byte	0x1058
 4145 1034 0E       		.uleb128 0xe
 4146 1035 B50E0000 		.4byte	0xeb5
 4147 1039 0E       		.uleb128 0xe
 4148 103a E9020000 		.4byte	0x2e9
 4149 103e 0E       		.uleb128 0xe
 4150 103f 01010000 		.4byte	0x101
 4151 1043 0E       		.uleb128 0xe
 4152 1044 300D0000 		.4byte	0xd30
 4153 1048 0E       		.uleb128 0xe
 4154 1049 E9020000 		.4byte	0x2e9
 4155 104d 0E       		.uleb128 0xe
 4156 104e 01010000 		.4byte	0x101
 4157 1052 0E       		.uleb128 0xe
 4158 1053 300D0000 		.4byte	0xd30
 4159 1057 00       		.byte	0
ARM GAS  C:\Users\haske\AppData\Local\Temp\cc4f9rxb.s 			page 95


 4160 1058 0B       		.uleb128 0xb
 4161 1059 04       		.byte	0x4
 4162 105a 2F100000 		.4byte	0x102f
 4163 105e 0D       		.uleb128 0xd
 4164 105f 77100000 		.4byte	0x1077
 4165 1063 77100000 		.4byte	0x1077
 4166 1067 0E       		.uleb128 0xe
 4167 1068 B50E0000 		.4byte	0xeb5
 4168 106c 0E       		.uleb128 0xe
 4169 106d 77100000 		.4byte	0x1077
 4170 1071 0E       		.uleb128 0xe
 4171 1072 EC0C0000 		.4byte	0xcec
 4172 1076 00       		.byte	0
 4173 1077 0B       		.uleb128 0xb
 4174 1078 04       		.byte	0x4
 4175 1079 410D0000 		.4byte	0xd41
 4176 107d 0B       		.uleb128 0xb
 4177 107e 04       		.byte	0x4
 4178 107f 5E100000 		.4byte	0x105e
 4179 1083 1F       		.uleb128 0x1f
 4180 1084 98100000 		.4byte	0x1098
 4181 1088 0E       		.uleb128 0xe
 4182 1089 B50E0000 		.4byte	0xeb5
 4183 108d 0E       		.uleb128 0xe
 4184 108e 77100000 		.4byte	0x1077
 4185 1092 0E       		.uleb128 0xe
 4186 1093 EC0C0000 		.4byte	0xcec
 4187 1097 00       		.byte	0
 4188 1098 0B       		.uleb128 0xb
 4189 1099 04       		.byte	0x4
 4190 109a 83100000 		.4byte	0x1083
 4191 109e 1F       		.uleb128 0x1f
 4192 109f B3100000 		.4byte	0x10b3
 4193 10a3 0E       		.uleb128 0xe
 4194 10a4 B50E0000 		.4byte	0xeb5
 4195 10a8 0E       		.uleb128 0xe
 4196 10a9 77100000 		.4byte	0x1077
 4197 10ad 0E       		.uleb128 0xe
 4198 10ae 460F0000 		.4byte	0xf46
 4199 10b2 00       		.byte	0
 4200 10b3 0B       		.uleb128 0xb
 4201 10b4 04       		.byte	0x4
 4202 10b5 9E100000 		.4byte	0x109e
 4203 10b9 1F       		.uleb128 0x1f
 4204 10ba C9100000 		.4byte	0x10c9
 4205 10be 0E       		.uleb128 0xe
 4206 10bf B50E0000 		.4byte	0xeb5
 4207 10c3 0E       		.uleb128 0xe
 4208 10c4 C9100000 		.4byte	0x10c9
 4209 10c8 00       		.byte	0
 4210 10c9 0B       		.uleb128 0xb
 4211 10ca 04       		.byte	0x4
 4212 10cb 960D0000 		.4byte	0xd96
 4213 10cf 0B       		.uleb128 0xb
 4214 10d0 04       		.byte	0x4
 4215 10d1 B9100000 		.4byte	0x10b9
 4216 10d5 02       		.uleb128 0x2
ARM GAS  C:\Users\haske\AppData\Local\Temp\cc4f9rxb.s 			page 96


 4217 10d6 3A0A0000 		.4byte	.LASF298
 4218 10da 16       		.byte	0x16
 4219 10db C0       		.byte	0xc0
 4220 10dc A10D0000 		.4byte	0xda1
 4221 10e0 11       		.uleb128 0x11
 4222 10e1 01       		.byte	0x1
 4223 10e2 42000000 		.4byte	0x42
 4224 10e6 17       		.byte	0x17
 4225 10e7 24       		.byte	0x24
 4226 10e8 FF100000 		.4byte	0x10ff
 4227 10ec 12       		.uleb128 0x12
 4228 10ed C7130000 		.4byte	.LASF299
 4229 10f1 00       		.byte	0
 4230 10f2 12       		.uleb128 0x12
 4231 10f3 6C210000 		.4byte	.LASF300
 4232 10f7 01       		.byte	0x1
 4233 10f8 12       		.uleb128 0x12
 4234 10f9 900C0000 		.4byte	.LASF301
 4235 10fd 02       		.byte	0x2
 4236 10fe 00       		.byte	0
 4237 10ff 02       		.uleb128 0x2
 4238 1100 430F0000 		.4byte	.LASF302
 4239 1104 17       		.byte	0x17
 4240 1105 28       		.byte	0x28
 4241 1106 E0100000 		.4byte	0x10e0
 4242 110a 05       		.uleb128 0x5
 4243 110b 48       		.byte	0x48
 4244 110c 17       		.byte	0x17
 4245 110d 2A       		.byte	0x2a
 4246 110e E8110000 		.4byte	0x11e8
 4247 1112 07       		.uleb128 0x7
 4248 1113 3F1E0000 		.4byte	.LASF303
 4249 1117 17       		.byte	0x17
 4250 1118 2B       		.byte	0x2b
 4251 1119 E8110000 		.4byte	0x11e8
 4252 111d 00       		.byte	0
 4253 111e 07       		.uleb128 0x7
 4254 111f 4E130000 		.4byte	.LASF194
 4255 1123 17       		.byte	0x17
 4256 1124 2C       		.byte	0x2c
 4257 1125 7C120000 		.4byte	0x127c
 4258 1129 04       		.byte	0x4
 4259 112a 07       		.uleb128 0x7
 4260 112b 64020000 		.4byte	.LASF304
 4261 112f 17       		.byte	0x17
 4262 1130 2D       		.byte	0x2d
 4263 1131 E4000000 		.4byte	0xe4
 4264 1135 08       		.byte	0x8
 4265 1136 07       		.uleb128 0x7
 4266 1137 E5040000 		.4byte	.LASF305
 4267 113b 17       		.byte	0x17
 4268 113c 2E       		.byte	0x2e
 4269 113d 3B0D0000 		.4byte	0xd3b
 4270 1141 0C       		.byte	0xc
 4271 1142 07       		.uleb128 0x7
 4272 1143 870C0000 		.4byte	.LASF306
 4273 1147 17       		.byte	0x17
ARM GAS  C:\Users\haske\AppData\Local\Temp\cc4f9rxb.s 			page 97


 4274 1148 30       		.byte	0x30
 4275 1149 87120000 		.4byte	0x1287
 4276 114d 10       		.byte	0x10
 4277 114e 07       		.uleb128 0x7
 4278 114f 0A0F0000 		.4byte	.LASF307
 4279 1153 17       		.byte	0x17
 4280 1154 32       		.byte	0x32
 4281 1155 8D120000 		.4byte	0x128d
 4282 1159 14       		.byte	0x14
 4283 115a 07       		.uleb128 0x7
 4284 115b C41B0000 		.4byte	.LASF308
 4285 115f 17       		.byte	0x17
 4286 1160 34       		.byte	0x34
 4287 1161 93120000 		.4byte	0x1293
 4288 1165 18       		.byte	0x18
 4289 1166 07       		.uleb128 0x7
 4290 1167 A60D0000 		.4byte	.LASF309
 4291 116b 17       		.byte	0x17
 4292 116c 36       		.byte	0x36
 4293 116d 99120000 		.4byte	0x1299
 4294 1171 1C       		.byte	0x1c
 4295 1172 07       		.uleb128 0x7
 4296 1173 1D150000 		.4byte	.LASF310
 4297 1177 17       		.byte	0x17
 4298 1178 38       		.byte	0x38
 4299 1179 9F120000 		.4byte	0x129f
 4300 117d 20       		.byte	0x20
 4301 117e 06       		.uleb128 0x6
 4302 117f 703100   		.ascii	"p1\000"
 4303 1182 17       		.byte	0x17
 4304 1183 3A       		.byte	0x3a
 4305 1184 160F0000 		.4byte	0xf16
 4306 1188 24       		.byte	0x24
 4307 1189 06       		.uleb128 0x6
 4308 118a 703200   		.ascii	"p2\000"
 4309 118d 17       		.byte	0x17
 4310 118e 3B       		.byte	0x3b
 4311 118f 160F0000 		.4byte	0xf16
 4312 1193 28       		.byte	0x28
 4313 1194 07       		.uleb128 0x7
 4314 1195 640B0000 		.4byte	.LASF311
 4315 1199 17       		.byte	0x17
 4316 119a 3C       		.byte	0x3c
 4317 119b 08030000 		.4byte	0x308
 4318 119f 2C       		.byte	0x2c
 4319 11a0 07       		.uleb128 0x7
 4320 11a1 AA170000 		.4byte	.LASF312
 4321 11a5 17       		.byte	0x17
 4322 11a6 3D       		.byte	0x3d
 4323 11a7 E4000000 		.4byte	0xe4
 4324 11ab 30       		.byte	0x30
 4325 11ac 07       		.uleb128 0x7
 4326 11ad A1210000 		.4byte	.LASF313
 4327 11b1 17       		.byte	0x17
 4328 11b2 3E       		.byte	0x3e
 4329 11b3 E4000000 		.4byte	0xe4
 4330 11b7 34       		.byte	0x34
ARM GAS  C:\Users\haske\AppData\Local\Temp\cc4f9rxb.s 			page 98


 4331 11b8 06       		.uleb128 0x6
 4332 11b9 696400   		.ascii	"id\000"
 4333 11bc 17       		.byte	0x17
 4334 11bd 3F       		.byte	0x3f
 4335 11be E4000000 		.4byte	0xe4
 4336 11c2 38       		.byte	0x38
 4337 11c3 07       		.uleb128 0x7
 4338 11c4 40010000 		.4byte	.LASF207
 4339 11c8 17       		.byte	0x17
 4340 11c9 40       		.byte	0x40
 4341 11ca 01010000 		.4byte	0x101
 4342 11ce 3C       		.byte	0x3c
 4343 11cf 07       		.uleb128 0x7
 4344 11d0 94080000 		.4byte	.LASF178
 4345 11d4 17       		.byte	0x17
 4346 11d5 41       		.byte	0x41
 4347 11d6 D9000000 		.4byte	0xd9
 4348 11da 40       		.byte	0x40
 4349 11db 07       		.uleb128 0x7
 4350 11dc 2C0C0000 		.4byte	.LASF314
 4351 11e0 17       		.byte	0x17
 4352 11e1 42       		.byte	0x42
 4353 11e2 E2020000 		.4byte	0x2e2
 4354 11e6 44       		.byte	0x44
 4355 11e7 00       		.byte	0
 4356 11e8 0B       		.uleb128 0xb
 4357 11e9 04       		.byte	0x4
 4358 11ea D5100000 		.4byte	0x10d5
 4359 11ee 0A       		.uleb128 0xa
 4360 11ef 55180000 		.4byte	.LASF315
 4361 11f3 1C       		.byte	0x1c
 4362 11f4 18       		.byte	0x18
 4363 11f5 31       		.byte	0x31
 4364 11f6 7C120000 		.4byte	0x127c
 4365 11fa 07       		.uleb128 0x7
 4366 11fb FE150000 		.4byte	.LASF316
 4367 11ff 18       		.byte	0x18
 4368 1200 32       		.byte	0x32
 4369 1201 7C120000 		.4byte	0x127c
 4370 1205 00       		.byte	0
 4371 1206 07       		.uleb128 0x7
 4372 1207 21020000 		.4byte	.LASF317
 4373 120b 18       		.byte	0x18
 4374 120c 33       		.byte	0x33
 4375 120d 05150000 		.4byte	0x1505
 4376 1211 04       		.byte	0x4
 4377 1212 07       		.uleb128 0x7
 4378 1213 E91A0000 		.4byte	.LASF318
 4379 1217 18       		.byte	0x18
 4380 1218 34       		.byte	0x34
 4381 1219 05150000 		.4byte	0x1505
 4382 121d 08       		.byte	0x8
 4383 121e 07       		.uleb128 0x7
 4384 121f B91F0000 		.4byte	.LASF42
 4385 1223 18       		.byte	0x18
 4386 1224 36       		.byte	0x36
 4387 1225 E9020000 		.4byte	0x2e9
ARM GAS  C:\Users\haske\AppData\Local\Temp\cc4f9rxb.s 			page 99


 4388 1229 0C       		.byte	0xc
 4389 122a 07       		.uleb128 0x7
 4390 122b E7100000 		.4byte	.LASF319
 4391 122f 18       		.byte	0x18
 4392 1230 38       		.byte	0x38
 4393 1231 1B150000 		.4byte	0x151b
 4394 1235 10       		.byte	0x10
 4395 1236 07       		.uleb128 0x7
 4396 1237 E30D0000 		.4byte	.LASF320
 4397 123b 18       		.byte	0x18
 4398 123c 3A       		.byte	0x3a
 4399 123d 01010000 		.4byte	0x101
 4400 1241 14       		.byte	0x14
 4401 1242 07       		.uleb128 0x7
 4402 1243 28210000 		.4byte	.LASF321
 4403 1247 18       		.byte	0x18
 4404 1248 3B       		.byte	0x3b
 4405 1249 01010000 		.4byte	0x101
 4406 124d 16       		.byte	0x16
 4407 124e 09       		.uleb128 0x9
 4408 124f 010F0000 		.4byte	.LASF322
 4409 1253 18       		.byte	0x18
 4410 1254 3C       		.byte	0x3c
 4411 1255 E4000000 		.4byte	0xe4
 4412 1259 04       		.byte	0x4
 4413 125a 02       		.byte	0x2
 4414 125b 1E       		.byte	0x1e
 4415 125c 18       		.byte	0x18
 4416 125d 09       		.uleb128 0x9
 4417 125e 59040000 		.4byte	.LASF323
 4418 1262 18       		.byte	0x18
 4419 1263 3D       		.byte	0x3d
 4420 1264 E4000000 		.4byte	0xe4
 4421 1268 04       		.byte	0x4
 4422 1269 02       		.byte	0x2
 4423 126a 1C       		.byte	0x1c
 4424 126b 18       		.byte	0x18
 4425 126c 09       		.uleb128 0x9
 4426 126d D10F0000 		.4byte	.LASF324
 4427 1271 18       		.byte	0x18
 4428 1272 3E       		.byte	0x3e
 4429 1273 E4000000 		.4byte	0xe4
 4430 1277 04       		.byte	0x4
 4431 1278 10       		.byte	0x10
 4432 1279 0C       		.byte	0xc
 4433 127a 18       		.byte	0x18
 4434 127b 00       		.byte	0
 4435 127c 0B       		.uleb128 0xb
 4436 127d 04       		.byte	0x4
 4437 127e 82120000 		.4byte	0x1282
 4438 1282 0C       		.uleb128 0xc
 4439 1283 EE110000 		.4byte	0x11ee
 4440 1287 0B       		.uleb128 0xb
 4441 1288 04       		.byte	0x4
 4442 1289 4B0A0000 		.4byte	0xa4b
 4443 128d 0B       		.uleb128 0xb
 4444 128e 04       		.byte	0x4
ARM GAS  C:\Users\haske\AppData\Local\Temp\cc4f9rxb.s 			page 100


 4445 128f 300B0000 		.4byte	0xb30
 4446 1293 0B       		.uleb128 0xb
 4447 1294 04       		.byte	0x4
 4448 1295 420C0000 		.4byte	0xc42
 4449 1299 0B       		.uleb128 0xb
 4450 129a 04       		.byte	0x4
 4451 129b B60B0000 		.4byte	0xbb6
 4452 129f 0B       		.uleb128 0xb
 4453 12a0 04       		.byte	0x4
 4454 12a1 BC0C0000 		.4byte	0xcbc
 4455 12a5 02       		.uleb128 0x2
 4456 12a6 89100000 		.4byte	.LASF325
 4457 12aa 17       		.byte	0x17
 4458 12ab 43       		.byte	0x43
 4459 12ac 0A110000 		.4byte	0x110a
 4460 12b0 02       		.uleb128 0x2
 4461 12b1 1D000000 		.4byte	.LASF326
 4462 12b5 19       		.byte	0x19
 4463 12b6 1D       		.byte	0x1d
 4464 12b7 B8000000 		.4byte	0xb8
 4465 12bb 05       		.uleb128 0x5
 4466 12bc 0C       		.byte	0xc
 4467 12bd 19       		.byte	0x19
 4468 12be 20       		.byte	0x20
 4469 12bf E8120000 		.4byte	0x12e8
 4470 12c3 07       		.uleb128 0x7
 4471 12c4 CD210000 		.4byte	.LASF327
 4472 12c8 19       		.byte	0x19
 4473 12c9 21       		.byte	0x21
 4474 12ca E4000000 		.4byte	0xe4
 4475 12ce 00       		.byte	0
 4476 12cf 07       		.uleb128 0x7
 4477 12d0 2E050000 		.4byte	.LASF328
 4478 12d4 19       		.byte	0x19
 4479 12d5 22       		.byte	0x22
 4480 12d6 E8120000 		.4byte	0x12e8
 4481 12da 04       		.byte	0x4
 4482 12db 07       		.uleb128 0x7
 4483 12dc 76000000 		.4byte	.LASF329
 4484 12e0 19       		.byte	0x19
 4485 12e1 23       		.byte	0x23
 4486 12e2 E8120000 		.4byte	0x12e8
 4487 12e6 08       		.byte	0x8
 4488 12e7 00       		.byte	0
 4489 12e8 0B       		.uleb128 0xb
 4490 12e9 04       		.byte	0x4
 4491 12ea B0120000 		.4byte	0x12b0
 4492 12ee 02       		.uleb128 0x2
 4493 12ef 031C0000 		.4byte	.LASF330
 4494 12f3 19       		.byte	0x19
 4495 12f4 24       		.byte	0x24
 4496 12f5 BB120000 		.4byte	0x12bb
 4497 12f9 0B       		.uleb128 0xb
 4498 12fa 04       		.byte	0x4
 4499 12fb 31080000 		.4byte	0x831
 4500 12ff 0A       		.uleb128 0xa
 4501 1300 D4210000 		.4byte	.LASF331
ARM GAS  C:\Users\haske\AppData\Local\Temp\cc4f9rxb.s 			page 101


 4502 1304 20       		.byte	0x20
 4503 1305 1A       		.byte	0x1a
 4504 1306 3B       		.byte	0x3b
 4505 1307 84130000 		.4byte	0x1384
 4506 130b 07       		.uleb128 0x7
 4507 130c 530F0000 		.4byte	.LASF332
 4508 1310 1A       		.byte	0x1a
 4509 1311 3C       		.byte	0x3c
 4510 1312 EE120000 		.4byte	0x12ee
 4511 1316 00       		.byte	0
 4512 1317 07       		.uleb128 0x7
 4513 1318 4E220000 		.4byte	.LASF333
 4514 131c 1A       		.byte	0x1a
 4515 131d 3D       		.byte	0x3d
 4516 131e F9120000 		.4byte	0x12f9
 4517 1322 0C       		.byte	0xc
 4518 1323 07       		.uleb128 0x7
 4519 1324 31160000 		.4byte	.LASF334
 4520 1328 1A       		.byte	0x1a
 4521 1329 3F       		.byte	0x3f
 4522 132a 5E160000 		.4byte	0x165e
 4523 132e 10       		.byte	0x10
 4524 132f 07       		.uleb128 0x7
 4525 1330 EF040000 		.4byte	.LASF335
 4526 1334 1A       		.byte	0x1a
 4527 1335 40       		.byte	0x40
 4528 1336 7A160000 		.4byte	0x167a
 4529 133a 14       		.byte	0x14
 4530 133b 07       		.uleb128 0x7
 4531 133c B91F0000 		.4byte	.LASF42
 4532 1340 1A       		.byte	0x1a
 4533 1341 45       		.byte	0x45
 4534 1342 E9020000 		.4byte	0x2e9
 4535 1346 18       		.byte	0x18
 4536 1347 09       		.uleb128 0x9
 4537 1348 7F050000 		.4byte	.LASF336
 4538 134c 1A       		.byte	0x1a
 4539 134d 48       		.byte	0x48
 4540 134e B8000000 		.4byte	0xb8
 4541 1352 01       		.byte	0x1
 4542 1353 01       		.byte	0x1
 4543 1354 07       		.byte	0x7
 4544 1355 1C       		.byte	0x1c
 4545 1356 09       		.uleb128 0x9
 4546 1357 F2120000 		.4byte	.LASF337
 4547 135b 1A       		.byte	0x1a
 4548 135c 49       		.byte	0x49
 4549 135d B8000000 		.4byte	0xb8
 4550 1361 01       		.byte	0x1
 4551 1362 01       		.byte	0x1
 4552 1363 06       		.byte	0x6
 4553 1364 1C       		.byte	0x1c
 4554 1365 09       		.uleb128 0x9
 4555 1366 CF200000 		.4byte	.LASF338
 4556 136a 1A       		.byte	0x1a
 4557 136b 4A       		.byte	0x4a
 4558 136c B8000000 		.4byte	0xb8
ARM GAS  C:\Users\haske\AppData\Local\Temp\cc4f9rxb.s 			page 102


 4559 1370 01       		.byte	0x1
 4560 1371 01       		.byte	0x1
 4561 1372 05       		.byte	0x5
 4562 1373 1C       		.byte	0x1c
 4563 1374 09       		.uleb128 0x9
 4564 1375 A0180000 		.4byte	.LASF339
 4565 1379 1A       		.byte	0x1a
 4566 137a 4C       		.byte	0x4c
 4567 137b B8000000 		.4byte	0xb8
 4568 137f 01       		.byte	0x1
 4569 1380 01       		.byte	0x1
 4570 1381 04       		.byte	0x4
 4571 1382 1C       		.byte	0x1c
 4572 1383 00       		.byte	0
 4573 1384 0B       		.uleb128 0xb
 4574 1385 04       		.byte	0x4
 4575 1386 FF120000 		.4byte	0x12ff
 4576 138a 02       		.uleb128 0x2
 4577 138b B5040000 		.4byte	.LASF340
 4578 138f 0F       		.byte	0xf
 4579 1390 3C       		.byte	0x3c
 4580 1391 CE000000 		.4byte	0xce
 4581 1395 11       		.uleb128 0x11
 4582 1396 04       		.byte	0x4
 4583 1397 A6000000 		.4byte	0xa6
 4584 139b 0F       		.byte	0xf
 4585 139c 44       		.byte	0x44
 4586 139d F9130000 		.4byte	0x13f9
 4587 13a1 12       		.uleb128 0x12
 4588 13a2 03170000 		.4byte	.LASF341
 4589 13a6 00       		.byte	0
 4590 13a7 20       		.uleb128 0x20
 4591 13a8 FA120000 		.4byte	.LASF342
 4592 13ac 00000100 		.4byte	0x10000
 4593 13b0 20       		.uleb128 0x20
 4594 13b1 E0120000 		.4byte	.LASF343
 4595 13b5 00000200 		.4byte	0x20000
 4596 13b9 20       		.uleb128 0x20
 4597 13ba 52100000 		.4byte	.LASF344
 4598 13be 00000300 		.4byte	0x30000
 4599 13c2 20       		.uleb128 0x20
 4600 13c3 00030000 		.4byte	.LASF345
 4601 13c7 00000400 		.4byte	0x40000
 4602 13cb 20       		.uleb128 0x20
 4603 13cc 65170000 		.4byte	.LASF346
 4604 13d0 00000500 		.4byte	0x50000
 4605 13d4 20       		.uleb128 0x20
 4606 13d5 FE1F0000 		.4byte	.LASF347
 4607 13d9 00000600 		.4byte	0x60000
 4608 13dd 20       		.uleb128 0x20
 4609 13de E81E0000 		.4byte	.LASF348
 4610 13e2 00000700 		.4byte	0x70000
 4611 13e6 20       		.uleb128 0x20
 4612 13e7 3B1D0000 		.4byte	.LASF349
 4613 13eb 00000800 		.4byte	0x80000
 4614 13ef 20       		.uleb128 0x20
 4615 13f0 EF0A0000 		.4byte	.LASF350
ARM GAS  C:\Users\haske\AppData\Local\Temp\cc4f9rxb.s 			page 103


 4616 13f4 00000F00 		.4byte	0xf0000
 4617 13f8 00       		.byte	0
 4618 13f9 02       		.uleb128 0x2
 4619 13fa F71E0000 		.4byte	.LASF351
 4620 13fe 0F       		.byte	0xf
 4621 13ff 7D       		.byte	0x7d
 4622 1400 E4000000 		.4byte	0xe4
 4623 1404 02       		.uleb128 0x2
 4624 1405 CB000000 		.4byte	.LASF352
 4625 1409 1B       		.byte	0x1b
 4626 140a 26       		.byte	0x26
 4627 140b B8000000 		.4byte	0xb8
 4628 140f 02       		.uleb128 0x2
 4629 1410 A4160000 		.4byte	.LASF353
 4630 1414 1B       		.byte	0x1b
 4631 1415 30       		.byte	0x30
 4632 1416 B8000000 		.4byte	0xb8
 4633 141a 05       		.uleb128 0x5
 4634 141b 08       		.byte	0x8
 4635 141c 1C       		.byte	0x1c
 4636 141d 27       		.byte	0x27
 4637 141e 5C140000 		.4byte	0x145c
 4638 1422 07       		.uleb128 0x7
 4639 1423 69160000 		.4byte	.LASF354
 4640 1427 1C       		.byte	0x1c
 4641 1428 28       		.byte	0x28
 4642 1429 5C140000 		.4byte	0x145c
 4643 142d 00       		.byte	0
 4644 142e 09       		.uleb128 0x9
 4645 142f 5F200000 		.4byte	.LASF355
 4646 1433 1C       		.byte	0x1c
 4647 1434 29       		.byte	0x29
 4648 1435 E4000000 		.4byte	0xe4
 4649 1439 04       		.byte	0x4
 4650 143a 18       		.byte	0x18
 4651 143b 08       		.byte	0x8
 4652 143c 04       		.byte	0x4
 4653 143d 09       		.uleb128 0x9
 4654 143e E6010000 		.4byte	.LASF356
 4655 1442 1C       		.byte	0x1c
 4656 1443 2A       		.byte	0x2a
 4657 1444 E4000000 		.4byte	0xe4
 4658 1448 04       		.byte	0x4
 4659 1449 01       		.byte	0x1
 4660 144a 07       		.byte	0x7
 4661 144b 04       		.byte	0x4
 4662 144c 09       		.uleb128 0x9
 4663 144d 9D0D0000 		.4byte	.LASF357
 4664 1451 1C       		.byte	0x1c
 4665 1452 2B       		.byte	0x2b
 4666 1453 E4000000 		.4byte	0xe4
 4667 1457 04       		.byte	0x4
 4668 1458 01       		.byte	0x1
 4669 1459 06       		.byte	0x6
 4670 145a 04       		.byte	0x4
 4671 145b 00       		.byte	0
 4672 145c 0B       		.uleb128 0xb
ARM GAS  C:\Users\haske\AppData\Local\Temp\cc4f9rxb.s 			page 104


 4673 145d 04       		.byte	0x4
 4674 145e F5070000 		.4byte	0x7f5
 4675 1462 02       		.uleb128 0x2
 4676 1463 070B0000 		.4byte	.LASF358
 4677 1467 1C       		.byte	0x1c
 4678 1468 2C       		.byte	0x2c
 4679 1469 1A140000 		.4byte	0x141a
 4680 146d 0B       		.uleb128 0xb
 4681 146e 04       		.byte	0x4
 4682 146f 73140000 		.4byte	0x1473
 4683 1473 0A       		.uleb128 0xa
 4684 1474 2B110000 		.4byte	.LASF359
 4685 1478 1C       		.byte	0x1c
 4686 1479 1D       		.byte	0x1d
 4687 147a 5E       		.byte	0x5e
 4688 147b F5140000 		.4byte	0x14f5
 4689 147f 07       		.uleb128 0x7
 4690 1480 C50E0000 		.4byte	.LASF360
 4691 1484 1D       		.byte	0x1d
 4692 1485 5F       		.byte	0x5f
 4693 1486 31080000 		.4byte	0x831
 4694 148a 00       		.byte	0
 4695 148b 07       		.uleb128 0x7
 4696 148c 10100000 		.4byte	.LASF361
 4697 1490 1D       		.byte	0x1d
 4698 1491 60       		.byte	0x60
 4699 1492 31080000 		.4byte	0x831
 4700 1496 04       		.byte	0x4
 4701 1497 07       		.uleb128 0x7
 4702 1498 B5160000 		.4byte	.LASF362
 4703 149c 1D       		.byte	0x1d
 4704 149d 61       		.byte	0x61
 4705 149e 53160000 		.4byte	0x1653
 4706 14a2 08       		.byte	0x8
 4707 14a3 07       		.uleb128 0x7
 4708 14a4 B91F0000 		.4byte	.LASF42
 4709 14a8 1D       		.byte	0x1d
 4710 14a9 62       		.byte	0x62
 4711 14aa E9020000 		.4byte	0x2e9
 4712 14ae 0C       		.byte	0xc
 4713 14af 07       		.uleb128 0x7
 4714 14b0 BF0E0000 		.4byte	.LASF363
 4715 14b4 1D       		.byte	0x1d
 4716 14b5 63       		.byte	0x63
 4717 14b6 E9020000 		.4byte	0x2e9
 4718 14ba 10       		.byte	0x10
 4719 14bb 07       		.uleb128 0x7
 4720 14bc A6210000 		.4byte	.LASF364
 4721 14c0 1D       		.byte	0x1d
 4722 14c1 64       		.byte	0x64
 4723 14c2 6D140000 		.4byte	0x146d
 4724 14c6 14       		.byte	0x14
 4725 14c7 09       		.uleb128 0x9
 4726 14c8 52110000 		.4byte	.LASF365
 4727 14cc 1D       		.byte	0x1d
 4728 14cd 65       		.byte	0x65
 4729 14ce B8000000 		.4byte	0xb8
ARM GAS  C:\Users\haske\AppData\Local\Temp\cc4f9rxb.s 			page 105


 4730 14d2 01       		.byte	0x1
 4731 14d3 01       		.byte	0x1
 4732 14d4 07       		.byte	0x7
 4733 14d5 18       		.byte	0x18
 4734 14d6 09       		.uleb128 0x9
 4735 14d7 84080000 		.4byte	.LASF366
 4736 14db 1D       		.byte	0x1d
 4737 14dc 66       		.byte	0x66
 4738 14dd B8000000 		.4byte	0xb8
 4739 14e1 01       		.byte	0x1
 4740 14e2 01       		.byte	0x1
 4741 14e3 06       		.byte	0x6
 4742 14e4 18       		.byte	0x18
 4743 14e5 09       		.uleb128 0x9
 4744 14e6 76150000 		.4byte	.LASF367
 4745 14ea 1D       		.byte	0x1d
 4746 14eb 67       		.byte	0x67
 4747 14ec B8000000 		.4byte	0xb8
 4748 14f0 01       		.byte	0x1
 4749 14f1 01       		.byte	0x1
 4750 14f2 05       		.byte	0x5
 4751 14f3 18       		.byte	0x18
 4752 14f4 00       		.byte	0
 4753 14f5 1F       		.uleb128 0x1f
 4754 14f6 05150000 		.4byte	0x1505
 4755 14fa 0E       		.uleb128 0xe
 4756 14fb 7C120000 		.4byte	0x127c
 4757 14ff 0E       		.uleb128 0xe
 4758 1500 31080000 		.4byte	0x831
 4759 1504 00       		.byte	0
 4760 1505 0B       		.uleb128 0xb
 4761 1506 04       		.byte	0x4
 4762 1507 F5140000 		.4byte	0x14f5
 4763 150b 1F       		.uleb128 0x1f
 4764 150c 1B150000 		.4byte	0x151b
 4765 1510 0E       		.uleb128 0xe
 4766 1511 7C120000 		.4byte	0x127c
 4767 1515 0E       		.uleb128 0xe
 4768 1516 6D140000 		.4byte	0x146d
 4769 151a 00       		.byte	0
 4770 151b 0B       		.uleb128 0xb
 4771 151c 04       		.byte	0x4
 4772 151d 0B150000 		.4byte	0x150b
 4773 1521 02       		.uleb128 0x2
 4774 1522 2F0D0000 		.4byte	.LASF368
 4775 1526 18       		.byte	0x18
 4776 1527 3F       		.byte	0x3f
 4777 1528 EE110000 		.4byte	0x11ee
 4778 152c 11       		.uleb128 0x11
 4779 152d 01       		.byte	0x1
 4780 152e 42000000 		.4byte	0x42
 4781 1532 1D       		.byte	0x1d
 4782 1533 20       		.byte	0x20
 4783 1534 53160000 		.4byte	0x1653
 4784 1538 12       		.uleb128 0x12
 4785 1539 24040000 		.4byte	.LASF369
 4786 153d 00       		.byte	0
ARM GAS  C:\Users\haske\AppData\Local\Temp\cc4f9rxb.s 			page 106


 4787 153e 12       		.uleb128 0x12
 4788 153f 44170000 		.4byte	.LASF370
 4789 1543 01       		.byte	0x1
 4790 1544 12       		.uleb128 0x12
 4791 1545 A8150000 		.4byte	.LASF371
 4792 1549 02       		.byte	0x2
 4793 154a 12       		.uleb128 0x12
 4794 154b C31F0000 		.4byte	.LASF372
 4795 154f 03       		.byte	0x3
 4796 1550 12       		.uleb128 0x12
 4797 1551 11030000 		.4byte	.LASF373
 4798 1555 04       		.byte	0x4
 4799 1556 12       		.uleb128 0x12
 4800 1557 81020000 		.4byte	.LASF374
 4801 155b 05       		.byte	0x5
 4802 155c 12       		.uleb128 0x12
 4803 155d 14160000 		.4byte	.LASF375
 4804 1561 06       		.byte	0x6
 4805 1562 12       		.uleb128 0x12
 4806 1563 EA0C0000 		.4byte	.LASF376
 4807 1567 07       		.byte	0x7
 4808 1568 12       		.uleb128 0x12
 4809 1569 F1210000 		.4byte	.LASF377
 4810 156d 08       		.byte	0x8
 4811 156e 12       		.uleb128 0x12
 4812 156f 8C1F0000 		.4byte	.LASF378
 4813 1573 09       		.byte	0x9
 4814 1574 12       		.uleb128 0x12
 4815 1575 D31D0000 		.4byte	.LASF379
 4816 1579 0A       		.byte	0xa
 4817 157a 12       		.uleb128 0x12
 4818 157b 60110000 		.4byte	.LASF380
 4819 157f 0B       		.byte	0xb
 4820 1580 12       		.uleb128 0x12
 4821 1581 69020000 		.4byte	.LASF381
 4822 1585 0C       		.byte	0xc
 4823 1586 12       		.uleb128 0x12
 4824 1587 741F0000 		.4byte	.LASF382
 4825 158b 0D       		.byte	0xd
 4826 158c 12       		.uleb128 0x12
 4827 158d 8F200000 		.4byte	.LASF383
 4828 1591 0E       		.byte	0xe
 4829 1592 12       		.uleb128 0x12
 4830 1593 061E0000 		.4byte	.LASF384
 4831 1597 0F       		.byte	0xf
 4832 1598 12       		.uleb128 0x12
 4833 1599 4A0E0000 		.4byte	.LASF385
 4834 159d 10       		.byte	0x10
 4835 159e 12       		.uleb128 0x12
 4836 159f 170A0000 		.4byte	.LASF386
 4837 15a3 11       		.byte	0x11
 4838 15a4 12       		.uleb128 0x12
 4839 15a5 7B090000 		.4byte	.LASF387
 4840 15a9 12       		.byte	0x12
 4841 15aa 12       		.uleb128 0x12
 4842 15ab 08090000 		.4byte	.LASF388
 4843 15af 13       		.byte	0x13
ARM GAS  C:\Users\haske\AppData\Local\Temp\cc4f9rxb.s 			page 107


 4844 15b0 12       		.uleb128 0x12
 4845 15b1 40000000 		.4byte	.LASF389
 4846 15b5 14       		.byte	0x14
 4847 15b6 12       		.uleb128 0x12
 4848 15b7 84060000 		.4byte	.LASF390
 4849 15bb 15       		.byte	0x15
 4850 15bc 12       		.uleb128 0x12
 4851 15bd 540D0000 		.4byte	.LASF391
 4852 15c1 16       		.byte	0x16
 4853 15c2 12       		.uleb128 0x12
 4854 15c3 56130000 		.4byte	.LASF392
 4855 15c7 17       		.byte	0x17
 4856 15c8 12       		.uleb128 0x12
 4857 15c9 CC1E0000 		.4byte	.LASF393
 4858 15cd 18       		.byte	0x18
 4859 15ce 12       		.uleb128 0x12
 4860 15cf 381C0000 		.4byte	.LASF394
 4861 15d3 19       		.byte	0x19
 4862 15d4 12       		.uleb128 0x12
 4863 15d5 4F1C0000 		.4byte	.LASF395
 4864 15d9 1A       		.byte	0x1a
 4865 15da 12       		.uleb128 0x12
 4866 15db 68050000 		.4byte	.LASF396
 4867 15df 1B       		.byte	0x1b
 4868 15e0 12       		.uleb128 0x12
 4869 15e1 79140000 		.4byte	.LASF397
 4870 15e5 1C       		.byte	0x1c
 4871 15e6 12       		.uleb128 0x12
 4872 15e7 25010000 		.4byte	.LASF398
 4873 15eb 1D       		.byte	0x1d
 4874 15ec 12       		.uleb128 0x12
 4875 15ed C00F0000 		.4byte	.LASF399
 4876 15f1 1E       		.byte	0x1e
 4877 15f2 12       		.uleb128 0x12
 4878 15f3 B31E0000 		.4byte	.LASF400
 4879 15f7 1F       		.byte	0x1f
 4880 15f8 12       		.uleb128 0x12
 4881 15f9 55170000 		.4byte	.LASF401
 4882 15fd 20       		.byte	0x20
 4883 15fe 12       		.uleb128 0x12
 4884 15ff 3E130000 		.4byte	.LASF402
 4885 1603 21       		.byte	0x21
 4886 1604 12       		.uleb128 0x12
 4887 1605 B4010000 		.4byte	.LASF403
 4888 1609 22       		.byte	0x22
 4889 160a 12       		.uleb128 0x12
 4890 160b D5020000 		.4byte	.LASF404
 4891 160f 23       		.byte	0x23
 4892 1610 12       		.uleb128 0x12
 4893 1611 1F100000 		.4byte	.LASF405
 4894 1615 24       		.byte	0x24
 4895 1616 12       		.uleb128 0x12
 4896 1617 33210000 		.4byte	.LASF406
 4897 161b 25       		.byte	0x25
 4898 161c 12       		.uleb128 0x12
 4899 161d 5B150000 		.4byte	.LASF407
 4900 1621 26       		.byte	0x26
ARM GAS  C:\Users\haske\AppData\Local\Temp\cc4f9rxb.s 			page 108


 4901 1622 12       		.uleb128 0x12
 4902 1623 D30A0000 		.4byte	.LASF408
 4903 1627 27       		.byte	0x27
 4904 1628 12       		.uleb128 0x12
 4905 1629 E3170000 		.4byte	.LASF409
 4906 162d 28       		.byte	0x28
 4907 162e 12       		.uleb128 0x12
 4908 162f 051F0000 		.4byte	.LASF410
 4909 1633 29       		.byte	0x29
 4910 1634 12       		.uleb128 0x12
 4911 1635 9C1E0000 		.4byte	.LASF411
 4912 1639 2A       		.byte	0x2a
 4913 163a 12       		.uleb128 0x12
 4914 163b 381F0000 		.4byte	.LASF412
 4915 163f 2B       		.byte	0x2b
 4916 1640 12       		.uleb128 0x12
 4917 1641 6D060000 		.4byte	.LASF413
 4918 1645 2C       		.byte	0x2c
 4919 1646 12       		.uleb128 0x12
 4920 1647 9B170000 		.4byte	.LASF414
 4921 164b 2D       		.byte	0x2d
 4922 164c 12       		.uleb128 0x12
 4923 164d 00150000 		.4byte	.LASF415
 4924 1651 80       		.byte	0x80
 4925 1652 00       		.byte	0
 4926 1653 02       		.uleb128 0x2
 4927 1654 F0100000 		.4byte	.LASF416
 4928 1658 1D       		.byte	0x1d
 4929 1659 5C       		.byte	0x5c
 4930 165a 2C150000 		.4byte	0x152c
 4931 165e 02       		.uleb128 0x2
 4932 165f 41180000 		.4byte	.LASF417
 4933 1663 1A       		.byte	0x1a
 4934 1664 34       		.byte	0x34
 4935 1665 69160000 		.4byte	0x1669
 4936 1669 0B       		.uleb128 0xb
 4937 166a 04       		.byte	0x4
 4938 166b 6F160000 		.4byte	0x166f
 4939 166f 1F       		.uleb128 0x1f
 4940 1670 7A160000 		.4byte	0x167a
 4941 1674 0E       		.uleb128 0xe
 4942 1675 84130000 		.4byte	0x1384
 4943 1679 00       		.byte	0
 4944 167a 02       		.uleb128 0x2
 4945 167b 3E120000 		.4byte	.LASF418
 4946 167f 1A       		.byte	0x1a
 4947 1680 35       		.byte	0x35
 4948 1681 85160000 		.4byte	0x1685
 4949 1685 0B       		.uleb128 0xb
 4950 1686 04       		.byte	0x4
 4951 1687 8B160000 		.4byte	0x168b
 4952 168b 1F       		.uleb128 0x1f
 4953 168c 9B160000 		.4byte	0x169b
 4954 1690 0E       		.uleb128 0xe
 4955 1691 84130000 		.4byte	0x1384
 4956 1695 0E       		.uleb128 0xe
 4957 1696 AA020000 		.4byte	0x2aa
ARM GAS  C:\Users\haske\AppData\Local\Temp\cc4f9rxb.s 			page 109


 4958 169a 00       		.byte	0
 4959 169b 02       		.uleb128 0x2
 4960 169c 07070000 		.4byte	.LASF419
 4961 16a0 1A       		.byte	0x1a
 4962 16a1 4E       		.byte	0x4e
 4963 16a2 FF120000 		.4byte	0x12ff
 4964 16a6 05       		.uleb128 0x5
 4965 16a7 1C       		.byte	0x1c
 4966 16a8 0F       		.byte	0xf
 4967 16a9 9B       		.byte	0x9b
 4968 16aa 5D170000 		.4byte	0x175d
 4969 16ae 07       		.uleb128 0x7
 4970 16af 70110000 		.4byte	.LASF420
 4971 16b3 0F       		.byte	0xf
 4972 16b4 9C       		.byte	0x9c
 4973 16b5 F9120000 		.4byte	0x12f9
 4974 16b9 00       		.byte	0
 4975 16ba 07       		.uleb128 0x7
 4976 16bb B4060000 		.4byte	.LASF421
 4977 16bf 0F       		.byte	0xf
 4978 16c0 9D       		.byte	0x9d
 4979 16c1 E4000000 		.4byte	0xe4
 4980 16c5 04       		.byte	0x4
 4981 16c6 07       		.uleb128 0x7
 4982 16c7 8F0B0000 		.4byte	.LASF422
 4983 16cb 0F       		.byte	0xf
 4984 16cc 9E       		.byte	0x9e
 4985 16cd 5D170000 		.4byte	0x175d
 4986 16d1 08       		.byte	0x8
 4987 16d2 07       		.uleb128 0x7
 4988 16d3 230B0000 		.4byte	.LASF423
 4989 16d7 0F       		.byte	0xf
 4990 16d8 A0       		.byte	0xa0
 4991 16d9 68170000 		.4byte	0x1768
 4992 16dd 0C       		.byte	0xc
 4993 16de 07       		.uleb128 0x7
 4994 16df B30B0000 		.4byte	.LASF424
 4995 16e3 0F       		.byte	0xf
 4996 16e4 A1       		.byte	0xa1
 4997 16e5 29010000 		.4byte	0x129
 4998 16e9 10       		.byte	0x10
 4999 16ea 07       		.uleb128 0x7
 5000 16eb AD1C0000 		.4byte	.LASF425
 5001 16ef 0F       		.byte	0xf
 5002 16f0 A3       		.byte	0xa3
 5003 16f1 01010000 		.4byte	0x101
 5004 16f5 14       		.byte	0x14
 5005 16f6 07       		.uleb128 0x7
 5006 16f7 790C0000 		.4byte	.LASF426
 5007 16fb 0F       		.byte	0xf
 5008 16fc A4       		.byte	0xa4
 5009 16fd 01010000 		.4byte	0x101
 5010 1701 16       		.byte	0x16
 5011 1702 09       		.uleb128 0x9
 5012 1703 B0070000 		.4byte	.LASF427
 5013 1707 0F       		.byte	0xf
 5014 1708 A6       		.byte	0xa6
ARM GAS  C:\Users\haske\AppData\Local\Temp\cc4f9rxb.s 			page 110


 5015 1709 04140000 		.4byte	0x1404
 5016 170d 01       		.byte	0x1
 5017 170e 02       		.byte	0x2
 5018 170f 06       		.byte	0x6
 5019 1710 18       		.byte	0x18
 5020 1711 09       		.uleb128 0x9
 5021 1712 89010000 		.4byte	.LASF428
 5022 1716 0F       		.byte	0xf
 5023 1717 A7       		.byte	0xa7
 5024 1718 0F140000 		.4byte	0x140f
 5025 171c 01       		.byte	0x1
 5026 171d 02       		.byte	0x2
 5027 171e 04       		.byte	0x4
 5028 171f 18       		.byte	0x18
 5029 1720 09       		.uleb128 0x9
 5030 1721 6B0E0000 		.4byte	.LASF429
 5031 1725 0F       		.byte	0xf
 5032 1726 A8       		.byte	0xa8
 5033 1727 0F140000 		.4byte	0x140f
 5034 172b 01       		.byte	0x1
 5035 172c 02       		.byte	0x2
 5036 172d 02       		.byte	0x2
 5037 172e 18       		.byte	0x18
 5038 172f 09       		.uleb128 0x9
 5039 1730 4E040000 		.4byte	.LASF430
 5040 1734 0F       		.byte	0xf
 5041 1735 A9       		.byte	0xa9
 5042 1736 74010000 		.4byte	0x174
 5043 173a 01       		.byte	0x1
 5044 173b 04       		.byte	0x4
 5045 173c 04       		.byte	0x4
 5046 173d 19       		.byte	0x19
 5047 173e 09       		.uleb128 0x9
 5048 173f 73220000 		.4byte	.LASF431
 5049 1743 0F       		.byte	0xf
 5050 1744 AA       		.byte	0xaa
 5051 1745 B8000000 		.4byte	0xb8
 5052 1749 01       		.byte	0x1
 5053 174a 06       		.byte	0x6
 5054 174b 02       		.byte	0x2
 5055 174c 1A       		.byte	0x1a
 5056 174d 09       		.uleb128 0x9
 5057 174e 10010000 		.4byte	.LASF432
 5058 1752 0F       		.byte	0xf
 5059 1753 AB       		.byte	0xab
 5060 1754 B8000000 		.4byte	0xb8
 5061 1758 01       		.byte	0x1
 5062 1759 02       		.byte	0x2
 5063 175a 00       		.byte	0
 5064 175b 1A       		.byte	0x1a
 5065 175c 00       		.byte	0
 5066 175d 0B       		.uleb128 0xb
 5067 175e 04       		.byte	0x4
 5068 175f 9B160000 		.4byte	0x169b
 5069 1763 21       		.uleb128 0x21
 5070 1764 D71F0000 		.4byte	.LASF521
 5071 1768 0B       		.uleb128 0xb
ARM GAS  C:\Users\haske\AppData\Local\Temp\cc4f9rxb.s 			page 111


 5072 1769 04       		.byte	0x4
 5073 176a 63170000 		.4byte	0x1763
 5074 176e 02       		.uleb128 0x2
 5075 176f 12070000 		.4byte	.LASF433
 5076 1773 0F       		.byte	0xf
 5077 1774 AC       		.byte	0xac
 5078 1775 A6160000 		.4byte	0x16a6
 5079 1779 0B       		.uleb128 0xb
 5080 177a 04       		.byte	0x4
 5081 177b 7F170000 		.4byte	0x177f
 5082 177f 0C       		.uleb128 0xc
 5083 1780 21150000 		.4byte	0x1521
 5084 1784 0B       		.uleb128 0xb
 5085 1785 04       		.byte	0x4
 5086 1786 6E170000 		.4byte	0x176e
 5087 178a 0B       		.uleb128 0xb
 5088 178b 04       		.byte	0x4
 5089 178c 62140000 		.4byte	0x1462
 5090 1790 02       		.uleb128 0x2
 5091 1791 211E0000 		.4byte	.LASF434
 5092 1795 0F       		.byte	0xf
 5093 1796 BF       		.byte	0xbf
 5094 1797 37080000 		.4byte	0x837
 5095 179b 0B       		.uleb128 0xb
 5096 179c 04       		.byte	0x4
 5097 179d 90170000 		.4byte	0x1790
 5098 17a1 22       		.uleb128 0x22
 5099 17a2 6F120000 		.4byte	.LASF435
 5100 17a6 02       		.byte	0x2
 5101 17a7 F901     		.2byte	0x1f9
 5102 17a9 DA030000 		.4byte	0x3da
 5103 17ad 03       		.byte	0x3
 5104 17ae D5170000 		.4byte	0x17d5
 5105 17b2 23       		.uleb128 0x23
 5106 17b3 6F626A00 		.ascii	"obj\000"
 5107 17b7 02       		.byte	0x2
 5108 17b8 F901     		.2byte	0x1f9
 5109 17ba D5170000 		.4byte	0x17d5
 5110 17be 24       		.uleb128 0x24
 5111 17bf A1210000 		.4byte	.LASF313
 5112 17c3 02       		.byte	0x2
 5113 17c4 F901     		.2byte	0x1f9
 5114 17c6 E4000000 		.4byte	0xe4
 5115 17ca 25       		.uleb128 0x25
 5116 17cb 7600     		.ascii	"v\000"
 5117 17cd 02       		.byte	0x2
 5118 17ce FB01     		.2byte	0x1fb
 5119 17d0 0C050000 		.4byte	0x50c
 5120 17d4 00       		.byte	0
 5121 17d5 0B       		.uleb128 0xb
 5122 17d6 04       		.byte	0x4
 5123 17d7 DB170000 		.4byte	0x17db
 5124 17db 0C       		.uleb128 0xc
 5125 17dc 37080000 		.4byte	0x837
 5126 17e0 22       		.uleb128 0x22
 5127 17e1 A21A0000 		.4byte	.LASF436
 5128 17e5 02       		.byte	0x2
ARM GAS  C:\Users\haske\AppData\Local\Temp\cc4f9rxb.s 			page 112


 5129 17e6 2302     		.2byte	0x223
 5130 17e8 06040000 		.4byte	0x406
 5131 17ec 03       		.byte	0x3
 5132 17ed 14180000 		.4byte	0x1814
 5133 17f1 23       		.uleb128 0x23
 5134 17f2 6F626A00 		.ascii	"obj\000"
 5135 17f6 02       		.byte	0x2
 5136 17f7 2302     		.2byte	0x223
 5137 17f9 D5170000 		.4byte	0x17d5
 5138 17fd 24       		.uleb128 0x24
 5139 17fe A1210000 		.4byte	.LASF313
 5140 1802 02       		.byte	0x2
 5141 1803 2302     		.2byte	0x223
 5142 1805 E4000000 		.4byte	0xe4
 5143 1809 25       		.uleb128 0x25
 5144 180a 7600     		.ascii	"v\000"
 5145 180c 02       		.byte	0x2
 5146 180d 2502     		.2byte	0x225
 5147 180f 0C050000 		.4byte	0x50c
 5148 1813 00       		.byte	0
 5149 1814 22       		.uleb128 0x22
 5150 1815 CD040000 		.4byte	.LASF437
 5151 1819 02       		.byte	0x2
 5152 181a ED01     		.2byte	0x1ed
 5153 181c 01010000 		.4byte	0x101
 5154 1820 03       		.byte	0x3
 5155 1821 48180000 		.4byte	0x1848
 5156 1825 23       		.uleb128 0x23
 5157 1826 6F626A00 		.ascii	"obj\000"
 5158 182a 02       		.byte	0x2
 5159 182b ED01     		.2byte	0x1ed
 5160 182d D5170000 		.4byte	0x17d5
 5161 1831 24       		.uleb128 0x24
 5162 1832 A1210000 		.4byte	.LASF313
 5163 1836 02       		.byte	0x2
 5164 1837 ED01     		.2byte	0x1ed
 5165 1839 E4000000 		.4byte	0xe4
 5166 183d 25       		.uleb128 0x25
 5167 183e 7600     		.ascii	"v\000"
 5168 1840 02       		.byte	0x2
 5169 1841 EF01     		.2byte	0x1ef
 5170 1843 0C050000 		.4byte	0x50c
 5171 1847 00       		.byte	0
 5172 1848 26       		.uleb128 0x26
 5173 1849 63090000 		.4byte	.LASF438
 5174 184d 02       		.byte	0x2
 5175 184e 97       		.byte	0x97
 5176 184f DA030000 		.4byte	0x3da
 5177 1853 03       		.byte	0x3
 5178 1854 78180000 		.4byte	0x1878
 5179 1858 27       		.uleb128 0x27
 5180 1859 6F626A00 		.ascii	"obj\000"
 5181 185d 02       		.byte	0x2
 5182 185e 97       		.byte	0x97
 5183 185f D5170000 		.4byte	0x17d5
 5184 1863 28       		.uleb128 0x28
 5185 1864 A1210000 		.4byte	.LASF313
ARM GAS  C:\Users\haske\AppData\Local\Temp\cc4f9rxb.s 			page 113


 5186 1868 02       		.byte	0x2
 5187 1869 97       		.byte	0x97
 5188 186a E4000000 		.4byte	0xe4
 5189 186e 29       		.uleb128 0x29
 5190 186f 7600     		.ascii	"v\000"
 5191 1871 02       		.byte	0x2
 5192 1872 99       		.byte	0x99
 5193 1873 0C050000 		.4byte	0x50c
 5194 1877 00       		.byte	0
 5195 1878 26       		.uleb128 0x26
 5196 1879 E50F0000 		.4byte	.LASF439
 5197 187d 02       		.byte	0x2
 5198 187e BB       		.byte	0xbb
 5199 187f A8180000 		.4byte	0x18a8
 5200 1883 03       		.byte	0x3
 5201 1884 A8180000 		.4byte	0x18a8
 5202 1888 27       		.uleb128 0x27
 5203 1889 6F626A00 		.ascii	"obj\000"
 5204 188d 02       		.byte	0x2
 5205 188e BB       		.byte	0xbb
 5206 188f D5170000 		.4byte	0x17d5
 5207 1893 28       		.uleb128 0x28
 5208 1894 A1210000 		.4byte	.LASF313
 5209 1898 02       		.byte	0x2
 5210 1899 BB       		.byte	0xbb
 5211 189a E4000000 		.4byte	0xe4
 5212 189e 29       		.uleb128 0x29
 5213 189f 7600     		.ascii	"v\000"
 5214 18a1 02       		.byte	0x2
 5215 18a2 BD       		.byte	0xbd
 5216 18a3 0C050000 		.4byte	0x50c
 5217 18a7 00       		.byte	0
 5218 18a8 0B       		.uleb128 0xb
 5219 18a9 04       		.byte	0x4
 5220 18aa AE180000 		.4byte	0x18ae
 5221 18ae 0C       		.uleb128 0xc
 5222 18af D7040000 		.4byte	0x4d7
 5223 18b3 26       		.uleb128 0x26
 5224 18b4 97020000 		.4byte	.LASF440
 5225 18b8 02       		.byte	0x2
 5226 18b9 A9       		.byte	0xa9
 5227 18ba 46040000 		.4byte	0x446
 5228 18be 03       		.byte	0x3
 5229 18bf E3180000 		.4byte	0x18e3
 5230 18c3 27       		.uleb128 0x27
 5231 18c4 6F626A00 		.ascii	"obj\000"
 5232 18c8 02       		.byte	0x2
 5233 18c9 A9       		.byte	0xa9
 5234 18ca D5170000 		.4byte	0x17d5
 5235 18ce 28       		.uleb128 0x28
 5236 18cf A1210000 		.4byte	.LASF313
 5237 18d3 02       		.byte	0x2
 5238 18d4 A9       		.byte	0xa9
 5239 18d5 E4000000 		.4byte	0xe4
 5240 18d9 29       		.uleb128 0x29
 5241 18da 7600     		.ascii	"v\000"
 5242 18dc 02       		.byte	0x2
ARM GAS  C:\Users\haske\AppData\Local\Temp\cc4f9rxb.s 			page 114


 5243 18dd AB       		.byte	0xab
 5244 18de 0C050000 		.4byte	0x50c
 5245 18e2 00       		.byte	0
 5246 18e3 26       		.uleb128 0x26
 5247 18e4 A80C0000 		.4byte	.LASF441
 5248 18e8 02       		.byte	0x2
 5249 18e9 B5       		.byte	0xb5
 5250 18ea 01010000 		.4byte	0x101
 5251 18ee 03       		.byte	0x3
 5252 18ef 13190000 		.4byte	0x1913
 5253 18f3 27       		.uleb128 0x27
 5254 18f4 6F626A00 		.ascii	"obj\000"
 5255 18f8 02       		.byte	0x2
 5256 18f9 B5       		.byte	0xb5
 5257 18fa D5170000 		.4byte	0x17d5
 5258 18fe 28       		.uleb128 0x28
 5259 18ff A1210000 		.4byte	.LASF313
 5260 1903 02       		.byte	0x2
 5261 1904 B5       		.byte	0xb5
 5262 1905 E4000000 		.4byte	0xe4
 5263 1909 29       		.uleb128 0x29
 5264 190a 7600     		.ascii	"v\000"
 5265 190c 02       		.byte	0x2
 5266 190d B7       		.byte	0xb7
 5267 190e 0C050000 		.4byte	0x50c
 5268 1912 00       		.byte	0
 5269 1913 26       		.uleb128 0x26
 5270 1914 20130000 		.4byte	.LASF442
 5271 1918 02       		.byte	0x2
 5272 1919 AF       		.byte	0xaf
 5273 191a 01010000 		.4byte	0x101
 5274 191e 03       		.byte	0x3
 5275 191f 43190000 		.4byte	0x1943
 5276 1923 27       		.uleb128 0x27
 5277 1924 6F626A00 		.ascii	"obj\000"
 5278 1928 02       		.byte	0x2
 5279 1929 AF       		.byte	0xaf
 5280 192a D5170000 		.4byte	0x17d5
 5281 192e 28       		.uleb128 0x28
 5282 192f A1210000 		.4byte	.LASF313
 5283 1933 02       		.byte	0x2
 5284 1934 AF       		.byte	0xaf
 5285 1935 E4000000 		.4byte	0xe4
 5286 1939 29       		.uleb128 0x29
 5287 193a 7600     		.ascii	"v\000"
 5288 193c 02       		.byte	0x2
 5289 193d B1       		.byte	0xb1
 5290 193e 0C050000 		.4byte	0x50c
 5291 1942 00       		.byte	0
 5292 1943 26       		.uleb128 0x26
 5293 1944 92110000 		.4byte	.LASF443
 5294 1948 02       		.byte	0x2
 5295 1949 C1       		.byte	0xc1
 5296 194a 51040000 		.4byte	0x451
 5297 194e 03       		.byte	0x3
 5298 194f 73190000 		.4byte	0x1973
 5299 1953 27       		.uleb128 0x27
ARM GAS  C:\Users\haske\AppData\Local\Temp\cc4f9rxb.s 			page 115


 5300 1954 6F626A00 		.ascii	"obj\000"
 5301 1958 02       		.byte	0x2
 5302 1959 C1       		.byte	0xc1
 5303 195a D5170000 		.4byte	0x17d5
 5304 195e 28       		.uleb128 0x28
 5305 195f A1210000 		.4byte	.LASF313
 5306 1963 02       		.byte	0x2
 5307 1964 C1       		.byte	0xc1
 5308 1965 E4000000 		.4byte	0xe4
 5309 1969 29       		.uleb128 0x29
 5310 196a 7600     		.ascii	"v\000"
 5311 196c 02       		.byte	0x2
 5312 196d C3       		.byte	0xc3
 5313 196e 0C050000 		.4byte	0x50c
 5314 1972 00       		.byte	0
 5315 1973 26       		.uleb128 0x26
 5316 1974 910F0000 		.4byte	.LASF444
 5317 1978 02       		.byte	0x2
 5318 1979 FD       		.byte	0xfd
 5319 197a 01010000 		.4byte	0x101
 5320 197e 03       		.byte	0x3
 5321 197f A3190000 		.4byte	0x19a3
 5322 1983 27       		.uleb128 0x27
 5323 1984 6F626A00 		.ascii	"obj\000"
 5324 1988 02       		.byte	0x2
 5325 1989 FD       		.byte	0xfd
 5326 198a D5170000 		.4byte	0x17d5
 5327 198e 28       		.uleb128 0x28
 5328 198f A1210000 		.4byte	.LASF313
 5329 1993 02       		.byte	0x2
 5330 1994 FD       		.byte	0xfd
 5331 1995 E4000000 		.4byte	0xe4
 5332 1999 29       		.uleb128 0x29
 5333 199a 7600     		.ascii	"v\000"
 5334 199c 02       		.byte	0x2
 5335 199d FF       		.byte	0xff
 5336 199e 0C050000 		.4byte	0x50c
 5337 19a2 00       		.byte	0
 5338 19a3 26       		.uleb128 0x26
 5339 19a4 E91C0000 		.4byte	.LASF445
 5340 19a8 02       		.byte	0x2
 5341 19a9 F7       		.byte	0xf7
 5342 19aa DA030000 		.4byte	0x3da
 5343 19ae 03       		.byte	0x3
 5344 19af D3190000 		.4byte	0x19d3
 5345 19b3 27       		.uleb128 0x27
 5346 19b4 6F626A00 		.ascii	"obj\000"
 5347 19b8 02       		.byte	0x2
 5348 19b9 F7       		.byte	0xf7
 5349 19ba D5170000 		.4byte	0x17d5
 5350 19be 28       		.uleb128 0x28
 5351 19bf A1210000 		.4byte	.LASF313
 5352 19c3 02       		.byte	0x2
 5353 19c4 F7       		.byte	0xf7
 5354 19c5 E4000000 		.4byte	0xe4
 5355 19c9 29       		.uleb128 0x29
 5356 19ca 7600     		.ascii	"v\000"
ARM GAS  C:\Users\haske\AppData\Local\Temp\cc4f9rxb.s 			page 116


 5357 19cc 02       		.byte	0x2
 5358 19cd F9       		.byte	0xf9
 5359 19ce 0C050000 		.4byte	0x50c
 5360 19d2 00       		.byte	0
 5361 19d3 22       		.uleb128 0x22
 5362 19d4 641A0000 		.4byte	.LASF446
 5363 19d8 02       		.byte	0x2
 5364 19d9 0301     		.2byte	0x103
 5365 19db 1C040000 		.4byte	0x41c
 5366 19df 03       		.byte	0x3
 5367 19e0 071A0000 		.4byte	0x1a07
 5368 19e4 23       		.uleb128 0x23
 5369 19e5 6F626A00 		.ascii	"obj\000"
 5370 19e9 02       		.byte	0x2
 5371 19ea 0301     		.2byte	0x103
 5372 19ec D5170000 		.4byte	0x17d5
 5373 19f0 24       		.uleb128 0x24
 5374 19f1 A1210000 		.4byte	.LASF313
 5375 19f5 02       		.byte	0x2
 5376 19f6 0301     		.2byte	0x103
 5377 19f8 E4000000 		.4byte	0xe4
 5378 19fc 25       		.uleb128 0x25
 5379 19fd 7600     		.ascii	"v\000"
 5380 19ff 02       		.byte	0x2
 5381 1a00 0501     		.2byte	0x105
 5382 1a02 0C050000 		.4byte	0x50c
 5383 1a06 00       		.byte	0
 5384 1a07 22       		.uleb128 0x22
 5385 1a08 CE140000 		.4byte	.LASF447
 5386 1a0c 02       		.byte	0x2
 5387 1a0d 0F01     		.2byte	0x10f
 5388 1a0f 01010000 		.4byte	0x101
 5389 1a13 03       		.byte	0x3
 5390 1a14 3B1A0000 		.4byte	0x1a3b
 5391 1a18 23       		.uleb128 0x23
 5392 1a19 6F626A00 		.ascii	"obj\000"
 5393 1a1d 02       		.byte	0x2
 5394 1a1e 0F01     		.2byte	0x10f
 5395 1a20 D5170000 		.4byte	0x17d5
 5396 1a24 24       		.uleb128 0x24
 5397 1a25 A1210000 		.4byte	.LASF313
 5398 1a29 02       		.byte	0x2
 5399 1a2a 0F01     		.2byte	0x10f
 5400 1a2c E4000000 		.4byte	0xe4
 5401 1a30 25       		.uleb128 0x25
 5402 1a31 7600     		.ascii	"v\000"
 5403 1a33 02       		.byte	0x2
 5404 1a34 1101     		.2byte	0x111
 5405 1a36 0C050000 		.4byte	0x50c
 5406 1a3a 00       		.byte	0
 5407 1a3b 22       		.uleb128 0x22
 5408 1a3c 97060000 		.4byte	.LASF448
 5409 1a40 02       		.byte	0x2
 5410 1a41 2101     		.2byte	0x121
 5411 1a43 DA030000 		.4byte	0x3da
 5412 1a47 03       		.byte	0x3
 5413 1a48 6F1A0000 		.4byte	0x1a6f
ARM GAS  C:\Users\haske\AppData\Local\Temp\cc4f9rxb.s 			page 117


 5414 1a4c 23       		.uleb128 0x23
 5415 1a4d 6F626A00 		.ascii	"obj\000"
 5416 1a51 02       		.byte	0x2
 5417 1a52 2101     		.2byte	0x121
 5418 1a54 D5170000 		.4byte	0x17d5
 5419 1a58 24       		.uleb128 0x24
 5420 1a59 A1210000 		.4byte	.LASF313
 5421 1a5d 02       		.byte	0x2
 5422 1a5e 2101     		.2byte	0x121
 5423 1a60 E4000000 		.4byte	0xe4
 5424 1a64 25       		.uleb128 0x25
 5425 1a65 7600     		.ascii	"v\000"
 5426 1a67 02       		.byte	0x2
 5427 1a68 2301     		.2byte	0x123
 5428 1a6a 0C050000 		.4byte	0x50c
 5429 1a6e 00       		.byte	0
 5430 1a6f 22       		.uleb128 0x22
 5431 1a70 90140000 		.4byte	.LASF449
 5432 1a74 02       		.byte	0x2
 5433 1a75 2701     		.2byte	0x127
 5434 1a77 01010000 		.4byte	0x101
 5435 1a7b 03       		.byte	0x3
 5436 1a7c A31A0000 		.4byte	0x1aa3
 5437 1a80 23       		.uleb128 0x23
 5438 1a81 6F626A00 		.ascii	"obj\000"
 5439 1a85 02       		.byte	0x2
 5440 1a86 2701     		.2byte	0x127
 5441 1a88 D5170000 		.4byte	0x17d5
 5442 1a8c 24       		.uleb128 0x24
 5443 1a8d A1210000 		.4byte	.LASF313
 5444 1a91 02       		.byte	0x2
 5445 1a92 2701     		.2byte	0x127
 5446 1a94 E4000000 		.4byte	0xe4
 5447 1a98 25       		.uleb128 0x25
 5448 1a99 7600     		.ascii	"v\000"
 5449 1a9b 02       		.byte	0x2
 5450 1a9c 2901     		.2byte	0x129
 5451 1a9e 0C050000 		.4byte	0x50c
 5452 1aa2 00       		.byte	0
 5453 1aa3 26       		.uleb128 0x26
 5454 1aa4 AD190000 		.4byte	.LASF450
 5455 1aa8 02       		.byte	0x2
 5456 1aa9 C7       		.byte	0xc7
 5457 1aaa E2020000 		.4byte	0x2e2
 5458 1aae 03       		.byte	0x3
 5459 1aaf D31A0000 		.4byte	0x1ad3
 5460 1ab3 27       		.uleb128 0x27
 5461 1ab4 6F626A00 		.ascii	"obj\000"
 5462 1ab8 02       		.byte	0x2
 5463 1ab9 C7       		.byte	0xc7
 5464 1aba D5170000 		.4byte	0x17d5
 5465 1abe 28       		.uleb128 0x28
 5466 1abf A1210000 		.4byte	.LASF313
 5467 1ac3 02       		.byte	0x2
 5468 1ac4 C7       		.byte	0xc7
 5469 1ac5 E4000000 		.4byte	0xe4
 5470 1ac9 29       		.uleb128 0x29
ARM GAS  C:\Users\haske\AppData\Local\Temp\cc4f9rxb.s 			page 118


 5471 1aca 7600     		.ascii	"v\000"
 5472 1acc 02       		.byte	0x2
 5473 1acd C9       		.byte	0xc9
 5474 1ace 0C050000 		.4byte	0x50c
 5475 1ad2 00       		.byte	0
 5476 1ad3 26       		.uleb128 0x26
 5477 1ad4 43200000 		.4byte	.LASF451
 5478 1ad8 02       		.byte	0x2
 5479 1ad9 CD       		.byte	0xcd
 5480 1ada DA030000 		.4byte	0x3da
 5481 1ade 03       		.byte	0x3
 5482 1adf 031B0000 		.4byte	0x1b03
 5483 1ae3 27       		.uleb128 0x27
 5484 1ae4 6F626A00 		.ascii	"obj\000"
 5485 1ae8 02       		.byte	0x2
 5486 1ae9 CD       		.byte	0xcd
 5487 1aea D5170000 		.4byte	0x17d5
 5488 1aee 28       		.uleb128 0x28
 5489 1aef A1210000 		.4byte	.LASF313
 5490 1af3 02       		.byte	0x2
 5491 1af4 CD       		.byte	0xcd
 5492 1af5 E4000000 		.4byte	0xe4
 5493 1af9 29       		.uleb128 0x29
 5494 1afa 7600     		.ascii	"v\000"
 5495 1afc 02       		.byte	0x2
 5496 1afd CF       		.byte	0xcf
 5497 1afe 0C050000 		.4byte	0x50c
 5498 1b02 00       		.byte	0
 5499 1b03 22       		.uleb128 0x22
 5500 1b04 9A040000 		.4byte	.LASF452
 5501 1b08 02       		.byte	0x2
 5502 1b09 CF01     		.2byte	0x1cf
 5503 1b0b 250B0000 		.4byte	0xb25
 5504 1b0f 03       		.byte	0x3
 5505 1b10 371B0000 		.4byte	0x1b37
 5506 1b14 23       		.uleb128 0x23
 5507 1b15 6F626A00 		.ascii	"obj\000"
 5508 1b19 02       		.byte	0x2
 5509 1b1a CF01     		.2byte	0x1cf
 5510 1b1c D5170000 		.4byte	0x17d5
 5511 1b20 24       		.uleb128 0x24
 5512 1b21 A1210000 		.4byte	.LASF313
 5513 1b25 02       		.byte	0x2
 5514 1b26 CF01     		.2byte	0x1cf
 5515 1b28 E4000000 		.4byte	0xe4
 5516 1b2c 25       		.uleb128 0x25
 5517 1b2d 7600     		.ascii	"v\000"
 5518 1b2f 02       		.byte	0x2
 5519 1b30 D101     		.2byte	0x1d1
 5520 1b32 0C050000 		.4byte	0x50c
 5521 1b36 00       		.byte	0
 5522 1b37 26       		.uleb128 0x26
 5523 1b38 D3080000 		.4byte	.LASF453
 5524 1b3c 02       		.byte	0x2
 5525 1b3d E5       		.byte	0xe5
 5526 1b3e AA020000 		.4byte	0x2aa
 5527 1b42 03       		.byte	0x3
ARM GAS  C:\Users\haske\AppData\Local\Temp\cc4f9rxb.s 			page 119


 5528 1b43 671B0000 		.4byte	0x1b67
 5529 1b47 27       		.uleb128 0x27
 5530 1b48 6F626A00 		.ascii	"obj\000"
 5531 1b4c 02       		.byte	0x2
 5532 1b4d E5       		.byte	0xe5
 5533 1b4e D5170000 		.4byte	0x17d5
 5534 1b52 28       		.uleb128 0x28
 5535 1b53 A1210000 		.4byte	.LASF313
 5536 1b57 02       		.byte	0x2
 5537 1b58 E5       		.byte	0xe5
 5538 1b59 E4000000 		.4byte	0xe4
 5539 1b5d 29       		.uleb128 0x29
 5540 1b5e 7600     		.ascii	"v\000"
 5541 1b60 02       		.byte	0x2
 5542 1b61 E7       		.byte	0xe7
 5543 1b62 0C050000 		.4byte	0x50c
 5544 1b66 00       		.byte	0
 5545 1b67 26       		.uleb128 0x26
 5546 1b68 80160000 		.4byte	.LASF454
 5547 1b6c 02       		.byte	0x2
 5548 1b6d DF       		.byte	0xdf
 5549 1b6e DA030000 		.4byte	0x3da
 5550 1b72 03       		.byte	0x3
 5551 1b73 971B0000 		.4byte	0x1b97
 5552 1b77 27       		.uleb128 0x27
 5553 1b78 6F626A00 		.ascii	"obj\000"
 5554 1b7c 02       		.byte	0x2
 5555 1b7d DF       		.byte	0xdf
 5556 1b7e D5170000 		.4byte	0x17d5
 5557 1b82 28       		.uleb128 0x28
 5558 1b83 A1210000 		.4byte	.LASF313
 5559 1b87 02       		.byte	0x2
 5560 1b88 DF       		.byte	0xdf
 5561 1b89 E4000000 		.4byte	0xe4
 5562 1b8d 29       		.uleb128 0x29
 5563 1b8e 7600     		.ascii	"v\000"
 5564 1b90 02       		.byte	0x2
 5565 1b91 E1       		.byte	0xe1
 5566 1b92 0C050000 		.4byte	0x50c
 5567 1b96 00       		.byte	0
 5568 1b97 22       		.uleb128 0x22
 5569 1b98 0A210000 		.4byte	.LASF455
 5570 1b9c 02       		.byte	0x2
 5571 1b9d 2D01     		.2byte	0x12d
 5572 1b9f 01010000 		.4byte	0x101
 5573 1ba3 03       		.byte	0x3
 5574 1ba4 CB1B0000 		.4byte	0x1bcb
 5575 1ba8 23       		.uleb128 0x23
 5576 1ba9 6F626A00 		.ascii	"obj\000"
 5577 1bad 02       		.byte	0x2
 5578 1bae 2D01     		.2byte	0x12d
 5579 1bb0 D5170000 		.4byte	0x17d5
 5580 1bb4 24       		.uleb128 0x24
 5581 1bb5 A1210000 		.4byte	.LASF313
 5582 1bb9 02       		.byte	0x2
 5583 1bba 2D01     		.2byte	0x12d
 5584 1bbc E4000000 		.4byte	0xe4
ARM GAS  C:\Users\haske\AppData\Local\Temp\cc4f9rxb.s 			page 120


 5585 1bc0 25       		.uleb128 0x25
 5586 1bc1 7600     		.ascii	"v\000"
 5587 1bc3 02       		.byte	0x2
 5588 1bc4 2F01     		.2byte	0x12f
 5589 1bc6 0C050000 		.4byte	0x50c
 5590 1bca 00       		.byte	0
 5591 1bcb 22       		.uleb128 0x22
 5592 1bcc 12140000 		.4byte	.LASF456
 5593 1bd0 02       		.byte	0x2
 5594 1bd1 5101     		.2byte	0x151
 5595 1bd3 DA030000 		.4byte	0x3da
 5596 1bd7 03       		.byte	0x3
 5597 1bd8 FF1B0000 		.4byte	0x1bff
 5598 1bdc 23       		.uleb128 0x23
 5599 1bdd 6F626A00 		.ascii	"obj\000"
 5600 1be1 02       		.byte	0x2
 5601 1be2 5101     		.2byte	0x151
 5602 1be4 D5170000 		.4byte	0x17d5
 5603 1be8 24       		.uleb128 0x24
 5604 1be9 A1210000 		.4byte	.LASF313
 5605 1bed 02       		.byte	0x2
 5606 1bee 5101     		.2byte	0x151
 5607 1bf0 E4000000 		.4byte	0xe4
 5608 1bf4 25       		.uleb128 0x25
 5609 1bf5 7600     		.ascii	"v\000"
 5610 1bf7 02       		.byte	0x2
 5611 1bf8 5301     		.2byte	0x153
 5612 1bfa 0C050000 		.4byte	0x50c
 5613 1bfe 00       		.byte	0
 5614 1bff 22       		.uleb128 0x22
 5615 1c00 DF000000 		.4byte	.LASF457
 5616 1c04 02       		.byte	0x2
 5617 1c05 3F01     		.2byte	0x13f
 5618 1c07 01010000 		.4byte	0x101
 5619 1c0b 03       		.byte	0x3
 5620 1c0c 331C0000 		.4byte	0x1c33
 5621 1c10 23       		.uleb128 0x23
 5622 1c11 6F626A00 		.ascii	"obj\000"
 5623 1c15 02       		.byte	0x2
 5624 1c16 3F01     		.2byte	0x13f
 5625 1c18 D5170000 		.4byte	0x17d5
 5626 1c1c 24       		.uleb128 0x24
 5627 1c1d A1210000 		.4byte	.LASF313
 5628 1c21 02       		.byte	0x2
 5629 1c22 3F01     		.2byte	0x13f
 5630 1c24 E4000000 		.4byte	0xe4
 5631 1c28 25       		.uleb128 0x25
 5632 1c29 7600     		.ascii	"v\000"
 5633 1c2b 02       		.byte	0x2
 5634 1c2c 4101     		.2byte	0x141
 5635 1c2e 0C050000 		.4byte	0x50c
 5636 1c32 00       		.byte	0
 5637 1c33 22       		.uleb128 0x22
 5638 1c34 2D0B0000 		.4byte	.LASF458
 5639 1c38 02       		.byte	0x2
 5640 1c39 3901     		.2byte	0x139
 5641 1c3b 01010000 		.4byte	0x101
ARM GAS  C:\Users\haske\AppData\Local\Temp\cc4f9rxb.s 			page 121


 5642 1c3f 03       		.byte	0x3
 5643 1c40 671C0000 		.4byte	0x1c67
 5644 1c44 23       		.uleb128 0x23
 5645 1c45 6F626A00 		.ascii	"obj\000"
 5646 1c49 02       		.byte	0x2
 5647 1c4a 3901     		.2byte	0x139
 5648 1c4c D5170000 		.4byte	0x17d5
 5649 1c50 24       		.uleb128 0x24
 5650 1c51 A1210000 		.4byte	.LASF313
 5651 1c55 02       		.byte	0x2
 5652 1c56 3901     		.2byte	0x139
 5653 1c58 E4000000 		.4byte	0xe4
 5654 1c5c 25       		.uleb128 0x25
 5655 1c5d 7600     		.ascii	"v\000"
 5656 1c5f 02       		.byte	0x2
 5657 1c60 3B01     		.2byte	0x13b
 5658 1c62 0C050000 		.4byte	0x50c
 5659 1c66 00       		.byte	0
 5660 1c67 22       		.uleb128 0x22
 5661 1c68 7B000000 		.4byte	.LASF459
 5662 1c6c 02       		.byte	0x2
 5663 1c6d 3301     		.2byte	0x133
 5664 1c6f 01010000 		.4byte	0x101
 5665 1c73 03       		.byte	0x3
 5666 1c74 9B1C0000 		.4byte	0x1c9b
 5667 1c78 23       		.uleb128 0x23
 5668 1c79 6F626A00 		.ascii	"obj\000"
 5669 1c7d 02       		.byte	0x2
 5670 1c7e 3301     		.2byte	0x133
 5671 1c80 D5170000 		.4byte	0x17d5
 5672 1c84 24       		.uleb128 0x24
 5673 1c85 A1210000 		.4byte	.LASF313
 5674 1c89 02       		.byte	0x2
 5675 1c8a 3301     		.2byte	0x133
 5676 1c8c E4000000 		.4byte	0xe4
 5677 1c90 25       		.uleb128 0x25
 5678 1c91 7600     		.ascii	"v\000"
 5679 1c93 02       		.byte	0x2
 5680 1c94 3501     		.2byte	0x135
 5681 1c96 0C050000 		.4byte	0x50c
 5682 1c9a 00       		.byte	0
 5683 1c9b 22       		.uleb128 0x22
 5684 1c9c 92050000 		.4byte	.LASF460
 5685 1ca0 02       		.byte	0x2
 5686 1ca1 C901     		.2byte	0x1c9
 5687 1ca3 DA030000 		.4byte	0x3da
 5688 1ca7 03       		.byte	0x3
 5689 1ca8 CF1C0000 		.4byte	0x1ccf
 5690 1cac 23       		.uleb128 0x23
 5691 1cad 6F626A00 		.ascii	"obj\000"
 5692 1cb1 02       		.byte	0x2
 5693 1cb2 C901     		.2byte	0x1c9
 5694 1cb4 D5170000 		.4byte	0x17d5
 5695 1cb8 24       		.uleb128 0x24
 5696 1cb9 A1210000 		.4byte	.LASF313
 5697 1cbd 02       		.byte	0x2
 5698 1cbe C901     		.2byte	0x1c9
ARM GAS  C:\Users\haske\AppData\Local\Temp\cc4f9rxb.s 			page 122


 5699 1cc0 E4000000 		.4byte	0xe4
 5700 1cc4 25       		.uleb128 0x25
 5701 1cc5 7600     		.ascii	"v\000"
 5702 1cc7 02       		.byte	0x2
 5703 1cc8 CB01     		.2byte	0x1cb
 5704 1cca 0C050000 		.4byte	0x50c
 5705 1cce 00       		.byte	0
 5706 1ccf 22       		.uleb128 0x22
 5707 1cd0 A30E0000 		.4byte	.LASF461
 5708 1cd4 02       		.byte	0x2
 5709 1cd5 E101     		.2byte	0x1e1
 5710 1cd7 11040000 		.4byte	0x411
 5711 1cdb 03       		.byte	0x3
 5712 1cdc 031D0000 		.4byte	0x1d03
 5713 1ce0 23       		.uleb128 0x23
 5714 1ce1 6F626A00 		.ascii	"obj\000"
 5715 1ce5 02       		.byte	0x2
 5716 1ce6 E101     		.2byte	0x1e1
 5717 1ce8 D5170000 		.4byte	0x17d5
 5718 1cec 24       		.uleb128 0x24
 5719 1ced A1210000 		.4byte	.LASF313
 5720 1cf1 02       		.byte	0x2
 5721 1cf2 E101     		.2byte	0x1e1
 5722 1cf4 E4000000 		.4byte	0xe4
 5723 1cf8 25       		.uleb128 0x25
 5724 1cf9 7600     		.ascii	"v\000"
 5725 1cfb 02       		.byte	0x2
 5726 1cfc E301     		.2byte	0x1e3
 5727 1cfe 0C050000 		.4byte	0x50c
 5728 1d02 00       		.byte	0
 5729 1d03 22       		.uleb128 0x22
 5730 1d04 33050000 		.4byte	.LASF462
 5731 1d08 02       		.byte	0x2
 5732 1d09 DB01     		.2byte	0x1db
 5733 1d0b 01010000 		.4byte	0x101
 5734 1d0f 03       		.byte	0x3
 5735 1d10 371D0000 		.4byte	0x1d37
 5736 1d14 23       		.uleb128 0x23
 5737 1d15 6F626A00 		.ascii	"obj\000"
 5738 1d19 02       		.byte	0x2
 5739 1d1a DB01     		.2byte	0x1db
 5740 1d1c D5170000 		.4byte	0x17d5
 5741 1d20 24       		.uleb128 0x24
 5742 1d21 A1210000 		.4byte	.LASF313
 5743 1d25 02       		.byte	0x2
 5744 1d26 DB01     		.2byte	0x1db
 5745 1d28 E4000000 		.4byte	0xe4
 5746 1d2c 25       		.uleb128 0x25
 5747 1d2d 7600     		.ascii	"v\000"
 5748 1d2f 02       		.byte	0x2
 5749 1d30 DD01     		.2byte	0x1dd
 5750 1d32 0C050000 		.4byte	0x50c
 5751 1d36 00       		.byte	0
 5752 1d37 22       		.uleb128 0x22
 5753 1d38 730A0000 		.4byte	.LASF463
 5754 1d3c 02       		.byte	0x2
 5755 1d3d D501     		.2byte	0x1d5
ARM GAS  C:\Users\haske\AppData\Local\Temp\cc4f9rxb.s 			page 123


 5756 1d3f 01010000 		.4byte	0x101
 5757 1d43 03       		.byte	0x3
 5758 1d44 6B1D0000 		.4byte	0x1d6b
 5759 1d48 23       		.uleb128 0x23
 5760 1d49 6F626A00 		.ascii	"obj\000"
 5761 1d4d 02       		.byte	0x2
 5762 1d4e D501     		.2byte	0x1d5
 5763 1d50 D5170000 		.4byte	0x17d5
 5764 1d54 24       		.uleb128 0x24
 5765 1d55 A1210000 		.4byte	.LASF313
 5766 1d59 02       		.byte	0x2
 5767 1d5a D501     		.2byte	0x1d5
 5768 1d5c E4000000 		.4byte	0xe4
 5769 1d60 25       		.uleb128 0x25
 5770 1d61 7600     		.ascii	"v\000"
 5771 1d63 02       		.byte	0x2
 5772 1d64 D701     		.2byte	0x1d7
 5773 1d66 0C050000 		.4byte	0x50c
 5774 1d6a 00       		.byte	0
 5775 1d6b 22       		.uleb128 0x22
 5776 1d6c 36100000 		.4byte	.LASF464
 5777 1d70 02       		.byte	0x2
 5778 1d71 E701     		.2byte	0x1e7
 5779 1d73 F0030000 		.4byte	0x3f0
 5780 1d77 03       		.byte	0x3
 5781 1d78 9F1D0000 		.4byte	0x1d9f
 5782 1d7c 23       		.uleb128 0x23
 5783 1d7d 6F626A00 		.ascii	"obj\000"
 5784 1d81 02       		.byte	0x2
 5785 1d82 E701     		.2byte	0x1e7
 5786 1d84 D5170000 		.4byte	0x17d5
 5787 1d88 24       		.uleb128 0x24
 5788 1d89 A1210000 		.4byte	.LASF313
 5789 1d8d 02       		.byte	0x2
 5790 1d8e E701     		.2byte	0x1e7
 5791 1d90 E4000000 		.4byte	0xe4
 5792 1d94 25       		.uleb128 0x25
 5793 1d95 7600     		.ascii	"v\000"
 5794 1d97 02       		.byte	0x2
 5795 1d98 E901     		.2byte	0x1e9
 5796 1d9a 0C050000 		.4byte	0x50c
 5797 1d9e 00       		.byte	0
 5798 1d9f 22       		.uleb128 0x22
 5799 1da0 F9190000 		.4byte	.LASF465
 5800 1da4 02       		.byte	0x2
 5801 1da5 5701     		.2byte	0x157
 5802 1da7 DA030000 		.4byte	0x3da
 5803 1dab 03       		.byte	0x3
 5804 1dac D31D0000 		.4byte	0x1dd3
 5805 1db0 23       		.uleb128 0x23
 5806 1db1 6F626A00 		.ascii	"obj\000"
 5807 1db5 02       		.byte	0x2
 5808 1db6 5701     		.2byte	0x157
 5809 1db8 D5170000 		.4byte	0x17d5
 5810 1dbc 24       		.uleb128 0x24
 5811 1dbd A1210000 		.4byte	.LASF313
 5812 1dc1 02       		.byte	0x2
ARM GAS  C:\Users\haske\AppData\Local\Temp\cc4f9rxb.s 			page 124


 5813 1dc2 5701     		.2byte	0x157
 5814 1dc4 E4000000 		.4byte	0xe4
 5815 1dc8 25       		.uleb128 0x25
 5816 1dc9 7600     		.ascii	"v\000"
 5817 1dcb 02       		.byte	0x2
 5818 1dcc 5901     		.2byte	0x159
 5819 1dce 0C050000 		.4byte	0x50c
 5820 1dd2 00       		.byte	0
 5821 1dd3 22       		.uleb128 0x22
 5822 1dd4 140F0000 		.4byte	.LASF466
 5823 1dd8 02       		.byte	0x2
 5824 1dd9 6901     		.2byte	0x169
 5825 1ddb DA030000 		.4byte	0x3da
 5826 1ddf 03       		.byte	0x3
 5827 1de0 071E0000 		.4byte	0x1e07
 5828 1de4 23       		.uleb128 0x23
 5829 1de5 6F626A00 		.ascii	"obj\000"
 5830 1de9 02       		.byte	0x2
 5831 1dea 6901     		.2byte	0x169
 5832 1dec D5170000 		.4byte	0x17d5
 5833 1df0 24       		.uleb128 0x24
 5834 1df1 A1210000 		.4byte	.LASF313
 5835 1df5 02       		.byte	0x2
 5836 1df6 6901     		.2byte	0x169
 5837 1df8 E4000000 		.4byte	0xe4
 5838 1dfc 25       		.uleb128 0x25
 5839 1dfd 7600     		.ascii	"v\000"
 5840 1dff 02       		.byte	0x2
 5841 1e00 6B01     		.2byte	0x16b
 5842 1e02 0C050000 		.4byte	0x50c
 5843 1e06 00       		.byte	0
 5844 1e07 26       		.uleb128 0x26
 5845 1e08 E6180000 		.4byte	.LASF467
 5846 1e0c 03       		.byte	0x3
 5847 1e0d 85       		.byte	0x85
 5848 1e0e 01010000 		.4byte	0x101
 5849 1e12 03       		.byte	0x3
 5850 1e13 231E0000 		.4byte	0x1e23
 5851 1e17 28       		.uleb128 0x28
 5852 1e18 27050000 		.4byte	.LASF468
 5853 1e1c 03       		.byte	0x3
 5854 1e1d 85       		.byte	0x85
 5855 1e1e 300D0000 		.4byte	0xd30
 5856 1e22 00       		.byte	0
 5857 1e23 26       		.uleb128 0x26
 5858 1e24 821D0000 		.4byte	.LASF469
 5859 1e28 03       		.byte	0x3
 5860 1e29 7B       		.byte	0x7b
 5861 1e2a 01010000 		.4byte	0x101
 5862 1e2e 03       		.byte	0x3
 5863 1e2f 3F1E0000 		.4byte	0x1e3f
 5864 1e33 28       		.uleb128 0x28
 5865 1e34 27050000 		.4byte	.LASF468
 5866 1e38 03       		.byte	0x3
 5867 1e39 7B       		.byte	0x7b
 5868 1e3a 300D0000 		.4byte	0xd30
 5869 1e3e 00       		.byte	0
ARM GAS  C:\Users\haske\AppData\Local\Temp\cc4f9rxb.s 			page 125


 5870 1e3f 22       		.uleb128 0x22
 5871 1e40 0D050000 		.4byte	.LASF470
 5872 1e44 02       		.byte	0x2
 5873 1e45 9301     		.2byte	0x193
 5874 1e47 DA030000 		.4byte	0x3da
 5875 1e4b 03       		.byte	0x3
 5876 1e4c 731E0000 		.4byte	0x1e73
 5877 1e50 23       		.uleb128 0x23
 5878 1e51 6F626A00 		.ascii	"obj\000"
 5879 1e55 02       		.byte	0x2
 5880 1e56 9301     		.2byte	0x193
 5881 1e58 D5170000 		.4byte	0x17d5
 5882 1e5c 24       		.uleb128 0x24
 5883 1e5d A1210000 		.4byte	.LASF313
 5884 1e61 02       		.byte	0x2
 5885 1e62 9301     		.2byte	0x193
 5886 1e64 E4000000 		.4byte	0xe4
 5887 1e68 25       		.uleb128 0x25
 5888 1e69 7600     		.ascii	"v\000"
 5889 1e6b 02       		.byte	0x2
 5890 1e6c 9501     		.2byte	0x195
 5891 1e6e 0C050000 		.4byte	0x50c
 5892 1e72 00       		.byte	0
 5893 1e73 22       		.uleb128 0x22
 5894 1e74 DA0E0000 		.4byte	.LASF471
 5895 1e78 02       		.byte	0x2
 5896 1e79 6F01     		.2byte	0x16f
 5897 1e7b 01010000 		.4byte	0x101
 5898 1e7f 03       		.byte	0x3
 5899 1e80 A71E0000 		.4byte	0x1ea7
 5900 1e84 23       		.uleb128 0x23
 5901 1e85 6F626A00 		.ascii	"obj\000"
 5902 1e89 02       		.byte	0x2
 5903 1e8a 6F01     		.2byte	0x16f
 5904 1e8c D5170000 		.4byte	0x17d5
 5905 1e90 24       		.uleb128 0x24
 5906 1e91 A1210000 		.4byte	.LASF313
 5907 1e95 02       		.byte	0x2
 5908 1e96 6F01     		.2byte	0x16f
 5909 1e98 E4000000 		.4byte	0xe4
 5910 1e9c 25       		.uleb128 0x25
 5911 1e9d 7600     		.ascii	"v\000"
 5912 1e9f 02       		.byte	0x2
 5913 1ea0 7101     		.2byte	0x171
 5914 1ea2 0C050000 		.4byte	0x50c
 5915 1ea6 00       		.byte	0
 5916 1ea7 22       		.uleb128 0x22
 5917 1ea8 AE200000 		.4byte	.LASF472
 5918 1eac 02       		.byte	0x2
 5919 1ead 7501     		.2byte	0x175
 5920 1eaf 01010000 		.4byte	0x101
 5921 1eb3 03       		.byte	0x3
 5922 1eb4 DB1E0000 		.4byte	0x1edb
 5923 1eb8 23       		.uleb128 0x23
 5924 1eb9 6F626A00 		.ascii	"obj\000"
 5925 1ebd 02       		.byte	0x2
 5926 1ebe 7501     		.2byte	0x175
ARM GAS  C:\Users\haske\AppData\Local\Temp\cc4f9rxb.s 			page 126


 5927 1ec0 D5170000 		.4byte	0x17d5
 5928 1ec4 24       		.uleb128 0x24
 5929 1ec5 A1210000 		.4byte	.LASF313
 5930 1ec9 02       		.byte	0x2
 5931 1eca 7501     		.2byte	0x175
 5932 1ecc E4000000 		.4byte	0xe4
 5933 1ed0 25       		.uleb128 0x25
 5934 1ed1 7600     		.ascii	"v\000"
 5935 1ed3 02       		.byte	0x2
 5936 1ed4 7701     		.2byte	0x177
 5937 1ed6 0C050000 		.4byte	0x50c
 5938 1eda 00       		.byte	0
 5939 1edb 22       		.uleb128 0x22
 5940 1edc 0C200000 		.4byte	.LASF473
 5941 1ee0 02       		.byte	0x2
 5942 1ee1 7B01     		.2byte	0x17b
 5943 1ee3 01010000 		.4byte	0x101
 5944 1ee7 03       		.byte	0x3
 5945 1ee8 0F1F0000 		.4byte	0x1f0f
 5946 1eec 23       		.uleb128 0x23
 5947 1eed 6F626A00 		.ascii	"obj\000"
 5948 1ef1 02       		.byte	0x2
 5949 1ef2 7B01     		.2byte	0x17b
 5950 1ef4 D5170000 		.4byte	0x17d5
 5951 1ef8 24       		.uleb128 0x24
 5952 1ef9 A1210000 		.4byte	.LASF313
 5953 1efd 02       		.byte	0x2
 5954 1efe 7B01     		.2byte	0x17b
 5955 1f00 E4000000 		.4byte	0xe4
 5956 1f04 25       		.uleb128 0x25
 5957 1f05 7600     		.ascii	"v\000"
 5958 1f07 02       		.byte	0x2
 5959 1f08 7D01     		.2byte	0x17d
 5960 1f0a 0C050000 		.4byte	0x50c
 5961 1f0e 00       		.byte	0
 5962 1f0f 22       		.uleb128 0x22
 5963 1f10 51120000 		.4byte	.LASF474
 5964 1f14 02       		.byte	0x2
 5965 1f15 8101     		.2byte	0x181
 5966 1f17 AA020000 		.4byte	0x2aa
 5967 1f1b 03       		.byte	0x3
 5968 1f1c 431F0000 		.4byte	0x1f43
 5969 1f20 23       		.uleb128 0x23
 5970 1f21 6F626A00 		.ascii	"obj\000"
 5971 1f25 02       		.byte	0x2
 5972 1f26 8101     		.2byte	0x181
 5973 1f28 D5170000 		.4byte	0x17d5
 5974 1f2c 24       		.uleb128 0x24
 5975 1f2d A1210000 		.4byte	.LASF313
 5976 1f31 02       		.byte	0x2
 5977 1f32 8101     		.2byte	0x181
 5978 1f34 E4000000 		.4byte	0xe4
 5979 1f38 25       		.uleb128 0x25
 5980 1f39 7600     		.ascii	"v\000"
 5981 1f3b 02       		.byte	0x2
 5982 1f3c 8301     		.2byte	0x183
 5983 1f3e 0C050000 		.4byte	0x50c
ARM GAS  C:\Users\haske\AppData\Local\Temp\cc4f9rxb.s 			page 127


 5984 1f42 00       		.byte	0
 5985 1f43 22       		.uleb128 0x22
 5986 1f44 00110000 		.4byte	.LASF475
 5987 1f48 02       		.byte	0x2
 5988 1f49 9901     		.2byte	0x199
 5989 1f4b 01010000 		.4byte	0x101
 5990 1f4f 03       		.byte	0x3
 5991 1f50 771F0000 		.4byte	0x1f77
 5992 1f54 23       		.uleb128 0x23
 5993 1f55 6F626A00 		.ascii	"obj\000"
 5994 1f59 02       		.byte	0x2
 5995 1f5a 9901     		.2byte	0x199
 5996 1f5c D5170000 		.4byte	0x17d5
 5997 1f60 24       		.uleb128 0x24
 5998 1f61 A1210000 		.4byte	.LASF313
 5999 1f65 02       		.byte	0x2
 6000 1f66 9901     		.2byte	0x199
 6001 1f68 E4000000 		.4byte	0xe4
 6002 1f6c 25       		.uleb128 0x25
 6003 1f6d 7600     		.ascii	"v\000"
 6004 1f6f 02       		.byte	0x2
 6005 1f70 9B01     		.2byte	0x19b
 6006 1f72 0C050000 		.4byte	0x50c
 6007 1f76 00       		.byte	0
 6008 1f77 22       		.uleb128 0x22
 6009 1f78 840D0000 		.4byte	.LASF476
 6010 1f7c 02       		.byte	0x2
 6011 1f7d B101     		.2byte	0x1b1
 6012 1f7f DA030000 		.4byte	0x3da
 6013 1f83 03       		.byte	0x3
 6014 1f84 AB1F0000 		.4byte	0x1fab
 6015 1f88 23       		.uleb128 0x23
 6016 1f89 6F626A00 		.ascii	"obj\000"
 6017 1f8d 02       		.byte	0x2
 6018 1f8e B101     		.2byte	0x1b1
 6019 1f90 D5170000 		.4byte	0x17d5
 6020 1f94 24       		.uleb128 0x24
 6021 1f95 A1210000 		.4byte	.LASF313
 6022 1f99 02       		.byte	0x2
 6023 1f9a B101     		.2byte	0x1b1
 6024 1f9c E4000000 		.4byte	0xe4
 6025 1fa0 25       		.uleb128 0x25
 6026 1fa1 7600     		.ascii	"v\000"
 6027 1fa3 02       		.byte	0x2
 6028 1fa4 B301     		.2byte	0x1b3
 6029 1fa6 0C050000 		.4byte	0x50c
 6030 1faa 00       		.byte	0
 6031 1fab 22       		.uleb128 0x22
 6032 1fac 31220000 		.4byte	.LASF477
 6033 1fb0 02       		.byte	0x2
 6034 1fb1 9F01     		.2byte	0x19f
 6035 1fb3 AA020000 		.4byte	0x2aa
 6036 1fb7 03       		.byte	0x3
 6037 1fb8 DF1F0000 		.4byte	0x1fdf
 6038 1fbc 23       		.uleb128 0x23
 6039 1fbd 6F626A00 		.ascii	"obj\000"
 6040 1fc1 02       		.byte	0x2
ARM GAS  C:\Users\haske\AppData\Local\Temp\cc4f9rxb.s 			page 128


 6041 1fc2 9F01     		.2byte	0x19f
 6042 1fc4 D5170000 		.4byte	0x17d5
 6043 1fc8 24       		.uleb128 0x24
 6044 1fc9 A1210000 		.4byte	.LASF313
 6045 1fcd 02       		.byte	0x2
 6046 1fce 9F01     		.2byte	0x19f
 6047 1fd0 E4000000 		.4byte	0xe4
 6048 1fd4 25       		.uleb128 0x25
 6049 1fd5 7600     		.ascii	"v\000"
 6050 1fd7 02       		.byte	0x2
 6051 1fd8 A101     		.2byte	0x1a1
 6052 1fda 0C050000 		.4byte	0x50c
 6053 1fde 00       		.byte	0
 6054 1fdf 22       		.uleb128 0x22
 6055 1fe0 B4100000 		.4byte	.LASF478
 6056 1fe4 02       		.byte	0x2
 6057 1fe5 B701     		.2byte	0x1b7
 6058 1fe7 E2020000 		.4byte	0x2e2
 6059 1feb 03       		.byte	0x3
 6060 1fec 13200000 		.4byte	0x2013
 6061 1ff0 23       		.uleb128 0x23
 6062 1ff1 6F626A00 		.ascii	"obj\000"
 6063 1ff5 02       		.byte	0x2
 6064 1ff6 B701     		.2byte	0x1b7
 6065 1ff8 D5170000 		.4byte	0x17d5
 6066 1ffc 24       		.uleb128 0x24
 6067 1ffd A1210000 		.4byte	.LASF313
 6068 2001 02       		.byte	0x2
 6069 2002 B701     		.2byte	0x1b7
 6070 2004 E4000000 		.4byte	0xe4
 6071 2008 25       		.uleb128 0x25
 6072 2009 7600     		.ascii	"v\000"
 6073 200b 02       		.byte	0x2
 6074 200c B901     		.2byte	0x1b9
 6075 200e 0C050000 		.4byte	0x50c
 6076 2012 00       		.byte	0
 6077 2013 26       		.uleb128 0x26
 6078 2014 DE200000 		.4byte	.LASF479
 6079 2018 02       		.byte	0x2
 6080 2019 3D       		.byte	0x3d
 6081 201a 01010000 		.4byte	0x101
 6082 201e 03       		.byte	0x3
 6083 201f 43200000 		.4byte	0x2043
 6084 2023 27       		.uleb128 0x27
 6085 2024 6F626A00 		.ascii	"obj\000"
 6086 2028 02       		.byte	0x2
 6087 2029 3D       		.byte	0x3d
 6088 202a D5170000 		.4byte	0x17d5
 6089 202e 28       		.uleb128 0x28
 6090 202f A1210000 		.4byte	.LASF313
 6091 2033 02       		.byte	0x2
 6092 2034 3D       		.byte	0x3d
 6093 2035 E4000000 		.4byte	0xe4
 6094 2039 29       		.uleb128 0x29
 6095 203a 7600     		.ascii	"v\000"
 6096 203c 02       		.byte	0x2
 6097 203d 3F       		.byte	0x3f
ARM GAS  C:\Users\haske\AppData\Local\Temp\cc4f9rxb.s 			page 129


 6098 203e 0C050000 		.4byte	0x50c
 6099 2042 00       		.byte	0
 6100 2043 26       		.uleb128 0x26
 6101 2044 F0030000 		.4byte	.LASF480
 6102 2048 02       		.byte	0x2
 6103 2049 37       		.byte	0x37
 6104 204a 01010000 		.4byte	0x101
 6105 204e 03       		.byte	0x3
 6106 204f 73200000 		.4byte	0x2073
 6107 2053 27       		.uleb128 0x27
 6108 2054 6F626A00 		.ascii	"obj\000"
 6109 2058 02       		.byte	0x2
 6110 2059 37       		.byte	0x37
 6111 205a D5170000 		.4byte	0x17d5
 6112 205e 28       		.uleb128 0x28
 6113 205f A1210000 		.4byte	.LASF313
 6114 2063 02       		.byte	0x2
 6115 2064 37       		.byte	0x37
 6116 2065 E4000000 		.4byte	0xe4
 6117 2069 29       		.uleb128 0x29
 6118 206a 7600     		.ascii	"v\000"
 6119 206c 02       		.byte	0x2
 6120 206d 39       		.byte	0x39
 6121 206e 0C050000 		.4byte	0x50c
 6122 2072 00       		.byte	0
 6123 2073 26       		.uleb128 0x26
 6124 2074 7C130000 		.4byte	.LASF481
 6125 2078 02       		.byte	0x2
 6126 2079 91       		.byte	0x91
 6127 207a CF030000 		.4byte	0x3cf
 6128 207e 03       		.byte	0x3
 6129 207f A3200000 		.4byte	0x20a3
 6130 2083 27       		.uleb128 0x27
 6131 2084 6F626A00 		.ascii	"obj\000"
 6132 2088 02       		.byte	0x2
 6133 2089 91       		.byte	0x91
 6134 208a D5170000 		.4byte	0x17d5
 6135 208e 28       		.uleb128 0x28
 6136 208f A1210000 		.4byte	.LASF313
 6137 2093 02       		.byte	0x2
 6138 2094 91       		.byte	0x91
 6139 2095 E4000000 		.4byte	0xe4
 6140 2099 29       		.uleb128 0x29
 6141 209a 7600     		.ascii	"v\000"
 6142 209c 02       		.byte	0x2
 6143 209d 93       		.byte	0x93
 6144 209e 0C050000 		.4byte	0x50c
 6145 20a2 00       		.byte	0
 6146 20a3 26       		.uleb128 0x26
 6147 20a4 A2090000 		.4byte	.LASF482
 6148 20a8 02       		.byte	0x2
 6149 20a9 A3       		.byte	0xa3
 6150 20aa CF030000 		.4byte	0x3cf
 6151 20ae 03       		.byte	0x3
 6152 20af D3200000 		.4byte	0x20d3
 6153 20b3 27       		.uleb128 0x27
 6154 20b4 6F626A00 		.ascii	"obj\000"
ARM GAS  C:\Users\haske\AppData\Local\Temp\cc4f9rxb.s 			page 130


 6155 20b8 02       		.byte	0x2
 6156 20b9 A3       		.byte	0xa3
 6157 20ba D5170000 		.4byte	0x17d5
 6158 20be 28       		.uleb128 0x28
 6159 20bf A1210000 		.4byte	.LASF313
 6160 20c3 02       		.byte	0x2
 6161 20c4 A3       		.byte	0xa3
 6162 20c5 E4000000 		.4byte	0xe4
 6163 20c9 29       		.uleb128 0x29
 6164 20ca 7600     		.ascii	"v\000"
 6165 20cc 02       		.byte	0x2
 6166 20cd A5       		.byte	0xa5
 6167 20ce 0C050000 		.4byte	0x50c
 6168 20d2 00       		.byte	0
 6169 20d3 26       		.uleb128 0x26
 6170 20d4 52140000 		.4byte	.LASF483
 6171 20d8 02       		.byte	0x2
 6172 20d9 F1       		.byte	0xf1
 6173 20da CF030000 		.4byte	0x3cf
 6174 20de 03       		.byte	0x3
 6175 20df 03210000 		.4byte	0x2103
 6176 20e3 27       		.uleb128 0x27
 6177 20e4 6F626A00 		.ascii	"obj\000"
 6178 20e8 02       		.byte	0x2
 6179 20e9 F1       		.byte	0xf1
 6180 20ea D5170000 		.4byte	0x17d5
 6181 20ee 28       		.uleb128 0x28
 6182 20ef A1210000 		.4byte	.LASF313
 6183 20f3 02       		.byte	0x2
 6184 20f4 F1       		.byte	0xf1
 6185 20f5 E4000000 		.4byte	0xe4
 6186 20f9 29       		.uleb128 0x29
 6187 20fa 7600     		.ascii	"v\000"
 6188 20fc 02       		.byte	0x2
 6189 20fd F3       		.byte	0xf3
 6190 20fe 0C050000 		.4byte	0x50c
 6191 2102 00       		.byte	0
 6192 2103 22       		.uleb128 0x22
 6193 2104 9F130000 		.4byte	.LASF484
 6194 2108 02       		.byte	0x2
 6195 2109 1B01     		.2byte	0x11b
 6196 210b CF030000 		.4byte	0x3cf
 6197 210f 03       		.byte	0x3
 6198 2110 37210000 		.4byte	0x2137
 6199 2114 23       		.uleb128 0x23
 6200 2115 6F626A00 		.ascii	"obj\000"
 6201 2119 02       		.byte	0x2
 6202 211a 1B01     		.2byte	0x11b
 6203 211c D5170000 		.4byte	0x17d5
 6204 2120 24       		.uleb128 0x24
 6205 2121 A1210000 		.4byte	.LASF313
 6206 2125 02       		.byte	0x2
 6207 2126 1B01     		.2byte	0x11b
 6208 2128 E4000000 		.4byte	0xe4
 6209 212c 25       		.uleb128 0x25
 6210 212d 7600     		.ascii	"v\000"
 6211 212f 02       		.byte	0x2
ARM GAS  C:\Users\haske\AppData\Local\Temp\cc4f9rxb.s 			page 131


 6212 2130 1D01     		.2byte	0x11d
 6213 2132 0C050000 		.4byte	0x50c
 6214 2136 00       		.byte	0
 6215 2137 22       		.uleb128 0x22
 6216 2138 051D0000 		.4byte	.LASF485
 6217 213c 02       		.byte	0x2
 6218 213d C301     		.2byte	0x1c3
 6219 213f CF030000 		.4byte	0x3cf
 6220 2143 03       		.byte	0x3
 6221 2144 6B210000 		.4byte	0x216b
 6222 2148 23       		.uleb128 0x23
 6223 2149 6F626A00 		.ascii	"obj\000"
 6224 214d 02       		.byte	0x2
 6225 214e C301     		.2byte	0x1c3
 6226 2150 D5170000 		.4byte	0x17d5
 6227 2154 24       		.uleb128 0x24
 6228 2155 A1210000 		.4byte	.LASF313
 6229 2159 02       		.byte	0x2
 6230 215a C301     		.2byte	0x1c3
 6231 215c E4000000 		.4byte	0xe4
 6232 2160 25       		.uleb128 0x25
 6233 2161 7600     		.ascii	"v\000"
 6234 2163 02       		.byte	0x2
 6235 2164 C501     		.2byte	0x1c5
 6236 2166 0C050000 		.4byte	0x50c
 6237 216a 00       		.byte	0
 6238 216b 26       		.uleb128 0x26
 6239 216c C30B0000 		.4byte	.LASF486
 6240 2170 02       		.byte	0x2
 6241 2171 D9       		.byte	0xd9
 6242 2172 CF030000 		.4byte	0x3cf
 6243 2176 03       		.byte	0x3
 6244 2177 9B210000 		.4byte	0x219b
 6245 217b 27       		.uleb128 0x27
 6246 217c 6F626A00 		.ascii	"obj\000"
 6247 2180 02       		.byte	0x2
 6248 2181 D9       		.byte	0xd9
 6249 2182 D5170000 		.4byte	0x17d5
 6250 2186 28       		.uleb128 0x28
 6251 2187 A1210000 		.4byte	.LASF313
 6252 218b 02       		.byte	0x2
 6253 218c D9       		.byte	0xd9
 6254 218d E4000000 		.4byte	0xe4
 6255 2191 29       		.uleb128 0x29
 6256 2192 7600     		.ascii	"v\000"
 6257 2194 02       		.byte	0x2
 6258 2195 DB       		.byte	0xdb
 6259 2196 0C050000 		.4byte	0x50c
 6260 219a 00       		.byte	0
 6261 219b 22       		.uleb128 0x22
 6262 219c 68200000 		.4byte	.LASF487
 6263 21a0 02       		.byte	0x2
 6264 21a1 4B01     		.2byte	0x14b
 6265 21a3 CF030000 		.4byte	0x3cf
 6266 21a7 03       		.byte	0x3
 6267 21a8 CF210000 		.4byte	0x21cf
 6268 21ac 23       		.uleb128 0x23
ARM GAS  C:\Users\haske\AppData\Local\Temp\cc4f9rxb.s 			page 132


 6269 21ad 6F626A00 		.ascii	"obj\000"
 6270 21b1 02       		.byte	0x2
 6271 21b2 4B01     		.2byte	0x14b
 6272 21b4 D5170000 		.4byte	0x17d5
 6273 21b8 24       		.uleb128 0x24
 6274 21b9 A1210000 		.4byte	.LASF313
 6275 21bd 02       		.byte	0x2
 6276 21be 4B01     		.2byte	0x14b
 6277 21c0 E4000000 		.4byte	0xe4
 6278 21c4 25       		.uleb128 0x25
 6279 21c5 7600     		.ascii	"v\000"
 6280 21c7 02       		.byte	0x2
 6281 21c8 4D01     		.2byte	0x14d
 6282 21ca 0C050000 		.4byte	0x50c
 6283 21ce 00       		.byte	0
 6284 21cf 2A       		.uleb128 0x2a
 6285 21d0 731B0000 		.4byte	.LASF490
 6286 21d4 01       		.byte	0x1
 6287 21d5 27       		.byte	0x27
 6288 21d6 00000000 		.4byte	.LFB165
 6289 21da DE020000 		.4byte	.LFE165-.LFB165
 6290 21de 01       		.uleb128 0x1
 6291 21df 9C       		.byte	0x9c
 6292 21e0 B02D0000 		.4byte	0x2db0
 6293 21e4 2B       		.uleb128 0x2b
 6294 21e5 6F626A00 		.ascii	"obj\000"
 6295 21e9 01       		.byte	0x1
 6296 21ea 27       		.byte	0x27
 6297 21eb 9B170000 		.4byte	0x179b
 6298 21ef 00000000 		.4byte	.LLST0
 6299 21f3 2C       		.uleb128 0x2c
 6300 21f4 A1210000 		.4byte	.LASF313
 6301 21f8 01       		.byte	0x1
 6302 21f9 27       		.byte	0x27
 6303 21fa E4000000 		.4byte	0xe4
 6304 21fe 42000000 		.4byte	.LLST1
 6305 2202 2C       		.uleb128 0x2c
 6306 2203 F9010000 		.4byte	.LASF488
 6307 2207 01       		.byte	0x1
 6308 2208 27       		.byte	0x27
 6309 2209 87120000 		.4byte	0x1287
 6310 220d 84000000 		.4byte	.LLST2
 6311 2211 2D       		.uleb128 0x2d
 6312 2212 6F706100 		.ascii	"opa\000"
 6313 2216 01       		.byte	0x1
 6314 2217 29       		.byte	0x29
 6315 2218 DA030000 		.4byte	0x3da
 6316 221c C6000000 		.4byte	.LLST3
 6317 2220 2E       		.uleb128 0x2e
 6318 2221 A1170000 		.4byte	0x17a1
 6319 2225 0C000000 		.4byte	.LBB202
 6320 2229 08000000 		.4byte	.LBE202-.LBB202
 6321 222d 01       		.byte	0x1
 6322 222e 2B       		.byte	0x2b
 6323 222f 71220000 		.4byte	0x2271
 6324 2233 2F       		.uleb128 0x2f
 6325 2234 BE170000 		.4byte	0x17be
ARM GAS  C:\Users\haske\AppData\Local\Temp\cc4f9rxb.s 			page 133


 6326 2238 F3000000 		.4byte	.LLST4
 6327 223c 2F       		.uleb128 0x2f
 6328 223d B2170000 		.4byte	0x17b2
 6329 2241 11010000 		.4byte	.LLST5
 6330 2245 30       		.uleb128 0x30
 6331 2246 0C000000 		.4byte	.LBB203
 6332 224a 08000000 		.4byte	.LBE203-.LBB203
 6333 224e 31       		.uleb128 0x31
 6334 224f CA170000 		.4byte	0x17ca
 6335 2253 32       		.uleb128 0x32
 6336 2254 12000000 		.4byte	.LVL4
 6337 2258 7F3F0000 		.4byte	0x3f7f
 6338 225c 33       		.uleb128 0x33
 6339 225d 01       		.uleb128 0x1
 6340 225e 50       		.byte	0x50
 6341 225f 02       		.uleb128 0x2
 6342 2260 76       		.byte	0x76
 6343 2261 00       		.sleb128 0
 6344 2262 33       		.uleb128 0x33
 6345 2263 01       		.uleb128 0x1
 6346 2264 51       		.byte	0x51
 6347 2265 02       		.uleb128 0x2
 6348 2266 75       		.byte	0x75
 6349 2267 00       		.sleb128 0
 6350 2268 33       		.uleb128 0x33
 6351 2269 01       		.uleb128 0x1
 6352 226a 52       		.byte	0x52
 6353 226b 02       		.uleb128 0x2
 6354 226c 08       		.byte	0x8
 6355 226d 60       		.byte	0x60
 6356 226e 00       		.byte	0
 6357 226f 00       		.byte	0
 6358 2270 00       		.byte	0
 6359 2271 2E       		.uleb128 0x2e
 6360 2272 E0170000 		.4byte	0x17e0
 6361 2276 32000000 		.4byte	.LBB204
 6362 227a 0A000000 		.4byte	.LBE204-.LBB204
 6363 227e 01       		.byte	0x1
 6364 227f 37       		.byte	0x37
 6365 2280 C2220000 		.4byte	0x22c2
 6366 2284 2F       		.uleb128 0x2f
 6367 2285 FD170000 		.4byte	0x17fd
 6368 2289 2F010000 		.4byte	.LLST6
 6369 228d 2F       		.uleb128 0x2f
 6370 228e F1170000 		.4byte	0x17f1
 6371 2292 42010000 		.4byte	.LLST7
 6372 2296 30       		.uleb128 0x30
 6373 2297 32000000 		.4byte	.LBB205
 6374 229b 0A000000 		.4byte	.LBE205-.LBB205
 6375 229f 31       		.uleb128 0x31
 6376 22a0 09180000 		.4byte	0x1809
 6377 22a4 32       		.uleb128 0x32
 6378 22a5 3C000000 		.4byte	.LVL9
 6379 22a9 7F3F0000 		.4byte	0x3f7f
 6380 22ad 33       		.uleb128 0x33
 6381 22ae 01       		.uleb128 0x1
 6382 22af 50       		.byte	0x50
ARM GAS  C:\Users\haske\AppData\Local\Temp\cc4f9rxb.s 			page 134


 6383 22b0 02       		.uleb128 0x2
 6384 22b1 76       		.byte	0x76
 6385 22b2 00       		.sleb128 0
 6386 22b3 33       		.uleb128 0x33
 6387 22b4 01       		.uleb128 0x1
 6388 22b5 51       		.byte	0x51
 6389 22b6 02       		.uleb128 0x2
 6390 22b7 75       		.byte	0x75
 6391 22b8 00       		.sleb128 0
 6392 22b9 33       		.uleb128 0x33
 6393 22ba 01       		.uleb128 0x1
 6394 22bb 52       		.byte	0x52
 6395 22bc 02       		.uleb128 0x2
 6396 22bd 08       		.byte	0x8
 6397 22be 67       		.byte	0x67
 6398 22bf 00       		.byte	0
 6399 22c0 00       		.byte	0
 6400 22c1 00       		.byte	0
 6401 22c2 2E       		.uleb128 0x2e
 6402 22c3 14180000 		.4byte	0x1814
 6403 22c7 3E000000 		.4byte	.LBB206
 6404 22cb 0A000000 		.4byte	.LBE206-.LBB206
 6405 22cf 01       		.byte	0x1
 6406 22d0 39       		.byte	0x39
 6407 22d1 12230000 		.4byte	0x2312
 6408 22d5 2F       		.uleb128 0x2f
 6409 22d6 31180000 		.4byte	0x1831
 6410 22da 55010000 		.4byte	.LLST8
 6411 22de 2F       		.uleb128 0x2f
 6412 22df 25180000 		.4byte	0x1825
 6413 22e3 68010000 		.4byte	.LLST9
 6414 22e7 30       		.uleb128 0x30
 6415 22e8 3E000000 		.4byte	.LBB207
 6416 22ec 0A000000 		.4byte	.LBE207-.LBB207
 6417 22f0 31       		.uleb128 0x31
 6418 22f1 3D180000 		.4byte	0x183d
 6419 22f5 32       		.uleb128 0x32
 6420 22f6 48000000 		.4byte	.LVL11
 6421 22fa 7F3F0000 		.4byte	0x3f7f
 6422 22fe 33       		.uleb128 0x33
 6423 22ff 01       		.uleb128 0x1
 6424 2300 50       		.byte	0x50
 6425 2301 02       		.uleb128 0x2
 6426 2302 76       		.byte	0x76
 6427 2303 00       		.sleb128 0
 6428 2304 33       		.uleb128 0x33
 6429 2305 01       		.uleb128 0x1
 6430 2306 51       		.byte	0x51
 6431 2307 02       		.uleb128 0x2
 6432 2308 75       		.byte	0x75
 6433 2309 00       		.sleb128 0
 6434 230a 33       		.uleb128 0x33
 6435 230b 01       		.uleb128 0x1
 6436 230c 52       		.byte	0x52
 6437 230d 01       		.uleb128 0x1
 6438 230e 3B       		.byte	0x3b
 6439 230f 00       		.byte	0
ARM GAS  C:\Users\haske\AppData\Local\Temp\cc4f9rxb.s 			page 135


 6440 2310 00       		.byte	0
 6441 2311 00       		.byte	0
 6442 2312 2E       		.uleb128 0x2e
 6443 2313 48180000 		.4byte	0x1848
 6444 2317 50000000 		.4byte	.LBB208
 6445 231b 0C000000 		.4byte	.LBE208-.LBB208
 6446 231f 01       		.byte	0x1
 6447 2320 3C       		.byte	0x3c
 6448 2321 63230000 		.4byte	0x2363
 6449 2325 2F       		.uleb128 0x2f
 6450 2326 63180000 		.4byte	0x1863
 6451 232a 7B010000 		.4byte	.LLST10
 6452 232e 2F       		.uleb128 0x2f
 6453 232f 58180000 		.4byte	0x1858
 6454 2333 8E010000 		.4byte	.LLST11
 6455 2337 30       		.uleb128 0x30
 6456 2338 50000000 		.4byte	.LBB209
 6457 233c 0C000000 		.4byte	.LBE209-.LBB209
 6458 2340 31       		.uleb128 0x31
 6459 2341 6E180000 		.4byte	0x186e
 6460 2345 32       		.uleb128 0x32
 6461 2346 5A000000 		.4byte	.LVL13
 6462 234a 7F3F0000 		.4byte	0x3f7f
 6463 234e 33       		.uleb128 0x33
 6464 234f 01       		.uleb128 0x1
 6465 2350 50       		.byte	0x50
 6466 2351 02       		.uleb128 0x2
 6467 2352 76       		.byte	0x76
 6468 2353 00       		.sleb128 0
 6469 2354 33       		.uleb128 0x33
 6470 2355 01       		.uleb128 0x1
 6471 2356 51       		.byte	0x51
 6472 2357 02       		.uleb128 0x2
 6473 2358 75       		.byte	0x75
 6474 2359 00       		.sleb128 0
 6475 235a 33       		.uleb128 0x33
 6476 235b 01       		.uleb128 0x1
 6477 235c 52       		.byte	0x52
 6478 235d 02       		.uleb128 0x2
 6479 235e 08       		.byte	0x8
 6480 235f 21       		.byte	0x21
 6481 2360 00       		.byte	0
 6482 2361 00       		.byte	0
 6483 2362 00       		.byte	0
 6484 2363 34       		.uleb128 0x34
 6485 2364 62000000 		.4byte	.LBB210
 6486 2368 B2000000 		.4byte	.LBE210-.LBB210
 6487 236c 6F260000 		.4byte	0x266f
 6488 2370 35       		.uleb128 0x35
 6489 2371 290A0000 		.4byte	.LASF489
 6490 2375 01       		.byte	0x1
 6491 2376 3F       		.byte	0x3f
 6492 2377 A8180000 		.4byte	0x18a8
 6493 237b 2E       		.uleb128 0x2e
 6494 237c 73200000 		.4byte	0x2073
 6495 2380 62000000 		.4byte	.LBB211
 6496 2384 14000000 		.4byte	.LBE211-.LBB211
ARM GAS  C:\Users\haske\AppData\Local\Temp\cc4f9rxb.s 			page 136


 6497 2388 01       		.byte	0x1
 6498 2389 3E       		.byte	0x3e
 6499 238a E6230000 		.4byte	0x23e6
 6500 238e 2F       		.uleb128 0x2f
 6501 238f 8E200000 		.4byte	0x208e
 6502 2393 A1010000 		.4byte	.LLST12
 6503 2397 2F       		.uleb128 0x2f
 6504 2398 83200000 		.4byte	0x2083
 6505 239c B4010000 		.4byte	.LLST13
 6506 23a0 30       		.uleb128 0x30
 6507 23a1 62000000 		.4byte	.LBB212
 6508 23a5 14000000 		.4byte	.LBE212-.LBB212
 6509 23a9 31       		.uleb128 0x31
 6510 23aa 99200000 		.4byte	0x2099
 6511 23ae 36       		.uleb128 0x36
 6512 23af 6C000000 		.4byte	.LVL16
 6513 23b3 7F3F0000 		.4byte	0x3f7f
 6514 23b7 CE230000 		.4byte	0x23ce
 6515 23bb 33       		.uleb128 0x33
 6516 23bc 01       		.uleb128 0x1
 6517 23bd 50       		.byte	0x50
 6518 23be 02       		.uleb128 0x2
 6519 23bf 76       		.byte	0x76
 6520 23c0 00       		.sleb128 0
 6521 23c1 33       		.uleb128 0x33
 6522 23c2 01       		.uleb128 0x1
 6523 23c3 51       		.byte	0x51
 6524 23c4 02       		.uleb128 0x2
 6525 23c5 75       		.byte	0x75
 6526 23c6 00       		.sleb128 0
 6527 23c7 33       		.uleb128 0x33
 6528 23c8 01       		.uleb128 0x1
 6529 23c9 52       		.byte	0x52
 6530 23ca 02       		.uleb128 0x2
 6531 23cb 08       		.byte	0x8
 6532 23cc 20       		.byte	0x20
 6533 23cd 00       		.byte	0
 6534 23ce 32       		.uleb128 0x32
 6535 23cf 76000000 		.4byte	.LVL17
 6536 23d3 8A3F0000 		.4byte	0x3f8a
 6537 23d7 33       		.uleb128 0x33
 6538 23d8 01       		.uleb128 0x1
 6539 23d9 50       		.byte	0x50
 6540 23da 02       		.uleb128 0x2
 6541 23db 76       		.byte	0x76
 6542 23dc 00       		.sleb128 0
 6543 23dd 33       		.uleb128 0x33
 6544 23de 01       		.uleb128 0x1
 6545 23df 51       		.byte	0x51
 6546 23e0 02       		.uleb128 0x2
 6547 23e1 75       		.byte	0x75
 6548 23e2 00       		.sleb128 0
 6549 23e3 00       		.byte	0
 6550 23e4 00       		.byte	0
 6551 23e5 00       		.byte	0
 6552 23e6 2E       		.uleb128 0x2e
 6553 23e7 78180000 		.4byte	0x1878
ARM GAS  C:\Users\haske\AppData\Local\Temp\cc4f9rxb.s 			page 137


 6554 23eb 78000000 		.4byte	.LBB213
 6555 23ef 0A000000 		.4byte	.LBE213-.LBB213
 6556 23f3 01       		.byte	0x1
 6557 23f4 3F       		.byte	0x3f
 6558 23f5 37240000 		.4byte	0x2437
 6559 23f9 2F       		.uleb128 0x2f
 6560 23fa 93180000 		.4byte	0x1893
 6561 23fe C7010000 		.4byte	.LLST14
 6562 2402 2F       		.uleb128 0x2f
 6563 2403 88180000 		.4byte	0x1888
 6564 2407 DA010000 		.4byte	.LLST15
 6565 240b 30       		.uleb128 0x30
 6566 240c 78000000 		.4byte	.LBB214
 6567 2410 0A000000 		.4byte	.LBE214-.LBB214
 6568 2414 31       		.uleb128 0x31
 6569 2415 9E180000 		.4byte	0x189e
 6570 2419 32       		.uleb128 0x32
 6571 241a 82000000 		.4byte	.LVL19
 6572 241e 7F3F0000 		.4byte	0x3f7f
 6573 2422 33       		.uleb128 0x33
 6574 2423 01       		.uleb128 0x1
 6575 2424 50       		.byte	0x50
 6576 2425 02       		.uleb128 0x2
 6577 2426 76       		.byte	0x76
 6578 2427 00       		.sleb128 0
 6579 2428 33       		.uleb128 0x33
 6580 2429 01       		.uleb128 0x1
 6581 242a 51       		.byte	0x51
 6582 242b 02       		.uleb128 0x2
 6583 242c 75       		.byte	0x75
 6584 242d 00       		.sleb128 0
 6585 242e 33       		.uleb128 0x33
 6586 242f 01       		.uleb128 0x1
 6587 2430 52       		.byte	0x52
 6588 2431 02       		.uleb128 0x2
 6589 2432 08       		.byte	0x8
 6590 2433 26       		.byte	0x26
 6591 2434 00       		.byte	0
 6592 2435 00       		.byte	0
 6593 2436 00       		.byte	0
 6594 2437 2E       		.uleb128 0x2e
 6595 2438 B3180000 		.4byte	0x18b3
 6596 243c 9A000000 		.4byte	.LBB215
 6597 2440 0A000000 		.4byte	.LBE215-.LBB215
 6598 2444 01       		.byte	0x1
 6599 2445 44       		.byte	0x44
 6600 2446 8C240000 		.4byte	0x248c
 6601 244a 2F       		.uleb128 0x2f
 6602 244b CE180000 		.4byte	0x18ce
 6603 244f ED010000 		.4byte	.LLST16
 6604 2453 2F       		.uleb128 0x2f
 6605 2454 C3180000 		.4byte	0x18c3
 6606 2458 00020000 		.4byte	.LLST17
 6607 245c 30       		.uleb128 0x30
 6608 245d 9A000000 		.4byte	.LBB216
 6609 2461 0A000000 		.4byte	.LBE216-.LBB216
 6610 2465 37       		.uleb128 0x37
ARM GAS  C:\Users\haske\AppData\Local\Temp\cc4f9rxb.s 			page 138


 6611 2466 D9180000 		.4byte	0x18d9
 6612 246a 13020000 		.4byte	.LLST18
 6613 246e 32       		.uleb128 0x32
 6614 246f A4000000 		.4byte	.LVL22
 6615 2473 7F3F0000 		.4byte	0x3f7f
 6616 2477 33       		.uleb128 0x33
 6617 2478 01       		.uleb128 0x1
 6618 2479 50       		.byte	0x50
 6619 247a 02       		.uleb128 0x2
 6620 247b 76       		.byte	0x76
 6621 247c 00       		.sleb128 0
 6622 247d 33       		.uleb128 0x33
 6623 247e 01       		.uleb128 0x1
 6624 247f 51       		.byte	0x51
 6625 2480 02       		.uleb128 0x2
 6626 2481 75       		.byte	0x75
 6627 2482 00       		.sleb128 0
 6628 2483 33       		.uleb128 0x33
 6629 2484 01       		.uleb128 0x1
 6630 2485 52       		.byte	0x52
 6631 2486 02       		.uleb128 0x2
 6632 2487 08       		.byte	0x8
 6633 2488 23       		.byte	0x23
 6634 2489 00       		.byte	0
 6635 248a 00       		.byte	0
 6636 248b 00       		.byte	0
 6637 248c 2E       		.uleb128 0x2e
 6638 248d 73200000 		.4byte	0x2073
 6639 2491 B6000000 		.4byte	.LBB217
 6640 2495 14000000 		.4byte	.LBE217-.LBB217
 6641 2499 01       		.byte	0x1
 6642 249a 46       		.byte	0x46
 6643 249b F7240000 		.4byte	0x24f7
 6644 249f 2F       		.uleb128 0x2f
 6645 24a0 8E200000 		.4byte	0x208e
 6646 24a4 26020000 		.4byte	.LLST19
 6647 24a8 2F       		.uleb128 0x2f
 6648 24a9 83200000 		.4byte	0x2083
 6649 24ad 39020000 		.4byte	.LLST20
 6650 24b1 30       		.uleb128 0x30
 6651 24b2 B6000000 		.4byte	.LBB218
 6652 24b6 14000000 		.4byte	.LBE218-.LBB218
 6653 24ba 31       		.uleb128 0x31
 6654 24bb 99200000 		.4byte	0x2099
 6655 24bf 36       		.uleb128 0x36
 6656 24c0 C0000000 		.4byte	.LVL26
 6657 24c4 7F3F0000 		.4byte	0x3f7f
 6658 24c8 DF240000 		.4byte	0x24df
 6659 24cc 33       		.uleb128 0x33
 6660 24cd 01       		.uleb128 0x1
 6661 24ce 50       		.byte	0x50
 6662 24cf 02       		.uleb128 0x2
 6663 24d0 76       		.byte	0x76
 6664 24d1 00       		.sleb128 0
 6665 24d2 33       		.uleb128 0x33
 6666 24d3 01       		.uleb128 0x1
 6667 24d4 51       		.byte	0x51
ARM GAS  C:\Users\haske\AppData\Local\Temp\cc4f9rxb.s 			page 139


 6668 24d5 02       		.uleb128 0x2
 6669 24d6 75       		.byte	0x75
 6670 24d7 00       		.sleb128 0
 6671 24d8 33       		.uleb128 0x33
 6672 24d9 01       		.uleb128 0x1
 6673 24da 52       		.byte	0x52
 6674 24db 02       		.uleb128 0x2
 6675 24dc 08       		.byte	0x8
 6676 24dd 20       		.byte	0x20
 6677 24de 00       		.byte	0
 6678 24df 32       		.uleb128 0x32
 6679 24e0 CA000000 		.4byte	.LVL27
 6680 24e4 8A3F0000 		.4byte	0x3f8a
 6681 24e8 33       		.uleb128 0x33
 6682 24e9 01       		.uleb128 0x1
 6683 24ea 50       		.byte	0x50
 6684 24eb 02       		.uleb128 0x2
 6685 24ec 76       		.byte	0x76
 6686 24ed 00       		.sleb128 0
 6687 24ee 33       		.uleb128 0x33
 6688 24ef 01       		.uleb128 0x1
 6689 24f0 51       		.byte	0x51
 6690 24f1 02       		.uleb128 0x2
 6691 24f2 75       		.byte	0x75
 6692 24f3 00       		.sleb128 0
 6693 24f4 00       		.byte	0
 6694 24f5 00       		.byte	0
 6695 24f6 00       		.byte	0
 6696 24f7 2E       		.uleb128 0x2e
 6697 24f8 A3200000 		.4byte	0x20a3
 6698 24fc CC000000 		.4byte	.LBB219
 6699 2500 14000000 		.4byte	.LBE219-.LBB219
 6700 2504 01       		.byte	0x1
 6701 2505 47       		.byte	0x47
 6702 2506 62250000 		.4byte	0x2562
 6703 250a 2F       		.uleb128 0x2f
 6704 250b BE200000 		.4byte	0x20be
 6705 250f 4C020000 		.4byte	.LLST21
 6706 2513 2F       		.uleb128 0x2f
 6707 2514 B3200000 		.4byte	0x20b3
 6708 2518 5F020000 		.4byte	.LLST22
 6709 251c 30       		.uleb128 0x30
 6710 251d CC000000 		.4byte	.LBB220
 6711 2521 14000000 		.4byte	.LBE220-.LBB220
 6712 2525 31       		.uleb128 0x31
 6713 2526 C9200000 		.4byte	0x20c9
 6714 252a 36       		.uleb128 0x36
 6715 252b D6000000 		.4byte	.LVL29
 6716 252f 7F3F0000 		.4byte	0x3f7f
 6717 2533 4A250000 		.4byte	0x254a
 6718 2537 33       		.uleb128 0x33
 6719 2538 01       		.uleb128 0x1
 6720 2539 50       		.byte	0x50
 6721 253a 02       		.uleb128 0x2
 6722 253b 76       		.byte	0x76
 6723 253c 00       		.sleb128 0
 6724 253d 33       		.uleb128 0x33
ARM GAS  C:\Users\haske\AppData\Local\Temp\cc4f9rxb.s 			page 140


 6725 253e 01       		.uleb128 0x1
 6726 253f 51       		.byte	0x51
 6727 2540 02       		.uleb128 0x2
 6728 2541 75       		.byte	0x75
 6729 2542 00       		.sleb128 0
 6730 2543 33       		.uleb128 0x33
 6731 2544 01       		.uleb128 0x1
 6732 2545 52       		.byte	0x52
 6733 2546 02       		.uleb128 0x2
 6734 2547 08       		.byte	0x8
 6735 2548 22       		.byte	0x22
 6736 2549 00       		.byte	0
 6737 254a 32       		.uleb128 0x32
 6738 254b E0000000 		.4byte	.LVL30
 6739 254f 8A3F0000 		.4byte	0x3f8a
 6740 2553 33       		.uleb128 0x33
 6741 2554 01       		.uleb128 0x1
 6742 2555 50       		.byte	0x50
 6743 2556 02       		.uleb128 0x2
 6744 2557 76       		.byte	0x76
 6745 2558 00       		.sleb128 0
 6746 2559 33       		.uleb128 0x33
 6747 255a 01       		.uleb128 0x1
 6748 255b 51       		.byte	0x51
 6749 255c 02       		.uleb128 0x2
 6750 255d 75       		.byte	0x75
 6751 255e 00       		.sleb128 0
 6752 255f 00       		.byte	0
 6753 2560 00       		.byte	0
 6754 2561 00       		.byte	0
 6755 2562 2E       		.uleb128 0x2e
 6756 2563 13190000 		.4byte	0x1913
 6757 2567 E2000000 		.4byte	.LBB221
 6758 256b 0A000000 		.4byte	.LBE221-.LBB221
 6759 256f 01       		.byte	0x1
 6760 2570 48       		.byte	0x48
 6761 2571 B3250000 		.4byte	0x25b3
 6762 2575 2F       		.uleb128 0x2f
 6763 2576 2E190000 		.4byte	0x192e
 6764 257a 72020000 		.4byte	.LLST23
 6765 257e 2F       		.uleb128 0x2f
 6766 257f 23190000 		.4byte	0x1923
 6767 2583 85020000 		.4byte	.LLST24
 6768 2587 30       		.uleb128 0x30
 6769 2588 E2000000 		.4byte	.LBB222
 6770 258c 0A000000 		.4byte	.LBE222-.LBB222
 6771 2590 31       		.uleb128 0x31
 6772 2591 39190000 		.4byte	0x1939
 6773 2595 32       		.uleb128 0x32
 6774 2596 EC000000 		.4byte	.LVL32
 6775 259a 7F3F0000 		.4byte	0x3f7f
 6776 259e 33       		.uleb128 0x33
 6777 259f 01       		.uleb128 0x1
 6778 25a0 50       		.byte	0x50
 6779 25a1 02       		.uleb128 0x2
 6780 25a2 76       		.byte	0x76
 6781 25a3 00       		.sleb128 0
ARM GAS  C:\Users\haske\AppData\Local\Temp\cc4f9rxb.s 			page 141


 6782 25a4 33       		.uleb128 0x33
 6783 25a5 01       		.uleb128 0x1
 6784 25a6 51       		.byte	0x51
 6785 25a7 02       		.uleb128 0x2
 6786 25a8 75       		.byte	0x75
 6787 25a9 00       		.sleb128 0
 6788 25aa 33       		.uleb128 0x33
 6789 25ab 01       		.uleb128 0x1
 6790 25ac 52       		.byte	0x52
 6791 25ad 02       		.uleb128 0x2
 6792 25ae 08       		.byte	0x8
 6793 25af 24       		.byte	0x24
 6794 25b0 00       		.byte	0
 6795 25b1 00       		.byte	0
 6796 25b2 00       		.byte	0
 6797 25b3 2E       		.uleb128 0x2e
 6798 25b4 E3180000 		.4byte	0x18e3
 6799 25b8 EE000000 		.4byte	.LBB223
 6800 25bc 0A000000 		.4byte	.LBE223-.LBB223
 6801 25c0 01       		.byte	0x1
 6802 25c1 49       		.byte	0x49
 6803 25c2 04260000 		.4byte	0x2604
 6804 25c6 2F       		.uleb128 0x2f
 6805 25c7 FE180000 		.4byte	0x18fe
 6806 25cb 98020000 		.4byte	.LLST25
 6807 25cf 2F       		.uleb128 0x2f
 6808 25d0 F3180000 		.4byte	0x18f3
 6809 25d4 AB020000 		.4byte	.LLST26
 6810 25d8 30       		.uleb128 0x30
 6811 25d9 EE000000 		.4byte	.LBB224
 6812 25dd 0A000000 		.4byte	.LBE224-.LBB224
 6813 25e1 31       		.uleb128 0x31
 6814 25e2 09190000 		.4byte	0x1909
 6815 25e6 32       		.uleb128 0x32
 6816 25e7 F8000000 		.4byte	.LVL34
 6817 25eb 7F3F0000 		.4byte	0x3f7f
 6818 25ef 33       		.uleb128 0x33
 6819 25f0 01       		.uleb128 0x1
 6820 25f1 50       		.byte	0x50
 6821 25f2 02       		.uleb128 0x2
 6822 25f3 76       		.byte	0x76
 6823 25f4 00       		.sleb128 0
 6824 25f5 33       		.uleb128 0x33
 6825 25f6 01       		.uleb128 0x1
 6826 25f7 51       		.byte	0x51
 6827 25f8 02       		.uleb128 0x2
 6828 25f9 75       		.byte	0x75
 6829 25fa 00       		.sleb128 0
 6830 25fb 33       		.uleb128 0x33
 6831 25fc 01       		.uleb128 0x1
 6832 25fd 52       		.byte	0x52
 6833 25fe 02       		.uleb128 0x2
 6834 25ff 08       		.byte	0x8
 6835 2600 25       		.byte	0x25
 6836 2601 00       		.byte	0
 6837 2602 00       		.byte	0
 6838 2603 00       		.byte	0
ARM GAS  C:\Users\haske\AppData\Local\Temp\cc4f9rxb.s 			page 142


 6839 2604 2E       		.uleb128 0x2e
 6840 2605 43190000 		.4byte	0x1943
 6841 2609 FA000000 		.4byte	.LBB225
 6842 260d 0A000000 		.4byte	.LBE225-.LBB225
 6843 2611 01       		.byte	0x1
 6844 2612 4B       		.byte	0x4b
 6845 2613 59260000 		.4byte	0x2659
 6846 2617 2F       		.uleb128 0x2f
 6847 2618 5E190000 		.4byte	0x195e
 6848 261c BE020000 		.4byte	.LLST27
 6849 2620 2F       		.uleb128 0x2f
 6850 2621 53190000 		.4byte	0x1953
 6851 2625 D1020000 		.4byte	.LLST28
 6852 2629 30       		.uleb128 0x30
 6853 262a FA000000 		.4byte	.LBB226
 6854 262e 0A000000 		.4byte	.LBE226-.LBB226
 6855 2632 37       		.uleb128 0x37
 6856 2633 69190000 		.4byte	0x1969
 6857 2637 E4020000 		.4byte	.LLST29
 6858 263b 32       		.uleb128 0x32
 6859 263c 04010000 		.4byte	.LVL36
 6860 2640 7F3F0000 		.4byte	0x3f7f
 6861 2644 33       		.uleb128 0x33
 6862 2645 01       		.uleb128 0x1
 6863 2646 50       		.byte	0x50
 6864 2647 02       		.uleb128 0x2
 6865 2648 76       		.byte	0x76
 6866 2649 00       		.sleb128 0
 6867 264a 33       		.uleb128 0x33
 6868 264b 01       		.uleb128 0x1
 6869 264c 51       		.byte	0x51
 6870 264d 02       		.uleb128 0x2
 6871 264e 75       		.byte	0x75
 6872 264f 00       		.sleb128 0
 6873 2650 33       		.uleb128 0x33
 6874 2651 01       		.uleb128 0x1
 6875 2652 52       		.byte	0x52
 6876 2653 02       		.uleb128 0x2
 6877 2654 08       		.byte	0x8
 6878 2655 27       		.byte	0x27
 6879 2656 00       		.byte	0
 6880 2657 00       		.byte	0
 6881 2658 00       		.byte	0
 6882 2659 32       		.uleb128 0x32
 6883 265a 98000000 		.4byte	.LVL20
 6884 265e 953F0000 		.4byte	0x3f95
 6885 2662 33       		.uleb128 0x33
 6886 2663 01       		.uleb128 0x1
 6887 2664 50       		.byte	0x50
 6888 2665 02       		.uleb128 0x2
 6889 2666 74       		.byte	0x74
 6890 2667 06       		.sleb128 6
 6891 2668 33       		.uleb128 0x33
 6892 2669 01       		.uleb128 0x1
 6893 266a 52       		.byte	0x52
 6894 266b 01       		.uleb128 0x1
 6895 266c 3A       		.byte	0x3a
ARM GAS  C:\Users\haske\AppData\Local\Temp\cc4f9rxb.s 			page 143


 6896 266d 00       		.byte	0
 6897 266e 00       		.byte	0
 6898 266f 2E       		.uleb128 0x2e
 6899 2670 73190000 		.4byte	0x1973
 6900 2674 14010000 		.4byte	.LBB227
 6901 2678 0C000000 		.4byte	.LBE227-.LBB227
 6902 267c 01       		.byte	0x1
 6903 267d 50       		.byte	0x50
 6904 267e C0260000 		.4byte	0x26c0
 6905 2682 2F       		.uleb128 0x2f
 6906 2683 8E190000 		.4byte	0x198e
 6907 2687 F7020000 		.4byte	.LLST30
 6908 268b 2F       		.uleb128 0x2f
 6909 268c 83190000 		.4byte	0x1983
 6910 2690 0A030000 		.4byte	.LLST31
 6911 2694 30       		.uleb128 0x30
 6912 2695 14010000 		.4byte	.LBB228
 6913 2699 0C000000 		.4byte	.LBE228-.LBB228
 6914 269d 31       		.uleb128 0x31
 6915 269e 99190000 		.4byte	0x1999
 6916 26a2 32       		.uleb128 0x32
 6917 26a3 1E010000 		.4byte	.LVL40
 6918 26a7 7F3F0000 		.4byte	0x3f7f
 6919 26ab 33       		.uleb128 0x33
 6920 26ac 01       		.uleb128 0x1
 6921 26ad 50       		.byte	0x50
 6922 26ae 02       		.uleb128 0x2
 6923 26af 76       		.byte	0x76
 6924 26b0 00       		.sleb128 0
 6925 26b1 33       		.uleb128 0x33
 6926 26b2 01       		.uleb128 0x1
 6927 26b3 51       		.byte	0x51
 6928 26b4 02       		.uleb128 0x2
 6929 26b5 75       		.byte	0x75
 6930 26b6 00       		.sleb128 0
 6931 26b7 33       		.uleb128 0x33
 6932 26b8 01       		.uleb128 0x1
 6933 26b9 52       		.byte	0x52
 6934 26ba 02       		.uleb128 0x2
 6935 26bb 08       		.byte	0x8
 6936 26bc 32       		.byte	0x32
 6937 26bd 00       		.byte	0
 6938 26be 00       		.byte	0
 6939 26bf 00       		.byte	0
 6940 26c0 2E       		.uleb128 0x2e
 6941 26c1 A3190000 		.4byte	0x19a3
 6942 26c5 2E010000 		.4byte	.LBB229
 6943 26c9 0C000000 		.4byte	.LBE229-.LBB229
 6944 26cd 01       		.byte	0x1
 6945 26ce 53       		.byte	0x53
 6946 26cf 11270000 		.4byte	0x2711
 6947 26d3 2F       		.uleb128 0x2f
 6948 26d4 BE190000 		.4byte	0x19be
 6949 26d8 1D030000 		.4byte	.LLST32
 6950 26dc 2F       		.uleb128 0x2f
 6951 26dd B3190000 		.4byte	0x19b3
 6952 26e1 30030000 		.4byte	.LLST33
ARM GAS  C:\Users\haske\AppData\Local\Temp\cc4f9rxb.s 			page 144


 6953 26e5 30       		.uleb128 0x30
 6954 26e6 2E010000 		.4byte	.LBB230
 6955 26ea 0C000000 		.4byte	.LBE230-.LBB230
 6956 26ee 31       		.uleb128 0x31
 6957 26ef C9190000 		.4byte	0x19c9
 6958 26f3 32       		.uleb128 0x32
 6959 26f4 38010000 		.4byte	.LVL43
 6960 26f8 7F3F0000 		.4byte	0x3f7f
 6961 26fc 33       		.uleb128 0x33
 6962 26fd 01       		.uleb128 0x1
 6963 26fe 50       		.byte	0x50
 6964 26ff 02       		.uleb128 0x2
 6965 2700 76       		.byte	0x76
 6966 2701 00       		.sleb128 0
 6967 2702 33       		.uleb128 0x33
 6968 2703 01       		.uleb128 0x1
 6969 2704 51       		.byte	0x51
 6970 2705 02       		.uleb128 0x2
 6971 2706 75       		.byte	0x75
 6972 2707 00       		.sleb128 0
 6973 2708 33       		.uleb128 0x33
 6974 2709 01       		.uleb128 0x1
 6975 270a 52       		.byte	0x52
 6976 270b 02       		.uleb128 0x2
 6977 270c 08       		.byte	0x8
 6978 270d 31       		.byte	0x31
 6979 270e 00       		.byte	0
 6980 270f 00       		.byte	0
 6981 2710 00       		.byte	0
 6982 2711 2E       		.uleb128 0x2e
 6983 2712 D3190000 		.4byte	0x19d3
 6984 2716 42010000 		.4byte	.LBB231
 6985 271a 0A000000 		.4byte	.LBE231-.LBB231
 6986 271e 01       		.byte	0x1
 6987 271f 55       		.byte	0x55
 6988 2720 66270000 		.4byte	0x2766
 6989 2724 2F       		.uleb128 0x2f
 6990 2725 F0190000 		.4byte	0x19f0
 6991 2729 43030000 		.4byte	.LLST34
 6992 272d 2F       		.uleb128 0x2f
 6993 272e E4190000 		.4byte	0x19e4
 6994 2732 56030000 		.4byte	.LLST35
 6995 2736 30       		.uleb128 0x30
 6996 2737 42010000 		.4byte	.LBB232
 6997 273b 0A000000 		.4byte	.LBE232-.LBB232
 6998 273f 37       		.uleb128 0x37
 6999 2740 FC190000 		.4byte	0x19fc
 7000 2744 69030000 		.4byte	.LLST36
 7001 2748 32       		.uleb128 0x32
 7002 2749 4C010000 		.4byte	.LVL46
 7003 274d 7F3F0000 		.4byte	0x3f7f
 7004 2751 33       		.uleb128 0x33
 7005 2752 01       		.uleb128 0x1
 7006 2753 50       		.byte	0x50
 7007 2754 02       		.uleb128 0x2
 7008 2755 76       		.byte	0x76
 7009 2756 00       		.sleb128 0
ARM GAS  C:\Users\haske\AppData\Local\Temp\cc4f9rxb.s 			page 145


 7010 2757 33       		.uleb128 0x33
 7011 2758 01       		.uleb128 0x1
 7012 2759 51       		.byte	0x51
 7013 275a 02       		.uleb128 0x2
 7014 275b 75       		.byte	0x75
 7015 275c 00       		.sleb128 0
 7016 275d 33       		.uleb128 0x33
 7017 275e 01       		.uleb128 0x1
 7018 275f 52       		.byte	0x52
 7019 2760 02       		.uleb128 0x2
 7020 2761 08       		.byte	0x8
 7021 2762 33       		.byte	0x33
 7022 2763 00       		.byte	0
 7023 2764 00       		.byte	0
 7024 2765 00       		.byte	0
 7025 2766 2E       		.uleb128 0x2e
 7026 2767 D3200000 		.4byte	0x20d3
 7027 276b 5E010000 		.4byte	.LBB233
 7028 276f 14000000 		.4byte	.LBE233-.LBB233
 7029 2773 01       		.byte	0x1
 7030 2774 56       		.byte	0x56
 7031 2775 D1270000 		.4byte	0x27d1
 7032 2779 2F       		.uleb128 0x2f
 7033 277a EE200000 		.4byte	0x20ee
 7034 277e 7C030000 		.4byte	.LLST37
 7035 2782 2F       		.uleb128 0x2f
 7036 2783 E3200000 		.4byte	0x20e3
 7037 2787 8F030000 		.4byte	.LLST38
 7038 278b 30       		.uleb128 0x30
 7039 278c 5E010000 		.4byte	.LBB234
 7040 2790 14000000 		.4byte	.LBE234-.LBB234
 7041 2794 31       		.uleb128 0x31
 7042 2795 F9200000 		.4byte	0x20f9
 7043 2799 36       		.uleb128 0x36
 7044 279a 68010000 		.4byte	.LVL50
 7045 279e 7F3F0000 		.4byte	0x3f7f
 7046 27a2 B9270000 		.4byte	0x27b9
 7047 27a6 33       		.uleb128 0x33
 7048 27a7 01       		.uleb128 0x1
 7049 27a8 50       		.byte	0x50
 7050 27a9 02       		.uleb128 0x2
 7051 27aa 76       		.byte	0x76
 7052 27ab 00       		.sleb128 0
 7053 27ac 33       		.uleb128 0x33
 7054 27ad 01       		.uleb128 0x1
 7055 27ae 51       		.byte	0x51
 7056 27af 02       		.uleb128 0x2
 7057 27b0 75       		.byte	0x75
 7058 27b1 00       		.sleb128 0
 7059 27b2 33       		.uleb128 0x33
 7060 27b3 01       		.uleb128 0x1
 7061 27b4 52       		.byte	0x52
 7062 27b5 02       		.uleb128 0x2
 7063 27b6 08       		.byte	0x8
 7064 27b7 30       		.byte	0x30
 7065 27b8 00       		.byte	0
 7066 27b9 32       		.uleb128 0x32
ARM GAS  C:\Users\haske\AppData\Local\Temp\cc4f9rxb.s 			page 146


 7067 27ba 72010000 		.4byte	.LVL51
 7068 27be 8A3F0000 		.4byte	0x3f8a
 7069 27c2 33       		.uleb128 0x33
 7070 27c3 01       		.uleb128 0x1
 7071 27c4 50       		.byte	0x50
 7072 27c5 02       		.uleb128 0x2
 7073 27c6 76       		.byte	0x76
 7074 27c7 00       		.sleb128 0
 7075 27c8 33       		.uleb128 0x33
 7076 27c9 01       		.uleb128 0x1
 7077 27ca 51       		.byte	0x51
 7078 27cb 02       		.uleb128 0x2
 7079 27cc 75       		.byte	0x75
 7080 27cd 00       		.sleb128 0
 7081 27ce 00       		.byte	0
 7082 27cf 00       		.byte	0
 7083 27d0 00       		.byte	0
 7084 27d1 2E       		.uleb128 0x2e
 7085 27d2 071A0000 		.4byte	0x1a07
 7086 27d6 74010000 		.4byte	.LBB235
 7087 27da 0C000000 		.4byte	.LBE235-.LBB235
 7088 27de 01       		.byte	0x1
 7089 27df 5B       		.byte	0x5b
 7090 27e0 22280000 		.4byte	0x2822
 7091 27e4 2F       		.uleb128 0x2f
 7092 27e5 241A0000 		.4byte	0x1a24
 7093 27e9 A2030000 		.4byte	.LLST39
 7094 27ed 2F       		.uleb128 0x2f
 7095 27ee 181A0000 		.4byte	0x1a18
 7096 27f2 B5030000 		.4byte	.LLST40
 7097 27f6 30       		.uleb128 0x30
 7098 27f7 74010000 		.4byte	.LBB236
 7099 27fb 0C000000 		.4byte	.LBE236-.LBB236
 7100 27ff 31       		.uleb128 0x31
 7101 2800 301A0000 		.4byte	0x1a30
 7102 2804 32       		.uleb128 0x32
 7103 2805 7E010000 		.4byte	.LVL53
 7104 2809 7F3F0000 		.4byte	0x3f7f
 7105 280d 33       		.uleb128 0x33
 7106 280e 01       		.uleb128 0x1
 7107 280f 50       		.byte	0x50
 7108 2810 02       		.uleb128 0x2
 7109 2811 76       		.byte	0x76
 7110 2812 00       		.sleb128 0
 7111 2813 33       		.uleb128 0x33
 7112 2814 01       		.uleb128 0x1
 7113 2815 51       		.byte	0x51
 7114 2816 02       		.uleb128 0x2
 7115 2817 75       		.byte	0x75
 7116 2818 00       		.sleb128 0
 7117 2819 33       		.uleb128 0x33
 7118 281a 01       		.uleb128 0x1
 7119 281b 52       		.byte	0x52
 7120 281c 02       		.uleb128 0x2
 7121 281d 08       		.byte	0x8
 7122 281e 35       		.byte	0x35
 7123 281f 00       		.byte	0
ARM GAS  C:\Users\haske\AppData\Local\Temp\cc4f9rxb.s 			page 147


 7124 2820 00       		.byte	0
 7125 2821 00       		.byte	0
 7126 2822 2E       		.uleb128 0x2e
 7127 2823 3B1A0000 		.4byte	0x1a3b
 7128 2827 8E010000 		.4byte	.LBB237
 7129 282b 0C000000 		.4byte	.LBE237-.LBB237
 7130 282f 01       		.byte	0x1
 7131 2830 5E       		.byte	0x5e
 7132 2831 73280000 		.4byte	0x2873
 7133 2835 2F       		.uleb128 0x2f
 7134 2836 581A0000 		.4byte	0x1a58
 7135 283a C8030000 		.4byte	.LLST41
 7136 283e 2F       		.uleb128 0x2f
 7137 283f 4C1A0000 		.4byte	0x1a4c
 7138 2843 DB030000 		.4byte	.LLST42
 7139 2847 30       		.uleb128 0x30
 7140 2848 8E010000 		.4byte	.LBB238
 7141 284c 0C000000 		.4byte	.LBE238-.LBB238
 7142 2850 31       		.uleb128 0x31
 7143 2851 641A0000 		.4byte	0x1a64
 7144 2855 32       		.uleb128 0x32
 7145 2856 98010000 		.4byte	.LVL56
 7146 285a 7F3F0000 		.4byte	0x3f7f
 7147 285e 33       		.uleb128 0x33
 7148 285f 01       		.uleb128 0x1
 7149 2860 50       		.byte	0x50
 7150 2861 02       		.uleb128 0x2
 7151 2862 76       		.byte	0x76
 7152 2863 00       		.sleb128 0
 7153 2864 33       		.uleb128 0x33
 7154 2865 01       		.uleb128 0x1
 7155 2866 51       		.byte	0x51
 7156 2867 02       		.uleb128 0x2
 7157 2868 75       		.byte	0x75
 7158 2869 00       		.sleb128 0
 7159 286a 33       		.uleb128 0x33
 7160 286b 01       		.uleb128 0x1
 7161 286c 52       		.byte	0x52
 7162 286d 02       		.uleb128 0x2
 7163 286e 08       		.byte	0x8
 7164 286f 37       		.byte	0x37
 7165 2870 00       		.byte	0
 7166 2871 00       		.byte	0
 7167 2872 00       		.byte	0
 7168 2873 2E       		.uleb128 0x2e
 7169 2874 6F1A0000 		.4byte	0x1a6f
 7170 2878 A2010000 		.4byte	.LBB239
 7171 287c 0A000000 		.4byte	.LBE239-.LBB239
 7172 2880 01       		.byte	0x1
 7173 2881 60       		.byte	0x60
 7174 2882 C4280000 		.4byte	0x28c4
 7175 2886 2F       		.uleb128 0x2f
 7176 2887 8C1A0000 		.4byte	0x1a8c
 7177 288b EE030000 		.4byte	.LLST43
 7178 288f 2F       		.uleb128 0x2f
 7179 2890 801A0000 		.4byte	0x1a80
 7180 2894 01040000 		.4byte	.LLST44
ARM GAS  C:\Users\haske\AppData\Local\Temp\cc4f9rxb.s 			page 148


 7181 2898 30       		.uleb128 0x30
 7182 2899 A2010000 		.4byte	.LBB240
 7183 289d 0A000000 		.4byte	.LBE240-.LBB240
 7184 28a1 31       		.uleb128 0x31
 7185 28a2 981A0000 		.4byte	0x1a98
 7186 28a6 32       		.uleb128 0x32
 7187 28a7 AC010000 		.4byte	.LVL59
 7188 28ab 7F3F0000 		.4byte	0x3f7f
 7189 28af 33       		.uleb128 0x33
 7190 28b0 01       		.uleb128 0x1
 7191 28b1 50       		.byte	0x50
 7192 28b2 02       		.uleb128 0x2
 7193 28b3 76       		.byte	0x76
 7194 28b4 00       		.sleb128 0
 7195 28b5 33       		.uleb128 0x33
 7196 28b6 01       		.uleb128 0x1
 7197 28b7 51       		.byte	0x51
 7198 28b8 02       		.uleb128 0x2
 7199 28b9 75       		.byte	0x75
 7200 28ba 00       		.sleb128 0
 7201 28bb 33       		.uleb128 0x33
 7202 28bc 01       		.uleb128 0x1
 7203 28bd 52       		.byte	0x52
 7204 28be 02       		.uleb128 0x2
 7205 28bf 08       		.byte	0x8
 7206 28c0 38       		.byte	0x38
 7207 28c1 00       		.byte	0
 7208 28c2 00       		.byte	0
 7209 28c3 00       		.byte	0
 7210 28c4 2E       		.uleb128 0x2e
 7211 28c5 03210000 		.4byte	0x2103
 7212 28c9 AE010000 		.4byte	.LBB241
 7213 28cd 14000000 		.4byte	.LBE241-.LBB241
 7214 28d1 01       		.byte	0x1
 7215 28d2 61       		.byte	0x61
 7216 28d3 2F290000 		.4byte	0x292f
 7217 28d7 2F       		.uleb128 0x2f
 7218 28d8 20210000 		.4byte	0x2120
 7219 28dc 14040000 		.4byte	.LLST45
 7220 28e0 2F       		.uleb128 0x2f
 7221 28e1 14210000 		.4byte	0x2114
 7222 28e5 27040000 		.4byte	.LLST46
 7223 28e9 30       		.uleb128 0x30
 7224 28ea AE010000 		.4byte	.LBB242
 7225 28ee 14000000 		.4byte	.LBE242-.LBB242
 7226 28f2 31       		.uleb128 0x31
 7227 28f3 2C210000 		.4byte	0x212c
 7228 28f7 36       		.uleb128 0x36
 7229 28f8 B8010000 		.4byte	.LVL61
 7230 28fc 7F3F0000 		.4byte	0x3f7f
 7231 2900 17290000 		.4byte	0x2917
 7232 2904 33       		.uleb128 0x33
 7233 2905 01       		.uleb128 0x1
 7234 2906 50       		.byte	0x50
 7235 2907 02       		.uleb128 0x2
 7236 2908 76       		.byte	0x76
 7237 2909 00       		.sleb128 0
ARM GAS  C:\Users\haske\AppData\Local\Temp\cc4f9rxb.s 			page 149


 7238 290a 33       		.uleb128 0x33
 7239 290b 01       		.uleb128 0x1
 7240 290c 51       		.byte	0x51
 7241 290d 02       		.uleb128 0x2
 7242 290e 75       		.byte	0x75
 7243 290f 00       		.sleb128 0
 7244 2910 33       		.uleb128 0x33
 7245 2911 01       		.uleb128 0x1
 7246 2912 52       		.byte	0x52
 7247 2913 02       		.uleb128 0x2
 7248 2914 08       		.byte	0x8
 7249 2915 36       		.byte	0x36
 7250 2916 00       		.byte	0
 7251 2917 32       		.uleb128 0x32
 7252 2918 C2010000 		.4byte	.LVL62
 7253 291c 8A3F0000 		.4byte	0x3f8a
 7254 2920 33       		.uleb128 0x33
 7255 2921 01       		.uleb128 0x1
 7256 2922 50       		.byte	0x50
 7257 2923 02       		.uleb128 0x2
 7258 2924 76       		.byte	0x76
 7259 2925 00       		.sleb128 0
 7260 2926 33       		.uleb128 0x33
 7261 2927 01       		.uleb128 0x1
 7262 2928 51       		.byte	0x51
 7263 2929 02       		.uleb128 0x2
 7264 292a 75       		.byte	0x75
 7265 292b 00       		.sleb128 0
 7266 292c 00       		.byte	0
 7267 292d 00       		.byte	0
 7268 292e 00       		.byte	0
 7269 292f 2E       		.uleb128 0x2e
 7270 2930 A31A0000 		.4byte	0x1aa3
 7271 2934 CA010000 		.4byte	.LBB243
 7272 2938 0A000000 		.4byte	.LBE243-.LBB243
 7273 293c 01       		.byte	0x1
 7274 293d 67       		.byte	0x67
 7275 293e 84290000 		.4byte	0x2984
 7276 2942 2F       		.uleb128 0x2f
 7277 2943 BE1A0000 		.4byte	0x1abe
 7278 2947 3A040000 		.4byte	.LLST47
 7279 294b 2F       		.uleb128 0x2f
 7280 294c B31A0000 		.4byte	0x1ab3
 7281 2950 4D040000 		.4byte	.LLST48
 7282 2954 30       		.uleb128 0x30
 7283 2955 CA010000 		.4byte	.LBB244
 7284 2959 0A000000 		.4byte	.LBE244-.LBB244
 7285 295d 37       		.uleb128 0x37
 7286 295e C91A0000 		.4byte	0x1ac9
 7287 2962 60040000 		.4byte	.LLST49
 7288 2966 32       		.uleb128 0x32
 7289 2967 D4010000 		.4byte	.LVL64
 7290 296b 7F3F0000 		.4byte	0x3f7f
 7291 296f 33       		.uleb128 0x33
 7292 2970 01       		.uleb128 0x1
 7293 2971 50       		.byte	0x50
 7294 2972 02       		.uleb128 0x2
ARM GAS  C:\Users\haske\AppData\Local\Temp\cc4f9rxb.s 			page 150


 7295 2973 76       		.byte	0x76
 7296 2974 00       		.sleb128 0
 7297 2975 33       		.uleb128 0x33
 7298 2976 01       		.uleb128 0x1
 7299 2977 51       		.byte	0x51
 7300 2978 02       		.uleb128 0x2
 7301 2979 75       		.byte	0x75
 7302 297a 00       		.sleb128 0
 7303 297b 33       		.uleb128 0x33
 7304 297c 01       		.uleb128 0x1
 7305 297d 52       		.byte	0x52
 7306 297e 02       		.uleb128 0x2
 7307 297f 08       		.byte	0x8
 7308 2980 28       		.byte	0x28
 7309 2981 00       		.byte	0
 7310 2982 00       		.byte	0
 7311 2983 00       		.byte	0
 7312 2984 2E       		.uleb128 0x2e
 7313 2985 D31A0000 		.4byte	0x1ad3
 7314 2989 DA010000 		.4byte	.LBB245
 7315 298d 0C000000 		.4byte	.LBE245-.LBB245
 7316 2991 01       		.byte	0x1
 7317 2992 69       		.byte	0x69
 7318 2993 D5290000 		.4byte	0x29d5
 7319 2997 2F       		.uleb128 0x2f
 7320 2998 EE1A0000 		.4byte	0x1aee
 7321 299c 89040000 		.4byte	.LLST50
 7322 29a0 2F       		.uleb128 0x2f
 7323 29a1 E31A0000 		.4byte	0x1ae3
 7324 29a5 9C040000 		.4byte	.LLST51
 7325 29a9 30       		.uleb128 0x30
 7326 29aa DA010000 		.4byte	.LBB246
 7327 29ae 0C000000 		.4byte	.LBE246-.LBB246
 7328 29b2 31       		.uleb128 0x31
 7329 29b3 F91A0000 		.4byte	0x1af9
 7330 29b7 32       		.uleb128 0x32
 7331 29b8 E4010000 		.4byte	.LVL67
 7332 29bc 7F3F0000 		.4byte	0x3f7f
 7333 29c0 33       		.uleb128 0x33
 7334 29c1 01       		.uleb128 0x1
 7335 29c2 50       		.byte	0x50
 7336 29c3 02       		.uleb128 0x2
 7337 29c4 76       		.byte	0x76
 7338 29c5 00       		.sleb128 0
 7339 29c6 33       		.uleb128 0x33
 7340 29c7 01       		.uleb128 0x1
 7341 29c8 51       		.byte	0x51
 7342 29c9 02       		.uleb128 0x2
 7343 29ca 75       		.byte	0x75
 7344 29cb 00       		.sleb128 0
 7345 29cc 33       		.uleb128 0x33
 7346 29cd 01       		.uleb128 0x1
 7347 29ce 52       		.byte	0x52
 7348 29cf 02       		.uleb128 0x2
 7349 29d0 08       		.byte	0x8
 7350 29d1 29       		.byte	0x29
 7351 29d2 00       		.byte	0
ARM GAS  C:\Users\haske\AppData\Local\Temp\cc4f9rxb.s 			page 151


 7352 29d3 00       		.byte	0
 7353 29d4 00       		.byte	0
 7354 29d5 2E       		.uleb128 0x2e
 7355 29d6 031B0000 		.4byte	0x1b03
 7356 29da F6010000 		.4byte	.LBB247
 7357 29de 0A000000 		.4byte	.LBE247-.LBB247
 7358 29e2 01       		.byte	0x1
 7359 29e3 6C       		.byte	0x6c
 7360 29e4 2A2A0000 		.4byte	0x2a2a
 7361 29e8 2F       		.uleb128 0x2f
 7362 29e9 201B0000 		.4byte	0x1b20
 7363 29ed AF040000 		.4byte	.LLST52
 7364 29f1 2F       		.uleb128 0x2f
 7365 29f2 141B0000 		.4byte	0x1b14
 7366 29f6 C2040000 		.4byte	.LLST53
 7367 29fa 30       		.uleb128 0x30
 7368 29fb F6010000 		.4byte	.LBB248
 7369 29ff 0A000000 		.4byte	.LBE248-.LBB248
 7370 2a03 37       		.uleb128 0x37
 7371 2a04 2C1B0000 		.4byte	0x1b2c
 7372 2a08 D5040000 		.4byte	.LLST54
 7373 2a0c 32       		.uleb128 0x32
 7374 2a0d 00020000 		.4byte	.LVL71
 7375 2a11 7F3F0000 		.4byte	0x3f7f
 7376 2a15 33       		.uleb128 0x33
 7377 2a16 01       		.uleb128 0x1
 7378 2a17 50       		.byte	0x50
 7379 2a18 02       		.uleb128 0x2
 7380 2a19 76       		.byte	0x76
 7381 2a1a 00       		.sleb128 0
 7382 2a1b 33       		.uleb128 0x33
 7383 2a1c 01       		.uleb128 0x1
 7384 2a1d 51       		.byte	0x51
 7385 2a1e 02       		.uleb128 0x2
 7386 2a1f 75       		.byte	0x75
 7387 2a20 00       		.sleb128 0
 7388 2a21 33       		.uleb128 0x33
 7389 2a22 01       		.uleb128 0x1
 7390 2a23 52       		.byte	0x52
 7391 2a24 02       		.uleb128 0x2
 7392 2a25 08       		.byte	0x8
 7393 2a26 57       		.byte	0x57
 7394 2a27 00       		.byte	0
 7395 2a28 00       		.byte	0
 7396 2a29 00       		.byte	0
 7397 2a2a 2E       		.uleb128 0x2e
 7398 2a2b 37210000 		.4byte	0x2137
 7399 2a2f 02020000 		.4byte	.LBB249
 7400 2a33 14000000 		.4byte	.LBE249-.LBB249
 7401 2a37 01       		.byte	0x1
 7402 2a38 6D       		.byte	0x6d
 7403 2a39 952A0000 		.4byte	0x2a95
 7404 2a3d 2F       		.uleb128 0x2f
 7405 2a3e 54210000 		.4byte	0x2154
 7406 2a42 E8040000 		.4byte	.LLST55
 7407 2a46 2F       		.uleb128 0x2f
 7408 2a47 48210000 		.4byte	0x2148
ARM GAS  C:\Users\haske\AppData\Local\Temp\cc4f9rxb.s 			page 152


 7409 2a4b FB040000 		.4byte	.LLST56
 7410 2a4f 30       		.uleb128 0x30
 7411 2a50 02020000 		.4byte	.LBB250
 7412 2a54 14000000 		.4byte	.LBE250-.LBB250
 7413 2a58 31       		.uleb128 0x31
 7414 2a59 60210000 		.4byte	0x2160
 7415 2a5d 36       		.uleb128 0x36
 7416 2a5e 0C020000 		.4byte	.LVL74
 7417 2a62 7F3F0000 		.4byte	0x3f7f
 7418 2a66 7D2A0000 		.4byte	0x2a7d
 7419 2a6a 33       		.uleb128 0x33
 7420 2a6b 01       		.uleb128 0x1
 7421 2a6c 50       		.byte	0x50
 7422 2a6d 02       		.uleb128 0x2
 7423 2a6e 76       		.byte	0x76
 7424 2a6f 00       		.sleb128 0
 7425 2a70 33       		.uleb128 0x33
 7426 2a71 01       		.uleb128 0x1
 7427 2a72 51       		.byte	0x51
 7428 2a73 02       		.uleb128 0x2
 7429 2a74 75       		.byte	0x75
 7430 2a75 00       		.sleb128 0
 7431 2a76 33       		.uleb128 0x33
 7432 2a77 01       		.uleb128 0x1
 7433 2a78 52       		.byte	0x52
 7434 2a79 02       		.uleb128 0x2
 7435 2a7a 08       		.byte	0x8
 7436 2a7b 55       		.byte	0x55
 7437 2a7c 00       		.byte	0
 7438 2a7d 32       		.uleb128 0x32
 7439 2a7e 16020000 		.4byte	.LVL75
 7440 2a82 8A3F0000 		.4byte	0x3f8a
 7441 2a86 33       		.uleb128 0x33
 7442 2a87 01       		.uleb128 0x1
 7443 2a88 50       		.byte	0x50
 7444 2a89 02       		.uleb128 0x2
 7445 2a8a 76       		.byte	0x76
 7446 2a8b 00       		.sleb128 0
 7447 2a8c 33       		.uleb128 0x33
 7448 2a8d 01       		.uleb128 0x1
 7449 2a8e 51       		.byte	0x51
 7450 2a8f 02       		.uleb128 0x2
 7451 2a90 75       		.byte	0x75
 7452 2a91 00       		.sleb128 0
 7453 2a92 00       		.byte	0
 7454 2a93 00       		.byte	0
 7455 2a94 00       		.byte	0
 7456 2a95 2E       		.uleb128 0x2e
 7457 2a96 6B210000 		.4byte	0x216b
 7458 2a9a 1A020000 		.4byte	.LBB251
 7459 2a9e 14000000 		.4byte	.LBE251-.LBB251
 7460 2aa2 01       		.byte	0x1
 7461 2aa3 70       		.byte	0x70
 7462 2aa4 002B0000 		.4byte	0x2b00
 7463 2aa8 2F       		.uleb128 0x2f
 7464 2aa9 86210000 		.4byte	0x2186
 7465 2aad 0E050000 		.4byte	.LLST57
ARM GAS  C:\Users\haske\AppData\Local\Temp\cc4f9rxb.s 			page 153


 7466 2ab1 2F       		.uleb128 0x2f
 7467 2ab2 7B210000 		.4byte	0x217b
 7468 2ab6 21050000 		.4byte	.LLST58
 7469 2aba 30       		.uleb128 0x30
 7470 2abb 1A020000 		.4byte	.LBB252
 7471 2abf 14000000 		.4byte	.LBE252-.LBB252
 7472 2ac3 31       		.uleb128 0x31
 7473 2ac4 91210000 		.4byte	0x2191
 7474 2ac8 36       		.uleb128 0x36
 7475 2ac9 24020000 		.4byte	.LVL77
 7476 2acd 7F3F0000 		.4byte	0x3f7f
 7477 2ad1 E82A0000 		.4byte	0x2ae8
 7478 2ad5 33       		.uleb128 0x33
 7479 2ad6 01       		.uleb128 0x1
 7480 2ad7 50       		.byte	0x50
 7481 2ad8 02       		.uleb128 0x2
 7482 2ad9 76       		.byte	0x76
 7483 2ada 00       		.sleb128 0
 7484 2adb 33       		.uleb128 0x33
 7485 2adc 01       		.uleb128 0x1
 7486 2add 51       		.byte	0x51
 7487 2ade 02       		.uleb128 0x2
 7488 2adf 75       		.byte	0x75
 7489 2ae0 00       		.sleb128 0
 7490 2ae1 33       		.uleb128 0x33
 7491 2ae2 01       		.uleb128 0x1
 7492 2ae3 52       		.byte	0x52
 7493 2ae4 02       		.uleb128 0x2
 7494 2ae5 08       		.byte	0x8
 7495 2ae6 2A       		.byte	0x2a
 7496 2ae7 00       		.byte	0
 7497 2ae8 32       		.uleb128 0x32
 7498 2ae9 2E020000 		.4byte	.LVL78
 7499 2aed 8A3F0000 		.4byte	0x3f8a
 7500 2af1 33       		.uleb128 0x33
 7501 2af2 01       		.uleb128 0x1
 7502 2af3 50       		.byte	0x50
 7503 2af4 02       		.uleb128 0x2
 7504 2af5 76       		.byte	0x76
 7505 2af6 00       		.sleb128 0
 7506 2af7 33       		.uleb128 0x33
 7507 2af8 01       		.uleb128 0x1
 7508 2af9 51       		.byte	0x51
 7509 2afa 02       		.uleb128 0x2
 7510 2afb 75       		.byte	0x75
 7511 2afc 00       		.sleb128 0
 7512 2afd 00       		.byte	0
 7513 2afe 00       		.byte	0
 7514 2aff 00       		.byte	0
 7515 2b00 2E       		.uleb128 0x2e
 7516 2b01 671B0000 		.4byte	0x1b67
 7517 2b05 30020000 		.4byte	.LBB253
 7518 2b09 0A000000 		.4byte	.LBE253-.LBB253
 7519 2b0d 01       		.byte	0x1
 7520 2b0e 71       		.byte	0x71
 7521 2b0f 512B0000 		.4byte	0x2b51
 7522 2b13 2F       		.uleb128 0x2f
ARM GAS  C:\Users\haske\AppData\Local\Temp\cc4f9rxb.s 			page 154


 7523 2b14 821B0000 		.4byte	0x1b82
 7524 2b18 34050000 		.4byte	.LLST59
 7525 2b1c 2F       		.uleb128 0x2f
 7526 2b1d 771B0000 		.4byte	0x1b77
 7527 2b21 47050000 		.4byte	.LLST60
 7528 2b25 30       		.uleb128 0x30
 7529 2b26 30020000 		.4byte	.LBB254
 7530 2b2a 0A000000 		.4byte	.LBE254-.LBB254
 7531 2b2e 31       		.uleb128 0x31
 7532 2b2f 8D1B0000 		.4byte	0x1b8d
 7533 2b33 32       		.uleb128 0x32
 7534 2b34 3A020000 		.4byte	.LVL80
 7535 2b38 7F3F0000 		.4byte	0x3f7f
 7536 2b3c 33       		.uleb128 0x33
 7537 2b3d 01       		.uleb128 0x1
 7538 2b3e 50       		.byte	0x50
 7539 2b3f 02       		.uleb128 0x2
 7540 2b40 76       		.byte	0x76
 7541 2b41 00       		.sleb128 0
 7542 2b42 33       		.uleb128 0x33
 7543 2b43 01       		.uleb128 0x1
 7544 2b44 51       		.byte	0x51
 7545 2b45 02       		.uleb128 0x2
 7546 2b46 75       		.byte	0x75
 7547 2b47 00       		.sleb128 0
 7548 2b48 33       		.uleb128 0x33
 7549 2b49 01       		.uleb128 0x1
 7550 2b4a 52       		.byte	0x52
 7551 2b4b 02       		.uleb128 0x2
 7552 2b4c 08       		.byte	0x8
 7553 2b4d 2B       		.byte	0x2b
 7554 2b4e 00       		.byte	0
 7555 2b4f 00       		.byte	0
 7556 2b50 00       		.byte	0
 7557 2b51 2E       		.uleb128 0x2e
 7558 2b52 371B0000 		.4byte	0x1b37
 7559 2b56 3C020000 		.4byte	.LBB255
 7560 2b5a 0E000000 		.4byte	.LBE255-.LBB255
 7561 2b5e 01       		.byte	0x1
 7562 2b5f 72       		.byte	0x72
 7563 2b60 A62B0000 		.4byte	0x2ba6
 7564 2b64 2F       		.uleb128 0x2f
 7565 2b65 521B0000 		.4byte	0x1b52
 7566 2b69 5A050000 		.4byte	.LLST61
 7567 2b6d 2F       		.uleb128 0x2f
 7568 2b6e 471B0000 		.4byte	0x1b47
 7569 2b72 6D050000 		.4byte	.LLST62
 7570 2b76 30       		.uleb128 0x30
 7571 2b77 3C020000 		.4byte	.LBB256
 7572 2b7b 0E000000 		.4byte	.LBE256-.LBB256
 7573 2b7f 37       		.uleb128 0x37
 7574 2b80 5D1B0000 		.4byte	0x1b5d
 7575 2b84 80050000 		.4byte	.LLST63
 7576 2b88 32       		.uleb128 0x32
 7577 2b89 46020000 		.4byte	.LVL82
 7578 2b8d 7F3F0000 		.4byte	0x3f7f
 7579 2b91 33       		.uleb128 0x33
ARM GAS  C:\Users\haske\AppData\Local\Temp\cc4f9rxb.s 			page 155


 7580 2b92 01       		.uleb128 0x1
 7581 2b93 50       		.byte	0x50
 7582 2b94 02       		.uleb128 0x2
 7583 2b95 76       		.byte	0x76
 7584 2b96 00       		.sleb128 0
 7585 2b97 33       		.uleb128 0x33
 7586 2b98 01       		.uleb128 0x1
 7587 2b99 51       		.byte	0x51
 7588 2b9a 02       		.uleb128 0x2
 7589 2b9b 75       		.byte	0x75
 7590 2b9c 00       		.sleb128 0
 7591 2b9d 33       		.uleb128 0x33
 7592 2b9e 01       		.uleb128 0x1
 7593 2b9f 52       		.byte	0x52
 7594 2ba0 02       		.uleb128 0x2
 7595 2ba1 08       		.byte	0x8
 7596 2ba2 2C       		.byte	0x2c
 7597 2ba3 00       		.byte	0
 7598 2ba4 00       		.byte	0
 7599 2ba5 00       		.byte	0
 7600 2ba6 2E       		.uleb128 0x2e
 7601 2ba7 971B0000 		.4byte	0x1b97
 7602 2bab 54020000 		.4byte	.LBB257
 7603 2baf 0C000000 		.4byte	.LBE257-.LBB257
 7604 2bb3 01       		.byte	0x1
 7605 2bb4 79       		.byte	0x79
 7606 2bb5 F72B0000 		.4byte	0x2bf7
 7607 2bb9 2F       		.uleb128 0x2f
 7608 2bba B41B0000 		.4byte	0x1bb4
 7609 2bbe 93050000 		.4byte	.LLST64
 7610 2bc2 2F       		.uleb128 0x2f
 7611 2bc3 A81B0000 		.4byte	0x1ba8
 7612 2bc7 A6050000 		.4byte	.LLST65
 7613 2bcb 30       		.uleb128 0x30
 7614 2bcc 54020000 		.4byte	.LBB258
 7615 2bd0 0C000000 		.4byte	.LBE258-.LBB258
 7616 2bd4 31       		.uleb128 0x31
 7617 2bd5 C01B0000 		.4byte	0x1bc0
 7618 2bd9 32       		.uleb128 0x32
 7619 2bda 5E020000 		.4byte	.LVL87
 7620 2bde 7F3F0000 		.4byte	0x3f7f
 7621 2be2 33       		.uleb128 0x33
 7622 2be3 01       		.uleb128 0x1
 7623 2be4 50       		.byte	0x50
 7624 2be5 02       		.uleb128 0x2
 7625 2be6 76       		.byte	0x76
 7626 2be7 00       		.sleb128 0
 7627 2be8 33       		.uleb128 0x33
 7628 2be9 01       		.uleb128 0x1
 7629 2bea 51       		.byte	0x51
 7630 2beb 02       		.uleb128 0x2
 7631 2bec 75       		.byte	0x75
 7632 2bed 00       		.sleb128 0
 7633 2bee 33       		.uleb128 0x33
 7634 2bef 01       		.uleb128 0x1
 7635 2bf0 52       		.byte	0x52
 7636 2bf1 02       		.uleb128 0x2
ARM GAS  C:\Users\haske\AppData\Local\Temp\cc4f9rxb.s 			page 156


 7637 2bf2 08       		.byte	0x8
 7638 2bf3 40       		.byte	0x40
 7639 2bf4 00       		.byte	0
 7640 2bf5 00       		.byte	0
 7641 2bf6 00       		.byte	0
 7642 2bf7 2E       		.uleb128 0x2e
 7643 2bf8 CB1B0000 		.4byte	0x1bcb
 7644 2bfc 6E020000 		.4byte	.LBB259
 7645 2c00 0C000000 		.4byte	.LBE259-.LBB259
 7646 2c04 01       		.byte	0x1
 7647 2c05 7C       		.byte	0x7c
 7648 2c06 482C0000 		.4byte	0x2c48
 7649 2c0a 2F       		.uleb128 0x2f
 7650 2c0b E81B0000 		.4byte	0x1be8
 7651 2c0f B9050000 		.4byte	.LLST66
 7652 2c13 2F       		.uleb128 0x2f
 7653 2c14 DC1B0000 		.4byte	0x1bdc
 7654 2c18 CC050000 		.4byte	.LLST67
 7655 2c1c 30       		.uleb128 0x30
 7656 2c1d 6E020000 		.4byte	.LBB260
 7657 2c21 0C000000 		.4byte	.LBE260-.LBB260
 7658 2c25 31       		.uleb128 0x31
 7659 2c26 F41B0000 		.4byte	0x1bf4
 7660 2c2a 32       		.uleb128 0x32
 7661 2c2b 78020000 		.4byte	.LVL90
 7662 2c2f 7F3F0000 		.4byte	0x3f7f
 7663 2c33 33       		.uleb128 0x33
 7664 2c34 01       		.uleb128 0x1
 7665 2c35 50       		.byte	0x50
 7666 2c36 02       		.uleb128 0x2
 7667 2c37 76       		.byte	0x76
 7668 2c38 00       		.sleb128 0
 7669 2c39 33       		.uleb128 0x33
 7670 2c3a 01       		.uleb128 0x1
 7671 2c3b 51       		.byte	0x51
 7672 2c3c 02       		.uleb128 0x2
 7673 2c3d 75       		.byte	0x75
 7674 2c3e 00       		.sleb128 0
 7675 2c3f 33       		.uleb128 0x33
 7676 2c40 01       		.uleb128 0x1
 7677 2c41 52       		.byte	0x52
 7678 2c42 02       		.uleb128 0x2
 7679 2c43 08       		.byte	0x8
 7680 2c44 45       		.byte	0x45
 7681 2c45 00       		.byte	0
 7682 2c46 00       		.byte	0
 7683 2c47 00       		.byte	0
 7684 2c48 2E       		.uleb128 0x2e
 7685 2c49 671C0000 		.4byte	0x1c67
 7686 2c4d 82020000 		.4byte	.LBB261
 7687 2c51 0A000000 		.4byte	.LBE261-.LBB261
 7688 2c55 01       		.byte	0x1
 7689 2c56 7E       		.byte	0x7e
 7690 2c57 992C0000 		.4byte	0x2c99
 7691 2c5b 2F       		.uleb128 0x2f
 7692 2c5c 841C0000 		.4byte	0x1c84
 7693 2c60 DF050000 		.4byte	.LLST68
ARM GAS  C:\Users\haske\AppData\Local\Temp\cc4f9rxb.s 			page 157


 7694 2c64 2F       		.uleb128 0x2f
 7695 2c65 781C0000 		.4byte	0x1c78
 7696 2c69 F2050000 		.4byte	.LLST69
 7697 2c6d 30       		.uleb128 0x30
 7698 2c6e 82020000 		.4byte	.LBB262
 7699 2c72 0A000000 		.4byte	.LBE262-.LBB262
 7700 2c76 31       		.uleb128 0x31
 7701 2c77 901C0000 		.4byte	0x1c90
 7702 2c7b 32       		.uleb128 0x32
 7703 2c7c 8C020000 		.4byte	.LVL93
 7704 2c80 7F3F0000 		.4byte	0x3f7f
 7705 2c84 33       		.uleb128 0x33
 7706 2c85 01       		.uleb128 0x1
 7707 2c86 50       		.byte	0x50
 7708 2c87 02       		.uleb128 0x2
 7709 2c88 76       		.byte	0x76
 7710 2c89 00       		.sleb128 0
 7711 2c8a 33       		.uleb128 0x33
 7712 2c8b 01       		.uleb128 0x1
 7713 2c8c 51       		.byte	0x51
 7714 2c8d 02       		.uleb128 0x2
 7715 2c8e 75       		.byte	0x75
 7716 2c8f 00       		.sleb128 0
 7717 2c90 33       		.uleb128 0x33
 7718 2c91 01       		.uleb128 0x1
 7719 2c92 52       		.byte	0x52
 7720 2c93 02       		.uleb128 0x2
 7721 2c94 08       		.byte	0x8
 7722 2c95 41       		.byte	0x41
 7723 2c96 00       		.byte	0
 7724 2c97 00       		.byte	0
 7725 2c98 00       		.byte	0
 7726 2c99 2E       		.uleb128 0x2e
 7727 2c9a 331C0000 		.4byte	0x1c33
 7728 2c9e 8E020000 		.4byte	.LBB263
 7729 2ca2 0A000000 		.4byte	.LBE263-.LBB263
 7730 2ca6 01       		.byte	0x1
 7731 2ca7 7F       		.byte	0x7f
 7732 2ca8 EA2C0000 		.4byte	0x2cea
 7733 2cac 2F       		.uleb128 0x2f
 7734 2cad 501C0000 		.4byte	0x1c50
 7735 2cb1 05060000 		.4byte	.LLST70
 7736 2cb5 2F       		.uleb128 0x2f
 7737 2cb6 441C0000 		.4byte	0x1c44
 7738 2cba 18060000 		.4byte	.LLST71
 7739 2cbe 30       		.uleb128 0x30
 7740 2cbf 8E020000 		.4byte	.LBB264
 7741 2cc3 0A000000 		.4byte	.LBE264-.LBB264
 7742 2cc7 31       		.uleb128 0x31
 7743 2cc8 5C1C0000 		.4byte	0x1c5c
 7744 2ccc 32       		.uleb128 0x32
 7745 2ccd 98020000 		.4byte	.LVL95
 7746 2cd1 7F3F0000 		.4byte	0x3f7f
 7747 2cd5 33       		.uleb128 0x33
 7748 2cd6 01       		.uleb128 0x1
 7749 2cd7 50       		.byte	0x50
 7750 2cd8 02       		.uleb128 0x2
ARM GAS  C:\Users\haske\AppData\Local\Temp\cc4f9rxb.s 			page 158


 7751 2cd9 76       		.byte	0x76
 7752 2cda 00       		.sleb128 0
 7753 2cdb 33       		.uleb128 0x33
 7754 2cdc 01       		.uleb128 0x1
 7755 2cdd 51       		.byte	0x51
 7756 2cde 02       		.uleb128 0x2
 7757 2cdf 75       		.byte	0x75
 7758 2ce0 00       		.sleb128 0
 7759 2ce1 33       		.uleb128 0x33
 7760 2ce2 01       		.uleb128 0x1
 7761 2ce3 52       		.byte	0x52
 7762 2ce4 02       		.uleb128 0x2
 7763 2ce5 08       		.byte	0x8
 7764 2ce6 42       		.byte	0x42
 7765 2ce7 00       		.byte	0
 7766 2ce8 00       		.byte	0
 7767 2ce9 00       		.byte	0
 7768 2cea 2E       		.uleb128 0x2e
 7769 2ceb FF1B0000 		.4byte	0x1bff
 7770 2cef 9A020000 		.4byte	.LBB265
 7771 2cf3 0A000000 		.4byte	.LBE265-.LBB265
 7772 2cf7 01       		.byte	0x1
 7773 2cf8 80       		.byte	0x80
 7774 2cf9 3B2D0000 		.4byte	0x2d3b
 7775 2cfd 2F       		.uleb128 0x2f
 7776 2cfe 1C1C0000 		.4byte	0x1c1c
 7777 2d02 2B060000 		.4byte	.LLST72
 7778 2d06 2F       		.uleb128 0x2f
 7779 2d07 101C0000 		.4byte	0x1c10
 7780 2d0b 3E060000 		.4byte	.LLST73
 7781 2d0f 30       		.uleb128 0x30
 7782 2d10 9A020000 		.4byte	.LBB266
 7783 2d14 0A000000 		.4byte	.LBE266-.LBB266
 7784 2d18 31       		.uleb128 0x31
 7785 2d19 281C0000 		.4byte	0x1c28
 7786 2d1d 32       		.uleb128 0x32
 7787 2d1e A4020000 		.4byte	.LVL97
 7788 2d22 7F3F0000 		.4byte	0x3f7f
 7789 2d26 33       		.uleb128 0x33
 7790 2d27 01       		.uleb128 0x1
 7791 2d28 50       		.byte	0x50
 7792 2d29 02       		.uleb128 0x2
 7793 2d2a 76       		.byte	0x76
 7794 2d2b 00       		.sleb128 0
 7795 2d2c 33       		.uleb128 0x33
 7796 2d2d 01       		.uleb128 0x1
 7797 2d2e 51       		.byte	0x51
 7798 2d2f 02       		.uleb128 0x2
 7799 2d30 75       		.byte	0x75
 7800 2d31 00       		.sleb128 0
 7801 2d32 33       		.uleb128 0x33
 7802 2d33 01       		.uleb128 0x1
 7803 2d34 52       		.byte	0x52
 7804 2d35 02       		.uleb128 0x2
 7805 2d36 08       		.byte	0x8
 7806 2d37 43       		.byte	0x43
 7807 2d38 00       		.byte	0
ARM GAS  C:\Users\haske\AppData\Local\Temp\cc4f9rxb.s 			page 159


 7808 2d39 00       		.byte	0
 7809 2d3a 00       		.byte	0
 7810 2d3b 2E       		.uleb128 0x2e
 7811 2d3c 9B210000 		.4byte	0x219b
 7812 2d40 A6020000 		.4byte	.LBB267
 7813 2d44 14000000 		.4byte	.LBE267-.LBB267
 7814 2d48 01       		.byte	0x1
 7815 2d49 81       		.byte	0x81
 7816 2d4a A62D0000 		.4byte	0x2da6
 7817 2d4e 2F       		.uleb128 0x2f
 7818 2d4f B8210000 		.4byte	0x21b8
 7819 2d53 51060000 		.4byte	.LLST74
 7820 2d57 2F       		.uleb128 0x2f
 7821 2d58 AC210000 		.4byte	0x21ac
 7822 2d5c 64060000 		.4byte	.LLST75
 7823 2d60 30       		.uleb128 0x30
 7824 2d61 A6020000 		.4byte	.LBB268
 7825 2d65 14000000 		.4byte	.LBE268-.LBB268
 7826 2d69 31       		.uleb128 0x31
 7827 2d6a C4210000 		.4byte	0x21c4
 7828 2d6e 36       		.uleb128 0x36
 7829 2d6f B0020000 		.4byte	.LVL99
 7830 2d73 7F3F0000 		.4byte	0x3f7f
 7831 2d77 8E2D0000 		.4byte	0x2d8e
 7832 2d7b 33       		.uleb128 0x33
 7833 2d7c 01       		.uleb128 0x1
 7834 2d7d 50       		.byte	0x50
 7835 2d7e 02       		.uleb128 0x2
 7836 2d7f 76       		.byte	0x76
 7837 2d80 00       		.sleb128 0
 7838 2d81 33       		.uleb128 0x33
 7839 2d82 01       		.uleb128 0x1
 7840 2d83 51       		.byte	0x51
 7841 2d84 02       		.uleb128 0x2
 7842 2d85 75       		.byte	0x75
 7843 2d86 00       		.sleb128 0
 7844 2d87 33       		.uleb128 0x33
 7845 2d88 01       		.uleb128 0x1
 7846 2d89 52       		.byte	0x52
 7847 2d8a 02       		.uleb128 0x2
 7848 2d8b 08       		.byte	0x8
 7849 2d8c 44       		.byte	0x44
 7850 2d8d 00       		.byte	0
 7851 2d8e 32       		.uleb128 0x32
 7852 2d8f BA020000 		.4byte	.LVL100
 7853 2d93 8A3F0000 		.4byte	0x3f8a
 7854 2d97 33       		.uleb128 0x33
 7855 2d98 01       		.uleb128 0x1
 7856 2d99 50       		.byte	0x50
 7857 2d9a 02       		.uleb128 0x2
 7858 2d9b 76       		.byte	0x76
 7859 2d9c 00       		.sleb128 0
 7860 2d9d 33       		.uleb128 0x33
 7861 2d9e 01       		.uleb128 0x1
 7862 2d9f 51       		.byte	0x51
 7863 2da0 02       		.uleb128 0x2
 7864 2da1 75       		.byte	0x75
ARM GAS  C:\Users\haske\AppData\Local\Temp\cc4f9rxb.s 			page 160


 7865 2da2 00       		.sleb128 0
 7866 2da3 00       		.byte	0
 7867 2da4 00       		.byte	0
 7868 2da5 00       		.byte	0
 7869 2da6 38       		.uleb128 0x38
 7870 2da7 F2010000 		.4byte	.LVL69
 7871 2dab A03F0000 		.4byte	0x3fa0
 7872 2daf 00       		.byte	0
 7873 2db0 2A       		.uleb128 0x2a
 7874 2db1 A5180000 		.4byte	.LASF491
 7875 2db5 01       		.byte	0x1
 7876 2db6 C3       		.byte	0xc3
 7877 2db7 00000000 		.4byte	.LFB166
 7878 2dbb BE000000 		.4byte	.LFE166-.LFB166
 7879 2dbf 01       		.uleb128 0x1
 7880 2dc0 9C       		.byte	0x9c
 7881 2dc1 03310000 		.4byte	0x3103
 7882 2dc5 2B       		.uleb128 0x2b
 7883 2dc6 6F626A00 		.ascii	"obj\000"
 7884 2dca 01       		.byte	0x1
 7885 2dcb C3       		.byte	0xc3
 7886 2dcc 9B170000 		.4byte	0x179b
 7887 2dd0 77060000 		.4byte	.LLST76
 7888 2dd4 2C       		.uleb128 0x2c
 7889 2dd5 A1210000 		.4byte	.LASF313
 7890 2dd9 01       		.byte	0x1
 7891 2dda C3       		.byte	0xc3
 7892 2ddb E4000000 		.4byte	0xe4
 7893 2ddf A3060000 		.4byte	.LLST77
 7894 2de3 2C       		.uleb128 0x2c
 7895 2de4 F9010000 		.4byte	.LASF488
 7896 2de8 01       		.byte	0x1
 7897 2de9 C3       		.byte	0xc3
 7898 2dea 8D120000 		.4byte	0x128d
 7899 2dee CF060000 		.4byte	.LLST78
 7900 2df2 2E       		.uleb128 0x2e
 7901 2df3 9B1C0000 		.4byte	0x1c9b
 7902 2df7 08000000 		.4byte	.LBB288
 7903 2dfb 08000000 		.4byte	.LBE288-.LBB288
 7904 2dff 01       		.byte	0x1
 7905 2e00 C5       		.byte	0xc5
 7906 2e01 432E0000 		.4byte	0x2e43
 7907 2e05 2F       		.uleb128 0x2f
 7908 2e06 B81C0000 		.4byte	0x1cb8
 7909 2e0a FB060000 		.4byte	.LLST79
 7910 2e0e 2F       		.uleb128 0x2f
 7911 2e0f AC1C0000 		.4byte	0x1cac
 7912 2e13 19070000 		.4byte	.LLST80
 7913 2e17 30       		.uleb128 0x30
 7914 2e18 08000000 		.4byte	.LBB289
 7915 2e1c 08000000 		.4byte	.LBE289-.LBB289
 7916 2e20 31       		.uleb128 0x31
 7917 2e21 C41C0000 		.4byte	0x1cc4
 7918 2e25 32       		.uleb128 0x32
 7919 2e26 0E000000 		.4byte	.LVL109
 7920 2e2a 7F3F0000 		.4byte	0x3f7f
 7921 2e2e 33       		.uleb128 0x33
ARM GAS  C:\Users\haske\AppData\Local\Temp\cc4f9rxb.s 			page 161


 7922 2e2f 01       		.uleb128 0x1
 7923 2e30 50       		.byte	0x50
 7924 2e31 02       		.uleb128 0x2
 7925 2e32 76       		.byte	0x76
 7926 2e33 00       		.sleb128 0
 7927 2e34 33       		.uleb128 0x33
 7928 2e35 01       		.uleb128 0x1
 7929 2e36 51       		.byte	0x51
 7930 2e37 02       		.uleb128 0x2
 7931 2e38 74       		.byte	0x74
 7932 2e39 00       		.sleb128 0
 7933 2e3a 33       		.uleb128 0x33
 7934 2e3b 01       		.uleb128 0x1
 7935 2e3c 52       		.byte	0x52
 7936 2e3d 02       		.uleb128 0x2
 7937 2e3e 08       		.byte	0x8
 7938 2e3f 56       		.byte	0x56
 7939 2e40 00       		.byte	0
 7940 2e41 00       		.byte	0
 7941 2e42 00       		.byte	0
 7942 2e43 34       		.uleb128 0x34
 7943 2e44 1A000000 		.4byte	.LBB290
 7944 2e48 26000000 		.4byte	.LBE290-.LBB290
 7945 2e4c A92E0000 		.4byte	0x2ea9
 7946 2e50 29       		.uleb128 0x29
 7947 2e51 6F706100 		.ascii	"opa\000"
 7948 2e55 01       		.byte	0x1
 7949 2e56 C9       		.byte	0xc9
 7950 2e57 DA030000 		.4byte	0x3da
 7951 2e5b 39       		.uleb128 0x39
 7952 2e5c A1170000 		.4byte	0x17a1
 7953 2e60 1A000000 		.4byte	.LBB291
 7954 2e64 0C000000 		.4byte	.LBE291-.LBB291
 7955 2e68 01       		.byte	0x1
 7956 2e69 C9       		.byte	0xc9
 7957 2e6a 2F       		.uleb128 0x2f
 7958 2e6b BE170000 		.4byte	0x17be
 7959 2e6f 37070000 		.4byte	.LLST81
 7960 2e73 2F       		.uleb128 0x2f
 7961 2e74 B2170000 		.4byte	0x17b2
 7962 2e78 4A070000 		.4byte	.LLST82
 7963 2e7c 30       		.uleb128 0x30
 7964 2e7d 1A000000 		.4byte	.LBB292
 7965 2e81 0C000000 		.4byte	.LBE292-.LBB292
 7966 2e85 31       		.uleb128 0x31
 7967 2e86 CA170000 		.4byte	0x17ca
 7968 2e8a 32       		.uleb128 0x32
 7969 2e8b 24000000 		.4byte	.LVL112
 7970 2e8f 7F3F0000 		.4byte	0x3f7f
 7971 2e93 33       		.uleb128 0x33
 7972 2e94 01       		.uleb128 0x1
 7973 2e95 50       		.byte	0x50
 7974 2e96 02       		.uleb128 0x2
 7975 2e97 76       		.byte	0x76
 7976 2e98 00       		.sleb128 0
 7977 2e99 33       		.uleb128 0x33
 7978 2e9a 01       		.uleb128 0x1
ARM GAS  C:\Users\haske\AppData\Local\Temp\cc4f9rxb.s 			page 162


 7979 2e9b 51       		.byte	0x51
 7980 2e9c 02       		.uleb128 0x2
 7981 2e9d 74       		.byte	0x74
 7982 2e9e 00       		.sleb128 0
 7983 2e9f 33       		.uleb128 0x33
 7984 2ea0 01       		.uleb128 0x1
 7985 2ea1 52       		.byte	0x52
 7986 2ea2 02       		.uleb128 0x2
 7987 2ea3 08       		.byte	0x8
 7988 2ea4 60       		.byte	0x60
 7989 2ea5 00       		.byte	0
 7990 2ea6 00       		.byte	0
 7991 2ea7 00       		.byte	0
 7992 2ea8 00       		.byte	0
 7993 2ea9 2E       		.uleb128 0x2e
 7994 2eaa 37210000 		.4byte	0x2137
 7995 2eae 40000000 		.4byte	.LBB293
 7996 2eb2 14000000 		.4byte	.LBE293-.LBB293
 7997 2eb6 01       		.byte	0x1
 7998 2eb7 D3       		.byte	0xd3
 7999 2eb8 142F0000 		.4byte	0x2f14
 8000 2ebc 2F       		.uleb128 0x2f
 8001 2ebd 54210000 		.4byte	0x2154
 8002 2ec1 5D070000 		.4byte	.LLST83
 8003 2ec5 2F       		.uleb128 0x2f
 8004 2ec6 48210000 		.4byte	0x2148
 8005 2eca 70070000 		.4byte	.LLST84
 8006 2ece 30       		.uleb128 0x30
 8007 2ecf 40000000 		.4byte	.LBB294
 8008 2ed3 14000000 		.4byte	.LBE294-.LBB294
 8009 2ed7 31       		.uleb128 0x31
 8010 2ed8 60210000 		.4byte	0x2160
 8011 2edc 36       		.uleb128 0x36
 8012 2edd 4A000000 		.4byte	.LVL115
 8013 2ee1 7F3F0000 		.4byte	0x3f7f
 8014 2ee5 FC2E0000 		.4byte	0x2efc
 8015 2ee9 33       		.uleb128 0x33
 8016 2eea 01       		.uleb128 0x1
 8017 2eeb 50       		.byte	0x50
 8018 2eec 02       		.uleb128 0x2
 8019 2eed 76       		.byte	0x76
 8020 2eee 00       		.sleb128 0
 8021 2eef 33       		.uleb128 0x33
 8022 2ef0 01       		.uleb128 0x1
 8023 2ef1 51       		.byte	0x51
 8024 2ef2 02       		.uleb128 0x2
 8025 2ef3 74       		.byte	0x74
 8026 2ef4 00       		.sleb128 0
 8027 2ef5 33       		.uleb128 0x33
 8028 2ef6 01       		.uleb128 0x1
 8029 2ef7 52       		.byte	0x52
 8030 2ef8 02       		.uleb128 0x2
 8031 2ef9 08       		.byte	0x8
 8032 2efa 55       		.byte	0x55
 8033 2efb 00       		.byte	0
 8034 2efc 32       		.uleb128 0x32
 8035 2efd 54000000 		.4byte	.LVL116
ARM GAS  C:\Users\haske\AppData\Local\Temp\cc4f9rxb.s 			page 163


 8036 2f01 8A3F0000 		.4byte	0x3f8a
 8037 2f05 33       		.uleb128 0x33
 8038 2f06 01       		.uleb128 0x1
 8039 2f07 50       		.byte	0x50
 8040 2f08 02       		.uleb128 0x2
 8041 2f09 76       		.byte	0x76
 8042 2f0a 00       		.sleb128 0
 8043 2f0b 33       		.uleb128 0x33
 8044 2f0c 01       		.uleb128 0x1
 8045 2f0d 51       		.byte	0x51
 8046 2f0e 02       		.uleb128 0x2
 8047 2f0f 74       		.byte	0x74
 8048 2f10 00       		.sleb128 0
 8049 2f11 00       		.byte	0
 8050 2f12 00       		.byte	0
 8051 2f13 00       		.byte	0
 8052 2f14 2E       		.uleb128 0x2e
 8053 2f15 371D0000 		.4byte	0x1d37
 8054 2f19 56000000 		.4byte	.LBB295
 8055 2f1d 0A000000 		.4byte	.LBE295-.LBB295
 8056 2f21 01       		.byte	0x1
 8057 2f22 D4       		.byte	0xd4
 8058 2f23 652F0000 		.4byte	0x2f65
 8059 2f27 2F       		.uleb128 0x2f
 8060 2f28 541D0000 		.4byte	0x1d54
 8061 2f2c 83070000 		.4byte	.LLST85
 8062 2f30 2F       		.uleb128 0x2f
 8063 2f31 481D0000 		.4byte	0x1d48
 8064 2f35 96070000 		.4byte	.LLST86
 8065 2f39 30       		.uleb128 0x30
 8066 2f3a 56000000 		.4byte	.LBB296
 8067 2f3e 0A000000 		.4byte	.LBE296-.LBB296
 8068 2f42 31       		.uleb128 0x31
 8069 2f43 601D0000 		.4byte	0x1d60
 8070 2f47 32       		.uleb128 0x32
 8071 2f48 60000000 		.4byte	.LVL118
 8072 2f4c 7F3F0000 		.4byte	0x3f7f
 8073 2f50 33       		.uleb128 0x33
 8074 2f51 01       		.uleb128 0x1
 8075 2f52 50       		.byte	0x50
 8076 2f53 02       		.uleb128 0x2
 8077 2f54 76       		.byte	0x76
 8078 2f55 00       		.sleb128 0
 8079 2f56 33       		.uleb128 0x33
 8080 2f57 01       		.uleb128 0x1
 8081 2f58 51       		.byte	0x51
 8082 2f59 02       		.uleb128 0x2
 8083 2f5a 74       		.byte	0x74
 8084 2f5b 00       		.sleb128 0
 8085 2f5c 33       		.uleb128 0x33
 8086 2f5d 01       		.uleb128 0x1
 8087 2f5e 52       		.byte	0x52
 8088 2f5f 02       		.uleb128 0x2
 8089 2f60 08       		.byte	0x8
 8090 2f61 58       		.byte	0x58
 8091 2f62 00       		.byte	0
 8092 2f63 00       		.byte	0
ARM GAS  C:\Users\haske\AppData\Local\Temp\cc4f9rxb.s 			page 164


 8093 2f64 00       		.byte	0
 8094 2f65 2E       		.uleb128 0x2e
 8095 2f66 031D0000 		.4byte	0x1d03
 8096 2f6a 62000000 		.4byte	.LBB297
 8097 2f6e 0A000000 		.4byte	.LBE297-.LBB297
 8098 2f72 01       		.byte	0x1
 8099 2f73 D5       		.byte	0xd5
 8100 2f74 B62F0000 		.4byte	0x2fb6
 8101 2f78 2F       		.uleb128 0x2f
 8102 2f79 201D0000 		.4byte	0x1d20
 8103 2f7d A9070000 		.4byte	.LLST87
 8104 2f81 2F       		.uleb128 0x2f
 8105 2f82 141D0000 		.4byte	0x1d14
 8106 2f86 BC070000 		.4byte	.LLST88
 8107 2f8a 30       		.uleb128 0x30
 8108 2f8b 62000000 		.4byte	.LBB298
 8109 2f8f 0A000000 		.4byte	.LBE298-.LBB298
 8110 2f93 31       		.uleb128 0x31
 8111 2f94 2C1D0000 		.4byte	0x1d2c
 8112 2f98 32       		.uleb128 0x32
 8113 2f99 6C000000 		.4byte	.LVL120
 8114 2f9d 7F3F0000 		.4byte	0x3f7f
 8115 2fa1 33       		.uleb128 0x33
 8116 2fa2 01       		.uleb128 0x1
 8117 2fa3 50       		.byte	0x50
 8118 2fa4 02       		.uleb128 0x2
 8119 2fa5 76       		.byte	0x76
 8120 2fa6 00       		.sleb128 0
 8121 2fa7 33       		.uleb128 0x33
 8122 2fa8 01       		.uleb128 0x1
 8123 2fa9 51       		.byte	0x51
 8124 2faa 02       		.uleb128 0x2
 8125 2fab 74       		.byte	0x74
 8126 2fac 00       		.sleb128 0
 8127 2fad 33       		.uleb128 0x33
 8128 2fae 01       		.uleb128 0x1
 8129 2faf 52       		.byte	0x52
 8130 2fb0 02       		.uleb128 0x2
 8131 2fb1 08       		.byte	0x8
 8132 2fb2 59       		.byte	0x59
 8133 2fb3 00       		.byte	0
 8134 2fb4 00       		.byte	0
 8135 2fb5 00       		.byte	0
 8136 2fb6 2E       		.uleb128 0x2e
 8137 2fb7 CF1C0000 		.4byte	0x1ccf
 8138 2fbb 6E000000 		.4byte	.LBB299
 8139 2fbf 0A000000 		.4byte	.LBE299-.LBB299
 8140 2fc3 01       		.byte	0x1
 8141 2fc4 D6       		.byte	0xd6
 8142 2fc5 0B300000 		.4byte	0x300b
 8143 2fc9 2F       		.uleb128 0x2f
 8144 2fca EC1C0000 		.4byte	0x1cec
 8145 2fce CF070000 		.4byte	.LLST89
 8146 2fd2 2F       		.uleb128 0x2f
 8147 2fd3 E01C0000 		.4byte	0x1ce0
 8148 2fd7 E2070000 		.4byte	.LLST90
 8149 2fdb 30       		.uleb128 0x30
ARM GAS  C:\Users\haske\AppData\Local\Temp\cc4f9rxb.s 			page 165


 8150 2fdc 6E000000 		.4byte	.LBB300
 8151 2fe0 0A000000 		.4byte	.LBE300-.LBB300
 8152 2fe4 37       		.uleb128 0x37
 8153 2fe5 F81C0000 		.4byte	0x1cf8
 8154 2fe9 F5070000 		.4byte	.LLST91
 8155 2fed 32       		.uleb128 0x32
 8156 2fee 78000000 		.4byte	.LVL122
 8157 2ff2 7F3F0000 		.4byte	0x3f7f
 8158 2ff6 33       		.uleb128 0x33
 8159 2ff7 01       		.uleb128 0x1
 8160 2ff8 50       		.byte	0x50
 8161 2ff9 02       		.uleb128 0x2
 8162 2ffa 76       		.byte	0x76
 8163 2ffb 00       		.sleb128 0
 8164 2ffc 33       		.uleb128 0x33
 8165 2ffd 01       		.uleb128 0x1
 8166 2ffe 51       		.byte	0x51
 8167 2fff 02       		.uleb128 0x2
 8168 3000 74       		.byte	0x74
 8169 3001 00       		.sleb128 0
 8170 3002 33       		.uleb128 0x33
 8171 3003 01       		.uleb128 0x1
 8172 3004 52       		.byte	0x52
 8173 3005 02       		.uleb128 0x2
 8174 3006 08       		.byte	0x8
 8175 3007 5A       		.byte	0x5a
 8176 3008 00       		.byte	0
 8177 3009 00       		.byte	0
 8178 300a 00       		.byte	0
 8179 300b 2E       		.uleb128 0x2e
 8180 300c E0170000 		.4byte	0x17e0
 8181 3010 8A000000 		.4byte	.LBB301
 8182 3014 0A000000 		.4byte	.LBE301-.LBB301
 8183 3018 01       		.byte	0x1
 8184 3019 D8       		.byte	0xd8
 8185 301a 60300000 		.4byte	0x3060
 8186 301e 2F       		.uleb128 0x2f
 8187 301f FD170000 		.4byte	0x17fd
 8188 3023 08080000 		.4byte	.LLST92
 8189 3027 2F       		.uleb128 0x2f
 8190 3028 F1170000 		.4byte	0x17f1
 8191 302c 1B080000 		.4byte	.LLST93
 8192 3030 30       		.uleb128 0x30
 8193 3031 8A000000 		.4byte	.LBB302
 8194 3035 0A000000 		.4byte	.LBE302-.LBB302
 8195 3039 37       		.uleb128 0x37
 8196 303a 09180000 		.4byte	0x1809
 8197 303e 2E080000 		.4byte	.LLST94
 8198 3042 32       		.uleb128 0x32
 8199 3043 94000000 		.4byte	.LVL126
 8200 3047 7F3F0000 		.4byte	0x3f7f
 8201 304b 33       		.uleb128 0x33
 8202 304c 01       		.uleb128 0x1
 8203 304d 50       		.byte	0x50
 8204 304e 02       		.uleb128 0x2
 8205 304f 76       		.byte	0x76
 8206 3050 00       		.sleb128 0
ARM GAS  C:\Users\haske\AppData\Local\Temp\cc4f9rxb.s 			page 166


 8207 3051 33       		.uleb128 0x33
 8208 3052 01       		.uleb128 0x1
 8209 3053 51       		.byte	0x51
 8210 3054 02       		.uleb128 0x2
 8211 3055 74       		.byte	0x74
 8212 3056 00       		.sleb128 0
 8213 3057 33       		.uleb128 0x33
 8214 3058 01       		.uleb128 0x1
 8215 3059 52       		.byte	0x52
 8216 305a 02       		.uleb128 0x2
 8217 305b 08       		.byte	0x8
 8218 305c 67       		.byte	0x67
 8219 305d 00       		.byte	0
 8220 305e 00       		.byte	0
 8221 305f 00       		.byte	0
 8222 3060 2E       		.uleb128 0x2e
 8223 3061 031B0000 		.4byte	0x1b03
 8224 3065 A4000000 		.4byte	.LBB303
 8225 3069 0A000000 		.4byte	.LBE303-.LBB303
 8226 306d 01       		.byte	0x1
 8227 306e DB       		.byte	0xdb
 8228 306f B5300000 		.4byte	0x30b5
 8229 3073 2F       		.uleb128 0x2f
 8230 3074 201B0000 		.4byte	0x1b20
 8231 3078 41080000 		.4byte	.LLST95
 8232 307c 2F       		.uleb128 0x2f
 8233 307d 141B0000 		.4byte	0x1b14
 8234 3081 54080000 		.4byte	.LLST96
 8235 3085 30       		.uleb128 0x30
 8236 3086 A4000000 		.4byte	.LBB304
 8237 308a 0A000000 		.4byte	.LBE304-.LBB304
 8238 308e 37       		.uleb128 0x37
 8239 308f 2C1B0000 		.4byte	0x1b2c
 8240 3093 67080000 		.4byte	.LLST97
 8241 3097 32       		.uleb128 0x32
 8242 3098 AE000000 		.4byte	.LVL130
 8243 309c 7F3F0000 		.4byte	0x3f7f
 8244 30a0 33       		.uleb128 0x33
 8245 30a1 01       		.uleb128 0x1
 8246 30a2 50       		.byte	0x50
 8247 30a3 02       		.uleb128 0x2
 8248 30a4 76       		.byte	0x76
 8249 30a5 00       		.sleb128 0
 8250 30a6 33       		.uleb128 0x33
 8251 30a7 01       		.uleb128 0x1
 8252 30a8 51       		.byte	0x51
 8253 30a9 02       		.uleb128 0x2
 8254 30aa 74       		.byte	0x74
 8255 30ab 00       		.sleb128 0
 8256 30ac 33       		.uleb128 0x33
 8257 30ad 01       		.uleb128 0x1
 8258 30ae 52       		.byte	0x52
 8259 30af 02       		.uleb128 0x2
 8260 30b0 08       		.byte	0x8
 8261 30b1 57       		.byte	0x57
 8262 30b2 00       		.byte	0
 8263 30b3 00       		.byte	0
ARM GAS  C:\Users\haske\AppData\Local\Temp\cc4f9rxb.s 			page 167


 8264 30b4 00       		.byte	0
 8265 30b5 39       		.uleb128 0x39
 8266 30b6 6B1D0000 		.4byte	0x1d6b
 8267 30ba B0000000 		.4byte	.LBB305
 8268 30be 0A000000 		.4byte	.LBE305-.LBB305
 8269 30c2 01       		.byte	0x1
 8270 30c3 E1       		.byte	0xe1
 8271 30c4 2F       		.uleb128 0x2f
 8272 30c5 881D0000 		.4byte	0x1d88
 8273 30c9 7A080000 		.4byte	.LLST98
 8274 30cd 2F       		.uleb128 0x2f
 8275 30ce 7C1D0000 		.4byte	0x1d7c
 8276 30d2 8D080000 		.4byte	.LLST99
 8277 30d6 30       		.uleb128 0x30
 8278 30d7 B0000000 		.4byte	.LBB306
 8279 30db 0A000000 		.4byte	.LBE306-.LBB306
 8280 30df 31       		.uleb128 0x31
 8281 30e0 941D0000 		.4byte	0x1d94
 8282 30e4 32       		.uleb128 0x32
 8283 30e5 BA000000 		.4byte	.LVL133
 8284 30e9 7F3F0000 		.4byte	0x3f7f
 8285 30ed 33       		.uleb128 0x33
 8286 30ee 01       		.uleb128 0x1
 8287 30ef 50       		.byte	0x50
 8288 30f0 02       		.uleb128 0x2
 8289 30f1 76       		.byte	0x76
 8290 30f2 00       		.sleb128 0
 8291 30f3 33       		.uleb128 0x33
 8292 30f4 01       		.uleb128 0x1
 8293 30f5 51       		.byte	0x51
 8294 30f6 02       		.uleb128 0x2
 8295 30f7 74       		.byte	0x74
 8296 30f8 00       		.sleb128 0
 8297 30f9 33       		.uleb128 0x33
 8298 30fa 01       		.uleb128 0x1
 8299 30fb 52       		.byte	0x52
 8300 30fc 02       		.uleb128 0x2
 8301 30fd 08       		.byte	0x8
 8302 30fe 5B       		.byte	0x5b
 8303 30ff 00       		.byte	0
 8304 3100 00       		.byte	0
 8305 3101 00       		.byte	0
 8306 3102 00       		.byte	0
 8307 3103 22       		.uleb128 0x22
 8308 3104 C0160000 		.4byte	.LASF492
 8309 3108 02       		.byte	0x2
 8310 3109 6301     		.2byte	0x163
 8311 310b CF030000 		.4byte	0x3cf
 8312 310f 03       		.byte	0x3
 8313 3110 37310000 		.4byte	0x3137
 8314 3114 23       		.uleb128 0x23
 8315 3115 6F626A00 		.ascii	"obj\000"
 8316 3119 02       		.byte	0x2
 8317 311a 6301     		.2byte	0x163
 8318 311c D5170000 		.4byte	0x17d5
 8319 3120 24       		.uleb128 0x24
 8320 3121 A1210000 		.4byte	.LASF313
ARM GAS  C:\Users\haske\AppData\Local\Temp\cc4f9rxb.s 			page 168


 8321 3125 02       		.byte	0x2
 8322 3126 6301     		.2byte	0x163
 8323 3128 E4000000 		.4byte	0xe4
 8324 312c 25       		.uleb128 0x25
 8325 312d 7600     		.ascii	"v\000"
 8326 312f 02       		.byte	0x2
 8327 3130 6501     		.2byte	0x165
 8328 3132 0C050000 		.4byte	0x50c
 8329 3136 00       		.byte	0
 8330 3137 2A       		.uleb128 0x2a
 8331 3138 28190000 		.4byte	.LASF493
 8332 313c 01       		.byte	0x1
 8333 313d E4       		.byte	0xe4
 8334 313e 00000000 		.4byte	.LFB167
 8335 3142 BC000000 		.4byte	.LFE167-.LFB167
 8336 3146 01       		.uleb128 0x1
 8337 3147 9C       		.byte	0x9c
 8338 3148 78330000 		.4byte	0x3378
 8339 314c 2B       		.uleb128 0x2b
 8340 314d 6F626A00 		.ascii	"obj\000"
 8341 3151 01       		.byte	0x1
 8342 3152 E4       		.byte	0xe4
 8343 3153 9B170000 		.4byte	0x179b
 8344 3157 A0080000 		.4byte	.LLST100
 8345 315b 2C       		.uleb128 0x2c
 8346 315c A1210000 		.4byte	.LASF313
 8347 3160 01       		.byte	0x1
 8348 3161 E4       		.byte	0xe4
 8349 3162 E4000000 		.4byte	0xe4
 8350 3166 CC080000 		.4byte	.LLST101
 8351 316a 2C       		.uleb128 0x2c
 8352 316b F9010000 		.4byte	.LASF488
 8353 316f 01       		.byte	0x1
 8354 3170 E4       		.byte	0xe4
 8355 3171 99120000 		.4byte	0x1299
 8356 3175 F8080000 		.4byte	.LLST102
 8357 3179 2E       		.uleb128 0x2e
 8358 317a 9F1D0000 		.4byte	0x1d9f
 8359 317e 08000000 		.4byte	.LBB322
 8360 3182 08000000 		.4byte	.LBE322-.LBB322
 8361 3186 01       		.byte	0x1
 8362 3187 E6       		.byte	0xe6
 8363 3188 CA310000 		.4byte	0x31ca
 8364 318c 2F       		.uleb128 0x2f
 8365 318d BC1D0000 		.4byte	0x1dbc
 8366 3191 24090000 		.4byte	.LLST103
 8367 3195 2F       		.uleb128 0x2f
 8368 3196 B01D0000 		.4byte	0x1db0
 8369 319a 42090000 		.4byte	.LLST104
 8370 319e 30       		.uleb128 0x30
 8371 319f 08000000 		.4byte	.LBB323
 8372 31a3 08000000 		.4byte	.LBE323-.LBB323
 8373 31a7 31       		.uleb128 0x31
 8374 31a8 C81D0000 		.4byte	0x1dc8
 8375 31ac 32       		.uleb128 0x32
 8376 31ad 0E000000 		.4byte	.LVL140
 8377 31b1 7F3F0000 		.4byte	0x3f7f
ARM GAS  C:\Users\haske\AppData\Local\Temp\cc4f9rxb.s 			page 169


 8378 31b5 33       		.uleb128 0x33
 8379 31b6 01       		.uleb128 0x1
 8380 31b7 50       		.byte	0x50
 8381 31b8 02       		.uleb128 0x2
 8382 31b9 74       		.byte	0x74
 8383 31ba 00       		.sleb128 0
 8384 31bb 33       		.uleb128 0x33
 8385 31bc 01       		.uleb128 0x1
 8386 31bd 51       		.byte	0x51
 8387 31be 02       		.uleb128 0x2
 8388 31bf 75       		.byte	0x75
 8389 31c0 00       		.sleb128 0
 8390 31c1 33       		.uleb128 0x33
 8391 31c2 01       		.uleb128 0x1
 8392 31c3 52       		.byte	0x52
 8393 31c4 02       		.uleb128 0x2
 8394 31c5 08       		.byte	0x8
 8395 31c6 46       		.byte	0x46
 8396 31c7 00       		.byte	0
 8397 31c8 00       		.byte	0
 8398 31c9 00       		.byte	0
 8399 31ca 34       		.uleb128 0x34
 8400 31cb 1A000000 		.4byte	.LBB324
 8401 31cf 26000000 		.4byte	.LBE324-.LBB324
 8402 31d3 30320000 		.4byte	0x3230
 8403 31d7 29       		.uleb128 0x29
 8404 31d8 6F706100 		.ascii	"opa\000"
 8405 31dc 01       		.byte	0x1
 8406 31dd EA       		.byte	0xea
 8407 31de DA030000 		.4byte	0x3da
 8408 31e2 39       		.uleb128 0x39
 8409 31e3 A1170000 		.4byte	0x17a1
 8410 31e7 1A000000 		.4byte	.LBB325
 8411 31eb 0C000000 		.4byte	.LBE325-.LBB325
 8412 31ef 01       		.byte	0x1
 8413 31f0 EA       		.byte	0xea
 8414 31f1 2F       		.uleb128 0x2f
 8415 31f2 BE170000 		.4byte	0x17be
 8416 31f6 60090000 		.4byte	.LLST105
 8417 31fa 2F       		.uleb128 0x2f
 8418 31fb B2170000 		.4byte	0x17b2
 8419 31ff 73090000 		.4byte	.LLST106
 8420 3203 30       		.uleb128 0x30
 8421 3204 1A000000 		.4byte	.LBB326
 8422 3208 0C000000 		.4byte	.LBE326-.LBB326
 8423 320c 31       		.uleb128 0x31
 8424 320d CA170000 		.4byte	0x17ca
 8425 3211 32       		.uleb128 0x32
 8426 3212 24000000 		.4byte	.LVL143
 8427 3216 7F3F0000 		.4byte	0x3f7f
 8428 321a 33       		.uleb128 0x33
 8429 321b 01       		.uleb128 0x1
 8430 321c 50       		.byte	0x50
 8431 321d 02       		.uleb128 0x2
 8432 321e 74       		.byte	0x74
 8433 321f 00       		.sleb128 0
 8434 3220 33       		.uleb128 0x33
ARM GAS  C:\Users\haske\AppData\Local\Temp\cc4f9rxb.s 			page 170


 8435 3221 01       		.uleb128 0x1
 8436 3222 51       		.byte	0x51
 8437 3223 02       		.uleb128 0x2
 8438 3224 75       		.byte	0x75
 8439 3225 00       		.sleb128 0
 8440 3226 33       		.uleb128 0x33
 8441 3227 01       		.uleb128 0x1
 8442 3228 52       		.byte	0x52
 8443 3229 02       		.uleb128 0x2
 8444 322a 08       		.byte	0x8
 8445 322b 60       		.byte	0x60
 8446 322c 00       		.byte	0
 8447 322d 00       		.byte	0
 8448 322e 00       		.byte	0
 8449 322f 00       		.byte	0
 8450 3230 2E       		.uleb128 0x2e
 8451 3231 231E0000 		.4byte	0x1e23
 8452 3235 4A000000 		.4byte	.LBB327
 8453 3239 0E000000 		.4byte	.LBE327-.LBB327
 8454 323d 01       		.byte	0x1
 8455 323e F6       		.byte	0xf6
 8456 323f 4D320000 		.4byte	0x324d
 8457 3243 2F       		.uleb128 0x2f
 8458 3244 331E0000 		.4byte	0x1e33
 8459 3248 86090000 		.4byte	.LLST107
 8460 324c 00       		.byte	0
 8461 324d 2E       		.uleb128 0x2e
 8462 324e 071E0000 		.4byte	0x1e07
 8463 3252 60000000 		.4byte	.LBB329
 8464 3256 0E000000 		.4byte	.LBE329-.LBB329
 8465 325a 01       		.byte	0x1
 8466 325b F7       		.byte	0xf7
 8467 325c 6A320000 		.4byte	0x326a
 8468 3260 2F       		.uleb128 0x2f
 8469 3261 171E0000 		.4byte	0x1e17
 8470 3265 9B090000 		.4byte	.LLST108
 8471 3269 00       		.byte	0
 8472 326a 2E       		.uleb128 0x2e
 8473 326b D31D0000 		.4byte	0x1dd3
 8474 326f 76000000 		.4byte	.LBB331
 8475 3273 0C000000 		.4byte	.LBE331-.LBB331
 8476 3277 01       		.byte	0x1
 8477 3278 F9       		.byte	0xf9
 8478 3279 BB320000 		.4byte	0x32bb
 8479 327d 2F       		.uleb128 0x2f
 8480 327e F01D0000 		.4byte	0x1df0
 8481 3282 B0090000 		.4byte	.LLST109
 8482 3286 2F       		.uleb128 0x2f
 8483 3287 E41D0000 		.4byte	0x1de4
 8484 328b C3090000 		.4byte	.LLST110
 8485 328f 30       		.uleb128 0x30
 8486 3290 76000000 		.4byte	.LBB332
 8487 3294 0C000000 		.4byte	.LBE332-.LBB332
 8488 3298 31       		.uleb128 0x31
 8489 3299 FC1D0000 		.4byte	0x1dfc
 8490 329d 32       		.uleb128 0x32
 8491 329e 80000000 		.4byte	.LVL150
ARM GAS  C:\Users\haske\AppData\Local\Temp\cc4f9rxb.s 			page 171


 8492 32a2 7F3F0000 		.4byte	0x3f7f
 8493 32a6 33       		.uleb128 0x33
 8494 32a7 01       		.uleb128 0x1
 8495 32a8 50       		.byte	0x50
 8496 32a9 02       		.uleb128 0x2
 8497 32aa 74       		.byte	0x74
 8498 32ab 00       		.sleb128 0
 8499 32ac 33       		.uleb128 0x33
 8500 32ad 01       		.uleb128 0x1
 8501 32ae 51       		.byte	0x51
 8502 32af 02       		.uleb128 0x2
 8503 32b0 75       		.byte	0x75
 8504 32b1 00       		.sleb128 0
 8505 32b2 33       		.uleb128 0x33
 8506 32b3 01       		.uleb128 0x1
 8507 32b4 52       		.byte	0x52
 8508 32b5 02       		.uleb128 0x2
 8509 32b6 08       		.byte	0x8
 8510 32b7 48       		.byte	0x48
 8511 32b8 00       		.byte	0
 8512 32b9 00       		.byte	0
 8513 32ba 00       		.byte	0
 8514 32bb 2E       		.uleb128 0x2e
 8515 32bc 03310000 		.4byte	0x3103
 8516 32c0 88000000 		.4byte	.LBB333
 8517 32c4 14000000 		.4byte	.LBE333-.LBB333
 8518 32c8 01       		.byte	0x1
 8519 32c9 FB       		.byte	0xfb
 8520 32ca 26330000 		.4byte	0x3326
 8521 32ce 2F       		.uleb128 0x2f
 8522 32cf 20310000 		.4byte	0x3120
 8523 32d3 D6090000 		.4byte	.LLST111
 8524 32d7 2F       		.uleb128 0x2f
 8525 32d8 14310000 		.4byte	0x3114
 8526 32dc E9090000 		.4byte	.LLST112
 8527 32e0 30       		.uleb128 0x30
 8528 32e1 88000000 		.4byte	.LBB334
 8529 32e5 14000000 		.4byte	.LBE334-.LBB334
 8530 32e9 31       		.uleb128 0x31
 8531 32ea 2C310000 		.4byte	0x312c
 8532 32ee 36       		.uleb128 0x36
 8533 32ef 92000000 		.4byte	.LVL153
 8534 32f3 7F3F0000 		.4byte	0x3f7f
 8535 32f7 0E330000 		.4byte	0x330e
 8536 32fb 33       		.uleb128 0x33
 8537 32fc 01       		.uleb128 0x1
 8538 32fd 50       		.byte	0x50
 8539 32fe 02       		.uleb128 0x2
 8540 32ff 74       		.byte	0x74
 8541 3300 00       		.sleb128 0
 8542 3301 33       		.uleb128 0x33
 8543 3302 01       		.uleb128 0x1
 8544 3303 51       		.byte	0x51
 8545 3304 02       		.uleb128 0x2
 8546 3305 75       		.byte	0x75
 8547 3306 00       		.sleb128 0
 8548 3307 33       		.uleb128 0x33
ARM GAS  C:\Users\haske\AppData\Local\Temp\cc4f9rxb.s 			page 172


 8549 3308 01       		.uleb128 0x1
 8550 3309 52       		.byte	0x52
 8551 330a 02       		.uleb128 0x2
 8552 330b 08       		.byte	0x8
 8553 330c 47       		.byte	0x47
 8554 330d 00       		.byte	0
 8555 330e 32       		.uleb128 0x32
 8556 330f 9C000000 		.4byte	.LVL154
 8557 3313 8A3F0000 		.4byte	0x3f8a
 8558 3317 33       		.uleb128 0x33
 8559 3318 01       		.uleb128 0x1
 8560 3319 50       		.byte	0x50
 8561 331a 02       		.uleb128 0x2
 8562 331b 74       		.byte	0x74
 8563 331c 00       		.sleb128 0
 8564 331d 33       		.uleb128 0x33
 8565 331e 01       		.uleb128 0x1
 8566 331f 51       		.byte	0x51
 8567 3320 02       		.uleb128 0x2
 8568 3321 75       		.byte	0x75
 8569 3322 00       		.sleb128 0
 8570 3323 00       		.byte	0
 8571 3324 00       		.byte	0
 8572 3325 00       		.byte	0
 8573 3326 39       		.uleb128 0x39
 8574 3327 E0170000 		.4byte	0x17e0
 8575 332b A2000000 		.4byte	.LBB335
 8576 332f 0A000000 		.4byte	.LBE335-.LBB335
 8577 3333 01       		.byte	0x1
 8578 3334 FE       		.byte	0xfe
 8579 3335 2F       		.uleb128 0x2f
 8580 3336 FD170000 		.4byte	0x17fd
 8581 333a FC090000 		.4byte	.LLST113
 8582 333e 2F       		.uleb128 0x2f
 8583 333f F1170000 		.4byte	0x17f1
 8584 3343 0F0A0000 		.4byte	.LLST114
 8585 3347 30       		.uleb128 0x30
 8586 3348 A2000000 		.4byte	.LBB336
 8587 334c 0A000000 		.4byte	.LBE336-.LBB336
 8588 3350 37       		.uleb128 0x37
 8589 3351 09180000 		.4byte	0x1809
 8590 3355 220A0000 		.4byte	.LLST115
 8591 3359 32       		.uleb128 0x32
 8592 335a AC000000 		.4byte	.LVL156
 8593 335e 7F3F0000 		.4byte	0x3f7f
 8594 3362 33       		.uleb128 0x33
 8595 3363 01       		.uleb128 0x1
 8596 3364 50       		.byte	0x50
 8597 3365 02       		.uleb128 0x2
 8598 3366 74       		.byte	0x74
 8599 3367 00       		.sleb128 0
 8600 3368 33       		.uleb128 0x33
 8601 3369 01       		.uleb128 0x1
 8602 336a 51       		.byte	0x51
 8603 336b 02       		.uleb128 0x2
 8604 336c 75       		.byte	0x75
 8605 336d 00       		.sleb128 0
ARM GAS  C:\Users\haske\AppData\Local\Temp\cc4f9rxb.s 			page 173


 8606 336e 33       		.uleb128 0x33
 8607 336f 01       		.uleb128 0x1
 8608 3370 52       		.byte	0x52
 8609 3371 02       		.uleb128 0x2
 8610 3372 08       		.byte	0x8
 8611 3373 67       		.byte	0x67
 8612 3374 00       		.byte	0
 8613 3375 00       		.byte	0
 8614 3376 00       		.byte	0
 8615 3377 00       		.byte	0
 8616 3378 22       		.uleb128 0x22
 8617 3379 CF150000 		.4byte	.LASF494
 8618 337d 02       		.byte	0x2
 8619 337e 8D01     		.2byte	0x18d
 8620 3380 CF030000 		.4byte	0x3cf
 8621 3384 03       		.byte	0x3
 8622 3385 AC330000 		.4byte	0x33ac
 8623 3389 23       		.uleb128 0x23
 8624 338a 6F626A00 		.ascii	"obj\000"
 8625 338e 02       		.byte	0x2
 8626 338f 8D01     		.2byte	0x18d
 8627 3391 D5170000 		.4byte	0x17d5
 8628 3395 24       		.uleb128 0x24
 8629 3396 A1210000 		.4byte	.LASF313
 8630 339a 02       		.byte	0x2
 8631 339b 8D01     		.2byte	0x18d
 8632 339d E4000000 		.4byte	0xe4
 8633 33a1 25       		.uleb128 0x25
 8634 33a2 7600     		.ascii	"v\000"
 8635 33a4 02       		.byte	0x2
 8636 33a5 8F01     		.2byte	0x18f
 8637 33a7 0C050000 		.4byte	0x50c
 8638 33ab 00       		.byte	0
 8639 33ac 3A       		.uleb128 0x3a
 8640 33ad 27180000 		.4byte	.LASF495
 8641 33b1 01       		.byte	0x1
 8642 33b2 0201     		.2byte	0x102
 8643 33b4 00000000 		.4byte	.LFB168
 8644 33b8 C6000000 		.4byte	.LFE168-.LFB168
 8645 33bc 01       		.uleb128 0x1
 8646 33bd 9C       		.byte	0x9c
 8647 33be B7360000 		.4byte	0x36b7
 8648 33c2 3B       		.uleb128 0x3b
 8649 33c3 6F626A00 		.ascii	"obj\000"
 8650 33c7 01       		.byte	0x1
 8651 33c8 0201     		.2byte	0x102
 8652 33ca 9B170000 		.4byte	0x179b
 8653 33ce 350A0000 		.4byte	.LLST116
 8654 33d2 3C       		.uleb128 0x3c
 8655 33d3 A1210000 		.4byte	.LASF313
 8656 33d7 01       		.byte	0x1
 8657 33d8 0201     		.2byte	0x102
 8658 33da E4000000 		.4byte	0xe4
 8659 33de 610A0000 		.4byte	.LLST117
 8660 33e2 3C       		.uleb128 0x3c
 8661 33e3 F9010000 		.4byte	.LASF488
 8662 33e7 01       		.byte	0x1
ARM GAS  C:\Users\haske\AppData\Local\Temp\cc4f9rxb.s 			page 174


 8663 33e8 0201     		.2byte	0x102
 8664 33ea 93120000 		.4byte	0x1293
 8665 33ee 8D0A0000 		.4byte	.LLST118
 8666 33f2 3D       		.uleb128 0x3d
 8667 33f3 3F1E0000 		.4byte	0x1e3f
 8668 33f7 08000000 		.4byte	.LBB354
 8669 33fb 08000000 		.4byte	.LBE354-.LBB354
 8670 33ff 01       		.byte	0x1
 8671 3400 0401     		.2byte	0x104
 8672 3402 44340000 		.4byte	0x3444
 8673 3406 2F       		.uleb128 0x2f
 8674 3407 5C1E0000 		.4byte	0x1e5c
 8675 340b B90A0000 		.4byte	.LLST119
 8676 340f 2F       		.uleb128 0x2f
 8677 3410 501E0000 		.4byte	0x1e50
 8678 3414 D70A0000 		.4byte	.LLST120
 8679 3418 30       		.uleb128 0x30
 8680 3419 08000000 		.4byte	.LBB355
 8681 341d 08000000 		.4byte	.LBE355-.LBB355
 8682 3421 31       		.uleb128 0x31
 8683 3422 681E0000 		.4byte	0x1e68
 8684 3426 32       		.uleb128 0x32
 8685 3427 0E000000 		.4byte	.LVL165
 8686 342b 7F3F0000 		.4byte	0x3f7f
 8687 342f 33       		.uleb128 0x33
 8688 3430 01       		.uleb128 0x1
 8689 3431 50       		.byte	0x50
 8690 3432 02       		.uleb128 0x2
 8691 3433 75       		.byte	0x75
 8692 3434 00       		.sleb128 0
 8693 3435 33       		.uleb128 0x33
 8694 3436 01       		.uleb128 0x1
 8695 3437 51       		.byte	0x51
 8696 3438 02       		.uleb128 0x2
 8697 3439 74       		.byte	0x74
 8698 343a 00       		.sleb128 0
 8699 343b 33       		.uleb128 0x33
 8700 343c 01       		.uleb128 0x1
 8701 343d 52       		.byte	0x52
 8702 343e 02       		.uleb128 0x2
 8703 343f 08       		.byte	0x8
 8704 3440 4E       		.byte	0x4e
 8705 3441 00       		.byte	0
 8706 3442 00       		.byte	0
 8707 3443 00       		.byte	0
 8708 3444 34       		.uleb128 0x34
 8709 3445 1A000000 		.4byte	.LBB356
 8710 3449 26000000 		.4byte	.LBE356-.LBB356
 8711 344d AC340000 		.4byte	0x34ac
 8712 3451 25       		.uleb128 0x25
 8713 3452 6F706100 		.ascii	"opa\000"
 8714 3456 01       		.byte	0x1
 8715 3457 0801     		.2byte	0x108
 8716 3459 DA030000 		.4byte	0x3da
 8717 345d 3E       		.uleb128 0x3e
 8718 345e A1170000 		.4byte	0x17a1
 8719 3462 1A000000 		.4byte	.LBB357
ARM GAS  C:\Users\haske\AppData\Local\Temp\cc4f9rxb.s 			page 175


 8720 3466 0C000000 		.4byte	.LBE357-.LBB357
 8721 346a 01       		.byte	0x1
 8722 346b 0801     		.2byte	0x108
 8723 346d 2F       		.uleb128 0x2f
 8724 346e BE170000 		.4byte	0x17be
 8725 3472 F50A0000 		.4byte	.LLST121
 8726 3476 2F       		.uleb128 0x2f
 8727 3477 B2170000 		.4byte	0x17b2
 8728 347b 080B0000 		.4byte	.LLST122
 8729 347f 30       		.uleb128 0x30
 8730 3480 1A000000 		.4byte	.LBB358
 8731 3484 0C000000 		.4byte	.LBE358-.LBB358
 8732 3488 31       		.uleb128 0x31
 8733 3489 CA170000 		.4byte	0x17ca
 8734 348d 32       		.uleb128 0x32
 8735 348e 24000000 		.4byte	.LVL168
 8736 3492 7F3F0000 		.4byte	0x3f7f
 8737 3496 33       		.uleb128 0x33
 8738 3497 01       		.uleb128 0x1
 8739 3498 50       		.byte	0x50
 8740 3499 02       		.uleb128 0x2
 8741 349a 75       		.byte	0x75
 8742 349b 00       		.sleb128 0
 8743 349c 33       		.uleb128 0x33
 8744 349d 01       		.uleb128 0x1
 8745 349e 51       		.byte	0x51
 8746 349f 02       		.uleb128 0x2
 8747 34a0 74       		.byte	0x74
 8748 34a1 00       		.sleb128 0
 8749 34a2 33       		.uleb128 0x33
 8750 34a3 01       		.uleb128 0x1
 8751 34a4 52       		.byte	0x52
 8752 34a5 02       		.uleb128 0x2
 8753 34a6 08       		.byte	0x8
 8754 34a7 60       		.byte	0x60
 8755 34a8 00       		.byte	0
 8756 34a9 00       		.byte	0
 8757 34aa 00       		.byte	0
 8758 34ab 00       		.byte	0
 8759 34ac 3D       		.uleb128 0x3d
 8760 34ad 731E0000 		.4byte	0x1e73
 8761 34b1 40000000 		.4byte	.LBB359
 8762 34b5 0C000000 		.4byte	.LBE359-.LBB359
 8763 34b9 01       		.byte	0x1
 8764 34ba 1201     		.2byte	0x112
 8765 34bc FE340000 		.4byte	0x34fe
 8766 34c0 2F       		.uleb128 0x2f
 8767 34c1 901E0000 		.4byte	0x1e90
 8768 34c5 1B0B0000 		.4byte	.LLST123
 8769 34c9 2F       		.uleb128 0x2f
 8770 34ca 841E0000 		.4byte	0x1e84
 8771 34ce 2E0B0000 		.4byte	.LLST124
 8772 34d2 30       		.uleb128 0x30
 8773 34d3 40000000 		.4byte	.LBB360
 8774 34d7 0C000000 		.4byte	.LBE360-.LBB360
 8775 34db 31       		.uleb128 0x31
 8776 34dc 9C1E0000 		.4byte	0x1e9c
ARM GAS  C:\Users\haske\AppData\Local\Temp\cc4f9rxb.s 			page 176


 8777 34e0 32       		.uleb128 0x32
 8778 34e1 4A000000 		.4byte	.LVL171
 8779 34e5 7F3F0000 		.4byte	0x3f7f
 8780 34e9 33       		.uleb128 0x33
 8781 34ea 01       		.uleb128 0x1
 8782 34eb 50       		.byte	0x50
 8783 34ec 02       		.uleb128 0x2
 8784 34ed 75       		.byte	0x75
 8785 34ee 00       		.sleb128 0
 8786 34ef 33       		.uleb128 0x33
 8787 34f0 01       		.uleb128 0x1
 8788 34f1 51       		.byte	0x51
 8789 34f2 02       		.uleb128 0x2
 8790 34f3 74       		.byte	0x74
 8791 34f4 00       		.sleb128 0
 8792 34f5 33       		.uleb128 0x33
 8793 34f6 01       		.uleb128 0x1
 8794 34f7 52       		.byte	0x52
 8795 34f8 02       		.uleb128 0x2
 8796 34f9 08       		.byte	0x8
 8797 34fa 49       		.byte	0x49
 8798 34fb 00       		.byte	0
 8799 34fc 00       		.byte	0
 8800 34fd 00       		.byte	0
 8801 34fe 3D       		.uleb128 0x3d
 8802 34ff 78330000 		.4byte	0x3378
 8803 3503 52000000 		.4byte	.LBB361
 8804 3507 14000000 		.4byte	.LBE361-.LBB361
 8805 350b 01       		.byte	0x1
 8806 350c 1501     		.2byte	0x115
 8807 350e 6A350000 		.4byte	0x356a
 8808 3512 2F       		.uleb128 0x2f
 8809 3513 95330000 		.4byte	0x3395
 8810 3517 410B0000 		.4byte	.LLST125
 8811 351b 2F       		.uleb128 0x2f
 8812 351c 89330000 		.4byte	0x3389
 8813 3520 540B0000 		.4byte	.LLST126
 8814 3524 30       		.uleb128 0x30
 8815 3525 52000000 		.4byte	.LBB362
 8816 3529 14000000 		.4byte	.LBE362-.LBB362
 8817 352d 31       		.uleb128 0x31
 8818 352e A1330000 		.4byte	0x33a1
 8819 3532 36       		.uleb128 0x36
 8820 3533 5C000000 		.4byte	.LVL174
 8821 3537 7F3F0000 		.4byte	0x3f7f
 8822 353b 52350000 		.4byte	0x3552
 8823 353f 33       		.uleb128 0x33
 8824 3540 01       		.uleb128 0x1
 8825 3541 50       		.byte	0x50
 8826 3542 02       		.uleb128 0x2
 8827 3543 75       		.byte	0x75
 8828 3544 00       		.sleb128 0
 8829 3545 33       		.uleb128 0x33
 8830 3546 01       		.uleb128 0x1
 8831 3547 51       		.byte	0x51
 8832 3548 02       		.uleb128 0x2
 8833 3549 74       		.byte	0x74
ARM GAS  C:\Users\haske\AppData\Local\Temp\cc4f9rxb.s 			page 177


 8834 354a 00       		.sleb128 0
 8835 354b 33       		.uleb128 0x33
 8836 354c 01       		.uleb128 0x1
 8837 354d 52       		.byte	0x52
 8838 354e 02       		.uleb128 0x2
 8839 354f 08       		.byte	0x8
 8840 3550 4D       		.byte	0x4d
 8841 3551 00       		.byte	0
 8842 3552 32       		.uleb128 0x32
 8843 3553 66000000 		.4byte	.LVL175
 8844 3557 8A3F0000 		.4byte	0x3f8a
 8845 355b 33       		.uleb128 0x33
 8846 355c 01       		.uleb128 0x1
 8847 355d 50       		.byte	0x50
 8848 355e 02       		.uleb128 0x2
 8849 355f 75       		.byte	0x75
 8850 3560 00       		.sleb128 0
 8851 3561 33       		.uleb128 0x33
 8852 3562 01       		.uleb128 0x1
 8853 3563 51       		.byte	0x51
 8854 3564 02       		.uleb128 0x2
 8855 3565 74       		.byte	0x74
 8856 3566 00       		.sleb128 0
 8857 3567 00       		.byte	0
 8858 3568 00       		.byte	0
 8859 3569 00       		.byte	0
 8860 356a 3D       		.uleb128 0x3d
 8861 356b A71E0000 		.4byte	0x1ea7
 8862 356f 68000000 		.4byte	.LBB363
 8863 3573 0C000000 		.4byte	.LBE363-.LBB363
 8864 3577 01       		.byte	0x1
 8865 3578 1701     		.2byte	0x117
 8866 357a BC350000 		.4byte	0x35bc
 8867 357e 2F       		.uleb128 0x2f
 8868 357f C41E0000 		.4byte	0x1ec4
 8869 3583 670B0000 		.4byte	.LLST127
 8870 3587 2F       		.uleb128 0x2f
 8871 3588 B81E0000 		.4byte	0x1eb8
 8872 358c 7A0B0000 		.4byte	.LLST128
 8873 3590 30       		.uleb128 0x30
 8874 3591 68000000 		.4byte	.LBB364
 8875 3595 0C000000 		.4byte	.LBE364-.LBB364
 8876 3599 31       		.uleb128 0x31
 8877 359a D01E0000 		.4byte	0x1ed0
 8878 359e 32       		.uleb128 0x32
 8879 359f 72000000 		.4byte	.LVL177
 8880 35a3 7F3F0000 		.4byte	0x3f7f
 8881 35a7 33       		.uleb128 0x33
 8882 35a8 01       		.uleb128 0x1
 8883 35a9 50       		.byte	0x50
 8884 35aa 02       		.uleb128 0x2
 8885 35ab 75       		.byte	0x75
 8886 35ac 00       		.sleb128 0
 8887 35ad 33       		.uleb128 0x33
 8888 35ae 01       		.uleb128 0x1
 8889 35af 51       		.byte	0x51
 8890 35b0 02       		.uleb128 0x2
ARM GAS  C:\Users\haske\AppData\Local\Temp\cc4f9rxb.s 			page 178


 8891 35b1 74       		.byte	0x74
 8892 35b2 00       		.sleb128 0
 8893 35b3 33       		.uleb128 0x33
 8894 35b4 01       		.uleb128 0x1
 8895 35b5 52       		.byte	0x52
 8896 35b6 02       		.uleb128 0x2
 8897 35b7 08       		.byte	0x8
 8898 35b8 4A       		.byte	0x4a
 8899 35b9 00       		.byte	0
 8900 35ba 00       		.byte	0
 8901 35bb 00       		.byte	0
 8902 35bc 3D       		.uleb128 0x3d
 8903 35bd DB1E0000 		.4byte	0x1edb
 8904 35c1 7A000000 		.4byte	.LBB365
 8905 35c5 0A000000 		.4byte	.LBE365-.LBB365
 8906 35c9 01       		.byte	0x1
 8907 35ca 1901     		.2byte	0x119
 8908 35cc 0E360000 		.4byte	0x360e
 8909 35d0 2F       		.uleb128 0x2f
 8910 35d1 F81E0000 		.4byte	0x1ef8
 8911 35d5 8D0B0000 		.4byte	.LLST129
 8912 35d9 2F       		.uleb128 0x2f
 8913 35da EC1E0000 		.4byte	0x1eec
 8914 35de A00B0000 		.4byte	.LLST130
 8915 35e2 30       		.uleb128 0x30
 8916 35e3 7A000000 		.4byte	.LBB366
 8917 35e7 0A000000 		.4byte	.LBE366-.LBB366
 8918 35eb 31       		.uleb128 0x31
 8919 35ec 041F0000 		.4byte	0x1f04
 8920 35f0 32       		.uleb128 0x32
 8921 35f1 84000000 		.4byte	.LVL180
 8922 35f5 7F3F0000 		.4byte	0x3f7f
 8923 35f9 33       		.uleb128 0x33
 8924 35fa 01       		.uleb128 0x1
 8925 35fb 50       		.byte	0x50
 8926 35fc 02       		.uleb128 0x2
 8927 35fd 75       		.byte	0x75
 8928 35fe 00       		.sleb128 0
 8929 35ff 33       		.uleb128 0x33
 8930 3600 01       		.uleb128 0x1
 8931 3601 51       		.byte	0x51
 8932 3602 02       		.uleb128 0x2
 8933 3603 74       		.byte	0x74
 8934 3604 00       		.sleb128 0
 8935 3605 33       		.uleb128 0x33
 8936 3606 01       		.uleb128 0x1
 8937 3607 52       		.byte	0x52
 8938 3608 02       		.uleb128 0x2
 8939 3609 08       		.byte	0x8
 8940 360a 4B       		.byte	0x4b
 8941 360b 00       		.byte	0
 8942 360c 00       		.byte	0
 8943 360d 00       		.byte	0
 8944 360e 3D       		.uleb128 0x3d
 8945 360f 0F1F0000 		.4byte	0x1f0f
 8946 3613 86000000 		.4byte	.LBB367
 8947 3617 0A000000 		.4byte	.LBE367-.LBB367
ARM GAS  C:\Users\haske\AppData\Local\Temp\cc4f9rxb.s 			page 179


 8948 361b 01       		.byte	0x1
 8949 361c 1C01     		.2byte	0x11c
 8950 361e 64360000 		.4byte	0x3664
 8951 3622 2F       		.uleb128 0x2f
 8952 3623 2C1F0000 		.4byte	0x1f2c
 8953 3627 B30B0000 		.4byte	.LLST131
 8954 362b 2F       		.uleb128 0x2f
 8955 362c 201F0000 		.4byte	0x1f20
 8956 3630 C60B0000 		.4byte	.LLST132
 8957 3634 30       		.uleb128 0x30
 8958 3635 86000000 		.4byte	.LBB368
 8959 3639 0A000000 		.4byte	.LBE368-.LBB368
 8960 363d 37       		.uleb128 0x37
 8961 363e 381F0000 		.4byte	0x1f38
 8962 3642 D90B0000 		.4byte	.LLST133
 8963 3646 32       		.uleb128 0x32
 8964 3647 90000000 		.4byte	.LVL182
 8965 364b 7F3F0000 		.4byte	0x3f7f
 8966 364f 33       		.uleb128 0x33
 8967 3650 01       		.uleb128 0x1
 8968 3651 50       		.byte	0x50
 8969 3652 02       		.uleb128 0x2
 8970 3653 75       		.byte	0x75
 8971 3654 00       		.sleb128 0
 8972 3655 33       		.uleb128 0x33
 8973 3656 01       		.uleb128 0x1
 8974 3657 51       		.byte	0x51
 8975 3658 02       		.uleb128 0x2
 8976 3659 74       		.byte	0x74
 8977 365a 00       		.sleb128 0
 8978 365b 33       		.uleb128 0x33
 8979 365c 01       		.uleb128 0x1
 8980 365d 52       		.byte	0x52
 8981 365e 02       		.uleb128 0x2
 8982 365f 08       		.byte	0x8
 8983 3660 4C       		.byte	0x4c
 8984 3661 00       		.byte	0
 8985 3662 00       		.byte	0
 8986 3663 00       		.byte	0
 8987 3664 3E       		.uleb128 0x3e
 8988 3665 E0170000 		.4byte	0x17e0
 8989 3669 AC000000 		.4byte	.LBB369
 8990 366d 0A000000 		.4byte	.LBE369-.LBB369
 8991 3671 01       		.byte	0x1
 8992 3672 2001     		.2byte	0x120
 8993 3674 2F       		.uleb128 0x2f
 8994 3675 FD170000 		.4byte	0x17fd
 8995 3679 EC0B0000 		.4byte	.LLST134
 8996 367d 2F       		.uleb128 0x2f
 8997 367e F1170000 		.4byte	0x17f1
 8998 3682 FF0B0000 		.4byte	.LLST135
 8999 3686 30       		.uleb128 0x30
 9000 3687 AC000000 		.4byte	.LBB370
 9001 368b 0A000000 		.4byte	.LBE370-.LBB370
 9002 368f 37       		.uleb128 0x37
 9003 3690 09180000 		.4byte	0x1809
 9004 3694 120C0000 		.4byte	.LLST136
ARM GAS  C:\Users\haske\AppData\Local\Temp\cc4f9rxb.s 			page 180


 9005 3698 32       		.uleb128 0x32
 9006 3699 B6000000 		.4byte	.LVL185
 9007 369d 7F3F0000 		.4byte	0x3f7f
 9008 36a1 33       		.uleb128 0x33
 9009 36a2 01       		.uleb128 0x1
 9010 36a3 50       		.byte	0x50
 9011 36a4 02       		.uleb128 0x2
 9012 36a5 75       		.byte	0x75
 9013 36a6 00       		.sleb128 0
 9014 36a7 33       		.uleb128 0x33
 9015 36a8 01       		.uleb128 0x1
 9016 36a9 51       		.byte	0x51
 9017 36aa 02       		.uleb128 0x2
 9018 36ab 74       		.byte	0x74
 9019 36ac 00       		.sleb128 0
 9020 36ad 33       		.uleb128 0x33
 9021 36ae 01       		.uleb128 0x1
 9022 36af 52       		.byte	0x52
 9023 36b0 02       		.uleb128 0x2
 9024 36b1 08       		.byte	0x8
 9025 36b2 67       		.byte	0x67
 9026 36b3 00       		.byte	0
 9027 36b4 00       		.byte	0
 9028 36b5 00       		.byte	0
 9029 36b6 00       		.byte	0
 9030 36b7 22       		.uleb128 0x22
 9031 36b8 C60C0000 		.4byte	.LASF496
 9032 36bc 02       		.byte	0x2
 9033 36bd AB01     		.2byte	0x1ab
 9034 36bf CF030000 		.4byte	0x3cf
 9035 36c3 03       		.byte	0x3
 9036 36c4 EB360000 		.4byte	0x36eb
 9037 36c8 23       		.uleb128 0x23
 9038 36c9 6F626A00 		.ascii	"obj\000"
 9039 36cd 02       		.byte	0x2
 9040 36ce AB01     		.2byte	0x1ab
 9041 36d0 D5170000 		.4byte	0x17d5
 9042 36d4 24       		.uleb128 0x24
 9043 36d5 A1210000 		.4byte	.LASF313
 9044 36d9 02       		.byte	0x2
 9045 36da AB01     		.2byte	0x1ab
 9046 36dc E4000000 		.4byte	0xe4
 9047 36e0 25       		.uleb128 0x25
 9048 36e1 7600     		.ascii	"v\000"
 9049 36e3 02       		.byte	0x2
 9050 36e4 AD01     		.2byte	0x1ad
 9051 36e6 0C050000 		.4byte	0x50c
 9052 36ea 00       		.byte	0
 9053 36eb 3A       		.uleb128 0x3a
 9054 36ec 130C0000 		.4byte	.LASF497
 9055 36f0 01       		.byte	0x1
 9056 36f1 2401     		.2byte	0x124
 9057 36f3 00000000 		.4byte	.LFB169
 9058 36f7 AC000000 		.4byte	.LFE169-.LFB169
 9059 36fb 01       		.uleb128 0x1
 9060 36fc 9C       		.byte	0x9c
 9061 36fd A8390000 		.4byte	0x39a8
ARM GAS  C:\Users\haske\AppData\Local\Temp\cc4f9rxb.s 			page 181


 9062 3701 3B       		.uleb128 0x3b
 9063 3702 6F626A00 		.ascii	"obj\000"
 9064 3706 01       		.byte	0x1
 9065 3707 2401     		.2byte	0x124
 9066 3709 9B170000 		.4byte	0x179b
 9067 370d 250C0000 		.4byte	.LLST137
 9068 3711 3C       		.uleb128 0x3c
 9069 3712 A1210000 		.4byte	.LASF313
 9070 3716 01       		.byte	0x1
 9071 3717 2401     		.2byte	0x124
 9072 3719 E4000000 		.4byte	0xe4
 9073 371d 510C0000 		.4byte	.LLST138
 9074 3721 3C       		.uleb128 0x3c
 9075 3722 F9010000 		.4byte	.LASF488
 9076 3726 01       		.byte	0x1
 9077 3727 2401     		.2byte	0x124
 9078 3729 9F120000 		.4byte	0x129f
 9079 372d 7D0C0000 		.4byte	.LLST139
 9080 3731 3D       		.uleb128 0x3d
 9081 3732 431F0000 		.4byte	0x1f43
 9082 3736 08000000 		.4byte	.LBB386
 9083 373a 08000000 		.4byte	.LBE386-.LBB386
 9084 373e 01       		.byte	0x1
 9085 373f 2601     		.2byte	0x126
 9086 3741 83370000 		.4byte	0x3783
 9087 3745 2F       		.uleb128 0x2f
 9088 3746 601F0000 		.4byte	0x1f60
 9089 374a A90C0000 		.4byte	.LLST140
 9090 374e 2F       		.uleb128 0x2f
 9091 374f 541F0000 		.4byte	0x1f54
 9092 3753 C70C0000 		.4byte	.LLST141
 9093 3757 30       		.uleb128 0x30
 9094 3758 08000000 		.4byte	.LBB387
 9095 375c 08000000 		.4byte	.LBE387-.LBB387
 9096 3760 31       		.uleb128 0x31
 9097 3761 6C1F0000 		.4byte	0x1f6c
 9098 3765 32       		.uleb128 0x32
 9099 3766 0E000000 		.4byte	.LVL194
 9100 376a 7F3F0000 		.4byte	0x3f7f
 9101 376e 33       		.uleb128 0x33
 9102 376f 01       		.uleb128 0x1
 9103 3770 50       		.byte	0x50
 9104 3771 02       		.uleb128 0x2
 9105 3772 75       		.byte	0x75
 9106 3773 00       		.sleb128 0
 9107 3774 33       		.uleb128 0x33
 9108 3775 01       		.uleb128 0x1
 9109 3776 51       		.byte	0x51
 9110 3777 02       		.uleb128 0x2
 9111 3778 74       		.byte	0x74
 9112 3779 00       		.sleb128 0
 9113 377a 33       		.uleb128 0x33
 9114 377b 01       		.uleb128 0x1
 9115 377c 52       		.byte	0x52
 9116 377d 02       		.uleb128 0x2
 9117 377e 08       		.byte	0x8
 9118 377f 50       		.byte	0x50
ARM GAS  C:\Users\haske\AppData\Local\Temp\cc4f9rxb.s 			page 182


 9119 3780 00       		.byte	0
 9120 3781 00       		.byte	0
 9121 3782 00       		.byte	0
 9122 3783 3D       		.uleb128 0x3d
 9123 3784 771F0000 		.4byte	0x1f77
 9124 3788 16000000 		.4byte	.LBB388
 9125 378c 0C000000 		.4byte	.LBE388-.LBB388
 9126 3790 01       		.byte	0x1
 9127 3791 2901     		.2byte	0x129
 9128 3793 D5370000 		.4byte	0x37d5
 9129 3797 2F       		.uleb128 0x2f
 9130 3798 941F0000 		.4byte	0x1f94
 9131 379c E50C0000 		.4byte	.LLST142
 9132 37a0 2F       		.uleb128 0x2f
 9133 37a1 881F0000 		.4byte	0x1f88
 9134 37a5 F80C0000 		.4byte	.LLST143
 9135 37a9 30       		.uleb128 0x30
 9136 37aa 16000000 		.4byte	.LBB389
 9137 37ae 0C000000 		.4byte	.LBE389-.LBB389
 9138 37b2 31       		.uleb128 0x31
 9139 37b3 A01F0000 		.4byte	0x1fa0
 9140 37b7 32       		.uleb128 0x32
 9141 37b8 20000000 		.4byte	.LVL197
 9142 37bc 7F3F0000 		.4byte	0x3f7f
 9143 37c0 33       		.uleb128 0x33
 9144 37c1 01       		.uleb128 0x1
 9145 37c2 50       		.byte	0x50
 9146 37c3 02       		.uleb128 0x2
 9147 37c4 75       		.byte	0x75
 9148 37c5 00       		.sleb128 0
 9149 37c6 33       		.uleb128 0x33
 9150 37c7 01       		.uleb128 0x1
 9151 37c8 51       		.byte	0x51
 9152 37c9 02       		.uleb128 0x2
 9153 37ca 74       		.byte	0x74
 9154 37cb 00       		.sleb128 0
 9155 37cc 33       		.uleb128 0x33
 9156 37cd 01       		.uleb128 0x1
 9157 37ce 52       		.byte	0x52
 9158 37cf 02       		.uleb128 0x2
 9159 37d0 08       		.byte	0x8
 9160 37d1 53       		.byte	0x53
 9161 37d2 00       		.byte	0
 9162 37d3 00       		.byte	0
 9163 37d4 00       		.byte	0
 9164 37d5 34       		.uleb128 0x34
 9165 37d6 2C000000 		.4byte	.LBB390
 9166 37da 26000000 		.4byte	.LBE390-.LBB390
 9167 37de 3D380000 		.4byte	0x383d
 9168 37e2 25       		.uleb128 0x25
 9169 37e3 6F706100 		.ascii	"opa\000"
 9170 37e7 01       		.byte	0x1
 9171 37e8 2D01     		.2byte	0x12d
 9172 37ea DA030000 		.4byte	0x3da
 9173 37ee 3E       		.uleb128 0x3e
 9174 37ef A1170000 		.4byte	0x17a1
 9175 37f3 2C000000 		.4byte	.LBB391
ARM GAS  C:\Users\haske\AppData\Local\Temp\cc4f9rxb.s 			page 183


 9176 37f7 0C000000 		.4byte	.LBE391-.LBB391
 9177 37fb 01       		.byte	0x1
 9178 37fc 2D01     		.2byte	0x12d
 9179 37fe 2F       		.uleb128 0x2f
 9180 37ff BE170000 		.4byte	0x17be
 9181 3803 0B0D0000 		.4byte	.LLST144
 9182 3807 2F       		.uleb128 0x2f
 9183 3808 B2170000 		.4byte	0x17b2
 9184 380c 1E0D0000 		.4byte	.LLST145
 9185 3810 30       		.uleb128 0x30
 9186 3811 2C000000 		.4byte	.LBB392
 9187 3815 0C000000 		.4byte	.LBE392-.LBB392
 9188 3819 31       		.uleb128 0x31
 9189 381a CA170000 		.4byte	0x17ca
 9190 381e 32       		.uleb128 0x32
 9191 381f 36000000 		.4byte	.LVL200
 9192 3823 7F3F0000 		.4byte	0x3f7f
 9193 3827 33       		.uleb128 0x33
 9194 3828 01       		.uleb128 0x1
 9195 3829 50       		.byte	0x50
 9196 382a 02       		.uleb128 0x2
 9197 382b 75       		.byte	0x75
 9198 382c 00       		.sleb128 0
 9199 382d 33       		.uleb128 0x33
 9200 382e 01       		.uleb128 0x1
 9201 382f 51       		.byte	0x51
 9202 3830 02       		.uleb128 0x2
 9203 3831 74       		.byte	0x74
 9204 3832 00       		.sleb128 0
 9205 3833 33       		.uleb128 0x33
 9206 3834 01       		.uleb128 0x1
 9207 3835 52       		.byte	0x52
 9208 3836 02       		.uleb128 0x2
 9209 3837 08       		.byte	0x8
 9210 3838 60       		.byte	0x60
 9211 3839 00       		.byte	0
 9212 383a 00       		.byte	0
 9213 383b 00       		.byte	0
 9214 383c 00       		.byte	0
 9215 383d 3D       		.uleb128 0x3d
 9216 383e B7360000 		.4byte	0x36b7
 9217 3842 52000000 		.4byte	.LBB393
 9218 3846 14000000 		.4byte	.LBE393-.LBB393
 9219 384a 01       		.byte	0x1
 9220 384b 3701     		.2byte	0x137
 9221 384d A9380000 		.4byte	0x38a9
 9222 3851 2F       		.uleb128 0x2f
 9223 3852 D4360000 		.4byte	0x36d4
 9224 3856 310D0000 		.4byte	.LLST146
 9225 385a 2F       		.uleb128 0x2f
 9226 385b C8360000 		.4byte	0x36c8
 9227 385f 440D0000 		.4byte	.LLST147
 9228 3863 30       		.uleb128 0x30
 9229 3864 52000000 		.4byte	.LBB394
 9230 3868 14000000 		.4byte	.LBE394-.LBB394
 9231 386c 31       		.uleb128 0x31
 9232 386d E0360000 		.4byte	0x36e0
ARM GAS  C:\Users\haske\AppData\Local\Temp\cc4f9rxb.s 			page 184


 9233 3871 36       		.uleb128 0x36
 9234 3872 5C000000 		.4byte	.LVL203
 9235 3876 7F3F0000 		.4byte	0x3f7f
 9236 387a 91380000 		.4byte	0x3891
 9237 387e 33       		.uleb128 0x33
 9238 387f 01       		.uleb128 0x1
 9239 3880 50       		.byte	0x50
 9240 3881 02       		.uleb128 0x2
 9241 3882 75       		.byte	0x75
 9242 3883 00       		.sleb128 0
 9243 3884 33       		.uleb128 0x33
 9244 3885 01       		.uleb128 0x1
 9245 3886 51       		.byte	0x51
 9246 3887 02       		.uleb128 0x2
 9247 3888 74       		.byte	0x74
 9248 3889 00       		.sleb128 0
 9249 388a 33       		.uleb128 0x33
 9250 388b 01       		.uleb128 0x1
 9251 388c 52       		.byte	0x52
 9252 388d 02       		.uleb128 0x2
 9253 388e 08       		.byte	0x8
 9254 388f 52       		.byte	0x52
 9255 3890 00       		.byte	0
 9256 3891 32       		.uleb128 0x32
 9257 3892 66000000 		.4byte	.LVL204
 9258 3896 8A3F0000 		.4byte	0x3f8a
 9259 389a 33       		.uleb128 0x33
 9260 389b 01       		.uleb128 0x1
 9261 389c 50       		.byte	0x50
 9262 389d 02       		.uleb128 0x2
 9263 389e 75       		.byte	0x75
 9264 389f 00       		.sleb128 0
 9265 38a0 33       		.uleb128 0x33
 9266 38a1 01       		.uleb128 0x1
 9267 38a2 51       		.byte	0x51
 9268 38a3 02       		.uleb128 0x2
 9269 38a4 74       		.byte	0x74
 9270 38a5 00       		.sleb128 0
 9271 38a6 00       		.byte	0
 9272 38a7 00       		.byte	0
 9273 38a8 00       		.byte	0
 9274 38a9 3D       		.uleb128 0x3d
 9275 38aa DF1F0000 		.4byte	0x1fdf
 9276 38ae 68000000 		.4byte	.LBB395
 9277 38b2 0A000000 		.4byte	.LBE395-.LBB395
 9278 38b6 01       		.byte	0x1
 9279 38b7 3801     		.2byte	0x138
 9280 38b9 FF380000 		.4byte	0x38ff
 9281 38bd 2F       		.uleb128 0x2f
 9282 38be FC1F0000 		.4byte	0x1ffc
 9283 38c2 570D0000 		.4byte	.LLST148
 9284 38c6 2F       		.uleb128 0x2f
 9285 38c7 F01F0000 		.4byte	0x1ff0
 9286 38cb 6A0D0000 		.4byte	.LLST149
 9287 38cf 30       		.uleb128 0x30
 9288 38d0 68000000 		.4byte	.LBB396
 9289 38d4 0A000000 		.4byte	.LBE396-.LBB396
ARM GAS  C:\Users\haske\AppData\Local\Temp\cc4f9rxb.s 			page 185


 9290 38d8 37       		.uleb128 0x37
 9291 38d9 08200000 		.4byte	0x2008
 9292 38dd 7D0D0000 		.4byte	.LLST150
 9293 38e1 32       		.uleb128 0x32
 9294 38e2 72000000 		.4byte	.LVL206
 9295 38e6 7F3F0000 		.4byte	0x3f7f
 9296 38ea 33       		.uleb128 0x33
 9297 38eb 01       		.uleb128 0x1
 9298 38ec 50       		.byte	0x50
 9299 38ed 02       		.uleb128 0x2
 9300 38ee 75       		.byte	0x75
 9301 38ef 00       		.sleb128 0
 9302 38f0 33       		.uleb128 0x33
 9303 38f1 01       		.uleb128 0x1
 9304 38f2 51       		.byte	0x51
 9305 38f3 02       		.uleb128 0x2
 9306 38f4 74       		.byte	0x74
 9307 38f5 00       		.sleb128 0
 9308 38f6 33       		.uleb128 0x33
 9309 38f7 01       		.uleb128 0x1
 9310 38f8 52       		.byte	0x52
 9311 38f9 02       		.uleb128 0x2
 9312 38fa 08       		.byte	0x8
 9313 38fb 54       		.byte	0x54
 9314 38fc 00       		.byte	0
 9315 38fd 00       		.byte	0
 9316 38fe 00       		.byte	0
 9317 38ff 3D       		.uleb128 0x3d
 9318 3900 AB1F0000 		.4byte	0x1fab
 9319 3904 74000000 		.4byte	.LBB397
 9320 3908 0A000000 		.4byte	.LBE397-.LBB397
 9321 390c 01       		.byte	0x1
 9322 390d 3A01     		.2byte	0x13a
 9323 390f 55390000 		.4byte	0x3955
 9324 3913 2F       		.uleb128 0x2f
 9325 3914 C81F0000 		.4byte	0x1fc8
 9326 3918 900D0000 		.4byte	.LLST151
 9327 391c 2F       		.uleb128 0x2f
 9328 391d BC1F0000 		.4byte	0x1fbc
 9329 3921 A30D0000 		.4byte	.LLST152
 9330 3925 30       		.uleb128 0x30
 9331 3926 74000000 		.4byte	.LBB398
 9332 392a 0A000000 		.4byte	.LBE398-.LBB398
 9333 392e 37       		.uleb128 0x37
 9334 392f D41F0000 		.4byte	0x1fd4
 9335 3933 B60D0000 		.4byte	.LLST153
 9336 3937 32       		.uleb128 0x32
 9337 3938 7E000000 		.4byte	.LVL209
 9338 393c 7F3F0000 		.4byte	0x3f7f
 9339 3940 33       		.uleb128 0x33
 9340 3941 01       		.uleb128 0x1
 9341 3942 50       		.byte	0x50
 9342 3943 02       		.uleb128 0x2
 9343 3944 75       		.byte	0x75
 9344 3945 00       		.sleb128 0
 9345 3946 33       		.uleb128 0x33
 9346 3947 01       		.uleb128 0x1
ARM GAS  C:\Users\haske\AppData\Local\Temp\cc4f9rxb.s 			page 186


 9347 3948 51       		.byte	0x51
 9348 3949 02       		.uleb128 0x2
 9349 394a 74       		.byte	0x74
 9350 394b 00       		.sleb128 0
 9351 394c 33       		.uleb128 0x33
 9352 394d 01       		.uleb128 0x1
 9353 394e 52       		.byte	0x52
 9354 394f 02       		.uleb128 0x2
 9355 3950 08       		.byte	0x8
 9356 3951 51       		.byte	0x51
 9357 3952 00       		.byte	0
 9358 3953 00       		.byte	0
 9359 3954 00       		.byte	0
 9360 3955 3E       		.uleb128 0x3e
 9361 3956 E0170000 		.4byte	0x17e0
 9362 395a 92000000 		.4byte	.LBB399
 9363 395e 0A000000 		.4byte	.LBE399-.LBB399
 9364 3962 01       		.byte	0x1
 9365 3963 3D01     		.2byte	0x13d
 9366 3965 2F       		.uleb128 0x2f
 9367 3966 FD170000 		.4byte	0x17fd
 9368 396a C90D0000 		.4byte	.LLST154
 9369 396e 2F       		.uleb128 0x2f
 9370 396f F1170000 		.4byte	0x17f1
 9371 3973 DC0D0000 		.4byte	.LLST155
 9372 3977 30       		.uleb128 0x30
 9373 3978 92000000 		.4byte	.LBB400
 9374 397c 0A000000 		.4byte	.LBE400-.LBB400
 9375 3980 37       		.uleb128 0x37
 9376 3981 09180000 		.4byte	0x1809
 9377 3985 EF0D0000 		.4byte	.LLST156
 9378 3989 32       		.uleb128 0x32
 9379 398a 9C000000 		.4byte	.LVL212
 9380 398e 7F3F0000 		.4byte	0x3f7f
 9381 3992 33       		.uleb128 0x33
 9382 3993 01       		.uleb128 0x1
 9383 3994 50       		.byte	0x50
 9384 3995 02       		.uleb128 0x2
 9385 3996 75       		.byte	0x75
 9386 3997 00       		.sleb128 0
 9387 3998 33       		.uleb128 0x33
 9388 3999 01       		.uleb128 0x1
 9389 399a 51       		.byte	0x51
 9390 399b 02       		.uleb128 0x2
 9391 399c 74       		.byte	0x74
 9392 399d 00       		.sleb128 0
 9393 399e 33       		.uleb128 0x33
 9394 399f 01       		.uleb128 0x1
 9395 39a0 52       		.byte	0x52
 9396 39a1 02       		.uleb128 0x2
 9397 39a2 08       		.byte	0x8
 9398 39a3 67       		.byte	0x67
 9399 39a4 00       		.byte	0
 9400 39a5 00       		.byte	0
 9401 39a6 00       		.byte	0
 9402 39a7 00       		.byte	0
 9403 39a8 3F       		.uleb128 0x3f
ARM GAS  C:\Users\haske\AppData\Local\Temp\cc4f9rxb.s 			page 187


 9404 39a9 CA1A0000 		.4byte	.LASF503
 9405 39ad 01       		.byte	0x1
 9406 39ae 4101     		.2byte	0x141
 9407 39b0 01010000 		.4byte	0x101
 9408 39b4 00000000 		.4byte	.LFB170
 9409 39b8 E0000000 		.4byte	.LFE170-.LFB170
 9410 39bc 01       		.uleb128 0x1
 9411 39bd 9C       		.byte	0x9c
 9412 39be C83D0000 		.4byte	0x3dc8
 9413 39c2 3B       		.uleb128 0x3b
 9414 39c3 6F626A00 		.ascii	"obj\000"
 9415 39c7 01       		.byte	0x1
 9416 39c8 4101     		.2byte	0x141
 9417 39ca 9B170000 		.4byte	0x179b
 9418 39ce 020E0000 		.4byte	.LLST157
 9419 39d2 3C       		.uleb128 0x3c
 9420 39d3 A1210000 		.4byte	.LASF313
 9421 39d7 01       		.byte	0x1
 9422 39d8 4101     		.2byte	0x141
 9423 39da E4000000 		.4byte	0xe4
 9424 39de 2E0E0000 		.4byte	.LLST158
 9425 39e2 40       		.uleb128 0x40
 9426 39e3 7300     		.ascii	"s\000"
 9427 39e5 01       		.byte	0x1
 9428 39e6 4301     		.2byte	0x143
 9429 39e8 01010000 		.4byte	0x101
 9430 39ec 5A0E0000 		.4byte	.LLST159
 9431 39f0 41       		.uleb128 0x41
 9432 39f1 97180000 		.4byte	.LASF498
 9433 39f5 01       		.byte	0x1
 9434 39f6 4501     		.2byte	0x145
 9435 39f8 01010000 		.4byte	0x101
 9436 39fc 900E0000 		.4byte	.LLST160
 9437 3a00 42       		.uleb128 0x42
 9438 3a01 84150000 		.4byte	.LASF224
 9439 3a05 01       		.byte	0x1
 9440 3a06 5201     		.2byte	0x152
 9441 3a08 01010000 		.4byte	0x101
 9442 3a0c 25       		.uleb128 0x25
 9443 3a0d 7700     		.ascii	"w\000"
 9444 3a0f 01       		.byte	0x1
 9445 3a10 5B01     		.2byte	0x15b
 9446 3a12 01010000 		.4byte	0x101
 9447 3a16 25       		.uleb128 0x25
 9448 3a17 6800     		.ascii	"h\000"
 9449 3a19 01       		.byte	0x1
 9450 3a1a 5C01     		.2byte	0x15c
 9451 3a1c 01010000 		.4byte	0x101
 9452 3a20 40       		.uleb128 0x40
 9453 3a21 776800   		.ascii	"wh\000"
 9454 3a24 01       		.byte	0x1
 9455 3a25 5D01     		.2byte	0x15d
 9456 3a27 01010000 		.4byte	0x101
 9457 3a2b B90E0000 		.4byte	.LLST161
 9458 3a2f 3D       		.uleb128 0x3d
 9459 3a30 971B0000 		.4byte	0x1b97
 9460 3a34 06000000 		.4byte	.LBB401
ARM GAS  C:\Users\haske\AppData\Local\Temp\cc4f9rxb.s 			page 188


 9461 3a38 08000000 		.4byte	.LBE401-.LBB401
 9462 3a3c 01       		.byte	0x1
 9463 3a3d 4501     		.2byte	0x145
 9464 3a3f 813A0000 		.4byte	0x3a81
 9465 3a43 2F       		.uleb128 0x2f
 9466 3a44 B41B0000 		.4byte	0x1bb4
 9467 3a48 D70E0000 		.4byte	.LLST162
 9468 3a4c 2F       		.uleb128 0x2f
 9469 3a4d A81B0000 		.4byte	0x1ba8
 9470 3a51 F50E0000 		.4byte	.LLST163
 9471 3a55 30       		.uleb128 0x30
 9472 3a56 06000000 		.4byte	.LBB402
 9473 3a5a 08000000 		.4byte	.LBE402-.LBB402
 9474 3a5e 31       		.uleb128 0x31
 9475 3a5f C01B0000 		.4byte	0x1bc0
 9476 3a63 32       		.uleb128 0x32
 9477 3a64 0C000000 		.4byte	.LVL220
 9478 3a68 7F3F0000 		.4byte	0x3f7f
 9479 3a6c 33       		.uleb128 0x33
 9480 3a6d 01       		.uleb128 0x1
 9481 3a6e 50       		.byte	0x50
 9482 3a6f 02       		.uleb128 0x2
 9483 3a70 74       		.byte	0x74
 9484 3a71 00       		.sleb128 0
 9485 3a72 33       		.uleb128 0x33
 9486 3a73 01       		.uleb128 0x1
 9487 3a74 51       		.byte	0x51
 9488 3a75 02       		.uleb128 0x2
 9489 3a76 75       		.byte	0x75
 9490 3a77 00       		.sleb128 0
 9491 3a78 33       		.uleb128 0x33
 9492 3a79 01       		.uleb128 0x1
 9493 3a7a 52       		.byte	0x52
 9494 3a7b 02       		.uleb128 0x2
 9495 3a7c 08       		.byte	0x8
 9496 3a7d 40       		.byte	0x40
 9497 3a7e 00       		.byte	0
 9498 3a7f 00       		.byte	0
 9499 3a80 00       		.byte	0
 9500 3a81 34       		.uleb128 0x34
 9501 3a82 12000000 		.4byte	.LBB403
 9502 3a86 62000000 		.4byte	.LBE403-.LBB403
 9503 3a8a 053C0000 		.4byte	0x3c05
 9504 3a8e 42       		.uleb128 0x42
 9505 3a8f 7A020000 		.4byte	.LASF499
 9506 3a93 01       		.byte	0x1
 9507 3a94 4701     		.2byte	0x147
 9508 3a96 DA030000 		.4byte	0x3da
 9509 3a9a 3D       		.uleb128 0x3d
 9510 3a9b CB1B0000 		.4byte	0x1bcb
 9511 3a9f 12000000 		.4byte	.LBB404
 9512 3aa3 0C000000 		.4byte	.LBE404-.LBB404
 9513 3aa7 01       		.byte	0x1
 9514 3aa8 4701     		.2byte	0x147
 9515 3aaa EC3A0000 		.4byte	0x3aec
 9516 3aae 2F       		.uleb128 0x2f
 9517 3aaf E81B0000 		.4byte	0x1be8
ARM GAS  C:\Users\haske\AppData\Local\Temp\cc4f9rxb.s 			page 189


 9518 3ab3 130F0000 		.4byte	.LLST164
 9519 3ab7 2F       		.uleb128 0x2f
 9520 3ab8 DC1B0000 		.4byte	0x1bdc
 9521 3abc 260F0000 		.4byte	.LLST165
 9522 3ac0 30       		.uleb128 0x30
 9523 3ac1 12000000 		.4byte	.LBB405
 9524 3ac5 0C000000 		.4byte	.LBE405-.LBB405
 9525 3ac9 31       		.uleb128 0x31
 9526 3aca F41B0000 		.4byte	0x1bf4
 9527 3ace 32       		.uleb128 0x32
 9528 3acf 1C000000 		.4byte	.LVL223
 9529 3ad3 7F3F0000 		.4byte	0x3f7f
 9530 3ad7 33       		.uleb128 0x33
 9531 3ad8 01       		.uleb128 0x1
 9532 3ad9 50       		.byte	0x50
 9533 3ada 02       		.uleb128 0x2
 9534 3adb 74       		.byte	0x74
 9535 3adc 00       		.sleb128 0
 9536 3add 33       		.uleb128 0x33
 9537 3ade 01       		.uleb128 0x1
 9538 3adf 51       		.byte	0x51
 9539 3ae0 02       		.uleb128 0x2
 9540 3ae1 75       		.byte	0x75
 9541 3ae2 00       		.sleb128 0
 9542 3ae3 33       		.uleb128 0x33
 9543 3ae4 01       		.uleb128 0x1
 9544 3ae5 52       		.byte	0x52
 9545 3ae6 02       		.uleb128 0x2
 9546 3ae7 08       		.byte	0x8
 9547 3ae8 45       		.byte	0x45
 9548 3ae9 00       		.byte	0
 9549 3aea 00       		.byte	0
 9550 3aeb 00       		.byte	0
 9551 3aec 30       		.uleb128 0x30
 9552 3aed 22000000 		.4byte	.LBB406
 9553 3af1 52000000 		.4byte	.LBE406-.LBB406
 9554 3af5 42       		.uleb128 0x42
 9555 3af6 FB0C0000 		.4byte	.LASF500
 9556 3afa 01       		.byte	0x1
 9557 3afb 4B01     		.2byte	0x14b
 9558 3afd 01010000 		.4byte	0x101
 9559 3b01 42       		.uleb128 0x42
 9560 3b02 89170000 		.4byte	.LASF501
 9561 3b06 01       		.byte	0x1
 9562 3b07 4C01     		.2byte	0x14c
 9563 3b09 01010000 		.4byte	0x101
 9564 3b0d 3D       		.uleb128 0x3d
 9565 3b0e FF1B0000 		.4byte	0x1bff
 9566 3b12 2C000000 		.4byte	.LBB407
 9567 3b16 0A000000 		.4byte	.LBE407-.LBB407
 9568 3b1a 01       		.byte	0x1
 9569 3b1b 4A01     		.2byte	0x14a
 9570 3b1d 633B0000 		.4byte	0x3b63
 9571 3b21 2F       		.uleb128 0x2f
 9572 3b22 1C1C0000 		.4byte	0x1c1c
 9573 3b26 390F0000 		.4byte	.LLST166
 9574 3b2a 2F       		.uleb128 0x2f
ARM GAS  C:\Users\haske\AppData\Local\Temp\cc4f9rxb.s 			page 190


 9575 3b2b 101C0000 		.4byte	0x1c10
 9576 3b2f 4C0F0000 		.4byte	.LLST167
 9577 3b33 30       		.uleb128 0x30
 9578 3b34 2C000000 		.4byte	.LBB408
 9579 3b38 0A000000 		.4byte	.LBE408-.LBB408
 9580 3b3c 37       		.uleb128 0x37
 9581 3b3d 281C0000 		.4byte	0x1c28
 9582 3b41 5F0F0000 		.4byte	.LLST168
 9583 3b45 32       		.uleb128 0x32
 9584 3b46 36000000 		.4byte	.LVL226
 9585 3b4a 7F3F0000 		.4byte	0x3f7f
 9586 3b4e 33       		.uleb128 0x33
 9587 3b4f 01       		.uleb128 0x1
 9588 3b50 50       		.byte	0x50
 9589 3b51 02       		.uleb128 0x2
 9590 3b52 74       		.byte	0x74
 9591 3b53 00       		.sleb128 0
 9592 3b54 33       		.uleb128 0x33
 9593 3b55 01       		.uleb128 0x1
 9594 3b56 51       		.byte	0x51
 9595 3b57 02       		.uleb128 0x2
 9596 3b58 75       		.byte	0x75
 9597 3b59 00       		.sleb128 0
 9598 3b5a 33       		.uleb128 0x33
 9599 3b5b 01       		.uleb128 0x1
 9600 3b5c 52       		.byte	0x52
 9601 3b5d 02       		.uleb128 0x2
 9602 3b5e 08       		.byte	0x8
 9603 3b5f 43       		.byte	0x43
 9604 3b60 00       		.byte	0
 9605 3b61 00       		.byte	0
 9606 3b62 00       		.byte	0
 9607 3b63 3D       		.uleb128 0x3d
 9608 3b64 671C0000 		.4byte	0x1c67
 9609 3b68 3A000000 		.4byte	.LBB409
 9610 3b6c 0C000000 		.4byte	.LBE409-.LBB409
 9611 3b70 01       		.byte	0x1
 9612 3b71 4B01     		.2byte	0x14b
 9613 3b73 B53B0000 		.4byte	0x3bb5
 9614 3b77 2F       		.uleb128 0x2f
 9615 3b78 841C0000 		.4byte	0x1c84
 9616 3b7c 720F0000 		.4byte	.LLST169
 9617 3b80 2F       		.uleb128 0x2f
 9618 3b81 781C0000 		.4byte	0x1c78
 9619 3b85 850F0000 		.4byte	.LLST170
 9620 3b89 30       		.uleb128 0x30
 9621 3b8a 3A000000 		.4byte	.LBB410
 9622 3b8e 0C000000 		.4byte	.LBE410-.LBB410
 9623 3b92 31       		.uleb128 0x31
 9624 3b93 901C0000 		.4byte	0x1c90
 9625 3b97 32       		.uleb128 0x32
 9626 3b98 44000000 		.4byte	.LVL230
 9627 3b9c 7F3F0000 		.4byte	0x3f7f
 9628 3ba0 33       		.uleb128 0x33
 9629 3ba1 01       		.uleb128 0x1
 9630 3ba2 50       		.byte	0x50
 9631 3ba3 02       		.uleb128 0x2
ARM GAS  C:\Users\haske\AppData\Local\Temp\cc4f9rxb.s 			page 191


 9632 3ba4 74       		.byte	0x74
 9633 3ba5 00       		.sleb128 0
 9634 3ba6 33       		.uleb128 0x33
 9635 3ba7 01       		.uleb128 0x1
 9636 3ba8 51       		.byte	0x51
 9637 3ba9 02       		.uleb128 0x2
 9638 3baa 75       		.byte	0x75
 9639 3bab 00       		.sleb128 0
 9640 3bac 33       		.uleb128 0x33
 9641 3bad 01       		.uleb128 0x1
 9642 3bae 52       		.byte	0x52
 9643 3baf 02       		.uleb128 0x2
 9644 3bb0 08       		.byte	0x8
 9645 3bb1 41       		.byte	0x41
 9646 3bb2 00       		.byte	0
 9647 3bb3 00       		.byte	0
 9648 3bb4 00       		.byte	0
 9649 3bb5 3E       		.uleb128 0x3e
 9650 3bb6 331C0000 		.4byte	0x1c33
 9651 3bba 46000000 		.4byte	.LBB411
 9652 3bbe 0C000000 		.4byte	.LBE411-.LBB411
 9653 3bc2 01       		.byte	0x1
 9654 3bc3 4C01     		.2byte	0x14c
 9655 3bc5 2F       		.uleb128 0x2f
 9656 3bc6 501C0000 		.4byte	0x1c50
 9657 3bca 980F0000 		.4byte	.LLST171
 9658 3bce 2F       		.uleb128 0x2f
 9659 3bcf 441C0000 		.4byte	0x1c44
 9660 3bd3 AB0F0000 		.4byte	.LLST172
 9661 3bd7 30       		.uleb128 0x30
 9662 3bd8 46000000 		.4byte	.LBB412
 9663 3bdc 0C000000 		.4byte	.LBE412-.LBB412
 9664 3be0 31       		.uleb128 0x31
 9665 3be1 5C1C0000 		.4byte	0x1c5c
 9666 3be5 32       		.uleb128 0x32
 9667 3be6 50000000 		.4byte	.LVL232
 9668 3bea 7F3F0000 		.4byte	0x3f7f
 9669 3bee 33       		.uleb128 0x33
 9670 3bef 01       		.uleb128 0x1
 9671 3bf0 50       		.byte	0x50
 9672 3bf1 02       		.uleb128 0x2
 9673 3bf2 74       		.byte	0x74
 9674 3bf3 00       		.sleb128 0
 9675 3bf4 33       		.uleb128 0x33
 9676 3bf5 01       		.uleb128 0x1
 9677 3bf6 51       		.byte	0x51
 9678 3bf7 02       		.uleb128 0x2
 9679 3bf8 75       		.byte	0x75
 9680 3bf9 00       		.sleb128 0
 9681 3bfa 33       		.uleb128 0x33
 9682 3bfb 01       		.uleb128 0x1
 9683 3bfc 52       		.byte	0x52
 9684 3bfd 02       		.uleb128 0x2
 9685 3bfe 08       		.byte	0x8
 9686 3bff 42       		.byte	0x42
 9687 3c00 00       		.byte	0
 9688 3c01 00       		.byte	0
ARM GAS  C:\Users\haske\AppData\Local\Temp\cc4f9rxb.s 			page 192


 9689 3c02 00       		.byte	0
 9690 3c03 00       		.byte	0
 9691 3c04 00       		.byte	0
 9692 3c05 3D       		.uleb128 0x3d
 9693 3c06 071A0000 		.4byte	0x1a07
 9694 3c0a 7A000000 		.4byte	.LBB413
 9695 3c0e 0C000000 		.4byte	.LBE413-.LBB413
 9696 3c12 01       		.byte	0x1
 9697 3c13 5201     		.2byte	0x152
 9698 3c15 573C0000 		.4byte	0x3c57
 9699 3c19 2F       		.uleb128 0x2f
 9700 3c1a 241A0000 		.4byte	0x1a24
 9701 3c1e BE0F0000 		.4byte	.LLST173
 9702 3c22 2F       		.uleb128 0x2f
 9703 3c23 181A0000 		.4byte	0x1a18
 9704 3c27 D10F0000 		.4byte	.LLST174
 9705 3c2b 30       		.uleb128 0x30
 9706 3c2c 7A000000 		.4byte	.LBB414
 9707 3c30 0C000000 		.4byte	.LBE414-.LBB414
 9708 3c34 31       		.uleb128 0x31
 9709 3c35 301A0000 		.4byte	0x1a30
 9710 3c39 32       		.uleb128 0x32
 9711 3c3a 84000000 		.4byte	.LVL238
 9712 3c3e 7F3F0000 		.4byte	0x3f7f
 9713 3c42 33       		.uleb128 0x33
 9714 3c43 01       		.uleb128 0x1
 9715 3c44 50       		.byte	0x50
 9716 3c45 02       		.uleb128 0x2
 9717 3c46 74       		.byte	0x74
 9718 3c47 00       		.sleb128 0
 9719 3c48 33       		.uleb128 0x33
 9720 3c49 01       		.uleb128 0x1
 9721 3c4a 51       		.byte	0x51
 9722 3c4b 02       		.uleb128 0x2
 9723 3c4c 75       		.byte	0x75
 9724 3c4d 00       		.sleb128 0
 9725 3c4e 33       		.uleb128 0x33
 9726 3c4f 01       		.uleb128 0x1
 9727 3c50 52       		.byte	0x52
 9728 3c51 02       		.uleb128 0x2
 9729 3c52 08       		.byte	0x8
 9730 3c53 35       		.byte	0x35
 9731 3c54 00       		.byte	0
 9732 3c55 00       		.byte	0
 9733 3c56 00       		.byte	0
 9734 3c57 34       		.uleb128 0x34
 9735 3c58 8A000000 		.4byte	.LBB415
 9736 3c5c 28000000 		.4byte	.LBE415-.LBB415
 9737 3c60 273D0000 		.4byte	0x3d27
 9738 3c64 42       		.uleb128 0x42
 9739 3c65 C2140000 		.4byte	.LASF226
 9740 3c69 01       		.byte	0x1
 9741 3c6a 5401     		.2byte	0x154
 9742 3c6c DA030000 		.4byte	0x3da
 9743 3c70 3D       		.uleb128 0x3d
 9744 3c71 3B1A0000 		.4byte	0x1a3b
 9745 3c75 8A000000 		.4byte	.LBB416
ARM GAS  C:\Users\haske\AppData\Local\Temp\cc4f9rxb.s 			page 193


 9746 3c79 0C000000 		.4byte	.LBE416-.LBB416
 9747 3c7d 01       		.byte	0x1
 9748 3c7e 5401     		.2byte	0x154
 9749 3c80 C23C0000 		.4byte	0x3cc2
 9750 3c84 2F       		.uleb128 0x2f
 9751 3c85 581A0000 		.4byte	0x1a58
 9752 3c89 E40F0000 		.4byte	.LLST175
 9753 3c8d 2F       		.uleb128 0x2f
 9754 3c8e 4C1A0000 		.4byte	0x1a4c
 9755 3c92 F70F0000 		.4byte	.LLST176
 9756 3c96 30       		.uleb128 0x30
 9757 3c97 8A000000 		.4byte	.LBB417
 9758 3c9b 0C000000 		.4byte	.LBE417-.LBB417
 9759 3c9f 31       		.uleb128 0x31
 9760 3ca0 641A0000 		.4byte	0x1a64
 9761 3ca4 32       		.uleb128 0x32
 9762 3ca5 94000000 		.4byte	.LVL241
 9763 3ca9 7F3F0000 		.4byte	0x3f7f
 9764 3cad 33       		.uleb128 0x33
 9765 3cae 01       		.uleb128 0x1
 9766 3caf 50       		.byte	0x50
 9767 3cb0 02       		.uleb128 0x2
 9768 3cb1 74       		.byte	0x74
 9769 3cb2 00       		.sleb128 0
 9770 3cb3 33       		.uleb128 0x33
 9771 3cb4 01       		.uleb128 0x1
 9772 3cb5 51       		.byte	0x51
 9773 3cb6 02       		.uleb128 0x2
 9774 3cb7 75       		.byte	0x75
 9775 3cb8 00       		.sleb128 0
 9776 3cb9 33       		.uleb128 0x33
 9777 3cba 01       		.uleb128 0x1
 9778 3cbb 52       		.byte	0x52
 9779 3cbc 02       		.uleb128 0x2
 9780 3cbd 08       		.byte	0x8
 9781 3cbe 37       		.byte	0x37
 9782 3cbf 00       		.byte	0
 9783 3cc0 00       		.byte	0
 9784 3cc1 00       		.byte	0
 9785 3cc2 30       		.uleb128 0x30
 9786 3cc3 9A000000 		.4byte	.LBB418
 9787 3cc7 18000000 		.4byte	.LBE418-.LBB418
 9788 3ccb 42       		.uleb128 0x42
 9789 3ccc 2E0A0000 		.4byte	.LASF225
 9790 3cd0 01       		.byte	0x1
 9791 3cd1 5601     		.2byte	0x156
 9792 3cd3 01010000 		.4byte	0x101
 9793 3cd7 3E       		.uleb128 0x3e
 9794 3cd8 6F1A0000 		.4byte	0x1a6f
 9795 3cdc 9A000000 		.4byte	.LBB419
 9796 3ce0 0C000000 		.4byte	.LBE419-.LBB419
 9797 3ce4 01       		.byte	0x1
 9798 3ce5 5601     		.2byte	0x156
 9799 3ce7 2F       		.uleb128 0x2f
 9800 3ce8 8C1A0000 		.4byte	0x1a8c
 9801 3cec 0A100000 		.4byte	.LLST177
 9802 3cf0 2F       		.uleb128 0x2f
ARM GAS  C:\Users\haske\AppData\Local\Temp\cc4f9rxb.s 			page 194


 9803 3cf1 801A0000 		.4byte	0x1a80
 9804 3cf5 1D100000 		.4byte	.LLST178
 9805 3cf9 30       		.uleb128 0x30
 9806 3cfa 9A000000 		.4byte	.LBB420
 9807 3cfe 0C000000 		.4byte	.LBE420-.LBB420
 9808 3d02 31       		.uleb128 0x31
 9809 3d03 981A0000 		.4byte	0x1a98
 9810 3d07 32       		.uleb128 0x32
 9811 3d08 A4000000 		.4byte	.LVL244
 9812 3d0c 7F3F0000 		.4byte	0x3f7f
 9813 3d10 33       		.uleb128 0x33
 9814 3d11 01       		.uleb128 0x1
 9815 3d12 50       		.byte	0x50
 9816 3d13 02       		.uleb128 0x2
 9817 3d14 74       		.byte	0x74
 9818 3d15 00       		.sleb128 0
 9819 3d16 33       		.uleb128 0x33
 9820 3d17 01       		.uleb128 0x1
 9821 3d18 51       		.byte	0x51
 9822 3d19 02       		.uleb128 0x2
 9823 3d1a 75       		.byte	0x75
 9824 3d1b 00       		.sleb128 0
 9825 3d1c 33       		.uleb128 0x33
 9826 3d1d 01       		.uleb128 0x1
 9827 3d1e 52       		.byte	0x52
 9828 3d1f 02       		.uleb128 0x2
 9829 3d20 08       		.byte	0x8
 9830 3d21 38       		.byte	0x38
 9831 3d22 00       		.byte	0
 9832 3d23 00       		.byte	0
 9833 3d24 00       		.byte	0
 9834 3d25 00       		.byte	0
 9835 3d26 00       		.byte	0
 9836 3d27 3D       		.uleb128 0x3d
 9837 3d28 43200000 		.4byte	0x2043
 9838 3d2c B2000000 		.4byte	.LBB421
 9839 3d30 0C000000 		.4byte	.LBE421-.LBB421
 9840 3d34 01       		.byte	0x1
 9841 3d35 5B01     		.2byte	0x15b
 9842 3d37 793D0000 		.4byte	0x3d79
 9843 3d3b 2F       		.uleb128 0x2f
 9844 3d3c 5E200000 		.4byte	0x205e
 9845 3d40 30100000 		.4byte	.LLST179
 9846 3d44 2F       		.uleb128 0x2f
 9847 3d45 53200000 		.4byte	0x2053
 9848 3d49 43100000 		.4byte	.LLST180
 9849 3d4d 30       		.uleb128 0x30
 9850 3d4e B2000000 		.4byte	.LBB422
 9851 3d52 0C000000 		.4byte	.LBE422-.LBB422
 9852 3d56 31       		.uleb128 0x31
 9853 3d57 69200000 		.4byte	0x2069
 9854 3d5b 32       		.uleb128 0x32
 9855 3d5c BC000000 		.4byte	.LVL247
 9856 3d60 7F3F0000 		.4byte	0x3f7f
 9857 3d64 33       		.uleb128 0x33
 9858 3d65 01       		.uleb128 0x1
 9859 3d66 50       		.byte	0x50
ARM GAS  C:\Users\haske\AppData\Local\Temp\cc4f9rxb.s 			page 195


 9860 3d67 02       		.uleb128 0x2
 9861 3d68 74       		.byte	0x74
 9862 3d69 00       		.sleb128 0
 9863 3d6a 33       		.uleb128 0x33
 9864 3d6b 01       		.uleb128 0x1
 9865 3d6c 51       		.byte	0x51
 9866 3d6d 02       		.uleb128 0x2
 9867 3d6e 75       		.byte	0x75
 9868 3d6f 00       		.sleb128 0
 9869 3d70 33       		.uleb128 0x33
 9870 3d71 01       		.uleb128 0x1
 9871 3d72 52       		.byte	0x52
 9872 3d73 02       		.uleb128 0x2
 9873 3d74 08       		.byte	0x8
 9874 3d75 68       		.byte	0x68
 9875 3d76 00       		.byte	0
 9876 3d77 00       		.byte	0
 9877 3d78 00       		.byte	0
 9878 3d79 3E       		.uleb128 0x3e
 9879 3d7a 13200000 		.4byte	0x2013
 9880 3d7e BE000000 		.4byte	.LBB423
 9881 3d82 0C000000 		.4byte	.LBE423-.LBB423
 9882 3d86 01       		.byte	0x1
 9883 3d87 5C01     		.2byte	0x15c
 9884 3d89 2F       		.uleb128 0x2f
 9885 3d8a 2E200000 		.4byte	0x202e
 9886 3d8e 56100000 		.4byte	.LLST181
 9887 3d92 2F       		.uleb128 0x2f
 9888 3d93 23200000 		.4byte	0x2023
 9889 3d97 69100000 		.4byte	.LLST182
 9890 3d9b 30       		.uleb128 0x30
 9891 3d9c BE000000 		.4byte	.LBB424
 9892 3da0 0C000000 		.4byte	.LBE424-.LBB424
 9893 3da4 31       		.uleb128 0x31
 9894 3da5 39200000 		.4byte	0x2039
 9895 3da9 32       		.uleb128 0x32
 9896 3daa C8000000 		.4byte	.LVL249
 9897 3dae 7F3F0000 		.4byte	0x3f7f
 9898 3db2 33       		.uleb128 0x33
 9899 3db3 01       		.uleb128 0x1
 9900 3db4 50       		.byte	0x50
 9901 3db5 02       		.uleb128 0x2
 9902 3db6 74       		.byte	0x74
 9903 3db7 00       		.sleb128 0
 9904 3db8 33       		.uleb128 0x33
 9905 3db9 01       		.uleb128 0x1
 9906 3dba 51       		.byte	0x51
 9907 3dbb 02       		.uleb128 0x2
 9908 3dbc 75       		.byte	0x75
 9909 3dbd 00       		.sleb128 0
 9910 3dbe 33       		.uleb128 0x33
 9911 3dbf 01       		.uleb128 0x1
 9912 3dc0 52       		.byte	0x52
 9913 3dc1 02       		.uleb128 0x2
 9914 3dc2 08       		.byte	0x8
 9915 3dc3 69       		.byte	0x69
 9916 3dc4 00       		.byte	0
ARM GAS  C:\Users\haske\AppData\Local\Temp\cc4f9rxb.s 			page 196


 9917 3dc5 00       		.byte	0
 9918 3dc6 00       		.byte	0
 9919 3dc7 00       		.byte	0
 9920 3dc8 3A       		.uleb128 0x3a
 9921 3dc9 DA130000 		.4byte	.LASF502
 9922 3dcd 01       		.byte	0x1
 9923 3dce 6301     		.2byte	0x163
 9924 3dd0 00000000 		.4byte	.LFB171
 9925 3dd4 10000000 		.4byte	.LFE171-.LFB171
 9926 3dd8 01       		.uleb128 0x1
 9927 3dd9 9C       		.byte	0x9c
 9928 3dda 153E0000 		.4byte	0x3e15
 9929 3dde 3B       		.uleb128 0x3b
 9930 3ddf 64736300 		.ascii	"dsc\000"
 9931 3de3 01       		.byte	0x1
 9932 3de4 6301     		.2byte	0x163
 9933 3de6 153E0000 		.4byte	0x3e15
 9934 3dea 7C100000 		.4byte	.LLST183
 9935 3dee 3C       		.uleb128 0x3c
 9936 3def 3F1E0000 		.4byte	.LASF303
 9937 3df3 01       		.byte	0x1
 9938 3df4 6301     		.2byte	0x163
 9939 3df6 E8110000 		.4byte	0x11e8
 9940 3dfa A8100000 		.4byte	.LLST184
 9941 3dfe 32       		.uleb128 0x32
 9942 3dff 0C000000 		.4byte	.LVL259
 9943 3e03 AB3F0000 		.4byte	0x3fab
 9944 3e07 33       		.uleb128 0x33
 9945 3e08 01       		.uleb128 0x1
 9946 3e09 50       		.byte	0x50
 9947 3e0a 02       		.uleb128 0x2
 9948 3e0b 74       		.byte	0x74
 9949 3e0c 00       		.sleb128 0
 9950 3e0d 33       		.uleb128 0x33
 9951 3e0e 01       		.uleb128 0x1
 9952 3e0f 51       		.byte	0x51
 9953 3e10 02       		.uleb128 0x2
 9954 3e11 08       		.byte	0x8
 9955 3e12 48       		.byte	0x48
 9956 3e13 00       		.byte	0
 9957 3e14 00       		.byte	0
 9958 3e15 0B       		.uleb128 0xb
 9959 3e16 04       		.byte	0x4
 9960 3e17 A5120000 		.4byte	0x12a5
 9961 3e1b 3F       		.uleb128 0x3f
 9962 3e1c 44070000 		.4byte	.LASF504
 9963 3e20 01       		.byte	0x1
 9964 3e21 6901     		.2byte	0x169
 9965 3e23 AA020000 		.4byte	0x2aa
 9966 3e27 00000000 		.4byte	.LFB172
 9967 3e2b 18000000 		.4byte	.LFE172-.LFB172
 9968 3e2f 01       		.uleb128 0x1
 9969 3e30 9C       		.byte	0x9c
 9970 3e31 623E0000 		.4byte	0x3e62
 9971 3e35 3B       		.uleb128 0x3b
 9972 3e36 64736300 		.ascii	"dsc\000"
 9973 3e3a 01       		.byte	0x1
ARM GAS  C:\Users\haske\AppData\Local\Temp\cc4f9rxb.s 			page 197


 9974 3e3b 6901     		.2byte	0x169
 9975 3e3d 153E0000 		.4byte	0x3e15
 9976 3e41 D3100000 		.4byte	.LLST185
 9977 3e45 43       		.uleb128 0x43
 9978 3e46 4E130000 		.4byte	.LASF194
 9979 3e4a 01       		.byte	0x1
 9980 3e4b 6901     		.2byte	0x169
 9981 3e4d 79170000 		.4byte	0x1779
 9982 3e51 01       		.uleb128 0x1
 9983 3e52 51       		.byte	0x51
 9984 3e53 43       		.uleb128 0x43
 9985 3e54 64020000 		.4byte	.LASF304
 9986 3e58 01       		.byte	0x1
 9987 3e59 6901     		.2byte	0x169
 9988 3e5b E4000000 		.4byte	0xe4
 9989 3e5f 01       		.uleb128 0x1
 9990 3e60 52       		.byte	0x52
 9991 3e61 00       		.byte	0
 9992 3e62 3F       		.uleb128 0x3f
 9993 3e63 8D1B0000 		.4byte	.LASF505
 9994 3e67 01       		.byte	0x1
 9995 3e68 8701     		.2byte	0x187
 9996 3e6a 01010000 		.4byte	0x101
 9997 3e6e 00000000 		.4byte	.LFB174
 9998 3e72 10000000 		.4byte	.LFE174-.LFB174
 9999 3e76 01       		.uleb128 0x1
 10000 3e77 9C       		.byte	0x9c
 10001 3e78 8D3E0000 		.4byte	0x3e8d
 10002 3e7c 3B       		.uleb128 0x3b
 10003 3e7d 6F626A00 		.ascii	"obj\000"
 10004 3e81 01       		.byte	0x1
 10005 3e82 8701     		.2byte	0x187
 10006 3e84 8D3E0000 		.4byte	0x3e8d
 10007 3e88 26110000 		.4byte	.LLST186
 10008 3e8c 00       		.byte	0
 10009 3e8d 0B       		.uleb128 0xb
 10010 3e8e 04       		.byte	0x4
 10011 3e8f 933E0000 		.4byte	0x3e93
 10012 3e93 0C       		.uleb128 0xc
 10013 3e94 90170000 		.4byte	0x1790
 10014 3e98 3A       		.uleb128 0x3a
 10015 3e99 1B1C0000 		.4byte	.LASF506
 10016 3e9d 01       		.byte	0x1
 10017 3e9e 6F01     		.2byte	0x16f
 10018 3ea0 00000000 		.4byte	.LFB173
 10019 3ea4 6E000000 		.4byte	.LFE173-.LFB173
 10020 3ea8 01       		.uleb128 0x1
 10021 3ea9 9C       		.byte	0x9c
 10022 3eaa 493F0000 		.4byte	0x3f49
 10023 3eae 3B       		.uleb128 0x3b
 10024 3eaf 6F626A00 		.ascii	"obj\000"
 10025 3eb3 01       		.byte	0x1
 10026 3eb4 6F01     		.2byte	0x16f
 10027 3eb6 9B170000 		.4byte	0x179b
 10028 3eba 60110000 		.4byte	.LLST187
 10029 3ebe 41       		.uleb128 0x41
 10030 3ebf 70000000 		.4byte	.LASF507
ARM GAS  C:\Users\haske\AppData\Local\Temp\cc4f9rxb.s 			page 198


 10031 3ec3 01       		.byte	0x1
 10032 3ec4 7301     		.2byte	0x173
 10033 3ec6 01010000 		.4byte	0x101
 10034 3eca 8C110000 		.4byte	.LLST188
 10035 3ece 44       		.uleb128 0x44
 10036 3ecf 25150000 		.4byte	.LASF508
 10037 3ed3 01       		.byte	0x1
 10038 3ed4 7401     		.2byte	0x174
 10039 3ed6 01010000 		.4byte	0x101
 10040 3eda 02       		.uleb128 0x2
 10041 3edb 91       		.byte	0x91
 10042 3edc 6E       		.sleb128 -18
 10043 3edd 36       		.uleb128 0x36
 10044 3ede 0A000000 		.4byte	.LVL273
 10045 3ee2 623E0000 		.4byte	0x3e62
 10046 3ee6 F13E0000 		.4byte	0x3ef1
 10047 3eea 33       		.uleb128 0x33
 10048 3eeb 01       		.uleb128 0x1
 10049 3eec 50       		.byte	0x50
 10050 3eed 02       		.uleb128 0x2
 10051 3eee 74       		.byte	0x74
 10052 3eef 00       		.sleb128 0
 10053 3ef0 00       		.byte	0
 10054 3ef1 36       		.uleb128 0x36
 10055 3ef2 1E000000 		.4byte	.LVL276
 10056 3ef6 B63F0000 		.4byte	0x3fb6
 10057 3efa 103F0000 		.4byte	0x3f10
 10058 3efe 33       		.uleb128 0x33
 10059 3eff 01       		.uleb128 0x1
 10060 3f00 50       		.byte	0x50
 10061 3f01 02       		.uleb128 0x2
 10062 3f02 74       		.byte	0x74
 10063 3f03 00       		.sleb128 0
 10064 3f04 33       		.uleb128 0x33
 10065 3f05 01       		.uleb128 0x1
 10066 3f06 51       		.byte	0x51
 10067 3f07 01       		.uleb128 0x1
 10068 3f08 43       		.byte	0x43
 10069 3f09 33       		.uleb128 0x33
 10070 3f0a 01       		.uleb128 0x1
 10071 3f0b 52       		.byte	0x52
 10072 3f0c 02       		.uleb128 0x2
 10073 3f0d 76       		.byte	0x76
 10074 3f0e 00       		.sleb128 0
 10075 3f0f 00       		.byte	0
 10076 3f10 36       		.uleb128 0x36
 10077 3f11 2C000000 		.4byte	.LVL277
 10078 3f15 C13F0000 		.4byte	0x3fc1
 10079 3f19 243F0000 		.4byte	0x3f24
 10080 3f1d 33       		.uleb128 0x33
 10081 3f1e 01       		.uleb128 0x1
 10082 3f1f 50       		.byte	0x50
 10083 3f20 02       		.uleb128 0x2
 10084 3f21 74       		.byte	0x74
 10085 3f22 00       		.sleb128 0
 10086 3f23 00       		.byte	0
 10087 3f24 36       		.uleb128 0x36
ARM GAS  C:\Users\haske\AppData\Local\Temp\cc4f9rxb.s 			page 199


 10088 3f25 4E000000 		.4byte	.LVL278
 10089 3f29 CD3F0000 		.4byte	0x3fcd
 10090 3f2d 383F0000 		.4byte	0x3f38
 10091 3f31 33       		.uleb128 0x33
 10092 3f32 01       		.uleb128 0x1
 10093 3f33 50       		.byte	0x50
 10094 3f34 02       		.uleb128 0x2
 10095 3f35 74       		.byte	0x74
 10096 3f36 00       		.sleb128 0
 10097 3f37 00       		.byte	0
 10098 3f38 32       		.uleb128 0x32
 10099 3f39 6A000000 		.4byte	.LVL279
 10100 3f3d C13F0000 		.4byte	0x3fc1
 10101 3f41 33       		.uleb128 0x33
 10102 3f42 01       		.uleb128 0x1
 10103 3f43 50       		.byte	0x50
 10104 3f44 02       		.uleb128 0x2
 10105 3f45 74       		.byte	0x74
 10106 3f46 00       		.sleb128 0
 10107 3f47 00       		.byte	0
 10108 3f48 00       		.byte	0
 10109 3f49 3F       		.uleb128 0x3f
 10110 3f4a 121A0000 		.4byte	.LASF509
 10111 3f4e 01       		.byte	0x1
 10112 3f4f 8D01     		.2byte	0x18d
 10113 3f51 FF100000 		.4byte	0x10ff
 10114 3f55 00000000 		.4byte	.LFB175
 10115 3f59 10000000 		.4byte	.LFE175-.LFB175
 10116 3f5d 01       		.uleb128 0x1
 10117 3f5e 9C       		.byte	0x9c
 10118 3f5f 743F0000 		.4byte	0x3f74
 10119 3f63 3B       		.uleb128 0x3b
 10120 3f64 6F626A00 		.ascii	"obj\000"
 10121 3f68 01       		.byte	0x1
 10122 3f69 8D01     		.2byte	0x18d
 10123 3f6b 8D3E0000 		.4byte	0x3e8d
 10124 3f6f AA110000 		.4byte	.LLST189
 10125 3f73 00       		.byte	0
 10126 3f74 45       		.uleb128 0x45
 10127 3f75 FD0B0000 		.4byte	.LASF522
 10128 3f79 07       		.byte	0x7
 10129 3f7a 94       		.byte	0x94
 10130 3f7b 2B0B0000 		.4byte	0xb2b
 10131 3f7f 46       		.uleb128 0x46
 10132 3f80 81180000 		.4byte	.LASF510
 10133 3f84 81180000 		.4byte	.LASF510
 10134 3f88 1C       		.byte	0x1c
 10135 3f89 83       		.byte	0x83
 10136 3f8a 46       		.uleb128 0x46
 10137 3f8b F6090000 		.4byte	.LASF511
 10138 3f8f F6090000 		.4byte	.LASF511
 10139 3f93 1C       		.byte	0x1c
 10140 3f94 A1       		.byte	0xa1
 10141 3f95 46       		.uleb128 0x46
 10142 3f96 75010000 		.4byte	.LASF512
 10143 3f9a 75010000 		.4byte	.LASF512
 10144 3f9e 1E       		.byte	0x1e
ARM GAS  C:\Users\haske\AppData\Local\Temp\cc4f9rxb.s 			page 200


 10145 3f9f BA       		.byte	0xba
 10146 3fa0 46       		.uleb128 0x46
 10147 3fa1 B9210000 		.4byte	.LASF513
 10148 3fa5 B9210000 		.4byte	.LASF513
 10149 3fa9 12       		.byte	0x12
 10150 3faa 4D       		.byte	0x4d
 10151 3fab 46       		.uleb128 0x46
 10152 3fac 9A080000 		.4byte	.LASF514
 10153 3fb0 9A080000 		.4byte	.LASF514
 10154 3fb4 1E       		.byte	0x1e
 10155 3fb5 DE       		.byte	0xde
 10156 3fb6 46       		.uleb128 0x46
 10157 3fb7 C8030000 		.4byte	.LASF515
 10158 3fbb C8030000 		.4byte	.LASF515
 10159 3fbf 1D       		.byte	0x1d
 10160 3fc0 92       		.byte	0x92
 10161 3fc1 47       		.uleb128 0x47
 10162 3fc2 5A210000 		.4byte	.LASF516
 10163 3fc6 5A210000 		.4byte	.LASF516
 10164 3fca 1F       		.byte	0x1f
 10165 3fcb 7D01     		.2byte	0x17d
 10166 3fcd 47       		.uleb128 0x47
 10167 3fce 291B0000 		.4byte	.LASF517
 10168 3fd2 291B0000 		.4byte	.LASF517
 10169 3fd6 0F       		.byte	0xf
 10170 3fd7 5001     		.2byte	0x150
 10171 3fd9 00       		.byte	0
 10172              		.section	.debug_abbrev,"",%progbits
 10173              	.Ldebug_abbrev0:
 10174 0000 01       		.uleb128 0x1
 10175 0001 11       		.uleb128 0x11
 10176 0002 01       		.byte	0x1
 10177 0003 25       		.uleb128 0x25
 10178 0004 0E       		.uleb128 0xe
 10179 0005 13       		.uleb128 0x13
 10180 0006 0B       		.uleb128 0xb
 10181 0007 03       		.uleb128 0x3
 10182 0008 0E       		.uleb128 0xe
 10183 0009 1B       		.uleb128 0x1b
 10184 000a 0E       		.uleb128 0xe
 10185 000b 55       		.uleb128 0x55
 10186 000c 17       		.uleb128 0x17
 10187 000d 11       		.uleb128 0x11
 10188 000e 01       		.uleb128 0x1
 10189 000f 10       		.uleb128 0x10
 10190 0010 17       		.uleb128 0x17
 10191 0011 00       		.byte	0
 10192 0012 00       		.byte	0
 10193 0013 02       		.uleb128 0x2
 10194 0014 16       		.uleb128 0x16
 10195 0015 00       		.byte	0
 10196 0016 03       		.uleb128 0x3
 10197 0017 0E       		.uleb128 0xe
 10198 0018 3A       		.uleb128 0x3a
 10199 0019 0B       		.uleb128 0xb
 10200 001a 3B       		.uleb128 0x3b
 10201 001b 0B       		.uleb128 0xb
ARM GAS  C:\Users\haske\AppData\Local\Temp\cc4f9rxb.s 			page 201


 10202 001c 49       		.uleb128 0x49
 10203 001d 13       		.uleb128 0x13
 10204 001e 00       		.byte	0
 10205 001f 00       		.byte	0
 10206 0020 03       		.uleb128 0x3
 10207 0021 24       		.uleb128 0x24
 10208 0022 00       		.byte	0
 10209 0023 0B       		.uleb128 0xb
 10210 0024 0B       		.uleb128 0xb
 10211 0025 3E       		.uleb128 0x3e
 10212 0026 0B       		.uleb128 0xb
 10213 0027 03       		.uleb128 0x3
 10214 0028 0E       		.uleb128 0xe
 10215 0029 00       		.byte	0
 10216 002a 00       		.byte	0
 10217 002b 04       		.uleb128 0x4
 10218 002c 24       		.uleb128 0x24
 10219 002d 00       		.byte	0
 10220 002e 0B       		.uleb128 0xb
 10221 002f 0B       		.uleb128 0xb
 10222 0030 3E       		.uleb128 0x3e
 10223 0031 0B       		.uleb128 0xb
 10224 0032 03       		.uleb128 0x3
 10225 0033 08       		.uleb128 0x8
 10226 0034 00       		.byte	0
 10227 0035 00       		.byte	0
 10228 0036 05       		.uleb128 0x5
 10229 0037 13       		.uleb128 0x13
 10230 0038 01       		.byte	0x1
 10231 0039 0B       		.uleb128 0xb
 10232 003a 0B       		.uleb128 0xb
 10233 003b 3A       		.uleb128 0x3a
 10234 003c 0B       		.uleb128 0xb
 10235 003d 3B       		.uleb128 0x3b
 10236 003e 0B       		.uleb128 0xb
 10237 003f 01       		.uleb128 0x1
 10238 0040 13       		.uleb128 0x13
 10239 0041 00       		.byte	0
 10240 0042 00       		.byte	0
 10241 0043 06       		.uleb128 0x6
 10242 0044 0D       		.uleb128 0xd
 10243 0045 00       		.byte	0
 10244 0046 03       		.uleb128 0x3
 10245 0047 08       		.uleb128 0x8
 10246 0048 3A       		.uleb128 0x3a
 10247 0049 0B       		.uleb128 0xb
 10248 004a 3B       		.uleb128 0x3b
 10249 004b 0B       		.uleb128 0xb
 10250 004c 49       		.uleb128 0x49
 10251 004d 13       		.uleb128 0x13
 10252 004e 38       		.uleb128 0x38
 10253 004f 0B       		.uleb128 0xb
 10254 0050 00       		.byte	0
 10255 0051 00       		.byte	0
 10256 0052 07       		.uleb128 0x7
 10257 0053 0D       		.uleb128 0xd
 10258 0054 00       		.byte	0
ARM GAS  C:\Users\haske\AppData\Local\Temp\cc4f9rxb.s 			page 202


 10259 0055 03       		.uleb128 0x3
 10260 0056 0E       		.uleb128 0xe
 10261 0057 3A       		.uleb128 0x3a
 10262 0058 0B       		.uleb128 0xb
 10263 0059 3B       		.uleb128 0x3b
 10264 005a 0B       		.uleb128 0xb
 10265 005b 49       		.uleb128 0x49
 10266 005c 13       		.uleb128 0x13
 10267 005d 38       		.uleb128 0x38
 10268 005e 0B       		.uleb128 0xb
 10269 005f 00       		.byte	0
 10270 0060 00       		.byte	0
 10271 0061 08       		.uleb128 0x8
 10272 0062 0D       		.uleb128 0xd
 10273 0063 00       		.byte	0
 10274 0064 03       		.uleb128 0x3
 10275 0065 08       		.uleb128 0x8
 10276 0066 3A       		.uleb128 0x3a
 10277 0067 0B       		.uleb128 0xb
 10278 0068 3B       		.uleb128 0x3b
 10279 0069 0B       		.uleb128 0xb
 10280 006a 49       		.uleb128 0x49
 10281 006b 13       		.uleb128 0x13
 10282 006c 0B       		.uleb128 0xb
 10283 006d 0B       		.uleb128 0xb
 10284 006e 0D       		.uleb128 0xd
 10285 006f 0B       		.uleb128 0xb
 10286 0070 0C       		.uleb128 0xc
 10287 0071 0B       		.uleb128 0xb
 10288 0072 38       		.uleb128 0x38
 10289 0073 0B       		.uleb128 0xb
 10290 0074 00       		.byte	0
 10291 0075 00       		.byte	0
 10292 0076 09       		.uleb128 0x9
 10293 0077 0D       		.uleb128 0xd
 10294 0078 00       		.byte	0
 10295 0079 03       		.uleb128 0x3
 10296 007a 0E       		.uleb128 0xe
 10297 007b 3A       		.uleb128 0x3a
 10298 007c 0B       		.uleb128 0xb
 10299 007d 3B       		.uleb128 0x3b
 10300 007e 0B       		.uleb128 0xb
 10301 007f 49       		.uleb128 0x49
 10302 0080 13       		.uleb128 0x13
 10303 0081 0B       		.uleb128 0xb
 10304 0082 0B       		.uleb128 0xb
 10305 0083 0D       		.uleb128 0xd
 10306 0084 0B       		.uleb128 0xb
 10307 0085 0C       		.uleb128 0xc
 10308 0086 0B       		.uleb128 0xb
 10309 0087 38       		.uleb128 0x38
 10310 0088 0B       		.uleb128 0xb
 10311 0089 00       		.byte	0
 10312 008a 00       		.byte	0
 10313 008b 0A       		.uleb128 0xa
 10314 008c 13       		.uleb128 0x13
 10315 008d 01       		.byte	0x1
ARM GAS  C:\Users\haske\AppData\Local\Temp\cc4f9rxb.s 			page 203


 10316 008e 03       		.uleb128 0x3
 10317 008f 0E       		.uleb128 0xe
 10318 0090 0B       		.uleb128 0xb
 10319 0091 0B       		.uleb128 0xb
 10320 0092 3A       		.uleb128 0x3a
 10321 0093 0B       		.uleb128 0xb
 10322 0094 3B       		.uleb128 0x3b
 10323 0095 0B       		.uleb128 0xb
 10324 0096 01       		.uleb128 0x1
 10325 0097 13       		.uleb128 0x13
 10326 0098 00       		.byte	0
 10327 0099 00       		.byte	0
 10328 009a 0B       		.uleb128 0xb
 10329 009b 0F       		.uleb128 0xf
 10330 009c 00       		.byte	0
 10331 009d 0B       		.uleb128 0xb
 10332 009e 0B       		.uleb128 0xb
 10333 009f 49       		.uleb128 0x49
 10334 00a0 13       		.uleb128 0x13
 10335 00a1 00       		.byte	0
 10336 00a2 00       		.byte	0
 10337 00a3 0C       		.uleb128 0xc
 10338 00a4 26       		.uleb128 0x26
 10339 00a5 00       		.byte	0
 10340 00a6 49       		.uleb128 0x49
 10341 00a7 13       		.uleb128 0x13
 10342 00a8 00       		.byte	0
 10343 00a9 00       		.byte	0
 10344 00aa 0D       		.uleb128 0xd
 10345 00ab 15       		.uleb128 0x15
 10346 00ac 01       		.byte	0x1
 10347 00ad 27       		.uleb128 0x27
 10348 00ae 19       		.uleb128 0x19
 10349 00af 49       		.uleb128 0x49
 10350 00b0 13       		.uleb128 0x13
 10351 00b1 01       		.uleb128 0x1
 10352 00b2 13       		.uleb128 0x13
 10353 00b3 00       		.byte	0
 10354 00b4 00       		.byte	0
 10355 00b5 0E       		.uleb128 0xe
 10356 00b6 05       		.uleb128 0x5
 10357 00b7 00       		.byte	0
 10358 00b8 49       		.uleb128 0x49
 10359 00b9 13       		.uleb128 0x13
 10360 00ba 00       		.byte	0
 10361 00bb 00       		.byte	0
 10362 00bc 0F       		.uleb128 0xf
 10363 00bd 26       		.uleb128 0x26
 10364 00be 00       		.byte	0
 10365 00bf 00       		.byte	0
 10366 00c0 00       		.byte	0
 10367 00c1 10       		.uleb128 0x10
 10368 00c2 0F       		.uleb128 0xf
 10369 00c3 00       		.byte	0
 10370 00c4 0B       		.uleb128 0xb
 10371 00c5 0B       		.uleb128 0xb
 10372 00c6 00       		.byte	0
ARM GAS  C:\Users\haske\AppData\Local\Temp\cc4f9rxb.s 			page 204


 10373 00c7 00       		.byte	0
 10374 00c8 11       		.uleb128 0x11
 10375 00c9 04       		.uleb128 0x4
 10376 00ca 01       		.byte	0x1
 10377 00cb 0B       		.uleb128 0xb
 10378 00cc 0B       		.uleb128 0xb
 10379 00cd 49       		.uleb128 0x49
 10380 00ce 13       		.uleb128 0x13
 10381 00cf 3A       		.uleb128 0x3a
 10382 00d0 0B       		.uleb128 0xb
 10383 00d1 3B       		.uleb128 0x3b
 10384 00d2 0B       		.uleb128 0xb
 10385 00d3 01       		.uleb128 0x1
 10386 00d4 13       		.uleb128 0x13
 10387 00d5 00       		.byte	0
 10388 00d6 00       		.byte	0
 10389 00d7 12       		.uleb128 0x12
 10390 00d8 28       		.uleb128 0x28
 10391 00d9 00       		.byte	0
 10392 00da 03       		.uleb128 0x3
 10393 00db 0E       		.uleb128 0xe
 10394 00dc 1C       		.uleb128 0x1c
 10395 00dd 0B       		.uleb128 0xb
 10396 00de 00       		.byte	0
 10397 00df 00       		.byte	0
 10398 00e0 13       		.uleb128 0x13
 10399 00e1 17       		.uleb128 0x17
 10400 00e2 01       		.byte	0x1
 10401 00e3 0B       		.uleb128 0xb
 10402 00e4 0B       		.uleb128 0xb
 10403 00e5 3A       		.uleb128 0x3a
 10404 00e6 0B       		.uleb128 0xb
 10405 00e7 3B       		.uleb128 0x3b
 10406 00e8 0B       		.uleb128 0xb
 10407 00e9 01       		.uleb128 0x1
 10408 00ea 13       		.uleb128 0x13
 10409 00eb 00       		.byte	0
 10410 00ec 00       		.byte	0
 10411 00ed 14       		.uleb128 0x14
 10412 00ee 0D       		.uleb128 0xd
 10413 00ef 00       		.byte	0
 10414 00f0 03       		.uleb128 0x3
 10415 00f1 08       		.uleb128 0x8
 10416 00f2 3A       		.uleb128 0x3a
 10417 00f3 0B       		.uleb128 0xb
 10418 00f4 3B       		.uleb128 0x3b
 10419 00f5 0B       		.uleb128 0xb
 10420 00f6 49       		.uleb128 0x49
 10421 00f7 13       		.uleb128 0x13
 10422 00f8 00       		.byte	0
 10423 00f9 00       		.byte	0
 10424 00fa 15       		.uleb128 0x15
 10425 00fb 0D       		.uleb128 0xd
 10426 00fc 00       		.byte	0
 10427 00fd 03       		.uleb128 0x3
 10428 00fe 0E       		.uleb128 0xe
 10429 00ff 3A       		.uleb128 0x3a
ARM GAS  C:\Users\haske\AppData\Local\Temp\cc4f9rxb.s 			page 205


 10430 0100 0B       		.uleb128 0xb
 10431 0101 3B       		.uleb128 0x3b
 10432 0102 0B       		.uleb128 0xb
 10433 0103 49       		.uleb128 0x49
 10434 0104 13       		.uleb128 0x13
 10435 0105 00       		.byte	0
 10436 0106 00       		.byte	0
 10437 0107 16       		.uleb128 0x16
 10438 0108 01       		.uleb128 0x1
 10439 0109 01       		.byte	0x1
 10440 010a 49       		.uleb128 0x49
 10441 010b 13       		.uleb128 0x13
 10442 010c 01       		.uleb128 0x1
 10443 010d 13       		.uleb128 0x13
 10444 010e 00       		.byte	0
 10445 010f 00       		.byte	0
 10446 0110 17       		.uleb128 0x17
 10447 0111 21       		.uleb128 0x21
 10448 0112 00       		.byte	0
 10449 0113 49       		.uleb128 0x49
 10450 0114 13       		.uleb128 0x13
 10451 0115 2F       		.uleb128 0x2f
 10452 0116 0B       		.uleb128 0xb
 10453 0117 00       		.byte	0
 10454 0118 00       		.byte	0
 10455 0119 18       		.uleb128 0x18
 10456 011a 28       		.uleb128 0x28
 10457 011b 00       		.byte	0
 10458 011c 03       		.uleb128 0x3
 10459 011d 0E       		.uleb128 0xe
 10460 011e 1C       		.uleb128 0x1c
 10461 011f 05       		.uleb128 0x5
 10462 0120 00       		.byte	0
 10463 0121 00       		.byte	0
 10464 0122 19       		.uleb128 0x19
 10465 0123 16       		.uleb128 0x16
 10466 0124 00       		.byte	0
 10467 0125 03       		.uleb128 0x3
 10468 0126 0E       		.uleb128 0xe
 10469 0127 3A       		.uleb128 0x3a
 10470 0128 0B       		.uleb128 0xb
 10471 0129 3B       		.uleb128 0x3b
 10472 012a 05       		.uleb128 0x5
 10473 012b 49       		.uleb128 0x49
 10474 012c 13       		.uleb128 0x13
 10475 012d 00       		.byte	0
 10476 012e 00       		.byte	0
 10477 012f 1A       		.uleb128 0x1a
 10478 0130 13       		.uleb128 0x13
 10479 0131 01       		.byte	0x1
 10480 0132 0B       		.uleb128 0xb
 10481 0133 0B       		.uleb128 0xb
 10482 0134 3A       		.uleb128 0x3a
 10483 0135 0B       		.uleb128 0xb
 10484 0136 3B       		.uleb128 0x3b
 10485 0137 05       		.uleb128 0x5
 10486 0138 01       		.uleb128 0x1
ARM GAS  C:\Users\haske\AppData\Local\Temp\cc4f9rxb.s 			page 206


 10487 0139 13       		.uleb128 0x13
 10488 013a 00       		.byte	0
 10489 013b 00       		.byte	0
 10490 013c 1B       		.uleb128 0x1b
 10491 013d 0D       		.uleb128 0xd
 10492 013e 00       		.byte	0
 10493 013f 03       		.uleb128 0x3
 10494 0140 0E       		.uleb128 0xe
 10495 0141 3A       		.uleb128 0x3a
 10496 0142 0B       		.uleb128 0xb
 10497 0143 3B       		.uleb128 0x3b
 10498 0144 05       		.uleb128 0x5
 10499 0145 49       		.uleb128 0x49
 10500 0146 13       		.uleb128 0x13
 10501 0147 38       		.uleb128 0x38
 10502 0148 0B       		.uleb128 0xb
 10503 0149 00       		.byte	0
 10504 014a 00       		.byte	0
 10505 014b 1C       		.uleb128 0x1c
 10506 014c 17       		.uleb128 0x17
 10507 014d 01       		.byte	0x1
 10508 014e 0B       		.uleb128 0xb
 10509 014f 0B       		.uleb128 0xb
 10510 0150 3A       		.uleb128 0x3a
 10511 0151 0B       		.uleb128 0xb
 10512 0152 3B       		.uleb128 0x3b
 10513 0153 05       		.uleb128 0x5
 10514 0154 01       		.uleb128 0x1
 10515 0155 13       		.uleb128 0x13
 10516 0156 00       		.byte	0
 10517 0157 00       		.byte	0
 10518 0158 1D       		.uleb128 0x1d
 10519 0159 0D       		.uleb128 0xd
 10520 015a 00       		.byte	0
 10521 015b 03       		.uleb128 0x3
 10522 015c 0E       		.uleb128 0xe
 10523 015d 3A       		.uleb128 0x3a
 10524 015e 0B       		.uleb128 0xb
 10525 015f 3B       		.uleb128 0x3b
 10526 0160 05       		.uleb128 0x5
 10527 0161 49       		.uleb128 0x49
 10528 0162 13       		.uleb128 0x13
 10529 0163 00       		.byte	0
 10530 0164 00       		.byte	0
 10531 0165 1E       		.uleb128 0x1e
 10532 0166 0D       		.uleb128 0xd
 10533 0167 00       		.byte	0
 10534 0168 03       		.uleb128 0x3
 10535 0169 08       		.uleb128 0x8
 10536 016a 3A       		.uleb128 0x3a
 10537 016b 0B       		.uleb128 0xb
 10538 016c 3B       		.uleb128 0x3b
 10539 016d 05       		.uleb128 0x5
 10540 016e 49       		.uleb128 0x49
 10541 016f 13       		.uleb128 0x13
 10542 0170 38       		.uleb128 0x38
 10543 0171 0B       		.uleb128 0xb
ARM GAS  C:\Users\haske\AppData\Local\Temp\cc4f9rxb.s 			page 207


 10544 0172 00       		.byte	0
 10545 0173 00       		.byte	0
 10546 0174 1F       		.uleb128 0x1f
 10547 0175 15       		.uleb128 0x15
 10548 0176 01       		.byte	0x1
 10549 0177 27       		.uleb128 0x27
 10550 0178 19       		.uleb128 0x19
 10551 0179 01       		.uleb128 0x1
 10552 017a 13       		.uleb128 0x13
 10553 017b 00       		.byte	0
 10554 017c 00       		.byte	0
 10555 017d 20       		.uleb128 0x20
 10556 017e 28       		.uleb128 0x28
 10557 017f 00       		.byte	0
 10558 0180 03       		.uleb128 0x3
 10559 0181 0E       		.uleb128 0xe
 10560 0182 1C       		.uleb128 0x1c
 10561 0183 06       		.uleb128 0x6
 10562 0184 00       		.byte	0
 10563 0185 00       		.byte	0
 10564 0186 21       		.uleb128 0x21
 10565 0187 13       		.uleb128 0x13
 10566 0188 00       		.byte	0
 10567 0189 03       		.uleb128 0x3
 10568 018a 0E       		.uleb128 0xe
 10569 018b 3C       		.uleb128 0x3c
 10570 018c 19       		.uleb128 0x19
 10571 018d 00       		.byte	0
 10572 018e 00       		.byte	0
 10573 018f 22       		.uleb128 0x22
 10574 0190 2E       		.uleb128 0x2e
 10575 0191 01       		.byte	0x1
 10576 0192 03       		.uleb128 0x3
 10577 0193 0E       		.uleb128 0xe
 10578 0194 3A       		.uleb128 0x3a
 10579 0195 0B       		.uleb128 0xb
 10580 0196 3B       		.uleb128 0x3b
 10581 0197 05       		.uleb128 0x5
 10582 0198 27       		.uleb128 0x27
 10583 0199 19       		.uleb128 0x19
 10584 019a 49       		.uleb128 0x49
 10585 019b 13       		.uleb128 0x13
 10586 019c 20       		.uleb128 0x20
 10587 019d 0B       		.uleb128 0xb
 10588 019e 01       		.uleb128 0x1
 10589 019f 13       		.uleb128 0x13
 10590 01a0 00       		.byte	0
 10591 01a1 00       		.byte	0
 10592 01a2 23       		.uleb128 0x23
 10593 01a3 05       		.uleb128 0x5
 10594 01a4 00       		.byte	0
 10595 01a5 03       		.uleb128 0x3
 10596 01a6 08       		.uleb128 0x8
 10597 01a7 3A       		.uleb128 0x3a
 10598 01a8 0B       		.uleb128 0xb
 10599 01a9 3B       		.uleb128 0x3b
 10600 01aa 05       		.uleb128 0x5
ARM GAS  C:\Users\haske\AppData\Local\Temp\cc4f9rxb.s 			page 208


 10601 01ab 49       		.uleb128 0x49
 10602 01ac 13       		.uleb128 0x13
 10603 01ad 00       		.byte	0
 10604 01ae 00       		.byte	0
 10605 01af 24       		.uleb128 0x24
 10606 01b0 05       		.uleb128 0x5
 10607 01b1 00       		.byte	0
 10608 01b2 03       		.uleb128 0x3
 10609 01b3 0E       		.uleb128 0xe
 10610 01b4 3A       		.uleb128 0x3a
 10611 01b5 0B       		.uleb128 0xb
 10612 01b6 3B       		.uleb128 0x3b
 10613 01b7 05       		.uleb128 0x5
 10614 01b8 49       		.uleb128 0x49
 10615 01b9 13       		.uleb128 0x13
 10616 01ba 00       		.byte	0
 10617 01bb 00       		.byte	0
 10618 01bc 25       		.uleb128 0x25
 10619 01bd 34       		.uleb128 0x34
 10620 01be 00       		.byte	0
 10621 01bf 03       		.uleb128 0x3
 10622 01c0 08       		.uleb128 0x8
 10623 01c1 3A       		.uleb128 0x3a
 10624 01c2 0B       		.uleb128 0xb
 10625 01c3 3B       		.uleb128 0x3b
 10626 01c4 05       		.uleb128 0x5
 10627 01c5 49       		.uleb128 0x49
 10628 01c6 13       		.uleb128 0x13
 10629 01c7 00       		.byte	0
 10630 01c8 00       		.byte	0
 10631 01c9 26       		.uleb128 0x26
 10632 01ca 2E       		.uleb128 0x2e
 10633 01cb 01       		.byte	0x1
 10634 01cc 03       		.uleb128 0x3
 10635 01cd 0E       		.uleb128 0xe
 10636 01ce 3A       		.uleb128 0x3a
 10637 01cf 0B       		.uleb128 0xb
 10638 01d0 3B       		.uleb128 0x3b
 10639 01d1 0B       		.uleb128 0xb
 10640 01d2 27       		.uleb128 0x27
 10641 01d3 19       		.uleb128 0x19
 10642 01d4 49       		.uleb128 0x49
 10643 01d5 13       		.uleb128 0x13
 10644 01d6 20       		.uleb128 0x20
 10645 01d7 0B       		.uleb128 0xb
 10646 01d8 01       		.uleb128 0x1
 10647 01d9 13       		.uleb128 0x13
 10648 01da 00       		.byte	0
 10649 01db 00       		.byte	0
 10650 01dc 27       		.uleb128 0x27
 10651 01dd 05       		.uleb128 0x5
 10652 01de 00       		.byte	0
 10653 01df 03       		.uleb128 0x3
 10654 01e0 08       		.uleb128 0x8
 10655 01e1 3A       		.uleb128 0x3a
 10656 01e2 0B       		.uleb128 0xb
 10657 01e3 3B       		.uleb128 0x3b
ARM GAS  C:\Users\haske\AppData\Local\Temp\cc4f9rxb.s 			page 209


 10658 01e4 0B       		.uleb128 0xb
 10659 01e5 49       		.uleb128 0x49
 10660 01e6 13       		.uleb128 0x13
 10661 01e7 00       		.byte	0
 10662 01e8 00       		.byte	0
 10663 01e9 28       		.uleb128 0x28
 10664 01ea 05       		.uleb128 0x5
 10665 01eb 00       		.byte	0
 10666 01ec 03       		.uleb128 0x3
 10667 01ed 0E       		.uleb128 0xe
 10668 01ee 3A       		.uleb128 0x3a
 10669 01ef 0B       		.uleb128 0xb
 10670 01f0 3B       		.uleb128 0x3b
 10671 01f1 0B       		.uleb128 0xb
 10672 01f2 49       		.uleb128 0x49
 10673 01f3 13       		.uleb128 0x13
 10674 01f4 00       		.byte	0
 10675 01f5 00       		.byte	0
 10676 01f6 29       		.uleb128 0x29
 10677 01f7 34       		.uleb128 0x34
 10678 01f8 00       		.byte	0
 10679 01f9 03       		.uleb128 0x3
 10680 01fa 08       		.uleb128 0x8
 10681 01fb 3A       		.uleb128 0x3a
 10682 01fc 0B       		.uleb128 0xb
 10683 01fd 3B       		.uleb128 0x3b
 10684 01fe 0B       		.uleb128 0xb
 10685 01ff 49       		.uleb128 0x49
 10686 0200 13       		.uleb128 0x13
 10687 0201 00       		.byte	0
 10688 0202 00       		.byte	0
 10689 0203 2A       		.uleb128 0x2a
 10690 0204 2E       		.uleb128 0x2e
 10691 0205 01       		.byte	0x1
 10692 0206 3F       		.uleb128 0x3f
 10693 0207 19       		.uleb128 0x19
 10694 0208 03       		.uleb128 0x3
 10695 0209 0E       		.uleb128 0xe
 10696 020a 3A       		.uleb128 0x3a
 10697 020b 0B       		.uleb128 0xb
 10698 020c 3B       		.uleb128 0x3b
 10699 020d 0B       		.uleb128 0xb
 10700 020e 27       		.uleb128 0x27
 10701 020f 19       		.uleb128 0x19
 10702 0210 11       		.uleb128 0x11
 10703 0211 01       		.uleb128 0x1
 10704 0212 12       		.uleb128 0x12
 10705 0213 06       		.uleb128 0x6
 10706 0214 40       		.uleb128 0x40
 10707 0215 18       		.uleb128 0x18
 10708 0216 9742     		.uleb128 0x2117
 10709 0218 19       		.uleb128 0x19
 10710 0219 01       		.uleb128 0x1
 10711 021a 13       		.uleb128 0x13
 10712 021b 00       		.byte	0
 10713 021c 00       		.byte	0
 10714 021d 2B       		.uleb128 0x2b
ARM GAS  C:\Users\haske\AppData\Local\Temp\cc4f9rxb.s 			page 210


 10715 021e 05       		.uleb128 0x5
 10716 021f 00       		.byte	0
 10717 0220 03       		.uleb128 0x3
 10718 0221 08       		.uleb128 0x8
 10719 0222 3A       		.uleb128 0x3a
 10720 0223 0B       		.uleb128 0xb
 10721 0224 3B       		.uleb128 0x3b
 10722 0225 0B       		.uleb128 0xb
 10723 0226 49       		.uleb128 0x49
 10724 0227 13       		.uleb128 0x13
 10725 0228 02       		.uleb128 0x2
 10726 0229 17       		.uleb128 0x17
 10727 022a 00       		.byte	0
 10728 022b 00       		.byte	0
 10729 022c 2C       		.uleb128 0x2c
 10730 022d 05       		.uleb128 0x5
 10731 022e 00       		.byte	0
 10732 022f 03       		.uleb128 0x3
 10733 0230 0E       		.uleb128 0xe
 10734 0231 3A       		.uleb128 0x3a
 10735 0232 0B       		.uleb128 0xb
 10736 0233 3B       		.uleb128 0x3b
 10737 0234 0B       		.uleb128 0xb
 10738 0235 49       		.uleb128 0x49
 10739 0236 13       		.uleb128 0x13
 10740 0237 02       		.uleb128 0x2
 10741 0238 17       		.uleb128 0x17
 10742 0239 00       		.byte	0
 10743 023a 00       		.byte	0
 10744 023b 2D       		.uleb128 0x2d
 10745 023c 34       		.uleb128 0x34
 10746 023d 00       		.byte	0
 10747 023e 03       		.uleb128 0x3
 10748 023f 08       		.uleb128 0x8
 10749 0240 3A       		.uleb128 0x3a
 10750 0241 0B       		.uleb128 0xb
 10751 0242 3B       		.uleb128 0x3b
 10752 0243 0B       		.uleb128 0xb
 10753 0244 49       		.uleb128 0x49
 10754 0245 13       		.uleb128 0x13
 10755 0246 02       		.uleb128 0x2
 10756 0247 17       		.uleb128 0x17
 10757 0248 00       		.byte	0
 10758 0249 00       		.byte	0
 10759 024a 2E       		.uleb128 0x2e
 10760 024b 1D       		.uleb128 0x1d
 10761 024c 01       		.byte	0x1
 10762 024d 31       		.uleb128 0x31
 10763 024e 13       		.uleb128 0x13
 10764 024f 11       		.uleb128 0x11
 10765 0250 01       		.uleb128 0x1
 10766 0251 12       		.uleb128 0x12
 10767 0252 06       		.uleb128 0x6
 10768 0253 58       		.uleb128 0x58
 10769 0254 0B       		.uleb128 0xb
 10770 0255 59       		.uleb128 0x59
 10771 0256 0B       		.uleb128 0xb
ARM GAS  C:\Users\haske\AppData\Local\Temp\cc4f9rxb.s 			page 211


 10772 0257 01       		.uleb128 0x1
 10773 0258 13       		.uleb128 0x13
 10774 0259 00       		.byte	0
 10775 025a 00       		.byte	0
 10776 025b 2F       		.uleb128 0x2f
 10777 025c 05       		.uleb128 0x5
 10778 025d 00       		.byte	0
 10779 025e 31       		.uleb128 0x31
 10780 025f 13       		.uleb128 0x13
 10781 0260 02       		.uleb128 0x2
 10782 0261 17       		.uleb128 0x17
 10783 0262 00       		.byte	0
 10784 0263 00       		.byte	0
 10785 0264 30       		.uleb128 0x30
 10786 0265 0B       		.uleb128 0xb
 10787 0266 01       		.byte	0x1
 10788 0267 11       		.uleb128 0x11
 10789 0268 01       		.uleb128 0x1
 10790 0269 12       		.uleb128 0x12
 10791 026a 06       		.uleb128 0x6
 10792 026b 00       		.byte	0
 10793 026c 00       		.byte	0
 10794 026d 31       		.uleb128 0x31
 10795 026e 34       		.uleb128 0x34
 10796 026f 00       		.byte	0
 10797 0270 31       		.uleb128 0x31
 10798 0271 13       		.uleb128 0x13
 10799 0272 00       		.byte	0
 10800 0273 00       		.byte	0
 10801 0274 32       		.uleb128 0x32
 10802 0275 898201   		.uleb128 0x4109
 10803 0278 01       		.byte	0x1
 10804 0279 11       		.uleb128 0x11
 10805 027a 01       		.uleb128 0x1
 10806 027b 31       		.uleb128 0x31
 10807 027c 13       		.uleb128 0x13
 10808 027d 00       		.byte	0
 10809 027e 00       		.byte	0
 10810 027f 33       		.uleb128 0x33
 10811 0280 8A8201   		.uleb128 0x410a
 10812 0283 00       		.byte	0
 10813 0284 02       		.uleb128 0x2
 10814 0285 18       		.uleb128 0x18
 10815 0286 9142     		.uleb128 0x2111
 10816 0288 18       		.uleb128 0x18
 10817 0289 00       		.byte	0
 10818 028a 00       		.byte	0
 10819 028b 34       		.uleb128 0x34
 10820 028c 0B       		.uleb128 0xb
 10821 028d 01       		.byte	0x1
 10822 028e 11       		.uleb128 0x11
 10823 028f 01       		.uleb128 0x1
 10824 0290 12       		.uleb128 0x12
 10825 0291 06       		.uleb128 0x6
 10826 0292 01       		.uleb128 0x1
 10827 0293 13       		.uleb128 0x13
 10828 0294 00       		.byte	0
ARM GAS  C:\Users\haske\AppData\Local\Temp\cc4f9rxb.s 			page 212


 10829 0295 00       		.byte	0
 10830 0296 35       		.uleb128 0x35
 10831 0297 34       		.uleb128 0x34
 10832 0298 00       		.byte	0
 10833 0299 03       		.uleb128 0x3
 10834 029a 0E       		.uleb128 0xe
 10835 029b 3A       		.uleb128 0x3a
 10836 029c 0B       		.uleb128 0xb
 10837 029d 3B       		.uleb128 0x3b
 10838 029e 0B       		.uleb128 0xb
 10839 029f 49       		.uleb128 0x49
 10840 02a0 13       		.uleb128 0x13
 10841 02a1 00       		.byte	0
 10842 02a2 00       		.byte	0
 10843 02a3 36       		.uleb128 0x36
 10844 02a4 898201   		.uleb128 0x4109
 10845 02a7 01       		.byte	0x1
 10846 02a8 11       		.uleb128 0x11
 10847 02a9 01       		.uleb128 0x1
 10848 02aa 31       		.uleb128 0x31
 10849 02ab 13       		.uleb128 0x13
 10850 02ac 01       		.uleb128 0x1
 10851 02ad 13       		.uleb128 0x13
 10852 02ae 00       		.byte	0
 10853 02af 00       		.byte	0
 10854 02b0 37       		.uleb128 0x37
 10855 02b1 34       		.uleb128 0x34
 10856 02b2 00       		.byte	0
 10857 02b3 31       		.uleb128 0x31
 10858 02b4 13       		.uleb128 0x13
 10859 02b5 02       		.uleb128 0x2
 10860 02b6 17       		.uleb128 0x17
 10861 02b7 00       		.byte	0
 10862 02b8 00       		.byte	0
 10863 02b9 38       		.uleb128 0x38
 10864 02ba 898201   		.uleb128 0x4109
 10865 02bd 00       		.byte	0
 10866 02be 11       		.uleb128 0x11
 10867 02bf 01       		.uleb128 0x1
 10868 02c0 31       		.uleb128 0x31
 10869 02c1 13       		.uleb128 0x13
 10870 02c2 00       		.byte	0
 10871 02c3 00       		.byte	0
 10872 02c4 39       		.uleb128 0x39
 10873 02c5 1D       		.uleb128 0x1d
 10874 02c6 01       		.byte	0x1
 10875 02c7 31       		.uleb128 0x31
 10876 02c8 13       		.uleb128 0x13
 10877 02c9 11       		.uleb128 0x11
 10878 02ca 01       		.uleb128 0x1
 10879 02cb 12       		.uleb128 0x12
 10880 02cc 06       		.uleb128 0x6
 10881 02cd 58       		.uleb128 0x58
 10882 02ce 0B       		.uleb128 0xb
 10883 02cf 59       		.uleb128 0x59
 10884 02d0 0B       		.uleb128 0xb
 10885 02d1 00       		.byte	0
ARM GAS  C:\Users\haske\AppData\Local\Temp\cc4f9rxb.s 			page 213


 10886 02d2 00       		.byte	0
 10887 02d3 3A       		.uleb128 0x3a
 10888 02d4 2E       		.uleb128 0x2e
 10889 02d5 01       		.byte	0x1
 10890 02d6 3F       		.uleb128 0x3f
 10891 02d7 19       		.uleb128 0x19
 10892 02d8 03       		.uleb128 0x3
 10893 02d9 0E       		.uleb128 0xe
 10894 02da 3A       		.uleb128 0x3a
 10895 02db 0B       		.uleb128 0xb
 10896 02dc 3B       		.uleb128 0x3b
 10897 02dd 05       		.uleb128 0x5
 10898 02de 27       		.uleb128 0x27
 10899 02df 19       		.uleb128 0x19
 10900 02e0 11       		.uleb128 0x11
 10901 02e1 01       		.uleb128 0x1
 10902 02e2 12       		.uleb128 0x12
 10903 02e3 06       		.uleb128 0x6
 10904 02e4 40       		.uleb128 0x40
 10905 02e5 18       		.uleb128 0x18
 10906 02e6 9742     		.uleb128 0x2117
 10907 02e8 19       		.uleb128 0x19
 10908 02e9 01       		.uleb128 0x1
 10909 02ea 13       		.uleb128 0x13
 10910 02eb 00       		.byte	0
 10911 02ec 00       		.byte	0
 10912 02ed 3B       		.uleb128 0x3b
 10913 02ee 05       		.uleb128 0x5
 10914 02ef 00       		.byte	0
 10915 02f0 03       		.uleb128 0x3
 10916 02f1 08       		.uleb128 0x8
 10917 02f2 3A       		.uleb128 0x3a
 10918 02f3 0B       		.uleb128 0xb
 10919 02f4 3B       		.uleb128 0x3b
 10920 02f5 05       		.uleb128 0x5
 10921 02f6 49       		.uleb128 0x49
 10922 02f7 13       		.uleb128 0x13
 10923 02f8 02       		.uleb128 0x2
 10924 02f9 17       		.uleb128 0x17
 10925 02fa 00       		.byte	0
 10926 02fb 00       		.byte	0
 10927 02fc 3C       		.uleb128 0x3c
 10928 02fd 05       		.uleb128 0x5
 10929 02fe 00       		.byte	0
 10930 02ff 03       		.uleb128 0x3
 10931 0300 0E       		.uleb128 0xe
 10932 0301 3A       		.uleb128 0x3a
 10933 0302 0B       		.uleb128 0xb
 10934 0303 3B       		.uleb128 0x3b
 10935 0304 05       		.uleb128 0x5
 10936 0305 49       		.uleb128 0x49
 10937 0306 13       		.uleb128 0x13
 10938 0307 02       		.uleb128 0x2
 10939 0308 17       		.uleb128 0x17
 10940 0309 00       		.byte	0
 10941 030a 00       		.byte	0
 10942 030b 3D       		.uleb128 0x3d
ARM GAS  C:\Users\haske\AppData\Local\Temp\cc4f9rxb.s 			page 214


 10943 030c 1D       		.uleb128 0x1d
 10944 030d 01       		.byte	0x1
 10945 030e 31       		.uleb128 0x31
 10946 030f 13       		.uleb128 0x13
 10947 0310 11       		.uleb128 0x11
 10948 0311 01       		.uleb128 0x1
 10949 0312 12       		.uleb128 0x12
 10950 0313 06       		.uleb128 0x6
 10951 0314 58       		.uleb128 0x58
 10952 0315 0B       		.uleb128 0xb
 10953 0316 59       		.uleb128 0x59
 10954 0317 05       		.uleb128 0x5
 10955 0318 01       		.uleb128 0x1
 10956 0319 13       		.uleb128 0x13
 10957 031a 00       		.byte	0
 10958 031b 00       		.byte	0
 10959 031c 3E       		.uleb128 0x3e
 10960 031d 1D       		.uleb128 0x1d
 10961 031e 01       		.byte	0x1
 10962 031f 31       		.uleb128 0x31
 10963 0320 13       		.uleb128 0x13
 10964 0321 11       		.uleb128 0x11
 10965 0322 01       		.uleb128 0x1
 10966 0323 12       		.uleb128 0x12
 10967 0324 06       		.uleb128 0x6
 10968 0325 58       		.uleb128 0x58
 10969 0326 0B       		.uleb128 0xb
 10970 0327 59       		.uleb128 0x59
 10971 0328 05       		.uleb128 0x5
 10972 0329 00       		.byte	0
 10973 032a 00       		.byte	0
 10974 032b 3F       		.uleb128 0x3f
 10975 032c 2E       		.uleb128 0x2e
 10976 032d 01       		.byte	0x1
 10977 032e 3F       		.uleb128 0x3f
 10978 032f 19       		.uleb128 0x19
 10979 0330 03       		.uleb128 0x3
 10980 0331 0E       		.uleb128 0xe
 10981 0332 3A       		.uleb128 0x3a
 10982 0333 0B       		.uleb128 0xb
 10983 0334 3B       		.uleb128 0x3b
 10984 0335 05       		.uleb128 0x5
 10985 0336 27       		.uleb128 0x27
 10986 0337 19       		.uleb128 0x19
 10987 0338 49       		.uleb128 0x49
 10988 0339 13       		.uleb128 0x13
 10989 033a 11       		.uleb128 0x11
 10990 033b 01       		.uleb128 0x1
 10991 033c 12       		.uleb128 0x12
 10992 033d 06       		.uleb128 0x6
 10993 033e 40       		.uleb128 0x40
 10994 033f 18       		.uleb128 0x18
 10995 0340 9742     		.uleb128 0x2117
 10996 0342 19       		.uleb128 0x19
 10997 0343 01       		.uleb128 0x1
 10998 0344 13       		.uleb128 0x13
 10999 0345 00       		.byte	0
ARM GAS  C:\Users\haske\AppData\Local\Temp\cc4f9rxb.s 			page 215


 11000 0346 00       		.byte	0
 11001 0347 40       		.uleb128 0x40
 11002 0348 34       		.uleb128 0x34
 11003 0349 00       		.byte	0
 11004 034a 03       		.uleb128 0x3
 11005 034b 08       		.uleb128 0x8
 11006 034c 3A       		.uleb128 0x3a
 11007 034d 0B       		.uleb128 0xb
 11008 034e 3B       		.uleb128 0x3b
 11009 034f 05       		.uleb128 0x5
 11010 0350 49       		.uleb128 0x49
 11011 0351 13       		.uleb128 0x13
 11012 0352 02       		.uleb128 0x2
 11013 0353 17       		.uleb128 0x17
 11014 0354 00       		.byte	0
 11015 0355 00       		.byte	0
 11016 0356 41       		.uleb128 0x41
 11017 0357 34       		.uleb128 0x34
 11018 0358 00       		.byte	0
 11019 0359 03       		.uleb128 0x3
 11020 035a 0E       		.uleb128 0xe
 11021 035b 3A       		.uleb128 0x3a
 11022 035c 0B       		.uleb128 0xb
 11023 035d 3B       		.uleb128 0x3b
 11024 035e 05       		.uleb128 0x5
 11025 035f 49       		.uleb128 0x49
 11026 0360 13       		.uleb128 0x13
 11027 0361 02       		.uleb128 0x2
 11028 0362 17       		.uleb128 0x17
 11029 0363 00       		.byte	0
 11030 0364 00       		.byte	0
 11031 0365 42       		.uleb128 0x42
 11032 0366 34       		.uleb128 0x34
 11033 0367 00       		.byte	0
 11034 0368 03       		.uleb128 0x3
 11035 0369 0E       		.uleb128 0xe
 11036 036a 3A       		.uleb128 0x3a
 11037 036b 0B       		.uleb128 0xb
 11038 036c 3B       		.uleb128 0x3b
 11039 036d 05       		.uleb128 0x5
 11040 036e 49       		.uleb128 0x49
 11041 036f 13       		.uleb128 0x13
 11042 0370 00       		.byte	0
 11043 0371 00       		.byte	0
 11044 0372 43       		.uleb128 0x43
 11045 0373 05       		.uleb128 0x5
 11046 0374 00       		.byte	0
 11047 0375 03       		.uleb128 0x3
 11048 0376 0E       		.uleb128 0xe
 11049 0377 3A       		.uleb128 0x3a
 11050 0378 0B       		.uleb128 0xb
 11051 0379 3B       		.uleb128 0x3b
 11052 037a 05       		.uleb128 0x5
 11053 037b 49       		.uleb128 0x49
 11054 037c 13       		.uleb128 0x13
 11055 037d 02       		.uleb128 0x2
 11056 037e 18       		.uleb128 0x18
ARM GAS  C:\Users\haske\AppData\Local\Temp\cc4f9rxb.s 			page 216


 11057 037f 00       		.byte	0
 11058 0380 00       		.byte	0
 11059 0381 44       		.uleb128 0x44
 11060 0382 34       		.uleb128 0x34
 11061 0383 00       		.byte	0
 11062 0384 03       		.uleb128 0x3
 11063 0385 0E       		.uleb128 0xe
 11064 0386 3A       		.uleb128 0x3a
 11065 0387 0B       		.uleb128 0xb
 11066 0388 3B       		.uleb128 0x3b
 11067 0389 05       		.uleb128 0x5
 11068 038a 49       		.uleb128 0x49
 11069 038b 13       		.uleb128 0x13
 11070 038c 02       		.uleb128 0x2
 11071 038d 18       		.uleb128 0x18
 11072 038e 00       		.byte	0
 11073 038f 00       		.byte	0
 11074 0390 45       		.uleb128 0x45
 11075 0391 34       		.uleb128 0x34
 11076 0392 00       		.byte	0
 11077 0393 03       		.uleb128 0x3
 11078 0394 0E       		.uleb128 0xe
 11079 0395 3A       		.uleb128 0x3a
 11080 0396 0B       		.uleb128 0xb
 11081 0397 3B       		.uleb128 0x3b
 11082 0398 0B       		.uleb128 0xb
 11083 0399 49       		.uleb128 0x49
 11084 039a 13       		.uleb128 0x13
 11085 039b 3F       		.uleb128 0x3f
 11086 039c 19       		.uleb128 0x19
 11087 039d 3C       		.uleb128 0x3c
 11088 039e 19       		.uleb128 0x19
 11089 039f 00       		.byte	0
 11090 03a0 00       		.byte	0
 11091 03a1 46       		.uleb128 0x46
 11092 03a2 2E       		.uleb128 0x2e
 11093 03a3 00       		.byte	0
 11094 03a4 3F       		.uleb128 0x3f
 11095 03a5 19       		.uleb128 0x19
 11096 03a6 3C       		.uleb128 0x3c
 11097 03a7 19       		.uleb128 0x19
 11098 03a8 6E       		.uleb128 0x6e
 11099 03a9 0E       		.uleb128 0xe
 11100 03aa 03       		.uleb128 0x3
 11101 03ab 0E       		.uleb128 0xe
 11102 03ac 3A       		.uleb128 0x3a
 11103 03ad 0B       		.uleb128 0xb
 11104 03ae 3B       		.uleb128 0x3b
 11105 03af 0B       		.uleb128 0xb
 11106 03b0 00       		.byte	0
 11107 03b1 00       		.byte	0
 11108 03b2 47       		.uleb128 0x47
 11109 03b3 2E       		.uleb128 0x2e
 11110 03b4 00       		.byte	0
 11111 03b5 3F       		.uleb128 0x3f
 11112 03b6 19       		.uleb128 0x19
 11113 03b7 3C       		.uleb128 0x3c
ARM GAS  C:\Users\haske\AppData\Local\Temp\cc4f9rxb.s 			page 217


 11114 03b8 19       		.uleb128 0x19
 11115 03b9 6E       		.uleb128 0x6e
 11116 03ba 0E       		.uleb128 0xe
 11117 03bb 03       		.uleb128 0x3
 11118 03bc 0E       		.uleb128 0xe
 11119 03bd 3A       		.uleb128 0x3a
 11120 03be 0B       		.uleb128 0xb
 11121 03bf 3B       		.uleb128 0x3b
 11122 03c0 05       		.uleb128 0x5
 11123 03c1 00       		.byte	0
 11124 03c2 00       		.byte	0
 11125 03c3 00       		.byte	0
 11126              		.section	.debug_loc,"",%progbits
 11127              	.Ldebug_loc0:
 11128              	.LLST0:
 11129 0000 00000000 		.4byte	.LVL0
 11130 0004 11000000 		.4byte	.LVL4-1
 11131 0008 0100     		.2byte	0x1
 11132 000a 50       		.byte	0x50
 11133 000b 11000000 		.4byte	.LVL4-1
 11134 000f 2C000000 		.4byte	.LVL6
 11135 0013 0100     		.2byte	0x1
 11136 0015 56       		.byte	0x56
 11137 0016 2C000000 		.4byte	.LVL6
 11138 001a 2E000000 		.4byte	.LVL7
 11139 001e 0100     		.2byte	0x1
 11140 0020 50       		.byte	0x50
 11141 0021 2E000000 		.4byte	.LVL7
 11142 0025 DC020000 		.4byte	.LVL105
 11143 0029 0100     		.2byte	0x1
 11144 002b 56       		.byte	0x56
 11145 002c DC020000 		.4byte	.LVL105
 11146 0030 DE020000 		.4byte	.LFE165
 11147 0034 0400     		.2byte	0x4
 11148 0036 F3       		.byte	0xf3
 11149 0037 01       		.uleb128 0x1
 11150 0038 50       		.byte	0x50
 11151 0039 9F       		.byte	0x9f
 11152 003a 00000000 		.4byte	0
 11153 003e 00000000 		.4byte	0
 11154              	.LLST1:
 11155 0042 00000000 		.4byte	.LVL0
 11156 0046 11000000 		.4byte	.LVL4-1
 11157 004a 0100     		.2byte	0x1
 11158 004c 51       		.byte	0x51
 11159 004d 11000000 		.4byte	.LVL4-1
 11160 0051 2C000000 		.4byte	.LVL6
 11161 0055 0100     		.2byte	0x1
 11162 0057 55       		.byte	0x55
 11163 0058 2C000000 		.4byte	.LVL6
 11164 005c 2E000000 		.4byte	.LVL7
 11165 0060 0100     		.2byte	0x1
 11166 0062 51       		.byte	0x51
 11167 0063 2E000000 		.4byte	.LVL7
 11168 0067 DC020000 		.4byte	.LVL104
 11169 006b 0100     		.2byte	0x1
 11170 006d 55       		.byte	0x55
ARM GAS  C:\Users\haske\AppData\Local\Temp\cc4f9rxb.s 			page 218


 11171 006e DC020000 		.4byte	.LVL104
 11172 0072 DE020000 		.4byte	.LFE165
 11173 0076 0400     		.2byte	0x4
 11174 0078 F3       		.byte	0xf3
 11175 0079 01       		.uleb128 0x1
 11176 007a 51       		.byte	0x51
 11177 007b 9F       		.byte	0x9f
 11178 007c 00000000 		.4byte	0
 11179 0080 00000000 		.4byte	0
 11180              	.LLST2:
 11181 0084 00000000 		.4byte	.LVL0
 11182 0088 0E000000 		.4byte	.LVL3
 11183 008c 0100     		.2byte	0x1
 11184 008e 52       		.byte	0x52
 11185 008f 0E000000 		.4byte	.LVL3
 11186 0093 2C000000 		.4byte	.LVL6
 11187 0097 0100     		.2byte	0x1
 11188 0099 54       		.byte	0x54
 11189 009a 2C000000 		.4byte	.LVL6
 11190 009e 2E000000 		.4byte	.LVL7
 11191 00a2 0100     		.2byte	0x1
 11192 00a4 52       		.byte	0x52
 11193 00a5 2E000000 		.4byte	.LVL7
 11194 00a9 DC020000 		.4byte	.LVL103
 11195 00ad 0100     		.2byte	0x1
 11196 00af 54       		.byte	0x54
 11197 00b0 DC020000 		.4byte	.LVL103
 11198 00b4 DE020000 		.4byte	.LFE165
 11199 00b8 0400     		.2byte	0x4
 11200 00ba F3       		.byte	0xf3
 11201 00bb 01       		.uleb128 0x1
 11202 00bc 52       		.byte	0x52
 11203 00bd 9F       		.byte	0x9f
 11204 00be 00000000 		.4byte	0
 11205 00c2 00000000 		.4byte	0
 11206              	.LLST3:
 11207 00c6 08000000 		.4byte	.LVL1
 11208 00ca 14000000 		.4byte	.LVL5
 11209 00ce 0300     		.2byte	0x3
 11210 00d0 09       		.byte	0x9
 11211 00d1 FF       		.byte	0xff
 11212 00d2 9F       		.byte	0x9f
 11213 00d3 2C000000 		.4byte	.LVL6
 11214 00d7 2E000000 		.4byte	.LVL7
 11215 00db 0300     		.2byte	0x3
 11216 00dd 09       		.byte	0x9
 11217 00de FF       		.byte	0xff
 11218 00df 9F       		.byte	0x9f
 11219 00e0 2E000000 		.4byte	.LVL7
 11220 00e4 DC020000 		.4byte	.LVL102
 11221 00e8 0100     		.2byte	0x1
 11222 00ea 57       		.byte	0x57
 11223 00eb 00000000 		.4byte	0
 11224 00ef 00000000 		.4byte	0
 11225              	.LLST4:
 11226 00f3 0C000000 		.4byte	.LVL2
 11227 00f7 11000000 		.4byte	.LVL4-1
ARM GAS  C:\Users\haske\AppData\Local\Temp\cc4f9rxb.s 			page 219


 11228 00fb 0100     		.2byte	0x1
 11229 00fd 51       		.byte	0x51
 11230 00fe 11000000 		.4byte	.LVL4-1
 11231 0102 14000000 		.4byte	.LVL5
 11232 0106 0100     		.2byte	0x1
 11233 0108 55       		.byte	0x55
 11234 0109 00000000 		.4byte	0
 11235 010d 00000000 		.4byte	0
 11236              	.LLST5:
 11237 0111 0C000000 		.4byte	.LVL2
 11238 0115 11000000 		.4byte	.LVL4-1
 11239 0119 0100     		.2byte	0x1
 11240 011b 50       		.byte	0x50
 11241 011c 11000000 		.4byte	.LVL4-1
 11242 0120 14000000 		.4byte	.LVL5
 11243 0124 0100     		.2byte	0x1
 11244 0126 56       		.byte	0x56
 11245 0127 00000000 		.4byte	0
 11246 012b 00000000 		.4byte	0
 11247              	.LLST6:
 11248 012f 32000000 		.4byte	.LVL8
 11249 0133 3C000000 		.4byte	.LVL9
 11250 0137 0100     		.2byte	0x1
 11251 0139 55       		.byte	0x55
 11252 013a 00000000 		.4byte	0
 11253 013e 00000000 		.4byte	0
 11254              	.LLST7:
 11255 0142 32000000 		.4byte	.LVL8
 11256 0146 3C000000 		.4byte	.LVL9
 11257 014a 0100     		.2byte	0x1
 11258 014c 56       		.byte	0x56
 11259 014d 00000000 		.4byte	0
 11260 0151 00000000 		.4byte	0
 11261              	.LLST8:
 11262 0155 3E000000 		.4byte	.LVL10
 11263 0159 48000000 		.4byte	.LVL11
 11264 015d 0100     		.2byte	0x1
 11265 015f 55       		.byte	0x55
 11266 0160 00000000 		.4byte	0
 11267 0164 00000000 		.4byte	0
 11268              	.LLST9:
 11269 0168 3E000000 		.4byte	.LVL10
 11270 016c 48000000 		.4byte	.LVL11
 11271 0170 0100     		.2byte	0x1
 11272 0172 56       		.byte	0x56
 11273 0173 00000000 		.4byte	0
 11274 0177 00000000 		.4byte	0
 11275              	.LLST10:
 11276 017b 50000000 		.4byte	.LVL12
 11277 017f 5C000000 		.4byte	.LVL14
 11278 0183 0100     		.2byte	0x1
 11279 0185 55       		.byte	0x55
 11280 0186 00000000 		.4byte	0
 11281 018a 00000000 		.4byte	0
 11282              	.LLST11:
 11283 018e 50000000 		.4byte	.LVL12
 11284 0192 5C000000 		.4byte	.LVL14
ARM GAS  C:\Users\haske\AppData\Local\Temp\cc4f9rxb.s 			page 220


 11285 0196 0100     		.2byte	0x1
 11286 0198 56       		.byte	0x56
 11287 0199 00000000 		.4byte	0
 11288 019d 00000000 		.4byte	0
 11289              	.LLST12:
 11290 01a1 62000000 		.4byte	.LVL15
 11291 01a5 76000000 		.4byte	.LVL17
 11292 01a9 0100     		.2byte	0x1
 11293 01ab 55       		.byte	0x55
 11294 01ac 00000000 		.4byte	0
 11295 01b0 00000000 		.4byte	0
 11296              	.LLST13:
 11297 01b4 62000000 		.4byte	.LVL15
 11298 01b8 76000000 		.4byte	.LVL17
 11299 01bc 0100     		.2byte	0x1
 11300 01be 56       		.byte	0x56
 11301 01bf 00000000 		.4byte	0
 11302 01c3 00000000 		.4byte	0
 11303              	.LLST14:
 11304 01c7 78000000 		.4byte	.LVL18
 11305 01cb 82000000 		.4byte	.LVL19
 11306 01cf 0100     		.2byte	0x1
 11307 01d1 55       		.byte	0x55
 11308 01d2 00000000 		.4byte	0
 11309 01d6 00000000 		.4byte	0
 11310              	.LLST15:
 11311 01da 78000000 		.4byte	.LVL18
 11312 01de 82000000 		.4byte	.LVL19
 11313 01e2 0100     		.2byte	0x1
 11314 01e4 56       		.byte	0x56
 11315 01e5 00000000 		.4byte	0
 11316 01e9 00000000 		.4byte	0
 11317              	.LLST16:
 11318 01ed 9A000000 		.4byte	.LVL21
 11319 01f1 A4000000 		.4byte	.LVL22
 11320 01f5 0100     		.2byte	0x1
 11321 01f7 55       		.byte	0x55
 11322 01f8 00000000 		.4byte	0
 11323 01fc 00000000 		.4byte	0
 11324              	.LLST17:
 11325 0200 9A000000 		.4byte	.LVL21
 11326 0204 A4000000 		.4byte	.LVL22
 11327 0208 0100     		.2byte	0x1
 11328 020a 56       		.byte	0x56
 11329 020b 00000000 		.4byte	0
 11330 020f 00000000 		.4byte	0
 11331              	.LLST18:
 11332 0213 A6000000 		.4byte	.LVL23
 11333 0217 A8000000 		.4byte	.LVL24
 11334 021b 0100     		.2byte	0x1
 11335 021d 50       		.byte	0x50
 11336 021e 00000000 		.4byte	0
 11337 0222 00000000 		.4byte	0
 11338              	.LLST19:
 11339 0226 B6000000 		.4byte	.LVL25
 11340 022a CA000000 		.4byte	.LVL27
 11341 022e 0100     		.2byte	0x1
ARM GAS  C:\Users\haske\AppData\Local\Temp\cc4f9rxb.s 			page 221


 11342 0230 55       		.byte	0x55
 11343 0231 00000000 		.4byte	0
 11344 0235 00000000 		.4byte	0
 11345              	.LLST20:
 11346 0239 B6000000 		.4byte	.LVL25
 11347 023d CA000000 		.4byte	.LVL27
 11348 0241 0100     		.2byte	0x1
 11349 0243 56       		.byte	0x56
 11350 0244 00000000 		.4byte	0
 11351 0248 00000000 		.4byte	0
 11352              	.LLST21:
 11353 024c CC000000 		.4byte	.LVL28
 11354 0250 E0000000 		.4byte	.LVL30
 11355 0254 0100     		.2byte	0x1
 11356 0256 55       		.byte	0x55
 11357 0257 00000000 		.4byte	0
 11358 025b 00000000 		.4byte	0
 11359              	.LLST22:
 11360 025f CC000000 		.4byte	.LVL28
 11361 0263 E0000000 		.4byte	.LVL30
 11362 0267 0100     		.2byte	0x1
 11363 0269 56       		.byte	0x56
 11364 026a 00000000 		.4byte	0
 11365 026e 00000000 		.4byte	0
 11366              	.LLST23:
 11367 0272 E2000000 		.4byte	.LVL31
 11368 0276 EC000000 		.4byte	.LVL32
 11369 027a 0100     		.2byte	0x1
 11370 027c 55       		.byte	0x55
 11371 027d 00000000 		.4byte	0
 11372 0281 00000000 		.4byte	0
 11373              	.LLST24:
 11374 0285 E2000000 		.4byte	.LVL31
 11375 0289 EC000000 		.4byte	.LVL32
 11376 028d 0100     		.2byte	0x1
 11377 028f 56       		.byte	0x56
 11378 0290 00000000 		.4byte	0
 11379 0294 00000000 		.4byte	0
 11380              	.LLST25:
 11381 0298 EE000000 		.4byte	.LVL33
 11382 029c F8000000 		.4byte	.LVL34
 11383 02a0 0100     		.2byte	0x1
 11384 02a2 55       		.byte	0x55
 11385 02a3 00000000 		.4byte	0
 11386 02a7 00000000 		.4byte	0
 11387              	.LLST26:
 11388 02ab EE000000 		.4byte	.LVL33
 11389 02af F8000000 		.4byte	.LVL34
 11390 02b3 0100     		.2byte	0x1
 11391 02b5 56       		.byte	0x56
 11392 02b6 00000000 		.4byte	0
 11393 02ba 00000000 		.4byte	0
 11394              	.LLST27:
 11395 02be FA000000 		.4byte	.LVL35
 11396 02c2 04010000 		.4byte	.LVL36
 11397 02c6 0100     		.2byte	0x1
 11398 02c8 55       		.byte	0x55
ARM GAS  C:\Users\haske\AppData\Local\Temp\cc4f9rxb.s 			page 222


 11399 02c9 00000000 		.4byte	0
 11400 02cd 00000000 		.4byte	0
 11401              	.LLST28:
 11402 02d1 FA000000 		.4byte	.LVL35
 11403 02d5 04010000 		.4byte	.LVL36
 11404 02d9 0100     		.2byte	0x1
 11405 02db 56       		.byte	0x56
 11406 02dc 00000000 		.4byte	0
 11407 02e0 00000000 		.4byte	0
 11408              	.LLST29:
 11409 02e4 06010000 		.4byte	.LVL37
 11410 02e8 08010000 		.4byte	.LVL38
 11411 02ec 0100     		.2byte	0x1
 11412 02ee 50       		.byte	0x50
 11413 02ef 00000000 		.4byte	0
 11414 02f3 00000000 		.4byte	0
 11415              	.LLST30:
 11416 02f7 14010000 		.4byte	.LVL39
 11417 02fb 20010000 		.4byte	.LVL41
 11418 02ff 0100     		.2byte	0x1
 11419 0301 55       		.byte	0x55
 11420 0302 00000000 		.4byte	0
 11421 0306 00000000 		.4byte	0
 11422              	.LLST31:
 11423 030a 14010000 		.4byte	.LVL39
 11424 030e 20010000 		.4byte	.LVL41
 11425 0312 0100     		.2byte	0x1
 11426 0314 56       		.byte	0x56
 11427 0315 00000000 		.4byte	0
 11428 0319 00000000 		.4byte	0
 11429              	.LLST32:
 11430 031d 2E010000 		.4byte	.LVL42
 11431 0321 3A010000 		.4byte	.LVL44
 11432 0325 0100     		.2byte	0x1
 11433 0327 55       		.byte	0x55
 11434 0328 00000000 		.4byte	0
 11435 032c 00000000 		.4byte	0
 11436              	.LLST33:
 11437 0330 2E010000 		.4byte	.LVL42
 11438 0334 3A010000 		.4byte	.LVL44
 11439 0338 0100     		.2byte	0x1
 11440 033a 56       		.byte	0x56
 11441 033b 00000000 		.4byte	0
 11442 033f 00000000 		.4byte	0
 11443              	.LLST34:
 11444 0343 42010000 		.4byte	.LVL45
 11445 0347 4C010000 		.4byte	.LVL46
 11446 034b 0100     		.2byte	0x1
 11447 034d 55       		.byte	0x55
 11448 034e 00000000 		.4byte	0
 11449 0352 00000000 		.4byte	0
 11450              	.LLST35:
 11451 0356 42010000 		.4byte	.LVL45
 11452 035a 4C010000 		.4byte	.LVL46
 11453 035e 0100     		.2byte	0x1
 11454 0360 56       		.byte	0x56
 11455 0361 00000000 		.4byte	0
ARM GAS  C:\Users\haske\AppData\Local\Temp\cc4f9rxb.s 			page 223


 11456 0365 00000000 		.4byte	0
 11457              	.LLST36:
 11458 0369 50010000 		.4byte	.LVL47
 11459 036d 52010000 		.4byte	.LVL48
 11460 0371 0100     		.2byte	0x1
 11461 0373 50       		.byte	0x50
 11462 0374 00000000 		.4byte	0
 11463 0378 00000000 		.4byte	0
 11464              	.LLST37:
 11465 037c 5E010000 		.4byte	.LVL49
 11466 0380 72010000 		.4byte	.LVL51
 11467 0384 0100     		.2byte	0x1
 11468 0386 55       		.byte	0x55
 11469 0387 00000000 		.4byte	0
 11470 038b 00000000 		.4byte	0
 11471              	.LLST38:
 11472 038f 5E010000 		.4byte	.LVL49
 11473 0393 72010000 		.4byte	.LVL51
 11474 0397 0100     		.2byte	0x1
 11475 0399 56       		.byte	0x56
 11476 039a 00000000 		.4byte	0
 11477 039e 00000000 		.4byte	0
 11478              	.LLST39:
 11479 03a2 74010000 		.4byte	.LVL52
 11480 03a6 80010000 		.4byte	.LVL54
 11481 03aa 0100     		.2byte	0x1
 11482 03ac 55       		.byte	0x55
 11483 03ad 00000000 		.4byte	0
 11484 03b1 00000000 		.4byte	0
 11485              	.LLST40:
 11486 03b5 74010000 		.4byte	.LVL52
 11487 03b9 80010000 		.4byte	.LVL54
 11488 03bd 0100     		.2byte	0x1
 11489 03bf 56       		.byte	0x56
 11490 03c0 00000000 		.4byte	0
 11491 03c4 00000000 		.4byte	0
 11492              	.LLST41:
 11493 03c8 8E010000 		.4byte	.LVL55
 11494 03cc 9A010000 		.4byte	.LVL57
 11495 03d0 0100     		.2byte	0x1
 11496 03d2 55       		.byte	0x55
 11497 03d3 00000000 		.4byte	0
 11498 03d7 00000000 		.4byte	0
 11499              	.LLST42:
 11500 03db 8E010000 		.4byte	.LVL55
 11501 03df 9A010000 		.4byte	.LVL57
 11502 03e3 0100     		.2byte	0x1
 11503 03e5 56       		.byte	0x56
 11504 03e6 00000000 		.4byte	0
 11505 03ea 00000000 		.4byte	0
 11506              	.LLST43:
 11507 03ee A2010000 		.4byte	.LVL58
 11508 03f2 AC010000 		.4byte	.LVL59
 11509 03f6 0100     		.2byte	0x1
 11510 03f8 55       		.byte	0x55
 11511 03f9 00000000 		.4byte	0
 11512 03fd 00000000 		.4byte	0
ARM GAS  C:\Users\haske\AppData\Local\Temp\cc4f9rxb.s 			page 224


 11513              	.LLST44:
 11514 0401 A2010000 		.4byte	.LVL58
 11515 0405 AC010000 		.4byte	.LVL59
 11516 0409 0100     		.2byte	0x1
 11517 040b 56       		.byte	0x56
 11518 040c 00000000 		.4byte	0
 11519 0410 00000000 		.4byte	0
 11520              	.LLST45:
 11521 0414 AE010000 		.4byte	.LVL60
 11522 0418 C2010000 		.4byte	.LVL62
 11523 041c 0100     		.2byte	0x1
 11524 041e 55       		.byte	0x55
 11525 041f 00000000 		.4byte	0
 11526 0423 00000000 		.4byte	0
 11527              	.LLST46:
 11528 0427 AE010000 		.4byte	.LVL60
 11529 042b C2010000 		.4byte	.LVL62
 11530 042f 0100     		.2byte	0x1
 11531 0431 56       		.byte	0x56
 11532 0432 00000000 		.4byte	0
 11533 0436 00000000 		.4byte	0
 11534              	.LLST47:
 11535 043a CA010000 		.4byte	.LVL63
 11536 043e D4010000 		.4byte	.LVL64
 11537 0442 0100     		.2byte	0x1
 11538 0444 55       		.byte	0x55
 11539 0445 00000000 		.4byte	0
 11540 0449 00000000 		.4byte	0
 11541              	.LLST48:
 11542 044d CA010000 		.4byte	.LVL63
 11543 0451 D4010000 		.4byte	.LVL64
 11544 0455 0100     		.2byte	0x1
 11545 0457 56       		.byte	0x56
 11546 0458 00000000 		.4byte	0
 11547 045c 00000000 		.4byte	0
 11548              	.LLST49:
 11549 0460 D4010000 		.4byte	.LVL64
 11550 0464 E0010000 		.4byte	.LVL66
 11551 0468 0100     		.2byte	0x1
 11552 046a 50       		.byte	0x50
 11553 046b 4C020000 		.4byte	.LVL84
 11554 046f 5A020000 		.4byte	.LVL86
 11555 0473 0100     		.2byte	0x1
 11556 0475 50       		.byte	0x50
 11557 0476 BC020000 		.4byte	.LVL101
 11558 047a DE020000 		.4byte	.LFE165
 11559 047e 0100     		.2byte	0x1
 11560 0480 50       		.byte	0x50
 11561 0481 00000000 		.4byte	0
 11562 0485 00000000 		.4byte	0
 11563              	.LLST50:
 11564 0489 DA010000 		.4byte	.LVL65
 11565 048d E6010000 		.4byte	.LVL68
 11566 0491 0100     		.2byte	0x1
 11567 0493 55       		.byte	0x55
 11568 0494 00000000 		.4byte	0
 11569 0498 00000000 		.4byte	0
ARM GAS  C:\Users\haske\AppData\Local\Temp\cc4f9rxb.s 			page 225


 11570              	.LLST51:
 11571 049c DA010000 		.4byte	.LVL65
 11572 04a0 E6010000 		.4byte	.LVL68
 11573 04a4 0100     		.2byte	0x1
 11574 04a6 56       		.byte	0x56
 11575 04a7 00000000 		.4byte	0
 11576 04ab 00000000 		.4byte	0
 11577              	.LLST52:
 11578 04af F6010000 		.4byte	.LVL70
 11579 04b3 00020000 		.4byte	.LVL71
 11580 04b7 0100     		.2byte	0x1
 11581 04b9 55       		.byte	0x55
 11582 04ba 00000000 		.4byte	0
 11583 04be 00000000 		.4byte	0
 11584              	.LLST53:
 11585 04c2 F6010000 		.4byte	.LVL70
 11586 04c6 00020000 		.4byte	.LVL71
 11587 04ca 0100     		.2byte	0x1
 11588 04cc 56       		.byte	0x56
 11589 04cd 00000000 		.4byte	0
 11590 04d1 00000000 		.4byte	0
 11591              	.LLST54:
 11592 04d5 00020000 		.4byte	.LVL71
 11593 04d9 08020000 		.4byte	.LVL73
 11594 04dd 0100     		.2byte	0x1
 11595 04df 50       		.byte	0x50
 11596 04e0 00000000 		.4byte	0
 11597 04e4 00000000 		.4byte	0
 11598              	.LLST55:
 11599 04e8 02020000 		.4byte	.LVL72
 11600 04ec 16020000 		.4byte	.LVL75
 11601 04f0 0100     		.2byte	0x1
 11602 04f2 55       		.byte	0x55
 11603 04f3 00000000 		.4byte	0
 11604 04f7 00000000 		.4byte	0
 11605              	.LLST56:
 11606 04fb 02020000 		.4byte	.LVL72
 11607 04ff 16020000 		.4byte	.LVL75
 11608 0503 0100     		.2byte	0x1
 11609 0505 56       		.byte	0x56
 11610 0506 00000000 		.4byte	0
 11611 050a 00000000 		.4byte	0
 11612              	.LLST57:
 11613 050e 1A020000 		.4byte	.LVL76
 11614 0512 2E020000 		.4byte	.LVL78
 11615 0516 0100     		.2byte	0x1
 11616 0518 55       		.byte	0x55
 11617 0519 00000000 		.4byte	0
 11618 051d 00000000 		.4byte	0
 11619              	.LLST58:
 11620 0521 1A020000 		.4byte	.LVL76
 11621 0525 2E020000 		.4byte	.LVL78
 11622 0529 0100     		.2byte	0x1
 11623 052b 56       		.byte	0x56
 11624 052c 00000000 		.4byte	0
 11625 0530 00000000 		.4byte	0
 11626              	.LLST59:
ARM GAS  C:\Users\haske\AppData\Local\Temp\cc4f9rxb.s 			page 226


 11627 0534 30020000 		.4byte	.LVL79
 11628 0538 3A020000 		.4byte	.LVL80
 11629 053c 0100     		.2byte	0x1
 11630 053e 55       		.byte	0x55
 11631 053f 00000000 		.4byte	0
 11632 0543 00000000 		.4byte	0
 11633              	.LLST60:
 11634 0547 30020000 		.4byte	.LVL79
 11635 054b 3A020000 		.4byte	.LVL80
 11636 054f 0100     		.2byte	0x1
 11637 0551 56       		.byte	0x56
 11638 0552 00000000 		.4byte	0
 11639 0556 00000000 		.4byte	0
 11640              	.LLST61:
 11641 055a 3C020000 		.4byte	.LVL81
 11642 055e 4A020000 		.4byte	.LVL83
 11643 0562 0100     		.2byte	0x1
 11644 0564 55       		.byte	0x55
 11645 0565 00000000 		.4byte	0
 11646 0569 00000000 		.4byte	0
 11647              	.LLST62:
 11648 056d 3C020000 		.4byte	.LVL81
 11649 0571 4A020000 		.4byte	.LVL83
 11650 0575 0100     		.2byte	0x1
 11651 0577 56       		.byte	0x56
 11652 0578 00000000 		.4byte	0
 11653 057c 00000000 		.4byte	0
 11654              	.LLST63:
 11655 0580 46020000 		.4byte	.LVL82
 11656 0584 4A020000 		.4byte	.LVL83
 11657 0588 0100     		.2byte	0x1
 11658 058a 50       		.byte	0x50
 11659 058b 00000000 		.4byte	0
 11660 058f 00000000 		.4byte	0
 11661              	.LLST64:
 11662 0593 54020000 		.4byte	.LVL85
 11663 0597 60020000 		.4byte	.LVL88
 11664 059b 0100     		.2byte	0x1
 11665 059d 55       		.byte	0x55
 11666 059e 00000000 		.4byte	0
 11667 05a2 00000000 		.4byte	0
 11668              	.LLST65:
 11669 05a6 54020000 		.4byte	.LVL85
 11670 05aa 60020000 		.4byte	.LVL88
 11671 05ae 0100     		.2byte	0x1
 11672 05b0 56       		.byte	0x56
 11673 05b1 00000000 		.4byte	0
 11674 05b5 00000000 		.4byte	0
 11675              	.LLST66:
 11676 05b9 6E020000 		.4byte	.LVL89
 11677 05bd 7A020000 		.4byte	.LVL91
 11678 05c1 0100     		.2byte	0x1
 11679 05c3 55       		.byte	0x55
 11680 05c4 00000000 		.4byte	0
 11681 05c8 00000000 		.4byte	0
 11682              	.LLST67:
 11683 05cc 6E020000 		.4byte	.LVL89
ARM GAS  C:\Users\haske\AppData\Local\Temp\cc4f9rxb.s 			page 227


 11684 05d0 7A020000 		.4byte	.LVL91
 11685 05d4 0100     		.2byte	0x1
 11686 05d6 56       		.byte	0x56
 11687 05d7 00000000 		.4byte	0
 11688 05db 00000000 		.4byte	0
 11689              	.LLST68:
 11690 05df 82020000 		.4byte	.LVL92
 11691 05e3 8C020000 		.4byte	.LVL93
 11692 05e7 0100     		.2byte	0x1
 11693 05e9 55       		.byte	0x55
 11694 05ea 00000000 		.4byte	0
 11695 05ee 00000000 		.4byte	0
 11696              	.LLST69:
 11697 05f2 82020000 		.4byte	.LVL92
 11698 05f6 8C020000 		.4byte	.LVL93
 11699 05fa 0100     		.2byte	0x1
 11700 05fc 56       		.byte	0x56
 11701 05fd 00000000 		.4byte	0
 11702 0601 00000000 		.4byte	0
 11703              	.LLST70:
 11704 0605 8E020000 		.4byte	.LVL94
 11705 0609 98020000 		.4byte	.LVL95
 11706 060d 0100     		.2byte	0x1
 11707 060f 55       		.byte	0x55
 11708 0610 00000000 		.4byte	0
 11709 0614 00000000 		.4byte	0
 11710              	.LLST71:
 11711 0618 8E020000 		.4byte	.LVL94
 11712 061c 98020000 		.4byte	.LVL95
 11713 0620 0100     		.2byte	0x1
 11714 0622 56       		.byte	0x56
 11715 0623 00000000 		.4byte	0
 11716 0627 00000000 		.4byte	0
 11717              	.LLST72:
 11718 062b 9A020000 		.4byte	.LVL96
 11719 062f A4020000 		.4byte	.LVL97
 11720 0633 0100     		.2byte	0x1
 11721 0635 55       		.byte	0x55
 11722 0636 00000000 		.4byte	0
 11723 063a 00000000 		.4byte	0
 11724              	.LLST73:
 11725 063e 9A020000 		.4byte	.LVL96
 11726 0642 A4020000 		.4byte	.LVL97
 11727 0646 0100     		.2byte	0x1
 11728 0648 56       		.byte	0x56
 11729 0649 00000000 		.4byte	0
 11730 064d 00000000 		.4byte	0
 11731              	.LLST74:
 11732 0651 A6020000 		.4byte	.LVL98
 11733 0655 BA020000 		.4byte	.LVL100
 11734 0659 0100     		.2byte	0x1
 11735 065b 55       		.byte	0x55
 11736 065c 00000000 		.4byte	0
 11737 0660 00000000 		.4byte	0
 11738              	.LLST75:
 11739 0664 A6020000 		.4byte	.LVL98
 11740 0668 BA020000 		.4byte	.LVL100
ARM GAS  C:\Users\haske\AppData\Local\Temp\cc4f9rxb.s 			page 228


 11741 066c 0100     		.2byte	0x1
 11742 066e 56       		.byte	0x56
 11743 066f 00000000 		.4byte	0
 11744 0673 00000000 		.4byte	0
 11745              	.LLST76:
 11746 0677 00000000 		.4byte	.LVL106
 11747 067b 0D000000 		.4byte	.LVL109-1
 11748 067f 0100     		.2byte	0x1
 11749 0681 50       		.byte	0x50
 11750 0682 0D000000 		.4byte	.LVL109-1
 11751 0686 BC000000 		.4byte	.LVL136
 11752 068a 0100     		.2byte	0x1
 11753 068c 56       		.byte	0x56
 11754 068d BC000000 		.4byte	.LVL136
 11755 0691 BE000000 		.4byte	.LFE166
 11756 0695 0400     		.2byte	0x4
 11757 0697 F3       		.byte	0xf3
 11758 0698 01       		.uleb128 0x1
 11759 0699 50       		.byte	0x50
 11760 069a 9F       		.byte	0x9f
 11761 069b 00000000 		.4byte	0
 11762 069f 00000000 		.4byte	0
 11763              	.LLST77:
 11764 06a3 00000000 		.4byte	.LVL106
 11765 06a7 0D000000 		.4byte	.LVL109-1
 11766 06ab 0100     		.2byte	0x1
 11767 06ad 51       		.byte	0x51
 11768 06ae 0D000000 		.4byte	.LVL109-1
 11769 06b2 BC000000 		.4byte	.LVL134
 11770 06b6 0100     		.2byte	0x1
 11771 06b8 54       		.byte	0x54
 11772 06b9 BC000000 		.4byte	.LVL134
 11773 06bd BE000000 		.4byte	.LFE166
 11774 06c1 0400     		.2byte	0x4
 11775 06c3 F3       		.byte	0xf3
 11776 06c4 01       		.uleb128 0x1
 11777 06c5 51       		.byte	0x51
 11778 06c6 9F       		.byte	0x9f
 11779 06c7 00000000 		.4byte	0
 11780 06cb 00000000 		.4byte	0
 11781              	.LLST78:
 11782 06cf 00000000 		.4byte	.LVL106
 11783 06d3 0A000000 		.4byte	.LVL108
 11784 06d7 0100     		.2byte	0x1
 11785 06d9 52       		.byte	0x52
 11786 06da 0A000000 		.4byte	.LVL108
 11787 06de BC000000 		.4byte	.LVL135
 11788 06e2 0100     		.2byte	0x1
 11789 06e4 55       		.byte	0x55
 11790 06e5 BC000000 		.4byte	.LVL135
 11791 06e9 BE000000 		.4byte	.LFE166
 11792 06ed 0400     		.2byte	0x4
 11793 06ef F3       		.byte	0xf3
 11794 06f0 01       		.uleb128 0x1
 11795 06f1 52       		.byte	0x52
 11796 06f2 9F       		.byte	0x9f
 11797 06f3 00000000 		.4byte	0
ARM GAS  C:\Users\haske\AppData\Local\Temp\cc4f9rxb.s 			page 229


 11798 06f7 00000000 		.4byte	0
 11799              	.LLST79:
 11800 06fb 08000000 		.4byte	.LVL107
 11801 06ff 0D000000 		.4byte	.LVL109-1
 11802 0703 0100     		.2byte	0x1
 11803 0705 51       		.byte	0x51
 11804 0706 0D000000 		.4byte	.LVL109-1
 11805 070a 10000000 		.4byte	.LVL110
 11806 070e 0100     		.2byte	0x1
 11807 0710 54       		.byte	0x54
 11808 0711 00000000 		.4byte	0
 11809 0715 00000000 		.4byte	0
 11810              	.LLST80:
 11811 0719 08000000 		.4byte	.LVL107
 11812 071d 0D000000 		.4byte	.LVL109-1
 11813 0721 0100     		.2byte	0x1
 11814 0723 50       		.byte	0x50
 11815 0724 0D000000 		.4byte	.LVL109-1
 11816 0728 10000000 		.4byte	.LVL110
 11817 072c 0100     		.2byte	0x1
 11818 072e 56       		.byte	0x56
 11819 072f 00000000 		.4byte	0
 11820 0733 00000000 		.4byte	0
 11821              	.LLST81:
 11822 0737 1A000000 		.4byte	.LVL111
 11823 073b 26000000 		.4byte	.LVL113
 11824 073f 0100     		.2byte	0x1
 11825 0741 54       		.byte	0x54
 11826 0742 00000000 		.4byte	0
 11827 0746 00000000 		.4byte	0
 11828              	.LLST82:
 11829 074a 1A000000 		.4byte	.LVL111
 11830 074e 26000000 		.4byte	.LVL113
 11831 0752 0100     		.2byte	0x1
 11832 0754 56       		.byte	0x56
 11833 0755 00000000 		.4byte	0
 11834 0759 00000000 		.4byte	0
 11835              	.LLST83:
 11836 075d 40000000 		.4byte	.LVL114
 11837 0761 54000000 		.4byte	.LVL116
 11838 0765 0100     		.2byte	0x1
 11839 0767 54       		.byte	0x54
 11840 0768 00000000 		.4byte	0
 11841 076c 00000000 		.4byte	0
 11842              	.LLST84:
 11843 0770 40000000 		.4byte	.LVL114
 11844 0774 54000000 		.4byte	.LVL116
 11845 0778 0100     		.2byte	0x1
 11846 077a 56       		.byte	0x56
 11847 077b 00000000 		.4byte	0
 11848 077f 00000000 		.4byte	0
 11849              	.LLST85:
 11850 0783 56000000 		.4byte	.LVL117
 11851 0787 60000000 		.4byte	.LVL118
 11852 078b 0100     		.2byte	0x1
 11853 078d 54       		.byte	0x54
 11854 078e 00000000 		.4byte	0
ARM GAS  C:\Users\haske\AppData\Local\Temp\cc4f9rxb.s 			page 230


 11855 0792 00000000 		.4byte	0
 11856              	.LLST86:
 11857 0796 56000000 		.4byte	.LVL117
 11858 079a 60000000 		.4byte	.LVL118
 11859 079e 0100     		.2byte	0x1
 11860 07a0 56       		.byte	0x56
 11861 07a1 00000000 		.4byte	0
 11862 07a5 00000000 		.4byte	0
 11863              	.LLST87:
 11864 07a9 62000000 		.4byte	.LVL119
 11865 07ad 6C000000 		.4byte	.LVL120
 11866 07b1 0100     		.2byte	0x1
 11867 07b3 54       		.byte	0x54
 11868 07b4 00000000 		.4byte	0
 11869 07b8 00000000 		.4byte	0
 11870              	.LLST88:
 11871 07bc 62000000 		.4byte	.LVL119
 11872 07c0 6C000000 		.4byte	.LVL120
 11873 07c4 0100     		.2byte	0x1
 11874 07c6 56       		.byte	0x56
 11875 07c7 00000000 		.4byte	0
 11876 07cb 00000000 		.4byte	0
 11877              	.LLST89:
 11878 07cf 6E000000 		.4byte	.LVL121
 11879 07d3 78000000 		.4byte	.LVL122
 11880 07d7 0100     		.2byte	0x1
 11881 07d9 54       		.byte	0x54
 11882 07da 00000000 		.4byte	0
 11883 07de 00000000 		.4byte	0
 11884              	.LLST90:
 11885 07e2 6E000000 		.4byte	.LVL121
 11886 07e6 78000000 		.4byte	.LVL122
 11887 07ea 0100     		.2byte	0x1
 11888 07ec 56       		.byte	0x56
 11889 07ed 00000000 		.4byte	0
 11890 07f1 00000000 		.4byte	0
 11891              	.LLST91:
 11892 07f5 7A000000 		.4byte	.LVL123
 11893 07f9 7C000000 		.4byte	.LVL124
 11894 07fd 0100     		.2byte	0x1
 11895 07ff 50       		.byte	0x50
 11896 0800 00000000 		.4byte	0
 11897 0804 00000000 		.4byte	0
 11898              	.LLST92:
 11899 0808 8A000000 		.4byte	.LVL125
 11900 080c 94000000 		.4byte	.LVL126
 11901 0810 0100     		.2byte	0x1
 11902 0812 54       		.byte	0x54
 11903 0813 00000000 		.4byte	0
 11904 0817 00000000 		.4byte	0
 11905              	.LLST93:
 11906 081b 8A000000 		.4byte	.LVL125
 11907 081f 94000000 		.4byte	.LVL126
 11908 0823 0100     		.2byte	0x1
 11909 0825 56       		.byte	0x56
 11910 0826 00000000 		.4byte	0
 11911 082a 00000000 		.4byte	0
ARM GAS  C:\Users\haske\AppData\Local\Temp\cc4f9rxb.s 			page 231


 11912              	.LLST94:
 11913 082e 96000000 		.4byte	.LVL127
 11914 0832 98000000 		.4byte	.LVL128
 11915 0836 0100     		.2byte	0x1
 11916 0838 50       		.byte	0x50
 11917 0839 00000000 		.4byte	0
 11918 083d 00000000 		.4byte	0
 11919              	.LLST95:
 11920 0841 A4000000 		.4byte	.LVL129
 11921 0845 AE000000 		.4byte	.LVL130
 11922 0849 0100     		.2byte	0x1
 11923 084b 54       		.byte	0x54
 11924 084c 00000000 		.4byte	0
 11925 0850 00000000 		.4byte	0
 11926              	.LLST96:
 11927 0854 A4000000 		.4byte	.LVL129
 11928 0858 AE000000 		.4byte	.LVL130
 11929 085c 0100     		.2byte	0x1
 11930 085e 56       		.byte	0x56
 11931 085f 00000000 		.4byte	0
 11932 0863 00000000 		.4byte	0
 11933              	.LLST97:
 11934 0867 AE000000 		.4byte	.LVL130
 11935 086b B6000000 		.4byte	.LVL132
 11936 086f 0100     		.2byte	0x1
 11937 0871 50       		.byte	0x50
 11938 0872 00000000 		.4byte	0
 11939 0876 00000000 		.4byte	0
 11940              	.LLST98:
 11941 087a B0000000 		.4byte	.LVL131
 11942 087e BA000000 		.4byte	.LVL133
 11943 0882 0100     		.2byte	0x1
 11944 0884 54       		.byte	0x54
 11945 0885 00000000 		.4byte	0
 11946 0889 00000000 		.4byte	0
 11947              	.LLST99:
 11948 088d B0000000 		.4byte	.LVL131
 11949 0891 BA000000 		.4byte	.LVL133
 11950 0895 0100     		.2byte	0x1
 11951 0897 56       		.byte	0x56
 11952 0898 00000000 		.4byte	0
 11953 089c 00000000 		.4byte	0
 11954              	.LLST100:
 11955 08a0 00000000 		.4byte	.LVL137
 11956 08a4 0D000000 		.4byte	.LVL140-1
 11957 08a8 0100     		.2byte	0x1
 11958 08aa 50       		.byte	0x50
 11959 08ab 0D000000 		.4byte	.LVL140-1
 11960 08af BA000000 		.4byte	.LVL159
 11961 08b3 0100     		.2byte	0x1
 11962 08b5 54       		.byte	0x54
 11963 08b6 BA000000 		.4byte	.LVL159
 11964 08ba BC000000 		.4byte	.LFE167
 11965 08be 0400     		.2byte	0x4
 11966 08c0 F3       		.byte	0xf3
 11967 08c1 01       		.uleb128 0x1
 11968 08c2 50       		.byte	0x50
ARM GAS  C:\Users\haske\AppData\Local\Temp\cc4f9rxb.s 			page 232


 11969 08c3 9F       		.byte	0x9f
 11970 08c4 00000000 		.4byte	0
 11971 08c8 00000000 		.4byte	0
 11972              	.LLST101:
 11973 08cc 00000000 		.4byte	.LVL137
 11974 08d0 0D000000 		.4byte	.LVL140-1
 11975 08d4 0100     		.2byte	0x1
 11976 08d6 51       		.byte	0x51
 11977 08d7 0D000000 		.4byte	.LVL140-1
 11978 08db BA000000 		.4byte	.LVL160
 11979 08df 0100     		.2byte	0x1
 11980 08e1 55       		.byte	0x55
 11981 08e2 BA000000 		.4byte	.LVL160
 11982 08e6 BC000000 		.4byte	.LFE167
 11983 08ea 0400     		.2byte	0x4
 11984 08ec F3       		.byte	0xf3
 11985 08ed 01       		.uleb128 0x1
 11986 08ee 51       		.byte	0x51
 11987 08ef 9F       		.byte	0x9f
 11988 08f0 00000000 		.4byte	0
 11989 08f4 00000000 		.4byte	0
 11990              	.LLST102:
 11991 08f8 00000000 		.4byte	.LVL137
 11992 08fc 0A000000 		.4byte	.LVL139
 11993 0900 0100     		.2byte	0x1
 11994 0902 52       		.byte	0x52
 11995 0903 0A000000 		.4byte	.LVL139
 11996 0907 BA000000 		.4byte	.LVL161
 11997 090b 0100     		.2byte	0x1
 11998 090d 56       		.byte	0x56
 11999 090e BA000000 		.4byte	.LVL161
 12000 0912 BC000000 		.4byte	.LFE167
 12001 0916 0400     		.2byte	0x4
 12002 0918 F3       		.byte	0xf3
 12003 0919 01       		.uleb128 0x1
 12004 091a 52       		.byte	0x52
 12005 091b 9F       		.byte	0x9f
 12006 091c 00000000 		.4byte	0
 12007 0920 00000000 		.4byte	0
 12008              	.LLST103:
 12009 0924 08000000 		.4byte	.LVL138
 12010 0928 0D000000 		.4byte	.LVL140-1
 12011 092c 0100     		.2byte	0x1
 12012 092e 51       		.byte	0x51
 12013 092f 0D000000 		.4byte	.LVL140-1
 12014 0933 10000000 		.4byte	.LVL141
 12015 0937 0100     		.2byte	0x1
 12016 0939 55       		.byte	0x55
 12017 093a 00000000 		.4byte	0
 12018 093e 00000000 		.4byte	0
 12019              	.LLST104:
 12020 0942 08000000 		.4byte	.LVL138
 12021 0946 0D000000 		.4byte	.LVL140-1
 12022 094a 0100     		.2byte	0x1
 12023 094c 50       		.byte	0x50
 12024 094d 0D000000 		.4byte	.LVL140-1
 12025 0951 10000000 		.4byte	.LVL141
ARM GAS  C:\Users\haske\AppData\Local\Temp\cc4f9rxb.s 			page 233


 12026 0955 0100     		.2byte	0x1
 12027 0957 54       		.byte	0x54
 12028 0958 00000000 		.4byte	0
 12029 095c 00000000 		.4byte	0
 12030              	.LLST105:
 12031 0960 1A000000 		.4byte	.LVL142
 12032 0964 26000000 		.4byte	.LVL144
 12033 0968 0100     		.2byte	0x1
 12034 096a 55       		.byte	0x55
 12035 096b 00000000 		.4byte	0
 12036 096f 00000000 		.4byte	0
 12037              	.LLST106:
 12038 0973 1A000000 		.4byte	.LVL142
 12039 0977 26000000 		.4byte	.LVL144
 12040 097b 0100     		.2byte	0x1
 12041 097d 54       		.byte	0x54
 12042 097e 00000000 		.4byte	0
 12043 0982 00000000 		.4byte	0
 12044              	.LLST107:
 12045 0986 4A000000 		.4byte	.LVL145
 12046 098a 58000000 		.4byte	.LVL146
 12047 098e 0300     		.2byte	0x3
 12048 0990 74       		.byte	0x74
 12049 0991 14       		.sleb128 20
 12050 0992 9F       		.byte	0x9f
 12051 0993 00000000 		.4byte	0
 12052 0997 00000000 		.4byte	0
 12053              	.LLST108:
 12054 099b 60000000 		.4byte	.LVL147
 12055 099f 6E000000 		.4byte	.LVL148
 12056 09a3 0300     		.2byte	0x3
 12057 09a5 74       		.byte	0x74
 12058 09a6 14       		.sleb128 20
 12059 09a7 9F       		.byte	0x9f
 12060 09a8 00000000 		.4byte	0
 12061 09ac 00000000 		.4byte	0
 12062              	.LLST109:
 12063 09b0 76000000 		.4byte	.LVL149
 12064 09b4 82000000 		.4byte	.LVL151
 12065 09b8 0100     		.2byte	0x1
 12066 09ba 55       		.byte	0x55
 12067 09bb 00000000 		.4byte	0
 12068 09bf 00000000 		.4byte	0
 12069              	.LLST110:
 12070 09c3 76000000 		.4byte	.LVL149
 12071 09c7 82000000 		.4byte	.LVL151
 12072 09cb 0100     		.2byte	0x1
 12073 09cd 54       		.byte	0x54
 12074 09ce 00000000 		.4byte	0
 12075 09d2 00000000 		.4byte	0
 12076              	.LLST111:
 12077 09d6 88000000 		.4byte	.LVL152
 12078 09da 9C000000 		.4byte	.LVL154
 12079 09de 0100     		.2byte	0x1
 12080 09e0 55       		.byte	0x55
 12081 09e1 00000000 		.4byte	0
 12082 09e5 00000000 		.4byte	0
ARM GAS  C:\Users\haske\AppData\Local\Temp\cc4f9rxb.s 			page 234


 12083              	.LLST112:
 12084 09e9 88000000 		.4byte	.LVL152
 12085 09ed 9C000000 		.4byte	.LVL154
 12086 09f1 0100     		.2byte	0x1
 12087 09f3 54       		.byte	0x54
 12088 09f4 00000000 		.4byte	0
 12089 09f8 00000000 		.4byte	0
 12090              	.LLST113:
 12091 09fc A2000000 		.4byte	.LVL155
 12092 0a00 AC000000 		.4byte	.LVL156
 12093 0a04 0100     		.2byte	0x1
 12094 0a06 55       		.byte	0x55
 12095 0a07 00000000 		.4byte	0
 12096 0a0b 00000000 		.4byte	0
 12097              	.LLST114:
 12098 0a0f A2000000 		.4byte	.LVL155
 12099 0a13 AC000000 		.4byte	.LVL156
 12100 0a17 0100     		.2byte	0x1
 12101 0a19 54       		.byte	0x54
 12102 0a1a 00000000 		.4byte	0
 12103 0a1e 00000000 		.4byte	0
 12104              	.LLST115:
 12105 0a22 AE000000 		.4byte	.LVL157
 12106 0a26 B0000000 		.4byte	.LVL158
 12107 0a2a 0100     		.2byte	0x1
 12108 0a2c 50       		.byte	0x50
 12109 0a2d 00000000 		.4byte	0
 12110 0a31 00000000 		.4byte	0
 12111              	.LLST116:
 12112 0a35 00000000 		.4byte	.LVL162
 12113 0a39 0D000000 		.4byte	.LVL165-1
 12114 0a3d 0100     		.2byte	0x1
 12115 0a3f 50       		.byte	0x50
 12116 0a40 0D000000 		.4byte	.LVL165-1
 12117 0a44 C4000000 		.4byte	.LVL189
 12118 0a48 0100     		.2byte	0x1
 12119 0a4a 55       		.byte	0x55
 12120 0a4b C4000000 		.4byte	.LVL189
 12121 0a4f C6000000 		.4byte	.LFE168
 12122 0a53 0400     		.2byte	0x4
 12123 0a55 F3       		.byte	0xf3
 12124 0a56 01       		.uleb128 0x1
 12125 0a57 50       		.byte	0x50
 12126 0a58 9F       		.byte	0x9f
 12127 0a59 00000000 		.4byte	0
 12128 0a5d 00000000 		.4byte	0
 12129              	.LLST117:
 12130 0a61 00000000 		.4byte	.LVL162
 12131 0a65 0D000000 		.4byte	.LVL165-1
 12132 0a69 0100     		.2byte	0x1
 12133 0a6b 51       		.byte	0x51
 12134 0a6c 0D000000 		.4byte	.LVL165-1
 12135 0a70 C4000000 		.4byte	.LVL188
 12136 0a74 0100     		.2byte	0x1
 12137 0a76 54       		.byte	0x54
 12138 0a77 C4000000 		.4byte	.LVL188
 12139 0a7b C6000000 		.4byte	.LFE168
ARM GAS  C:\Users\haske\AppData\Local\Temp\cc4f9rxb.s 			page 235


 12140 0a7f 0400     		.2byte	0x4
 12141 0a81 F3       		.byte	0xf3
 12142 0a82 01       		.uleb128 0x1
 12143 0a83 51       		.byte	0x51
 12144 0a84 9F       		.byte	0x9f
 12145 0a85 00000000 		.4byte	0
 12146 0a89 00000000 		.4byte	0
 12147              	.LLST118:
 12148 0a8d 00000000 		.4byte	.LVL162
 12149 0a91 0A000000 		.4byte	.LVL164
 12150 0a95 0100     		.2byte	0x1
 12151 0a97 52       		.byte	0x52
 12152 0a98 0A000000 		.4byte	.LVL164
 12153 0a9c C4000000 		.4byte	.LVL190
 12154 0aa0 0100     		.2byte	0x1
 12155 0aa2 56       		.byte	0x56
 12156 0aa3 C4000000 		.4byte	.LVL190
 12157 0aa7 C6000000 		.4byte	.LFE168
 12158 0aab 0400     		.2byte	0x4
 12159 0aad F3       		.byte	0xf3
 12160 0aae 01       		.uleb128 0x1
 12161 0aaf 52       		.byte	0x52
 12162 0ab0 9F       		.byte	0x9f
 12163 0ab1 00000000 		.4byte	0
 12164 0ab5 00000000 		.4byte	0
 12165              	.LLST119:
 12166 0ab9 08000000 		.4byte	.LVL163
 12167 0abd 0D000000 		.4byte	.LVL165-1
 12168 0ac1 0100     		.2byte	0x1
 12169 0ac3 51       		.byte	0x51
 12170 0ac4 0D000000 		.4byte	.LVL165-1
 12171 0ac8 10000000 		.4byte	.LVL166
 12172 0acc 0100     		.2byte	0x1
 12173 0ace 54       		.byte	0x54
 12174 0acf 00000000 		.4byte	0
 12175 0ad3 00000000 		.4byte	0
 12176              	.LLST120:
 12177 0ad7 08000000 		.4byte	.LVL163
 12178 0adb 0D000000 		.4byte	.LVL165-1
 12179 0adf 0100     		.2byte	0x1
 12180 0ae1 50       		.byte	0x50
 12181 0ae2 0D000000 		.4byte	.LVL165-1
 12182 0ae6 10000000 		.4byte	.LVL166
 12183 0aea 0100     		.2byte	0x1
 12184 0aec 55       		.byte	0x55
 12185 0aed 00000000 		.4byte	0
 12186 0af1 00000000 		.4byte	0
 12187              	.LLST121:
 12188 0af5 1A000000 		.4byte	.LVL167
 12189 0af9 26000000 		.4byte	.LVL169
 12190 0afd 0100     		.2byte	0x1
 12191 0aff 54       		.byte	0x54
 12192 0b00 00000000 		.4byte	0
 12193 0b04 00000000 		.4byte	0
 12194              	.LLST122:
 12195 0b08 1A000000 		.4byte	.LVL167
 12196 0b0c 26000000 		.4byte	.LVL169
ARM GAS  C:\Users\haske\AppData\Local\Temp\cc4f9rxb.s 			page 236


 12197 0b10 0100     		.2byte	0x1
 12198 0b12 55       		.byte	0x55
 12199 0b13 00000000 		.4byte	0
 12200 0b17 00000000 		.4byte	0
 12201              	.LLST123:
 12202 0b1b 40000000 		.4byte	.LVL170
 12203 0b1f 4C000000 		.4byte	.LVL172
 12204 0b23 0100     		.2byte	0x1
 12205 0b25 54       		.byte	0x54
 12206 0b26 00000000 		.4byte	0
 12207 0b2a 00000000 		.4byte	0
 12208              	.LLST124:
 12209 0b2e 40000000 		.4byte	.LVL170
 12210 0b32 4C000000 		.4byte	.LVL172
 12211 0b36 0100     		.2byte	0x1
 12212 0b38 55       		.byte	0x55
 12213 0b39 00000000 		.4byte	0
 12214 0b3d 00000000 		.4byte	0
 12215              	.LLST125:
 12216 0b41 52000000 		.4byte	.LVL173
 12217 0b45 66000000 		.4byte	.LVL175
 12218 0b49 0100     		.2byte	0x1
 12219 0b4b 54       		.byte	0x54
 12220 0b4c 00000000 		.4byte	0
 12221 0b50 00000000 		.4byte	0
 12222              	.LLST126:
 12223 0b54 52000000 		.4byte	.LVL173
 12224 0b58 66000000 		.4byte	.LVL175
 12225 0b5c 0100     		.2byte	0x1
 12226 0b5e 55       		.byte	0x55
 12227 0b5f 00000000 		.4byte	0
 12228 0b63 00000000 		.4byte	0
 12229              	.LLST127:
 12230 0b67 68000000 		.4byte	.LVL176
 12231 0b6b 74000000 		.4byte	.LVL178
 12232 0b6f 0100     		.2byte	0x1
 12233 0b71 54       		.byte	0x54
 12234 0b72 00000000 		.4byte	0
 12235 0b76 00000000 		.4byte	0
 12236              	.LLST128:
 12237 0b7a 68000000 		.4byte	.LVL176
 12238 0b7e 74000000 		.4byte	.LVL178
 12239 0b82 0100     		.2byte	0x1
 12240 0b84 55       		.byte	0x55
 12241 0b85 00000000 		.4byte	0
 12242 0b89 00000000 		.4byte	0
 12243              	.LLST129:
 12244 0b8d 7A000000 		.4byte	.LVL179
 12245 0b91 84000000 		.4byte	.LVL180
 12246 0b95 0100     		.2byte	0x1
 12247 0b97 54       		.byte	0x54
 12248 0b98 00000000 		.4byte	0
 12249 0b9c 00000000 		.4byte	0
 12250              	.LLST130:
 12251 0ba0 7A000000 		.4byte	.LVL179
 12252 0ba4 84000000 		.4byte	.LVL180
 12253 0ba8 0100     		.2byte	0x1
ARM GAS  C:\Users\haske\AppData\Local\Temp\cc4f9rxb.s 			page 237


 12254 0baa 55       		.byte	0x55
 12255 0bab 00000000 		.4byte	0
 12256 0baf 00000000 		.4byte	0
 12257              	.LLST131:
 12258 0bb3 86000000 		.4byte	.LVL181
 12259 0bb7 90000000 		.4byte	.LVL182
 12260 0bbb 0100     		.2byte	0x1
 12261 0bbd 54       		.byte	0x54
 12262 0bbe 00000000 		.4byte	0
 12263 0bc2 00000000 		.4byte	0
 12264              	.LLST132:
 12265 0bc6 86000000 		.4byte	.LVL181
 12266 0bca 90000000 		.4byte	.LVL182
 12267 0bce 0100     		.2byte	0x1
 12268 0bd0 55       		.byte	0x55
 12269 0bd1 00000000 		.4byte	0
 12270 0bd5 00000000 		.4byte	0
 12271              	.LLST133:
 12272 0bd9 90000000 		.4byte	.LVL182
 12273 0bdd 94000000 		.4byte	.LVL183
 12274 0be1 0100     		.2byte	0x1
 12275 0be3 50       		.byte	0x50
 12276 0be4 00000000 		.4byte	0
 12277 0be8 00000000 		.4byte	0
 12278              	.LLST134:
 12279 0bec AC000000 		.4byte	.LVL184
 12280 0bf0 B6000000 		.4byte	.LVL185
 12281 0bf4 0100     		.2byte	0x1
 12282 0bf6 54       		.byte	0x54
 12283 0bf7 00000000 		.4byte	0
 12284 0bfb 00000000 		.4byte	0
 12285              	.LLST135:
 12286 0bff AC000000 		.4byte	.LVL184
 12287 0c03 B6000000 		.4byte	.LVL185
 12288 0c07 0100     		.2byte	0x1
 12289 0c09 55       		.byte	0x55
 12290 0c0a 00000000 		.4byte	0
 12291 0c0e 00000000 		.4byte	0
 12292              	.LLST136:
 12293 0c12 B8000000 		.4byte	.LVL186
 12294 0c16 BA000000 		.4byte	.LVL187
 12295 0c1a 0100     		.2byte	0x1
 12296 0c1c 50       		.byte	0x50
 12297 0c1d 00000000 		.4byte	0
 12298 0c21 00000000 		.4byte	0
 12299              	.LLST137:
 12300 0c25 00000000 		.4byte	.LVL191
 12301 0c29 0D000000 		.4byte	.LVL194-1
 12302 0c2d 0100     		.2byte	0x1
 12303 0c2f 50       		.byte	0x50
 12304 0c30 0D000000 		.4byte	.LVL194-1
 12305 0c34 AA000000 		.4byte	.LVL216
 12306 0c38 0100     		.2byte	0x1
 12307 0c3a 55       		.byte	0x55
 12308 0c3b AA000000 		.4byte	.LVL216
 12309 0c3f AC000000 		.4byte	.LFE169
 12310 0c43 0400     		.2byte	0x4
ARM GAS  C:\Users\haske\AppData\Local\Temp\cc4f9rxb.s 			page 238


 12311 0c45 F3       		.byte	0xf3
 12312 0c46 01       		.uleb128 0x1
 12313 0c47 50       		.byte	0x50
 12314 0c48 9F       		.byte	0x9f
 12315 0c49 00000000 		.4byte	0
 12316 0c4d 00000000 		.4byte	0
 12317              	.LLST138:
 12318 0c51 00000000 		.4byte	.LVL191
 12319 0c55 0D000000 		.4byte	.LVL194-1
 12320 0c59 0100     		.2byte	0x1
 12321 0c5b 51       		.byte	0x51
 12322 0c5c 0D000000 		.4byte	.LVL194-1
 12323 0c60 AA000000 		.4byte	.LVL215
 12324 0c64 0100     		.2byte	0x1
 12325 0c66 54       		.byte	0x54
 12326 0c67 AA000000 		.4byte	.LVL215
 12327 0c6b AC000000 		.4byte	.LFE169
 12328 0c6f 0400     		.2byte	0x4
 12329 0c71 F3       		.byte	0xf3
 12330 0c72 01       		.uleb128 0x1
 12331 0c73 51       		.byte	0x51
 12332 0c74 9F       		.byte	0x9f
 12333 0c75 00000000 		.4byte	0
 12334 0c79 00000000 		.4byte	0
 12335              	.LLST139:
 12336 0c7d 00000000 		.4byte	.LVL191
 12337 0c81 0A000000 		.4byte	.LVL193
 12338 0c85 0100     		.2byte	0x1
 12339 0c87 52       		.byte	0x52
 12340 0c88 0A000000 		.4byte	.LVL193
 12341 0c8c AA000000 		.4byte	.LVL217
 12342 0c90 0100     		.2byte	0x1
 12343 0c92 56       		.byte	0x56
 12344 0c93 AA000000 		.4byte	.LVL217
 12345 0c97 AC000000 		.4byte	.LFE169
 12346 0c9b 0400     		.2byte	0x4
 12347 0c9d F3       		.byte	0xf3
 12348 0c9e 01       		.uleb128 0x1
 12349 0c9f 52       		.byte	0x52
 12350 0ca0 9F       		.byte	0x9f
 12351 0ca1 00000000 		.4byte	0
 12352 0ca5 00000000 		.4byte	0
 12353              	.LLST140:
 12354 0ca9 08000000 		.4byte	.LVL192
 12355 0cad 0D000000 		.4byte	.LVL194-1
 12356 0cb1 0100     		.2byte	0x1
 12357 0cb3 51       		.byte	0x51
 12358 0cb4 0D000000 		.4byte	.LVL194-1
 12359 0cb8 10000000 		.4byte	.LVL195
 12360 0cbc 0100     		.2byte	0x1
 12361 0cbe 54       		.byte	0x54
 12362 0cbf 00000000 		.4byte	0
 12363 0cc3 00000000 		.4byte	0
 12364              	.LLST141:
 12365 0cc7 08000000 		.4byte	.LVL192
 12366 0ccb 0D000000 		.4byte	.LVL194-1
 12367 0ccf 0100     		.2byte	0x1
ARM GAS  C:\Users\haske\AppData\Local\Temp\cc4f9rxb.s 			page 239


 12368 0cd1 50       		.byte	0x50
 12369 0cd2 0D000000 		.4byte	.LVL194-1
 12370 0cd6 10000000 		.4byte	.LVL195
 12371 0cda 0100     		.2byte	0x1
 12372 0cdc 55       		.byte	0x55
 12373 0cdd 00000000 		.4byte	0
 12374 0ce1 00000000 		.4byte	0
 12375              	.LLST142:
 12376 0ce5 16000000 		.4byte	.LVL196
 12377 0ce9 22000000 		.4byte	.LVL198
 12378 0ced 0100     		.2byte	0x1
 12379 0cef 54       		.byte	0x54
 12380 0cf0 00000000 		.4byte	0
 12381 0cf4 00000000 		.4byte	0
 12382              	.LLST143:
 12383 0cf8 16000000 		.4byte	.LVL196
 12384 0cfc 22000000 		.4byte	.LVL198
 12385 0d00 0100     		.2byte	0x1
 12386 0d02 55       		.byte	0x55
 12387 0d03 00000000 		.4byte	0
 12388 0d07 00000000 		.4byte	0
 12389              	.LLST144:
 12390 0d0b 2C000000 		.4byte	.LVL199
 12391 0d0f 38000000 		.4byte	.LVL201
 12392 0d13 0100     		.2byte	0x1
 12393 0d15 54       		.byte	0x54
 12394 0d16 00000000 		.4byte	0
 12395 0d1a 00000000 		.4byte	0
 12396              	.LLST145:
 12397 0d1e 2C000000 		.4byte	.LVL199
 12398 0d22 38000000 		.4byte	.LVL201
 12399 0d26 0100     		.2byte	0x1
 12400 0d28 55       		.byte	0x55
 12401 0d29 00000000 		.4byte	0
 12402 0d2d 00000000 		.4byte	0
 12403              	.LLST146:
 12404 0d31 52000000 		.4byte	.LVL202
 12405 0d35 66000000 		.4byte	.LVL204
 12406 0d39 0100     		.2byte	0x1
 12407 0d3b 54       		.byte	0x54
 12408 0d3c 00000000 		.4byte	0
 12409 0d40 00000000 		.4byte	0
 12410              	.LLST147:
 12411 0d44 52000000 		.4byte	.LVL202
 12412 0d48 66000000 		.4byte	.LVL204
 12413 0d4c 0100     		.2byte	0x1
 12414 0d4e 55       		.byte	0x55
 12415 0d4f 00000000 		.4byte	0
 12416 0d53 00000000 		.4byte	0
 12417              	.LLST148:
 12418 0d57 68000000 		.4byte	.LVL205
 12419 0d5b 72000000 		.4byte	.LVL206
 12420 0d5f 0100     		.2byte	0x1
 12421 0d61 54       		.byte	0x54
 12422 0d62 00000000 		.4byte	0
 12423 0d66 00000000 		.4byte	0
 12424              	.LLST149:
ARM GAS  C:\Users\haske\AppData\Local\Temp\cc4f9rxb.s 			page 240


 12425 0d6a 68000000 		.4byte	.LVL205
 12426 0d6e 72000000 		.4byte	.LVL206
 12427 0d72 0100     		.2byte	0x1
 12428 0d74 55       		.byte	0x55
 12429 0d75 00000000 		.4byte	0
 12430 0d79 00000000 		.4byte	0
 12431              	.LLST150:
 12432 0d7d 72000000 		.4byte	.LVL206
 12433 0d81 7A000000 		.4byte	.LVL208
 12434 0d85 0100     		.2byte	0x1
 12435 0d87 50       		.byte	0x50
 12436 0d88 00000000 		.4byte	0
 12437 0d8c 00000000 		.4byte	0
 12438              	.LLST151:
 12439 0d90 74000000 		.4byte	.LVL207
 12440 0d94 7E000000 		.4byte	.LVL209
 12441 0d98 0100     		.2byte	0x1
 12442 0d9a 54       		.byte	0x54
 12443 0d9b 00000000 		.4byte	0
 12444 0d9f 00000000 		.4byte	0
 12445              	.LLST152:
 12446 0da3 74000000 		.4byte	.LVL207
 12447 0da7 7E000000 		.4byte	.LVL209
 12448 0dab 0100     		.2byte	0x1
 12449 0dad 55       		.byte	0x55
 12450 0dae 00000000 		.4byte	0
 12451 0db2 00000000 		.4byte	0
 12452              	.LLST153:
 12453 0db6 7E000000 		.4byte	.LVL209
 12454 0dba 82000000 		.4byte	.LVL210
 12455 0dbe 0100     		.2byte	0x1
 12456 0dc0 50       		.byte	0x50
 12457 0dc1 00000000 		.4byte	0
 12458 0dc5 00000000 		.4byte	0
 12459              	.LLST154:
 12460 0dc9 92000000 		.4byte	.LVL211
 12461 0dcd 9C000000 		.4byte	.LVL212
 12462 0dd1 0100     		.2byte	0x1
 12463 0dd3 54       		.byte	0x54
 12464 0dd4 00000000 		.4byte	0
 12465 0dd8 00000000 		.4byte	0
 12466              	.LLST155:
 12467 0ddc 92000000 		.4byte	.LVL211
 12468 0de0 9C000000 		.4byte	.LVL212
 12469 0de4 0100     		.2byte	0x1
 12470 0de6 55       		.byte	0x55
 12471 0de7 00000000 		.4byte	0
 12472 0deb 00000000 		.4byte	0
 12473              	.LLST156:
 12474 0def 9E000000 		.4byte	.LVL213
 12475 0df3 A0000000 		.4byte	.LVL214
 12476 0df7 0100     		.2byte	0x1
 12477 0df9 50       		.byte	0x50
 12478 0dfa 00000000 		.4byte	0
 12479 0dfe 00000000 		.4byte	0
 12480              	.LLST157:
 12481 0e02 00000000 		.4byte	.LVL218
ARM GAS  C:\Users\haske\AppData\Local\Temp\cc4f9rxb.s 			page 241


 12482 0e06 0B000000 		.4byte	.LVL220-1
 12483 0e0a 0100     		.2byte	0x1
 12484 0e0c 50       		.byte	0x50
 12485 0e0d 0B000000 		.4byte	.LVL220-1
 12486 0e11 DE000000 		.4byte	.LVL254
 12487 0e15 0100     		.2byte	0x1
 12488 0e17 54       		.byte	0x54
 12489 0e18 DE000000 		.4byte	.LVL254
 12490 0e1c E0000000 		.4byte	.LFE170
 12491 0e20 0400     		.2byte	0x4
 12492 0e22 F3       		.byte	0xf3
 12493 0e23 01       		.uleb128 0x1
 12494 0e24 50       		.byte	0x50
 12495 0e25 9F       		.byte	0x9f
 12496 0e26 00000000 		.4byte	0
 12497 0e2a 00000000 		.4byte	0
 12498              	.LLST158:
 12499 0e2e 00000000 		.4byte	.LVL218
 12500 0e32 0B000000 		.4byte	.LVL220-1
 12501 0e36 0100     		.2byte	0x1
 12502 0e38 51       		.byte	0x51
 12503 0e39 0B000000 		.4byte	.LVL220-1
 12504 0e3d DE000000 		.4byte	.LVL255
 12505 0e41 0100     		.2byte	0x1
 12506 0e43 55       		.byte	0x55
 12507 0e44 DE000000 		.4byte	.LVL255
 12508 0e48 E0000000 		.4byte	.LFE170
 12509 0e4c 0400     		.2byte	0x4
 12510 0e4e F3       		.byte	0xf3
 12511 0e4f 01       		.uleb128 0x1
 12512 0e50 51       		.byte	0x51
 12513 0e51 9F       		.byte	0x9f
 12514 0e52 00000000 		.4byte	0
 12515 0e56 00000000 		.4byte	0
 12516              	.LLST159:
 12517 0e5a 06000000 		.4byte	.LVL219
 12518 0e5e 72000000 		.4byte	.LVL235
 12519 0e62 0200     		.2byte	0x2
 12520 0e64 30       		.byte	0x30
 12521 0e65 9F       		.byte	0x9f
 12522 0e66 72000000 		.4byte	.LVL235
 12523 0e6a 74000000 		.4byte	.LVL236
 12524 0e6e 0100     		.2byte	0x1
 12525 0e70 53       		.byte	0x53
 12526 0e71 74000000 		.4byte	.LVL236
 12527 0e75 7A000000 		.4byte	.LVL237
 12528 0e79 0200     		.2byte	0x2
 12529 0e7b 30       		.byte	0x30
 12530 0e7c 9F       		.byte	0x9f
 12531 0e7d 7A000000 		.4byte	.LVL237
 12532 0e81 DE000000 		.4byte	.LVL256
 12533 0e85 0100     		.2byte	0x1
 12534 0e87 57       		.byte	0x57
 12535 0e88 00000000 		.4byte	0
 12536 0e8c 00000000 		.4byte	0
 12537              	.LLST160:
 12538 0e90 2C000000 		.4byte	.LVL225
ARM GAS  C:\Users\haske\AppData\Local\Temp\cc4f9rxb.s 			page 242


 12539 0e94 38000000 		.4byte	.LVL227
 12540 0e98 0100     		.2byte	0x1
 12541 0e9a 56       		.byte	0x56
 12542 0e9b 3A000000 		.4byte	.LVL228
 12543 0e9f 68000000 		.4byte	.LVL234
 12544 0ea3 0100     		.2byte	0x1
 12545 0ea5 56       		.byte	0x56
 12546 0ea6 68000000 		.4byte	.LVL234
 12547 0eaa 74000000 		.4byte	.LVL236
 12548 0eae 0100     		.2byte	0x1
 12549 0eb0 52       		.byte	0x52
 12550 0eb1 00000000 		.4byte	0
 12551 0eb5 00000000 		.4byte	0
 12552              	.LLST161:
 12553 0eb9 D4000000 		.4byte	.LVL251
 12554 0ebd DA000000 		.4byte	.LVL252
 12555 0ec1 0100     		.2byte	0x1
 12556 0ec3 53       		.byte	0x53
 12557 0ec4 DA000000 		.4byte	.LVL252
 12558 0ec8 E0000000 		.4byte	.LFE170
 12559 0ecc 0100     		.2byte	0x1
 12560 0ece 52       		.byte	0x52
 12561 0ecf 00000000 		.4byte	0
 12562 0ed3 00000000 		.4byte	0
 12563              	.LLST162:
 12564 0ed7 06000000 		.4byte	.LVL219
 12565 0edb 0B000000 		.4byte	.LVL220-1
 12566 0edf 0100     		.2byte	0x1
 12567 0ee1 51       		.byte	0x51
 12568 0ee2 0B000000 		.4byte	.LVL220-1
 12569 0ee6 0E000000 		.4byte	.LVL221
 12570 0eea 0100     		.2byte	0x1
 12571 0eec 55       		.byte	0x55
 12572 0eed 00000000 		.4byte	0
 12573 0ef1 00000000 		.4byte	0
 12574              	.LLST163:
 12575 0ef5 06000000 		.4byte	.LVL219
 12576 0ef9 0B000000 		.4byte	.LVL220-1
 12577 0efd 0100     		.2byte	0x1
 12578 0eff 50       		.byte	0x50
 12579 0f00 0B000000 		.4byte	.LVL220-1
 12580 0f04 0E000000 		.4byte	.LVL221
 12581 0f08 0100     		.2byte	0x1
 12582 0f0a 54       		.byte	0x54
 12583 0f0b 00000000 		.4byte	0
 12584 0f0f 00000000 		.4byte	0
 12585              	.LLST164:
 12586 0f13 12000000 		.4byte	.LVL222
 12587 0f17 1E000000 		.4byte	.LVL224
 12588 0f1b 0100     		.2byte	0x1
 12589 0f1d 55       		.byte	0x55
 12590 0f1e 00000000 		.4byte	0
 12591 0f22 00000000 		.4byte	0
 12592              	.LLST165:
 12593 0f26 12000000 		.4byte	.LVL222
 12594 0f2a 1E000000 		.4byte	.LVL224
 12595 0f2e 0100     		.2byte	0x1
ARM GAS  C:\Users\haske\AppData\Local\Temp\cc4f9rxb.s 			page 243


 12596 0f30 54       		.byte	0x54
 12597 0f31 00000000 		.4byte	0
 12598 0f35 00000000 		.4byte	0
 12599              	.LLST166:
 12600 0f39 2C000000 		.4byte	.LVL225
 12601 0f3d 36000000 		.4byte	.LVL226
 12602 0f41 0100     		.2byte	0x1
 12603 0f43 55       		.byte	0x55
 12604 0f44 00000000 		.4byte	0
 12605 0f48 00000000 		.4byte	0
 12606              	.LLST167:
 12607 0f4c 2C000000 		.4byte	.LVL225
 12608 0f50 36000000 		.4byte	.LVL226
 12609 0f54 0100     		.2byte	0x1
 12610 0f56 54       		.byte	0x54
 12611 0f57 00000000 		.4byte	0
 12612 0f5b 00000000 		.4byte	0
 12613              	.LLST168:
 12614 0f5f 36000000 		.4byte	.LVL226
 12615 0f63 40000000 		.4byte	.LVL229
 12616 0f67 0100     		.2byte	0x1
 12617 0f69 50       		.byte	0x50
 12618 0f6a 00000000 		.4byte	0
 12619 0f6e 00000000 		.4byte	0
 12620              	.LLST169:
 12621 0f72 3A000000 		.4byte	.LVL228
 12622 0f76 46000000 		.4byte	.LVL231
 12623 0f7a 0100     		.2byte	0x1
 12624 0f7c 55       		.byte	0x55
 12625 0f7d 00000000 		.4byte	0
 12626 0f81 00000000 		.4byte	0
 12627              	.LLST170:
 12628 0f85 3A000000 		.4byte	.LVL228
 12629 0f89 46000000 		.4byte	.LVL231
 12630 0f8d 0100     		.2byte	0x1
 12631 0f8f 54       		.byte	0x54
 12632 0f90 00000000 		.4byte	0
 12633 0f94 00000000 		.4byte	0
 12634              	.LLST171:
 12635 0f98 46000000 		.4byte	.LVL231
 12636 0f9c 52000000 		.4byte	.LVL233
 12637 0fa0 0100     		.2byte	0x1
 12638 0fa2 55       		.byte	0x55
 12639 0fa3 00000000 		.4byte	0
 12640 0fa7 00000000 		.4byte	0
 12641              	.LLST172:
 12642 0fab 46000000 		.4byte	.LVL231
 12643 0faf 52000000 		.4byte	.LVL233
 12644 0fb3 0100     		.2byte	0x1
 12645 0fb5 54       		.byte	0x54
 12646 0fb6 00000000 		.4byte	0
 12647 0fba 00000000 		.4byte	0
 12648              	.LLST173:
 12649 0fbe 7A000000 		.4byte	.LVL237
 12650 0fc2 86000000 		.4byte	.LVL239
 12651 0fc6 0100     		.2byte	0x1
 12652 0fc8 55       		.byte	0x55
ARM GAS  C:\Users\haske\AppData\Local\Temp\cc4f9rxb.s 			page 244


 12653 0fc9 00000000 		.4byte	0
 12654 0fcd 00000000 		.4byte	0
 12655              	.LLST174:
 12656 0fd1 7A000000 		.4byte	.LVL237
 12657 0fd5 86000000 		.4byte	.LVL239
 12658 0fd9 0100     		.2byte	0x1
 12659 0fdb 54       		.byte	0x54
 12660 0fdc 00000000 		.4byte	0
 12661 0fe0 00000000 		.4byte	0
 12662              	.LLST175:
 12663 0fe4 8A000000 		.4byte	.LVL240
 12664 0fe8 96000000 		.4byte	.LVL242
 12665 0fec 0100     		.2byte	0x1
 12666 0fee 55       		.byte	0x55
 12667 0fef 00000000 		.4byte	0
 12668 0ff3 00000000 		.4byte	0
 12669              	.LLST176:
 12670 0ff7 8A000000 		.4byte	.LVL240
 12671 0ffb 96000000 		.4byte	.LVL242
 12672 0fff 0100     		.2byte	0x1
 12673 1001 54       		.byte	0x54
 12674 1002 00000000 		.4byte	0
 12675 1006 00000000 		.4byte	0
 12676              	.LLST177:
 12677 100a 9A000000 		.4byte	.LVL243
 12678 100e A6000000 		.4byte	.LVL245
 12679 1012 0100     		.2byte	0x1
 12680 1014 55       		.byte	0x55
 12681 1015 00000000 		.4byte	0
 12682 1019 00000000 		.4byte	0
 12683              	.LLST178:
 12684 101d 9A000000 		.4byte	.LVL243
 12685 1021 A6000000 		.4byte	.LVL245
 12686 1025 0100     		.2byte	0x1
 12687 1027 54       		.byte	0x54
 12688 1028 00000000 		.4byte	0
 12689 102c 00000000 		.4byte	0
 12690              	.LLST179:
 12691 1030 B2000000 		.4byte	.LVL246
 12692 1034 BE000000 		.4byte	.LVL248
 12693 1038 0100     		.2byte	0x1
 12694 103a 55       		.byte	0x55
 12695 103b 00000000 		.4byte	0
 12696 103f 00000000 		.4byte	0
 12697              	.LLST180:
 12698 1043 B2000000 		.4byte	.LVL246
 12699 1047 BE000000 		.4byte	.LVL248
 12700 104b 0100     		.2byte	0x1
 12701 104d 54       		.byte	0x54
 12702 104e 00000000 		.4byte	0
 12703 1052 00000000 		.4byte	0
 12704              	.LLST181:
 12705 1056 BE000000 		.4byte	.LVL248
 12706 105a CA000000 		.4byte	.LVL250
 12707 105e 0100     		.2byte	0x1
 12708 1060 55       		.byte	0x55
 12709 1061 00000000 		.4byte	0
ARM GAS  C:\Users\haske\AppData\Local\Temp\cc4f9rxb.s 			page 245


 12710 1065 00000000 		.4byte	0
 12711              	.LLST182:
 12712 1069 BE000000 		.4byte	.LVL248
 12713 106d CA000000 		.4byte	.LVL250
 12714 1071 0100     		.2byte	0x1
 12715 1073 54       		.byte	0x54
 12716 1074 00000000 		.4byte	0
 12717 1078 00000000 		.4byte	0
 12718              	.LLST183:
 12719 107c 00000000 		.4byte	.LVL257
 12720 1080 0B000000 		.4byte	.LVL259-1
 12721 1084 0100     		.2byte	0x1
 12722 1086 50       		.byte	0x50
 12723 1087 0B000000 		.4byte	.LVL259-1
 12724 108b 0E000000 		.4byte	.LVL260
 12725 108f 0100     		.2byte	0x1
 12726 1091 54       		.byte	0x54
 12727 1092 0E000000 		.4byte	.LVL260
 12728 1096 10000000 		.4byte	.LFE171
 12729 109a 0400     		.2byte	0x4
 12730 109c F3       		.byte	0xf3
 12731 109d 01       		.uleb128 0x1
 12732 109e 50       		.byte	0x50
 12733 109f 9F       		.byte	0x9f
 12734 10a0 00000000 		.4byte	0
 12735 10a4 00000000 		.4byte	0
 12736              	.LLST184:
 12737 10a8 00000000 		.4byte	.LVL257
 12738 10ac 08000000 		.4byte	.LVL258
 12739 10b0 0100     		.2byte	0x1
 12740 10b2 51       		.byte	0x51
 12741 10b3 08000000 		.4byte	.LVL258
 12742 10b7 0E000000 		.4byte	.LVL261
 12743 10bb 0100     		.2byte	0x1
 12744 10bd 55       		.byte	0x55
 12745 10be 0E000000 		.4byte	.LVL261
 12746 10c2 10000000 		.4byte	.LFE171
 12747 10c6 0300     		.2byte	0x3
 12748 10c8 F3       		.byte	0xf3
 12749 10c9 01       		.uleb128 0x1
 12750 10ca 50       		.byte	0x50
 12751 10cb 00000000 		.4byte	0
 12752 10cf 00000000 		.4byte	0
 12753              	.LLST185:
 12754 10d3 00000000 		.4byte	.LVL262
 12755 10d7 0E000000 		.4byte	.LVL263
 12756 10db 0100     		.2byte	0x1
 12757 10dd 50       		.byte	0x50
 12758 10de 0E000000 		.4byte	.LVL263
 12759 10e2 10000000 		.4byte	.LVL264
 12760 10e6 0400     		.2byte	0x4
 12761 10e8 F3       		.byte	0xf3
 12762 10e9 01       		.uleb128 0x1
 12763 10ea 50       		.byte	0x50
 12764 10eb 9F       		.byte	0x9f
 12765 10ec 10000000 		.4byte	.LVL264
 12766 10f0 12000000 		.4byte	.LVL265
ARM GAS  C:\Users\haske\AppData\Local\Temp\cc4f9rxb.s 			page 246


 12767 10f4 0100     		.2byte	0x1
 12768 10f6 50       		.byte	0x50
 12769 10f7 12000000 		.4byte	.LVL265
 12770 10fb 14000000 		.4byte	.LVL266
 12771 10ff 0400     		.2byte	0x4
 12772 1101 F3       		.byte	0xf3
 12773 1102 01       		.uleb128 0x1
 12774 1103 50       		.byte	0x50
 12775 1104 9F       		.byte	0x9f
 12776 1105 14000000 		.4byte	.LVL266
 12777 1109 16000000 		.4byte	.LVL267
 12778 110d 0100     		.2byte	0x1
 12779 110f 50       		.byte	0x50
 12780 1110 16000000 		.4byte	.LVL267
 12781 1114 18000000 		.4byte	.LFE172
 12782 1118 0400     		.2byte	0x4
 12783 111a F3       		.byte	0xf3
 12784 111b 01       		.uleb128 0x1
 12785 111c 50       		.byte	0x50
 12786 111d 9F       		.byte	0x9f
 12787 111e 00000000 		.4byte	0
 12788 1122 00000000 		.4byte	0
 12789              	.LLST186:
 12790 1126 00000000 		.4byte	.LVL268
 12791 112a 0A000000 		.4byte	.LVL269
 12792 112e 0100     		.2byte	0x1
 12793 1130 50       		.byte	0x50
 12794 1131 0A000000 		.4byte	.LVL269
 12795 1135 0C000000 		.4byte	.LVL270
 12796 1139 0400     		.2byte	0x4
 12797 113b F3       		.byte	0xf3
 12798 113c 01       		.uleb128 0x1
 12799 113d 50       		.byte	0x50
 12800 113e 9F       		.byte	0x9f
 12801 113f 0C000000 		.4byte	.LVL270
 12802 1143 0E000000 		.4byte	.LVL271
 12803 1147 0100     		.2byte	0x1
 12804 1149 50       		.byte	0x50
 12805 114a 0E000000 		.4byte	.LVL271
 12806 114e 10000000 		.4byte	.LFE174
 12807 1152 0400     		.2byte	0x4
 12808 1154 F3       		.byte	0xf3
 12809 1155 01       		.uleb128 0x1
 12810 1156 50       		.byte	0x50
 12811 1157 9F       		.byte	0x9f
 12812 1158 00000000 		.4byte	0
 12813 115c 00000000 		.4byte	0
 12814              	.LLST187:
 12815 1160 00000000 		.4byte	.LVL272
 12816 1164 09000000 		.4byte	.LVL273-1
 12817 1168 0100     		.2byte	0x1
 12818 116a 50       		.byte	0x50
 12819 116b 09000000 		.4byte	.LVL273-1
 12820 116f 6C000000 		.4byte	.LVL280
 12821 1173 0100     		.2byte	0x1
 12822 1175 54       		.byte	0x54
 12823 1176 6C000000 		.4byte	.LVL280
ARM GAS  C:\Users\haske\AppData\Local\Temp\cc4f9rxb.s 			page 247


 12824 117a 6E000000 		.4byte	.LFE173
 12825 117e 0400     		.2byte	0x4
 12826 1180 F3       		.byte	0xf3
 12827 1181 01       		.uleb128 0x1
 12828 1182 50       		.byte	0x50
 12829 1183 9F       		.byte	0x9f
 12830 1184 00000000 		.4byte	0
 12831 1188 00000000 		.4byte	0
 12832              	.LLST188:
 12833 118c 0C000000 		.4byte	.LVL274
 12834 1190 1A000000 		.4byte	.LVL275
 12835 1194 0100     		.2byte	0x1
 12836 1196 50       		.byte	0x50
 12837 1197 1A000000 		.4byte	.LVL275
 12838 119b 6C000000 		.4byte	.LVL281
 12839 119f 0100     		.2byte	0x1
 12840 11a1 55       		.byte	0x55
 12841 11a2 00000000 		.4byte	0
 12842 11a6 00000000 		.4byte	0
 12843              	.LLST189:
 12844 11aa 00000000 		.4byte	.LVL282
 12845 11ae 08000000 		.4byte	.LVL283
 12846 11b2 0100     		.2byte	0x1
 12847 11b4 50       		.byte	0x50
 12848 11b5 08000000 		.4byte	.LVL283
 12849 11b9 0C000000 		.4byte	.LVL284
 12850 11bd 0400     		.2byte	0x4
 12851 11bf F3       		.byte	0xf3
 12852 11c0 01       		.uleb128 0x1
 12853 11c1 50       		.byte	0x50
 12854 11c2 9F       		.byte	0x9f
 12855 11c3 0C000000 		.4byte	.LVL284
 12856 11c7 0E000000 		.4byte	.LVL285
 12857 11cb 0100     		.2byte	0x1
 12858 11cd 50       		.byte	0x50
 12859 11ce 0E000000 		.4byte	.LVL285
 12860 11d2 10000000 		.4byte	.LFE175
 12861 11d6 0400     		.2byte	0x4
 12862 11d8 F3       		.byte	0xf3
 12863 11d9 01       		.uleb128 0x1
 12864 11da 50       		.byte	0x50
 12865 11db 9F       		.byte	0x9f
 12866 11dc 00000000 		.4byte	0
 12867 11e0 00000000 		.4byte	0
 12868              		.section	.debug_aranges,"",%progbits
 12869 0000 6C000000 		.4byte	0x6c
 12870 0004 0200     		.2byte	0x2
 12871 0006 00000000 		.4byte	.Ldebug_info0
 12872 000a 04       		.byte	0x4
 12873 000b 00       		.byte	0
 12874 000c 0000     		.2byte	0
 12875 000e 0000     		.2byte	0
 12876 0010 00000000 		.4byte	.LFB165
 12877 0014 DE020000 		.4byte	.LFE165-.LFB165
 12878 0018 00000000 		.4byte	.LFB166
 12879 001c BE000000 		.4byte	.LFE166-.LFB166
 12880 0020 00000000 		.4byte	.LFB167
ARM GAS  C:\Users\haske\AppData\Local\Temp\cc4f9rxb.s 			page 248


 12881 0024 BC000000 		.4byte	.LFE167-.LFB167
 12882 0028 00000000 		.4byte	.LFB168
 12883 002c C6000000 		.4byte	.LFE168-.LFB168
 12884 0030 00000000 		.4byte	.LFB169
 12885 0034 AC000000 		.4byte	.LFE169-.LFB169
 12886 0038 00000000 		.4byte	.LFB170
 12887 003c E0000000 		.4byte	.LFE170-.LFB170
 12888 0040 00000000 		.4byte	.LFB171
 12889 0044 10000000 		.4byte	.LFE171-.LFB171
 12890 0048 00000000 		.4byte	.LFB172
 12891 004c 18000000 		.4byte	.LFE172-.LFB172
 12892 0050 00000000 		.4byte	.LFB174
 12893 0054 10000000 		.4byte	.LFE174-.LFB174
 12894 0058 00000000 		.4byte	.LFB173
 12895 005c 6E000000 		.4byte	.LFE173-.LFB173
 12896 0060 00000000 		.4byte	.LFB175
 12897 0064 10000000 		.4byte	.LFE175-.LFB175
 12898 0068 00000000 		.4byte	0
 12899 006c 00000000 		.4byte	0
 12900              		.section	.debug_ranges,"",%progbits
 12901              	.Ldebug_ranges0:
 12902 0000 00000000 		.4byte	.LFB165
 12903 0004 DE020000 		.4byte	.LFE165
 12904 0008 00000000 		.4byte	.LFB166
 12905 000c BE000000 		.4byte	.LFE166
 12906 0010 00000000 		.4byte	.LFB167
 12907 0014 BC000000 		.4byte	.LFE167
 12908 0018 00000000 		.4byte	.LFB168
 12909 001c C6000000 		.4byte	.LFE168
 12910 0020 00000000 		.4byte	.LFB169
 12911 0024 AC000000 		.4byte	.LFE169
 12912 0028 00000000 		.4byte	.LFB170
 12913 002c E0000000 		.4byte	.LFE170
 12914 0030 00000000 		.4byte	.LFB171
 12915 0034 10000000 		.4byte	.LFE171
 12916 0038 00000000 		.4byte	.LFB172
 12917 003c 18000000 		.4byte	.LFE172
 12918 0040 00000000 		.4byte	.LFB174
 12919 0044 10000000 		.4byte	.LFE174
 12920 0048 00000000 		.4byte	.LFB173
 12921 004c 6E000000 		.4byte	.LFE173
 12922 0050 00000000 		.4byte	.LFB175
 12923 0054 10000000 		.4byte	.LFE175
 12924 0058 00000000 		.4byte	0
 12925 005c 00000000 		.4byte	0
 12926              		.section	.debug_line,"",%progbits
 12927              	.Ldebug_line0:
 12928 0000 6E090000 		.section	.debug_str,"MS",%progbits,1
 12928      0200A504 
 12928      00000201 
 12928      FB0E0D00 
 12928      01010101 
 12929              	.LASF185:
 12930 0000 70726F70 		.ascii	"prop_cnt\000"
 12930      5F636E74 
 12930      00
 12931              	.LASF15:
ARM GAS  C:\Users\haske\AppData\Local\Temp\cc4f9rxb.s 			page 249


 12932 0009 696E7438 		.ascii	"int8_t\000"
 12932      5F7400
 12933              	.LASF156:
 12934 0010 4C565F53 		.ascii	"LV_STYLE_OPA\000"
 12934      54594C45 
 12934      5F4F5041 
 12934      00
 12935              	.LASF326:
 12936 001d 6C765F6C 		.ascii	"lv_ll_node_t\000"
 12936      6C5F6E6F 
 12936      64655F74 
 12936      00
 12937              	.LASF21:
 12938 002a 73697A65 		.ascii	"size_t\000"
 12938      5F7400
 12939              	.LASF28:
 12940 0031 6164765F 		.ascii	"adv_w\000"
 12940      7700
 12941              	.LASF47:
 12942 0037 73697A65 		.ascii	"sizetype\000"
 12942      74797065 
 12942      00
 12943              	.LASF389:
 12944 0040 4C565F45 		.ascii	"LV_EVENT_DRAW_MAIN_BEGIN\000"
 12944      56454E54 
 12944      5F445241 
 12944      575F4D41 
 12944      494E5F42 
 12945              	.LASF140:
 12946 0059 4C565F53 		.ascii	"LV_STYLE_LINE_DASH_GAP\000"
 12946      54594C45 
 12946      5F4C494E 
 12946      455F4441 
 12946      53485F47 
 12947              	.LASF507:
 12948 0070 735F6F6C 		.ascii	"s_old\000"
 12948      6400
 12949              	.LASF329:
 12950 0076 7461696C 		.ascii	"tail\000"
 12950      00
 12951              	.LASF459:
 12952 007b 6C765F6F 		.ascii	"lv_obj_get_style_shadow_ofs_x\000"
 12952      626A5F67 
 12952      65745F73 
 12952      74796C65 
 12952      5F736861 
 12953              	.LASF290:
 12954 0099 64726177 		.ascii	"draw_bg\000"
 12954      5F626700 
 12955              	.LASF67:
 12956 00a1 6C765F6F 		.ascii	"lv_opa_t\000"
 12956      70615F74 
 12956      00
 12957              	.LASF147:
 12958 00aa 4C565F53 		.ascii	"LV_STYLE_ARC_OPA\000"
 12958      54594C45 
 12958      5F415243 
ARM GAS  C:\Users\haske\AppData\Local\Temp\cc4f9rxb.s 			page 250


 12958      5F4F5041 
 12958      00
 12959              	.LASF259:
 12960 00bb 7261775F 		.ascii	"raw_end\000"
 12960      656E6400 
 12961              	.LASF19:
 12962 00c3 696E7433 		.ascii	"int32_t\000"
 12962      325F7400 
 12963              	.LASF352:
 12964 00cb 6C765F73 		.ascii	"lv_scrollbar_mode_t\000"
 12964      63726F6C 
 12964      6C626172 
 12964      5F6D6F64 
 12964      655F7400 
 12965              	.LASF457:
 12966 00df 6C765F6F 		.ascii	"lv_obj_get_style_shadow_spread\000"
 12966      626A5F67 
 12966      65745F73 
 12966      74796C65 
 12966      5F736861 
 12967              	.LASF190:
 12968 00fe 4C565F49 		.ascii	"LV_IMG_SRC_SYMBOL\000"
 12968      4D475F53 
 12968      52435F53 
 12968      594D424F 
 12968      4C00
 12969              	.LASF432:
 12970 0110 6C617965 		.ascii	"layer_type\000"
 12970      725F7479 
 12970      706500
 12971              	.LASF184:
 12972 011b 6861735F 		.ascii	"has_group\000"
 12972      67726F75 
 12972      7000
 12973              	.LASF398:
 12974 0125 4C565F45 		.ascii	"LV_EVENT_INSERT\000"
 12974      56454E54 
 12974      5F494E53 
 12974      45525400 
 12975              	.LASF24:
 12976 0135 6C765F70 		.ascii	"lv_point_t\000"
 12976      6F696E74 
 12976      5F7400
 12977              	.LASF207:
 12978 0140 72616469 		.ascii	"radius\000"
 12978      757300
 12979              	.LASF210:
 12980 0147 62675F63 		.ascii	"bg_color\000"
 12980      6F6C6F72 
 12980      00
 12981              	.LASF36:
 12982 0150 6C696E65 		.ascii	"line_height\000"
 12982      5F686569 
 12982      67687400 
 12983              	.LASF71:
 12984 015c 6C765F62 		.ascii	"lv_blend_mode_t\000"
 12984      6C656E64 
ARM GAS  C:\Users\haske\AppData\Local\Temp\cc4f9rxb.s 			page 251


 12984      5F6D6F64 
 12984      655F7400 
 12985              	.LASF241:
 12986 016c 62696469 		.ascii	"bidi_dir\000"
 12986      5F646972 
 12986      00
 12987              	.LASF512:
 12988 0175 6C765F6D 		.ascii	"lv_memcpy\000"
 12988      656D6370 
 12988      7900
 12989              	.LASF196:
 12990 017f 73706563 		.ascii	"spec_attr\000"
 12990      5F617474 
 12990      7200
 12991              	.LASF428:
 12992 0189 7363726F 		.ascii	"scroll_snap_x\000"
 12992      6C6C5F73 
 12992      6E61705F 
 12992      7800
 12993              	.LASF267:
 12994 0197 4C565F44 		.ascii	"LV_DRAW_LAYER_FLAG_HAS_ALPHA\000"
 12994      5241575F 
 12994      4C415945 
 12994      525F464C 
 12994      41475F48 
 12995              	.LASF403:
 12996 01b4 4C565F45 		.ascii	"LV_EVENT_CHILD_CHANGED\000"
 12996      56454E54 
 12996      5F434849 
 12996      4C445F43 
 12996      48414E47 
 12997              	.LASF200:
 12998 01cb 73746174 		.ascii	"state\000"
 12998      6500
 12999              	.LASF91:
 13000 01d1 4C565F53 		.ascii	"LV_STYLE_HEIGHT\000"
 13000      54594C45 
 13000      5F484549 
 13000      47485400 
 13001              	.LASF247:
 13002 01e1 7A6F6F6D 		.ascii	"zoom\000"
 13002      00
 13003              	.LASF356:
 13004 01e6 69735F6C 		.ascii	"is_local\000"
 13004      6F63616C 
 13004      00
 13005              	.LASF282:
 13006 01ef 64726177 		.ascii	"draw_rect\000"
 13006      5F726563 
 13006      7400
 13007              	.LASF488:
 13008 01f9 64726177 		.ascii	"draw_dsc\000"
 13008      5F647363 
 13008      00
 13009              	.LASF111:
 13010 0202 4C565F53 		.ascii	"LV_STYLE_BG_MAIN_STOP\000"
 13010      54594C45 
ARM GAS  C:\Users\haske\AppData\Local\Temp\cc4f9rxb.s 			page 252


 13010      5F42475F 
 13010      4D41494E 
 13010      5F53544F 
 13011              	.LASF281:
 13012 0218 696E6974 		.ascii	"init_buf\000"
 13012      5F627566 
 13012      00
 13013              	.LASF317:
 13014 0221 636F6E73 		.ascii	"constructor_cb\000"
 13014      74727563 
 13014      746F725F 
 13014      636200
 13015              	.LASF264:
 13016 0230 726F756E 		.ascii	"rounded\000"
 13016      64656400 
 13017              	.LASF172:
 13018 0238 5F4C565F 		.ascii	"_LV_STYLE_LAST_BUILT_IN_PROP\000"
 13018      5354594C 
 13018      455F4C41 
 13018      53545F42 
 13018      55494C54 
 13019              	.LASF280:
 13020 0255 5F6C765F 		.ascii	"_lv_draw_ctx_t\000"
 13020      64726177 
 13020      5F637478 
 13020      5F7400
 13021              	.LASF304:
 13022 0264 74797065 		.ascii	"type\000"
 13022      00
 13023              	.LASF381:
 13024 0269 4C565F45 		.ascii	"LV_EVENT_GESTURE\000"
 13024      56454E54 
 13024      5F474553 
 13024      54555245 
 13024      00
 13025              	.LASF499:
 13026 027a 73685F6F 		.ascii	"sh_opa\000"
 13026      706100
 13027              	.LASF374:
 13028 0281 4C565F45 		.ascii	"LV_EVENT_LONG_PRESSED\000"
 13028      56454E54 
 13028      5F4C4F4E 
 13028      475F5052 
 13028      45535345 
 13029              	.LASF440:
 13030 0297 6C765F6F 		.ascii	"lv_obj_get_style_bg_grad_dir\000"
 13030      626A5F67 
 13030      65745F73 
 13030      74796C65 
 13030      5F62675F 
 13031              	.LASF212:
 13032 02b4 62675F69 		.ascii	"bg_img_src\000"
 13032      6D675F73 
 13032      726300
 13033              	.LASF122:
 13034 02bf 4C565F53 		.ascii	"LV_STYLE_BORDER_WIDTH\000"
 13034      54594C45 
ARM GAS  C:\Users\haske\AppData\Local\Temp\cc4f9rxb.s 			page 253


 13034      5F424F52 
 13034      4445525F 
 13034      57494454 
 13035              	.LASF404:
 13036 02d5 4C565F45 		.ascii	"LV_EVENT_CHILD_CREATED\000"
 13036      56454E54 
 13036      5F434849 
 13036      4C445F43 
 13036      52454154 
 13037              	.LASF104:
 13038 02ec 4C565F53 		.ascii	"LV_STYLE_PAD_COLUMN\000"
 13038      54594C45 
 13038      5F504144 
 13038      5F434F4C 
 13038      554D4E00 
 13039              	.LASF345:
 13040 0300 4C565F50 		.ascii	"LV_PART_SELECTED\000"
 13040      4152545F 
 13040      53454C45 
 13040      43544544 
 13040      00
 13041              	.LASF373:
 13042 0311 4C565F45 		.ascii	"LV_EVENT_SHORT_CLICKED\000"
 13042      56454E54 
 13042      5F53484F 
 13042      52545F43 
 13042      4C49434B 
 13043              	.LASF114:
 13044 0328 4C565F53 		.ascii	"LV_STYLE_BG_DITHER_MODE\000"
 13044      54594C45 
 13044      5F42475F 
 13044      44495448 
 13044      45525F4D 
 13045              	.LASF222:
 13046 0340 626F7264 		.ascii	"border_side\000"
 13046      65725F73 
 13046      69646500 
 13047              	.LASF1:
 13048 034c 5F5F7569 		.ascii	"__uint8_t\000"
 13048      6E74385F 
 13048      7400
 13049              	.LASF206:
 13050 0356 775F6C61 		.ascii	"w_layout\000"
 13050      796F7574 
 13050      00
 13051              	.LASF208:
 13052 035f 626C656E 		.ascii	"blend_mode\000"
 13052      645F6D6F 
 13052      646500
 13053              	.LASF98:
 13054 036a 4C565F53 		.ascii	"LV_STYLE_RADIUS\000"
 13054      54594C45 
 13054      5F524144 
 13054      49555300 
 13055              	.LASF202:
 13056 037a 7363725F 		.ascii	"scr_layout_inv\000"
 13056      6C61796F 
ARM GAS  C:\Users\haske\AppData\Local\Temp\cc4f9rxb.s 			page 254


 13056      75745F69 
 13056      6E7600
 13057              	.LASF90:
 13058 0389 4C565F53 		.ascii	"LV_STYLE_MAX_WIDTH\000"
 13058      54594C45 
 13058      5F4D4158 
 13058      5F574944 
 13058      544800
 13059              	.LASF117:
 13060 039c 4C565F53 		.ascii	"LV_STYLE_BG_IMG_RECOLOR\000"
 13060      54594C45 
 13060      5F42475F 
 13060      494D475F 
 13060      5245434F 
 13061              	.LASF134:
 13062 03b4 4C565F53 		.ascii	"LV_STYLE_SHADOW_OPA\000"
 13062      54594C45 
 13062      5F534841 
 13062      444F575F 
 13062      4F504100 
 13063              	.LASF515:
 13064 03c8 6C765F65 		.ascii	"lv_event_send\000"
 13064      76656E74 
 13064      5F73656E 
 13064      6400
 13065              	.LASF165:
 13066 03d6 4C565F53 		.ascii	"LV_STYLE_TRANSFORM_HEIGHT\000"
 13066      54594C45 
 13066      5F545241 
 13066      4E53464F 
 13066      524D5F48 
 13067              	.LASF480:
 13068 03f0 6C765F6F 		.ascii	"lv_obj_get_style_transform_width\000"
 13068      626A5F67 
 13068      65745F73 
 13068      74796C65 
 13068      5F747261 
 13069              	.LASF102:
 13070 0411 4C565F53 		.ascii	"LV_STYLE_PAD_RIGHT\000"
 13070      54594C45 
 13070      5F504144 
 13070      5F524947 
 13070      485400
 13071              	.LASF369:
 13072 0424 4C565F45 		.ascii	"LV_EVENT_ALL\000"
 13072      56454E54 
 13072      5F414C4C 
 13072      00
 13073              	.LASF9:
 13074 0431 6C6F6E67 		.ascii	"long int\000"
 13074      20696E74 
 13074      00
 13075              	.LASF162:
 13076 043a 4C565F53 		.ascii	"LV_STYLE_TRANSITION\000"
 13076      54594C45 
 13076      5F545241 
 13076      4E534954 
ARM GAS  C:\Users\haske\AppData\Local\Temp\cc4f9rxb.s 			page 255


 13076      494F4E00 
 13077              	.LASF430:
 13078 044e 7363726F 		.ascii	"scroll_dir\000"
 13078      6C6C5F64 
 13078      697200
 13079              	.LASF323:
 13080 0459 67726F75 		.ascii	"group_def\000"
 13080      705F6465 
 13080      6600
 13081              	.LASF118:
 13082 0463 4C565F53 		.ascii	"LV_STYLE_BG_IMG_RECOLOR_OPA\000"
 13082      54594C45 
 13082      5F42475F 
 13082      494D475F 
 13082      5245434F 
 13083              	.LASF209:
 13084 047f 62675F6F 		.ascii	"bg_opa\000"
 13084      706100
 13085              	.LASF245:
 13086 0486 6C765F64 		.ascii	"lv_draw_label_dsc_t\000"
 13086      7261775F 
 13086      6C616265 
 13086      6C5F6473 
 13086      635F7400 
 13087              	.LASF452:
 13088 049a 6C765F6F 		.ascii	"lv_obj_get_style_text_font\000"
 13088      626A5F67 
 13088      65745F73 
 13088      74796C65 
 13088      5F746578 
 13089              	.LASF340:
 13090 04b5 6C765F73 		.ascii	"lv_state_t\000"
 13090      74617465 
 13090      5F7400
 13091              	.LASF238:
 13092 04c0 73656C5F 		.ascii	"sel_bg_color\000"
 13092      62675F63 
 13092      6F6C6F72 
 13092      00
 13093              	.LASF437:
 13094 04cd 6C765F6F 		.ascii	"lv_obj_get_style_radius\000"
 13094      626A5F67 
 13094      65745F73 
 13094      74796C65 
 13094      5F726164 
 13095              	.LASF305:
 13096 04e5 64726177 		.ascii	"draw_area\000"
 13096      5F617265 
 13096      6100
 13097              	.LASF335:
 13098 04ef 65646765 		.ascii	"edge_cb\000"
 13098      5F636200 
 13099              	.LASF119:
 13100 04f7 4C565F53 		.ascii	"LV_STYLE_BG_IMG_TILED\000"
 13100      54594C45 
 13100      5F42475F 
 13100      494D475F 
ARM GAS  C:\Users\haske\AppData\Local\Temp\cc4f9rxb.s 			page 256


 13100      54494C45 
 13101              	.LASF470:
 13102 050d 6C765F6F 		.ascii	"lv_obj_get_style_line_opa\000"
 13102      626A5F67 
 13102      65745F73 
 13102      74796C65 
 13102      5F6C696E 
 13103              	.LASF468:
 13104 0527 61726561 		.ascii	"area_p\000"
 13104      5F7000
 13105              	.LASF328:
 13106 052e 68656164 		.ascii	"head\000"
 13106      00
 13107              	.LASF462:
 13108 0533 6C765F6F 		.ascii	"lv_obj_get_style_text_line_space\000"
 13108      626A5F67 
 13108      65745F73 
 13108      74796C65 
 13108      5F746578 
 13109              	.LASF121:
 13110 0554 4C565F53 		.ascii	"LV_STYLE_BORDER_OPA\000"
 13110      54594C45 
 13110      5F424F52 
 13110      4445525F 
 13110      4F504100 
 13111              	.LASF396:
 13112 0568 4C565F45 		.ascii	"LV_EVENT_DRAW_PART_END\000"
 13112      56454E54 
 13112      5F445241 
 13112      575F5041 
 13112      52545F45 
 13113              	.LASF336:
 13114 057f 66726F7A 		.ascii	"frozen\000"
 13114      656E00
 13115              	.LASF292:
 13116 0586 62756666 		.ascii	"buffer_copy\000"
 13116      65725F63 
 13116      6F707900 
 13117              	.LASF460:
 13118 0592 6C765F6F 		.ascii	"lv_obj_get_style_text_opa\000"
 13118      626A5F67 
 13118      65745F73 
 13118      74796C65 
 13118      5F746578 
 13119              	.LASF223:
 13120 05ac 6F75746C 		.ascii	"outline_color\000"
 13120      696E655F 
 13120      636F6C6F 
 13120      7200
 13121              	.LASF133:
 13122 05ba 4C565F53 		.ascii	"LV_STYLE_SHADOW_COLOR\000"
 13122      54594C45 
 13122      5F534841 
 13122      444F575F 
 13122      434F4C4F 
 13123              	.LASF204:
 13124 05d0 7374796C 		.ascii	"style_cnt\000"
ARM GAS  C:\Users\haske\AppData\Local\Temp\cc4f9rxb.s 			page 257


 13124      655F636E 
 13124      7400
 13125              	.LASF201:
 13126 05da 6C61796F 		.ascii	"layout_inv\000"
 13126      75745F69 
 13126      6E7600
 13127              	.LASF2:
 13128 05e5 7369676E 		.ascii	"signed char\000"
 13128      65642063 
 13128      68617200 
 13129              	.LASF16:
 13130 05f1 75696E74 		.ascii	"uint8_t\000"
 13130      385F7400 
 13131              	.LASF287:
 13132 05f9 64726177 		.ascii	"draw_line\000"
 13132      5F6C696E 
 13132      6500
 13133              	.LASF217:
 13134 0603 62675F69 		.ascii	"bg_img_tiled\000"
 13134      6D675F74 
 13134      696C6564 
 13134      00
 13135              	.LASF110:
 13136 0610 4C565F53 		.ascii	"LV_STYLE_BG_GRAD_DIR\000"
 13136      54594C45 
 13136      5F42475F 
 13136      47524144 
 13136      5F444952 
 13137              	.LASF35:
 13138 0625 6765745F 		.ascii	"get_glyph_bitmap\000"
 13138      676C7970 
 13138      685F6269 
 13138      746D6170 
 13138      00
 13139              	.LASF262:
 13140 0636 656E645F 		.ascii	"end_angle\000"
 13140      616E676C 
 13140      6500
 13141              	.LASF62:
 13142 0640 626C7565 		.ascii	"blue\000"
 13142      00
 13143              	.LASF215:
 13144 0645 62675F69 		.ascii	"bg_img_opa\000"
 13144      6D675F6F 
 13144      706100
 13145              	.LASF96:
 13146 0650 4C565F53 		.ascii	"LV_STYLE_ALIGN\000"
 13146      54594C45 
 13146      5F414C49 
 13146      474E00
 13147              	.LASF3:
 13148 065f 756E7369 		.ascii	"unsigned char\000"
 13148      676E6564 
 13148      20636861 
 13148      7200
 13149              	.LASF413:
 13150 066d 4C565F45 		.ascii	"LV_EVENT_GET_SELF_SIZE\000"
ARM GAS  C:\Users\haske\AppData\Local\Temp\cc4f9rxb.s 			page 258


 13150      56454E54 
 13150      5F474554 
 13150      5F53454C 
 13150      465F5349 
 13151              	.LASF390:
 13152 0684 4C565F45 		.ascii	"LV_EVENT_DRAW_MAIN\000"
 13152      56454E54 
 13152      5F445241 
 13152      575F4D41 
 13152      494E00
 13153              	.LASF448:
 13154 0697 6C765F6F 		.ascii	"lv_obj_get_style_outline_opa\000"
 13154      626A5F67 
 13154      65745F73 
 13154      74796C65 
 13154      5F6F7574 
 13155              	.LASF421:
 13156 06b4 6368696C 		.ascii	"child_cnt\000"
 13156      645F636E 
 13156      7400
 13157              	.LASF260:
 13158 06be 6C765F64 		.ascii	"lv_draw_line_dsc_t\000"
 13158      7261775F 
 13158      6C696E65 
 13158      5F647363 
 13158      5F7400
 13159              	.LASF170:
 13160 06d1 4C565F53 		.ascii	"LV_STYLE_TRANSFORM_PIVOT_X\000"
 13160      54594C45 
 13160      5F545241 
 13160      4E53464F 
 13160      524D5F50 
 13161              	.LASF171:
 13162 06ec 4C565F53 		.ascii	"LV_STYLE_TRANSFORM_PIVOT_Y\000"
 13162      54594C45 
 13162      5F545241 
 13162      4E53464F 
 13162      524D5F50 
 13163              	.LASF419:
 13164 0707 6C765F67 		.ascii	"lv_group_t\000"
 13164      726F7570 
 13164      5F7400
 13165              	.LASF433:
 13166 0712 5F6C765F 		.ascii	"_lv_obj_spec_attr_t\000"
 13166      6F626A5F 
 13166      73706563 
 13166      5F617474 
 13166      725F7400 
 13167              	.LASF136:
 13168 0726 4C565F53 		.ascii	"LV_STYLE_IMG_RECOLOR\000"
 13168      54594C45 
 13168      5F494D47 
 13168      5F524543 
 13168      4F4C4F52 
 13169              	.LASF275:
 13170 073b 61726561 		.ascii	"area_act\000"
 13170      5F616374 
ARM GAS  C:\Users\haske\AppData\Local\Temp\cc4f9rxb.s 			page 259


 13170      00
 13171              	.LASF504:
 13172 0744 6C765F6F 		.ascii	"lv_obj_draw_part_check_type\000"
 13172      626A5F64 
 13172      7261775F 
 13172      70617274 
 13172      5F636865 
 13173              	.LASF144:
 13174 0760 4C565F53 		.ascii	"LV_STYLE_ARC_WIDTH\000"
 13174      54594C45 
 13174      5F415243 
 13174      5F574944 
 13174      544800
 13175              	.LASF31:
 13176 0773 6F66735F 		.ascii	"ofs_x\000"
 13176      7800
 13177              	.LASF32:
 13178 0779 6F66735F 		.ascii	"ofs_y\000"
 13178      7900
 13179              	.LASF70:
 13180 077f 6C765F62 		.ascii	"lv_base_dir_t\000"
 13180      6173655F 
 13180      6469725F 
 13180      7400
 13181              	.LASF188:
 13182 078d 4C565F49 		.ascii	"LV_IMG_SRC_VARIABLE\000"
 13182      4D475F53 
 13182      52435F56 
 13182      41524941 
 13182      424C4500 
 13183              	.LASF205:
 13184 07a1 685F6C61 		.ascii	"h_layout\000"
 13184      796F7574 
 13184      00
 13185              	.LASF44:
 13186 07aa 5F426F6F 		.ascii	"_Bool\000"
 13186      6C00
 13187              	.LASF427:
 13188 07b0 7363726F 		.ascii	"scrollbar_mode\000"
 13188      6C6C6261 
 13188      725F6D6F 
 13188      646500
 13189              	.LASF278:
 13190 07bf 6F726967 		.ascii	"original\000"
 13190      696E616C 
 13190      00
 13191              	.LASF166:
 13192 07c8 4C565F53 		.ascii	"LV_STYLE_TRANSLATE_X\000"
 13192      54594C45 
 13192      5F545241 
 13192      4E534C41 
 13192      54455F58 
 13193              	.LASF167:
 13194 07dd 4C565F53 		.ascii	"LV_STYLE_TRANSLATE_Y\000"
 13194      54594C45 
 13194      5F545241 
 13194      4E534C41 
ARM GAS  C:\Users\haske\AppData\Local\Temp\cc4f9rxb.s 			page 260


 13194      54455F59 
 13195              	.LASF518:
 13196 07f2 474E5520 		.ascii	"GNU C11 5.4.1 20160609 (release) [ARM/embedded-5-br"
 13196      43313120 
 13196      352E342E 
 13196      31203230 
 13196      31363036 
 13197 0825 616E6368 		.ascii	"anch revision 237715] -mcpu=cortex-m0plus -mthumb -"
 13197      20726576 
 13197      6973696F 
 13197      6E203233 
 13197      37373135 
 13198 0858 67202D4F 		.ascii	"g -Og -ffunction-sections -ffat-lto-objects\000"
 13198      67202D66 
 13198      66756E63 
 13198      74696F6E 
 13198      2D736563 
 13199              	.LASF366:
 13200 0884 73746F70 		.ascii	"stop_processing\000"
 13200      5F70726F 
 13200      63657373 
 13200      696E6700 
 13201              	.LASF178:
 13202 0894 76616C75 		.ascii	"value\000"
 13202      6500
 13203              	.LASF514:
 13204 089a 6C765F6D 		.ascii	"lv_memset_00\000"
 13204      656D7365 
 13204      745F3030 
 13204      00
 13205              	.LASF199:
 13206 08a7 666C6167 		.ascii	"flags\000"
 13206      7300
 13207              	.LASF269:
 13208 08ad 6C765F64 		.ascii	"lv_draw_layer_flags_t\000"
 13208      7261775F 
 13208      6C617965 
 13208      725F666C 
 13208      6167735F 
 13209              	.LASF75:
 13210 08c3 4C565F47 		.ascii	"LV_GRAD_DIR_VER\000"
 13210      5241445F 
 13210      4449525F 
 13210      56455200 
 13211              	.LASF453:
 13212 08d3 6C765F6F 		.ascii	"lv_obj_get_style_bg_img_tiled\000"
 13212      626A5F67 
 13212      65745F73 
 13212      74796C65 
 13212      5F62675F 
 13213              	.LASF48:
 13214 08f1 63686172 		.ascii	"char\000"
 13214      00
 13215              	.LASF253:
 13216 08f6 6C765F64 		.ascii	"lv_draw_img_dsc_t\000"
 13216      7261775F 
 13216      696D675F 
ARM GAS  C:\Users\haske\AppData\Local\Temp\cc4f9rxb.s 			page 261


 13216      6473635F 
 13216      7400
 13217              	.LASF388:
 13218 0908 4C565F45 		.ascii	"LV_EVENT_REFR_EXT_DRAW_SIZE\000"
 13218      56454E54 
 13218      5F524546 
 13218      525F4558 
 13218      545F4452 
 13219              	.LASF39:
 13220 0924 756E6465 		.ascii	"underline_position\000"
 13220      726C696E 
 13220      655F706F 
 13220      73697469 
 13220      6F6E00
 13221              	.LASF297:
 13222 0937 6C617965 		.ascii	"layer_instance_size\000"
 13222      725F696E 
 13222      7374616E 
 13222      63655F73 
 13222      697A6500 
 13223              	.LASF256:
 13224 094b 64617368 		.ascii	"dash_gap\000"
 13224      5F676170 
 13224      00
 13225              	.LASF289:
 13226 0954 64726177 		.ascii	"draw_transform\000"
 13226      5F747261 
 13226      6E73666F 
 13226      726D00
 13227              	.LASF438:
 13228 0963 6C765F6F 		.ascii	"lv_obj_get_style_bg_opa\000"
 13228      626A5F67 
 13228      65745F73 
 13228      74796C65 
 13228      5F62675F 
 13229              	.LASF387:
 13230 097b 4C565F45 		.ascii	"LV_EVENT_COVER_CHECK\000"
 13230      56454E54 
 13230      5F434F56 
 13230      45525F43 
 13230      4845434B 
 13231              	.LASF105:
 13232 0990 4C565F53 		.ascii	"LV_STYLE_BASE_DIR\000"
 13232      54594C45 
 13232      5F424153 
 13232      455F4449 
 13232      5200
 13233              	.LASF482:
 13234 09a2 6C765F6F 		.ascii	"lv_obj_get_style_bg_grad_color_filtered\000"
 13234      626A5F67 
 13234      65745F73 
 13234      74796C65 
 13234      5F62675F 
 13235              	.LASF127:
 13236 09ca 4C565F53 		.ascii	"LV_STYLE_OUTLINE_OPA\000"
 13236      54594C45 
 13236      5F4F5554 
ARM GAS  C:\Users\haske\AppData\Local\Temp\cc4f9rxb.s 			page 262


 13236      4C494E45 
 13236      5F4F5041 
 13237              	.LASF83:
 13238 09df 73746F70 		.ascii	"stops_count\000"
 13238      735F636F 
 13238      756E7400 
 13239              	.LASF6:
 13240 09eb 5F5F7569 		.ascii	"__uint16_t\000"
 13240      6E743136 
 13240      5F7400
 13241              	.LASF511:
 13242 09f6 5F6C765F 		.ascii	"_lv_obj_style_apply_color_filter\000"
 13242      6F626A5F 
 13242      7374796C 
 13242      655F6170 
 13242      706C795F 
 13243              	.LASF386:
 13244 0a17 4C565F45 		.ascii	"LV_EVENT_HIT_TEST\000"
 13244      56454E54 
 13244      5F484954 
 13244      5F544553 
 13244      5400
 13245              	.LASF489:
 13246 0a29 67726164 		.ascii	"grad\000"
 13246      00
 13247              	.LASF225:
 13248 0a2e 6F75746C 		.ascii	"outline_pad\000"
 13248      696E655F 
 13248      70616400 
 13249              	.LASF298:
 13250 0a3a 6C765F64 		.ascii	"lv_draw_ctx_t\000"
 13250      7261775F 
 13250      6374785F 
 13250      7400
 13251              	.LASF107:
 13252 0a48 4C565F53 		.ascii	"LV_STYLE_BG_COLOR\000"
 13252      54594C45 
 13252      5F42475F 
 13252      434F4C4F 
 13252      5200
 13253              	.LASF137:
 13254 0a5a 4C565F53 		.ascii	"LV_STYLE_IMG_RECOLOR_OPA\000"
 13254      54594C45 
 13254      5F494D47 
 13254      5F524543 
 13254      4F4C4F52 
 13255              	.LASF463:
 13256 0a73 6C765F6F 		.ascii	"lv_obj_get_style_text_letter_space\000"
 13256      626A5F67 
 13256      65745F73 
 13256      74796C65 
 13256      5F746578 
 13257              	.LASF218:
 13258 0a96 626F7264 		.ascii	"border_color\000"
 13258      65725F63 
 13258      6F6C6F72 
 13258      00
ARM GAS  C:\Users\haske\AppData\Local\Temp\cc4f9rxb.s 			page 263


 13259              	.LASF163:
 13260 0aa3 4C565F53 		.ascii	"LV_STYLE_BLEND_MODE\000"
 13260      54594C45 
 13260      5F424C45 
 13260      4E445F4D 
 13260      4F444500 
 13261              	.LASF191:
 13262 0ab7 4C565F49 		.ascii	"LV_IMG_SRC_UNKNOWN\000"
 13262      4D475F53 
 13262      52435F55 
 13262      4E4B4E4F 
 13262      574E00
 13263              	.LASF26:
 13264 0aca 6C765F64 		.ascii	"lv_dir_t\000"
 13264      69725F74 
 13264      00
 13265              	.LASF408:
 13266 0ad3 4C565F45 		.ascii	"LV_EVENT_SCREEN_LOADED\000"
 13266      56454E54 
 13266      5F534352 
 13266      45454E5F 
 13266      4C4F4144 
 13267              	.LASF177:
 13268 0aea 70726F70 		.ascii	"prop\000"
 13268      00
 13269              	.LASF350:
 13270 0aef 4C565F50 		.ascii	"LV_PART_ANY\000"
 13270      4152545F 
 13270      414E5900 
 13271              	.LASF182:
 13272 0afb 636F6E73 		.ascii	"const_props\000"
 13272      745F7072 
 13272      6F707300 
 13273              	.LASF358:
 13274 0b07 5F6C765F 		.ascii	"_lv_obj_style_t\000"
 13274      6F626A5F 
 13274      7374796C 
 13274      655F7400 
 13275              	.LASF221:
 13276 0b17 626F7264 		.ascii	"border_post\000"
 13276      65725F70 
 13276      6F737400 
 13277              	.LASF423:
 13278 0b23 6576656E 		.ascii	"event_dsc\000"
 13278      745F6473 
 13278      6300
 13279              	.LASF458:
 13280 0b2d 6C765F6F 		.ascii	"lv_obj_get_style_shadow_ofs_y\000"
 13280      626A5F67 
 13280      65745F73 
 13280      74796C65 
 13280      5F736861 
 13281              	.LASF139:
 13282 0b4b 4C565F53 		.ascii	"LV_STYLE_LINE_DASH_WIDTH\000"
 13282      54594C45 
 13282      5F4C494E 
 13282      455F4441 
ARM GAS  C:\Users\haske\AppData\Local\Temp\cc4f9rxb.s 			page 264


 13282      53485F57 
 13283              	.LASF311:
 13284 0b64 74657874 		.ascii	"text\000"
 13284      00
 13285              	.LASF229:
 13286 0b69 73686164 		.ascii	"shadow_ofs_x\000"
 13286      6F775F6F 
 13286      66735F78 
 13286      00
 13287              	.LASF164:
 13288 0b76 4C565F53 		.ascii	"LV_STYLE_TRANSFORM_WIDTH\000"
 13288      54594C45 
 13288      5F545241 
 13288      4E53464F 
 13288      524D5F57 
 13289              	.LASF422:
 13290 0b8f 67726F75 		.ascii	"group_p\000"
 13290      705F7000 
 13291              	.LASF176:
 13292 0b97 6C765F73 		.ascii	"lv_style_prop_t\000"
 13292      74796C65 
 13292      5F70726F 
 13292      705F7400 
 13293              	.LASF257:
 13294 0ba7 726F756E 		.ascii	"round_start\000"
 13294      645F7374 
 13294      61727400 
 13295              	.LASF424:
 13296 0bb3 7363726F 		.ascii	"scroll\000"
 13296      6C6C00
 13297              	.LASF41:
 13298 0bba 66616C6C 		.ascii	"fallback\000"
 13298      6261636B 
 13298      00
 13299              	.LASF486:
 13300 0bc3 6C765F6F 		.ascii	"lv_obj_get_style_bg_img_recolor_filtered\000"
 13300      626A5F67 
 13300      65745F73 
 13300      74796C65 
 13300      5F62675F 
 13301              	.LASF181:
 13302 0bec 76616C75 		.ascii	"values_and_props\000"
 13302      65735F61 
 13302      6E645F70 
 13302      726F7073 
 13302      00
 13303              	.LASF522:
 13304 0bfd 6C765F66 		.ascii	"lv_font_montserrat_14\000"
 13304      6F6E745F 
 13304      6D6F6E74 
 13304      73657272 
 13304      61745F31 
 13305              	.LASF497:
 13306 0c13 6C765F6F 		.ascii	"lv_obj_init_draw_arc_dsc\000"
 13306      626A5F69 
 13306      6E69745F 
 13306      64726177 
ARM GAS  C:\Users\haske\AppData\Local\Temp\cc4f9rxb.s 			page 265


 13306      5F617263 
 13307              	.LASF314:
 13308 0c2c 7375625F 		.ascii	"sub_part_ptr\000"
 13308      70617274 
 13308      5F707472 
 13308      00
 13309              	.LASF161:
 13310 0c39 4C565F53 		.ascii	"LV_STYLE_ANIM_SPEED\000"
 13310      54594C45 
 13310      5F414E49 
 13310      4D5F5350 
 13310      45454400 
 13311              	.LASF25:
 13312 0c4d 6C765F61 		.ascii	"lv_area_t\000"
 13312      7265615F 
 13312      7400
 13313              	.LASF293:
 13314 0c57 6C617965 		.ascii	"layer_init\000"
 13314      725F696E 
 13314      697400
 13315              	.LASF125:
 13316 0c62 4C565F53 		.ascii	"LV_STYLE_OUTLINE_WIDTH\000"
 13316      54594C45 
 13316      5F4F5554 
 13316      4C494E45 
 13316      5F574944 
 13317              	.LASF426:
 13318 0c79 6578745F 		.ascii	"ext_draw_size\000"
 13318      64726177 
 13318      5F73697A 
 13318      6500
 13319              	.LASF306:
 13320 0c87 72656374 		.ascii	"rect_dsc\000"
 13320      5F647363 
 13320      00
 13321              	.LASF301:
 13322 0c90 4C565F4C 		.ascii	"LV_LAYER_TYPE_TRANSFORM\000"
 13322      41594552 
 13322      5F545950 
 13322      455F5452 
 13322      414E5346 
 13323              	.LASF441:
 13324 0ca8 6C765F6F 		.ascii	"lv_obj_get_style_bg_grad_stop\000"
 13324      626A5F67 
 13324      65745F73 
 13324      74796C65 
 13324      5F62675F 
 13325              	.LASF496:
 13326 0cc6 6C765F6F 		.ascii	"lv_obj_get_style_arc_color_filtered\000"
 13326      626A5F67 
 13326      65745F73 
 13326      74796C65 
 13326      5F617263 
 13327              	.LASF376:
 13328 0cea 4C565F45 		.ascii	"LV_EVENT_CLICKED\000"
 13328      56454E54 
 13328      5F434C49 
ARM GAS  C:\Users\haske\AppData\Local\Temp\cc4f9rxb.s 			page 266


 13328      434B4544 
 13328      00
 13329              	.LASF500:
 13330 0cfb 73685F6F 		.ascii	"sh_ofs_x\000"
 13330      66735F78 
 13330      00
 13331              	.LASF87:
 13332 0d04 4C565F53 		.ascii	"LV_STYLE_PROP_INV\000"
 13332      54594C45 
 13332      5F50524F 
 13332      505F494E 
 13332      5600
 13333              	.LASF153:
 13334 0d16 4C565F53 		.ascii	"LV_STYLE_TEXT_LINE_SPACE\000"
 13334      54594C45 
 13334      5F544558 
 13334      545F4C49 
 13334      4E455F53 
 13335              	.LASF368:
 13336 0d2f 6C765F6F 		.ascii	"lv_obj_class_t\000"
 13336      626A5F63 
 13336      6C617373 
 13336      5F7400
 13337              	.LASF179:
 13338 0d3e 6C765F73 		.ascii	"lv_style_const_prop_t\000"
 13338      74796C65 
 13338      5F636F6E 
 13338      73745F70 
 13338      726F705F 
 13339              	.LASF391:
 13340 0d54 4C565F45 		.ascii	"LV_EVENT_DRAW_MAIN_END\000"
 13340      56454E54 
 13340      5F445241 
 13340      575F4D41 
 13340      494E5F45 
 13341              	.LASF195:
 13342 0d6b 70617265 		.ascii	"parent\000"
 13342      6E7400
 13343              	.LASF258:
 13344 0d72 726F756E 		.ascii	"round_end\000"
 13344      645F656E 
 13344      6400
 13345              	.LASF263:
 13346 0d7c 696D675F 		.ascii	"img_src\000"
 13346      73726300 
 13347              	.LASF476:
 13348 0d84 6C765F6F 		.ascii	"lv_obj_get_style_arc_opa\000"
 13348      626A5F67 
 13348      65745F73 
 13348      74796C65 
 13348      5F617263 
 13349              	.LASF357:
 13350 0d9d 69735F74 		.ascii	"is_trans\000"
 13350      72616E73 
 13350      00
 13351              	.LASF309:
 13352 0da6 696D675F 		.ascii	"img_dsc\000"
ARM GAS  C:\Users\haske\AppData\Local\Temp\cc4f9rxb.s 			page 267


 13352      64736300 
 13353              	.LASF231:
 13354 0dae 73686164 		.ascii	"shadow_spread\000"
 13354      6F775F73 
 13354      70726561 
 13354      6400
 13355              	.LASF160:
 13356 0dbc 4C565F53 		.ascii	"LV_STYLE_ANIM_TIME\000"
 13356      54594C45 
 13356      5F414E49 
 13356      4D5F5449 
 13356      4D4500
 13357              	.LASF100:
 13358 0dcf 4C565F53 		.ascii	"LV_STYLE_PAD_BOTTOM\000"
 13358      54594C45 
 13358      5F504144 
 13358      5F424F54 
 13358      544F4D00 
 13359              	.LASF320:
 13360 0de3 77696474 		.ascii	"width_def\000"
 13360      685F6465 
 13360      6600
 13361              	.LASF108:
 13362 0ded 4C565F53 		.ascii	"LV_STYLE_BG_OPA\000"
 13362      54594C45 
 13362      5F42475F 
 13362      4F504100 
 13363              	.LASF143:
 13364 0dfd 4C565F53 		.ascii	"LV_STYLE_LINE_OPA\000"
 13364      54594C45 
 13364      5F4C494E 
 13364      455F4F50 
 13364      4100
 13365              	.LASF186:
 13366 0e0f 6C765F73 		.ascii	"lv_style_t\000"
 13366      74796C65 
 13366      5F7400
 13367              	.LASF197:
 13368 0e1a 7374796C 		.ascii	"styles\000"
 13368      657300
 13369              	.LASF135:
 13370 0e21 4C565F53 		.ascii	"LV_STYLE_IMG_OPA\000"
 13370      54594C45 
 13370      5F494D47 
 13370      5F4F5041 
 13370      00
 13371              	.LASF168:
 13372 0e32 4C565F53 		.ascii	"LV_STYLE_TRANSFORM_ZOOM\000"
 13372      54594C45 
 13372      5F545241 
 13372      4E53464F 
 13372      524D5F5A 
 13373              	.LASF385:
 13374 0e4a 4C565F45 		.ascii	"LV_EVENT_LEAVE\000"
 13374      56454E54 
 13374      5F4C4541 
 13374      564500
ARM GAS  C:\Users\haske\AppData\Local\Temp\cc4f9rxb.s 			page 268


 13375              	.LASF11:
 13376 0e59 6C6F6E67 		.ascii	"long unsigned int\000"
 13376      20756E73 
 13376      69676E65 
 13376      6420696E 
 13376      7400
 13377              	.LASF429:
 13378 0e6b 7363726F 		.ascii	"scroll_snap_y\000"
 13378      6C6C5F73 
 13378      6E61705F 
 13378      7900
 13379              	.LASF187:
 13380 0e79 6C765F69 		.ascii	"lv_img_cf_t\000"
 13380      6D675F63 
 13380      665F7400 
 13381              	.LASF150:
 13382 0e85 4C565F53 		.ascii	"LV_STYLE_TEXT_OPA\000"
 13382      54594C45 
 13382      5F544558 
 13382      545F4F50 
 13382      4100
 13383              	.LASF261:
 13384 0e97 73746172 		.ascii	"start_angle\000"
 13384      745F616E 
 13384      676C6500 
 13385              	.LASF461:
 13386 0ea3 6C765F6F 		.ascii	"lv_obj_get_style_text_decor\000"
 13386      626A5F67 
 13386      65745F73 
 13386      74796C65 
 13386      5F746578 
 13387              	.LASF363:
 13388 0ebf 70617261 		.ascii	"param\000"
 13388      6D00
 13389              	.LASF360:
 13390 0ec5 74617267 		.ascii	"target\000"
 13390      657400
 13391              	.LASF296:
 13392 0ecc 6C617965 		.ascii	"layer_destroy\000"
 13392      725F6465 
 13392      7374726F 
 13392      7900
 13393              	.LASF471:
 13394 0eda 6C765F6F 		.ascii	"lv_obj_get_style_line_width\000"
 13394      626A5F67 
 13394      65745F73 
 13394      74796C65 
 13394      5F6C696E 
 13395              	.LASF255:
 13396 0ef6 64617368 		.ascii	"dash_width\000"
 13396      5F776964 
 13396      746800
 13397              	.LASF322:
 13398 0f01 65646974 		.ascii	"editable\000"
 13398      61626C65 
 13398      00
 13399              	.LASF307:
ARM GAS  C:\Users\haske\AppData\Local\Temp\cc4f9rxb.s 			page 269


 13400 0f0a 6C616265 		.ascii	"label_dsc\000"
 13400      6C5F6473 
 13400      6300
 13401              	.LASF466:
 13402 0f14 6C765F6F 		.ascii	"lv_obj_get_style_img_recolor_opa\000"
 13402      626A5F67 
 13402      65745F73 
 13402      74796C65 
 13402      5F696D67 
 13403              	.LASF27:
 13404 0f35 7265736F 		.ascii	"resolved_font\000"
 13404      6C766564 
 13404      5F666F6E 
 13404      7400
 13405              	.LASF302:
 13406 0f43 6C765F6C 		.ascii	"lv_layer_type_t\000"
 13406      61796572 
 13406      5F747970 
 13406      655F7400 
 13407              	.LASF332:
 13408 0f53 6F626A5F 		.ascii	"obj_ll\000"
 13408      6C6C00
 13409              	.LASF283:
 13410 0f5a 64726177 		.ascii	"draw_arc\000"
 13410      5F617263 
 13410      00
 13411              	.LASF142:
 13412 0f63 4C565F53 		.ascii	"LV_STYLE_LINE_COLOR\000"
 13412      54594C45 
 13412      5F4C494E 
 13412      455F434F 
 13412      4C4F5200 
 13413              	.LASF50:
 13414 0f77 4C565F4F 		.ascii	"LV_OPA_0\000"
 13414      50415F30 
 13414      00
 13415              	.LASF103:
 13416 0f80 4C565F53 		.ascii	"LV_STYLE_PAD_ROW\000"
 13416      54594C45 
 13416      5F504144 
 13416      5F524F57 
 13416      00
 13417              	.LASF444:
 13418 0f91 6C765F6F 		.ascii	"lv_obj_get_style_border_width\000"
 13418      626A5F67 
 13418      65745F73 
 13418      74796C65 
 13418      5F626F72 
 13419              	.LASF271:
 13420 0faf 6275665F 		.ascii	"buf_area\000"
 13420      61726561 
 13420      00
 13421              	.LASF249:
 13422 0fb8 7265636F 		.ascii	"recolor\000"
 13422      6C6F7200 
 13423              	.LASF399:
 13424 0fc0 4C565F45 		.ascii	"LV_EVENT_REFRESH\000"
ARM GAS  C:\Users\haske\AppData\Local\Temp\cc4f9rxb.s 			page 270


 13424      56454E54 
 13424      5F524546 
 13424      52455348 
 13424      00
 13425              	.LASF324:
 13426 0fd1 696E7374 		.ascii	"instance_size\000"
 13426      616E6365 
 13426      5F73697A 
 13426      6500
 13427              	.LASF246:
 13428 0fdf 616E676C 		.ascii	"angle\000"
 13428      6500
 13429              	.LASF439:
 13430 0fe5 6C765F6F 		.ascii	"lv_obj_get_style_bg_grad\000"
 13430      626A5F67 
 13430      65745F73 
 13430      74796C65 
 13430      5F62675F 
 13431              	.LASF101:
 13432 0ffe 4C565F53 		.ascii	"LV_STYLE_PAD_LEFT\000"
 13432      54594C45 
 13432      5F504144 
 13432      5F4C4546 
 13432      5400
 13433              	.LASF361:
 13434 1010 63757272 		.ascii	"current_target\000"
 13434      656E745F 
 13434      74617267 
 13434      657400
 13435              	.LASF405:
 13436 101f 4C565F45 		.ascii	"LV_EVENT_CHILD_DELETED\000"
 13436      56454E54 
 13436      5F434849 
 13436      4C445F44 
 13436      454C4554 
 13437              	.LASF464:
 13438 1036 6C765F6F 		.ascii	"lv_obj_get_style_text_align\000"
 13438      626A5F67 
 13438      65745F73 
 13438      74796C65 
 13438      5F746578 
 13439              	.LASF344:
 13440 1052 4C565F50 		.ascii	"LV_PART_KNOB\000"
 13440      4152545F 
 13440      4B4E4F42 
 13440      00
 13441              	.LASF284:
 13442 105f 64726177 		.ascii	"draw_img_decoded\000"
 13442      5F696D67 
 13442      5F646563 
 13442      6F646564 
 13442      00
 13443              	.LASF159:
 13444 1070 4C565F53 		.ascii	"LV_STYLE_ANIM\000"
 13444      54594C45 
 13444      5F414E49 
 13444      4D00
ARM GAS  C:\Users\haske\AppData\Local\Temp\cc4f9rxb.s 			page 271


 13445              	.LASF94:
 13446 107e 4C565F53 		.ascii	"LV_STYLE_X\000"
 13446      54594C45 
 13446      5F5800
 13447              	.LASF325:
 13448 1089 6C765F6F 		.ascii	"lv_obj_draw_part_dsc_t\000"
 13448      626A5F64 
 13448      7261775F 
 13448      70617274 
 13448      5F647363 
 13449              	.LASF155:
 13450 10a0 4C565F53 		.ascii	"LV_STYLE_TEXT_ALIGN\000"
 13450      54594C45 
 13450      5F544558 
 13450      545F414C 
 13450      49474E00 
 13451              	.LASF478:
 13452 10b4 6C765F6F 		.ascii	"lv_obj_get_style_arc_img_src\000"
 13452      626A5F67 
 13452      65745F73 
 13452      74796C65 
 13452      5F617263 
 13453              	.LASF192:
 13454 10d1 5F6C765F 		.ascii	"_lv_font_t\000"
 13454      666F6E74 
 13454      5F7400
 13455              	.LASF10:
 13456 10dc 5F5F7569 		.ascii	"__uint32_t\000"
 13456      6E743332 
 13456      5F7400
 13457              	.LASF319:
 13458 10e7 6576656E 		.ascii	"event_cb\000"
 13458      745F6362 
 13458      00
 13459              	.LASF416:
 13460 10f0 6C765F65 		.ascii	"lv_event_code_t\000"
 13460      76656E74 
 13460      5F636F64 
 13460      655F7400 
 13461              	.LASF475:
 13462 1100 6C765F6F 		.ascii	"lv_obj_get_style_arc_width\000"
 13462      626A5F67 
 13462      65745F73 
 13462      74796C65 
 13462      5F617263 
 13463              	.LASF72:
 13464 111b 6C765F74 		.ascii	"lv_text_decor_t\000"
 13464      6578745F 
 13464      6465636F 
 13464      725F7400 
 13465              	.LASF359:
 13466 112b 5F6C765F 		.ascii	"_lv_event_t\000"
 13466      6576656E 
 13466      745F7400 
 13467              	.LASF12:
 13468 1137 6C6F6E67 		.ascii	"long long int\000"
 13468      206C6F6E 
ARM GAS  C:\Users\haske\AppData\Local\Temp\cc4f9rxb.s 			page 272


 13468      6720696E 
 13468      7400
 13469              	.LASF227:
 13470 1145 73686164 		.ascii	"shadow_color\000"
 13470      6F775F63 
 13470      6F6C6F72 
 13470      00
 13471              	.LASF365:
 13472 1152 64656C65 		.ascii	"deleted\000"
 13472      74656400 
 13473              	.LASF254:
 13474 115a 77696474 		.ascii	"width\000"
 13474      6800
 13475              	.LASF380:
 13476 1160 4C565F45 		.ascii	"LV_EVENT_SCROLL\000"
 13476      56454E54 
 13476      5F534352 
 13476      4F4C4C00 
 13477              	.LASF420:
 13478 1170 6368696C 		.ascii	"children\000"
 13478      6472656E 
 13478      00
 13479              	.LASF169:
 13480 1179 4C565F53 		.ascii	"LV_STYLE_TRANSFORM_ANGLE\000"
 13480      54594C45 
 13480      5F545241 
 13480      4E53464F 
 13480      524D5F41 
 13481              	.LASF443:
 13482 1192 6C765F6F 		.ascii	"lv_obj_get_style_bg_dither_mode\000"
 13482      626A5F67 
 13482      65745F73 
 13482      74796C65 
 13482      5F62675F 
 13483              	.LASF266:
 13484 11b2 4C565F44 		.ascii	"LV_DRAW_LAYER_FLAG_NONE\000"
 13484      5241575F 
 13484      4C415945 
 13484      525F464C 
 13484      41475F4E 
 13485              	.LASF519:
 13486 11ca 2E2E5C2E 		.ascii	"..\\..\\..\\arduinoLCD\\test\\Pain Drain\\libraries"
 13486      2E5C2E2E 
 13486      5C617264 
 13486      75696E6F 
 13486      4C43445C 
 13487 11f7 5C6C7667 		.ascii	"\\lvgl\\src\\core\\lv_obj_draw.c\000"
 13487      6C5C7372 
 13487      635C636F 
 13487      72655C6C 
 13487      765F6F62 
 13488              	.LASF157:
 13489 1214 4C565F53 		.ascii	"LV_STYLE_COLOR_FILTER_DSC\000"
 13489      54594C45 
 13489      5F434F4C 
 13489      4F525F46 
 13489      494C5445 
ARM GAS  C:\Users\haske\AppData\Local\Temp\cc4f9rxb.s 			page 273


 13490              	.LASF69:
 13491 122e 6C765F74 		.ascii	"lv_text_align_t\000"
 13491      6578745F 
 13491      616C6967 
 13491      6E5F7400 
 13492              	.LASF418:
 13493 123e 6C765F67 		.ascii	"lv_group_edge_cb_t\000"
 13493      726F7570 
 13493      5F656467 
 13493      655F6362 
 13493      5F7400
 13494              	.LASF474:
 13495 1251 6C765F6F 		.ascii	"lv_obj_get_style_line_rounded\000"
 13495      626A5F67 
 13495      65745F73 
 13495      74796C65 
 13495      5F6C696E 
 13496              	.LASF435:
 13497 126f 6C765F6F 		.ascii	"lv_obj_get_style_opa\000"
 13497      626A5F67 
 13497      65745F73 
 13497      74796C65 
 13497      5F6F7061 
 13498              	.LASF40:
 13499 1284 756E6465 		.ascii	"underline_thickness\000"
 13499      726C696E 
 13499      655F7468 
 13499      69636B6E 
 13499      65737300 
 13500              	.LASF154:
 13501 1298 4C565F53 		.ascii	"LV_STYLE_TEXT_DECOR\000"
 13501      54594C45 
 13501      5F544558 
 13501      545F4445 
 13501      434F5200 
 13502              	.LASF242:
 13503 12ac 616C6967 		.ascii	"align\000"
 13503      6E00
 13504              	.LASF49:
 13505 12b2 4C565F4F 		.ascii	"LV_OPA_TRANSP\000"
 13505      50415F54 
 13505      52414E53 
 13505      5000
 13506              	.LASF145:
 13507 12c0 4C565F53 		.ascii	"LV_STYLE_ARC_ROUNDED\000"
 13507      54594C45 
 13507      5F415243 
 13507      5F524F55 
 13507      4E444544 
 13508              	.LASF203:
 13509 12d5 736B6970 		.ascii	"skip_trans\000"
 13509      5F747261 
 13509      6E7300
 13510              	.LASF343:
 13511 12e0 4C565F50 		.ascii	"LV_PART_INDICATOR\000"
 13511      4152545F 
 13511      494E4449 
ARM GAS  C:\Users\haske\AppData\Local\Temp\cc4f9rxb.s 			page 274


 13511      4341544F 
 13511      5200
 13512              	.LASF337:
 13513 12f2 65646974 		.ascii	"editing\000"
 13513      696E6700 
 13514              	.LASF342:
 13515 12fa 4C565F50 		.ascii	"LV_PART_SCROLLBAR\000"
 13515      4152545F 
 13515      5343524F 
 13515      4C4C4241 
 13515      5200
 13516              	.LASF149:
 13517 130c 4C565F53 		.ascii	"LV_STYLE_TEXT_COLOR\000"
 13517      54594C45 
 13517      5F544558 
 13517      545F434F 
 13517      4C4F5200 
 13518              	.LASF442:
 13519 1320 6C765F6F 		.ascii	"lv_obj_get_style_bg_main_stop\000"
 13519      626A5F67 
 13519      65745F73 
 13519      74796C65 
 13519      5F62675F 
 13520              	.LASF402:
 13521 133e 4C565F45 		.ascii	"LV_EVENT_DELETE\000"
 13521      56454E54 
 13521      5F44454C 
 13521      45544500 
 13522              	.LASF194:
 13523 134e 636C6173 		.ascii	"class_p\000"
 13523      735F7000 
 13524              	.LASF392:
 13525 1356 4C565F45 		.ascii	"LV_EVENT_DRAW_POST_BEGIN\000"
 13525      56454E54 
 13525      5F445241 
 13525      575F504F 
 13525      53545F42 
 13526              	.LASF14:
 13527 136f 756E7369 		.ascii	"unsigned int\000"
 13527      676E6564 
 13527      20696E74 
 13527      00
 13528              	.LASF481:
 13529 137c 6C765F6F 		.ascii	"lv_obj_get_style_bg_color_filtered\000"
 13529      626A5F67 
 13529      65745F73 
 13529      74796C65 
 13529      5F62675F 
 13530              	.LASF484:
 13531 139f 6C765F6F 		.ascii	"lv_obj_get_style_outline_color_filtered\000"
 13531      626A5F67 
 13531      65745F73 
 13531      74796C65 
 13531      5F6F7574 
 13532              	.LASF299:
 13533 13c7 4C565F4C 		.ascii	"LV_LAYER_TYPE_NONE\000"
 13533      41594552 
ARM GAS  C:\Users\haske\AppData\Local\Temp\cc4f9rxb.s 			page 275


 13533      5F545950 
 13533      455F4E4F 
 13533      4E4500
 13534              	.LASF502:
 13535 13da 6C765F6F 		.ascii	"lv_obj_draw_dsc_init\000"
 13535      626A5F64 
 13535      7261775F 
 13535      6473635F 
 13535      696E6974 
 13536              	.LASF270:
 13537 13ef 636C6970 		.ascii	"clip_area\000"
 13537      5F617265 
 13537      6100
 13538              	.LASF86:
 13539 13f9 6C765F73 		.ascii	"lv_style_value_t\000"
 13539      74796C65 
 13539      5F76616C 
 13539      75655F74 
 13539      00
 13540              	.LASF236:
 13541 140a 73656C5F 		.ascii	"sel_end\000"
 13541      656E6400 
 13542              	.LASF456:
 13543 1412 6C765F6F 		.ascii	"lv_obj_get_style_shadow_opa\000"
 13543      626A5F67 
 13543      65745F73 
 13543      74796C65 
 13543      5F736861 
 13544              	.LASF175:
 13545 142e 5F4C565F 		.ascii	"_LV_STYLE_PROP_CONST\000"
 13545      5354594C 
 13545      455F5052 
 13545      4F505F43 
 13545      4F4E5354 
 13546              	.LASF274:
 13547 1443 61726561 		.ascii	"area_full\000"
 13547      5F66756C 
 13547      6C00
 13548              	.LASF243:
 13549 144d 666C6167 		.ascii	"flag\000"
 13549      00
 13550              	.LASF483:
 13551 1452 6C765F6F 		.ascii	"lv_obj_get_style_border_color_filtered\000"
 13551      626A5F67 
 13551      65745F73 
 13551      74796C65 
 13551      5F626F72 
 13552              	.LASF397:
 13553 1479 4C565F45 		.ascii	"LV_EVENT_VALUE_CHANGED\000"
 13553      56454E54 
 13553      5F56414C 
 13553      55455F43 
 13553      48414E47 
 13554              	.LASF449:
 13555 1490 6C765F6F 		.ascii	"lv_obj_get_style_outline_pad\000"
 13555      626A5F67 
 13555      65745F73 
ARM GAS  C:\Users\haske\AppData\Local\Temp\cc4f9rxb.s 			page 276


 13555      74796C65 
 13555      5F6F7574 
 13556              	.LASF273:
 13557 14ad 5F6C765F 		.ascii	"_lv_draw_layer_ctx_t\000"
 13557      64726177 
 13557      5F6C6179 
 13557      65725F63 
 13557      74785F74 
 13558              	.LASF226:
 13559 14c2 6F75746C 		.ascii	"outline_opa\000"
 13559      696E655F 
 13559      6F706100 
 13560              	.LASF447:
 13561 14ce 6C765F6F 		.ascii	"lv_obj_get_style_outline_width\000"
 13561      626A5F67 
 13561      65745F73 
 13561      74796C65 
 13561      5F6F7574 
 13562              	.LASF276:
 13563 14ed 6D61785F 		.ascii	"max_row_with_alpha\000"
 13563      726F775F 
 13563      77697468 
 13563      5F616C70 
 13563      686100
 13564              	.LASF415:
 13565 1500 4C565F45 		.ascii	"LV_EVENT_PREPROCESS\000"
 13565      56454E54 
 13565      5F505245 
 13565      50524F43 
 13565      45535300 
 13566              	.LASF251:
 13567 1514 6672616D 		.ascii	"frame_id\000"
 13567      655F6964 
 13567      00
 13568              	.LASF310:
 13569 151d 6172635F 		.ascii	"arc_dsc\000"
 13569      64736300 
 13570              	.LASF508:
 13571 1525 735F6E65 		.ascii	"s_new\000"
 13571      7700
 13572              	.LASF250:
 13573 152b 7265636F 		.ascii	"recolor_opa\000"
 13573      6C6F725F 
 13573      6F706100 
 13574              	.LASF97:
 13575 1537 4C565F53 		.ascii	"LV_STYLE_LAYOUT\000"
 13575      54594C45 
 13575      5F4C4159 
 13575      4F555400 
 13576              	.LASF43:
 13577 1547 6C765F66 		.ascii	"lv_font_glyph_dsc_t\000"
 13577      6F6E745F 
 13577      676C7970 
 13577      685F6473 
 13577      635F7400 
 13578              	.LASF407:
 13579 155b 4C565F45 		.ascii	"LV_EVENT_SCREEN_LOAD_START\000"
ARM GAS  C:\Users\haske\AppData\Local\Temp\cc4f9rxb.s 			page 277


 13579      56454E54 
 13579      5F534352 
 13579      45454E5F 
 13579      4C4F4144 
 13580              	.LASF367:
 13581 1576 73746F70 		.ascii	"stop_bubbling\000"
 13581      5F627562 
 13581      626C696E 
 13581      6700
 13582              	.LASF224:
 13583 1584 6F75746C 		.ascii	"outline_width\000"
 13583      696E655F 
 13583      77696474 
 13583      6800
 13584              	.LASF129:
 13585 1592 4C565F53 		.ascii	"LV_STYLE_SHADOW_WIDTH\000"
 13585      54594C45 
 13585      5F534841 
 13585      444F575F 
 13585      57494454 
 13586              	.LASF371:
 13587 15a8 4C565F45 		.ascii	"LV_EVENT_PRESSING\000"
 13587      56454E54 
 13587      5F505245 
 13587      5353494E 
 13587      4700
 13588              	.LASF106:
 13589 15ba 4C565F53 		.ascii	"LV_STYLE_CLIP_CORNER\000"
 13589      54594C45 
 13589      5F434C49 
 13589      505F434F 
 13589      524E4552 
 13590              	.LASF494:
 13591 15cf 6C765F6F 		.ascii	"lv_obj_get_style_line_color_filtered\000"
 13591      626A5F67 
 13591      65745F73 
 13591      74796C65 
 13591      5F6C696E 
 13592              	.LASF252:
 13593 15f4 616E7469 		.ascii	"antialias\000"
 13593      616C6961 
 13593      7300
 13594              	.LASF316:
 13595 15fe 62617365 		.ascii	"base_class\000"
 13595      5F636C61 
 13595      737300
 13596              	.LASF60:
 13597 1609 4C565F4F 		.ascii	"LV_OPA_100\000"
 13597      50415F31 
 13597      303000
 13598              	.LASF375:
 13599 1614 4C565F45 		.ascii	"LV_EVENT_LONG_PRESSED_REPEAT\000"
 13599      56454E54 
 13599      5F4C4F4E 
 13599      475F5052 
 13599      45535345 
 13600              	.LASF334:
ARM GAS  C:\Users\haske\AppData\Local\Temp\cc4f9rxb.s 			page 278


 13601 1631 666F6375 		.ascii	"focus_cb\000"
 13601      735F6362 
 13601      00
 13602              	.LASF46:
 13603 163a 6C765F72 		.ascii	"lv_res_t\000"
 13603      65735F74 
 13603      00
 13604              	.LASF158:
 13605 1643 4C565F53 		.ascii	"LV_STYLE_COLOR_FILTER_OPA\000"
 13605      54594C45 
 13605      5F434F4C 
 13605      4F525F46 
 13605      494C5445 
 13606              	.LASF22:
 13607 165d 6C6F6E67 		.ascii	"long double\000"
 13607      20646F75 
 13607      626C6500 
 13608              	.LASF354:
 13609 1669 7374796C 		.ascii	"style\000"
 13609      6500
 13610              	.LASF78:
 13611 166f 6C765F64 		.ascii	"lv_dither_mode_t\000"
 13611      69746865 
 13611      725F6D6F 
 13611      64655F74 
 13611      00
 13612              	.LASF454:
 13613 1680 6C765F6F 		.ascii	"lv_obj_get_style_bg_img_recolor_opa\000"
 13613      626A5F67 
 13613      65745F73 
 13613      74796C65 
 13613      5F62675F 
 13614              	.LASF353:
 13615 16a4 6C765F73 		.ascii	"lv_scroll_snap_t\000"
 13615      63726F6C 
 13615      6C5F736E 
 13615      61705F74 
 13615      00
 13616              	.LASF362:
 13617 16b5 636F6465 		.ascii	"code\000"
 13617      00
 13618              	.LASF38:
 13619 16ba 73756270 		.ascii	"subpx\000"
 13619      7800
 13620              	.LASF492:
 13621 16c0 6C765F6F 		.ascii	"lv_obj_get_style_img_recolor_filtered\000"
 13621      626A5F67 
 13621      65745F73 
 13621      74796C65 
 13621      5F696D67 
 13622              	.LASF61:
 13623 16e6 4C565F4F 		.ascii	"LV_OPA_COVER\000"
 13623      50415F43 
 13623      4F564552 
 13623      00
 13624              	.LASF291:
 13625 16f3 77616974 		.ascii	"wait_for_finish\000"
ARM GAS  C:\Users\haske\AppData\Local\Temp\cc4f9rxb.s 			page 279


 13625      5F666F72 
 13625      5F66696E 
 13625      69736800 
 13626              	.LASF341:
 13627 1703 4C565F50 		.ascii	"LV_PART_MAIN\000"
 13627      4152545F 
 13627      4D41494E 
 13627      00
 13628              	.LASF216:
 13629 1710 62675F69 		.ascii	"bg_img_recolor_opa\000"
 13629      6D675F72 
 13629      65636F6C 
 13629      6F725F6F 
 13629      706100
 13630              	.LASF268:
 13631 1723 4C565F44 		.ascii	"LV_DRAW_LAYER_FLAG_CAN_SUBDIVIDE\000"
 13631      5241575F 
 13631      4C415945 
 13631      525F464C 
 13631      41475F43 
 13632              	.LASF370:
 13633 1744 4C565F45 		.ascii	"LV_EVENT_PRESSED\000"
 13633      56454E54 
 13633      5F505245 
 13633      53534544 
 13633      00
 13634              	.LASF401:
 13635 1755 4C565F45 		.ascii	"LV_EVENT_CANCEL\000"
 13635      56454E54 
 13635      5F43414E 
 13635      43454C00 
 13636              	.LASF346:
 13637 1765 4C565F50 		.ascii	"LV_PART_ITEMS\000"
 13637      4152545F 
 13637      4954454D 
 13637      5300
 13638              	.LASF120:
 13639 1773 4C565F53 		.ascii	"LV_STYLE_BORDER_COLOR\000"
 13639      54594C45 
 13639      5F424F52 
 13639      4445525F 
 13639      434F4C4F 
 13640              	.LASF501:
 13641 1789 73685F6F 		.ascii	"sh_ofs_y\000"
 13641      66735F79 
 13641      00
 13642              	.LASF0:
 13643 1792 5F5F696E 		.ascii	"__int8_t\000"
 13643      74385F74 
 13643      00
 13644              	.LASF414:
 13645 179b 5F4C565F 		.ascii	"_LV_EVENT_LAST\000"
 13645      4556454E 
 13645      545F4C41 
 13645      535400
 13646              	.LASF312:
 13647 17aa 74657874 		.ascii	"text_length\000"
ARM GAS  C:\Users\haske\AppData\Local\Temp\cc4f9rxb.s 			page 280


 13647      5F6C656E 
 13647      67746800 
 13648              	.LASF277:
 13649 17b6 6D61785F 		.ascii	"max_row_with_no_alpha\000"
 13649      726F775F 
 13649      77697468 
 13649      5F6E6F5F 
 13649      616C7068 
 13650              	.LASF13:
 13651 17cc 6C6F6E67 		.ascii	"long long unsigned int\000"
 13651      206C6F6E 
 13651      6720756E 
 13651      7369676E 
 13651      65642069 
 13652              	.LASF409:
 13653 17e3 4C565F45 		.ascii	"LV_EVENT_SCREEN_UNLOADED\000"
 13653      56454E54 
 13653      5F534352 
 13653      45454E5F 
 13653      554E4C4F 
 13654              	.LASF112:
 13655 17fc 4C565F53 		.ascii	"LV_STYLE_BG_GRAD_STOP\000"
 13655      54594C45 
 13655      5F42475F 
 13655      47524144 
 13655      5F53544F 
 13656              	.LASF123:
 13657 1812 4C565F53 		.ascii	"LV_STYLE_BORDER_SIDE\000"
 13657      54594C45 
 13657      5F424F52 
 13657      4445525F 
 13657      53494445 
 13658              	.LASF495:
 13659 1827 6C765F6F 		.ascii	"lv_obj_init_draw_line_dsc\000"
 13659      626A5F69 
 13659      6E69745F 
 13659      64726177 
 13659      5F6C696E 
 13660              	.LASF417:
 13661 1841 6C765F67 		.ascii	"lv_group_focus_cb_t\000"
 13661      726F7570 
 13661      5F666F63 
 13661      75735F63 
 13661      625F7400 
 13662              	.LASF315:
 13663 1855 5F6C765F 		.ascii	"_lv_obj_class_t\000"
 13663      6F626A5F 
 13663      636C6173 
 13663      735F7400 
 13664              	.LASF233:
 13665 1865 6C765F64 		.ascii	"lv_draw_rect_dsc_t\000"
 13665      7261775F 
 13665      72656374 
 13665      5F647363 
 13665      5F7400
 13666              	.LASF18:
 13667 1878 75696E74 		.ascii	"uint16_t\000"
ARM GAS  C:\Users\haske\AppData\Local\Temp\cc4f9rxb.s 			page 281


 13667      31365F74 
 13667      00
 13668              	.LASF510:
 13669 1881 6C765F6F 		.ascii	"lv_obj_get_style_prop\000"
 13669      626A5F67 
 13669      65745F73 
 13669      74796C65 
 13669      5F70726F 
 13670              	.LASF498:
 13671 1897 73685F77 		.ascii	"sh_width\000"
 13671      69647468 
 13671      00
 13672              	.LASF339:
 13673 18a0 77726170 		.ascii	"wrap\000"
 13673      00
 13674              	.LASF491:
 13675 18a5 6C765F6F 		.ascii	"lv_obj_init_draw_label_dsc\000"
 13675      626A5F69 
 13675      6E69745F 
 13675      64726177 
 13675      5F6C6162 
 13676              	.LASF66:
 13677 18c0 6C765F63 		.ascii	"lv_color_t\000"
 13677      6F6C6F72 
 13677      5F7400
 13678              	.LASF286:
 13679 18cb 64726177 		.ascii	"draw_letter\000"
 13679      5F6C6574 
 13679      74657200 
 13680              	.LASF88:
 13681 18d7 4C565F53 		.ascii	"LV_STYLE_WIDTH\000"
 13681      54594C45 
 13681      5F574944 
 13681      544800
 13682              	.LASF467:
 13683 18e6 6C765F61 		.ascii	"lv_area_get_height\000"
 13683      7265615F 
 13683      6765745F 
 13683      68656967 
 13683      687400
 13684              	.LASF219:
 13685 18f9 626F7264 		.ascii	"border_width\000"
 13685      65725F77 
 13685      69647468 
 13685      00
 13686              	.LASF89:
 13687 1906 4C565F53 		.ascii	"LV_STYLE_MIN_WIDTH\000"
 13687      54594C45 
 13687      5F4D494E 
 13687      5F574944 
 13687      544800
 13688              	.LASF68:
 13689 1919 6C765F74 		.ascii	"lv_text_flag_t\000"
 13689      6578745F 
 13689      666C6167 
 13689      5F7400
 13690              	.LASF493:
ARM GAS  C:\Users\haske\AppData\Local\Temp\cc4f9rxb.s 			page 282


 13691 1928 6C765F6F 		.ascii	"lv_obj_init_draw_img_dsc\000"
 13691      626A5F69 
 13691      6E69745F 
 13691      64726177 
 13691      5F696D67 
 13692              	.LASF130:
 13693 1941 4C565F53 		.ascii	"LV_STYLE_SHADOW_OFS_X\000"
 13693      54594C45 
 13693      5F534841 
 13693      444F575F 
 13693      4F46535F 
 13694              	.LASF131:
 13695 1957 4C565F53 		.ascii	"LV_STYLE_SHADOW_OFS_Y\000"
 13695      54594C45 
 13695      5F534841 
 13695      444F575F 
 13695      4F46535F 
 13696              	.LASF51:
 13697 196d 4C565F4F 		.ascii	"LV_OPA_10\000"
 13697      50415F31 
 13697      3000
 13698              	.LASF115:
 13699 1977 4C565F53 		.ascii	"LV_STYLE_BG_IMG_SRC\000"
 13699      54594C45 
 13699      5F42475F 
 13699      494D475F 
 13699      53524300 
 13700              	.LASF248:
 13701 198b 7069766F 		.ascii	"pivot\000"
 13701      7400
 13702              	.LASF148:
 13703 1991 4C565F53 		.ascii	"LV_STYLE_ARC_IMG_SRC\000"
 13703      54594C45 
 13703      5F415243 
 13703      5F494D47 
 13703      5F535243 
 13704              	.LASF180:
 13705 19a6 76616C75 		.ascii	"value1\000"
 13705      653100
 13706              	.LASF450:
 13707 19ad 6C765F6F 		.ascii	"lv_obj_get_style_bg_img_src\000"
 13707      626A5F67 
 13707      65745F73 
 13707      74796C65 
 13707      5F62675F 
 13708              	.LASF244:
 13709 19c9 6465636F 		.ascii	"decor\000"
 13709      7200
 13710              	.LASF4:
 13711 19cf 5F5F696E 		.ascii	"__int16_t\000"
 13711      7431365F 
 13711      7400
 13712              	.LASF294:
 13713 19d9 6C617965 		.ascii	"layer_adjust\000"
 13713      725F6164 
 13713      6A757374 
 13713      00
ARM GAS  C:\Users\haske\AppData\Local\Temp\cc4f9rxb.s 			page 283


 13714              	.LASF151:
 13715 19e6 4C565F53 		.ascii	"LV_STYLE_TEXT_FONT\000"
 13715      54594C45 
 13715      5F544558 
 13715      545F464F 
 13715      4E5400
 13716              	.LASF465:
 13717 19f9 6C765F6F 		.ascii	"lv_obj_get_style_img_opa\000"
 13717      626A5F67 
 13717      65745F73 
 13717      74796C65 
 13717      5F696D67 
 13718              	.LASF509:
 13719 1a12 5F6C765F 		.ascii	"_lv_obj_get_layer_type\000"
 13719      6F626A5F 
 13719      6765745F 
 13719      6C617965 
 13719      725F7479 
 13720              	.LASF174:
 13721 1a29 4C565F53 		.ascii	"LV_STYLE_PROP_ANY\000"
 13721      54594C45 
 13721      5F50524F 
 13721      505F414E 
 13721      5900
 13722              	.LASF64:
 13723 1a3b 66756C6C 		.ascii	"full\000"
 13723      00
 13724              	.LASF279:
 13725 1a40 6C765F64 		.ascii	"lv_draw_layer_ctx_t\000"
 13725      7261775F 
 13725      6C617965 
 13725      725F6374 
 13725      785F7400 
 13726              	.LASF52:
 13727 1a54 4C565F4F 		.ascii	"LV_OPA_20\000"
 13727      50415F32 
 13727      3000
 13728              	.LASF79:
 13729 1a5e 636F6C6F 		.ascii	"color\000"
 13729      7200
 13730              	.LASF446:
 13731 1a64 6C765F6F 		.ascii	"lv_obj_get_style_border_side\000"
 13731      626A5F67 
 13731      65745F73 
 13731      74796C65 
 13731      5F626F72 
 13732              	.LASF76:
 13733 1a81 4C565F47 		.ascii	"LV_GRAD_DIR_HOR\000"
 13733      5241445F 
 13733      4449525F 
 13733      484F5200 
 13734              	.LASF82:
 13735 1a91 73746F70 		.ascii	"stops\000"
 13735      7300
 13736              	.LASF239:
 13737 1a97 6C696E65 		.ascii	"line_space\000"
 13737      5F737061 
ARM GAS  C:\Users\haske\AppData\Local\Temp\cc4f9rxb.s 			page 284


 13737      636500
 13738              	.LASF436:
 13739 1aa2 6C765F6F 		.ascii	"lv_obj_get_style_blend_mode\000"
 13739      626A5F67 
 13739      65745F73 
 13739      74796C65 
 13739      5F626C65 
 13740              	.LASF295:
 13741 1abe 6C617965 		.ascii	"layer_blend\000"
 13741      725F626C 
 13741      656E6400 
 13742              	.LASF503:
 13743 1aca 6C765F6F 		.ascii	"lv_obj_calculate_ext_draw_size\000"
 13743      626A5F63 
 13743      616C6375 
 13743      6C617465 
 13743      5F657874 
 13744              	.LASF318:
 13745 1ae9 64657374 		.ascii	"destructor_cb\000"
 13745      72756374 
 13745      6F725F63 
 13745      6200
 13746              	.LASF73:
 13747 1af7 6C765F62 		.ascii	"lv_border_side_t\000"
 13747      6F726465 
 13747      725F7369 
 13747      64655F74 
 13747      00
 13748              	.LASF80:
 13749 1b08 66726163 		.ascii	"frac\000"
 13749      00
 13750              	.LASF193:
 13751 1b0d 5F6C765F 		.ascii	"_lv_obj_t\000"
 13751      6F626A5F 
 13751      7400
 13752              	.LASF234:
 13753 1b17 666F6E74 		.ascii	"font\000"
 13753      00
 13754              	.LASF240:
 13755 1b1c 6C657474 		.ascii	"letter_space\000"
 13755      65725F73 
 13755      70616365 
 13755      00
 13756              	.LASF517:
 13757 1b29 6C765F6F 		.ascii	"lv_obj_allocate_spec_attr\000"
 13757      626A5F61 
 13757      6C6C6F63 
 13757      6174655F 
 13757      73706563 
 13758              	.LASF93:
 13759 1b43 4C565F53 		.ascii	"LV_STYLE_MAX_HEIGHT\000"
 13759      54594C45 
 13759      5F4D4158 
 13759      5F484549 
 13759      47485400 
 13760              	.LASF53:
 13761 1b57 4C565F4F 		.ascii	"LV_OPA_30\000"
ARM GAS  C:\Users\haske\AppData\Local\Temp\cc4f9rxb.s 			page 285


 13761      50415F33 
 13761      3000
 13762              	.LASF265:
 13763 1b61 6C765F64 		.ascii	"lv_draw_arc_dsc_t\000"
 13763      7261775F 
 13763      6172635F 
 13763      6473635F 
 13763      7400
 13764              	.LASF490:
 13765 1b73 6C765F6F 		.ascii	"lv_obj_init_draw_rect_dsc\000"
 13765      626A5F69 
 13765      6E69745F 
 13765      64726177 
 13765      5F726563 
 13766              	.LASF505:
 13767 1b8d 5F6C765F 		.ascii	"_lv_obj_get_ext_draw_size\000"
 13767      6F626A5F 
 13767      6765745F 
 13767      6578745F 
 13767      64726177 
 13768              	.LASF109:
 13769 1ba7 4C565F53 		.ascii	"LV_STYLE_BG_GRAD_COLOR\000"
 13769      54594C45 
 13769      5F42475F 
 13769      47524144 
 13769      5F434F4C 
 13770              	.LASF30:
 13771 1bbe 626F785F 		.ascii	"box_h\000"
 13771      6800
 13772              	.LASF308:
 13773 1bc4 6C696E65 		.ascii	"line_dsc\000"
 13773      5F647363 
 13773      00
 13774              	.LASF214:
 13775 1bcd 62675F69 		.ascii	"bg_img_recolor\000"
 13775      6D675F72 
 13775      65636F6C 
 13775      6F7200
 13776              	.LASF65:
 13777 1bdc 6C765F63 		.ascii	"lv_color16_t\000"
 13777      6F6C6F72 
 13777      31365F74 
 13777      00
 13778              	.LASF29:
 13779 1be9 626F785F 		.ascii	"box_w\000"
 13779      7700
 13780              	.LASF5:
 13781 1bef 73686F72 		.ascii	"short int\000"
 13781      7420696E 
 13781      7400
 13782              	.LASF37:
 13783 1bf9 62617365 		.ascii	"base_line\000"
 13783      5F6C696E 
 13783      6500
 13784              	.LASF330:
 13785 1c03 6C765F6C 		.ascii	"lv_ll_t\000"
 13785      6C5F7400 
ARM GAS  C:\Users\haske\AppData\Local\Temp\cc4f9rxb.s 			page 286


 13786              	.LASF189:
 13787 1c0b 4C565F49 		.ascii	"LV_IMG_SRC_FILE\000"
 13787      4D475F53 
 13787      52435F46 
 13787      494C4500 
 13788              	.LASF506:
 13789 1c1b 6C765F6F 		.ascii	"lv_obj_refresh_ext_draw_size\000"
 13789      626A5F72 
 13789      65667265 
 13789      73685F65 
 13789      78745F64 
 13790              	.LASF394:
 13791 1c38 4C565F45 		.ascii	"LV_EVENT_DRAW_POST_END\000"
 13791      56454E54 
 13791      5F445241 
 13791      575F504F 
 13791      53545F45 
 13792              	.LASF395:
 13793 1c4f 4C565F45 		.ascii	"LV_EVENT_DRAW_PART_BEGIN\000"
 13793      56454E54 
 13793      5F445241 
 13793      575F5041 
 13793      52545F42 
 13794              	.LASF232:
 13795 1c68 73686164 		.ascii	"shadow_opa\000"
 13795      6F775F6F 
 13795      706100
 13796              	.LASF146:
 13797 1c73 4C565F53 		.ascii	"LV_STYLE_ARC_COLOR\000"
 13797      54594C45 
 13797      5F415243 
 13797      5F434F4C 
 13797      4F5200
 13798              	.LASF54:
 13799 1c86 4C565F4F 		.ascii	"LV_OPA_40\000"
 13799      50415F34 
 13799      3000
 13800              	.LASF17:
 13801 1c90 696E7431 		.ascii	"int16_t\000"
 13801      365F7400 
 13802              	.LASF272:
 13803 1c98 73637265 		.ascii	"screen_transp\000"
 13803      656E5F74 
 13803      72616E73 
 13803      7000
 13804              	.LASF198:
 13805 1ca6 636F6F72 		.ascii	"coords\000"
 13805      647300
 13806              	.LASF425:
 13807 1cad 6578745F 		.ascii	"ext_click_pad\000"
 13807      636C6963 
 13807      6B5F7061 
 13807      6400
 13808              	.LASF173:
 13809 1cbb 5F4C565F 		.ascii	"_LV_STYLE_NUM_BUILT_IN_PROPS\000"
 13809      5354594C 
 13809      455F4E55 
ARM GAS  C:\Users\haske\AppData\Local\Temp\cc4f9rxb.s 			page 287


 13809      4D5F4255 
 13809      494C545F 
 13810              	.LASF99:
 13811 1cd8 4C565F53 		.ascii	"LV_STYLE_PAD_TOP\000"
 13811      54594C45 
 13811      5F504144 
 13811      5F544F50 
 13811      00
 13812              	.LASF445:
 13813 1ce9 6C765F6F 		.ascii	"lv_obj_get_style_border_opa\000"
 13813      626A5F67 
 13813      65745F73 
 13813      74796C65 
 13813      5F626F72 
 13814              	.LASF485:
 13815 1d05 6C765F6F 		.ascii	"lv_obj_get_style_text_color_filtered\000"
 13815      626A5F67 
 13815      65745F73 
 13815      74796C65 
 13815      5F746578 
 13816              	.LASF74:
 13817 1d2a 4C565F47 		.ascii	"LV_GRAD_DIR_NONE\000"
 13817      5241445F 
 13817      4449525F 
 13817      4E4F4E45 
 13817      00
 13818              	.LASF349:
 13819 1d3b 4C565F50 		.ascii	"LV_PART_CUSTOM_FIRST\000"
 13819      4152545F 
 13819      43555354 
 13819      4F4D5F46 
 13819      49525354 
 13820              	.LASF116:
 13821 1d50 4C565F53 		.ascii	"LV_STYLE_BG_IMG_OPA\000"
 13821      54594C45 
 13821      5F42475F 
 13821      494D475F 
 13821      4F504100 
 13822              	.LASF138:
 13823 1d64 4C565F53 		.ascii	"LV_STYLE_LINE_WIDTH\000"
 13823      54594C45 
 13823      5F4C494E 
 13823      455F5749 
 13823      44544800 
 13824              	.LASF55:
 13825 1d78 4C565F4F 		.ascii	"LV_OPA_50\000"
 13825      50415F35 
 13825      3000
 13826              	.LASF469:
 13827 1d82 6C765F61 		.ascii	"lv_area_get_width\000"
 13827      7265615F 
 13827      6765745F 
 13827      77696474 
 13827      6800
 13828              	.LASF520:
 13829 1d94 433A5C50 		.ascii	"C:\\Projects\\PainDrain\\firmware\\PainDrain\\PainD"
 13829      726F6A65 
ARM GAS  C:\Users\haske\AppData\Local\Temp\cc4f9rxb.s 			page 288


 13829      6374735C 
 13829      5061696E 
 13829      44726169 
 13830 1dc2 7261696E 		.ascii	"rain.cydsn\000"
 13830      2E637964 
 13830      736E00
 13831              	.LASF183:
 13832 1dcd 70726F70 		.ascii	"prop1\000"
 13832      3100
 13833              	.LASF379:
 13834 1dd3 4C565F45 		.ascii	"LV_EVENT_SCROLL_END\000"
 13834      56454E54 
 13834      5F534352 
 13834      4F4C4C5F 
 13834      454E4400 
 13835              	.LASF220:
 13836 1de7 626F7264 		.ascii	"border_opa\000"
 13836      65725F6F 
 13836      706100
 13837              	.LASF92:
 13838 1df2 4C565F53 		.ascii	"LV_STYLE_MIN_HEIGHT\000"
 13838      54594C45 
 13838      5F4D494E 
 13838      5F484549 
 13838      47485400 
 13839              	.LASF384:
 13840 1e06 4C565F45 		.ascii	"LV_EVENT_DEFOCUSED\000"
 13840      56454E54 
 13840      5F444546 
 13840      4F435553 
 13840      454400
 13841              	.LASF211:
 13842 1e19 62675F67 		.ascii	"bg_grad\000"
 13842      72616400 
 13843              	.LASF434:
 13844 1e21 6C765F6F 		.ascii	"lv_obj_t\000"
 13844      626A5F74 
 13844      00
 13845              	.LASF124:
 13846 1e2a 4C565F53 		.ascii	"LV_STYLE_BORDER_POST\000"
 13846      54594C45 
 13846      5F424F52 
 13846      4445525F 
 13846      504F5354 
 13847              	.LASF303:
 13848 1e3f 64726177 		.ascii	"draw_ctx\000"
 13848      5F637478 
 13848      00
 13849              	.LASF285:
 13850 1e48 64726177 		.ascii	"draw_img\000"
 13850      5F696D67 
 13850      00
 13851              	.LASF81:
 13852 1e51 6C765F67 		.ascii	"lv_gradient_stop_t\000"
 13852      72616469 
 13852      656E745F 
 13852      73746F70 
ARM GAS  C:\Users\haske\AppData\Local\Temp\cc4f9rxb.s 			page 289


 13852      5F7400
 13853              	.LASF95:
 13854 1e64 4C565F53 		.ascii	"LV_STYLE_Y\000"
 13854      54594C45 
 13854      5F5900
 13855              	.LASF141:
 13856 1e6f 4C565F53 		.ascii	"LV_STYLE_LINE_ROUNDED\000"
 13856      54594C45 
 13856      5F4C494E 
 13856      455F524F 
 13856      554E4445 
 13857              	.LASF56:
 13858 1e85 4C565F4F 		.ascii	"LV_OPA_60\000"
 13858      50415F36 
 13858      3000
 13859              	.LASF288:
 13860 1e8f 64726177 		.ascii	"draw_polygon\000"
 13860      5F706F6C 
 13860      79676F6E 
 13860      00
 13861              	.LASF411:
 13862 1e9c 4C565F45 		.ascii	"LV_EVENT_STYLE_CHANGED\000"
 13862      56454E54 
 13862      5F535459 
 13862      4C455F43 
 13862      48414E47 
 13863              	.LASF400:
 13864 1eb3 4C565F45 		.ascii	"LV_EVENT_READY\000"
 13864      56454E54 
 13864      5F524541 
 13864      445900
 13865              	.LASF235:
 13866 1ec2 73656C5F 		.ascii	"sel_start\000"
 13866      73746172 
 13866      7400
 13867              	.LASF393:
 13868 1ecc 4C565F45 		.ascii	"LV_EVENT_DRAW_POST\000"
 13868      56454E54 
 13868      5F445241 
 13868      575F504F 
 13868      535400
 13869              	.LASF20:
 13870 1edf 75696E74 		.ascii	"uint32_t\000"
 13870      33325F74 
 13870      00
 13871              	.LASF348:
 13872 1ee8 4C565F50 		.ascii	"LV_PART_CURSOR\000"
 13872      4152545F 
 13872      43555253 
 13872      4F5200
 13873              	.LASF351:
 13874 1ef7 6C765F6F 		.ascii	"lv_obj_flag_t\000"
 13874      626A5F66 
 13874      6C61675F 
 13874      7400
 13875              	.LASF410:
 13876 1f05 4C565F45 		.ascii	"LV_EVENT_SIZE_CHANGED\000"
ARM GAS  C:\Users\haske\AppData\Local\Temp\cc4f9rxb.s 			page 290


 13876      56454E54 
 13876      5F53495A 
 13876      455F4348 
 13876      414E4745 
 13877              	.LASF228:
 13878 1f1b 73686164 		.ascii	"shadow_width\000"
 13878      6F775F77 
 13878      69647468 
 13878      00
 13879              	.LASF63:
 13880 1f28 67726565 		.ascii	"green\000"
 13880      6E00
 13881              	.LASF45:
 13882 1f2e 6C765F66 		.ascii	"lv_font_t\000"
 13882      6F6E745F 
 13882      7400
 13883              	.LASF412:
 13884 1f38 4C565F45 		.ascii	"LV_EVENT_LAYOUT_CHANGED\000"
 13884      56454E54 
 13884      5F4C4159 
 13884      4F55545F 
 13884      4348414E 
 13885              	.LASF84:
 13886 1f50 64697468 		.ascii	"dither\000"
 13886      657200
 13887              	.LASF57:
 13888 1f57 4C565F4F 		.ascii	"LV_OPA_70\000"
 13888      50415F37 
 13888      3000
 13889              	.LASF7:
 13890 1f61 73686F72 		.ascii	"short unsigned int\000"
 13890      7420756E 
 13890      7369676E 
 13890      65642069 
 13890      6E7400
 13891              	.LASF382:
 13892 1f74 4C565F45 		.ascii	"LV_EVENT_KEY\000"
 13892      56454E54 
 13892      5F4B4559 
 13892      00
 13893              	.LASF23:
 13894 1f81 6C765F63 		.ascii	"lv_coord_t\000"
 13894      6F6F7264 
 13894      5F7400
 13895              	.LASF378:
 13896 1f8c 4C565F45 		.ascii	"LV_EVENT_SCROLL_BEGIN\000"
 13896      56454E54 
 13896      5F534352 
 13896      4F4C4C5F 
 13896      42454749 
 13897              	.LASF126:
 13898 1fa2 4C565F53 		.ascii	"LV_STYLE_OUTLINE_COLOR\000"
 13898      54594C45 
 13898      5F4F5554 
 13898      4C494E45 
 13898      5F434F4C 
 13899              	.LASF42:
ARM GAS  C:\Users\haske\AppData\Local\Temp\cc4f9rxb.s 			page 291


 13900 1fb9 75736572 		.ascii	"user_data\000"
 13900      5F646174 
 13900      6100
 13901              	.LASF372:
 13902 1fc3 4C565F45 		.ascii	"LV_EVENT_PRESS_LOST\000"
 13902      56454E54 
 13902      5F505245 
 13902      53535F4C 
 13902      4F535400 
 13903              	.LASF521:
 13904 1fd7 5F6C765F 		.ascii	"_lv_event_dsc_t\000"
 13904      6576656E 
 13904      745F6473 
 13904      635F7400 
 13905              	.LASF132:
 13906 1fe7 4C565F53 		.ascii	"LV_STYLE_SHADOW_SPREAD\000"
 13906      54594C45 
 13906      5F534841 
 13906      444F575F 
 13906      53505245 
 13907              	.LASF347:
 13908 1ffe 4C565F50 		.ascii	"LV_PART_TICKS\000"
 13908      4152545F 
 13908      5449434B 
 13908      5300
 13909              	.LASF473:
 13910 200c 6C765F6F 		.ascii	"lv_obj_get_style_line_dash_gap\000"
 13910      626A5F67 
 13910      65745F73 
 13910      74796C65 
 13910      5F6C696E 
 13911              	.LASF34:
 13912 202b 6765745F 		.ascii	"get_glyph_dsc\000"
 13912      676C7970 
 13912      685F6473 
 13912      6300
 13913              	.LASF8:
 13914 2039 5F5F696E 		.ascii	"__int32_t\000"
 13914      7433325F 
 13914      7400
 13915              	.LASF451:
 13916 2043 6C765F6F 		.ascii	"lv_obj_get_style_bg_img_opa\000"
 13916      626A5F67 
 13916      65745F73 
 13916      74796C65 
 13916      5F62675F 
 13917              	.LASF355:
 13918 205f 73656C65 		.ascii	"selector\000"
 13918      63746F72 
 13918      00
 13919              	.LASF487:
 13920 2068 6C765F6F 		.ascii	"lv_obj_get_style_shadow_color_filtered\000"
 13920      626A5F67 
 13920      65745F73 
 13920      74796C65 
 13920      5F736861 
 13921              	.LASF383:
ARM GAS  C:\Users\haske\AppData\Local\Temp\cc4f9rxb.s 			page 292


 13922 208f 4C565F45 		.ascii	"LV_EVENT_FOCUSED\000"
 13922      56454E54 
 13922      5F464F43 
 13922      55534544 
 13922      00
 13923              	.LASF77:
 13924 20a0 6C765F67 		.ascii	"lv_grad_dir_t\000"
 13924      7261645F 
 13924      6469725F 
 13924      7400
 13925              	.LASF472:
 13926 20ae 6C765F6F 		.ascii	"lv_obj_get_style_line_dash_width\000"
 13926      626A5F67 
 13926      65745F73 
 13926      74796C65 
 13926      5F6C696E 
 13927              	.LASF338:
 13928 20cf 7265666F 		.ascii	"refocus_policy\000"
 13928      6375735F 
 13928      706F6C69 
 13928      637900
 13929              	.LASF479:
 13930 20de 6C765F6F 		.ascii	"lv_obj_get_style_transform_height\000"
 13930      626A5F67 
 13930      65745F73 
 13930      74796C65 
 13930      5F747261 
 13931              	.LASF58:
 13932 2100 4C565F4F 		.ascii	"LV_OPA_80\000"
 13932      50415F38 
 13932      3000
 13933              	.LASF455:
 13934 210a 6C765F6F 		.ascii	"lv_obj_get_style_shadow_width\000"
 13934      626A5F67 
 13934      65745F73 
 13934      74796C65 
 13934      5F736861 
 13935              	.LASF321:
 13936 2128 68656967 		.ascii	"height_def\000"
 13936      68745F64 
 13936      656600
 13937              	.LASF406:
 13938 2133 4C565F45 		.ascii	"LV_EVENT_SCREEN_UNLOAD_START\000"
 13938      56454E54 
 13938      5F534352 
 13938      45454E5F 
 13938      554E4C4F 
 13939              	.LASF237:
 13940 2150 73656C5F 		.ascii	"sel_color\000"
 13940      636F6C6F 
 13940      7200
 13941              	.LASF516:
 13942 215a 6C765F6F 		.ascii	"lv_obj_invalidate\000"
 13942      626A5F69 
 13942      6E76616C 
 13942      69646174 
 13942      6500
ARM GAS  C:\Users\haske\AppData\Local\Temp\cc4f9rxb.s 			page 293


 13943              	.LASF300:
 13944 216c 4C565F4C 		.ascii	"LV_LAYER_TYPE_SIMPLE\000"
 13944      41594552 
 13944      5F545950 
 13944      455F5349 
 13944      4D504C45 
 13945              	.LASF213:
 13946 2181 62675F69 		.ascii	"bg_img_symbol_font\000"
 13946      6D675F73 
 13946      796D626F 
 13946      6C5F666F 
 13946      6E7400
 13947              	.LASF230:
 13948 2194 73686164 		.ascii	"shadow_ofs_y\000"
 13948      6F775F6F 
 13948      66735F79 
 13948      00
 13949              	.LASF313:
 13950 21a1 70617274 		.ascii	"part\000"
 13950      00
 13951              	.LASF364:
 13952 21a6 70726576 		.ascii	"prev\000"
 13952      00
 13953              	.LASF85:
 13954 21ab 6C765F67 		.ascii	"lv_grad_dsc_t\000"
 13954      7261645F 
 13954      6473635F 
 13954      7400
 13955              	.LASF513:
 13956 21b9 6C765F69 		.ascii	"lv_img_src_get_type\000"
 13956      6D675F73 
 13956      72635F67 
 13956      65745F74 
 13956      79706500 
 13957              	.LASF327:
 13958 21cd 6E5F7369 		.ascii	"n_size\000"
 13958      7A6500
 13959              	.LASF331:
 13960 21d4 5F6C765F 		.ascii	"_lv_group_t\000"
 13960      67726F75 
 13960      705F7400 
 13961              	.LASF113:
 13962 21e0 4C565F53 		.ascii	"LV_STYLE_BG_GRAD\000"
 13962      54594C45 
 13962      5F42475F 
 13962      47524144 
 13962      00
 13963              	.LASF377:
 13964 21f1 4C565F45 		.ascii	"LV_EVENT_RELEASED\000"
 13964      56454E54 
 13964      5F52454C 
 13964      45415345 
 13964      4400
 13965              	.LASF33:
 13966 2203 69735F70 		.ascii	"is_placeholder\000"
 13966      6C616365 
 13966      686F6C64 
ARM GAS  C:\Users\haske\AppData\Local\Temp\cc4f9rxb.s 			page 294


 13966      657200
 13967              	.LASF128:
 13968 2212 4C565F53 		.ascii	"LV_STYLE_OUTLINE_PAD\000"
 13968      54594C45 
 13968      5F4F5554 
 13968      4C494E45 
 13968      5F504144 
 13969              	.LASF59:
 13970 2227 4C565F4F 		.ascii	"LV_OPA_90\000"
 13970      50415F39 
 13970      3000
 13971              	.LASF477:
 13972 2231 6C765F6F 		.ascii	"lv_obj_get_style_arc_rounded\000"
 13972      626A5F67 
 13972      65745F73 
 13972      74796C65 
 13972      5F617263 
 13973              	.LASF333:
 13974 224e 6F626A5F 		.ascii	"obj_focus\000"
 13974      666F6375 
 13974      7300
 13975              	.LASF152:
 13976 2258 4C565F53 		.ascii	"LV_STYLE_TEXT_LETTER_SPACE\000"
 13976      54594C45 
 13976      5F544558 
 13976      545F4C45 
 13976      54544552 
 13977              	.LASF431:
 13978 2273 6576656E 		.ascii	"event_dsc_cnt\000"
 13978      745F6473 
 13978      635F636E 
 13978      7400
 13979              		.ident	"GCC: (GNU Tools for ARM Embedded Processors) 5.4.1 20160609 (release) [ARM/embedded-5-bran
