ARM GAS  C:\Users\haske\AppData\Local\Temp\ccZHF2NV.s 			page 1


   1              		.syntax unified
   2              		.cpu cortex-m0plus
   3              		.fpu softvfp
   4              		.eabi_attribute 20, 1
   5              		.eabi_attribute 21, 1
   6              		.eabi_attribute 23, 3
   7              		.eabi_attribute 24, 1
   8              		.eabi_attribute 25, 1
   9              		.eabi_attribute 26, 1
  10              		.eabi_attribute 30, 1
  11              		.eabi_attribute 34, 0
  12              		.eabi_attribute 18, 4
  13              		.thumb
  14              		.syntax unified
  15              		.file	"lv_printf.c"
  16              		.text
  17              	.Ltext0:
  18              		.cfi_sections	.debug_frame
  19              		.section	.text._out_buffer,"ax",%progbits
  20              		.align	2
  21              		.code	16
  22              		.thumb_func
  23              		.type	_out_buffer, %function
  24              	_out_buffer:
  25              	.LFB0:
  26              		.file 1 "..\\..\\..\\arduinoLCD\\test\\Pain Drain\\libraries\\lvgl\\src\\misc\\lv_printf.c"
   1:..\..\..\arduinoLCD\test\Pain Drain\libraries\lvgl\src\misc/lv_printf.c **** ///////////////////////////////////////////////////////////////////////////////
   2:..\..\..\arduinoLCD\test\Pain Drain\libraries\lvgl\src\misc/lv_printf.c **** // \author (c) Marco Paland (info@paland.com)
   3:..\..\..\arduinoLCD\test\Pain Drain\libraries\lvgl\src\misc/lv_printf.c **** //             2014-2019, PALANDesign Hannover, Germany
   4:..\..\..\arduinoLCD\test\Pain Drain\libraries\lvgl\src\misc/lv_printf.c **** //
   5:..\..\..\arduinoLCD\test\Pain Drain\libraries\lvgl\src\misc/lv_printf.c **** // \license The MIT License (MIT)
   6:..\..\..\arduinoLCD\test\Pain Drain\libraries\lvgl\src\misc/lv_printf.c **** //
   7:..\..\..\arduinoLCD\test\Pain Drain\libraries\lvgl\src\misc/lv_printf.c **** // Permission is hereby granted, free of charge, to any person obtaining a copy
   8:..\..\..\arduinoLCD\test\Pain Drain\libraries\lvgl\src\misc/lv_printf.c **** // of this software and associated documentation files (the "Software"), to deal
   9:..\..\..\arduinoLCD\test\Pain Drain\libraries\lvgl\src\misc/lv_printf.c **** // in the Software without restriction, including without limitation the rights
  10:..\..\..\arduinoLCD\test\Pain Drain\libraries\lvgl\src\misc/lv_printf.c **** // to use, copy, modify, merge, publish, distribute, sublicense, and/or sell
  11:..\..\..\arduinoLCD\test\Pain Drain\libraries\lvgl\src\misc/lv_printf.c **** // copies of the Software, and to permit persons to whom the Software is
  12:..\..\..\arduinoLCD\test\Pain Drain\libraries\lvgl\src\misc/lv_printf.c **** // furnished to do so, subject to the following conditions:
  13:..\..\..\arduinoLCD\test\Pain Drain\libraries\lvgl\src\misc/lv_printf.c **** //
  14:..\..\..\arduinoLCD\test\Pain Drain\libraries\lvgl\src\misc/lv_printf.c **** // The above copyright notice and this permission notice shall be included in
  15:..\..\..\arduinoLCD\test\Pain Drain\libraries\lvgl\src\misc/lv_printf.c **** // all copies or substantial portions of the Software.
  16:..\..\..\arduinoLCD\test\Pain Drain\libraries\lvgl\src\misc/lv_printf.c **** //
  17:..\..\..\arduinoLCD\test\Pain Drain\libraries\lvgl\src\misc/lv_printf.c **** // THE SOFTWARE IS PROVIDED "AS IS", WITHOUT WARRANTY OF ANY KIND, EXPRESS OR
  18:..\..\..\arduinoLCD\test\Pain Drain\libraries\lvgl\src\misc/lv_printf.c **** // IMPLIED, INCLUDING BUT NOT LIMITED TO THE WARRANTIES OF MERCHANTABILITY,
  19:..\..\..\arduinoLCD\test\Pain Drain\libraries\lvgl\src\misc/lv_printf.c **** // FITNESS FOR A PARTICULAR PURPOSE AND NONINFRINGEMENT. IN NO EVENT SHALL THE
  20:..\..\..\arduinoLCD\test\Pain Drain\libraries\lvgl\src\misc/lv_printf.c **** // AUTHORS OR COPYRIGHT HOLDERS BE LIABLE FOR ANY CLAIM, DAMAGES OR OTHER
  21:..\..\..\arduinoLCD\test\Pain Drain\libraries\lvgl\src\misc/lv_printf.c **** // LIABILITY, WHETHER IN AN ACTION OF CONTRACT, TORT OR OTHERWISE, ARISING FROM,
  22:..\..\..\arduinoLCD\test\Pain Drain\libraries\lvgl\src\misc/lv_printf.c **** // OUT OF OR IN CONNECTION WITH THE SOFTWARE OR THE USE OR OTHER DEALINGS IN
  23:..\..\..\arduinoLCD\test\Pain Drain\libraries\lvgl\src\misc/lv_printf.c **** // THE SOFTWARE.
  24:..\..\..\arduinoLCD\test\Pain Drain\libraries\lvgl\src\misc/lv_printf.c **** //
  25:..\..\..\arduinoLCD\test\Pain Drain\libraries\lvgl\src\misc/lv_printf.c **** // \brief Tiny printf, sprintf and (v)snprintf implementation, optimized for speed on
  26:..\..\..\arduinoLCD\test\Pain Drain\libraries\lvgl\src\misc/lv_printf.c **** //        embedded systems with a very limited resources. These routines are thread
  27:..\..\..\arduinoLCD\test\Pain Drain\libraries\lvgl\src\misc/lv_printf.c **** //        safe and reentrant!
  28:..\..\..\arduinoLCD\test\Pain Drain\libraries\lvgl\src\misc/lv_printf.c **** //        Use this instead of the bloated standard/newlib printf cause these use
  29:..\..\..\arduinoLCD\test\Pain Drain\libraries\lvgl\src\misc/lv_printf.c **** //        malloc for printf (and may not be thread safe).
  30:..\..\..\arduinoLCD\test\Pain Drain\libraries\lvgl\src\misc/lv_printf.c **** //
  31:..\..\..\arduinoLCD\test\Pain Drain\libraries\lvgl\src\misc/lv_printf.c **** ///////////////////////////////////////////////////////////////////////////////
ARM GAS  C:\Users\haske\AppData\Local\Temp\ccZHF2NV.s 			page 2


  32:..\..\..\arduinoLCD\test\Pain Drain\libraries\lvgl\src\misc/lv_printf.c **** 
  33:..\..\..\arduinoLCD\test\Pain Drain\libraries\lvgl\src\misc/lv_printf.c **** /*Original repository: https://github.com/mpaland/printf*/
  34:..\..\..\arduinoLCD\test\Pain Drain\libraries\lvgl\src\misc/lv_printf.c **** 
  35:..\..\..\arduinoLCD\test\Pain Drain\libraries\lvgl\src\misc/lv_printf.c **** #include "lv_printf.h"
  36:..\..\..\arduinoLCD\test\Pain Drain\libraries\lvgl\src\misc/lv_printf.c **** 
  37:..\..\..\arduinoLCD\test\Pain Drain\libraries\lvgl\src\misc/lv_printf.c **** #if LV_SPRINTF_CUSTOM == 0
  38:..\..\..\arduinoLCD\test\Pain Drain\libraries\lvgl\src\misc/lv_printf.c **** 
  39:..\..\..\arduinoLCD\test\Pain Drain\libraries\lvgl\src\misc/lv_printf.c **** #include <stdbool.h>
  40:..\..\..\arduinoLCD\test\Pain Drain\libraries\lvgl\src\misc/lv_printf.c **** 
  41:..\..\..\arduinoLCD\test\Pain Drain\libraries\lvgl\src\misc/lv_printf.c **** #define PRINTF_DISABLE_SUPPORT_FLOAT    (!LV_SPRINTF_USE_FLOAT)
  42:..\..\..\arduinoLCD\test\Pain Drain\libraries\lvgl\src\misc/lv_printf.c **** 
  43:..\..\..\arduinoLCD\test\Pain Drain\libraries\lvgl\src\misc/lv_printf.c **** // 'ntoa' conversion buffer size, this must be big enough to hold one converted
  44:..\..\..\arduinoLCD\test\Pain Drain\libraries\lvgl\src\misc/lv_printf.c **** // numeric number including padded zeros (dynamically created on stack)
  45:..\..\..\arduinoLCD\test\Pain Drain\libraries\lvgl\src\misc/lv_printf.c **** // default: 32 byte
  46:..\..\..\arduinoLCD\test\Pain Drain\libraries\lvgl\src\misc/lv_printf.c **** #ifndef PRINTF_NTOA_BUFFER_SIZE
  47:..\..\..\arduinoLCD\test\Pain Drain\libraries\lvgl\src\misc/lv_printf.c ****     #define PRINTF_NTOA_BUFFER_SIZE    32U
  48:..\..\..\arduinoLCD\test\Pain Drain\libraries\lvgl\src\misc/lv_printf.c **** #endif
  49:..\..\..\arduinoLCD\test\Pain Drain\libraries\lvgl\src\misc/lv_printf.c **** 
  50:..\..\..\arduinoLCD\test\Pain Drain\libraries\lvgl\src\misc/lv_printf.c **** // 'ftoa' conversion buffer size, this must be big enough to hold one converted
  51:..\..\..\arduinoLCD\test\Pain Drain\libraries\lvgl\src\misc/lv_printf.c **** // float number including padded zeros (dynamically created on stack)
  52:..\..\..\arduinoLCD\test\Pain Drain\libraries\lvgl\src\misc/lv_printf.c **** // default: 32 byte
  53:..\..\..\arduinoLCD\test\Pain Drain\libraries\lvgl\src\misc/lv_printf.c **** #ifndef PRINTF_FTOA_BUFFER_SIZE
  54:..\..\..\arduinoLCD\test\Pain Drain\libraries\lvgl\src\misc/lv_printf.c ****     #define PRINTF_FTOA_BUFFER_SIZE    32U
  55:..\..\..\arduinoLCD\test\Pain Drain\libraries\lvgl\src\misc/lv_printf.c **** #endif
  56:..\..\..\arduinoLCD\test\Pain Drain\libraries\lvgl\src\misc/lv_printf.c **** 
  57:..\..\..\arduinoLCD\test\Pain Drain\libraries\lvgl\src\misc/lv_printf.c **** // support for the floating point type (%f)
  58:..\..\..\arduinoLCD\test\Pain Drain\libraries\lvgl\src\misc/lv_printf.c **** // default: activated
  59:..\..\..\arduinoLCD\test\Pain Drain\libraries\lvgl\src\misc/lv_printf.c **** #if !PRINTF_DISABLE_SUPPORT_FLOAT
  60:..\..\..\arduinoLCD\test\Pain Drain\libraries\lvgl\src\misc/lv_printf.c ****     #define PRINTF_SUPPORT_FLOAT
  61:..\..\..\arduinoLCD\test\Pain Drain\libraries\lvgl\src\misc/lv_printf.c **** #endif
  62:..\..\..\arduinoLCD\test\Pain Drain\libraries\lvgl\src\misc/lv_printf.c **** 
  63:..\..\..\arduinoLCD\test\Pain Drain\libraries\lvgl\src\misc/lv_printf.c **** // support for exponential floating point notation (%e/%g)
  64:..\..\..\arduinoLCD\test\Pain Drain\libraries\lvgl\src\misc/lv_printf.c **** // default: activated
  65:..\..\..\arduinoLCD\test\Pain Drain\libraries\lvgl\src\misc/lv_printf.c **** #ifndef PRINTF_DISABLE_SUPPORT_EXPONENTIAL
  66:..\..\..\arduinoLCD\test\Pain Drain\libraries\lvgl\src\misc/lv_printf.c ****     #define PRINTF_SUPPORT_EXPONENTIAL
  67:..\..\..\arduinoLCD\test\Pain Drain\libraries\lvgl\src\misc/lv_printf.c **** #endif
  68:..\..\..\arduinoLCD\test\Pain Drain\libraries\lvgl\src\misc/lv_printf.c **** 
  69:..\..\..\arduinoLCD\test\Pain Drain\libraries\lvgl\src\misc/lv_printf.c **** // define the default floating point precision
  70:..\..\..\arduinoLCD\test\Pain Drain\libraries\lvgl\src\misc/lv_printf.c **** // default: 6 digits
  71:..\..\..\arduinoLCD\test\Pain Drain\libraries\lvgl\src\misc/lv_printf.c **** #ifndef PRINTF_DEFAULT_FLOAT_PRECISION
  72:..\..\..\arduinoLCD\test\Pain Drain\libraries\lvgl\src\misc/lv_printf.c ****     #define PRINTF_DEFAULT_FLOAT_PRECISION 6U
  73:..\..\..\arduinoLCD\test\Pain Drain\libraries\lvgl\src\misc/lv_printf.c **** #endif
  74:..\..\..\arduinoLCD\test\Pain Drain\libraries\lvgl\src\misc/lv_printf.c **** 
  75:..\..\..\arduinoLCD\test\Pain Drain\libraries\lvgl\src\misc/lv_printf.c **** // define the largest float suitable to print with %f
  76:..\..\..\arduinoLCD\test\Pain Drain\libraries\lvgl\src\misc/lv_printf.c **** // default: 1e9
  77:..\..\..\arduinoLCD\test\Pain Drain\libraries\lvgl\src\misc/lv_printf.c **** #ifndef PRINTF_MAX_FLOAT
  78:..\..\..\arduinoLCD\test\Pain Drain\libraries\lvgl\src\misc/lv_printf.c ****     #define PRINTF_MAX_FLOAT 1e9
  79:..\..\..\arduinoLCD\test\Pain Drain\libraries\lvgl\src\misc/lv_printf.c **** #endif
  80:..\..\..\arduinoLCD\test\Pain Drain\libraries\lvgl\src\misc/lv_printf.c **** 
  81:..\..\..\arduinoLCD\test\Pain Drain\libraries\lvgl\src\misc/lv_printf.c **** // support for the long long types (%llu or %p)
  82:..\..\..\arduinoLCD\test\Pain Drain\libraries\lvgl\src\misc/lv_printf.c **** // default: activated
  83:..\..\..\arduinoLCD\test\Pain Drain\libraries\lvgl\src\misc/lv_printf.c **** #ifndef PRINTF_DISABLE_SUPPORT_LONG_LONG
  84:..\..\..\arduinoLCD\test\Pain Drain\libraries\lvgl\src\misc/lv_printf.c ****     #define PRINTF_SUPPORT_LONG_LONG
  85:..\..\..\arduinoLCD\test\Pain Drain\libraries\lvgl\src\misc/lv_printf.c **** #endif
  86:..\..\..\arduinoLCD\test\Pain Drain\libraries\lvgl\src\misc/lv_printf.c **** 
  87:..\..\..\arduinoLCD\test\Pain Drain\libraries\lvgl\src\misc/lv_printf.c **** // support for the ptrdiff_t type (%t)
  88:..\..\..\arduinoLCD\test\Pain Drain\libraries\lvgl\src\misc/lv_printf.c **** // ptrdiff_t is normally defined in <stddef.h> as long or long long type
ARM GAS  C:\Users\haske\AppData\Local\Temp\ccZHF2NV.s 			page 3


  89:..\..\..\arduinoLCD\test\Pain Drain\libraries\lvgl\src\misc/lv_printf.c **** // default: activated
  90:..\..\..\arduinoLCD\test\Pain Drain\libraries\lvgl\src\misc/lv_printf.c **** #ifndef PRINTF_DISABLE_SUPPORT_PTRDIFF_T
  91:..\..\..\arduinoLCD\test\Pain Drain\libraries\lvgl\src\misc/lv_printf.c ****     #define PRINTF_SUPPORT_PTRDIFF_T
  92:..\..\..\arduinoLCD\test\Pain Drain\libraries\lvgl\src\misc/lv_printf.c **** #endif
  93:..\..\..\arduinoLCD\test\Pain Drain\libraries\lvgl\src\misc/lv_printf.c **** 
  94:..\..\..\arduinoLCD\test\Pain Drain\libraries\lvgl\src\misc/lv_printf.c **** ///////////////////////////////////////////////////////////////////////////////
  95:..\..\..\arduinoLCD\test\Pain Drain\libraries\lvgl\src\misc/lv_printf.c **** 
  96:..\..\..\arduinoLCD\test\Pain Drain\libraries\lvgl\src\misc/lv_printf.c **** // internal flag definitions
  97:..\..\..\arduinoLCD\test\Pain Drain\libraries\lvgl\src\misc/lv_printf.c **** #define FLAGS_ZEROPAD   (1U <<  0U)
  98:..\..\..\arduinoLCD\test\Pain Drain\libraries\lvgl\src\misc/lv_printf.c **** #define FLAGS_LEFT      (1U <<  1U)
  99:..\..\..\arduinoLCD\test\Pain Drain\libraries\lvgl\src\misc/lv_printf.c **** #define FLAGS_PLUS      (1U <<  2U)
 100:..\..\..\arduinoLCD\test\Pain Drain\libraries\lvgl\src\misc/lv_printf.c **** #define FLAGS_SPACE     (1U <<  3U)
 101:..\..\..\arduinoLCD\test\Pain Drain\libraries\lvgl\src\misc/lv_printf.c **** #define FLAGS_HASH      (1U <<  4U)
 102:..\..\..\arduinoLCD\test\Pain Drain\libraries\lvgl\src\misc/lv_printf.c **** #define FLAGS_UPPERCASE (1U <<  5U)
 103:..\..\..\arduinoLCD\test\Pain Drain\libraries\lvgl\src\misc/lv_printf.c **** #define FLAGS_CHAR      (1U <<  6U)
 104:..\..\..\arduinoLCD\test\Pain Drain\libraries\lvgl\src\misc/lv_printf.c **** #define FLAGS_SHORT     (1U <<  7U)
 105:..\..\..\arduinoLCD\test\Pain Drain\libraries\lvgl\src\misc/lv_printf.c **** #define FLAGS_LONG      (1U <<  8U)
 106:..\..\..\arduinoLCD\test\Pain Drain\libraries\lvgl\src\misc/lv_printf.c **** #define FLAGS_LONG_LONG (1U <<  9U)
 107:..\..\..\arduinoLCD\test\Pain Drain\libraries\lvgl\src\misc/lv_printf.c **** #define FLAGS_PRECISION (1U << 10U)
 108:..\..\..\arduinoLCD\test\Pain Drain\libraries\lvgl\src\misc/lv_printf.c **** #define FLAGS_ADAPT_EXP (1U << 11U)
 109:..\..\..\arduinoLCD\test\Pain Drain\libraries\lvgl\src\misc/lv_printf.c **** 
 110:..\..\..\arduinoLCD\test\Pain Drain\libraries\lvgl\src\misc/lv_printf.c **** // import float.h for DBL_MAX
 111:..\..\..\arduinoLCD\test\Pain Drain\libraries\lvgl\src\misc/lv_printf.c **** #if defined(PRINTF_SUPPORT_FLOAT)
 112:..\..\..\arduinoLCD\test\Pain Drain\libraries\lvgl\src\misc/lv_printf.c ****     #include <float.h>
 113:..\..\..\arduinoLCD\test\Pain Drain\libraries\lvgl\src\misc/lv_printf.c **** #endif
 114:..\..\..\arduinoLCD\test\Pain Drain\libraries\lvgl\src\misc/lv_printf.c **** 
 115:..\..\..\arduinoLCD\test\Pain Drain\libraries\lvgl\src\misc/lv_printf.c **** // output function type
 116:..\..\..\arduinoLCD\test\Pain Drain\libraries\lvgl\src\misc/lv_printf.c **** typedef void (*out_fct_type)(char character, void * buffer, size_t idx, size_t maxlen);
 117:..\..\..\arduinoLCD\test\Pain Drain\libraries\lvgl\src\misc/lv_printf.c **** 
 118:..\..\..\arduinoLCD\test\Pain Drain\libraries\lvgl\src\misc/lv_printf.c **** // wrapper (used as buffer) for output function type
 119:..\..\..\arduinoLCD\test\Pain Drain\libraries\lvgl\src\misc/lv_printf.c **** typedef struct {
 120:..\..\..\arduinoLCD\test\Pain Drain\libraries\lvgl\src\misc/lv_printf.c ****     void (*fct)(char character, void * arg);
 121:..\..\..\arduinoLCD\test\Pain Drain\libraries\lvgl\src\misc/lv_printf.c ****     void * arg;
 122:..\..\..\arduinoLCD\test\Pain Drain\libraries\lvgl\src\misc/lv_printf.c **** } out_fct_wrap_type;
 123:..\..\..\arduinoLCD\test\Pain Drain\libraries\lvgl\src\misc/lv_printf.c **** 
 124:..\..\..\arduinoLCD\test\Pain Drain\libraries\lvgl\src\misc/lv_printf.c **** // internal buffer output
 125:..\..\..\arduinoLCD\test\Pain Drain\libraries\lvgl\src\misc/lv_printf.c **** static inline void _out_buffer(char character, void * buffer, size_t idx, size_t maxlen)
 126:..\..\..\arduinoLCD\test\Pain Drain\libraries\lvgl\src\misc/lv_printf.c **** {
  27              		.loc 1 126 0
  28              		.cfi_startproc
  29              		@ args = 0, pretend = 0, frame = 0
  30              		@ frame_needed = 0, uses_anonymous_args = 0
  31              		@ link register save eliminated.
  32              	.LVL0:
 127:..\..\..\arduinoLCD\test\Pain Drain\libraries\lvgl\src\misc/lv_printf.c ****     if(idx < maxlen) {
  33              		.loc 1 127 0
  34 0000 9A42     		cmp	r2, r3
  35 0002 00D2     		bcs	.L1
 128:..\..\..\arduinoLCD\test\Pain Drain\libraries\lvgl\src\misc/lv_printf.c ****         ((char *)buffer)[idx] = character;
  36              		.loc 1 128 0
  37 0004 8854     		strb	r0, [r1, r2]
  38              	.L1:
 129:..\..\..\arduinoLCD\test\Pain Drain\libraries\lvgl\src\misc/lv_printf.c ****     }
 130:..\..\..\arduinoLCD\test\Pain Drain\libraries\lvgl\src\misc/lv_printf.c **** }
  39              		.loc 1 130 0
  40              		@ sp needed
  41 0006 7047     		bx	lr
ARM GAS  C:\Users\haske\AppData\Local\Temp\ccZHF2NV.s 			page 4


  42              		.cfi_endproc
  43              	.LFE0:
  44              		.size	_out_buffer, .-_out_buffer
  45              		.section	.text._out_null,"ax",%progbits
  46              		.align	2
  47              		.code	16
  48              		.thumb_func
  49              		.type	_out_null, %function
  50              	_out_null:
  51              	.LFB1:
 131:..\..\..\arduinoLCD\test\Pain Drain\libraries\lvgl\src\misc/lv_printf.c **** 
 132:..\..\..\arduinoLCD\test\Pain Drain\libraries\lvgl\src\misc/lv_printf.c **** // internal null output
 133:..\..\..\arduinoLCD\test\Pain Drain\libraries\lvgl\src\misc/lv_printf.c **** static inline void _out_null(char character, void * buffer, size_t idx, size_t maxlen)
 134:..\..\..\arduinoLCD\test\Pain Drain\libraries\lvgl\src\misc/lv_printf.c **** {
  52              		.loc 1 134 0
  53              		.cfi_startproc
  54              		@ args = 0, pretend = 0, frame = 0
  55              		@ frame_needed = 0, uses_anonymous_args = 0
  56              		@ link register save eliminated.
  57              	.LVL1:
 135:..\..\..\arduinoLCD\test\Pain Drain\libraries\lvgl\src\misc/lv_printf.c ****     LV_UNUSED(character);
 136:..\..\..\arduinoLCD\test\Pain Drain\libraries\lvgl\src\misc/lv_printf.c ****     LV_UNUSED(buffer);
 137:..\..\..\arduinoLCD\test\Pain Drain\libraries\lvgl\src\misc/lv_printf.c ****     LV_UNUSED(idx);
 138:..\..\..\arduinoLCD\test\Pain Drain\libraries\lvgl\src\misc/lv_printf.c ****     LV_UNUSED(maxlen);
 139:..\..\..\arduinoLCD\test\Pain Drain\libraries\lvgl\src\misc/lv_printf.c **** }
  58              		.loc 1 139 0
  59              		@ sp needed
  60 0000 7047     		bx	lr
  61              		.cfi_endproc
  62              	.LFE1:
  63              		.size	_out_null, .-_out_null
  64 0002 C046     		.section	.text._atoi,"ax",%progbits
  65              		.align	2
  66              		.code	16
  67              		.thumb_func
  68              		.type	_atoi, %function
  69              	_atoi:
  70              	.LFB4:
 140:..\..\..\arduinoLCD\test\Pain Drain\libraries\lvgl\src\misc/lv_printf.c **** 
 141:..\..\..\arduinoLCD\test\Pain Drain\libraries\lvgl\src\misc/lv_printf.c **** // internal secure strlen
 142:..\..\..\arduinoLCD\test\Pain Drain\libraries\lvgl\src\misc/lv_printf.c **** // \return The length of the string (excluding the terminating 0) limited by 'maxsize'
 143:..\..\..\arduinoLCD\test\Pain Drain\libraries\lvgl\src\misc/lv_printf.c **** static inline unsigned int _strnlen_s(const char * str, size_t maxsize)
 144:..\..\..\arduinoLCD\test\Pain Drain\libraries\lvgl\src\misc/lv_printf.c **** {
 145:..\..\..\arduinoLCD\test\Pain Drain\libraries\lvgl\src\misc/lv_printf.c ****     const char * s;
 146:..\..\..\arduinoLCD\test\Pain Drain\libraries\lvgl\src\misc/lv_printf.c ****     for(s = str; *s && maxsize--; ++s);
 147:..\..\..\arduinoLCD\test\Pain Drain\libraries\lvgl\src\misc/lv_printf.c ****     return (unsigned int)(s - str);
 148:..\..\..\arduinoLCD\test\Pain Drain\libraries\lvgl\src\misc/lv_printf.c **** }
 149:..\..\..\arduinoLCD\test\Pain Drain\libraries\lvgl\src\misc/lv_printf.c **** 
 150:..\..\..\arduinoLCD\test\Pain Drain\libraries\lvgl\src\misc/lv_printf.c **** // internal test if char is a digit (0-9)
 151:..\..\..\arduinoLCD\test\Pain Drain\libraries\lvgl\src\misc/lv_printf.c **** // \return true if char is a digit
 152:..\..\..\arduinoLCD\test\Pain Drain\libraries\lvgl\src\misc/lv_printf.c **** static inline bool _is_digit(char ch)
 153:..\..\..\arduinoLCD\test\Pain Drain\libraries\lvgl\src\misc/lv_printf.c **** {
 154:..\..\..\arduinoLCD\test\Pain Drain\libraries\lvgl\src\misc/lv_printf.c ****     return (ch >= '0') && (ch <= '9');
 155:..\..\..\arduinoLCD\test\Pain Drain\libraries\lvgl\src\misc/lv_printf.c **** }
 156:..\..\..\arduinoLCD\test\Pain Drain\libraries\lvgl\src\misc/lv_printf.c **** 
 157:..\..\..\arduinoLCD\test\Pain Drain\libraries\lvgl\src\misc/lv_printf.c **** // internal ASCII string to unsigned int conversion
 158:..\..\..\arduinoLCD\test\Pain Drain\libraries\lvgl\src\misc/lv_printf.c **** static unsigned int _atoi(const char ** str)
ARM GAS  C:\Users\haske\AppData\Local\Temp\ccZHF2NV.s 			page 5


 159:..\..\..\arduinoLCD\test\Pain Drain\libraries\lvgl\src\misc/lv_printf.c **** {
  71              		.loc 1 159 0
  72              		.cfi_startproc
  73              		@ args = 0, pretend = 0, frame = 0
  74              		@ frame_needed = 0, uses_anonymous_args = 0
  75              	.LVL2:
  76 0000 10B5     		push	{r4, lr}
  77              		.cfi_def_cfa_offset 8
  78              		.cfi_offset 4, -8
  79              		.cfi_offset 14, -4
  80 0002 0400     		movs	r4, r0
  81              	.LVL3:
 160:..\..\..\arduinoLCD\test\Pain Drain\libraries\lvgl\src\misc/lv_printf.c ****     unsigned int i = 0U;
  82              		.loc 1 160 0
  83 0004 0022     		movs	r2, #0
 161:..\..\..\arduinoLCD\test\Pain Drain\libraries\lvgl\src\misc/lv_printf.c ****     while(_is_digit(**str)) {
  84              		.loc 1 161 0
  85 0006 08E0     		b	.L5
  86              	.LVL4:
  87              	.L6:
 162:..\..\..\arduinoLCD\test\Pain Drain\libraries\lvgl\src\misc/lv_printf.c ****         i = i * 10U + (unsigned int)(*((*str)++) - '0');
  88              		.loc 1 162 0
  89 0008 9000     		lsls	r0, r2, #2
  90 000a 8218     		adds	r2, r0, r2
  91              	.LVL5:
  92 000c 5300     		lsls	r3, r2, #1
  93 000e 4A1C     		adds	r2, r1, #1
  94 0010 2260     		str	r2, [r4]
  95 0012 0A78     		ldrb	r2, [r1]
  96 0014 D318     		adds	r3, r2, r3
  97 0016 303B     		subs	r3, r3, #48
  98 0018 1A00     		movs	r2, r3
  99              	.LVL6:
 100              	.L5:
 161:..\..\..\arduinoLCD\test\Pain Drain\libraries\lvgl\src\misc/lv_printf.c ****     while(_is_digit(**str)) {
 101              		.loc 1 161 0
 102 001a 2168     		ldr	r1, [r4]
 103 001c 0B78     		ldrb	r3, [r1]
 104              	.LVL7:
 105              	.LBB20:
 106              	.LBB21:
 154:..\..\..\arduinoLCD\test\Pain Drain\libraries\lvgl\src\misc/lv_printf.c **** }
 107              		.loc 1 154 0
 108 001e 303B     		subs	r3, r3, #48
 109              	.LVL8:
 110 0020 DBB2     		uxtb	r3, r3
 111              	.LVL9:
 112              	.LBE21:
 113              	.LBE20:
 161:..\..\..\arduinoLCD\test\Pain Drain\libraries\lvgl\src\misc/lv_printf.c ****     while(_is_digit(**str)) {
 114              		.loc 1 161 0
 115 0022 092B     		cmp	r3, #9
 116 0024 F0D9     		bls	.L6
 163:..\..\..\arduinoLCD\test\Pain Drain\libraries\lvgl\src\misc/lv_printf.c ****     }
 164:..\..\..\arduinoLCD\test\Pain Drain\libraries\lvgl\src\misc/lv_printf.c ****     return i;
 165:..\..\..\arduinoLCD\test\Pain Drain\libraries\lvgl\src\misc/lv_printf.c **** }
 117              		.loc 1 165 0
ARM GAS  C:\Users\haske\AppData\Local\Temp\ccZHF2NV.s 			page 6


 118 0026 1000     		movs	r0, r2
 119              		@ sp needed
 120              	.LVL10:
 121 0028 10BD     		pop	{r4, pc}
 122              		.cfi_endproc
 123              	.LFE4:
 124              		.size	_atoi, .-_atoi
 125 002a C046     		.section	.text._out_rev,"ax",%progbits
 126              		.align	2
 127              		.code	16
 128              		.thumb_func
 129              		.type	_out_rev, %function
 130              	_out_rev:
 131              	.LFB5:
 166:..\..\..\arduinoLCD\test\Pain Drain\libraries\lvgl\src\misc/lv_printf.c **** 
 167:..\..\..\arduinoLCD\test\Pain Drain\libraries\lvgl\src\misc/lv_printf.c **** // output the specified string in reverse, taking care of any zero-padding
 168:..\..\..\arduinoLCD\test\Pain Drain\libraries\lvgl\src\misc/lv_printf.c **** static size_t _out_rev(out_fct_type out, char * buffer, size_t idx, size_t maxlen, const char * buf
 169:..\..\..\arduinoLCD\test\Pain Drain\libraries\lvgl\src\misc/lv_printf.c ****                        unsigned int width, unsigned int flags)
 170:..\..\..\arduinoLCD\test\Pain Drain\libraries\lvgl\src\misc/lv_printf.c **** {
 132              		.loc 1 170 0
 133              		.cfi_startproc
 134              		@ args = 16, pretend = 0, frame = 8
 135              		@ frame_needed = 0, uses_anonymous_args = 0
 136              	.LVL11:
 137 0000 F0B5     		push	{r4, r5, r6, r7, lr}
 138              		.cfi_def_cfa_offset 20
 139              		.cfi_offset 4, -20
 140              		.cfi_offset 5, -16
 141              		.cfi_offset 6, -12
 142              		.cfi_offset 7, -8
 143              		.cfi_offset 14, -4
 144 0002 5746     		mov	r7, r10
 145 0004 4E46     		mov	r6, r9
 146 0006 4546     		mov	r5, r8
 147 0008 E0B4     		push	{r5, r6, r7}
 148              		.cfi_def_cfa_offset 32
 149              		.cfi_offset 8, -32
 150              		.cfi_offset 9, -28
 151              		.cfi_offset 10, -24
 152 000a 82B0     		sub	sp, sp, #8
 153              		.cfi_def_cfa_offset 40
 154 000c 0500     		movs	r5, r0
 155 000e 0091     		str	r1, [sp]
 156 0010 0193     		str	r3, [sp, #4]
 157 0012 0A9B     		ldr	r3, [sp, #40]
 158              	.LVL12:
 159 0014 9946     		mov	r9, r3
 160 0016 0B9C     		ldr	r4, [sp, #44]
 161 0018 0C9B     		ldr	r3, [sp, #48]
 162 001a 9846     		mov	r8, r3
 163              	.LVL13:
 171:..\..\..\arduinoLCD\test\Pain Drain\libraries\lvgl\src\misc/lv_printf.c ****     const size_t start_idx = idx;
 172:..\..\..\arduinoLCD\test\Pain Drain\libraries\lvgl\src\misc/lv_printf.c **** 
 173:..\..\..\arduinoLCD\test\Pain Drain\libraries\lvgl\src\misc/lv_printf.c ****     // pad spaces up to given width
 174:..\..\..\arduinoLCD\test\Pain Drain\libraries\lvgl\src\misc/lv_printf.c ****     if(!(flags & FLAGS_LEFT) && !(flags & FLAGS_ZEROPAD)) {
 164              		.loc 1 174 0
 165 001c 0D9B     		ldr	r3, [sp, #52]
ARM GAS  C:\Users\haske\AppData\Local\Temp\ccZHF2NV.s 			page 7


 166 001e 9B07     		lsls	r3, r3, #30
 167 0020 0BD0     		beq	.L16
 168 0022 4B46     		mov	r3, r9
 169 0024 9146     		mov	r9, r2
 170 0026 1E00     		movs	r6, r3
 171 0028 22E0     		b	.L11
 172              	.LVL14:
 173              	.L10:
 174              	.LBB22:
 175:..\..\..\arduinoLCD\test\Pain Drain\libraries\lvgl\src\misc/lv_printf.c ****         size_t i;
 176:..\..\..\arduinoLCD\test\Pain Drain\libraries\lvgl\src\misc/lv_printf.c ****         for(i = len; i < width; i++) {
 177:..\..\..\arduinoLCD\test\Pain Drain\libraries\lvgl\src\misc/lv_printf.c ****             out(' ', buffer, idx++, maxlen);
 175              		.loc 1 177 0 discriminator 3
 176 002a 541C     		adds	r4, r2, #1
 177              	.LVL15:
 178 002c 019B     		ldr	r3, [sp, #4]
 179 002e 0099     		ldr	r1, [sp]
 180 0030 2020     		movs	r0, #32
 181 0032 B047     		blx	r6
 182              	.LVL16:
 176:..\..\..\arduinoLCD\test\Pain Drain\libraries\lvgl\src\misc/lv_printf.c ****             out(' ', buffer, idx++, maxlen);
 183              		.loc 1 176 0 discriminator 3
 184 0034 0137     		adds	r7, r7, #1
 185              	.LVL17:
 186              		.loc 1 177 0 discriminator 3
 187 0036 2200     		movs	r2, r4
 188 0038 06E0     		b	.L8
 189              	.LVL18:
 190              	.L16:
 191              	.LBE22:
 192 003a 2700     		movs	r7, r4
 193 003c A246     		mov	r10, r4
 194 003e 4346     		mov	r3, r8
 195 0040 0C93     		str	r3, [sp, #48]
 196              	.LVL19:
 197 0042 9046     		mov	r8, r2
 198 0044 0600     		movs	r6, r0
 199 0046 1D00     		movs	r5, r3
 200              	.LVL20:
 201              	.L8:
 202              	.LBB23:
 176:..\..\..\arduinoLCD\test\Pain Drain\libraries\lvgl\src\misc/lv_printf.c ****             out(' ', buffer, idx++, maxlen);
 203              		.loc 1 176 0 discriminator 1
 204 0048 AF42     		cmp	r7, r5
 205 004a EED3     		bcc	.L10
 206 004c 5446     		mov	r4, r10
 207 004e 0C95     		str	r5, [sp, #48]
 208 0050 3500     		movs	r5, r6
 209 0052 4646     		mov	r6, r8
 210              	.LVL21:
 211 0054 0C9B     		ldr	r3, [sp, #48]
 212 0056 9846     		mov	r8, r3
 213              	.LVL22:
 214 0058 4B46     		mov	r3, r9
 215 005a 0A93     		str	r3, [sp, #40]
 216 005c B146     		mov	r9, r6
 217 005e 1E00     		movs	r6, r3
ARM GAS  C:\Users\haske\AppData\Local\Temp\ccZHF2NV.s 			page 8


 218              	.LVL23:
 219 0060 06E0     		b	.L11
 220              	.LVL24:
 221              	.L12:
 222              	.LBE23:
 178:..\..\..\arduinoLCD\test\Pain Drain\libraries\lvgl\src\misc/lv_printf.c ****         }
 179:..\..\..\arduinoLCD\test\Pain Drain\libraries\lvgl\src\misc/lv_printf.c ****     }
 180:..\..\..\arduinoLCD\test\Pain Drain\libraries\lvgl\src\misc/lv_printf.c **** 
 181:..\..\..\arduinoLCD\test\Pain Drain\libraries\lvgl\src\misc/lv_printf.c ****     // reverse string
 182:..\..\..\arduinoLCD\test\Pain Drain\libraries\lvgl\src\misc/lv_printf.c ****     while(len) {
 183:..\..\..\arduinoLCD\test\Pain Drain\libraries\lvgl\src\misc/lv_printf.c ****         out(buf[--len], buffer, idx++, maxlen);
 223              		.loc 1 183 0
 224 0062 013C     		subs	r4, r4, #1
 225              	.LVL25:
 226 0064 571C     		adds	r7, r2, #1
 227              	.LVL26:
 228 0066 305D     		ldrb	r0, [r6, r4]
 229 0068 019B     		ldr	r3, [sp, #4]
 230 006a 0099     		ldr	r1, [sp]
 231 006c A847     		blx	r5
 232              	.LVL27:
 233 006e 3A00     		movs	r2, r7
 234              	.LVL28:
 235              	.L11:
 182:..\..\..\arduinoLCD\test\Pain Drain\libraries\lvgl\src\misc/lv_printf.c ****         out(buf[--len], buffer, idx++, maxlen);
 236              		.loc 1 182 0
 237 0070 002C     		cmp	r4, #0
 238 0072 F6D1     		bne	.L12
 239 0074 4E46     		mov	r6, r9
 184:..\..\..\arduinoLCD\test\Pain Drain\libraries\lvgl\src\misc/lv_printf.c ****     }
 185:..\..\..\arduinoLCD\test\Pain Drain\libraries\lvgl\src\misc/lv_printf.c **** 
 186:..\..\..\arduinoLCD\test\Pain Drain\libraries\lvgl\src\misc/lv_printf.c ****     // append pad spaces up to given width
 187:..\..\..\arduinoLCD\test\Pain Drain\libraries\lvgl\src\misc/lv_printf.c ****     if(flags & FLAGS_LEFT) {
 240              		.loc 1 187 0
 241 0076 0D9B     		ldr	r3, [sp, #52]
 242 0078 9B07     		lsls	r3, r3, #30
 243 007a 07D4     		bmi	.L17
 244              	.LVL29:
 245 007c 0BE0     		b	.L14
 246              	.LVL30:
 247              	.L15:
 188:..\..\..\arduinoLCD\test\Pain Drain\libraries\lvgl\src\misc/lv_printf.c ****         while(idx - start_idx < width) {
 189:..\..\..\arduinoLCD\test\Pain Drain\libraries\lvgl\src\misc/lv_printf.c ****             out(' ', buffer, idx++, maxlen);
 248              		.loc 1 189 0
 249 007e 551C     		adds	r5, r2, #1
 250              	.LVL31:
 251 0080 019B     		ldr	r3, [sp, #4]
 252 0082 0099     		ldr	r1, [sp]
 253 0084 2020     		movs	r0, #32
 254 0086 A047     		blx	r4
 255              	.LVL32:
 256 0088 2A00     		movs	r2, r5
 257 008a 01E0     		b	.L13
 258              	.LVL33:
 259              	.L17:
 260 008c 2C00     		movs	r4, r5
 261              	.LVL34:
ARM GAS  C:\Users\haske\AppData\Local\Temp\ccZHF2NV.s 			page 9


 262 008e 4746     		mov	r7, r8
 263              	.LVL35:
 264              	.L13:
 188:..\..\..\arduinoLCD\test\Pain Drain\libraries\lvgl\src\misc/lv_printf.c ****         while(idx - start_idx < width) {
 265              		.loc 1 188 0
 266 0090 931B     		subs	r3, r2, r6
 267 0092 9F42     		cmp	r7, r3
 268 0094 F3D8     		bhi	.L15
 269              	.LVL36:
 270              	.L14:
 190:..\..\..\arduinoLCD\test\Pain Drain\libraries\lvgl\src\misc/lv_printf.c ****         }
 191:..\..\..\arduinoLCD\test\Pain Drain\libraries\lvgl\src\misc/lv_printf.c ****     }
 192:..\..\..\arduinoLCD\test\Pain Drain\libraries\lvgl\src\misc/lv_printf.c **** 
 193:..\..\..\arduinoLCD\test\Pain Drain\libraries\lvgl\src\misc/lv_printf.c ****     return idx;
 194:..\..\..\arduinoLCD\test\Pain Drain\libraries\lvgl\src\misc/lv_printf.c **** }
 271              		.loc 1 194 0
 272 0096 1000     		movs	r0, r2
 273 0098 02B0     		add	sp, sp, #8
 274              	.LVL37:
 275              		@ sp needed
 276              	.LVL38:
 277              	.LVL39:
 278 009a 1CBC     		pop	{r2, r3, r4}
 279 009c 9046     		mov	r8, r2
 280 009e 9946     		mov	r9, r3
 281 00a0 A246     		mov	r10, r4
 282 00a2 F0BD     		pop	{r4, r5, r6, r7, pc}
 283              		.cfi_endproc
 284              	.LFE5:
 285              		.size	_out_rev, .-_out_rev
 286              		.section	.text._ntoa_format,"ax",%progbits
 287              		.align	2
 288              		.code	16
 289              		.thumb_func
 290              		.type	_ntoa_format, %function
 291              	_ntoa_format:
 292              	.LFB6:
 195:..\..\..\arduinoLCD\test\Pain Drain\libraries\lvgl\src\misc/lv_printf.c **** 
 196:..\..\..\arduinoLCD\test\Pain Drain\libraries\lvgl\src\misc/lv_printf.c **** // internal itoa format
 197:..\..\..\arduinoLCD\test\Pain Drain\libraries\lvgl\src\misc/lv_printf.c **** static size_t _ntoa_format(out_fct_type out, char * buffer, size_t idx, size_t maxlen, char * buf, 
 198:..\..\..\arduinoLCD\test\Pain Drain\libraries\lvgl\src\misc/lv_printf.c ****                            bool negative, unsigned int base, unsigned int prec, unsigned int width,
 199:..\..\..\arduinoLCD\test\Pain Drain\libraries\lvgl\src\misc/lv_printf.c **** {
 293              		.loc 1 199 0
 294              		.cfi_startproc
 295              		@ args = 28, pretend = 0, frame = 8
 296              		@ frame_needed = 0, uses_anonymous_args = 0
 297              	.LVL40:
 298 0000 F0B5     		push	{r4, r5, r6, r7, lr}
 299              		.cfi_def_cfa_offset 20
 300              		.cfi_offset 4, -20
 301              		.cfi_offset 5, -16
 302              		.cfi_offset 6, -12
 303              		.cfi_offset 7, -8
 304              		.cfi_offset 14, -4
 305 0002 4F46     		mov	r7, r9
 306 0004 80B4     		push	{r7}
 307              		.cfi_def_cfa_offset 24
ARM GAS  C:\Users\haske\AppData\Local\Temp\ccZHF2NV.s 			page 10


 308              		.cfi_offset 9, -24
 309 0006 86B0     		sub	sp, sp, #24
 310              		.cfi_def_cfa_offset 48
 311 0008 0492     		str	r2, [sp, #16]
 312 000a 0593     		str	r3, [sp, #20]
 313 000c 0C9D     		ldr	r5, [sp, #48]
 314 000e 0D9C     		ldr	r4, [sp, #52]
 315 0010 0EAE     		add	r6, sp, #56
 316              	.LVL41:
 317 0012 3378     		ldrb	r3, [r6]
 318              	.LVL42:
 319 0014 9946     		mov	r9, r3
 320 0016 109A     		ldr	r2, [sp, #64]
 321              	.LVL43:
 322 0018 119B     		ldr	r3, [sp, #68]
 323 001a 129E     		ldr	r6, [sp, #72]
 324              	.LVL44:
 200:..\..\..\arduinoLCD\test\Pain Drain\libraries\lvgl\src\misc/lv_printf.c ****     // pad leading zeros
 201:..\..\..\arduinoLCD\test\Pain Drain\libraries\lvgl\src\misc/lv_printf.c ****     if(!(flags & FLAGS_LEFT)) {
 325              		.loc 1 201 0
 326 001c B707     		lsls	r7, r6, #30
 327 001e 1CD4     		bmi	.L19
 202:..\..\..\arduinoLCD\test\Pain Drain\libraries\lvgl\src\misc/lv_printf.c ****         if(width && (flags & FLAGS_ZEROPAD) && (negative || (flags & (FLAGS_PLUS | FLAGS_SPACE)))) 
 328              		.loc 1 202 0
 329 0020 002B     		cmp	r3, #0
 330 0022 0CD0     		beq	.L22
 331              		.loc 1 202 0 is_stmt 0 discriminator 1
 332 0024 F707     		lsls	r7, r6, #31
 333 0026 0AD5     		bpl	.L22
 334              		.loc 1 202 0 discriminator 2
 335 0028 4F46     		mov	r7, r9
 336 002a 002F     		cmp	r7, #0
 337 002c 02D1     		bne	.L21
 338              		.loc 1 202 0 discriminator 3
 339 002e 0C37     		adds	r7, r7, #12
 340 0030 3742     		tst	r7, r6
 341 0032 04D0     		beq	.L22
 342              	.L21:
 203:..\..\..\arduinoLCD\test\Pain Drain\libraries\lvgl\src\misc/lv_printf.c ****             width--;
 343              		.loc 1 203 0 is_stmt 1
 344 0034 013B     		subs	r3, r3, #1
 345              	.LVL45:
 346 0036 02E0     		b	.L22
 347              	.LVL46:
 348              	.L24:
 204:..\..\..\arduinoLCD\test\Pain Drain\libraries\lvgl\src\misc/lv_printf.c ****         }
 205:..\..\..\arduinoLCD\test\Pain Drain\libraries\lvgl\src\misc/lv_printf.c ****         while((len < prec) && (len < PRINTF_NTOA_BUFFER_SIZE)) {
 206:..\..\..\arduinoLCD\test\Pain Drain\libraries\lvgl\src\misc/lv_printf.c ****             buf[len++] = '0';
 349              		.loc 1 206 0
 350 0038 3027     		movs	r7, #48
 351 003a 2F55     		strb	r7, [r5, r4]
 352 003c 0134     		adds	r4, r4, #1
 353              	.LVL47:
 354              	.L22:
 205:..\..\..\arduinoLCD\test\Pain Drain\libraries\lvgl\src\misc/lv_printf.c ****             buf[len++] = '0';
 355              		.loc 1 205 0
 356 003e 9442     		cmp	r4, r2
ARM GAS  C:\Users\haske\AppData\Local\Temp\ccZHF2NV.s 			page 11


 357 0040 05D2     		bcs	.L23
 205:..\..\..\arduinoLCD\test\Pain Drain\libraries\lvgl\src\misc/lv_printf.c ****             buf[len++] = '0';
 358              		.loc 1 205 0 is_stmt 0 discriminator 1
 359 0042 1F2C     		cmp	r4, #31
 360 0044 F8D9     		bls	.L24
 361 0046 02E0     		b	.L23
 362              	.L25:
 363              	.LVL48:
 207:..\..\..\arduinoLCD\test\Pain Drain\libraries\lvgl\src\misc/lv_printf.c ****         }
 208:..\..\..\arduinoLCD\test\Pain Drain\libraries\lvgl\src\misc/lv_printf.c ****         while((flags & FLAGS_ZEROPAD) && (len < width) && (len < PRINTF_NTOA_BUFFER_SIZE)) {
 209:..\..\..\arduinoLCD\test\Pain Drain\libraries\lvgl\src\misc/lv_printf.c ****             buf[len++] = '0';
 364              		.loc 1 209 0 is_stmt 1
 365 0048 3027     		movs	r7, #48
 366 004a 2F55     		strb	r7, [r5, r4]
 367 004c 0134     		adds	r4, r4, #1
 368              	.LVL49:
 369              	.L23:
 208:..\..\..\arduinoLCD\test\Pain Drain\libraries\lvgl\src\misc/lv_printf.c ****             buf[len++] = '0';
 370              		.loc 1 208 0
 371 004e F707     		lsls	r7, r6, #31
 372 0050 03D5     		bpl	.L19
 208:..\..\..\arduinoLCD\test\Pain Drain\libraries\lvgl\src\misc/lv_printf.c ****             buf[len++] = '0';
 373              		.loc 1 208 0 is_stmt 0 discriminator 1
 374 0052 9C42     		cmp	r4, r3
 375 0054 01D2     		bcs	.L19
 208:..\..\..\arduinoLCD\test\Pain Drain\libraries\lvgl\src\misc/lv_printf.c ****             buf[len++] = '0';
 376              		.loc 1 208 0 discriminator 2
 377 0056 1F2C     		cmp	r4, #31
 378 0058 F6D9     		bls	.L25
 379              	.LVL50:
 380              	.L19:
 210:..\..\..\arduinoLCD\test\Pain Drain\libraries\lvgl\src\misc/lv_printf.c ****         }
 211:..\..\..\arduinoLCD\test\Pain Drain\libraries\lvgl\src\misc/lv_printf.c ****     }
 212:..\..\..\arduinoLCD\test\Pain Drain\libraries\lvgl\src\misc/lv_printf.c **** 
 213:..\..\..\arduinoLCD\test\Pain Drain\libraries\lvgl\src\misc/lv_printf.c ****     // handle hash
 214:..\..\..\arduinoLCD\test\Pain Drain\libraries\lvgl\src\misc/lv_printf.c ****     if(flags & FLAGS_HASH) {
 381              		.loc 1 214 0 is_stmt 1
 382 005a F706     		lsls	r7, r6, #27
 383 005c 35D5     		bpl	.L26
 215:..\..\..\arduinoLCD\test\Pain Drain\libraries\lvgl\src\misc/lv_printf.c ****         if(!(flags & FLAGS_PRECISION) && len && ((len == prec) || (len == width))) {
 384              		.loc 1 215 0
 385 005e 7705     		lsls	r7, r6, #21
 386 0060 10D4     		bmi	.L27
 387              		.loc 1 215 0 is_stmt 0 discriminator 1
 388 0062 002C     		cmp	r4, #0
 389 0064 0ED0     		beq	.L27
 390              		.loc 1 215 0 discriminator 2
 391 0066 9442     		cmp	r4, r2
 392 0068 01D0     		beq	.L28
 393              		.loc 1 215 0 discriminator 3
 394 006a 9C42     		cmp	r4, r3
 395 006c 0AD1     		bne	.L27
 396              	.L28:
 216:..\..\..\arduinoLCD\test\Pain Drain\libraries\lvgl\src\misc/lv_printf.c ****             len--;
 397              		.loc 1 216 0 is_stmt 1
 398 006e 671E     		subs	r7, r4, #1
 399              	.LVL51:
ARM GAS  C:\Users\haske\AppData\Local\Temp\ccZHF2NV.s 			page 12


 217:..\..\..\arduinoLCD\test\Pain Drain\libraries\lvgl\src\misc/lv_printf.c ****             if(len && (base == 16U)) {
 400              		.loc 1 217 0
 401 0070 002F     		cmp	r7, #0
 402 0072 04D0     		beq	.L35
 403              		.loc 1 217 0 is_stmt 0 discriminator 1
 404 0074 0F9A     		ldr	r2, [sp, #60]
 405 0076 102A     		cmp	r2, #16
 406 0078 03D1     		bne	.L36
 218:..\..\..\arduinoLCD\test\Pain Drain\libraries\lvgl\src\misc/lv_printf.c ****                 len--;
 407              		.loc 1 218 0 is_stmt 1
 408 007a 023C     		subs	r4, r4, #2
 409              	.LVL52:
 410 007c 02E0     		b	.L27
 411              	.LVL53:
 412              	.L35:
 216:..\..\..\arduinoLCD\test\Pain Drain\libraries\lvgl\src\misc/lv_printf.c ****             len--;
 413              		.loc 1 216 0
 414 007e 3C00     		movs	r4, r7
 415 0080 00E0     		b	.L27
 416              	.L36:
 417 0082 3C00     		movs	r4, r7
 418              	.LVL54:
 419              	.L27:
 219:..\..\..\arduinoLCD\test\Pain Drain\libraries\lvgl\src\misc/lv_printf.c ****             }
 220:..\..\..\arduinoLCD\test\Pain Drain\libraries\lvgl\src\misc/lv_printf.c ****         }
 221:..\..\..\arduinoLCD\test\Pain Drain\libraries\lvgl\src\misc/lv_printf.c ****         if((base == 16U) && !(flags & FLAGS_UPPERCASE) && (len < PRINTF_NTOA_BUFFER_SIZE)) {
 420              		.loc 1 221 0
 421 0084 0F9A     		ldr	r2, [sp, #60]
 422 0086 102A     		cmp	r2, #16
 423 0088 07D1     		bne	.L29
 424              		.loc 1 221 0 is_stmt 0 discriminator 1
 425 008a B206     		lsls	r2, r6, #26
 426 008c 05D4     		bmi	.L29
 427              		.loc 1 221 0 discriminator 2
 428 008e 1F2C     		cmp	r4, #31
 429 0090 03D8     		bhi	.L29
 430              	.LVL55:
 222:..\..\..\arduinoLCD\test\Pain Drain\libraries\lvgl\src\misc/lv_printf.c ****             buf[len++] = 'x';
 431              		.loc 1 222 0 is_stmt 1
 432 0092 7827     		movs	r7, #120
 433 0094 2F55     		strb	r7, [r5, r4]
 434 0096 0134     		adds	r4, r4, #1
 435              	.LVL56:
 436 0098 12E0     		b	.L30
 437              	.L29:
 223:..\..\..\arduinoLCD\test\Pain Drain\libraries\lvgl\src\misc/lv_printf.c ****         }
 224:..\..\..\arduinoLCD\test\Pain Drain\libraries\lvgl\src\misc/lv_printf.c ****         else if((base == 16U) && (flags & FLAGS_UPPERCASE) && (len < PRINTF_NTOA_BUFFER_SIZE)) {
 438              		.loc 1 224 0
 439 009a 0F9A     		ldr	r2, [sp, #60]
 440 009c 102A     		cmp	r2, #16
 441 009e 07D1     		bne	.L31
 442              		.loc 1 224 0 is_stmt 0 discriminator 1
 443 00a0 B206     		lsls	r2, r6, #26
 444 00a2 05D5     		bpl	.L31
 445              		.loc 1 224 0 discriminator 2
 446 00a4 1F2C     		cmp	r4, #31
 447 00a6 03D8     		bhi	.L31
ARM GAS  C:\Users\haske\AppData\Local\Temp\ccZHF2NV.s 			page 13


 448              	.LVL57:
 225:..\..\..\arduinoLCD\test\Pain Drain\libraries\lvgl\src\misc/lv_printf.c ****             buf[len++] = 'X';
 449              		.loc 1 225 0 is_stmt 1
 450 00a8 5827     		movs	r7, #88
 451 00aa 2F55     		strb	r7, [r5, r4]
 452 00ac 0134     		adds	r4, r4, #1
 453              	.LVL58:
 454 00ae 07E0     		b	.L30
 455              	.L31:
 226:..\..\..\arduinoLCD\test\Pain Drain\libraries\lvgl\src\misc/lv_printf.c ****         }
 227:..\..\..\arduinoLCD\test\Pain Drain\libraries\lvgl\src\misc/lv_printf.c ****         else if((base == 2U) && (len < PRINTF_NTOA_BUFFER_SIZE)) {
 456              		.loc 1 227 0
 457 00b0 0F9A     		ldr	r2, [sp, #60]
 458 00b2 022A     		cmp	r2, #2
 459 00b4 04D1     		bne	.L30
 460              		.loc 1 227 0 is_stmt 0 discriminator 1
 461 00b6 1F2C     		cmp	r4, #31
 462 00b8 02D8     		bhi	.L30
 463              	.LVL59:
 228:..\..\..\arduinoLCD\test\Pain Drain\libraries\lvgl\src\misc/lv_printf.c ****             buf[len++] = 'b';
 464              		.loc 1 228 0 is_stmt 1
 465 00ba 6227     		movs	r7, #98
 466 00bc 2F55     		strb	r7, [r5, r4]
 467 00be 0134     		adds	r4, r4, #1
 468              	.LVL60:
 469              	.L30:
 229:..\..\..\arduinoLCD\test\Pain Drain\libraries\lvgl\src\misc/lv_printf.c ****         }
 230:..\..\..\arduinoLCD\test\Pain Drain\libraries\lvgl\src\misc/lv_printf.c ****         if(len < PRINTF_NTOA_BUFFER_SIZE) {
 470              		.loc 1 230 0
 471 00c0 1F2C     		cmp	r4, #31
 472 00c2 02D8     		bhi	.L26
 473              	.LVL61:
 231:..\..\..\arduinoLCD\test\Pain Drain\libraries\lvgl\src\misc/lv_printf.c ****             buf[len++] = '0';
 474              		.loc 1 231 0
 475 00c4 3027     		movs	r7, #48
 476 00c6 2F55     		strb	r7, [r5, r4]
 477 00c8 0134     		adds	r4, r4, #1
 478              	.LVL62:
 479              	.L26:
 232:..\..\..\arduinoLCD\test\Pain Drain\libraries\lvgl\src\misc/lv_printf.c ****         }
 233:..\..\..\arduinoLCD\test\Pain Drain\libraries\lvgl\src\misc/lv_printf.c ****     }
 234:..\..\..\arduinoLCD\test\Pain Drain\libraries\lvgl\src\misc/lv_printf.c **** 
 235:..\..\..\arduinoLCD\test\Pain Drain\libraries\lvgl\src\misc/lv_printf.c ****     if(len < PRINTF_NTOA_BUFFER_SIZE) {
 480              		.loc 1 235 0
 481 00ca 1F2C     		cmp	r4, #31
 482 00cc 11D8     		bhi	.L32
 236:..\..\..\arduinoLCD\test\Pain Drain\libraries\lvgl\src\misc/lv_printf.c ****         if(negative) {
 483              		.loc 1 236 0
 484 00ce 4A46     		mov	r2, r9
 485 00d0 002A     		cmp	r2, #0
 486 00d2 03D0     		beq	.L33
 487              	.LVL63:
 237:..\..\..\arduinoLCD\test\Pain Drain\libraries\lvgl\src\misc/lv_printf.c ****             buf[len++] = '-';
 488              		.loc 1 237 0
 489 00d4 2D27     		movs	r7, #45
 490 00d6 2F55     		strb	r7, [r5, r4]
 491 00d8 0134     		adds	r4, r4, #1
ARM GAS  C:\Users\haske\AppData\Local\Temp\ccZHF2NV.s 			page 14


 492              	.LVL64:
 493 00da 0AE0     		b	.L32
 494              	.L33:
 238:..\..\..\arduinoLCD\test\Pain Drain\libraries\lvgl\src\misc/lv_printf.c ****         }
 239:..\..\..\arduinoLCD\test\Pain Drain\libraries\lvgl\src\misc/lv_printf.c ****         else if(flags & FLAGS_PLUS) {
 495              		.loc 1 239 0
 496 00dc 7207     		lsls	r2, r6, #29
 497 00de 03D5     		bpl	.L34
 498              	.LVL65:
 240:..\..\..\arduinoLCD\test\Pain Drain\libraries\lvgl\src\misc/lv_printf.c ****             buf[len++] = '+';  // ignore the space if the '+' exists
 499              		.loc 1 240 0
 500 00e0 2B27     		movs	r7, #43
 501 00e2 2F55     		strb	r7, [r5, r4]
 502 00e4 0134     		adds	r4, r4, #1
 503              	.LVL66:
 504 00e6 04E0     		b	.L32
 505              	.L34:
 241:..\..\..\arduinoLCD\test\Pain Drain\libraries\lvgl\src\misc/lv_printf.c ****         }
 242:..\..\..\arduinoLCD\test\Pain Drain\libraries\lvgl\src\misc/lv_printf.c ****         else if(flags & FLAGS_SPACE) {
 506              		.loc 1 242 0
 507 00e8 3207     		lsls	r2, r6, #28
 508 00ea 02D5     		bpl	.L32
 509              	.LVL67:
 243:..\..\..\arduinoLCD\test\Pain Drain\libraries\lvgl\src\misc/lv_printf.c ****             buf[len++] = ' ';
 510              		.loc 1 243 0
 511 00ec 2027     		movs	r7, #32
 512 00ee 2F55     		strb	r7, [r5, r4]
 513 00f0 0134     		adds	r4, r4, #1
 514              	.LVL68:
 515              	.L32:
 244:..\..\..\arduinoLCD\test\Pain Drain\libraries\lvgl\src\misc/lv_printf.c ****         }
 245:..\..\..\arduinoLCD\test\Pain Drain\libraries\lvgl\src\misc/lv_printf.c ****     }
 246:..\..\..\arduinoLCD\test\Pain Drain\libraries\lvgl\src\misc/lv_printf.c **** 
 247:..\..\..\arduinoLCD\test\Pain Drain\libraries\lvgl\src\misc/lv_printf.c ****     return _out_rev(out, buffer, idx, maxlen, buf, len, width, flags);
 516              		.loc 1 247 0
 517 00f2 0396     		str	r6, [sp, #12]
 518 00f4 0293     		str	r3, [sp, #8]
 519 00f6 0194     		str	r4, [sp, #4]
 520 00f8 0095     		str	r5, [sp]
 521 00fa 059B     		ldr	r3, [sp, #20]
 522              	.LVL69:
 523 00fc 049A     		ldr	r2, [sp, #16]
 524 00fe FFF7FEFF 		bl	_out_rev
 525              	.LVL70:
 248:..\..\..\arduinoLCD\test\Pain Drain\libraries\lvgl\src\misc/lv_printf.c **** }
 526              		.loc 1 248 0
 527 0102 06B0     		add	sp, sp, #24
 528              		@ sp needed
 529              	.LVL71:
 530 0104 04BC     		pop	{r2}
 531 0106 9146     		mov	r9, r2
 532 0108 F0BD     		pop	{r4, r5, r6, r7, pc}
 533              		.cfi_endproc
 534              	.LFE6:
 535              		.size	_ntoa_format, .-_ntoa_format
 536              		.global	__aeabi_uidivmod
 537              		.global	__aeabi_uidiv
ARM GAS  C:\Users\haske\AppData\Local\Temp\ccZHF2NV.s 			page 15


 538 010a C046     		.section	.text._ntoa_long,"ax",%progbits
 539              		.align	2
 540              		.code	16
 541              		.thumb_func
 542              		.type	_ntoa_long, %function
 543              	_ntoa_long:
 544              	.LFB7:
 249:..\..\..\arduinoLCD\test\Pain Drain\libraries\lvgl\src\misc/lv_printf.c **** 
 250:..\..\..\arduinoLCD\test\Pain Drain\libraries\lvgl\src\misc/lv_printf.c **** // internal itoa for 'long' type
 251:..\..\..\arduinoLCD\test\Pain Drain\libraries\lvgl\src\misc/lv_printf.c **** static size_t _ntoa_long(out_fct_type out, char * buffer, size_t idx, size_t maxlen, unsigned long 
 252:..\..\..\arduinoLCD\test\Pain Drain\libraries\lvgl\src\misc/lv_printf.c ****                          unsigned long base, unsigned int prec, unsigned int width, unsigned int fl
 253:..\..\..\arduinoLCD\test\Pain Drain\libraries\lvgl\src\misc/lv_printf.c **** {
 545              		.loc 1 253 0
 546              		.cfi_startproc
 547              		@ args = 24, pretend = 0, frame = 48
 548              		@ frame_needed = 0, uses_anonymous_args = 0
 549              	.LVL72:
 550 0000 F0B5     		push	{r4, r5, r6, r7, lr}
 551              		.cfi_def_cfa_offset 20
 552              		.cfi_offset 4, -20
 553              		.cfi_offset 5, -16
 554              		.cfi_offset 6, -12
 555              		.cfi_offset 7, -8
 556              		.cfi_offset 14, -4
 557 0002 4746     		mov	r7, r8
 558 0004 80B4     		push	{r7}
 559              		.cfi_def_cfa_offset 24
 560              		.cfi_offset 8, -24
 561 0006 94B0     		sub	sp, sp, #80
 562              		.cfi_def_cfa_offset 104
 563 0008 0890     		str	r0, [sp, #32]
 564 000a 0991     		str	r1, [sp, #36]
 565 000c 0A92     		str	r2, [sp, #40]
 566 000e 0B93     		str	r3, [sp, #44]
 567 0010 1AAB     		add	r3, sp, #104
 568              	.LVL73:
 569 0012 10CB     		ldmia	r3!, {r4}
 570              	.LVL74:
 571 0014 1B78     		ldrb	r3, [r3]
 572              	.LVL75:
 573 0016 9846     		mov	r8, r3
 574 0018 1F9D     		ldr	r5, [sp, #124]
 575              	.LVL76:
 254:..\..\..\arduinoLCD\test\Pain Drain\libraries\lvgl\src\misc/lv_printf.c ****     char buf[PRINTF_NTOA_BUFFER_SIZE];
 255:..\..\..\arduinoLCD\test\Pain Drain\libraries\lvgl\src\misc/lv_printf.c ****     size_t len = 0U;
 256:..\..\..\arduinoLCD\test\Pain Drain\libraries\lvgl\src\misc/lv_printf.c **** 
 257:..\..\..\arduinoLCD\test\Pain Drain\libraries\lvgl\src\misc/lv_printf.c ****     // no hash for 0 values
 258:..\..\..\arduinoLCD\test\Pain Drain\libraries\lvgl\src\misc/lv_printf.c ****     if(!value) {
 576              		.loc 1 258 0
 577 001a 002C     		cmp	r4, #0
 578 001c 01D1     		bne	.L38
 259:..\..\..\arduinoLCD\test\Pain Drain\libraries\lvgl\src\misc/lv_printf.c ****         flags &= ~FLAGS_HASH;
 579              		.loc 1 259 0
 580 001e 1023     		movs	r3, #16
 581 0020 9D43     		bics	r5, r3
 582              	.LVL77:
 583              	.L38:
ARM GAS  C:\Users\haske\AppData\Local\Temp\ccZHF2NV.s 			page 16


 260:..\..\..\arduinoLCD\test\Pain Drain\libraries\lvgl\src\misc/lv_printf.c ****     }
 261:..\..\..\arduinoLCD\test\Pain Drain\libraries\lvgl\src\misc/lv_printf.c **** 
 262:..\..\..\arduinoLCD\test\Pain Drain\libraries\lvgl\src\misc/lv_printf.c ****     // write if precision != 0 and value is != 0
 263:..\..\..\arduinoLCD\test\Pain Drain\libraries\lvgl\src\misc/lv_printf.c ****     if(!(flags & FLAGS_PRECISION) || value) {
 584              		.loc 1 263 0
 585 0022 6B05     		lsls	r3, r5, #21
 586 0024 03D5     		bpl	.L44
 587              		.loc 1 263 0 is_stmt 0 discriminator 1
 588 0026 002C     		cmp	r4, #0
 589 0028 21D0     		beq	.L45
 590 002a 0027     		movs	r7, #0
 591 002c 00E0     		b	.L39
 592              	.L44:
 593 002e 0027     		movs	r7, #0
 594              	.LVL78:
 595              	.L39:
 596              	.LBB24:
 264:..\..\..\arduinoLCD\test\Pain Drain\libraries\lvgl\src\misc/lv_printf.c ****         do {
 265:..\..\..\arduinoLCD\test\Pain Drain\libraries\lvgl\src\misc/lv_printf.c ****             const char digit = (char)(value % base);
 597              		.loc 1 265 0 is_stmt 1
 598 0030 1C99     		ldr	r1, [sp, #112]
 599 0032 2000     		movs	r0, r4
 600 0034 FFF7FEFF 		bl	__aeabi_uidivmod
 601              	.LVL79:
 602 0038 C9B2     		uxtb	r1, r1
 603              	.LVL80:
 266:..\..\..\arduinoLCD\test\Pain Drain\libraries\lvgl\src\misc/lv_printf.c ****             buf[len++] = digit < 10 ? '0' + digit : (flags & FLAGS_UPPERCASE ? 'A' : 'a') + digit -
 604              		.loc 1 266 0
 605 003a 7E1C     		adds	r6, r7, #1
 606              	.LVL81:
 607 003c 0929     		cmp	r1, #9
 608 003e 02D8     		bhi	.L41
 609              		.loc 1 266 0 is_stmt 0 discriminator 1
 610 0040 3031     		adds	r1, r1, #48
 611              	.LVL82:
 612 0042 C9B2     		uxtb	r1, r1
 613              	.LVL83:
 614 0044 07E0     		b	.L42
 615              	.LVL84:
 616              	.L41:
 617              		.loc 1 266 0 discriminator 2
 618 0046 AB06     		lsls	r3, r5, #26
 619 0048 01D5     		bpl	.L46
 620              		.loc 1 266 0
 621 004a 4123     		movs	r3, #65
 622 004c 00E0     		b	.L43
 623              	.L46:
 624 004e 6123     		movs	r3, #97
 625              	.L43:
 626              		.loc 1 266 0 discriminator 7
 627 0050 5918     		adds	r1, r3, r1
 628              	.LVL85:
 629 0052 0A39     		subs	r1, r1, #10
 630 0054 C9B2     		uxtb	r1, r1
 631              	.L42:
 632              		.loc 1 266 0 discriminator 8
 633 0056 0CAB     		add	r3, sp, #48
ARM GAS  C:\Users\haske\AppData\Local\Temp\ccZHF2NV.s 			page 17


 634 0058 D955     		strb	r1, [r3, r7]
 267:..\..\..\arduinoLCD\test\Pain Drain\libraries\lvgl\src\misc/lv_printf.c ****             value /= base;
 635              		.loc 1 267 0 is_stmt 1 discriminator 8
 636 005a 1C99     		ldr	r1, [sp, #112]
 637 005c 2000     		movs	r0, r4
 638 005e FFF7FEFF 		bl	__aeabi_uidiv
 639              	.LVL86:
 640 0062 041E     		subs	r4, r0, #0
 641              	.LVL87:
 642              	.LBE24:
 268:..\..\..\arduinoLCD\test\Pain Drain\libraries\lvgl\src\misc/lv_printf.c ****         } while(value && (len < PRINTF_NTOA_BUFFER_SIZE));
 643              		.loc 1 268 0 discriminator 8
 644 0064 04D0     		beq	.L40
 645              	.LBB25:
 266:..\..\..\arduinoLCD\test\Pain Drain\libraries\lvgl\src\misc/lv_printf.c ****             buf[len++] = digit < 10 ? '0' + digit : (flags & FLAGS_UPPERCASE ? 'A' : 'a') + digit -
 646              		.loc 1 266 0 discriminator 1
 647 0066 3700     		movs	r7, r6
 648              	.LBE25:
 649              		.loc 1 268 0 discriminator 1
 650 0068 1F2E     		cmp	r6, #31
 651 006a E1D9     		bls	.L39
 652 006c 00E0     		b	.L40
 653              	.LVL88:
 654              	.L45:
 255:..\..\..\arduinoLCD\test\Pain Drain\libraries\lvgl\src\misc/lv_printf.c **** 
 655              		.loc 1 255 0
 656 006e 0026     		movs	r6, #0
 657              	.LVL89:
 658              	.L40:
 269:..\..\..\arduinoLCD\test\Pain Drain\libraries\lvgl\src\misc/lv_printf.c ****     }
 270:..\..\..\arduinoLCD\test\Pain Drain\libraries\lvgl\src\misc/lv_printf.c **** 
 271:..\..\..\arduinoLCD\test\Pain Drain\libraries\lvgl\src\misc/lv_printf.c ****     return _ntoa_format(out, buffer, idx, maxlen, buf, len, negative, (unsigned int)base, prec, wid
 659              		.loc 1 271 0
 660 0070 0695     		str	r5, [sp, #24]
 661 0072 1E9B     		ldr	r3, [sp, #120]
 662 0074 0593     		str	r3, [sp, #20]
 663 0076 1D9B     		ldr	r3, [sp, #116]
 664 0078 0493     		str	r3, [sp, #16]
 665 007a 1C9B     		ldr	r3, [sp, #112]
 666 007c 0393     		str	r3, [sp, #12]
 667 007e 4346     		mov	r3, r8
 668 0080 0293     		str	r3, [sp, #8]
 669 0082 0196     		str	r6, [sp, #4]
 670 0084 0CAB     		add	r3, sp, #48
 671 0086 0093     		str	r3, [sp]
 672 0088 0B9B     		ldr	r3, [sp, #44]
 673 008a 0A9A     		ldr	r2, [sp, #40]
 674 008c 0999     		ldr	r1, [sp, #36]
 675 008e 0898     		ldr	r0, [sp, #32]
 676 0090 FFF7FEFF 		bl	_ntoa_format
 677              	.LVL90:
 272:..\..\..\arduinoLCD\test\Pain Drain\libraries\lvgl\src\misc/lv_printf.c **** }
 678              		.loc 1 272 0
 679 0094 14B0     		add	sp, sp, #80
 680              		@ sp needed
 681              	.LVL91:
 682              	.LVL92:
ARM GAS  C:\Users\haske\AppData\Local\Temp\ccZHF2NV.s 			page 18


 683 0096 04BC     		pop	{r2}
 684 0098 9046     		mov	r8, r2
 685 009a F0BD     		pop	{r4, r5, r6, r7, pc}
 686              		.cfi_endproc
 687              	.LFE7:
 688              		.size	_ntoa_long, .-_ntoa_long
 689              		.global	__aeabi_uldivmod
 690              		.section	.text._ntoa_long_long,"ax",%progbits
 691              		.align	2
 692              		.code	16
 693              		.thumb_func
 694              		.type	_ntoa_long_long, %function
 695              	_ntoa_long_long:
 696              	.LFB8:
 273:..\..\..\arduinoLCD\test\Pain Drain\libraries\lvgl\src\misc/lv_printf.c **** 
 274:..\..\..\arduinoLCD\test\Pain Drain\libraries\lvgl\src\misc/lv_printf.c **** // internal itoa for 'long long' type
 275:..\..\..\arduinoLCD\test\Pain Drain\libraries\lvgl\src\misc/lv_printf.c **** #if defined(PRINTF_SUPPORT_LONG_LONG)
 276:..\..\..\arduinoLCD\test\Pain Drain\libraries\lvgl\src\misc/lv_printf.c **** static size_t _ntoa_long_long(out_fct_type out, char * buffer, size_t idx, size_t maxlen, unsigned 
 277:..\..\..\arduinoLCD\test\Pain Drain\libraries\lvgl\src\misc/lv_printf.c ****                               bool negative, unsigned long long base, unsigned int prec, unsigned i
 278:..\..\..\arduinoLCD\test\Pain Drain\libraries\lvgl\src\misc/lv_printf.c **** {
 697              		.loc 1 278 0
 698              		.cfi_startproc
 699              		@ args = 36, pretend = 0, frame = 64
 700              		@ frame_needed = 0, uses_anonymous_args = 0
 701              	.LVL93:
 702 0000 F0B5     		push	{r4, r5, r6, r7, lr}
 703              		.cfi_def_cfa_offset 20
 704              		.cfi_offset 4, -20
 705              		.cfi_offset 5, -16
 706              		.cfi_offset 6, -12
 707              		.cfi_offset 7, -8
 708              		.cfi_offset 14, -4
 709 0002 5F46     		mov	r7, fp
 710 0004 5646     		mov	r6, r10
 711 0006 C0B4     		push	{r6, r7}
 712              		.cfi_def_cfa_offset 28
 713              		.cfi_offset 10, -28
 714              		.cfi_offset 11, -24
 715 0008 99B0     		sub	sp, sp, #100
 716              		.cfi_def_cfa_offset 128
 717 000a 0C90     		str	r0, [sp, #48]
 718 000c 0D91     		str	r1, [sp, #52]
 719 000e 0E92     		str	r2, [sp, #56]
 720 0010 0F93     		str	r3, [sp, #60]
 721 0012 209C     		ldr	r4, [sp, #128]
 722 0014 219D     		ldr	r5, [sp, #132]
 723 0016 22AB     		add	r3, sp, #136
 724              	.LVL94:
 725 0018 1B78     		ldrb	r3, [r3]
 726              	.LVL95:
 727 001a 9B46     		mov	fp, r3
 728 001c 249B     		ldr	r3, [sp, #144]
 729 001e 0A93     		str	r3, [sp, #40]
 730 0020 259B     		ldr	r3, [sp, #148]
 731 0022 0B93     		str	r3, [sp, #44]
 732 0024 289B     		ldr	r3, [sp, #160]
 733 0026 9A46     		mov	r10, r3
ARM GAS  C:\Users\haske\AppData\Local\Temp\ccZHF2NV.s 			page 19


 734              	.LVL96:
 279:..\..\..\arduinoLCD\test\Pain Drain\libraries\lvgl\src\misc/lv_printf.c ****     char buf[PRINTF_NTOA_BUFFER_SIZE];
 280:..\..\..\arduinoLCD\test\Pain Drain\libraries\lvgl\src\misc/lv_printf.c ****     size_t len = 0U;
 281:..\..\..\arduinoLCD\test\Pain Drain\libraries\lvgl\src\misc/lv_printf.c **** 
 282:..\..\..\arduinoLCD\test\Pain Drain\libraries\lvgl\src\misc/lv_printf.c ****     // no hash for 0 values
 283:..\..\..\arduinoLCD\test\Pain Drain\libraries\lvgl\src\misc/lv_printf.c ****     if(!value) {
 735              		.loc 1 283 0
 736 0028 2300     		movs	r3, r4
 737 002a 2B43     		orrs	r3, r5
 738 002c 03D1     		bne	.L48
 284:..\..\..\arduinoLCD\test\Pain Drain\libraries\lvgl\src\misc/lv_printf.c ****         flags &= ~FLAGS_HASH;
 739              		.loc 1 284 0
 740 002e 1033     		adds	r3, r3, #16
 741 0030 5246     		mov	r2, r10
 742              	.LVL97:
 743 0032 9A43     		bics	r2, r3
 744 0034 9246     		mov	r10, r2
 745              	.LVL98:
 746              	.L48:
 285:..\..\..\arduinoLCD\test\Pain Drain\libraries\lvgl\src\misc/lv_printf.c ****     }
 286:..\..\..\arduinoLCD\test\Pain Drain\libraries\lvgl\src\misc/lv_printf.c **** 
 287:..\..\..\arduinoLCD\test\Pain Drain\libraries\lvgl\src\misc/lv_printf.c ****     // write if precision != 0 and value is != 0
 288:..\..\..\arduinoLCD\test\Pain Drain\libraries\lvgl\src\misc/lv_printf.c ****     if(!(flags & FLAGS_PRECISION) || value) {
 747              		.loc 1 288 0
 748 0036 5346     		mov	r3, r10
 749 0038 5B05     		lsls	r3, r3, #21
 750 003a 06D5     		bpl	.L56
 751              		.loc 1 288 0 is_stmt 0 discriminator 1
 752 003c 2300     		movs	r3, r4
 753 003e 2B43     		orrs	r3, r5
 754 0040 2ED0     		beq	.L57
 755 0042 0026     		movs	r6, #0
 756 0044 5746     		mov	r7, r10
 757 0046 0994     		str	r4, [sp, #36]
 758 0048 02E0     		b	.L49
 759              	.L56:
 760 004a 0026     		movs	r6, #0
 761 004c 5746     		mov	r7, r10
 762 004e 0994     		str	r4, [sp, #36]
 763              	.LVL99:
 764              	.L49:
 765              	.LBB26:
 289:..\..\..\arduinoLCD\test\Pain Drain\libraries\lvgl\src\misc/lv_printf.c ****         do {
 290:..\..\..\arduinoLCD\test\Pain Drain\libraries\lvgl\src\misc/lv_printf.c ****             const char digit = (char)(value % base);
 766              		.loc 1 290 0 is_stmt 1
 767 0050 0A9A     		ldr	r2, [sp, #40]
 768 0052 0B9B     		ldr	r3, [sp, #44]
 769 0054 0998     		ldr	r0, [sp, #36]
 770 0056 2900     		movs	r1, r5
 771 0058 FFF7FEFF 		bl	__aeabi_uldivmod
 772              	.LVL100:
 773 005c D2B2     		uxtb	r2, r2
 774              	.LVL101:
 291:..\..\..\arduinoLCD\test\Pain Drain\libraries\lvgl\src\misc/lv_printf.c ****             buf[len++] = digit < 10 ? '0' + digit : (flags & FLAGS_UPPERCASE ? 'A' : 'a') + digit -
 775              		.loc 1 291 0
 776 005e 741C     		adds	r4, r6, #1
 777              	.LVL102:
ARM GAS  C:\Users\haske\AppData\Local\Temp\ccZHF2NV.s 			page 20


 778 0060 092A     		cmp	r2, #9
 779 0062 02D8     		bhi	.L52
 780              		.loc 1 291 0 is_stmt 0 discriminator 1
 781 0064 3032     		adds	r2, r2, #48
 782              	.LVL103:
 783 0066 D2B2     		uxtb	r2, r2
 784              	.LVL104:
 785 0068 07E0     		b	.L53
 786              	.LVL105:
 787              	.L52:
 788              		.loc 1 291 0 discriminator 2
 789 006a BB06     		lsls	r3, r7, #26
 790 006c 01D5     		bpl	.L58
 791              		.loc 1 291 0
 792 006e 4123     		movs	r3, #65
 793 0070 00E0     		b	.L54
 794              	.L58:
 795 0072 6123     		movs	r3, #97
 796              	.L54:
 797              		.loc 1 291 0 discriminator 7
 798 0074 9A18     		adds	r2, r3, r2
 799              	.LVL106:
 800 0076 0A3A     		subs	r2, r2, #10
 801 0078 D2B2     		uxtb	r2, r2
 802              	.L53:
 803              		.loc 1 291 0 discriminator 8
 804 007a 10AB     		add	r3, sp, #64
 805 007c 9A55     		strb	r2, [r3, r6]
 292:..\..\..\arduinoLCD\test\Pain Drain\libraries\lvgl\src\misc/lv_printf.c ****             value /= base;
 806              		.loc 1 292 0 is_stmt 1 discriminator 8
 807 007e 0A9A     		ldr	r2, [sp, #40]
 808 0080 0B9B     		ldr	r3, [sp, #44]
 809 0082 0998     		ldr	r0, [sp, #36]
 810 0084 2900     		movs	r1, r5
 811 0086 FFF7FEFF 		bl	__aeabi_uldivmod
 812              	.LVL107:
 813 008a 0990     		str	r0, [sp, #36]
 814              	.LVL108:
 815 008c 0D00     		movs	r5, r1
 816              	.LVL109:
 817              	.LBE26:
 293:..\..\..\arduinoLCD\test\Pain Drain\libraries\lvgl\src\misc/lv_printf.c ****         } while(value && (len < PRINTF_NTOA_BUFFER_SIZE));
 818              		.loc 1 293 0 discriminator 8
 819 008e 0B00     		movs	r3, r1
 820 0090 0343     		orrs	r3, r0
 821 0092 07D0     		beq	.L59
 822              	.LBB27:
 291:..\..\..\arduinoLCD\test\Pain Drain\libraries\lvgl\src\misc/lv_printf.c ****             buf[len++] = digit < 10 ? '0' + digit : (flags & FLAGS_UPPERCASE ? 'A' : 'a') + digit -
 823              		.loc 1 291 0 discriminator 1
 824 0094 2600     		movs	r6, r4
 825              	.LBE27:
 826              		.loc 1 293 0 discriminator 1
 827 0096 1F2C     		cmp	r4, #31
 828 0098 DAD9     		bls	.L49
 829 009a BA46     		mov	r10, r7
 830 009c 2700     		movs	r7, r4
 831              	.LVL110:
ARM GAS  C:\Users\haske\AppData\Local\Temp\ccZHF2NV.s 			page 21


 832 009e 03E0     		b	.L50
 833              	.LVL111:
 834              	.L57:
 280:..\..\..\arduinoLCD\test\Pain Drain\libraries\lvgl\src\misc/lv_printf.c **** 
 835              		.loc 1 280 0
 836 00a0 0027     		movs	r7, #0
 837 00a2 01E0     		b	.L50
 838              	.LVL112:
 839              	.L59:
 840 00a4 BA46     		mov	r10, r7
 841 00a6 2700     		movs	r7, r4
 842              	.LVL113:
 843              	.L50:
 294:..\..\..\arduinoLCD\test\Pain Drain\libraries\lvgl\src\misc/lv_printf.c ****     }
 295:..\..\..\arduinoLCD\test\Pain Drain\libraries\lvgl\src\misc/lv_printf.c **** 
 296:..\..\..\arduinoLCD\test\Pain Drain\libraries\lvgl\src\misc/lv_printf.c ****     return _ntoa_format(out, buffer, idx, maxlen, buf, len, negative, (unsigned int)base, prec, wid
 844              		.loc 1 296 0
 845 00a8 5346     		mov	r3, r10
 846 00aa 0693     		str	r3, [sp, #24]
 847 00ac 279B     		ldr	r3, [sp, #156]
 848 00ae 0593     		str	r3, [sp, #20]
 849 00b0 269B     		ldr	r3, [sp, #152]
 850 00b2 0493     		str	r3, [sp, #16]
 851 00b4 0A9B     		ldr	r3, [sp, #40]
 852 00b6 0393     		str	r3, [sp, #12]
 853 00b8 5B46     		mov	r3, fp
 854 00ba 0293     		str	r3, [sp, #8]
 855 00bc 0197     		str	r7, [sp, #4]
 856 00be 10AB     		add	r3, sp, #64
 857 00c0 0093     		str	r3, [sp]
 858 00c2 0F9B     		ldr	r3, [sp, #60]
 859 00c4 0E9A     		ldr	r2, [sp, #56]
 860 00c6 0D99     		ldr	r1, [sp, #52]
 861 00c8 0C98     		ldr	r0, [sp, #48]
 862 00ca FFF7FEFF 		bl	_ntoa_format
 863              	.LVL114:
 297:..\..\..\arduinoLCD\test\Pain Drain\libraries\lvgl\src\misc/lv_printf.c **** }
 864              		.loc 1 297 0
 865 00ce 19B0     		add	sp, sp, #100
 866              		@ sp needed
 867              	.LVL115:
 868              	.LVL116:
 869 00d0 0CBC     		pop	{r2, r3}
 870 00d2 9246     		mov	r10, r2
 871 00d4 9B46     		mov	fp, r3
 872 00d6 F0BD     		pop	{r4, r5, r6, r7, pc}
 873              		.cfi_endproc
 874              	.LFE8:
 875              		.size	_ntoa_long_long, .-_ntoa_long_long
 876              		.section	.text._vsnprintf,"ax",%progbits
 877              		.align	2
 878              		.code	16
 879              		.thumb_func
 880              		.type	_vsnprintf, %function
 881              	_vsnprintf:
 882              	.LFB9:
 298:..\..\..\arduinoLCD\test\Pain Drain\libraries\lvgl\src\misc/lv_printf.c **** #endif  // PRINTF_SUPPORT_LONG_LONG
ARM GAS  C:\Users\haske\AppData\Local\Temp\ccZHF2NV.s 			page 22


 299:..\..\..\arduinoLCD\test\Pain Drain\libraries\lvgl\src\misc/lv_printf.c **** 
 300:..\..\..\arduinoLCD\test\Pain Drain\libraries\lvgl\src\misc/lv_printf.c **** #if defined(PRINTF_SUPPORT_FLOAT)
 301:..\..\..\arduinoLCD\test\Pain Drain\libraries\lvgl\src\misc/lv_printf.c **** 
 302:..\..\..\arduinoLCD\test\Pain Drain\libraries\lvgl\src\misc/lv_printf.c **** #if defined(PRINTF_SUPPORT_EXPONENTIAL)
 303:..\..\..\arduinoLCD\test\Pain Drain\libraries\lvgl\src\misc/lv_printf.c **** // forward declaration so that _ftoa can switch to exp notation for values > PRINTF_MAX_FLOAT
 304:..\..\..\arduinoLCD\test\Pain Drain\libraries\lvgl\src\misc/lv_printf.c **** static size_t _etoa(out_fct_type out, char * buffer, size_t idx, size_t maxlen, double value, unsig
 305:..\..\..\arduinoLCD\test\Pain Drain\libraries\lvgl\src\misc/lv_printf.c ****                     unsigned int width, unsigned int flags);
 306:..\..\..\arduinoLCD\test\Pain Drain\libraries\lvgl\src\misc/lv_printf.c **** #endif
 307:..\..\..\arduinoLCD\test\Pain Drain\libraries\lvgl\src\misc/lv_printf.c **** 
 308:..\..\..\arduinoLCD\test\Pain Drain\libraries\lvgl\src\misc/lv_printf.c **** // internal ftoa for fixed decimal floating point
 309:..\..\..\arduinoLCD\test\Pain Drain\libraries\lvgl\src\misc/lv_printf.c **** static size_t _ftoa(out_fct_type out, char * buffer, size_t idx, size_t maxlen, double value, unsig
 310:..\..\..\arduinoLCD\test\Pain Drain\libraries\lvgl\src\misc/lv_printf.c ****                     unsigned int width, unsigned int flags)
 311:..\..\..\arduinoLCD\test\Pain Drain\libraries\lvgl\src\misc/lv_printf.c **** {
 312:..\..\..\arduinoLCD\test\Pain Drain\libraries\lvgl\src\misc/lv_printf.c ****     char buf[PRINTF_FTOA_BUFFER_SIZE];
 313:..\..\..\arduinoLCD\test\Pain Drain\libraries\lvgl\src\misc/lv_printf.c ****     size_t len  = 0U;
 314:..\..\..\arduinoLCD\test\Pain Drain\libraries\lvgl\src\misc/lv_printf.c ****     double diff = 0.0;
 315:..\..\..\arduinoLCD\test\Pain Drain\libraries\lvgl\src\misc/lv_printf.c **** 
 316:..\..\..\arduinoLCD\test\Pain Drain\libraries\lvgl\src\misc/lv_printf.c ****     // powers of 10
 317:..\..\..\arduinoLCD\test\Pain Drain\libraries\lvgl\src\misc/lv_printf.c ****     static const double pow10[] = { 1, 10, 100, 1000, 10000, 100000, 1000000, 10000000, 100000000, 
 318:..\..\..\arduinoLCD\test\Pain Drain\libraries\lvgl\src\misc/lv_printf.c **** 
 319:..\..\..\arduinoLCD\test\Pain Drain\libraries\lvgl\src\misc/lv_printf.c ****     // test for special values
 320:..\..\..\arduinoLCD\test\Pain Drain\libraries\lvgl\src\misc/lv_printf.c ****     if(value != value)
 321:..\..\..\arduinoLCD\test\Pain Drain\libraries\lvgl\src\misc/lv_printf.c ****         return _out_rev(out, buffer, idx, maxlen, "nan", 3, width, flags);
 322:..\..\..\arduinoLCD\test\Pain Drain\libraries\lvgl\src\misc/lv_printf.c ****     if(value < -DBL_MAX)
 323:..\..\..\arduinoLCD\test\Pain Drain\libraries\lvgl\src\misc/lv_printf.c ****         return _out_rev(out, buffer, idx, maxlen, "fni-", 4, width, flags);
 324:..\..\..\arduinoLCD\test\Pain Drain\libraries\lvgl\src\misc/lv_printf.c ****     if(value > DBL_MAX)
 325:..\..\..\arduinoLCD\test\Pain Drain\libraries\lvgl\src\misc/lv_printf.c ****         return _out_rev(out, buffer, idx, maxlen, (flags & FLAGS_PLUS) ? "fni+" : "fni", (flags & F
 326:..\..\..\arduinoLCD\test\Pain Drain\libraries\lvgl\src\misc/lv_printf.c ****                         flags);
 327:..\..\..\arduinoLCD\test\Pain Drain\libraries\lvgl\src\misc/lv_printf.c **** 
 328:..\..\..\arduinoLCD\test\Pain Drain\libraries\lvgl\src\misc/lv_printf.c ****     // test for very large values
 329:..\..\..\arduinoLCD\test\Pain Drain\libraries\lvgl\src\misc/lv_printf.c ****     // standard printf behavior is to print EVERY whole number digit -- which could be 100s of char
 330:..\..\..\arduinoLCD\test\Pain Drain\libraries\lvgl\src\misc/lv_printf.c ****     if((value > PRINTF_MAX_FLOAT) || (value < -PRINTF_MAX_FLOAT)) {
 331:..\..\..\arduinoLCD\test\Pain Drain\libraries\lvgl\src\misc/lv_printf.c **** #if defined(PRINTF_SUPPORT_EXPONENTIAL)
 332:..\..\..\arduinoLCD\test\Pain Drain\libraries\lvgl\src\misc/lv_printf.c ****         return _etoa(out, buffer, idx, maxlen, value, prec, width, flags);
 333:..\..\..\arduinoLCD\test\Pain Drain\libraries\lvgl\src\misc/lv_printf.c **** #else
 334:..\..\..\arduinoLCD\test\Pain Drain\libraries\lvgl\src\misc/lv_printf.c ****         return 0U;
 335:..\..\..\arduinoLCD\test\Pain Drain\libraries\lvgl\src\misc/lv_printf.c **** #endif
 336:..\..\..\arduinoLCD\test\Pain Drain\libraries\lvgl\src\misc/lv_printf.c ****     }
 337:..\..\..\arduinoLCD\test\Pain Drain\libraries\lvgl\src\misc/lv_printf.c **** 
 338:..\..\..\arduinoLCD\test\Pain Drain\libraries\lvgl\src\misc/lv_printf.c ****     // test for negative
 339:..\..\..\arduinoLCD\test\Pain Drain\libraries\lvgl\src\misc/lv_printf.c ****     bool negative = false;
 340:..\..\..\arduinoLCD\test\Pain Drain\libraries\lvgl\src\misc/lv_printf.c ****     if(value < 0) {
 341:..\..\..\arduinoLCD\test\Pain Drain\libraries\lvgl\src\misc/lv_printf.c ****         negative = true;
 342:..\..\..\arduinoLCD\test\Pain Drain\libraries\lvgl\src\misc/lv_printf.c ****         value = 0 - value;
 343:..\..\..\arduinoLCD\test\Pain Drain\libraries\lvgl\src\misc/lv_printf.c ****     }
 344:..\..\..\arduinoLCD\test\Pain Drain\libraries\lvgl\src\misc/lv_printf.c **** 
 345:..\..\..\arduinoLCD\test\Pain Drain\libraries\lvgl\src\misc/lv_printf.c ****     // set default precision, if not set explicitly
 346:..\..\..\arduinoLCD\test\Pain Drain\libraries\lvgl\src\misc/lv_printf.c ****     if(!(flags & FLAGS_PRECISION)) {
 347:..\..\..\arduinoLCD\test\Pain Drain\libraries\lvgl\src\misc/lv_printf.c ****         prec = PRINTF_DEFAULT_FLOAT_PRECISION;
 348:..\..\..\arduinoLCD\test\Pain Drain\libraries\lvgl\src\misc/lv_printf.c ****     }
 349:..\..\..\arduinoLCD\test\Pain Drain\libraries\lvgl\src\misc/lv_printf.c ****     // limit precision to 9, cause a prec >= 10 can lead to overflow errors
 350:..\..\..\arduinoLCD\test\Pain Drain\libraries\lvgl\src\misc/lv_printf.c ****     while((len < PRINTF_FTOA_BUFFER_SIZE) && (prec > 9U)) {
 351:..\..\..\arduinoLCD\test\Pain Drain\libraries\lvgl\src\misc/lv_printf.c ****         buf[len++] = '0';
 352:..\..\..\arduinoLCD\test\Pain Drain\libraries\lvgl\src\misc/lv_printf.c ****         prec--;
 353:..\..\..\arduinoLCD\test\Pain Drain\libraries\lvgl\src\misc/lv_printf.c ****     }
 354:..\..\..\arduinoLCD\test\Pain Drain\libraries\lvgl\src\misc/lv_printf.c **** 
 355:..\..\..\arduinoLCD\test\Pain Drain\libraries\lvgl\src\misc/lv_printf.c ****     int whole = (int)value;
ARM GAS  C:\Users\haske\AppData\Local\Temp\ccZHF2NV.s 			page 23


 356:..\..\..\arduinoLCD\test\Pain Drain\libraries\lvgl\src\misc/lv_printf.c ****     double tmp = (value - whole) * pow10[prec];
 357:..\..\..\arduinoLCD\test\Pain Drain\libraries\lvgl\src\misc/lv_printf.c ****     unsigned long frac = (unsigned long)tmp;
 358:..\..\..\arduinoLCD\test\Pain Drain\libraries\lvgl\src\misc/lv_printf.c ****     diff = tmp - frac;
 359:..\..\..\arduinoLCD\test\Pain Drain\libraries\lvgl\src\misc/lv_printf.c **** 
 360:..\..\..\arduinoLCD\test\Pain Drain\libraries\lvgl\src\misc/lv_printf.c ****     if(diff > 0.5) {
 361:..\..\..\arduinoLCD\test\Pain Drain\libraries\lvgl\src\misc/lv_printf.c ****         ++frac;
 362:..\..\..\arduinoLCD\test\Pain Drain\libraries\lvgl\src\misc/lv_printf.c ****         // handle rollover, e.g. case 0.99 with prec 1 is 1.0
 363:..\..\..\arduinoLCD\test\Pain Drain\libraries\lvgl\src\misc/lv_printf.c ****         if(frac >= pow10[prec]) {
 364:..\..\..\arduinoLCD\test\Pain Drain\libraries\lvgl\src\misc/lv_printf.c ****             frac = 0;
 365:..\..\..\arduinoLCD\test\Pain Drain\libraries\lvgl\src\misc/lv_printf.c ****             ++whole;
 366:..\..\..\arduinoLCD\test\Pain Drain\libraries\lvgl\src\misc/lv_printf.c ****         }
 367:..\..\..\arduinoLCD\test\Pain Drain\libraries\lvgl\src\misc/lv_printf.c ****     }
 368:..\..\..\arduinoLCD\test\Pain Drain\libraries\lvgl\src\misc/lv_printf.c ****     else if(diff < 0.5) {
 369:..\..\..\arduinoLCD\test\Pain Drain\libraries\lvgl\src\misc/lv_printf.c ****     }
 370:..\..\..\arduinoLCD\test\Pain Drain\libraries\lvgl\src\misc/lv_printf.c ****     else if((frac == 0U) || (frac & 1U)) {
 371:..\..\..\arduinoLCD\test\Pain Drain\libraries\lvgl\src\misc/lv_printf.c ****         // if halfway, round up if odd OR if last digit is 0
 372:..\..\..\arduinoLCD\test\Pain Drain\libraries\lvgl\src\misc/lv_printf.c ****         ++frac;
 373:..\..\..\arduinoLCD\test\Pain Drain\libraries\lvgl\src\misc/lv_printf.c ****     }
 374:..\..\..\arduinoLCD\test\Pain Drain\libraries\lvgl\src\misc/lv_printf.c **** 
 375:..\..\..\arduinoLCD\test\Pain Drain\libraries\lvgl\src\misc/lv_printf.c ****     if(prec == 0U) {
 376:..\..\..\arduinoLCD\test\Pain Drain\libraries\lvgl\src\misc/lv_printf.c ****         diff = value - (double)whole;
 377:..\..\..\arduinoLCD\test\Pain Drain\libraries\lvgl\src\misc/lv_printf.c ****         if((!(diff < 0.5) || (diff > 0.5)) && (whole & 1)) {
 378:..\..\..\arduinoLCD\test\Pain Drain\libraries\lvgl\src\misc/lv_printf.c ****             // exactly 0.5 and ODD, then round up
 379:..\..\..\arduinoLCD\test\Pain Drain\libraries\lvgl\src\misc/lv_printf.c ****             // 1.5 -> 2, but 2.5 -> 2
 380:..\..\..\arduinoLCD\test\Pain Drain\libraries\lvgl\src\misc/lv_printf.c ****             ++whole;
 381:..\..\..\arduinoLCD\test\Pain Drain\libraries\lvgl\src\misc/lv_printf.c ****         }
 382:..\..\..\arduinoLCD\test\Pain Drain\libraries\lvgl\src\misc/lv_printf.c ****     }
 383:..\..\..\arduinoLCD\test\Pain Drain\libraries\lvgl\src\misc/lv_printf.c ****     else {
 384:..\..\..\arduinoLCD\test\Pain Drain\libraries\lvgl\src\misc/lv_printf.c ****         unsigned int count = prec;
 385:..\..\..\arduinoLCD\test\Pain Drain\libraries\lvgl\src\misc/lv_printf.c ****         // now do fractional part, as an unsigned number
 386:..\..\..\arduinoLCD\test\Pain Drain\libraries\lvgl\src\misc/lv_printf.c ****         while(len < PRINTF_FTOA_BUFFER_SIZE) {
 387:..\..\..\arduinoLCD\test\Pain Drain\libraries\lvgl\src\misc/lv_printf.c ****             --count;
 388:..\..\..\arduinoLCD\test\Pain Drain\libraries\lvgl\src\misc/lv_printf.c ****             buf[len++] = (char)(48U + (frac % 10U));
 389:..\..\..\arduinoLCD\test\Pain Drain\libraries\lvgl\src\misc/lv_printf.c ****             if(!(frac /= 10U)) {
 390:..\..\..\arduinoLCD\test\Pain Drain\libraries\lvgl\src\misc/lv_printf.c ****                 break;
 391:..\..\..\arduinoLCD\test\Pain Drain\libraries\lvgl\src\misc/lv_printf.c ****             }
 392:..\..\..\arduinoLCD\test\Pain Drain\libraries\lvgl\src\misc/lv_printf.c ****         }
 393:..\..\..\arduinoLCD\test\Pain Drain\libraries\lvgl\src\misc/lv_printf.c ****         // add extra 0s
 394:..\..\..\arduinoLCD\test\Pain Drain\libraries\lvgl\src\misc/lv_printf.c ****         while((len < PRINTF_FTOA_BUFFER_SIZE) && (count-- > 0U)) {
 395:..\..\..\arduinoLCD\test\Pain Drain\libraries\lvgl\src\misc/lv_printf.c ****             buf[len++] = '0';
 396:..\..\..\arduinoLCD\test\Pain Drain\libraries\lvgl\src\misc/lv_printf.c ****         }
 397:..\..\..\arduinoLCD\test\Pain Drain\libraries\lvgl\src\misc/lv_printf.c ****         if(len < PRINTF_FTOA_BUFFER_SIZE) {
 398:..\..\..\arduinoLCD\test\Pain Drain\libraries\lvgl\src\misc/lv_printf.c ****             // add decimal
 399:..\..\..\arduinoLCD\test\Pain Drain\libraries\lvgl\src\misc/lv_printf.c ****             buf[len++] = '.';
 400:..\..\..\arduinoLCD\test\Pain Drain\libraries\lvgl\src\misc/lv_printf.c ****         }
 401:..\..\..\arduinoLCD\test\Pain Drain\libraries\lvgl\src\misc/lv_printf.c ****     }
 402:..\..\..\arduinoLCD\test\Pain Drain\libraries\lvgl\src\misc/lv_printf.c **** 
 403:..\..\..\arduinoLCD\test\Pain Drain\libraries\lvgl\src\misc/lv_printf.c ****     // do whole part, number is reversed
 404:..\..\..\arduinoLCD\test\Pain Drain\libraries\lvgl\src\misc/lv_printf.c ****     while(len < PRINTF_FTOA_BUFFER_SIZE) {
 405:..\..\..\arduinoLCD\test\Pain Drain\libraries\lvgl\src\misc/lv_printf.c ****         buf[len++] = (char)(48 + (whole % 10));
 406:..\..\..\arduinoLCD\test\Pain Drain\libraries\lvgl\src\misc/lv_printf.c ****         if(!(whole /= 10)) {
 407:..\..\..\arduinoLCD\test\Pain Drain\libraries\lvgl\src\misc/lv_printf.c ****             break;
 408:..\..\..\arduinoLCD\test\Pain Drain\libraries\lvgl\src\misc/lv_printf.c ****         }
 409:..\..\..\arduinoLCD\test\Pain Drain\libraries\lvgl\src\misc/lv_printf.c ****     }
 410:..\..\..\arduinoLCD\test\Pain Drain\libraries\lvgl\src\misc/lv_printf.c **** 
 411:..\..\..\arduinoLCD\test\Pain Drain\libraries\lvgl\src\misc/lv_printf.c ****     // pad leading zeros
 412:..\..\..\arduinoLCD\test\Pain Drain\libraries\lvgl\src\misc/lv_printf.c ****     if(!(flags & FLAGS_LEFT) && (flags & FLAGS_ZEROPAD)) {
ARM GAS  C:\Users\haske\AppData\Local\Temp\ccZHF2NV.s 			page 24


 413:..\..\..\arduinoLCD\test\Pain Drain\libraries\lvgl\src\misc/lv_printf.c ****         if(width && (negative || (flags & (FLAGS_PLUS | FLAGS_SPACE)))) {
 414:..\..\..\arduinoLCD\test\Pain Drain\libraries\lvgl\src\misc/lv_printf.c ****             width--;
 415:..\..\..\arduinoLCD\test\Pain Drain\libraries\lvgl\src\misc/lv_printf.c ****         }
 416:..\..\..\arduinoLCD\test\Pain Drain\libraries\lvgl\src\misc/lv_printf.c ****         while((len < width) && (len < PRINTF_FTOA_BUFFER_SIZE)) {
 417:..\..\..\arduinoLCD\test\Pain Drain\libraries\lvgl\src\misc/lv_printf.c ****             buf[len++] = '0';
 418:..\..\..\arduinoLCD\test\Pain Drain\libraries\lvgl\src\misc/lv_printf.c ****         }
 419:..\..\..\arduinoLCD\test\Pain Drain\libraries\lvgl\src\misc/lv_printf.c ****     }
 420:..\..\..\arduinoLCD\test\Pain Drain\libraries\lvgl\src\misc/lv_printf.c **** 
 421:..\..\..\arduinoLCD\test\Pain Drain\libraries\lvgl\src\misc/lv_printf.c ****     if(len < PRINTF_FTOA_BUFFER_SIZE) {
 422:..\..\..\arduinoLCD\test\Pain Drain\libraries\lvgl\src\misc/lv_printf.c ****         if(negative) {
 423:..\..\..\arduinoLCD\test\Pain Drain\libraries\lvgl\src\misc/lv_printf.c ****             buf[len++] = '-';
 424:..\..\..\arduinoLCD\test\Pain Drain\libraries\lvgl\src\misc/lv_printf.c ****         }
 425:..\..\..\arduinoLCD\test\Pain Drain\libraries\lvgl\src\misc/lv_printf.c ****         else if(flags & FLAGS_PLUS) {
 426:..\..\..\arduinoLCD\test\Pain Drain\libraries\lvgl\src\misc/lv_printf.c ****             buf[len++] = '+';  // ignore the space if the '+' exists
 427:..\..\..\arduinoLCD\test\Pain Drain\libraries\lvgl\src\misc/lv_printf.c ****         }
 428:..\..\..\arduinoLCD\test\Pain Drain\libraries\lvgl\src\misc/lv_printf.c ****         else if(flags & FLAGS_SPACE) {
 429:..\..\..\arduinoLCD\test\Pain Drain\libraries\lvgl\src\misc/lv_printf.c ****             buf[len++] = ' ';
 430:..\..\..\arduinoLCD\test\Pain Drain\libraries\lvgl\src\misc/lv_printf.c ****         }
 431:..\..\..\arduinoLCD\test\Pain Drain\libraries\lvgl\src\misc/lv_printf.c ****     }
 432:..\..\..\arduinoLCD\test\Pain Drain\libraries\lvgl\src\misc/lv_printf.c **** 
 433:..\..\..\arduinoLCD\test\Pain Drain\libraries\lvgl\src\misc/lv_printf.c ****     return _out_rev(out, buffer, idx, maxlen, buf, len, width, flags);
 434:..\..\..\arduinoLCD\test\Pain Drain\libraries\lvgl\src\misc/lv_printf.c **** }
 435:..\..\..\arduinoLCD\test\Pain Drain\libraries\lvgl\src\misc/lv_printf.c **** 
 436:..\..\..\arduinoLCD\test\Pain Drain\libraries\lvgl\src\misc/lv_printf.c **** #if defined(PRINTF_SUPPORT_EXPONENTIAL)
 437:..\..\..\arduinoLCD\test\Pain Drain\libraries\lvgl\src\misc/lv_printf.c **** // internal ftoa variant for exponential floating-point type, contributed by Martijn Jasperse <m.ja
 438:..\..\..\arduinoLCD\test\Pain Drain\libraries\lvgl\src\misc/lv_printf.c **** static size_t _etoa(out_fct_type out, char * buffer, size_t idx, size_t maxlen, double value, unsig
 439:..\..\..\arduinoLCD\test\Pain Drain\libraries\lvgl\src\misc/lv_printf.c ****                     unsigned int width, unsigned int flags)
 440:..\..\..\arduinoLCD\test\Pain Drain\libraries\lvgl\src\misc/lv_printf.c **** {
 441:..\..\..\arduinoLCD\test\Pain Drain\libraries\lvgl\src\misc/lv_printf.c ****     // check for NaN and special values
 442:..\..\..\arduinoLCD\test\Pain Drain\libraries\lvgl\src\misc/lv_printf.c ****     if((value != value) || (value > DBL_MAX) || (value < -DBL_MAX)) {
 443:..\..\..\arduinoLCD\test\Pain Drain\libraries\lvgl\src\misc/lv_printf.c ****         return _ftoa(out, buffer, idx, maxlen, value, prec, width, flags);
 444:..\..\..\arduinoLCD\test\Pain Drain\libraries\lvgl\src\misc/lv_printf.c ****     }
 445:..\..\..\arduinoLCD\test\Pain Drain\libraries\lvgl\src\misc/lv_printf.c **** 
 446:..\..\..\arduinoLCD\test\Pain Drain\libraries\lvgl\src\misc/lv_printf.c ****     // determine the sign
 447:..\..\..\arduinoLCD\test\Pain Drain\libraries\lvgl\src\misc/lv_printf.c ****     const bool negative = value < 0;
 448:..\..\..\arduinoLCD\test\Pain Drain\libraries\lvgl\src\misc/lv_printf.c ****     if(negative) {
 449:..\..\..\arduinoLCD\test\Pain Drain\libraries\lvgl\src\misc/lv_printf.c ****         value = -value;
 450:..\..\..\arduinoLCD\test\Pain Drain\libraries\lvgl\src\misc/lv_printf.c ****     }
 451:..\..\..\arduinoLCD\test\Pain Drain\libraries\lvgl\src\misc/lv_printf.c **** 
 452:..\..\..\arduinoLCD\test\Pain Drain\libraries\lvgl\src\misc/lv_printf.c ****     // default precision
 453:..\..\..\arduinoLCD\test\Pain Drain\libraries\lvgl\src\misc/lv_printf.c ****     if(!(flags & FLAGS_PRECISION)) {
 454:..\..\..\arduinoLCD\test\Pain Drain\libraries\lvgl\src\misc/lv_printf.c ****         prec = PRINTF_DEFAULT_FLOAT_PRECISION;
 455:..\..\..\arduinoLCD\test\Pain Drain\libraries\lvgl\src\misc/lv_printf.c ****     }
 456:..\..\..\arduinoLCD\test\Pain Drain\libraries\lvgl\src\misc/lv_printf.c **** 
 457:..\..\..\arduinoLCD\test\Pain Drain\libraries\lvgl\src\misc/lv_printf.c ****     // determine the decimal exponent
 458:..\..\..\arduinoLCD\test\Pain Drain\libraries\lvgl\src\misc/lv_printf.c ****     // based on the algorithm by David Gay (https://www.ampl.com/netlib/fp/dtoa.c)
 459:..\..\..\arduinoLCD\test\Pain Drain\libraries\lvgl\src\misc/lv_printf.c ****     union {
 460:..\..\..\arduinoLCD\test\Pain Drain\libraries\lvgl\src\misc/lv_printf.c ****         uint64_t U;
 461:..\..\..\arduinoLCD\test\Pain Drain\libraries\lvgl\src\misc/lv_printf.c ****         double   F;
 462:..\..\..\arduinoLCD\test\Pain Drain\libraries\lvgl\src\misc/lv_printf.c ****     } conv;
 463:..\..\..\arduinoLCD\test\Pain Drain\libraries\lvgl\src\misc/lv_printf.c **** 
 464:..\..\..\arduinoLCD\test\Pain Drain\libraries\lvgl\src\misc/lv_printf.c ****     conv.F = value;
 465:..\..\..\arduinoLCD\test\Pain Drain\libraries\lvgl\src\misc/lv_printf.c ****     int exp2 = (int)((conv.U >> 52U) & 0x07FFU) - 1023;           // effectively log2
 466:..\..\..\arduinoLCD\test\Pain Drain\libraries\lvgl\src\misc/lv_printf.c ****     conv.U = (conv.U & ((1ULL << 52U) - 1U)) | (1023ULL << 52U);  // drop the exponent so conv.F is
 467:..\..\..\arduinoLCD\test\Pain Drain\libraries\lvgl\src\misc/lv_printf.c ****     // now approximate log10 from the log2 integer part and an expansion of ln around 1.5
 468:..\..\..\arduinoLCD\test\Pain Drain\libraries\lvgl\src\misc/lv_printf.c ****     int expval = (int)(0.1760912590558 + exp2 * 0.301029995663981 + (conv.F - 1.5) * 0.289529654602
 469:..\..\..\arduinoLCD\test\Pain Drain\libraries\lvgl\src\misc/lv_printf.c ****     // now we want to compute 10^expval but we want to be sure it won't overflow
ARM GAS  C:\Users\haske\AppData\Local\Temp\ccZHF2NV.s 			page 25


 470:..\..\..\arduinoLCD\test\Pain Drain\libraries\lvgl\src\misc/lv_printf.c ****     exp2 = (int)(expval * 3.321928094887362 + 0.5);
 471:..\..\..\arduinoLCD\test\Pain Drain\libraries\lvgl\src\misc/lv_printf.c ****     const double z  = expval * 2.302585092994046 - exp2 * 0.6931471805599453;
 472:..\..\..\arduinoLCD\test\Pain Drain\libraries\lvgl\src\misc/lv_printf.c ****     const double z2 = z * z;
 473:..\..\..\arduinoLCD\test\Pain Drain\libraries\lvgl\src\misc/lv_printf.c ****     conv.U = (uint64_t)(exp2 + 1023) << 52U;
 474:..\..\..\arduinoLCD\test\Pain Drain\libraries\lvgl\src\misc/lv_printf.c ****     // compute exp(z) using continued fractions, see https://en.wikipedia.org/wiki/Exponential_func
 475:..\..\..\arduinoLCD\test\Pain Drain\libraries\lvgl\src\misc/lv_printf.c ****     conv.F *= 1 + 2 * z / (2 - z + (z2 / (6 + (z2 / (10 + z2 / 14)))));
 476:..\..\..\arduinoLCD\test\Pain Drain\libraries\lvgl\src\misc/lv_printf.c ****     // correct for rounding errors
 477:..\..\..\arduinoLCD\test\Pain Drain\libraries\lvgl\src\misc/lv_printf.c ****     if(value < conv.F) {
 478:..\..\..\arduinoLCD\test\Pain Drain\libraries\lvgl\src\misc/lv_printf.c ****         expval--;
 479:..\..\..\arduinoLCD\test\Pain Drain\libraries\lvgl\src\misc/lv_printf.c ****         conv.F /= 10;
 480:..\..\..\arduinoLCD\test\Pain Drain\libraries\lvgl\src\misc/lv_printf.c ****     }
 481:..\..\..\arduinoLCD\test\Pain Drain\libraries\lvgl\src\misc/lv_printf.c **** 
 482:..\..\..\arduinoLCD\test\Pain Drain\libraries\lvgl\src\misc/lv_printf.c ****     // the exponent format is "%+03d" and largest value is "307", so set aside 4-5 characters
 483:..\..\..\arduinoLCD\test\Pain Drain\libraries\lvgl\src\misc/lv_printf.c ****     unsigned int minwidth = ((expval < 100) && (expval > -100)) ? 4U : 5U;
 484:..\..\..\arduinoLCD\test\Pain Drain\libraries\lvgl\src\misc/lv_printf.c **** 
 485:..\..\..\arduinoLCD\test\Pain Drain\libraries\lvgl\src\misc/lv_printf.c ****     // in "%g" mode, "prec" is the number of *significant figures* not decimals
 486:..\..\..\arduinoLCD\test\Pain Drain\libraries\lvgl\src\misc/lv_printf.c ****     if(flags & FLAGS_ADAPT_EXP) {
 487:..\..\..\arduinoLCD\test\Pain Drain\libraries\lvgl\src\misc/lv_printf.c ****         // do we want to fall-back to "%f" mode?
 488:..\..\..\arduinoLCD\test\Pain Drain\libraries\lvgl\src\misc/lv_printf.c ****         if((value >= 1e-4) && (value < 1e6)) {
 489:..\..\..\arduinoLCD\test\Pain Drain\libraries\lvgl\src\misc/lv_printf.c ****             if((int)prec > expval) {
 490:..\..\..\arduinoLCD\test\Pain Drain\libraries\lvgl\src\misc/lv_printf.c ****                 prec = (unsigned)((int)prec - expval - 1);
 491:..\..\..\arduinoLCD\test\Pain Drain\libraries\lvgl\src\misc/lv_printf.c ****             }
 492:..\..\..\arduinoLCD\test\Pain Drain\libraries\lvgl\src\misc/lv_printf.c ****             else {
 493:..\..\..\arduinoLCD\test\Pain Drain\libraries\lvgl\src\misc/lv_printf.c ****                 prec = 0;
 494:..\..\..\arduinoLCD\test\Pain Drain\libraries\lvgl\src\misc/lv_printf.c ****             }
 495:..\..\..\arduinoLCD\test\Pain Drain\libraries\lvgl\src\misc/lv_printf.c ****             flags |= FLAGS_PRECISION;   // make sure _ftoa respects precision
 496:..\..\..\arduinoLCD\test\Pain Drain\libraries\lvgl\src\misc/lv_printf.c ****             // no characters in exponent
 497:..\..\..\arduinoLCD\test\Pain Drain\libraries\lvgl\src\misc/lv_printf.c ****             minwidth = 0U;
 498:..\..\..\arduinoLCD\test\Pain Drain\libraries\lvgl\src\misc/lv_printf.c ****             expval   = 0;
 499:..\..\..\arduinoLCD\test\Pain Drain\libraries\lvgl\src\misc/lv_printf.c ****         }
 500:..\..\..\arduinoLCD\test\Pain Drain\libraries\lvgl\src\misc/lv_printf.c ****         else {
 501:..\..\..\arduinoLCD\test\Pain Drain\libraries\lvgl\src\misc/lv_printf.c ****             // we use one sigfig for the whole part
 502:..\..\..\arduinoLCD\test\Pain Drain\libraries\lvgl\src\misc/lv_printf.c ****             if((prec > 0) && (flags & FLAGS_PRECISION)) {
 503:..\..\..\arduinoLCD\test\Pain Drain\libraries\lvgl\src\misc/lv_printf.c ****                 --prec;
 504:..\..\..\arduinoLCD\test\Pain Drain\libraries\lvgl\src\misc/lv_printf.c ****             }
 505:..\..\..\arduinoLCD\test\Pain Drain\libraries\lvgl\src\misc/lv_printf.c ****         }
 506:..\..\..\arduinoLCD\test\Pain Drain\libraries\lvgl\src\misc/lv_printf.c ****     }
 507:..\..\..\arduinoLCD\test\Pain Drain\libraries\lvgl\src\misc/lv_printf.c **** 
 508:..\..\..\arduinoLCD\test\Pain Drain\libraries\lvgl\src\misc/lv_printf.c ****     // will everything fit?
 509:..\..\..\arduinoLCD\test\Pain Drain\libraries\lvgl\src\misc/lv_printf.c ****     unsigned int fwidth = width;
 510:..\..\..\arduinoLCD\test\Pain Drain\libraries\lvgl\src\misc/lv_printf.c ****     if(width > minwidth) {
 511:..\..\..\arduinoLCD\test\Pain Drain\libraries\lvgl\src\misc/lv_printf.c ****         // we didn't fall-back so subtract the characters required for the exponent
 512:..\..\..\arduinoLCD\test\Pain Drain\libraries\lvgl\src\misc/lv_printf.c ****         fwidth -= minwidth;
 513:..\..\..\arduinoLCD\test\Pain Drain\libraries\lvgl\src\misc/lv_printf.c ****     }
 514:..\..\..\arduinoLCD\test\Pain Drain\libraries\lvgl\src\misc/lv_printf.c ****     else {
 515:..\..\..\arduinoLCD\test\Pain Drain\libraries\lvgl\src\misc/lv_printf.c ****         // not enough characters, so go back to default sizing
 516:..\..\..\arduinoLCD\test\Pain Drain\libraries\lvgl\src\misc/lv_printf.c ****         fwidth = 0U;
 517:..\..\..\arduinoLCD\test\Pain Drain\libraries\lvgl\src\misc/lv_printf.c ****     }
 518:..\..\..\arduinoLCD\test\Pain Drain\libraries\lvgl\src\misc/lv_printf.c ****     if((flags & FLAGS_LEFT) && minwidth) {
 519:..\..\..\arduinoLCD\test\Pain Drain\libraries\lvgl\src\misc/lv_printf.c ****         // if we're padding on the right, DON'T pad the floating part
 520:..\..\..\arduinoLCD\test\Pain Drain\libraries\lvgl\src\misc/lv_printf.c ****         fwidth = 0U;
 521:..\..\..\arduinoLCD\test\Pain Drain\libraries\lvgl\src\misc/lv_printf.c ****     }
 522:..\..\..\arduinoLCD\test\Pain Drain\libraries\lvgl\src\misc/lv_printf.c **** 
 523:..\..\..\arduinoLCD\test\Pain Drain\libraries\lvgl\src\misc/lv_printf.c ****     // rescale the float value
 524:..\..\..\arduinoLCD\test\Pain Drain\libraries\lvgl\src\misc/lv_printf.c ****     if(expval) {
 525:..\..\..\arduinoLCD\test\Pain Drain\libraries\lvgl\src\misc/lv_printf.c ****         value /= conv.F;
 526:..\..\..\arduinoLCD\test\Pain Drain\libraries\lvgl\src\misc/lv_printf.c ****     }
ARM GAS  C:\Users\haske\AppData\Local\Temp\ccZHF2NV.s 			page 26


 527:..\..\..\arduinoLCD\test\Pain Drain\libraries\lvgl\src\misc/lv_printf.c **** 
 528:..\..\..\arduinoLCD\test\Pain Drain\libraries\lvgl\src\misc/lv_printf.c ****     // output the floating part
 529:..\..\..\arduinoLCD\test\Pain Drain\libraries\lvgl\src\misc/lv_printf.c ****     const size_t start_idx = idx;
 530:..\..\..\arduinoLCD\test\Pain Drain\libraries\lvgl\src\misc/lv_printf.c ****     idx = _ftoa(out, buffer, idx, maxlen, negative ? -value : value, prec, fwidth, flags & ~FLAGS_A
 531:..\..\..\arduinoLCD\test\Pain Drain\libraries\lvgl\src\misc/lv_printf.c **** 
 532:..\..\..\arduinoLCD\test\Pain Drain\libraries\lvgl\src\misc/lv_printf.c ****     // output the exponent part
 533:..\..\..\arduinoLCD\test\Pain Drain\libraries\lvgl\src\misc/lv_printf.c ****     if(minwidth) {
 534:..\..\..\arduinoLCD\test\Pain Drain\libraries\lvgl\src\misc/lv_printf.c ****         // output the exponential symbol
 535:..\..\..\arduinoLCD\test\Pain Drain\libraries\lvgl\src\misc/lv_printf.c ****         out((flags & FLAGS_UPPERCASE) ? 'E' : 'e', buffer, idx++, maxlen);
 536:..\..\..\arduinoLCD\test\Pain Drain\libraries\lvgl\src\misc/lv_printf.c ****         // output the exponent value
 537:..\..\..\arduinoLCD\test\Pain Drain\libraries\lvgl\src\misc/lv_printf.c ****         idx = _ntoa_long(out, buffer, idx, maxlen, (expval < 0) ? -expval : expval, expval < 0, 10,
 538:..\..\..\arduinoLCD\test\Pain Drain\libraries\lvgl\src\misc/lv_printf.c ****                          FLAGS_ZEROPAD | FLAGS_PLUS);
 539:..\..\..\arduinoLCD\test\Pain Drain\libraries\lvgl\src\misc/lv_printf.c ****         // might need to right-pad spaces
 540:..\..\..\arduinoLCD\test\Pain Drain\libraries\lvgl\src\misc/lv_printf.c ****         if(flags & FLAGS_LEFT) {
 541:..\..\..\arduinoLCD\test\Pain Drain\libraries\lvgl\src\misc/lv_printf.c ****             while(idx - start_idx < width) out(' ', buffer, idx++, maxlen);
 542:..\..\..\arduinoLCD\test\Pain Drain\libraries\lvgl\src\misc/lv_printf.c ****         }
 543:..\..\..\arduinoLCD\test\Pain Drain\libraries\lvgl\src\misc/lv_printf.c ****     }
 544:..\..\..\arduinoLCD\test\Pain Drain\libraries\lvgl\src\misc/lv_printf.c ****     return idx;
 545:..\..\..\arduinoLCD\test\Pain Drain\libraries\lvgl\src\misc/lv_printf.c **** }
 546:..\..\..\arduinoLCD\test\Pain Drain\libraries\lvgl\src\misc/lv_printf.c **** #endif  // PRINTF_SUPPORT_EXPONENTIAL
 547:..\..\..\arduinoLCD\test\Pain Drain\libraries\lvgl\src\misc/lv_printf.c **** #endif  // PRINTF_SUPPORT_FLOAT
 548:..\..\..\arduinoLCD\test\Pain Drain\libraries\lvgl\src\misc/lv_printf.c **** 
 549:..\..\..\arduinoLCD\test\Pain Drain\libraries\lvgl\src\misc/lv_printf.c **** // internal vsnprintf
 550:..\..\..\arduinoLCD\test\Pain Drain\libraries\lvgl\src\misc/lv_printf.c **** static int _vsnprintf(out_fct_type out, char * buffer, const size_t maxlen, const char * format, va
 551:..\..\..\arduinoLCD\test\Pain Drain\libraries\lvgl\src\misc/lv_printf.c **** {
 883              		.loc 1 551 0
 884              		.cfi_startproc
 885              		@ args = 4, pretend = 0, frame = 48
 886              		@ frame_needed = 0, uses_anonymous_args = 0
 887              	.LVL117:
 888 0000 F0B5     		push	{r4, r5, r6, r7, lr}
 889              		.cfi_def_cfa_offset 20
 890              		.cfi_offset 4, -20
 891              		.cfi_offset 5, -16
 892              		.cfi_offset 6, -12
 893              		.cfi_offset 7, -8
 894              		.cfi_offset 14, -4
 895 0002 5F46     		mov	r7, fp
 896 0004 5646     		mov	r6, r10
 897 0006 4D46     		mov	r5, r9
 898 0008 4446     		mov	r4, r8
 899 000a F0B4     		push	{r4, r5, r6, r7}
 900              		.cfi_def_cfa_offset 36
 901              		.cfi_offset 8, -36
 902              		.cfi_offset 9, -32
 903              		.cfi_offset 10, -28
 904              		.cfi_offset 11, -24
 905 000c 97B0     		sub	sp, sp, #92
 906              		.cfi_def_cfa_offset 128
 907 000e 8346     		mov	fp, r0
 908 0010 0C91     		str	r1, [sp, #48]
 909 0012 0B92     		str	r2, [sp, #44]
 910 0014 1393     		str	r3, [sp, #76]
 911              	.LVL118:
 552:..\..\..\arduinoLCD\test\Pain Drain\libraries\lvgl\src\misc/lv_printf.c ****     unsigned int flags, width, precision, n;
 553:..\..\..\arduinoLCD\test\Pain Drain\libraries\lvgl\src\misc/lv_printf.c ****     size_t idx = 0U;
 554:..\..\..\arduinoLCD\test\Pain Drain\libraries\lvgl\src\misc/lv_printf.c **** 
ARM GAS  C:\Users\haske\AppData\Local\Temp\ccZHF2NV.s 			page 27


 555:..\..\..\arduinoLCD\test\Pain Drain\libraries\lvgl\src\misc/lv_printf.c ****     if(!buffer) {
 912              		.loc 1 555 0
 913 0016 0029     		cmp	r1, #0
 914 0018 01D1     		bne	.L61
 556:..\..\..\arduinoLCD\test\Pain Drain\libraries\lvgl\src\misc/lv_printf.c ****         // use null output function
 557:..\..\..\arduinoLCD\test\Pain Drain\libraries\lvgl\src\misc/lv_printf.c ****         out = _out_null;
 915              		.loc 1 557 0
 916 001a CA4B     		ldr	r3, .L156
 917              	.LVL119:
 918 001c 9B46     		mov	fp, r3
 919              	.L61:
 558:..\..\..\arduinoLCD\test\Pain Drain\libraries\lvgl\src\misc/lv_printf.c ****     }
 559:..\..\..\arduinoLCD\test\Pain Drain\libraries\lvgl\src\misc/lv_printf.c **** 
 560:..\..\..\arduinoLCD\test\Pain Drain\libraries\lvgl\src\misc/lv_printf.c ****     while(*format) {
 561:..\..\..\arduinoLCD\test\Pain Drain\libraries\lvgl\src\misc/lv_printf.c ****         // format specifier?  %[flags][width][.precision][length]
 562:..\..\..\arduinoLCD\test\Pain Drain\libraries\lvgl\src\misc/lv_printf.c ****         if(*format != '%') {
 563:..\..\..\arduinoLCD\test\Pain Drain\libraries\lvgl\src\misc/lv_printf.c ****             // no
 564:..\..\..\arduinoLCD\test\Pain Drain\libraries\lvgl\src\misc/lv_printf.c ****             out(*format, buffer, idx++, maxlen);
 565:..\..\..\arduinoLCD\test\Pain Drain\libraries\lvgl\src\misc/lv_printf.c ****             format++;
 566:..\..\..\arduinoLCD\test\Pain Drain\libraries\lvgl\src\misc/lv_printf.c ****             continue;
 567:..\..\..\arduinoLCD\test\Pain Drain\libraries\lvgl\src\misc/lv_printf.c ****         }
 568:..\..\..\arduinoLCD\test\Pain Drain\libraries\lvgl\src\misc/lv_printf.c ****         else {
 569:..\..\..\arduinoLCD\test\Pain Drain\libraries\lvgl\src\misc/lv_printf.c ****             // yes, evaluate it
 570:..\..\..\arduinoLCD\test\Pain Drain\libraries\lvgl\src\misc/lv_printf.c ****             format++;
 571:..\..\..\arduinoLCD\test\Pain Drain\libraries\lvgl\src\misc/lv_printf.c ****         }
 572:..\..\..\arduinoLCD\test\Pain Drain\libraries\lvgl\src\misc/lv_printf.c **** 
 573:..\..\..\arduinoLCD\test\Pain Drain\libraries\lvgl\src\misc/lv_printf.c ****         // evaluate flags
 574:..\..\..\arduinoLCD\test\Pain Drain\libraries\lvgl\src\misc/lv_printf.c ****         flags = 0U;
 575:..\..\..\arduinoLCD\test\Pain Drain\libraries\lvgl\src\misc/lv_printf.c ****         do {
 576:..\..\..\arduinoLCD\test\Pain Drain\libraries\lvgl\src\misc/lv_printf.c ****             switch(*format) {
 577:..\..\..\arduinoLCD\test\Pain Drain\libraries\lvgl\src\misc/lv_printf.c ****                 case '0':
 578:..\..\..\arduinoLCD\test\Pain Drain\libraries\lvgl\src\misc/lv_printf.c ****                     flags |= FLAGS_ZEROPAD;
 579:..\..\..\arduinoLCD\test\Pain Drain\libraries\lvgl\src\misc/lv_printf.c ****                     format++;
 580:..\..\..\arduinoLCD\test\Pain Drain\libraries\lvgl\src\misc/lv_printf.c ****                     n = 1U;
 581:..\..\..\arduinoLCD\test\Pain Drain\libraries\lvgl\src\misc/lv_printf.c ****                     break;
 582:..\..\..\arduinoLCD\test\Pain Drain\libraries\lvgl\src\misc/lv_printf.c ****                 case '-':
 583:..\..\..\arduinoLCD\test\Pain Drain\libraries\lvgl\src\misc/lv_printf.c ****                     flags |= FLAGS_LEFT;
 584:..\..\..\arduinoLCD\test\Pain Drain\libraries\lvgl\src\misc/lv_printf.c ****                     format++;
 585:..\..\..\arduinoLCD\test\Pain Drain\libraries\lvgl\src\misc/lv_printf.c ****                     n = 1U;
 586:..\..\..\arduinoLCD\test\Pain Drain\libraries\lvgl\src\misc/lv_printf.c ****                     break;
 587:..\..\..\arduinoLCD\test\Pain Drain\libraries\lvgl\src\misc/lv_printf.c ****                 case '+':
 588:..\..\..\arduinoLCD\test\Pain Drain\libraries\lvgl\src\misc/lv_printf.c ****                     flags |= FLAGS_PLUS;
 589:..\..\..\arduinoLCD\test\Pain Drain\libraries\lvgl\src\misc/lv_printf.c ****                     format++;
 590:..\..\..\arduinoLCD\test\Pain Drain\libraries\lvgl\src\misc/lv_printf.c ****                     n = 1U;
 591:..\..\..\arduinoLCD\test\Pain Drain\libraries\lvgl\src\misc/lv_printf.c ****                     break;
 592:..\..\..\arduinoLCD\test\Pain Drain\libraries\lvgl\src\misc/lv_printf.c ****                 case ' ':
 593:..\..\..\arduinoLCD\test\Pain Drain\libraries\lvgl\src\misc/lv_printf.c ****                     flags |= FLAGS_SPACE;
 594:..\..\..\arduinoLCD\test\Pain Drain\libraries\lvgl\src\misc/lv_printf.c ****                     format++;
 595:..\..\..\arduinoLCD\test\Pain Drain\libraries\lvgl\src\misc/lv_printf.c ****                     n = 1U;
 596:..\..\..\arduinoLCD\test\Pain Drain\libraries\lvgl\src\misc/lv_printf.c ****                     break;
 597:..\..\..\arduinoLCD\test\Pain Drain\libraries\lvgl\src\misc/lv_printf.c ****                 case '#':
 598:..\..\..\arduinoLCD\test\Pain Drain\libraries\lvgl\src\misc/lv_printf.c ****                     flags |= FLAGS_HASH;
 599:..\..\..\arduinoLCD\test\Pain Drain\libraries\lvgl\src\misc/lv_printf.c ****                     format++;
 600:..\..\..\arduinoLCD\test\Pain Drain\libraries\lvgl\src\misc/lv_printf.c ****                     n = 1U;
 601:..\..\..\arduinoLCD\test\Pain Drain\libraries\lvgl\src\misc/lv_printf.c ****                     break;
 602:..\..\..\arduinoLCD\test\Pain Drain\libraries\lvgl\src\misc/lv_printf.c ****                 default :
 603:..\..\..\arduinoLCD\test\Pain Drain\libraries\lvgl\src\misc/lv_printf.c ****                     n = 0U;
ARM GAS  C:\Users\haske\AppData\Local\Temp\ccZHF2NV.s 			page 28


 604:..\..\..\arduinoLCD\test\Pain Drain\libraries\lvgl\src\misc/lv_printf.c ****                     break;
 605:..\..\..\arduinoLCD\test\Pain Drain\libraries\lvgl\src\misc/lv_printf.c ****             }
 606:..\..\..\arduinoLCD\test\Pain Drain\libraries\lvgl\src\misc/lv_printf.c ****         } while(n);
 607:..\..\..\arduinoLCD\test\Pain Drain\libraries\lvgl\src\misc/lv_printf.c **** 
 608:..\..\..\arduinoLCD\test\Pain Drain\libraries\lvgl\src\misc/lv_printf.c ****         // evaluate width field
 609:..\..\..\arduinoLCD\test\Pain Drain\libraries\lvgl\src\misc/lv_printf.c ****         width = 0U;
 610:..\..\..\arduinoLCD\test\Pain Drain\libraries\lvgl\src\misc/lv_printf.c ****         if(_is_digit(*format)) {
 611:..\..\..\arduinoLCD\test\Pain Drain\libraries\lvgl\src\misc/lv_printf.c ****             width = _atoi(&format);
 612:..\..\..\arduinoLCD\test\Pain Drain\libraries\lvgl\src\misc/lv_printf.c ****         }
 613:..\..\..\arduinoLCD\test\Pain Drain\libraries\lvgl\src\misc/lv_printf.c ****         else if(*format == '*') {
 614:..\..\..\arduinoLCD\test\Pain Drain\libraries\lvgl\src\misc/lv_printf.c ****             const int w = va_arg(va, int);
 615:..\..\..\arduinoLCD\test\Pain Drain\libraries\lvgl\src\misc/lv_printf.c ****             if(w < 0) {
 616:..\..\..\arduinoLCD\test\Pain Drain\libraries\lvgl\src\misc/lv_printf.c ****                 flags |= FLAGS_LEFT;    // reverse padding
 617:..\..\..\arduinoLCD\test\Pain Drain\libraries\lvgl\src\misc/lv_printf.c ****                 width = (unsigned int) - w;
 618:..\..\..\arduinoLCD\test\Pain Drain\libraries\lvgl\src\misc/lv_printf.c ****             }
 619:..\..\..\arduinoLCD\test\Pain Drain\libraries\lvgl\src\misc/lv_printf.c ****             else {
 620:..\..\..\arduinoLCD\test\Pain Drain\libraries\lvgl\src\misc/lv_printf.c ****                 width = (unsigned int)w;
 621:..\..\..\arduinoLCD\test\Pain Drain\libraries\lvgl\src\misc/lv_printf.c ****             }
 622:..\..\..\arduinoLCD\test\Pain Drain\libraries\lvgl\src\misc/lv_printf.c ****             format++;
 623:..\..\..\arduinoLCD\test\Pain Drain\libraries\lvgl\src\misc/lv_printf.c ****         }
 624:..\..\..\arduinoLCD\test\Pain Drain\libraries\lvgl\src\misc/lv_printf.c **** 
 625:..\..\..\arduinoLCD\test\Pain Drain\libraries\lvgl\src\misc/lv_printf.c ****         // evaluate precision field
 626:..\..\..\arduinoLCD\test\Pain Drain\libraries\lvgl\src\misc/lv_printf.c ****         precision = 0U;
 627:..\..\..\arduinoLCD\test\Pain Drain\libraries\lvgl\src\misc/lv_printf.c ****         if(*format == '.') {
 628:..\..\..\arduinoLCD\test\Pain Drain\libraries\lvgl\src\misc/lv_printf.c ****             flags |= FLAGS_PRECISION;
 629:..\..\..\arduinoLCD\test\Pain Drain\libraries\lvgl\src\misc/lv_printf.c ****             format++;
 630:..\..\..\arduinoLCD\test\Pain Drain\libraries\lvgl\src\misc/lv_printf.c ****             if(_is_digit(*format)) {
 631:..\..\..\arduinoLCD\test\Pain Drain\libraries\lvgl\src\misc/lv_printf.c ****                 precision = _atoi(&format);
 632:..\..\..\arduinoLCD\test\Pain Drain\libraries\lvgl\src\misc/lv_printf.c ****             }
 633:..\..\..\arduinoLCD\test\Pain Drain\libraries\lvgl\src\misc/lv_printf.c ****             else if(*format == '*') {
 634:..\..\..\arduinoLCD\test\Pain Drain\libraries\lvgl\src\misc/lv_printf.c ****                 const int prec = (int)va_arg(va, int);
 635:..\..\..\arduinoLCD\test\Pain Drain\libraries\lvgl\src\misc/lv_printf.c ****                 precision = prec > 0 ? (unsigned int)prec : 0U;
 636:..\..\..\arduinoLCD\test\Pain Drain\libraries\lvgl\src\misc/lv_printf.c ****                 format++;
 637:..\..\..\arduinoLCD\test\Pain Drain\libraries\lvgl\src\misc/lv_printf.c ****             }
 638:..\..\..\arduinoLCD\test\Pain Drain\libraries\lvgl\src\misc/lv_printf.c ****         }
 639:..\..\..\arduinoLCD\test\Pain Drain\libraries\lvgl\src\misc/lv_printf.c **** 
 640:..\..\..\arduinoLCD\test\Pain Drain\libraries\lvgl\src\misc/lv_printf.c ****         // evaluate length field
 641:..\..\..\arduinoLCD\test\Pain Drain\libraries\lvgl\src\misc/lv_printf.c ****         switch(*format) {
 642:..\..\..\arduinoLCD\test\Pain Drain\libraries\lvgl\src\misc/lv_printf.c ****             case 'l' :
 643:..\..\..\arduinoLCD\test\Pain Drain\libraries\lvgl\src\misc/lv_printf.c ****                 flags |= FLAGS_LONG;
 644:..\..\..\arduinoLCD\test\Pain Drain\libraries\lvgl\src\misc/lv_printf.c ****                 format++;
 645:..\..\..\arduinoLCD\test\Pain Drain\libraries\lvgl\src\misc/lv_printf.c ****                 if(*format == 'l') {
 646:..\..\..\arduinoLCD\test\Pain Drain\libraries\lvgl\src\misc/lv_printf.c ****                     flags |= FLAGS_LONG_LONG;
 647:..\..\..\arduinoLCD\test\Pain Drain\libraries\lvgl\src\misc/lv_printf.c ****                     format++;
 648:..\..\..\arduinoLCD\test\Pain Drain\libraries\lvgl\src\misc/lv_printf.c ****                 }
 649:..\..\..\arduinoLCD\test\Pain Drain\libraries\lvgl\src\misc/lv_printf.c ****                 break;
 650:..\..\..\arduinoLCD\test\Pain Drain\libraries\lvgl\src\misc/lv_printf.c ****             case 'h' :
 651:..\..\..\arduinoLCD\test\Pain Drain\libraries\lvgl\src\misc/lv_printf.c ****                 flags |= FLAGS_SHORT;
 652:..\..\..\arduinoLCD\test\Pain Drain\libraries\lvgl\src\misc/lv_printf.c ****                 format++;
 653:..\..\..\arduinoLCD\test\Pain Drain\libraries\lvgl\src\misc/lv_printf.c ****                 if(*format == 'h') {
 654:..\..\..\arduinoLCD\test\Pain Drain\libraries\lvgl\src\misc/lv_printf.c ****                     flags |= FLAGS_CHAR;
 655:..\..\..\arduinoLCD\test\Pain Drain\libraries\lvgl\src\misc/lv_printf.c ****                     format++;
 656:..\..\..\arduinoLCD\test\Pain Drain\libraries\lvgl\src\misc/lv_printf.c ****                 }
 657:..\..\..\arduinoLCD\test\Pain Drain\libraries\lvgl\src\misc/lv_printf.c ****                 break;
 658:..\..\..\arduinoLCD\test\Pain Drain\libraries\lvgl\src\misc/lv_printf.c **** #if defined(PRINTF_SUPPORT_PTRDIFF_T)
 659:..\..\..\arduinoLCD\test\Pain Drain\libraries\lvgl\src\misc/lv_printf.c ****             case 't' :
 660:..\..\..\arduinoLCD\test\Pain Drain\libraries\lvgl\src\misc/lv_printf.c ****                 flags |= (sizeof(ptrdiff_t) == sizeof(long) ? FLAGS_LONG : FLAGS_LONG_LONG);
ARM GAS  C:\Users\haske\AppData\Local\Temp\ccZHF2NV.s 			page 29


 661:..\..\..\arduinoLCD\test\Pain Drain\libraries\lvgl\src\misc/lv_printf.c ****                 format++;
 662:..\..\..\arduinoLCD\test\Pain Drain\libraries\lvgl\src\misc/lv_printf.c ****                 break;
 663:..\..\..\arduinoLCD\test\Pain Drain\libraries\lvgl\src\misc/lv_printf.c **** #endif
 664:..\..\..\arduinoLCD\test\Pain Drain\libraries\lvgl\src\misc/lv_printf.c ****             case 'j' :
 665:..\..\..\arduinoLCD\test\Pain Drain\libraries\lvgl\src\misc/lv_printf.c ****                 flags |= (sizeof(intmax_t) == sizeof(long) ? FLAGS_LONG : FLAGS_LONG_LONG);
 666:..\..\..\arduinoLCD\test\Pain Drain\libraries\lvgl\src\misc/lv_printf.c ****                 format++;
 667:..\..\..\arduinoLCD\test\Pain Drain\libraries\lvgl\src\misc/lv_printf.c ****                 break;
 668:..\..\..\arduinoLCD\test\Pain Drain\libraries\lvgl\src\misc/lv_printf.c ****             case 'z' :
 669:..\..\..\arduinoLCD\test\Pain Drain\libraries\lvgl\src\misc/lv_printf.c ****                 flags |= (sizeof(size_t) == sizeof(long) ? FLAGS_LONG : FLAGS_LONG_LONG);
 670:..\..\..\arduinoLCD\test\Pain Drain\libraries\lvgl\src\misc/lv_printf.c ****                 format++;
 671:..\..\..\arduinoLCD\test\Pain Drain\libraries\lvgl\src\misc/lv_printf.c ****                 break;
 672:..\..\..\arduinoLCD\test\Pain Drain\libraries\lvgl\src\misc/lv_printf.c ****             default :
 673:..\..\..\arduinoLCD\test\Pain Drain\libraries\lvgl\src\misc/lv_printf.c ****                 break;
 674:..\..\..\arduinoLCD\test\Pain Drain\libraries\lvgl\src\misc/lv_printf.c ****         }
 675:..\..\..\arduinoLCD\test\Pain Drain\libraries\lvgl\src\misc/lv_printf.c **** 
 676:..\..\..\arduinoLCD\test\Pain Drain\libraries\lvgl\src\misc/lv_printf.c ****         // evaluate specifier
 677:..\..\..\arduinoLCD\test\Pain Drain\libraries\lvgl\src\misc/lv_printf.c ****         switch(*format) {
 678:..\..\..\arduinoLCD\test\Pain Drain\libraries\lvgl\src\misc/lv_printf.c ****             case 'd' :
 679:..\..\..\arduinoLCD\test\Pain Drain\libraries\lvgl\src\misc/lv_printf.c ****             case 'i' :
 680:..\..\..\arduinoLCD\test\Pain Drain\libraries\lvgl\src\misc/lv_printf.c ****             case 'u' :
 681:..\..\..\arduinoLCD\test\Pain Drain\libraries\lvgl\src\misc/lv_printf.c ****             case 'x' :
 682:..\..\..\arduinoLCD\test\Pain Drain\libraries\lvgl\src\misc/lv_printf.c ****             case 'X' :
 683:..\..\..\arduinoLCD\test\Pain Drain\libraries\lvgl\src\misc/lv_printf.c ****             case 'p' :
 684:..\..\..\arduinoLCD\test\Pain Drain\libraries\lvgl\src\misc/lv_printf.c ****             case 'P' :
 685:..\..\..\arduinoLCD\test\Pain Drain\libraries\lvgl\src\misc/lv_printf.c ****             case 'o' :
 686:..\..\..\arduinoLCD\test\Pain Drain\libraries\lvgl\src\misc/lv_printf.c ****             case 'b' : {
 687:..\..\..\arduinoLCD\test\Pain Drain\libraries\lvgl\src\misc/lv_printf.c ****                     // set the base
 688:..\..\..\arduinoLCD\test\Pain Drain\libraries\lvgl\src\misc/lv_printf.c ****                     unsigned int base;
 689:..\..\..\arduinoLCD\test\Pain Drain\libraries\lvgl\src\misc/lv_printf.c ****                     if(*format == 'x' || *format == 'X') {
 690:..\..\..\arduinoLCD\test\Pain Drain\libraries\lvgl\src\misc/lv_printf.c ****                         base = 16U;
 691:..\..\..\arduinoLCD\test\Pain Drain\libraries\lvgl\src\misc/lv_printf.c ****                     }
 692:..\..\..\arduinoLCD\test\Pain Drain\libraries\lvgl\src\misc/lv_printf.c ****                     else if(*format == 'p' || *format == 'P') {
 693:..\..\..\arduinoLCD\test\Pain Drain\libraries\lvgl\src\misc/lv_printf.c ****                         base = 16U;
 694:..\..\..\arduinoLCD\test\Pain Drain\libraries\lvgl\src\misc/lv_printf.c ****                         flags |= FLAGS_HASH;   // always hash for pointer format
 695:..\..\..\arduinoLCD\test\Pain Drain\libraries\lvgl\src\misc/lv_printf.c **** #if defined(PRINTF_SUPPORT_LONG_LONG)
 696:..\..\..\arduinoLCD\test\Pain Drain\libraries\lvgl\src\misc/lv_printf.c ****                         if(sizeof(uintptr_t) == sizeof(long long))
 697:..\..\..\arduinoLCD\test\Pain Drain\libraries\lvgl\src\misc/lv_printf.c ****                             flags |= FLAGS_LONG_LONG;
 698:..\..\..\arduinoLCD\test\Pain Drain\libraries\lvgl\src\misc/lv_printf.c ****                         else
 699:..\..\..\arduinoLCD\test\Pain Drain\libraries\lvgl\src\misc/lv_printf.c **** #endif
 700:..\..\..\arduinoLCD\test\Pain Drain\libraries\lvgl\src\misc/lv_printf.c ****                             flags |= FLAGS_LONG;
 701:..\..\..\arduinoLCD\test\Pain Drain\libraries\lvgl\src\misc/lv_printf.c **** 
 702:..\..\..\arduinoLCD\test\Pain Drain\libraries\lvgl\src\misc/lv_printf.c ****                         if(*(format + 1) == 'V')
 703:..\..\..\arduinoLCD\test\Pain Drain\libraries\lvgl\src\misc/lv_printf.c ****                             format++;
 704:..\..\..\arduinoLCD\test\Pain Drain\libraries\lvgl\src\misc/lv_printf.c ****                     }
 705:..\..\..\arduinoLCD\test\Pain Drain\libraries\lvgl\src\misc/lv_printf.c ****                     else if(*format == 'o') {
 706:..\..\..\arduinoLCD\test\Pain Drain\libraries\lvgl\src\misc/lv_printf.c ****                         base =  8U;
 707:..\..\..\arduinoLCD\test\Pain Drain\libraries\lvgl\src\misc/lv_printf.c ****                     }
 708:..\..\..\arduinoLCD\test\Pain Drain\libraries\lvgl\src\misc/lv_printf.c ****                     else if(*format == 'b') {
 709:..\..\..\arduinoLCD\test\Pain Drain\libraries\lvgl\src\misc/lv_printf.c ****                         base =  2U;
 710:..\..\..\arduinoLCD\test\Pain Drain\libraries\lvgl\src\misc/lv_printf.c ****                     }
 711:..\..\..\arduinoLCD\test\Pain Drain\libraries\lvgl\src\misc/lv_printf.c ****                     else {
 712:..\..\..\arduinoLCD\test\Pain Drain\libraries\lvgl\src\misc/lv_printf.c ****                         base = 10U;
 713:..\..\..\arduinoLCD\test\Pain Drain\libraries\lvgl\src\misc/lv_printf.c ****                         flags &= ~FLAGS_HASH;   // no hash for dec format
 714:..\..\..\arduinoLCD\test\Pain Drain\libraries\lvgl\src\misc/lv_printf.c ****                     }
 715:..\..\..\arduinoLCD\test\Pain Drain\libraries\lvgl\src\misc/lv_printf.c ****                     // uppercase
 716:..\..\..\arduinoLCD\test\Pain Drain\libraries\lvgl\src\misc/lv_printf.c ****                     if(*format == 'X' || *format == 'P') {
 717:..\..\..\arduinoLCD\test\Pain Drain\libraries\lvgl\src\misc/lv_printf.c ****                         flags |= FLAGS_UPPERCASE;
ARM GAS  C:\Users\haske\AppData\Local\Temp\ccZHF2NV.s 			page 30


 718:..\..\..\arduinoLCD\test\Pain Drain\libraries\lvgl\src\misc/lv_printf.c ****                     }
 719:..\..\..\arduinoLCD\test\Pain Drain\libraries\lvgl\src\misc/lv_printf.c **** 
 720:..\..\..\arduinoLCD\test\Pain Drain\libraries\lvgl\src\misc/lv_printf.c ****                     // no plus or space flag for u, x, X, o, b
 721:..\..\..\arduinoLCD\test\Pain Drain\libraries\lvgl\src\misc/lv_printf.c ****                     if((*format != 'i') && (*format != 'd')) {
 722:..\..\..\arduinoLCD\test\Pain Drain\libraries\lvgl\src\misc/lv_printf.c ****                         flags &= ~(FLAGS_PLUS | FLAGS_SPACE);
 723:..\..\..\arduinoLCD\test\Pain Drain\libraries\lvgl\src\misc/lv_printf.c ****                     }
 724:..\..\..\arduinoLCD\test\Pain Drain\libraries\lvgl\src\misc/lv_printf.c **** 
 725:..\..\..\arduinoLCD\test\Pain Drain\libraries\lvgl\src\misc/lv_printf.c ****                     // ignore '0' flag when precision is given
 726:..\..\..\arduinoLCD\test\Pain Drain\libraries\lvgl\src\misc/lv_printf.c ****                     if(flags & FLAGS_PRECISION) {
 727:..\..\..\arduinoLCD\test\Pain Drain\libraries\lvgl\src\misc/lv_printf.c ****                         flags &= ~FLAGS_ZEROPAD;
 728:..\..\..\arduinoLCD\test\Pain Drain\libraries\lvgl\src\misc/lv_printf.c ****                     }
 729:..\..\..\arduinoLCD\test\Pain Drain\libraries\lvgl\src\misc/lv_printf.c **** 
 730:..\..\..\arduinoLCD\test\Pain Drain\libraries\lvgl\src\misc/lv_printf.c ****                     // convert the integer
 731:..\..\..\arduinoLCD\test\Pain Drain\libraries\lvgl\src\misc/lv_printf.c ****                     if((*format == 'i') || (*format == 'd')) {
 732:..\..\..\arduinoLCD\test\Pain Drain\libraries\lvgl\src\misc/lv_printf.c ****                         // signed
 733:..\..\..\arduinoLCD\test\Pain Drain\libraries\lvgl\src\misc/lv_printf.c ****                         if(flags & FLAGS_LONG_LONG) {
 734:..\..\..\arduinoLCD\test\Pain Drain\libraries\lvgl\src\misc/lv_printf.c **** #if defined(PRINTF_SUPPORT_LONG_LONG)
 735:..\..\..\arduinoLCD\test\Pain Drain\libraries\lvgl\src\misc/lv_printf.c ****                             const long long value = va_arg(va, long long);
 736:..\..\..\arduinoLCD\test\Pain Drain\libraries\lvgl\src\misc/lv_printf.c ****                             idx = _ntoa_long_long(out, buffer, idx, maxlen, (unsigned long long)(va
 737:..\..\..\arduinoLCD\test\Pain Drain\libraries\lvgl\src\misc/lv_printf.c ****                                                   precision, width, flags);
 738:..\..\..\arduinoLCD\test\Pain Drain\libraries\lvgl\src\misc/lv_printf.c **** #endif
 739:..\..\..\arduinoLCD\test\Pain Drain\libraries\lvgl\src\misc/lv_printf.c ****                         }
 740:..\..\..\arduinoLCD\test\Pain Drain\libraries\lvgl\src\misc/lv_printf.c ****                         else if(flags & FLAGS_LONG) {
 741:..\..\..\arduinoLCD\test\Pain Drain\libraries\lvgl\src\misc/lv_printf.c ****                             const long value = va_arg(va, long);
 742:..\..\..\arduinoLCD\test\Pain Drain\libraries\lvgl\src\misc/lv_printf.c ****                             idx = _ntoa_long(out, buffer, idx, maxlen, (unsigned long)(value > 0 ? 
 743:..\..\..\arduinoLCD\test\Pain Drain\libraries\lvgl\src\misc/lv_printf.c ****                                              width, flags);
 744:..\..\..\arduinoLCD\test\Pain Drain\libraries\lvgl\src\misc/lv_printf.c ****                         }
 745:..\..\..\arduinoLCD\test\Pain Drain\libraries\lvgl\src\misc/lv_printf.c ****                         else {
 746:..\..\..\arduinoLCD\test\Pain Drain\libraries\lvgl\src\misc/lv_printf.c ****                             const int value = (flags & FLAGS_CHAR) ? (char)va_arg(va, int) : (flags
 747:..\..\..\arduinoLCD\test\Pain Drain\libraries\lvgl\src\misc/lv_printf.c ****                                                                                                    
 748:..\..\..\arduinoLCD\test\Pain Drain\libraries\lvgl\src\misc/lv_printf.c ****                             idx = _ntoa_long(out, buffer, idx, maxlen, (unsigned int)(value > 0 ? v
 749:..\..\..\arduinoLCD\test\Pain Drain\libraries\lvgl\src\misc/lv_printf.c ****                                              width, flags);
 750:..\..\..\arduinoLCD\test\Pain Drain\libraries\lvgl\src\misc/lv_printf.c ****                         }
 751:..\..\..\arduinoLCD\test\Pain Drain\libraries\lvgl\src\misc/lv_printf.c ****                     }
 752:..\..\..\arduinoLCD\test\Pain Drain\libraries\lvgl\src\misc/lv_printf.c ****                     else if(*format == 'V') {
 753:..\..\..\arduinoLCD\test\Pain Drain\libraries\lvgl\src\misc/lv_printf.c ****                         lv_vaformat_t * vaf = va_arg(va, lv_vaformat_t *);
 754:..\..\..\arduinoLCD\test\Pain Drain\libraries\lvgl\src\misc/lv_printf.c ****                         va_list copy;
 755:..\..\..\arduinoLCD\test\Pain Drain\libraries\lvgl\src\misc/lv_printf.c **** 
 756:..\..\..\arduinoLCD\test\Pain Drain\libraries\lvgl\src\misc/lv_printf.c ****                         va_copy(copy, *vaf->va);
 757:..\..\..\arduinoLCD\test\Pain Drain\libraries\lvgl\src\misc/lv_printf.c ****                         idx += _vsnprintf(out, buffer + idx, maxlen - idx, vaf->fmt, copy);
 758:..\..\..\arduinoLCD\test\Pain Drain\libraries\lvgl\src\misc/lv_printf.c ****                         va_end(copy);
 759:..\..\..\arduinoLCD\test\Pain Drain\libraries\lvgl\src\misc/lv_printf.c ****                     }
 760:..\..\..\arduinoLCD\test\Pain Drain\libraries\lvgl\src\misc/lv_printf.c ****                     else {
 761:..\..\..\arduinoLCD\test\Pain Drain\libraries\lvgl\src\misc/lv_printf.c ****                         // unsigned
 762:..\..\..\arduinoLCD\test\Pain Drain\libraries\lvgl\src\misc/lv_printf.c ****                         if(flags & FLAGS_LONG_LONG) {
 763:..\..\..\arduinoLCD\test\Pain Drain\libraries\lvgl\src\misc/lv_printf.c **** #if defined(PRINTF_SUPPORT_LONG_LONG)
 764:..\..\..\arduinoLCD\test\Pain Drain\libraries\lvgl\src\misc/lv_printf.c ****                             idx = _ntoa_long_long(out, buffer, idx, maxlen, va_arg(va, unsigned lon
 765:..\..\..\arduinoLCD\test\Pain Drain\libraries\lvgl\src\misc/lv_printf.c **** #endif
 766:..\..\..\arduinoLCD\test\Pain Drain\libraries\lvgl\src\misc/lv_printf.c ****                         }
 767:..\..\..\arduinoLCD\test\Pain Drain\libraries\lvgl\src\misc/lv_printf.c ****                         else if(flags & FLAGS_LONG) {
 768:..\..\..\arduinoLCD\test\Pain Drain\libraries\lvgl\src\misc/lv_printf.c ****                             idx = _ntoa_long(out, buffer, idx, maxlen, va_arg(va, unsigned long), f
 769:..\..\..\arduinoLCD\test\Pain Drain\libraries\lvgl\src\misc/lv_printf.c ****                         }
 770:..\..\..\arduinoLCD\test\Pain Drain\libraries\lvgl\src\misc/lv_printf.c ****                         else {
 771:..\..\..\arduinoLCD\test\Pain Drain\libraries\lvgl\src\misc/lv_printf.c ****                             const unsigned int value = (flags & FLAGS_CHAR) ? (unsigned char)va_arg
 772:..\..\..\arduinoLCD\test\Pain Drain\libraries\lvgl\src\misc/lv_printf.c ****                                                                                                    
 773:..\..\..\arduinoLCD\test\Pain Drain\libraries\lvgl\src\misc/lv_printf.c ****                             idx = _ntoa_long(out, buffer, idx, maxlen, value, false, base, precisio
 774:..\..\..\arduinoLCD\test\Pain Drain\libraries\lvgl\src\misc/lv_printf.c ****                         }
ARM GAS  C:\Users\haske\AppData\Local\Temp\ccZHF2NV.s 			page 31


 775:..\..\..\arduinoLCD\test\Pain Drain\libraries\lvgl\src\misc/lv_printf.c ****                     }
 776:..\..\..\arduinoLCD\test\Pain Drain\libraries\lvgl\src\misc/lv_printf.c ****                     format++;
 777:..\..\..\arduinoLCD\test\Pain Drain\libraries\lvgl\src\misc/lv_printf.c ****                     break;
 778:..\..\..\arduinoLCD\test\Pain Drain\libraries\lvgl\src\misc/lv_printf.c ****                 }
 779:..\..\..\arduinoLCD\test\Pain Drain\libraries\lvgl\src\misc/lv_printf.c **** #if defined(PRINTF_SUPPORT_FLOAT)
 780:..\..\..\arduinoLCD\test\Pain Drain\libraries\lvgl\src\misc/lv_printf.c ****             case 'f' :
 781:..\..\..\arduinoLCD\test\Pain Drain\libraries\lvgl\src\misc/lv_printf.c ****             case 'F' :
 782:..\..\..\arduinoLCD\test\Pain Drain\libraries\lvgl\src\misc/lv_printf.c ****                 if(*format == 'F') flags |= FLAGS_UPPERCASE;
 783:..\..\..\arduinoLCD\test\Pain Drain\libraries\lvgl\src\misc/lv_printf.c ****                 idx = _ftoa(out, buffer, idx, maxlen, va_arg(va, double), precision, width, flags);
 784:..\..\..\arduinoLCD\test\Pain Drain\libraries\lvgl\src\misc/lv_printf.c ****                 format++;
 785:..\..\..\arduinoLCD\test\Pain Drain\libraries\lvgl\src\misc/lv_printf.c ****                 break;
 786:..\..\..\arduinoLCD\test\Pain Drain\libraries\lvgl\src\misc/lv_printf.c **** #if defined(PRINTF_SUPPORT_EXPONENTIAL)
 787:..\..\..\arduinoLCD\test\Pain Drain\libraries\lvgl\src\misc/lv_printf.c ****             case 'e':
 788:..\..\..\arduinoLCD\test\Pain Drain\libraries\lvgl\src\misc/lv_printf.c ****             case 'E':
 789:..\..\..\arduinoLCD\test\Pain Drain\libraries\lvgl\src\misc/lv_printf.c ****             case 'g':
 790:..\..\..\arduinoLCD\test\Pain Drain\libraries\lvgl\src\misc/lv_printf.c ****             case 'G':
 791:..\..\..\arduinoLCD\test\Pain Drain\libraries\lvgl\src\misc/lv_printf.c ****                 if((*format == 'g') || (*format == 'G')) flags |= FLAGS_ADAPT_EXP;
 792:..\..\..\arduinoLCD\test\Pain Drain\libraries\lvgl\src\misc/lv_printf.c ****                 if((*format == 'E') || (*format == 'G')) flags |= FLAGS_UPPERCASE;
 793:..\..\..\arduinoLCD\test\Pain Drain\libraries\lvgl\src\misc/lv_printf.c ****                 idx = _etoa(out, buffer, idx, maxlen, va_arg(va, double), precision, width, flags);
 794:..\..\..\arduinoLCD\test\Pain Drain\libraries\lvgl\src\misc/lv_printf.c ****                 format++;
 795:..\..\..\arduinoLCD\test\Pain Drain\libraries\lvgl\src\misc/lv_printf.c ****                 break;
 796:..\..\..\arduinoLCD\test\Pain Drain\libraries\lvgl\src\misc/lv_printf.c **** #endif  // PRINTF_SUPPORT_EXPONENTIAL
 797:..\..\..\arduinoLCD\test\Pain Drain\libraries\lvgl\src\misc/lv_printf.c **** #endif  // PRINTF_SUPPORT_FLOAT
 798:..\..\..\arduinoLCD\test\Pain Drain\libraries\lvgl\src\misc/lv_printf.c ****             case 'c' : {
 799:..\..\..\arduinoLCD\test\Pain Drain\libraries\lvgl\src\misc/lv_printf.c ****                     unsigned int l = 1U;
 800:..\..\..\arduinoLCD\test\Pain Drain\libraries\lvgl\src\misc/lv_printf.c ****                     // pre padding
 801:..\..\..\arduinoLCD\test\Pain Drain\libraries\lvgl\src\misc/lv_printf.c ****                     if(!(flags & FLAGS_LEFT)) {
 802:..\..\..\arduinoLCD\test\Pain Drain\libraries\lvgl\src\misc/lv_printf.c ****                         while(l++ < width) {
 803:..\..\..\arduinoLCD\test\Pain Drain\libraries\lvgl\src\misc/lv_printf.c ****                             out(' ', buffer, idx++, maxlen);
 804:..\..\..\arduinoLCD\test\Pain Drain\libraries\lvgl\src\misc/lv_printf.c ****                         }
 805:..\..\..\arduinoLCD\test\Pain Drain\libraries\lvgl\src\misc/lv_printf.c ****                     }
 806:..\..\..\arduinoLCD\test\Pain Drain\libraries\lvgl\src\misc/lv_printf.c ****                     // char output
 807:..\..\..\arduinoLCD\test\Pain Drain\libraries\lvgl\src\misc/lv_printf.c ****                     out((char)va_arg(va, int), buffer, idx++, maxlen);
 808:..\..\..\arduinoLCD\test\Pain Drain\libraries\lvgl\src\misc/lv_printf.c ****                     // post padding
 809:..\..\..\arduinoLCD\test\Pain Drain\libraries\lvgl\src\misc/lv_printf.c ****                     if(flags & FLAGS_LEFT) {
 810:..\..\..\arduinoLCD\test\Pain Drain\libraries\lvgl\src\misc/lv_printf.c ****                         while(l++ < width) {
 811:..\..\..\arduinoLCD\test\Pain Drain\libraries\lvgl\src\misc/lv_printf.c ****                             out(' ', buffer, idx++, maxlen);
 812:..\..\..\arduinoLCD\test\Pain Drain\libraries\lvgl\src\misc/lv_printf.c ****                         }
 813:..\..\..\arduinoLCD\test\Pain Drain\libraries\lvgl\src\misc/lv_printf.c ****                     }
 814:..\..\..\arduinoLCD\test\Pain Drain\libraries\lvgl\src\misc/lv_printf.c ****                     format++;
 815:..\..\..\arduinoLCD\test\Pain Drain\libraries\lvgl\src\misc/lv_printf.c ****                     break;
 816:..\..\..\arduinoLCD\test\Pain Drain\libraries\lvgl\src\misc/lv_printf.c ****                 }
 817:..\..\..\arduinoLCD\test\Pain Drain\libraries\lvgl\src\misc/lv_printf.c **** 
 818:..\..\..\arduinoLCD\test\Pain Drain\libraries\lvgl\src\misc/lv_printf.c ****             case 's' : {
 819:..\..\..\arduinoLCD\test\Pain Drain\libraries\lvgl\src\misc/lv_printf.c ****                     const char * p = va_arg(va, char *);
 820:..\..\..\arduinoLCD\test\Pain Drain\libraries\lvgl\src\misc/lv_printf.c ****                     unsigned int l = _strnlen_s(p, precision ? precision : (size_t) -1);
 821:..\..\..\arduinoLCD\test\Pain Drain\libraries\lvgl\src\misc/lv_printf.c ****                     // pre padding
 822:..\..\..\arduinoLCD\test\Pain Drain\libraries\lvgl\src\misc/lv_printf.c ****                     if(flags & FLAGS_PRECISION) {
 823:..\..\..\arduinoLCD\test\Pain Drain\libraries\lvgl\src\misc/lv_printf.c ****                         l = (l < precision ? l : precision);
 824:..\..\..\arduinoLCD\test\Pain Drain\libraries\lvgl\src\misc/lv_printf.c ****                     }
 825:..\..\..\arduinoLCD\test\Pain Drain\libraries\lvgl\src\misc/lv_printf.c ****                     if(!(flags & FLAGS_LEFT)) {
 826:..\..\..\arduinoLCD\test\Pain Drain\libraries\lvgl\src\misc/lv_printf.c ****                         while(l++ < width) {
 827:..\..\..\arduinoLCD\test\Pain Drain\libraries\lvgl\src\misc/lv_printf.c ****                             out(' ', buffer, idx++, maxlen);
 828:..\..\..\arduinoLCD\test\Pain Drain\libraries\lvgl\src\misc/lv_printf.c ****                         }
 829:..\..\..\arduinoLCD\test\Pain Drain\libraries\lvgl\src\misc/lv_printf.c ****                     }
 830:..\..\..\arduinoLCD\test\Pain Drain\libraries\lvgl\src\misc/lv_printf.c ****                     // string output
 831:..\..\..\arduinoLCD\test\Pain Drain\libraries\lvgl\src\misc/lv_printf.c ****                     while((*p != 0) && (!(flags & FLAGS_PRECISION) || precision--)) {
ARM GAS  C:\Users\haske\AppData\Local\Temp\ccZHF2NV.s 			page 32


 832:..\..\..\arduinoLCD\test\Pain Drain\libraries\lvgl\src\misc/lv_printf.c ****                         out(*(p++), buffer, idx++, maxlen);
 833:..\..\..\arduinoLCD\test\Pain Drain\libraries\lvgl\src\misc/lv_printf.c ****                     }
 834:..\..\..\arduinoLCD\test\Pain Drain\libraries\lvgl\src\misc/lv_printf.c ****                     // post padding
 835:..\..\..\arduinoLCD\test\Pain Drain\libraries\lvgl\src\misc/lv_printf.c ****                     if(flags & FLAGS_LEFT) {
 836:..\..\..\arduinoLCD\test\Pain Drain\libraries\lvgl\src\misc/lv_printf.c ****                         while(l++ < width) {
 837:..\..\..\arduinoLCD\test\Pain Drain\libraries\lvgl\src\misc/lv_printf.c ****                             out(' ', buffer, idx++, maxlen);
 838:..\..\..\arduinoLCD\test\Pain Drain\libraries\lvgl\src\misc/lv_printf.c ****                         }
 839:..\..\..\arduinoLCD\test\Pain Drain\libraries\lvgl\src\misc/lv_printf.c ****                     }
 840:..\..\..\arduinoLCD\test\Pain Drain\libraries\lvgl\src\misc/lv_printf.c ****                     format++;
 841:..\..\..\arduinoLCD\test\Pain Drain\libraries\lvgl\src\misc/lv_printf.c ****                     break;
 842:..\..\..\arduinoLCD\test\Pain Drain\libraries\lvgl\src\misc/lv_printf.c ****                 }
 843:..\..\..\arduinoLCD\test\Pain Drain\libraries\lvgl\src\misc/lv_printf.c **** 
 844:..\..\..\arduinoLCD\test\Pain Drain\libraries\lvgl\src\misc/lv_printf.c ****             case '%' :
 845:..\..\..\arduinoLCD\test\Pain Drain\libraries\lvgl\src\misc/lv_printf.c ****                 out('%', buffer, idx++, maxlen);
 920              		.loc 1 845 0
 921 001e 0027     		movs	r7, #0
 922 0020 5D46     		mov	r5, fp
 923 0022 B2E2     		b	.L62
 924              	.LVL120:
 925              	.L135:
 562:..\..\..\arduinoLCD\test\Pain Drain\libraries\lvgl\src\misc/lv_printf.c ****             // no
 926              		.loc 1 562 0
 927 0024 2528     		cmp	r0, #37
 928 0026 09D0     		beq	.L63
 564:..\..\..\arduinoLCD\test\Pain Drain\libraries\lvgl\src\misc/lv_printf.c ****             format++;
 929              		.loc 1 564 0
 930 0028 7C1C     		adds	r4, r7, #1
 931              	.LVL121:
 932 002a 0B9B     		ldr	r3, [sp, #44]
 933 002c 3A00     		movs	r2, r7
 934 002e 0C99     		ldr	r1, [sp, #48]
 935 0030 A847     		blx	r5
 936              	.LVL122:
 565:..\..\..\arduinoLCD\test\Pain Drain\libraries\lvgl\src\misc/lv_printf.c ****             continue;
 937              		.loc 1 565 0
 938 0032 139B     		ldr	r3, [sp, #76]
 939 0034 0133     		adds	r3, r3, #1
 940 0036 1393     		str	r3, [sp, #76]
 564:..\..\..\arduinoLCD\test\Pain Drain\libraries\lvgl\src\misc/lv_printf.c ****             format++;
 941              		.loc 1 564 0
 942 0038 2700     		movs	r7, r4
 566:..\..\..\arduinoLCD\test\Pain Drain\libraries\lvgl\src\misc/lv_printf.c ****         }
 943              		.loc 1 566 0
 944 003a A6E2     		b	.L62
 945              	.LVL123:
 946              	.L63:
 570:..\..\..\arduinoLCD\test\Pain Drain\libraries\lvgl\src\misc/lv_printf.c ****         }
 947              		.loc 1 570 0
 948 003c 0133     		adds	r3, r3, #1
 949 003e 1393     		str	r3, [sp, #76]
 950              	.LVL124:
 574:..\..\..\arduinoLCD\test\Pain Drain\libraries\lvgl\src\misc/lv_printf.c ****         do {
 951              		.loc 1 574 0
 952 0040 0026     		movs	r6, #0
 953              	.LVL125:
 954              	.L72:
 576:..\..\..\arduinoLCD\test\Pain Drain\libraries\lvgl\src\misc/lv_printf.c ****                 case '0':
ARM GAS  C:\Users\haske\AppData\Local\Temp\ccZHF2NV.s 			page 33


 955              		.loc 1 576 0
 956 0042 139A     		ldr	r2, [sp, #76]
 957 0044 1378     		ldrb	r3, [r2]
 958 0046 203B     		subs	r3, r3, #32
 959 0048 D9B2     		uxtb	r1, r3
 960 004a 1029     		cmp	r1, #16
 961 004c 20D8     		bhi	.L138
 962 004e 8B00     		lsls	r3, r1, #2
 963 0050 BD49     		ldr	r1, .L156+4
 964 0052 CB58     		ldr	r3, [r1, r3]
 965 0054 9F46     		mov	pc, r3
 966              		.section	.rodata
 967              		.align	2
 968              	.L67:
 969 0000 78000000 		.word	.L66
 970 0004 90000000 		.word	.L138
 971 0008 90000000 		.word	.L138
 972 000c 84000000 		.word	.L68
 973 0010 90000000 		.word	.L138
 974 0014 90000000 		.word	.L138
 975 0018 90000000 		.word	.L138
 976 001c 90000000 		.word	.L138
 977 0020 90000000 		.word	.L138
 978 0024 90000000 		.word	.L138
 979 0028 90000000 		.word	.L138
 980 002c 6C000000 		.word	.L69
 981 0030 90000000 		.word	.L138
 982 0034 60000000 		.word	.L70
 983 0038 90000000 		.word	.L138
 984 003c 90000000 		.word	.L138
 985 0040 56000000 		.word	.L71
 986              		.section	.text._vsnprintf
 987              	.L71:
 578:..\..\..\arduinoLCD\test\Pain Drain\libraries\lvgl\src\misc/lv_printf.c ****                     format++;
 988              		.loc 1 578 0
 989 0056 0123     		movs	r3, #1
 990 0058 1E43     		orrs	r6, r3
 991              	.LVL126:
 579:..\..\..\arduinoLCD\test\Pain Drain\libraries\lvgl\src\misc/lv_printf.c ****                     n = 1U;
 992              		.loc 1 579 0
 993 005a 0132     		adds	r2, r2, #1
 994 005c 1392     		str	r2, [sp, #76]
 995              	.LVL127:
 581:..\..\..\arduinoLCD\test\Pain Drain\libraries\lvgl\src\misc/lv_printf.c ****                 case '-':
 996              		.loc 1 581 0
 997 005e 18E0     		b	.L65
 998              	.LVL128:
 999              	.L70:
 583:..\..\..\arduinoLCD\test\Pain Drain\libraries\lvgl\src\misc/lv_printf.c ****                     format++;
 1000              		.loc 1 583 0
 1001 0060 0223     		movs	r3, #2
 1002 0062 1E43     		orrs	r6, r3
 1003              	.LVL129:
 584:..\..\..\arduinoLCD\test\Pain Drain\libraries\lvgl\src\misc/lv_printf.c ****                     n = 1U;
 1004              		.loc 1 584 0
 1005 0064 0132     		adds	r2, r2, #1
 1006 0066 1392     		str	r2, [sp, #76]
ARM GAS  C:\Users\haske\AppData\Local\Temp\ccZHF2NV.s 			page 34


 1007              	.LVL130:
 585:..\..\..\arduinoLCD\test\Pain Drain\libraries\lvgl\src\misc/lv_printf.c ****                     break;
 1008              		.loc 1 585 0
 1009 0068 013B     		subs	r3, r3, #1
 586:..\..\..\arduinoLCD\test\Pain Drain\libraries\lvgl\src\misc/lv_printf.c ****                 case '+':
 1010              		.loc 1 586 0
 1011 006a 12E0     		b	.L65
 1012              	.LVL131:
 1013              	.L69:
 588:..\..\..\arduinoLCD\test\Pain Drain\libraries\lvgl\src\misc/lv_printf.c ****                     format++;
 1014              		.loc 1 588 0
 1015 006c 0423     		movs	r3, #4
 1016 006e 1E43     		orrs	r6, r3
 1017              	.LVL132:
 589:..\..\..\arduinoLCD\test\Pain Drain\libraries\lvgl\src\misc/lv_printf.c ****                     n = 1U;
 1018              		.loc 1 589 0
 1019 0070 0132     		adds	r2, r2, #1
 1020 0072 1392     		str	r2, [sp, #76]
 1021              	.LVL133:
 590:..\..\..\arduinoLCD\test\Pain Drain\libraries\lvgl\src\misc/lv_printf.c ****                     break;
 1022              		.loc 1 590 0
 1023 0074 033B     		subs	r3, r3, #3
 591:..\..\..\arduinoLCD\test\Pain Drain\libraries\lvgl\src\misc/lv_printf.c ****                 case ' ':
 1024              		.loc 1 591 0
 1025 0076 0CE0     		b	.L65
 1026              	.LVL134:
 1027              	.L66:
 593:..\..\..\arduinoLCD\test\Pain Drain\libraries\lvgl\src\misc/lv_printf.c ****                     format++;
 1028              		.loc 1 593 0
 1029 0078 0823     		movs	r3, #8
 1030 007a 1E43     		orrs	r6, r3
 1031              	.LVL135:
 594:..\..\..\arduinoLCD\test\Pain Drain\libraries\lvgl\src\misc/lv_printf.c ****                     n = 1U;
 1032              		.loc 1 594 0
 1033 007c 0132     		adds	r2, r2, #1
 1034 007e 1392     		str	r2, [sp, #76]
 1035              	.LVL136:
 595:..\..\..\arduinoLCD\test\Pain Drain\libraries\lvgl\src\misc/lv_printf.c ****                     break;
 1036              		.loc 1 595 0
 1037 0080 073B     		subs	r3, r3, #7
 596:..\..\..\arduinoLCD\test\Pain Drain\libraries\lvgl\src\misc/lv_printf.c ****                 case '#':
 1038              		.loc 1 596 0
 1039 0082 06E0     		b	.L65
 1040              	.LVL137:
 1041              	.L68:
 598:..\..\..\arduinoLCD\test\Pain Drain\libraries\lvgl\src\misc/lv_printf.c ****                     format++;
 1042              		.loc 1 598 0
 1043 0084 1023     		movs	r3, #16
 1044 0086 1E43     		orrs	r6, r3
 1045              	.LVL138:
 599:..\..\..\arduinoLCD\test\Pain Drain\libraries\lvgl\src\misc/lv_printf.c ****                     n = 1U;
 1046              		.loc 1 599 0
 1047 0088 0132     		adds	r2, r2, #1
 1048 008a 1392     		str	r2, [sp, #76]
 1049              	.LVL139:
 600:..\..\..\arduinoLCD\test\Pain Drain\libraries\lvgl\src\misc/lv_printf.c ****                     break;
 1050              		.loc 1 600 0
ARM GAS  C:\Users\haske\AppData\Local\Temp\ccZHF2NV.s 			page 35


 1051 008c 0F3B     		subs	r3, r3, #15
 601:..\..\..\arduinoLCD\test\Pain Drain\libraries\lvgl\src\misc/lv_printf.c ****                 default :
 1052              		.loc 1 601 0
 1053 008e 00E0     		b	.L65
 1054              	.LVL140:
 1055              	.L138:
 603:..\..\..\arduinoLCD\test\Pain Drain\libraries\lvgl\src\misc/lv_printf.c ****                     break;
 1056              		.loc 1 603 0
 1057 0090 0023     		movs	r3, #0
 1058              	.L65:
 1059              	.LVL141:
 606:..\..\..\arduinoLCD\test\Pain Drain\libraries\lvgl\src\misc/lv_printf.c **** 
 1060              		.loc 1 606 0
 1061 0092 002B     		cmp	r3, #0
 1062 0094 D5D1     		bne	.L72
 1063              	.LVL142:
 610:..\..\..\arduinoLCD\test\Pain Drain\libraries\lvgl\src\misc/lv_printf.c ****             width = _atoi(&format);
 1064              		.loc 1 610 0
 1065 0096 1399     		ldr	r1, [sp, #76]
 1066 0098 0A78     		ldrb	r2, [r1]
 1067              	.LVL143:
 1068              	.LBB28:
 1069              	.LBB29:
 154:..\..\..\arduinoLCD\test\Pain Drain\libraries\lvgl\src\misc/lv_printf.c **** }
 1070              		.loc 1 154 0
 1071 009a 1300     		movs	r3, r2
 1072              	.LVL144:
 1073 009c 303B     		subs	r3, r3, #48
 1074 009e DBB2     		uxtb	r3, r3
 1075              	.LVL145:
 1076              	.LBE29:
 1077              	.LBE28:
 610:..\..\..\arduinoLCD\test\Pain Drain\libraries\lvgl\src\misc/lv_printf.c ****             width = _atoi(&format);
 1078              		.loc 1 610 0
 1079 00a0 092B     		cmp	r3, #9
 1080 00a2 04D8     		bhi	.L73
 611:..\..\..\arduinoLCD\test\Pain Drain\libraries\lvgl\src\misc/lv_printf.c ****         }
 1081              		.loc 1 611 0
 1082 00a4 13A8     		add	r0, sp, #76
 1083 00a6 FFF7FEFF 		bl	_atoi
 1084              	.LVL146:
 1085 00aa 8346     		mov	fp, r0
 1086              	.LVL147:
 1087 00ac 13E0     		b	.L74
 1088              	.LVL148:
 1089              	.L73:
 613:..\..\..\arduinoLCD\test\Pain Drain\libraries\lvgl\src\misc/lv_printf.c ****             const int w = va_arg(va, int);
 1090              		.loc 1 613 0
 1091 00ae 2A2A     		cmp	r2, #42
 1092 00b0 0FD1     		bne	.L139
 1093              	.LBB30:
 614:..\..\..\arduinoLCD\test\Pain Drain\libraries\lvgl\src\misc/lv_printf.c ****             if(w < 0) {
 1094              		.loc 1 614 0
 1095 00b2 209B     		ldr	r3, [sp, #128]
 1096 00b4 1B68     		ldr	r3, [r3]
 1097 00b6 209A     		ldr	r2, [sp, #128]
 1098 00b8 0432     		adds	r2, r2, #4
ARM GAS  C:\Users\haske\AppData\Local\Temp\ccZHF2NV.s 			page 36


 1099 00ba 2092     		str	r2, [sp, #128]
 1100              	.LVL149:
 615:..\..\..\arduinoLCD\test\Pain Drain\libraries\lvgl\src\misc/lv_printf.c ****                 flags |= FLAGS_LEFT;    // reverse padding
 1101              		.loc 1 615 0
 1102 00bc 002B     		cmp	r3, #0
 1103 00be 04DA     		bge	.L75
 616:..\..\..\arduinoLCD\test\Pain Drain\libraries\lvgl\src\misc/lv_printf.c ****                 width = (unsigned int) - w;
 1104              		.loc 1 616 0
 1105 00c0 0222     		movs	r2, #2
 1106 00c2 1643     		orrs	r6, r2
 1107              	.LVL150:
 617:..\..\..\arduinoLCD\test\Pain Drain\libraries\lvgl\src\misc/lv_printf.c ****             }
 1108              		.loc 1 617 0
 1109 00c4 5B42     		rsbs	r3, r3, #0
 1110              	.LVL151:
 1111 00c6 9B46     		mov	fp, r3
 1112              	.LVL152:
 1113 00c8 00E0     		b	.L76
 1114              	.LVL153:
 1115              	.L75:
 620:..\..\..\arduinoLCD\test\Pain Drain\libraries\lvgl\src\misc/lv_printf.c ****             }
 1116              		.loc 1 620 0
 1117 00ca 9B46     		mov	fp, r3
 1118              	.LVL154:
 1119              	.L76:
 622:..\..\..\arduinoLCD\test\Pain Drain\libraries\lvgl\src\misc/lv_printf.c ****         }
 1120              		.loc 1 622 0
 1121 00cc 0131     		adds	r1, r1, #1
 1122 00ce 1391     		str	r1, [sp, #76]
 1123              	.LVL155:
 1124 00d0 01E0     		b	.L74
 1125              	.LVL156:
 1126              	.L139:
 1127              	.LBE30:
 609:..\..\..\arduinoLCD\test\Pain Drain\libraries\lvgl\src\misc/lv_printf.c ****         if(_is_digit(*format)) {
 1128              		.loc 1 609 0
 1129 00d2 0023     		movs	r3, #0
 1130 00d4 9B46     		mov	fp, r3
 1131              	.LVL157:
 1132              	.L74:
 627:..\..\..\arduinoLCD\test\Pain Drain\libraries\lvgl\src\misc/lv_printf.c ****             flags |= FLAGS_PRECISION;
 1133              		.loc 1 627 0
 1134 00d6 139B     		ldr	r3, [sp, #76]
 1135 00d8 1A78     		ldrb	r2, [r3]
 1136 00da 2E2A     		cmp	r2, #46
 1137 00dc 1DD1     		bne	.L140
 628:..\..\..\arduinoLCD\test\Pain Drain\libraries\lvgl\src\misc/lv_printf.c ****             format++;
 1138              		.loc 1 628 0
 1139 00de 8022     		movs	r2, #128
 1140 00e0 D200     		lsls	r2, r2, #3
 1141 00e2 1643     		orrs	r6, r2
 1142              	.LVL158:
 629:..\..\..\arduinoLCD\test\Pain Drain\libraries\lvgl\src\misc/lv_printf.c ****             if(_is_digit(*format)) {
 1143              		.loc 1 629 0
 1144 00e4 591C     		adds	r1, r3, #1
 1145 00e6 1391     		str	r1, [sp, #76]
 630:..\..\..\arduinoLCD\test\Pain Drain\libraries\lvgl\src\misc/lv_printf.c ****                 precision = _atoi(&format);
ARM GAS  C:\Users\haske\AppData\Local\Temp\ccZHF2NV.s 			page 37


 1146              		.loc 1 630 0
 1147 00e8 5A78     		ldrb	r2, [r3, #1]
 1148              	.LVL159:
 1149              	.LBB31:
 1150              	.LBB32:
 154:..\..\..\arduinoLCD\test\Pain Drain\libraries\lvgl\src\misc/lv_printf.c **** }
 1151              		.loc 1 154 0
 1152 00ea 1300     		movs	r3, r2
 1153 00ec 303B     		subs	r3, r3, #48
 1154 00ee DBB2     		uxtb	r3, r3
 1155              	.LVL160:
 1156              	.LBE32:
 1157              	.LBE31:
 630:..\..\..\arduinoLCD\test\Pain Drain\libraries\lvgl\src\misc/lv_printf.c ****                 precision = _atoi(&format);
 1158              		.loc 1 630 0
 1159 00f0 092B     		cmp	r3, #9
 1160 00f2 04D8     		bhi	.L78
 631:..\..\..\arduinoLCD\test\Pain Drain\libraries\lvgl\src\misc/lv_printf.c ****             }
 1161              		.loc 1 631 0
 1162 00f4 13A8     		add	r0, sp, #76
 1163 00f6 FFF7FEFF 		bl	_atoi
 1164              	.LVL161:
 1165 00fa 8046     		mov	r8, r0
 1166              	.LVL162:
 1167 00fc 12E0     		b	.L77
 1168              	.LVL163:
 1169              	.L78:
 633:..\..\..\arduinoLCD\test\Pain Drain\libraries\lvgl\src\misc/lv_printf.c ****                 const int prec = (int)va_arg(va, int);
 1170              		.loc 1 633 0
 1171 00fe 2A2A     		cmp	r2, #42
 1172 0100 0ED1     		bne	.L141
 1173              	.LBB33:
 634:..\..\..\arduinoLCD\test\Pain Drain\libraries\lvgl\src\misc/lv_printf.c ****                 precision = prec > 0 ? (unsigned int)prec : 0U;
 1174              		.loc 1 634 0
 1175 0102 209B     		ldr	r3, [sp, #128]
 1176 0104 1B68     		ldr	r3, [r3]
 1177 0106 209A     		ldr	r2, [sp, #128]
 1178 0108 0432     		adds	r2, r2, #4
 1179 010a 2092     		str	r2, [sp, #128]
 635:..\..\..\arduinoLCD\test\Pain Drain\libraries\lvgl\src\misc/lv_printf.c ****                 format++;
 1180              		.loc 1 635 0
 1181 010c 002B     		cmp	r3, #0
 1182 010e 00DA     		bge	.L79
 1183 0110 0023     		movs	r3, #0
 1184              	.L79:
 1185 0112 9846     		mov	r8, r3
 1186              	.LVL164:
 636:..\..\..\arduinoLCD\test\Pain Drain\libraries\lvgl\src\misc/lv_printf.c ****             }
 1187              		.loc 1 636 0
 1188 0114 0131     		adds	r1, r1, #1
 1189 0116 1391     		str	r1, [sp, #76]
 1190 0118 04E0     		b	.L77
 1191              	.LVL165:
 1192              	.L140:
 1193              	.LBE33:
 626:..\..\..\arduinoLCD\test\Pain Drain\libraries\lvgl\src\misc/lv_printf.c ****         if(*format == '.') {
 1194              		.loc 1 626 0
ARM GAS  C:\Users\haske\AppData\Local\Temp\ccZHF2NV.s 			page 38


 1195 011a 0023     		movs	r3, #0
 1196 011c 9846     		mov	r8, r3
 1197 011e 01E0     		b	.L77
 1198              	.L141:
 1199 0120 0023     		movs	r3, #0
 1200 0122 9846     		mov	r8, r3
 1201              	.LVL166:
 1202              	.L77:
 641:..\..\..\arduinoLCD\test\Pain Drain\libraries\lvgl\src\misc/lv_printf.c ****             case 'l' :
 1203              		.loc 1 641 0
 1204 0124 139A     		ldr	r2, [sp, #76]
 1205 0126 1378     		ldrb	r3, [r2]
 1206 0128 683B     		subs	r3, r3, #104
 1207 012a D9B2     		uxtb	r1, r3
 1208 012c 1229     		cmp	r1, #18
 1209 012e 32D8     		bhi	.L80
 1210 0130 8B00     		lsls	r3, r1, #2
 1211 0132 8649     		ldr	r1, .L156+8
 1212 0134 CB58     		ldr	r3, [r1, r3]
 1213 0136 9F46     		mov	pc, r3
 1214              		.section	.rodata
 1215              		.align	2
 1216              	.L82:
 1217 0044 54010000 		.word	.L81
 1218 0048 96010000 		.word	.L80
 1219 004c 78010000 		.word	.L83
 1220 0050 96010000 		.word	.L80
 1221 0054 38010000 		.word	.L84
 1222 0058 96010000 		.word	.L80
 1223 005c 96010000 		.word	.L80
 1224 0060 96010000 		.word	.L80
 1225 0064 96010000 		.word	.L80
 1226 0068 96010000 		.word	.L80
 1227 006c 96010000 		.word	.L80
 1228 0070 96010000 		.word	.L80
 1229 0074 6C010000 		.word	.L85
 1230 0078 96010000 		.word	.L80
 1231 007c 96010000 		.word	.L80
 1232 0080 96010000 		.word	.L80
 1233 0084 96010000 		.word	.L80
 1234 0088 96010000 		.word	.L80
 1235 008c 84010000 		.word	.L86
 1236              		.section	.text._vsnprintf
 1237              	.L84:
 643:..\..\..\arduinoLCD\test\Pain Drain\libraries\lvgl\src\misc/lv_printf.c ****                 format++;
 1238              		.loc 1 643 0
 1239 0138 8023     		movs	r3, #128
 1240 013a 5B00     		lsls	r3, r3, #1
 1241 013c 3343     		orrs	r3, r6
 1242              	.LVL167:
 644:..\..\..\arduinoLCD\test\Pain Drain\libraries\lvgl\src\misc/lv_printf.c ****                 if(*format == 'l') {
 1243              		.loc 1 644 0
 1244 013e 511C     		adds	r1, r2, #1
 1245 0140 1391     		str	r1, [sp, #76]
 645:..\..\..\arduinoLCD\test\Pain Drain\libraries\lvgl\src\misc/lv_printf.c ****                     flags |= FLAGS_LONG_LONG;
 1246              		.loc 1 645 0
 1247 0142 5278     		ldrb	r2, [r2, #1]
ARM GAS  C:\Users\haske\AppData\Local\Temp\ccZHF2NV.s 			page 39


 1248 0144 6C2A     		cmp	r2, #108
 1249 0146 23D1     		bne	.L142
 646:..\..\..\arduinoLCD\test\Pain Drain\libraries\lvgl\src\misc/lv_printf.c ****                     format++;
 1250              		.loc 1 646 0
 1251 0148 C023     		movs	r3, #192
 1252              	.LVL168:
 1253 014a 9B00     		lsls	r3, r3, #2
 1254 014c 1E43     		orrs	r6, r3
 1255              	.LVL169:
 647:..\..\..\arduinoLCD\test\Pain Drain\libraries\lvgl\src\misc/lv_printf.c ****                 }
 1256              		.loc 1 647 0
 1257 014e 0131     		adds	r1, r1, #1
 1258 0150 1391     		str	r1, [sp, #76]
 1259 0152 20E0     		b	.L80
 1260              	.L81:
 651:..\..\..\arduinoLCD\test\Pain Drain\libraries\lvgl\src\misc/lv_printf.c ****                 format++;
 1261              		.loc 1 651 0
 1262 0154 8023     		movs	r3, #128
 1263 0156 3343     		orrs	r3, r6
 1264              	.LVL170:
 652:..\..\..\arduinoLCD\test\Pain Drain\libraries\lvgl\src\misc/lv_printf.c ****                 if(*format == 'h') {
 1265              		.loc 1 652 0
 1266 0158 511C     		adds	r1, r2, #1
 1267 015a 1391     		str	r1, [sp, #76]
 653:..\..\..\arduinoLCD\test\Pain Drain\libraries\lvgl\src\misc/lv_printf.c ****                     flags |= FLAGS_CHAR;
 1268              		.loc 1 653 0
 1269 015c 5278     		ldrb	r2, [r2, #1]
 1270 015e 682A     		cmp	r2, #104
 1271 0160 18D1     		bne	.L143
 654:..\..\..\arduinoLCD\test\Pain Drain\libraries\lvgl\src\misc/lv_printf.c ****                     format++;
 1272              		.loc 1 654 0
 1273 0162 C023     		movs	r3, #192
 1274              	.LVL171:
 1275 0164 1E43     		orrs	r6, r3
 1276              	.LVL172:
 655:..\..\..\arduinoLCD\test\Pain Drain\libraries\lvgl\src\misc/lv_printf.c ****                 }
 1277              		.loc 1 655 0
 1278 0166 0131     		adds	r1, r1, #1
 1279 0168 1391     		str	r1, [sp, #76]
 1280 016a 14E0     		b	.L80
 1281              	.L85:
 660:..\..\..\arduinoLCD\test\Pain Drain\libraries\lvgl\src\misc/lv_printf.c ****                 format++;
 1282              		.loc 1 660 0
 1283 016c 8023     		movs	r3, #128
 1284 016e 5B00     		lsls	r3, r3, #1
 1285 0170 1E43     		orrs	r6, r3
 1286              	.LVL173:
 661:..\..\..\arduinoLCD\test\Pain Drain\libraries\lvgl\src\misc/lv_printf.c ****                 break;
 1287              		.loc 1 661 0
 1288 0172 0132     		adds	r2, r2, #1
 1289 0174 1392     		str	r2, [sp, #76]
 662:..\..\..\arduinoLCD\test\Pain Drain\libraries\lvgl\src\misc/lv_printf.c **** #endif
 1290              		.loc 1 662 0
 1291 0176 0EE0     		b	.L80
 1292              	.L83:
 665:..\..\..\arduinoLCD\test\Pain Drain\libraries\lvgl\src\misc/lv_printf.c ****                 format++;
 1293              		.loc 1 665 0
ARM GAS  C:\Users\haske\AppData\Local\Temp\ccZHF2NV.s 			page 40


 1294 0178 8023     		movs	r3, #128
 1295 017a 9B00     		lsls	r3, r3, #2
 1296 017c 1E43     		orrs	r6, r3
 1297              	.LVL174:
 666:..\..\..\arduinoLCD\test\Pain Drain\libraries\lvgl\src\misc/lv_printf.c ****                 break;
 1298              		.loc 1 666 0
 1299 017e 0132     		adds	r2, r2, #1
 1300 0180 1392     		str	r2, [sp, #76]
 667:..\..\..\arduinoLCD\test\Pain Drain\libraries\lvgl\src\misc/lv_printf.c ****             case 'z' :
 1301              		.loc 1 667 0
 1302 0182 08E0     		b	.L80
 1303              	.L86:
 669:..\..\..\arduinoLCD\test\Pain Drain\libraries\lvgl\src\misc/lv_printf.c ****                 format++;
 1304              		.loc 1 669 0
 1305 0184 8023     		movs	r3, #128
 1306 0186 5B00     		lsls	r3, r3, #1
 1307 0188 1E43     		orrs	r6, r3
 1308              	.LVL175:
 670:..\..\..\arduinoLCD\test\Pain Drain\libraries\lvgl\src\misc/lv_printf.c ****                 break;
 1309              		.loc 1 670 0
 1310 018a 0132     		adds	r2, r2, #1
 1311 018c 1392     		str	r2, [sp, #76]
 671:..\..\..\arduinoLCD\test\Pain Drain\libraries\lvgl\src\misc/lv_printf.c ****             default :
 1312              		.loc 1 671 0
 1313 018e 02E0     		b	.L80
 1314              	.LVL176:
 1315              	.L142:
 643:..\..\..\arduinoLCD\test\Pain Drain\libraries\lvgl\src\misc/lv_printf.c ****                 format++;
 1316              		.loc 1 643 0
 1317 0190 1E00     		movs	r6, r3
 1318 0192 00E0     		b	.L80
 1319              	.L143:
 651:..\..\..\arduinoLCD\test\Pain Drain\libraries\lvgl\src\misc/lv_printf.c ****                 format++;
 1320              		.loc 1 651 0
 1321 0194 1E00     		movs	r6, r3
 1322              	.LVL177:
 1323              	.L80:
 677:..\..\..\arduinoLCD\test\Pain Drain\libraries\lvgl\src\misc/lv_printf.c ****             case 'd' :
 1324              		.loc 1 677 0
 1325 0196 139A     		ldr	r2, [sp, #76]
 1326 0198 1078     		ldrb	r0, [r2]
 1327 019a 0300     		movs	r3, r0
 1328 019c 253B     		subs	r3, r3, #37
 1329 019e D9B2     		uxtb	r1, r3
 1330 01a0 5329     		cmp	r1, #83
 1331 01a2 00D9     		bls	.LCB1518
 1332 01a4 E8E1     		b	.L87	@long jump
 1333              	.LCB1518:
 1334 01a6 8B00     		lsls	r3, r1, #2
 1335 01a8 6949     		ldr	r1, .L156+12
 1336 01aa CB58     		ldr	r3, [r1, r3]
 1337 01ac 9F46     		mov	pc, r3
 1338              		.section	.rodata
 1339              		.align	2
 1340              	.L89:
 1341 0090 62050000 		.word	.L88
 1342 0094 78050000 		.word	.L87
ARM GAS  C:\Users\haske\AppData\Local\Temp\ccZHF2NV.s 			page 41


 1343 0098 78050000 		.word	.L87
 1344 009c 78050000 		.word	.L87
 1345 00a0 78050000 		.word	.L87
 1346 00a4 78050000 		.word	.L87
 1347 00a8 78050000 		.word	.L87
 1348 00ac 78050000 		.word	.L87
 1349 00b0 78050000 		.word	.L87
 1350 00b4 78050000 		.word	.L87
 1351 00b8 78050000 		.word	.L87
 1352 00bc 78050000 		.word	.L87
 1353 00c0 78050000 		.word	.L87
 1354 00c4 78050000 		.word	.L87
 1355 00c8 78050000 		.word	.L87
 1356 00cc 78050000 		.word	.L87
 1357 00d0 78050000 		.word	.L87
 1358 00d4 78050000 		.word	.L87
 1359 00d8 78050000 		.word	.L87
 1360 00dc 78050000 		.word	.L87
 1361 00e0 78050000 		.word	.L87
 1362 00e4 78050000 		.word	.L87
 1363 00e8 78050000 		.word	.L87
 1364 00ec 78050000 		.word	.L87
 1365 00f0 78050000 		.word	.L87
 1366 00f4 78050000 		.word	.L87
 1367 00f8 78050000 		.word	.L87
 1368 00fc 78050000 		.word	.L87
 1369 0100 78050000 		.word	.L87
 1370 0104 78050000 		.word	.L87
 1371 0108 78050000 		.word	.L87
 1372 010c 78050000 		.word	.L87
 1373 0110 78050000 		.word	.L87
 1374 0114 78050000 		.word	.L87
 1375 0118 78050000 		.word	.L87
 1376 011c 78050000 		.word	.L87
 1377 0120 78050000 		.word	.L87
 1378 0124 78050000 		.word	.L87
 1379 0128 78050000 		.word	.L87
 1380 012c 78050000 		.word	.L87
 1381 0130 78050000 		.word	.L87
 1382 0134 78050000 		.word	.L87
 1383 0138 78050000 		.word	.L87
 1384 013c AE010000 		.word	.L90
 1385 0140 78050000 		.word	.L87
 1386 0144 78050000 		.word	.L87
 1387 0148 78050000 		.word	.L87
 1388 014c 78050000 		.word	.L87
 1389 0150 78050000 		.word	.L87
 1390 0154 78050000 		.word	.L87
 1391 0158 78050000 		.word	.L87
 1392 015c AE010000 		.word	.L90
 1393 0160 78050000 		.word	.L87
 1394 0164 78050000 		.word	.L87
 1395 0168 78050000 		.word	.L87
 1396 016c 78050000 		.word	.L87
 1397 0170 78050000 		.word	.L87
 1398 0174 78050000 		.word	.L87
 1399 0178 78050000 		.word	.L87
ARM GAS  C:\Users\haske\AppData\Local\Temp\ccZHF2NV.s 			page 42


 1400 017c 78050000 		.word	.L87
 1401 0180 78050000 		.word	.L87
 1402 0184 AE010000 		.word	.L90
 1403 0188 1E040000 		.word	.L91
 1404 018c AE010000 		.word	.L90
 1405 0190 78050000 		.word	.L87
 1406 0194 78050000 		.word	.L87
 1407 0198 78050000 		.word	.L87
 1408 019c 78050000 		.word	.L87
 1409 01a0 AE010000 		.word	.L90
 1410 01a4 78050000 		.word	.L87
 1411 01a8 78050000 		.word	.L87
 1412 01ac 78050000 		.word	.L87
 1413 01b0 78050000 		.word	.L87
 1414 01b4 78050000 		.word	.L87
 1415 01b8 AE010000 		.word	.L90
 1416 01bc AE010000 		.word	.L90
 1417 01c0 78050000 		.word	.L87
 1418 01c4 78050000 		.word	.L87
 1419 01c8 8E040000 		.word	.L92
 1420 01cc 78050000 		.word	.L87
 1421 01d0 AE010000 		.word	.L90
 1422 01d4 78050000 		.word	.L87
 1423 01d8 78050000 		.word	.L87
 1424 01dc AE010000 		.word	.L90
 1425              		.section	.text._vsnprintf
 1426              	.L90:
 1427              	.LBB34:
 689:..\..\..\arduinoLCD\test\Pain Drain\libraries\lvgl\src\misc/lv_printf.c ****                         base = 16U;
 1428              		.loc 1 689 0
 1429 01ae 7828     		cmp	r0, #120
 1430 01b0 17D0     		beq	.L144
 689:..\..\..\arduinoLCD\test\Pain Drain\libraries\lvgl\src\misc/lv_printf.c ****                         base = 16U;
 1431              		.loc 1 689 0 is_stmt 0 discriminator 1
 1432 01b2 5828     		cmp	r0, #88
 1433 01b4 17D0     		beq	.L145
 692:..\..\..\arduinoLCD\test\Pain Drain\libraries\lvgl\src\misc/lv_printf.c ****                         base = 16U;
 1434              		.loc 1 692 0 is_stmt 1
 1435 01b6 7028     		cmp	r0, #112
 1436 01b8 01D0     		beq	.L94
 692:..\..\..\arduinoLCD\test\Pain Drain\libraries\lvgl\src\misc/lv_printf.c ****                         base = 16U;
 1437              		.loc 1 692 0 is_stmt 0 discriminator 1
 1438 01ba 5028     		cmp	r0, #80
 1439 01bc 09D1     		bne	.L95
 1440              	.L94:
 1441              	.LVL178:
 700:..\..\..\arduinoLCD\test\Pain Drain\libraries\lvgl\src\misc/lv_printf.c **** 
 1442              		.loc 1 700 0 is_stmt 1
 1443 01be 8823     		movs	r3, #136
 1444 01c0 5B00     		lsls	r3, r3, #1
 1445 01c2 1E43     		orrs	r6, r3
 1446              	.LVL179:
 702:..\..\..\arduinoLCD\test\Pain Drain\libraries\lvgl\src\misc/lv_printf.c ****                             format++;
 1447              		.loc 1 702 0
 1448 01c4 5378     		ldrb	r3, [r2, #1]
 1449 01c6 562B     		cmp	r3, #86
 1450 01c8 0FD1     		bne	.L146
ARM GAS  C:\Users\haske\AppData\Local\Temp\ccZHF2NV.s 			page 43


 703:..\..\..\arduinoLCD\test\Pain Drain\libraries\lvgl\src\misc/lv_printf.c ****                     }
 1451              		.loc 1 703 0
 1452 01ca 0132     		adds	r2, r2, #1
 1453 01cc 1392     		str	r2, [sp, #76]
 693:..\..\..\arduinoLCD\test\Pain Drain\libraries\lvgl\src\misc/lv_printf.c ****                         flags |= FLAGS_HASH;   // always hash for pointer format
 1454              		.loc 1 693 0
 1455 01ce 1022     		movs	r2, #16
 1456 01d0 10E0     		b	.L93
 1457              	.LVL180:
 1458              	.L95:
 705:..\..\..\arduinoLCD\test\Pain Drain\libraries\lvgl\src\misc/lv_printf.c ****                         base =  8U;
 1459              		.loc 1 705 0
 1460 01d2 6F28     		cmp	r0, #111
 1461 01d4 0BD0     		beq	.L147
 708:..\..\..\arduinoLCD\test\Pain Drain\libraries\lvgl\src\misc/lv_printf.c ****                         base =  2U;
 1462              		.loc 1 708 0
 1463 01d6 6228     		cmp	r0, #98
 1464 01d8 0BD0     		beq	.L148
 1465              	.LVL181:
 713:..\..\..\arduinoLCD\test\Pain Drain\libraries\lvgl\src\misc/lv_printf.c ****                     }
 1466              		.loc 1 713 0
 1467 01da 1023     		movs	r3, #16
 1468 01dc 9E43     		bics	r6, r3
 1469              	.LVL182:
 712:..\..\..\arduinoLCD\test\Pain Drain\libraries\lvgl\src\misc/lv_printf.c ****                         flags &= ~FLAGS_HASH;   // no hash for dec format
 1470              		.loc 1 712 0
 1471 01de 0A22     		movs	r2, #10
 1472 01e0 08E0     		b	.L93
 1473              	.LVL183:
 1474              	.L144:
 690:..\..\..\arduinoLCD\test\Pain Drain\libraries\lvgl\src\misc/lv_printf.c ****                     }
 1475              		.loc 1 690 0
 1476 01e2 1022     		movs	r2, #16
 1477 01e4 06E0     		b	.L93
 1478              	.L145:
 1479 01e6 1022     		movs	r2, #16
 1480 01e8 04E0     		b	.L93
 1481              	.LVL184:
 1482              	.L146:
 693:..\..\..\arduinoLCD\test\Pain Drain\libraries\lvgl\src\misc/lv_printf.c ****                         flags |= FLAGS_HASH;   // always hash for pointer format
 1483              		.loc 1 693 0
 1484 01ea 1022     		movs	r2, #16
 1485 01ec 02E0     		b	.L93
 1486              	.LVL185:
 1487              	.L147:
 706:..\..\..\arduinoLCD\test\Pain Drain\libraries\lvgl\src\misc/lv_printf.c ****                     }
 1488              		.loc 1 706 0
 1489 01ee 0822     		movs	r2, #8
 1490 01f0 00E0     		b	.L93
 1491              	.L148:
 709:..\..\..\arduinoLCD\test\Pain Drain\libraries\lvgl\src\misc/lv_printf.c ****                     }
 1492              		.loc 1 709 0
 1493 01f2 0222     		movs	r2, #2
 1494              	.L93:
 1495              	.LVL186:
 716:..\..\..\arduinoLCD\test\Pain Drain\libraries\lvgl\src\misc/lv_printf.c ****                         flags |= FLAGS_UPPERCASE;
 1496              		.loc 1 716 0
ARM GAS  C:\Users\haske\AppData\Local\Temp\ccZHF2NV.s 			page 44


 1497 01f4 139B     		ldr	r3, [sp, #76]
 1498 01f6 1B78     		ldrb	r3, [r3]
 1499 01f8 582B     		cmp	r3, #88
 1500 01fa 01D0     		beq	.L96
 716:..\..\..\arduinoLCD\test\Pain Drain\libraries\lvgl\src\misc/lv_printf.c ****                         flags |= FLAGS_UPPERCASE;
 1501              		.loc 1 716 0 is_stmt 0 discriminator 1
 1502 01fc 502B     		cmp	r3, #80
 1503 01fe 01D1     		bne	.L97
 1504              	.L96:
 717:..\..\..\arduinoLCD\test\Pain Drain\libraries\lvgl\src\misc/lv_printf.c ****                     }
 1505              		.loc 1 717 0 is_stmt 1
 1506 0200 2021     		movs	r1, #32
 1507 0202 0E43     		orrs	r6, r1
 1508              	.LVL187:
 1509              	.L97:
 721:..\..\..\arduinoLCD\test\Pain Drain\libraries\lvgl\src\misc/lv_printf.c ****                         flags &= ~(FLAGS_PLUS | FLAGS_SPACE);
 1510              		.loc 1 721 0
 1511 0204 692B     		cmp	r3, #105
 1512 0206 03D0     		beq	.L98
 721:..\..\..\arduinoLCD\test\Pain Drain\libraries\lvgl\src\misc/lv_printf.c ****                         flags &= ~(FLAGS_PLUS | FLAGS_SPACE);
 1513              		.loc 1 721 0 is_stmt 0 discriminator 1
 1514 0208 642B     		cmp	r3, #100
 1515 020a 01D0     		beq	.L98
 722:..\..\..\arduinoLCD\test\Pain Drain\libraries\lvgl\src\misc/lv_printf.c ****                     }
 1516              		.loc 1 722 0 is_stmt 1
 1517 020c 0C21     		movs	r1, #12
 1518 020e 8E43     		bics	r6, r1
 1519              	.LVL188:
 1520              	.L98:
 726:..\..\..\arduinoLCD\test\Pain Drain\libraries\lvgl\src\misc/lv_printf.c ****                         flags &= ~FLAGS_ZEROPAD;
 1521              		.loc 1 726 0
 1522 0210 7105     		lsls	r1, r6, #21
 1523 0212 01D5     		bpl	.L99
 727:..\..\..\arduinoLCD\test\Pain Drain\libraries\lvgl\src\misc/lv_printf.c ****                     }
 1524              		.loc 1 727 0
 1525 0214 0121     		movs	r1, #1
 1526 0216 8E43     		bics	r6, r1
 1527              	.LVL189:
 1528              	.L99:
 731:..\..\..\arduinoLCD\test\Pain Drain\libraries\lvgl\src\misc/lv_printf.c ****                         // signed
 1529              		.loc 1 731 0
 1530 0218 692B     		cmp	r3, #105
 1531 021a 01D0     		beq	.L100
 731:..\..\..\arduinoLCD\test\Pain Drain\libraries\lvgl\src\misc/lv_printf.c ****                         // signed
 1532              		.loc 1 731 0 is_stmt 0 discriminator 1
 1533 021c 642B     		cmp	r3, #100
 1534 021e 7BD1     		bne	.L101
 1535              	.L100:
 733:..\..\..\arduinoLCD\test\Pain Drain\libraries\lvgl\src\misc/lv_printf.c **** #if defined(PRINTF_SUPPORT_LONG_LONG)
 1536              		.loc 1 733 0 is_stmt 1
 1537 0220 B305     		lsls	r3, r6, #22
 1538 0222 32D5     		bpl	.L102
 1539              	.LBB35:
 735:..\..\..\arduinoLCD\test\Pain Drain\libraries\lvgl\src\misc/lv_printf.c ****                             idx = _ntoa_long_long(out, buffer, idx, maxlen, (unsigned long long)(va
 1540              		.loc 1 735 0
 1541 0224 209B     		ldr	r3, [sp, #128]
 1542 0226 0733     		adds	r3, r3, #7
ARM GAS  C:\Users\haske\AppData\Local\Temp\ccZHF2NV.s 			page 45


 1543 0228 0721     		movs	r1, #7
 1544 022a 8B43     		bics	r3, r1
 1545 022c 0131     		adds	r1, r1, #1
 1546 022e 8C46     		mov	ip, r1
 1547 0230 9C44     		add	ip, ip, r3
 1548 0232 6146     		mov	r1, ip
 1549 0234 2091     		str	r1, [sp, #128]
 1550 0236 1968     		ldr	r1, [r3]
 1551 0238 5B68     		ldr	r3, [r3, #4]
 1552 023a 9C46     		mov	ip, r3
 1553              	.LVL190:
 736:..\..\..\arduinoLCD\test\Pain Drain\libraries\lvgl\src\misc/lv_printf.c ****                                                   precision, width, flags);
 1554              		.loc 1 736 0
 1555 023c DB17     		asrs	r3, r3, #31
 1556              	.LVL191:
 1557 023e 1093     		str	r3, [sp, #64]
 1558 0240 1193     		str	r3, [sp, #68]
 1559 0242 109B     		ldr	r3, [sp, #64]
 1560 0244 119C     		ldr	r4, [sp, #68]
 1561 0246 1800     		movs	r0, r3
 1562 0248 4840     		eors	r0, r1
 1563 024a 0E90     		str	r0, [sp, #56]
 1564 024c 2100     		movs	r1, r4
 1565              	.LVL192:
 1566 024e 6046     		mov	r0, ip
 1567 0250 4140     		eors	r1, r0
 1568 0252 0F91     		str	r1, [sp, #60]
 1569 0254 0E98     		ldr	r0, [sp, #56]
 1570 0256 0F99     		ldr	r1, [sp, #60]
 1571 0258 C01A     		subs	r0, r0, r3
 1572 025a A141     		sbcs	r1, r1, r4
 1573 025c 0E90     		str	r0, [sp, #56]
 1574 025e 0F91     		str	r1, [sp, #60]
 1575 0260 6346     		mov	r3, ip
 1576 0262 DB0F     		lsrs	r3, r3, #31
 1577 0264 0896     		str	r6, [sp, #32]
 1578 0266 5C46     		mov	r4, fp
 1579 0268 0794     		str	r4, [sp, #28]
 1580 026a 4446     		mov	r4, r8
 1581 026c 0694     		str	r4, [sp, #24]
 1582 026e 0492     		str	r2, [sp, #16]
 1583 0270 0022     		movs	r2, #0
 1584              	.LVL193:
 1585 0272 0592     		str	r2, [sp, #20]
 1586 0274 0293     		str	r3, [sp, #8]
 1587 0276 0090     		str	r0, [sp]
 1588 0278 0191     		str	r1, [sp, #4]
 1589 027a 0B9B     		ldr	r3, [sp, #44]
 1590 027c 3A00     		movs	r2, r7
 1591 027e 0C99     		ldr	r1, [sp, #48]
 1592 0280 2800     		movs	r0, r5
 1593 0282 FFF7FEFF 		bl	_ntoa_long_long
 1594              	.LVL194:
 1595 0286 0700     		movs	r7, r0
 1596              	.LVL195:
 1597              	.LBE35:
 1598 0288 C5E0     		b	.L103
ARM GAS  C:\Users\haske\AppData\Local\Temp\ccZHF2NV.s 			page 46


 1599              	.LVL196:
 1600              	.L102:
 740:..\..\..\arduinoLCD\test\Pain Drain\libraries\lvgl\src\misc/lv_printf.c ****                             const long value = va_arg(va, long);
 1601              		.loc 1 740 0
 1602 028a F305     		lsls	r3, r6, #23
 1603 028c 18D5     		bpl	.L104
 1604              	.LBB36:
 741:..\..\..\arduinoLCD\test\Pain Drain\libraries\lvgl\src\misc/lv_printf.c ****                             idx = _ntoa_long(out, buffer, idx, maxlen, (unsigned long)(value > 0 ? 
 1605              		.loc 1 741 0
 1606 028e 209B     		ldr	r3, [sp, #128]
 1607 0290 1B68     		ldr	r3, [r3]
 1608 0292 2099     		ldr	r1, [sp, #128]
 1609 0294 0431     		adds	r1, r1, #4
 1610 0296 2091     		str	r1, [sp, #128]
 1611              	.LVL197:
 742:..\..\..\arduinoLCD\test\Pain Drain\libraries\lvgl\src\misc/lv_printf.c ****                                              width, flags);
 1612              		.loc 1 742 0
 1613 0298 D817     		asrs	r0, r3, #31
 1614 029a 1918     		adds	r1, r3, r0
 1615 029c 4140     		eors	r1, r0
 1616 029e DB0F     		lsrs	r3, r3, #31
 1617              	.LVL198:
 1618 02a0 0596     		str	r6, [sp, #20]
 1619              	.LVL199:
 1620 02a2 5846     		mov	r0, fp
 1621 02a4 0490     		str	r0, [sp, #16]
 1622 02a6 4046     		mov	r0, r8
 1623 02a8 0390     		str	r0, [sp, #12]
 1624 02aa 0292     		str	r2, [sp, #8]
 1625 02ac 0193     		str	r3, [sp, #4]
 1626 02ae 0091     		str	r1, [sp]
 1627 02b0 0B9B     		ldr	r3, [sp, #44]
 1628 02b2 3A00     		movs	r2, r7
 1629              	.LVL200:
 1630 02b4 0C99     		ldr	r1, [sp, #48]
 1631 02b6 2800     		movs	r0, r5
 1632 02b8 FFF7FEFF 		bl	_ntoa_long
 1633              	.LVL201:
 1634 02bc 0700     		movs	r7, r0
 1635              	.LVL202:
 1636              	.LBE36:
 1637 02be AAE0     		b	.L103
 1638              	.LVL203:
 1639              	.L104:
 1640              	.LBB37:
 746:..\..\..\arduinoLCD\test\Pain Drain\libraries\lvgl\src\misc/lv_printf.c ****                                                                                                    
 1641              		.loc 1 746 0
 1642 02c0 7306     		lsls	r3, r6, #25
 1643 02c2 07D5     		bpl	.L105
 746:..\..\..\arduinoLCD\test\Pain Drain\libraries\lvgl\src\misc/lv_printf.c ****                                                                                                    
 1644              		.loc 1 746 0 is_stmt 0 discriminator 1
 1645 02c4 209B     		ldr	r3, [sp, #128]
 1646 02c6 1B68     		ldr	r3, [r3]
 1647 02c8 2099     		ldr	r1, [sp, #128]
 1648 02ca 0431     		adds	r1, r1, #4
 1649 02cc 2091     		str	r1, [sp, #128]
 1650 02ce FF21     		movs	r1, #255
ARM GAS  C:\Users\haske\AppData\Local\Temp\ccZHF2NV.s 			page 47


 1651 02d0 0B40     		ands	r3, r1
 1652 02d2 0DE0     		b	.L106
 1653              	.L105:
 747:..\..\..\arduinoLCD\test\Pain Drain\libraries\lvgl\src\misc/lv_printf.c ****                             idx = _ntoa_long(out, buffer, idx, maxlen, (unsigned int)(value > 0 ? v
 1654              		.loc 1 747 0 is_stmt 1 discriminator 2
 1655 02d4 3306     		lsls	r3, r6, #24
 1656 02d6 06D5     		bpl	.L107
 746:..\..\..\arduinoLCD\test\Pain Drain\libraries\lvgl\src\misc/lv_printf.c ****                                                                                                    
 1657              		.loc 1 746 0 discriminator 1
 1658 02d8 209B     		ldr	r3, [sp, #128]
 747:..\..\..\arduinoLCD\test\Pain Drain\libraries\lvgl\src\misc/lv_printf.c ****                             idx = _ntoa_long(out, buffer, idx, maxlen, (unsigned int)(value > 0 ? v
 1659              		.loc 1 747 0 discriminator 1
 1660 02da 0021     		movs	r1, #0
 1661 02dc 5B5E     		ldrsh	r3, [r3, r1]
 1662 02de 2099     		ldr	r1, [sp, #128]
 1663 02e0 0431     		adds	r1, r1, #4
 1664 02e2 2091     		str	r1, [sp, #128]
 1665 02e4 04E0     		b	.L106
 1666              	.L107:
 747:..\..\..\arduinoLCD\test\Pain Drain\libraries\lvgl\src\misc/lv_printf.c ****                             idx = _ntoa_long(out, buffer, idx, maxlen, (unsigned int)(value > 0 ? v
 1667              		.loc 1 747 0 is_stmt 0 discriminator 2
 1668 02e6 209B     		ldr	r3, [sp, #128]
 1669 02e8 1B68     		ldr	r3, [r3]
 1670 02ea 2099     		ldr	r1, [sp, #128]
 1671 02ec 0431     		adds	r1, r1, #4
 1672 02ee 2091     		str	r1, [sp, #128]
 1673              	.L106:
 1674              	.LVL204:
 748:..\..\..\arduinoLCD\test\Pain Drain\libraries\lvgl\src\misc/lv_printf.c ****                                              width, flags);
 1675              		.loc 1 748 0 is_stmt 1 discriminator 3
 1676 02f0 D817     		asrs	r0, r3, #31
 1677 02f2 1918     		adds	r1, r3, r0
 1678 02f4 4140     		eors	r1, r0
 1679 02f6 DB0F     		lsrs	r3, r3, #31
 1680              	.LVL205:
 1681 02f8 0596     		str	r6, [sp, #20]
 1682 02fa 5846     		mov	r0, fp
 1683 02fc 0490     		str	r0, [sp, #16]
 1684 02fe 4046     		mov	r0, r8
 1685 0300 0390     		str	r0, [sp, #12]
 1686 0302 0292     		str	r2, [sp, #8]
 1687 0304 0193     		str	r3, [sp, #4]
 1688 0306 0091     		str	r1, [sp]
 1689 0308 0B9B     		ldr	r3, [sp, #44]
 1690 030a 3A00     		movs	r2, r7
 1691              	.LVL206:
 1692 030c 0C99     		ldr	r1, [sp, #48]
 1693 030e 2800     		movs	r0, r5
 1694 0310 FFF7FEFF 		bl	_ntoa_long
 1695              	.LVL207:
 1696 0314 0700     		movs	r7, r0
 1697              	.LVL208:
 1698 0316 7EE0     		b	.L103
 1699              	.LVL209:
 1700              	.L101:
 1701              	.LBE37:
 752:..\..\..\arduinoLCD\test\Pain Drain\libraries\lvgl\src\misc/lv_printf.c ****                         lv_vaformat_t * vaf = va_arg(va, lv_vaformat_t *);
ARM GAS  C:\Users\haske\AppData\Local\Temp\ccZHF2NV.s 			page 48


 1702              		.loc 1 752 0
 1703 0318 562B     		cmp	r3, #86
 1704 031a 1BD1     		bne	.L108
 1705              	.LBB38:
 753:..\..\..\arduinoLCD\test\Pain Drain\libraries\lvgl\src\misc/lv_printf.c ****                         va_list copy;
 1706              		.loc 1 753 0
 1707 031c 209B     		ldr	r3, [sp, #128]
 1708 031e 1B68     		ldr	r3, [r3]
 1709 0320 209A     		ldr	r2, [sp, #128]
 1710              	.LVL210:
 1711 0322 0432     		adds	r2, r2, #4
 1712 0324 2092     		str	r2, [sp, #128]
 1713              	.LVL211:
 756:..\..\..\arduinoLCD\test\Pain Drain\libraries\lvgl\src\misc/lv_printf.c ****                         idx += _vsnprintf(out, buffer + idx, maxlen - idx, vaf->fmt, copy);
 1714              		.loc 1 756 0
 1715 0326 5A68     		ldr	r2, [r3, #4]
 1716 0328 1068     		ldr	r0, [r2]
 1717 032a 1590     		str	r0, [sp, #84]
 757:..\..\..\arduinoLCD\test\Pain Drain\libraries\lvgl\src\misc/lv_printf.c ****                         va_end(copy);
 1718              		.loc 1 757 0
 1719 032c 1B68     		ldr	r3, [r3]
 1720              	.LVL212:
 1721 032e 0B9A     		ldr	r2, [sp, #44]
 1722 0330 D21B     		subs	r2, r2, r7
 1723 0332 0C99     		ldr	r1, [sp, #48]
 1724 0334 C919     		adds	r1, r1, r7
 1725 0336 0090     		str	r0, [sp]
 1726 0338 2800     		movs	r0, r5
 1727 033a FFF761FE 		bl	_vsnprintf
 1728              	.LVL213:
 1729 033e 3F18     		adds	r7, r7, r0
 1730              	.LVL214:
 1731              	.LBE38:
 1732 0340 69E0     		b	.L103
 1733              	.L157:
 1734 0342 C046     		.align	2
 1735              	.L156:
 1736 0344 00000000 		.word	_out_null
 1737 0348 00000000 		.word	.L67
 1738 034c 44000000 		.word	.L82
 1739 0350 90000000 		.word	.L89
 1740              	.LVL215:
 1741              	.L108:
 762:..\..\..\arduinoLCD\test\Pain Drain\libraries\lvgl\src\misc/lv_printf.c **** #if defined(PRINTF_SUPPORT_LONG_LONG)
 1742              		.loc 1 762 0
 1743 0354 B305     		lsls	r3, r6, #22
 1744 0356 1DD5     		bpl	.L109
 764:..\..\..\arduinoLCD\test\Pain Drain\libraries\lvgl\src\misc/lv_printf.c **** #endif
 1745              		.loc 1 764 0
 1746 0358 209B     		ldr	r3, [sp, #128]
 1747 035a 0733     		adds	r3, r3, #7
 1748 035c 0721     		movs	r1, #7
 1749 035e 8B43     		bics	r3, r1
 1750 0360 0131     		adds	r1, r1, #1
 1751 0362 8C46     		mov	ip, r1
 1752 0364 9C44     		add	ip, ip, r3
 1753 0366 6146     		mov	r1, ip
ARM GAS  C:\Users\haske\AppData\Local\Temp\ccZHF2NV.s 			page 49


 1754 0368 2091     		str	r1, [sp, #128]
 1755 036a 5C68     		ldr	r4, [r3, #4]
 1756 036c 1B68     		ldr	r3, [r3]
 1757 036e 0093     		str	r3, [sp]
 1758 0370 0194     		str	r4, [sp, #4]
 1759 0372 0023     		movs	r3, #0
 1760 0374 0896     		str	r6, [sp, #32]
 1761 0376 5946     		mov	r1, fp
 1762 0378 0791     		str	r1, [sp, #28]
 1763 037a 4146     		mov	r1, r8
 1764 037c 0691     		str	r1, [sp, #24]
 1765 037e 0492     		str	r2, [sp, #16]
 1766 0380 0593     		str	r3, [sp, #20]
 1767 0382 0293     		str	r3, [sp, #8]
 1768 0384 0B9B     		ldr	r3, [sp, #44]
 1769 0386 3A00     		movs	r2, r7
 1770              	.LVL216:
 1771 0388 0C99     		ldr	r1, [sp, #48]
 1772 038a 2800     		movs	r0, r5
 1773 038c FFF7FEFF 		bl	_ntoa_long_long
 1774              	.LVL217:
 1775 0390 0700     		movs	r7, r0
 1776              	.LVL218:
 1777 0392 40E0     		b	.L103
 1778              	.LVL219:
 1779              	.L109:
 767:..\..\..\arduinoLCD\test\Pain Drain\libraries\lvgl\src\misc/lv_printf.c ****                             idx = _ntoa_long(out, buffer, idx, maxlen, va_arg(va, unsigned long), f
 1780              		.loc 1 767 0
 1781 0394 F305     		lsls	r3, r6, #23
 1782 0396 15D5     		bpl	.L110
 768:..\..\..\arduinoLCD\test\Pain Drain\libraries\lvgl\src\misc/lv_printf.c ****                         }
 1783              		.loc 1 768 0
 1784 0398 209B     		ldr	r3, [sp, #128]
 1785 039a 1B68     		ldr	r3, [r3]
 1786 039c 0093     		str	r3, [sp]
 1787 039e 209B     		ldr	r3, [sp, #128]
 1788 03a0 0433     		adds	r3, r3, #4
 1789 03a2 2093     		str	r3, [sp, #128]
 1790 03a4 0596     		str	r6, [sp, #20]
 1791 03a6 5B46     		mov	r3, fp
 1792 03a8 0493     		str	r3, [sp, #16]
 1793 03aa 4346     		mov	r3, r8
 1794 03ac 0393     		str	r3, [sp, #12]
 1795 03ae 0292     		str	r2, [sp, #8]
 1796 03b0 0023     		movs	r3, #0
 1797 03b2 0193     		str	r3, [sp, #4]
 1798 03b4 0B9B     		ldr	r3, [sp, #44]
 1799 03b6 3A00     		movs	r2, r7
 1800              	.LVL220:
 1801 03b8 0C99     		ldr	r1, [sp, #48]
 1802 03ba 2800     		movs	r0, r5
 1803 03bc FFF7FEFF 		bl	_ntoa_long
 1804              	.LVL221:
 1805 03c0 0700     		movs	r7, r0
 1806              	.LVL222:
 1807 03c2 28E0     		b	.L103
 1808              	.LVL223:
ARM GAS  C:\Users\haske\AppData\Local\Temp\ccZHF2NV.s 			page 50


 1809              	.L110:
 1810              	.LBB39:
 772:..\..\..\arduinoLCD\test\Pain Drain\libraries\lvgl\src\misc/lv_printf.c ****                             idx = _ntoa_long(out, buffer, idx, maxlen, value, false, base, precisio
 1811              		.loc 1 772 0
 1812 03c4 7306     		lsls	r3, r6, #25
 1813 03c6 07D5     		bpl	.L111
 771:..\..\..\arduinoLCD\test\Pain Drain\libraries\lvgl\src\misc/lv_printf.c ****                                                                                                    
 1814              		.loc 1 771 0 discriminator 1
 1815 03c8 209B     		ldr	r3, [sp, #128]
 1816 03ca 1B68     		ldr	r3, [r3]
 1817 03cc 2099     		ldr	r1, [sp, #128]
 1818 03ce 0431     		adds	r1, r1, #4
 1819 03d0 2091     		str	r1, [sp, #128]
 772:..\..\..\arduinoLCD\test\Pain Drain\libraries\lvgl\src\misc/lv_printf.c ****                             idx = _ntoa_long(out, buffer, idx, maxlen, value, false, base, precisio
 1820              		.loc 1 772 0 discriminator 1
 1821 03d2 FF21     		movs	r1, #255
 1822 03d4 0B40     		ands	r3, r1
 1823 03d6 0EE0     		b	.L112
 1824              	.L111:
 772:..\..\..\arduinoLCD\test\Pain Drain\libraries\lvgl\src\misc/lv_printf.c ****                             idx = _ntoa_long(out, buffer, idx, maxlen, value, false, base, precisio
 1825              		.loc 1 772 0 is_stmt 0 discriminator 2
 1826 03d8 3306     		lsls	r3, r6, #24
 1827 03da 07D5     		bpl	.L113
 772:..\..\..\arduinoLCD\test\Pain Drain\libraries\lvgl\src\misc/lv_printf.c ****                             idx = _ntoa_long(out, buffer, idx, maxlen, value, false, base, precisio
 1828              		.loc 1 772 0 discriminator 3
 1829 03dc 209B     		ldr	r3, [sp, #128]
 1830 03de 1B68     		ldr	r3, [r3]
 1831 03e0 2099     		ldr	r1, [sp, #128]
 1832 03e2 0431     		adds	r1, r1, #4
 1833 03e4 2091     		str	r1, [sp, #128]
 1834 03e6 1B04     		lsls	r3, r3, #16
 1835 03e8 1B0C     		lsrs	r3, r3, #16
 1836 03ea 04E0     		b	.L112
 1837              	.L113:
 772:..\..\..\arduinoLCD\test\Pain Drain\libraries\lvgl\src\misc/lv_printf.c ****                             idx = _ntoa_long(out, buffer, idx, maxlen, value, false, base, precisio
 1838              		.loc 1 772 0 discriminator 4
 1839 03ec 209B     		ldr	r3, [sp, #128]
 1840 03ee 1B68     		ldr	r3, [r3]
 1841 03f0 2099     		ldr	r1, [sp, #128]
 1842 03f2 0431     		adds	r1, r1, #4
 1843 03f4 2091     		str	r1, [sp, #128]
 1844              	.L112:
 1845              	.LVL224:
 773:..\..\..\arduinoLCD\test\Pain Drain\libraries\lvgl\src\misc/lv_printf.c ****                         }
 1846              		.loc 1 773 0 is_stmt 1
 1847 03f6 0596     		str	r6, [sp, #20]
 1848 03f8 5946     		mov	r1, fp
 1849 03fa 0491     		str	r1, [sp, #16]
 1850 03fc 4146     		mov	r1, r8
 1851 03fe 0391     		str	r1, [sp, #12]
 1852 0400 0292     		str	r2, [sp, #8]
 1853 0402 0022     		movs	r2, #0
 1854              	.LVL225:
 1855 0404 0192     		str	r2, [sp, #4]
 1856 0406 0093     		str	r3, [sp]
 1857 0408 0B9B     		ldr	r3, [sp, #44]
 1858              	.LVL226:
ARM GAS  C:\Users\haske\AppData\Local\Temp\ccZHF2NV.s 			page 51


 1859 040a 3A00     		movs	r2, r7
 1860 040c 0C99     		ldr	r1, [sp, #48]
 1861 040e 2800     		movs	r0, r5
 1862 0410 FFF7FEFF 		bl	_ntoa_long
 1863              	.LVL227:
 1864 0414 0700     		movs	r7, r0
 1865              	.LVL228:
 1866              	.L103:
 1867              	.LBE39:
 776:..\..\..\arduinoLCD\test\Pain Drain\libraries\lvgl\src\misc/lv_printf.c ****                     break;
 1868              		.loc 1 776 0
 1869 0416 139B     		ldr	r3, [sp, #76]
 1870 0418 0133     		adds	r3, r3, #1
 1871 041a 1393     		str	r3, [sp, #76]
 777:..\..\..\arduinoLCD\test\Pain Drain\libraries\lvgl\src\misc/lv_printf.c ****                 }
 1872              		.loc 1 777 0
 1873 041c B5E0     		b	.L62
 1874              	.L91:
 1875              	.LVL229:
 1876              	.LBE34:
 1877              	.LBB40:
 801:..\..\..\arduinoLCD\test\Pain Drain\libraries\lvgl\src\misc/lv_printf.c ****                         while(l++ < width) {
 1878              		.loc 1 801 0
 1879 041e 0223     		movs	r3, #2
 1880 0420 3340     		ands	r3, r6
 1881 0422 9A46     		mov	r10, r3
 1882 0424 09D0     		beq	.L149
 799:..\..\..\arduinoLCD\test\Pain Drain\libraries\lvgl\src\misc/lv_printf.c ****                     // pre padding
 1883              		.loc 1 799 0
 1884 0426 0126     		movs	r6, #1
 1885              	.LVL230:
 1886 0428 0FE0     		b	.L115
 1887              	.LVL231:
 1888              	.L116:
 803:..\..\..\arduinoLCD\test\Pain Drain\libraries\lvgl\src\misc/lv_printf.c ****                         }
 1889              		.loc 1 803 0
 1890 042a 541C     		adds	r4, r2, #1
 1891              	.LVL232:
 1892 042c 0B9B     		ldr	r3, [sp, #44]
 1893 042e 0C99     		ldr	r1, [sp, #48]
 1894 0430 2020     		movs	r0, #32
 1895 0432 A847     		blx	r5
 1896              	.LVL233:
 802:..\..\..\arduinoLCD\test\Pain Drain\libraries\lvgl\src\misc/lv_printf.c ****                             out(' ', buffer, idx++, maxlen);
 1897              		.loc 1 802 0
 1898 0434 3300     		movs	r3, r6
 803:..\..\..\arduinoLCD\test\Pain Drain\libraries\lvgl\src\misc/lv_printf.c ****                         }
 1899              		.loc 1 803 0
 1900 0436 2200     		movs	r2, r4
 1901 0438 02E0     		b	.L114
 1902              	.LVL234:
 1903              	.L149:
 1904 043a 0123     		movs	r3, #1
 1905 043c 3A00     		movs	r2, r7
 1906 043e 5F46     		mov	r7, fp
 1907              	.LVL235:
 1908              	.L114:
ARM GAS  C:\Users\haske\AppData\Local\Temp\ccZHF2NV.s 			page 52


 802:..\..\..\arduinoLCD\test\Pain Drain\libraries\lvgl\src\misc/lv_printf.c ****                             out(' ', buffer, idx++, maxlen);
 1909              		.loc 1 802 0
 1910 0440 5E1C     		adds	r6, r3, #1
 1911              	.LVL236:
 1912 0442 9F42     		cmp	r7, r3
 1913 0444 F1D8     		bhi	.L116
 1914 0446 BB46     		mov	fp, r7
 1915 0448 1700     		movs	r7, r2
 1916              	.LVL237:
 1917              	.L115:
 807:..\..\..\arduinoLCD\test\Pain Drain\libraries\lvgl\src\misc/lv_printf.c ****                     // post padding
 1918              		.loc 1 807 0
 1919 044a 209B     		ldr	r3, [sp, #128]
 1920 044c 7C1C     		adds	r4, r7, #1
 1921              	.LVL238:
 1922 044e 1878     		ldrb	r0, [r3]
 1923 0450 0433     		adds	r3, r3, #4
 1924 0452 2093     		str	r3, [sp, #128]
 1925 0454 0B9B     		ldr	r3, [sp, #44]
 1926 0456 3A00     		movs	r2, r7
 1927 0458 0C99     		ldr	r1, [sp, #48]
 1928 045a A847     		blx	r5
 1929              	.LVL239:
 809:..\..\..\arduinoLCD\test\Pain Drain\libraries\lvgl\src\misc/lv_printf.c ****                         while(l++ < width) {
 1930              		.loc 1 809 0
 1931 045c 5346     		mov	r3, r10
 1932 045e 002B     		cmp	r3, #0
 1933 0460 08D1     		bne	.L153
 1934 0462 0FE0     		b	.L118
 1935              	.LVL240:
 1936              	.L119:
 811:..\..\..\arduinoLCD\test\Pain Drain\libraries\lvgl\src\misc/lv_printf.c ****                         }
 1937              		.loc 1 811 0
 1938 0464 571C     		adds	r7, r2, #1
 1939              	.LVL241:
 1940 0466 0B9B     		ldr	r3, [sp, #44]
 1941 0468 0C99     		ldr	r1, [sp, #48]
 1942 046a 2020     		movs	r0, #32
 1943 046c C047     		blx	r8
 1944              	.LVL242:
 810:..\..\..\arduinoLCD\test\Pain Drain\libraries\lvgl\src\misc/lv_printf.c ****                             out(' ', buffer, idx++, maxlen);
 1945              		.loc 1 810 0
 1946 046e 2600     		movs	r6, r4
 811:..\..\..\arduinoLCD\test\Pain Drain\libraries\lvgl\src\misc/lv_printf.c ****                         }
 1947              		.loc 1 811 0
 1948 0470 3A00     		movs	r2, r7
 1949 0472 02E0     		b	.L117
 1950              	.LVL243:
 1951              	.L153:
 1952 0474 2200     		movs	r2, r4
 1953 0476 A846     		mov	r8, r5
 1954              	.LVL244:
 1955 0478 5D46     		mov	r5, fp
 1956              	.LVL245:
 1957              	.L117:
 810:..\..\..\arduinoLCD\test\Pain Drain\libraries\lvgl\src\misc/lv_printf.c ****                             out(' ', buffer, idx++, maxlen);
 1958              		.loc 1 810 0
ARM GAS  C:\Users\haske\AppData\Local\Temp\ccZHF2NV.s 			page 53


 1959 047a 741C     		adds	r4, r6, #1
 1960              	.LVL246:
 1961 047c B542     		cmp	r5, r6
 1962 047e F1D8     		bhi	.L119
 1963 0480 1400     		movs	r4, r2
 1964              	.LVL247:
 1965 0482 4546     		mov	r5, r8
 1966              	.LVL248:
 1967              	.L118:
 814:..\..\..\arduinoLCD\test\Pain Drain\libraries\lvgl\src\misc/lv_printf.c ****                     break;
 1968              		.loc 1 814 0
 1969 0484 139B     		ldr	r3, [sp, #76]
 1970 0486 0133     		adds	r3, r3, #1
 1971 0488 1393     		str	r3, [sp, #76]
 815:..\..\..\arduinoLCD\test\Pain Drain\libraries\lvgl\src\misc/lv_printf.c ****                 }
 1972              		.loc 1 815 0
 1973 048a 2700     		movs	r7, r4
 1974 048c 7DE0     		b	.L62
 1975              	.LVL249:
 1976              	.L92:
 1977              	.LBE40:
 1978              	.LBB41:
 819:..\..\..\arduinoLCD\test\Pain Drain\libraries\lvgl\src\misc/lv_printf.c ****                     unsigned int l = _strnlen_s(p, precision ? precision : (size_t) -1);
 1979              		.loc 1 819 0
 1980 048e 209B     		ldr	r3, [sp, #128]
 1981 0490 1B68     		ldr	r3, [r3]
 1982 0492 0D93     		str	r3, [sp, #52]
 1983 0494 209B     		ldr	r3, [sp, #128]
 1984 0496 0433     		adds	r3, r3, #4
 1985 0498 2093     		str	r3, [sp, #128]
 1986              	.LVL250:
 820:..\..\..\arduinoLCD\test\Pain Drain\libraries\lvgl\src\misc/lv_printf.c ****                     // pre padding
 1987              		.loc 1 820 0
 1988 049a 4346     		mov	r3, r8
 1989              	.LVL251:
 1990 049c 002B     		cmp	r3, #0
 1991 049e 01D1     		bne	.L150
 1992              	.LVL252:
 1993 04a0 013B     		subs	r3, r3, #1
 1994              	.LVL253:
 1995 04a2 00E0     		b	.L120
 1996              	.LVL254:
 1997              	.L150:
 1998 04a4 4346     		mov	r3, r8
 1999              	.LVL255:
 2000              	.L120:
 2001 04a6 0D9C     		ldr	r4, [sp, #52]
 2002 04a8 01E0     		b	.L121
 2003              	.LVL256:
 2004              	.L123:
 2005              	.LBB42:
 2006              	.LBB43:
 146:..\..\..\arduinoLCD\test\Pain Drain\libraries\lvgl\src\misc/lv_printf.c ****     return (unsigned int)(s - str);
 2007              		.loc 1 146 0
 2008 04aa 0134     		adds	r4, r4, #1
 2009              	.LVL257:
 2010 04ac 1300     		movs	r3, r2
ARM GAS  C:\Users\haske\AppData\Local\Temp\ccZHF2NV.s 			page 54


 2011              	.LVL258:
 2012              	.L121:
 2013 04ae 2278     		ldrb	r2, [r4]
 2014 04b0 002A     		cmp	r2, #0
 2015 04b2 02D0     		beq	.L122
 2016 04b4 5A1E     		subs	r2, r3, #1
 2017              	.LVL259:
 2018 04b6 002B     		cmp	r3, #0
 2019 04b8 F7D1     		bne	.L123
 2020              	.LVL260:
 2021              	.L122:
 147:..\..\..\arduinoLCD\test\Pain Drain\libraries\lvgl\src\misc/lv_printf.c **** }
 2022              		.loc 1 147 0
 2023 04ba 0D9B     		ldr	r3, [sp, #52]
 2024 04bc E41A     		subs	r4, r4, r3
 2025              	.LVL261:
 2026              	.LBE43:
 2027              	.LBE42:
 822:..\..\..\arduinoLCD\test\Pain Drain\libraries\lvgl\src\misc/lv_printf.c ****                         l = (l < precision ? l : precision);
 2028              		.loc 1 822 0
 2029 04be 8023     		movs	r3, #128
 2030 04c0 DB00     		lsls	r3, r3, #3
 2031 04c2 3340     		ands	r3, r6
 2032 04c4 9946     		mov	r9, r3
 2033 04c6 02D0     		beq	.L124
 823:..\..\..\arduinoLCD\test\Pain Drain\libraries\lvgl\src\misc/lv_printf.c ****                     }
 2034              		.loc 1 823 0
 2035 04c8 4445     		cmp	r4, r8
 2036 04ca 00D9     		bls	.L124
 2037 04cc 4446     		mov	r4, r8
 2038              	.LVL262:
 2039              	.L124:
 825:..\..\..\arduinoLCD\test\Pain Drain\libraries\lvgl\src\misc/lv_printf.c ****                         while(l++ < width) {
 2040              		.loc 1 825 0
 2041 04ce 0223     		movs	r3, #2
 2042 04d0 3340     		ands	r3, r6
 2043 04d2 1293     		str	r3, [sp, #72]
 2044 04d4 0ED0     		beq	.L154
 2045 04d6 3A00     		movs	r2, r7
 2046 04d8 4746     		mov	r7, r8
 2047              	.LVL263:
 2048 04da 0D9E     		ldr	r6, [sp, #52]
 2049              	.LVL264:
 2050 04dc A846     		mov	r8, r5
 2051              	.LVL265:
 2052 04de 4D46     		mov	r5, r9
 2053              	.LVL266:
 2054 04e0 A146     		mov	r9, r4
 2055 04e2 1DE0     		b	.L129
 2056              	.LVL267:
 2057              	.L128:
 827:..\..\..\arduinoLCD\test\Pain Drain\libraries\lvgl\src\misc/lv_printf.c ****                         }
 2058              		.loc 1 827 0
 2059 04e4 571C     		adds	r7, r2, #1
 2060              	.LVL268:
 2061 04e6 0B9B     		ldr	r3, [sp, #44]
 2062 04e8 0C99     		ldr	r1, [sp, #48]
ARM GAS  C:\Users\haske\AppData\Local\Temp\ccZHF2NV.s 			page 55


 2063 04ea 2020     		movs	r0, #32
 2064 04ec D047     		blx	r10
 2065              	.LVL269:
 826:..\..\..\arduinoLCD\test\Pain Drain\libraries\lvgl\src\misc/lv_printf.c ****                             out(' ', buffer, idx++, maxlen);
 2066              		.loc 1 826 0
 2067 04ee 3400     		movs	r4, r6
 827:..\..\..\arduinoLCD\test\Pain Drain\libraries\lvgl\src\misc/lv_printf.c ****                         }
 2068              		.loc 1 827 0
 2069 04f0 3A00     		movs	r2, r7
 2070 04f2 02E0     		b	.L126
 2071              	.LVL270:
 2072              	.L154:
 2073 04f4 3A00     		movs	r2, r7
 2074 04f6 AA46     		mov	r10, r5
 2075 04f8 5D46     		mov	r5, fp
 2076              	.LVL271:
 2077              	.L126:
 826:..\..\..\arduinoLCD\test\Pain Drain\libraries\lvgl\src\misc/lv_printf.c ****                             out(' ', buffer, idx++, maxlen);
 2078              		.loc 1 826 0
 2079 04fa 661C     		adds	r6, r4, #1
 2080              	.LVL272:
 2081 04fc A542     		cmp	r5, r4
 2082 04fe F1D8     		bhi	.L128
 2083 0500 AB46     		mov	fp, r5
 2084 0502 5546     		mov	r5, r10
 2085              	.LVL273:
 2086 0504 B246     		mov	r10, r6
 2087              	.LVL274:
 2088 0506 4746     		mov	r7, r8
 2089 0508 0D9E     		ldr	r6, [sp, #52]
 2090              	.LVL275:
 2091 050a A846     		mov	r8, r5
 2092              	.LVL276:
 2093 050c 4D46     		mov	r5, r9
 2094              	.LVL277:
 2095 050e D146     		mov	r9, r10
 2096 0510 06E0     		b	.L129
 2097              	.LVL278:
 2098              	.L151:
 831:..\..\..\arduinoLCD\test\Pain Drain\libraries\lvgl\src\misc/lv_printf.c ****                         out(*(p++), buffer, idx++, maxlen);
 2099              		.loc 1 831 0
 2100 0512 1F00     		movs	r7, r3
 2101              	.LVL279:
 2102              	.L131:
 832:..\..\..\arduinoLCD\test\Pain Drain\libraries\lvgl\src\misc/lv_printf.c ****                     }
 2103              		.loc 1 832 0
 2104 0514 0136     		adds	r6, r6, #1
 2105              	.LVL280:
 2106 0516 541C     		adds	r4, r2, #1
 2107              	.LVL281:
 2108 0518 0B9B     		ldr	r3, [sp, #44]
 2109 051a 0C99     		ldr	r1, [sp, #48]
 2110 051c C047     		blx	r8
 2111              	.LVL282:
 2112 051e 2200     		movs	r2, r4
 2113              	.LVL283:
 2114              	.L129:
ARM GAS  C:\Users\haske\AppData\Local\Temp\ccZHF2NV.s 			page 56


 831:..\..\..\arduinoLCD\test\Pain Drain\libraries\lvgl\src\misc/lv_printf.c ****                         out(*(p++), buffer, idx++, maxlen);
 2115              		.loc 1 831 0
 2116 0520 3078     		ldrb	r0, [r6]
 2117 0522 0028     		cmp	r0, #0
 2118 0524 04D0     		beq	.L130
 831:..\..\..\arduinoLCD\test\Pain Drain\libraries\lvgl\src\misc/lv_printf.c ****                         out(*(p++), buffer, idx++, maxlen);
 2119              		.loc 1 831 0 is_stmt 0 discriminator 1
 2120 0526 002D     		cmp	r5, #0
 2121 0528 F4D0     		beq	.L131
 831:..\..\..\arduinoLCD\test\Pain Drain\libraries\lvgl\src\misc/lv_printf.c ****                         out(*(p++), buffer, idx++, maxlen);
 2122              		.loc 1 831 0 discriminator 2
 2123 052a 7B1E     		subs	r3, r7, #1
 2124              	.LVL284:
 2125 052c 002F     		cmp	r7, #0
 2126 052e F0D1     		bne	.L151
 2127              	.LVL285:
 2128              	.L130:
 2129 0530 1700     		movs	r7, r2
 2130 0532 4C46     		mov	r4, r9
 2131 0534 4546     		mov	r5, r8
 835:..\..\..\arduinoLCD\test\Pain Drain\libraries\lvgl\src\misc/lv_printf.c ****                         while(l++ < width) {
 2132              		.loc 1 835 0 is_stmt 1
 2133 0536 129B     		ldr	r3, [sp, #72]
 2134 0538 002B     		cmp	r3, #0
 2135 053a 08D1     		bne	.L155
 2136              	.LVL286:
 2137 053c 0DE0     		b	.L133
 2138              	.LVL287:
 2139              	.L134:
 837:..\..\..\arduinoLCD\test\Pain Drain\libraries\lvgl\src\misc/lv_printf.c ****                         }
 2140              		.loc 1 837 0
 2141 053e 571C     		adds	r7, r2, #1
 2142              	.LVL288:
 2143 0540 0B9B     		ldr	r3, [sp, #44]
 2144 0542 0C99     		ldr	r1, [sp, #48]
 2145 0544 2020     		movs	r0, #32
 2146 0546 C047     		blx	r8
 2147              	.LVL289:
 836:..\..\..\arduinoLCD\test\Pain Drain\libraries\lvgl\src\misc/lv_printf.c ****                             out(' ', buffer, idx++, maxlen);
 2148              		.loc 1 836 0
 2149 0548 3400     		movs	r4, r6
 837:..\..\..\arduinoLCD\test\Pain Drain\libraries\lvgl\src\misc/lv_printf.c ****                         }
 2150              		.loc 1 837 0
 2151 054a 3A00     		movs	r2, r7
 2152 054c 00E0     		b	.L132
 2153              	.LVL290:
 2154              	.L155:
 2155 054e 5D46     		mov	r5, fp
 2156              	.LVL291:
 2157              	.L132:
 836:..\..\..\arduinoLCD\test\Pain Drain\libraries\lvgl\src\misc/lv_printf.c ****                             out(' ', buffer, idx++, maxlen);
 2158              		.loc 1 836 0
 2159 0550 661C     		adds	r6, r4, #1
 2160              	.LVL292:
 2161 0552 A542     		cmp	r5, r4
 2162 0554 F3D8     		bhi	.L134
 2163 0556 1700     		movs	r7, r2
ARM GAS  C:\Users\haske\AppData\Local\Temp\ccZHF2NV.s 			page 57


 2164 0558 4546     		mov	r5, r8
 2165              	.LVL293:
 2166              	.L133:
 840:..\..\..\arduinoLCD\test\Pain Drain\libraries\lvgl\src\misc/lv_printf.c ****                     break;
 2167              		.loc 1 840 0
 2168 055a 139B     		ldr	r3, [sp, #76]
 2169 055c 0133     		adds	r3, r3, #1
 2170 055e 1393     		str	r3, [sp, #76]
 841:..\..\..\arduinoLCD\test\Pain Drain\libraries\lvgl\src\misc/lv_printf.c ****                 }
 2171              		.loc 1 841 0
 2172 0560 13E0     		b	.L62
 2173              	.LVL294:
 2174              	.L88:
 2175              	.LBE41:
 2176              		.loc 1 845 0
 2177 0562 7C1C     		adds	r4, r7, #1
 2178              	.LVL295:
 2179 0564 0B9B     		ldr	r3, [sp, #44]
 2180 0566 3A00     		movs	r2, r7
 2181 0568 0C99     		ldr	r1, [sp, #48]
 2182 056a 2520     		movs	r0, #37
 2183 056c A847     		blx	r5
 2184              	.LVL296:
 846:..\..\..\arduinoLCD\test\Pain Drain\libraries\lvgl\src\misc/lv_printf.c ****                 format++;
 2185              		.loc 1 846 0
 2186 056e 139B     		ldr	r3, [sp, #76]
 2187 0570 0133     		adds	r3, r3, #1
 2188 0572 1393     		str	r3, [sp, #76]
 845:..\..\..\arduinoLCD\test\Pain Drain\libraries\lvgl\src\misc/lv_printf.c ****                 format++;
 2189              		.loc 1 845 0
 2190 0574 2700     		movs	r7, r4
 847:..\..\..\arduinoLCD\test\Pain Drain\libraries\lvgl\src\misc/lv_printf.c ****                 break;
 2191              		.loc 1 847 0
 2192 0576 08E0     		b	.L62
 2193              	.LVL297:
 2194              	.L87:
 848:..\..\..\arduinoLCD\test\Pain Drain\libraries\lvgl\src\misc/lv_printf.c **** 
 849:..\..\..\arduinoLCD\test\Pain Drain\libraries\lvgl\src\misc/lv_printf.c ****             default :
 850:..\..\..\arduinoLCD\test\Pain Drain\libraries\lvgl\src\misc/lv_printf.c ****                 out(*format, buffer, idx++, maxlen);
 2195              		.loc 1 850 0
 2196 0578 7C1C     		adds	r4, r7, #1
 2197              	.LVL298:
 2198 057a 0B9B     		ldr	r3, [sp, #44]
 2199 057c 3A00     		movs	r2, r7
 2200 057e 0C99     		ldr	r1, [sp, #48]
 2201 0580 A847     		blx	r5
 2202              	.LVL299:
 851:..\..\..\arduinoLCD\test\Pain Drain\libraries\lvgl\src\misc/lv_printf.c ****                 format++;
 2203              		.loc 1 851 0
 2204 0582 139B     		ldr	r3, [sp, #76]
 2205 0584 0133     		adds	r3, r3, #1
 2206 0586 1393     		str	r3, [sp, #76]
 850:..\..\..\arduinoLCD\test\Pain Drain\libraries\lvgl\src\misc/lv_printf.c ****                 format++;
 2207              		.loc 1 850 0
 2208 0588 2700     		movs	r7, r4
 2209              	.LVL300:
 2210              	.L62:
ARM GAS  C:\Users\haske\AppData\Local\Temp\ccZHF2NV.s 			page 58


 560:..\..\..\arduinoLCD\test\Pain Drain\libraries\lvgl\src\misc/lv_printf.c ****         // format specifier?  %[flags][width][.precision][length]
 2211              		.loc 1 560 0
 2212 058a 139B     		ldr	r3, [sp, #76]
 2213 058c 1878     		ldrb	r0, [r3]
 2214 058e 0028     		cmp	r0, #0
 2215 0590 00D0     		beq	.LCB2563
 2216 0592 47E5     		b	.L135	@long jump
 2217              	.LCB2563:
 2218 0594 AB46     		mov	fp, r5
 852:..\..\..\arduinoLCD\test\Pain Drain\libraries\lvgl\src\misc/lv_printf.c ****                 break;
 853:..\..\..\arduinoLCD\test\Pain Drain\libraries\lvgl\src\misc/lv_printf.c ****         }
 854:..\..\..\arduinoLCD\test\Pain Drain\libraries\lvgl\src\misc/lv_printf.c ****     }
 855:..\..\..\arduinoLCD\test\Pain Drain\libraries\lvgl\src\misc/lv_printf.c **** 
 856:..\..\..\arduinoLCD\test\Pain Drain\libraries\lvgl\src\misc/lv_printf.c ****     // termination
 857:..\..\..\arduinoLCD\test\Pain Drain\libraries\lvgl\src\misc/lv_printf.c ****     out((char)0, buffer, idx < maxlen ? idx : maxlen - 1U, maxlen);
 2219              		.loc 1 857 0
 2220 0596 0B9A     		ldr	r2, [sp, #44]
 2221 0598 9742     		cmp	r7, r2
 2222 059a 01D3     		bcc	.L152
 2223              		.loc 1 857 0 is_stmt 0 discriminator 1
 2224 059c 013A     		subs	r2, r2, #1
 2225 059e 00E0     		b	.L136
 2226              	.L152:
 2227              		.loc 1 857 0
 2228 05a0 3A00     		movs	r2, r7
 2229              	.L136:
 2230              		.loc 1 857 0 discriminator 4
 2231 05a2 0B9B     		ldr	r3, [sp, #44]
 2232 05a4 0C99     		ldr	r1, [sp, #48]
 2233 05a6 0020     		movs	r0, #0
 2234 05a8 D847     		blx	fp
 2235              	.LVL301:
 858:..\..\..\arduinoLCD\test\Pain Drain\libraries\lvgl\src\misc/lv_printf.c **** 
 859:..\..\..\arduinoLCD\test\Pain Drain\libraries\lvgl\src\misc/lv_printf.c ****     // return written chars without terminating \0
 860:..\..\..\arduinoLCD\test\Pain Drain\libraries\lvgl\src\misc/lv_printf.c ****     return (int)idx;
 861:..\..\..\arduinoLCD\test\Pain Drain\libraries\lvgl\src\misc/lv_printf.c **** }
 2236              		.loc 1 861 0 is_stmt 1 discriminator 4
 2237 05aa 3800     		movs	r0, r7
 2238 05ac 17B0     		add	sp, sp, #92
 2239              		@ sp needed
 2240              	.LVL302:
 2241              	.LVL303:
 2242              	.LVL304:
 2243 05ae 3CBC     		pop	{r2, r3, r4, r5}
 2244 05b0 9046     		mov	r8, r2
 2245 05b2 9946     		mov	r9, r3
 2246 05b4 A246     		mov	r10, r4
 2247 05b6 AB46     		mov	fp, r5
 2248 05b8 F0BD     		pop	{r4, r5, r6, r7, pc}
 2249              		.cfi_endproc
 2250              	.LFE9:
 2251              		.size	_vsnprintf, .-_vsnprintf
 2252 05ba C046     		.section	.text.lv_snprintf,"ax",%progbits
 2253              		.align	2
 2254              		.global	lv_snprintf
 2255              		.code	16
 2256              		.thumb_func
ARM GAS  C:\Users\haske\AppData\Local\Temp\ccZHF2NV.s 			page 59


 2257              		.type	lv_snprintf, %function
 2258              	lv_snprintf:
 2259              	.LFB10:
 862:..\..\..\arduinoLCD\test\Pain Drain\libraries\lvgl\src\misc/lv_printf.c **** 
 863:..\..\..\arduinoLCD\test\Pain Drain\libraries\lvgl\src\misc/lv_printf.c **** ///////////////////////////////////////////////////////////////////////////////
 864:..\..\..\arduinoLCD\test\Pain Drain\libraries\lvgl\src\misc/lv_printf.c **** 
 865:..\..\..\arduinoLCD\test\Pain Drain\libraries\lvgl\src\misc/lv_printf.c **** int lv_snprintf(char * buffer, size_t count, const char * format, ...)
 866:..\..\..\arduinoLCD\test\Pain Drain\libraries\lvgl\src\misc/lv_printf.c **** {
 2260              		.loc 1 866 0
 2261              		.cfi_startproc
 2262              		@ args = 4, pretend = 8, frame = 8
 2263              		@ frame_needed = 0, uses_anonymous_args = 1
 2264              	.LVL305:
 2265 0000 0CB4     		push	{r2, r3}
 2266              		.cfi_def_cfa_offset 8
 2267 0002 10B5     		push	{r4, lr}
 2268              		.cfi_def_cfa_offset 16
 2269              		.cfi_offset 4, -16
 2270              		.cfi_offset 14, -12
 2271 0004 84B0     		sub	sp, sp, #16
 2272              		.cfi_def_cfa_offset 32
 2273 0006 0A00     		movs	r2, r1
 2274 0008 06AC     		add	r4, sp, #24
 2275 000a 08CC     		ldmia	r4!, {r3}
 867:..\..\..\arduinoLCD\test\Pain Drain\libraries\lvgl\src\misc/lv_printf.c ****     va_list va;
 868:..\..\..\arduinoLCD\test\Pain Drain\libraries\lvgl\src\misc/lv_printf.c ****     va_start(va, format);
 2276              		.loc 1 868 0
 2277 000c 0394     		str	r4, [sp, #12]
 869:..\..\..\arduinoLCD\test\Pain Drain\libraries\lvgl\src\misc/lv_printf.c ****     const int ret = _vsnprintf(_out_buffer, buffer, count, format, va);
 2278              		.loc 1 869 0
 2279 000e 0094     		str	r4, [sp]
 2280 0010 0100     		movs	r1, r0
 2281              	.LVL306:
 2282 0012 0448     		ldr	r0, .L159
 2283              	.LVL307:
 2284 0014 FFF7FEFF 		bl	_vsnprintf
 2285              	.LVL308:
 870:..\..\..\arduinoLCD\test\Pain Drain\libraries\lvgl\src\misc/lv_printf.c ****     va_end(va);
 871:..\..\..\arduinoLCD\test\Pain Drain\libraries\lvgl\src\misc/lv_printf.c ****     return ret;
 872:..\..\..\arduinoLCD\test\Pain Drain\libraries\lvgl\src\misc/lv_printf.c **** }
 2286              		.loc 1 872 0
 2287 0018 04B0     		add	sp, sp, #16
 2288              		@ sp needed
 2289 001a 10BC     		pop	{r4}
 2290 001c 08BC     		pop	{r3}
 2291 001e 02B0     		add	sp, sp, #8
 2292 0020 1847     		bx	r3
 2293              	.L160:
 2294 0022 C046     		.align	2
 2295              	.L159:
 2296 0024 00000000 		.word	_out_buffer
 2297              		.cfi_endproc
 2298              	.LFE10:
 2299              		.size	lv_snprintf, .-lv_snprintf
 2300              		.section	.text.lv_vsnprintf,"ax",%progbits
 2301              		.align	2
 2302              		.global	lv_vsnprintf
ARM GAS  C:\Users\haske\AppData\Local\Temp\ccZHF2NV.s 			page 60


 2303              		.code	16
 2304              		.thumb_func
 2305              		.type	lv_vsnprintf, %function
 2306              	lv_vsnprintf:
 2307              	.LFB11:
 873:..\..\..\arduinoLCD\test\Pain Drain\libraries\lvgl\src\misc/lv_printf.c **** 
 874:..\..\..\arduinoLCD\test\Pain Drain\libraries\lvgl\src\misc/lv_printf.c **** int lv_vsnprintf(char * buffer, size_t count, const char * format, va_list va)
 875:..\..\..\arduinoLCD\test\Pain Drain\libraries\lvgl\src\misc/lv_printf.c **** {
 2308              		.loc 1 875 0
 2309              		.cfi_startproc
 2310              		@ args = 0, pretend = 0, frame = 0
 2311              		@ frame_needed = 0, uses_anonymous_args = 0
 2312              	.LVL309:
 2313 0000 00B5     		push	{lr}
 2314              		.cfi_def_cfa_offset 4
 2315              		.cfi_offset 14, -4
 2316 0002 83B0     		sub	sp, sp, #12
 2317              		.cfi_def_cfa_offset 16
 876:..\..\..\arduinoLCD\test\Pain Drain\libraries\lvgl\src\misc/lv_printf.c ****     return _vsnprintf(_out_buffer, buffer, count, format, va);
 2318              		.loc 1 876 0
 2319 0004 0093     		str	r3, [sp]
 2320 0006 1300     		movs	r3, r2
 2321              	.LVL310:
 2322 0008 0A00     		movs	r2, r1
 2323              	.LVL311:
 2324 000a 0100     		movs	r1, r0
 2325              	.LVL312:
 2326 000c 0248     		ldr	r0, .L162
 2327              	.LVL313:
 2328 000e FFF7FEFF 		bl	_vsnprintf
 2329              	.LVL314:
 877:..\..\..\arduinoLCD\test\Pain Drain\libraries\lvgl\src\misc/lv_printf.c **** }
 2330              		.loc 1 877 0
 2331 0012 03B0     		add	sp, sp, #12
 2332              		@ sp needed
 2333 0014 00BD     		pop	{pc}
 2334              	.L163:
 2335 0016 C046     		.align	2
 2336              	.L162:
 2337 0018 00000000 		.word	_out_buffer
 2338              		.cfi_endproc
 2339              	.LFE11:
 2340              		.size	lv_vsnprintf, .-lv_vsnprintf
 2341              		.text
 2342              	.Letext0:
 2343              		.file 2 "c:\\program files (x86)\\cypress\\psoc creator\\4.4\\psoc creator\\import\\gnu\\arm\\5.4.
 2344              		.file 3 "c:\\program files (x86)\\cypress\\psoc creator\\4.4\\psoc creator\\import\\gnu\\arm\\5.4.
 2345              		.file 4 "..\\..\\..\\arduinoLCD\\test\\Pain Drain\\libraries\\lvgl\\src\\misc\\lv_printf.h"
 2346              		.file 5 "<built-in>"