ARM GAS  C:\Users\haske\AppData\Local\Temp\ccZHF2NV.s 			page 1


   1              		.syntax unified
   2              		.cpu cortex-m0plus
   3              		.fpu softvfp
   4              		.eabi_attribute 20, 1
   5              		.eabi_attribute 21, 1
   6              		.eabi_attribute 23, 3
   7              		.eabi_attribute 24, 1
   8              		.eabi_attribute 25, 1
   9              		.eabi_attribute 26, 1
  10              		.eabi_attribute 30, 1
  11              		.eabi_attribute 34, 0
  12              		.eabi_attribute 18, 4
  13              		.thumb
  14              		.syntax unified
  15              		.file	"lv_printf.c"
  16              		.text
  17              	.Ltext0:
  18              		.cfi_sections	.debug_frame
  19              		.section	.text._out_buffer,"ax",%progbits
  20              		.align	2
  21              		.code	16
  22              		.thumb_func
  23              		.type	_out_buffer, %function
  24              	_out_buffer:
  25              	.LFB0:
  26              		.file 1 "..\\..\\..\\arduinoLCD\\test\\Pain Drain\\libraries\\lvgl\\src\\misc\\lv_printf.c"
   1:..\..\..\arduinoLCD\test\Pain Drain\libraries\lvgl\src\misc/lv_printf.c **** ///////////////////////////////////////////////////////////////////////////////
   2:..\..\..\arduinoLCD\test\Pain Drain\libraries\lvgl\src\misc/lv_printf.c **** // \author (c) Marco Paland (info@paland.com)
   3:..\..\..\arduinoLCD\test\Pain Drain\libraries\lvgl\src\misc/lv_printf.c **** //             2014-2019, PALANDesign Hannover, Germany
   4:..\..\..\arduinoLCD\test\Pain Drain\libraries\lvgl\src\misc/lv_printf.c **** //
   5:..\..\..\arduinoLCD\test\Pain Drain\libraries\lvgl\src\misc/lv_printf.c **** // \license The MIT License (MIT)
   6:..\..\..\arduinoLCD\test\Pain Drain\libraries\lvgl\src\misc/lv_printf.c **** //
   7:..\..\..\arduinoLCD\test\Pain Drain\libraries\lvgl\src\misc/lv_printf.c **** // Permission is hereby granted, free of charge, to any person obtaining a copy
   8:..\..\..\arduinoLCD\test\Pain Drain\libraries\lvgl\src\misc/lv_printf.c **** // of this software and associated documentation files (the "Software"), to deal
   9:..\..\..\arduinoLCD\test\Pain Drain\libraries\lvgl\src\misc/lv_printf.c **** // in the Software without restriction, including without limitation the rights
  10:..\..\..\arduinoLCD\test\Pain Drain\libraries\lvgl\src\misc/lv_printf.c **** // to use, copy, modify, merge, publish, distribute, sublicense, and/or sell
  11:..\..\..\arduinoLCD\test\Pain Drain\libraries\lvgl\src\misc/lv_printf.c **** // copies of the Software, and to permit persons to whom the Software is
  12:..\..\..\arduinoLCD\test\Pain Drain\libraries\lvgl\src\misc/lv_printf.c **** // furnished to do so, subject to the following conditions:
  13:..\..\..\arduinoLCD\test\Pain Drain\libraries\lvgl\src\misc/lv_printf.c **** //
  14:..\..\..\arduinoLCD\test\Pain Drain\libraries\lvgl\src\misc/lv_printf.c **** // The above copyright notice and this permission notice shall be included in
  15:..\..\..\arduinoLCD\test\Pain Drain\libraries\lvgl\src\misc/lv_printf.c **** // all copies or substantial portions of the Software.
  16:..\..\..\arduinoLCD\test\Pain Drain\libraries\lvgl\src\misc/lv_printf.c **** //
  17:..\..\..\arduinoLCD\test\Pain Drain\libraries\lvgl\src\misc/lv_printf.c **** // THE SOFTWARE IS PROVIDED "AS IS", WITHOUT WARRANTY OF ANY KIND, EXPRESS OR
  18:..\..\..\arduinoLCD\test\Pain Drain\libraries\lvgl\src\misc/lv_printf.c **** // IMPLIED, INCLUDING BUT NOT LIMITED TO THE WARRANTIES OF MERCHANTABILITY,
  19:..\..\..\arduinoLCD\test\Pain Drain\libraries\lvgl\src\misc/lv_printf.c **** // FITNESS FOR A PARTICULAR PURPOSE AND NONINFRINGEMENT. IN NO EVENT SHALL THE
  20:..\..\..\arduinoLCD\test\Pain Drain\libraries\lvgl\src\misc/lv_printf.c **** // AUTHORS OR COPYRIGHT HOLDERS BE LIABLE FOR ANY CLAIM, DAMAGES OR OTHER
  21:..\..\..\arduinoLCD\test\Pain Drain\libraries\lvgl\src\misc/lv_printf.c **** // LIABILITY, WHETHER IN AN ACTION OF CONTRACT, TORT OR OTHERWISE, ARISING FROM,
  22:..\..\..\arduinoLCD\test\Pain Drain\libraries\lvgl\src\misc/lv_printf.c **** // OUT OF OR IN CONNECTION WITH THE SOFTWARE OR THE USE OR OTHER DEALINGS IN
  23:..\..\..\arduinoLCD\test\Pain Drain\libraries\lvgl\src\misc/lv_printf.c **** // THE SOFTWARE.
  24:..\..\..\arduinoLCD\test\Pain Drain\libraries\lvgl\src\misc/lv_printf.c **** //
  25:..\..\..\arduinoLCD\test\Pain Drain\libraries\lvgl\src\misc/lv_printf.c **** // \brief Tiny printf, sprintf and (v)snprintf implementation, optimized for speed on
  26:..\..\..\arduinoLCD\test\Pain Drain\libraries\lvgl\src\misc/lv_printf.c **** //        embedded systems with a very limited resources. These routines are thread
  27:..\..\..\arduinoLCD\test\Pain Drain\libraries\lvgl\src\misc/lv_printf.c **** //        safe and reentrant!
  28:..\..\..\arduinoLCD\test\Pain Drain\libraries\lvgl\src\misc/lv_printf.c **** //        Use this instead of the bloated standard/newlib printf cause these use
  29:..\..\..\arduinoLCD\test\Pain Drain\libraries\lvgl\src\misc/lv_printf.c **** //        malloc for printf (and may not be thread safe).
  30:..\..\..\arduinoLCD\test\Pain Drain\libraries\lvgl\src\misc/lv_printf.c **** //
  31:..\..\..\arduinoLCD\test\Pain Drain\libraries\lvgl\src\misc/lv_printf.c **** ///////////////////////////////////////////////////////////////////////////////
ARM GAS  C:\Users\haske\AppData\Local\Temp\ccZHF2NV.s 			page 2


  32:..\..\..\arduinoLCD\test\Pain Drain\libraries\lvgl\src\misc/lv_printf.c **** 
  33:..\..\..\arduinoLCD\test\Pain Drain\libraries\lvgl\src\misc/lv_printf.c **** /*Original repository: https://github.com/mpaland/printf*/
  34:..\..\..\arduinoLCD\test\Pain Drain\libraries\lvgl\src\misc/lv_printf.c **** 
  35:..\..\..\arduinoLCD\test\Pain Drain\libraries\lvgl\src\misc/lv_printf.c **** #include "lv_printf.h"
  36:..\..\..\arduinoLCD\test\Pain Drain\libraries\lvgl\src\misc/lv_printf.c **** 
  37:..\..\..\arduinoLCD\test\Pain Drain\libraries\lvgl\src\misc/lv_printf.c **** #if LV_SPRINTF_CUSTOM == 0
  38:..\..\..\arduinoLCD\test\Pain Drain\libraries\lvgl\src\misc/lv_printf.c **** 
  39:..\..\..\arduinoLCD\test\Pain Drain\libraries\lvgl\src\misc/lv_printf.c **** #include <stdbool.h>
  40:..\..\..\arduinoLCD\test\Pain Drain\libraries\lvgl\src\misc/lv_printf.c **** 
  41:..\..\..\arduinoLCD\test\Pain Drain\libraries\lvgl\src\misc/lv_printf.c **** #define PRINTF_DISABLE_SUPPORT_FLOAT    (!LV_SPRINTF_USE_FLOAT)
  42:..\..\..\arduinoLCD\test\Pain Drain\libraries\lvgl\src\misc/lv_printf.c **** 
  43:..\..\..\arduinoLCD\test\Pain Drain\libraries\lvgl\src\misc/lv_printf.c **** // 'ntoa' conversion buffer size, this must be big enough to hold one converted
  44:..\..\..\arduinoLCD\test\Pain Drain\libraries\lvgl\src\misc/lv_printf.c **** // numeric number including padded zeros (dynamically created on stack)
  45:..\..\..\arduinoLCD\test\Pain Drain\libraries\lvgl\src\misc/lv_printf.c **** // default: 32 byte
  46:..\..\..\arduinoLCD\test\Pain Drain\libraries\lvgl\src\misc/lv_printf.c **** #ifndef PRINTF_NTOA_BUFFER_SIZE
  47:..\..\..\arduinoLCD\test\Pain Drain\libraries\lvgl\src\misc/lv_printf.c ****     #define PRINTF_NTOA_BUFFER_SIZE    32U
  48:..\..\..\arduinoLCD\test\Pain Drain\libraries\lvgl\src\misc/lv_printf.c **** #endif
  49:..\..\..\arduinoLCD\test\Pain Drain\libraries\lvgl\src\misc/lv_printf.c **** 
  50:..\..\..\arduinoLCD\test\Pain Drain\libraries\lvgl\src\misc/lv_printf.c **** // 'ftoa' conversion buffer size, this must be big enough to hold one converted
  51:..\..\..\arduinoLCD\test\Pain Drain\libraries\lvgl\src\misc/lv_printf.c **** // float number including padded zeros (dynamically created on stack)
  52:..\..\..\arduinoLCD\test\Pain Drain\libraries\lvgl\src\misc/lv_printf.c **** // default: 32 byte
  53:..\..\..\arduinoLCD\test\Pain Drain\libraries\lvgl\src\misc/lv_printf.c **** #ifndef PRINTF_FTOA_BUFFER_SIZE
  54:..\..\..\arduinoLCD\test\Pain Drain\libraries\lvgl\src\misc/lv_printf.c ****     #define PRINTF_FTOA_BUFFER_SIZE    32U
  55:..\..\..\arduinoLCD\test\Pain Drain\libraries\lvgl\src\misc/lv_printf.c **** #endif
  56:..\..\..\arduinoLCD\test\Pain Drain\libraries\lvgl\src\misc/lv_printf.c **** 
  57:..\..\..\arduinoLCD\test\Pain Drain\libraries\lvgl\src\misc/lv_printf.c **** // support for the floating point type (%f)
  58:..\..\..\arduinoLCD\test\Pain Drain\libraries\lvgl\src\misc/lv_printf.c **** // default: activated
  59:..\..\..\arduinoLCD\test\Pain Drain\libraries\lvgl\src\misc/lv_printf.c **** #if !PRINTF_DISABLE_SUPPORT_FLOAT
  60:..\..\..\arduinoLCD\test\Pain Drain\libraries\lvgl\src\misc/lv_printf.c ****     #define PRINTF_SUPPORT_FLOAT
  61:..\..\..\arduinoLCD\test\Pain Drain\libraries\lvgl\src\misc/lv_printf.c **** #endif
  62:..\..\..\arduinoLCD\test\Pain Drain\libraries\lvgl\src\misc/lv_printf.c **** 
  63:..\..\..\arduinoLCD\test\Pain Drain\libraries\lvgl\src\misc/lv_printf.c **** // support for exponential floating point notation (%e/%g)
  64:..\..\..\arduinoLCD\test\Pain Drain\libraries\lvgl\src\misc/lv_printf.c **** // default: activated
  65:..\..\..\arduinoLCD\test\Pain Drain\libraries\lvgl\src\misc/lv_printf.c **** #ifndef PRINTF_DISABLE_SUPPORT_EXPONENTIAL
  66:..\..\..\arduinoLCD\test\Pain Drain\libraries\lvgl\src\misc/lv_printf.c ****     #define PRINTF_SUPPORT_EXPONENTIAL
  67:..\..\..\arduinoLCD\test\Pain Drain\libraries\lvgl\src\misc/lv_printf.c **** #endif
  68:..\..\..\arduinoLCD\test\Pain Drain\libraries\lvgl\src\misc/lv_printf.c **** 
  69:..\..\..\arduinoLCD\test\Pain Drain\libraries\lvgl\src\misc/lv_printf.c **** // define the default floating point precision
  70:..\..\..\arduinoLCD\test\Pain Drain\libraries\lvgl\src\misc/lv_printf.c **** // default: 6 digits
  71:..\..\..\arduinoLCD\test\Pain Drain\libraries\lvgl\src\misc/lv_printf.c **** #ifndef PRINTF_DEFAULT_FLOAT_PRECISION
  72:..\..\..\arduinoLCD\test\Pain Drain\libraries\lvgl\src\misc/lv_printf.c ****     #define PRINTF_DEFAULT_FLOAT_PRECISION 6U
  73:..\..\..\arduinoLCD\test\Pain Drain\libraries\lvgl\src\misc/lv_printf.c **** #endif
  74:..\..\..\arduinoLCD\test\Pain Drain\libraries\lvgl\src\misc/lv_printf.c **** 
  75:..\..\..\arduinoLCD\test\Pain Drain\libraries\lvgl\src\misc/lv_printf.c **** // define the largest float suitable to print with %f
  76:..\..\..\arduinoLCD\test\Pain Drain\libraries\lvgl\src\misc/lv_printf.c **** // default: 1e9
  77:..\..\..\arduinoLCD\test\Pain Drain\libraries\lvgl\src\misc/lv_printf.c **** #ifndef PRINTF_MAX_FLOAT
  78:..\..\..\arduinoLCD\test\Pain Drain\libraries\lvgl\src\misc/lv_printf.c ****     #define PRINTF_MAX_FLOAT 1e9
  79:..\..\..\arduinoLCD\test\Pain Drain\libraries\lvgl\src\misc/lv_printf.c **** #endif
  80:..\..\..\arduinoLCD\test\Pain Drain\libraries\lvgl\src\misc/lv_printf.c **** 
  81:..\..\..\arduinoLCD\test\Pain Drain\libraries\lvgl\src\misc/lv_printf.c **** // support for the long long types (%llu or %p)
  82:..\..\..\arduinoLCD\test\Pain Drain\libraries\lvgl\src\misc/lv_printf.c **** // default: activated
  83:..\..\..\arduinoLCD\test\Pain Drain\libraries\lvgl\src\misc/lv_printf.c **** #ifndef PRINTF_DISABLE_SUPPORT_LONG_LONG
  84:..\..\..\arduinoLCD\test\Pain Drain\libraries\lvgl\src\misc/lv_printf.c ****     #define PRINTF_SUPPORT_LONG_LONG
  85:..\..\..\arduinoLCD\test\Pain Drain\libraries\lvgl\src\misc/lv_printf.c **** #endif
  86:..\..\..\arduinoLCD\test\Pain Drain\libraries\lvgl\src\misc/lv_printf.c **** 
  87:..\..\..\arduinoLCD\test\Pain Drain\libraries\lvgl\src\misc/lv_printf.c **** // support for the ptrdiff_t type (%t)
  88:..\..\..\arduinoLCD\test\Pain Drain\libraries\lvgl\src\misc/lv_printf.c **** // ptrdiff_t is normally defined in <stddef.h> as long or long long type
ARM GAS  C:\Users\haske\AppData\Local\Temp\ccZHF2NV.s 			page 3


  89:..\..\..\arduinoLCD\test\Pain Drain\libraries\lvgl\src\misc/lv_printf.c **** // default: activated
  90:..\..\..\arduinoLCD\test\Pain Drain\libraries\lvgl\src\misc/lv_printf.c **** #ifndef PRINTF_DISABLE_SUPPORT_PTRDIFF_T
  91:..\..\..\arduinoLCD\test\Pain Drain\libraries\lvgl\src\misc/lv_printf.c ****     #define PRINTF_SUPPORT_PTRDIFF_T
  92:..\..\..\arduinoLCD\test\Pain Drain\libraries\lvgl\src\misc/lv_printf.c **** #endif
  93:..\..\..\arduinoLCD\test\Pain Drain\libraries\lvgl\src\misc/lv_printf.c **** 
  94:..\..\..\arduinoLCD\test\Pain Drain\libraries\lvgl\src\misc/lv_printf.c **** ///////////////////////////////////////////////////////////////////////////////
  95:..\..\..\arduinoLCD\test\Pain Drain\libraries\lvgl\src\misc/lv_printf.c **** 
  96:..\..\..\arduinoLCD\test\Pain Drain\libraries\lvgl\src\misc/lv_printf.c **** // internal flag definitions
  97:..\..\..\arduinoLCD\test\Pain Drain\libraries\lvgl\src\misc/lv_printf.c **** #define FLAGS_ZEROPAD   (1U <<  0U)
  98:..\..\..\arduinoLCD\test\Pain Drain\libraries\lvgl\src\misc/lv_printf.c **** #define FLAGS_LEFT      (1U <<  1U)
  99:..\..\..\arduinoLCD\test\Pain Drain\libraries\lvgl\src\misc/lv_printf.c **** #define FLAGS_PLUS      (1U <<  2U)
 100:..\..\..\arduinoLCD\test\Pain Drain\libraries\lvgl\src\misc/lv_printf.c **** #define FLAGS_SPACE     (1U <<  3U)
 101:..\..\..\arduinoLCD\test\Pain Drain\libraries\lvgl\src\misc/lv_printf.c **** #define FLAGS_HASH      (1U <<  4U)
 102:..\..\..\arduinoLCD\test\Pain Drain\libraries\lvgl\src\misc/lv_printf.c **** #define FLAGS_UPPERCASE (1U <<  5U)
 103:..\..\..\arduinoLCD\test\Pain Drain\libraries\lvgl\src\misc/lv_printf.c **** #define FLAGS_CHAR      (1U <<  6U)
 104:..\..\..\arduinoLCD\test\Pain Drain\libraries\lvgl\src\misc/lv_printf.c **** #define FLAGS_SHORT     (1U <<  7U)
 105:..\..\..\arduinoLCD\test\Pain Drain\libraries\lvgl\src\misc/lv_printf.c **** #define FLAGS_LONG      (1U <<  8U)
 106:..\..\..\arduinoLCD\test\Pain Drain\libraries\lvgl\src\misc/lv_printf.c **** #define FLAGS_LONG_LONG (1U <<  9U)
 107:..\..\..\arduinoLCD\test\Pain Drain\libraries\lvgl\src\misc/lv_printf.c **** #define FLAGS_PRECISION (1U << 10U)
 108:..\..\..\arduinoLCD\test\Pain Drain\libraries\lvgl\src\misc/lv_printf.c **** #define FLAGS_ADAPT_EXP (1U << 11U)
 109:..\..\..\arduinoLCD\test\Pain Drain\libraries\lvgl\src\misc/lv_printf.c **** 
 110:..\..\..\arduinoLCD\test\Pain Drain\libraries\lvgl\src\misc/lv_printf.c **** // import float.h for DBL_MAX
 111:..\..\..\arduinoLCD\test\Pain Drain\libraries\lvgl\src\misc/lv_printf.c **** #if defined(PRINTF_SUPPORT_FLOAT)
 112:..\..\..\arduinoLCD\test\Pain Drain\libraries\lvgl\src\misc/lv_printf.c ****     #include <float.h>
 113:..\..\..\arduinoLCD\test\Pain Drain\libraries\lvgl\src\misc/lv_printf.c **** #endif
 114:..\..\..\arduinoLCD\test\Pain Drain\libraries\lvgl\src\misc/lv_printf.c **** 
 115:..\..\..\arduinoLCD\test\Pain Drain\libraries\lvgl\src\misc/lv_printf.c **** // output function type
 116:..\..\..\arduinoLCD\test\Pain Drain\libraries\lvgl\src\misc/lv_printf.c **** typedef void (*out_fct_type)(char character, void * buffer, size_t idx, size_t maxlen);
 117:..\..\..\arduinoLCD\test\Pain Drain\libraries\lvgl\src\misc/lv_printf.c **** 
 118:..\..\..\arduinoLCD\test\Pain Drain\libraries\lvgl\src\misc/lv_printf.c **** // wrapper (used as buffer) for output function type
 119:..\..\..\arduinoLCD\test\Pain Drain\libraries\lvgl\src\misc/lv_printf.c **** typedef struct {
 120:..\..\..\arduinoLCD\test\Pain Drain\libraries\lvgl\src\misc/lv_printf.c ****     void (*fct)(char character, void * arg);
 121:..\..\..\arduinoLCD\test\Pain Drain\libraries\lvgl\src\misc/lv_printf.c ****     void * arg;
 122:..\..\..\arduinoLCD\test\Pain Drain\libraries\lvgl\src\misc/lv_printf.c **** } out_fct_wrap_type;
 123:..\..\..\arduinoLCD\test\Pain Drain\libraries\lvgl\src\misc/lv_printf.c **** 
 124:..\..\..\arduinoLCD\test\Pain Drain\libraries\lvgl\src\misc/lv_printf.c **** // internal buffer output
 125:..\..\..\arduinoLCD\test\Pain Drain\libraries\lvgl\src\misc/lv_printf.c **** static inline void _out_buffer(char character, void * buffer, size_t idx, size_t maxlen)
 126:..\..\..\arduinoLCD\test\Pain Drain\libraries\lvgl\src\misc/lv_printf.c **** {
  27              		.loc 1 126 0
  28              		.cfi_startproc
  29              		@ args = 0, pretend = 0, frame = 0
  30              		@ frame_needed = 0, uses_anonymous_args = 0
  31              		@ link register save eliminated.
  32              	.LVL0:
 127:..\..\..\arduinoLCD\test\Pain Drain\libraries\lvgl\src\misc/lv_printf.c ****     if(idx < maxlen) {
  33              		.loc 1 127 0
  34 0000 9A42     		cmp	r2, r3
  35 0002 00D2     		bcs	.L1
 128:..\..\..\arduinoLCD\test\Pain Drain\libraries\lvgl\src\misc/lv_printf.c ****         ((char *)buffer)[idx] = character;
  36              		.loc 1 128 0
  37 0004 8854     		strb	r0, [r1, r2]
  38              	.L1:
 129:..\..\..\arduinoLCD\test\Pain Drain\libraries\lvgl\src\misc/lv_printf.c ****     }
 130:..\..\..\arduinoLCD\test\Pain Drain\libraries\lvgl\src\misc/lv_printf.c **** }
  39              		.loc 1 130 0
  40              		@ sp needed
  41 0006 7047     		bx	lr
ARM GAS  C:\Users\haske\AppData\Local\Temp\ccZHF2NV.s 			page 4


  42              		.cfi_endproc
  43              	.LFE0:
  44              		.size	_out_buffer, .-_out_buffer
  45              		.section	.text._out_null,"ax",%progbits
  46              		.align	2
  47              		.code	16
  48              		.thumb_func
  49              		.type	_out_null, %function
  50              	_out_null:
  51              	.LFB1:
 131:..\..\..\arduinoLCD\test\Pain Drain\libraries\lvgl\src\misc/lv_printf.c **** 
 132:..\..\..\arduinoLCD\test\Pain Drain\libraries\lvgl\src\misc/lv_printf.c **** // internal null output
 133:..\..\..\arduinoLCD\test\Pain Drain\libraries\lvgl\src\misc/lv_printf.c **** static inline void _out_null(char character, void * buffer, size_t idx, size_t maxlen)
 134:..\..\..\arduinoLCD\test\Pain Drain\libraries\lvgl\src\misc/lv_printf.c **** {
  52              		.loc 1 134 0
  53              		.cfi_startproc
  54              		@ args = 0, pretend = 0, frame = 0
  55              		@ frame_needed = 0, uses_anonymous_args = 0
  56              		@ link register save eliminated.
  57              	.LVL1:
 135:..\..\..\arduinoLCD\test\Pain Drain\libraries\lvgl\src\misc/lv_printf.c ****     LV_UNUSED(character);
 136:..\..\..\arduinoLCD\test\Pain Drain\libraries\lvgl\src\misc/lv_printf.c ****     LV_UNUSED(buffer);
 137:..\..\..\arduinoLCD\test\Pain Drain\libraries\lvgl\src\misc/lv_printf.c ****     LV_UNUSED(idx);
 138:..\..\..\arduinoLCD\test\Pain Drain\libraries\lvgl\src\misc/lv_printf.c ****     LV_UNUSED(maxlen);
 139:..\..\..\arduinoLCD\test\Pain Drain\libraries\lvgl\src\misc/lv_printf.c **** }
  58              		.loc 1 139 0
  59              		@ sp needed
  60 0000 7047     		bx	lr
  61              		.cfi_endproc
  62              	.LFE1:
  63              		.size	_out_null, .-_out_null
  64 0002 C046     		.section	.text._atoi,"ax",%progbits
  65              		.align	2
  66              		.code	16
  67              		.thumb_func
  68              		.type	_atoi, %function
  69              	_atoi:
  70              	.LFB4:
 140:..\..\..\arduinoLCD\test\Pain Drain\libraries\lvgl\src\misc/lv_printf.c **** 
 141:..\..\..\arduinoLCD\test\Pain Drain\libraries\lvgl\src\misc/lv_printf.c **** // internal secure strlen
 142:..\..\..\arduinoLCD\test\Pain Drain\libraries\lvgl\src\misc/lv_printf.c **** // \return The length of the string (excluding the terminating 0) limited by 'maxsize'
 143:..\..\..\arduinoLCD\test\Pain Drain\libraries\lvgl\src\misc/lv_printf.c **** static inline unsigned int _strnlen_s(const char * str, size_t maxsize)
 144:..\..\..\arduinoLCD\test\Pain Drain\libraries\lvgl\src\misc/lv_printf.c **** {
 145:..\..\..\arduinoLCD\test\Pain Drain\libraries\lvgl\src\misc/lv_printf.c ****     const char * s;
 146:..\..\..\arduinoLCD\test\Pain Drain\libraries\lvgl\src\misc/lv_printf.c ****     for(s = str; *s && maxsize--; ++s);
 147:..\..\..\arduinoLCD\test\Pain Drain\libraries\lvgl\src\misc/lv_printf.c ****     return (unsigned int)(s - str);
 148:..\..\..\arduinoLCD\test\Pain Drain\libraries\lvgl\src\misc/lv_printf.c **** }
 149:..\..\..\arduinoLCD\test\Pain Drain\libraries\lvgl\src\misc/lv_printf.c **** 
 150:..\..\..\arduinoLCD\test\Pain Drain\libraries\lvgl\src\misc/lv_printf.c **** // internal test if char is a digit (0-9)
 151:..\..\..\arduinoLCD\test\Pain Drain\libraries\lvgl\src\misc/lv_printf.c **** // \return true if char is a digit
 152:..\..\..\arduinoLCD\test\Pain Drain\libraries\lvgl\src\misc/lv_printf.c **** static inline bool _is_digit(char ch)
 153:..\..\..\arduinoLCD\test\Pain Drain\libraries\lvgl\src\misc/lv_printf.c **** {
 154:..\..\..\arduinoLCD\test\Pain Drain\libraries\lvgl\src\misc/lv_printf.c ****     return (ch >= '0') && (ch <= '9');
 155:..\..\..\arduinoLCD\test\Pain Drain\libraries\lvgl\src\misc/lv_printf.c **** }
 156:..\..\..\arduinoLCD\test\Pain Drain\libraries\lvgl\src\misc/lv_printf.c **** 
 157:..\..\..\arduinoLCD\test\Pain Drain\libraries\lvgl\src\misc/lv_printf.c **** // internal ASCII string to unsigned int conversion
 158:..\..\..\arduinoLCD\test\Pain Drain\libraries\lvgl\src\misc/lv_printf.c **** static unsigned int _atoi(const char ** str)
ARM GAS  C:\Users\haske\AppData\Local\Temp\ccZHF2NV.s 			page 5


 159:..\..\..\arduinoLCD\test\Pain Drain\libraries\lvgl\src\misc/lv_printf.c **** {
  71              		.loc 1 159 0
  72              		.cfi_startproc
  73              		@ args = 0, pretend = 0, frame = 0
  74              		@ frame_needed = 0, uses_anonymous_args = 0
  75              	.LVL2:
  76 0000 10B5     		push	{r4, lr}
  77              		.cfi_def_cfa_offset 8
  78              		.cfi_offset 4, -8
  79              		.cfi_offset 14, -4
  80 0002 0400     		movs	r4, r0
  81              	.LVL3:
 160:..\..\..\arduinoLCD\test\Pain Drain\libraries\lvgl\src\misc/lv_printf.c ****     unsigned int i = 0U;
  82              		.loc 1 160 0
  83 0004 0022     		movs	r2, #0
 161:..\..\..\arduinoLCD\test\Pain Drain\libraries\lvgl\src\misc/lv_printf.c ****     while(_is_digit(**str)) {
  84              		.loc 1 161 0
  85 0006 08E0     		b	.L5
  86              	.LVL4:
  87              	.L6:
 162:..\..\..\arduinoLCD\test\Pain Drain\libraries\lvgl\src\misc/lv_printf.c ****         i = i * 10U + (unsigned int)(*((*str)++) - '0');
  88              		.loc 1 162 0
  89 0008 9000     		lsls	r0, r2, #2
  90 000a 8218     		adds	r2, r0, r2
  91              	.LVL5:
  92 000c 5300     		lsls	r3, r2, #1
  93 000e 4A1C     		adds	r2, r1, #1
  94 0010 2260     		str	r2, [r4]
  95 0012 0A78     		ldrb	r2, [r1]
  96 0014 D318     		adds	r3, r2, r3
  97 0016 303B     		subs	r3, r3, #48
  98 0018 1A00     		movs	r2, r3
  99              	.LVL6:
 100              	.L5:
 161:..\..\..\arduinoLCD\test\Pain Drain\libraries\lvgl\src\misc/lv_printf.c ****     while(_is_digit(**str)) {
 101              		.loc 1 161 0
 102 001a 2168     		ldr	r1, [r4]
 103 001c 0B78     		ldrb	r3, [r1]
 104              	.LVL7:
 105              	.LBB20:
 106              	.LBB21:
 154:..\..\..\arduinoLCD\test\Pain Drain\libraries\lvgl\src\misc/lv_printf.c **** }
 107              		.loc 1 154 0
 108 001e 303B     		subs	r3, r3, #48
 109              	.LVL8:
 110 0020 DBB2     		uxtb	r3, r3
 111              	.LVL9:
 112              	.LBE21:
 113              	.LBE20:
 161:..\..\..\arduinoLCD\test\Pain Drain\libraries\lvgl\src\misc/lv_printf.c ****     while(_is_digit(**str)) {
 114              		.loc 1 161 0
 115 0022 092B     		cmp	r3, #9
 116 0024 F0D9     		bls	.L6
 163:..\..\..\arduinoLCD\test\Pain Drain\libraries\lvgl\src\misc/lv_printf.c ****     }
 164:..\..\..\arduinoLCD\test\Pain Drain\libraries\lvgl\src\misc/lv_printf.c ****     return i;
 165:..\..\..\arduinoLCD\test\Pain Drain\libraries\lvgl\src\misc/lv_printf.c **** }
 117              		.loc 1 165 0
ARM GAS  C:\Users\haske\AppData\Local\Temp\ccZHF2NV.s 			page 6


 118 0026 1000     		movs	r0, r2
 119              		@ sp needed
 120              	.LVL10:
 121 0028 10BD     		pop	{r4, pc}
 122              		.cfi_endproc
 123              	.LFE4:
 124              		.size	_atoi, .-_atoi
 125 002a C046     		.section	.text._out_rev,"ax",%progbits
 126              		.align	2
 127              		.code	16
 128              		.thumb_func
 129              		.type	_out_rev, %function
 130              	_out_rev:
 131              	.LFB5:
 166:..\..\..\arduinoLCD\test\Pain Drain\libraries\lvgl\src\misc/lv_printf.c **** 
 167:..\..\..\arduinoLCD\test\Pain Drain\libraries\lvgl\src\misc/lv_printf.c **** // output the specified string in reverse, taking care of any zero-padding
 168:..\..\..\arduinoLCD\test\Pain Drain\libraries\lvgl\src\misc/lv_printf.c **** static size_t _out_rev(out_fct_type out, char * buffer, size_t idx, size_t maxlen, const char * buf
 169:..\..\..\arduinoLCD\test\Pain Drain\libraries\lvgl\src\misc/lv_printf.c ****                        unsigned int width, unsigned int flags)
 170:..\..\..\arduinoLCD\test\Pain Drain\libraries\lvgl\src\misc/lv_printf.c **** {
 132              		.loc 1 170 0
 133              		.cfi_startproc
 134              		@ args = 16, pretend = 0, frame = 8
 135              		@ frame_needed = 0, uses_anonymous_args = 0
 136              	.LVL11:
 137 0000 F0B5     		push	{r4, r5, r6, r7, lr}
 138              		.cfi_def_cfa_offset 20
 139              		.cfi_offset 4, -20
 140              		.cfi_offset 5, -16
 141              		.cfi_offset 6, -12
 142              		.cfi_offset 7, -8
 143              		.cfi_offset 14, -4
 144 0002 5746     		mov	r7, r10
 145 0004 4E46     		mov	r6, r9
 146 0006 4546     		mov	r5, r8
 147 0008 E0B4     		push	{r5, r6, r7}
 148              		.cfi_def_cfa_offset 32
 149              		.cfi_offset 8, -32
 150              		.cfi_offset 9, -28
 151              		.cfi_offset 10, -24
 152 000a 82B0     		sub	sp, sp, #8
 153              		.cfi_def_cfa_offset 40
 154 000c 0500     		movs	r5, r0
 155 000e 0091     		str	r1, [sp]
 156 0010 0193     		str	r3, [sp, #4]
 157 0012 0A9B     		ldr	r3, [sp, #40]
 158              	.LVL12:
 159 0014 9946     		mov	r9, r3
 160 0016 0B9C     		ldr	r4, [sp, #44]
 161 0018 0C9B     		ldr	r3, [sp, #48]
 162 001a 9846     		mov	r8, r3
 163              	.LVL13:
 171:..\..\..\arduinoLCD\test\Pain Drain\libraries\lvgl\src\misc/lv_printf.c ****     const size_t start_idx = idx;
 172:..\..\..\arduinoLCD\test\Pain Drain\libraries\lvgl\src\misc/lv_printf.c **** 
 173:..\..\..\arduinoLCD\test\Pain Drain\libraries\lvgl\src\misc/lv_printf.c ****     // pad spaces up to given width
 174:..\..\..\arduinoLCD\test\Pain Drain\libraries\lvgl\src\misc/lv_printf.c ****     if(!(flags & FLAGS_LEFT) && !(flags & FLAGS_ZEROPAD)) {
 164              		.loc 1 174 0
 165 001c 0D9B     		ldr	r3, [sp, #52]
ARM GAS  C:\Users\haske\AppData\Local\Temp\ccZHF2NV.s 			page 7


 166 001e 9B07     		lsls	r3, r3, #30
 167 0020 0BD0     		beq	.L16
 168 0022 4B46     		mov	r3, r9
 169 0024 9146     		mov	r9, r2
 170 0026 1E00     		movs	r6, r3
 171 0028 22E0     		b	.L11
 172              	.LVL14:
 173              	.L10:
 174              	.LBB22:
 175:..\..\..\arduinoLCD\test\Pain Drain\libraries\lvgl\src\misc/lv_printf.c ****         size_t i;
 176:..\..\..\arduinoLCD\test\Pain Drain\libraries\lvgl\src\misc/lv_printf.c ****         for(i = len; i < width; i++) {
 177:..\..\..\arduinoLCD\test\Pain Drain\libraries\lvgl\src\misc/lv_printf.c ****             out(' ', buffer, idx++, maxlen);
 175              		.loc 1 177 0 discriminator 3
 176 002a 541C     		adds	r4, r2, #1
 177              	.LVL15:
 178 002c 019B     		ldr	r3, [sp, #4]
 179 002e 0099     		ldr	r1, [sp]
 180 0030 2020     		movs	r0, #32
 181 0032 B047     		blx	r6
 182              	.LVL16:
 176:..\..\..\arduinoLCD\test\Pain Drain\libraries\lvgl\src\misc/lv_printf.c ****             out(' ', buffer, idx++, maxlen);
 183              		.loc 1 176 0 discriminator 3
 184 0034 0137     		adds	r7, r7, #1
 185              	.LVL17:
 186              		.loc 1 177 0 discriminator 3
 187 0036 2200     		movs	r2, r4
 188 0038 06E0     		b	.L8
 189              	.LVL18:
 190              	.L16:
 191              	.LBE22:
 192 003a 2700     		movs	r7, r4
 193 003c A246     		mov	r10, r4
 194 003e 4346     		mov	r3, r8
 195 0040 0C93     		str	r3, [sp, #48]
 196              	.LVL19:
 197 0042 9046     		mov	r8, r2
 198 0044 0600     		movs	r6, r0
 199 0046 1D00     		movs	r5, r3
 200              	.LVL20:
 201              	.L8:
 202              	.LBB23:
 176:..\..\..\arduinoLCD\test\Pain Drain\libraries\lvgl\src\misc/lv_printf.c ****             out(' ', buffer, idx++, maxlen);
 203              		.loc 1 176 0 discriminator 1
 204 0048 AF42     		cmp	r7, r5
 205 004a EED3     		bcc	.L10
 206 004c 5446     		mov	r4, r10
 207 004e 0C95     		str	r5, [sp, #48]
 208 0050 3500     		movs	r5, r6
 209 0052 4646     		mov	r6, r8
 210              	.LVL21:
 211 0054 0C9B     		ldr	r3, [sp, #48]
 212 0056 9846     		mov	r8, r3
 213              	.LVL22:
 214 0058 4B46     		mov	r3, r9
 215 005a 0A93     		str	r3, [sp, #40]
 216 005c B146     		mov	r9, r6
 217 005e 1E00     		movs	r6, r3
ARM GAS  C:\Users\haske\AppData\Local\Temp\ccZHF2NV.s 			page 8


 218              	.LVL23:
 219 0060 06E0     		b	.L11
 220              	.LVL24:
 221              	.L12:
 222              	.LBE23:
 178:..\..\..\arduinoLCD\test\Pain Drain\libraries\lvgl\src\misc/lv_printf.c ****         }
 179:..\..\..\arduinoLCD\test\Pain Drain\libraries\lvgl\src\misc/lv_printf.c ****     }
 180:..\..\..\arduinoLCD\test\Pain Drain\libraries\lvgl\src\misc/lv_printf.c **** 
 181:..\..\..\arduinoLCD\test\Pain Drain\libraries\lvgl\src\misc/lv_printf.c ****     // reverse string
 182:..\..\..\arduinoLCD\test\Pain Drain\libraries\lvgl\src\misc/lv_printf.c ****     while(len) {
 183:..\..\..\arduinoLCD\test\Pain Drain\libraries\lvgl\src\misc/lv_printf.c ****         out(buf[--len], buffer, idx++, maxlen);
 223              		.loc 1 183 0
 224 0062 013C     		subs	r4, r4, #1
 225              	.LVL25:
 226 0064 571C     		adds	r7, r2, #1
 227              	.LVL26:
 228 0066 305D     		ldrb	r0, [r6, r4]
 229 0068 019B     		ldr	r3, [sp, #4]
 230 006a 0099     		ldr	r1, [sp]
 231 006c A847     		blx	r5
 232              	.LVL27:
 233 006e 3A00     		movs	r2, r7
 234              	.LVL28:
 235              	.L11:
 182:..\..\..\arduinoLCD\test\Pain Drain\libraries\lvgl\src\misc/lv_printf.c ****         out(buf[--len], buffer, idx++, maxlen);
 236              		.loc 1 182 0
 237 0070 002C     		cmp	r4, #0
 238 0072 F6D1     		bne	.L12
 239 0074 4E46     		mov	r6, r9
 184:..\..\..\arduinoLCD\test\Pain Drain\libraries\lvgl\src\misc/lv_printf.c ****     }
 185:..\..\..\arduinoLCD\test\Pain Drain\libraries\lvgl\src\misc/lv_printf.c **** 
 186:..\..\..\arduinoLCD\test\Pain Drain\libraries\lvgl\src\misc/lv_printf.c ****     // append pad spaces up to given width
 187:..\..\..\arduinoLCD\test\Pain Drain\libraries\lvgl\src\misc/lv_printf.c ****     if(flags & FLAGS_LEFT) {
 240              		.loc 1 187 0
 241 0076 0D9B     		ldr	r3, [sp, #52]
 242 0078 9B07     		lsls	r3, r3, #30
 243 007a 07D4     		bmi	.L17
 244              	.LVL29:
 245 007c 0BE0     		b	.L14
 246              	.LVL30:
 247              	.L15:
 188:..\..\..\arduinoLCD\test\Pain Drain\libraries\lvgl\src\misc/lv_printf.c ****         while(idx - start_idx < width) {
 189:..\..\..\arduinoLCD\test\Pain Drain\libraries\lvgl\src\misc/lv_printf.c ****             out(' ', buffer, idx++, maxlen);
 248              		.loc 1 189 0
 249 007e 551C     		adds	r5, r2, #1
 250              	.LVL31:
 251 0080 019B     		ldr	r3, [sp, #4]
 252 0082 0099     		ldr	r1, [sp]
 253 0084 2020     		movs	r0, #32
 254 0086 A047     		blx	r4
 255              	.LVL32:
 256 0088 2A00     		movs	r2, r5
 257 008a 01E0     		b	.L13
 258              	.LVL33:
 259              	.L17:
 260 008c 2C00     		movs	r4, r5
 261              	.LVL34:
ARM GAS  C:\Users\haske\AppData\Local\Temp\ccZHF2NV.s 			page 9


 262 008e 4746     		mov	r7, r8
 263              	.LVL35:
 264              	.L13:
 188:..\..\..\arduinoLCD\test\Pain Drain\libraries\lvgl\src\misc/lv_printf.c ****         while(idx - start_idx < width) {
 265              		.loc 1 188 0
 266 0090 931B     		subs	r3, r2, r6
 267 0092 9F42     		cmp	r7, r3
 268 0094 F3D8     		bhi	.L15
 269              	.LVL36:
 270              	.L14:
 190:..\..\..\arduinoLCD\test\Pain Drain\libraries\lvgl\src\misc/lv_printf.c ****         }
 191:..\..\..\arduinoLCD\test\Pain Drain\libraries\lvgl\src\misc/lv_printf.c ****     }
 192:..\..\..\arduinoLCD\test\Pain Drain\libraries\lvgl\src\misc/lv_printf.c **** 
 193:..\..\..\arduinoLCD\test\Pain Drain\libraries\lvgl\src\misc/lv_printf.c ****     return idx;
 194:..\..\..\arduinoLCD\test\Pain Drain\libraries\lvgl\src\misc/lv_printf.c **** }
 271              		.loc 1 194 0
 272 0096 1000     		movs	r0, r2
 273 0098 02B0     		add	sp, sp, #8
 274              	.LVL37:
 275              		@ sp needed
 276              	.LVL38:
 277              	.LVL39:
 278 009a 1CBC     		pop	{r2, r3, r4}
 279 009c 9046     		mov	r8, r2
 280 009e 9946     		mov	r9, r3
 281 00a0 A246     		mov	r10, r4
 282 00a2 F0BD     		pop	{r4, r5, r6, r7, pc}
 283              		.cfi_endproc
 284              	.LFE5:
 285              		.size	_out_rev, .-_out_rev
 286              		.section	.text._ntoa_format,"ax",%progbits
 287              		.align	2
 288              		.code	16
 289              		.thumb_func
 290              		.type	_ntoa_format, %function
 291              	_ntoa_format:
 292              	.LFB6:
 195:..\..\..\arduinoLCD\test\Pain Drain\libraries\lvgl\src\misc/lv_printf.c **** 
 196:..\..\..\arduinoLCD\test\Pain Drain\libraries\lvgl\src\misc/lv_printf.c **** // internal itoa format
 197:..\..\..\arduinoLCD\test\Pain Drain\libraries\lvgl\src\misc/lv_printf.c **** static size_t _ntoa_format(out_fct_type out, char * buffer, size_t idx, size_t maxlen, char * buf, 
 198:..\..\..\arduinoLCD\test\Pain Drain\libraries\lvgl\src\misc/lv_printf.c ****                            bool negative, unsigned int base, unsigned int prec, unsigned int width,
 199:..\..\..\arduinoLCD\test\Pain Drain\libraries\lvgl\src\misc/lv_printf.c **** {
 293              		.loc 1 199 0
 294              		.cfi_startproc
 295              		@ args = 28, pretend = 0, frame = 8
 296              		@ frame_needed = 0, uses_anonymous_args = 0
 297              	.LVL40:
 298 0000 F0B5     		push	{r4, r5, r6, r7, lr}
 299              		.cfi_def_cfa_offset 20
 300              		.cfi_offset 4, -20
 301              		.cfi_offset 5, -16
 302              		.cfi_offset 6, -12
 303              		.cfi_offset 7, -8
 304              		.cfi_offset 14, -4
 305 0002 4F46     		mov	r7, r9
 306 0004 80B4     		push	{r7}
 307              		.cfi_def_cfa_offset 24
ARM GAS  C:\Users\haske\AppData\Local\Temp\ccZHF2NV.s 			page 10


 308              		.cfi_offset 9, -24
 309 0006 86B0     		sub	sp, sp, #24
 310              		.cfi_def_cfa_offset 48
 311 0008 0492     		str	r2, [sp, #16]
 312 000a 0593     		str	r3, [sp, #20]
 313 000c 0C9D     		ldr	r5, [sp, #48]
 314 000e 0D9C     		ldr	r4, [sp, #52]
 315 0010 0EAE     		add	r6, sp, #56
 316              	.LVL41:
 317 0012 3378     		ldrb	r3, [r6]
 318              	.LVL42:
 319 0014 9946     		mov	r9, r3
 320 0016 109A     		ldr	r2, [sp, #64]
 321              	.LVL43:
 322 0018 119B     		ldr	r3, [sp, #68]
 323 001a 129E     		ldr	r6, [sp, #72]
 324              	.LVL44:
 200:..\..\..\arduinoLCD\test\Pain Drain\libraries\lvgl\src\misc/lv_printf.c ****     // pad leading zeros
 201:..\..\..\arduinoLCD\test\Pain Drain\libraries\lvgl\src\misc/lv_printf.c ****     if(!(flags & FLAGS_LEFT)) {
 325              		.loc 1 201 0
 326 001c B707     		lsls	r7, r6, #30
 327 001e 1CD4     		bmi	.L19
 202:..\..\..\arduinoLCD\test\Pain Drain\libraries\lvgl\src\misc/lv_printf.c ****         if(width && (flags & FLAGS_ZEROPAD) && (negative || (flags & (FLAGS_PLUS | FLAGS_SPACE)))) 
 328              		.loc 1 202 0
 329 0020 002B     		cmp	r3, #0
 330 0022 0CD0     		beq	.L22
 331              		.loc 1 202 0 is_stmt 0 discriminator 1
 332 0024 F707     		lsls	r7, r6, #31
 333 0026 0AD5     		bpl	.L22
 334              		.loc 1 202 0 discriminator 2
 335 0028 4F46     		mov	r7, r9
 336 002a 002F     		cmp	r7, #0
 337 002c 02D1     		bne	.L21
 338              		.loc 1 202 0 discriminator 3
 339 002e 0C37     		adds	r7, r7, #12
 340 0030 3742     		tst	r7, r6
 341 0032 04D0     		beq	.L22
 342              	.L21:
 203:..\..\..\arduinoLCD\test\Pain Drain\libraries\lvgl\src\misc/lv_printf.c ****             width--;
 343              		.loc 1 203 0 is_stmt 1
 344 0034 013B     		subs	r3, r3, #1
 345              	.LVL45:
 346 0036 02E0     		b	.L22
 347              	.LVL46:
 348              	.L24:
 204:..\..\..\arduinoLCD\test\Pain Drain\libraries\lvgl\src\misc/lv_printf.c ****         }
 205:..\..\..\arduinoLCD\test\Pain Drain\libraries\lvgl\src\misc/lv_printf.c ****         while((len < prec) && (len < PRINTF_NTOA_BUFFER_SIZE)) {
 206:..\..\..\arduinoLCD\test\Pain Drain\libraries\lvgl\src\misc/lv_printf.c ****             buf[len++] = '0';
 349              		.loc 1 206 0
 350 0038 3027     		movs	r7, #48
 351 003a 2F55     		strb	r7, [r5, r4]
 352 003c 0134     		adds	r4, r4, #1
 353              	.LVL47:
 354              	.L22:
 205:..\..\..\arduinoLCD\test\Pain Drain\libraries\lvgl\src\misc/lv_printf.c ****             buf[len++] = '0';
 355              		.loc 1 205 0
 356 003e 9442     		cmp	r4, r2
ARM GAS  C:\Users\haske\AppData\Local\Temp\ccZHF2NV.s 			page 11


 357 0040 05D2     		bcs	.L23
 205:..\..\..\arduinoLCD\test\Pain Drain\libraries\lvgl\src\misc/lv_printf.c ****             buf[len++] = '0';
 358              		.loc 1 205 0 is_stmt 0 discriminator 1
 359 0042 1F2C     		cmp	r4, #31
 360 0044 F8D9     		bls	.L24
 361 0046 02E0     		b	.L23
 362              	.L25:
 363              	.LVL48:
 207:..\..\..\arduinoLCD\test\Pain Drain\libraries\lvgl\src\misc/lv_printf.c ****         }
 208:..\..\..\arduinoLCD\test\Pain Drain\libraries\lvgl\src\misc/lv_printf.c ****         while((flags & FLAGS_ZEROPAD) && (len < width) && (len < PRINTF_NTOA_BUFFER_SIZE)) {
 209:..\..\..\arduinoLCD\test\Pain Drain\libraries\lvgl\src\misc/lv_printf.c ****             buf[len++] = '0';
 364              		.loc 1 209 0 is_stmt 1
 365 0048 3027     		movs	r7, #48
 366 004a 2F55     		strb	r7, [r5, r4]
 367 004c 0134     		adds	r4, r4, #1
 368              	.LVL49:
 369              	.L23:
 208:..\..\..\arduinoLCD\test\Pain Drain\libraries\lvgl\src\misc/lv_printf.c ****             buf[len++] = '0';
 370              		.loc 1 208 0
 371 004e F707     		lsls	r7, r6, #31
 372 0050 03D5     		bpl	.L19
 208:..\..\..\arduinoLCD\test\Pain Drain\libraries\lvgl\src\misc/lv_printf.c ****             buf[len++] = '0';
 373              		.loc 1 208 0 is_stmt 0 discriminator 1
 374 0052 9C42     		cmp	r4, r3
 375 0054 01D2     		bcs	.L19
 208:..\..\..\arduinoLCD\test\Pain Drain\libraries\lvgl\src\misc/lv_printf.c ****             buf[len++] = '0';
 376              		.loc 1 208 0 discriminator 2
 377 0056 1F2C     		cmp	r4, #31
 378 0058 F6D9     		bls	.L25
 379              	.LVL50:
 380              	.L19:
 210:..\..\..\arduinoLCD\test\Pain Drain\libraries\lvgl\src\misc/lv_printf.c ****         }
 211:..\..\..\arduinoLCD\test\Pain Drain\libraries\lvgl\src\misc/lv_printf.c ****     }
 212:..\..\..\arduinoLCD\test\Pain Drain\libraries\lvgl\src\misc/lv_printf.c **** 
 213:..\..\..\arduinoLCD\test\Pain Drain\libraries\lvgl\src\misc/lv_printf.c ****     // handle hash
 214:..\..\..\arduinoLCD\test\Pain Drain\libraries\lvgl\src\misc/lv_printf.c ****     if(flags & FLAGS_HASH) {
 381              		.loc 1 214 0 is_stmt 1
 382 005a F706     		lsls	r7, r6, #27
 383 005c 35D5     		bpl	.L26
 215:..\..\..\arduinoLCD\test\Pain Drain\libraries\lvgl\src\misc/lv_printf.c ****         if(!(flags & FLAGS_PRECISION) && len && ((len == prec) || (len == width))) {
 384              		.loc 1 215 0
 385 005e 7705     		lsls	r7, r6, #21
 386 0060 10D4     		bmi	.L27
 387              		.loc 1 215 0 is_stmt 0 discriminator 1
 388 0062 002C     		cmp	r4, #0
 389 0064 0ED0     		beq	.L27
 390              		.loc 1 215 0 discriminator 2
 391 0066 9442     		cmp	r4, r2
 392 0068 01D0     		beq	.L28
 393              		.loc 1 215 0 discriminator 3
 394 006a 9C42     		cmp	r4, r3
 395 006c 0AD1     		bne	.L27
 396              	.L28:
 216:..\..\..\arduinoLCD\test\Pain Drain\libraries\lvgl\src\misc/lv_printf.c ****             len--;
 397              		.loc 1 216 0 is_stmt 1
 398 006e 671E     		subs	r7, r4, #1
 399              	.LVL51:
ARM GAS  C:\Users\haske\AppData\Local\Temp\ccZHF2NV.s 			page 12


 217:..\..\..\arduinoLCD\test\Pain Drain\libraries\lvgl\src\misc/lv_printf.c ****             if(len && (base == 16U)) {
 400              		.loc 1 217 0
 401 0070 002F     		cmp	r7, #0
 402 0072 04D0     		beq	.L35
 403              		.loc 1 217 0 is_stmt 0 discriminator 1
 404 0074 0F9A     		ldr	r2, [sp, #60]
 405 0076 102A     		cmp	r2, #16
 406 0078 03D1     		bne	.L36
 218:..\..\..\arduinoLCD\test\Pain Drain\libraries\lvgl\src\misc/lv_printf.c ****                 len--;
 407              		.loc 1 218 0 is_stmt 1
 408 007a 023C     		subs	r4, r4, #2
 409              	.LVL52:
 410 007c 02E0     		b	.L27
 411              	.LVL53:
 412              	.L35:
 216:..\..\..\arduinoLCD\test\Pain Drain\libraries\lvgl\src\misc/lv_printf.c ****             len--;
 413              		.loc 1 216 0
 414 007e 3C00     		movs	r4, r7
 415 0080 00E0     		b	.L27
 416              	.L36:
 417 0082 3C00     		movs	r4, r7
 418              	.LVL54:
 419              	.L27:
 219:..\..\..\arduinoLCD\test\Pain Drain\libraries\lvgl\src\misc/lv_printf.c ****             }
 220:..\..\..\arduinoLCD\test\Pain Drain\libraries\lvgl\src\misc/lv_printf.c ****         }
 221:..\..\..\arduinoLCD\test\Pain Drain\libraries\lvgl\src\misc/lv_printf.c ****         if((base == 16U) && !(flags & FLAGS_UPPERCASE) && (len < PRINTF_NTOA_BUFFER_SIZE)) {
 420              		.loc 1 221 0
 421 0084 0F9A     		ldr	r2, [sp, #60]
 422 0086 102A     		cmp	r2, #16
 423 0088 07D1     		bne	.L29
 424              		.loc 1 221 0 is_stmt 0 discriminator 1
 425 008a B206     		lsls	r2, r6, #26
 426 008c 05D4     		bmi	.L29
 427              		.loc 1 221 0 discriminator 2
 428 008e 1F2C     		cmp	r4, #31
 429 0090 03D8     		bhi	.L29
 430              	.LVL55:
 222:..\..\..\arduinoLCD\test\Pain Drain\libraries\lvgl\src\misc/lv_printf.c ****             buf[len++] = 'x';
 431              		.loc 1 222 0 is_stmt 1
 432 0092 7827     		movs	r7, #120
 433 0094 2F55     		strb	r7, [r5, r4]
 434 0096 0134     		adds	r4, r4, #1
 435              	.LVL56:
 436 0098 12E0     		b	.L30
 437              	.L29:
 223:..\..\..\arduinoLCD\test\Pain Drain\libraries\lvgl\src\misc/lv_printf.c ****         }
 224:..\..\..\arduinoLCD\test\Pain Drain\libraries\lvgl\src\misc/lv_printf.c ****         else if((base == 16U) && (flags & FLAGS_UPPERCASE) && (len < PRINTF_NTOA_BUFFER_SIZE)) {
 438              		.loc 1 224 0
 439 009a 0F9A     		ldr	r2, [sp, #60]
 440 009c 102A     		cmp	r2, #16
 441 009e 07D1     		bne	.L31
 442              		.loc 1 224 0 is_stmt 0 discriminator 1
 443 00a0 B206     		lsls	r2, r6, #26
 444 00a2 05D5     		bpl	.L31
 445              		.loc 1 224 0 discriminator 2
 446 00a4 1F2C     		cmp	r4, #31
 447 00a6 03D8     		bhi	.L31
ARM GAS  C:\Users\haske\AppData\Local\Temp\ccZHF2NV.s 			page 13


 448              	.LVL57:
 225:..\..\..\arduinoLCD\test\Pain Drain\libraries\lvgl\src\misc/lv_printf.c ****             buf[len++] = 'X';
 449              		.loc 1 225 0 is_stmt 1
 450 00a8 5827     		movs	r7, #88
 451 00aa 2F55     		strb	r7, [r5, r4]
 452 00ac 0134     		adds	r4, r4, #1
 453              	.LVL58:
 454 00ae 07E0     		b	.L30
 455              	.L31:
 226:..\..\..\arduinoLCD\test\Pain Drain\libraries\lvgl\src\misc/lv_printf.c ****         }
 227:..\..\..\arduinoLCD\test\Pain Drain\libraries\lvgl\src\misc/lv_printf.c ****         else if((base == 2U) && (len < PRINTF_NTOA_BUFFER_SIZE)) {
 456              		.loc 1 227 0
 457 00b0 0F9A     		ldr	r2, [sp, #60]
 458 00b2 022A     		cmp	r2, #2
 459 00b4 04D1     		bne	.L30
 460              		.loc 1 227 0 is_stmt 0 discriminator 1
 461 00b6 1F2C     		cmp	r4, #31
 462 00b8 02D8     		bhi	.L30
 463              	.LVL59:
 228:..\..\..\arduinoLCD\test\Pain Drain\libraries\lvgl\src\misc/lv_printf.c ****             buf[len++] = 'b';
 464              		.loc 1 228 0 is_stmt 1
 465 00ba 6227     		movs	r7, #98
 466 00bc 2F55     		strb	r7, [r5, r4]
 467 00be 0134     		adds	r4, r4, #1
 468              	.LVL60:
 469              	.L30:
 229:..\..\..\arduinoLCD\test\Pain Drain\libraries\lvgl\src\misc/lv_printf.c ****         }
 230:..\..\..\arduinoLCD\test\Pain Drain\libraries\lvgl\src\misc/lv_printf.c ****         if(len < PRINTF_NTOA_BUFFER_SIZE) {
 470              		.loc 1 230 0
 471 00c0 1F2C     		cmp	r4, #31
 472 00c2 02D8     		bhi	.L26
 473              	.LVL61:
 231:..\..\..\arduinoLCD\test\Pain Drain\libraries\lvgl\src\misc/lv_printf.c ****             buf[len++] = '0';
 474              		.loc 1 231 0
 475 00c4 3027     		movs	r7, #48
 476 00c6 2F55     		strb	r7, [r5, r4]
 477 00c8 0134     		adds	r4, r4, #1
 478              	.LVL62:
 479              	.L26:
 232:..\..\..\arduinoLCD\test\Pain Drain\libraries\lvgl\src\misc/lv_printf.c ****         }
 233:..\..\..\arduinoLCD\test\Pain Drain\libraries\lvgl\src\misc/lv_printf.c ****     }
 234:..\..\..\arduinoLCD\test\Pain Drain\libraries\lvgl\src\misc/lv_printf.c **** 
 235:..\..\..\arduinoLCD\test\Pain Drain\libraries\lvgl\src\misc/lv_printf.c ****     if(len < PRINTF_NTOA_BUFFER_SIZE) {
 480              		.loc 1 235 0
 481 00ca 1F2C     		cmp	r4, #31
 482 00cc 11D8     		bhi	.L32
 236:..\..\..\arduinoLCD\test\Pain Drain\libraries\lvgl\src\misc/lv_printf.c ****         if(negative) {
 483              		.loc 1 236 0
 484 00ce 4A46     		mov	r2, r9
 485 00d0 002A     		cmp	r2, #0
 486 00d2 03D0     		beq	.L33
 487              	.LVL63:
 237:..\..\..\arduinoLCD\test\Pain Drain\libraries\lvgl\src\misc/lv_printf.c ****             buf[len++] = '-';
 488              		.loc 1 237 0
 489 00d4 2D27     		movs	r7, #45
 490 00d6 2F55     		strb	r7, [r5, r4]
 491 00d8 0134     		adds	r4, r4, #1
ARM GAS  C:\Users\haske\AppData\Local\Temp\ccZHF2NV.s 			page 14


 492              	.LVL64:
 493 00da 0AE0     		b	.L32
 494              	.L33:
 238:..\..\..\arduinoLCD\test\Pain Drain\libraries\lvgl\src\misc/lv_printf.c ****         }
 239:..\..\..\arduinoLCD\test\Pain Drain\libraries\lvgl\src\misc/lv_printf.c ****         else if(flags & FLAGS_PLUS) {
 495              		.loc 1 239 0
 496 00dc 7207     		lsls	r2, r6, #29
 497 00de 03D5     		bpl	.L34
 498              	.LVL65:
 240:..\..\..\arduinoLCD\test\Pain Drain\libraries\lvgl\src\misc/lv_printf.c ****             buf[len++] = '+';  // ignore the space if the '+' exists
 499              		.loc 1 240 0
 500 00e0 2B27     		movs	r7, #43
 501 00e2 2F55     		strb	r7, [r5, r4]
 502 00e4 0134     		adds	r4, r4, #1
 503              	.LVL66:
 504 00e6 04E0     		b	.L32
 505              	.L34:
 241:..\..\..\arduinoLCD\test\Pain Drain\libraries\lvgl\src\misc/lv_printf.c ****         }
 242:..\..\..\arduinoLCD\test\Pain Drain\libraries\lvgl\src\misc/lv_printf.c ****         else if(flags & FLAGS_SPACE) {
 506              		.loc 1 242 0
 507 00e8 3207     		lsls	r2, r6, #28
 508 00ea 02D5     		bpl	.L32
 509              	.LVL67:
 243:..\..\..\arduinoLCD\test\Pain Drain\libraries\lvgl\src\misc/lv_printf.c ****             buf[len++] = ' ';
 510              		.loc 1 243 0
 511 00ec 2027     		movs	r7, #32
 512 00ee 2F55     		strb	r7, [r5, r4]
 513 00f0 0134     		adds	r4, r4, #1
 514              	.LVL68:
 515              	.L32:
 244:..\..\..\arduinoLCD\test\Pain Drain\libraries\lvgl\src\misc/lv_printf.c ****         }
 245:..\..\..\arduinoLCD\test\Pain Drain\libraries\lvgl\src\misc/lv_printf.c ****     }
 246:..\..\..\arduinoLCD\test\Pain Drain\libraries\lvgl\src\misc/lv_printf.c **** 
 247:..\..\..\arduinoLCD\test\Pain Drain\libraries\lvgl\src\misc/lv_printf.c ****     return _out_rev(out, buffer, idx, maxlen, buf, len, width, flags);
 516              		.loc 1 247 0
 517 00f2 0396     		str	r6, [sp, #12]
 518 00f4 0293     		str	r3, [sp, #8]
 519 00f6 0194     		str	r4, [sp, #4]
 520 00f8 0095     		str	r5, [sp]
 521 00fa 059B     		ldr	r3, [sp, #20]
 522              	.LVL69:
 523 00fc 049A     		ldr	r2, [sp, #16]
 524 00fe FFF7FEFF 		bl	_out_rev
 525              	.LVL70:
 248:..\..\..\arduinoLCD\test\Pain Drain\libraries\lvgl\src\misc/lv_printf.c **** }
 526              		.loc 1 248 0
 527 0102 06B0     		add	sp, sp, #24
 528              		@ sp needed
 529              	.LVL71:
 530 0104 04BC     		pop	{r2}
 531 0106 9146     		mov	r9, r2
 532 0108 F0BD     		pop	{r4, r5, r6, r7, pc}
 533              		.cfi_endproc
 534              	.LFE6:
 535              		.size	_ntoa_format, .-_ntoa_format
 536              		.global	__aeabi_uidivmod
 537              		.global	__aeabi_uidiv
ARM GAS  C:\Users\haske\AppData\Local\Temp\ccZHF2NV.s 			page 15


 538 010a C046     		.section	.text._ntoa_long,"ax",%progbits
 539              		.align	2
 540              		.code	16
 541              		.thumb_func
 542              		.type	_ntoa_long, %function
 543              	_ntoa_long:
 544              	.LFB7:
 249:..\..\..\arduinoLCD\test\Pain Drain\libraries\lvgl\src\misc/lv_printf.c **** 
 250:..\..\..\arduinoLCD\test\Pain Drain\libraries\lvgl\src\misc/lv_printf.c **** // internal itoa for 'long' type
 251:..\..\..\arduinoLCD\test\Pain Drain\libraries\lvgl\src\misc/lv_printf.c **** static size_t _ntoa_long(out_fct_type out, char * buffer, size_t idx, size_t maxlen, unsigned long 
 252:..\..\..\arduinoLCD\test\Pain Drain\libraries\lvgl\src\misc/lv_printf.c ****                          unsigned long base, unsigned int prec, unsigned int width, unsigned int fl
 253:..\..\..\arduinoLCD\test\Pain Drain\libraries\lvgl\src\misc/lv_printf.c **** {
 545              		.loc 1 253 0
 546              		.cfi_startproc
 547              		@ args = 24, pretend = 0, frame = 48
 548              		@ frame_needed = 0, uses_anonymous_args = 0
 549              	.LVL72:
 550 0000 F0B5     		push	{r4, r5, r6, r7, lr}
 551              		.cfi_def_cfa_offset 20
 552              		.cfi_offset 4, -20
 553              		.cfi_offset 5, -16
 554              		.cfi_offset 6, -12
 555              		.cfi_offset 7, -8
 556              		.cfi_offset 14, -4
 557 0002 4746     		mov	r7, r8
 558 0004 80B4     		push	{r7}
 559              		.cfi_def_cfa_offset 24
 560              		.cfi_offset 8, -24
 561 0006 94B0     		sub	sp, sp, #80
 562              		.cfi_def_cfa_offset 104
 563 0008 0890     		str	r0, [sp, #32]
 564 000a 0991     		str	r1, [sp, #36]
 565 000c 0A92     		str	r2, [sp, #40]
 566 000e 0B93     		str	r3, [sp, #44]
 567 0010 1AAB     		add	r3, sp, #104
 568              	.LVL73:
 569 0012 10CB     		ldmia	r3!, {r4}
 570              	.LVL74:
 571 0014 1B78     		ldrb	r3, [r3]
 572              	.LVL75:
 573 0016 9846     		mov	r8, r3
 574 0018 1F9D     		ldr	r5, [sp, #124]
 575              	.LVL76:
 254:..\..\..\arduinoLCD\test\Pain Drain\libraries\lvgl\src\misc/lv_printf.c ****     char buf[PRINTF_NTOA_BUFFER_SIZE];
 255:..\..\..\arduinoLCD\test\Pain Drain\libraries\lvgl\src\misc/lv_printf.c ****     size_t len = 0U;
 256:..\..\..\arduinoLCD\test\Pain Drain\libraries\lvgl\src\misc/lv_printf.c **** 
 257:..\..\..\arduinoLCD\test\Pain Drain\libraries\lvgl\src\misc/lv_printf.c ****     // no hash for 0 values
 258:..\..\..\arduinoLCD\test\Pain Drain\libraries\lvgl\src\misc/lv_printf.c ****     if(!value) {
 576              		.loc 1 258 0
 577 001a 002C     		cmp	r4, #0
 578 001c 01D1     		bne	.L38
 259:..\..\..\arduinoLCD\test\Pain Drain\libraries\lvgl\src\misc/lv_printf.c ****         flags &= ~FLAGS_HASH;
 579              		.loc 1 259 0
 580 001e 1023     		movs	r3, #16
 581 0020 9D43     		bics	r5, r3
 582              	.LVL77:
 583              	.L38:
ARM GAS  C:\Users\haske\AppData\Local\Temp\ccZHF2NV.s 			page 16


 260:..\..\..\arduinoLCD\test\Pain Drain\libraries\lvgl\src\misc/lv_printf.c ****     }
 261:..\..\..\arduinoLCD\test\Pain Drain\libraries\lvgl\src\misc/lv_printf.c **** 
 262:..\..\..\arduinoLCD\test\Pain Drain\libraries\lvgl\src\misc/lv_printf.c ****     // write if precision != 0 and value is != 0
 263:..\..\..\arduinoLCD\test\Pain Drain\libraries\lvgl\src\misc/lv_printf.c ****     if(!(flags & FLAGS_PRECISION) || value) {
 584              		.loc 1 263 0
 585 0022 6B05     		lsls	r3, r5, #21
 586 0024 03D5     		bpl	.L44
 587              		.loc 1 263 0 is_stmt 0 discriminator 1
 588 0026 002C     		cmp	r4, #0
 589 0028 21D0     		beq	.L45
 590 002a 0027     		movs	r7, #0
 591 002c 00E0     		b	.L39
 592              	.L44:
 593 002e 0027     		movs	r7, #0
 594              	.LVL78:
 595              	.L39:
 596              	.LBB24:
 264:..\..\..\arduinoLCD\test\Pain Drain\libraries\lvgl\src\misc/lv_printf.c ****         do {
 265:..\..\..\arduinoLCD\test\Pain Drain\libraries\lvgl\src\misc/lv_printf.c ****             const char digit = (char)(value % base);
 597              		.loc 1 265 0 is_stmt 1
 598 0030 1C99     		ldr	r1, [sp, #112]
 599 0032 2000     		movs	r0, r4
 600 0034 FFF7FEFF 		bl	__aeabi_uidivmod
 601              	.LVL79:
 602 0038 C9B2     		uxtb	r1, r1
 603              	.LVL80:
 266:..\..\..\arduinoLCD\test\Pain Drain\libraries\lvgl\src\misc/lv_printf.c ****             buf[len++] = digit < 10 ? '0' + digit : (flags & FLAGS_UPPERCASE ? 'A' : 'a') + digit -
 604              		.loc 1 266 0
 605 003a 7E1C     		adds	r6, r7, #1
 606              	.LVL81:
 607 003c 0929     		cmp	r1, #9
 608 003e 02D8     		bhi	.L41
 609              		.loc 1 266 0 is_stmt 0 discriminator 1
 610 0040 3031     		adds	r1, r1, #48
 611              	.LVL82:
 612 0042 C9B2     		uxtb	r1, r1
 613              	.LVL83:
 614 0044 07E0     		b	.L42
 615              	.LVL84:
 616              	.L41:
 617              		.loc 1 266 0 discriminator 2
 618 0046 AB06     		lsls	r3, r5, #26
 619 0048 01D5     		bpl	.L46
 620              		.loc 1 266 0
 621 004a 4123     		movs	r3, #65
 622 004c 00E0     		b	.L43
 623              	.L46:
 624 004e 6123     		movs	r3, #97
 625              	.L43:
 626              		.loc 1 266 0 discriminator 7
 627 0050 5918     		adds	r1, r3, r1
 628              	.LVL85:
 629 0052 0A39     		subs	r1, r1, #10
 630 0054 C9B2     		uxtb	r1, r1
 631              	.L42:
 632              		.loc 1 266 0 discriminator 8
 633 0056 0CAB     		add	r3, sp, #48
ARM GAS  C:\Users\haske\AppData\Local\Temp\ccZHF2NV.s 			page 17


 634 0058 D955     		strb	r1, [r3, r7]
 267:..\..\..\arduinoLCD\test\Pain Drain\libraries\lvgl\src\misc/lv_printf.c ****             value /= base;
 635              		.loc 1 267 0 is_stmt 1 discriminator 8
 636 005a 1C99     		ldr	r1, [sp, #112]
 637 005c 2000     		movs	r0, r4
 638 005e FFF7FEFF 		bl	__aeabi_uidiv
 639              	.LVL86:
 640 0062 041E     		subs	r4, r0, #0
 641              	.LVL87:
 642              	.LBE24:
 268:..\..\..\arduinoLCD\test\Pain Drain\libraries\lvgl\src\misc/lv_printf.c ****         } while(value && (len < PRINTF_NTOA_BUFFER_SIZE));
 643              		.loc 1 268 0 discriminator 8
 644 0064 04D0     		beq	.L40
 645              	.LBB25:
 266:..\..\..\arduinoLCD\test\Pain Drain\libraries\lvgl\src\misc/lv_printf.c ****             buf[len++] = digit < 10 ? '0' + digit : (flags & FLAGS_UPPERCASE ? 'A' : 'a') + digit -
 646              		.loc 1 266 0 discriminator 1
 647 0066 3700     		movs	r7, r6
 648              	.LBE25:
 649              		.loc 1 268 0 discriminator 1
 650 0068 1F2E     		cmp	r6, #31
 651 006a E1D9     		bls	.L39
 652 006c 00E0     		b	.L40
 653              	.LVL88:
 654              	.L45:
 255:..\..\..\arduinoLCD\test\Pain Drain\libraries\lvgl\src\misc/lv_printf.c **** 
 655              		.loc 1 255 0
 656 006e 0026     		movs	r6, #0
 657              	.LVL89:
 658              	.L40:
 269:..\..\..\arduinoLCD\test\Pain Drain\libraries\lvgl\src\misc/lv_printf.c ****     }
 270:..\..\..\arduinoLCD\test\Pain Drain\libraries\lvgl\src\misc/lv_printf.c **** 
 271:..\..\..\arduinoLCD\test\Pain Drain\libraries\lvgl\src\misc/lv_printf.c ****     return _ntoa_format(out, buffer, idx, maxlen, buf, len, negative, (unsigned int)base, prec, wid
 659              		.loc 1 271 0
 660 0070 0695     		str	r5, [sp, #24]
 661 0072 1E9B     		ldr	r3, [sp, #120]
 662 0074 0593     		str	r3, [sp, #20]
 663 0076 1D9B     		ldr	r3, [sp, #116]
 664 0078 0493     		str	r3, [sp, #16]
 665 007a 1C9B     		ldr	r3, [sp, #112]
 666 007c 0393     		str	r3, [sp, #12]
 667 007e 4346     		mov	r3, r8
 668 0080 0293     		str	r3, [sp, #8]
 669 0082 0196     		str	r6, [sp, #4]
 670 0084 0CAB     		add	r3, sp, #48
 671 0086 0093     		str	r3, [sp]
 672 0088 0B9B     		ldr	r3, [sp, #44]
 673 008a 0A9A     		ldr	r2, [sp, #40]
 674 008c 0999     		ldr	r1, [sp, #36]
 675 008e 0898     		ldr	r0, [sp, #32]
 676 0090 FFF7FEFF 		bl	_ntoa_format
 677              	.LVL90:
 272:..\..\..\arduinoLCD\test\Pain Drain\libraries\lvgl\src\misc/lv_printf.c **** }
 678              		.loc 1 272 0
 679 0094 14B0     		add	sp, sp, #80
 680              		@ sp needed
 681              	.LVL91:
 682              	.LVL92:
ARM GAS  C:\Users\haske\AppData\Local\Temp\ccZHF2NV.s 			page 18


 683 0096 04BC     		pop	{r2}
 684 0098 9046     		mov	r8, r2
 685 009a F0BD     		pop	{r4, r5, r6, r7, pc}
 686              		.cfi_endproc
 687              	.LFE7:
 688              		.size	_ntoa_long, .-_ntoa_long
 689              		.global	__aeabi_uldivmod
 690              		.section	.text._ntoa_long_long,"ax",%progbits
 691              		.align	2
 692              		.code	16
 693              		.thumb_func
 694              		.type	_ntoa_long_long, %function
 695              	_ntoa_long_long:
 696              	.LFB8:
 273:..\..\..\arduinoLCD\test\Pain Drain\libraries\lvgl\src\misc/lv_printf.c **** 
 274:..\..\..\arduinoLCD\test\Pain Drain\libraries\lvgl\src\misc/lv_printf.c **** // internal itoa for 'long long' type
 275:..\..\..\arduinoLCD\test\Pain Drain\libraries\lvgl\src\misc/lv_printf.c **** #if defined(PRINTF_SUPPORT_LONG_LONG)
 276:..\..\..\arduinoLCD\test\Pain Drain\libraries\lvgl\src\misc/lv_printf.c **** static size_t _ntoa_long_long(out_fct_type out, char * buffer, size_t idx, size_t maxlen, unsigned 
 277:..\..\..\arduinoLCD\test\Pain Drain\libraries\lvgl\src\misc/lv_printf.c ****                               bool negative, unsigned long long base, unsigned int prec, unsigned i
 278:..\..\..\arduinoLCD\test\Pain Drain\libraries\lvgl\src\misc/lv_printf.c **** {
 697              		.loc 1 278 0
 698              		.cfi_startproc
 699              		@ args = 36, pretend = 0, frame = 64
 700              		@ frame_needed = 0, uses_anonymous_args = 0
 701              	.LVL93:
 702 0000 F0B5     		push	{r4, r5, r6, r7, lr}
 703              		.cfi_def_cfa_offset 20
 704              		.cfi_offset 4, -20
 705              		.cfi_offset 5, -16
 706              		.cfi_offset 6, -12
 707              		.cfi_offset 7, -8
 708              		.cfi_offset 14, -4
 709 0002 5F46     		mov	r7, fp
 710 0004 5646     		mov	r6, r10
 711 0006 C0B4     		push	{r6, r7}
 712              		.cfi_def_cfa_offset 28
 713              		.cfi_offset 10, -28
 714              		.cfi_offset 11, -24
 715 0008 99B0     		sub	sp, sp, #100
 716              		.cfi_def_cfa_offset 128
 717 000a 0C90     		str	r0, [sp, #48]
 718 000c 0D91     		str	r1, [sp, #52]
 719 000e 0E92     		str	r2, [sp, #56]
 720 0010 0F93     		str	r3, [sp, #60]
 721 0012 209C     		ldr	r4, [sp, #128]
 722 0014 219D     		ldr	r5, [sp, #132]
 723 0016 22AB     		add	r3, sp, #136
 724              	.LVL94:
 725 0018 1B78     		ldrb	r3, [r3]
 726              	.LVL95:
 727 001a 9B46     		mov	fp, r3
 728 001c 249B     		ldr	r3, [sp, #144]
 729 001e 0A93     		str	r3, [sp, #40]
 730 0020 259B     		ldr	r3, [sp, #148]
 731 0022 0B93     		str	r3, [sp, #44]
 732 0024 289B     		ldr	r3, [sp, #160]
 733 0026 9A46     		mov	r10, r3
ARM GAS  C:\Users\haske\AppData\Local\Temp\ccZHF2NV.s 			page 19


 734              	.LVL96:
 279:..\..\..\arduinoLCD\test\Pain Drain\libraries\lvgl\src\misc/lv_printf.c ****     char buf[PRINTF_NTOA_BUFFER_SIZE];
 280:..\..\..\arduinoLCD\test\Pain Drain\libraries\lvgl\src\misc/lv_printf.c ****     size_t len = 0U;
 281:..\..\..\arduinoLCD\test\Pain Drain\libraries\lvgl\src\misc/lv_printf.c **** 
 282:..\..\..\arduinoLCD\test\Pain Drain\libraries\lvgl\src\misc/lv_printf.c ****     // no hash for 0 values
 283:..\..\..\arduinoLCD\test\Pain Drain\libraries\lvgl\src\misc/lv_printf.c ****     if(!value) {
 735              		.loc 1 283 0
 736 0028 2300     		movs	r3, r4
 737 002a 2B43     		orrs	r3, r5
 738 002c 03D1     		bne	.L48
 284:..\..\..\arduinoLCD\test\Pain Drain\libraries\lvgl\src\misc/lv_printf.c ****         flags &= ~FLAGS_HASH;
 739              		.loc 1 284 0
 740 002e 1033     		adds	r3, r3, #16
 741 0030 5246     		mov	r2, r10
 742              	.LVL97:
 743 0032 9A43     		bics	r2, r3
 744 0034 9246     		mov	r10, r2
 745              	.LVL98:
 746              	.L48:
 285:..\..\..\arduinoLCD\test\Pain Drain\libraries\lvgl\src\misc/lv_printf.c ****     }
 286:..\..\..\arduinoLCD\test\Pain Drain\libraries\lvgl\src\misc/lv_printf.c **** 
 287:..\..\..\arduinoLCD\test\Pain Drain\libraries\lvgl\src\misc/lv_printf.c ****     // write if precision != 0 and value is != 0
 288:..\..\..\arduinoLCD\test\Pain Drain\libraries\lvgl\src\misc/lv_printf.c ****     if(!(flags & FLAGS_PRECISION) || value) {
 747              		.loc 1 288 0
 748 0036 5346     		mov	r3, r10
 749 0038 5B05     		lsls	r3, r3, #21
 750 003a 06D5     		bpl	.L56
 751              		.loc 1 288 0 is_stmt 0 discriminator 1
 752 003c 2300     		movs	r3, r4
 753 003e 2B43     		orrs	r3, r5
 754 0040 2ED0     		beq	.L57
 755 0042 0026     		movs	r6, #0
 756 0044 5746     		mov	r7, r10
 757 0046 0994     		str	r4, [sp, #36]
 758 0048 02E0     		b	.L49
 759              	.L56:
 760 004a 0026     		movs	r6, #0
 761 004c 5746     		mov	r7, r10
 762 004e 0994     		str	r4, [sp, #36]
 763              	.LVL99:
 764              	.L49:
 765              	.LBB26:
 289:..\..\..\arduinoLCD\test\Pain Drain\libraries\lvgl\src\misc/lv_printf.c ****         do {
 290:..\..\..\arduinoLCD\test\Pain Drain\libraries\lvgl\src\misc/lv_printf.c ****             const char digit = (char)(value % base);
 766              		.loc 1 290 0 is_stmt 1
 767 0050 0A9A     		ldr	r2, [sp, #40]
 768 0052 0B9B     		ldr	r3, [sp, #44]
 769 0054 0998     		ldr	r0, [sp, #36]
 770 0056 2900     		movs	r1, r5
 771 0058 FFF7FEFF 		bl	__aeabi_uldivmod
 772              	.LVL100:
 773 005c D2B2     		uxtb	r2, r2
 774              	.LVL101:
 291:..\..\..\arduinoLCD\test\Pain Drain\libraries\lvgl\src\misc/lv_printf.c ****             buf[len++] = digit < 10 ? '0' + digit : (flags & FLAGS_UPPERCASE ? 'A' : 'a') + digit -
 775              		.loc 1 291 0
 776 005e 741C     		adds	r4, r6, #1
 777              	.LVL102:
ARM GAS  C:\Users\haske\AppData\Local\Temp\ccZHF2NV.s 			page 20


 778 0060 092A     		cmp	r2, #9
 779 0062 02D8     		bhi	.L52
 780              		.loc 1 291 0 is_stmt 0 discriminator 1
 781 0064 3032     		adds	r2, r2, #48
 782              	.LVL103:
 783 0066 D2B2     		uxtb	r2, r2
 784              	.LVL104:
 785 0068 07E0     		b	.L53
 786              	.LVL105:
 787              	.L52:
 788              		.loc 1 291 0 discriminator 2
 789 006a BB06     		lsls	r3, r7, #26
 790 006c 01D5     		bpl	.L58
 791              		.loc 1 291 0
 792 006e 4123     		movs	r3, #65
 793 0070 00E0     		b	.L54
 794              	.L58:
 795 0072 6123     		movs	r3, #97
 796              	.L54:
 797              		.loc 1 291 0 discriminator 7
 798 0074 9A18     		adds	r2, r3, r2
 799              	.LVL106:
 800 0076 0A3A     		subs	r2, r2, #10
 801 0078 D2B2     		uxtb	r2, r2
 802              	.L53:
 803              		.loc 1 291 0 discriminator 8
 804 007a 10AB     		add	r3, sp, #64
 805 007c 9A55     		strb	r2, [r3, r6]
 292:..\..\..\arduinoLCD\test\Pain Drain\libraries\lvgl\src\misc/lv_printf.c ****             value /= base;
 806              		.loc 1 292 0 is_stmt 1 discriminator 8
 807 007e 0A9A     		ldr	r2, [sp, #40]
 808 0080 0B9B     		ldr	r3, [sp, #44]
 809 0082 0998     		ldr	r0, [sp, #36]
 810 0084 2900     		movs	r1, r5
 811 0086 FFF7FEFF 		bl	__aeabi_uldivmod
 812              	.LVL107:
 813 008a 0990     		str	r0, [sp, #36]
 814              	.LVL108:
 815 008c 0D00     		movs	r5, r1
 816              	.LVL109:
 817              	.LBE26:
 293:..\..\..\arduinoLCD\test\Pain Drain\libraries\lvgl\src\misc/lv_printf.c ****         } while(value && (len < PRINTF_NTOA_BUFFER_SIZE));
 818              		.loc 1 293 0 discriminator 8
 819 008e 0B00     		movs	r3, r1
 820 0090 0343     		orrs	r3, r0
 821 0092 07D0     		beq	.L59
 822              	.LBB27:
 291:..\..\..\arduinoLCD\test\Pain Drain\libraries\lvgl\src\misc/lv_printf.c ****             buf[len++] = digit < 10 ? '0' + digit : (flags & FLAGS_UPPERCASE ? 'A' : 'a') + digit -
 823              		.loc 1 291 0 discriminator 1
 824 0094 2600     		movs	r6, r4
 825              	.LBE27:
 826              		.loc 1 293 0 discriminator 1
 827 0096 1F2C     		cmp	r4, #31
 828 0098 DAD9     		bls	.L49
 829 009a BA46     		mov	r10, r7
 830 009c 2700     		movs	r7, r4
 831              	.LVL110:
ARM GAS  C:\Users\haske\AppData\Local\Temp\ccZHF2NV.s 			page 21


 832 009e 03E0     		b	.L50
 833              	.LVL111:
 834              	.L57:
 280:..\..\..\arduinoLCD\test\Pain Drain\libraries\lvgl\src\misc/lv_printf.c **** 
 835              		.loc 1 280 0
 836 00a0 0027     		movs	r7, #0
 837 00a2 01E0     		b	.L50
 838              	.LVL112:
 839              	.L59:
 840 00a4 BA46     		mov	r10, r7
 841 00a6 2700     		movs	r7, r4
 842              	.LVL113:
 843              	.L50:
 294:..\..\..\arduinoLCD\test\Pain Drain\libraries\lvgl\src\misc/lv_printf.c ****     }
 295:..\..\..\arduinoLCD\test\Pain Drain\libraries\lvgl\src\misc/lv_printf.c **** 
 296:..\..\..\arduinoLCD\test\Pain Drain\libraries\lvgl\src\misc/lv_printf.c ****     return _ntoa_format(out, buffer, idx, maxlen, buf, len, negative, (unsigned int)base, prec, wid
 844              		.loc 1 296 0
 845 00a8 5346     		mov	r3, r10
 846 00aa 0693     		str	r3, [sp, #24]
 847 00ac 279B     		ldr	r3, [sp, #156]
 848 00ae 0593     		str	r3, [sp, #20]
 849 00b0 269B     		ldr	r3, [sp, #152]
 850 00b2 0493     		str	r3, [sp, #16]
 851 00b4 0A9B     		ldr	r3, [sp, #40]
 852 00b6 0393     		str	r3, [sp, #12]
 853 00b8 5B46     		mov	r3, fp
 854 00ba 0293     		str	r3, [sp, #8]
 855 00bc 0197     		str	r7, [sp, #4]
 856 00be 10AB     		add	r3, sp, #64
 857 00c0 0093     		str	r3, [sp]
 858 00c2 0F9B     		ldr	r3, [sp, #60]
 859 00c4 0E9A     		ldr	r2, [sp, #56]
 860 00c6 0D99     		ldr	r1, [sp, #52]
 861 00c8 0C98     		ldr	r0, [sp, #48]
 862 00ca FFF7FEFF 		bl	_ntoa_format
 863              	.LVL114:
 297:..\..\..\arduinoLCD\test\Pain Drain\libraries\lvgl\src\misc/lv_printf.c **** }
 864              		.loc 1 297 0
 865 00ce 19B0     		add	sp, sp, #100
 866              		@ sp needed
 867              	.LVL115:
 868              	.LVL116:
 869 00d0 0CBC     		pop	{r2, r3}
 870 00d2 9246     		mov	r10, r2
 871 00d4 9B46     		mov	fp, r3
 872 00d6 F0BD     		pop	{r4, r5, r6, r7, pc}
 873              		.cfi_endproc
 874              	.LFE8:
 875              		.size	_ntoa_long_long, .-_ntoa_long_long
 876              		.section	.text._vsnprintf,"ax",%progbits
 877              		.align	2
 878              		.code	16
 879              		.thumb_func
 880              		.type	_vsnprintf, %function
 881              	_vsnprintf:
 882              	.LFB9:
 298:..\..\..\arduinoLCD\test\Pain Drain\libraries\lvgl\src\misc/lv_printf.c **** #endif  // PRINTF_SUPPORT_LONG_LONG
ARM GAS  C:\Users\haske\AppData\Local\Temp\ccZHF2NV.s 			page 22


 299:..\..\..\arduinoLCD\test\Pain Drain\libraries\lvgl\src\misc/lv_printf.c **** 
 300:..\..\..\arduinoLCD\test\Pain Drain\libraries\lvgl\src\misc/lv_printf.c **** #if defined(PRINTF_SUPPORT_FLOAT)
 301:..\..\..\arduinoLCD\test\Pain Drain\libraries\lvgl\src\misc/lv_printf.c **** 
 302:..\..\..\arduinoLCD\test\Pain Drain\libraries\lvgl\src\misc/lv_printf.c **** #if defined(PRINTF_SUPPORT_EXPONENTIAL)
 303:..\..\..\arduinoLCD\test\Pain Drain\libraries\lvgl\src\misc/lv_printf.c **** // forward declaration so that _ftoa can switch to exp notation for values > PRINTF_MAX_FLOAT
 304:..\..\..\arduinoLCD\test\Pain Drain\libraries\lvgl\src\misc/lv_printf.c **** static size_t _etoa(out_fct_type out, char * buffer, size_t idx, size_t maxlen, double value, unsig
 305:..\..\..\arduinoLCD\test\Pain Drain\libraries\lvgl\src\misc/lv_printf.c ****                     unsigned int width, unsigned int flags);
 306:..\..\..\arduinoLCD\test\Pain Drain\libraries\lvgl\src\misc/lv_printf.c **** #endif
 307:..\..\..\arduinoLCD\test\Pain Drain\libraries\lvgl\src\misc/lv_printf.c **** 
 308:..\..\..\arduinoLCD\test\Pain Drain\libraries\lvgl\src\misc/lv_printf.c **** // internal ftoa for fixed decimal floating point
 309:..\..\..\arduinoLCD\test\Pain Drain\libraries\lvgl\src\misc/lv_printf.c **** static size_t _ftoa(out_fct_type out, char * buffer, size_t idx, size_t maxlen, double value, unsig
 310:..\..\..\arduinoLCD\test\Pain Drain\libraries\lvgl\src\misc/lv_printf.c ****                     unsigned int width, unsigned int flags)
 311:..\..\..\arduinoLCD\test\Pain Drain\libraries\lvgl\src\misc/lv_printf.c **** {
 312:..\..\..\arduinoLCD\test\Pain Drain\libraries\lvgl\src\misc/lv_printf.c ****     char buf[PRINTF_FTOA_BUFFER_SIZE];
 313:..\..\..\arduinoLCD\test\Pain Drain\libraries\lvgl\src\misc/lv_printf.c ****     size_t len  = 0U;
 314:..\..\..\arduinoLCD\test\Pain Drain\libraries\lvgl\src\misc/lv_printf.c ****     double diff = 0.0;
 315:..\..\..\arduinoLCD\test\Pain Drain\libraries\lvgl\src\misc/lv_printf.c **** 
 316:..\..\..\arduinoLCD\test\Pain Drain\libraries\lvgl\src\misc/lv_printf.c ****     // powers of 10
 317:..\..\..\arduinoLCD\test\Pain Drain\libraries\lvgl\src\misc/lv_printf.c ****     static const double pow10[] = { 1, 10, 100, 1000, 10000, 100000, 1000000, 10000000, 100000000, 
 318:..\..\..\arduinoLCD\test\Pain Drain\libraries\lvgl\src\misc/lv_printf.c **** 
 319:..\..\..\arduinoLCD\test\Pain Drain\libraries\lvgl\src\misc/lv_printf.c ****     // test for special values
 320:..\..\..\arduinoLCD\test\Pain Drain\libraries\lvgl\src\misc/lv_printf.c ****     if(value != value)
 321:..\..\..\arduinoLCD\test\Pain Drain\libraries\lvgl\src\misc/lv_printf.c ****         return _out_rev(out, buffer, idx, maxlen, "nan", 3, width, flags);
 322:..\..\..\arduinoLCD\test\Pain Drain\libraries\lvgl\src\misc/lv_printf.c ****     if(value < -DBL_MAX)
 323:..\..\..\arduinoLCD\test\Pain Drain\libraries\lvgl\src\misc/lv_printf.c ****         return _out_rev(out, buffer, idx, maxlen, "fni-", 4, width, flags);
 324:..\..\..\arduinoLCD\test\Pain Drain\libraries\lvgl\src\misc/lv_printf.c ****     if(value > DBL_MAX)
 325:..\..\..\arduinoLCD\test\Pain Drain\libraries\lvgl\src\misc/lv_printf.c ****         return _out_rev(out, buffer, idx, maxlen, (flags & FLAGS_PLUS) ? "fni+" : "fni", (flags & F
 326:..\..\..\arduinoLCD\test\Pain Drain\libraries\lvgl\src\misc/lv_printf.c ****                         flags);
 327:..\..\..\arduinoLCD\test\Pain Drain\libraries\lvgl\src\misc/lv_printf.c **** 
 328:..\..\..\arduinoLCD\test\Pain Drain\libraries\lvgl\src\misc/lv_printf.c ****     // test for very large values
 329:..\..\..\arduinoLCD\test\Pain Drain\libraries\lvgl\src\misc/lv_printf.c ****     // standard printf behavior is to print EVERY whole number digit -- which could be 100s of char
 330:..\..\..\arduinoLCD\test\Pain Drain\libraries\lvgl\src\misc/lv_printf.c ****     if((value > PRINTF_MAX_FLOAT) || (value < -PRINTF_MAX_FLOAT)) {
 331:..\..\..\arduinoLCD\test\Pain Drain\libraries\lvgl\src\misc/lv_printf.c **** #if defined(PRINTF_SUPPORT_EXPONENTIAL)
 332:..\..\..\arduinoLCD\test\Pain Drain\libraries\lvgl\src\misc/lv_printf.c ****         return _etoa(out, buffer, idx, maxlen, value, prec, width, flags);
 333:..\..\..\arduinoLCD\test\Pain Drain\libraries\lvgl\src\misc/lv_printf.c **** #else
 334:..\..\..\arduinoLCD\test\Pain Drain\libraries\lvgl\src\misc/lv_printf.c ****         return 0U;
 335:..\..\..\arduinoLCD\test\Pain Drain\libraries\lvgl\src\misc/lv_printf.c **** #endif
 336:..\..\..\arduinoLCD\test\Pain Drain\libraries\lvgl\src\misc/lv_printf.c ****     }
 337:..\..\..\arduinoLCD\test\Pain Drain\libraries\lvgl\src\misc/lv_printf.c **** 
 338:..\..\..\arduinoLCD\test\Pain Drain\libraries\lvgl\src\misc/lv_printf.c ****     // test for negative
 339:..\..\..\arduinoLCD\test\Pain Drain\libraries\lvgl\src\misc/lv_printf.c ****     bool negative = false;
 340:..\..\..\arduinoLCD\test\Pain Drain\libraries\lvgl\src\misc/lv_printf.c ****     if(value < 0) {
 341:..\..\..\arduinoLCD\test\Pain Drain\libraries\lvgl\src\misc/lv_printf.c ****         negative = true;
 342:..\..\..\arduinoLCD\test\Pain Drain\libraries\lvgl\src\misc/lv_printf.c ****         value = 0 - value;
 343:..\..\..\arduinoLCD\test\Pain Drain\libraries\lvgl\src\misc/lv_printf.c ****     }
 344:..\..\..\arduinoLCD\test\Pain Drain\libraries\lvgl\src\misc/lv_printf.c **** 
 345:..\..\..\arduinoLCD\test\Pain Drain\libraries\lvgl\src\misc/lv_printf.c ****     // set default precision, if not set explicitly
 346:..\..\..\arduinoLCD\test\Pain Drain\libraries\lvgl\src\misc/lv_printf.c ****     if(!(flags & FLAGS_PRECISION)) {
 347:..\..\..\arduinoLCD\test\Pain Drain\libraries\lvgl\src\misc/lv_printf.c ****         prec = PRINTF_DEFAULT_FLOAT_PRECISION;
 348:..\..\..\arduinoLCD\test\Pain Drain\libraries\lvgl\src\misc/lv_printf.c ****     }
 349:..\..\..\arduinoLCD\test\Pain Drain\libraries\lvgl\src\misc/lv_printf.c ****     // limit precision to 9, cause a prec >= 10 can lead to overflow errors
 350:..\..\..\arduinoLCD\test\Pain Drain\libraries\lvgl\src\misc/lv_printf.c ****     while((len < PRINTF_FTOA_BUFFER_SIZE) && (prec > 9U)) {
 351:..\..\..\arduinoLCD\test\Pain Drain\libraries\lvgl\src\misc/lv_printf.c ****         buf[len++] = '0';
 352:..\..\..\arduinoLCD\test\Pain Drain\libraries\lvgl\src\misc/lv_printf.c ****         prec--;
 353:..\..\..\arduinoLCD\test\Pain Drain\libraries\lvgl\src\misc/lv_printf.c ****     }
 354:..\..\..\arduinoLCD\test\Pain Drain\libraries\lvgl\src\misc/lv_printf.c **** 
 355:..\..\..\arduinoLCD\test\Pain Drain\libraries\lvgl\src\misc/lv_printf.c ****     int whole = (int)value;
ARM GAS  C:\Users\haske\AppData\Local\Temp\ccZHF2NV.s 			page 23


 356:..\..\..\arduinoLCD\test\Pain Drain\libraries\lvgl\src\misc/lv_printf.c ****     double tmp = (value - whole) * pow10[prec];
 357:..\..\..\arduinoLCD\test\Pain Drain\libraries\lvgl\src\misc/lv_printf.c ****     unsigned long frac = (unsigned long)tmp;
 358:..\..\..\arduinoLCD\test\Pain Drain\libraries\lvgl\src\misc/lv_printf.c ****     diff = tmp - frac;
 359:..\..\..\arduinoLCD\test\Pain Drain\libraries\lvgl\src\misc/lv_printf.c **** 
 360:..\..\..\arduinoLCD\test\Pain Drain\libraries\lvgl\src\misc/lv_printf.c ****     if(diff > 0.5) {
 361:..\..\..\arduinoLCD\test\Pain Drain\libraries\lvgl\src\misc/lv_printf.c ****         ++frac;
 362:..\..\..\arduinoLCD\test\Pain Drain\libraries\lvgl\src\misc/lv_printf.c ****         // handle rollover, e.g. case 0.99 with prec 1 is 1.0
 363:..\..\..\arduinoLCD\test\Pain Drain\libraries\lvgl\src\misc/lv_printf.c ****         if(frac >= pow10[prec]) {
 364:..\..\..\arduinoLCD\test\Pain Drain\libraries\lvgl\src\misc/lv_printf.c ****             frac = 0;
 365:..\..\..\arduinoLCD\test\Pain Drain\libraries\lvgl\src\misc/lv_printf.c ****             ++whole;
 366:..\..\..\arduinoLCD\test\Pain Drain\libraries\lvgl\src\misc/lv_printf.c ****         }
 367:..\..\..\arduinoLCD\test\Pain Drain\libraries\lvgl\src\misc/lv_printf.c ****     }
 368:..\..\..\arduinoLCD\test\Pain Drain\libraries\lvgl\src\misc/lv_printf.c ****     else if(diff < 0.5) {
 369:..\..\..\arduinoLCD\test\Pain Drain\libraries\lvgl\src\misc/lv_printf.c ****     }
 370:..\..\..\arduinoLCD\test\Pain Drain\libraries\lvgl\src\misc/lv_printf.c ****     else if((frac == 0U) || (frac & 1U)) {
 371:..\..\..\arduinoLCD\test\Pain Drain\libraries\lvgl\src\misc/lv_printf.c ****         // if halfway, round up if odd OR if last digit is 0
 372:..\..\..\arduinoLCD\test\Pain Drain\libraries\lvgl\src\misc/lv_printf.c ****         ++frac;
 373:..\..\..\arduinoLCD\test\Pain Drain\libraries\lvgl\src\misc/lv_printf.c ****     }
 374:..\..\..\arduinoLCD\test\Pain Drain\libraries\lvgl\src\misc/lv_printf.c **** 
 375:..\..\..\arduinoLCD\test\Pain Drain\libraries\lvgl\src\misc/lv_printf.c ****     if(prec == 0U) {
 376:..\..\..\arduinoLCD\test\Pain Drain\libraries\lvgl\src\misc/lv_printf.c ****         diff = value - (double)whole;
 377:..\..\..\arduinoLCD\test\Pain Drain\libraries\lvgl\src\misc/lv_printf.c ****         if((!(diff < 0.5) || (diff > 0.5)) && (whole & 1)) {
 378:..\..\..\arduinoLCD\test\Pain Drain\libraries\lvgl\src\misc/lv_printf.c ****             // exactly 0.5 and ODD, then round up
 379:..\..\..\arduinoLCD\test\Pain Drain\libraries\lvgl\src\misc/lv_printf.c ****             // 1.5 -> 2, but 2.5 -> 2
 380:..\..\..\arduinoLCD\test\Pain Drain\libraries\lvgl\src\misc/lv_printf.c ****             ++whole;
 381:..\..\..\arduinoLCD\test\Pain Drain\libraries\lvgl\src\misc/lv_printf.c ****         }
 382:..\..\..\arduinoLCD\test\Pain Drain\libraries\lvgl\src\misc/lv_printf.c ****     }
 383:..\..\..\arduinoLCD\test\Pain Drain\libraries\lvgl\src\misc/lv_printf.c ****     else {
 384:..\..\..\arduinoLCD\test\Pain Drain\libraries\lvgl\src\misc/lv_printf.c ****         unsigned int count = prec;
 385:..\..\..\arduinoLCD\test\Pain Drain\libraries\lvgl\src\misc/lv_printf.c ****         // now do fractional part, as an unsigned number
 386:..\..\..\arduinoLCD\test\Pain Drain\libraries\lvgl\src\misc/lv_printf.c ****         while(len < PRINTF_FTOA_BUFFER_SIZE) {
 387:..\..\..\arduinoLCD\test\Pain Drain\libraries\lvgl\src\misc/lv_printf.c ****             --count;
 388:..\..\..\arduinoLCD\test\Pain Drain\libraries\lvgl\src\misc/lv_printf.c ****             buf[len++] = (char)(48U + (frac % 10U));
 389:..\..\..\arduinoLCD\test\Pain Drain\libraries\lvgl\src\misc/lv_printf.c ****             if(!(frac /= 10U)) {
 390:..\..\..\arduinoLCD\test\Pain Drain\libraries\lvgl\src\misc/lv_printf.c ****                 break;
 391:..\..\..\arduinoLCD\test\Pain Drain\libraries\lvgl\src\misc/lv_printf.c ****             }
 392:..\..\..\arduinoLCD\test\Pain Drain\libraries\lvgl\src\misc/lv_printf.c ****         }
 393:..\..\..\arduinoLCD\test\Pain Drain\libraries\lvgl\src\misc/lv_printf.c ****         // add extra 0s
 394:..\..\..\arduinoLCD\test\Pain Drain\libraries\lvgl\src\misc/lv_printf.c ****         while((len < PRINTF_FTOA_BUFFER_SIZE) && (count-- > 0U)) {
 395:..\..\..\arduinoLCD\test\Pain Drain\libraries\lvgl\src\misc/lv_printf.c ****             buf[len++] = '0';
 396:..\..\..\arduinoLCD\test\Pain Drain\libraries\lvgl\src\misc/lv_printf.c ****         }
 397:..\..\..\arduinoLCD\test\Pain Drain\libraries\lvgl\src\misc/lv_printf.c ****         if(len < PRINTF_FTOA_BUFFER_SIZE) {
 398:..\..\..\arduinoLCD\test\Pain Drain\libraries\lvgl\src\misc/lv_printf.c ****             // add decimal
 399:..\..\..\arduinoLCD\test\Pain Drain\libraries\lvgl\src\misc/lv_printf.c ****             buf[len++] = '.';
 400:..\..\..\arduinoLCD\test\Pain Drain\libraries\lvgl\src\misc/lv_printf.c ****         }
 401:..\..\..\arduinoLCD\test\Pain Drain\libraries\lvgl\src\misc/lv_printf.c ****     }
 402:..\..\..\arduinoLCD\test\Pain Drain\libraries\lvgl\src\misc/lv_printf.c **** 
 403:..\..\..\arduinoLCD\test\Pain Drain\libraries\lvgl\src\misc/lv_printf.c ****     // do whole part, number is reversed
 404:..\..\..\arduinoLCD\test\Pain Drain\libraries\lvgl\src\misc/lv_printf.c ****     while(len < PRINTF_FTOA_BUFFER_SIZE) {
 405:..\..\..\arduinoLCD\test\Pain Drain\libraries\lvgl\src\misc/lv_printf.c ****         buf[len++] = (char)(48 + (whole % 10));
 406:..\..\..\arduinoLCD\test\Pain Drain\libraries\lvgl\src\misc/lv_printf.c ****         if(!(whole /= 10)) {
 407:..\..\..\arduinoLCD\test\Pain Drain\libraries\lvgl\src\misc/lv_printf.c ****             break;
 408:..\..\..\arduinoLCD\test\Pain Drain\libraries\lvgl\src\misc/lv_printf.c ****         }
 409:..\..\..\arduinoLCD\test\Pain Drain\libraries\lvgl\src\misc/lv_printf.c ****     }
 410:..\..\..\arduinoLCD\test\Pain Drain\libraries\lvgl\src\misc/lv_printf.c **** 
 411:..\..\..\arduinoLCD\test\Pain Drain\libraries\lvgl\src\misc/lv_printf.c ****     // pad leading zeros
 412:..\..\..\arduinoLCD\test\Pain Drain\libraries\lvgl\src\misc/lv_printf.c ****     if(!(flags & FLAGS_LEFT) && (flags & FLAGS_ZEROPAD)) {
ARM GAS  C:\Users\haske\AppData\Local\Temp\ccZHF2NV.s 			page 24


 413:..\..\..\arduinoLCD\test\Pain Drain\libraries\lvgl\src\misc/lv_printf.c ****         if(width && (negative || (flags & (FLAGS_PLUS | FLAGS_SPACE)))) {
 414:..\..\..\arduinoLCD\test\Pain Drain\libraries\lvgl\src\misc/lv_printf.c ****             width--;
 415:..\..\..\arduinoLCD\test\Pain Drain\libraries\lvgl\src\misc/lv_printf.c ****         }
 416:..\..\..\arduinoLCD\test\Pain Drain\libraries\lvgl\src\misc/lv_printf.c ****         while((len < width) && (len < PRINTF_FTOA_BUFFER_SIZE)) {
 417:..\..\..\arduinoLCD\test\Pain Drain\libraries\lvgl\src\misc/lv_printf.c ****             buf[len++] = '0';
 418:..\..\..\arduinoLCD\test\Pain Drain\libraries\lvgl\src\misc/lv_printf.c ****         }
 419:..\..\..\arduinoLCD\test\Pain Drain\libraries\lvgl\src\misc/lv_printf.c ****     }
 420:..\..\..\arduinoLCD\test\Pain Drain\libraries\lvgl\src\misc/lv_printf.c **** 
 421:..\..\..\arduinoLCD\test\Pain Drain\libraries\lvgl\src\misc/lv_printf.c ****     if(len < PRINTF_FTOA_BUFFER_SIZE) {
 422:..\..\..\arduinoLCD\test\Pain Drain\libraries\lvgl\src\misc/lv_printf.c ****         if(negative) {
 423:..\..\..\arduinoLCD\test\Pain Drain\libraries\lvgl\src\misc/lv_printf.c ****             buf[len++] = '-';
 424:..\..\..\arduinoLCD\test\Pain Drain\libraries\lvgl\src\misc/lv_printf.c ****         }
 425:..\..\..\arduinoLCD\test\Pain Drain\libraries\lvgl\src\misc/lv_printf.c ****         else if(flags & FLAGS_PLUS) {
 426:..\..\..\arduinoLCD\test\Pain Drain\libraries\lvgl\src\misc/lv_printf.c ****             buf[len++] = '+';  // ignore the space if the '+' exists
 427:..\..\..\arduinoLCD\test\Pain Drain\libraries\lvgl\src\misc/lv_printf.c ****         }
 428:..\..\..\arduinoLCD\test\Pain Drain\libraries\lvgl\src\misc/lv_printf.c ****         else if(flags & FLAGS_SPACE) {
 429:..\..\..\arduinoLCD\test\Pain Drain\libraries\lvgl\src\misc/lv_printf.c ****             buf[len++] = ' ';
 430:..\..\..\arduinoLCD\test\Pain Drain\libraries\lvgl\src\misc/lv_printf.c ****         }
 431:..\..\..\arduinoLCD\test\Pain Drain\libraries\lvgl\src\misc/lv_printf.c ****     }
 432:..\..\..\arduinoLCD\test\Pain Drain\libraries\lvgl\src\misc/lv_printf.c **** 
 433:..\..\..\arduinoLCD\test\Pain Drain\libraries\lvgl\src\misc/lv_printf.c ****     return _out_rev(out, buffer, idx, maxlen, buf, len, width, flags);
 434:..\..\..\arduinoLCD\test\Pain Drain\libraries\lvgl\src\misc/lv_printf.c **** }
 435:..\..\..\arduinoLCD\test\Pain Drain\libraries\lvgl\src\misc/lv_printf.c **** 
 436:..\..\..\arduinoLCD\test\Pain Drain\libraries\lvgl\src\misc/lv_printf.c **** #if defined(PRINTF_SUPPORT_EXPONENTIAL)
 437:..\..\..\arduinoLCD\test\Pain Drain\libraries\lvgl\src\misc/lv_printf.c **** // internal ftoa variant for exponential floating-point type, contributed by Martijn Jasperse <m.ja
 438:..\..\..\arduinoLCD\test\Pain Drain\libraries\lvgl\src\misc/lv_printf.c **** static size_t _etoa(out_fct_type out, char * buffer, size_t idx, size_t maxlen, double value, unsig
 439:..\..\..\arduinoLCD\test\Pain Drain\libraries\lvgl\src\misc/lv_printf.c ****                     unsigned int width, unsigned int flags)
 440:..\..\..\arduinoLCD\test\Pain Drain\libraries\lvgl\src\misc/lv_printf.c **** {
 441:..\..\..\arduinoLCD\test\Pain Drain\libraries\lvgl\src\misc/lv_printf.c ****     // check for NaN and special values
 442:..\..\..\arduinoLCD\test\Pain Drain\libraries\lvgl\src\misc/lv_printf.c ****     if((value != value) || (value > DBL_MAX) || (value < -DBL_MAX)) {
 443:..\..\..\arduinoLCD\test\Pain Drain\libraries\lvgl\src\misc/lv_printf.c ****         return _ftoa(out, buffer, idx, maxlen, value, prec, width, flags);
 444:..\..\..\arduinoLCD\test\Pain Drain\libraries\lvgl\src\misc/lv_printf.c ****     }
 445:..\..\..\arduinoLCD\test\Pain Drain\libraries\lvgl\src\misc/lv_printf.c **** 
 446:..\..\..\arduinoLCD\test\Pain Drain\libraries\lvgl\src\misc/lv_printf.c ****     // determine the sign
 447:..\..\..\arduinoLCD\test\Pain Drain\libraries\lvgl\src\misc/lv_printf.c ****     const bool negative = value < 0;
 448:..\..\..\arduinoLCD\test\Pain Drain\libraries\lvgl\src\misc/lv_printf.c ****     if(negative) {
 449:..\..\..\arduinoLCD\test\Pain Drain\libraries\lvgl\src\misc/lv_printf.c ****         value = -value;
 450:..\..\..\arduinoLCD\test\Pain Drain\libraries\lvgl\src\misc/lv_printf.c ****     }
 451:..\..\..\arduinoLCD\test\Pain Drain\libraries\lvgl\src\misc/lv_printf.c **** 
 452:..\..\..\arduinoLCD\test\Pain Drain\libraries\lvgl\src\misc/lv_printf.c ****     // default precision
 453:..\..\..\arduinoLCD\test\Pain Drain\libraries\lvgl\src\misc/lv_printf.c ****     if(!(flags & FLAGS_PRECISION)) {
 454:..\..\..\arduinoLCD\test\Pain Drain\libraries\lvgl\src\misc/lv_printf.c ****         prec = PRINTF_DEFAULT_FLOAT_PRECISION;
 455:..\..\..\arduinoLCD\test\Pain Drain\libraries\lvgl\src\misc/lv_printf.c ****     }
 456:..\..\..\arduinoLCD\test\Pain Drain\libraries\lvgl\src\misc/lv_printf.c **** 
 457:..\..\..\arduinoLCD\test\Pain Drain\libraries\lvgl\src\misc/lv_printf.c ****     // determine the decimal exponent
 458:..\..\..\arduinoLCD\test\Pain Drain\libraries\lvgl\src\misc/lv_printf.c ****     // based on the algorithm by David Gay (https://www.ampl.com/netlib/fp/dtoa.c)
 459:..\..\..\arduinoLCD\test\Pain Drain\libraries\lvgl\src\misc/lv_printf.c ****     union {
 460:..\..\..\arduinoLCD\test\Pain Drain\libraries\lvgl\src\misc/lv_printf.c ****         uint64_t U;
 461:..\..\..\arduinoLCD\test\Pain Drain\libraries\lvgl\src\misc/lv_printf.c ****         double   F;
 462:..\..\..\arduinoLCD\test\Pain Drain\libraries\lvgl\src\misc/lv_printf.c ****     } conv;
 463:..\..\..\arduinoLCD\test\Pain Drain\libraries\lvgl\src\misc/lv_printf.c **** 
 464:..\..\..\arduinoLCD\test\Pain Drain\libraries\lvgl\src\misc/lv_printf.c ****     conv.F = value;
 465:..\..\..\arduinoLCD\test\Pain Drain\libraries\lvgl\src\misc/lv_printf.c ****     int exp2 = (int)((conv.U >> 52U) & 0x07FFU) - 1023;           // effectively log2
 466:..\..\..\arduinoLCD\test\Pain Drain\libraries\lvgl\src\misc/lv_printf.c ****     conv.U = (conv.U & ((1ULL << 52U) - 1U)) | (1023ULL << 52U);  // drop the exponent so conv.F is
 467:..\..\..\arduinoLCD\test\Pain Drain\libraries\lvgl\src\misc/lv_printf.c ****     // now approximate log10 from the log2 integer part and an expansion of ln around 1.5
 468:..\..\..\arduinoLCD\test\Pain Drain\libraries\lvgl\src\misc/lv_printf.c ****     int expval = (int)(0.1760912590558 + exp2 * 0.301029995663981 + (conv.F - 1.5) * 0.289529654602
 469:..\..\..\arduinoLCD\test\Pain Drain\libraries\lvgl\src\misc/lv_printf.c ****     // now we want to compute 10^expval but we want to be sure it won't overflow
ARM GAS  C:\Users\haske\AppData\Local\Temp\ccZHF2NV.s 			page 25


 470:..\..\..\arduinoLCD\test\Pain Drain\libraries\lvgl\src\misc/lv_printf.c ****     exp2 = (int)(expval * 3.321928094887362 + 0.5);
 471:..\..\..\arduinoLCD\test\Pain Drain\libraries\lvgl\src\misc/lv_printf.c ****     const double z  = expval * 2.302585092994046 - exp2 * 0.6931471805599453;
 472:..\..\..\arduinoLCD\test\Pain Drain\libraries\lvgl\src\misc/lv_printf.c ****     const double z2 = z * z;
 473:..\..\..\arduinoLCD\test\Pain Drain\libraries\lvgl\src\misc/lv_printf.c ****     conv.U = (uint64_t)(exp2 + 1023) << 52U;
 474:..\..\..\arduinoLCD\test\Pain Drain\libraries\lvgl\src\misc/lv_printf.c ****     // compute exp(z) using continued fractions, see https://en.wikipedia.org/wiki/Exponential_func
 475:..\..\..\arduinoLCD\test\Pain Drain\libraries\lvgl\src\misc/lv_printf.c ****     conv.F *= 1 + 2 * z / (2 - z + (z2 / (6 + (z2 / (10 + z2 / 14)))));
 476:..\..\..\arduinoLCD\test\Pain Drain\libraries\lvgl\src\misc/lv_printf.c ****     // correct for rounding errors
 477:..\..\..\arduinoLCD\test\Pain Drain\libraries\lvgl\src\misc/lv_printf.c ****     if(value < conv.F) {
 478:..\..\..\arduinoLCD\test\Pain Drain\libraries\lvgl\src\misc/lv_printf.c ****         expval--;
 479:..\..\..\arduinoLCD\test\Pain Drain\libraries\lvgl\src\misc/lv_printf.c ****         conv.F /= 10;
 480:..\..\..\arduinoLCD\test\Pain Drain\libraries\lvgl\src\misc/lv_printf.c ****     }
 481:..\..\..\arduinoLCD\test\Pain Drain\libraries\lvgl\src\misc/lv_printf.c **** 
 482:..\..\..\arduinoLCD\test\Pain Drain\libraries\lvgl\src\misc/lv_printf.c ****     // the exponent format is "%+03d" and largest value is "307", so set aside 4-5 characters
 483:..\..\..\arduinoLCD\test\Pain Drain\libraries\lvgl\src\misc/lv_printf.c ****     unsigned int minwidth = ((expval < 100) && (expval > -100)) ? 4U : 5U;
 484:..\..\..\arduinoLCD\test\Pain Drain\libraries\lvgl\src\misc/lv_printf.c **** 
 485:..\..\..\arduinoLCD\test\Pain Drain\libraries\lvgl\src\misc/lv_printf.c ****     // in "%g" mode, "prec" is the number of *significant figures* not decimals
 486:..\..\..\arduinoLCD\test\Pain Drain\libraries\lvgl\src\misc/lv_printf.c ****     if(flags & FLAGS_ADAPT_EXP) {
 487:..\..\..\arduinoLCD\test\Pain Drain\libraries\lvgl\src\misc/lv_printf.c ****         // do we want to fall-back to "%f" mode?
 488:..\..\..\arduinoLCD\test\Pain Drain\libraries\lvgl\src\misc/lv_printf.c ****         if((value >= 1e-4) && (value < 1e6)) {
 489:..\..\..\arduinoLCD\test\Pain Drain\libraries\lvgl\src\misc/lv_printf.c ****             if((int)prec > expval) {
 490:..\..\..\arduinoLCD\test\Pain Drain\libraries\lvgl\src\misc/lv_printf.c ****                 prec = (unsigned)((int)prec - expval - 1);
 491:..\..\..\arduinoLCD\test\Pain Drain\libraries\lvgl\src\misc/lv_printf.c ****             }
 492:..\..\..\arduinoLCD\test\Pain Drain\libraries\lvgl\src\misc/lv_printf.c ****             else {
 493:..\..\..\arduinoLCD\test\Pain Drain\libraries\lvgl\src\misc/lv_printf.c ****                 prec = 0;
 494:..\..\..\arduinoLCD\test\Pain Drain\libraries\lvgl\src\misc/lv_printf.c ****             }
 495:..\..\..\arduinoLCD\test\Pain Drain\libraries\lvgl\src\misc/lv_printf.c ****             flags |= FLAGS_PRECISION;   // make sure _ftoa respects precision
 496:..\..\..\arduinoLCD\test\Pain Drain\libraries\lvgl\src\misc/lv_printf.c ****             // no characters in exponent
 497:..\..\..\arduinoLCD\test\Pain Drain\libraries\lvgl\src\misc/lv_printf.c ****             minwidth = 0U;
 498:..\..\..\arduinoLCD\test\Pain Drain\libraries\lvgl\src\misc/lv_printf.c ****             expval   = 0;
 499:..\..\..\arduinoLCD\test\Pain Drain\libraries\lvgl\src\misc/lv_printf.c ****         }
 500:..\..\..\arduinoLCD\test\Pain Drain\libraries\lvgl\src\misc/lv_printf.c ****         else {
 501:..\..\..\arduinoLCD\test\Pain Drain\libraries\lvgl\src\misc/lv_printf.c ****             // we use one sigfig for the whole part
 502:..\..\..\arduinoLCD\test\Pain Drain\libraries\lvgl\src\misc/lv_printf.c ****             if((prec > 0) && (flags & FLAGS_PRECISION)) {
 503:..\..\..\arduinoLCD\test\Pain Drain\libraries\lvgl\src\misc/lv_printf.c ****                 --prec;
 504:..\..\..\arduinoLCD\test\Pain Drain\libraries\lvgl\src\misc/lv_printf.c ****             }
 505:..\..\..\arduinoLCD\test\Pain Drain\libraries\lvgl\src\misc/lv_printf.c ****         }
 506:..\..\..\arduinoLCD\test\Pain Drain\libraries\lvgl\src\misc/lv_printf.c ****     }
 507:..\..\..\arduinoLCD\test\Pain Drain\libraries\lvgl\src\misc/lv_printf.c **** 
 508:..\..\..\arduinoLCD\test\Pain Drain\libraries\lvgl\src\misc/lv_printf.c ****     // will everything fit?
 509:..\..\..\arduinoLCD\test\Pain Drain\libraries\lvgl\src\misc/lv_printf.c ****     unsigned int fwidth = width;
 510:..\..\..\arduinoLCD\test\Pain Drain\libraries\lvgl\src\misc/lv_printf.c ****     if(width > minwidth) {
 511:..\..\..\arduinoLCD\test\Pain Drain\libraries\lvgl\src\misc/lv_printf.c ****         // we didn't fall-back so subtract the characters required for the exponent
 512:..\..\..\arduinoLCD\test\Pain Drain\libraries\lvgl\src\misc/lv_printf.c ****         fwidth -= minwidth;
 513:..\..\..\arduinoLCD\test\Pain Drain\libraries\lvgl\src\misc/lv_printf.c ****     }
 514:..\..\..\arduinoLCD\test\Pain Drain\libraries\lvgl\src\misc/lv_printf.c ****     else {
 515:..\..\..\arduinoLCD\test\Pain Drain\libraries\lvgl\src\misc/lv_printf.c ****         // not enough characters, so go back to default sizing
 516:..\..\..\arduinoLCD\test\Pain Drain\libraries\lvgl\src\misc/lv_printf.c ****         fwidth = 0U;
 517:..\..\..\arduinoLCD\test\Pain Drain\libraries\lvgl\src\misc/lv_printf.c ****     }
 518:..\..\..\arduinoLCD\test\Pain Drain\libraries\lvgl\src\misc/lv_printf.c ****     if((flags & FLAGS_LEFT) && minwidth) {
 519:..\..\..\arduinoLCD\test\Pain Drain\libraries\lvgl\src\misc/lv_printf.c ****         // if we're padding on the right, DON'T pad the floating part
 520:..\..\..\arduinoLCD\test\Pain Drain\libraries\lvgl\src\misc/lv_printf.c ****         fwidth = 0U;
 521:..\..\..\arduinoLCD\test\Pain Drain\libraries\lvgl\src\misc/lv_printf.c ****     }
 522:..\..\..\arduinoLCD\test\Pain Drain\libraries\lvgl\src\misc/lv_printf.c **** 
 523:..\..\..\arduinoLCD\test\Pain Drain\libraries\lvgl\src\misc/lv_printf.c ****     // rescale the float value
 524:..\..\..\arduinoLCD\test\Pain Drain\libraries\lvgl\src\misc/lv_printf.c ****     if(expval) {
 525:..\..\..\arduinoLCD\test\Pain Drain\libraries\lvgl\src\misc/lv_printf.c ****         value /= conv.F;
 526:..\..\..\arduinoLCD\test\Pain Drain\libraries\lvgl\src\misc/lv_printf.c ****     }
ARM GAS  C:\Users\haske\AppData\Local\Temp\ccZHF2NV.s 			page 26


 527:..\..\..\arduinoLCD\test\Pain Drain\libraries\lvgl\src\misc/lv_printf.c **** 
 528:..\..\..\arduinoLCD\test\Pain Drain\libraries\lvgl\src\misc/lv_printf.c ****     // output the floating part
 529:..\..\..\arduinoLCD\test\Pain Drain\libraries\lvgl\src\misc/lv_printf.c ****     const size_t start_idx = idx;
 530:..\..\..\arduinoLCD\test\Pain Drain\libraries\lvgl\src\misc/lv_printf.c ****     idx = _ftoa(out, buffer, idx, maxlen, negative ? -value : value, prec, fwidth, flags & ~FLAGS_A
 531:..\..\..\arduinoLCD\test\Pain Drain\libraries\lvgl\src\misc/lv_printf.c **** 
 532:..\..\..\arduinoLCD\test\Pain Drain\libraries\lvgl\src\misc/lv_printf.c ****     // output the exponent part
 533:..\..\..\arduinoLCD\test\Pain Drain\libraries\lvgl\src\misc/lv_printf.c ****     if(minwidth) {
 534:..\..\..\arduinoLCD\test\Pain Drain\libraries\lvgl\src\misc/lv_printf.c ****         // output the exponential symbol
 535:..\..\..\arduinoLCD\test\Pain Drain\libraries\lvgl\src\misc/lv_printf.c ****         out((flags & FLAGS_UPPERCASE) ? 'E' : 'e', buffer, idx++, maxlen);
 536:..\..\..\arduinoLCD\test\Pain Drain\libraries\lvgl\src\misc/lv_printf.c ****         // output the exponent value
 537:..\..\..\arduinoLCD\test\Pain Drain\libraries\lvgl\src\misc/lv_printf.c ****         idx = _ntoa_long(out, buffer, idx, maxlen, (expval < 0) ? -expval : expval, expval < 0, 10,
 538:..\..\..\arduinoLCD\test\Pain Drain\libraries\lvgl\src\misc/lv_printf.c ****                          FLAGS_ZEROPAD | FLAGS_PLUS);
 539:..\..\..\arduinoLCD\test\Pain Drain\libraries\lvgl\src\misc/lv_printf.c ****         // might need to right-pad spaces
 540:..\..\..\arduinoLCD\test\Pain Drain\libraries\lvgl\src\misc/lv_printf.c ****         if(flags & FLAGS_LEFT) {
 541:..\..\..\arduinoLCD\test\Pain Drain\libraries\lvgl\src\misc/lv_printf.c ****             while(idx - start_idx < width) out(' ', buffer, idx++, maxlen);
 542:..\..\..\arduinoLCD\test\Pain Drain\libraries\lvgl\src\misc/lv_printf.c ****         }
 543:..\..\..\arduinoLCD\test\Pain Drain\libraries\lvgl\src\misc/lv_printf.c ****     }
 544:..\..\..\arduinoLCD\test\Pain Drain\libraries\lvgl\src\misc/lv_printf.c ****     return idx;
 545:..\..\..\arduinoLCD\test\Pain Drain\libraries\lvgl\src\misc/lv_printf.c **** }
 546:..\..\..\arduinoLCD\test\Pain Drain\libraries\lvgl\src\misc/lv_printf.c **** #endif  // PRINTF_SUPPORT_EXPONENTIAL
 547:..\..\..\arduinoLCD\test\Pain Drain\libraries\lvgl\src\misc/lv_printf.c **** #endif  // PRINTF_SUPPORT_FLOAT
 548:..\..\..\arduinoLCD\test\Pain Drain\libraries\lvgl\src\misc/lv_printf.c **** 
 549:..\..\..\arduinoLCD\test\Pain Drain\libraries\lvgl\src\misc/lv_printf.c **** // internal vsnprintf
 550:..\..\..\arduinoLCD\test\Pain Drain\libraries\lvgl\src\misc/lv_printf.c **** static int _vsnprintf(out_fct_type out, char * buffer, const size_t maxlen, const char * format, va
 551:..\..\..\arduinoLCD\test\Pain Drain\libraries\lvgl\src\misc/lv_printf.c **** {
 883              		.loc 1 551 0
 884              		.cfi_startproc
 885              		@ args = 4, pretend = 0, frame = 48
 886              		@ frame_needed = 0, uses_anonymous_args = 0
 887              	.LVL117:
 888 0000 F0B5     		push	{r4, r5, r6, r7, lr}
 889              		.cfi_def_cfa_offset 20
 890              		.cfi_offset 4, -20
 891              		.cfi_offset 5, -16
 892              		.cfi_offset 6, -12
 893              		.cfi_offset 7, -8
 894              		.cfi_offset 14, -4
 895 0002 5F46     		mov	r7, fp
 896 0004 5646     		mov	r6, r10
 897 0006 4D46     		mov	r5, r9
 898 0008 4446     		mov	r4, r8
 899 000a F0B4     		push	{r4, r5, r6, r7}
 900              		.cfi_def_cfa_offset 36
 901              		.cfi_offset 8, -36
 902              		.cfi_offset 9, -32
 903              		.cfi_offset 10, -28
 904              		.cfi_offset 11, -24
 905 000c 97B0     		sub	sp, sp, #92
 906              		.cfi_def_cfa_offset 128
 907 000e 8346     		mov	fp, r0
 908 0010 0C91     		str	r1, [sp, #48]
 909 0012 0B92     		str	r2, [sp, #44]
 910 0014 1393     		str	r3, [sp, #76]
 911              	.LVL118:
 552:..\..\..\arduinoLCD\test\Pain Drain\libraries\lvgl\src\misc/lv_printf.c ****     unsigned int flags, width, precision, n;
 553:..\..\..\arduinoLCD\test\Pain Drain\libraries\lvgl\src\misc/lv_printf.c ****     size_t idx = 0U;
 554:..\..\..\arduinoLCD\test\Pain Drain\libraries\lvgl\src\misc/lv_printf.c **** 
ARM GAS  C:\Users\haske\AppData\Local\Temp\ccZHF2NV.s 			page 27


 555:..\..\..\arduinoLCD\test\Pain Drain\libraries\lvgl\src\misc/lv_printf.c ****     if(!buffer) {
 912              		.loc 1 555 0
 913 0016 0029     		cmp	r1, #0
 914 0018 01D1     		bne	.L61
 556:..\..\..\arduinoLCD\test\Pain Drain\libraries\lvgl\src\misc/lv_printf.c ****         // use null output function
 557:..\..\..\arduinoLCD\test\Pain Drain\libraries\lvgl\src\misc/lv_printf.c ****         out = _out_null;
 915              		.loc 1 557 0
 916 001a CA4B     		ldr	r3, .L156
 917              	.LVL119:
 918 001c 9B46     		mov	fp, r3
 919              	.L61:
 558:..\..\..\arduinoLCD\test\Pain Drain\libraries\lvgl\src\misc/lv_printf.c ****     }
 559:..\..\..\arduinoLCD\test\Pain Drain\libraries\lvgl\src\misc/lv_printf.c **** 
 560:..\..\..\arduinoLCD\test\Pain Drain\libraries\lvgl\src\misc/lv_printf.c ****     while(*format) {
 561:..\..\..\arduinoLCD\test\Pain Drain\libraries\lvgl\src\misc/lv_printf.c ****         // format specifier?  %[flags][width][.precision][length]
 562:..\..\..\arduinoLCD\test\Pain Drain\libraries\lvgl\src\misc/lv_printf.c ****         if(*format != '%') {
 563:..\..\..\arduinoLCD\test\Pain Drain\libraries\lvgl\src\misc/lv_printf.c ****             // no
 564:..\..\..\arduinoLCD\test\Pain Drain\libraries\lvgl\src\misc/lv_printf.c ****             out(*format, buffer, idx++, maxlen);
 565:..\..\..\arduinoLCD\test\Pain Drain\libraries\lvgl\src\misc/lv_printf.c ****             format++;
 566:..\..\..\arduinoLCD\test\Pain Drain\libraries\lvgl\src\misc/lv_printf.c ****             continue;
 567:..\..\..\arduinoLCD\test\Pain Drain\libraries\lvgl\src\misc/lv_printf.c ****         }
 568:..\..\..\arduinoLCD\test\Pain Drain\libraries\lvgl\src\misc/lv_printf.c ****         else {
 569:..\..\..\arduinoLCD\test\Pain Drain\libraries\lvgl\src\misc/lv_printf.c ****             // yes, evaluate it
 570:..\..\..\arduinoLCD\test\Pain Drain\libraries\lvgl\src\misc/lv_printf.c ****             format++;
 571:..\..\..\arduinoLCD\test\Pain Drain\libraries\lvgl\src\misc/lv_printf.c ****         }
 572:..\..\..\arduinoLCD\test\Pain Drain\libraries\lvgl\src\misc/lv_printf.c **** 
 573:..\..\..\arduinoLCD\test\Pain Drain\libraries\lvgl\src\misc/lv_printf.c ****         // evaluate flags
 574:..\..\..\arduinoLCD\test\Pain Drain\libraries\lvgl\src\misc/lv_printf.c ****         flags = 0U;
 575:..\..\..\arduinoLCD\test\Pain Drain\libraries\lvgl\src\misc/lv_printf.c ****         do {
 576:..\..\..\arduinoLCD\test\Pain Drain\libraries\lvgl\src\misc/lv_printf.c ****             switch(*format) {
 577:..\..\..\arduinoLCD\test\Pain Drain\libraries\lvgl\src\misc/lv_printf.c ****                 case '0':
 578:..\..\..\arduinoLCD\test\Pain Drain\libraries\lvgl\src\misc/lv_printf.c ****                     flags |= FLAGS_ZEROPAD;
 579:..\..\..\arduinoLCD\test\Pain Drain\libraries\lvgl\src\misc/lv_printf.c ****                     format++;
 580:..\..\..\arduinoLCD\test\Pain Drain\libraries\lvgl\src\misc/lv_printf.c ****                     n = 1U;
 581:..\..\..\arduinoLCD\test\Pain Drain\libraries\lvgl\src\misc/lv_printf.c ****                     break;
 582:..\..\..\arduinoLCD\test\Pain Drain\libraries\lvgl\src\misc/lv_printf.c ****                 case '-':
 583:..\..\..\arduinoLCD\test\Pain Drain\libraries\lvgl\src\misc/lv_printf.c ****                     flags |= FLAGS_LEFT;
 584:..\..\..\arduinoLCD\test\Pain Drain\libraries\lvgl\src\misc/lv_printf.c ****                     format++;
 585:..\..\..\arduinoLCD\test\Pain Drain\libraries\lvgl\src\misc/lv_printf.c ****                     n = 1U;
 586:..\..\..\arduinoLCD\test\Pain Drain\libraries\lvgl\src\misc/lv_printf.c ****                     break;
 587:..\..\..\arduinoLCD\test\Pain Drain\libraries\lvgl\src\misc/lv_printf.c ****                 case '+':
 588:..\..\..\arduinoLCD\test\Pain Drain\libraries\lvgl\src\misc/lv_printf.c ****                     flags |= FLAGS_PLUS;
 589:..\..\..\arduinoLCD\test\Pain Drain\libraries\lvgl\src\misc/lv_printf.c ****                     format++;
 590:..\..\..\arduinoLCD\test\Pain Drain\libraries\lvgl\src\misc/lv_printf.c ****                     n = 1U;
 591:..\..\..\arduinoLCD\test\Pain Drain\libraries\lvgl\src\misc/lv_printf.c ****                     break;
 592:..\..\..\arduinoLCD\test\Pain Drain\libraries\lvgl\src\misc/lv_printf.c ****                 case ' ':
 593:..\..\..\arduinoLCD\test\Pain Drain\libraries\lvgl\src\misc/lv_printf.c ****                     flags |= FLAGS_SPACE;
 594:..\..\..\arduinoLCD\test\Pain Drain\libraries\lvgl\src\misc/lv_printf.c ****                     format++;
 595:..\..\..\arduinoLCD\test\Pain Drain\libraries\lvgl\src\misc/lv_printf.c ****                     n = 1U;
 596:..\..\..\arduinoLCD\test\Pain Drain\libraries\lvgl\src\misc/lv_printf.c ****                     break;
 597:..\..\..\arduinoLCD\test\Pain Drain\libraries\lvgl\src\misc/lv_printf.c ****                 case '#':
 598:..\..\..\arduinoLCD\test\Pain Drain\libraries\lvgl\src\misc/lv_printf.c ****                     flags |= FLAGS_HASH;
 599:..\..\..\arduinoLCD\test\Pain Drain\libraries\lvgl\src\misc/lv_printf.c ****                     format++;
 600:..\..\..\arduinoLCD\test\Pain Drain\libraries\lvgl\src\misc/lv_printf.c ****                     n = 1U;
 601:..\..\..\arduinoLCD\test\Pain Drain\libraries\lvgl\src\misc/lv_printf.c ****                     break;
 602:..\..\..\arduinoLCD\test\Pain Drain\libraries\lvgl\src\misc/lv_printf.c ****                 default :
 603:..\..\..\arduinoLCD\test\Pain Drain\libraries\lvgl\src\misc/lv_printf.c ****                     n = 0U;
ARM GAS  C:\Users\haske\AppData\Local\Temp\ccZHF2NV.s 			page 28


 604:..\..\..\arduinoLCD\test\Pain Drain\libraries\lvgl\src\misc/lv_printf.c ****                     break;
 605:..\..\..\arduinoLCD\test\Pain Drain\libraries\lvgl\src\misc/lv_printf.c ****             }
 606:..\..\..\arduinoLCD\test\Pain Drain\libraries\lvgl\src\misc/lv_printf.c ****         } while(n);
 607:..\..\..\arduinoLCD\test\Pain Drain\libraries\lvgl\src\misc/lv_printf.c **** 
 608:..\..\..\arduinoLCD\test\Pain Drain\libraries\lvgl\src\misc/lv_printf.c ****         // evaluate width field
 609:..\..\..\arduinoLCD\test\Pain Drain\libraries\lvgl\src\misc/lv_printf.c ****         width = 0U;
 610:..\..\..\arduinoLCD\test\Pain Drain\libraries\lvgl\src\misc/lv_printf.c ****         if(_is_digit(*format)) {
 611:..\..\..\arduinoLCD\test\Pain Drain\libraries\lvgl\src\misc/lv_printf.c ****             width = _atoi(&format);
 612:..\..\..\arduinoLCD\test\Pain Drain\libraries\lvgl\src\misc/lv_printf.c ****         }
 613:..\..\..\arduinoLCD\test\Pain Drain\libraries\lvgl\src\misc/lv_printf.c ****         else if(*format == '*') {
 614:..\..\..\arduinoLCD\test\Pain Drain\libraries\lvgl\src\misc/lv_printf.c ****             const int w = va_arg(va, int);
 615:..\..\..\arduinoLCD\test\Pain Drain\libraries\lvgl\src\misc/lv_printf.c ****             if(w < 0) {
 616:..\..\..\arduinoLCD\test\Pain Drain\libraries\lvgl\src\misc/lv_printf.c ****                 flags |= FLAGS_LEFT;    // reverse padding
 617:..\..\..\arduinoLCD\test\Pain Drain\libraries\lvgl\src\misc/lv_printf.c ****                 width = (unsigned int) - w;
 618:..\..\..\arduinoLCD\test\Pain Drain\libraries\lvgl\src\misc/lv_printf.c ****             }
 619:..\..\..\arduinoLCD\test\Pain Drain\libraries\lvgl\src\misc/lv_printf.c ****             else {
 620:..\..\..\arduinoLCD\test\Pain Drain\libraries\lvgl\src\misc/lv_printf.c ****                 width = (unsigned int)w;
 621:..\..\..\arduinoLCD\test\Pain Drain\libraries\lvgl\src\misc/lv_printf.c ****             }
 622:..\..\..\arduinoLCD\test\Pain Drain\libraries\lvgl\src\misc/lv_printf.c ****             format++;
 623:..\..\..\arduinoLCD\test\Pain Drain\libraries\lvgl\src\misc/lv_printf.c ****         }
 624:..\..\..\arduinoLCD\test\Pain Drain\libraries\lvgl\src\misc/lv_printf.c **** 
 625:..\..\..\arduinoLCD\test\Pain Drain\libraries\lvgl\src\misc/lv_printf.c ****         // evaluate precision field
 626:..\..\..\arduinoLCD\test\Pain Drain\libraries\lvgl\src\misc/lv_printf.c ****         precision = 0U;
 627:..\..\..\arduinoLCD\test\Pain Drain\libraries\lvgl\src\misc/lv_printf.c ****         if(*format == '.') {
 628:..\..\..\arduinoLCD\test\Pain Drain\libraries\lvgl\src\misc/lv_printf.c ****             flags |= FLAGS_PRECISION;
 629:..\..\..\arduinoLCD\test\Pain Drain\libraries\lvgl\src\misc/lv_printf.c ****             format++;
 630:..\..\..\arduinoLCD\test\Pain Drain\libraries\lvgl\src\misc/lv_printf.c ****             if(_is_digit(*format)) {
 631:..\..\..\arduinoLCD\test\Pain Drain\libraries\lvgl\src\misc/lv_printf.c ****                 precision = _atoi(&format);
 632:..\..\..\arduinoLCD\test\Pain Drain\libraries\lvgl\src\misc/lv_printf.c ****             }
 633:..\..\..\arduinoLCD\test\Pain Drain\libraries\lvgl\src\misc/lv_printf.c ****             else if(*format == '*') {
 634:..\..\..\arduinoLCD\test\Pain Drain\libraries\lvgl\src\misc/lv_printf.c ****                 const int prec = (int)va_arg(va, int);
 635:..\..\..\arduinoLCD\test\Pain Drain\libraries\lvgl\src\misc/lv_printf.c ****                 precision = prec > 0 ? (unsigned int)prec : 0U;
 636:..\..\..\arduinoLCD\test\Pain Drain\libraries\lvgl\src\misc/lv_printf.c ****                 format++;
 637:..\..\..\arduinoLCD\test\Pain Drain\libraries\lvgl\src\misc/lv_printf.c ****             }
 638:..\..\..\arduinoLCD\test\Pain Drain\libraries\lvgl\src\misc/lv_printf.c ****         }
 639:..\..\..\arduinoLCD\test\Pain Drain\libraries\lvgl\src\misc/lv_printf.c **** 
 640:..\..\..\arduinoLCD\test\Pain Drain\libraries\lvgl\src\misc/lv_printf.c ****         // evaluate length field
 641:..\..\..\arduinoLCD\test\Pain Drain\libraries\lvgl\src\misc/lv_printf.c ****         switch(*format) {
 642:..\..\..\arduinoLCD\test\Pain Drain\libraries\lvgl\src\misc/lv_printf.c ****             case 'l' :
 643:..\..\..\arduinoLCD\test\Pain Drain\libraries\lvgl\src\misc/lv_printf.c ****                 flags |= FLAGS_LONG;
 644:..\..\..\arduinoLCD\test\Pain Drain\libraries\lvgl\src\misc/lv_printf.c ****                 format++;
 645:..\..\..\arduinoLCD\test\Pain Drain\libraries\lvgl\src\misc/lv_printf.c ****                 if(*format == 'l') {
 646:..\..\..\arduinoLCD\test\Pain Drain\libraries\lvgl\src\misc/lv_printf.c ****                     flags |= FLAGS_LONG_LONG;
 647:..\..\..\arduinoLCD\test\Pain Drain\libraries\lvgl\src\misc/lv_printf.c ****                     format++;
 648:..\..\..\arduinoLCD\test\Pain Drain\libraries\lvgl\src\misc/lv_printf.c ****                 }
 649:..\..\..\arduinoLCD\test\Pain Drain\libraries\lvgl\src\misc/lv_printf.c ****                 break;
 650:..\..\..\arduinoLCD\test\Pain Drain\libraries\lvgl\src\misc/lv_printf.c ****             case 'h' :
 651:..\..\..\arduinoLCD\test\Pain Drain\libraries\lvgl\src\misc/lv_printf.c ****                 flags |= FLAGS_SHORT;
 652:..\..\..\arduinoLCD\test\Pain Drain\libraries\lvgl\src\misc/lv_printf.c ****                 format++;
 653:..\..\..\arduinoLCD\test\Pain Drain\libraries\lvgl\src\misc/lv_printf.c ****                 if(*format == 'h') {
 654:..\..\..\arduinoLCD\test\Pain Drain\libraries\lvgl\src\misc/lv_printf.c ****                     flags |= FLAGS_CHAR;
 655:..\..\..\arduinoLCD\test\Pain Drain\libraries\lvgl\src\misc/lv_printf.c ****                     format++;
 656:..\..\..\arduinoLCD\test\Pain Drain\libraries\lvgl\src\misc/lv_printf.c ****                 }
 657:..\..\..\arduinoLCD\test\Pain Drain\libraries\lvgl\src\misc/lv_printf.c ****                 break;
 658:..\..\..\arduinoLCD\test\Pain Drain\libraries\lvgl\src\misc/lv_printf.c **** #if defined(PRINTF_SUPPORT_PTRDIFF_T)
 659:..\..\..\arduinoLCD\test\Pain Drain\libraries\lvgl\src\misc/lv_printf.c ****             case 't' :
 660:..\..\..\arduinoLCD\test\Pain Drain\libraries\lvgl\src\misc/lv_printf.c ****                 flags |= (sizeof(ptrdiff_t) == sizeof(long) ? FLAGS_LONG : FLAGS_LONG_LONG);
ARM GAS  C:\Users\haske\AppData\Local\Temp\ccZHF2NV.s 			page 29


 661:..\..\..\arduinoLCD\test\Pain Drain\libraries\lvgl\src\misc/lv_printf.c ****                 format++;
 662:..\..\..\arduinoLCD\test\Pain Drain\libraries\lvgl\src\misc/lv_printf.c ****                 break;
 663:..\..\..\arduinoLCD\test\Pain Drain\libraries\lvgl\src\misc/lv_printf.c **** #endif
 664:..\..\..\arduinoLCD\test\Pain Drain\libraries\lvgl\src\misc/lv_printf.c ****             case 'j' :
 665:..\..\..\arduinoLCD\test\Pain Drain\libraries\lvgl\src\misc/lv_printf.c ****                 flags |= (sizeof(intmax_t) == sizeof(long) ? FLAGS_LONG : FLAGS_LONG_LONG);
 666:..\..\..\arduinoLCD\test\Pain Drain\libraries\lvgl\src\misc/lv_printf.c ****                 format++;
 667:..\..\..\arduinoLCD\test\Pain Drain\libraries\lvgl\src\misc/lv_printf.c ****                 break;
 668:..\..\..\arduinoLCD\test\Pain Drain\libraries\lvgl\src\misc/lv_printf.c ****             case 'z' :
 669:..\..\..\arduinoLCD\test\Pain Drain\libraries\lvgl\src\misc/lv_printf.c ****                 flags |= (sizeof(size_t) == sizeof(long) ? FLAGS_LONG : FLAGS_LONG_LONG);
 670:..\..\..\arduinoLCD\test\Pain Drain\libraries\lvgl\src\misc/lv_printf.c ****                 format++;
 671:..\..\..\arduinoLCD\test\Pain Drain\libraries\lvgl\src\misc/lv_printf.c ****                 break;
 672:..\..\..\arduinoLCD\test\Pain Drain\libraries\lvgl\src\misc/lv_printf.c ****             default :
 673:..\..\..\arduinoLCD\test\Pain Drain\libraries\lvgl\src\misc/lv_printf.c ****                 break;
 674:..\..\..\arduinoLCD\test\Pain Drain\libraries\lvgl\src\misc/lv_printf.c ****         }
 675:..\..\..\arduinoLCD\test\Pain Drain\libraries\lvgl\src\misc/lv_printf.c **** 
 676:..\..\..\arduinoLCD\test\Pain Drain\libraries\lvgl\src\misc/lv_printf.c ****         // evaluate specifier
 677:..\..\..\arduinoLCD\test\Pain Drain\libraries\lvgl\src\misc/lv_printf.c ****         switch(*format) {
 678:..\..\..\arduinoLCD\test\Pain Drain\libraries\lvgl\src\misc/lv_printf.c ****             case 'd' :
 679:..\..\..\arduinoLCD\test\Pain Drain\libraries\lvgl\src\misc/lv_printf.c ****             case 'i' :
 680:..\..\..\arduinoLCD\test\Pain Drain\libraries\lvgl\src\misc/lv_printf.c ****             case 'u' :
 681:..\..\..\arduinoLCD\test\Pain Drain\libraries\lvgl\src\misc/lv_printf.c ****             case 'x' :
 682:..\..\..\arduinoLCD\test\Pain Drain\libraries\lvgl\src\misc/lv_printf.c ****             case 'X' :
 683:..\..\..\arduinoLCD\test\Pain Drain\libraries\lvgl\src\misc/lv_printf.c ****             case 'p' :
 684:..\..\..\arduinoLCD\test\Pain Drain\libraries\lvgl\src\misc/lv_printf.c ****             case 'P' :
 685:..\..\..\arduinoLCD\test\Pain Drain\libraries\lvgl\src\misc/lv_printf.c ****             case 'o' :
 686:..\..\..\arduinoLCD\test\Pain Drain\libraries\lvgl\src\misc/lv_printf.c ****             case 'b' : {
 687:..\..\..\arduinoLCD\test\Pain Drain\libraries\lvgl\src\misc/lv_printf.c ****                     // set the base
 688:..\..\..\arduinoLCD\test\Pain Drain\libraries\lvgl\src\misc/lv_printf.c ****                     unsigned int base;
 689:..\..\..\arduinoLCD\test\Pain Drain\libraries\lvgl\src\misc/lv_printf.c ****                     if(*format == 'x' || *format == 'X') {
 690:..\..\..\arduinoLCD\test\Pain Drain\libraries\lvgl\src\misc/lv_printf.c ****                         base = 16U;
 691:..\..\..\arduinoLCD\test\Pain Drain\libraries\lvgl\src\misc/lv_printf.c ****                     }
 692:..\..\..\arduinoLCD\test\Pain Drain\libraries\lvgl\src\misc/lv_printf.c ****                     else if(*format == 'p' || *format == 'P') {
 693:..\..\..\arduinoLCD\test\Pain Drain\libraries\lvgl\src\misc/lv_printf.c ****                         base = 16U;
 694:..\..\..\arduinoLCD\test\Pain Drain\libraries\lvgl\src\misc/lv_printf.c ****                         flags |= FLAGS_HASH;   // always hash for pointer format
 695:..\..\..\arduinoLCD\test\Pain Drain\libraries\lvgl\src\misc/lv_printf.c **** #if defined(PRINTF_SUPPORT_LONG_LONG)
 696:..\..\..\arduinoLCD\test\Pain Drain\libraries\lvgl\src\misc/lv_printf.c ****                         if(sizeof(uintptr_t) == sizeof(long long))
 697:..\..\..\arduinoLCD\test\Pain Drain\libraries\lvgl\src\misc/lv_printf.c ****                             flags |= FLAGS_LONG_LONG;
 698:..\..\..\arduinoLCD\test\Pain Drain\libraries\lvgl\src\misc/lv_printf.c ****                         else
 699:..\..\..\arduinoLCD\test\Pain Drain\libraries\lvgl\src\misc/lv_printf.c **** #endif
 700:..\..\..\arduinoLCD\test\Pain Drain\libraries\lvgl\src\misc/lv_printf.c ****                             flags |= FLAGS_LONG;
 701:..\..\..\arduinoLCD\test\Pain Drain\libraries\lvgl\src\misc/lv_printf.c **** 
 702:..\..\..\arduinoLCD\test\Pain Drain\libraries\lvgl\src\misc/lv_printf.c ****                         if(*(format + 1) == 'V')
 703:..\..\..\arduinoLCD\test\Pain Drain\libraries\lvgl\src\misc/lv_printf.c ****                             format++;
 704:..\..\..\arduinoLCD\test\Pain Drain\libraries\lvgl\src\misc/lv_printf.c ****                     }
 705:..\..\..\arduinoLCD\test\Pain Drain\libraries\lvgl\src\misc/lv_printf.c ****                     else if(*format == 'o') {
 706:..\..\..\arduinoLCD\test\Pain Drain\libraries\lvgl\src\misc/lv_printf.c ****                         base =  8U;
 707:..\..\..\arduinoLCD\test\Pain Drain\libraries\lvgl\src\misc/lv_printf.c ****                     }
 708:..\..\..\arduinoLCD\test\Pain Drain\libraries\lvgl\src\misc/lv_printf.c ****                     else if(*format == 'b') {
 709:..\..\..\arduinoLCD\test\Pain Drain\libraries\lvgl\src\misc/lv_printf.c ****                         base =  2U;
 710:..\..\..\arduinoLCD\test\Pain Drain\libraries\lvgl\src\misc/lv_printf.c ****                     }
 711:..\..\..\arduinoLCD\test\Pain Drain\libraries\lvgl\src\misc/lv_printf.c ****                     else {
 712:..\..\..\arduinoLCD\test\Pain Drain\libraries\lvgl\src\misc/lv_printf.c ****                         base = 10U;
 713:..\..\..\arduinoLCD\test\Pain Drain\libraries\lvgl\src\misc/lv_printf.c ****                         flags &= ~FLAGS_HASH;   // no hash for dec format
 714:..\..\..\arduinoLCD\test\Pain Drain\libraries\lvgl\src\misc/lv_printf.c ****                     }
 715:..\..\..\arduinoLCD\test\Pain Drain\libraries\lvgl\src\misc/lv_printf.c ****                     // uppercase
 716:..\..\..\arduinoLCD\test\Pain Drain\libraries\lvgl\src\misc/lv_printf.c ****                     if(*format == 'X' || *format == 'P') {
 717:..\..\..\arduinoLCD\test\Pain Drain\libraries\lvgl\src\misc/lv_printf.c ****                         flags |= FLAGS_UPPERCASE;
ARM GAS  C:\Users\haske\AppData\Local\Temp\ccZHF2NV.s 			page 30


 718:..\..\..\arduinoLCD\test\Pain Drain\libraries\lvgl\src\misc/lv_printf.c ****                     }
 719:..\..\..\arduinoLCD\test\Pain Drain\libraries\lvgl\src\misc/lv_printf.c **** 
 720:..\..\..\arduinoLCD\test\Pain Drain\libraries\lvgl\src\misc/lv_printf.c ****                     // no plus or space flag for u, x, X, o, b
 721:..\..\..\arduinoLCD\test\Pain Drain\libraries\lvgl\src\misc/lv_printf.c ****                     if((*format != 'i') && (*format != 'd')) {
 722:..\..\..\arduinoLCD\test\Pain Drain\libraries\lvgl\src\misc/lv_printf.c ****                         flags &= ~(FLAGS_PLUS | FLAGS_SPACE);
 723:..\..\..\arduinoLCD\test\Pain Drain\libraries\lvgl\src\misc/lv_printf.c ****                     }
 724:..\..\..\arduinoLCD\test\Pain Drain\libraries\lvgl\src\misc/lv_printf.c **** 
 725:..\..\..\arduinoLCD\test\Pain Drain\libraries\lvgl\src\misc/lv_printf.c ****                     // ignore '0' flag when precision is given
 726:..\..\..\arduinoLCD\test\Pain Drain\libraries\lvgl\src\misc/lv_printf.c ****                     if(flags & FLAGS_PRECISION) {
 727:..\..\..\arduinoLCD\test\Pain Drain\libraries\lvgl\src\misc/lv_printf.c ****                         flags &= ~FLAGS_ZEROPAD;
 728:..\..\..\arduinoLCD\test\Pain Drain\libraries\lvgl\src\misc/lv_printf.c ****                     }
 729:..\..\..\arduinoLCD\test\Pain Drain\libraries\lvgl\src\misc/lv_printf.c **** 
 730:..\..\..\arduinoLCD\test\Pain Drain\libraries\lvgl\src\misc/lv_printf.c ****                     // convert the integer
 731:..\..\..\arduinoLCD\test\Pain Drain\libraries\lvgl\src\misc/lv_printf.c ****                     if((*format == 'i') || (*format == 'd')) {
 732:..\..\..\arduinoLCD\test\Pain Drain\libraries\lvgl\src\misc/lv_printf.c ****                         // signed
 733:..\..\..\arduinoLCD\test\Pain Drain\libraries\lvgl\src\misc/lv_printf.c ****                         if(flags & FLAGS_LONG_LONG) {
 734:..\..\..\arduinoLCD\test\Pain Drain\libraries\lvgl\src\misc/lv_printf.c **** #if defined(PRINTF_SUPPORT_LONG_LONG)
 735:..\..\..\arduinoLCD\test\Pain Drain\libraries\lvgl\src\misc/lv_printf.c ****                             const long long value = va_arg(va, long long);
 736:..\..\..\arduinoLCD\test\Pain Drain\libraries\lvgl\src\misc/lv_printf.c ****                             idx = _ntoa_long_long(out, buffer, idx, maxlen, (unsigned long long)(va
 737:..\..\..\arduinoLCD\test\Pain Drain\libraries\lvgl\src\misc/lv_printf.c ****                                                   precision, width, flags);
 738:..\..\..\arduinoLCD\test\Pain Drain\libraries\lvgl\src\misc/lv_printf.c **** #endif
 739:..\..\..\arduinoLCD\test\Pain Drain\libraries\lvgl\src\misc/lv_printf.c ****                         }
 740:..\..\..\arduinoLCD\test\Pain Drain\libraries\lvgl\src\misc/lv_printf.c ****                         else if(flags & FLAGS_LONG) {
 741:..\..\..\arduinoLCD\test\Pain Drain\libraries\lvgl\src\misc/lv_printf.c ****                             const long value = va_arg(va, long);
 742:..\..\..\arduinoLCD\test\Pain Drain\libraries\lvgl\src\misc/lv_printf.c ****                             idx = _ntoa_long(out, buffer, idx, maxlen, (unsigned long)(value > 0 ? 
 743:..\..\..\arduinoLCD\test\Pain Drain\libraries\lvgl\src\misc/lv_printf.c ****                                              width, flags);
 744:..\..\..\arduinoLCD\test\Pain Drain\libraries\lvgl\src\misc/lv_printf.c ****                         }
 745:..\..\..\arduinoLCD\test\Pain Drain\libraries\lvgl\src\misc/lv_printf.c ****                         else {
 746:..\..\..\arduinoLCD\test\Pain Drain\libraries\lvgl\src\misc/lv_printf.c ****                             const int value = (flags & FLAGS_CHAR) ? (char)va_arg(va, int) : (flags
 747:..\..\..\arduinoLCD\test\Pain Drain\libraries\lvgl\src\misc/lv_printf.c ****                                                                                                    
 748:..\..\..\arduinoLCD\test\Pain Drain\libraries\lvgl\src\misc/lv_printf.c ****                             idx = _ntoa_long(out, buffer, idx, maxlen, (unsigned int)(value > 0 ? v
 749:..\..\..\arduinoLCD\test\Pain Drain\libraries\lvgl\src\misc/lv_printf.c ****                                              width, flags);
 750:..\..\..\arduinoLCD\test\Pain Drain\libraries\lvgl\src\misc/lv_printf.c ****                         }
 751:..\..\..\arduinoLCD\test\Pain Drain\libraries\lvgl\src\misc/lv_printf.c ****                     }
 752:..\..\..\arduinoLCD\test\Pain Drain\libraries\lvgl\src\misc/lv_printf.c ****                     else if(*format == 'V') {
 753:..\..\..\arduinoLCD\test\Pain Drain\libraries\lvgl\src\misc/lv_printf.c ****                         lv_vaformat_t * vaf = va_arg(va, lv_vaformat_t *);
 754:..\..\..\arduinoLCD\test\Pain Drain\libraries\lvgl\src\misc/lv_printf.c ****                         va_list copy;
 755:..\..\..\arduinoLCD\test\Pain Drain\libraries\lvgl\src\misc/lv_printf.c **** 
 756:..\..\..\arduinoLCD\test\Pain Drain\libraries\lvgl\src\misc/lv_printf.c ****                         va_copy(copy, *vaf->va);
 757:..\..\..\arduinoLCD\test\Pain Drain\libraries\lvgl\src\misc/lv_printf.c ****                         idx += _vsnprintf(out, buffer + idx, maxlen - idx, vaf->fmt, copy);
 758:..\..\..\arduinoLCD\test\Pain Drain\libraries\lvgl\src\misc/lv_printf.c ****                         va_end(copy);
 759:..\..\..\arduinoLCD\test\Pain Drain\libraries\lvgl\src\misc/lv_printf.c ****                     }
 760:..\..\..\arduinoLCD\test\Pain Drain\libraries\lvgl\src\misc/lv_printf.c ****                     else {
 761:..\..\..\arduinoLCD\test\Pain Drain\libraries\lvgl\src\misc/lv_printf.c ****                         // unsigned
 762:..\..\..\arduinoLCD\test\Pain Drain\libraries\lvgl\src\misc/lv_printf.c ****                         if(flags & FLAGS_LONG_LONG) {
 763:..\..\..\arduinoLCD\test\Pain Drain\libraries\lvgl\src\misc/lv_printf.c **** #if defined(PRINTF_SUPPORT_LONG_LONG)
 764:..\..\..\arduinoLCD\test\Pain Drain\libraries\lvgl\src\misc/lv_printf.c ****                             idx = _ntoa_long_long(out, buffer, idx, maxlen, va_arg(va, unsigned lon
 765:..\..\..\arduinoLCD\test\Pain Drain\libraries\lvgl\src\misc/lv_printf.c **** #endif
 766:..\..\..\arduinoLCD\test\Pain Drain\libraries\lvgl\src\misc/lv_printf.c ****                         }
 767:..\..\..\arduinoLCD\test\Pain Drain\libraries\lvgl\src\misc/lv_printf.c ****                         else if(flags & FLAGS_LONG) {
 768:..\..\..\arduinoLCD\test\Pain Drain\libraries\lvgl\src\misc/lv_printf.c ****                             idx = _ntoa_long(out, buffer, idx, maxlen, va_arg(va, unsigned long), f
 769:..\..\..\arduinoLCD\test\Pain Drain\libraries\lvgl\src\misc/lv_printf.c ****                         }
 770:..\..\..\arduinoLCD\test\Pain Drain\libraries\lvgl\src\misc/lv_printf.c ****                         else {
 771:..\..\..\arduinoLCD\test\Pain Drain\libraries\lvgl\src\misc/lv_printf.c ****                             const unsigned int value = (flags & FLAGS_CHAR) ? (unsigned char)va_arg
 772:..\..\..\arduinoLCD\test\Pain Drain\libraries\lvgl\src\misc/lv_printf.c ****                                                                                                    
 773:..\..\..\arduinoLCD\test\Pain Drain\libraries\lvgl\src\misc/lv_printf.c ****                             idx = _ntoa_long(out, buffer, idx, maxlen, value, false, base, precisio
 774:..\..\..\arduinoLCD\test\Pain Drain\libraries\lvgl\src\misc/lv_printf.c ****                         }
ARM GAS  C:\Users\haske\AppData\Local\Temp\ccZHF2NV.s 			page 31


 775:..\..\..\arduinoLCD\test\Pain Drain\libraries\lvgl\src\misc/lv_printf.c ****                     }
 776:..\..\..\arduinoLCD\test\Pain Drain\libraries\lvgl\src\misc/lv_printf.c ****                     format++;
 777:..\..\..\arduinoLCD\test\Pain Drain\libraries\lvgl\src\misc/lv_printf.c ****                     break;
 778:..\..\..\arduinoLCD\test\Pain Drain\libraries\lvgl\src\misc/lv_printf.c ****                 }
 779:..\..\..\arduinoLCD\test\Pain Drain\libraries\lvgl\src\misc/lv_printf.c **** #if defined(PRINTF_SUPPORT_FLOAT)
 780:..\..\..\arduinoLCD\test\Pain Drain\libraries\lvgl\src\misc/lv_printf.c ****             case 'f' :
 781:..\..\..\arduinoLCD\test\Pain Drain\libraries\lvgl\src\misc/lv_printf.c ****             case 'F' :
 782:..\..\..\arduinoLCD\test\Pain Drain\libraries\lvgl\src\misc/lv_printf.c ****                 if(*format == 'F') flags |= FLAGS_UPPERCASE;
 783:..\..\..\arduinoLCD\test\Pain Drain\libraries\lvgl\src\misc/lv_printf.c ****                 idx = _ftoa(out, buffer, idx, maxlen, va_arg(va, double), precision, width, flags);
 784:..\..\..\arduinoLCD\test\Pain Drain\libraries\lvgl\src\misc/lv_printf.c ****                 format++;
 785:..\..\..\arduinoLCD\test\Pain Drain\libraries\lvgl\src\misc/lv_printf.c ****                 break;
 786:..\..\..\arduinoLCD\test\Pain Drain\libraries\lvgl\src\misc/lv_printf.c **** #if defined(PRINTF_SUPPORT_EXPONENTIAL)
 787:..\..\..\arduinoLCD\test\Pain Drain\libraries\lvgl\src\misc/lv_printf.c ****             case 'e':
 788:..\..\..\arduinoLCD\test\Pain Drain\libraries\lvgl\src\misc/lv_printf.c ****             case 'E':
 789:..\..\..\arduinoLCD\test\Pain Drain\libraries\lvgl\src\misc/lv_printf.c ****             case 'g':
 790:..\..\..\arduinoLCD\test\Pain Drain\libraries\lvgl\src\misc/lv_printf.c ****             case 'G':
 791:..\..\..\arduinoLCD\test\Pain Drain\libraries\lvgl\src\misc/lv_printf.c ****                 if((*format == 'g') || (*format == 'G')) flags |= FLAGS_ADAPT_EXP;
 792:..\..\..\arduinoLCD\test\Pain Drain\libraries\lvgl\src\misc/lv_printf.c ****                 if((*format == 'E') || (*format == 'G')) flags |= FLAGS_UPPERCASE;
 793:..\..\..\arduinoLCD\test\Pain Drain\libraries\lvgl\src\misc/lv_printf.c ****                 idx = _etoa(out, buffer, idx, maxlen, va_arg(va, double), precision, width, flags);
 794:..\..\..\arduinoLCD\test\Pain Drain\libraries\lvgl\src\misc/lv_printf.c ****                 format++;
 795:..\..\..\arduinoLCD\test\Pain Drain\libraries\lvgl\src\misc/lv_printf.c ****                 break;
 796:..\..\..\arduinoLCD\test\Pain Drain\libraries\lvgl\src\misc/lv_printf.c **** #endif  // PRINTF_SUPPORT_EXPONENTIAL
 797:..\..\..\arduinoLCD\test\Pain Drain\libraries\lvgl\src\misc/lv_printf.c **** #endif  // PRINTF_SUPPORT_FLOAT
 798:..\..\..\arduinoLCD\test\Pain Drain\libraries\lvgl\src\misc/lv_printf.c ****             case 'c' : {
 799:..\..\..\arduinoLCD\test\Pain Drain\libraries\lvgl\src\misc/lv_printf.c ****                     unsigned int l = 1U;
 800:..\..\..\arduinoLCD\test\Pain Drain\libraries\lvgl\src\misc/lv_printf.c ****                     // pre padding
 801:..\..\..\arduinoLCD\test\Pain Drain\libraries\lvgl\src\misc/lv_printf.c ****                     if(!(flags & FLAGS_LEFT)) {
 802:..\..\..\arduinoLCD\test\Pain Drain\libraries\lvgl\src\misc/lv_printf.c ****                         while(l++ < width) {
 803:..\..\..\arduinoLCD\test\Pain Drain\libraries\lvgl\src\misc/lv_printf.c ****                             out(' ', buffer, idx++, maxlen);
 804:..\..\..\arduinoLCD\test\Pain Drain\libraries\lvgl\src\misc/lv_printf.c ****                         }
 805:..\..\..\arduinoLCD\test\Pain Drain\libraries\lvgl\src\misc/lv_printf.c ****                     }
 806:..\..\..\arduinoLCD\test\Pain Drain\libraries\lvgl\src\misc/lv_printf.c ****                     // char output
 807:..\..\..\arduinoLCD\test\Pain Drain\libraries\lvgl\src\misc/lv_printf.c ****                     out((char)va_arg(va, int), buffer, idx++, maxlen);
 808:..\..\..\arduinoLCD\test\Pain Drain\libraries\lvgl\src\misc/lv_printf.c ****                     // post padding
 809:..\..\..\arduinoLCD\test\Pain Drain\libraries\lvgl\src\misc/lv_printf.c ****                     if(flags & FLAGS_LEFT) {
 810:..\..\..\arduinoLCD\test\Pain Drain\libraries\lvgl\src\misc/lv_printf.c ****                         while(l++ < width) {
 811:..\..\..\arduinoLCD\test\Pain Drain\libraries\lvgl\src\misc/lv_printf.c ****                             out(' ', buffer, idx++, maxlen);
 812:..\..\..\arduinoLCD\test\Pain Drain\libraries\lvgl\src\misc/lv_printf.c ****                         }
 813:..\..\..\arduinoLCD\test\Pain Drain\libraries\lvgl\src\misc/lv_printf.c ****                     }
 814:..\..\..\arduinoLCD\test\Pain Drain\libraries\lvgl\src\misc/lv_printf.c ****                     format++;
 815:..\..\..\arduinoLCD\test\Pain Drain\libraries\lvgl\src\misc/lv_printf.c ****                     break;
 816:..\..\..\arduinoLCD\test\Pain Drain\libraries\lvgl\src\misc/lv_printf.c ****                 }
 817:..\..\..\arduinoLCD\test\Pain Drain\libraries\lvgl\src\misc/lv_printf.c **** 
 818:..\..\..\arduinoLCD\test\Pain Drain\libraries\lvgl\src\misc/lv_printf.c ****             case 's' : {
 819:..\..\..\arduinoLCD\test\Pain Drain\libraries\lvgl\src\misc/lv_printf.c ****                     const char * p = va_arg(va, char *);
 820:..\..\..\arduinoLCD\test\Pain Drain\libraries\lvgl\src\misc/lv_printf.c ****                     unsigned int l = _strnlen_s(p, precision ? precision : (size_t) -1);
 821:..\..\..\arduinoLCD\test\Pain Drain\libraries\lvgl\src\misc/lv_printf.c ****                     // pre padding
 822:..\..\..\arduinoLCD\test\Pain Drain\libraries\lvgl\src\misc/lv_printf.c ****                     if(flags & FLAGS_PRECISION) {
 823:..\..\..\arduinoLCD\test\Pain Drain\libraries\lvgl\src\misc/lv_printf.c ****                         l = (l < precision ? l : precision);
 824:..\..\..\arduinoLCD\test\Pain Drain\libraries\lvgl\src\misc/lv_printf.c ****                     }
 825:..\..\..\arduinoLCD\test\Pain Drain\libraries\lvgl\src\misc/lv_printf.c ****                     if(!(flags & FLAGS_LEFT)) {
 826:..\..\..\arduinoLCD\test\Pain Drain\libraries\lvgl\src\misc/lv_printf.c ****                         while(l++ < width) {
 827:..\..\..\arduinoLCD\test\Pain Drain\libraries\lvgl\src\misc/lv_printf.c ****                             out(' ', buffer, idx++, maxlen);
 828:..\..\..\arduinoLCD\test\Pain Drain\libraries\lvgl\src\misc/lv_printf.c ****                         }
 829:..\..\..\arduinoLCD\test\Pain Drain\libraries\lvgl\src\misc/lv_printf.c ****                     }
 830:..\..\..\arduinoLCD\test\Pain Drain\libraries\lvgl\src\misc/lv_printf.c ****                     // string output
 831:..\..\..\arduinoLCD\test\Pain Drain\libraries\lvgl\src\misc/lv_printf.c ****                     while((*p != 0) && (!(flags & FLAGS_PRECISION) || precision--)) {
ARM GAS  C:\Users\haske\AppData\Local\Temp\ccZHF2NV.s 			page 32


 832:..\..\..\arduinoLCD\test\Pain Drain\libraries\lvgl\src\misc/lv_printf.c ****                         out(*(p++), buffer, idx++, maxlen);
 833:..\..\..\arduinoLCD\test\Pain Drain\libraries\lvgl\src\misc/lv_printf.c ****                     }
 834:..\..\..\arduinoLCD\test\Pain Drain\libraries\lvgl\src\misc/lv_printf.c ****                     // post padding
 835:..\..\..\arduinoLCD\test\Pain Drain\libraries\lvgl\src\misc/lv_printf.c ****                     if(flags & FLAGS_LEFT) {
 836:..\..\..\arduinoLCD\test\Pain Drain\libraries\lvgl\src\misc/lv_printf.c ****                         while(l++ < width) {
 837:..\..\..\arduinoLCD\test\Pain Drain\libraries\lvgl\src\misc/lv_printf.c ****                             out(' ', buffer, idx++, maxlen);
 838:..\..\..\arduinoLCD\test\Pain Drain\libraries\lvgl\src\misc/lv_printf.c ****                         }
 839:..\..\..\arduinoLCD\test\Pain Drain\libraries\lvgl\src\misc/lv_printf.c ****                     }
 840:..\..\..\arduinoLCD\test\Pain Drain\libraries\lvgl\src\misc/lv_printf.c ****                     format++;
 841:..\..\..\arduinoLCD\test\Pain Drain\libraries\lvgl\src\misc/lv_printf.c ****                     break;
 842:..\..\..\arduinoLCD\test\Pain Drain\libraries\lvgl\src\misc/lv_printf.c ****                 }
 843:..\..\..\arduinoLCD\test\Pain Drain\libraries\lvgl\src\misc/lv_printf.c **** 
 844:..\..\..\arduinoLCD\test\Pain Drain\libraries\lvgl\src\misc/lv_printf.c ****             case '%' :
 845:..\..\..\arduinoLCD\test\Pain Drain\libraries\lvgl\src\misc/lv_printf.c ****                 out('%', buffer, idx++, maxlen);
 920              		.loc 1 845 0
 921 001e 0027     		movs	r7, #0
 922 0020 5D46     		mov	r5, fp
 923 0022 B2E2     		b	.L62
 924              	.LVL120:
 925              	.L135:
 562:..\..\..\arduinoLCD\test\Pain Drain\libraries\lvgl\src\misc/lv_printf.c ****             // no
 926              		.loc 1 562 0
 927 0024 2528     		cmp	r0, #37
 928 0026 09D0     		beq	.L63
 564:..\..\..\arduinoLCD\test\Pain Drain\libraries\lvgl\src\misc/lv_printf.c ****             format++;
 929              		.loc 1 564 0
 930 0028 7C1C     		adds	r4, r7, #1
 931              	.LVL121:
 932 002a 0B9B     		ldr	r3, [sp, #44]
 933 002c 3A00     		movs	r2, r7
 934 002e 0C99     		ldr	r1, [sp, #48]
 935 0030 A847     		blx	r5
 936              	.LVL122:
 565:..\..\..\arduinoLCD\test\Pain Drain\libraries\lvgl\src\misc/lv_printf.c ****             continue;
 937              		.loc 1 565 0
 938 0032 139B     		ldr	r3, [sp, #76]
 939 0034 0133     		adds	r3, r3, #1
 940 0036 1393     		str	r3, [sp, #76]
 564:..\..\..\arduinoLCD\test\Pain Drain\libraries\lvgl\src\misc/lv_printf.c ****             format++;
 941              		.loc 1 564 0
 942 0038 2700     		movs	r7, r4
 566:..\..\..\arduinoLCD\test\Pain Drain\libraries\lvgl\src\misc/lv_printf.c ****         }
 943              		.loc 1 566 0
 944 003a A6E2     		b	.L62
 945              	.LVL123:
 946              	.L63:
 570:..\..\..\arduinoLCD\test\Pain Drain\libraries\lvgl\src\misc/lv_printf.c ****         }
 947              		.loc 1 570 0
 948 003c 0133     		adds	r3, r3, #1
 949 003e 1393     		str	r3, [sp, #76]
 950              	.LVL124:
 574:..\..\..\arduinoLCD\test\Pain Drain\libraries\lvgl\src\misc/lv_printf.c ****         do {
 951              		.loc 1 574 0
 952 0040 0026     		movs	r6, #0
 953              	.LVL125:
 954              	.L72:
 576:..\..\..\arduinoLCD\test\Pain Drain\libraries\lvgl\src\misc/lv_printf.c ****                 case '0':
ARM GAS  C:\Users\haske\AppData\Local\Temp\ccZHF2NV.s 			page 33


 955              		.loc 1 576 0
 956 0042 139A     		ldr	r2, [sp, #76]
 957 0044 1378     		ldrb	r3, [r2]
 958 0046 203B     		subs	r3, r3, #32
 959 0048 D9B2     		uxtb	r1, r3
 960 004a 1029     		cmp	r1, #16
 961 004c 20D8     		bhi	.L138
 962 004e 8B00     		lsls	r3, r1, #2
 963 0050 BD49     		ldr	r1, .L156+4
 964 0052 CB58     		ldr	r3, [r1, r3]
 965 0054 9F46     		mov	pc, r3
 966              		.section	.rodata
 967              		.align	2
 968              	.L67:
 969 0000 78000000 		.word	.L66
 970 0004 90000000 		.word	.L138
 971 0008 90000000 		.word	.L138
 972 000c 84000000 		.word	.L68
 973 0010 90000000 		.word	.L138
 974 0014 90000000 		.word	.L138
 975 0018 90000000 		.word	.L138
 976 001c 90000000 		.word	.L138
 977 0020 90000000 		.word	.L138
 978 0024 90000000 		.word	.L138
 979 0028 90000000 		.word	.L138
 980 002c 6C000000 		.word	.L69
 981 0030 90000000 		.word	.L138
 982 0034 60000000 		.word	.L70
 983 0038 90000000 		.word	.L138
 984 003c 90000000 		.word	.L138
 985 0040 56000000 		.word	.L71
 986              		.section	.text._vsnprintf
 987              	.L71:
 578:..\..\..\arduinoLCD\test\Pain Drain\libraries\lvgl\src\misc/lv_printf.c ****                     format++;
 988              		.loc 1 578 0
 989 0056 0123     		movs	r3, #1
 990 0058 1E43     		orrs	r6, r3
 991              	.LVL126:
 579:..\..\..\arduinoLCD\test\Pain Drain\libraries\lvgl\src\misc/lv_printf.c ****                     n = 1U;
 992              		.loc 1 579 0
 993 005a 0132     		adds	r2, r2, #1
 994 005c 1392     		str	r2, [sp, #76]
 995              	.LVL127:
 581:..\..\..\arduinoLCD\test\Pain Drain\libraries\lvgl\src\misc/lv_printf.c ****                 case '-':
 996              		.loc 1 581 0
 997 005e 18E0     		b	.L65
 998              	.LVL128:
 999              	.L70:
 583:..\..\..\arduinoLCD\test\Pain Drain\libraries\lvgl\src\misc/lv_printf.c ****                     format++;
 1000              		.loc 1 583 0
 1001 0060 0223     		movs	r3, #2
 1002 0062 1E43     		orrs	r6, r3
 1003              	.LVL129:
 584:..\..\..\arduinoLCD\test\Pain Drain\libraries\lvgl\src\misc/lv_printf.c ****                     n = 1U;
 1004              		.loc 1 584 0
 1005 0064 0132     		adds	r2, r2, #1
 1006 0066 1392     		str	r2, [sp, #76]
ARM GAS  C:\Users\haske\AppData\Local\Temp\ccZHF2NV.s 			page 34


 1007              	.LVL130:
 585:..\..\..\arduinoLCD\test\Pain Drain\libraries\lvgl\src\misc/lv_printf.c ****                     break;
 1008              		.loc 1 585 0
 1009 0068 013B     		subs	r3, r3, #1
 586:..\..\..\arduinoLCD\test\Pain Drain\libraries\lvgl\src\misc/lv_printf.c ****                 case '+':
 1010              		.loc 1 586 0
 1011 006a 12E0     		b	.L65
 1012              	.LVL131:
 1013              	.L69:
 588:..\..\..\arduinoLCD\test\Pain Drain\libraries\lvgl\src\misc/lv_printf.c ****                     format++;
 1014              		.loc 1 588 0
 1015 006c 0423     		movs	r3, #4
 1016 006e 1E43     		orrs	r6, r3
 1017              	.LVL132:
 589:..\..\..\arduinoLCD\test\Pain Drain\libraries\lvgl\src\misc/lv_printf.c ****                     n = 1U;
 1018              		.loc 1 589 0
 1019 0070 0132     		adds	r2, r2, #1
 1020 0072 1392     		str	r2, [sp, #76]
 1021              	.LVL133:
 590:..\..\..\arduinoLCD\test\Pain Drain\libraries\lvgl\src\misc/lv_printf.c ****                     break;
 1022              		.loc 1 590 0
 1023 0074 033B     		subs	r3, r3, #3
 591:..\..\..\arduinoLCD\test\Pain Drain\libraries\lvgl\src\misc/lv_printf.c ****                 case ' ':
 1024              		.loc 1 591 0
 1025 0076 0CE0     		b	.L65
 1026              	.LVL134:
 1027              	.L66:
 593:..\..\..\arduinoLCD\test\Pain Drain\libraries\lvgl\src\misc/lv_printf.c ****                     format++;
 1028              		.loc 1 593 0
 1029 0078 0823     		movs	r3, #8
 1030 007a 1E43     		orrs	r6, r3
 1031              	.LVL135:
 594:..\..\..\arduinoLCD\test\Pain Drain\libraries\lvgl\src\misc/lv_printf.c ****                     n = 1U;
 1032              		.loc 1 594 0
 1033 007c 0132     		adds	r2, r2, #1
 1034 007e 1392     		str	r2, [sp, #76]
 1035              	.LVL136:
 595:..\..\..\arduinoLCD\test\Pain Drain\libraries\lvgl\src\misc/lv_printf.c ****                     break;
 1036              		.loc 1 595 0
 1037 0080 073B     		subs	r3, r3, #7
 596:..\..\..\arduinoLCD\test\Pain Drain\libraries\lvgl\src\misc/lv_printf.c ****                 case '#':
 1038              		.loc 1 596 0
 1039 0082 06E0     		b	.L65
 1040              	.LVL137:
 1041              	.L68:
 598:..\..\..\arduinoLCD\test\Pain Drain\libraries\lvgl\src\misc/lv_printf.c ****                     format++;
 1042              		.loc 1 598 0
 1043 0084 1023     		movs	r3, #16
 1044 0086 1E43     		orrs	r6, r3
 1045              	.LVL138:
 599:..\..\..\arduinoLCD\test\Pain Drain\libraries\lvgl\src\misc/lv_printf.c ****                     n = 1U;
 1046              		.loc 1 599 0
 1047 0088 0132     		adds	r2, r2, #1
 1048 008a 1392     		str	r2, [sp, #76]
 1049              	.LVL139:
 600:..\..\..\arduinoLCD\test\Pain Drain\libraries\lvgl\src\misc/lv_printf.c ****                     break;
 1050              		.loc 1 600 0
ARM GAS  C:\Users\haske\AppData\Local\Temp\ccZHF2NV.s 			page 35


 1051 008c 0F3B     		subs	r3, r3, #15
 601:..\..\..\arduinoLCD\test\Pain Drain\libraries\lvgl\src\misc/lv_printf.c ****                 default :
 1052              		.loc 1 601 0
 1053 008e 00E0     		b	.L65
 1054              	.LVL140:
 1055              	.L138:
 603:..\..\..\arduinoLCD\test\Pain Drain\libraries\lvgl\src\misc/lv_printf.c ****                     break;
 1056              		.loc 1 603 0
 1057 0090 0023     		movs	r3, #0
 1058              	.L65:
 1059              	.LVL141:
 606:..\..\..\arduinoLCD\test\Pain Drain\libraries\lvgl\src\misc/lv_printf.c **** 
 1060              		.loc 1 606 0
 1061 0092 002B     		cmp	r3, #0
 1062 0094 D5D1     		bne	.L72
 1063              	.LVL142:
 610:..\..\..\arduinoLCD\test\Pain Drain\libraries\lvgl\src\misc/lv_printf.c ****             width = _atoi(&format);
 1064              		.loc 1 610 0
 1065 0096 1399     		ldr	r1, [sp, #76]
 1066 0098 0A78     		ldrb	r2, [r1]
 1067              	.LVL143:
 1068              	.LBB28:
 1069              	.LBB29:
 154:..\..\..\arduinoLCD\test\Pain Drain\libraries\lvgl\src\misc/lv_printf.c **** }
 1070              		.loc 1 154 0
 1071 009a 1300     		movs	r3, r2
 1072              	.LVL144:
 1073 009c 303B     		subs	r3, r3, #48
 1074 009e DBB2     		uxtb	r3, r3
 1075              	.LVL145:
 1076              	.LBE29:
 1077              	.LBE28:
 610:..\..\..\arduinoLCD\test\Pain Drain\libraries\lvgl\src\misc/lv_printf.c ****             width = _atoi(&format);
 1078              		.loc 1 610 0
 1079 00a0 092B     		cmp	r3, #9
 1080 00a2 04D8     		bhi	.L73
 611:..\..\..\arduinoLCD\test\Pain Drain\libraries\lvgl\src\misc/lv_printf.c ****         }
 1081              		.loc 1 611 0
 1082 00a4 13A8     		add	r0, sp, #76
 1083 00a6 FFF7FEFF 		bl	_atoi
 1084              	.LVL146:
 1085 00aa 8346     		mov	fp, r0
 1086              	.LVL147:
 1087 00ac 13E0     		b	.L74
 1088              	.LVL148:
 1089              	.L73:
 613:..\..\..\arduinoLCD\test\Pain Drain\libraries\lvgl\src\misc/lv_printf.c ****             const int w = va_arg(va, int);
 1090              		.loc 1 613 0
 1091 00ae 2A2A     		cmp	r2, #42
 1092 00b0 0FD1     		bne	.L139
 1093              	.LBB30:
 614:..\..\..\arduinoLCD\test\Pain Drain\libraries\lvgl\src\misc/lv_printf.c ****             if(w < 0) {
 1094              		.loc 1 614 0
 1095 00b2 209B     		ldr	r3, [sp, #128]
 1096 00b4 1B68     		ldr	r3, [r3]
 1097 00b6 209A     		ldr	r2, [sp, #128]
 1098 00b8 0432     		adds	r2, r2, #4
ARM GAS  C:\Users\haske\AppData\Local\Temp\ccZHF2NV.s 			page 36


 1099 00ba 2092     		str	r2, [sp, #128]
 1100              	.LVL149:
 615:..\..\..\arduinoLCD\test\Pain Drain\libraries\lvgl\src\misc/lv_printf.c ****                 flags |= FLAGS_LEFT;    // reverse padding
 1101              		.loc 1 615 0
 1102 00bc 002B     		cmp	r3, #0
 1103 00be 04DA     		bge	.L75
 616:..\..\..\arduinoLCD\test\Pain Drain\libraries\lvgl\src\misc/lv_printf.c ****                 width = (unsigned int) - w;
 1104              		.loc 1 616 0
 1105 00c0 0222     		movs	r2, #2
 1106 00c2 1643     		orrs	r6, r2
 1107              	.LVL150:
 617:..\..\..\arduinoLCD\test\Pain Drain\libraries\lvgl\src\misc/lv_printf.c ****             }
 1108              		.loc 1 617 0
 1109 00c4 5B42     		rsbs	r3, r3, #0
 1110              	.LVL151:
 1111 00c6 9B46     		mov	fp, r3
 1112              	.LVL152:
 1113 00c8 00E0     		b	.L76
 1114              	.LVL153:
 1115              	.L75:
 620:..\..\..\arduinoLCD\test\Pain Drain\libraries\lvgl\src\misc/lv_printf.c ****             }
 1116              		.loc 1 620 0
 1117 00ca 9B46     		mov	fp, r3
 1118              	.LVL154:
 1119              	.L76:
 622:..\..\..\arduinoLCD\test\Pain Drain\libraries\lvgl\src\misc/lv_printf.c ****         }
 1120              		.loc 1 622 0
 1121 00cc 0131     		adds	r1, r1, #1
 1122 00ce 1391     		str	r1, [sp, #76]
 1123              	.LVL155:
 1124 00d0 01E0     		b	.L74
 1125              	.LVL156:
 1126              	.L139:
 1127              	.LBE30:
 609:..\..\..\arduinoLCD\test\Pain Drain\libraries\lvgl\src\misc/lv_printf.c ****         if(_is_digit(*format)) {
 1128              		.loc 1 609 0
 1129 00d2 0023     		movs	r3, #0
 1130 00d4 9B46     		mov	fp, r3
 1131              	.LVL157:
 1132              	.L74:
 627:..\..\..\arduinoLCD\test\Pain Drain\libraries\lvgl\src\misc/lv_printf.c ****             flags |= FLAGS_PRECISION;
 1133              		.loc 1 627 0
 1134 00d6 139B     		ldr	r3, [sp, #76]
 1135 00d8 1A78     		ldrb	r2, [r3]
 1136 00da 2E2A     		cmp	r2, #46
 1137 00dc 1DD1     		bne	.L140
 628:..\..\..\arduinoLCD\test\Pain Drain\libraries\lvgl\src\misc/lv_printf.c ****             format++;
 1138              		.loc 1 628 0
 1139 00de 8022     		movs	r2, #128
 1140 00e0 D200     		lsls	r2, r2, #3
 1141 00e2 1643     		orrs	r6, r2
 1142              	.LVL158:
 629:..\..\..\arduinoLCD\test\Pain Drain\libraries\lvgl\src\misc/lv_printf.c ****             if(_is_digit(*format)) {
 1143              		.loc 1 629 0
 1144 00e4 591C     		adds	r1, r3, #1
 1145 00e6 1391     		str	r1, [sp, #76]
 630:..\..\..\arduinoLCD\test\Pain Drain\libraries\lvgl\src\misc/lv_printf.c ****                 precision = _atoi(&format);
ARM GAS  C:\Users\haske\AppData\Local\Temp\ccZHF2NV.s 			page 37


 1146              		.loc 1 630 0
 1147 00e8 5A78     		ldrb	r2, [r3, #1]
 1148              	.LVL159:
 1149              	.LBB31:
 1150              	.LBB32:
 154:..\..\..\arduinoLCD\test\Pain Drain\libraries\lvgl\src\misc/lv_printf.c **** }
 1151              		.loc 1 154 0
 1152 00ea 1300     		movs	r3, r2
 1153 00ec 303B     		subs	r3, r3, #48
 1154 00ee DBB2     		uxtb	r3, r3
 1155              	.LVL160:
 1156              	.LBE32:
 1157              	.LBE31:
 630:..\..\..\arduinoLCD\test\Pain Drain\libraries\lvgl\src\misc/lv_printf.c ****                 precision = _atoi(&format);
 1158              		.loc 1 630 0
 1159 00f0 092B     		cmp	r3, #9
 1160 00f2 04D8     		bhi	.L78
 631:..\..\..\arduinoLCD\test\Pain Drain\libraries\lvgl\src\misc/lv_printf.c ****             }
 1161              		.loc 1 631 0
 1162 00f4 13A8     		add	r0, sp, #76
 1163 00f6 FFF7FEFF 		bl	_atoi
 1164              	.LVL161:
 1165 00fa 8046     		mov	r8, r0
 1166              	.LVL162:
 1167 00fc 12E0     		b	.L77
 1168              	.LVL163:
 1169              	.L78:
 633:..\..\..\arduinoLCD\test\Pain Drain\libraries\lvgl\src\misc/lv_printf.c ****                 const int prec = (int)va_arg(va, int);
 1170              		.loc 1 633 0
 1171 00fe 2A2A     		cmp	r2, #42
 1172 0100 0ED1     		bne	.L141
 1173              	.LBB33:
 634:..\..\..\arduinoLCD\test\Pain Drain\libraries\lvgl\src\misc/lv_printf.c ****                 precision = prec > 0 ? (unsigned int)prec : 0U;
 1174              		.loc 1 634 0
 1175 0102 209B     		ldr	r3, [sp, #128]
 1176 0104 1B68     		ldr	r3, [r3]
 1177 0106 209A     		ldr	r2, [sp, #128]
 1178 0108 0432     		adds	r2, r2, #4
 1179 010a 2092     		str	r2, [sp, #128]
 635:..\..\..\arduinoLCD\test\Pain Drain\libraries\lvgl\src\misc/lv_printf.c ****                 format++;
 1180              		.loc 1 635 0
 1181 010c 002B     		cmp	r3, #0
 1182 010e 00DA     		bge	.L79
 1183 0110 0023     		movs	r3, #0
 1184              	.L79:
 1185 0112 9846     		mov	r8, r3
 1186              	.LVL164:
 636:..\..\..\arduinoLCD\test\Pain Drain\libraries\lvgl\src\misc/lv_printf.c ****             }
 1187              		.loc 1 636 0
 1188 0114 0131     		adds	r1, r1, #1
 1189 0116 1391     		str	r1, [sp, #76]
 1190 0118 04E0     		b	.L77
 1191              	.LVL165:
 1192              	.L140:
 1193              	.LBE33:
 626:..\..\..\arduinoLCD\test\Pain Drain\libraries\lvgl\src\misc/lv_printf.c ****         if(*format == '.') {
 1194              		.loc 1 626 0
ARM GAS  C:\Users\haske\AppData\Local\Temp\ccZHF2NV.s 			page 38


 1195 011a 0023     		movs	r3, #0
 1196 011c 9846     		mov	r8, r3
 1197 011e 01E0     		b	.L77
 1198              	.L141:
 1199 0120 0023     		movs	r3, #0
 1200 0122 9846     		mov	r8, r3
 1201              	.LVL166:
 1202              	.L77:
 641:..\..\..\arduinoLCD\test\Pain Drain\libraries\lvgl\src\misc/lv_printf.c ****             case 'l' :
 1203              		.loc 1 641 0
 1204 0124 139A     		ldr	r2, [sp, #76]
 1205 0126 1378     		ldrb	r3, [r2]
 1206 0128 683B     		subs	r3, r3, #104
 1207 012a D9B2     		uxtb	r1, r3
 1208 012c 1229     		cmp	r1, #18
 1209 012e 32D8     		bhi	.L80
 1210 0130 8B00     		lsls	r3, r1, #2
 1211 0132 8649     		ldr	r1, .L156+8
 1212 0134 CB58     		ldr	r3, [r1, r3]
 1213 0136 9F46     		mov	pc, r3
 1214              		.section	.rodata
 1215              		.align	2
 1216              	.L82:
 1217 0044 54010000 		.word	.L81
 1218 0048 96010000 		.word	.L80
 1219 004c 78010000 		.word	.L83
 1220 0050 96010000 		.word	.L80
 1221 0054 38010000 		.word	.L84
 1222 0058 96010000 		.word	.L80
 1223 005c 96010000 		.word	.L80
 1224 0060 96010000 		.word	.L80
 1225 0064 96010000 		.word	.L80
 1226 0068 96010000 		.word	.L80
 1227 006c 96010000 		.word	.L80
 1228 0070 96010000 		.word	.L80
 1229 0074 6C010000 		.word	.L85
 1230 0078 96010000 		.word	.L80
 1231 007c 96010000 		.word	.L80
 1232 0080 96010000 		.word	.L80
 1233 0084 96010000 		.word	.L80
 1234 0088 96010000 		.word	.L80
 1235 008c 84010000 		.word	.L86
 1236              		.section	.text._vsnprintf
 1237              	.L84:
 643:..\..\..\arduinoLCD\test\Pain Drain\libraries\lvgl\src\misc/lv_printf.c ****                 format++;
 1238              		.loc 1 643 0
 1239 0138 8023     		movs	r3, #128
 1240 013a 5B00     		lsls	r3, r3, #1
 1241 013c 3343     		orrs	r3, r6
 1242              	.LVL167:
 644:..\..\..\arduinoLCD\test\Pain Drain\libraries\lvgl\src\misc/lv_printf.c ****                 if(*format == 'l') {
 1243              		.loc 1 644 0
 1244 013e 511C     		adds	r1, r2, #1
 1245 0140 1391     		str	r1, [sp, #76]
 645:..\..\..\arduinoLCD\test\Pain Drain\libraries\lvgl\src\misc/lv_printf.c ****                     flags |= FLAGS_LONG_LONG;
 1246              		.loc 1 645 0
 1247 0142 5278     		ldrb	r2, [r2, #1]
ARM GAS  C:\Users\haske\AppData\Local\Temp\ccZHF2NV.s 			page 39


 1248 0144 6C2A     		cmp	r2, #108
 1249 0146 23D1     		bne	.L142
 646:..\..\..\arduinoLCD\test\Pain Drain\libraries\lvgl\src\misc/lv_printf.c ****                     format++;
 1250              		.loc 1 646 0
 1251 0148 C023     		movs	r3, #192
 1252              	.LVL168:
 1253 014a 9B00     		lsls	r3, r3, #2
 1254 014c 1E43     		orrs	r6, r3
 1255              	.LVL169:
 647:..\..\..\arduinoLCD\test\Pain Drain\libraries\lvgl\src\misc/lv_printf.c ****                 }
 1256              		.loc 1 647 0
 1257 014e 0131     		adds	r1, r1, #1
 1258 0150 1391     		str	r1, [sp, #76]
 1259 0152 20E0     		b	.L80
 1260              	.L81:
 651:..\..\..\arduinoLCD\test\Pain Drain\libraries\lvgl\src\misc/lv_printf.c ****                 format++;
 1261              		.loc 1 651 0
 1262 0154 8023     		movs	r3, #128
 1263 0156 3343     		orrs	r3, r6
 1264              	.LVL170:
 652:..\..\..\arduinoLCD\test\Pain Drain\libraries\lvgl\src\misc/lv_printf.c ****                 if(*format == 'h') {
 1265              		.loc 1 652 0
 1266 0158 511C     		adds	r1, r2, #1
 1267 015a 1391     		str	r1, [sp, #76]
 653:..\..\..\arduinoLCD\test\Pain Drain\libraries\lvgl\src\misc/lv_printf.c ****                     flags |= FLAGS_CHAR;
 1268              		.loc 1 653 0
 1269 015c 5278     		ldrb	r2, [r2, #1]
 1270 015e 682A     		cmp	r2, #104
 1271 0160 18D1     		bne	.L143
 654:..\..\..\arduinoLCD\test\Pain Drain\libraries\lvgl\src\misc/lv_printf.c ****                     format++;
 1272              		.loc 1 654 0
 1273 0162 C023     		movs	r3, #192
 1274              	.LVL171:
 1275 0164 1E43     		orrs	r6, r3
 1276              	.LVL172:
 655:..\..\..\arduinoLCD\test\Pain Drain\libraries\lvgl\src\misc/lv_printf.c ****                 }
 1277              		.loc 1 655 0
 1278 0166 0131     		adds	r1, r1, #1
 1279 0168 1391     		str	r1, [sp, #76]
 1280 016a 14E0     		b	.L80
 1281              	.L85:
 660:..\..\..\arduinoLCD\test\Pain Drain\libraries\lvgl\src\misc/lv_printf.c ****                 format++;
 1282              		.loc 1 660 0
 1283 016c 8023     		movs	r3, #128
 1284 016e 5B00     		lsls	r3, r3, #1
 1285 0170 1E43     		orrs	r6, r3
 1286              	.LVL173:
 661:..\..\..\arduinoLCD\test\Pain Drain\libraries\lvgl\src\misc/lv_printf.c ****                 break;
 1287              		.loc 1 661 0
 1288 0172 0132     		adds	r2, r2, #1
 1289 0174 1392     		str	r2, [sp, #76]
 662:..\..\..\arduinoLCD\test\Pain Drain\libraries\lvgl\src\misc/lv_printf.c **** #endif
 1290              		.loc 1 662 0
 1291 0176 0EE0     		b	.L80
 1292              	.L83:
 665:..\..\..\arduinoLCD\test\Pain Drain\libraries\lvgl\src\misc/lv_printf.c ****                 format++;
 1293              		.loc 1 665 0
ARM GAS  C:\Users\haske\AppData\Local\Temp\ccZHF2NV.s 			page 40


 1294 0178 8023     		movs	r3, #128
 1295 017a 9B00     		lsls	r3, r3, #2
 1296 017c 1E43     		orrs	r6, r3
 1297              	.LVL174:
 666:..\..\..\arduinoLCD\test\Pain Drain\libraries\lvgl\src\misc/lv_printf.c ****                 break;
 1298              		.loc 1 666 0
 1299 017e 0132     		adds	r2, r2, #1
 1300 0180 1392     		str	r2, [sp, #76]
 667:..\..\..\arduinoLCD\test\Pain Drain\libraries\lvgl\src\misc/lv_printf.c ****             case 'z' :
 1301              		.loc 1 667 0
 1302 0182 08E0     		b	.L80
 1303              	.L86:
 669:..\..\..\arduinoLCD\test\Pain Drain\libraries\lvgl\src\misc/lv_printf.c ****                 format++;
 1304              		.loc 1 669 0
 1305 0184 8023     		movs	r3, #128
 1306 0186 5B00     		lsls	r3, r3, #1
 1307 0188 1E43     		orrs	r6, r3
 1308              	.LVL175:
 670:..\..\..\arduinoLCD\test\Pain Drain\libraries\lvgl\src\misc/lv_printf.c ****                 break;
 1309              		.loc 1 670 0
 1310 018a 0132     		adds	r2, r2, #1
 1311 018c 1392     		str	r2, [sp, #76]
 671:..\..\..\arduinoLCD\test\Pain Drain\libraries\lvgl\src\misc/lv_printf.c ****             default :
 1312              		.loc 1 671 0
 1313 018e 02E0     		b	.L80
 1314              	.LVL176:
 1315              	.L142:
 643:..\..\..\arduinoLCD\test\Pain Drain\libraries\lvgl\src\misc/lv_printf.c ****                 format++;
 1316              		.loc 1 643 0
 1317 0190 1E00     		movs	r6, r3
 1318 0192 00E0     		b	.L80
 1319              	.L143:
 651:..\..\..\arduinoLCD\test\Pain Drain\libraries\lvgl\src\misc/lv_printf.c ****                 format++;
 1320              		.loc 1 651 0
 1321 0194 1E00     		movs	r6, r3
 1322              	.LVL177:
 1323              	.L80:
 677:..\..\..\arduinoLCD\test\Pain Drain\libraries\lvgl\src\misc/lv_printf.c ****             case 'd' :
 1324              		.loc 1 677 0
 1325 0196 139A     		ldr	r2, [sp, #76]
 1326 0198 1078     		ldrb	r0, [r2]
 1327 019a 0300     		movs	r3, r0
 1328 019c 253B     		subs	r3, r3, #37
 1329 019e D9B2     		uxtb	r1, r3
 1330 01a0 5329     		cmp	r1, #83
 1331 01a2 00D9     		bls	.LCB1518
 1332 01a4 E8E1     		b	.L87	@long jump
 1333              	.LCB1518:
 1334 01a6 8B00     		lsls	r3, r1, #2
 1335 01a8 6949     		ldr	r1, .L156+12
 1336 01aa CB58     		ldr	r3, [r1, r3]
 1337 01ac 9F46     		mov	pc, r3
 1338              		.section	.rodata
 1339              		.align	2
 1340              	.L89:
 1341 0090 62050000 		.word	.L88
 1342 0094 78050000 		.word	.L87
ARM GAS  C:\Users\haske\AppData\Local\Temp\ccZHF2NV.s 			page 41


 1343 0098 78050000 		.word	.L87
 1344 009c 78050000 		.word	.L87
 1345 00a0 78050000 		.word	.L87
 1346 00a4 78050000 		.word	.L87
 1347 00a8 78050000 		.word	.L87
 1348 00ac 78050000 		.word	.L87
 1349 00b0 78050000 		.word	.L87
 1350 00b4 78050000 		.word	.L87
 1351 00b8 78050000 		.word	.L87
 1352 00bc 78050000 		.word	.L87
 1353 00c0 78050000 		.word	.L87
 1354 00c4 78050000 		.word	.L87
 1355 00c8 78050000 		.word	.L87
 1356 00cc 78050000 		.word	.L87
 1357 00d0 78050000 		.word	.L87
 1358 00d4 78050000 		.word	.L87
 1359 00d8 78050000 		.word	.L87
 1360 00dc 78050000 		.word	.L87
 1361 00e0 78050000 		.word	.L87
 1362 00e4 78050000 		.word	.L87
 1363 00e8 78050000 		.word	.L87
 1364 00ec 78050000 		.word	.L87
 1365 00f0 78050000 		.word	.L87
 1366 00f4 78050000 		.word	.L87
 1367 00f8 78050000 		.word	.L87
 1368 00fc 78050000 		.word	.L87
 1369 0100 78050000 		.word	.L87
 1370 0104 78050000 		.word	.L87
 1371 0108 78050000 		.word	.L87
 1372 010c 78050000 		.word	.L87
 1373 0110 78050000 		.word	.L87
 1374 0114 78050000 		.word	.L87
 1375 0118 78050000 		.word	.L87
 1376 011c 78050000 		.word	.L87
 1377 0120 78050000 		.word	.L87
 1378 0124 78050000 		.word	.L87
 1379 0128 78050000 		.word	.L87
 1380 012c 78050000 		.word	.L87
 1381 0130 78050000 		.word	.L87
 1382 0134 78050000 		.word	.L87
 1383 0138 78050000 		.word	.L87
 1384 013c AE010000 		.word	.L90
 1385 0140 78050000 		.word	.L87
 1386 0144 78050000 		.word	.L87
 1387 0148 78050000 		.word	.L87
 1388 014c 78050000 		.word	.L87
 1389 0150 78050000 		.word	.L87
 1390 0154 78050000 		.word	.L87
 1391 0158 78050000 		.word	.L87
 1392 015c AE010000 		.word	.L90
 1393 0160 78050000 		.word	.L87
 1394 0164 78050000 		.word	.L87
 1395 0168 78050000 		.word	.L87
 1396 016c 78050000 		.word	.L87
 1397 0170 78050000 		.word	.L87
 1398 0174 78050000 		.word	.L87
 1399 0178 78050000 		.word	.L87
ARM GAS  C:\Users\haske\AppData\Local\Temp\ccZHF2NV.s 			page 42


 1400 017c 78050000 		.word	.L87
 1401 0180 78050000 		.word	.L87
 1402 0184 AE010000 		.word	.L90
 1403 0188 1E040000 		.word	.L91
 1404 018c AE010000 		.word	.L90
 1405 0190 78050000 		.word	.L87
 1406 0194 78050000 		.word	.L87
 1407 0198 78050000 		.word	.L87
 1408 019c 78050000 		.word	.L87
 1409 01a0 AE010000 		.word	.L90
 1410 01a4 78050000 		.word	.L87
 1411 01a8 78050000 		.word	.L87
 1412 01ac 78050000 		.word	.L87
 1413 01b0 78050000 		.word	.L87
 1414 01b4 78050000 		.word	.L87
 1415 01b8 AE010000 		.word	.L90
 1416 01bc AE010000 		.word	.L90
 1417 01c0 78050000 		.word	.L87
 1418 01c4 78050000 		.word	.L87
 1419 01c8 8E040000 		.word	.L92
 1420 01cc 78050000 		.word	.L87
 1421 01d0 AE010000 		.word	.L90
 1422 01d4 78050000 		.word	.L87
 1423 01d8 78050000 		.word	.L87
 1424 01dc AE010000 		.word	.L90
 1425              		.section	.text._vsnprintf
 1426              	.L90:
 1427              	.LBB34:
 689:..\..\..\arduinoLCD\test\Pain Drain\libraries\lvgl\src\misc/lv_printf.c ****                         base = 16U;
 1428              		.loc 1 689 0
 1429 01ae 7828     		cmp	r0, #120
 1430 01b0 17D0     		beq	.L144
 689:..\..\..\arduinoLCD\test\Pain Drain\libraries\lvgl\src\misc/lv_printf.c ****                         base = 16U;
 1431              		.loc 1 689 0 is_stmt 0 discriminator 1
 1432 01b2 5828     		cmp	r0, #88
 1433 01b4 17D0     		beq	.L145
 692:..\..\..\arduinoLCD\test\Pain Drain\libraries\lvgl\src\misc/lv_printf.c ****                         base = 16U;
 1434              		.loc 1 692 0 is_stmt 1
 1435 01b6 7028     		cmp	r0, #112
 1436 01b8 01D0     		beq	.L94
 692:..\..\..\arduinoLCD\test\Pain Drain\libraries\lvgl\src\misc/lv_printf.c ****                         base = 16U;
 1437              		.loc 1 692 0 is_stmt 0 discriminator 1
 1438 01ba 5028     		cmp	r0, #80
 1439 01bc 09D1     		bne	.L95
 1440              	.L94:
 1441              	.LVL178:
 700:..\..\..\arduinoLCD\test\Pain Drain\libraries\lvgl\src\misc/lv_printf.c **** 
 1442              		.loc 1 700 0 is_stmt 1
 1443 01be 8823     		movs	r3, #136
 1444 01c0 5B00     		lsls	r3, r3, #1
 1445 01c2 1E43     		orrs	r6, r3
 1446              	.LVL179:
 702:..\..\..\arduinoLCD\test\Pain Drain\libraries\lvgl\src\misc/lv_printf.c ****                             format++;
 1447              		.loc 1 702 0
 1448 01c4 5378     		ldrb	r3, [r2, #1]
 1449 01c6 562B     		cmp	r3, #86
 1450 01c8 0FD1     		bne	.L146
ARM GAS  C:\Users\haske\AppData\Local\Temp\ccZHF2NV.s 			page 43


 703:..\..\..\arduinoLCD\test\Pain Drain\libraries\lvgl\src\misc/lv_printf.c ****                     }
 1451              		.loc 1 703 0
 1452 01ca 0132     		adds	r2, r2, #1
 1453 01cc 1392     		str	r2, [sp, #76]
 693:..\..\..\arduinoLCD\test\Pain Drain\libraries\lvgl\src\misc/lv_printf.c ****                         flags |= FLAGS_HASH;   // always hash for pointer format
 1454              		.loc 1 693 0
 1455 01ce 1022     		movs	r2, #16
 1456 01d0 10E0     		b	.L93
 1457              	.LVL180:
 1458              	.L95:
 705:..\..\..\arduinoLCD\test\Pain Drain\libraries\lvgl\src\misc/lv_printf.c ****                         base =  8U;
 1459              		.loc 1 705 0
 1460 01d2 6F28     		cmp	r0, #111
 1461 01d4 0BD0     		beq	.L147
 708:..\..\..\arduinoLCD\test\Pain Drain\libraries\lvgl\src\misc/lv_printf.c ****                         base =  2U;
 1462              		.loc 1 708 0
 1463 01d6 6228     		cmp	r0, #98
 1464 01d8 0BD0     		beq	.L148
 1465              	.LVL181:
 713:..\..\..\arduinoLCD\test\Pain Drain\libraries\lvgl\src\misc/lv_printf.c ****                     }
 1466              		.loc 1 713 0
 1467 01da 1023     		movs	r3, #16
 1468 01dc 9E43     		bics	r6, r3
 1469              	.LVL182:
 712:..\..\..\arduinoLCD\test\Pain Drain\libraries\lvgl\src\misc/lv_printf.c ****                         flags &= ~FLAGS_HASH;   // no hash for dec format
 1470              		.loc 1 712 0
 1471 01de 0A22     		movs	r2, #10
 1472 01e0 08E0     		b	.L93
 1473              	.LVL183:
 1474              	.L144:
 690:..\..\..\arduinoLCD\test\Pain Drain\libraries\lvgl\src\misc/lv_printf.c ****                     }
 1475              		.loc 1 690 0
 1476 01e2 1022     		movs	r2, #16
 1477 01e4 06E0     		b	.L93
 1478              	.L145:
 1479 01e6 1022     		movs	r2, #16
 1480 01e8 04E0     		b	.L93
 1481              	.LVL184:
 1482              	.L146:
 693:..\..\..\arduinoLCD\test\Pain Drain\libraries\lvgl\src\misc/lv_printf.c ****                         flags |= FLAGS_HASH;   // always hash for pointer format
 1483              		.loc 1 693 0
 1484 01ea 1022     		movs	r2, #16
 1485 01ec 02E0     		b	.L93
 1486              	.LVL185:
 1487              	.L147:
 706:..\..\..\arduinoLCD\test\Pain Drain\libraries\lvgl\src\misc/lv_printf.c ****                     }
 1488              		.loc 1 706 0
 1489 01ee 0822     		movs	r2, #8
 1490 01f0 00E0     		b	.L93
 1491              	.L148:
 709:..\..\..\arduinoLCD\test\Pain Drain\libraries\lvgl\src\misc/lv_printf.c ****                     }
 1492              		.loc 1 709 0
 1493 01f2 0222     		movs	r2, #2
 1494              	.L93:
 1495              	.LVL186:
 716:..\..\..\arduinoLCD\test\Pain Drain\libraries\lvgl\src\misc/lv_printf.c ****                         flags |= FLAGS_UPPERCASE;
 1496              		.loc 1 716 0
ARM GAS  C:\Users\haske\AppData\Local\Temp\ccZHF2NV.s 			page 44


 1497 01f4 139B     		ldr	r3, [sp, #76]
 1498 01f6 1B78     		ldrb	r3, [r3]
 1499 01f8 582B     		cmp	r3, #88
 1500 01fa 01D0     		beq	.L96
 716:..\..\..\arduinoLCD\test\Pain Drain\libraries\lvgl\src\misc/lv_printf.c ****                         flags |= FLAGS_UPPERCASE;
 1501              		.loc 1 716 0 is_stmt 0 discriminator 1
 1502 01fc 502B     		cmp	r3, #80
 1503 01fe 01D1     		bne	.L97
 1504              	.L96:
 717:..\..\..\arduinoLCD\test\Pain Drain\libraries\lvgl\src\misc/lv_printf.c ****                     }
 1505              		.loc 1 717 0 is_stmt 1
 1506 0200 2021     		movs	r1, #32
 1507 0202 0E43     		orrs	r6, r1
 1508              	.LVL187:
 1509              	.L97:
 721:..\..\..\arduinoLCD\test\Pain Drain\libraries\lvgl\src\misc/lv_printf.c ****                         flags &= ~(FLAGS_PLUS | FLAGS_SPACE);
 1510              		.loc 1 721 0
 1511 0204 692B     		cmp	r3, #105
 1512 0206 03D0     		beq	.L98
 721:..\..\..\arduinoLCD\test\Pain Drain\libraries\lvgl\src\misc/lv_printf.c ****                         flags &= ~(FLAGS_PLUS | FLAGS_SPACE);
 1513              		.loc 1 721 0 is_stmt 0 discriminator 1
 1514 0208 642B     		cmp	r3, #100
 1515 020a 01D0     		beq	.L98
 722:..\..\..\arduinoLCD\test\Pain Drain\libraries\lvgl\src\misc/lv_printf.c ****                     }
 1516              		.loc 1 722 0 is_stmt 1
 1517 020c 0C21     		movs	r1, #12
 1518 020e 8E43     		bics	r6, r1
 1519              	.LVL188:
 1520              	.L98:
 726:..\..\..\arduinoLCD\test\Pain Drain\libraries\lvgl\src\misc/lv_printf.c ****                         flags &= ~FLAGS_ZEROPAD;
 1521              		.loc 1 726 0
 1522 0210 7105     		lsls	r1, r6, #21
 1523 0212 01D5     		bpl	.L99
 727:..\..\..\arduinoLCD\test\Pain Drain\libraries\lvgl\src\misc/lv_printf.c ****                     }
 1524              		.loc 1 727 0
 1525 0214 0121     		movs	r1, #1
 1526 0216 8E43     		bics	r6, r1
 1527              	.LVL189:
 1528              	.L99:
 731:..\..\..\arduinoLCD\test\Pain Drain\libraries\lvgl\src\misc/lv_printf.c ****                         // signed
 1529              		.loc 1 731 0
 1530 0218 692B     		cmp	r3, #105
 1531 021a 01D0     		beq	.L100
 731:..\..\..\arduinoLCD\test\Pain Drain\libraries\lvgl\src\misc/lv_printf.c ****                         // signed
 1532              		.loc 1 731 0 is_stmt 0 discriminator 1
 1533 021c 642B     		cmp	r3, #100
 1534 021e 7BD1     		bne	.L101
 1535              	.L100:
 733:..\..\..\arduinoLCD\test\Pain Drain\libraries\lvgl\src\misc/lv_printf.c **** #if defined(PRINTF_SUPPORT_LONG_LONG)
 1536              		.loc 1 733 0 is_stmt 1
 1537 0220 B305     		lsls	r3, r6, #22
 1538 0222 32D5     		bpl	.L102
 1539              	.LBB35:
 735:..\..\..\arduinoLCD\test\Pain Drain\libraries\lvgl\src\misc/lv_printf.c ****                             idx = _ntoa_long_long(out, buffer, idx, maxlen, (unsigned long long)(va
 1540              		.loc 1 735 0
 1541 0224 209B     		ldr	r3, [sp, #128]
 1542 0226 0733     		adds	r3, r3, #7
ARM GAS  C:\Users\haske\AppData\Local\Temp\ccZHF2NV.s 			page 45


 1543 0228 0721     		movs	r1, #7
 1544 022a 8B43     		bics	r3, r1
 1545 022c 0131     		adds	r1, r1, #1
 1546 022e 8C46     		mov	ip, r1
 1547 0230 9C44     		add	ip, ip, r3
 1548 0232 6146     		mov	r1, ip
 1549 0234 2091     		str	r1, [sp, #128]
 1550 0236 1968     		ldr	r1, [r3]
 1551 0238 5B68     		ldr	r3, [r3, #4]
 1552 023a 9C46     		mov	ip, r3
 1553              	.LVL190:
 736:..\..\..\arduinoLCD\test\Pain Drain\libraries\lvgl\src\misc/lv_printf.c ****                                                   precision, width, flags);
 1554              		.loc 1 736 0
 1555 023c DB17     		asrs	r3, r3, #31
 1556              	.LVL191:
 1557 023e 1093     		str	r3, [sp, #64]
 1558 0240 1193     		str	r3, [sp, #68]
 1559 0242 109B     		ldr	r3, [sp, #64]
 1560 0244 119C     		ldr	r4, [sp, #68]
 1561 0246 1800     		movs	r0, r3
 1562 0248 4840     		eors	r0, r1
 1563 024a 0E90     		str	r0, [sp, #56]
 1564 024c 2100     		movs	r1, r4
 1565              	.LVL192:
 1566 024e 6046     		mov	r0, ip
 1567 0250 4140     		eors	r1, r0
 1568 0252 0F91     		str	r1, [sp, #60]
 1569 0254 0E98     		ldr	r0, [sp, #56]
 1570 0256 0F99     		ldr	r1, [sp, #60]
 1571 0258 C01A     		subs	r0, r0, r3
 1572 025a A141     		sbcs	r1, r1, r4
 1573 025c 0E90     		str	r0, [sp, #56]
 1574 025e 0F91     		str	r1, [sp, #60]
 1575 0260 6346     		mov	r3, ip
 1576 0262 DB0F     		lsrs	r3, r3, #31
 1577 0264 0896     		str	r6, [sp, #32]
 1578 0266 5C46     		mov	r4, fp
 1579 0268 0794     		str	r4, [sp, #28]
 1580 026a 4446     		mov	r4, r8
 1581 026c 0694     		str	r4, [sp, #24]
 1582 026e 0492     		str	r2, [sp, #16]
 1583 0270 0022     		movs	r2, #0
 1584              	.LVL193:
 1585 0272 0592     		str	r2, [sp, #20]
 1586 0274 0293     		str	r3, [sp, #8]
 1587 0276 0090     		str	r0, [sp]
 1588 0278 0191     		str	r1, [sp, #4]
 1589 027a 0B9B     		ldr	r3, [sp, #44]
 1590 027c 3A00     		movs	r2, r7
 1591 027e 0C99     		ldr	r1, [sp, #48]
 1592 0280 2800     		movs	r0, r5
 1593 0282 FFF7FEFF 		bl	_ntoa_long_long
 1594              	.LVL194:
 1595 0286 0700     		movs	r7, r0
 1596              	.LVL195:
 1597              	.LBE35:
 1598 0288 C5E0     		b	.L103
ARM GAS  C:\Users\haske\AppData\Local\Temp\ccZHF2NV.s 			page 46


 1599              	.LVL196:
 1600              	.L102:
 740:..\..\..\arduinoLCD\test\Pain Drain\libraries\lvgl\src\misc/lv_printf.c ****                             const long value = va_arg(va, long);
 1601              		.loc 1 740 0
 1602 028a F305     		lsls	r3, r6, #23
 1603 028c 18D5     		bpl	.L104
 1604              	.LBB36:
 741:..\..\..\arduinoLCD\test\Pain Drain\libraries\lvgl\src\misc/lv_printf.c ****                             idx = _ntoa_long(out, buffer, idx, maxlen, (unsigned long)(value > 0 ? 
 1605              		.loc 1 741 0
 1606 028e 209B     		ldr	r3, [sp, #128]
 1607 0290 1B68     		ldr	r3, [r3]
 1608 0292 2099     		ldr	r1, [sp, #128]
 1609 0294 0431     		adds	r1, r1, #4
 1610 0296 2091     		str	r1, [sp, #128]
 1611              	.LVL197:
 742:..\..\..\arduinoLCD\test\Pain Drain\libraries\lvgl\src\misc/lv_printf.c ****                                              width, flags);
 1612              		.loc 1 742 0
 1613 0298 D817     		asrs	r0, r3, #31
 1614 029a 1918     		adds	r1, r3, r0
 1615 029c 4140     		eors	r1, r0
 1616 029e DB0F     		lsrs	r3, r3, #31
 1617              	.LVL198:
 1618 02a0 0596     		str	r6, [sp, #20]
 1619              	.LVL199:
 1620 02a2 5846     		mov	r0, fp
 1621 02a4 0490     		str	r0, [sp, #16]
 1622 02a6 4046     		mov	r0, r8
 1623 02a8 0390     		str	r0, [sp, #12]
 1624 02aa 0292     		str	r2, [sp, #8]
 1625 02ac 0193     		str	r3, [sp, #4]
 1626 02ae 0091     		str	r1, [sp]
 1627 02b0 0B9B     		ldr	r3, [sp, #44]
 1628 02b2 3A00     		movs	r2, r7
 1629              	.LVL200:
 1630 02b4 0C99     		ldr	r1, [sp, #48]
 1631 02b6 2800     		movs	r0, r5
 1632 02b8 FFF7FEFF 		bl	_ntoa_long
 1633              	.LVL201:
 1634 02bc 0700     		movs	r7, r0
 1635              	.LVL202:
 1636              	.LBE36:
 1637 02be AAE0     		b	.L103
 1638              	.LVL203:
 1639              	.L104:
 1640              	.LBB37:
 746:..\..\..\arduinoLCD\test\Pain Drain\libraries\lvgl\src\misc/lv_printf.c ****                                                                                                    
 1641              		.loc 1 746 0
 1642 02c0 7306     		lsls	r3, r6, #25
 1643 02c2 07D5     		bpl	.L105
 746:..\..\..\arduinoLCD\test\Pain Drain\libraries\lvgl\src\misc/lv_printf.c ****                                                                                                    
 1644              		.loc 1 746 0 is_stmt 0 discriminator 1
 1645 02c4 209B     		ldr	r3, [sp, #128]
 1646 02c6 1B68     		ldr	r3, [r3]
 1647 02c8 2099     		ldr	r1, [sp, #128]
 1648 02ca 0431     		adds	r1, r1, #4
 1649 02cc 2091     		str	r1, [sp, #128]
 1650 02ce FF21     		movs	r1, #255
ARM GAS  C:\Users\haske\AppData\Local\Temp\ccZHF2NV.s 			page 47


 1651 02d0 0B40     		ands	r3, r1
 1652 02d2 0DE0     		b	.L106
 1653              	.L105:
 747:..\..\..\arduinoLCD\test\Pain Drain\libraries\lvgl\src\misc/lv_printf.c ****                             idx = _ntoa_long(out, buffer, idx, maxlen, (unsigned int)(value > 0 ? v
 1654              		.loc 1 747 0 is_stmt 1 discriminator 2
 1655 02d4 3306     		lsls	r3, r6, #24
 1656 02d6 06D5     		bpl	.L107
 746:..\..\..\arduinoLCD\test\Pain Drain\libraries\lvgl\src\misc/lv_printf.c ****                                                                                                    
 1657              		.loc 1 746 0 discriminator 1
 1658 02d8 209B     		ldr	r3, [sp, #128]
 747:..\..\..\arduinoLCD\test\Pain Drain\libraries\lvgl\src\misc/lv_printf.c ****                             idx = _ntoa_long(out, buffer, idx, maxlen, (unsigned int)(value > 0 ? v
 1659              		.loc 1 747 0 discriminator 1
 1660 02da 0021     		movs	r1, #0
 1661 02dc 5B5E     		ldrsh	r3, [r3, r1]
 1662 02de 2099     		ldr	r1, [sp, #128]
 1663 02e0 0431     		adds	r1, r1, #4
 1664 02e2 2091     		str	r1, [sp, #128]
 1665 02e4 04E0     		b	.L106
 1666              	.L107:
 747:..\..\..\arduinoLCD\test\Pain Drain\libraries\lvgl\src\misc/lv_printf.c ****                             idx = _ntoa_long(out, buffer, idx, maxlen, (unsigned int)(value > 0 ? v
 1667              		.loc 1 747 0 is_stmt 0 discriminator 2
 1668 02e6 209B     		ldr	r3, [sp, #128]
 1669 02e8 1B68     		ldr	r3, [r3]
 1670 02ea 2099     		ldr	r1, [sp, #128]
 1671 02ec 0431     		adds	r1, r1, #4
 1672 02ee 2091     		str	r1, [sp, #128]
 1673              	.L106:
 1674              	.LVL204:
 748:..\..\..\arduinoLCD\test\Pain Drain\libraries\lvgl\src\misc/lv_printf.c ****                                              width, flags);
 1675              		.loc 1 748 0 is_stmt 1 discriminator 3
 1676 02f0 D817     		asrs	r0, r3, #31
 1677 02f2 1918     		adds	r1, r3, r0
 1678 02f4 4140     		eors	r1, r0
 1679 02f6 DB0F     		lsrs	r3, r3, #31
 1680              	.LVL205:
 1681 02f8 0596     		str	r6, [sp, #20]
 1682 02fa 5846     		mov	r0, fp
 1683 02fc 0490     		str	r0, [sp, #16]
 1684 02fe 4046     		mov	r0, r8
 1685 0300 0390     		str	r0, [sp, #12]
 1686 0302 0292     		str	r2, [sp, #8]
 1687 0304 0193     		str	r3, [sp, #4]
 1688 0306 0091     		str	r1, [sp]
 1689 0308 0B9B     		ldr	r3, [sp, #44]
 1690 030a 3A00     		movs	r2, r7
 1691              	.LVL206:
 1692 030c 0C99     		ldr	r1, [sp, #48]
 1693 030e 2800     		movs	r0, r5
 1694 0310 FFF7FEFF 		bl	_ntoa_long
 1695              	.LVL207:
 1696 0314 0700     		movs	r7, r0
 1697              	.LVL208:
 1698 0316 7EE0     		b	.L103
 1699              	.LVL209:
 1700              	.L101:
 1701              	.LBE37:
 752:..\..\..\arduinoLCD\test\Pain Drain\libraries\lvgl\src\misc/lv_printf.c ****                         lv_vaformat_t * vaf = va_arg(va, lv_vaformat_t *);
ARM GAS  C:\Users\haske\AppData\Local\Temp\ccZHF2NV.s 			page 48


 1702              		.loc 1 752 0
 1703 0318 562B     		cmp	r3, #86
 1704 031a 1BD1     		bne	.L108
 1705              	.LBB38:
 753:..\..\..\arduinoLCD\test\Pain Drain\libraries\lvgl\src\misc/lv_printf.c ****                         va_list copy;
 1706              		.loc 1 753 0
 1707 031c 209B     		ldr	r3, [sp, #128]
 1708 031e 1B68     		ldr	r3, [r3]
 1709 0320 209A     		ldr	r2, [sp, #128]
 1710              	.LVL210:
 1711 0322 0432     		adds	r2, r2, #4
 1712 0324 2092     		str	r2, [sp, #128]
 1713              	.LVL211:
 756:..\..\..\arduinoLCD\test\Pain Drain\libraries\lvgl\src\misc/lv_printf.c ****                         idx += _vsnprintf(out, buffer + idx, maxlen - idx, vaf->fmt, copy);
 1714              		.loc 1 756 0
 1715 0326 5A68     		ldr	r2, [r3, #4]
 1716 0328 1068     		ldr	r0, [r2]
 1717 032a 1590     		str	r0, [sp, #84]
 757:..\..\..\arduinoLCD\test\Pain Drain\libraries\lvgl\src\misc/lv_printf.c ****                         va_end(copy);
 1718              		.loc 1 757 0
 1719 032c 1B68     		ldr	r3, [r3]
 1720              	.LVL212:
 1721 032e 0B9A     		ldr	r2, [sp, #44]
 1722 0330 D21B     		subs	r2, r2, r7
 1723 0332 0C99     		ldr	r1, [sp, #48]
 1724 0334 C919     		adds	r1, r1, r7
 1725 0336 0090     		str	r0, [sp]
 1726 0338 2800     		movs	r0, r5
 1727 033a FFF761FE 		bl	_vsnprintf
 1728              	.LVL213:
 1729 033e 3F18     		adds	r7, r7, r0
 1730              	.LVL214:
 1731              	.LBE38:
 1732 0340 69E0     		b	.L103
 1733              	.L157:
 1734 0342 C046     		.align	2
 1735              	.L156:
 1736 0344 00000000 		.word	_out_null
 1737 0348 00000000 		.word	.L67
 1738 034c 44000000 		.word	.L82
 1739 0350 90000000 		.word	.L89
 1740              	.LVL215:
 1741              	.L108:
 762:..\..\..\arduinoLCD\test\Pain Drain\libraries\lvgl\src\misc/lv_printf.c **** #if defined(PRINTF_SUPPORT_LONG_LONG)
 1742              		.loc 1 762 0
 1743 0354 B305     		lsls	r3, r6, #22
 1744 0356 1DD5     		bpl	.L109
 764:..\..\..\arduinoLCD\test\Pain Drain\libraries\lvgl\src\misc/lv_printf.c **** #endif
 1745              		.loc 1 764 0
 1746 0358 209B     		ldr	r3, [sp, #128]
 1747 035a 0733     		adds	r3, r3, #7
 1748 035c 0721     		movs	r1, #7
 1749 035e 8B43     		bics	r3, r1
 1750 0360 0131     		adds	r1, r1, #1
 1751 0362 8C46     		mov	ip, r1
 1752 0364 9C44     		add	ip, ip, r3
 1753 0366 6146     		mov	r1, ip
ARM GAS  C:\Users\haske\AppData\Local\Temp\ccZHF2NV.s 			page 49


 1754 0368 2091     		str	r1, [sp, #128]
 1755 036a 5C68     		ldr	r4, [r3, #4]
 1756 036c 1B68     		ldr	r3, [r3]
 1757 036e 0093     		str	r3, [sp]
 1758 0370 0194     		str	r4, [sp, #4]
 1759 0372 0023     		movs	r3, #0
 1760 0374 0896     		str	r6, [sp, #32]
 1761 0376 5946     		mov	r1, fp
 1762 0378 0791     		str	r1, [sp, #28]
 1763 037a 4146     		mov	r1, r8
 1764 037c 0691     		str	r1, [sp, #24]
 1765 037e 0492     		str	r2, [sp, #16]
 1766 0380 0593     		str	r3, [sp, #20]
 1767 0382 0293     		str	r3, [sp, #8]
 1768 0384 0B9B     		ldr	r3, [sp, #44]
 1769 0386 3A00     		movs	r2, r7
 1770              	.LVL216:
 1771 0388 0C99     		ldr	r1, [sp, #48]
 1772 038a 2800     		movs	r0, r5
 1773 038c FFF7FEFF 		bl	_ntoa_long_long
 1774              	.LVL217:
 1775 0390 0700     		movs	r7, r0
 1776              	.LVL218:
 1777 0392 40E0     		b	.L103
 1778              	.LVL219:
 1779              	.L109:
 767:..\..\..\arduinoLCD\test\Pain Drain\libraries\lvgl\src\misc/lv_printf.c ****                             idx = _ntoa_long(out, buffer, idx, maxlen, va_arg(va, unsigned long), f
 1780              		.loc 1 767 0
 1781 0394 F305     		lsls	r3, r6, #23
 1782 0396 15D5     		bpl	.L110
 768:..\..\..\arduinoLCD\test\Pain Drain\libraries\lvgl\src\misc/lv_printf.c ****                         }
 1783              		.loc 1 768 0
 1784 0398 209B     		ldr	r3, [sp, #128]
 1785 039a 1B68     		ldr	r3, [r3]
 1786 039c 0093     		str	r3, [sp]
 1787 039e 209B     		ldr	r3, [sp, #128]
 1788 03a0 0433     		adds	r3, r3, #4
 1789 03a2 2093     		str	r3, [sp, #128]
 1790 03a4 0596     		str	r6, [sp, #20]
 1791 03a6 5B46     		mov	r3, fp
 1792 03a8 0493     		str	r3, [sp, #16]
 1793 03aa 4346     		mov	r3, r8
 1794 03ac 0393     		str	r3, [sp, #12]
 1795 03ae 0292     		str	r2, [sp, #8]
 1796 03b0 0023     		movs	r3, #0
 1797 03b2 0193     		str	r3, [sp, #4]
 1798 03b4 0B9B     		ldr	r3, [sp, #44]
 1799 03b6 3A00     		movs	r2, r7
 1800              	.LVL220:
 1801 03b8 0C99     		ldr	r1, [sp, #48]
 1802 03ba 2800     		movs	r0, r5
 1803 03bc FFF7FEFF 		bl	_ntoa_long
 1804              	.LVL221:
 1805 03c0 0700     		movs	r7, r0
 1806              	.LVL222:
 1807 03c2 28E0     		b	.L103
 1808              	.LVL223:
ARM GAS  C:\Users\haske\AppData\Local\Temp\ccZHF2NV.s 			page 50


 1809              	.L110:
 1810              	.LBB39:
 772:..\..\..\arduinoLCD\test\Pain Drain\libraries\lvgl\src\misc/lv_printf.c ****                             idx = _ntoa_long(out, buffer, idx, maxlen, value, false, base, precisio
 1811              		.loc 1 772 0
 1812 03c4 7306     		lsls	r3, r6, #25
 1813 03c6 07D5     		bpl	.L111
 771:..\..\..\arduinoLCD\test\Pain Drain\libraries\lvgl\src\misc/lv_printf.c ****                                                                                                    
 1814              		.loc 1 771 0 discriminator 1
 1815 03c8 209B     		ldr	r3, [sp, #128]
 1816 03ca 1B68     		ldr	r3, [r3]
 1817 03cc 2099     		ldr	r1, [sp, #128]
 1818 03ce 0431     		adds	r1, r1, #4
 1819 03d0 2091     		str	r1, [sp, #128]
 772:..\..\..\arduinoLCD\test\Pain Drain\libraries\lvgl\src\misc/lv_printf.c ****                             idx = _ntoa_long(out, buffer, idx, maxlen, value, false, base, precisio
 1820              		.loc 1 772 0 discriminator 1
 1821 03d2 FF21     		movs	r1, #255
 1822 03d4 0B40     		ands	r3, r1
 1823 03d6 0EE0     		b	.L112
 1824              	.L111:
 772:..\..\..\arduinoLCD\test\Pain Drain\libraries\lvgl\src\misc/lv_printf.c ****                             idx = _ntoa_long(out, buffer, idx, maxlen, value, false, base, precisio
 1825              		.loc 1 772 0 is_stmt 0 discriminator 2
 1826 03d8 3306     		lsls	r3, r6, #24
 1827 03da 07D5     		bpl	.L113
 772:..\..\..\arduinoLCD\test\Pain Drain\libraries\lvgl\src\misc/lv_printf.c ****                             idx = _ntoa_long(out, buffer, idx, maxlen, value, false, base, precisio
 1828              		.loc 1 772 0 discriminator 3
 1829 03dc 209B     		ldr	r3, [sp, #128]
 1830 03de 1B68     		ldr	r3, [r3]
 1831 03e0 2099     		ldr	r1, [sp, #128]
 1832 03e2 0431     		adds	r1, r1, #4
 1833 03e4 2091     		str	r1, [sp, #128]
 1834 03e6 1B04     		lsls	r3, r3, #16
 1835 03e8 1B0C     		lsrs	r3, r3, #16
 1836 03ea 04E0     		b	.L112
 1837              	.L113:
 772:..\..\..\arduinoLCD\test\Pain Drain\libraries\lvgl\src\misc/lv_printf.c ****                             idx = _ntoa_long(out, buffer, idx, maxlen, value, false, base, precisio
 1838              		.loc 1 772 0 discriminator 4
 1839 03ec 209B     		ldr	r3, [sp, #128]
 1840 03ee 1B68     		ldr	r3, [r3]
 1841 03f0 2099     		ldr	r1, [sp, #128]
 1842 03f2 0431     		adds	r1, r1, #4
 1843 03f4 2091     		str	r1, [sp, #128]
 1844              	.L112:
 1845              	.LVL224:
 773:..\..\..\arduinoLCD\test\Pain Drain\libraries\lvgl\src\misc/lv_printf.c ****                         }
 1846              		.loc 1 773 0 is_stmt 1
 1847 03f6 0596     		str	r6, [sp, #20]
 1848 03f8 5946     		mov	r1, fp
 1849 03fa 0491     		str	r1, [sp, #16]
 1850 03fc 4146     		mov	r1, r8
 1851 03fe 0391     		str	r1, [sp, #12]
 1852 0400 0292     		str	r2, [sp, #8]
 1853 0402 0022     		movs	r2, #0
 1854              	.LVL225:
 1855 0404 0192     		str	r2, [sp, #4]
 1856 0406 0093     		str	r3, [sp]
 1857 0408 0B9B     		ldr	r3, [sp, #44]
 1858              	.LVL226:
ARM GAS  C:\Users\haske\AppData\Local\Temp\ccZHF2NV.s 			page 51


 1859 040a 3A00     		movs	r2, r7
 1860 040c 0C99     		ldr	r1, [sp, #48]
 1861 040e 2800     		movs	r0, r5
 1862 0410 FFF7FEFF 		bl	_ntoa_long
 1863              	.LVL227:
 1864 0414 0700     		movs	r7, r0
 1865              	.LVL228:
 1866              	.L103:
 1867              	.LBE39:
 776:..\..\..\arduinoLCD\test\Pain Drain\libraries\lvgl\src\misc/lv_printf.c ****                     break;
 1868              		.loc 1 776 0
 1869 0416 139B     		ldr	r3, [sp, #76]
 1870 0418 0133     		adds	r3, r3, #1
 1871 041a 1393     		str	r3, [sp, #76]
 777:..\..\..\arduinoLCD\test\Pain Drain\libraries\lvgl\src\misc/lv_printf.c ****                 }
 1872              		.loc 1 777 0
 1873 041c B5E0     		b	.L62
 1874              	.L91:
 1875              	.LVL229:
 1876              	.LBE34:
 1877              	.LBB40:
 801:..\..\..\arduinoLCD\test\Pain Drain\libraries\lvgl\src\misc/lv_printf.c ****                         while(l++ < width) {
 1878              		.loc 1 801 0
 1879 041e 0223     		movs	r3, #2
 1880 0420 3340     		ands	r3, r6
 1881 0422 9A46     		mov	r10, r3
 1882 0424 09D0     		beq	.L149
 799:..\..\..\arduinoLCD\test\Pain Drain\libraries\lvgl\src\misc/lv_printf.c ****                     // pre padding
 1883              		.loc 1 799 0
 1884 0426 0126     		movs	r6, #1
 1885              	.LVL230:
 1886 0428 0FE0     		b	.L115
 1887              	.LVL231:
 1888              	.L116:
 803:..\..\..\arduinoLCD\test\Pain Drain\libraries\lvgl\src\misc/lv_printf.c ****                         }
 1889              		.loc 1 803 0
 1890 042a 541C     		adds	r4, r2, #1
 1891              	.LVL232:
 1892 042c 0B9B     		ldr	r3, [sp, #44]
 1893 042e 0C99     		ldr	r1, [sp, #48]
 1894 0430 2020     		movs	r0, #32
 1895 0432 A847     		blx	r5
 1896              	.LVL233:
 802:..\..\..\arduinoLCD\test\Pain Drain\libraries\lvgl\src\misc/lv_printf.c ****                             out(' ', buffer, idx++, maxlen);
 1897              		.loc 1 802 0
 1898 0434 3300     		movs	r3, r6
 803:..\..\..\arduinoLCD\test\Pain Drain\libraries\lvgl\src\misc/lv_printf.c ****                         }
 1899              		.loc 1 803 0
 1900 0436 2200     		movs	r2, r4
 1901 0438 02E0     		b	.L114
 1902              	.LVL234:
 1903              	.L149:
 1904 043a 0123     		movs	r3, #1
 1905 043c 3A00     		movs	r2, r7
 1906 043e 5F46     		mov	r7, fp
 1907              	.LVL235:
 1908              	.L114:
ARM GAS  C:\Users\haske\AppData\Local\Temp\ccZHF2NV.s 			page 52


 802:..\..\..\arduinoLCD\test\Pain Drain\libraries\lvgl\src\misc/lv_printf.c ****                             out(' ', buffer, idx++, maxlen);
 1909              		.loc 1 802 0
 1910 0440 5E1C     		adds	r6, r3, #1
 1911              	.LVL236:
 1912 0442 9F42     		cmp	r7, r3
 1913 0444 F1D8     		bhi	.L116
 1914 0446 BB46     		mov	fp, r7
 1915 0448 1700     		movs	r7, r2
 1916              	.LVL237:
 1917              	.L115:
 807:..\..\..\arduinoLCD\test\Pain Drain\libraries\lvgl\src\misc/lv_printf.c ****                     // post padding
 1918              		.loc 1 807 0
 1919 044a 209B     		ldr	r3, [sp, #128]
 1920 044c 7C1C     		adds	r4, r7, #1
 1921              	.LVL238:
 1922 044e 1878     		ldrb	r0, [r3]
 1923 0450 0433     		adds	r3, r3, #4
 1924 0452 2093     		str	r3, [sp, #128]
 1925 0454 0B9B     		ldr	r3, [sp, #44]
 1926 0456 3A00     		movs	r2, r7
 1927 0458 0C99     		ldr	r1, [sp, #48]
 1928 045a A847     		blx	r5
 1929              	.LVL239:
 809:..\..\..\arduinoLCD\test\Pain Drain\libraries\lvgl\src\misc/lv_printf.c ****                         while(l++ < width) {
 1930              		.loc 1 809 0
 1931 045c 5346     		mov	r3, r10
 1932 045e 002B     		cmp	r3, #0
 1933 0460 08D1     		bne	.L153
 1934 0462 0FE0     		b	.L118
 1935              	.LVL240:
 1936              	.L119:
 811:..\..\..\arduinoLCD\test\Pain Drain\libraries\lvgl\src\misc/lv_printf.c ****                         }
 1937              		.loc 1 811 0
 1938 0464 571C     		adds	r7, r2, #1
 1939              	.LVL241:
 1940 0466 0B9B     		ldr	r3, [sp, #44]
 1941 0468 0C99     		ldr	r1, [sp, #48]
 1942 046a 2020     		movs	r0, #32
 1943 046c C047     		blx	r8
 1944              	.LVL242:
 810:..\..\..\arduinoLCD\test\Pain Drain\libraries\lvgl\src\misc/lv_printf.c ****                             out(' ', buffer, idx++, maxlen);
 1945              		.loc 1 810 0
 1946 046e 2600     		movs	r6, r4
 811:..\..\..\arduinoLCD\test\Pain Drain\libraries\lvgl\src\misc/lv_printf.c ****                         }
 1947              		.loc 1 811 0
 1948 0470 3A00     		movs	r2, r7
 1949 0472 02E0     		b	.L117
 1950              	.LVL243:
 1951              	.L153:
 1952 0474 2200     		movs	r2, r4
 1953 0476 A846     		mov	r8, r5
 1954              	.LVL244:
 1955 0478 5D46     		mov	r5, fp
 1956              	.LVL245:
 1957              	.L117:
 810:..\..\..\arduinoLCD\test\Pain Drain\libraries\lvgl\src\misc/lv_printf.c ****                             out(' ', buffer, idx++, maxlen);
 1958              		.loc 1 810 0
ARM GAS  C:\Users\haske\AppData\Local\Temp\ccZHF2NV.s 			page 53


 1959 047a 741C     		adds	r4, r6, #1
 1960              	.LVL246:
 1961 047c B542     		cmp	r5, r6
 1962 047e F1D8     		bhi	.L119
 1963 0480 1400     		movs	r4, r2
 1964              	.LVL247:
 1965 0482 4546     		mov	r5, r8
 1966              	.LVL248:
 1967              	.L118:
 814:..\..\..\arduinoLCD\test\Pain Drain\libraries\lvgl\src\misc/lv_printf.c ****                     break;
 1968              		.loc 1 814 0
 1969 0484 139B     		ldr	r3, [sp, #76]
 1970 0486 0133     		adds	r3, r3, #1
 1971 0488 1393     		str	r3, [sp, #76]
 815:..\..\..\arduinoLCD\test\Pain Drain\libraries\lvgl\src\misc/lv_printf.c ****                 }
 1972              		.loc 1 815 0
 1973 048a 2700     		movs	r7, r4
 1974 048c 7DE0     		b	.L62
 1975              	.LVL249:
 1976              	.L92:
 1977              	.LBE40:
 1978              	.LBB41:
 819:..\..\..\arduinoLCD\test\Pain Drain\libraries\lvgl\src\misc/lv_printf.c ****                     unsigned int l = _strnlen_s(p, precision ? precision : (size_t) -1);
 1979              		.loc 1 819 0
 1980 048e 209B     		ldr	r3, [sp, #128]
 1981 0490 1B68     		ldr	r3, [r3]
 1982 0492 0D93     		str	r3, [sp, #52]
 1983 0494 209B     		ldr	r3, [sp, #128]
 1984 0496 0433     		adds	r3, r3, #4
 1985 0498 2093     		str	r3, [sp, #128]
 1986              	.LVL250:
 820:..\..\..\arduinoLCD\test\Pain Drain\libraries\lvgl\src\misc/lv_printf.c ****                     // pre padding
 1987              		.loc 1 820 0
 1988 049a 4346     		mov	r3, r8
 1989              	.LVL251:
 1990 049c 002B     		cmp	r3, #0
 1991 049e 01D1     		bne	.L150
 1992              	.LVL252:
 1993 04a0 013B     		subs	r3, r3, #1
 1994              	.LVL253:
 1995 04a2 00E0     		b	.L120
 1996              	.LVL254:
 1997              	.L150:
 1998 04a4 4346     		mov	r3, r8
 1999              	.LVL255:
 2000              	.L120:
 2001 04a6 0D9C     		ldr	r4, [sp, #52]
 2002 04a8 01E0     		b	.L121
 2003              	.LVL256:
 2004              	.L123:
 2005              	.LBB42:
 2006              	.LBB43:
 146:..\..\..\arduinoLCD\test\Pain Drain\libraries\lvgl\src\misc/lv_printf.c ****     return (unsigned int)(s - str);
 2007              		.loc 1 146 0
 2008 04aa 0134     		adds	r4, r4, #1
 2009              	.LVL257:
 2010 04ac 1300     		movs	r3, r2
ARM GAS  C:\Users\haske\AppData\Local\Temp\ccZHF2NV.s 			page 54


 2011              	.LVL258:
 2012              	.L121:
 2013 04ae 2278     		ldrb	r2, [r4]
 2014 04b0 002A     		cmp	r2, #0
 2015 04b2 02D0     		beq	.L122
 2016 04b4 5A1E     		subs	r2, r3, #1
 2017              	.LVL259:
 2018 04b6 002B     		cmp	r3, #0
 2019 04b8 F7D1     		bne	.L123
 2020              	.LVL260:
 2021              	.L122:
 147:..\..\..\arduinoLCD\test\Pain Drain\libraries\lvgl\src\misc/lv_printf.c **** }
 2022              		.loc 1 147 0
 2023 04ba 0D9B     		ldr	r3, [sp, #52]
 2024 04bc E41A     		subs	r4, r4, r3
 2025              	.LVL261:
 2026              	.LBE43:
 2027              	.LBE42:
 822:..\..\..\arduinoLCD\test\Pain Drain\libraries\lvgl\src\misc/lv_printf.c ****                         l = (l < precision ? l : precision);
 2028              		.loc 1 822 0
 2029 04be 8023     		movs	r3, #128
 2030 04c0 DB00     		lsls	r3, r3, #3
 2031 04c2 3340     		ands	r3, r6
 2032 04c4 9946     		mov	r9, r3
 2033 04c6 02D0     		beq	.L124
 823:..\..\..\arduinoLCD\test\Pain Drain\libraries\lvgl\src\misc/lv_printf.c ****                     }
 2034              		.loc 1 823 0
 2035 04c8 4445     		cmp	r4, r8
 2036 04ca 00D9     		bls	.L124
 2037 04cc 4446     		mov	r4, r8
 2038              	.LVL262:
 2039              	.L124:
 825:..\..\..\arduinoLCD\test\Pain Drain\libraries\lvgl\src\misc/lv_printf.c ****                         while(l++ < width) {
 2040              		.loc 1 825 0
 2041 04ce 0223     		movs	r3, #2
 2042 04d0 3340     		ands	r3, r6
 2043 04d2 1293     		str	r3, [sp, #72]
 2044 04d4 0ED0     		beq	.L154
 2045 04d6 3A00     		movs	r2, r7
 2046 04d8 4746     		mov	r7, r8
 2047              	.LVL263:
 2048 04da 0D9E     		ldr	r6, [sp, #52]
 2049              	.LVL264:
 2050 04dc A846     		mov	r8, r5
 2051              	.LVL265:
 2052 04de 4D46     		mov	r5, r9
 2053              	.LVL266:
 2054 04e0 A146     		mov	r9, r4
 2055 04e2 1DE0     		b	.L129
 2056              	.LVL267:
 2057              	.L128:
 827:..\..\..\arduinoLCD\test\Pain Drain\libraries\lvgl\src\misc/lv_printf.c ****                         }
 2058              		.loc 1 827 0
 2059 04e4 571C     		adds	r7, r2, #1
 2060              	.LVL268:
 2061 04e6 0B9B     		ldr	r3, [sp, #44]
 2062 04e8 0C99     		ldr	r1, [sp, #48]
ARM GAS  C:\Users\haske\AppData\Local\Temp\ccZHF2NV.s 			page 55


 2063 04ea 2020     		movs	r0, #32
 2064 04ec D047     		blx	r10
 2065              	.LVL269:
 826:..\..\..\arduinoLCD\test\Pain Drain\libraries\lvgl\src\misc/lv_printf.c ****                             out(' ', buffer, idx++, maxlen);
 2066              		.loc 1 826 0
 2067 04ee 3400     		movs	r4, r6
 827:..\..\..\arduinoLCD\test\Pain Drain\libraries\lvgl\src\misc/lv_printf.c ****                         }
 2068              		.loc 1 827 0
 2069 04f0 3A00     		movs	r2, r7
 2070 04f2 02E0     		b	.L126
 2071              	.LVL270:
 2072              	.L154:
 2073 04f4 3A00     		movs	r2, r7
 2074 04f6 AA46     		mov	r10, r5
 2075 04f8 5D46     		mov	r5, fp
 2076              	.LVL271:
 2077              	.L126:
 826:..\..\..\arduinoLCD\test\Pain Drain\libraries\lvgl\src\misc/lv_printf.c ****                             out(' ', buffer, idx++, maxlen);
 2078              		.loc 1 826 0
 2079 04fa 661C     		adds	r6, r4, #1
 2080              	.LVL272:
 2081 04fc A542     		cmp	r5, r4
 2082 04fe F1D8     		bhi	.L128
 2083 0500 AB46     		mov	fp, r5
 2084 0502 5546     		mov	r5, r10
 2085              	.LVL273:
 2086 0504 B246     		mov	r10, r6
 2087              	.LVL274:
 2088 0506 4746     		mov	r7, r8
 2089 0508 0D9E     		ldr	r6, [sp, #52]
 2090              	.LVL275:
 2091 050a A846     		mov	r8, r5
 2092              	.LVL276:
 2093 050c 4D46     		mov	r5, r9
 2094              	.LVL277:
 2095 050e D146     		mov	r9, r10
 2096 0510 06E0     		b	.L129
 2097              	.LVL278:
 2098              	.L151:
 831:..\..\..\arduinoLCD\test\Pain Drain\libraries\lvgl\src\misc/lv_printf.c ****                         out(*(p++), buffer, idx++, maxlen);
 2099              		.loc 1 831 0
 2100 0512 1F00     		movs	r7, r3
 2101              	.LVL279:
 2102              	.L131:
 832:..\..\..\arduinoLCD\test\Pain Drain\libraries\lvgl\src\misc/lv_printf.c ****                     }
 2103              		.loc 1 832 0
 2104 0514 0136     		adds	r6, r6, #1
 2105              	.LVL280:
 2106 0516 541C     		adds	r4, r2, #1
 2107              	.LVL281:
 2108 0518 0B9B     		ldr	r3, [sp, #44]
 2109 051a 0C99     		ldr	r1, [sp, #48]
 2110 051c C047     		blx	r8
 2111              	.LVL282:
 2112 051e 2200     		movs	r2, r4
 2113              	.LVL283:
 2114              	.L129:
ARM GAS  C:\Users\haske\AppData\Local\Temp\ccZHF2NV.s 			page 56


 831:..\..\..\arduinoLCD\test\Pain Drain\libraries\lvgl\src\misc/lv_printf.c ****                         out(*(p++), buffer, idx++, maxlen);
 2115              		.loc 1 831 0
 2116 0520 3078     		ldrb	r0, [r6]
 2117 0522 0028     		cmp	r0, #0
 2118 0524 04D0     		beq	.L130
 831:..\..\..\arduinoLCD\test\Pain Drain\libraries\lvgl\src\misc/lv_printf.c ****                         out(*(p++), buffer, idx++, maxlen);
 2119              		.loc 1 831 0 is_stmt 0 discriminator 1
 2120 0526 002D     		cmp	r5, #0
 2121 0528 F4D0     		beq	.L131
 831:..\..\..\arduinoLCD\test\Pain Drain\libraries\lvgl\src\misc/lv_printf.c ****                         out(*(p++), buffer, idx++, maxlen);
 2122              		.loc 1 831 0 discriminator 2
 2123 052a 7B1E     		subs	r3, r7, #1
 2124              	.LVL284:
 2125 052c 002F     		cmp	r7, #0
 2126 052e F0D1     		bne	.L151
 2127              	.LVL285:
 2128              	.L130:
 2129 0530 1700     		movs	r7, r2
 2130 0532 4C46     		mov	r4, r9
 2131 0534 4546     		mov	r5, r8
 835:..\..\..\arduinoLCD\test\Pain Drain\libraries\lvgl\src\misc/lv_printf.c ****                         while(l++ < width) {
 2132              		.loc 1 835 0 is_stmt 1
 2133 0536 129B     		ldr	r3, [sp, #72]
 2134 0538 002B     		cmp	r3, #0
 2135 053a 08D1     		bne	.L155
 2136              	.LVL286:
 2137 053c 0DE0     		b	.L133
 2138              	.LVL287:
 2139              	.L134:
 837:..\..\..\arduinoLCD\test\Pain Drain\libraries\lvgl\src\misc/lv_printf.c ****                         }
 2140              		.loc 1 837 0
 2141 053e 571C     		adds	r7, r2, #1
 2142              	.LVL288:
 2143 0540 0B9B     		ldr	r3, [sp, #44]
 2144 0542 0C99     		ldr	r1, [sp, #48]
 2145 0544 2020     		movs	r0, #32
 2146 0546 C047     		blx	r8
 2147              	.LVL289:
 836:..\..\..\arduinoLCD\test\Pain Drain\libraries\lvgl\src\misc/lv_printf.c ****                             out(' ', buffer, idx++, maxlen);
 2148              		.loc 1 836 0
 2149 0548 3400     		movs	r4, r6
 837:..\..\..\arduinoLCD\test\Pain Drain\libraries\lvgl\src\misc/lv_printf.c ****                         }
 2150              		.loc 1 837 0
 2151 054a 3A00     		movs	r2, r7
 2152 054c 00E0     		b	.L132
 2153              	.LVL290:
 2154              	.L155:
 2155 054e 5D46     		mov	r5, fp
 2156              	.LVL291:
 2157              	.L132:
 836:..\..\..\arduinoLCD\test\Pain Drain\libraries\lvgl\src\misc/lv_printf.c ****                             out(' ', buffer, idx++, maxlen);
 2158              		.loc 1 836 0
 2159 0550 661C     		adds	r6, r4, #1
 2160              	.LVL292:
 2161 0552 A542     		cmp	r5, r4
 2162 0554 F3D8     		bhi	.L134
 2163 0556 1700     		movs	r7, r2
ARM GAS  C:\Users\haske\AppData\Local\Temp\ccZHF2NV.s 			page 57


 2164 0558 4546     		mov	r5, r8
 2165              	.LVL293:
 2166              	.L133:
 840:..\..\..\arduinoLCD\test\Pain Drain\libraries\lvgl\src\misc/lv_printf.c ****                     break;
 2167              		.loc 1 840 0
 2168 055a 139B     		ldr	r3, [sp, #76]
 2169 055c 0133     		adds	r3, r3, #1
 2170 055e 1393     		str	r3, [sp, #76]
 841:..\..\..\arduinoLCD\test\Pain Drain\libraries\lvgl\src\misc/lv_printf.c ****                 }
 2171              		.loc 1 841 0
 2172 0560 13E0     		b	.L62
 2173              	.LVL294:
 2174              	.L88:
 2175              	.LBE41:
 2176              		.loc 1 845 0
 2177 0562 7C1C     		adds	r4, r7, #1
 2178              	.LVL295:
 2179 0564 0B9B     		ldr	r3, [sp, #44]
 2180 0566 3A00     		movs	r2, r7
 2181 0568 0C99     		ldr	r1, [sp, #48]
 2182 056a 2520     		movs	r0, #37
 2183 056c A847     		blx	r5
 2184              	.LVL296:
 846:..\..\..\arduinoLCD\test\Pain Drain\libraries\lvgl\src\misc/lv_printf.c ****                 format++;
 2185              		.loc 1 846 0
 2186 056e 139B     		ldr	r3, [sp, #76]
 2187 0570 0133     		adds	r3, r3, #1
 2188 0572 1393     		str	r3, [sp, #76]
 845:..\..\..\arduinoLCD\test\Pain Drain\libraries\lvgl\src\misc/lv_printf.c ****                 format++;
 2189              		.loc 1 845 0
 2190 0574 2700     		movs	r7, r4
 847:..\..\..\arduinoLCD\test\Pain Drain\libraries\lvgl\src\misc/lv_printf.c ****                 break;
 2191              		.loc 1 847 0
 2192 0576 08E0     		b	.L62
 2193              	.LVL297:
 2194              	.L87:
 848:..\..\..\arduinoLCD\test\Pain Drain\libraries\lvgl\src\misc/lv_printf.c **** 
 849:..\..\..\arduinoLCD\test\Pain Drain\libraries\lvgl\src\misc/lv_printf.c ****             default :
 850:..\..\..\arduinoLCD\test\Pain Drain\libraries\lvgl\src\misc/lv_printf.c ****                 out(*format, buffer, idx++, maxlen);
 2195              		.loc 1 850 0
 2196 0578 7C1C     		adds	r4, r7, #1
 2197              	.LVL298:
 2198 057a 0B9B     		ldr	r3, [sp, #44]
 2199 057c 3A00     		movs	r2, r7
 2200 057e 0C99     		ldr	r1, [sp, #48]
 2201 0580 A847     		blx	r5
 2202              	.LVL299:
 851:..\..\..\arduinoLCD\test\Pain Drain\libraries\lvgl\src\misc/lv_printf.c ****                 format++;
 2203              		.loc 1 851 0
 2204 0582 139B     		ldr	r3, [sp, #76]
 2205 0584 0133     		adds	r3, r3, #1
 2206 0586 1393     		str	r3, [sp, #76]
 850:..\..\..\arduinoLCD\test\Pain Drain\libraries\lvgl\src\misc/lv_printf.c ****                 format++;
 2207              		.loc 1 850 0
 2208 0588 2700     		movs	r7, r4
 2209              	.LVL300:
 2210              	.L62:
ARM GAS  C:\Users\haske\AppData\Local\Temp\ccZHF2NV.s 			page 58


 560:..\..\..\arduinoLCD\test\Pain Drain\libraries\lvgl\src\misc/lv_printf.c ****         // format specifier?  %[flags][width][.precision][length]
 2211              		.loc 1 560 0
 2212 058a 139B     		ldr	r3, [sp, #76]
 2213 058c 1878     		ldrb	r0, [r3]
 2214 058e 0028     		cmp	r0, #0
 2215 0590 00D0     		beq	.LCB2563
 2216 0592 47E5     		b	.L135	@long jump
 2217              	.LCB2563:
 2218 0594 AB46     		mov	fp, r5
 852:..\..\..\arduinoLCD\test\Pain Drain\libraries\lvgl\src\misc/lv_printf.c ****                 break;
 853:..\..\..\arduinoLCD\test\Pain Drain\libraries\lvgl\src\misc/lv_printf.c ****         }
 854:..\..\..\arduinoLCD\test\Pain Drain\libraries\lvgl\src\misc/lv_printf.c ****     }
 855:..\..\..\arduinoLCD\test\Pain Drain\libraries\lvgl\src\misc/lv_printf.c **** 
 856:..\..\..\arduinoLCD\test\Pain Drain\libraries\lvgl\src\misc/lv_printf.c ****     // termination
 857:..\..\..\arduinoLCD\test\Pain Drain\libraries\lvgl\src\misc/lv_printf.c ****     out((char)0, buffer, idx < maxlen ? idx : maxlen - 1U, maxlen);
 2219              		.loc 1 857 0
 2220 0596 0B9A     		ldr	r2, [sp, #44]
 2221 0598 9742     		cmp	r7, r2
 2222 059a 01D3     		bcc	.L152
 2223              		.loc 1 857 0 is_stmt 0 discriminator 1
 2224 059c 013A     		subs	r2, r2, #1
 2225 059e 00E0     		b	.L136
 2226              	.L152:
 2227              		.loc 1 857 0
 2228 05a0 3A00     		movs	r2, r7
 2229              	.L136:
 2230              		.loc 1 857 0 discriminator 4
 2231 05a2 0B9B     		ldr	r3, [sp, #44]
 2232 05a4 0C99     		ldr	r1, [sp, #48]
 2233 05a6 0020     		movs	r0, #0
 2234 05a8 D847     		blx	fp
 2235              	.LVL301:
 858:..\..\..\arduinoLCD\test\Pain Drain\libraries\lvgl\src\misc/lv_printf.c **** 
 859:..\..\..\arduinoLCD\test\Pain Drain\libraries\lvgl\src\misc/lv_printf.c ****     // return written chars without terminating \0
 860:..\..\..\arduinoLCD\test\Pain Drain\libraries\lvgl\src\misc/lv_printf.c ****     return (int)idx;
 861:..\..\..\arduinoLCD\test\Pain Drain\libraries\lvgl\src\misc/lv_printf.c **** }
 2236              		.loc 1 861 0 is_stmt 1 discriminator 4
 2237 05aa 3800     		movs	r0, r7
 2238 05ac 17B0     		add	sp, sp, #92
 2239              		@ sp needed
 2240              	.LVL302:
 2241              	.LVL303:
 2242              	.LVL304:
 2243 05ae 3CBC     		pop	{r2, r3, r4, r5}
 2244 05b0 9046     		mov	r8, r2
 2245 05b2 9946     		mov	r9, r3
 2246 05b4 A246     		mov	r10, r4
 2247 05b6 AB46     		mov	fp, r5
 2248 05b8 F0BD     		pop	{r4, r5, r6, r7, pc}
 2249              		.cfi_endproc
 2250              	.LFE9:
 2251              		.size	_vsnprintf, .-_vsnprintf
 2252 05ba C046     		.section	.text.lv_snprintf,"ax",%progbits
 2253              		.align	2
 2254              		.global	lv_snprintf
 2255              		.code	16
 2256              		.thumb_func
ARM GAS  C:\Users\haske\AppData\Local\Temp\ccZHF2NV.s 			page 59


 2257              		.type	lv_snprintf, %function
 2258              	lv_snprintf:
 2259              	.LFB10:
 862:..\..\..\arduinoLCD\test\Pain Drain\libraries\lvgl\src\misc/lv_printf.c **** 
 863:..\..\..\arduinoLCD\test\Pain Drain\libraries\lvgl\src\misc/lv_printf.c **** ///////////////////////////////////////////////////////////////////////////////
 864:..\..\..\arduinoLCD\test\Pain Drain\libraries\lvgl\src\misc/lv_printf.c **** 
 865:..\..\..\arduinoLCD\test\Pain Drain\libraries\lvgl\src\misc/lv_printf.c **** int lv_snprintf(char * buffer, size_t count, const char * format, ...)
 866:..\..\..\arduinoLCD\test\Pain Drain\libraries\lvgl\src\misc/lv_printf.c **** {
 2260              		.loc 1 866 0
 2261              		.cfi_startproc
 2262              		@ args = 4, pretend = 8, frame = 8
 2263              		@ frame_needed = 0, uses_anonymous_args = 1
 2264              	.LVL305:
 2265 0000 0CB4     		push	{r2, r3}
 2266              		.cfi_def_cfa_offset 8
 2267 0002 10B5     		push	{r4, lr}
 2268              		.cfi_def_cfa_offset 16
 2269              		.cfi_offset 4, -16
 2270              		.cfi_offset 14, -12
 2271 0004 84B0     		sub	sp, sp, #16
 2272              		.cfi_def_cfa_offset 32
 2273 0006 0A00     		movs	r2, r1
 2274 0008 06AC     		add	r4, sp, #24
 2275 000a 08CC     		ldmia	r4!, {r3}
 867:..\..\..\arduinoLCD\test\Pain Drain\libraries\lvgl\src\misc/lv_printf.c ****     va_list va;
 868:..\..\..\arduinoLCD\test\Pain Drain\libraries\lvgl\src\misc/lv_printf.c ****     va_start(va, format);
 2276              		.loc 1 868 0
 2277 000c 0394     		str	r4, [sp, #12]
 869:..\..\..\arduinoLCD\test\Pain Drain\libraries\lvgl\src\misc/lv_printf.c ****     const int ret = _vsnprintf(_out_buffer, buffer, count, format, va);
 2278              		.loc 1 869 0
 2279 000e 0094     		str	r4, [sp]
 2280 0010 0100     		movs	r1, r0
 2281              	.LVL306:
 2282 0012 0448     		ldr	r0, .L159
 2283              	.LVL307:
 2284 0014 FFF7FEFF 		bl	_vsnprintf
 2285              	.LVL308:
 870:..\..\..\arduinoLCD\test\Pain Drain\libraries\lvgl\src\misc/lv_printf.c ****     va_end(va);
 871:..\..\..\arduinoLCD\test\Pain Drain\libraries\lvgl\src\misc/lv_printf.c ****     return ret;
 872:..\..\..\arduinoLCD\test\Pain Drain\libraries\lvgl\src\misc/lv_printf.c **** }
 2286              		.loc 1 872 0
 2287 0018 04B0     		add	sp, sp, #16
 2288              		@ sp needed
 2289 001a 10BC     		pop	{r4}
 2290 001c 08BC     		pop	{r3}
 2291 001e 02B0     		add	sp, sp, #8
 2292 0020 1847     		bx	r3
 2293              	.L160:
 2294 0022 C046     		.align	2
 2295              	.L159:
 2296 0024 00000000 		.word	_out_buffer
 2297              		.cfi_endproc
 2298              	.LFE10:
 2299              		.size	lv_snprintf, .-lv_snprintf
 2300              		.section	.text.lv_vsnprintf,"ax",%progbits
 2301              		.align	2
 2302              		.global	lv_vsnprintf
ARM GAS  C:\Users\haske\AppData\Local\Temp\ccZHF2NV.s 			page 60


 2303              		.code	16
 2304              		.thumb_func
 2305              		.type	lv_vsnprintf, %function
 2306              	lv_vsnprintf:
 2307              	.LFB11:
 873:..\..\..\arduinoLCD\test\Pain Drain\libraries\lvgl\src\misc/lv_printf.c **** 
 874:..\..\..\arduinoLCD\test\Pain Drain\libraries\lvgl\src\misc/lv_printf.c **** int lv_vsnprintf(char * buffer, size_t count, const char * format, va_list va)
 875:..\..\..\arduinoLCD\test\Pain Drain\libraries\lvgl\src\misc/lv_printf.c **** {
 2308              		.loc 1 875 0
 2309              		.cfi_startproc
 2310              		@ args = 0, pretend = 0, frame = 0
 2311              		@ frame_needed = 0, uses_anonymous_args = 0
 2312              	.LVL309:
 2313 0000 00B5     		push	{lr}
 2314              		.cfi_def_cfa_offset 4
 2315              		.cfi_offset 14, -4
 2316 0002 83B0     		sub	sp, sp, #12
 2317              		.cfi_def_cfa_offset 16
 876:..\..\..\arduinoLCD\test\Pain Drain\libraries\lvgl\src\misc/lv_printf.c ****     return _vsnprintf(_out_buffer, buffer, count, format, va);
 2318              		.loc 1 876 0
 2319 0004 0093     		str	r3, [sp]
 2320 0006 1300     		movs	r3, r2
 2321              	.LVL310:
 2322 0008 0A00     		movs	r2, r1
 2323              	.LVL311:
 2324 000a 0100     		movs	r1, r0
 2325              	.LVL312:
 2326 000c 0248     		ldr	r0, .L162
 2327              	.LVL313:
 2328 000e FFF7FEFF 		bl	_vsnprintf
 2329              	.LVL314:
 877:..\..\..\arduinoLCD\test\Pain Drain\libraries\lvgl\src\misc/lv_printf.c **** }
 2330              		.loc 1 877 0
 2331 0012 03B0     		add	sp, sp, #12
 2332              		@ sp needed
 2333 0014 00BD     		pop	{pc}
 2334              	.L163:
 2335 0016 C046     		.align	2
 2336              	.L162:
 2337 0018 00000000 		.word	_out_buffer
 2338              		.cfi_endproc
 2339              	.LFE11:
 2340              		.size	lv_vsnprintf, .-lv_vsnprintf
 2341              		.text
 2342              	.Letext0:
 2343              		.file 2 "c:\\program files (x86)\\cypress\\psoc creator\\4.4\\psoc creator\\import\\gnu\\arm\\5.4.
 2344              		.file 3 "c:\\program files (x86)\\cypress\\psoc creator\\4.4\\psoc creator\\import\\gnu\\arm\\5.4.
 2345              		.file 4 "..\\..\\..\\arduinoLCD\\test\\Pain Drain\\libraries\\lvgl\\src\\misc\\lv_printf.h"
 2346              		.file 5 "<built-in>"
 2347              		.section	.debug_info,"",%progbits
 2348              	.Ldebug_info0:
 2349 0000 BC0D0000 		.4byte	0xdbc
 2350 0004 0400     		.2byte	0x4
 2351 0006 00000000 		.4byte	.Ldebug_abbrev0
 2352 000a 04       		.byte	0x4
 2353 000b 01       		.uleb128 0x1
 2354 000c 2C000000 		.4byte	.LASF44
ARM GAS  C:\Users\haske\AppData\Local\Temp\ccZHF2NV.s 			page 61


 2355 0010 0C       		.byte	0xc
 2356 0011 09020000 		.4byte	.LASF45
 2357 0015 5A010000 		.4byte	.LASF46
 2358 0019 48000000 		.4byte	.Ldebug_ranges0+0x48
 2359 001d 00000000 		.4byte	0
 2360 0021 00000000 		.4byte	.Ldebug_line0
 2361 0025 02       		.uleb128 0x2
 2362 0026 08       		.byte	0x8
 2363 0027 07       		.byte	0x7
 2364 0028 B0010000 		.4byte	.LASF0
 2365 002c 02       		.uleb128 0x2
 2366 002d 01       		.byte	0x1
 2367 002e 06       		.byte	0x6
 2368 002f 9E010000 		.4byte	.LASF1
 2369 0033 02       		.uleb128 0x2
 2370 0034 01       		.byte	0x1
 2371 0035 08       		.byte	0x8
 2372 0036 4C010000 		.4byte	.LASF2
 2373 003a 02       		.uleb128 0x2
 2374 003b 02       		.byte	0x2
 2375 003c 05       		.byte	0x5
 2376 003d 0C000000 		.4byte	.LASF3
 2377 0041 02       		.uleb128 0x2
 2378 0042 02       		.byte	0x2
 2379 0043 07       		.byte	0x7
 2380 0044 DB010000 		.4byte	.LASF4
 2381 0048 02       		.uleb128 0x2
 2382 0049 04       		.byte	0x4
 2383 004a 05       		.byte	0x5
 2384 004b 0C010000 		.4byte	.LASF5
 2385 004f 02       		.uleb128 0x2
 2386 0050 04       		.byte	0x4
 2387 0051 07       		.byte	0x7
 2388 0052 80020000 		.4byte	.LASF6
 2389 0056 02       		.uleb128 0x2
 2390 0057 08       		.byte	0x8
 2391 0058 05       		.byte	0x5
 2392 0059 F4000000 		.4byte	.LASF7
 2393 005d 03       		.uleb128 0x3
 2394 005e 04       		.byte	0x4
 2395 005f 05       		.byte	0x5
 2396 0060 696E7400 		.ascii	"int\000"
 2397 0064 02       		.uleb128 0x2
 2398 0065 04       		.byte	0x4
 2399 0066 07       		.byte	0x7
 2400 0067 C7010000 		.4byte	.LASF8
 2401 006b 04       		.uleb128 0x4
 2402 006c BD020000 		.4byte	.LASF9
 2403 0070 02       		.byte	0x2
 2404 0071 28       		.byte	0x28
 2405 0072 76000000 		.4byte	0x76
 2406 0076 05       		.uleb128 0x5
 2407 0077 02010000 		.4byte	.LASF47
 2408 007b 04       		.byte	0x4
 2409 007c 05       		.byte	0x5
 2410 007d 00       		.byte	0
 2411 007e 8D000000 		.4byte	0x8d
ARM GAS  C:\Users\haske\AppData\Local\Temp\ccZHF2NV.s 			page 62


 2412 0082 06       		.uleb128 0x6
 2413 0083 F9010000 		.4byte	.LASF48
 2414 0087 8D000000 		.4byte	0x8d
 2415 008b 00       		.byte	0
 2416 008c 00       		.byte	0
 2417 008d 07       		.uleb128 0x7
 2418 008e 04       		.byte	0x4
 2419 008f 04       		.uleb128 0x4
 2420 0090 BE000000 		.4byte	.LASF10
 2421 0094 02       		.byte	0x2
 2422 0095 62       		.byte	0x62
 2423 0096 6B000000 		.4byte	0x6b
 2424 009a 04       		.uleb128 0x4
 2425 009b 16000000 		.4byte	.LASF11
 2426 009f 03       		.byte	0x3
 2427 00a0 D8       		.byte	0xd8
 2428 00a1 64000000 		.4byte	0x64
 2429 00a5 02       		.uleb128 0x2
 2430 00a6 08       		.byte	0x8
 2431 00a7 04       		.byte	0x4
 2432 00a8 E8000000 		.4byte	.LASF12
 2433 00ac 08       		.uleb128 0x8
 2434 00ad 08       		.byte	0x8
 2435 00ae 04       		.byte	0x4
 2436 00af 42       		.byte	0x42
 2437 00b0 CC000000 		.4byte	0xcc
 2438 00b4 09       		.uleb128 0x9
 2439 00b5 666D7400 		.ascii	"fmt\000"
 2440 00b9 04       		.byte	0x4
 2441 00ba 43       		.byte	0x43
 2442 00bb CC000000 		.4byte	0xcc
 2443 00bf 00       		.byte	0
 2444 00c0 09       		.uleb128 0x9
 2445 00c1 766100   		.ascii	"va\000"
 2446 00c4 04       		.byte	0x4
 2447 00c5 44       		.byte	0x44
 2448 00c6 DE000000 		.4byte	0xde
 2449 00ca 04       		.byte	0x4
 2450 00cb 00       		.byte	0
 2451 00cc 0A       		.uleb128 0xa
 2452 00cd 04       		.byte	0x4
 2453 00ce D9000000 		.4byte	0xd9
 2454 00d2 02       		.uleb128 0x2
 2455 00d3 01       		.byte	0x1
 2456 00d4 08       		.byte	0x8
 2457 00d5 FE010000 		.4byte	.LASF13
 2458 00d9 0B       		.uleb128 0xb
 2459 00da D2000000 		.4byte	0xd2
 2460 00de 0A       		.uleb128 0xa
 2461 00df 04       		.byte	0x4
 2462 00e0 8F000000 		.4byte	0x8f
 2463 00e4 04       		.uleb128 0x4
 2464 00e5 D7020000 		.4byte	.LASF14
 2465 00e9 04       		.byte	0x4
 2466 00ea 45       		.byte	0x45
 2467 00eb AC000000 		.4byte	0xac
 2468 00ef 04       		.uleb128 0x4
ARM GAS  C:\Users\haske\AppData\Local\Temp\ccZHF2NV.s 			page 63


 2469 00f0 3F010000 		.4byte	.LASF15
 2470 00f4 01       		.byte	0x1
 2471 00f5 74       		.byte	0x74
 2472 00f6 FA000000 		.4byte	0xfa
 2473 00fa 0A       		.uleb128 0xa
 2474 00fb 04       		.byte	0x4
 2475 00fc 00010000 		.4byte	0x100
 2476 0100 0C       		.uleb128 0xc
 2477 0101 1A010000 		.4byte	0x11a
 2478 0105 0D       		.uleb128 0xd
 2479 0106 D2000000 		.4byte	0xd2
 2480 010a 0D       		.uleb128 0xd
 2481 010b 8D000000 		.4byte	0x8d
 2482 010f 0D       		.uleb128 0xd
 2483 0110 9A000000 		.4byte	0x9a
 2484 0114 0D       		.uleb128 0xd
 2485 0115 9A000000 		.4byte	0x9a
 2486 0119 00       		.byte	0
 2487 011a 0E       		.uleb128 0xe
 2488 011b 22010000 		.4byte	.LASF17
 2489 011f 01       		.byte	0x1
 2490 0120 98       		.byte	0x98
 2491 0121 35010000 		.4byte	0x135
 2492 0125 03       		.byte	0x3
 2493 0126 35010000 		.4byte	0x135
 2494 012a 0F       		.uleb128 0xf
 2495 012b 636800   		.ascii	"ch\000"
 2496 012e 01       		.byte	0x1
 2497 012f 98       		.byte	0x98
 2498 0130 D2000000 		.4byte	0xd2
 2499 0134 00       		.byte	0
 2500 0135 02       		.uleb128 0x2
 2501 0136 01       		.byte	0x1
 2502 0137 02       		.byte	0x2
 2503 0138 03020000 		.4byte	.LASF16
 2504 013c 0E       		.uleb128 0xe
 2505 013d EE010000 		.4byte	.LASF18
 2506 0141 01       		.byte	0x1
 2507 0142 8F       		.byte	0x8f
 2508 0143 64000000 		.4byte	0x64
 2509 0147 03       		.byte	0x3
 2510 0148 6C010000 		.4byte	0x16c
 2511 014c 0F       		.uleb128 0xf
 2512 014d 73747200 		.ascii	"str\000"
 2513 0151 01       		.byte	0x1
 2514 0152 8F       		.byte	0x8f
 2515 0153 CC000000 		.4byte	0xcc
 2516 0157 10       		.uleb128 0x10
 2517 0158 AB020000 		.4byte	.LASF19
 2518 015c 01       		.byte	0x1
 2519 015d 8F       		.byte	0x8f
 2520 015e 9A000000 		.4byte	0x9a
 2521 0162 11       		.uleb128 0x11
 2522 0163 7300     		.ascii	"s\000"
 2523 0165 01       		.byte	0x1
 2524 0166 91       		.byte	0x91
 2525 0167 CC000000 		.4byte	0xcc
ARM GAS  C:\Users\haske\AppData\Local\Temp\ccZHF2NV.s 			page 64


 2526 016b 00       		.byte	0
 2527 016c 12       		.uleb128 0x12
 2528 016d 00000000 		.4byte	.LASF23
 2529 0171 01       		.byte	0x1
 2530 0172 7D       		.byte	0x7d
 2531 0173 00000000 		.4byte	.LFB0
 2532 0177 08000000 		.4byte	.LFE0-.LFB0
 2533 017b 01       		.uleb128 0x1
 2534 017c 9C       		.byte	0x9c
 2535 017d B6010000 		.4byte	0x1b6
 2536 0181 13       		.uleb128 0x13
 2537 0182 92020000 		.4byte	.LASF20
 2538 0186 01       		.byte	0x1
 2539 0187 7D       		.byte	0x7d
 2540 0188 D2000000 		.4byte	0xd2
 2541 018c 01       		.uleb128 0x1
 2542 018d 50       		.byte	0x50
 2543 018e 13       		.uleb128 0x13
 2544 018f 51020000 		.4byte	.LASF21
 2545 0193 01       		.byte	0x1
 2546 0194 7D       		.byte	0x7d
 2547 0195 8D000000 		.4byte	0x8d
 2548 0199 01       		.uleb128 0x1
 2549 019a 51       		.byte	0x51
 2550 019b 14       		.uleb128 0x14
 2551 019c 69647800 		.ascii	"idx\000"
 2552 01a0 01       		.byte	0x1
 2553 01a1 7D       		.byte	0x7d
 2554 01a2 9A000000 		.4byte	0x9a
 2555 01a6 01       		.uleb128 0x1
 2556 01a7 52       		.byte	0x52
 2557 01a8 13       		.uleb128 0x13
 2558 01a9 D4010000 		.4byte	.LASF22
 2559 01ad 01       		.byte	0x1
 2560 01ae 7D       		.byte	0x7d
 2561 01af 9A000000 		.4byte	0x9a
 2562 01b3 01       		.uleb128 0x1
 2563 01b4 53       		.byte	0x53
 2564 01b5 00       		.byte	0
 2565 01b6 12       		.uleb128 0x12
 2566 01b7 35010000 		.4byte	.LASF24
 2567 01bb 01       		.byte	0x1
 2568 01bc 85       		.byte	0x85
 2569 01bd 00000000 		.4byte	.LFB1
 2570 01c1 02000000 		.4byte	.LFE1-.LFB1
 2571 01c5 01       		.uleb128 0x1
 2572 01c6 9C       		.byte	0x9c
 2573 01c7 00020000 		.4byte	0x200
 2574 01cb 13       		.uleb128 0x13
 2575 01cc 92020000 		.4byte	.LASF20
 2576 01d0 01       		.byte	0x1
 2577 01d1 85       		.byte	0x85
 2578 01d2 D2000000 		.4byte	0xd2
 2579 01d6 01       		.uleb128 0x1
 2580 01d7 50       		.byte	0x50
 2581 01d8 13       		.uleb128 0x13
 2582 01d9 51020000 		.4byte	.LASF21
ARM GAS  C:\Users\haske\AppData\Local\Temp\ccZHF2NV.s 			page 65


 2583 01dd 01       		.byte	0x1
 2584 01de 85       		.byte	0x85
 2585 01df 8D000000 		.4byte	0x8d
 2586 01e3 01       		.uleb128 0x1
 2587 01e4 51       		.byte	0x51
 2588 01e5 14       		.uleb128 0x14
 2589 01e6 69647800 		.ascii	"idx\000"
 2590 01ea 01       		.byte	0x1
 2591 01eb 85       		.byte	0x85
 2592 01ec 9A000000 		.4byte	0x9a
 2593 01f0 01       		.uleb128 0x1
 2594 01f1 52       		.byte	0x52
 2595 01f2 13       		.uleb128 0x13
 2596 01f3 D4010000 		.4byte	.LASF22
 2597 01f7 01       		.byte	0x1
 2598 01f8 85       		.byte	0x85
 2599 01f9 9A000000 		.4byte	0x9a
 2600 01fd 01       		.uleb128 0x1
 2601 01fe 53       		.byte	0x53
 2602 01ff 00       		.byte	0
 2603 0200 15       		.uleb128 0x15
 2604 0201 26000000 		.4byte	.LASF25
 2605 0205 01       		.byte	0x1
 2606 0206 9E       		.byte	0x9e
 2607 0207 64000000 		.4byte	0x64
 2608 020b 00000000 		.4byte	.LFB4
 2609 020f 2A000000 		.4byte	.LFE4-.LFB4
 2610 0213 01       		.uleb128 0x1
 2611 0214 9C       		.byte	0x9c
 2612 0215 4F020000 		.4byte	0x24f
 2613 0219 16       		.uleb128 0x16
 2614 021a 73747200 		.ascii	"str\000"
 2615 021e 01       		.byte	0x1
 2616 021f 9E       		.byte	0x9e
 2617 0220 4F020000 		.4byte	0x24f
 2618 0224 00000000 		.4byte	.LLST0
 2619 0228 17       		.uleb128 0x17
 2620 0229 6900     		.ascii	"i\000"
 2621 022b 01       		.byte	0x1
 2622 022c A0       		.byte	0xa0
 2623 022d 64000000 		.4byte	0x64
 2624 0231 2C000000 		.4byte	.LLST1
 2625 0235 18       		.uleb128 0x18
 2626 0236 1A010000 		.4byte	0x11a
 2627 023a 1E000000 		.4byte	.LBB20
 2628 023e 04000000 		.4byte	.LBE20-.LBB20
 2629 0242 01       		.byte	0x1
 2630 0243 A1       		.byte	0xa1
 2631 0244 19       		.uleb128 0x19
 2632 0245 2A010000 		.4byte	0x12a
 2633 0249 56000000 		.4byte	.LLST2
 2634 024d 00       		.byte	0
 2635 024e 00       		.byte	0
 2636 024f 0A       		.uleb128 0xa
 2637 0250 04       		.byte	0x4
 2638 0251 CC000000 		.4byte	0xcc
 2639 0255 15       		.uleb128 0x15
ARM GAS  C:\Users\haske\AppData\Local\Temp\ccZHF2NV.s 			page 66


 2640 0256 9C020000 		.4byte	.LASF26
 2641 025a 01       		.byte	0x1
 2642 025b A8       		.byte	0xa8
 2643 025c 9A000000 		.4byte	0x9a
 2644 0260 00000000 		.4byte	.LFB5
 2645 0264 A4000000 		.4byte	.LFE5-.LFB5
 2646 0268 01       		.uleb128 0x1
 2647 0269 9C       		.byte	0x9c
 2648 026a 6A030000 		.4byte	0x36a
 2649 026e 16       		.uleb128 0x16
 2650 026f 6F757400 		.ascii	"out\000"
 2651 0273 01       		.byte	0x1
 2652 0274 A8       		.byte	0xa8
 2653 0275 EF000000 		.4byte	0xef
 2654 0279 76000000 		.4byte	.LLST3
 2655 027d 1A       		.uleb128 0x1a
 2656 027e 51020000 		.4byte	.LASF21
 2657 0282 01       		.byte	0x1
 2658 0283 A8       		.byte	0xa8
 2659 0284 6A030000 		.4byte	0x36a
 2660 0288 E4000000 		.4byte	.LLST4
 2661 028c 16       		.uleb128 0x16
 2662 028d 69647800 		.ascii	"idx\000"
 2663 0291 01       		.byte	0x1
 2664 0292 A8       		.byte	0xa8
 2665 0293 9A000000 		.4byte	0x9a
 2666 0297 26010000 		.4byte	.LLST5
 2667 029b 1A       		.uleb128 0x1a
 2668 029c D4010000 		.4byte	.LASF22
 2669 02a0 01       		.byte	0x1
 2670 02a1 A8       		.byte	0xa8
 2671 02a2 9A000000 		.4byte	0x9a
 2672 02a6 7B010000 		.4byte	.LLST6
 2673 02aa 16       		.uleb128 0x16
 2674 02ab 62756600 		.ascii	"buf\000"
 2675 02af 01       		.byte	0x1
 2676 02b0 A8       		.byte	0xa8
 2677 02b1 CC000000 		.4byte	0xcc
 2678 02b5 9A010000 		.4byte	.LLST7
 2679 02b9 16       		.uleb128 0x16
 2680 02ba 6C656E00 		.ascii	"len\000"
 2681 02be 01       		.byte	0x1
 2682 02bf A8       		.byte	0xa8
 2683 02c0 9A000000 		.4byte	0x9a
 2684 02c4 AE010000 		.4byte	.LLST8
 2685 02c8 1A       		.uleb128 0x1a
 2686 02c9 E2000000 		.4byte	.LASF27
 2687 02cd 01       		.byte	0x1
 2688 02ce A9       		.byte	0xa9
 2689 02cf 64000000 		.4byte	0x64
 2690 02d3 D8010000 		.4byte	.LLST9
 2691 02d7 13       		.uleb128 0x13
 2692 02d8 AA010000 		.4byte	.LASF28
 2693 02dc 01       		.byte	0x1
 2694 02dd A9       		.byte	0xa9
 2695 02de 64000000 		.4byte	0x64
 2696 02e2 02       		.uleb128 0x2
ARM GAS  C:\Users\haske\AppData\Local\Temp\ccZHF2NV.s 			page 67


 2697 02e3 91       		.byte	0x91
 2698 02e4 0C       		.sleb128 12
 2699 02e5 1B       		.uleb128 0x1b
 2700 02e6 CC000000 		.4byte	.LASF29
 2701 02ea 01       		.byte	0x1
 2702 02eb AB       		.byte	0xab
 2703 02ec 70030000 		.4byte	0x370
 2704 02f0 F8010000 		.4byte	.LLST10
 2705 02f4 1C       		.uleb128 0x1c
 2706 02f5 00000000 		.4byte	.Ldebug_ranges0+0
 2707 02f9 2B030000 		.4byte	0x32b
 2708 02fd 17       		.uleb128 0x17
 2709 02fe 6900     		.ascii	"i\000"
 2710 0300 01       		.byte	0x1
 2711 0301 AF       		.byte	0xaf
 2712 0302 9A000000 		.4byte	0x9a
 2713 0306 66020000 		.4byte	.LLST11
 2714 030a 1D       		.uleb128 0x1d
 2715 030b 34000000 		.4byte	.LVL16
 2716 030f 1E       		.uleb128 0x1e
 2717 0310 01       		.uleb128 0x1
 2718 0311 50       		.byte	0x50
 2719 0312 02       		.uleb128 0x2
 2720 0313 08       		.byte	0x8
 2721 0314 20       		.byte	0x20
 2722 0315 1E       		.uleb128 0x1e
 2723 0316 01       		.uleb128 0x1
 2724 0317 51       		.byte	0x51
 2725 0318 03       		.uleb128 0x3
 2726 0319 7D       		.byte	0x7d
 2727 031a 00       		.sleb128 0
 2728 031b 06       		.byte	0x6
 2729 031c 1E       		.uleb128 0x1e
 2730 031d 01       		.uleb128 0x1
 2731 031e 52       		.byte	0x52
 2732 031f 02       		.uleb128 0x2
 2733 0320 74       		.byte	0x74
 2734 0321 7F       		.sleb128 -1
 2735 0322 1E       		.uleb128 0x1e
 2736 0323 01       		.uleb128 0x1
 2737 0324 53       		.byte	0x53
 2738 0325 03       		.uleb128 0x3
 2739 0326 91       		.byte	0x91
 2740 0327 5C       		.sleb128 -36
 2741 0328 06       		.byte	0x6
 2742 0329 00       		.byte	0
 2743 032a 00       		.byte	0
 2744 032b 1F       		.uleb128 0x1f
 2745 032c 6E000000 		.4byte	.LVL27
 2746 0330 49030000 		.4byte	0x349
 2747 0334 1E       		.uleb128 0x1e
 2748 0335 01       		.uleb128 0x1
 2749 0336 51       		.byte	0x51
 2750 0337 03       		.uleb128 0x3
 2751 0338 7D       		.byte	0x7d
 2752 0339 00       		.sleb128 0
 2753 033a 06       		.byte	0x6
ARM GAS  C:\Users\haske\AppData\Local\Temp\ccZHF2NV.s 			page 68


 2754 033b 1E       		.uleb128 0x1e
 2755 033c 01       		.uleb128 0x1
 2756 033d 52       		.byte	0x52
 2757 033e 02       		.uleb128 0x2
 2758 033f 77       		.byte	0x77
 2759 0340 7F       		.sleb128 -1
 2760 0341 1E       		.uleb128 0x1e
 2761 0342 01       		.uleb128 0x1
 2762 0343 53       		.byte	0x53
 2763 0344 03       		.uleb128 0x3
 2764 0345 91       		.byte	0x91
 2765 0346 5C       		.sleb128 -36
 2766 0347 06       		.byte	0x6
 2767 0348 00       		.byte	0
 2768 0349 1D       		.uleb128 0x1d
 2769 034a 88000000 		.4byte	.LVL32
 2770 034e 1E       		.uleb128 0x1e
 2771 034f 01       		.uleb128 0x1
 2772 0350 50       		.byte	0x50
 2773 0351 02       		.uleb128 0x2
 2774 0352 08       		.byte	0x8
 2775 0353 20       		.byte	0x20
 2776 0354 1E       		.uleb128 0x1e
 2777 0355 01       		.uleb128 0x1
 2778 0356 51       		.byte	0x51
 2779 0357 03       		.uleb128 0x3
 2780 0358 7D       		.byte	0x7d
 2781 0359 00       		.sleb128 0
 2782 035a 06       		.byte	0x6
 2783 035b 1E       		.uleb128 0x1e
 2784 035c 01       		.uleb128 0x1
 2785 035d 52       		.byte	0x52
 2786 035e 02       		.uleb128 0x2
 2787 035f 75       		.byte	0x75
 2788 0360 7F       		.sleb128 -1
 2789 0361 1E       		.uleb128 0x1e
 2790 0362 01       		.uleb128 0x1
 2791 0363 53       		.byte	0x53
 2792 0364 03       		.uleb128 0x3
 2793 0365 91       		.byte	0x91
 2794 0366 5C       		.sleb128 -36
 2795 0367 06       		.byte	0x6
 2796 0368 00       		.byte	0
 2797 0369 00       		.byte	0
 2798 036a 0A       		.uleb128 0xa
 2799 036b 04       		.byte	0x4
 2800 036c D2000000 		.4byte	0xd2
 2801 0370 0B       		.uleb128 0xb
 2802 0371 9A000000 		.4byte	0x9a
 2803 0375 15       		.uleb128 0x15
 2804 0376 15010000 		.4byte	.LASF30
 2805 037a 01       		.byte	0x1
 2806 037b C5       		.byte	0xc5
 2807 037c 9A000000 		.4byte	0x9a
 2808 0380 00000000 		.4byte	.LFB6
 2809 0384 0A010000 		.4byte	.LFE6-.LFB6
 2810 0388 01       		.uleb128 0x1
ARM GAS  C:\Users\haske\AppData\Local\Temp\ccZHF2NV.s 			page 69


 2811 0389 9C       		.byte	0x9c
 2812 038a 5D040000 		.4byte	0x45d
 2813 038e 16       		.uleb128 0x16
 2814 038f 6F757400 		.ascii	"out\000"
 2815 0393 01       		.byte	0x1
 2816 0394 C5       		.byte	0xc5
 2817 0395 EF000000 		.4byte	0xef
 2818 0399 84020000 		.4byte	.LLST12
 2819 039d 1A       		.uleb128 0x1a
 2820 039e 51020000 		.4byte	.LASF21
 2821 03a2 01       		.byte	0x1
 2822 03a3 C5       		.byte	0xc5
 2823 03a4 6A030000 		.4byte	0x36a
 2824 03a8 A5020000 		.4byte	.LLST13
 2825 03ac 16       		.uleb128 0x16
 2826 03ad 69647800 		.ascii	"idx\000"
 2827 03b1 01       		.byte	0x1
 2828 03b2 C5       		.byte	0xc5
 2829 03b3 9A000000 		.4byte	0x9a
 2830 03b7 C6020000 		.4byte	.LLST14
 2831 03bb 1A       		.uleb128 0x1a
 2832 03bc D4010000 		.4byte	.LASF22
 2833 03c0 01       		.byte	0x1
 2834 03c1 C5       		.byte	0xc5
 2835 03c2 9A000000 		.4byte	0x9a
 2836 03c6 E5020000 		.4byte	.LLST15
 2837 03ca 14       		.uleb128 0x14
 2838 03cb 62756600 		.ascii	"buf\000"
 2839 03cf 01       		.byte	0x1
 2840 03d0 C5       		.byte	0xc5
 2841 03d1 6A030000 		.4byte	0x36a
 2842 03d5 02       		.uleb128 0x2
 2843 03d6 91       		.byte	0x91
 2844 03d7 00       		.sleb128 0
 2845 03d8 16       		.uleb128 0x16
 2846 03d9 6C656E00 		.ascii	"len\000"
 2847 03dd 01       		.byte	0x1
 2848 03de C5       		.byte	0xc5
 2849 03df 9A000000 		.4byte	0x9a
 2850 03e3 04030000 		.4byte	.LLST16
 2851 03e7 1A       		.uleb128 0x1a
 2852 03e8 2C010000 		.4byte	.LASF31
 2853 03ec 01       		.byte	0x1
 2854 03ed C6       		.byte	0xc6
 2855 03ee 35010000 		.4byte	0x135
 2856 03f2 1C040000 		.4byte	.LLST17
 2857 03f6 13       		.uleb128 0x13
 2858 03f7 D2020000 		.4byte	.LASF32
 2859 03fb 01       		.byte	0x1
 2860 03fc C6       		.byte	0xc6
 2861 03fd 64000000 		.4byte	0x64
 2862 0401 02       		.uleb128 0x2
 2863 0402 91       		.byte	0x91
 2864 0403 0C       		.sleb128 12
 2865 0404 13       		.uleb128 0x13
 2866 0405 B3020000 		.4byte	.LASF33
 2867 0409 01       		.byte	0x1
ARM GAS  C:\Users\haske\AppData\Local\Temp\ccZHF2NV.s 			page 70


 2868 040a C6       		.byte	0xc6
 2869 040b 64000000 		.4byte	0x64
 2870 040f 02       		.uleb128 0x2
 2871 0410 91       		.byte	0x91
 2872 0411 10       		.sleb128 16
 2873 0412 1A       		.uleb128 0x1a
 2874 0413 E2000000 		.4byte	.LASF27
 2875 0417 01       		.byte	0x1
 2876 0418 C6       		.byte	0xc6
 2877 0419 64000000 		.4byte	0x64
 2878 041d 48040000 		.4byte	.LLST18
 2879 0421 13       		.uleb128 0x13
 2880 0422 AA010000 		.4byte	.LASF28
 2881 0426 01       		.byte	0x1
 2882 0427 C6       		.byte	0xc6
 2883 0428 64000000 		.4byte	0x64
 2884 042c 02       		.uleb128 0x2
 2885 042d 91       		.byte	0x91
 2886 042e 18       		.sleb128 24
 2887 042f 20       		.uleb128 0x20
 2888 0430 02010000 		.4byte	.LVL70
 2889 0434 55020000 		.4byte	0x255
 2890 0438 1E       		.uleb128 0x1e
 2891 0439 01       		.uleb128 0x1
 2892 043a 52       		.byte	0x52
 2893 043b 03       		.uleb128 0x3
 2894 043c 91       		.byte	0x91
 2895 043d 60       		.sleb128 -32
 2896 043e 06       		.byte	0x6
 2897 043f 1E       		.uleb128 0x1e
 2898 0440 01       		.uleb128 0x1
 2899 0441 53       		.byte	0x53
 2900 0442 03       		.uleb128 0x3
 2901 0443 91       		.byte	0x91
 2902 0444 64       		.sleb128 -28
 2903 0445 06       		.byte	0x6
 2904 0446 1E       		.uleb128 0x1e
 2905 0447 02       		.uleb128 0x2
 2906 0448 7D       		.byte	0x7d
 2907 0449 00       		.sleb128 0
 2908 044a 02       		.uleb128 0x2
 2909 044b 75       		.byte	0x75
 2910 044c 00       		.sleb128 0
 2911 044d 1E       		.uleb128 0x1e
 2912 044e 02       		.uleb128 0x2
 2913 044f 7D       		.byte	0x7d
 2914 0450 04       		.sleb128 4
 2915 0451 02       		.uleb128 0x2
 2916 0452 74       		.byte	0x74
 2917 0453 00       		.sleb128 0
 2918 0454 1E       		.uleb128 0x1e
 2919 0455 02       		.uleb128 0x2
 2920 0456 7D       		.byte	0x7d
 2921 0457 0C       		.sleb128 12
 2922 0458 02       		.uleb128 0x2
 2923 0459 76       		.byte	0x76
 2924 045a 00       		.sleb128 0
ARM GAS  C:\Users\haske\AppData\Local\Temp\ccZHF2NV.s 			page 71


 2925 045b 00       		.byte	0
 2926 045c 00       		.byte	0
 2927 045d 21       		.uleb128 0x21
 2928 045e 93010000 		.4byte	.LASF34
 2929 0462 01       		.byte	0x1
 2930 0463 FB       		.byte	0xfb
 2931 0464 9A000000 		.4byte	0x9a
 2932 0468 00000000 		.4byte	.LFB7
 2933 046c 9C000000 		.4byte	.LFE7-.LFB7
 2934 0470 01       		.uleb128 0x1
 2935 0471 9C       		.byte	0x9c
 2936 0472 A0050000 		.4byte	0x5a0
 2937 0476 16       		.uleb128 0x16
 2938 0477 6F757400 		.ascii	"out\000"
 2939 047b 01       		.byte	0x1
 2940 047c FB       		.byte	0xfb
 2941 047d EF000000 		.4byte	0xef
 2942 0481 73040000 		.4byte	.LLST19
 2943 0485 1A       		.uleb128 0x1a
 2944 0486 51020000 		.4byte	.LASF21
 2945 048a 01       		.byte	0x1
 2946 048b FB       		.byte	0xfb
 2947 048c 6A030000 		.4byte	0x36a
 2948 0490 AB040000 		.4byte	.LLST20
 2949 0494 16       		.uleb128 0x16
 2950 0495 69647800 		.ascii	"idx\000"
 2951 0499 01       		.byte	0x1
 2952 049a FB       		.byte	0xfb
 2953 049b 9A000000 		.4byte	0x9a
 2954 049f E3040000 		.4byte	.LLST21
 2955 04a3 1A       		.uleb128 0x1a
 2956 04a4 D4010000 		.4byte	.LASF22
 2957 04a8 01       		.byte	0x1
 2958 04a9 FB       		.byte	0xfb
 2959 04aa 9A000000 		.4byte	0x9a
 2960 04ae 19050000 		.4byte	.LLST22
 2961 04b2 1A       		.uleb128 0x1a
 2962 04b3 C6000000 		.4byte	.LASF35
 2963 04b7 01       		.byte	0x1
 2964 04b8 FB       		.byte	0xfb
 2965 04b9 4F000000 		.4byte	0x4f
 2966 04bd 50050000 		.4byte	.LLST23
 2967 04c1 1A       		.uleb128 0x1a
 2968 04c2 2C010000 		.4byte	.LASF31
 2969 04c6 01       		.byte	0x1
 2970 04c7 FB       		.byte	0xfb
 2971 04c8 35010000 		.4byte	0x135
 2972 04cc AA050000 		.4byte	.LLST24
 2973 04d0 1A       		.uleb128 0x1a
 2974 04d1 D2020000 		.4byte	.LASF32
 2975 04d5 01       		.byte	0x1
 2976 04d6 FC       		.byte	0xfc
 2977 04d7 4F000000 		.4byte	0x4f
 2978 04db E2050000 		.4byte	.LLST25
 2979 04df 1A       		.uleb128 0x1a
 2980 04e0 B3020000 		.4byte	.LASF33
 2981 04e4 01       		.byte	0x1
ARM GAS  C:\Users\haske\AppData\Local\Temp\ccZHF2NV.s 			page 72


 2982 04e5 FC       		.byte	0xfc
 2983 04e6 64000000 		.4byte	0x64
 2984 04ea 1A060000 		.4byte	.LLST26
 2985 04ee 1A       		.uleb128 0x1a
 2986 04ef E2000000 		.4byte	.LASF27
 2987 04f3 01       		.byte	0x1
 2988 04f4 FC       		.byte	0xfc
 2989 04f5 64000000 		.4byte	0x64
 2990 04f9 52060000 		.4byte	.LLST27
 2991 04fd 1A       		.uleb128 0x1a
 2992 04fe AA010000 		.4byte	.LASF28
 2993 0502 01       		.byte	0x1
 2994 0503 FC       		.byte	0xfc
 2995 0504 64000000 		.4byte	0x64
 2996 0508 8A060000 		.4byte	.LLST28
 2997 050c 22       		.uleb128 0x22
 2998 050d 62756600 		.ascii	"buf\000"
 2999 0511 01       		.byte	0x1
 3000 0512 FE       		.byte	0xfe
 3001 0513 A0050000 		.4byte	0x5a0
 3002 0517 02       		.uleb128 0x2
 3003 0518 91       		.byte	0x91
 3004 0519 48       		.sleb128 -56
 3005 051a 17       		.uleb128 0x17
 3006 051b 6C656E00 		.ascii	"len\000"
 3007 051f 01       		.byte	0x1
 3008 0520 FF       		.byte	0xff
 3009 0521 9A000000 		.4byte	0x9a
 3010 0525 CD060000 		.4byte	.LLST29
 3011 0529 1C       		.uleb128 0x1c
 3012 052a 18000000 		.4byte	.Ldebug_ranges0+0x18
 3013 052e 43050000 		.4byte	0x543
 3014 0532 23       		.uleb128 0x23
 3015 0533 CC020000 		.4byte	.LASF36
 3016 0537 01       		.byte	0x1
 3017 0538 0901     		.2byte	0x109
 3018 053a D9000000 		.4byte	0xd9
 3019 053e 0E070000 		.4byte	.LLST30
 3020 0542 00       		.byte	0
 3021 0543 20       		.uleb128 0x20
 3022 0544 94000000 		.4byte	.LVL90
 3023 0548 75030000 		.4byte	0x375
 3024 054c 1E       		.uleb128 0x1e
 3025 054d 01       		.uleb128 0x1
 3026 054e 50       		.byte	0x50
 3027 054f 04       		.uleb128 0x4
 3028 0550 91       		.byte	0x91
 3029 0551 B87F     		.sleb128 -72
 3030 0553 06       		.byte	0x6
 3031 0554 1E       		.uleb128 0x1e
 3032 0555 01       		.uleb128 0x1
 3033 0556 51       		.byte	0x51
 3034 0557 04       		.uleb128 0x4
 3035 0558 91       		.byte	0x91
 3036 0559 BC7F     		.sleb128 -68
 3037 055b 06       		.byte	0x6
 3038 055c 1E       		.uleb128 0x1e
ARM GAS  C:\Users\haske\AppData\Local\Temp\ccZHF2NV.s 			page 73


 3039 055d 01       		.uleb128 0x1
 3040 055e 52       		.byte	0x52
 3041 055f 03       		.uleb128 0x3
 3042 0560 91       		.byte	0x91
 3043 0561 40       		.sleb128 -64
 3044 0562 06       		.byte	0x6
 3045 0563 1E       		.uleb128 0x1e
 3046 0564 01       		.uleb128 0x1
 3047 0565 53       		.byte	0x53
 3048 0566 03       		.uleb128 0x3
 3049 0567 91       		.byte	0x91
 3050 0568 44       		.sleb128 -60
 3051 0569 06       		.byte	0x6
 3052 056a 1E       		.uleb128 0x1e
 3053 056b 02       		.uleb128 0x2
 3054 056c 7D       		.byte	0x7d
 3055 056d 00       		.sleb128 0
 3056 056e 02       		.uleb128 0x2
 3057 056f 91       		.byte	0x91
 3058 0570 48       		.sleb128 -56
 3059 0571 1E       		.uleb128 0x1e
 3060 0572 02       		.uleb128 0x2
 3061 0573 7D       		.byte	0x7d
 3062 0574 04       		.sleb128 4
 3063 0575 02       		.uleb128 0x2
 3064 0576 76       		.byte	0x76
 3065 0577 00       		.sleb128 0
 3066 0578 1E       		.uleb128 0x1e
 3067 0579 02       		.uleb128 0x2
 3068 057a 7D       		.byte	0x7d
 3069 057b 08       		.sleb128 8
 3070 057c 02       		.uleb128 0x2
 3071 057d 78       		.byte	0x78
 3072 057e 00       		.sleb128 0
 3073 057f 1E       		.uleb128 0x1e
 3074 0580 02       		.uleb128 0x2
 3075 0581 7D       		.byte	0x7d
 3076 0582 0C       		.sleb128 12
 3077 0583 03       		.uleb128 0x3
 3078 0584 91       		.byte	0x91
 3079 0585 08       		.sleb128 8
 3080 0586 06       		.byte	0x6
 3081 0587 1E       		.uleb128 0x1e
 3082 0588 02       		.uleb128 0x2
 3083 0589 7D       		.byte	0x7d
 3084 058a 10       		.sleb128 16
 3085 058b 03       		.uleb128 0x3
 3086 058c 91       		.byte	0x91
 3087 058d 0C       		.sleb128 12
 3088 058e 06       		.byte	0x6
 3089 058f 1E       		.uleb128 0x1e
 3090 0590 02       		.uleb128 0x2
 3091 0591 7D       		.byte	0x7d
 3092 0592 14       		.sleb128 20
 3093 0593 03       		.uleb128 0x3
 3094 0594 91       		.byte	0x91
 3095 0595 10       		.sleb128 16
ARM GAS  C:\Users\haske\AppData\Local\Temp\ccZHF2NV.s 			page 74


 3096 0596 06       		.byte	0x6
 3097 0597 1E       		.uleb128 0x1e
 3098 0598 02       		.uleb128 0x2
 3099 0599 7D       		.byte	0x7d
 3100 059a 18       		.sleb128 24
 3101 059b 02       		.uleb128 0x2
 3102 059c 75       		.byte	0x75
 3103 059d 00       		.sleb128 0
 3104 059e 00       		.byte	0
 3105 059f 00       		.byte	0
 3106 05a0 24       		.uleb128 0x24
 3107 05a1 D2000000 		.4byte	0xd2
 3108 05a5 B0050000 		.4byte	0x5b0
 3109 05a9 25       		.uleb128 0x25
 3110 05aa B0050000 		.4byte	0x5b0
 3111 05ae 1F       		.byte	0x1f
 3112 05af 00       		.byte	0
 3113 05b0 02       		.uleb128 0x2
 3114 05b1 04       		.byte	0x4
 3115 05b2 07       		.byte	0x7
 3116 05b3 1D000000 		.4byte	.LASF37
 3117 05b7 26       		.uleb128 0x26
 3118 05b8 70020000 		.4byte	.LASF38
 3119 05bc 01       		.byte	0x1
 3120 05bd 1401     		.2byte	0x114
 3121 05bf 9A000000 		.4byte	0x9a
 3122 05c3 00000000 		.4byte	.LFB8
 3123 05c7 D8000000 		.4byte	.LFE8-.LFB8
 3124 05cb 01       		.uleb128 0x1
 3125 05cc 9C       		.byte	0x9c
 3126 05cd 07070000 		.4byte	0x707
 3127 05d1 27       		.uleb128 0x27
 3128 05d2 6F757400 		.ascii	"out\000"
 3129 05d6 01       		.byte	0x1
 3130 05d7 1401     		.2byte	0x114
 3131 05d9 EF000000 		.4byte	0xef
 3132 05dd 39070000 		.4byte	.LLST31
 3133 05e1 28       		.uleb128 0x28
 3134 05e2 51020000 		.4byte	.LASF21
 3135 05e6 01       		.byte	0x1
 3136 05e7 1401     		.2byte	0x114
 3137 05e9 6A030000 		.4byte	0x36a
 3138 05ed 71070000 		.4byte	.LLST32
 3139 05f1 27       		.uleb128 0x27
 3140 05f2 69647800 		.ascii	"idx\000"
 3141 05f6 01       		.byte	0x1
 3142 05f7 1401     		.2byte	0x114
 3143 05f9 9A000000 		.4byte	0x9a
 3144 05fd A9070000 		.4byte	.LLST33
 3145 0601 28       		.uleb128 0x28
 3146 0602 D4010000 		.4byte	.LASF22
 3147 0606 01       		.byte	0x1
 3148 0607 1401     		.2byte	0x114
 3149 0609 9A000000 		.4byte	0x9a
 3150 060d C9070000 		.4byte	.LLST34
 3151 0611 28       		.uleb128 0x28
 3152 0612 C6000000 		.4byte	.LASF35
ARM GAS  C:\Users\haske\AppData\Local\Temp\ccZHF2NV.s 			page 75


 3153 0616 01       		.byte	0x1
 3154 0617 1401     		.2byte	0x114
 3155 0619 25000000 		.4byte	0x25
 3156 061d E9070000 		.4byte	.LLST35
 3157 0621 28       		.uleb128 0x28
 3158 0622 2C010000 		.4byte	.LASF31
 3159 0626 01       		.byte	0x1
 3160 0627 1501     		.2byte	0x115
 3161 0629 35010000 		.4byte	0x135
 3162 062d 3B080000 		.4byte	.LLST36
 3163 0631 29       		.uleb128 0x29
 3164 0632 D2020000 		.4byte	.LASF32
 3165 0636 01       		.byte	0x1
 3166 0637 1501     		.2byte	0x115
 3167 0639 25000000 		.4byte	0x25
 3168 063d 02       		.uleb128 0x2
 3169 063e 91       		.byte	0x91
 3170 063f 10       		.sleb128 16
 3171 0640 29       		.uleb128 0x29
 3172 0641 B3020000 		.4byte	.LASF33
 3173 0645 01       		.byte	0x1
 3174 0646 1501     		.2byte	0x115
 3175 0648 64000000 		.4byte	0x64
 3176 064c 02       		.uleb128 0x2
 3177 064d 91       		.byte	0x91
 3178 064e 18       		.sleb128 24
 3179 064f 29       		.uleb128 0x29
 3180 0650 E2000000 		.4byte	.LASF27
 3181 0654 01       		.byte	0x1
 3182 0655 1501     		.2byte	0x115
 3183 0657 64000000 		.4byte	0x64
 3184 065b 02       		.uleb128 0x2
 3185 065c 91       		.byte	0x91
 3186 065d 1C       		.sleb128 28
 3187 065e 28       		.uleb128 0x28
 3188 065f AA010000 		.4byte	.LASF28
 3189 0663 01       		.byte	0x1
 3190 0664 1501     		.2byte	0x115
 3191 0666 64000000 		.4byte	0x64
 3192 066a 67080000 		.4byte	.LLST37
 3193 066e 2A       		.uleb128 0x2a
 3194 066f 62756600 		.ascii	"buf\000"
 3195 0673 01       		.byte	0x1
 3196 0674 1701     		.2byte	0x117
 3197 0676 A0050000 		.4byte	0x5a0
 3198 067a 02       		.uleb128 0x2
 3199 067b 91       		.byte	0x91
 3200 067c 40       		.sleb128 -64
 3201 067d 2B       		.uleb128 0x2b
 3202 067e 6C656E00 		.ascii	"len\000"
 3203 0682 01       		.byte	0x1
 3204 0683 1801     		.2byte	0x118
 3205 0685 9A000000 		.4byte	0x9a
 3206 0689 B2080000 		.4byte	.LLST38
 3207 068d 1C       		.uleb128 0x1c
 3208 068e 30000000 		.4byte	.Ldebug_ranges0+0x30
 3209 0692 A7060000 		.4byte	0x6a7
ARM GAS  C:\Users\haske\AppData\Local\Temp\ccZHF2NV.s 			page 76


 3210 0696 23       		.uleb128 0x23
 3211 0697 CC020000 		.4byte	.LASF36
 3212 069b 01       		.byte	0x1
 3213 069c 2201     		.2byte	0x122
 3214 069e D9000000 		.4byte	0xd9
 3215 06a2 FE080000 		.4byte	.LLST39
 3216 06a6 00       		.byte	0
 3217 06a7 20       		.uleb128 0x20
 3218 06a8 CE000000 		.4byte	.LVL114
 3219 06ac 75030000 		.4byte	0x375
 3220 06b0 1E       		.uleb128 0x1e
 3221 06b1 01       		.uleb128 0x1
 3222 06b2 50       		.byte	0x50
 3223 06b3 04       		.uleb128 0x4
 3224 06b4 91       		.byte	0x91
 3225 06b5 B07F     		.sleb128 -80
 3226 06b7 06       		.byte	0x6
 3227 06b8 1E       		.uleb128 0x1e
 3228 06b9 01       		.uleb128 0x1
 3229 06ba 51       		.byte	0x51
 3230 06bb 04       		.uleb128 0x4
 3231 06bc 91       		.byte	0x91
 3232 06bd B47F     		.sleb128 -76
 3233 06bf 06       		.byte	0x6
 3234 06c0 1E       		.uleb128 0x1e
 3235 06c1 01       		.uleb128 0x1
 3236 06c2 52       		.byte	0x52
 3237 06c3 04       		.uleb128 0x4
 3238 06c4 91       		.byte	0x91
 3239 06c5 B87F     		.sleb128 -72
 3240 06c7 06       		.byte	0x6
 3241 06c8 1E       		.uleb128 0x1e
 3242 06c9 01       		.uleb128 0x1
 3243 06ca 53       		.byte	0x53
 3244 06cb 04       		.uleb128 0x4
 3245 06cc 91       		.byte	0x91
 3246 06cd BC7F     		.sleb128 -68
 3247 06cf 06       		.byte	0x6
 3248 06d0 1E       		.uleb128 0x1e
 3249 06d1 02       		.uleb128 0x2
 3250 06d2 7D       		.byte	0x7d
 3251 06d3 00       		.sleb128 0
 3252 06d4 02       		.uleb128 0x2
 3253 06d5 91       		.byte	0x91
 3254 06d6 40       		.sleb128 -64
 3255 06d7 1E       		.uleb128 0x1e
 3256 06d8 02       		.uleb128 0x2
 3257 06d9 7D       		.byte	0x7d
 3258 06da 04       		.sleb128 4
 3259 06db 02       		.uleb128 0x2
 3260 06dc 77       		.byte	0x77
 3261 06dd 00       		.sleb128 0
 3262 06de 1E       		.uleb128 0x1e
 3263 06df 02       		.uleb128 0x2
 3264 06e0 7D       		.byte	0x7d
 3265 06e1 08       		.sleb128 8
 3266 06e2 02       		.uleb128 0x2
ARM GAS  C:\Users\haske\AppData\Local\Temp\ccZHF2NV.s 			page 77


 3267 06e3 7B       		.byte	0x7b
 3268 06e4 00       		.sleb128 0
 3269 06e5 1E       		.uleb128 0x1e
 3270 06e6 02       		.uleb128 0x2
 3271 06e7 7D       		.byte	0x7d
 3272 06e8 0C       		.sleb128 12
 3273 06e9 04       		.uleb128 0x4
 3274 06ea 91       		.byte	0x91
 3275 06eb A87F     		.sleb128 -88
 3276 06ed 06       		.byte	0x6
 3277 06ee 1E       		.uleb128 0x1e
 3278 06ef 02       		.uleb128 0x2
 3279 06f0 7D       		.byte	0x7d
 3280 06f1 10       		.sleb128 16
 3281 06f2 03       		.uleb128 0x3
 3282 06f3 91       		.byte	0x91
 3283 06f4 18       		.sleb128 24
 3284 06f5 06       		.byte	0x6
 3285 06f6 1E       		.uleb128 0x1e
 3286 06f7 02       		.uleb128 0x2
 3287 06f8 7D       		.byte	0x7d
 3288 06f9 14       		.sleb128 20
 3289 06fa 03       		.uleb128 0x3
 3290 06fb 91       		.byte	0x91
 3291 06fc 1C       		.sleb128 28
 3292 06fd 06       		.byte	0x6
 3293 06fe 1E       		.uleb128 0x1e
 3294 06ff 02       		.uleb128 0x2
 3295 0700 7D       		.byte	0x7d
 3296 0701 18       		.sleb128 24
 3297 0702 02       		.uleb128 0x2
 3298 0703 7A       		.byte	0x7a
 3299 0704 00       		.sleb128 0
 3300 0705 00       		.byte	0
 3301 0706 00       		.byte	0
 3302 0707 2C       		.uleb128 0x2c
 3303 0708 58020000 		.4byte	.LASF39
 3304 070c 01       		.byte	0x1
 3305 070d 2602     		.2byte	0x226
 3306 070f 5D000000 		.4byte	0x5d
 3307 0713 00000000 		.4byte	.LFB9
 3308 0717 BA050000 		.4byte	.LFE9-.LFB9
 3309 071b 01       		.uleb128 0x1
 3310 071c 9C       		.byte	0x9c
 3311 071d 910C0000 		.4byte	0xc91
 3312 0721 27       		.uleb128 0x27
 3313 0722 6F757400 		.ascii	"out\000"
 3314 0726 01       		.byte	0x1
 3315 0727 2602     		.2byte	0x226
 3316 0729 EF000000 		.4byte	0xef
 3317 072d 29090000 		.4byte	.LLST40
 3318 0731 28       		.uleb128 0x28
 3319 0732 51020000 		.4byte	.LASF21
 3320 0736 01       		.byte	0x1
 3321 0737 2602     		.2byte	0x226
 3322 0739 6A030000 		.4byte	0x36a
 3323 073d F7090000 		.4byte	.LLST41
ARM GAS  C:\Users\haske\AppData\Local\Temp\ccZHF2NV.s 			page 78


 3324 0741 28       		.uleb128 0x28
 3325 0742 D4010000 		.4byte	.LASF22
 3326 0746 01       		.byte	0x1
 3327 0747 2602     		.2byte	0x226
 3328 0749 70030000 		.4byte	0x370
 3329 074d 170A0000 		.4byte	.LLST42
 3330 0751 28       		.uleb128 0x28
 3331 0752 E5020000 		.4byte	.LASF40
 3332 0756 01       		.byte	0x1
 3333 0757 2602     		.2byte	0x226
 3334 0759 CC000000 		.4byte	0xcc
 3335 075d 370A0000 		.4byte	.LLST43
 3336 0761 2D       		.uleb128 0x2d
 3337 0762 766100   		.ascii	"va\000"
 3338 0765 01       		.byte	0x1
 3339 0766 2602     		.2byte	0x226
 3340 0768 8F000000 		.4byte	0x8f
 3341 076c 02       		.uleb128 0x2
 3342 076d 91       		.byte	0x91
 3343 076e 00       		.sleb128 0
 3344 076f 23       		.uleb128 0x23
 3345 0770 AA010000 		.4byte	.LASF28
 3346 0774 01       		.byte	0x1
 3347 0775 2802     		.2byte	0x228
 3348 0777 64000000 		.4byte	0x64
 3349 077b 560A0000 		.4byte	.LLST44
 3350 077f 23       		.uleb128 0x23
 3351 0780 E2000000 		.4byte	.LASF27
 3352 0784 01       		.byte	0x1
 3353 0785 2802     		.2byte	0x228
 3354 0787 64000000 		.4byte	0x64
 3355 078b 1E0B0000 		.4byte	.LLST45
 3356 078f 23       		.uleb128 0x23
 3357 0790 EC020000 		.4byte	.LASF41
 3358 0794 01       		.byte	0x1
 3359 0795 2802     		.2byte	0x228
 3360 0797 64000000 		.4byte	0x64
 3361 079b 320C0000 		.4byte	.LLST46
 3362 079f 2B       		.uleb128 0x2b
 3363 07a0 6E00     		.ascii	"n\000"
 3364 07a2 01       		.byte	0x1
 3365 07a3 2802     		.2byte	0x228
 3366 07a5 64000000 		.4byte	0x64
 3367 07a9 0E0D0000 		.4byte	.LLST47
 3368 07ad 2B       		.uleb128 0x2b
 3369 07ae 69647800 		.ascii	"idx\000"
 3370 07b2 01       		.byte	0x1
 3371 07b3 2902     		.2byte	0x229
 3372 07b5 9A000000 		.4byte	0x9a
 3373 07b9 5D0D0000 		.4byte	.LLST48
 3374 07bd 2E       		.uleb128 0x2e
 3375 07be 1A010000 		.4byte	0x11a
 3376 07c2 9A000000 		.4byte	.LBB28
 3377 07c6 06000000 		.4byte	.LBE28-.LBB28
 3378 07ca 01       		.byte	0x1
 3379 07cb 6202     		.2byte	0x262
 3380 07cd DB070000 		.4byte	0x7db
ARM GAS  C:\Users\haske\AppData\Local\Temp\ccZHF2NV.s 			page 79


 3381 07d1 19       		.uleb128 0x19
 3382 07d2 2A010000 		.4byte	0x12a
 3383 07d6 130F0000 		.4byte	.LLST49
 3384 07da 00       		.byte	0
 3385 07db 2F       		.uleb128 0x2f
 3386 07dc B2000000 		.4byte	.LBB30
 3387 07e0 20000000 		.4byte	.LBE30-.LBB30
 3388 07e4 F7070000 		.4byte	0x7f7
 3389 07e8 2B       		.uleb128 0x2b
 3390 07e9 7700     		.ascii	"w\000"
 3391 07eb 01       		.byte	0x1
 3392 07ec 6602     		.2byte	0x266
 3393 07ee 910C0000 		.4byte	0xc91
 3394 07f2 260F0000 		.4byte	.LLST50
 3395 07f6 00       		.byte	0
 3396 07f7 2E       		.uleb128 0x2e
 3397 07f8 1A010000 		.4byte	0x11a
 3398 07fc EA000000 		.4byte	.LBB31
 3399 0800 06000000 		.4byte	.LBE31-.LBB31
 3400 0804 01       		.byte	0x1
 3401 0805 7602     		.2byte	0x276
 3402 0807 15080000 		.4byte	0x815
 3403 080b 19       		.uleb128 0x19
 3404 080c 2A010000 		.4byte	0x12a
 3405 0810 620F0000 		.4byte	.LLST51
 3406 0814 00       		.byte	0
 3407 0815 2F       		.uleb128 0x2f
 3408 0816 02010000 		.4byte	.LBB33
 3409 081a 18000000 		.4byte	.LBE33-.LBB33
 3410 081e 2F080000 		.4byte	0x82f
 3411 0822 30       		.uleb128 0x30
 3412 0823 B3020000 		.4byte	.LASF33
 3413 0827 01       		.byte	0x1
 3414 0828 7A02     		.2byte	0x27a
 3415 082a 910C0000 		.4byte	0xc91
 3416 082e 00       		.byte	0
 3417 082f 2F       		.uleb128 0x2f
 3418 0830 AE010000 		.4byte	.LBB34
 3419 0834 70020000 		.4byte	.LBE34-.LBB34
 3420 0838 9B0A0000 		.4byte	0xa9b
 3421 083c 23       		.uleb128 0x23
 3422 083d D2020000 		.4byte	.LASF32
 3423 0841 01       		.byte	0x1
 3424 0842 B002     		.2byte	0x2b0
 3425 0844 64000000 		.4byte	0x64
 3426 0848 750F0000 		.4byte	.LLST52
 3427 084c 2F       		.uleb128 0x2f
 3428 084d 24020000 		.4byte	.LBB35
 3429 0851 64000000 		.4byte	.LBE35-.LBB35
 3430 0855 B0080000 		.4byte	0x8b0
 3431 0859 23       		.uleb128 0x23
 3432 085a C6000000 		.4byte	.LASF35
 3433 085e 01       		.byte	0x1
 3434 085f DF02     		.2byte	0x2df
 3435 0861 960C0000 		.4byte	0xc96
 3436 0865 3C100000 		.4byte	.LLST53
 3437 0869 20       		.uleb128 0x20
ARM GAS  C:\Users\haske\AppData\Local\Temp\ccZHF2NV.s 			page 80


 3438 086a 86020000 		.4byte	.LVL194
 3439 086e B7050000 		.4byte	0x5b7
 3440 0872 1E       		.uleb128 0x1e
 3441 0873 01       		.uleb128 0x1
 3442 0874 50       		.byte	0x50
 3443 0875 02       		.uleb128 0x2
 3444 0876 75       		.byte	0x75
 3445 0877 00       		.sleb128 0
 3446 0878 1E       		.uleb128 0x1e
 3447 0879 01       		.uleb128 0x1
 3448 087a 51       		.byte	0x51
 3449 087b 04       		.uleb128 0x4
 3450 087c 91       		.byte	0x91
 3451 087d B07F     		.sleb128 -80
 3452 087f 06       		.byte	0x6
 3453 0880 1E       		.uleb128 0x1e
 3454 0881 01       		.uleb128 0x1
 3455 0882 52       		.byte	0x52
 3456 0883 02       		.uleb128 0x2
 3457 0884 77       		.byte	0x77
 3458 0885 00       		.sleb128 0
 3459 0886 1E       		.uleb128 0x1e
 3460 0887 01       		.uleb128 0x1
 3461 0888 53       		.byte	0x53
 3462 0889 04       		.uleb128 0x4
 3463 088a 91       		.byte	0x91
 3464 088b AC7F     		.sleb128 -84
 3465 088d 06       		.byte	0x6
 3466 088e 1E       		.uleb128 0x1e
 3467 088f 02       		.uleb128 0x2
 3468 0890 7D       		.byte	0x7d
 3469 0891 00       		.sleb128 0
 3470 0892 06       		.uleb128 0x6
 3471 0893 91       		.byte	0x91
 3472 0894 B87F     		.sleb128 -72
 3473 0896 F6       		.byte	0xf6
 3474 0897 08       		.byte	0x8
 3475 0898 25       		.uleb128 0x25
 3476 0899 1E       		.uleb128 0x1e
 3477 089a 02       		.uleb128 0x2
 3478 089b 7D       		.byte	0x7d
 3479 089c 18       		.sleb128 24
 3480 089d 02       		.uleb128 0x2
 3481 089e 74       		.byte	0x74
 3482 089f 00       		.sleb128 0
 3483 08a0 1E       		.uleb128 0x1e
 3484 08a1 02       		.uleb128 0x2
 3485 08a2 7D       		.byte	0x7d
 3486 08a3 1C       		.sleb128 28
 3487 08a4 02       		.uleb128 0x2
 3488 08a5 7B       		.byte	0x7b
 3489 08a6 00       		.sleb128 0
 3490 08a7 1E       		.uleb128 0x1e
 3491 08a8 02       		.uleb128 0x2
 3492 08a9 7D       		.byte	0x7d
 3493 08aa 20       		.sleb128 32
 3494 08ab 02       		.uleb128 0x2
ARM GAS  C:\Users\haske\AppData\Local\Temp\ccZHF2NV.s 			page 81


 3495 08ac 76       		.byte	0x76
 3496 08ad 00       		.sleb128 0
 3497 08ae 00       		.byte	0
 3498 08af 00       		.byte	0
 3499 08b0 2F       		.uleb128 0x2f
 3500 08b1 8E020000 		.4byte	.LBB36
 3501 08b5 30000000 		.4byte	.LBE36-.LBB36
 3502 08b9 09090000 		.4byte	0x909
 3503 08bd 23       		.uleb128 0x23
 3504 08be C6000000 		.4byte	.LASF35
 3505 08c2 01       		.byte	0x1
 3506 08c3 E502     		.2byte	0x2e5
 3507 08c5 9B0C0000 		.4byte	0xc9b
 3508 08c9 64100000 		.4byte	.LLST54
 3509 08cd 20       		.uleb128 0x20
 3510 08ce BC020000 		.4byte	.LVL201
 3511 08d2 5D040000 		.4byte	0x45d
 3512 08d6 1E       		.uleb128 0x1e
 3513 08d7 01       		.uleb128 0x1
 3514 08d8 50       		.byte	0x50
 3515 08d9 02       		.uleb128 0x2
 3516 08da 75       		.byte	0x75
 3517 08db 00       		.sleb128 0
 3518 08dc 1E       		.uleb128 0x1e
 3519 08dd 01       		.uleb128 0x1
 3520 08de 51       		.byte	0x51
 3521 08df 04       		.uleb128 0x4
 3522 08e0 91       		.byte	0x91
 3523 08e1 B07F     		.sleb128 -80
 3524 08e3 06       		.byte	0x6
 3525 08e4 1E       		.uleb128 0x1e
 3526 08e5 01       		.uleb128 0x1
 3527 08e6 52       		.byte	0x52
 3528 08e7 02       		.uleb128 0x2
 3529 08e8 77       		.byte	0x77
 3530 08e9 00       		.sleb128 0
 3531 08ea 1E       		.uleb128 0x1e
 3532 08eb 01       		.uleb128 0x1
 3533 08ec 53       		.byte	0x53
 3534 08ed 04       		.uleb128 0x4
 3535 08ee 91       		.byte	0x91
 3536 08ef AC7F     		.sleb128 -84
 3537 08f1 06       		.byte	0x6
 3538 08f2 1E       		.uleb128 0x1e
 3539 08f3 02       		.uleb128 0x2
 3540 08f4 7D       		.byte	0x7d
 3541 08f5 0C       		.sleb128 12
 3542 08f6 02       		.uleb128 0x2
 3543 08f7 78       		.byte	0x78
 3544 08f8 00       		.sleb128 0
 3545 08f9 1E       		.uleb128 0x1e
 3546 08fa 02       		.uleb128 0x2
 3547 08fb 7D       		.byte	0x7d
 3548 08fc 10       		.sleb128 16
 3549 08fd 02       		.uleb128 0x2
 3550 08fe 7B       		.byte	0x7b
 3551 08ff 00       		.sleb128 0
ARM GAS  C:\Users\haske\AppData\Local\Temp\ccZHF2NV.s 			page 82


 3552 0900 1E       		.uleb128 0x1e
 3553 0901 02       		.uleb128 0x2
 3554 0902 7D       		.byte	0x7d
 3555 0903 14       		.sleb128 20
 3556 0904 02       		.uleb128 0x2
 3557 0905 76       		.byte	0x76
 3558 0906 00       		.sleb128 0
 3559 0907 00       		.byte	0
 3560 0908 00       		.byte	0
 3561 0909 2F       		.uleb128 0x2f
 3562 090a C0020000 		.4byte	.LBB37
 3563 090e 58000000 		.4byte	.LBE37-.LBB37
 3564 0912 62090000 		.4byte	0x962
 3565 0916 23       		.uleb128 0x23
 3566 0917 C6000000 		.4byte	.LASF35
 3567 091b 01       		.byte	0x1
 3568 091c EA02     		.2byte	0x2ea
 3569 091e 910C0000 		.4byte	0xc91
 3570 0922 86100000 		.4byte	.LLST55
 3571 0926 20       		.uleb128 0x20
 3572 0927 14030000 		.4byte	.LVL207
 3573 092b 5D040000 		.4byte	0x45d
 3574 092f 1E       		.uleb128 0x1e
 3575 0930 01       		.uleb128 0x1
 3576 0931 50       		.byte	0x50
 3577 0932 02       		.uleb128 0x2
 3578 0933 75       		.byte	0x75
 3579 0934 00       		.sleb128 0
 3580 0935 1E       		.uleb128 0x1e
 3581 0936 01       		.uleb128 0x1
 3582 0937 51       		.byte	0x51
 3583 0938 04       		.uleb128 0x4
 3584 0939 91       		.byte	0x91
 3585 093a B07F     		.sleb128 -80
 3586 093c 06       		.byte	0x6
 3587 093d 1E       		.uleb128 0x1e
 3588 093e 01       		.uleb128 0x1
 3589 093f 52       		.byte	0x52
 3590 0940 02       		.uleb128 0x2
 3591 0941 77       		.byte	0x77
 3592 0942 00       		.sleb128 0
 3593 0943 1E       		.uleb128 0x1e
 3594 0944 01       		.uleb128 0x1
 3595 0945 53       		.byte	0x53
 3596 0946 04       		.uleb128 0x4
 3597 0947 91       		.byte	0x91
 3598 0948 AC7F     		.sleb128 -84
 3599 094a 06       		.byte	0x6
 3600 094b 1E       		.uleb128 0x1e
 3601 094c 02       		.uleb128 0x2
 3602 094d 7D       		.byte	0x7d
 3603 094e 0C       		.sleb128 12
 3604 094f 02       		.uleb128 0x2
 3605 0950 78       		.byte	0x78
 3606 0951 00       		.sleb128 0
 3607 0952 1E       		.uleb128 0x1e
 3608 0953 02       		.uleb128 0x2
ARM GAS  C:\Users\haske\AppData\Local\Temp\ccZHF2NV.s 			page 83


 3609 0954 7D       		.byte	0x7d
 3610 0955 10       		.sleb128 16
 3611 0956 02       		.uleb128 0x2
 3612 0957 7B       		.byte	0x7b
 3613 0958 00       		.sleb128 0
 3614 0959 1E       		.uleb128 0x1e
 3615 095a 02       		.uleb128 0x2
 3616 095b 7D       		.byte	0x7d
 3617 095c 14       		.sleb128 20
 3618 095d 02       		.uleb128 0x2
 3619 095e 76       		.byte	0x76
 3620 095f 00       		.sleb128 0
 3621 0960 00       		.byte	0
 3622 0961 00       		.byte	0
 3623 0962 2F       		.uleb128 0x2f
 3624 0963 1C030000 		.4byte	.LBB38
 3625 0967 24000000 		.4byte	.LBE38-.LBB38
 3626 096b B5090000 		.4byte	0x9b5
 3627 096f 2B       		.uleb128 0x2b
 3628 0970 76616600 		.ascii	"vaf\000"
 3629 0974 01       		.byte	0x1
 3630 0975 F102     		.2byte	0x2f1
 3631 0977 A00C0000 		.4byte	0xca0
 3632 097b 99100000 		.4byte	.LLST56
 3633 097f 31       		.uleb128 0x31
 3634 0980 B8020000 		.4byte	.LASF42
 3635 0984 01       		.byte	0x1
 3636 0985 F202     		.2byte	0x2f2
 3637 0987 8F000000 		.4byte	0x8f
 3638 098b 02       		.uleb128 0x2
 3639 098c 91       		.byte	0x91
 3640 098d 54       		.sleb128 -44
 3641 098e 20       		.uleb128 0x20
 3642 098f 3E030000 		.4byte	.LVL213
 3643 0993 07070000 		.4byte	0x707
 3644 0997 1E       		.uleb128 0x1e
 3645 0998 01       		.uleb128 0x1
 3646 0999 50       		.byte	0x50
 3647 099a 02       		.uleb128 0x2
 3648 099b 75       		.byte	0x75
 3649 099c 00       		.sleb128 0
 3650 099d 1E       		.uleb128 0x1e
 3651 099e 01       		.uleb128 0x1
 3652 099f 51       		.byte	0x51
 3653 09a0 07       		.uleb128 0x7
 3654 09a1 91       		.byte	0x91
 3655 09a2 B07F     		.sleb128 -80
 3656 09a4 06       		.byte	0x6
 3657 09a5 77       		.byte	0x77
 3658 09a6 00       		.sleb128 0
 3659 09a7 22       		.byte	0x22
 3660 09a8 1E       		.uleb128 0x1e
 3661 09a9 01       		.uleb128 0x1
 3662 09aa 52       		.byte	0x52
 3663 09ab 07       		.uleb128 0x7
 3664 09ac 91       		.byte	0x91
 3665 09ad AC7F     		.sleb128 -84
ARM GAS  C:\Users\haske\AppData\Local\Temp\ccZHF2NV.s 			page 84


 3666 09af 06       		.byte	0x6
 3667 09b0 77       		.byte	0x77
 3668 09b1 00       		.sleb128 0
 3669 09b2 1C       		.byte	0x1c
 3670 09b3 00       		.byte	0
 3671 09b4 00       		.byte	0
 3672 09b5 2F       		.uleb128 0x2f
 3673 09b6 C4030000 		.4byte	.LBB39
 3674 09ba 52000000 		.4byte	.LBE39-.LBB39
 3675 09be 140A0000 		.4byte	0xa14
 3676 09c2 23       		.uleb128 0x23
 3677 09c3 C6000000 		.4byte	.LASF35
 3678 09c7 01       		.byte	0x1
 3679 09c8 0303     		.2byte	0x303
 3680 09ca A60C0000 		.4byte	0xca6
 3681 09ce AC100000 		.4byte	.LLST57
 3682 09d2 20       		.uleb128 0x20
 3683 09d3 14040000 		.4byte	.LVL227
 3684 09d7 5D040000 		.4byte	0x45d
 3685 09db 1E       		.uleb128 0x1e
 3686 09dc 01       		.uleb128 0x1
 3687 09dd 50       		.byte	0x50
 3688 09de 02       		.uleb128 0x2
 3689 09df 75       		.byte	0x75
 3690 09e0 00       		.sleb128 0
 3691 09e1 1E       		.uleb128 0x1e
 3692 09e2 01       		.uleb128 0x1
 3693 09e3 51       		.byte	0x51
 3694 09e4 04       		.uleb128 0x4
 3695 09e5 91       		.byte	0x91
 3696 09e6 B07F     		.sleb128 -80
 3697 09e8 06       		.byte	0x6
 3698 09e9 1E       		.uleb128 0x1e
 3699 09ea 01       		.uleb128 0x1
 3700 09eb 52       		.byte	0x52
 3701 09ec 02       		.uleb128 0x2
 3702 09ed 77       		.byte	0x77
 3703 09ee 00       		.sleb128 0
 3704 09ef 1E       		.uleb128 0x1e
 3705 09f0 01       		.uleb128 0x1
 3706 09f1 53       		.byte	0x53
 3707 09f2 04       		.uleb128 0x4
 3708 09f3 91       		.byte	0x91
 3709 09f4 AC7F     		.sleb128 -84
 3710 09f6 06       		.byte	0x6
 3711 09f7 1E       		.uleb128 0x1e
 3712 09f8 02       		.uleb128 0x2
 3713 09f9 7D       		.byte	0x7d
 3714 09fa 04       		.sleb128 4
 3715 09fb 01       		.uleb128 0x1
 3716 09fc 30       		.byte	0x30
 3717 09fd 1E       		.uleb128 0x1e
 3718 09fe 02       		.uleb128 0x2
 3719 09ff 7D       		.byte	0x7d
 3720 0a00 0C       		.sleb128 12
 3721 0a01 02       		.uleb128 0x2
 3722 0a02 78       		.byte	0x78
ARM GAS  C:\Users\haske\AppData\Local\Temp\ccZHF2NV.s 			page 85


 3723 0a03 00       		.sleb128 0
 3724 0a04 1E       		.uleb128 0x1e
 3725 0a05 02       		.uleb128 0x2
 3726 0a06 7D       		.byte	0x7d
 3727 0a07 10       		.sleb128 16
 3728 0a08 02       		.uleb128 0x2
 3729 0a09 7B       		.byte	0x7b
 3730 0a0a 00       		.sleb128 0
 3731 0a0b 1E       		.uleb128 0x1e
 3732 0a0c 02       		.uleb128 0x2
 3733 0a0d 7D       		.byte	0x7d
 3734 0a0e 14       		.sleb128 20
 3735 0a0f 02       		.uleb128 0x2
 3736 0a10 76       		.byte	0x76
 3737 0a11 00       		.sleb128 0
 3738 0a12 00       		.byte	0
 3739 0a13 00       		.byte	0
 3740 0a14 32       		.uleb128 0x32
 3741 0a15 90030000 		.4byte	.LVL217
 3742 0a19 B7050000 		.4byte	0x5b7
 3743 0a1d 590A0000 		.4byte	0xa59
 3744 0a21 1E       		.uleb128 0x1e
 3745 0a22 01       		.uleb128 0x1
 3746 0a23 50       		.byte	0x50
 3747 0a24 02       		.uleb128 0x2
 3748 0a25 75       		.byte	0x75
 3749 0a26 00       		.sleb128 0
 3750 0a27 1E       		.uleb128 0x1e
 3751 0a28 01       		.uleb128 0x1
 3752 0a29 51       		.byte	0x51
 3753 0a2a 04       		.uleb128 0x4
 3754 0a2b 91       		.byte	0x91
 3755 0a2c B07F     		.sleb128 -80
 3756 0a2e 06       		.byte	0x6
 3757 0a2f 1E       		.uleb128 0x1e
 3758 0a30 01       		.uleb128 0x1
 3759 0a31 52       		.byte	0x52
 3760 0a32 02       		.uleb128 0x2
 3761 0a33 77       		.byte	0x77
 3762 0a34 00       		.sleb128 0
 3763 0a35 1E       		.uleb128 0x1e
 3764 0a36 01       		.uleb128 0x1
 3765 0a37 53       		.byte	0x53
 3766 0a38 04       		.uleb128 0x4
 3767 0a39 91       		.byte	0x91
 3768 0a3a AC7F     		.sleb128 -84
 3769 0a3c 06       		.byte	0x6
 3770 0a3d 1E       		.uleb128 0x1e
 3771 0a3e 02       		.uleb128 0x2
 3772 0a3f 7D       		.byte	0x7d
 3773 0a40 08       		.sleb128 8
 3774 0a41 01       		.uleb128 0x1
 3775 0a42 30       		.byte	0x30
 3776 0a43 1E       		.uleb128 0x1e
 3777 0a44 02       		.uleb128 0x2
 3778 0a45 7D       		.byte	0x7d
 3779 0a46 18       		.sleb128 24
ARM GAS  C:\Users\haske\AppData\Local\Temp\ccZHF2NV.s 			page 86


 3780 0a47 02       		.uleb128 0x2
 3781 0a48 78       		.byte	0x78
 3782 0a49 00       		.sleb128 0
 3783 0a4a 1E       		.uleb128 0x1e
 3784 0a4b 02       		.uleb128 0x2
 3785 0a4c 7D       		.byte	0x7d
 3786 0a4d 1C       		.sleb128 28
 3787 0a4e 02       		.uleb128 0x2
 3788 0a4f 7B       		.byte	0x7b
 3789 0a50 00       		.sleb128 0
 3790 0a51 1E       		.uleb128 0x1e
 3791 0a52 02       		.uleb128 0x2
 3792 0a53 7D       		.byte	0x7d
 3793 0a54 20       		.sleb128 32
 3794 0a55 02       		.uleb128 0x2
 3795 0a56 76       		.byte	0x76
 3796 0a57 00       		.sleb128 0
 3797 0a58 00       		.byte	0
 3798 0a59 20       		.uleb128 0x20
 3799 0a5a C0030000 		.4byte	.LVL221
 3800 0a5e 5D040000 		.4byte	0x45d
 3801 0a62 1E       		.uleb128 0x1e
 3802 0a63 01       		.uleb128 0x1
 3803 0a64 50       		.byte	0x50
 3804 0a65 02       		.uleb128 0x2
 3805 0a66 75       		.byte	0x75
 3806 0a67 00       		.sleb128 0
 3807 0a68 1E       		.uleb128 0x1e
 3808 0a69 01       		.uleb128 0x1
 3809 0a6a 51       		.byte	0x51
 3810 0a6b 04       		.uleb128 0x4
 3811 0a6c 91       		.byte	0x91
 3812 0a6d B07F     		.sleb128 -80
 3813 0a6f 06       		.byte	0x6
 3814 0a70 1E       		.uleb128 0x1e
 3815 0a71 01       		.uleb128 0x1
 3816 0a72 52       		.byte	0x52
 3817 0a73 02       		.uleb128 0x2
 3818 0a74 77       		.byte	0x77
 3819 0a75 00       		.sleb128 0
 3820 0a76 1E       		.uleb128 0x1e
 3821 0a77 01       		.uleb128 0x1
 3822 0a78 53       		.byte	0x53
 3823 0a79 04       		.uleb128 0x4
 3824 0a7a 91       		.byte	0x91
 3825 0a7b AC7F     		.sleb128 -84
 3826 0a7d 06       		.byte	0x6
 3827 0a7e 1E       		.uleb128 0x1e
 3828 0a7f 02       		.uleb128 0x2
 3829 0a80 7D       		.byte	0x7d
 3830 0a81 04       		.sleb128 4
 3831 0a82 01       		.uleb128 0x1
 3832 0a83 30       		.byte	0x30
 3833 0a84 1E       		.uleb128 0x1e
 3834 0a85 02       		.uleb128 0x2
 3835 0a86 7D       		.byte	0x7d
 3836 0a87 0C       		.sleb128 12
ARM GAS  C:\Users\haske\AppData\Local\Temp\ccZHF2NV.s 			page 87


 3837 0a88 02       		.uleb128 0x2
 3838 0a89 78       		.byte	0x78
 3839 0a8a 00       		.sleb128 0
 3840 0a8b 1E       		.uleb128 0x1e
 3841 0a8c 02       		.uleb128 0x2
 3842 0a8d 7D       		.byte	0x7d
 3843 0a8e 10       		.sleb128 16
 3844 0a8f 02       		.uleb128 0x2
 3845 0a90 7B       		.byte	0x7b
 3846 0a91 00       		.sleb128 0
 3847 0a92 1E       		.uleb128 0x1e
 3848 0a93 02       		.uleb128 0x2
 3849 0a94 7D       		.byte	0x7d
 3850 0a95 14       		.sleb128 20
 3851 0a96 02       		.uleb128 0x2
 3852 0a97 76       		.byte	0x76
 3853 0a98 00       		.sleb128 0
 3854 0a99 00       		.byte	0
 3855 0a9a 00       		.byte	0
 3856 0a9b 2F       		.uleb128 0x2f
 3857 0a9c 1E040000 		.4byte	.LBB40
 3858 0aa0 70000000 		.4byte	.LBE40-.LBB40
 3859 0aa4 1F0B0000 		.4byte	0xb1f
 3860 0aa8 2B       		.uleb128 0x2b
 3861 0aa9 6C00     		.ascii	"l\000"
 3862 0aab 01       		.byte	0x1
 3863 0aac 1F03     		.2byte	0x31f
 3864 0aae 64000000 		.4byte	0x64
 3865 0ab2 CB100000 		.4byte	.LLST58
 3866 0ab6 1F       		.uleb128 0x1f
 3867 0ab7 34040000 		.4byte	.LVL233
 3868 0abb DC0A0000 		.4byte	0xadc
 3869 0abf 1E       		.uleb128 0x1e
 3870 0ac0 01       		.uleb128 0x1
 3871 0ac1 50       		.byte	0x50
 3872 0ac2 02       		.uleb128 0x2
 3873 0ac3 08       		.byte	0x8
 3874 0ac4 20       		.byte	0x20
 3875 0ac5 1E       		.uleb128 0x1e
 3876 0ac6 01       		.uleb128 0x1
 3877 0ac7 51       		.byte	0x51
 3878 0ac8 04       		.uleb128 0x4
 3879 0ac9 91       		.byte	0x91
 3880 0aca B07F     		.sleb128 -80
 3881 0acc 06       		.byte	0x6
 3882 0acd 1E       		.uleb128 0x1e
 3883 0ace 01       		.uleb128 0x1
 3884 0acf 52       		.byte	0x52
 3885 0ad0 02       		.uleb128 0x2
 3886 0ad1 74       		.byte	0x74
 3887 0ad2 7F       		.sleb128 -1
 3888 0ad3 1E       		.uleb128 0x1e
 3889 0ad4 01       		.uleb128 0x1
 3890 0ad5 53       		.byte	0x53
 3891 0ad6 04       		.uleb128 0x4
 3892 0ad7 91       		.byte	0x91
 3893 0ad8 AC7F     		.sleb128 -84
ARM GAS  C:\Users\haske\AppData\Local\Temp\ccZHF2NV.s 			page 88


 3894 0ada 06       		.byte	0x6
 3895 0adb 00       		.byte	0
 3896 0adc 1F       		.uleb128 0x1f
 3897 0add 5C040000 		.4byte	.LVL239
 3898 0ae1 FC0A0000 		.4byte	0xafc
 3899 0ae5 1E       		.uleb128 0x1e
 3900 0ae6 01       		.uleb128 0x1
 3901 0ae7 51       		.byte	0x51
 3902 0ae8 04       		.uleb128 0x4
 3903 0ae9 91       		.byte	0x91
 3904 0aea B07F     		.sleb128 -80
 3905 0aec 06       		.byte	0x6
 3906 0aed 1E       		.uleb128 0x1e
 3907 0aee 01       		.uleb128 0x1
 3908 0aef 52       		.byte	0x52
 3909 0af0 02       		.uleb128 0x2
 3910 0af1 77       		.byte	0x77
 3911 0af2 00       		.sleb128 0
 3912 0af3 1E       		.uleb128 0x1e
 3913 0af4 01       		.uleb128 0x1
 3914 0af5 53       		.byte	0x53
 3915 0af6 04       		.uleb128 0x4
 3916 0af7 91       		.byte	0x91
 3917 0af8 AC7F     		.sleb128 -84
 3918 0afa 06       		.byte	0x6
 3919 0afb 00       		.byte	0
 3920 0afc 1D       		.uleb128 0x1d
 3921 0afd 6E040000 		.4byte	.LVL242
 3922 0b01 1E       		.uleb128 0x1e
 3923 0b02 01       		.uleb128 0x1
 3924 0b03 50       		.byte	0x50
 3925 0b04 02       		.uleb128 0x2
 3926 0b05 08       		.byte	0x8
 3927 0b06 20       		.byte	0x20
 3928 0b07 1E       		.uleb128 0x1e
 3929 0b08 01       		.uleb128 0x1
 3930 0b09 51       		.byte	0x51
 3931 0b0a 04       		.uleb128 0x4
 3932 0b0b 91       		.byte	0x91
 3933 0b0c B07F     		.sleb128 -80
 3934 0b0e 06       		.byte	0x6
 3935 0b0f 1E       		.uleb128 0x1e
 3936 0b10 01       		.uleb128 0x1
 3937 0b11 52       		.byte	0x52
 3938 0b12 02       		.uleb128 0x2
 3939 0b13 77       		.byte	0x77
 3940 0b14 7F       		.sleb128 -1
 3941 0b15 1E       		.uleb128 0x1e
 3942 0b16 01       		.uleb128 0x1
 3943 0b17 53       		.byte	0x53
 3944 0b18 04       		.uleb128 0x4
 3945 0b19 91       		.byte	0x91
 3946 0b1a AC7F     		.sleb128 -84
 3947 0b1c 06       		.byte	0x6
 3948 0b1d 00       		.byte	0
 3949 0b1e 00       		.byte	0
 3950 0b1f 2F       		.uleb128 0x2f
ARM GAS  C:\Users\haske\AppData\Local\Temp\ccZHF2NV.s 			page 89


 3951 0b20 8E040000 		.4byte	.LBB41
 3952 0b24 D4000000 		.4byte	.LBE41-.LBB41
 3953 0b28 E70B0000 		.4byte	0xbe7
 3954 0b2c 2B       		.uleb128 0x2b
 3955 0b2d 7000     		.ascii	"p\000"
 3956 0b2f 01       		.byte	0x1
 3957 0b30 3303     		.2byte	0x333
 3958 0b32 CC000000 		.4byte	0xcc
 3959 0b36 3A110000 		.4byte	.LLST59
 3960 0b3a 2B       		.uleb128 0x2b
 3961 0b3b 6C00     		.ascii	"l\000"
 3962 0b3d 01       		.byte	0x1
 3963 0b3e 3403     		.2byte	0x334
 3964 0b40 64000000 		.4byte	0x64
 3965 0b44 9C110000 		.4byte	.LLST60
 3966 0b48 2E       		.uleb128 0x2e
 3967 0b49 3C010000 		.4byte	0x13c
 3968 0b4d AA040000 		.4byte	.LBB42
 3969 0b51 14000000 		.4byte	.LBE42-.LBB42
 3970 0b55 01       		.byte	0x1
 3971 0b56 3403     		.2byte	0x334
 3972 0b58 7E0B0000 		.4byte	0xb7e
 3973 0b5c 19       		.uleb128 0x19
 3974 0b5d 57010000 		.4byte	0x157
 3975 0b61 12120000 		.4byte	.LLST61
 3976 0b65 33       		.uleb128 0x33
 3977 0b66 4C010000 		.4byte	0x14c
 3978 0b6a 34       		.uleb128 0x34
 3979 0b6b AA040000 		.4byte	.LBB43
 3980 0b6f 14000000 		.4byte	.LBE43-.LBB43
 3981 0b73 35       		.uleb128 0x35
 3982 0b74 62010000 		.4byte	0x162
 3983 0b78 3B120000 		.4byte	.LLST62
 3984 0b7c 00       		.byte	0
 3985 0b7d 00       		.byte	0
 3986 0b7e 1F       		.uleb128 0x1f
 3987 0b7f EE040000 		.4byte	.LVL269
 3988 0b83 A40B0000 		.4byte	0xba4
 3989 0b87 1E       		.uleb128 0x1e
 3990 0b88 01       		.uleb128 0x1
 3991 0b89 50       		.byte	0x50
 3992 0b8a 02       		.uleb128 0x2
 3993 0b8b 08       		.byte	0x8
 3994 0b8c 20       		.byte	0x20
 3995 0b8d 1E       		.uleb128 0x1e
 3996 0b8e 01       		.uleb128 0x1
 3997 0b8f 51       		.byte	0x51
 3998 0b90 04       		.uleb128 0x4
 3999 0b91 91       		.byte	0x91
 4000 0b92 B07F     		.sleb128 -80
 4001 0b94 06       		.byte	0x6
 4002 0b95 1E       		.uleb128 0x1e
 4003 0b96 01       		.uleb128 0x1
 4004 0b97 52       		.byte	0x52
 4005 0b98 02       		.uleb128 0x2
 4006 0b99 77       		.byte	0x77
 4007 0b9a 7F       		.sleb128 -1
ARM GAS  C:\Users\haske\AppData\Local\Temp\ccZHF2NV.s 			page 90


 4008 0b9b 1E       		.uleb128 0x1e
 4009 0b9c 01       		.uleb128 0x1
 4010 0b9d 53       		.byte	0x53
 4011 0b9e 04       		.uleb128 0x4
 4012 0b9f 91       		.byte	0x91
 4013 0ba0 AC7F     		.sleb128 -84
 4014 0ba2 06       		.byte	0x6
 4015 0ba3 00       		.byte	0
 4016 0ba4 1F       		.uleb128 0x1f
 4017 0ba5 1E050000 		.4byte	.LVL282
 4018 0ba9 C40B0000 		.4byte	0xbc4
 4019 0bad 1E       		.uleb128 0x1e
 4020 0bae 01       		.uleb128 0x1
 4021 0baf 51       		.byte	0x51
 4022 0bb0 04       		.uleb128 0x4
 4023 0bb1 91       		.byte	0x91
 4024 0bb2 B07F     		.sleb128 -80
 4025 0bb4 06       		.byte	0x6
 4026 0bb5 1E       		.uleb128 0x1e
 4027 0bb6 01       		.uleb128 0x1
 4028 0bb7 52       		.byte	0x52
 4029 0bb8 02       		.uleb128 0x2
 4030 0bb9 74       		.byte	0x74
 4031 0bba 7F       		.sleb128 -1
 4032 0bbb 1E       		.uleb128 0x1e
 4033 0bbc 01       		.uleb128 0x1
 4034 0bbd 53       		.byte	0x53
 4035 0bbe 04       		.uleb128 0x4
 4036 0bbf 91       		.byte	0x91
 4037 0bc0 AC7F     		.sleb128 -84
 4038 0bc2 06       		.byte	0x6
 4039 0bc3 00       		.byte	0
 4040 0bc4 1D       		.uleb128 0x1d
 4041 0bc5 48050000 		.4byte	.LVL289
 4042 0bc9 1E       		.uleb128 0x1e
 4043 0bca 01       		.uleb128 0x1
 4044 0bcb 50       		.byte	0x50
 4045 0bcc 02       		.uleb128 0x2
 4046 0bcd 08       		.byte	0x8
 4047 0bce 20       		.byte	0x20
 4048 0bcf 1E       		.uleb128 0x1e
 4049 0bd0 01       		.uleb128 0x1
 4050 0bd1 51       		.byte	0x51
 4051 0bd2 04       		.uleb128 0x4
 4052 0bd3 91       		.byte	0x91
 4053 0bd4 B07F     		.sleb128 -80
 4054 0bd6 06       		.byte	0x6
 4055 0bd7 1E       		.uleb128 0x1e
 4056 0bd8 01       		.uleb128 0x1
 4057 0bd9 52       		.byte	0x52
 4058 0bda 02       		.uleb128 0x2
 4059 0bdb 77       		.byte	0x77
 4060 0bdc 7F       		.sleb128 -1
 4061 0bdd 1E       		.uleb128 0x1e
 4062 0bde 01       		.uleb128 0x1
 4063 0bdf 53       		.byte	0x53
 4064 0be0 04       		.uleb128 0x4
ARM GAS  C:\Users\haske\AppData\Local\Temp\ccZHF2NV.s 			page 91


 4065 0be1 91       		.byte	0x91
 4066 0be2 AC7F     		.sleb128 -84
 4067 0be4 06       		.byte	0x6
 4068 0be5 00       		.byte	0
 4069 0be6 00       		.byte	0
 4070 0be7 1F       		.uleb128 0x1f
 4071 0be8 32000000 		.4byte	.LVL122
 4072 0bec 070C0000 		.4byte	0xc07
 4073 0bf0 1E       		.uleb128 0x1e
 4074 0bf1 01       		.uleb128 0x1
 4075 0bf2 51       		.byte	0x51
 4076 0bf3 04       		.uleb128 0x4
 4077 0bf4 91       		.byte	0x91
 4078 0bf5 B07F     		.sleb128 -80
 4079 0bf7 06       		.byte	0x6
 4080 0bf8 1E       		.uleb128 0x1e
 4081 0bf9 01       		.uleb128 0x1
 4082 0bfa 52       		.byte	0x52
 4083 0bfb 02       		.uleb128 0x2
 4084 0bfc 77       		.byte	0x77
 4085 0bfd 00       		.sleb128 0
 4086 0bfe 1E       		.uleb128 0x1e
 4087 0bff 01       		.uleb128 0x1
 4088 0c00 53       		.byte	0x53
 4089 0c01 04       		.uleb128 0x4
 4090 0c02 91       		.byte	0x91
 4091 0c03 AC7F     		.sleb128 -84
 4092 0c05 06       		.byte	0x6
 4093 0c06 00       		.byte	0
 4094 0c07 32       		.uleb128 0x32
 4095 0c08 AA000000 		.4byte	.LVL146
 4096 0c0c 00020000 		.4byte	0x200
 4097 0c10 1B0C0000 		.4byte	0xc1b
 4098 0c14 1E       		.uleb128 0x1e
 4099 0c15 01       		.uleb128 0x1
 4100 0c16 50       		.byte	0x50
 4101 0c17 02       		.uleb128 0x2
 4102 0c18 91       		.byte	0x91
 4103 0c19 4C       		.sleb128 -52
 4104 0c1a 00       		.byte	0
 4105 0c1b 32       		.uleb128 0x32
 4106 0c1c FA000000 		.4byte	.LVL161
 4107 0c20 00020000 		.4byte	0x200
 4108 0c24 2F0C0000 		.4byte	0xc2f
 4109 0c28 1E       		.uleb128 0x1e
 4110 0c29 01       		.uleb128 0x1
 4111 0c2a 50       		.byte	0x50
 4112 0c2b 02       		.uleb128 0x2
 4113 0c2c 91       		.byte	0x91
 4114 0c2d 4C       		.sleb128 -52
 4115 0c2e 00       		.byte	0
 4116 0c2f 1F       		.uleb128 0x1f
 4117 0c30 6E050000 		.4byte	.LVL296
 4118 0c34 550C0000 		.4byte	0xc55
 4119 0c38 1E       		.uleb128 0x1e
 4120 0c39 01       		.uleb128 0x1
 4121 0c3a 50       		.byte	0x50
ARM GAS  C:\Users\haske\AppData\Local\Temp\ccZHF2NV.s 			page 92


 4122 0c3b 02       		.uleb128 0x2
 4123 0c3c 08       		.byte	0x8
 4124 0c3d 25       		.byte	0x25
 4125 0c3e 1E       		.uleb128 0x1e
 4126 0c3f 01       		.uleb128 0x1
 4127 0c40 51       		.byte	0x51
 4128 0c41 04       		.uleb128 0x4
 4129 0c42 91       		.byte	0x91
 4130 0c43 B07F     		.sleb128 -80
 4131 0c45 06       		.byte	0x6
 4132 0c46 1E       		.uleb128 0x1e
 4133 0c47 01       		.uleb128 0x1
 4134 0c48 52       		.byte	0x52
 4135 0c49 02       		.uleb128 0x2
 4136 0c4a 77       		.byte	0x77
 4137 0c4b 00       		.sleb128 0
 4138 0c4c 1E       		.uleb128 0x1e
 4139 0c4d 01       		.uleb128 0x1
 4140 0c4e 53       		.byte	0x53
 4141 0c4f 04       		.uleb128 0x4
 4142 0c50 91       		.byte	0x91
 4143 0c51 AC7F     		.sleb128 -84
 4144 0c53 06       		.byte	0x6
 4145 0c54 00       		.byte	0
 4146 0c55 1F       		.uleb128 0x1f
 4147 0c56 82050000 		.4byte	.LVL299
 4148 0c5a 750C0000 		.4byte	0xc75
 4149 0c5e 1E       		.uleb128 0x1e
 4150 0c5f 01       		.uleb128 0x1
 4151 0c60 51       		.byte	0x51
 4152 0c61 04       		.uleb128 0x4
 4153 0c62 91       		.byte	0x91
 4154 0c63 B07F     		.sleb128 -80
 4155 0c65 06       		.byte	0x6
 4156 0c66 1E       		.uleb128 0x1e
 4157 0c67 01       		.uleb128 0x1
 4158 0c68 52       		.byte	0x52
 4159 0c69 02       		.uleb128 0x2
 4160 0c6a 77       		.byte	0x77
 4161 0c6b 00       		.sleb128 0
 4162 0c6c 1E       		.uleb128 0x1e
 4163 0c6d 01       		.uleb128 0x1
 4164 0c6e 53       		.byte	0x53
 4165 0c6f 04       		.uleb128 0x4
 4166 0c70 91       		.byte	0x91
 4167 0c71 AC7F     		.sleb128 -84
 4168 0c73 06       		.byte	0x6
 4169 0c74 00       		.byte	0
 4170 0c75 1D       		.uleb128 0x1d
 4171 0c76 AA050000 		.4byte	.LVL301
 4172 0c7a 1E       		.uleb128 0x1e
 4173 0c7b 01       		.uleb128 0x1
 4174 0c7c 50       		.byte	0x50
 4175 0c7d 01       		.uleb128 0x1
 4176 0c7e 30       		.byte	0x30
 4177 0c7f 1E       		.uleb128 0x1e
 4178 0c80 01       		.uleb128 0x1
ARM GAS  C:\Users\haske\AppData\Local\Temp\ccZHF2NV.s 			page 93


 4179 0c81 51       		.byte	0x51
 4180 0c82 04       		.uleb128 0x4
 4181 0c83 91       		.byte	0x91
 4182 0c84 B07F     		.sleb128 -80
 4183 0c86 06       		.byte	0x6
 4184 0c87 1E       		.uleb128 0x1e
 4185 0c88 01       		.uleb128 0x1
 4186 0c89 53       		.byte	0x53
 4187 0c8a 04       		.uleb128 0x4
 4188 0c8b 91       		.byte	0x91
 4189 0c8c AC7F     		.sleb128 -84
 4190 0c8e 06       		.byte	0x6
 4191 0c8f 00       		.byte	0
 4192 0c90 00       		.byte	0
 4193 0c91 0B       		.uleb128 0xb
 4194 0c92 5D000000 		.4byte	0x5d
 4195 0c96 0B       		.uleb128 0xb
 4196 0c97 56000000 		.4byte	0x56
 4197 0c9b 0B       		.uleb128 0xb
 4198 0c9c 48000000 		.4byte	0x48
 4199 0ca0 0A       		.uleb128 0xa
 4200 0ca1 04       		.byte	0x4
 4201 0ca2 E4000000 		.4byte	0xe4
 4202 0ca6 0B       		.uleb128 0xb
 4203 0ca7 64000000 		.4byte	0x64
 4204 0cab 36       		.uleb128 0x36
 4205 0cac D6000000 		.4byte	.LASF49
 4206 0cb0 01       		.byte	0x1
 4207 0cb1 6103     		.2byte	0x361
 4208 0cb3 5D000000 		.4byte	0x5d
 4209 0cb7 00000000 		.4byte	.LFB10
 4210 0cbb 28000000 		.4byte	.LFE10-.LFB10
 4211 0cbf 01       		.uleb128 0x1
 4212 0cc0 9C       		.byte	0x9c
 4213 0cc1 410D0000 		.4byte	0xd41
 4214 0cc5 28       		.uleb128 0x28
 4215 0cc6 51020000 		.4byte	.LASF21
 4216 0cca 01       		.byte	0x1
 4217 0ccb 6103     		.2byte	0x361
 4218 0ccd 6A030000 		.4byte	0x36a
 4219 0cd1 4E120000 		.4byte	.LLST63
 4220 0cd5 28       		.uleb128 0x28
 4221 0cd6 A5020000 		.4byte	.LASF43
 4222 0cda 01       		.byte	0x1
 4223 0cdb 6103     		.2byte	0x361
 4224 0cdd 9A000000 		.4byte	0x9a
 4225 0ce1 7A120000 		.4byte	.LLST64
 4226 0ce5 29       		.uleb128 0x29
 4227 0ce6 E5020000 		.4byte	.LASF40
 4228 0cea 01       		.byte	0x1
 4229 0ceb 6103     		.2byte	0x361
 4230 0ced CC000000 		.4byte	0xcc
 4231 0cf1 02       		.uleb128 0x2
 4232 0cf2 91       		.byte	0x91
 4233 0cf3 78       		.sleb128 -8
 4234 0cf4 37       		.uleb128 0x37
 4235 0cf5 2A       		.uleb128 0x2a
ARM GAS  C:\Users\haske\AppData\Local\Temp\ccZHF2NV.s 			page 94


 4236 0cf6 766100   		.ascii	"va\000"
 4237 0cf9 01       		.byte	0x1
 4238 0cfa 6303     		.2byte	0x363
 4239 0cfc 8F000000 		.4byte	0x8f
 4240 0d00 02       		.uleb128 0x2
 4241 0d01 91       		.byte	0x91
 4242 0d02 6C       		.sleb128 -20
 4243 0d03 2A       		.uleb128 0x2a
 4244 0d04 72657400 		.ascii	"ret\000"
 4245 0d08 01       		.byte	0x1
 4246 0d09 6503     		.2byte	0x365
 4247 0d0b 910C0000 		.4byte	0xc91
 4248 0d0f 01       		.uleb128 0x1
 4249 0d10 50       		.byte	0x50
 4250 0d11 20       		.uleb128 0x20
 4251 0d12 18000000 		.4byte	.LVL308
 4252 0d16 07070000 		.4byte	0x707
 4253 0d1a 1E       		.uleb128 0x1e
 4254 0d1b 01       		.uleb128 0x1
 4255 0d1c 50       		.byte	0x50
 4256 0d1d 05       		.uleb128 0x5
 4257 0d1e 03       		.byte	0x3
 4258 0d1f 00000000 		.4byte	_out_buffer
 4259 0d23 1E       		.uleb128 0x1e
 4260 0d24 01       		.uleb128 0x1
 4261 0d25 51       		.byte	0x51
 4262 0d26 03       		.uleb128 0x3
 4263 0d27 F3       		.byte	0xf3
 4264 0d28 01       		.uleb128 0x1
 4265 0d29 50       		.byte	0x50
 4266 0d2a 1E       		.uleb128 0x1e
 4267 0d2b 01       		.uleb128 0x1
 4268 0d2c 52       		.byte	0x52
 4269 0d2d 03       		.uleb128 0x3
 4270 0d2e F3       		.byte	0xf3
 4271 0d2f 01       		.uleb128 0x1
 4272 0d30 51       		.byte	0x51
 4273 0d31 1E       		.uleb128 0x1e
 4274 0d32 01       		.uleb128 0x1
 4275 0d33 53       		.byte	0x53
 4276 0d34 03       		.uleb128 0x3
 4277 0d35 74       		.byte	0x74
 4278 0d36 7C       		.sleb128 -4
 4279 0d37 06       		.byte	0x6
 4280 0d38 1E       		.uleb128 0x1e
 4281 0d39 02       		.uleb128 0x2
 4282 0d3a 7D       		.byte	0x7d
 4283 0d3b 00       		.sleb128 0
 4284 0d3c 02       		.uleb128 0x2
 4285 0d3d 74       		.byte	0x74
 4286 0d3e 00       		.sleb128 0
 4287 0d3f 00       		.byte	0
 4288 0d40 00       		.byte	0
 4289 0d41 38       		.uleb128 0x38
 4290 0d42 63020000 		.4byte	.LASF50
 4291 0d46 01       		.byte	0x1
 4292 0d47 6A03     		.2byte	0x36a
ARM GAS  C:\Users\haske\AppData\Local\Temp\ccZHF2NV.s 			page 95


 4293 0d49 5D000000 		.4byte	0x5d
 4294 0d4d 00000000 		.4byte	.LFB11
 4295 0d51 1C000000 		.4byte	.LFE11-.LFB11
 4296 0d55 01       		.uleb128 0x1
 4297 0d56 9C       		.byte	0x9c
 4298 0d57 28       		.uleb128 0x28
 4299 0d58 51020000 		.4byte	.LASF21
 4300 0d5c 01       		.byte	0x1
 4301 0d5d 6A03     		.2byte	0x36a
 4302 0d5f 6A030000 		.4byte	0x36a
 4303 0d63 A6120000 		.4byte	.LLST65
 4304 0d67 28       		.uleb128 0x28
 4305 0d68 A5020000 		.4byte	.LASF43
 4306 0d6c 01       		.byte	0x1
 4307 0d6d 6A03     		.2byte	0x36a
 4308 0d6f 9A000000 		.4byte	0x9a
 4309 0d73 D2120000 		.4byte	.LLST66
 4310 0d77 28       		.uleb128 0x28
 4311 0d78 E5020000 		.4byte	.LASF40
 4312 0d7c 01       		.byte	0x1
 4313 0d7d 6A03     		.2byte	0x36a
 4314 0d7f CC000000 		.4byte	0xcc
 4315 0d83 FE120000 		.4byte	.LLST67
 4316 0d87 27       		.uleb128 0x27
 4317 0d88 766100   		.ascii	"va\000"
 4318 0d8b 01       		.byte	0x1
 4319 0d8c 6A03     		.2byte	0x36a
 4320 0d8e 8F000000 		.4byte	0x8f
 4321 0d92 2A130000 		.4byte	.LLST68
 4322 0d96 20       		.uleb128 0x20
 4323 0d97 12000000 		.4byte	.LVL314
 4324 0d9b 07070000 		.4byte	0x707
 4325 0d9f 1E       		.uleb128 0x1e
 4326 0da0 01       		.uleb128 0x1
 4327 0da1 50       		.byte	0x50
 4328 0da2 05       		.uleb128 0x5
 4329 0da3 03       		.byte	0x3
 4330 0da4 00000000 		.4byte	_out_buffer
 4331 0da8 1E       		.uleb128 0x1e
 4332 0da9 01       		.uleb128 0x1
 4333 0daa 51       		.byte	0x51
 4334 0dab 03       		.uleb128 0x3
 4335 0dac F3       		.byte	0xf3
 4336 0dad 01       		.uleb128 0x1
 4337 0dae 50       		.byte	0x50
 4338 0daf 1E       		.uleb128 0x1e
 4339 0db0 01       		.uleb128 0x1
 4340 0db1 52       		.byte	0x52
 4341 0db2 03       		.uleb128 0x3
 4342 0db3 F3       		.byte	0xf3
 4343 0db4 01       		.uleb128 0x1
 4344 0db5 51       		.byte	0x51
 4345 0db6 1E       		.uleb128 0x1e
 4346 0db7 01       		.uleb128 0x1
 4347 0db8 53       		.byte	0x53
 4348 0db9 03       		.uleb128 0x3
 4349 0dba F3       		.byte	0xf3
ARM GAS  C:\Users\haske\AppData\Local\Temp\ccZHF2NV.s 			page 96


 4350 0dbb 01       		.uleb128 0x1
 4351 0dbc 52       		.byte	0x52
 4352 0dbd 00       		.byte	0
 4353 0dbe 00       		.byte	0
 4354 0dbf 00       		.byte	0
 4355              		.section	.debug_abbrev,"",%progbits
 4356              	.Ldebug_abbrev0:
 4357 0000 01       		.uleb128 0x1
 4358 0001 11       		.uleb128 0x11
 4359 0002 01       		.byte	0x1
 4360 0003 25       		.uleb128 0x25
 4361 0004 0E       		.uleb128 0xe
 4362 0005 13       		.uleb128 0x13
 4363 0006 0B       		.uleb128 0xb
 4364 0007 03       		.uleb128 0x3
 4365 0008 0E       		.uleb128 0xe
 4366 0009 1B       		.uleb128 0x1b
 4367 000a 0E       		.uleb128 0xe
 4368 000b 55       		.uleb128 0x55
 4369 000c 17       		.uleb128 0x17
 4370 000d 11       		.uleb128 0x11
 4371 000e 01       		.uleb128 0x1
 4372 000f 10       		.uleb128 0x10
 4373 0010 17       		.uleb128 0x17
 4374 0011 00       		.byte	0
 4375 0012 00       		.byte	0
 4376 0013 02       		.uleb128 0x2
 4377 0014 24       		.uleb128 0x24
 4378 0015 00       		.byte	0
 4379 0016 0B       		.uleb128 0xb
 4380 0017 0B       		.uleb128 0xb
 4381 0018 3E       		.uleb128 0x3e
 4382 0019 0B       		.uleb128 0xb
 4383 001a 03       		.uleb128 0x3
 4384 001b 0E       		.uleb128 0xe
 4385 001c 00       		.byte	0
 4386 001d 00       		.byte	0
 4387 001e 03       		.uleb128 0x3
 4388 001f 24       		.uleb128 0x24
 4389 0020 00       		.byte	0
 4390 0021 0B       		.uleb128 0xb
 4391 0022 0B       		.uleb128 0xb
 4392 0023 3E       		.uleb128 0x3e
 4393 0024 0B       		.uleb128 0xb
 4394 0025 03       		.uleb128 0x3
 4395 0026 08       		.uleb128 0x8
 4396 0027 00       		.byte	0
 4397 0028 00       		.byte	0
 4398 0029 04       		.uleb128 0x4
 4399 002a 16       		.uleb128 0x16
 4400 002b 00       		.byte	0
 4401 002c 03       		.uleb128 0x3
 4402 002d 0E       		.uleb128 0xe
 4403 002e 3A       		.uleb128 0x3a
 4404 002f 0B       		.uleb128 0xb
 4405 0030 3B       		.uleb128 0x3b
 4406 0031 0B       		.uleb128 0xb
ARM GAS  C:\Users\haske\AppData\Local\Temp\ccZHF2NV.s 			page 97


 4407 0032 49       		.uleb128 0x49
 4408 0033 13       		.uleb128 0x13
 4409 0034 00       		.byte	0
 4410 0035 00       		.byte	0
 4411 0036 05       		.uleb128 0x5
 4412 0037 13       		.uleb128 0x13
 4413 0038 01       		.byte	0x1
 4414 0039 03       		.uleb128 0x3
 4415 003a 0E       		.uleb128 0xe
 4416 003b 0B       		.uleb128 0xb
 4417 003c 0B       		.uleb128 0xb
 4418 003d 3A       		.uleb128 0x3a
 4419 003e 0B       		.uleb128 0xb
 4420 003f 3B       		.uleb128 0x3b
 4421 0040 0B       		.uleb128 0xb
 4422 0041 01       		.uleb128 0x1
 4423 0042 13       		.uleb128 0x13
 4424 0043 00       		.byte	0
 4425 0044 00       		.byte	0
 4426 0045 06       		.uleb128 0x6
 4427 0046 0D       		.uleb128 0xd
 4428 0047 00       		.byte	0
 4429 0048 03       		.uleb128 0x3
 4430 0049 0E       		.uleb128 0xe
 4431 004a 49       		.uleb128 0x49
 4432 004b 13       		.uleb128 0x13
 4433 004c 38       		.uleb128 0x38
 4434 004d 0B       		.uleb128 0xb
 4435 004e 34       		.uleb128 0x34
 4436 004f 19       		.uleb128 0x19
 4437 0050 00       		.byte	0
 4438 0051 00       		.byte	0
 4439 0052 07       		.uleb128 0x7
 4440 0053 0F       		.uleb128 0xf
 4441 0054 00       		.byte	0
 4442 0055 0B       		.uleb128 0xb
 4443 0056 0B       		.uleb128 0xb
 4444 0057 00       		.byte	0
 4445 0058 00       		.byte	0
 4446 0059 08       		.uleb128 0x8
 4447 005a 13       		.uleb128 0x13
 4448 005b 01       		.byte	0x1
 4449 005c 0B       		.uleb128 0xb
 4450 005d 0B       		.uleb128 0xb
 4451 005e 3A       		.uleb128 0x3a
 4452 005f 0B       		.uleb128 0xb
 4453 0060 3B       		.uleb128 0x3b
 4454 0061 0B       		.uleb128 0xb
 4455 0062 01       		.uleb128 0x1
 4456 0063 13       		.uleb128 0x13
 4457 0064 00       		.byte	0
 4458 0065 00       		.byte	0
 4459 0066 09       		.uleb128 0x9
 4460 0067 0D       		.uleb128 0xd
 4461 0068 00       		.byte	0
 4462 0069 03       		.uleb128 0x3
 4463 006a 08       		.uleb128 0x8
ARM GAS  C:\Users\haske\AppData\Local\Temp\ccZHF2NV.s 			page 98


 4464 006b 3A       		.uleb128 0x3a
 4465 006c 0B       		.uleb128 0xb
 4466 006d 3B       		.uleb128 0x3b
 4467 006e 0B       		.uleb128 0xb
 4468 006f 49       		.uleb128 0x49
 4469 0070 13       		.uleb128 0x13
 4470 0071 38       		.uleb128 0x38
 4471 0072 0B       		.uleb128 0xb
 4472 0073 00       		.byte	0
 4473 0074 00       		.byte	0
 4474 0075 0A       		.uleb128 0xa
 4475 0076 0F       		.uleb128 0xf
 4476 0077 00       		.byte	0
 4477 0078 0B       		.uleb128 0xb
 4478 0079 0B       		.uleb128 0xb
 4479 007a 49       		.uleb128 0x49
 4480 007b 13       		.uleb128 0x13
 4481 007c 00       		.byte	0
 4482 007d 00       		.byte	0
 4483 007e 0B       		.uleb128 0xb
 4484 007f 26       		.uleb128 0x26
 4485 0080 00       		.byte	0
 4486 0081 49       		.uleb128 0x49
 4487 0082 13       		.uleb128 0x13
 4488 0083 00       		.byte	0
 4489 0084 00       		.byte	0
 4490 0085 0C       		.uleb128 0xc
 4491 0086 15       		.uleb128 0x15
 4492 0087 01       		.byte	0x1
 4493 0088 27       		.uleb128 0x27
 4494 0089 19       		.uleb128 0x19
 4495 008a 01       		.uleb128 0x1
 4496 008b 13       		.uleb128 0x13
 4497 008c 00       		.byte	0
 4498 008d 00       		.byte	0
 4499 008e 0D       		.uleb128 0xd
 4500 008f 05       		.uleb128 0x5
 4501 0090 00       		.byte	0
 4502 0091 49       		.uleb128 0x49
 4503 0092 13       		.uleb128 0x13
 4504 0093 00       		.byte	0
 4505 0094 00       		.byte	0
 4506 0095 0E       		.uleb128 0xe
 4507 0096 2E       		.uleb128 0x2e
 4508 0097 01       		.byte	0x1
 4509 0098 03       		.uleb128 0x3
 4510 0099 0E       		.uleb128 0xe
 4511 009a 3A       		.uleb128 0x3a
 4512 009b 0B       		.uleb128 0xb
 4513 009c 3B       		.uleb128 0x3b
 4514 009d 0B       		.uleb128 0xb
 4515 009e 27       		.uleb128 0x27
 4516 009f 19       		.uleb128 0x19
 4517 00a0 49       		.uleb128 0x49
 4518 00a1 13       		.uleb128 0x13
 4519 00a2 20       		.uleb128 0x20
 4520 00a3 0B       		.uleb128 0xb
ARM GAS  C:\Users\haske\AppData\Local\Temp\ccZHF2NV.s 			page 99


 4521 00a4 01       		.uleb128 0x1
 4522 00a5 13       		.uleb128 0x13
 4523 00a6 00       		.byte	0
 4524 00a7 00       		.byte	0
 4525 00a8 0F       		.uleb128 0xf
 4526 00a9 05       		.uleb128 0x5
 4527 00aa 00       		.byte	0
 4528 00ab 03       		.uleb128 0x3
 4529 00ac 08       		.uleb128 0x8
 4530 00ad 3A       		.uleb128 0x3a
 4531 00ae 0B       		.uleb128 0xb
 4532 00af 3B       		.uleb128 0x3b
 4533 00b0 0B       		.uleb128 0xb
 4534 00b1 49       		.uleb128 0x49
 4535 00b2 13       		.uleb128 0x13
 4536 00b3 00       		.byte	0
 4537 00b4 00       		.byte	0
 4538 00b5 10       		.uleb128 0x10
 4539 00b6 05       		.uleb128 0x5
 4540 00b7 00       		.byte	0
 4541 00b8 03       		.uleb128 0x3
 4542 00b9 0E       		.uleb128 0xe
 4543 00ba 3A       		.uleb128 0x3a
 4544 00bb 0B       		.uleb128 0xb
 4545 00bc 3B       		.uleb128 0x3b
 4546 00bd 0B       		.uleb128 0xb
 4547 00be 49       		.uleb128 0x49
 4548 00bf 13       		.uleb128 0x13
 4549 00c0 00       		.byte	0
 4550 00c1 00       		.byte	0
 4551 00c2 11       		.uleb128 0x11
 4552 00c3 34       		.uleb128 0x34
 4553 00c4 00       		.byte	0
 4554 00c5 03       		.uleb128 0x3
 4555 00c6 08       		.uleb128 0x8
 4556 00c7 3A       		.uleb128 0x3a
 4557 00c8 0B       		.uleb128 0xb
 4558 00c9 3B       		.uleb128 0x3b
 4559 00ca 0B       		.uleb128 0xb
 4560 00cb 49       		.uleb128 0x49
 4561 00cc 13       		.uleb128 0x13
 4562 00cd 00       		.byte	0
 4563 00ce 00       		.byte	0
 4564 00cf 12       		.uleb128 0x12
 4565 00d0 2E       		.uleb128 0x2e
 4566 00d1 01       		.byte	0x1
 4567 00d2 03       		.uleb128 0x3
 4568 00d3 0E       		.uleb128 0xe
 4569 00d4 3A       		.uleb128 0x3a
 4570 00d5 0B       		.uleb128 0xb
 4571 00d6 3B       		.uleb128 0x3b
 4572 00d7 0B       		.uleb128 0xb
 4573 00d8 27       		.uleb128 0x27
 4574 00d9 19       		.uleb128 0x19
 4575 00da 11       		.uleb128 0x11
 4576 00db 01       		.uleb128 0x1
 4577 00dc 12       		.uleb128 0x12
ARM GAS  C:\Users\haske\AppData\Local\Temp\ccZHF2NV.s 			page 100


 4578 00dd 06       		.uleb128 0x6
 4579 00de 40       		.uleb128 0x40
 4580 00df 18       		.uleb128 0x18
 4581 00e0 9742     		.uleb128 0x2117
 4582 00e2 19       		.uleb128 0x19
 4583 00e3 01       		.uleb128 0x1
 4584 00e4 13       		.uleb128 0x13
 4585 00e5 00       		.byte	0
 4586 00e6 00       		.byte	0
 4587 00e7 13       		.uleb128 0x13
 4588 00e8 05       		.uleb128 0x5
 4589 00e9 00       		.byte	0
 4590 00ea 03       		.uleb128 0x3
 4591 00eb 0E       		.uleb128 0xe
 4592 00ec 3A       		.uleb128 0x3a
 4593 00ed 0B       		.uleb128 0xb
 4594 00ee 3B       		.uleb128 0x3b
 4595 00ef 0B       		.uleb128 0xb
 4596 00f0 49       		.uleb128 0x49
 4597 00f1 13       		.uleb128 0x13
 4598 00f2 02       		.uleb128 0x2
 4599 00f3 18       		.uleb128 0x18
 4600 00f4 00       		.byte	0
 4601 00f5 00       		.byte	0
 4602 00f6 14       		.uleb128 0x14
 4603 00f7 05       		.uleb128 0x5
 4604 00f8 00       		.byte	0
 4605 00f9 03       		.uleb128 0x3
 4606 00fa 08       		.uleb128 0x8
 4607 00fb 3A       		.uleb128 0x3a
 4608 00fc 0B       		.uleb128 0xb
 4609 00fd 3B       		.uleb128 0x3b
 4610 00fe 0B       		.uleb128 0xb
 4611 00ff 49       		.uleb128 0x49
 4612 0100 13       		.uleb128 0x13
 4613 0101 02       		.uleb128 0x2
 4614 0102 18       		.uleb128 0x18
 4615 0103 00       		.byte	0
 4616 0104 00       		.byte	0
 4617 0105 15       		.uleb128 0x15
 4618 0106 2E       		.uleb128 0x2e
 4619 0107 01       		.byte	0x1
 4620 0108 03       		.uleb128 0x3
 4621 0109 0E       		.uleb128 0xe
 4622 010a 3A       		.uleb128 0x3a
 4623 010b 0B       		.uleb128 0xb
 4624 010c 3B       		.uleb128 0x3b
 4625 010d 0B       		.uleb128 0xb
 4626 010e 27       		.uleb128 0x27
 4627 010f 19       		.uleb128 0x19
 4628 0110 49       		.uleb128 0x49
 4629 0111 13       		.uleb128 0x13
 4630 0112 11       		.uleb128 0x11
 4631 0113 01       		.uleb128 0x1
 4632 0114 12       		.uleb128 0x12
 4633 0115 06       		.uleb128 0x6
 4634 0116 40       		.uleb128 0x40
ARM GAS  C:\Users\haske\AppData\Local\Temp\ccZHF2NV.s 			page 101


 4635 0117 18       		.uleb128 0x18
 4636 0118 9742     		.uleb128 0x2117
 4637 011a 19       		.uleb128 0x19
 4638 011b 01       		.uleb128 0x1
 4639 011c 13       		.uleb128 0x13
 4640 011d 00       		.byte	0
 4641 011e 00       		.byte	0
 4642 011f 16       		.uleb128 0x16
 4643 0120 05       		.uleb128 0x5
 4644 0121 00       		.byte	0
 4645 0122 03       		.uleb128 0x3
 4646 0123 08       		.uleb128 0x8
 4647 0124 3A       		.uleb128 0x3a
 4648 0125 0B       		.uleb128 0xb
 4649 0126 3B       		.uleb128 0x3b
 4650 0127 0B       		.uleb128 0xb
 4651 0128 49       		.uleb128 0x49
 4652 0129 13       		.uleb128 0x13
 4653 012a 02       		.uleb128 0x2
 4654 012b 17       		.uleb128 0x17
 4655 012c 00       		.byte	0
 4656 012d 00       		.byte	0
 4657 012e 17       		.uleb128 0x17
 4658 012f 34       		.uleb128 0x34
 4659 0130 00       		.byte	0
 4660 0131 03       		.uleb128 0x3
 4661 0132 08       		.uleb128 0x8
 4662 0133 3A       		.uleb128 0x3a
 4663 0134 0B       		.uleb128 0xb
 4664 0135 3B       		.uleb128 0x3b
 4665 0136 0B       		.uleb128 0xb
 4666 0137 49       		.uleb128 0x49
 4667 0138 13       		.uleb128 0x13
 4668 0139 02       		.uleb128 0x2
 4669 013a 17       		.uleb128 0x17
 4670 013b 00       		.byte	0
 4671 013c 00       		.byte	0
 4672 013d 18       		.uleb128 0x18
 4673 013e 1D       		.uleb128 0x1d
 4674 013f 01       		.byte	0x1
 4675 0140 31       		.uleb128 0x31
 4676 0141 13       		.uleb128 0x13
 4677 0142 11       		.uleb128 0x11
 4678 0143 01       		.uleb128 0x1
 4679 0144 12       		.uleb128 0x12
 4680 0145 06       		.uleb128 0x6
 4681 0146 58       		.uleb128 0x58
 4682 0147 0B       		.uleb128 0xb
 4683 0148 59       		.uleb128 0x59
 4684 0149 0B       		.uleb128 0xb
 4685 014a 00       		.byte	0
 4686 014b 00       		.byte	0
 4687 014c 19       		.uleb128 0x19
 4688 014d 05       		.uleb128 0x5
 4689 014e 00       		.byte	0
 4690 014f 31       		.uleb128 0x31
 4691 0150 13       		.uleb128 0x13
ARM GAS  C:\Users\haske\AppData\Local\Temp\ccZHF2NV.s 			page 102


 4692 0151 02       		.uleb128 0x2
 4693 0152 17       		.uleb128 0x17
 4694 0153 00       		.byte	0
 4695 0154 00       		.byte	0
 4696 0155 1A       		.uleb128 0x1a
 4697 0156 05       		.uleb128 0x5
 4698 0157 00       		.byte	0
 4699 0158 03       		.uleb128 0x3
 4700 0159 0E       		.uleb128 0xe
 4701 015a 3A       		.uleb128 0x3a
 4702 015b 0B       		.uleb128 0xb
 4703 015c 3B       		.uleb128 0x3b
 4704 015d 0B       		.uleb128 0xb
 4705 015e 49       		.uleb128 0x49
 4706 015f 13       		.uleb128 0x13
 4707 0160 02       		.uleb128 0x2
 4708 0161 17       		.uleb128 0x17
 4709 0162 00       		.byte	0
 4710 0163 00       		.byte	0
 4711 0164 1B       		.uleb128 0x1b
 4712 0165 34       		.uleb128 0x34
 4713 0166 00       		.byte	0
 4714 0167 03       		.uleb128 0x3
 4715 0168 0E       		.uleb128 0xe
 4716 0169 3A       		.uleb128 0x3a
 4717 016a 0B       		.uleb128 0xb
 4718 016b 3B       		.uleb128 0x3b
 4719 016c 0B       		.uleb128 0xb
 4720 016d 49       		.uleb128 0x49
 4721 016e 13       		.uleb128 0x13
 4722 016f 02       		.uleb128 0x2
 4723 0170 17       		.uleb128 0x17
 4724 0171 00       		.byte	0
 4725 0172 00       		.byte	0
 4726 0173 1C       		.uleb128 0x1c
 4727 0174 0B       		.uleb128 0xb
 4728 0175 01       		.byte	0x1
 4729 0176 55       		.uleb128 0x55
 4730 0177 17       		.uleb128 0x17
 4731 0178 01       		.uleb128 0x1
 4732 0179 13       		.uleb128 0x13
 4733 017a 00       		.byte	0
 4734 017b 00       		.byte	0
 4735 017c 1D       		.uleb128 0x1d
 4736 017d 898201   		.uleb128 0x4109
 4737 0180 01       		.byte	0x1
 4738 0181 11       		.uleb128 0x11
 4739 0182 01       		.uleb128 0x1
 4740 0183 00       		.byte	0
 4741 0184 00       		.byte	0
 4742 0185 1E       		.uleb128 0x1e
 4743 0186 8A8201   		.uleb128 0x410a
 4744 0189 00       		.byte	0
 4745 018a 02       		.uleb128 0x2
 4746 018b 18       		.uleb128 0x18
 4747 018c 9142     		.uleb128 0x2111
 4748 018e 18       		.uleb128 0x18
ARM GAS  C:\Users\haske\AppData\Local\Temp\ccZHF2NV.s 			page 103


 4749 018f 00       		.byte	0
 4750 0190 00       		.byte	0
 4751 0191 1F       		.uleb128 0x1f
 4752 0192 898201   		.uleb128 0x4109
 4753 0195 01       		.byte	0x1
 4754 0196 11       		.uleb128 0x11
 4755 0197 01       		.uleb128 0x1
 4756 0198 01       		.uleb128 0x1
 4757 0199 13       		.uleb128 0x13
 4758 019a 00       		.byte	0
 4759 019b 00       		.byte	0
 4760 019c 20       		.uleb128 0x20
 4761 019d 898201   		.uleb128 0x4109
 4762 01a0 01       		.byte	0x1
 4763 01a1 11       		.uleb128 0x11
 4764 01a2 01       		.uleb128 0x1
 4765 01a3 31       		.uleb128 0x31
 4766 01a4 13       		.uleb128 0x13
 4767 01a5 00       		.byte	0
 4768 01a6 00       		.byte	0
 4769 01a7 21       		.uleb128 0x21
 4770 01a8 2E       		.uleb128 0x2e
 4771 01a9 01       		.byte	0x1
 4772 01aa 03       		.uleb128 0x3
 4773 01ab 0E       		.uleb128 0xe
 4774 01ac 3A       		.uleb128 0x3a
 4775 01ad 0B       		.uleb128 0xb
 4776 01ae 3B       		.uleb128 0x3b
 4777 01af 0B       		.uleb128 0xb
 4778 01b0 27       		.uleb128 0x27
 4779 01b1 19       		.uleb128 0x19
 4780 01b2 49       		.uleb128 0x49
 4781 01b3 13       		.uleb128 0x13
 4782 01b4 11       		.uleb128 0x11
 4783 01b5 01       		.uleb128 0x1
 4784 01b6 12       		.uleb128 0x12
 4785 01b7 06       		.uleb128 0x6
 4786 01b8 40       		.uleb128 0x40
 4787 01b9 18       		.uleb128 0x18
 4788 01ba 9642     		.uleb128 0x2116
 4789 01bc 19       		.uleb128 0x19
 4790 01bd 01       		.uleb128 0x1
 4791 01be 13       		.uleb128 0x13
 4792 01bf 00       		.byte	0
 4793 01c0 00       		.byte	0
 4794 01c1 22       		.uleb128 0x22
 4795 01c2 34       		.uleb128 0x34
 4796 01c3 00       		.byte	0
 4797 01c4 03       		.uleb128 0x3
 4798 01c5 08       		.uleb128 0x8
 4799 01c6 3A       		.uleb128 0x3a
 4800 01c7 0B       		.uleb128 0xb
 4801 01c8 3B       		.uleb128 0x3b
 4802 01c9 0B       		.uleb128 0xb
 4803 01ca 49       		.uleb128 0x49
 4804 01cb 13       		.uleb128 0x13
 4805 01cc 02       		.uleb128 0x2
ARM GAS  C:\Users\haske\AppData\Local\Temp\ccZHF2NV.s 			page 104


 4806 01cd 18       		.uleb128 0x18
 4807 01ce 00       		.byte	0
 4808 01cf 00       		.byte	0
 4809 01d0 23       		.uleb128 0x23
 4810 01d1 34       		.uleb128 0x34
 4811 01d2 00       		.byte	0
 4812 01d3 03       		.uleb128 0x3
 4813 01d4 0E       		.uleb128 0xe
 4814 01d5 3A       		.uleb128 0x3a
 4815 01d6 0B       		.uleb128 0xb
 4816 01d7 3B       		.uleb128 0x3b
 4817 01d8 05       		.uleb128 0x5
 4818 01d9 49       		.uleb128 0x49
 4819 01da 13       		.uleb128 0x13
 4820 01db 02       		.uleb128 0x2
 4821 01dc 17       		.uleb128 0x17
 4822 01dd 00       		.byte	0
 4823 01de 00       		.byte	0
 4824 01df 24       		.uleb128 0x24
 4825 01e0 01       		.uleb128 0x1
 4826 01e1 01       		.byte	0x1
 4827 01e2 49       		.uleb128 0x49
 4828 01e3 13       		.uleb128 0x13
 4829 01e4 01       		.uleb128 0x1
 4830 01e5 13       		.uleb128 0x13
 4831 01e6 00       		.byte	0
 4832 01e7 00       		.byte	0
 4833 01e8 25       		.uleb128 0x25
 4834 01e9 21       		.uleb128 0x21
 4835 01ea 00       		.byte	0
 4836 01eb 49       		.uleb128 0x49
 4837 01ec 13       		.uleb128 0x13
 4838 01ed 2F       		.uleb128 0x2f
 4839 01ee 0B       		.uleb128 0xb
 4840 01ef 00       		.byte	0
 4841 01f0 00       		.byte	0
 4842 01f1 26       		.uleb128 0x26
 4843 01f2 2E       		.uleb128 0x2e
 4844 01f3 01       		.byte	0x1
 4845 01f4 03       		.uleb128 0x3
 4846 01f5 0E       		.uleb128 0xe
 4847 01f6 3A       		.uleb128 0x3a
 4848 01f7 0B       		.uleb128 0xb
 4849 01f8 3B       		.uleb128 0x3b
 4850 01f9 05       		.uleb128 0x5
 4851 01fa 27       		.uleb128 0x27
 4852 01fb 19       		.uleb128 0x19
 4853 01fc 49       		.uleb128 0x49
 4854 01fd 13       		.uleb128 0x13
 4855 01fe 11       		.uleb128 0x11
 4856 01ff 01       		.uleb128 0x1
 4857 0200 12       		.uleb128 0x12
 4858 0201 06       		.uleb128 0x6
 4859 0202 40       		.uleb128 0x40
 4860 0203 18       		.uleb128 0x18
 4861 0204 9642     		.uleb128 0x2116
 4862 0206 19       		.uleb128 0x19
ARM GAS  C:\Users\haske\AppData\Local\Temp\ccZHF2NV.s 			page 105


 4863 0207 01       		.uleb128 0x1
 4864 0208 13       		.uleb128 0x13
 4865 0209 00       		.byte	0
 4866 020a 00       		.byte	0
 4867 020b 27       		.uleb128 0x27
 4868 020c 05       		.uleb128 0x5
 4869 020d 00       		.byte	0
 4870 020e 03       		.uleb128 0x3
 4871 020f 08       		.uleb128 0x8
 4872 0210 3A       		.uleb128 0x3a
 4873 0211 0B       		.uleb128 0xb
 4874 0212 3B       		.uleb128 0x3b
 4875 0213 05       		.uleb128 0x5
 4876 0214 49       		.uleb128 0x49
 4877 0215 13       		.uleb128 0x13
 4878 0216 02       		.uleb128 0x2
 4879 0217 17       		.uleb128 0x17
 4880 0218 00       		.byte	0
 4881 0219 00       		.byte	0
 4882 021a 28       		.uleb128 0x28
 4883 021b 05       		.uleb128 0x5
 4884 021c 00       		.byte	0
 4885 021d 03       		.uleb128 0x3
 4886 021e 0E       		.uleb128 0xe
 4887 021f 3A       		.uleb128 0x3a
 4888 0220 0B       		.uleb128 0xb
 4889 0221 3B       		.uleb128 0x3b
 4890 0222 05       		.uleb128 0x5
 4891 0223 49       		.uleb128 0x49
 4892 0224 13       		.uleb128 0x13
 4893 0225 02       		.uleb128 0x2
 4894 0226 17       		.uleb128 0x17
 4895 0227 00       		.byte	0
 4896 0228 00       		.byte	0
 4897 0229 29       		.uleb128 0x29
 4898 022a 05       		.uleb128 0x5
 4899 022b 00       		.byte	0
 4900 022c 03       		.uleb128 0x3
 4901 022d 0E       		.uleb128 0xe
 4902 022e 3A       		.uleb128 0x3a
 4903 022f 0B       		.uleb128 0xb
 4904 0230 3B       		.uleb128 0x3b
 4905 0231 05       		.uleb128 0x5
 4906 0232 49       		.uleb128 0x49
 4907 0233 13       		.uleb128 0x13
 4908 0234 02       		.uleb128 0x2
 4909 0235 18       		.uleb128 0x18
 4910 0236 00       		.byte	0
 4911 0237 00       		.byte	0
 4912 0238 2A       		.uleb128 0x2a
 4913 0239 34       		.uleb128 0x34
 4914 023a 00       		.byte	0
 4915 023b 03       		.uleb128 0x3
 4916 023c 08       		.uleb128 0x8
 4917 023d 3A       		.uleb128 0x3a
 4918 023e 0B       		.uleb128 0xb
 4919 023f 3B       		.uleb128 0x3b
ARM GAS  C:\Users\haske\AppData\Local\Temp\ccZHF2NV.s 			page 106


 4920 0240 05       		.uleb128 0x5
 4921 0241 49       		.uleb128 0x49
 4922 0242 13       		.uleb128 0x13
 4923 0243 02       		.uleb128 0x2
 4924 0244 18       		.uleb128 0x18
 4925 0245 00       		.byte	0
 4926 0246 00       		.byte	0
 4927 0247 2B       		.uleb128 0x2b
 4928 0248 34       		.uleb128 0x34
 4929 0249 00       		.byte	0
 4930 024a 03       		.uleb128 0x3
 4931 024b 08       		.uleb128 0x8
 4932 024c 3A       		.uleb128 0x3a
 4933 024d 0B       		.uleb128 0xb
 4934 024e 3B       		.uleb128 0x3b
 4935 024f 05       		.uleb128 0x5
 4936 0250 49       		.uleb128 0x49
 4937 0251 13       		.uleb128 0x13
 4938 0252 02       		.uleb128 0x2
 4939 0253 17       		.uleb128 0x17
 4940 0254 00       		.byte	0
 4941 0255 00       		.byte	0
 4942 0256 2C       		.uleb128 0x2c
 4943 0257 2E       		.uleb128 0x2e
 4944 0258 01       		.byte	0x1
 4945 0259 03       		.uleb128 0x3
 4946 025a 0E       		.uleb128 0xe
 4947 025b 3A       		.uleb128 0x3a
 4948 025c 0B       		.uleb128 0xb
 4949 025d 3B       		.uleb128 0x3b
 4950 025e 05       		.uleb128 0x5
 4951 025f 27       		.uleb128 0x27
 4952 0260 19       		.uleb128 0x19
 4953 0261 49       		.uleb128 0x49
 4954 0262 13       		.uleb128 0x13
 4955 0263 11       		.uleb128 0x11
 4956 0264 01       		.uleb128 0x1
 4957 0265 12       		.uleb128 0x12
 4958 0266 06       		.uleb128 0x6
 4959 0267 40       		.uleb128 0x40
 4960 0268 18       		.uleb128 0x18
 4961 0269 9742     		.uleb128 0x2117
 4962 026b 19       		.uleb128 0x19
 4963 026c 01       		.uleb128 0x1
 4964 026d 13       		.uleb128 0x13
 4965 026e 00       		.byte	0
 4966 026f 00       		.byte	0
 4967 0270 2D       		.uleb128 0x2d
 4968 0271 05       		.uleb128 0x5
 4969 0272 00       		.byte	0
 4970 0273 03       		.uleb128 0x3
 4971 0274 08       		.uleb128 0x8
 4972 0275 3A       		.uleb128 0x3a
 4973 0276 0B       		.uleb128 0xb
 4974 0277 3B       		.uleb128 0x3b
 4975 0278 05       		.uleb128 0x5
 4976 0279 49       		.uleb128 0x49
ARM GAS  C:\Users\haske\AppData\Local\Temp\ccZHF2NV.s 			page 107


 4977 027a 13       		.uleb128 0x13
 4978 027b 02       		.uleb128 0x2
 4979 027c 18       		.uleb128 0x18
 4980 027d 00       		.byte	0
 4981 027e 00       		.byte	0
 4982 027f 2E       		.uleb128 0x2e
 4983 0280 1D       		.uleb128 0x1d
 4984 0281 01       		.byte	0x1
 4985 0282 31       		.uleb128 0x31
 4986 0283 13       		.uleb128 0x13
 4987 0284 11       		.uleb128 0x11
 4988 0285 01       		.uleb128 0x1
 4989 0286 12       		.uleb128 0x12
 4990 0287 06       		.uleb128 0x6
 4991 0288 58       		.uleb128 0x58
 4992 0289 0B       		.uleb128 0xb
 4993 028a 59       		.uleb128 0x59
 4994 028b 05       		.uleb128 0x5
 4995 028c 01       		.uleb128 0x1
 4996 028d 13       		.uleb128 0x13
 4997 028e 00       		.byte	0
 4998 028f 00       		.byte	0
 4999 0290 2F       		.uleb128 0x2f
 5000 0291 0B       		.uleb128 0xb
 5001 0292 01       		.byte	0x1
 5002 0293 11       		.uleb128 0x11
 5003 0294 01       		.uleb128 0x1
 5004 0295 12       		.uleb128 0x12
 5005 0296 06       		.uleb128 0x6
 5006 0297 01       		.uleb128 0x1
 5007 0298 13       		.uleb128 0x13
 5008 0299 00       		.byte	0
 5009 029a 00       		.byte	0
 5010 029b 30       		.uleb128 0x30
 5011 029c 34       		.uleb128 0x34
 5012 029d 00       		.byte	0
 5013 029e 03       		.uleb128 0x3
 5014 029f 0E       		.uleb128 0xe
 5015 02a0 3A       		.uleb128 0x3a
 5016 02a1 0B       		.uleb128 0xb
 5017 02a2 3B       		.uleb128 0x3b
 5018 02a3 05       		.uleb128 0x5
 5019 02a4 49       		.uleb128 0x49
 5020 02a5 13       		.uleb128 0x13
 5021 02a6 00       		.byte	0
 5022 02a7 00       		.byte	0
 5023 02a8 31       		.uleb128 0x31
 5024 02a9 34       		.uleb128 0x34
 5025 02aa 00       		.byte	0
 5026 02ab 03       		.uleb128 0x3
 5027 02ac 0E       		.uleb128 0xe
 5028 02ad 3A       		.uleb128 0x3a
 5029 02ae 0B       		.uleb128 0xb
 5030 02af 3B       		.uleb128 0x3b
 5031 02b0 05       		.uleb128 0x5
 5032 02b1 49       		.uleb128 0x49
 5033 02b2 13       		.uleb128 0x13
ARM GAS  C:\Users\haske\AppData\Local\Temp\ccZHF2NV.s 			page 108


 5034 02b3 02       		.uleb128 0x2
 5035 02b4 18       		.uleb128 0x18
 5036 02b5 00       		.byte	0
 5037 02b6 00       		.byte	0
 5038 02b7 32       		.uleb128 0x32
 5039 02b8 898201   		.uleb128 0x4109
 5040 02bb 01       		.byte	0x1
 5041 02bc 11       		.uleb128 0x11
 5042 02bd 01       		.uleb128 0x1
 5043 02be 31       		.uleb128 0x31
 5044 02bf 13       		.uleb128 0x13
 5045 02c0 01       		.uleb128 0x1
 5046 02c1 13       		.uleb128 0x13
 5047 02c2 00       		.byte	0
 5048 02c3 00       		.byte	0
 5049 02c4 33       		.uleb128 0x33
 5050 02c5 05       		.uleb128 0x5
 5051 02c6 00       		.byte	0
 5052 02c7 31       		.uleb128 0x31
 5053 02c8 13       		.uleb128 0x13
 5054 02c9 00       		.byte	0
 5055 02ca 00       		.byte	0
 5056 02cb 34       		.uleb128 0x34
 5057 02cc 0B       		.uleb128 0xb
 5058 02cd 01       		.byte	0x1
 5059 02ce 11       		.uleb128 0x11
 5060 02cf 01       		.uleb128 0x1
 5061 02d0 12       		.uleb128 0x12
 5062 02d1 06       		.uleb128 0x6
 5063 02d2 00       		.byte	0
 5064 02d3 00       		.byte	0
 5065 02d4 35       		.uleb128 0x35
 5066 02d5 34       		.uleb128 0x34
 5067 02d6 00       		.byte	0
 5068 02d7 31       		.uleb128 0x31
 5069 02d8 13       		.uleb128 0x13
 5070 02d9 02       		.uleb128 0x2
 5071 02da 17       		.uleb128 0x17
 5072 02db 00       		.byte	0
 5073 02dc 00       		.byte	0
 5074 02dd 36       		.uleb128 0x36
 5075 02de 2E       		.uleb128 0x2e
 5076 02df 01       		.byte	0x1
 5077 02e0 3F       		.uleb128 0x3f
 5078 02e1 19       		.uleb128 0x19
 5079 02e2 03       		.uleb128 0x3
 5080 02e3 0E       		.uleb128 0xe
 5081 02e4 3A       		.uleb128 0x3a
 5082 02e5 0B       		.uleb128 0xb
 5083 02e6 3B       		.uleb128 0x3b
 5084 02e7 05       		.uleb128 0x5
 5085 02e8 27       		.uleb128 0x27
 5086 02e9 19       		.uleb128 0x19
 5087 02ea 49       		.uleb128 0x49
 5088 02eb 13       		.uleb128 0x13
 5089 02ec 11       		.uleb128 0x11
 5090 02ed 01       		.uleb128 0x1
ARM GAS  C:\Users\haske\AppData\Local\Temp\ccZHF2NV.s 			page 109


 5091 02ee 12       		.uleb128 0x12
 5092 02ef 06       		.uleb128 0x6
 5093 02f0 40       		.uleb128 0x40
 5094 02f1 18       		.uleb128 0x18
 5095 02f2 9742     		.uleb128 0x2117
 5096 02f4 19       		.uleb128 0x19
 5097 02f5 01       		.uleb128 0x1
 5098 02f6 13       		.uleb128 0x13
 5099 02f7 00       		.byte	0
 5100 02f8 00       		.byte	0
 5101 02f9 37       		.uleb128 0x37
 5102 02fa 18       		.uleb128 0x18
 5103 02fb 00       		.byte	0
 5104 02fc 00       		.byte	0
 5105 02fd 00       		.byte	0
 5106 02fe 38       		.uleb128 0x38
 5107 02ff 2E       		.uleb128 0x2e
 5108 0300 01       		.byte	0x1
 5109 0301 3F       		.uleb128 0x3f
 5110 0302 19       		.uleb128 0x19
 5111 0303 03       		.uleb128 0x3
 5112 0304 0E       		.uleb128 0xe
 5113 0305 3A       		.uleb128 0x3a
 5114 0306 0B       		.uleb128 0xb
 5115 0307 3B       		.uleb128 0x3b
 5116 0308 05       		.uleb128 0x5
 5117 0309 27       		.uleb128 0x27
 5118 030a 19       		.uleb128 0x19
 5119 030b 49       		.uleb128 0x49
 5120 030c 13       		.uleb128 0x13
 5121 030d 11       		.uleb128 0x11
 5122 030e 01       		.uleb128 0x1
 5123 030f 12       		.uleb128 0x12
 5124 0310 06       		.uleb128 0x6
 5125 0311 40       		.uleb128 0x40
 5126 0312 18       		.uleb128 0x18
 5127 0313 9742     		.uleb128 0x2117
 5128 0315 19       		.uleb128 0x19
 5129 0316 00       		.byte	0
 5130 0317 00       		.byte	0
 5131 0318 00       		.byte	0
 5132              		.section	.debug_loc,"",%progbits
 5133              	.Ldebug_loc0:
 5134              	.LLST0:
 5135 0000 00000000 		.4byte	.LVL2
 5136 0004 08000000 		.4byte	.LVL4
 5137 0008 0100     		.2byte	0x1
 5138 000a 50       		.byte	0x50
 5139 000b 08000000 		.4byte	.LVL4
 5140 000f 28000000 		.4byte	.LVL10
 5141 0013 0100     		.2byte	0x1
 5142 0015 54       		.byte	0x54
 5143 0016 28000000 		.4byte	.LVL10
 5144 001a 2A000000 		.4byte	.LFE4
 5145 001e 0400     		.2byte	0x4
 5146 0020 F3       		.byte	0xf3
 5147 0021 01       		.uleb128 0x1
ARM GAS  C:\Users\haske\AppData\Local\Temp\ccZHF2NV.s 			page 110


 5148 0022 50       		.byte	0x50
 5149 0023 9F       		.byte	0x9f
 5150 0024 00000000 		.4byte	0
 5151 0028 00000000 		.4byte	0
 5152              	.LLST1:
 5153 002c 04000000 		.4byte	.LVL3
 5154 0030 08000000 		.4byte	.LVL4
 5155 0034 0200     		.2byte	0x2
 5156 0036 30       		.byte	0x30
 5157 0037 9F       		.byte	0x9f
 5158 0038 08000000 		.4byte	.LVL4
 5159 003c 0C000000 		.4byte	.LVL5
 5160 0040 0100     		.2byte	0x1
 5161 0042 52       		.byte	0x52
 5162 0043 1A000000 		.4byte	.LVL6
 5163 0047 2A000000 		.4byte	.LFE4
 5164 004b 0100     		.2byte	0x1
 5165 004d 52       		.byte	0x52
 5166 004e 00000000 		.4byte	0
 5167 0052 00000000 		.4byte	0
 5168              	.LLST2:
 5169 0056 1E000000 		.4byte	.LVL7
 5170 005a 20000000 		.4byte	.LVL8
 5171 005e 0100     		.2byte	0x1
 5172 0060 53       		.byte	0x53
 5173 0061 20000000 		.4byte	.LVL8
 5174 0065 22000000 		.4byte	.LVL9
 5175 0069 0300     		.2byte	0x3
 5176 006b 73       		.byte	0x73
 5177 006c 30       		.sleb128 48
 5178 006d 9F       		.byte	0x9f
 5179 006e 00000000 		.4byte	0
 5180 0072 00000000 		.4byte	0
 5181              	.LLST3:
 5182 0076 00000000 		.4byte	.LVL11
 5183 007a 2A000000 		.4byte	.LVL14
 5184 007e 0100     		.2byte	0x1
 5185 0080 50       		.byte	0x50
 5186 0081 2A000000 		.4byte	.LVL14
 5187 0085 3A000000 		.4byte	.LVL18
 5188 0089 0100     		.2byte	0x1
 5189 008b 56       		.byte	0x56
 5190 008c 3A000000 		.4byte	.LVL18
 5191 0090 48000000 		.4byte	.LVL20
 5192 0094 0100     		.2byte	0x1
 5193 0096 50       		.byte	0x50
 5194 0097 48000000 		.4byte	.LVL20
 5195 009b 54000000 		.4byte	.LVL21
 5196 009f 0100     		.2byte	0x1
 5197 00a1 56       		.byte	0x56
 5198 00a2 54000000 		.4byte	.LVL21
 5199 00a6 7E000000 		.4byte	.LVL30
 5200 00aa 0100     		.2byte	0x1
 5201 00ac 55       		.byte	0x55
 5202 00ad 7E000000 		.4byte	.LVL30
 5203 00b1 8C000000 		.4byte	.LVL33
 5204 00b5 0100     		.2byte	0x1
ARM GAS  C:\Users\haske\AppData\Local\Temp\ccZHF2NV.s 			page 111


 5205 00b7 54       		.byte	0x54
 5206 00b8 8C000000 		.4byte	.LVL33
 5207 00bc 90000000 		.4byte	.LVL35
 5208 00c0 0100     		.2byte	0x1
 5209 00c2 55       		.byte	0x55
 5210 00c3 90000000 		.4byte	.LVL35
 5211 00c7 96000000 		.4byte	.LVL36
 5212 00cb 0100     		.2byte	0x1
 5213 00cd 54       		.byte	0x54
 5214 00ce 96000000 		.4byte	.LVL36
 5215 00d2 A4000000 		.4byte	.LFE5
 5216 00d6 0400     		.2byte	0x4
 5217 00d8 F3       		.byte	0xf3
 5218 00d9 01       		.uleb128 0x1
 5219 00da 50       		.byte	0x50
 5220 00db 9F       		.byte	0x9f
 5221 00dc 00000000 		.4byte	0
 5222 00e0 00000000 		.4byte	0
 5223              	.LLST4:
 5224 00e4 00000000 		.4byte	.LVL11
 5225 00e8 2A000000 		.4byte	.LVL14
 5226 00ec 0100     		.2byte	0x1
 5227 00ee 51       		.byte	0x51
 5228 00ef 2A000000 		.4byte	.LVL14
 5229 00f3 3A000000 		.4byte	.LVL18
 5230 00f7 0200     		.2byte	0x2
 5231 00f9 7D       		.byte	0x7d
 5232 00fa 00       		.sleb128 0
 5233 00fb 3A000000 		.4byte	.LVL18
 5234 00ff 48000000 		.4byte	.LVL20
 5235 0103 0100     		.2byte	0x1
 5236 0105 51       		.byte	0x51
 5237 0106 48000000 		.4byte	.LVL20
 5238 010a 9A000000 		.4byte	.LVL37
 5239 010e 0200     		.2byte	0x2
 5240 0110 7D       		.byte	0x7d
 5241 0111 00       		.sleb128 0
 5242 0112 9A000000 		.4byte	.LVL37
 5243 0116 A4000000 		.4byte	.LFE5
 5244 011a 0200     		.2byte	0x2
 5245 011c 91       		.byte	0x91
 5246 011d 58       		.sleb128 -40
 5247 011e 00000000 		.4byte	0
 5248 0122 00000000 		.4byte	0
 5249              	.LLST5:
 5250 0126 00000000 		.4byte	.LVL11
 5251 012a 2C000000 		.4byte	.LVL15
 5252 012e 0100     		.2byte	0x1
 5253 0130 52       		.byte	0x52
 5254 0131 2C000000 		.4byte	.LVL15
 5255 0135 3A000000 		.4byte	.LVL18
 5256 0139 0100     		.2byte	0x1
 5257 013b 54       		.byte	0x54
 5258 013c 3A000000 		.4byte	.LVL18
 5259 0140 66000000 		.4byte	.LVL26
 5260 0144 0100     		.2byte	0x1
 5261 0146 52       		.byte	0x52
ARM GAS  C:\Users\haske\AppData\Local\Temp\ccZHF2NV.s 			page 112


 5262 0147 66000000 		.4byte	.LVL26
 5263 014b 70000000 		.4byte	.LVL28
 5264 014f 0100     		.2byte	0x1
 5265 0151 57       		.byte	0x57
 5266 0152 70000000 		.4byte	.LVL28
 5267 0156 80000000 		.4byte	.LVL31
 5268 015a 0100     		.2byte	0x1
 5269 015c 52       		.byte	0x52
 5270 015d 80000000 		.4byte	.LVL31
 5271 0161 8C000000 		.4byte	.LVL33
 5272 0165 0100     		.2byte	0x1
 5273 0167 55       		.byte	0x55
 5274 0168 8C000000 		.4byte	.LVL33
 5275 016c A4000000 		.4byte	.LFE5
 5276 0170 0100     		.2byte	0x1
 5277 0172 52       		.byte	0x52
 5278 0173 00000000 		.4byte	0
 5279 0177 00000000 		.4byte	0
 5280              	.LLST6:
 5281 017b 00000000 		.4byte	.LVL11
 5282 017f 14000000 		.4byte	.LVL12
 5283 0183 0100     		.2byte	0x1
 5284 0185 53       		.byte	0x53
 5285 0186 14000000 		.4byte	.LVL12
 5286 018a A4000000 		.4byte	.LFE5
 5287 018e 0200     		.2byte	0x2
 5288 0190 91       		.byte	0x91
 5289 0191 5C       		.sleb128 -36
 5290 0192 00000000 		.4byte	0
 5291 0196 00000000 		.4byte	0
 5292              	.LLST7:
 5293 019a 00000000 		.4byte	.LVL11
 5294 019e 62000000 		.4byte	.LVL24
 5295 01a2 0200     		.2byte	0x2
 5296 01a4 91       		.byte	0x91
 5297 01a5 00       		.sleb128 0
 5298 01a6 00000000 		.4byte	0
 5299 01aa 00000000 		.4byte	0
 5300              	.LLST8:
 5301 01ae 00000000 		.4byte	.LVL11
 5302 01b2 62000000 		.4byte	.LVL24
 5303 01b6 0200     		.2byte	0x2
 5304 01b8 91       		.byte	0x91
 5305 01b9 04       		.sleb128 4
 5306 01ba 62000000 		.4byte	.LVL24
 5307 01be 7E000000 		.4byte	.LVL30
 5308 01c2 0100     		.2byte	0x1
 5309 01c4 54       		.byte	0x54
 5310 01c5 8C000000 		.4byte	.LVL33
 5311 01c9 8E000000 		.4byte	.LVL34
 5312 01cd 0100     		.2byte	0x1
 5313 01cf 54       		.byte	0x54
 5314 01d0 00000000 		.4byte	0
 5315 01d4 00000000 		.4byte	0
 5316              	.LLST9:
 5317 01d8 00000000 		.4byte	.LVL11
 5318 01dc 2A000000 		.4byte	.LVL14
ARM GAS  C:\Users\haske\AppData\Local\Temp\ccZHF2NV.s 			page 113


 5319 01e0 0200     		.2byte	0x2
 5320 01e2 91       		.byte	0x91
 5321 01e3 08       		.sleb128 8
 5322 01e4 3A000000 		.4byte	.LVL18
 5323 01e8 42000000 		.4byte	.LVL19
 5324 01ec 0200     		.2byte	0x2
 5325 01ee 91       		.byte	0x91
 5326 01ef 08       		.sleb128 8
 5327 01f0 00000000 		.4byte	0
 5328 01f4 00000000 		.4byte	0
 5329              	.LLST10:
 5330 01f8 1C000000 		.4byte	.LVL13
 5331 01fc 2A000000 		.4byte	.LVL14
 5332 0200 0100     		.2byte	0x1
 5333 0202 52       		.byte	0x52
 5334 0203 2A000000 		.4byte	.LVL14
 5335 0207 3A000000 		.4byte	.LVL18
 5336 020b 0100     		.2byte	0x1
 5337 020d 58       		.byte	0x58
 5338 020e 3A000000 		.4byte	.LVL18
 5339 0212 48000000 		.4byte	.LVL20
 5340 0216 0100     		.2byte	0x1
 5341 0218 52       		.byte	0x52
 5342 0219 48000000 		.4byte	.LVL20
 5343 021d 58000000 		.4byte	.LVL22
 5344 0221 0100     		.2byte	0x1
 5345 0223 58       		.byte	0x58
 5346 0224 58000000 		.4byte	.LVL22
 5347 0228 60000000 		.4byte	.LVL23
 5348 022c 0100     		.2byte	0x1
 5349 022e 56       		.byte	0x56
 5350 022f 60000000 		.4byte	.LVL23
 5351 0233 7C000000 		.4byte	.LVL29
 5352 0237 0100     		.2byte	0x1
 5353 0239 59       		.byte	0x59
 5354 023a 7C000000 		.4byte	.LVL29
 5355 023e 9A000000 		.4byte	.LVL38
 5356 0242 0100     		.2byte	0x1
 5357 0244 56       		.byte	0x56
 5358 0245 9A000000 		.4byte	.LVL38
 5359 0249 9A000000 		.4byte	.LVL39
 5360 024d 0100     		.2byte	0x1
 5361 024f 59       		.byte	0x59
 5362 0250 9A000000 		.4byte	.LVL39
 5363 0254 A4000000 		.4byte	.LFE5
 5364 0258 0400     		.2byte	0x4
 5365 025a F3       		.byte	0xf3
 5366 025b 01       		.uleb128 0x1
 5367 025c 52       		.byte	0x52
 5368 025d 9F       		.byte	0x9f
 5369 025e 00000000 		.4byte	0
 5370 0262 00000000 		.4byte	0
 5371              	.LLST11:
 5372 0266 2A000000 		.4byte	.LVL14
 5373 026a 3A000000 		.4byte	.LVL18
 5374 026e 0100     		.2byte	0x1
 5375 0270 57       		.byte	0x57
ARM GAS  C:\Users\haske\AppData\Local\Temp\ccZHF2NV.s 			page 114


 5376 0271 48000000 		.4byte	.LVL20
 5377 0275 62000000 		.4byte	.LVL24
 5378 0279 0100     		.2byte	0x1
 5379 027b 57       		.byte	0x57
 5380 027c 00000000 		.4byte	0
 5381 0280 00000000 		.4byte	0
 5382              	.LLST12:
 5383 0284 00000000 		.4byte	.LVL40
 5384 0288 01010000 		.4byte	.LVL70-1
 5385 028c 0100     		.2byte	0x1
 5386 028e 50       		.byte	0x50
 5387 028f 01010000 		.4byte	.LVL70-1
 5388 0293 0A010000 		.4byte	.LFE6
 5389 0297 0400     		.2byte	0x4
 5390 0299 F3       		.byte	0xf3
 5391 029a 01       		.uleb128 0x1
 5392 029b 50       		.byte	0x50
 5393 029c 9F       		.byte	0x9f
 5394 029d 00000000 		.4byte	0
 5395 02a1 00000000 		.4byte	0
 5396              	.LLST13:
 5397 02a5 00000000 		.4byte	.LVL40
 5398 02a9 01010000 		.4byte	.LVL70-1
 5399 02ad 0100     		.2byte	0x1
 5400 02af 51       		.byte	0x51
 5401 02b0 01010000 		.4byte	.LVL70-1
 5402 02b4 0A010000 		.4byte	.LFE6
 5403 02b8 0400     		.2byte	0x4
 5404 02ba F3       		.byte	0xf3
 5405 02bb 01       		.uleb128 0x1
 5406 02bc 51       		.byte	0x51
 5407 02bd 9F       		.byte	0x9f
 5408 02be 00000000 		.4byte	0
 5409 02c2 00000000 		.4byte	0
 5410              	.LLST14:
 5411 02c6 00000000 		.4byte	.LVL40
 5412 02ca 18000000 		.4byte	.LVL43
 5413 02ce 0100     		.2byte	0x1
 5414 02d0 52       		.byte	0x52
 5415 02d1 18000000 		.4byte	.LVL43
 5416 02d5 0A010000 		.4byte	.LFE6
 5417 02d9 0200     		.2byte	0x2
 5418 02db 91       		.byte	0x91
 5419 02dc 60       		.sleb128 -32
 5420 02dd 00000000 		.4byte	0
 5421 02e1 00000000 		.4byte	0
 5422              	.LLST15:
 5423 02e5 00000000 		.4byte	.LVL40
 5424 02e9 14000000 		.4byte	.LVL42
 5425 02ed 0100     		.2byte	0x1
 5426 02ef 53       		.byte	0x53
 5427 02f0 14000000 		.4byte	.LVL42
 5428 02f4 0A010000 		.4byte	.LFE6
 5429 02f8 0200     		.2byte	0x2
 5430 02fa 91       		.byte	0x91
 5431 02fb 64       		.sleb128 -28
 5432 02fc 00000000 		.4byte	0
ARM GAS  C:\Users\haske\AppData\Local\Temp\ccZHF2NV.s 			page 115


 5433 0300 00000000 		.4byte	0
 5434              	.LLST16:
 5435 0304 00000000 		.4byte	.LVL40
 5436 0308 38000000 		.4byte	.LVL46
 5437 030c 0200     		.2byte	0x2
 5438 030e 91       		.byte	0x91
 5439 030f 04       		.sleb128 4
 5440 0310 38000000 		.4byte	.LVL46
 5441 0314 3E000000 		.4byte	.LVL47
 5442 0318 0300     		.2byte	0x3
 5443 031a 74       		.byte	0x74
 5444 031b 01       		.sleb128 1
 5445 031c 9F       		.byte	0x9f
 5446 031d 3E000000 		.4byte	.LVL47
 5447 0321 48000000 		.4byte	.LVL48
 5448 0325 0100     		.2byte	0x1
 5449 0327 54       		.byte	0x54
 5450 0328 48000000 		.4byte	.LVL48
 5451 032c 4E000000 		.4byte	.LVL49
 5452 0330 0300     		.2byte	0x3
 5453 0332 74       		.byte	0x74
 5454 0333 01       		.sleb128 1
 5455 0334 9F       		.byte	0x9f
 5456 0335 4E000000 		.4byte	.LVL49
 5457 0339 70000000 		.4byte	.LVL51
 5458 033d 0100     		.2byte	0x1
 5459 033f 54       		.byte	0x54
 5460 0340 70000000 		.4byte	.LVL51
 5461 0344 7C000000 		.4byte	.LVL52
 5462 0348 0100     		.2byte	0x1
 5463 034a 57       		.byte	0x57
 5464 034b 7C000000 		.4byte	.LVL52
 5465 034f 7E000000 		.4byte	.LVL53
 5466 0353 0100     		.2byte	0x1
 5467 0355 54       		.byte	0x54
 5468 0356 7E000000 		.4byte	.LVL53
 5469 035a 84000000 		.4byte	.LVL54
 5470 035e 0100     		.2byte	0x1
 5471 0360 57       		.byte	0x57
 5472 0361 84000000 		.4byte	.LVL54
 5473 0365 92000000 		.4byte	.LVL55
 5474 0369 0100     		.2byte	0x1
 5475 036b 54       		.byte	0x54
 5476 036c 92000000 		.4byte	.LVL55
 5477 0370 98000000 		.4byte	.LVL56
 5478 0374 0300     		.2byte	0x3
 5479 0376 74       		.byte	0x74
 5480 0377 01       		.sleb128 1
 5481 0378 9F       		.byte	0x9f
 5482 0379 98000000 		.4byte	.LVL56
 5483 037d A8000000 		.4byte	.LVL57
 5484 0381 0100     		.2byte	0x1
 5485 0383 54       		.byte	0x54
 5486 0384 A8000000 		.4byte	.LVL57
 5487 0388 AE000000 		.4byte	.LVL58
 5488 038c 0300     		.2byte	0x3
 5489 038e 74       		.byte	0x74
ARM GAS  C:\Users\haske\AppData\Local\Temp\ccZHF2NV.s 			page 116


 5490 038f 01       		.sleb128 1
 5491 0390 9F       		.byte	0x9f
 5492 0391 AE000000 		.4byte	.LVL58
 5493 0395 BA000000 		.4byte	.LVL59
 5494 0399 0100     		.2byte	0x1
 5495 039b 54       		.byte	0x54
 5496 039c BA000000 		.4byte	.LVL59
 5497 03a0 C0000000 		.4byte	.LVL60
 5498 03a4 0300     		.2byte	0x3
 5499 03a6 74       		.byte	0x74
 5500 03a7 01       		.sleb128 1
 5501 03a8 9F       		.byte	0x9f
 5502 03a9 C0000000 		.4byte	.LVL60
 5503 03ad C4000000 		.4byte	.LVL61
 5504 03b1 0100     		.2byte	0x1
 5505 03b3 54       		.byte	0x54
 5506 03b4 C4000000 		.4byte	.LVL61
 5507 03b8 CA000000 		.4byte	.LVL62
 5508 03bc 0300     		.2byte	0x3
 5509 03be 74       		.byte	0x74
 5510 03bf 01       		.sleb128 1
 5511 03c0 9F       		.byte	0x9f
 5512 03c1 CA000000 		.4byte	.LVL62
 5513 03c5 D4000000 		.4byte	.LVL63
 5514 03c9 0100     		.2byte	0x1
 5515 03cb 54       		.byte	0x54
 5516 03cc D4000000 		.4byte	.LVL63
 5517 03d0 DA000000 		.4byte	.LVL64
 5518 03d4 0300     		.2byte	0x3
 5519 03d6 74       		.byte	0x74
 5520 03d7 01       		.sleb128 1
 5521 03d8 9F       		.byte	0x9f
 5522 03d9 DA000000 		.4byte	.LVL64
 5523 03dd E0000000 		.4byte	.LVL65
 5524 03e1 0100     		.2byte	0x1
 5525 03e3 54       		.byte	0x54
 5526 03e4 E0000000 		.4byte	.LVL65
 5527 03e8 E6000000 		.4byte	.LVL66
 5528 03ec 0300     		.2byte	0x3
 5529 03ee 74       		.byte	0x74
 5530 03ef 01       		.sleb128 1
 5531 03f0 9F       		.byte	0x9f
 5532 03f1 E6000000 		.4byte	.LVL66
 5533 03f5 EC000000 		.4byte	.LVL67
 5534 03f9 0100     		.2byte	0x1
 5535 03fb 54       		.byte	0x54
 5536 03fc EC000000 		.4byte	.LVL67
 5537 0400 F2000000 		.4byte	.LVL68
 5538 0404 0300     		.2byte	0x3
 5539 0406 74       		.byte	0x74
 5540 0407 01       		.sleb128 1
 5541 0408 9F       		.byte	0x9f
 5542 0409 F2000000 		.4byte	.LVL68
 5543 040d 04010000 		.4byte	.LVL71
 5544 0411 0100     		.2byte	0x1
 5545 0413 54       		.byte	0x54
 5546 0414 00000000 		.4byte	0
ARM GAS  C:\Users\haske\AppData\Local\Temp\ccZHF2NV.s 			page 117


 5547 0418 00000000 		.4byte	0
 5548              	.LLST17:
 5549 041c 00000000 		.4byte	.LVL40
 5550 0420 12000000 		.4byte	.LVL41
 5551 0424 0200     		.2byte	0x2
 5552 0426 91       		.byte	0x91
 5553 0427 08       		.sleb128 8
 5554 0428 12000000 		.4byte	.LVL41
 5555 042c 1C000000 		.4byte	.LVL44
 5556 0430 0200     		.2byte	0x2
 5557 0432 76       		.byte	0x76
 5558 0433 00       		.sleb128 0
 5559 0434 1C000000 		.4byte	.LVL44
 5560 0438 0A010000 		.4byte	.LFE6
 5561 043c 0200     		.2byte	0x2
 5562 043e 91       		.byte	0x91
 5563 043f 08       		.sleb128 8
 5564 0440 00000000 		.4byte	0
 5565 0444 00000000 		.4byte	0
 5566              	.LLST18:
 5567 0448 00000000 		.4byte	.LVL40
 5568 044c 36000000 		.4byte	.LVL45
 5569 0450 0200     		.2byte	0x2
 5570 0452 91       		.byte	0x91
 5571 0453 14       		.sleb128 20
 5572 0454 36000000 		.4byte	.LVL45
 5573 0458 FC000000 		.4byte	.LVL69
 5574 045c 0100     		.2byte	0x1
 5575 045e 53       		.byte	0x53
 5576 045f FC000000 		.4byte	.LVL69
 5577 0463 01010000 		.4byte	.LVL70-1
 5578 0467 0200     		.2byte	0x2
 5579 0469 91       		.byte	0x91
 5580 046a 58       		.sleb128 -40
 5581 046b 00000000 		.4byte	0
 5582 046f 00000000 		.4byte	0
 5583              	.LLST19:
 5584 0473 00000000 		.4byte	.LVL72
 5585 0477 30000000 		.4byte	.LVL78
 5586 047b 0100     		.2byte	0x1
 5587 047d 50       		.byte	0x50
 5588 047e 30000000 		.4byte	.LVL78
 5589 0482 6E000000 		.4byte	.LVL88
 5590 0486 0300     		.2byte	0x3
 5591 0488 91       		.byte	0x91
 5592 0489 B87F     		.sleb128 -72
 5593 048b 6E000000 		.4byte	.LVL88
 5594 048f 70000000 		.4byte	.LVL89
 5595 0493 0100     		.2byte	0x1
 5596 0495 50       		.byte	0x50
 5597 0496 70000000 		.4byte	.LVL89
 5598 049a 9C000000 		.4byte	.LFE7
 5599 049e 0300     		.2byte	0x3
 5600 04a0 91       		.byte	0x91
 5601 04a1 B87F     		.sleb128 -72
 5602 04a3 00000000 		.4byte	0
 5603 04a7 00000000 		.4byte	0
ARM GAS  C:\Users\haske\AppData\Local\Temp\ccZHF2NV.s 			page 118


 5604              	.LLST20:
 5605 04ab 00000000 		.4byte	.LVL72
 5606 04af 30000000 		.4byte	.LVL78
 5607 04b3 0100     		.2byte	0x1
 5608 04b5 51       		.byte	0x51
 5609 04b6 30000000 		.4byte	.LVL78
 5610 04ba 6E000000 		.4byte	.LVL88
 5611 04be 0300     		.2byte	0x3
 5612 04c0 91       		.byte	0x91
 5613 04c1 BC7F     		.sleb128 -68
 5614 04c3 6E000000 		.4byte	.LVL88
 5615 04c7 70000000 		.4byte	.LVL89
 5616 04cb 0100     		.2byte	0x1
 5617 04cd 51       		.byte	0x51
 5618 04ce 70000000 		.4byte	.LVL89
 5619 04d2 9C000000 		.4byte	.LFE7
 5620 04d6 0300     		.2byte	0x3
 5621 04d8 91       		.byte	0x91
 5622 04d9 BC7F     		.sleb128 -68
 5623 04db 00000000 		.4byte	0
 5624 04df 00000000 		.4byte	0
 5625              	.LLST21:
 5626 04e3 00000000 		.4byte	.LVL72
 5627 04e7 30000000 		.4byte	.LVL78
 5628 04eb 0100     		.2byte	0x1
 5629 04ed 52       		.byte	0x52
 5630 04ee 30000000 		.4byte	.LVL78
 5631 04f2 6E000000 		.4byte	.LVL88
 5632 04f6 0200     		.2byte	0x2
 5633 04f8 91       		.byte	0x91
 5634 04f9 40       		.sleb128 -64
 5635 04fa 6E000000 		.4byte	.LVL88
 5636 04fe 70000000 		.4byte	.LVL89
 5637 0502 0100     		.2byte	0x1
 5638 0504 52       		.byte	0x52
 5639 0505 70000000 		.4byte	.LVL89
 5640 0509 9C000000 		.4byte	.LFE7
 5641 050d 0200     		.2byte	0x2
 5642 050f 91       		.byte	0x91
 5643 0510 40       		.sleb128 -64
 5644 0511 00000000 		.4byte	0
 5645 0515 00000000 		.4byte	0
 5646              	.LLST22:
 5647 0519 00000000 		.4byte	.LVL72
 5648 051d 12000000 		.4byte	.LVL73
 5649 0521 0100     		.2byte	0x1
 5650 0523 53       		.byte	0x53
 5651 0524 12000000 		.4byte	.LVL73
 5652 0528 14000000 		.4byte	.LVL74
 5653 052c 0200     		.2byte	0x2
 5654 052e 73       		.byte	0x73
 5655 052f 44       		.sleb128 -60
 5656 0530 14000000 		.4byte	.LVL74
 5657 0534 16000000 		.4byte	.LVL75
 5658 0538 0200     		.2byte	0x2
 5659 053a 73       		.byte	0x73
 5660 053b 40       		.sleb128 -64
ARM GAS  C:\Users\haske\AppData\Local\Temp\ccZHF2NV.s 			page 119


 5661 053c 16000000 		.4byte	.LVL75
 5662 0540 9C000000 		.4byte	.LFE7
 5663 0544 0200     		.2byte	0x2
 5664 0546 91       		.byte	0x91
 5665 0547 44       		.sleb128 -60
 5666 0548 00000000 		.4byte	0
 5667 054c 00000000 		.4byte	0
 5668              	.LLST23:
 5669 0550 00000000 		.4byte	.LVL72
 5670 0554 12000000 		.4byte	.LVL73
 5671 0558 0200     		.2byte	0x2
 5672 055a 91       		.byte	0x91
 5673 055b 00       		.sleb128 0
 5674 055c 12000000 		.4byte	.LVL73
 5675 0560 14000000 		.4byte	.LVL74
 5676 0564 0200     		.2byte	0x2
 5677 0566 73       		.byte	0x73
 5678 0567 00       		.sleb128 0
 5679 0568 14000000 		.4byte	.LVL74
 5680 056c 16000000 		.4byte	.LVL75
 5681 0570 0200     		.2byte	0x2
 5682 0572 73       		.byte	0x73
 5683 0573 7C       		.sleb128 -4
 5684 0574 16000000 		.4byte	.LVL75
 5685 0578 30000000 		.4byte	.LVL78
 5686 057c 0200     		.2byte	0x2
 5687 057e 91       		.byte	0x91
 5688 057f 00       		.sleb128 0
 5689 0580 30000000 		.4byte	.LVL78
 5690 0584 64000000 		.4byte	.LVL87
 5691 0588 0100     		.2byte	0x1
 5692 058a 54       		.byte	0x54
 5693 058b 64000000 		.4byte	.LVL87
 5694 058f 6E000000 		.4byte	.LVL88
 5695 0593 0100     		.2byte	0x1
 5696 0595 50       		.byte	0x50
 5697 0596 6E000000 		.4byte	.LVL88
 5698 059a 70000000 		.4byte	.LVL89
 5699 059e 0200     		.2byte	0x2
 5700 05a0 91       		.byte	0x91
 5701 05a1 00       		.sleb128 0
 5702 05a2 00000000 		.4byte	0
 5703 05a6 00000000 		.4byte	0
 5704              	.LLST24:
 5705 05aa 00000000 		.4byte	.LVL72
 5706 05ae 12000000 		.4byte	.LVL73
 5707 05b2 0200     		.2byte	0x2
 5708 05b4 91       		.byte	0x91
 5709 05b5 04       		.sleb128 4
 5710 05b6 12000000 		.4byte	.LVL73
 5711 05ba 14000000 		.4byte	.LVL74
 5712 05be 0200     		.2byte	0x2
 5713 05c0 73       		.byte	0x73
 5714 05c1 04       		.sleb128 4
 5715 05c2 14000000 		.4byte	.LVL74
 5716 05c6 16000000 		.4byte	.LVL75
 5717 05ca 0200     		.2byte	0x2
ARM GAS  C:\Users\haske\AppData\Local\Temp\ccZHF2NV.s 			page 120


 5718 05cc 73       		.byte	0x73
 5719 05cd 00       		.sleb128 0
 5720 05ce 16000000 		.4byte	.LVL75
 5721 05d2 9C000000 		.4byte	.LFE7
 5722 05d6 0200     		.2byte	0x2
 5723 05d8 91       		.byte	0x91
 5724 05d9 04       		.sleb128 4
 5725 05da 00000000 		.4byte	0
 5726 05de 00000000 		.4byte	0
 5727              	.LLST25:
 5728 05e2 00000000 		.4byte	.LVL72
 5729 05e6 12000000 		.4byte	.LVL73
 5730 05ea 0200     		.2byte	0x2
 5731 05ec 91       		.byte	0x91
 5732 05ed 08       		.sleb128 8
 5733 05ee 12000000 		.4byte	.LVL73
 5734 05f2 14000000 		.4byte	.LVL74
 5735 05f6 0200     		.2byte	0x2
 5736 05f8 73       		.byte	0x73
 5737 05f9 08       		.sleb128 8
 5738 05fa 14000000 		.4byte	.LVL74
 5739 05fe 16000000 		.4byte	.LVL75
 5740 0602 0200     		.2byte	0x2
 5741 0604 73       		.byte	0x73
 5742 0605 04       		.sleb128 4
 5743 0606 16000000 		.4byte	.LVL75
 5744 060a 9C000000 		.4byte	.LFE7
 5745 060e 0200     		.2byte	0x2
 5746 0610 91       		.byte	0x91
 5747 0611 08       		.sleb128 8
 5748 0612 00000000 		.4byte	0
 5749 0616 00000000 		.4byte	0
 5750              	.LLST26:
 5751 061a 00000000 		.4byte	.LVL72
 5752 061e 12000000 		.4byte	.LVL73
 5753 0622 0200     		.2byte	0x2
 5754 0624 91       		.byte	0x91
 5755 0625 0C       		.sleb128 12
 5756 0626 12000000 		.4byte	.LVL73
 5757 062a 14000000 		.4byte	.LVL74
 5758 062e 0200     		.2byte	0x2
 5759 0630 73       		.byte	0x73
 5760 0631 0C       		.sleb128 12
 5761 0632 14000000 		.4byte	.LVL74
 5762 0636 16000000 		.4byte	.LVL75
 5763 063a 0200     		.2byte	0x2
 5764 063c 73       		.byte	0x73
 5765 063d 08       		.sleb128 8
 5766 063e 16000000 		.4byte	.LVL75
 5767 0642 9C000000 		.4byte	.LFE7
 5768 0646 0200     		.2byte	0x2
 5769 0648 91       		.byte	0x91
 5770 0649 0C       		.sleb128 12
 5771 064a 00000000 		.4byte	0
 5772 064e 00000000 		.4byte	0
 5773              	.LLST27:
 5774 0652 00000000 		.4byte	.LVL72
ARM GAS  C:\Users\haske\AppData\Local\Temp\ccZHF2NV.s 			page 121


 5775 0656 12000000 		.4byte	.LVL73
 5776 065a 0200     		.2byte	0x2
 5777 065c 91       		.byte	0x91
 5778 065d 10       		.sleb128 16
 5779 065e 12000000 		.4byte	.LVL73
 5780 0662 14000000 		.4byte	.LVL74
 5781 0666 0200     		.2byte	0x2
 5782 0668 73       		.byte	0x73
 5783 0669 10       		.sleb128 16
 5784 066a 14000000 		.4byte	.LVL74
 5785 066e 16000000 		.4byte	.LVL75
 5786 0672 0200     		.2byte	0x2
 5787 0674 73       		.byte	0x73
 5788 0675 0C       		.sleb128 12
 5789 0676 16000000 		.4byte	.LVL75
 5790 067a 9C000000 		.4byte	.LFE7
 5791 067e 0200     		.2byte	0x2
 5792 0680 91       		.byte	0x91
 5793 0681 10       		.sleb128 16
 5794 0682 00000000 		.4byte	0
 5795 0686 00000000 		.4byte	0
 5796              	.LLST28:
 5797 068a 00000000 		.4byte	.LVL72
 5798 068e 12000000 		.4byte	.LVL73
 5799 0692 0200     		.2byte	0x2
 5800 0694 91       		.byte	0x91
 5801 0695 14       		.sleb128 20
 5802 0696 12000000 		.4byte	.LVL73
 5803 069a 14000000 		.4byte	.LVL74
 5804 069e 0200     		.2byte	0x2
 5805 06a0 73       		.byte	0x73
 5806 06a1 14       		.sleb128 20
 5807 06a2 14000000 		.4byte	.LVL74
 5808 06a6 16000000 		.4byte	.LVL75
 5809 06aa 0200     		.2byte	0x2
 5810 06ac 73       		.byte	0x73
 5811 06ad 10       		.sleb128 16
 5812 06ae 16000000 		.4byte	.LVL75
 5813 06b2 22000000 		.4byte	.LVL77
 5814 06b6 0200     		.2byte	0x2
 5815 06b8 91       		.byte	0x91
 5816 06b9 14       		.sleb128 20
 5817 06ba 22000000 		.4byte	.LVL77
 5818 06be 96000000 		.4byte	.LVL91
 5819 06c2 0100     		.2byte	0x1
 5820 06c4 55       		.byte	0x55
 5821 06c5 00000000 		.4byte	0
 5822 06c9 00000000 		.4byte	0
 5823              	.LLST29:
 5824 06cd 1A000000 		.4byte	.LVL76
 5825 06d1 30000000 		.4byte	.LVL78
 5826 06d5 0200     		.2byte	0x2
 5827 06d7 30       		.byte	0x30
 5828 06d8 9F       		.byte	0x9f
 5829 06d9 30000000 		.4byte	.LVL78
 5830 06dd 3C000000 		.4byte	.LVL81
 5831 06e1 0100     		.2byte	0x1
ARM GAS  C:\Users\haske\AppData\Local\Temp\ccZHF2NV.s 			page 122


 5832 06e3 57       		.byte	0x57
 5833 06e4 3C000000 		.4byte	.LVL81
 5834 06e8 6E000000 		.4byte	.LVL88
 5835 06ec 0100     		.2byte	0x1
 5836 06ee 56       		.byte	0x56
 5837 06ef 6E000000 		.4byte	.LVL88
 5838 06f3 70000000 		.4byte	.LVL89
 5839 06f7 0200     		.2byte	0x2
 5840 06f9 30       		.byte	0x30
 5841 06fa 9F       		.byte	0x9f
 5842 06fb 70000000 		.4byte	.LVL89
 5843 06ff 96000000 		.4byte	.LVL92
 5844 0703 0100     		.2byte	0x1
 5845 0705 56       		.byte	0x56
 5846 0706 00000000 		.4byte	0
 5847 070a 00000000 		.4byte	0
 5848              	.LLST30:
 5849 070e 3A000000 		.4byte	.LVL80
 5850 0712 42000000 		.4byte	.LVL82
 5851 0716 0100     		.2byte	0x1
 5852 0718 51       		.byte	0x51
 5853 0719 42000000 		.4byte	.LVL82
 5854 071d 44000000 		.4byte	.LVL83
 5855 0721 0300     		.2byte	0x3
 5856 0723 71       		.byte	0x71
 5857 0724 50       		.sleb128 -48
 5858 0725 9F       		.byte	0x9f
 5859 0726 46000000 		.4byte	.LVL84
 5860 072a 52000000 		.4byte	.LVL85
 5861 072e 0100     		.2byte	0x1
 5862 0730 51       		.byte	0x51
 5863 0731 00000000 		.4byte	0
 5864 0735 00000000 		.4byte	0
 5865              	.LLST31:
 5866 0739 00000000 		.4byte	.LVL93
 5867 073d 50000000 		.4byte	.LVL99
 5868 0741 0100     		.2byte	0x1
 5869 0743 50       		.byte	0x50
 5870 0744 50000000 		.4byte	.LVL99
 5871 0748 A0000000 		.4byte	.LVL111
 5872 074c 0300     		.2byte	0x3
 5873 074e 91       		.byte	0x91
 5874 074f B07F     		.sleb128 -80
 5875 0751 A0000000 		.4byte	.LVL111
 5876 0755 A4000000 		.4byte	.LVL112
 5877 0759 0100     		.2byte	0x1
 5878 075b 50       		.byte	0x50
 5879 075c A4000000 		.4byte	.LVL112
 5880 0760 D8000000 		.4byte	.LFE8
 5881 0764 0300     		.2byte	0x3
 5882 0766 91       		.byte	0x91
 5883 0767 B07F     		.sleb128 -80
 5884 0769 00000000 		.4byte	0
 5885 076d 00000000 		.4byte	0
 5886              	.LLST32:
 5887 0771 00000000 		.4byte	.LVL93
 5888 0775 50000000 		.4byte	.LVL99
ARM GAS  C:\Users\haske\AppData\Local\Temp\ccZHF2NV.s 			page 123


 5889 0779 0100     		.2byte	0x1
 5890 077b 51       		.byte	0x51
 5891 077c 50000000 		.4byte	.LVL99
 5892 0780 A0000000 		.4byte	.LVL111
 5893 0784 0300     		.2byte	0x3
 5894 0786 91       		.byte	0x91
 5895 0787 B47F     		.sleb128 -76
 5896 0789 A0000000 		.4byte	.LVL111
 5897 078d A4000000 		.4byte	.LVL112
 5898 0791 0100     		.2byte	0x1
 5899 0793 51       		.byte	0x51
 5900 0794 A4000000 		.4byte	.LVL112
 5901 0798 D8000000 		.4byte	.LFE8
 5902 079c 0300     		.2byte	0x3
 5903 079e 91       		.byte	0x91
 5904 079f B47F     		.sleb128 -76
 5905 07a1 00000000 		.4byte	0
 5906 07a5 00000000 		.4byte	0
 5907              	.LLST33:
 5908 07a9 00000000 		.4byte	.LVL93
 5909 07ad 32000000 		.4byte	.LVL97
 5910 07b1 0100     		.2byte	0x1
 5911 07b3 52       		.byte	0x52
 5912 07b4 32000000 		.4byte	.LVL97
 5913 07b8 D8000000 		.4byte	.LFE8
 5914 07bc 0300     		.2byte	0x3
 5915 07be 91       		.byte	0x91
 5916 07bf B87F     		.sleb128 -72
 5917 07c1 00000000 		.4byte	0
 5918 07c5 00000000 		.4byte	0
 5919              	.LLST34:
 5920 07c9 00000000 		.4byte	.LVL93
 5921 07cd 18000000 		.4byte	.LVL94
 5922 07d1 0100     		.2byte	0x1
 5923 07d3 53       		.byte	0x53
 5924 07d4 18000000 		.4byte	.LVL94
 5925 07d8 D8000000 		.4byte	.LFE8
 5926 07dc 0300     		.2byte	0x3
 5927 07de 91       		.byte	0x91
 5928 07df BC7F     		.sleb128 -68
 5929 07e1 00000000 		.4byte	0
 5930 07e5 00000000 		.4byte	0
 5931              	.LLST35:
 5932 07e9 00000000 		.4byte	.LVL93
 5933 07ed 50000000 		.4byte	.LVL99
 5934 07f1 0200     		.2byte	0x2
 5935 07f3 91       		.byte	0x91
 5936 07f4 00       		.sleb128 0
 5937 07f5 50000000 		.4byte	.LVL99
 5938 07f9 8C000000 		.4byte	.LVL108
 5939 07fd 0800     		.2byte	0x8
 5940 07ff 91       		.byte	0x91
 5941 0800 A47F     		.sleb128 -92
 5942 0802 93       		.byte	0x93
 5943 0803 04       		.uleb128 0x4
 5944 0804 55       		.byte	0x55
 5945 0805 93       		.byte	0x93
ARM GAS  C:\Users\haske\AppData\Local\Temp\ccZHF2NV.s 			page 124


 5946 0806 04       		.uleb128 0x4
 5947 0807 8E000000 		.4byte	.LVL109
 5948 080b A0000000 		.4byte	.LVL111
 5949 080f 0600     		.2byte	0x6
 5950 0811 50       		.byte	0x50
 5951 0812 93       		.byte	0x93
 5952 0813 04       		.uleb128 0x4
 5953 0814 51       		.byte	0x51
 5954 0815 93       		.byte	0x93
 5955 0816 04       		.uleb128 0x4
 5956 0817 A0000000 		.4byte	.LVL111
 5957 081b A4000000 		.4byte	.LVL112
 5958 081f 0200     		.2byte	0x2
 5959 0821 91       		.byte	0x91
 5960 0822 00       		.sleb128 0
 5961 0823 A4000000 		.4byte	.LVL112
 5962 0827 A8000000 		.4byte	.LVL113
 5963 082b 0600     		.2byte	0x6
 5964 082d 50       		.byte	0x50
 5965 082e 93       		.byte	0x93
 5966 082f 04       		.uleb128 0x4
 5967 0830 51       		.byte	0x51
 5968 0831 93       		.byte	0x93
 5969 0832 04       		.uleb128 0x4
 5970 0833 00000000 		.4byte	0
 5971 0837 00000000 		.4byte	0
 5972              	.LLST36:
 5973 083b 00000000 		.4byte	.LVL93
 5974 083f 18000000 		.4byte	.LVL94
 5975 0843 0200     		.2byte	0x2
 5976 0845 91       		.byte	0x91
 5977 0846 08       		.sleb128 8
 5978 0847 18000000 		.4byte	.LVL94
 5979 084b 1A000000 		.4byte	.LVL95
 5980 084f 0200     		.2byte	0x2
 5981 0851 73       		.byte	0x73
 5982 0852 00       		.sleb128 0
 5983 0853 1A000000 		.4byte	.LVL95
 5984 0857 D8000000 		.4byte	.LFE8
 5985 085b 0200     		.2byte	0x2
 5986 085d 91       		.byte	0x91
 5987 085e 08       		.sleb128 8
 5988 085f 00000000 		.4byte	0
 5989 0863 00000000 		.4byte	0
 5990              	.LLST37:
 5991 0867 00000000 		.4byte	.LVL93
 5992 086b 36000000 		.4byte	.LVL98
 5993 086f 0200     		.2byte	0x2
 5994 0871 91       		.byte	0x91
 5995 0872 20       		.sleb128 32
 5996 0873 36000000 		.4byte	.LVL98
 5997 0877 50000000 		.4byte	.LVL99
 5998 087b 0100     		.2byte	0x1
 5999 087d 5A       		.byte	0x5a
 6000 087e 50000000 		.4byte	.LVL99
 6001 0882 9E000000 		.4byte	.LVL110
 6002 0886 0100     		.2byte	0x1
ARM GAS  C:\Users\haske\AppData\Local\Temp\ccZHF2NV.s 			page 125


 6003 0888 57       		.byte	0x57
 6004 0889 9E000000 		.4byte	.LVL110
 6005 088d A4000000 		.4byte	.LVL112
 6006 0891 0100     		.2byte	0x1
 6007 0893 5A       		.byte	0x5a
 6008 0894 A4000000 		.4byte	.LVL112
 6009 0898 A8000000 		.4byte	.LVL113
 6010 089c 0100     		.2byte	0x1
 6011 089e 57       		.byte	0x57
 6012 089f A8000000 		.4byte	.LVL113
 6013 08a3 D0000000 		.4byte	.LVL116
 6014 08a7 0100     		.2byte	0x1
 6015 08a9 5A       		.byte	0x5a
 6016 08aa 00000000 		.4byte	0
 6017 08ae 00000000 		.4byte	0
 6018              	.LLST38:
 6019 08b2 28000000 		.4byte	.LVL96
 6020 08b6 50000000 		.4byte	.LVL99
 6021 08ba 0200     		.2byte	0x2
 6022 08bc 30       		.byte	0x30
 6023 08bd 9F       		.byte	0x9f
 6024 08be 50000000 		.4byte	.LVL99
 6025 08c2 60000000 		.4byte	.LVL102
 6026 08c6 0100     		.2byte	0x1
 6027 08c8 56       		.byte	0x56
 6028 08c9 60000000 		.4byte	.LVL102
 6029 08cd A0000000 		.4byte	.LVL111
 6030 08d1 0100     		.2byte	0x1
 6031 08d3 54       		.byte	0x54
 6032 08d4 A0000000 		.4byte	.LVL111
 6033 08d8 A4000000 		.4byte	.LVL112
 6034 08dc 0200     		.2byte	0x2
 6035 08de 30       		.byte	0x30
 6036 08df 9F       		.byte	0x9f
 6037 08e0 A4000000 		.4byte	.LVL112
 6038 08e4 A8000000 		.4byte	.LVL113
 6039 08e8 0100     		.2byte	0x1
 6040 08ea 54       		.byte	0x54
 6041 08eb A8000000 		.4byte	.LVL113
 6042 08ef D0000000 		.4byte	.LVL115
 6043 08f3 0100     		.2byte	0x1
 6044 08f5 57       		.byte	0x57
 6045 08f6 00000000 		.4byte	0
 6046 08fa 00000000 		.4byte	0
 6047              	.LLST39:
 6048 08fe 5E000000 		.4byte	.LVL101
 6049 0902 66000000 		.4byte	.LVL103
 6050 0906 0100     		.2byte	0x1
 6051 0908 52       		.byte	0x52
 6052 0909 66000000 		.4byte	.LVL103
 6053 090d 68000000 		.4byte	.LVL104
 6054 0911 0300     		.2byte	0x3
 6055 0913 72       		.byte	0x72
 6056 0914 50       		.sleb128 -48
 6057 0915 9F       		.byte	0x9f
 6058 0916 6A000000 		.4byte	.LVL105
 6059 091a 76000000 		.4byte	.LVL106
ARM GAS  C:\Users\haske\AppData\Local\Temp\ccZHF2NV.s 			page 126


 6060 091e 0100     		.2byte	0x1
 6061 0920 52       		.byte	0x52
 6062 0921 00000000 		.4byte	0
 6063 0925 00000000 		.4byte	0
 6064              	.LLST40:
 6065 0929 00000000 		.4byte	.LVL117
 6066 092d 24000000 		.4byte	.LVL120
 6067 0931 0100     		.2byte	0x1
 6068 0933 50       		.byte	0x50
 6069 0934 24000000 		.4byte	.LVL120
 6070 0938 64040000 		.4byte	.LVL240
 6071 093c 0100     		.2byte	0x1
 6072 093e 55       		.byte	0x55
 6073 093f 64040000 		.4byte	.LVL240
 6074 0943 74040000 		.4byte	.LVL243
 6075 0947 0100     		.2byte	0x1
 6076 0949 58       		.byte	0x58
 6077 094a 74040000 		.4byte	.LVL243
 6078 094e 7A040000 		.4byte	.LVL245
 6079 0952 0100     		.2byte	0x1
 6080 0954 55       		.byte	0x55
 6081 0955 7A040000 		.4byte	.LVL245
 6082 0959 84040000 		.4byte	.LVL248
 6083 095d 0100     		.2byte	0x1
 6084 095f 58       		.byte	0x58
 6085 0960 84040000 		.4byte	.LVL248
 6086 0964 E0040000 		.4byte	.LVL266
 6087 0968 0100     		.2byte	0x1
 6088 096a 55       		.byte	0x55
 6089 096b E0040000 		.4byte	.LVL266
 6090 096f E4040000 		.4byte	.LVL267
 6091 0973 0100     		.2byte	0x1
 6092 0975 58       		.byte	0x58
 6093 0976 E4040000 		.4byte	.LVL267
 6094 097a F4040000 		.4byte	.LVL270
 6095 097e 0100     		.2byte	0x1
 6096 0980 5A       		.byte	0x5a
 6097 0981 F4040000 		.4byte	.LVL270
 6098 0985 FA040000 		.4byte	.LVL271
 6099 0989 0100     		.2byte	0x1
 6100 098b 55       		.byte	0x55
 6101 098c FA040000 		.4byte	.LVL271
 6102 0990 06050000 		.4byte	.LVL274
 6103 0994 0100     		.2byte	0x1
 6104 0996 5A       		.byte	0x5a
 6105 0997 06050000 		.4byte	.LVL274
 6106 099b 0E050000 		.4byte	.LVL277
 6107 099f 0100     		.2byte	0x1
 6108 09a1 55       		.byte	0x55
 6109 09a2 0E050000 		.4byte	.LVL277
 6110 09a6 3C050000 		.4byte	.LVL286
 6111 09aa 0100     		.2byte	0x1
 6112 09ac 58       		.byte	0x58
 6113 09ad 3C050000 		.4byte	.LVL286
 6114 09b1 3E050000 		.4byte	.LVL287
 6115 09b5 0100     		.2byte	0x1
 6116 09b7 55       		.byte	0x55
ARM GAS  C:\Users\haske\AppData\Local\Temp\ccZHF2NV.s 			page 127


 6117 09b8 3E050000 		.4byte	.LVL287
 6118 09bc 4E050000 		.4byte	.LVL290
 6119 09c0 0100     		.2byte	0x1
 6120 09c2 58       		.byte	0x58
 6121 09c3 4E050000 		.4byte	.LVL290
 6122 09c7 50050000 		.4byte	.LVL291
 6123 09cb 0100     		.2byte	0x1
 6124 09cd 55       		.byte	0x55
 6125 09ce 50050000 		.4byte	.LVL291
 6126 09d2 5A050000 		.4byte	.LVL293
 6127 09d6 0100     		.2byte	0x1
 6128 09d8 58       		.byte	0x58
 6129 09d9 5A050000 		.4byte	.LVL293
 6130 09dd AE050000 		.4byte	.LVL302
 6131 09e1 0100     		.2byte	0x1
 6132 09e3 55       		.byte	0x55
 6133 09e4 AE050000 		.4byte	.LVL302
 6134 09e8 AE050000 		.4byte	.LVL304
 6135 09ec 0100     		.2byte	0x1
 6136 09ee 5B       		.byte	0x5b
 6137 09ef 00000000 		.4byte	0
 6138 09f3 00000000 		.4byte	0
 6139              	.LLST41:
 6140 09f7 00000000 		.4byte	.LVL117
 6141 09fb 24000000 		.4byte	.LVL120
 6142 09ff 0100     		.2byte	0x1
 6143 0a01 51       		.byte	0x51
 6144 0a02 24000000 		.4byte	.LVL120
 6145 0a06 BA050000 		.4byte	.LFE9
 6146 0a0a 0300     		.2byte	0x3
 6147 0a0c 91       		.byte	0x91
 6148 0a0d B07F     		.sleb128 -80
 6149 0a0f 00000000 		.4byte	0
 6150 0a13 00000000 		.4byte	0
 6151              	.LLST42:
 6152 0a17 00000000 		.4byte	.LVL117
 6153 0a1b 24000000 		.4byte	.LVL120
 6154 0a1f 0100     		.2byte	0x1
 6155 0a21 52       		.byte	0x52
 6156 0a22 24000000 		.4byte	.LVL120
 6157 0a26 BA050000 		.4byte	.LFE9
 6158 0a2a 0300     		.2byte	0x3
 6159 0a2c 91       		.byte	0x91
 6160 0a2d AC7F     		.sleb128 -84
 6161 0a2f 00000000 		.4byte	0
 6162 0a33 00000000 		.4byte	0
 6163              	.LLST43:
 6164 0a37 00000000 		.4byte	.LVL117
 6165 0a3b 1C000000 		.4byte	.LVL119
 6166 0a3f 0100     		.2byte	0x1
 6167 0a41 53       		.byte	0x53
 6168 0a42 1C000000 		.4byte	.LVL119
 6169 0a46 24000000 		.4byte	.LVL120
 6170 0a4a 0200     		.2byte	0x2
 6171 0a4c 91       		.byte	0x91
 6172 0a4d 4C       		.sleb128 -52
 6173 0a4e 00000000 		.4byte	0
ARM GAS  C:\Users\haske\AppData\Local\Temp\ccZHF2NV.s 			page 128


 6174 0a52 00000000 		.4byte	0
 6175              	.LLST44:
 6176 0a56 40000000 		.4byte	.LVL124
 6177 0a5a 42000000 		.4byte	.LVL125
 6178 0a5e 0200     		.2byte	0x2
 6179 0a60 30       		.byte	0x30
 6180 0a61 9F       		.byte	0x9f
 6181 0a62 42000000 		.4byte	.LVL125
 6182 0a66 3E010000 		.4byte	.LVL167
 6183 0a6a 0100     		.2byte	0x1
 6184 0a6c 56       		.byte	0x56
 6185 0a6d 3E010000 		.4byte	.LVL167
 6186 0a71 4A010000 		.4byte	.LVL168
 6187 0a75 0100     		.2byte	0x1
 6188 0a77 53       		.byte	0x53
 6189 0a78 4A010000 		.4byte	.LVL168
 6190 0a7c 4E010000 		.4byte	.LVL169
 6191 0a80 0700     		.2byte	0x7
 6192 0a82 76       		.byte	0x76
 6193 0a83 00       		.sleb128 0
 6194 0a84 0A       		.byte	0xa
 6195 0a85 0001     		.2byte	0x100
 6196 0a87 21       		.byte	0x21
 6197 0a88 9F       		.byte	0x9f
 6198 0a89 4E010000 		.4byte	.LVL169
 6199 0a8d 58010000 		.4byte	.LVL170
 6200 0a91 0100     		.2byte	0x1
 6201 0a93 56       		.byte	0x56
 6202 0a94 58010000 		.4byte	.LVL170
 6203 0a98 64010000 		.4byte	.LVL171
 6204 0a9c 0100     		.2byte	0x1
 6205 0a9e 53       		.byte	0x53
 6206 0a9f 64010000 		.4byte	.LVL171
 6207 0aa3 66010000 		.4byte	.LVL172
 6208 0aa7 0600     		.2byte	0x6
 6209 0aa9 76       		.byte	0x76
 6210 0aaa 00       		.sleb128 0
 6211 0aab 08       		.byte	0x8
 6212 0aac 80       		.byte	0x80
 6213 0aad 21       		.byte	0x21
 6214 0aae 9F       		.byte	0x9f
 6215 0aaf 66010000 		.4byte	.LVL172
 6216 0ab3 90010000 		.4byte	.LVL176
 6217 0ab7 0100     		.2byte	0x1
 6218 0ab9 56       		.byte	0x56
 6219 0aba 90010000 		.4byte	.LVL176
 6220 0abe 96010000 		.4byte	.LVL177
 6221 0ac2 0100     		.2byte	0x1
 6222 0ac4 53       		.byte	0x53
 6223 0ac5 96010000 		.4byte	.LVL177
 6224 0ac9 BE010000 		.4byte	.LVL178
 6225 0acd 0100     		.2byte	0x1
 6226 0acf 56       		.byte	0x56
 6227 0ad0 BE010000 		.4byte	.LVL178
 6228 0ad4 C4010000 		.4byte	.LVL179
 6229 0ad8 0500     		.2byte	0x5
 6230 0ada 76       		.byte	0x76
ARM GAS  C:\Users\haske\AppData\Local\Temp\ccZHF2NV.s 			page 129


 6231 0adb 00       		.sleb128 0
 6232 0adc 40       		.byte	0x40
 6233 0add 21       		.byte	0x21
 6234 0ade 9F       		.byte	0x9f
 6235 0adf C4010000 		.4byte	.LVL179
 6236 0ae3 28040000 		.4byte	.LVL230
 6237 0ae7 0100     		.2byte	0x1
 6238 0ae9 56       		.byte	0x56
 6239 0aea 3A040000 		.4byte	.LVL234
 6240 0aee 40040000 		.4byte	.LVL235
 6241 0af2 0100     		.2byte	0x1
 6242 0af4 56       		.byte	0x56
 6243 0af5 8E040000 		.4byte	.LVL249
 6244 0af9 DC040000 		.4byte	.LVL264
 6245 0afd 0100     		.2byte	0x1
 6246 0aff 56       		.byte	0x56
 6247 0b00 F4040000 		.4byte	.LVL270
 6248 0b04 FA040000 		.4byte	.LVL271
 6249 0b08 0100     		.2byte	0x1
 6250 0b0a 56       		.byte	0x56
 6251 0b0b 62050000 		.4byte	.LVL294
 6252 0b0f 8A050000 		.4byte	.LVL300
 6253 0b13 0100     		.2byte	0x1
 6254 0b15 56       		.byte	0x56
 6255 0b16 00000000 		.4byte	0
 6256 0b1a 00000000 		.4byte	0
 6257              	.LLST45:
 6258 0b1e 96000000 		.4byte	.LVL142
 6259 0b22 AC000000 		.4byte	.LVL147
 6260 0b26 0200     		.2byte	0x2
 6261 0b28 30       		.byte	0x30
 6262 0b29 9F       		.byte	0x9f
 6263 0b2a AC000000 		.4byte	.LVL147
 6264 0b2e AE000000 		.4byte	.LVL148
 6265 0b32 0100     		.2byte	0x1
 6266 0b34 50       		.byte	0x50
 6267 0b35 AE000000 		.4byte	.LVL148
 6268 0b39 C8000000 		.4byte	.LVL152
 6269 0b3d 0200     		.2byte	0x2
 6270 0b3f 30       		.byte	0x30
 6271 0b40 9F       		.byte	0x9f
 6272 0b41 C8000000 		.4byte	.LVL152
 6273 0b45 CA000000 		.4byte	.LVL153
 6274 0b49 0100     		.2byte	0x1
 6275 0b4b 53       		.byte	0x53
 6276 0b4c CA000000 		.4byte	.LVL153
 6277 0b50 CC000000 		.4byte	.LVL154
 6278 0b54 0200     		.2byte	0x2
 6279 0b56 30       		.byte	0x30
 6280 0b57 9F       		.byte	0x9f
 6281 0b58 CC000000 		.4byte	.LVL154
 6282 0b5c D2000000 		.4byte	.LVL156
 6283 0b60 0100     		.2byte	0x1
 6284 0b62 5B       		.byte	0x5b
 6285 0b63 D2000000 		.4byte	.LVL156
 6286 0b67 D6000000 		.4byte	.LVL157
 6287 0b6b 0200     		.2byte	0x2
ARM GAS  C:\Users\haske\AppData\Local\Temp\ccZHF2NV.s 			page 130


 6288 0b6d 30       		.byte	0x30
 6289 0b6e 9F       		.byte	0x9f
 6290 0b6f D6000000 		.4byte	.LVL157
 6291 0b73 2A040000 		.4byte	.LVL231
 6292 0b77 0100     		.2byte	0x1
 6293 0b79 5B       		.byte	0x5b
 6294 0b7a 2A040000 		.4byte	.LVL231
 6295 0b7e 3A040000 		.4byte	.LVL234
 6296 0b82 0100     		.2byte	0x1
 6297 0b84 57       		.byte	0x57
 6298 0b85 3A040000 		.4byte	.LVL234
 6299 0b89 40040000 		.4byte	.LVL235
 6300 0b8d 0100     		.2byte	0x1
 6301 0b8f 5B       		.byte	0x5b
 6302 0b90 40040000 		.4byte	.LVL235
 6303 0b94 4A040000 		.4byte	.LVL237
 6304 0b98 0100     		.2byte	0x1
 6305 0b9a 57       		.byte	0x57
 6306 0b9b 4A040000 		.4byte	.LVL237
 6307 0b9f 64040000 		.4byte	.LVL240
 6308 0ba3 0100     		.2byte	0x1
 6309 0ba5 5B       		.byte	0x5b
 6310 0ba6 64040000 		.4byte	.LVL240
 6311 0baa 74040000 		.4byte	.LVL243
 6312 0bae 0100     		.2byte	0x1
 6313 0bb0 55       		.byte	0x55
 6314 0bb1 74040000 		.4byte	.LVL243
 6315 0bb5 7A040000 		.4byte	.LVL245
 6316 0bb9 0100     		.2byte	0x1
 6317 0bbb 5B       		.byte	0x5b
 6318 0bbc 7A040000 		.4byte	.LVL245
 6319 0bc0 84040000 		.4byte	.LVL248
 6320 0bc4 0100     		.2byte	0x1
 6321 0bc6 55       		.byte	0x55
 6322 0bc7 84040000 		.4byte	.LVL248
 6323 0bcb E4040000 		.4byte	.LVL267
 6324 0bcf 0100     		.2byte	0x1
 6325 0bd1 5B       		.byte	0x5b
 6326 0bd2 E4040000 		.4byte	.LVL267
 6327 0bd6 F4040000 		.4byte	.LVL270
 6328 0bda 0100     		.2byte	0x1
 6329 0bdc 55       		.byte	0x55
 6330 0bdd F4040000 		.4byte	.LVL270
 6331 0be1 FA040000 		.4byte	.LVL271
 6332 0be5 0100     		.2byte	0x1
 6333 0be7 5B       		.byte	0x5b
 6334 0be8 FA040000 		.4byte	.LVL271
 6335 0bec 04050000 		.4byte	.LVL273
 6336 0bf0 0100     		.2byte	0x1
 6337 0bf2 55       		.byte	0x55
 6338 0bf3 04050000 		.4byte	.LVL273
 6339 0bf7 3E050000 		.4byte	.LVL287
 6340 0bfb 0100     		.2byte	0x1
 6341 0bfd 5B       		.byte	0x5b
 6342 0bfe 3E050000 		.4byte	.LVL287
 6343 0c02 4E050000 		.4byte	.LVL290
 6344 0c06 0100     		.2byte	0x1
ARM GAS  C:\Users\haske\AppData\Local\Temp\ccZHF2NV.s 			page 131


 6345 0c08 55       		.byte	0x55
 6346 0c09 4E050000 		.4byte	.LVL290
 6347 0c0d 50050000 		.4byte	.LVL291
 6348 0c11 0100     		.2byte	0x1
 6349 0c13 5B       		.byte	0x5b
 6350 0c14 50050000 		.4byte	.LVL291
 6351 0c18 5A050000 		.4byte	.LVL293
 6352 0c1c 0100     		.2byte	0x1
 6353 0c1e 55       		.byte	0x55
 6354 0c1f 5A050000 		.4byte	.LVL293
 6355 0c23 8A050000 		.4byte	.LVL300
 6356 0c27 0100     		.2byte	0x1
 6357 0c29 5B       		.byte	0x5b
 6358 0c2a 00000000 		.4byte	0
 6359 0c2e 00000000 		.4byte	0
 6360              	.LLST46:
 6361 0c32 D6000000 		.4byte	.LVL157
 6362 0c36 FC000000 		.4byte	.LVL162
 6363 0c3a 0200     		.2byte	0x2
 6364 0c3c 30       		.byte	0x30
 6365 0c3d 9F       		.byte	0x9f
 6366 0c3e FC000000 		.4byte	.LVL162
 6367 0c42 FE000000 		.4byte	.LVL163
 6368 0c46 0100     		.2byte	0x1
 6369 0c48 50       		.byte	0x50
 6370 0c49 FE000000 		.4byte	.LVL163
 6371 0c4d 14010000 		.4byte	.LVL164
 6372 0c51 0200     		.2byte	0x2
 6373 0c53 30       		.byte	0x30
 6374 0c54 9F       		.byte	0x9f
 6375 0c55 14010000 		.4byte	.LVL164
 6376 0c59 1A010000 		.4byte	.LVL165
 6377 0c5d 0100     		.2byte	0x1
 6378 0c5f 53       		.byte	0x53
 6379 0c60 1A010000 		.4byte	.LVL165
 6380 0c64 24010000 		.4byte	.LVL166
 6381 0c68 0200     		.2byte	0x2
 6382 0c6a 30       		.byte	0x30
 6383 0c6b 9F       		.byte	0x9f
 6384 0c6c 24010000 		.4byte	.LVL166
 6385 0c70 64040000 		.4byte	.LVL240
 6386 0c74 0100     		.2byte	0x1
 6387 0c76 58       		.byte	0x58
 6388 0c77 74040000 		.4byte	.LVL243
 6389 0c7b 78040000 		.4byte	.LVL244
 6390 0c7f 0100     		.2byte	0x1
 6391 0c81 58       		.byte	0x58
 6392 0c82 8E040000 		.4byte	.LVL249
 6393 0c86 A0040000 		.4byte	.LVL252
 6394 0c8a 0100     		.2byte	0x1
 6395 0c8c 58       		.byte	0x58
 6396 0c8d A0040000 		.4byte	.LVL252
 6397 0c91 A2040000 		.4byte	.LVL253
 6398 0c95 0100     		.2byte	0x1
 6399 0c97 53       		.byte	0x53
 6400 0c98 A2040000 		.4byte	.LVL253
 6401 0c9c A4040000 		.4byte	.LVL254
ARM GAS  C:\Users\haske\AppData\Local\Temp\ccZHF2NV.s 			page 132


 6402 0ca0 0100     		.2byte	0x1
 6403 0ca2 58       		.byte	0x58
 6404 0ca3 A4040000 		.4byte	.LVL254
 6405 0ca7 A6040000 		.4byte	.LVL255
 6406 0cab 0100     		.2byte	0x1
 6407 0cad 53       		.byte	0x53
 6408 0cae A6040000 		.4byte	.LVL255
 6409 0cb2 DE040000 		.4byte	.LVL265
 6410 0cb6 0100     		.2byte	0x1
 6411 0cb8 58       		.byte	0x58
 6412 0cb9 DE040000 		.4byte	.LVL265
 6413 0cbd E4040000 		.4byte	.LVL267
 6414 0cc1 0100     		.2byte	0x1
 6415 0cc3 57       		.byte	0x57
 6416 0cc4 E4040000 		.4byte	.LVL267
 6417 0cc8 0C050000 		.4byte	.LVL276
 6418 0ccc 0100     		.2byte	0x1
 6419 0cce 58       		.byte	0x58
 6420 0ccf 0C050000 		.4byte	.LVL276
 6421 0cd3 12050000 		.4byte	.LVL278
 6422 0cd7 0100     		.2byte	0x1
 6423 0cd9 57       		.byte	0x57
 6424 0cda 12050000 		.4byte	.LVL278
 6425 0cde 14050000 		.4byte	.LVL279
 6426 0ce2 0100     		.2byte	0x1
 6427 0ce4 53       		.byte	0x53
 6428 0ce5 14050000 		.4byte	.LVL279
 6429 0ce9 2C050000 		.4byte	.LVL284
 6430 0ced 0100     		.2byte	0x1
 6431 0cef 57       		.byte	0x57
 6432 0cf0 2C050000 		.4byte	.LVL284
 6433 0cf4 30050000 		.4byte	.LVL285
 6434 0cf8 0100     		.2byte	0x1
 6435 0cfa 53       		.byte	0x53
 6436 0cfb 62050000 		.4byte	.LVL294
 6437 0cff 8A050000 		.4byte	.LVL300
 6438 0d03 0100     		.2byte	0x1
 6439 0d05 58       		.byte	0x58
 6440 0d06 00000000 		.4byte	0
 6441 0d0a 00000000 		.4byte	0
 6442              	.LLST47:
 6443 0d0e 5E000000 		.4byte	.LVL127
 6444 0d12 60000000 		.4byte	.LVL128
 6445 0d16 0200     		.2byte	0x2
 6446 0d18 31       		.byte	0x31
 6447 0d19 9F       		.byte	0x9f
 6448 0d1a 68000000 		.4byte	.LVL130
 6449 0d1e 6C000000 		.4byte	.LVL131
 6450 0d22 0200     		.2byte	0x2
 6451 0d24 31       		.byte	0x31
 6452 0d25 9F       		.byte	0x9f
 6453 0d26 74000000 		.4byte	.LVL133
 6454 0d2a 78000000 		.4byte	.LVL134
 6455 0d2e 0200     		.2byte	0x2
 6456 0d30 31       		.byte	0x31
 6457 0d31 9F       		.byte	0x9f
 6458 0d32 80000000 		.4byte	.LVL136
ARM GAS  C:\Users\haske\AppData\Local\Temp\ccZHF2NV.s 			page 133


 6459 0d36 84000000 		.4byte	.LVL137
 6460 0d3a 0200     		.2byte	0x2
 6461 0d3c 31       		.byte	0x31
 6462 0d3d 9F       		.byte	0x9f
 6463 0d3e 8C000000 		.4byte	.LVL139
 6464 0d42 90000000 		.4byte	.LVL140
 6465 0d46 0200     		.2byte	0x2
 6466 0d48 31       		.byte	0x31
 6467 0d49 9F       		.byte	0x9f
 6468 0d4a 92000000 		.4byte	.LVL141
 6469 0d4e 9C000000 		.4byte	.LVL144
 6470 0d52 0100     		.2byte	0x1
 6471 0d54 53       		.byte	0x53
 6472 0d55 00000000 		.4byte	0
 6473 0d59 00000000 		.4byte	0
 6474              	.LLST48:
 6475 0d5d 16000000 		.4byte	.LVL118
 6476 0d61 24000000 		.4byte	.LVL120
 6477 0d65 0200     		.2byte	0x2
 6478 0d67 30       		.byte	0x30
 6479 0d68 9F       		.byte	0x9f
 6480 0d69 24000000 		.4byte	.LVL120
 6481 0d6d 2A000000 		.4byte	.LVL121
 6482 0d71 0100     		.2byte	0x1
 6483 0d73 57       		.byte	0x57
 6484 0d74 2A000000 		.4byte	.LVL121
 6485 0d78 3C000000 		.4byte	.LVL123
 6486 0d7c 0100     		.2byte	0x1
 6487 0d7e 54       		.byte	0x54
 6488 0d7f 3C000000 		.4byte	.LVL123
 6489 0d83 88020000 		.4byte	.LVL195
 6490 0d87 0100     		.2byte	0x1
 6491 0d89 57       		.byte	0x57
 6492 0d8a 88020000 		.4byte	.LVL195
 6493 0d8e 8A020000 		.4byte	.LVL196
 6494 0d92 0100     		.2byte	0x1
 6495 0d94 50       		.byte	0x50
 6496 0d95 8A020000 		.4byte	.LVL196
 6497 0d99 BE020000 		.4byte	.LVL202
 6498 0d9d 0100     		.2byte	0x1
 6499 0d9f 57       		.byte	0x57
 6500 0da0 BE020000 		.4byte	.LVL202
 6501 0da4 C0020000 		.4byte	.LVL203
 6502 0da8 0100     		.2byte	0x1
 6503 0daa 50       		.byte	0x50
 6504 0dab C0020000 		.4byte	.LVL203
 6505 0daf 16030000 		.4byte	.LVL208
 6506 0db3 0100     		.2byte	0x1
 6507 0db5 57       		.byte	0x57
 6508 0db6 16030000 		.4byte	.LVL208
 6509 0dba 18030000 		.4byte	.LVL209
 6510 0dbe 0100     		.2byte	0x1
 6511 0dc0 50       		.byte	0x50
 6512 0dc1 18030000 		.4byte	.LVL209
 6513 0dc5 92030000 		.4byte	.LVL218
 6514 0dc9 0100     		.2byte	0x1
 6515 0dcb 57       		.byte	0x57
ARM GAS  C:\Users\haske\AppData\Local\Temp\ccZHF2NV.s 			page 134


 6516 0dcc 92030000 		.4byte	.LVL218
 6517 0dd0 94030000 		.4byte	.LVL219
 6518 0dd4 0100     		.2byte	0x1
 6519 0dd6 50       		.byte	0x50
 6520 0dd7 94030000 		.4byte	.LVL219
 6521 0ddb C2030000 		.4byte	.LVL222
 6522 0ddf 0100     		.2byte	0x1
 6523 0de1 57       		.byte	0x57
 6524 0de2 C2030000 		.4byte	.LVL222
 6525 0de6 C4030000 		.4byte	.LVL223
 6526 0dea 0100     		.2byte	0x1
 6527 0dec 50       		.byte	0x50
 6528 0ded C4030000 		.4byte	.LVL223
 6529 0df1 2A040000 		.4byte	.LVL231
 6530 0df5 0100     		.2byte	0x1
 6531 0df7 57       		.byte	0x57
 6532 0df8 2A040000 		.4byte	.LVL231
 6533 0dfc 2C040000 		.4byte	.LVL232
 6534 0e00 0100     		.2byte	0x1
 6535 0e02 52       		.byte	0x52
 6536 0e03 2C040000 		.4byte	.LVL232
 6537 0e07 3A040000 		.4byte	.LVL234
 6538 0e0b 0100     		.2byte	0x1
 6539 0e0d 54       		.byte	0x54
 6540 0e0e 3A040000 		.4byte	.LVL234
 6541 0e12 40040000 		.4byte	.LVL235
 6542 0e16 0100     		.2byte	0x1
 6543 0e18 57       		.byte	0x57
 6544 0e19 40040000 		.4byte	.LVL235
 6545 0e1d 4A040000 		.4byte	.LVL237
 6546 0e21 0100     		.2byte	0x1
 6547 0e23 52       		.byte	0x52
 6548 0e24 4A040000 		.4byte	.LVL237
 6549 0e28 4E040000 		.4byte	.LVL238
 6550 0e2c 0100     		.2byte	0x1
 6551 0e2e 57       		.byte	0x57
 6552 0e2f 4E040000 		.4byte	.LVL238
 6553 0e33 64040000 		.4byte	.LVL240
 6554 0e37 0100     		.2byte	0x1
 6555 0e39 54       		.byte	0x54
 6556 0e3a 64040000 		.4byte	.LVL240
 6557 0e3e 66040000 		.4byte	.LVL241
 6558 0e42 0100     		.2byte	0x1
 6559 0e44 52       		.byte	0x52
 6560 0e45 66040000 		.4byte	.LVL241
 6561 0e49 74040000 		.4byte	.LVL243
 6562 0e4d 0100     		.2byte	0x1
 6563 0e4f 57       		.byte	0x57
 6564 0e50 74040000 		.4byte	.LVL243
 6565 0e54 7A040000 		.4byte	.LVL245
 6566 0e58 0100     		.2byte	0x1
 6567 0e5a 54       		.byte	0x54
 6568 0e5b 7A040000 		.4byte	.LVL245
 6569 0e5f 84040000 		.4byte	.LVL248
 6570 0e63 0100     		.2byte	0x1
 6571 0e65 52       		.byte	0x52
 6572 0e66 84040000 		.4byte	.LVL248
ARM GAS  C:\Users\haske\AppData\Local\Temp\ccZHF2NV.s 			page 135


 6573 0e6a 8E040000 		.4byte	.LVL249
 6574 0e6e 0100     		.2byte	0x1
 6575 0e70 54       		.byte	0x54
 6576 0e71 8E040000 		.4byte	.LVL249
 6577 0e75 DA040000 		.4byte	.LVL263
 6578 0e79 0100     		.2byte	0x1
 6579 0e7b 57       		.byte	0x57
 6580 0e7c DA040000 		.4byte	.LVL263
 6581 0e80 E6040000 		.4byte	.LVL268
 6582 0e84 0100     		.2byte	0x1
 6583 0e86 52       		.byte	0x52
 6584 0e87 E6040000 		.4byte	.LVL268
 6585 0e8b FA040000 		.4byte	.LVL271
 6586 0e8f 0100     		.2byte	0x1
 6587 0e91 57       		.byte	0x57
 6588 0e92 FA040000 		.4byte	.LVL271
 6589 0e96 18050000 		.4byte	.LVL281
 6590 0e9a 0100     		.2byte	0x1
 6591 0e9c 52       		.byte	0x52
 6592 0e9d 18050000 		.4byte	.LVL281
 6593 0ea1 20050000 		.4byte	.LVL283
 6594 0ea5 0100     		.2byte	0x1
 6595 0ea7 54       		.byte	0x54
 6596 0ea8 20050000 		.4byte	.LVL283
 6597 0eac 40050000 		.4byte	.LVL288
 6598 0eb0 0100     		.2byte	0x1
 6599 0eb2 52       		.byte	0x52
 6600 0eb3 40050000 		.4byte	.LVL288
 6601 0eb7 4E050000 		.4byte	.LVL290
 6602 0ebb 0100     		.2byte	0x1
 6603 0ebd 57       		.byte	0x57
 6604 0ebe 4E050000 		.4byte	.LVL290
 6605 0ec2 62050000 		.4byte	.LVL294
 6606 0ec6 0100     		.2byte	0x1
 6607 0ec8 52       		.byte	0x52
 6608 0ec9 62050000 		.4byte	.LVL294
 6609 0ecd 64050000 		.4byte	.LVL295
 6610 0ed1 0100     		.2byte	0x1
 6611 0ed3 57       		.byte	0x57
 6612 0ed4 64050000 		.4byte	.LVL295
 6613 0ed8 78050000 		.4byte	.LVL297
 6614 0edc 0100     		.2byte	0x1
 6615 0ede 54       		.byte	0x54
 6616 0edf 78050000 		.4byte	.LVL297
 6617 0ee3 7A050000 		.4byte	.LVL298
 6618 0ee7 0100     		.2byte	0x1
 6619 0ee9 57       		.byte	0x57
 6620 0eea 7A050000 		.4byte	.LVL298
 6621 0eee 8A050000 		.4byte	.LVL300
 6622 0ef2 0100     		.2byte	0x1
 6623 0ef4 54       		.byte	0x54
 6624 0ef5 8A050000 		.4byte	.LVL300
 6625 0ef9 AE050000 		.4byte	.LVL303
 6626 0efd 0100     		.2byte	0x1
 6627 0eff 57       		.byte	0x57
 6628 0f00 AE050000 		.4byte	.LVL303
 6629 0f04 BA050000 		.4byte	.LFE9
ARM GAS  C:\Users\haske\AppData\Local\Temp\ccZHF2NV.s 			page 136


 6630 0f08 0100     		.2byte	0x1
 6631 0f0a 50       		.byte	0x50
 6632 0f0b 00000000 		.4byte	0
 6633 0f0f 00000000 		.4byte	0
 6634              	.LLST49:
 6635 0f13 9A000000 		.4byte	.LVL143
 6636 0f17 A0000000 		.4byte	.LVL145
 6637 0f1b 0100     		.2byte	0x1
 6638 0f1d 52       		.byte	0x52
 6639 0f1e 00000000 		.4byte	0
 6640 0f22 00000000 		.4byte	0
 6641              	.LLST50:
 6642 0f26 BC000000 		.4byte	.LVL149
 6643 0f2a C6000000 		.4byte	.LVL151
 6644 0f2e 0100     		.2byte	0x1
 6645 0f30 53       		.byte	0x53
 6646 0f31 C6000000 		.4byte	.LVL151
 6647 0f35 CA000000 		.4byte	.LVL153
 6648 0f39 0500     		.2byte	0x5
 6649 0f3b 91       		.byte	0x91
 6650 0f3c 00       		.sleb128 0
 6651 0f3d 06       		.byte	0x6
 6652 0f3e 34       		.byte	0x34
 6653 0f3f 1C       		.byte	0x1c
 6654 0f40 CA000000 		.4byte	.LVL153
 6655 0f44 CC000000 		.4byte	.LVL154
 6656 0f48 0100     		.2byte	0x1
 6657 0f4a 53       		.byte	0x53
 6658 0f4b CC000000 		.4byte	.LVL154
 6659 0f4f D0000000 		.4byte	.LVL155
 6660 0f53 0500     		.2byte	0x5
 6661 0f55 91       		.byte	0x91
 6662 0f56 00       		.sleb128 0
 6663 0f57 06       		.byte	0x6
 6664 0f58 34       		.byte	0x34
 6665 0f59 1C       		.byte	0x1c
 6666 0f5a 00000000 		.4byte	0
 6667 0f5e 00000000 		.4byte	0
 6668              	.LLST51:
 6669 0f62 EA000000 		.4byte	.LVL159
 6670 0f66 F0000000 		.4byte	.LVL160
 6671 0f6a 0100     		.2byte	0x1
 6672 0f6c 52       		.byte	0x52
 6673 0f6d 00000000 		.4byte	0
 6674 0f71 00000000 		.4byte	0
 6675              	.LLST52:
 6676 0f75 BE010000 		.4byte	.LVL178
 6677 0f79 D2010000 		.4byte	.LVL180
 6678 0f7d 0200     		.2byte	0x2
 6679 0f7f 40       		.byte	0x40
 6680 0f80 9F       		.byte	0x9f
 6681 0f81 DA010000 		.4byte	.LVL181
 6682 0f85 E2010000 		.4byte	.LVL183
 6683 0f89 0200     		.2byte	0x2
 6684 0f8b 3A       		.byte	0x3a
 6685 0f8c 9F       		.byte	0x9f
 6686 0f8d EA010000 		.4byte	.LVL184
ARM GAS  C:\Users\haske\AppData\Local\Temp\ccZHF2NV.s 			page 137


 6687 0f91 EE010000 		.4byte	.LVL185
 6688 0f95 0200     		.2byte	0x2
 6689 0f97 40       		.byte	0x40
 6690 0f98 9F       		.byte	0x9f
 6691 0f99 F4010000 		.4byte	.LVL186
 6692 0f9d 72020000 		.4byte	.LVL193
 6693 0fa1 0100     		.2byte	0x1
 6694 0fa3 52       		.byte	0x52
 6695 0fa4 72020000 		.4byte	.LVL193
 6696 0fa8 85020000 		.4byte	.LVL194-1
 6697 0fac 0300     		.2byte	0x3
 6698 0fae 91       		.byte	0x91
 6699 0faf 907F     		.sleb128 -112
 6700 0fb1 8A020000 		.4byte	.LVL196
 6701 0fb5 B4020000 		.4byte	.LVL200
 6702 0fb9 0100     		.2byte	0x1
 6703 0fbb 52       		.byte	0x52
 6704 0fbc B4020000 		.4byte	.LVL200
 6705 0fc0 BB020000 		.4byte	.LVL201-1
 6706 0fc4 0300     		.2byte	0x3
 6707 0fc6 91       		.byte	0x91
 6708 0fc7 887F     		.sleb128 -120
 6709 0fc9 C0020000 		.4byte	.LVL203
 6710 0fcd 0C030000 		.4byte	.LVL206
 6711 0fd1 0100     		.2byte	0x1
 6712 0fd3 52       		.byte	0x52
 6713 0fd4 0C030000 		.4byte	.LVL206
 6714 0fd8 13030000 		.4byte	.LVL207-1
 6715 0fdc 0300     		.2byte	0x3
 6716 0fde 91       		.byte	0x91
 6717 0fdf 887F     		.sleb128 -120
 6718 0fe1 18030000 		.4byte	.LVL209
 6719 0fe5 22030000 		.4byte	.LVL210
 6720 0fe9 0100     		.2byte	0x1
 6721 0feb 52       		.byte	0x52
 6722 0fec 54030000 		.4byte	.LVL215
 6723 0ff0 88030000 		.4byte	.LVL216
 6724 0ff4 0100     		.2byte	0x1
 6725 0ff6 52       		.byte	0x52
 6726 0ff7 88030000 		.4byte	.LVL216
 6727 0ffb 8F030000 		.4byte	.LVL217-1
 6728 0fff 0300     		.2byte	0x3
 6729 1001 91       		.byte	0x91
 6730 1002 907F     		.sleb128 -112
 6731 1004 94030000 		.4byte	.LVL219
 6732 1008 B8030000 		.4byte	.LVL220
 6733 100c 0100     		.2byte	0x1
 6734 100e 52       		.byte	0x52
 6735 100f B8030000 		.4byte	.LVL220
 6736 1013 BF030000 		.4byte	.LVL221-1
 6737 1017 0300     		.2byte	0x3
 6738 1019 91       		.byte	0x91
 6739 101a 887F     		.sleb128 -120
 6740 101c C4030000 		.4byte	.LVL223
 6741 1020 04040000 		.4byte	.LVL225
 6742 1024 0100     		.2byte	0x1
 6743 1026 52       		.byte	0x52
ARM GAS  C:\Users\haske\AppData\Local\Temp\ccZHF2NV.s 			page 138


 6744 1027 04040000 		.4byte	.LVL225
 6745 102b 13040000 		.4byte	.LVL227-1
 6746 102f 0300     		.2byte	0x3
 6747 1031 91       		.byte	0x91
 6748 1032 887F     		.sleb128 -120
 6749 1034 00000000 		.4byte	0
 6750 1038 00000000 		.4byte	0
 6751              	.LLST53:
 6752 103c 3C020000 		.4byte	.LVL190
 6753 1040 3E020000 		.4byte	.LVL191
 6754 1044 0600     		.2byte	0x6
 6755 1046 51       		.byte	0x51
 6756 1047 93       		.byte	0x93
 6757 1048 04       		.uleb128 0x4
 6758 1049 53       		.byte	0x53
 6759 104a 93       		.byte	0x93
 6760 104b 04       		.uleb128 0x4
 6761 104c 3E020000 		.4byte	.LVL191
 6762 1050 4E020000 		.4byte	.LVL192
 6763 1054 0600     		.2byte	0x6
 6764 1056 51       		.byte	0x51
 6765 1057 93       		.byte	0x93
 6766 1058 04       		.uleb128 0x4
 6767 1059 5C       		.byte	0x5c
 6768 105a 93       		.byte	0x93
 6769 105b 04       		.uleb128 0x4
 6770 105c 00000000 		.4byte	0
 6771 1060 00000000 		.4byte	0
 6772              	.LLST54:
 6773 1064 98020000 		.4byte	.LVL197
 6774 1068 A0020000 		.4byte	.LVL198
 6775 106c 0100     		.2byte	0x1
 6776 106e 53       		.byte	0x53
 6777 106f A0020000 		.4byte	.LVL198
 6778 1073 A2020000 		.4byte	.LVL199
 6779 1077 0500     		.2byte	0x5
 6780 1079 91       		.byte	0x91
 6781 107a 00       		.sleb128 0
 6782 107b 06       		.byte	0x6
 6783 107c 34       		.byte	0x34
 6784 107d 1C       		.byte	0x1c
 6785 107e 00000000 		.4byte	0
 6786 1082 00000000 		.4byte	0
 6787              	.LLST55:
 6788 1086 F0020000 		.4byte	.LVL204
 6789 108a F8020000 		.4byte	.LVL205
 6790 108e 0100     		.2byte	0x1
 6791 1090 53       		.byte	0x53
 6792 1091 00000000 		.4byte	0
 6793 1095 00000000 		.4byte	0
 6794              	.LLST56:
 6795 1099 26030000 		.4byte	.LVL211
 6796 109d 2E030000 		.4byte	.LVL212
 6797 10a1 0100     		.2byte	0x1
 6798 10a3 53       		.byte	0x53
 6799 10a4 00000000 		.4byte	0
 6800 10a8 00000000 		.4byte	0
ARM GAS  C:\Users\haske\AppData\Local\Temp\ccZHF2NV.s 			page 139


 6801              	.LLST57:
 6802 10ac F6030000 		.4byte	.LVL224
 6803 10b0 0A040000 		.4byte	.LVL226
 6804 10b4 0100     		.2byte	0x1
 6805 10b6 53       		.byte	0x53
 6806 10b7 0A040000 		.4byte	.LVL226
 6807 10bb 13040000 		.4byte	.LVL227-1
 6808 10bf 0200     		.2byte	0x2
 6809 10c1 7D       		.byte	0x7d
 6810 10c2 00       		.sleb128 0
 6811 10c3 00000000 		.4byte	0
 6812 10c7 00000000 		.4byte	0
 6813              	.LLST58:
 6814 10cb 1E040000 		.4byte	.LVL229
 6815 10cf 2A040000 		.4byte	.LVL231
 6816 10d3 0200     		.2byte	0x2
 6817 10d5 31       		.byte	0x31
 6818 10d6 9F       		.byte	0x9f
 6819 10d7 2A040000 		.4byte	.LVL231
 6820 10db 3A040000 		.4byte	.LVL234
 6821 10df 0100     		.2byte	0x1
 6822 10e1 56       		.byte	0x56
 6823 10e2 3A040000 		.4byte	.LVL234
 6824 10e6 40040000 		.4byte	.LVL235
 6825 10ea 0200     		.2byte	0x2
 6826 10ec 31       		.byte	0x31
 6827 10ed 9F       		.byte	0x9f
 6828 10ee 40040000 		.4byte	.LVL235
 6829 10f2 42040000 		.4byte	.LVL236
 6830 10f6 0100     		.2byte	0x1
 6831 10f8 53       		.byte	0x53
 6832 10f9 42040000 		.4byte	.LVL236
 6833 10fd 64040000 		.4byte	.LVL240
 6834 1101 0100     		.2byte	0x1
 6835 1103 56       		.byte	0x56
 6836 1104 64040000 		.4byte	.LVL240
 6837 1108 74040000 		.4byte	.LVL243
 6838 110c 0100     		.2byte	0x1
 6839 110e 54       		.byte	0x54
 6840 110f 74040000 		.4byte	.LVL243
 6841 1113 7C040000 		.4byte	.LVL246
 6842 1117 0100     		.2byte	0x1
 6843 1119 56       		.byte	0x56
 6844 111a 7C040000 		.4byte	.LVL246
 6845 111e 82040000 		.4byte	.LVL247
 6846 1122 0100     		.2byte	0x1
 6847 1124 54       		.byte	0x54
 6848 1125 82040000 		.4byte	.LVL247
 6849 1129 84040000 		.4byte	.LVL248
 6850 112d 0300     		.2byte	0x3
 6851 112f 76       		.byte	0x76
 6852 1130 01       		.sleb128 1
 6853 1131 9F       		.byte	0x9f
 6854 1132 00000000 		.4byte	0
 6855 1136 00000000 		.4byte	0
 6856              	.LLST59:
 6857 113a 9A040000 		.4byte	.LVL250
ARM GAS  C:\Users\haske\AppData\Local\Temp\ccZHF2NV.s 			page 140


 6858 113e 9C040000 		.4byte	.LVL251
 6859 1142 0200     		.2byte	0x2
 6860 1144 73       		.byte	0x73
 6861 1145 7C       		.sleb128 -4
 6862 1146 9C040000 		.4byte	.LVL251
 6863 114a E4040000 		.4byte	.LVL267
 6864 114e 0500     		.2byte	0x5
 6865 1150 91       		.byte	0x91
 6866 1151 00       		.sleb128 0
 6867 1152 06       		.byte	0x6
 6868 1153 34       		.byte	0x34
 6869 1154 1C       		.byte	0x1c
 6870 1155 E4040000 		.4byte	.LVL267
 6871 1159 F4040000 		.4byte	.LVL270
 6872 115d 0300     		.2byte	0x3
 6873 115f 91       		.byte	0x91
 6874 1160 B47F     		.sleb128 -76
 6875 1162 F4040000 		.4byte	.LVL270
 6876 1166 FA040000 		.4byte	.LVL271
 6877 116a 0500     		.2byte	0x5
 6878 116c 91       		.byte	0x91
 6879 116d 00       		.sleb128 0
 6880 116e 06       		.byte	0x6
 6881 116f 34       		.byte	0x34
 6882 1170 1C       		.byte	0x1c
 6883 1171 FA040000 		.4byte	.LVL271
 6884 1175 12050000 		.4byte	.LVL278
 6885 1179 0300     		.2byte	0x3
 6886 117b 91       		.byte	0x91
 6887 117c B47F     		.sleb128 -76
 6888 117e 12050000 		.4byte	.LVL278
 6889 1182 3E050000 		.4byte	.LVL287
 6890 1186 0100     		.2byte	0x1
 6891 1188 56       		.byte	0x56
 6892 1189 4E050000 		.4byte	.LVL290
 6893 118d 50050000 		.4byte	.LVL291
 6894 1191 0100     		.2byte	0x1
 6895 1193 56       		.byte	0x56
 6896 1194 00000000 		.4byte	0
 6897 1198 00000000 		.4byte	0
 6898              	.LLST60:
 6899 119c CE040000 		.4byte	.LVL262
 6900 11a0 E4040000 		.4byte	.LVL267
 6901 11a4 0100     		.2byte	0x1
 6902 11a6 54       		.byte	0x54
 6903 11a7 E4040000 		.4byte	.LVL267
 6904 11ab F4040000 		.4byte	.LVL270
 6905 11af 0100     		.2byte	0x1
 6906 11b1 56       		.byte	0x56
 6907 11b2 F4040000 		.4byte	.LVL270
 6908 11b6 FC040000 		.4byte	.LVL272
 6909 11ba 0100     		.2byte	0x1
 6910 11bc 54       		.byte	0x54
 6911 11bd FC040000 		.4byte	.LVL272
 6912 11c1 0A050000 		.4byte	.LVL275
 6913 11c5 0100     		.2byte	0x1
 6914 11c7 56       		.byte	0x56
ARM GAS  C:\Users\haske\AppData\Local\Temp\ccZHF2NV.s 			page 141


 6915 11c8 0A050000 		.4byte	.LVL275
 6916 11cc 12050000 		.4byte	.LVL278
 6917 11d0 0100     		.2byte	0x1
 6918 11d2 5A       		.byte	0x5a
 6919 11d3 12050000 		.4byte	.LVL278
 6920 11d7 3C050000 		.4byte	.LVL286
 6921 11db 0100     		.2byte	0x1
 6922 11dd 59       		.byte	0x59
 6923 11de 3C050000 		.4byte	.LVL286
 6924 11e2 3E050000 		.4byte	.LVL287
 6925 11e6 0100     		.2byte	0x1
 6926 11e8 54       		.byte	0x54
 6927 11e9 3E050000 		.4byte	.LVL287
 6928 11ed 4E050000 		.4byte	.LVL290
 6929 11f1 0100     		.2byte	0x1
 6930 11f3 56       		.byte	0x56
 6931 11f4 4E050000 		.4byte	.LVL290
 6932 11f8 52050000 		.4byte	.LVL292
 6933 11fc 0100     		.2byte	0x1
 6934 11fe 54       		.byte	0x54
 6935 11ff 52050000 		.4byte	.LVL292
 6936 1203 5A050000 		.4byte	.LVL293
 6937 1207 0100     		.2byte	0x1
 6938 1209 56       		.byte	0x56
 6939 120a 00000000 		.4byte	0
 6940 120e 00000000 		.4byte	0
 6941              	.LLST61:
 6942 1212 AA040000 		.4byte	.LVL256
 6943 1216 AE040000 		.4byte	.LVL258
 6944 121a 0100     		.2byte	0x1
 6945 121c 52       		.byte	0x52
 6946 121d AE040000 		.4byte	.LVL258
 6947 1221 B6040000 		.4byte	.LVL259
 6948 1225 0100     		.2byte	0x1
 6949 1227 53       		.byte	0x53
 6950 1228 B6040000 		.4byte	.LVL259
 6951 122c BA040000 		.4byte	.LVL260
 6952 1230 0100     		.2byte	0x1
 6953 1232 52       		.byte	0x52
 6954 1233 00000000 		.4byte	0
 6955 1237 00000000 		.4byte	0
 6956              	.LLST62:
 6957 123b AA040000 		.4byte	.LVL256
 6958 123f BE040000 		.4byte	.LVL261
 6959 1243 0100     		.2byte	0x1
 6960 1245 54       		.byte	0x54
 6961 1246 00000000 		.4byte	0
 6962 124a 00000000 		.4byte	0
 6963              	.LLST63:
 6964 124e 00000000 		.4byte	.LVL305
 6965 1252 14000000 		.4byte	.LVL307
 6966 1256 0100     		.2byte	0x1
 6967 1258 50       		.byte	0x50
 6968 1259 14000000 		.4byte	.LVL307
 6969 125d 17000000 		.4byte	.LVL308-1
 6970 1261 0100     		.2byte	0x1
 6971 1263 51       		.byte	0x51
ARM GAS  C:\Users\haske\AppData\Local\Temp\ccZHF2NV.s 			page 142


 6972 1264 17000000 		.4byte	.LVL308-1
 6973 1268 28000000 		.4byte	.LFE10
 6974 126c 0400     		.2byte	0x4
 6975 126e F3       		.byte	0xf3
 6976 126f 01       		.uleb128 0x1
 6977 1270 50       		.byte	0x50
 6978 1271 9F       		.byte	0x9f
 6979 1272 00000000 		.4byte	0
 6980 1276 00000000 		.4byte	0
 6981              	.LLST64:
 6982 127a 00000000 		.4byte	.LVL305
 6983 127e 12000000 		.4byte	.LVL306
 6984 1282 0100     		.2byte	0x1
 6985 1284 51       		.byte	0x51
 6986 1285 12000000 		.4byte	.LVL306
 6987 1289 17000000 		.4byte	.LVL308-1
 6988 128d 0100     		.2byte	0x1
 6989 128f 52       		.byte	0x52
 6990 1290 17000000 		.4byte	.LVL308-1
 6991 1294 28000000 		.4byte	.LFE10
 6992 1298 0400     		.2byte	0x4
 6993 129a F3       		.byte	0xf3
 6994 129b 01       		.uleb128 0x1
 6995 129c 51       		.byte	0x51
 6996 129d 9F       		.byte	0x9f
 6997 129e 00000000 		.4byte	0
 6998 12a2 00000000 		.4byte	0
 6999              	.LLST65:
 7000 12a6 00000000 		.4byte	.LVL309
 7001 12aa 0E000000 		.4byte	.LVL313
 7002 12ae 0100     		.2byte	0x1
 7003 12b0 50       		.byte	0x50
 7004 12b1 0E000000 		.4byte	.LVL313
 7005 12b5 11000000 		.4byte	.LVL314-1
 7006 12b9 0100     		.2byte	0x1
 7007 12bb 51       		.byte	0x51
 7008 12bc 11000000 		.4byte	.LVL314-1
 7009 12c0 1C000000 		.4byte	.LFE11
 7010 12c4 0400     		.2byte	0x4
 7011 12c6 F3       		.byte	0xf3
 7012 12c7 01       		.uleb128 0x1
 7013 12c8 50       		.byte	0x50
 7014 12c9 9F       		.byte	0x9f
 7015 12ca 00000000 		.4byte	0
 7016 12ce 00000000 		.4byte	0
 7017              	.LLST66:
 7018 12d2 00000000 		.4byte	.LVL309
 7019 12d6 0C000000 		.4byte	.LVL312
 7020 12da 0100     		.2byte	0x1
 7021 12dc 51       		.byte	0x51
 7022 12dd 0C000000 		.4byte	.LVL312
 7023 12e1 11000000 		.4byte	.LVL314-1
 7024 12e5 0100     		.2byte	0x1
 7025 12e7 52       		.byte	0x52
 7026 12e8 11000000 		.4byte	.LVL314-1
 7027 12ec 1C000000 		.4byte	.LFE11
 7028 12f0 0400     		.2byte	0x4
ARM GAS  C:\Users\haske\AppData\Local\Temp\ccZHF2NV.s 			page 143


 7029 12f2 F3       		.byte	0xf3
 7030 12f3 01       		.uleb128 0x1
 7031 12f4 51       		.byte	0x51
 7032 12f5 9F       		.byte	0x9f
 7033 12f6 00000000 		.4byte	0
 7034 12fa 00000000 		.4byte	0
 7035              	.LLST67:
 7036 12fe 00000000 		.4byte	.LVL309
 7037 1302 0A000000 		.4byte	.LVL311
 7038 1306 0100     		.2byte	0x1
 7039 1308 52       		.byte	0x52
 7040 1309 0A000000 		.4byte	.LVL311
 7041 130d 11000000 		.4byte	.LVL314-1
 7042 1311 0100     		.2byte	0x1
 7043 1313 53       		.byte	0x53
 7044 1314 11000000 		.4byte	.LVL314-1
 7045 1318 1C000000 		.4byte	.LFE11
 7046 131c 0400     		.2byte	0x4
 7047 131e F3       		.byte	0xf3
 7048 131f 01       		.uleb128 0x1
 7049 1320 52       		.byte	0x52
 7050 1321 9F       		.byte	0x9f
 7051 1322 00000000 		.4byte	0
 7052 1326 00000000 		.4byte	0
 7053              	.LLST68:
 7054 132a 00000000 		.4byte	.LVL309
 7055 132e 08000000 		.4byte	.LVL310
 7056 1332 0100     		.2byte	0x1
 7057 1334 53       		.byte	0x53
 7058 1335 00000000 		.4byte	0
 7059 1339 00000000 		.4byte	0
 7060              		.section	.debug_aranges,"",%progbits
 7061 0000 64000000 		.4byte	0x64
 7062 0004 0200     		.2byte	0x2
 7063 0006 00000000 		.4byte	.Ldebug_info0
 7064 000a 04       		.byte	0x4
 7065 000b 00       		.byte	0
 7066 000c 0000     		.2byte	0
 7067 000e 0000     		.2byte	0
 7068 0010 00000000 		.4byte	.LFB0
 7069 0014 08000000 		.4byte	.LFE0-.LFB0
 7070 0018 00000000 		.4byte	.LFB1
 7071 001c 02000000 		.4byte	.LFE1-.LFB1
 7072 0020 00000000 		.4byte	.LFB4
 7073 0024 2A000000 		.4byte	.LFE4-.LFB4
 7074 0028 00000000 		.4byte	.LFB5
 7075 002c A4000000 		.4byte	.LFE5-.LFB5
 7076 0030 00000000 		.4byte	.LFB6
 7077 0034 0A010000 		.4byte	.LFE6-.LFB6
 7078 0038 00000000 		.4byte	.LFB7
 7079 003c 9C000000 		.4byte	.LFE7-.LFB7
 7080 0040 00000000 		.4byte	.LFB8
 7081 0044 D8000000 		.4byte	.LFE8-.LFB8
 7082 0048 00000000 		.4byte	.LFB9
 7083 004c BA050000 		.4byte	.LFE9-.LFB9
 7084 0050 00000000 		.4byte	.LFB10
 7085 0054 28000000 		.4byte	.LFE10-.LFB10
ARM GAS  C:\Users\haske\AppData\Local\Temp\ccZHF2NV.s 			page 144


 7086 0058 00000000 		.4byte	.LFB11
 7087 005c 1C000000 		.4byte	.LFE11-.LFB11
 7088 0060 00000000 		.4byte	0
 7089 0064 00000000 		.4byte	0
 7090              		.section	.debug_ranges,"",%progbits
 7091              	.Ldebug_ranges0:
 7092 0000 2A000000 		.4byte	.LBB22
 7093 0004 3A000000 		.4byte	.LBE22
 7094 0008 48000000 		.4byte	.LBB23
 7095 000c 62000000 		.4byte	.LBE23
 7096 0010 00000000 		.4byte	0
 7097 0014 00000000 		.4byte	0
 7098 0018 30000000 		.4byte	.LBB24
 7099 001c 64000000 		.4byte	.LBE24
 7100 0020 66000000 		.4byte	.LBB25
 7101 0024 68000000 		.4byte	.LBE25
 7102 0028 00000000 		.4byte	0
 7103 002c 00000000 		.4byte	0
 7104 0030 50000000 		.4byte	.LBB26
 7105 0034 8E000000 		.4byte	.LBE26
 7106 0038 94000000 		.4byte	.LBB27
 7107 003c 96000000 		.4byte	.LBE27
 7108 0040 00000000 		.4byte	0
 7109 0044 00000000 		.4byte	0
 7110 0048 00000000 		.4byte	.LFB0
 7111 004c 08000000 		.4byte	.LFE0
 7112 0050 00000000 		.4byte	.LFB1
 7113 0054 02000000 		.4byte	.LFE1
 7114 0058 00000000 		.4byte	.LFB4
 7115 005c 2A000000 		.4byte	.LFE4
 7116 0060 00000000 		.4byte	.LFB5
 7117 0064 A4000000 		.4byte	.LFE5
 7118 0068 00000000 		.4byte	.LFB6
 7119 006c 0A010000 		.4byte	.LFE6
 7120 0070 00000000 		.4byte	.LFB7
 7121 0074 9C000000 		.4byte	.LFE7
 7122 0078 00000000 		.4byte	.LFB8
 7123 007c D8000000 		.4byte	.LFE8
 7124 0080 00000000 		.4byte	.LFB9
 7125 0084 BA050000 		.4byte	.LFE9
 7126 0088 00000000 		.4byte	.LFB10
 7127 008c 28000000 		.4byte	.LFE10
 7128 0090 00000000 		.4byte	.LFB11
 7129 0094 1C000000 		.4byte	.LFE11
 7130 0098 00000000 		.4byte	0
 7131 009c 00000000 		.4byte	0
 7132              		.section	.debug_line,"",%progbits
 7133              	.Ldebug_line0:
 7134 0000 32040000 		.section	.debug_str,"MS",%progbits,1
 7134      02000901 
 7134      00000201 
 7134      FB0E0D00 
 7134      01010101 
 7135              	.LASF23:
 7136 0000 5F6F7574 		.ascii	"_out_buffer\000"
 7136      5F627566 
 7136      66657200 
ARM GAS  C:\Users\haske\AppData\Local\Temp\ccZHF2NV.s 			page 145


 7137              	.LASF3:
 7138 000c 73686F72 		.ascii	"short int\000"
 7138      7420696E 
 7138      7400
 7139              	.LASF11:
 7140 0016 73697A65 		.ascii	"size_t\000"
 7140      5F7400
 7141              	.LASF37:
 7142 001d 73697A65 		.ascii	"sizetype\000"
 7142      74797065 
 7142      00
 7143              	.LASF25:
 7144 0026 5F61746F 		.ascii	"_atoi\000"
 7144      6900
 7145              	.LASF44:
 7146 002c 474E5520 		.ascii	"GNU C11 5.4.1 20160609 (release) [ARM/embedded-5-br"
 7146      43313120 
 7146      352E342E 
 7146      31203230 
 7146      31363036 
 7147 005f 616E6368 		.ascii	"anch revision 237715] -mcpu=cortex-m0plus -mthumb -"
 7147      20726576 
 7147      6973696F 
 7147      6E203233 
 7147      37373135 
 7148 0092 67202D4F 		.ascii	"g -Og -ffunction-sections -ffat-lto-objects\000"
 7148      67202D66 
 7148      66756E63 
 7148      74696F6E 
 7148      2D736563 
 7149              	.LASF10:
 7150 00be 76615F6C 		.ascii	"va_list\000"
 7150      69737400 
 7151              	.LASF35:
 7152 00c6 76616C75 		.ascii	"value\000"
 7152      6500
 7153              	.LASF29:
 7154 00cc 73746172 		.ascii	"start_idx\000"
 7154      745F6964 
 7154      7800
 7155              	.LASF49:
 7156 00d6 6C765F73 		.ascii	"lv_snprintf\000"
 7156      6E707269 
 7156      6E746600 
 7157              	.LASF27:
 7158 00e2 77696474 		.ascii	"width\000"
 7158      6800
 7159              	.LASF12:
 7160 00e8 6C6F6E67 		.ascii	"long double\000"
 7160      20646F75 
 7160      626C6500 
 7161              	.LASF7:
 7162 00f4 6C6F6E67 		.ascii	"long long int\000"
 7162      206C6F6E 
 7162      6720696E 
 7162      7400
 7163              	.LASF47:
ARM GAS  C:\Users\haske\AppData\Local\Temp\ccZHF2NV.s 			page 146


 7164 0102 5F5F7661 		.ascii	"__va_list\000"
 7164      5F6C6973 
 7164      7400
 7165              	.LASF5:
 7166 010c 6C6F6E67 		.ascii	"long int\000"
 7166      20696E74 
 7166      00
 7167              	.LASF30:
 7168 0115 5F6E746F 		.ascii	"_ntoa_format\000"
 7168      615F666F 
 7168      726D6174 
 7168      00
 7169              	.LASF17:
 7170 0122 5F69735F 		.ascii	"_is_digit\000"
 7170      64696769 
 7170      7400
 7171              	.LASF31:
 7172 012c 6E656761 		.ascii	"negative\000"
 7172      74697665 
 7172      00
 7173              	.LASF24:
 7174 0135 5F6F7574 		.ascii	"_out_null\000"
 7174      5F6E756C 
 7174      6C00
 7175              	.LASF15:
 7176 013f 6F75745F 		.ascii	"out_fct_type\000"
 7176      6663745F 
 7176      74797065 
 7176      00
 7177              	.LASF2:
 7178 014c 756E7369 		.ascii	"unsigned char\000"
 7178      676E6564 
 7178      20636861 
 7178      7200
 7179              	.LASF46:
 7180 015a 433A5C50 		.ascii	"C:\\Projects\\PainDrain\\firmware\\PainDrain\\PainD"
 7180      726F6A65 
 7180      6374735C 
 7180      5061696E 
 7180      44726169 
 7181 0188 7261696E 		.ascii	"rain.cydsn\000"
 7181      2E637964 
 7181      736E00
 7182              	.LASF34:
 7183 0193 5F6E746F 		.ascii	"_ntoa_long\000"
 7183      615F6C6F 
 7183      6E6700
 7184              	.LASF1:
 7185 019e 7369676E 		.ascii	"signed char\000"
 7185      65642063 
 7185      68617200 
 7186              	.LASF28:
 7187 01aa 666C6167 		.ascii	"flags\000"
 7187      7300
 7188              	.LASF0:
 7189 01b0 6C6F6E67 		.ascii	"long long unsigned int\000"
 7189      206C6F6E 
ARM GAS  C:\Users\haske\AppData\Local\Temp\ccZHF2NV.s 			page 147


 7189      6720756E 
 7189      7369676E 
 7189      65642069 
 7190              	.LASF8:
 7191 01c7 756E7369 		.ascii	"unsigned int\000"
 7191      676E6564 
 7191      20696E74 
 7191      00
 7192              	.LASF22:
 7193 01d4 6D61786C 		.ascii	"maxlen\000"
 7193      656E00
 7194              	.LASF4:
 7195 01db 73686F72 		.ascii	"short unsigned int\000"
 7195      7420756E 
 7195      7369676E 
 7195      65642069 
 7195      6E7400
 7196              	.LASF18:
 7197 01ee 5F737472 		.ascii	"_strnlen_s\000"
 7197      6E6C656E 
 7197      5F7300
 7198              	.LASF48:
 7199 01f9 5F5F6170 		.ascii	"__ap\000"
 7199      00
 7200              	.LASF13:
 7201 01fe 63686172 		.ascii	"char\000"
 7201      00
 7202              	.LASF16:
 7203 0203 5F426F6F 		.ascii	"_Bool\000"
 7203      6C00
 7204              	.LASF45:
 7205 0209 2E2E5C2E 		.ascii	"..\\..\\..\\arduinoLCD\\test\\Pain Drain\\libraries"
 7205      2E5C2E2E 
 7205      5C617264 
 7205      75696E6F 
 7205      4C43445C 
 7206 0236 5C6C7667 		.ascii	"\\lvgl\\src\\misc\\lv_printf.c\000"
 7206      6C5C7372 
 7206      635C6D69 
 7206      73635C6C 
 7206      765F7072 
 7207              	.LASF21:
 7208 0251 62756666 		.ascii	"buffer\000"
 7208      657200
 7209              	.LASF39:
 7210 0258 5F76736E 		.ascii	"_vsnprintf\000"
 7210      7072696E 
 7210      746600
 7211              	.LASF50:
 7212 0263 6C765F76 		.ascii	"lv_vsnprintf\000"
 7212      736E7072 
 7212      696E7466 
 7212      00
 7213              	.LASF38:
 7214 0270 5F6E746F 		.ascii	"_ntoa_long_long\000"
 7214      615F6C6F 
 7214      6E675F6C 
ARM GAS  C:\Users\haske\AppData\Local\Temp\ccZHF2NV.s 			page 148


 7214      6F6E6700 
 7215              	.LASF6:
 7216 0280 6C6F6E67 		.ascii	"long unsigned int\000"
 7216      20756E73 
 7216      69676E65 
 7216      6420696E 
 7216      7400
 7217              	.LASF20:
 7218 0292 63686172 		.ascii	"character\000"
 7218      61637465 
 7218      7200
 7219              	.LASF26:
 7220 029c 5F6F7574 		.ascii	"_out_rev\000"
 7220      5F726576 
 7220      00
 7221              	.LASF43:
 7222 02a5 636F756E 		.ascii	"count\000"
 7222      7400
 7223              	.LASF19:
 7224 02ab 6D617873 		.ascii	"maxsize\000"
 7224      697A6500 
 7225              	.LASF33:
 7226 02b3 70726563 		.ascii	"prec\000"
 7226      00
 7227              	.LASF42:
 7228 02b8 636F7079 		.ascii	"copy\000"
 7228      00
 7229              	.LASF9:
 7230 02bd 5F5F676E 		.ascii	"__gnuc_va_list\000"
 7230      75635F76 
 7230      615F6C69 
 7230      737400
 7231              	.LASF36:
 7232 02cc 64696769 		.ascii	"digit\000"
 7232      7400
 7233              	.LASF32:
 7234 02d2 62617365 		.ascii	"base\000"
 7234      00
 7235              	.LASF14:
 7236 02d7 6C765F76 		.ascii	"lv_vaformat_t\000"
 7236      61666F72 
 7236      6D61745F 
 7236      7400
 7237              	.LASF40:
 7238 02e5 666F726D 		.ascii	"format\000"
 7238      617400
 7239              	.LASF41:
 7240 02ec 70726563 		.ascii	"precision\000"
 7240      6973696F 
 7240      6E00
 7241              		.ident	"GCC: (GNU Tools for ARM Embedded Processors) 5.4.1 20160609 (release) [ARM/embedded-5-bran
