ARM GAS  C:\Users\haske\AppData\Local\Temp\ccRPH14P.s 			page 1


   1              		.syntax unified
   2              		.cpu cortex-m0plus
   3              		.fpu softvfp
   4              		.eabi_attribute 20, 1
   5              		.eabi_attribute 21, 1
   6              		.eabi_attribute 23, 3
   7              		.eabi_attribute 24, 1
   8              		.eabi_attribute 25, 1
   9              		.eabi_attribute 26, 1
  10              		.eabi_attribute 30, 1
  11              		.eabi_attribute 34, 0
  12              		.eabi_attribute 18, 4
  13              		.thumb
  14              		.syntax unified
  15              		.file	"lv_roller.c"
  16              		.text
  17              	.Ltext0:
  18              		.cfi_sections	.debug_frame
  19              		.section	.text.set_y_anim,"ax",%progbits
  20              		.align	2
  21              		.code	16
  22              		.thumb_func
  23              		.type	set_y_anim, %function
  24              	set_y_anim:
  25              	.LFB179:
  26              		.file 1 "..\\..\\..\\arduinoLCD\\test\\Pain Drain\\libraries\\lvgl\\src\\widgets\\lv_roller.c"
   1:..\..\..\arduinoLCD\test\Pain Drain\libraries\lvgl\src\widgets/lv_roller.c **** /**
   2:..\..\..\arduinoLCD\test\Pain Drain\libraries\lvgl\src\widgets/lv_roller.c ****  * @file lv_roller.c
   3:..\..\..\arduinoLCD\test\Pain Drain\libraries\lvgl\src\widgets/lv_roller.c ****  *
   4:..\..\..\arduinoLCD\test\Pain Drain\libraries\lvgl\src\widgets/lv_roller.c ****  */
   5:..\..\..\arduinoLCD\test\Pain Drain\libraries\lvgl\src\widgets/lv_roller.c **** 
   6:..\..\..\arduinoLCD\test\Pain Drain\libraries\lvgl\src\widgets/lv_roller.c **** /*********************
   7:..\..\..\arduinoLCD\test\Pain Drain\libraries\lvgl\src\widgets/lv_roller.c ****  *      INCLUDES
   8:..\..\..\arduinoLCD\test\Pain Drain\libraries\lvgl\src\widgets/lv_roller.c ****  *********************/
   9:..\..\..\arduinoLCD\test\Pain Drain\libraries\lvgl\src\widgets/lv_roller.c **** #include "lv_roller.h"
  10:..\..\..\arduinoLCD\test\Pain Drain\libraries\lvgl\src\widgets/lv_roller.c **** #if LV_USE_ROLLER != 0
  11:..\..\..\arduinoLCD\test\Pain Drain\libraries\lvgl\src\widgets/lv_roller.c **** 
  12:..\..\..\arduinoLCD\test\Pain Drain\libraries\lvgl\src\widgets/lv_roller.c **** #include "../misc/lv_assert.h"
  13:..\..\..\arduinoLCD\test\Pain Drain\libraries\lvgl\src\widgets/lv_roller.c **** #include "../draw/lv_draw.h"
  14:..\..\..\arduinoLCD\test\Pain Drain\libraries\lvgl\src\widgets/lv_roller.c **** #include "../core/lv_group.h"
  15:..\..\..\arduinoLCD\test\Pain Drain\libraries\lvgl\src\widgets/lv_roller.c **** #include "../core/lv_indev.h"
  16:..\..\..\arduinoLCD\test\Pain Drain\libraries\lvgl\src\widgets/lv_roller.c **** #include "../core/lv_indev_scroll.h"
  17:..\..\..\arduinoLCD\test\Pain Drain\libraries\lvgl\src\widgets/lv_roller.c **** 
  18:..\..\..\arduinoLCD\test\Pain Drain\libraries\lvgl\src\widgets/lv_roller.c **** /*********************
  19:..\..\..\arduinoLCD\test\Pain Drain\libraries\lvgl\src\widgets/lv_roller.c ****  *      DEFINES
  20:..\..\..\arduinoLCD\test\Pain Drain\libraries\lvgl\src\widgets/lv_roller.c ****  *********************/
  21:..\..\..\arduinoLCD\test\Pain Drain\libraries\lvgl\src\widgets/lv_roller.c **** #define MY_CLASS &lv_roller_class
  22:..\..\..\arduinoLCD\test\Pain Drain\libraries\lvgl\src\widgets/lv_roller.c **** #define MY_CLASS_LABEL &lv_roller_label_class
  23:..\..\..\arduinoLCD\test\Pain Drain\libraries\lvgl\src\widgets/lv_roller.c **** 
  24:..\..\..\arduinoLCD\test\Pain Drain\libraries\lvgl\src\widgets/lv_roller.c **** /**********************
  25:..\..\..\arduinoLCD\test\Pain Drain\libraries\lvgl\src\widgets/lv_roller.c ****  *      TYPEDEFS
  26:..\..\..\arduinoLCD\test\Pain Drain\libraries\lvgl\src\widgets/lv_roller.c ****  **********************/
  27:..\..\..\arduinoLCD\test\Pain Drain\libraries\lvgl\src\widgets/lv_roller.c **** 
  28:..\..\..\arduinoLCD\test\Pain Drain\libraries\lvgl\src\widgets/lv_roller.c **** /**********************
  29:..\..\..\arduinoLCD\test\Pain Drain\libraries\lvgl\src\widgets/lv_roller.c ****  *  STATIC PROTOTYPES
  30:..\..\..\arduinoLCD\test\Pain Drain\libraries\lvgl\src\widgets/lv_roller.c ****  **********************/
  31:..\..\..\arduinoLCD\test\Pain Drain\libraries\lvgl\src\widgets/lv_roller.c **** static void lv_roller_constructor(const lv_obj_class_t * class_p, lv_obj_t * obj);
ARM GAS  C:\Users\haske\AppData\Local\Temp\ccRPH14P.s 			page 2


  32:..\..\..\arduinoLCD\test\Pain Drain\libraries\lvgl\src\widgets/lv_roller.c **** static void lv_roller_event(const lv_obj_class_t * class_p, lv_event_t * e);
  33:..\..\..\arduinoLCD\test\Pain Drain\libraries\lvgl\src\widgets/lv_roller.c **** static void lv_roller_label_event(const lv_obj_class_t * class_p, lv_event_t * e);
  34:..\..\..\arduinoLCD\test\Pain Drain\libraries\lvgl\src\widgets/lv_roller.c **** static void draw_main(lv_event_t * e);
  35:..\..\..\arduinoLCD\test\Pain Drain\libraries\lvgl\src\widgets/lv_roller.c **** static void draw_label(lv_event_t * e);
  36:..\..\..\arduinoLCD\test\Pain Drain\libraries\lvgl\src\widgets/lv_roller.c **** static void get_sel_area(lv_obj_t * obj, lv_area_t * sel_area);
  37:..\..\..\arduinoLCD\test\Pain Drain\libraries\lvgl\src\widgets/lv_roller.c **** static void refr_position(lv_obj_t * obj, lv_anim_enable_t animen);
  38:..\..\..\arduinoLCD\test\Pain Drain\libraries\lvgl\src\widgets/lv_roller.c **** static lv_res_t release_handler(lv_obj_t * obj);
  39:..\..\..\arduinoLCD\test\Pain Drain\libraries\lvgl\src\widgets/lv_roller.c **** static void inf_normalize(lv_obj_t * obj_scrl);
  40:..\..\..\arduinoLCD\test\Pain Drain\libraries\lvgl\src\widgets/lv_roller.c **** static lv_obj_t * get_label(const lv_obj_t * obj);
  41:..\..\..\arduinoLCD\test\Pain Drain\libraries\lvgl\src\widgets/lv_roller.c **** static lv_coord_t get_selected_label_width(const lv_obj_t * obj);
  42:..\..\..\arduinoLCD\test\Pain Drain\libraries\lvgl\src\widgets/lv_roller.c **** static void scroll_anim_ready_cb(lv_anim_t * a);
  43:..\..\..\arduinoLCD\test\Pain Drain\libraries\lvgl\src\widgets/lv_roller.c **** static void set_y_anim(void * obj, int32_t v);
  44:..\..\..\arduinoLCD\test\Pain Drain\libraries\lvgl\src\widgets/lv_roller.c **** 
  45:..\..\..\arduinoLCD\test\Pain Drain\libraries\lvgl\src\widgets/lv_roller.c **** /**********************
  46:..\..\..\arduinoLCD\test\Pain Drain\libraries\lvgl\src\widgets/lv_roller.c ****  *  STATIC VARIABLES
  47:..\..\..\arduinoLCD\test\Pain Drain\libraries\lvgl\src\widgets/lv_roller.c ****  **********************/
  48:..\..\..\arduinoLCD\test\Pain Drain\libraries\lvgl\src\widgets/lv_roller.c **** const lv_obj_class_t lv_roller_class = {
  49:..\..\..\arduinoLCD\test\Pain Drain\libraries\lvgl\src\widgets/lv_roller.c ****     .constructor_cb = lv_roller_constructor,
  50:..\..\..\arduinoLCD\test\Pain Drain\libraries\lvgl\src\widgets/lv_roller.c ****     .event_cb = lv_roller_event,
  51:..\..\..\arduinoLCD\test\Pain Drain\libraries\lvgl\src\widgets/lv_roller.c ****     .width_def = LV_SIZE_CONTENT,
  52:..\..\..\arduinoLCD\test\Pain Drain\libraries\lvgl\src\widgets/lv_roller.c ****     .height_def = LV_DPI_DEF,
  53:..\..\..\arduinoLCD\test\Pain Drain\libraries\lvgl\src\widgets/lv_roller.c ****     .instance_size = sizeof(lv_roller_t),
  54:..\..\..\arduinoLCD\test\Pain Drain\libraries\lvgl\src\widgets/lv_roller.c ****     .editable = LV_OBJ_CLASS_EDITABLE_TRUE,
  55:..\..\..\arduinoLCD\test\Pain Drain\libraries\lvgl\src\widgets/lv_roller.c ****     .group_def = LV_OBJ_CLASS_GROUP_DEF_TRUE,
  56:..\..\..\arduinoLCD\test\Pain Drain\libraries\lvgl\src\widgets/lv_roller.c ****     .base_class = &lv_obj_class
  57:..\..\..\arduinoLCD\test\Pain Drain\libraries\lvgl\src\widgets/lv_roller.c **** };
  58:..\..\..\arduinoLCD\test\Pain Drain\libraries\lvgl\src\widgets/lv_roller.c **** 
  59:..\..\..\arduinoLCD\test\Pain Drain\libraries\lvgl\src\widgets/lv_roller.c **** const lv_obj_class_t lv_roller_label_class  = {
  60:..\..\..\arduinoLCD\test\Pain Drain\libraries\lvgl\src\widgets/lv_roller.c ****     .event_cb = lv_roller_label_event,
  61:..\..\..\arduinoLCD\test\Pain Drain\libraries\lvgl\src\widgets/lv_roller.c ****     .instance_size = sizeof(lv_label_t),
  62:..\..\..\arduinoLCD\test\Pain Drain\libraries\lvgl\src\widgets/lv_roller.c ****     .base_class = &lv_label_class
  63:..\..\..\arduinoLCD\test\Pain Drain\libraries\lvgl\src\widgets/lv_roller.c **** };
  64:..\..\..\arduinoLCD\test\Pain Drain\libraries\lvgl\src\widgets/lv_roller.c **** 
  65:..\..\..\arduinoLCD\test\Pain Drain\libraries\lvgl\src\widgets/lv_roller.c **** /**********************
  66:..\..\..\arduinoLCD\test\Pain Drain\libraries\lvgl\src\widgets/lv_roller.c ****  *      MACROS
  67:..\..\..\arduinoLCD\test\Pain Drain\libraries\lvgl\src\widgets/lv_roller.c ****  **********************/
  68:..\..\..\arduinoLCD\test\Pain Drain\libraries\lvgl\src\widgets/lv_roller.c **** 
  69:..\..\..\arduinoLCD\test\Pain Drain\libraries\lvgl\src\widgets/lv_roller.c **** /**********************
  70:..\..\..\arduinoLCD\test\Pain Drain\libraries\lvgl\src\widgets/lv_roller.c ****  *   GLOBAL FUNCTIONS
  71:..\..\..\arduinoLCD\test\Pain Drain\libraries\lvgl\src\widgets/lv_roller.c ****  **********************/
  72:..\..\..\arduinoLCD\test\Pain Drain\libraries\lvgl\src\widgets/lv_roller.c **** 
  73:..\..\..\arduinoLCD\test\Pain Drain\libraries\lvgl\src\widgets/lv_roller.c **** /**
  74:..\..\..\arduinoLCD\test\Pain Drain\libraries\lvgl\src\widgets/lv_roller.c ****  * Create a roller object
  75:..\..\..\arduinoLCD\test\Pain Drain\libraries\lvgl\src\widgets/lv_roller.c ****  * @param parent pointer to an object, it will be the parent of the new roller
  76:..\..\..\arduinoLCD\test\Pain Drain\libraries\lvgl\src\widgets/lv_roller.c ****  * @return pointer to the created roller
  77:..\..\..\arduinoLCD\test\Pain Drain\libraries\lvgl\src\widgets/lv_roller.c ****  */
  78:..\..\..\arduinoLCD\test\Pain Drain\libraries\lvgl\src\widgets/lv_roller.c **** lv_obj_t * lv_roller_create(lv_obj_t * parent)
  79:..\..\..\arduinoLCD\test\Pain Drain\libraries\lvgl\src\widgets/lv_roller.c **** {
  80:..\..\..\arduinoLCD\test\Pain Drain\libraries\lvgl\src\widgets/lv_roller.c ****     LV_LOG_INFO("begin");
  81:..\..\..\arduinoLCD\test\Pain Drain\libraries\lvgl\src\widgets/lv_roller.c ****     lv_obj_t * obj = lv_obj_class_create_obj(MY_CLASS, parent);
  82:..\..\..\arduinoLCD\test\Pain Drain\libraries\lvgl\src\widgets/lv_roller.c ****     lv_obj_class_init_obj(obj);
  83:..\..\..\arduinoLCD\test\Pain Drain\libraries\lvgl\src\widgets/lv_roller.c ****     return obj;
  84:..\..\..\arduinoLCD\test\Pain Drain\libraries\lvgl\src\widgets/lv_roller.c **** }
  85:..\..\..\arduinoLCD\test\Pain Drain\libraries\lvgl\src\widgets/lv_roller.c **** 
  86:..\..\..\arduinoLCD\test\Pain Drain\libraries\lvgl\src\widgets/lv_roller.c **** /*=====================
  87:..\..\..\arduinoLCD\test\Pain Drain\libraries\lvgl\src\widgets/lv_roller.c ****  * Setter functions
  88:..\..\..\arduinoLCD\test\Pain Drain\libraries\lvgl\src\widgets/lv_roller.c ****  *====================*/
ARM GAS  C:\Users\haske\AppData\Local\Temp\ccRPH14P.s 			page 3


  89:..\..\..\arduinoLCD\test\Pain Drain\libraries\lvgl\src\widgets/lv_roller.c **** 
  90:..\..\..\arduinoLCD\test\Pain Drain\libraries\lvgl\src\widgets/lv_roller.c **** /**
  91:..\..\..\arduinoLCD\test\Pain Drain\libraries\lvgl\src\widgets/lv_roller.c ****  * Set the options on a roller
  92:..\..\..\arduinoLCD\test\Pain Drain\libraries\lvgl\src\widgets/lv_roller.c ****  * @param roller pointer to roller object
  93:..\..\..\arduinoLCD\test\Pain Drain\libraries\lvgl\src\widgets/lv_roller.c ****  * @param options a string with '\n' separated options. E.g. "One\nTwo\nThree"
  94:..\..\..\arduinoLCD\test\Pain Drain\libraries\lvgl\src\widgets/lv_roller.c ****  * @param mode `LV_ROLLER_MODE_NORMAL` or `LV_ROLLER_MODE_INFINITE`
  95:..\..\..\arduinoLCD\test\Pain Drain\libraries\lvgl\src\widgets/lv_roller.c ****  */
  96:..\..\..\arduinoLCD\test\Pain Drain\libraries\lvgl\src\widgets/lv_roller.c **** void lv_roller_set_options(lv_obj_t * obj, const char * options, lv_roller_mode_t mode)
  97:..\..\..\arduinoLCD\test\Pain Drain\libraries\lvgl\src\widgets/lv_roller.c **** {
  98:..\..\..\arduinoLCD\test\Pain Drain\libraries\lvgl\src\widgets/lv_roller.c ****     LV_ASSERT_OBJ(obj, MY_CLASS);
  99:..\..\..\arduinoLCD\test\Pain Drain\libraries\lvgl\src\widgets/lv_roller.c ****     LV_ASSERT_NULL(options);
 100:..\..\..\arduinoLCD\test\Pain Drain\libraries\lvgl\src\widgets/lv_roller.c **** 
 101:..\..\..\arduinoLCD\test\Pain Drain\libraries\lvgl\src\widgets/lv_roller.c ****     lv_roller_t * roller = (lv_roller_t *)obj;
 102:..\..\..\arduinoLCD\test\Pain Drain\libraries\lvgl\src\widgets/lv_roller.c ****     lv_obj_t * label = get_label(obj);
 103:..\..\..\arduinoLCD\test\Pain Drain\libraries\lvgl\src\widgets/lv_roller.c **** 
 104:..\..\..\arduinoLCD\test\Pain Drain\libraries\lvgl\src\widgets/lv_roller.c ****     roller->sel_opt_id     = 0;
 105:..\..\..\arduinoLCD\test\Pain Drain\libraries\lvgl\src\widgets/lv_roller.c ****     roller->sel_opt_id_ori = 0;
 106:..\..\..\arduinoLCD\test\Pain Drain\libraries\lvgl\src\widgets/lv_roller.c **** 
 107:..\..\..\arduinoLCD\test\Pain Drain\libraries\lvgl\src\widgets/lv_roller.c ****     /*Count the '\n'-s to determine the number of options*/
 108:..\..\..\arduinoLCD\test\Pain Drain\libraries\lvgl\src\widgets/lv_roller.c ****     roller->option_cnt = 0;
 109:..\..\..\arduinoLCD\test\Pain Drain\libraries\lvgl\src\widgets/lv_roller.c ****     uint32_t cnt;
 110:..\..\..\arduinoLCD\test\Pain Drain\libraries\lvgl\src\widgets/lv_roller.c ****     for(cnt = 0; options[cnt] != '\0'; cnt++) {
 111:..\..\..\arduinoLCD\test\Pain Drain\libraries\lvgl\src\widgets/lv_roller.c ****         if(options[cnt] == '\n') roller->option_cnt++;
 112:..\..\..\arduinoLCD\test\Pain Drain\libraries\lvgl\src\widgets/lv_roller.c ****     }
 113:..\..\..\arduinoLCD\test\Pain Drain\libraries\lvgl\src\widgets/lv_roller.c ****     roller->option_cnt++; /*Last option has no `\n`*/
 114:..\..\..\arduinoLCD\test\Pain Drain\libraries\lvgl\src\widgets/lv_roller.c **** 
 115:..\..\..\arduinoLCD\test\Pain Drain\libraries\lvgl\src\widgets/lv_roller.c ****     if(mode == LV_ROLLER_MODE_NORMAL) {
 116:..\..\..\arduinoLCD\test\Pain Drain\libraries\lvgl\src\widgets/lv_roller.c ****         roller->mode = LV_ROLLER_MODE_NORMAL;
 117:..\..\..\arduinoLCD\test\Pain Drain\libraries\lvgl\src\widgets/lv_roller.c ****         lv_label_set_text(label, options);
 118:..\..\..\arduinoLCD\test\Pain Drain\libraries\lvgl\src\widgets/lv_roller.c ****     }
 119:..\..\..\arduinoLCD\test\Pain Drain\libraries\lvgl\src\widgets/lv_roller.c ****     else {
 120:..\..\..\arduinoLCD\test\Pain Drain\libraries\lvgl\src\widgets/lv_roller.c ****         roller->mode = LV_ROLLER_MODE_INFINITE;
 121:..\..\..\arduinoLCD\test\Pain Drain\libraries\lvgl\src\widgets/lv_roller.c **** 
 122:..\..\..\arduinoLCD\test\Pain Drain\libraries\lvgl\src\widgets/lv_roller.c ****         size_t opt_len = strlen(options) + 1; /*+1 to add '\n' after option lists*/
 123:..\..\..\arduinoLCD\test\Pain Drain\libraries\lvgl\src\widgets/lv_roller.c ****         char * opt_extra = lv_mem_buf_get(opt_len * LV_ROLLER_INF_PAGES);
 124:..\..\..\arduinoLCD\test\Pain Drain\libraries\lvgl\src\widgets/lv_roller.c ****         uint8_t i;
 125:..\..\..\arduinoLCD\test\Pain Drain\libraries\lvgl\src\widgets/lv_roller.c ****         for(i = 0; i < LV_ROLLER_INF_PAGES; i++) {
 126:..\..\..\arduinoLCD\test\Pain Drain\libraries\lvgl\src\widgets/lv_roller.c ****             strcpy(&opt_extra[opt_len * i], options);
 127:..\..\..\arduinoLCD\test\Pain Drain\libraries\lvgl\src\widgets/lv_roller.c ****             opt_extra[opt_len * (i + 1) - 1] = '\n';
 128:..\..\..\arduinoLCD\test\Pain Drain\libraries\lvgl\src\widgets/lv_roller.c ****         }
 129:..\..\..\arduinoLCD\test\Pain Drain\libraries\lvgl\src\widgets/lv_roller.c ****         opt_extra[opt_len * LV_ROLLER_INF_PAGES - 1] = '\0';
 130:..\..\..\arduinoLCD\test\Pain Drain\libraries\lvgl\src\widgets/lv_roller.c ****         lv_label_set_text(label, opt_extra);
 131:..\..\..\arduinoLCD\test\Pain Drain\libraries\lvgl\src\widgets/lv_roller.c ****         lv_mem_buf_release(opt_extra);
 132:..\..\..\arduinoLCD\test\Pain Drain\libraries\lvgl\src\widgets/lv_roller.c **** 
 133:..\..\..\arduinoLCD\test\Pain Drain\libraries\lvgl\src\widgets/lv_roller.c ****         roller->sel_opt_id     = ((LV_ROLLER_INF_PAGES / 2) + 0) * roller->option_cnt;
 134:..\..\..\arduinoLCD\test\Pain Drain\libraries\lvgl\src\widgets/lv_roller.c **** 
 135:..\..\..\arduinoLCD\test\Pain Drain\libraries\lvgl\src\widgets/lv_roller.c ****         roller->option_cnt = roller->option_cnt * LV_ROLLER_INF_PAGES;
 136:..\..\..\arduinoLCD\test\Pain Drain\libraries\lvgl\src\widgets/lv_roller.c ****         inf_normalize(obj);
 137:..\..\..\arduinoLCD\test\Pain Drain\libraries\lvgl\src\widgets/lv_roller.c ****     }
 138:..\..\..\arduinoLCD\test\Pain Drain\libraries\lvgl\src\widgets/lv_roller.c **** 
 139:..\..\..\arduinoLCD\test\Pain Drain\libraries\lvgl\src\widgets/lv_roller.c ****     roller->sel_opt_id_ori = roller->sel_opt_id;
 140:..\..\..\arduinoLCD\test\Pain Drain\libraries\lvgl\src\widgets/lv_roller.c **** 
 141:..\..\..\arduinoLCD\test\Pain Drain\libraries\lvgl\src\widgets/lv_roller.c ****     /*If the selected text has larger font the label needs some extra draw padding to draw it.*/
 142:..\..\..\arduinoLCD\test\Pain Drain\libraries\lvgl\src\widgets/lv_roller.c ****     lv_obj_refresh_ext_draw_size(label);
 143:..\..\..\arduinoLCD\test\Pain Drain\libraries\lvgl\src\widgets/lv_roller.c **** 
 144:..\..\..\arduinoLCD\test\Pain Drain\libraries\lvgl\src\widgets/lv_roller.c **** }
 145:..\..\..\arduinoLCD\test\Pain Drain\libraries\lvgl\src\widgets/lv_roller.c **** 
ARM GAS  C:\Users\haske\AppData\Local\Temp\ccRPH14P.s 			page 4


 146:..\..\..\arduinoLCD\test\Pain Drain\libraries\lvgl\src\widgets/lv_roller.c **** /**
 147:..\..\..\arduinoLCD\test\Pain Drain\libraries\lvgl\src\widgets/lv_roller.c ****  * Set the selected option
 148:..\..\..\arduinoLCD\test\Pain Drain\libraries\lvgl\src\widgets/lv_roller.c ****  * @param roller pointer to a roller object
 149:..\..\..\arduinoLCD\test\Pain Drain\libraries\lvgl\src\widgets/lv_roller.c ****  * @param sel_opt id of the selected option (0 ... number of option - 1);
 150:..\..\..\arduinoLCD\test\Pain Drain\libraries\lvgl\src\widgets/lv_roller.c ****  * @param anim_en LV_ANIM_ON: set with animation; LV_ANOM_OFF set immediately
 151:..\..\..\arduinoLCD\test\Pain Drain\libraries\lvgl\src\widgets/lv_roller.c ****  */
 152:..\..\..\arduinoLCD\test\Pain Drain\libraries\lvgl\src\widgets/lv_roller.c **** void lv_roller_set_selected(lv_obj_t * obj, uint16_t sel_opt, lv_anim_enable_t anim)
 153:..\..\..\arduinoLCD\test\Pain Drain\libraries\lvgl\src\widgets/lv_roller.c **** {
 154:..\..\..\arduinoLCD\test\Pain Drain\libraries\lvgl\src\widgets/lv_roller.c ****     LV_ASSERT_OBJ(obj, MY_CLASS);
 155:..\..\..\arduinoLCD\test\Pain Drain\libraries\lvgl\src\widgets/lv_roller.c **** 
 156:..\..\..\arduinoLCD\test\Pain Drain\libraries\lvgl\src\widgets/lv_roller.c ****     /*Set the value even if it's the same as the current value because
 157:..\..\..\arduinoLCD\test\Pain Drain\libraries\lvgl\src\widgets/lv_roller.c ****      *if moving to the next option with an animation which was just deleted in the PRESS Call the a
 158:..\..\..\arduinoLCD\test\Pain Drain\libraries\lvgl\src\widgets/lv_roller.c ****      *nothing will continue the animation.*/
 159:..\..\..\arduinoLCD\test\Pain Drain\libraries\lvgl\src\widgets/lv_roller.c **** 
 160:..\..\..\arduinoLCD\test\Pain Drain\libraries\lvgl\src\widgets/lv_roller.c ****     lv_roller_t * roller = (lv_roller_t *)obj;
 161:..\..\..\arduinoLCD\test\Pain Drain\libraries\lvgl\src\widgets/lv_roller.c **** 
 162:..\..\..\arduinoLCD\test\Pain Drain\libraries\lvgl\src\widgets/lv_roller.c ****     /*In infinite mode interpret the new ID relative to the currently visible "page"*/
 163:..\..\..\arduinoLCD\test\Pain Drain\libraries\lvgl\src\widgets/lv_roller.c ****     if(roller->mode == LV_ROLLER_MODE_INFINITE) {
 164:..\..\..\arduinoLCD\test\Pain Drain\libraries\lvgl\src\widgets/lv_roller.c ****         uint32_t real_option_cnt = roller->option_cnt / LV_ROLLER_INF_PAGES;
 165:..\..\..\arduinoLCD\test\Pain Drain\libraries\lvgl\src\widgets/lv_roller.c ****         uint16_t current_page = roller->sel_opt_id / real_option_cnt;
 166:..\..\..\arduinoLCD\test\Pain Drain\libraries\lvgl\src\widgets/lv_roller.c ****         /*Set by the user to e.g. 0, 1, 2, 3...
 167:..\..\..\arduinoLCD\test\Pain Drain\libraries\lvgl\src\widgets/lv_roller.c ****          *Upscale the value to the current page*/
 168:..\..\..\arduinoLCD\test\Pain Drain\libraries\lvgl\src\widgets/lv_roller.c ****         if(sel_opt < real_option_cnt) {
 169:..\..\..\arduinoLCD\test\Pain Drain\libraries\lvgl\src\widgets/lv_roller.c ****             uint16_t act_opt = roller->sel_opt_id - current_page * real_option_cnt;
 170:..\..\..\arduinoLCD\test\Pain Drain\libraries\lvgl\src\widgets/lv_roller.c ****             int32_t sel_opt_signed = sel_opt;
 171:..\..\..\arduinoLCD\test\Pain Drain\libraries\lvgl\src\widgets/lv_roller.c ****             /*Huge jump? Probably from last to first or first to last option.*/
 172:..\..\..\arduinoLCD\test\Pain Drain\libraries\lvgl\src\widgets/lv_roller.c ****             if(LV_ABS((int16_t)act_opt - sel_opt) > real_option_cnt / 2) {
 173:..\..\..\arduinoLCD\test\Pain Drain\libraries\lvgl\src\widgets/lv_roller.c ****                 if(act_opt > sel_opt) sel_opt_signed += real_option_cnt;
 174:..\..\..\arduinoLCD\test\Pain Drain\libraries\lvgl\src\widgets/lv_roller.c ****                 else sel_opt_signed -= real_option_cnt;
 175:..\..\..\arduinoLCD\test\Pain Drain\libraries\lvgl\src\widgets/lv_roller.c ****             }
 176:..\..\..\arduinoLCD\test\Pain Drain\libraries\lvgl\src\widgets/lv_roller.c ****             sel_opt = sel_opt_signed + real_option_cnt * current_page;
 177:..\..\..\arduinoLCD\test\Pain Drain\libraries\lvgl\src\widgets/lv_roller.c ****         }
 178:..\..\..\arduinoLCD\test\Pain Drain\libraries\lvgl\src\widgets/lv_roller.c ****     }
 179:..\..\..\arduinoLCD\test\Pain Drain\libraries\lvgl\src\widgets/lv_roller.c **** 
 180:..\..\..\arduinoLCD\test\Pain Drain\libraries\lvgl\src\widgets/lv_roller.c ****     roller->sel_opt_id     = sel_opt < roller->option_cnt ? sel_opt : roller->option_cnt - 1;
 181:..\..\..\arduinoLCD\test\Pain Drain\libraries\lvgl\src\widgets/lv_roller.c ****     roller->sel_opt_id_ori = roller->sel_opt_id;
 182:..\..\..\arduinoLCD\test\Pain Drain\libraries\lvgl\src\widgets/lv_roller.c **** 
 183:..\..\..\arduinoLCD\test\Pain Drain\libraries\lvgl\src\widgets/lv_roller.c ****     refr_position(obj, anim);
 184:..\..\..\arduinoLCD\test\Pain Drain\libraries\lvgl\src\widgets/lv_roller.c **** }
 185:..\..\..\arduinoLCD\test\Pain Drain\libraries\lvgl\src\widgets/lv_roller.c **** 
 186:..\..\..\arduinoLCD\test\Pain Drain\libraries\lvgl\src\widgets/lv_roller.c **** /**
 187:..\..\..\arduinoLCD\test\Pain Drain\libraries\lvgl\src\widgets/lv_roller.c ****  * Set the height to show the given number of rows (options)
 188:..\..\..\arduinoLCD\test\Pain Drain\libraries\lvgl\src\widgets/lv_roller.c ****  * @param roller pointer to a roller object
 189:..\..\..\arduinoLCD\test\Pain Drain\libraries\lvgl\src\widgets/lv_roller.c ****  * @param row_cnt number of desired visible rows
 190:..\..\..\arduinoLCD\test\Pain Drain\libraries\lvgl\src\widgets/lv_roller.c ****  */
 191:..\..\..\arduinoLCD\test\Pain Drain\libraries\lvgl\src\widgets/lv_roller.c **** void lv_roller_set_visible_row_count(lv_obj_t * obj, uint8_t row_cnt)
 192:..\..\..\arduinoLCD\test\Pain Drain\libraries\lvgl\src\widgets/lv_roller.c **** {
 193:..\..\..\arduinoLCD\test\Pain Drain\libraries\lvgl\src\widgets/lv_roller.c ****     LV_ASSERT_OBJ(obj, MY_CLASS);
 194:..\..\..\arduinoLCD\test\Pain Drain\libraries\lvgl\src\widgets/lv_roller.c **** 
 195:..\..\..\arduinoLCD\test\Pain Drain\libraries\lvgl\src\widgets/lv_roller.c ****     const lv_font_t * font = lv_obj_get_style_text_font(obj, LV_PART_MAIN);
 196:..\..\..\arduinoLCD\test\Pain Drain\libraries\lvgl\src\widgets/lv_roller.c ****     lv_coord_t line_space = lv_obj_get_style_text_line_space(obj, LV_PART_MAIN);
 197:..\..\..\arduinoLCD\test\Pain Drain\libraries\lvgl\src\widgets/lv_roller.c ****     lv_coord_t border_width = lv_obj_get_style_border_width(obj, LV_PART_MAIN);
 198:..\..\..\arduinoLCD\test\Pain Drain\libraries\lvgl\src\widgets/lv_roller.c ****     lv_obj_set_height(obj, (lv_font_get_line_height(font) + line_space) * row_cnt + 2 * border_widt
 199:..\..\..\arduinoLCD\test\Pain Drain\libraries\lvgl\src\widgets/lv_roller.c **** }
 200:..\..\..\arduinoLCD\test\Pain Drain\libraries\lvgl\src\widgets/lv_roller.c **** 
 201:..\..\..\arduinoLCD\test\Pain Drain\libraries\lvgl\src\widgets/lv_roller.c **** /*=====================
 202:..\..\..\arduinoLCD\test\Pain Drain\libraries\lvgl\src\widgets/lv_roller.c ****  * Getter functions
ARM GAS  C:\Users\haske\AppData\Local\Temp\ccRPH14P.s 			page 5


 203:..\..\..\arduinoLCD\test\Pain Drain\libraries\lvgl\src\widgets/lv_roller.c ****  *====================*/
 204:..\..\..\arduinoLCD\test\Pain Drain\libraries\lvgl\src\widgets/lv_roller.c **** 
 205:..\..\..\arduinoLCD\test\Pain Drain\libraries\lvgl\src\widgets/lv_roller.c **** /**
 206:..\..\..\arduinoLCD\test\Pain Drain\libraries\lvgl\src\widgets/lv_roller.c ****  * Get the id of the selected option
 207:..\..\..\arduinoLCD\test\Pain Drain\libraries\lvgl\src\widgets/lv_roller.c ****  * @param roller pointer to a roller object
 208:..\..\..\arduinoLCD\test\Pain Drain\libraries\lvgl\src\widgets/lv_roller.c ****  * @return id of the selected option (0 ... number of option - 1);
 209:..\..\..\arduinoLCD\test\Pain Drain\libraries\lvgl\src\widgets/lv_roller.c ****  */
 210:..\..\..\arduinoLCD\test\Pain Drain\libraries\lvgl\src\widgets/lv_roller.c **** uint16_t lv_roller_get_selected(const lv_obj_t * obj)
 211:..\..\..\arduinoLCD\test\Pain Drain\libraries\lvgl\src\widgets/lv_roller.c **** {
 212:..\..\..\arduinoLCD\test\Pain Drain\libraries\lvgl\src\widgets/lv_roller.c ****     LV_ASSERT_OBJ(obj, MY_CLASS);
 213:..\..\..\arduinoLCD\test\Pain Drain\libraries\lvgl\src\widgets/lv_roller.c **** 
 214:..\..\..\arduinoLCD\test\Pain Drain\libraries\lvgl\src\widgets/lv_roller.c ****     lv_roller_t * roller = (lv_roller_t *)obj;
 215:..\..\..\arduinoLCD\test\Pain Drain\libraries\lvgl\src\widgets/lv_roller.c ****     if(roller->mode == LV_ROLLER_MODE_INFINITE) {
 216:..\..\..\arduinoLCD\test\Pain Drain\libraries\lvgl\src\widgets/lv_roller.c ****         uint16_t real_id_cnt = roller->option_cnt / LV_ROLLER_INF_PAGES;
 217:..\..\..\arduinoLCD\test\Pain Drain\libraries\lvgl\src\widgets/lv_roller.c ****         return roller->sel_opt_id % real_id_cnt;
 218:..\..\..\arduinoLCD\test\Pain Drain\libraries\lvgl\src\widgets/lv_roller.c ****     }
 219:..\..\..\arduinoLCD\test\Pain Drain\libraries\lvgl\src\widgets/lv_roller.c ****     else {
 220:..\..\..\arduinoLCD\test\Pain Drain\libraries\lvgl\src\widgets/lv_roller.c ****         return roller->sel_opt_id;
 221:..\..\..\arduinoLCD\test\Pain Drain\libraries\lvgl\src\widgets/lv_roller.c ****     }
 222:..\..\..\arduinoLCD\test\Pain Drain\libraries\lvgl\src\widgets/lv_roller.c **** }
 223:..\..\..\arduinoLCD\test\Pain Drain\libraries\lvgl\src\widgets/lv_roller.c **** 
 224:..\..\..\arduinoLCD\test\Pain Drain\libraries\lvgl\src\widgets/lv_roller.c **** /**
 225:..\..\..\arduinoLCD\test\Pain Drain\libraries\lvgl\src\widgets/lv_roller.c ****  * Get the current selected option as a string
 226:..\..\..\arduinoLCD\test\Pain Drain\libraries\lvgl\src\widgets/lv_roller.c ****  * @param ddlist pointer to ddlist object
 227:..\..\..\arduinoLCD\test\Pain Drain\libraries\lvgl\src\widgets/lv_roller.c ****  * @param buf pointer to an array to store the string
 228:..\..\..\arduinoLCD\test\Pain Drain\libraries\lvgl\src\widgets/lv_roller.c ****  * @param buf_size size of `buf` in bytes. 0: to ignore it.
 229:..\..\..\arduinoLCD\test\Pain Drain\libraries\lvgl\src\widgets/lv_roller.c ****  */
 230:..\..\..\arduinoLCD\test\Pain Drain\libraries\lvgl\src\widgets/lv_roller.c **** void lv_roller_get_selected_str(const lv_obj_t * obj, char * buf, uint32_t buf_size)
 231:..\..\..\arduinoLCD\test\Pain Drain\libraries\lvgl\src\widgets/lv_roller.c **** {
 232:..\..\..\arduinoLCD\test\Pain Drain\libraries\lvgl\src\widgets/lv_roller.c ****     LV_ASSERT_OBJ(obj, MY_CLASS);
 233:..\..\..\arduinoLCD\test\Pain Drain\libraries\lvgl\src\widgets/lv_roller.c **** 
 234:..\..\..\arduinoLCD\test\Pain Drain\libraries\lvgl\src\widgets/lv_roller.c ****     lv_roller_t * roller = (lv_roller_t *)obj;
 235:..\..\..\arduinoLCD\test\Pain Drain\libraries\lvgl\src\widgets/lv_roller.c ****     lv_obj_t * label = get_label(obj);
 236:..\..\..\arduinoLCD\test\Pain Drain\libraries\lvgl\src\widgets/lv_roller.c ****     uint32_t i;
 237:..\..\..\arduinoLCD\test\Pain Drain\libraries\lvgl\src\widgets/lv_roller.c ****     uint16_t line        = 0;
 238:..\..\..\arduinoLCD\test\Pain Drain\libraries\lvgl\src\widgets/lv_roller.c ****     const char * opt_txt = lv_label_get_text(label);
 239:..\..\..\arduinoLCD\test\Pain Drain\libraries\lvgl\src\widgets/lv_roller.c ****     size_t txt_len     = strlen(opt_txt);
 240:..\..\..\arduinoLCD\test\Pain Drain\libraries\lvgl\src\widgets/lv_roller.c **** 
 241:..\..\..\arduinoLCD\test\Pain Drain\libraries\lvgl\src\widgets/lv_roller.c ****     for(i = 0; i < txt_len && line != roller->sel_opt_id; i++) {
 242:..\..\..\arduinoLCD\test\Pain Drain\libraries\lvgl\src\widgets/lv_roller.c ****         if(opt_txt[i] == '\n') line++;
 243:..\..\..\arduinoLCD\test\Pain Drain\libraries\lvgl\src\widgets/lv_roller.c ****     }
 244:..\..\..\arduinoLCD\test\Pain Drain\libraries\lvgl\src\widgets/lv_roller.c **** 
 245:..\..\..\arduinoLCD\test\Pain Drain\libraries\lvgl\src\widgets/lv_roller.c ****     uint32_t c;
 246:..\..\..\arduinoLCD\test\Pain Drain\libraries\lvgl\src\widgets/lv_roller.c ****     for(c = 0; i < txt_len && opt_txt[i] != '\n'; c++, i++) {
 247:..\..\..\arduinoLCD\test\Pain Drain\libraries\lvgl\src\widgets/lv_roller.c ****         if(buf_size && c >= buf_size - 1) {
 248:..\..\..\arduinoLCD\test\Pain Drain\libraries\lvgl\src\widgets/lv_roller.c ****             LV_LOG_WARN("lv_dropdown_get_selected_str: the buffer was too small");
 249:..\..\..\arduinoLCD\test\Pain Drain\libraries\lvgl\src\widgets/lv_roller.c ****             break;
 250:..\..\..\arduinoLCD\test\Pain Drain\libraries\lvgl\src\widgets/lv_roller.c ****         }
 251:..\..\..\arduinoLCD\test\Pain Drain\libraries\lvgl\src\widgets/lv_roller.c ****         buf[c] = opt_txt[i];
 252:..\..\..\arduinoLCD\test\Pain Drain\libraries\lvgl\src\widgets/lv_roller.c ****     }
 253:..\..\..\arduinoLCD\test\Pain Drain\libraries\lvgl\src\widgets/lv_roller.c **** 
 254:..\..\..\arduinoLCD\test\Pain Drain\libraries\lvgl\src\widgets/lv_roller.c ****     buf[c] = '\0';
 255:..\..\..\arduinoLCD\test\Pain Drain\libraries\lvgl\src\widgets/lv_roller.c **** }
 256:..\..\..\arduinoLCD\test\Pain Drain\libraries\lvgl\src\widgets/lv_roller.c **** 
 257:..\..\..\arduinoLCD\test\Pain Drain\libraries\lvgl\src\widgets/lv_roller.c **** 
 258:..\..\..\arduinoLCD\test\Pain Drain\libraries\lvgl\src\widgets/lv_roller.c **** /**
 259:..\..\..\arduinoLCD\test\Pain Drain\libraries\lvgl\src\widgets/lv_roller.c ****  * Get the options of a roller
ARM GAS  C:\Users\haske\AppData\Local\Temp\ccRPH14P.s 			page 6


 260:..\..\..\arduinoLCD\test\Pain Drain\libraries\lvgl\src\widgets/lv_roller.c ****  * @param roller pointer to roller object
 261:..\..\..\arduinoLCD\test\Pain Drain\libraries\lvgl\src\widgets/lv_roller.c ****  * @return the options separated by '\n'-s (E.g. "Option1\nOption2\nOption3")
 262:..\..\..\arduinoLCD\test\Pain Drain\libraries\lvgl\src\widgets/lv_roller.c ****  */
 263:..\..\..\arduinoLCD\test\Pain Drain\libraries\lvgl\src\widgets/lv_roller.c **** const char * lv_roller_get_options(const lv_obj_t * obj)
 264:..\..\..\arduinoLCD\test\Pain Drain\libraries\lvgl\src\widgets/lv_roller.c **** {
 265:..\..\..\arduinoLCD\test\Pain Drain\libraries\lvgl\src\widgets/lv_roller.c ****     LV_ASSERT_OBJ(obj, MY_CLASS);
 266:..\..\..\arduinoLCD\test\Pain Drain\libraries\lvgl\src\widgets/lv_roller.c **** 
 267:..\..\..\arduinoLCD\test\Pain Drain\libraries\lvgl\src\widgets/lv_roller.c ****     return lv_label_get_text(get_label(obj));
 268:..\..\..\arduinoLCD\test\Pain Drain\libraries\lvgl\src\widgets/lv_roller.c **** }
 269:..\..\..\arduinoLCD\test\Pain Drain\libraries\lvgl\src\widgets/lv_roller.c **** 
 270:..\..\..\arduinoLCD\test\Pain Drain\libraries\lvgl\src\widgets/lv_roller.c **** 
 271:..\..\..\arduinoLCD\test\Pain Drain\libraries\lvgl\src\widgets/lv_roller.c **** /**
 272:..\..\..\arduinoLCD\test\Pain Drain\libraries\lvgl\src\widgets/lv_roller.c ****  * Get the total number of options
 273:..\..\..\arduinoLCD\test\Pain Drain\libraries\lvgl\src\widgets/lv_roller.c ****  * @param roller pointer to a roller object
 274:..\..\..\arduinoLCD\test\Pain Drain\libraries\lvgl\src\widgets/lv_roller.c ****  * @return the total number of options
 275:..\..\..\arduinoLCD\test\Pain Drain\libraries\lvgl\src\widgets/lv_roller.c ****  */
 276:..\..\..\arduinoLCD\test\Pain Drain\libraries\lvgl\src\widgets/lv_roller.c **** uint16_t lv_roller_get_option_cnt(const lv_obj_t * obj)
 277:..\..\..\arduinoLCD\test\Pain Drain\libraries\lvgl\src\widgets/lv_roller.c **** {
 278:..\..\..\arduinoLCD\test\Pain Drain\libraries\lvgl\src\widgets/lv_roller.c ****     LV_ASSERT_OBJ(obj, MY_CLASS);
 279:..\..\..\arduinoLCD\test\Pain Drain\libraries\lvgl\src\widgets/lv_roller.c **** 
 280:..\..\..\arduinoLCD\test\Pain Drain\libraries\lvgl\src\widgets/lv_roller.c ****     lv_roller_t * roller = (lv_roller_t *)obj;
 281:..\..\..\arduinoLCD\test\Pain Drain\libraries\lvgl\src\widgets/lv_roller.c ****     if(roller->mode == LV_ROLLER_MODE_INFINITE) {
 282:..\..\..\arduinoLCD\test\Pain Drain\libraries\lvgl\src\widgets/lv_roller.c ****         return roller->option_cnt / LV_ROLLER_INF_PAGES;
 283:..\..\..\arduinoLCD\test\Pain Drain\libraries\lvgl\src\widgets/lv_roller.c ****     }
 284:..\..\..\arduinoLCD\test\Pain Drain\libraries\lvgl\src\widgets/lv_roller.c ****     else {
 285:..\..\..\arduinoLCD\test\Pain Drain\libraries\lvgl\src\widgets/lv_roller.c ****         return roller->option_cnt;
 286:..\..\..\arduinoLCD\test\Pain Drain\libraries\lvgl\src\widgets/lv_roller.c ****     }
 287:..\..\..\arduinoLCD\test\Pain Drain\libraries\lvgl\src\widgets/lv_roller.c **** }
 288:..\..\..\arduinoLCD\test\Pain Drain\libraries\lvgl\src\widgets/lv_roller.c **** 
 289:..\..\..\arduinoLCD\test\Pain Drain\libraries\lvgl\src\widgets/lv_roller.c **** /**********************
 290:..\..\..\arduinoLCD\test\Pain Drain\libraries\lvgl\src\widgets/lv_roller.c ****  *   STATIC FUNCTIONS
 291:..\..\..\arduinoLCD\test\Pain Drain\libraries\lvgl\src\widgets/lv_roller.c ****  **********************/
 292:..\..\..\arduinoLCD\test\Pain Drain\libraries\lvgl\src\widgets/lv_roller.c **** 
 293:..\..\..\arduinoLCD\test\Pain Drain\libraries\lvgl\src\widgets/lv_roller.c **** 
 294:..\..\..\arduinoLCD\test\Pain Drain\libraries\lvgl\src\widgets/lv_roller.c **** static void lv_roller_constructor(const lv_obj_class_t * class_p, lv_obj_t * obj)
 295:..\..\..\arduinoLCD\test\Pain Drain\libraries\lvgl\src\widgets/lv_roller.c **** {
 296:..\..\..\arduinoLCD\test\Pain Drain\libraries\lvgl\src\widgets/lv_roller.c ****     LV_UNUSED(class_p);
 297:..\..\..\arduinoLCD\test\Pain Drain\libraries\lvgl\src\widgets/lv_roller.c ****     lv_roller_t * roller = (lv_roller_t *)obj;
 298:..\..\..\arduinoLCD\test\Pain Drain\libraries\lvgl\src\widgets/lv_roller.c **** 
 299:..\..\..\arduinoLCD\test\Pain Drain\libraries\lvgl\src\widgets/lv_roller.c ****     roller->mode = LV_ROLLER_MODE_NORMAL;
 300:..\..\..\arduinoLCD\test\Pain Drain\libraries\lvgl\src\widgets/lv_roller.c ****     roller->option_cnt = 0;
 301:..\..\..\arduinoLCD\test\Pain Drain\libraries\lvgl\src\widgets/lv_roller.c ****     roller->sel_opt_id = 0;
 302:..\..\..\arduinoLCD\test\Pain Drain\libraries\lvgl\src\widgets/lv_roller.c ****     roller->sel_opt_id_ori = 0;
 303:..\..\..\arduinoLCD\test\Pain Drain\libraries\lvgl\src\widgets/lv_roller.c **** 
 304:..\..\..\arduinoLCD\test\Pain Drain\libraries\lvgl\src\widgets/lv_roller.c ****     lv_obj_clear_flag(obj, LV_OBJ_FLAG_SCROLLABLE);
 305:..\..\..\arduinoLCD\test\Pain Drain\libraries\lvgl\src\widgets/lv_roller.c ****     lv_obj_clear_flag(obj, LV_OBJ_FLAG_SCROLL_CHAIN_VER);
 306:..\..\..\arduinoLCD\test\Pain Drain\libraries\lvgl\src\widgets/lv_roller.c **** 
 307:..\..\..\arduinoLCD\test\Pain Drain\libraries\lvgl\src\widgets/lv_roller.c ****     LV_LOG_INFO("begin");
 308:..\..\..\arduinoLCD\test\Pain Drain\libraries\lvgl\src\widgets/lv_roller.c ****     lv_obj_t * label = lv_obj_class_create_obj(&lv_roller_label_class, obj);
 309:..\..\..\arduinoLCD\test\Pain Drain\libraries\lvgl\src\widgets/lv_roller.c ****     lv_obj_class_init_obj(label);
 310:..\..\..\arduinoLCD\test\Pain Drain\libraries\lvgl\src\widgets/lv_roller.c ****     lv_roller_set_options(obj, "Option 1\nOption 2\nOption 3\nOption 4\nOption 5", LV_ROLLER_MODE_N
 311:..\..\..\arduinoLCD\test\Pain Drain\libraries\lvgl\src\widgets/lv_roller.c **** 
 312:..\..\..\arduinoLCD\test\Pain Drain\libraries\lvgl\src\widgets/lv_roller.c ****     LV_LOG_TRACE("finshed");
 313:..\..\..\arduinoLCD\test\Pain Drain\libraries\lvgl\src\widgets/lv_roller.c **** }
 314:..\..\..\arduinoLCD\test\Pain Drain\libraries\lvgl\src\widgets/lv_roller.c **** 
 315:..\..\..\arduinoLCD\test\Pain Drain\libraries\lvgl\src\widgets/lv_roller.c **** static void lv_roller_event(const lv_obj_class_t * class_p, lv_event_t * e)
 316:..\..\..\arduinoLCD\test\Pain Drain\libraries\lvgl\src\widgets/lv_roller.c **** {
ARM GAS  C:\Users\haske\AppData\Local\Temp\ccRPH14P.s 			page 7


 317:..\..\..\arduinoLCD\test\Pain Drain\libraries\lvgl\src\widgets/lv_roller.c ****     LV_UNUSED(class_p);
 318:..\..\..\arduinoLCD\test\Pain Drain\libraries\lvgl\src\widgets/lv_roller.c **** 
 319:..\..\..\arduinoLCD\test\Pain Drain\libraries\lvgl\src\widgets/lv_roller.c ****     lv_res_t res;
 320:..\..\..\arduinoLCD\test\Pain Drain\libraries\lvgl\src\widgets/lv_roller.c **** 
 321:..\..\..\arduinoLCD\test\Pain Drain\libraries\lvgl\src\widgets/lv_roller.c ****     /*Call the ancestor's event handler*/
 322:..\..\..\arduinoLCD\test\Pain Drain\libraries\lvgl\src\widgets/lv_roller.c ****     res = lv_obj_event_base(MY_CLASS, e);
 323:..\..\..\arduinoLCD\test\Pain Drain\libraries\lvgl\src\widgets/lv_roller.c ****     if(res != LV_RES_OK) return;
 324:..\..\..\arduinoLCD\test\Pain Drain\libraries\lvgl\src\widgets/lv_roller.c **** 
 325:..\..\..\arduinoLCD\test\Pain Drain\libraries\lvgl\src\widgets/lv_roller.c ****     lv_event_code_t code = lv_event_get_code(e);
 326:..\..\..\arduinoLCD\test\Pain Drain\libraries\lvgl\src\widgets/lv_roller.c ****     lv_obj_t * obj = lv_event_get_target(e);
 327:..\..\..\arduinoLCD\test\Pain Drain\libraries\lvgl\src\widgets/lv_roller.c ****     lv_roller_t * roller = (lv_roller_t *)obj;
 328:..\..\..\arduinoLCD\test\Pain Drain\libraries\lvgl\src\widgets/lv_roller.c **** 
 329:..\..\..\arduinoLCD\test\Pain Drain\libraries\lvgl\src\widgets/lv_roller.c ****     if(code == LV_EVENT_GET_SELF_SIZE) {
 330:..\..\..\arduinoLCD\test\Pain Drain\libraries\lvgl\src\widgets/lv_roller.c ****         lv_point_t * p = lv_event_get_param(e);
 331:..\..\..\arduinoLCD\test\Pain Drain\libraries\lvgl\src\widgets/lv_roller.c ****         p->x = get_selected_label_width(obj);
 332:..\..\..\arduinoLCD\test\Pain Drain\libraries\lvgl\src\widgets/lv_roller.c ****     }
 333:..\..\..\arduinoLCD\test\Pain Drain\libraries\lvgl\src\widgets/lv_roller.c ****     else if(code == LV_EVENT_STYLE_CHANGED) {
 334:..\..\..\arduinoLCD\test\Pain Drain\libraries\lvgl\src\widgets/lv_roller.c ****         lv_obj_t * label = get_label(obj);
 335:..\..\..\arduinoLCD\test\Pain Drain\libraries\lvgl\src\widgets/lv_roller.c ****         /*Be sure the label's style is updated before processing the roller*/
 336:..\..\..\arduinoLCD\test\Pain Drain\libraries\lvgl\src\widgets/lv_roller.c ****         if(label) lv_event_send(label, LV_EVENT_STYLE_CHANGED, NULL);
 337:..\..\..\arduinoLCD\test\Pain Drain\libraries\lvgl\src\widgets/lv_roller.c ****         lv_obj_refresh_self_size(obj);
 338:..\..\..\arduinoLCD\test\Pain Drain\libraries\lvgl\src\widgets/lv_roller.c ****         refr_position(obj, LV_ANIM_OFF);
 339:..\..\..\arduinoLCD\test\Pain Drain\libraries\lvgl\src\widgets/lv_roller.c ****     }
 340:..\..\..\arduinoLCD\test\Pain Drain\libraries\lvgl\src\widgets/lv_roller.c ****     else if(code == LV_EVENT_SIZE_CHANGED) {
 341:..\..\..\arduinoLCD\test\Pain Drain\libraries\lvgl\src\widgets/lv_roller.c ****         refr_position(obj, LV_ANIM_OFF);
 342:..\..\..\arduinoLCD\test\Pain Drain\libraries\lvgl\src\widgets/lv_roller.c ****     }
 343:..\..\..\arduinoLCD\test\Pain Drain\libraries\lvgl\src\widgets/lv_roller.c ****     else if(code == LV_EVENT_PRESSED) {
 344:..\..\..\arduinoLCD\test\Pain Drain\libraries\lvgl\src\widgets/lv_roller.c ****         roller->moved = 0;
 345:..\..\..\arduinoLCD\test\Pain Drain\libraries\lvgl\src\widgets/lv_roller.c ****         lv_anim_del(get_label(obj), set_y_anim);
 346:..\..\..\arduinoLCD\test\Pain Drain\libraries\lvgl\src\widgets/lv_roller.c ****     }
 347:..\..\..\arduinoLCD\test\Pain Drain\libraries\lvgl\src\widgets/lv_roller.c ****     else if(code == LV_EVENT_PRESSING) {
 348:..\..\..\arduinoLCD\test\Pain Drain\libraries\lvgl\src\widgets/lv_roller.c ****         lv_indev_t * indev = lv_indev_get_act();
 349:..\..\..\arduinoLCD\test\Pain Drain\libraries\lvgl\src\widgets/lv_roller.c ****         lv_point_t p;
 350:..\..\..\arduinoLCD\test\Pain Drain\libraries\lvgl\src\widgets/lv_roller.c ****         lv_indev_get_vect(indev, &p);
 351:..\..\..\arduinoLCD\test\Pain Drain\libraries\lvgl\src\widgets/lv_roller.c ****         if(p.y) {
 352:..\..\..\arduinoLCD\test\Pain Drain\libraries\lvgl\src\widgets/lv_roller.c ****             lv_obj_t * label = get_label(obj);
 353:..\..\..\arduinoLCD\test\Pain Drain\libraries\lvgl\src\widgets/lv_roller.c ****             lv_obj_set_y(label, lv_obj_get_y(label) + p.y);
 354:..\..\..\arduinoLCD\test\Pain Drain\libraries\lvgl\src\widgets/lv_roller.c ****             roller->moved = 1;
 355:..\..\..\arduinoLCD\test\Pain Drain\libraries\lvgl\src\widgets/lv_roller.c ****         }
 356:..\..\..\arduinoLCD\test\Pain Drain\libraries\lvgl\src\widgets/lv_roller.c ****     }
 357:..\..\..\arduinoLCD\test\Pain Drain\libraries\lvgl\src\widgets/lv_roller.c ****     else if(code == LV_EVENT_RELEASED || code == LV_EVENT_PRESS_LOST) {
 358:..\..\..\arduinoLCD\test\Pain Drain\libraries\lvgl\src\widgets/lv_roller.c ****         release_handler(obj);
 359:..\..\..\arduinoLCD\test\Pain Drain\libraries\lvgl\src\widgets/lv_roller.c ****     }
 360:..\..\..\arduinoLCD\test\Pain Drain\libraries\lvgl\src\widgets/lv_roller.c ****     else if(code == LV_EVENT_FOCUSED) {
 361:..\..\..\arduinoLCD\test\Pain Drain\libraries\lvgl\src\widgets/lv_roller.c ****         lv_group_t * g             = lv_obj_get_group(obj);
 362:..\..\..\arduinoLCD\test\Pain Drain\libraries\lvgl\src\widgets/lv_roller.c ****         bool editing               = lv_group_get_editing(g);
 363:..\..\..\arduinoLCD\test\Pain Drain\libraries\lvgl\src\widgets/lv_roller.c ****         lv_indev_type_t indev_type = lv_indev_get_type(lv_indev_get_act());
 364:..\..\..\arduinoLCD\test\Pain Drain\libraries\lvgl\src\widgets/lv_roller.c **** 
 365:..\..\..\arduinoLCD\test\Pain Drain\libraries\lvgl\src\widgets/lv_roller.c ****         /*Encoders need special handling*/
 366:..\..\..\arduinoLCD\test\Pain Drain\libraries\lvgl\src\widgets/lv_roller.c ****         if(indev_type == LV_INDEV_TYPE_ENCODER) {
 367:..\..\..\arduinoLCD\test\Pain Drain\libraries\lvgl\src\widgets/lv_roller.c ****             /*In navigate mode revert the original value*/
 368:..\..\..\arduinoLCD\test\Pain Drain\libraries\lvgl\src\widgets/lv_roller.c ****             if(!editing) {
 369:..\..\..\arduinoLCD\test\Pain Drain\libraries\lvgl\src\widgets/lv_roller.c ****                 if(roller->sel_opt_id != roller->sel_opt_id_ori) {
 370:..\..\..\arduinoLCD\test\Pain Drain\libraries\lvgl\src\widgets/lv_roller.c ****                     roller->sel_opt_id = roller->sel_opt_id_ori;
 371:..\..\..\arduinoLCD\test\Pain Drain\libraries\lvgl\src\widgets/lv_roller.c ****                     refr_position(obj, LV_ANIM_ON);
 372:..\..\..\arduinoLCD\test\Pain Drain\libraries\lvgl\src\widgets/lv_roller.c ****                 }
 373:..\..\..\arduinoLCD\test\Pain Drain\libraries\lvgl\src\widgets/lv_roller.c ****             }
ARM GAS  C:\Users\haske\AppData\Local\Temp\ccRPH14P.s 			page 8


 374:..\..\..\arduinoLCD\test\Pain Drain\libraries\lvgl\src\widgets/lv_roller.c ****             /*Save the current state when entered to edit mode*/
 375:..\..\..\arduinoLCD\test\Pain Drain\libraries\lvgl\src\widgets/lv_roller.c ****             else {
 376:..\..\..\arduinoLCD\test\Pain Drain\libraries\lvgl\src\widgets/lv_roller.c ****                 roller->sel_opt_id_ori = roller->sel_opt_id;
 377:..\..\..\arduinoLCD\test\Pain Drain\libraries\lvgl\src\widgets/lv_roller.c ****             }
 378:..\..\..\arduinoLCD\test\Pain Drain\libraries\lvgl\src\widgets/lv_roller.c ****         }
 379:..\..\..\arduinoLCD\test\Pain Drain\libraries\lvgl\src\widgets/lv_roller.c ****         else {
 380:..\..\..\arduinoLCD\test\Pain Drain\libraries\lvgl\src\widgets/lv_roller.c ****             roller->sel_opt_id_ori = roller->sel_opt_id; /*Save the current value. Used to revert t
 381:..\..\..\arduinoLCD\test\Pain Drain\libraries\lvgl\src\widgets/lv_roller.c ****                                                                     ENTER won't be pressed*/
 382:..\..\..\arduinoLCD\test\Pain Drain\libraries\lvgl\src\widgets/lv_roller.c ****         }
 383:..\..\..\arduinoLCD\test\Pain Drain\libraries\lvgl\src\widgets/lv_roller.c ****     }
 384:..\..\..\arduinoLCD\test\Pain Drain\libraries\lvgl\src\widgets/lv_roller.c ****     else if(code == LV_EVENT_DEFOCUSED) {
 385:..\..\..\arduinoLCD\test\Pain Drain\libraries\lvgl\src\widgets/lv_roller.c ****         /*Revert the original state*/
 386:..\..\..\arduinoLCD\test\Pain Drain\libraries\lvgl\src\widgets/lv_roller.c ****         if(roller->sel_opt_id != roller->sel_opt_id_ori) {
 387:..\..\..\arduinoLCD\test\Pain Drain\libraries\lvgl\src\widgets/lv_roller.c ****             roller->sel_opt_id = roller->sel_opt_id_ori;
 388:..\..\..\arduinoLCD\test\Pain Drain\libraries\lvgl\src\widgets/lv_roller.c ****             refr_position(obj, LV_ANIM_ON);
 389:..\..\..\arduinoLCD\test\Pain Drain\libraries\lvgl\src\widgets/lv_roller.c ****         }
 390:..\..\..\arduinoLCD\test\Pain Drain\libraries\lvgl\src\widgets/lv_roller.c ****     }
 391:..\..\..\arduinoLCD\test\Pain Drain\libraries\lvgl\src\widgets/lv_roller.c ****     else if(code == LV_EVENT_KEY) {
 392:..\..\..\arduinoLCD\test\Pain Drain\libraries\lvgl\src\widgets/lv_roller.c ****         char c = *((char *)lv_event_get_param(e));
 393:..\..\..\arduinoLCD\test\Pain Drain\libraries\lvgl\src\widgets/lv_roller.c ****         if(c == LV_KEY_RIGHT || c == LV_KEY_DOWN) {
 394:..\..\..\arduinoLCD\test\Pain Drain\libraries\lvgl\src\widgets/lv_roller.c ****             if(roller->sel_opt_id + 1 < roller->option_cnt) {
 395:..\..\..\arduinoLCD\test\Pain Drain\libraries\lvgl\src\widgets/lv_roller.c ****                 uint16_t ori_id = roller->sel_opt_id_ori; /*lv_roller_set_selected will overwrite t
 396:..\..\..\arduinoLCD\test\Pain Drain\libraries\lvgl\src\widgets/lv_roller.c ****                 lv_roller_set_selected(obj, roller->sel_opt_id + 1, LV_ANIM_ON);
 397:..\..\..\arduinoLCD\test\Pain Drain\libraries\lvgl\src\widgets/lv_roller.c ****                 roller->sel_opt_id_ori = ori_id;
 398:..\..\..\arduinoLCD\test\Pain Drain\libraries\lvgl\src\widgets/lv_roller.c ****             }
 399:..\..\..\arduinoLCD\test\Pain Drain\libraries\lvgl\src\widgets/lv_roller.c ****         }
 400:..\..\..\arduinoLCD\test\Pain Drain\libraries\lvgl\src\widgets/lv_roller.c ****         else if(c == LV_KEY_LEFT || c == LV_KEY_UP) {
 401:..\..\..\arduinoLCD\test\Pain Drain\libraries\lvgl\src\widgets/lv_roller.c ****             if(roller->sel_opt_id > 0) {
 402:..\..\..\arduinoLCD\test\Pain Drain\libraries\lvgl\src\widgets/lv_roller.c ****                 uint16_t ori_id = roller->sel_opt_id_ori; /*lv_roller_set_selected will overwrite t
 403:..\..\..\arduinoLCD\test\Pain Drain\libraries\lvgl\src\widgets/lv_roller.c **** 
 404:..\..\..\arduinoLCD\test\Pain Drain\libraries\lvgl\src\widgets/lv_roller.c ****                 lv_roller_set_selected(obj, roller->sel_opt_id - 1, LV_ANIM_ON);
 405:..\..\..\arduinoLCD\test\Pain Drain\libraries\lvgl\src\widgets/lv_roller.c ****                 roller->sel_opt_id_ori = ori_id;
 406:..\..\..\arduinoLCD\test\Pain Drain\libraries\lvgl\src\widgets/lv_roller.c ****             }
 407:..\..\..\arduinoLCD\test\Pain Drain\libraries\lvgl\src\widgets/lv_roller.c ****         }
 408:..\..\..\arduinoLCD\test\Pain Drain\libraries\lvgl\src\widgets/lv_roller.c ****     }
 409:..\..\..\arduinoLCD\test\Pain Drain\libraries\lvgl\src\widgets/lv_roller.c ****     else if(code == LV_EVENT_REFR_EXT_DRAW_SIZE) {
 410:..\..\..\arduinoLCD\test\Pain Drain\libraries\lvgl\src\widgets/lv_roller.c ****         lv_obj_t * label = get_label(obj);
 411:..\..\..\arduinoLCD\test\Pain Drain\libraries\lvgl\src\widgets/lv_roller.c ****         lv_obj_refresh_ext_draw_size(label);
 412:..\..\..\arduinoLCD\test\Pain Drain\libraries\lvgl\src\widgets/lv_roller.c ****     }
 413:..\..\..\arduinoLCD\test\Pain Drain\libraries\lvgl\src\widgets/lv_roller.c ****     else if(code == LV_EVENT_DRAW_MAIN || code == LV_EVENT_DRAW_POST) {
 414:..\..\..\arduinoLCD\test\Pain Drain\libraries\lvgl\src\widgets/lv_roller.c ****         draw_main(e);
 415:..\..\..\arduinoLCD\test\Pain Drain\libraries\lvgl\src\widgets/lv_roller.c ****     }
 416:..\..\..\arduinoLCD\test\Pain Drain\libraries\lvgl\src\widgets/lv_roller.c **** }
 417:..\..\..\arduinoLCD\test\Pain Drain\libraries\lvgl\src\widgets/lv_roller.c **** 
 418:..\..\..\arduinoLCD\test\Pain Drain\libraries\lvgl\src\widgets/lv_roller.c **** static void lv_roller_label_event(const lv_obj_class_t * class_p, lv_event_t * e)
 419:..\..\..\arduinoLCD\test\Pain Drain\libraries\lvgl\src\widgets/lv_roller.c **** {
 420:..\..\..\arduinoLCD\test\Pain Drain\libraries\lvgl\src\widgets/lv_roller.c ****     LV_UNUSED(class_p);
 421:..\..\..\arduinoLCD\test\Pain Drain\libraries\lvgl\src\widgets/lv_roller.c **** 
 422:..\..\..\arduinoLCD\test\Pain Drain\libraries\lvgl\src\widgets/lv_roller.c ****     lv_res_t res;
 423:..\..\..\arduinoLCD\test\Pain Drain\libraries\lvgl\src\widgets/lv_roller.c **** 
 424:..\..\..\arduinoLCD\test\Pain Drain\libraries\lvgl\src\widgets/lv_roller.c ****     lv_event_code_t code = lv_event_get_code(e);
 425:..\..\..\arduinoLCD\test\Pain Drain\libraries\lvgl\src\widgets/lv_roller.c ****     /*LV_EVENT_DRAW_MAIN will be called in the draw function*/
 426:..\..\..\arduinoLCD\test\Pain Drain\libraries\lvgl\src\widgets/lv_roller.c ****     if(code != LV_EVENT_DRAW_MAIN) {
 427:..\..\..\arduinoLCD\test\Pain Drain\libraries\lvgl\src\widgets/lv_roller.c ****         /* Call the ancestor's event handler */
 428:..\..\..\arduinoLCD\test\Pain Drain\libraries\lvgl\src\widgets/lv_roller.c ****         res = lv_obj_event_base(MY_CLASS_LABEL, e);
 429:..\..\..\arduinoLCD\test\Pain Drain\libraries\lvgl\src\widgets/lv_roller.c ****         if(res != LV_RES_OK) return;
 430:..\..\..\arduinoLCD\test\Pain Drain\libraries\lvgl\src\widgets/lv_roller.c ****     }
ARM GAS  C:\Users\haske\AppData\Local\Temp\ccRPH14P.s 			page 9


 431:..\..\..\arduinoLCD\test\Pain Drain\libraries\lvgl\src\widgets/lv_roller.c **** 
 432:..\..\..\arduinoLCD\test\Pain Drain\libraries\lvgl\src\widgets/lv_roller.c ****     lv_obj_t * label = lv_event_get_target(e);
 433:..\..\..\arduinoLCD\test\Pain Drain\libraries\lvgl\src\widgets/lv_roller.c ****     if(code == LV_EVENT_REFR_EXT_DRAW_SIZE) {
 434:..\..\..\arduinoLCD\test\Pain Drain\libraries\lvgl\src\widgets/lv_roller.c ****         /*If the selected text has a larger font it needs some extra space to draw it*/
 435:..\..\..\arduinoLCD\test\Pain Drain\libraries\lvgl\src\widgets/lv_roller.c ****         lv_coord_t * s = lv_event_get_param(e);
 436:..\..\..\arduinoLCD\test\Pain Drain\libraries\lvgl\src\widgets/lv_roller.c ****         lv_obj_t * obj = lv_obj_get_parent(label);
 437:..\..\..\arduinoLCD\test\Pain Drain\libraries\lvgl\src\widgets/lv_roller.c ****         lv_coord_t sel_w = get_selected_label_width(obj);
 438:..\..\..\arduinoLCD\test\Pain Drain\libraries\lvgl\src\widgets/lv_roller.c ****         lv_coord_t label_w = lv_obj_get_width(label);
 439:..\..\..\arduinoLCD\test\Pain Drain\libraries\lvgl\src\widgets/lv_roller.c ****         *s = LV_MAX(*s, sel_w - label_w);
 440:..\..\..\arduinoLCD\test\Pain Drain\libraries\lvgl\src\widgets/lv_roller.c ****     }
 441:..\..\..\arduinoLCD\test\Pain Drain\libraries\lvgl\src\widgets/lv_roller.c ****     else if(code == LV_EVENT_SIZE_CHANGED) {
 442:..\..\..\arduinoLCD\test\Pain Drain\libraries\lvgl\src\widgets/lv_roller.c ****         refr_position(lv_obj_get_parent(label), LV_ANIM_OFF);
 443:..\..\..\arduinoLCD\test\Pain Drain\libraries\lvgl\src\widgets/lv_roller.c ****     }
 444:..\..\..\arduinoLCD\test\Pain Drain\libraries\lvgl\src\widgets/lv_roller.c ****     else if(code == LV_EVENT_DRAW_MAIN) {
 445:..\..\..\arduinoLCD\test\Pain Drain\libraries\lvgl\src\widgets/lv_roller.c ****         draw_label(e);
 446:..\..\..\arduinoLCD\test\Pain Drain\libraries\lvgl\src\widgets/lv_roller.c ****     }
 447:..\..\..\arduinoLCD\test\Pain Drain\libraries\lvgl\src\widgets/lv_roller.c **** }
 448:..\..\..\arduinoLCD\test\Pain Drain\libraries\lvgl\src\widgets/lv_roller.c **** 
 449:..\..\..\arduinoLCD\test\Pain Drain\libraries\lvgl\src\widgets/lv_roller.c **** 
 450:..\..\..\arduinoLCD\test\Pain Drain\libraries\lvgl\src\widgets/lv_roller.c **** static void draw_main(lv_event_t * e)
 451:..\..\..\arduinoLCD\test\Pain Drain\libraries\lvgl\src\widgets/lv_roller.c **** {
 452:..\..\..\arduinoLCD\test\Pain Drain\libraries\lvgl\src\widgets/lv_roller.c ****     lv_event_code_t code = lv_event_get_code(e);
 453:..\..\..\arduinoLCD\test\Pain Drain\libraries\lvgl\src\widgets/lv_roller.c ****     lv_obj_t * obj = lv_event_get_target(e);
 454:..\..\..\arduinoLCD\test\Pain Drain\libraries\lvgl\src\widgets/lv_roller.c ****     if(code == LV_EVENT_DRAW_MAIN) {
 455:..\..\..\arduinoLCD\test\Pain Drain\libraries\lvgl\src\widgets/lv_roller.c ****         /*Draw the selected rectangle*/
 456:..\..\..\arduinoLCD\test\Pain Drain\libraries\lvgl\src\widgets/lv_roller.c ****         lv_draw_ctx_t * draw_ctx = lv_event_get_draw_ctx(e);
 457:..\..\..\arduinoLCD\test\Pain Drain\libraries\lvgl\src\widgets/lv_roller.c ****         lv_area_t sel_area;
 458:..\..\..\arduinoLCD\test\Pain Drain\libraries\lvgl\src\widgets/lv_roller.c ****         get_sel_area(obj, &sel_area);
 459:..\..\..\arduinoLCD\test\Pain Drain\libraries\lvgl\src\widgets/lv_roller.c ****         lv_draw_rect_dsc_t sel_dsc;
 460:..\..\..\arduinoLCD\test\Pain Drain\libraries\lvgl\src\widgets/lv_roller.c ****         lv_draw_rect_dsc_init(&sel_dsc);
 461:..\..\..\arduinoLCD\test\Pain Drain\libraries\lvgl\src\widgets/lv_roller.c ****         lv_obj_init_draw_rect_dsc(obj, LV_PART_SELECTED, &sel_dsc);
 462:..\..\..\arduinoLCD\test\Pain Drain\libraries\lvgl\src\widgets/lv_roller.c ****         lv_draw_rect(draw_ctx, &sel_dsc, &sel_area);
 463:..\..\..\arduinoLCD\test\Pain Drain\libraries\lvgl\src\widgets/lv_roller.c ****     }
 464:..\..\..\arduinoLCD\test\Pain Drain\libraries\lvgl\src\widgets/lv_roller.c ****     /*Post draw when the children are drawn*/
 465:..\..\..\arduinoLCD\test\Pain Drain\libraries\lvgl\src\widgets/lv_roller.c ****     else if(code == LV_EVENT_DRAW_POST) {
 466:..\..\..\arduinoLCD\test\Pain Drain\libraries\lvgl\src\widgets/lv_roller.c ****         lv_draw_ctx_t * draw_ctx = lv_event_get_draw_ctx(e);
 467:..\..\..\arduinoLCD\test\Pain Drain\libraries\lvgl\src\widgets/lv_roller.c **** 
 468:..\..\..\arduinoLCD\test\Pain Drain\libraries\lvgl\src\widgets/lv_roller.c ****         lv_draw_label_dsc_t label_dsc;
 469:..\..\..\arduinoLCD\test\Pain Drain\libraries\lvgl\src\widgets/lv_roller.c ****         lv_draw_label_dsc_init(&label_dsc);
 470:..\..\..\arduinoLCD\test\Pain Drain\libraries\lvgl\src\widgets/lv_roller.c ****         lv_obj_init_draw_label_dsc(obj, LV_PART_SELECTED, &label_dsc);
 471:..\..\..\arduinoLCD\test\Pain Drain\libraries\lvgl\src\widgets/lv_roller.c **** 
 472:..\..\..\arduinoLCD\test\Pain Drain\libraries\lvgl\src\widgets/lv_roller.c ****         /*Redraw the text on the selected area*/
 473:..\..\..\arduinoLCD\test\Pain Drain\libraries\lvgl\src\widgets/lv_roller.c ****         lv_area_t sel_area;
 474:..\..\..\arduinoLCD\test\Pain Drain\libraries\lvgl\src\widgets/lv_roller.c ****         get_sel_area(obj, &sel_area);
 475:..\..\..\arduinoLCD\test\Pain Drain\libraries\lvgl\src\widgets/lv_roller.c ****         lv_area_t mask_sel;
 476:..\..\..\arduinoLCD\test\Pain Drain\libraries\lvgl\src\widgets/lv_roller.c ****         bool area_ok;
 477:..\..\..\arduinoLCD\test\Pain Drain\libraries\lvgl\src\widgets/lv_roller.c ****         area_ok = _lv_area_intersect(&mask_sel, draw_ctx->clip_area, &sel_area);
 478:..\..\..\arduinoLCD\test\Pain Drain\libraries\lvgl\src\widgets/lv_roller.c ****         if(area_ok) {
 479:..\..\..\arduinoLCD\test\Pain Drain\libraries\lvgl\src\widgets/lv_roller.c ****             lv_obj_t * label = get_label(obj);
 480:..\..\..\arduinoLCD\test\Pain Drain\libraries\lvgl\src\widgets/lv_roller.c ****             if(lv_label_get_recolor(label)) label_dsc.flag |= LV_TEXT_FLAG_RECOLOR;
 481:..\..\..\arduinoLCD\test\Pain Drain\libraries\lvgl\src\widgets/lv_roller.c **** 
 482:..\..\..\arduinoLCD\test\Pain Drain\libraries\lvgl\src\widgets/lv_roller.c ****             /*Get the size of the "selected text"*/
 483:..\..\..\arduinoLCD\test\Pain Drain\libraries\lvgl\src\widgets/lv_roller.c ****             lv_point_t res_p;
 484:..\..\..\arduinoLCD\test\Pain Drain\libraries\lvgl\src\widgets/lv_roller.c ****             lv_txt_get_size(&res_p, lv_label_get_text(label), label_dsc.font, label_dsc.letter_spac
 485:..\..\..\arduinoLCD\test\Pain Drain\libraries\lvgl\src\widgets/lv_roller.c ****                             lv_obj_get_width(obj), LV_TEXT_FLAG_EXPAND);
 486:..\..\..\arduinoLCD\test\Pain Drain\libraries\lvgl\src\widgets/lv_roller.c **** 
 487:..\..\..\arduinoLCD\test\Pain Drain\libraries\lvgl\src\widgets/lv_roller.c ****             /*Move the selected label proportionally with the background label*/
ARM GAS  C:\Users\haske\AppData\Local\Temp\ccRPH14P.s 			page 10


 488:..\..\..\arduinoLCD\test\Pain Drain\libraries\lvgl\src\widgets/lv_roller.c ****             lv_coord_t roller_h = lv_obj_get_height(obj);
 489:..\..\..\arduinoLCD\test\Pain Drain\libraries\lvgl\src\widgets/lv_roller.c ****             int32_t label_y_prop = label->coords.y1 - (roller_h / 2 +
 490:..\..\..\arduinoLCD\test\Pain Drain\libraries\lvgl\src\widgets/lv_roller.c ****                                                        obj->coords.y1); /*label offset from the mid
 491:..\..\..\arduinoLCD\test\Pain Drain\libraries\lvgl\src\widgets/lv_roller.c ****             label_y_prop = (label_y_prop * 16384) / lv_obj_get_height(
 492:..\..\..\arduinoLCD\test\Pain Drain\libraries\lvgl\src\widgets/lv_roller.c ****                                label); /*Proportional position from the middle line (upscaled by <<
 493:..\..\..\arduinoLCD\test\Pain Drain\libraries\lvgl\src\widgets/lv_roller.c **** 
 494:..\..\..\arduinoLCD\test\Pain Drain\libraries\lvgl\src\widgets/lv_roller.c ****             /*Apply a correction with different line heights*/
 495:..\..\..\arduinoLCD\test\Pain Drain\libraries\lvgl\src\widgets/lv_roller.c ****             const lv_font_t * normal_label_font = lv_obj_get_style_text_font(obj, LV_PART_MAIN);
 496:..\..\..\arduinoLCD\test\Pain Drain\libraries\lvgl\src\widgets/lv_roller.c ****             lv_coord_t corr = (label_dsc.font->line_height - normal_label_font->line_height) / 2;
 497:..\..\..\arduinoLCD\test\Pain Drain\libraries\lvgl\src\widgets/lv_roller.c **** 
 498:..\..\..\arduinoLCD\test\Pain Drain\libraries\lvgl\src\widgets/lv_roller.c ****             /*Apply the proportional position to the selected text*/
 499:..\..\..\arduinoLCD\test\Pain Drain\libraries\lvgl\src\widgets/lv_roller.c ****             res_p.y -= corr;
 500:..\..\..\arduinoLCD\test\Pain Drain\libraries\lvgl\src\widgets/lv_roller.c ****             int32_t label_sel_y = roller_h / 2 + obj->coords.y1;
 501:..\..\..\arduinoLCD\test\Pain Drain\libraries\lvgl\src\widgets/lv_roller.c ****             label_sel_y += (label_y_prop * res_p.y) >> 14;
 502:..\..\..\arduinoLCD\test\Pain Drain\libraries\lvgl\src\widgets/lv_roller.c ****             label_sel_y -= corr;
 503:..\..\..\arduinoLCD\test\Pain Drain\libraries\lvgl\src\widgets/lv_roller.c **** 
 504:..\..\..\arduinoLCD\test\Pain Drain\libraries\lvgl\src\widgets/lv_roller.c ****             lv_coord_t bwidth = lv_obj_get_style_border_width(obj, LV_PART_MAIN);
 505:..\..\..\arduinoLCD\test\Pain Drain\libraries\lvgl\src\widgets/lv_roller.c ****             lv_coord_t pleft = lv_obj_get_style_pad_left(obj, LV_PART_MAIN);
 506:..\..\..\arduinoLCD\test\Pain Drain\libraries\lvgl\src\widgets/lv_roller.c ****             lv_coord_t pright = lv_obj_get_style_pad_right(obj, LV_PART_MAIN);
 507:..\..\..\arduinoLCD\test\Pain Drain\libraries\lvgl\src\widgets/lv_roller.c **** 
 508:..\..\..\arduinoLCD\test\Pain Drain\libraries\lvgl\src\widgets/lv_roller.c ****             /*Draw the selected text*/
 509:..\..\..\arduinoLCD\test\Pain Drain\libraries\lvgl\src\widgets/lv_roller.c ****             lv_area_t label_sel_area;
 510:..\..\..\arduinoLCD\test\Pain Drain\libraries\lvgl\src\widgets/lv_roller.c ****             label_sel_area.x1 = obj->coords.x1 + pleft + bwidth;
 511:..\..\..\arduinoLCD\test\Pain Drain\libraries\lvgl\src\widgets/lv_roller.c ****             label_sel_area.y1 = label_sel_y;
 512:..\..\..\arduinoLCD\test\Pain Drain\libraries\lvgl\src\widgets/lv_roller.c ****             label_sel_area.x2 = obj->coords.x2 - pright - bwidth;
 513:..\..\..\arduinoLCD\test\Pain Drain\libraries\lvgl\src\widgets/lv_roller.c ****             label_sel_area.y2 = label_sel_area.y1 + res_p.y;
 514:..\..\..\arduinoLCD\test\Pain Drain\libraries\lvgl\src\widgets/lv_roller.c **** 
 515:..\..\..\arduinoLCD\test\Pain Drain\libraries\lvgl\src\widgets/lv_roller.c ****             label_dsc.flag |= LV_TEXT_FLAG_EXPAND;
 516:..\..\..\arduinoLCD\test\Pain Drain\libraries\lvgl\src\widgets/lv_roller.c ****             const lv_area_t * clip_area_ori = draw_ctx->clip_area;
 517:..\..\..\arduinoLCD\test\Pain Drain\libraries\lvgl\src\widgets/lv_roller.c ****             draw_ctx->clip_area = &mask_sel;
 518:..\..\..\arduinoLCD\test\Pain Drain\libraries\lvgl\src\widgets/lv_roller.c ****             lv_draw_label(draw_ctx, &label_dsc, &label_sel_area, lv_label_get_text(label), NULL);
 519:..\..\..\arduinoLCD\test\Pain Drain\libraries\lvgl\src\widgets/lv_roller.c ****             draw_ctx->clip_area = clip_area_ori;
 520:..\..\..\arduinoLCD\test\Pain Drain\libraries\lvgl\src\widgets/lv_roller.c ****         }
 521:..\..\..\arduinoLCD\test\Pain Drain\libraries\lvgl\src\widgets/lv_roller.c ****     }
 522:..\..\..\arduinoLCD\test\Pain Drain\libraries\lvgl\src\widgets/lv_roller.c **** }
 523:..\..\..\arduinoLCD\test\Pain Drain\libraries\lvgl\src\widgets/lv_roller.c **** 
 524:..\..\..\arduinoLCD\test\Pain Drain\libraries\lvgl\src\widgets/lv_roller.c **** static void draw_label(lv_event_t * e)
 525:..\..\..\arduinoLCD\test\Pain Drain\libraries\lvgl\src\widgets/lv_roller.c **** {
 526:..\..\..\arduinoLCD\test\Pain Drain\libraries\lvgl\src\widgets/lv_roller.c ****     /* Split the drawing of the label into  an upper (above the selected area)
 527:..\..\..\arduinoLCD\test\Pain Drain\libraries\lvgl\src\widgets/lv_roller.c ****      * and a lower (below the selected area)*/
 528:..\..\..\arduinoLCD\test\Pain Drain\libraries\lvgl\src\widgets/lv_roller.c ****     lv_obj_t * label_obj = lv_event_get_target(e);
 529:..\..\..\arduinoLCD\test\Pain Drain\libraries\lvgl\src\widgets/lv_roller.c ****     lv_obj_t * roller = lv_obj_get_parent(label_obj);
 530:..\..\..\arduinoLCD\test\Pain Drain\libraries\lvgl\src\widgets/lv_roller.c ****     lv_draw_label_dsc_t label_draw_dsc;
 531:..\..\..\arduinoLCD\test\Pain Drain\libraries\lvgl\src\widgets/lv_roller.c ****     lv_draw_label_dsc_init(&label_draw_dsc);
 532:..\..\..\arduinoLCD\test\Pain Drain\libraries\lvgl\src\widgets/lv_roller.c ****     lv_obj_init_draw_label_dsc(roller, LV_PART_MAIN, &label_draw_dsc);
 533:..\..\..\arduinoLCD\test\Pain Drain\libraries\lvgl\src\widgets/lv_roller.c ****     if(lv_label_get_recolor(label_obj)) label_draw_dsc.flag |= LV_TEXT_FLAG_RECOLOR;
 534:..\..\..\arduinoLCD\test\Pain Drain\libraries\lvgl\src\widgets/lv_roller.c **** 
 535:..\..\..\arduinoLCD\test\Pain Drain\libraries\lvgl\src\widgets/lv_roller.c ****     lv_draw_ctx_t * draw_ctx = lv_event_get_draw_ctx(e);
 536:..\..\..\arduinoLCD\test\Pain Drain\libraries\lvgl\src\widgets/lv_roller.c **** 
 537:..\..\..\arduinoLCD\test\Pain Drain\libraries\lvgl\src\widgets/lv_roller.c ****     /*If the roller has shadow or outline it has some ext. draw size
 538:..\..\..\arduinoLCD\test\Pain Drain\libraries\lvgl\src\widgets/lv_roller.c ****      *therefore the label can overflow the roller's boundaries.
 539:..\..\..\arduinoLCD\test\Pain Drain\libraries\lvgl\src\widgets/lv_roller.c ****      *To solve this limit the clip area to the "plain" roller.*/
 540:..\..\..\arduinoLCD\test\Pain Drain\libraries\lvgl\src\widgets/lv_roller.c ****     const lv_area_t * clip_area_ori = draw_ctx->clip_area;
 541:..\..\..\arduinoLCD\test\Pain Drain\libraries\lvgl\src\widgets/lv_roller.c ****     lv_area_t roller_clip_area;
 542:..\..\..\arduinoLCD\test\Pain Drain\libraries\lvgl\src\widgets/lv_roller.c ****     if(!_lv_area_intersect(&roller_clip_area, draw_ctx->clip_area, &roller->coords)) return;
 543:..\..\..\arduinoLCD\test\Pain Drain\libraries\lvgl\src\widgets/lv_roller.c ****     draw_ctx->clip_area = &roller_clip_area;
 544:..\..\..\arduinoLCD\test\Pain Drain\libraries\lvgl\src\widgets/lv_roller.c **** 
ARM GAS  C:\Users\haske\AppData\Local\Temp\ccRPH14P.s 			page 11


 545:..\..\..\arduinoLCD\test\Pain Drain\libraries\lvgl\src\widgets/lv_roller.c ****     lv_area_t sel_area;
 546:..\..\..\arduinoLCD\test\Pain Drain\libraries\lvgl\src\widgets/lv_roller.c ****     get_sel_area(roller, &sel_area);
 547:..\..\..\arduinoLCD\test\Pain Drain\libraries\lvgl\src\widgets/lv_roller.c **** 
 548:..\..\..\arduinoLCD\test\Pain Drain\libraries\lvgl\src\widgets/lv_roller.c ****     lv_area_t clip2;
 549:..\..\..\arduinoLCD\test\Pain Drain\libraries\lvgl\src\widgets/lv_roller.c ****     clip2.x1 = label_obj->coords.x1;
 550:..\..\..\arduinoLCD\test\Pain Drain\libraries\lvgl\src\widgets/lv_roller.c ****     clip2.y1 = label_obj->coords.y1;
 551:..\..\..\arduinoLCD\test\Pain Drain\libraries\lvgl\src\widgets/lv_roller.c ****     clip2.x2 = label_obj->coords.x2;
 552:..\..\..\arduinoLCD\test\Pain Drain\libraries\lvgl\src\widgets/lv_roller.c ****     clip2.y2 = sel_area.y1;
 553:..\..\..\arduinoLCD\test\Pain Drain\libraries\lvgl\src\widgets/lv_roller.c ****     if(_lv_area_intersect(&clip2, draw_ctx->clip_area, &clip2)) {
 554:..\..\..\arduinoLCD\test\Pain Drain\libraries\lvgl\src\widgets/lv_roller.c ****         const lv_area_t * clip_area_ori2 = draw_ctx->clip_area;
 555:..\..\..\arduinoLCD\test\Pain Drain\libraries\lvgl\src\widgets/lv_roller.c ****         draw_ctx->clip_area = &clip2;
 556:..\..\..\arduinoLCD\test\Pain Drain\libraries\lvgl\src\widgets/lv_roller.c ****         lv_draw_label(draw_ctx, &label_draw_dsc, &label_obj->coords, lv_label_get_text(label_obj), 
 557:..\..\..\arduinoLCD\test\Pain Drain\libraries\lvgl\src\widgets/lv_roller.c ****         draw_ctx->clip_area = clip_area_ori2;
 558:..\..\..\arduinoLCD\test\Pain Drain\libraries\lvgl\src\widgets/lv_roller.c ****     }
 559:..\..\..\arduinoLCD\test\Pain Drain\libraries\lvgl\src\widgets/lv_roller.c **** 
 560:..\..\..\arduinoLCD\test\Pain Drain\libraries\lvgl\src\widgets/lv_roller.c ****     clip2.x1 = label_obj->coords.x1;
 561:..\..\..\arduinoLCD\test\Pain Drain\libraries\lvgl\src\widgets/lv_roller.c ****     clip2.y1 = sel_area.y2;
 562:..\..\..\arduinoLCD\test\Pain Drain\libraries\lvgl\src\widgets/lv_roller.c ****     clip2.x2 = label_obj->coords.x2;
 563:..\..\..\arduinoLCD\test\Pain Drain\libraries\lvgl\src\widgets/lv_roller.c ****     clip2.y2 = label_obj->coords.y2;
 564:..\..\..\arduinoLCD\test\Pain Drain\libraries\lvgl\src\widgets/lv_roller.c ****     if(_lv_area_intersect(&clip2, draw_ctx->clip_area, &clip2)) {
 565:..\..\..\arduinoLCD\test\Pain Drain\libraries\lvgl\src\widgets/lv_roller.c ****         const lv_area_t * clip_area_ori2 = draw_ctx->clip_area;
 566:..\..\..\arduinoLCD\test\Pain Drain\libraries\lvgl\src\widgets/lv_roller.c ****         draw_ctx->clip_area = &clip2;
 567:..\..\..\arduinoLCD\test\Pain Drain\libraries\lvgl\src\widgets/lv_roller.c ****         lv_draw_label(draw_ctx, &label_draw_dsc, &label_obj->coords, lv_label_get_text(label_obj), 
 568:..\..\..\arduinoLCD\test\Pain Drain\libraries\lvgl\src\widgets/lv_roller.c ****         draw_ctx->clip_area = clip_area_ori2;
 569:..\..\..\arduinoLCD\test\Pain Drain\libraries\lvgl\src\widgets/lv_roller.c ****     }
 570:..\..\..\arduinoLCD\test\Pain Drain\libraries\lvgl\src\widgets/lv_roller.c **** 
 571:..\..\..\arduinoLCD\test\Pain Drain\libraries\lvgl\src\widgets/lv_roller.c ****     draw_ctx->clip_area = clip_area_ori;
 572:..\..\..\arduinoLCD\test\Pain Drain\libraries\lvgl\src\widgets/lv_roller.c **** }
 573:..\..\..\arduinoLCD\test\Pain Drain\libraries\lvgl\src\widgets/lv_roller.c **** 
 574:..\..\..\arduinoLCD\test\Pain Drain\libraries\lvgl\src\widgets/lv_roller.c **** static void get_sel_area(lv_obj_t * obj, lv_area_t * sel_area)
 575:..\..\..\arduinoLCD\test\Pain Drain\libraries\lvgl\src\widgets/lv_roller.c **** {
 576:..\..\..\arduinoLCD\test\Pain Drain\libraries\lvgl\src\widgets/lv_roller.c **** 
 577:..\..\..\arduinoLCD\test\Pain Drain\libraries\lvgl\src\widgets/lv_roller.c ****     const lv_font_t * font_main = lv_obj_get_style_text_font(obj, LV_PART_MAIN);
 578:..\..\..\arduinoLCD\test\Pain Drain\libraries\lvgl\src\widgets/lv_roller.c ****     const lv_font_t * font_sel = lv_obj_get_style_text_font(obj, LV_PART_SELECTED);
 579:..\..\..\arduinoLCD\test\Pain Drain\libraries\lvgl\src\widgets/lv_roller.c ****     lv_coord_t font_main_h        = lv_font_get_line_height(font_main);
 580:..\..\..\arduinoLCD\test\Pain Drain\libraries\lvgl\src\widgets/lv_roller.c ****     lv_coord_t font_sel_h        = lv_font_get_line_height(font_sel);
 581:..\..\..\arduinoLCD\test\Pain Drain\libraries\lvgl\src\widgets/lv_roller.c ****     lv_coord_t line_space = lv_obj_get_style_text_line_space(obj, LV_PART_MAIN);
 582:..\..\..\arduinoLCD\test\Pain Drain\libraries\lvgl\src\widgets/lv_roller.c ****     lv_coord_t d = (font_sel_h + font_main_h) / 2 + line_space;
 583:..\..\..\arduinoLCD\test\Pain Drain\libraries\lvgl\src\widgets/lv_roller.c ****     sel_area->y1 = obj->coords.y1 + lv_obj_get_height(obj) / 2 - d / 2;
 584:..\..\..\arduinoLCD\test\Pain Drain\libraries\lvgl\src\widgets/lv_roller.c ****     sel_area->y2 = sel_area->y1 + d;
 585:..\..\..\arduinoLCD\test\Pain Drain\libraries\lvgl\src\widgets/lv_roller.c ****     lv_area_t roller_coords;
 586:..\..\..\arduinoLCD\test\Pain Drain\libraries\lvgl\src\widgets/lv_roller.c ****     lv_obj_get_coords(obj, &roller_coords);
 587:..\..\..\arduinoLCD\test\Pain Drain\libraries\lvgl\src\widgets/lv_roller.c **** 
 588:..\..\..\arduinoLCD\test\Pain Drain\libraries\lvgl\src\widgets/lv_roller.c ****     sel_area->x1 = roller_coords.x1;
 589:..\..\..\arduinoLCD\test\Pain Drain\libraries\lvgl\src\widgets/lv_roller.c ****     sel_area->x2 = roller_coords.x2;
 590:..\..\..\arduinoLCD\test\Pain Drain\libraries\lvgl\src\widgets/lv_roller.c **** 
 591:..\..\..\arduinoLCD\test\Pain Drain\libraries\lvgl\src\widgets/lv_roller.c **** }
 592:..\..\..\arduinoLCD\test\Pain Drain\libraries\lvgl\src\widgets/lv_roller.c **** 
 593:..\..\..\arduinoLCD\test\Pain Drain\libraries\lvgl\src\widgets/lv_roller.c **** /**
 594:..\..\..\arduinoLCD\test\Pain Drain\libraries\lvgl\src\widgets/lv_roller.c ****  * Refresh the position of the roller. It uses the id stored in: roller->ddlist.selected_option_id
 595:..\..\..\arduinoLCD\test\Pain Drain\libraries\lvgl\src\widgets/lv_roller.c ****  * @param roller pointer to a roller object
 596:..\..\..\arduinoLCD\test\Pain Drain\libraries\lvgl\src\widgets/lv_roller.c ****  * @param anim_en LV_ANIM_ON: refresh with animation; LV_ANOM_OFF: without animation
 597:..\..\..\arduinoLCD\test\Pain Drain\libraries\lvgl\src\widgets/lv_roller.c ****  */
 598:..\..\..\arduinoLCD\test\Pain Drain\libraries\lvgl\src\widgets/lv_roller.c **** static void refr_position(lv_obj_t * obj, lv_anim_enable_t anim_en)
 599:..\..\..\arduinoLCD\test\Pain Drain\libraries\lvgl\src\widgets/lv_roller.c **** {
 600:..\..\..\arduinoLCD\test\Pain Drain\libraries\lvgl\src\widgets/lv_roller.c ****     lv_obj_t * label = get_label(obj);
 601:..\..\..\arduinoLCD\test\Pain Drain\libraries\lvgl\src\widgets/lv_roller.c ****     if(label == NULL) return;
ARM GAS  C:\Users\haske\AppData\Local\Temp\ccRPH14P.s 			page 12


 602:..\..\..\arduinoLCD\test\Pain Drain\libraries\lvgl\src\widgets/lv_roller.c **** 
 603:..\..\..\arduinoLCD\test\Pain Drain\libraries\lvgl\src\widgets/lv_roller.c ****     lv_text_align_t align = lv_obj_calculate_style_text_align(label, LV_PART_MAIN, lv_label_get_tex
 604:..\..\..\arduinoLCD\test\Pain Drain\libraries\lvgl\src\widgets/lv_roller.c **** 
 605:..\..\..\arduinoLCD\test\Pain Drain\libraries\lvgl\src\widgets/lv_roller.c ****     switch(align) {
 606:..\..\..\arduinoLCD\test\Pain Drain\libraries\lvgl\src\widgets/lv_roller.c ****         case LV_TEXT_ALIGN_CENTER:
 607:..\..\..\arduinoLCD\test\Pain Drain\libraries\lvgl\src\widgets/lv_roller.c ****             lv_obj_set_x(label, (lv_obj_get_content_width(obj) - lv_obj_get_width(label)) / 2);
 608:..\..\..\arduinoLCD\test\Pain Drain\libraries\lvgl\src\widgets/lv_roller.c ****             break;
 609:..\..\..\arduinoLCD\test\Pain Drain\libraries\lvgl\src\widgets/lv_roller.c ****         case LV_TEXT_ALIGN_RIGHT:
 610:..\..\..\arduinoLCD\test\Pain Drain\libraries\lvgl\src\widgets/lv_roller.c ****             lv_obj_set_x(label, lv_obj_get_content_width(obj) - lv_obj_get_width(label));
 611:..\..\..\arduinoLCD\test\Pain Drain\libraries\lvgl\src\widgets/lv_roller.c ****             break;
 612:..\..\..\arduinoLCD\test\Pain Drain\libraries\lvgl\src\widgets/lv_roller.c ****         case LV_TEXT_ALIGN_LEFT:
 613:..\..\..\arduinoLCD\test\Pain Drain\libraries\lvgl\src\widgets/lv_roller.c ****             lv_obj_set_x(label, 0);
 614:..\..\..\arduinoLCD\test\Pain Drain\libraries\lvgl\src\widgets/lv_roller.c ****             break;
 615:..\..\..\arduinoLCD\test\Pain Drain\libraries\lvgl\src\widgets/lv_roller.c ****     }
 616:..\..\..\arduinoLCD\test\Pain Drain\libraries\lvgl\src\widgets/lv_roller.c **** 
 617:..\..\..\arduinoLCD\test\Pain Drain\libraries\lvgl\src\widgets/lv_roller.c ****     lv_roller_t * roller = (lv_roller_t *)obj;
 618:..\..\..\arduinoLCD\test\Pain Drain\libraries\lvgl\src\widgets/lv_roller.c ****     const lv_font_t * font = lv_obj_get_style_text_font(obj, LV_PART_MAIN);
 619:..\..\..\arduinoLCD\test\Pain Drain\libraries\lvgl\src\widgets/lv_roller.c ****     lv_coord_t line_space = lv_obj_get_style_text_line_space(obj, LV_PART_MAIN);
 620:..\..\..\arduinoLCD\test\Pain Drain\libraries\lvgl\src\widgets/lv_roller.c ****     lv_coord_t font_h              = lv_font_get_line_height(font);
 621:..\..\..\arduinoLCD\test\Pain Drain\libraries\lvgl\src\widgets/lv_roller.c ****     lv_coord_t h                   = lv_obj_get_content_height(obj);
 622:..\..\..\arduinoLCD\test\Pain Drain\libraries\lvgl\src\widgets/lv_roller.c ****     uint16_t anim_time             = lv_obj_get_style_anim_time(obj, LV_PART_MAIN);
 623:..\..\..\arduinoLCD\test\Pain Drain\libraries\lvgl\src\widgets/lv_roller.c **** 
 624:..\..\..\arduinoLCD\test\Pain Drain\libraries\lvgl\src\widgets/lv_roller.c ****     /*Normally the animation's `end_cb` sets correct position of the roller if infinite.
 625:..\..\..\arduinoLCD\test\Pain Drain\libraries\lvgl\src\widgets/lv_roller.c ****      *But without animations do it manually*/
 626:..\..\..\arduinoLCD\test\Pain Drain\libraries\lvgl\src\widgets/lv_roller.c ****     if(anim_en == LV_ANIM_OFF || anim_time == 0) {
 627:..\..\..\arduinoLCD\test\Pain Drain\libraries\lvgl\src\widgets/lv_roller.c ****         inf_normalize(obj);
 628:..\..\..\arduinoLCD\test\Pain Drain\libraries\lvgl\src\widgets/lv_roller.c ****     }
 629:..\..\..\arduinoLCD\test\Pain Drain\libraries\lvgl\src\widgets/lv_roller.c **** 
 630:..\..\..\arduinoLCD\test\Pain Drain\libraries\lvgl\src\widgets/lv_roller.c ****     int32_t id = roller->sel_opt_id;
 631:..\..\..\arduinoLCD\test\Pain Drain\libraries\lvgl\src\widgets/lv_roller.c ****     lv_coord_t sel_y1 = id * (font_h + line_space);
 632:..\..\..\arduinoLCD\test\Pain Drain\libraries\lvgl\src\widgets/lv_roller.c ****     lv_coord_t mid_y1 = h / 2 - font_h / 2;
 633:..\..\..\arduinoLCD\test\Pain Drain\libraries\lvgl\src\widgets/lv_roller.c **** 
 634:..\..\..\arduinoLCD\test\Pain Drain\libraries\lvgl\src\widgets/lv_roller.c ****     lv_coord_t new_y = mid_y1 - sel_y1;
 635:..\..\..\arduinoLCD\test\Pain Drain\libraries\lvgl\src\widgets/lv_roller.c **** 
 636:..\..\..\arduinoLCD\test\Pain Drain\libraries\lvgl\src\widgets/lv_roller.c ****     if(anim_en == LV_ANIM_OFF || anim_time == 0) {
 637:..\..\..\arduinoLCD\test\Pain Drain\libraries\lvgl\src\widgets/lv_roller.c ****         lv_anim_del(label, set_y_anim);
 638:..\..\..\arduinoLCD\test\Pain Drain\libraries\lvgl\src\widgets/lv_roller.c ****         lv_obj_set_y(label, new_y);
 639:..\..\..\arduinoLCD\test\Pain Drain\libraries\lvgl\src\widgets/lv_roller.c ****     }
 640:..\..\..\arduinoLCD\test\Pain Drain\libraries\lvgl\src\widgets/lv_roller.c ****     else {
 641:..\..\..\arduinoLCD\test\Pain Drain\libraries\lvgl\src\widgets/lv_roller.c ****         lv_anim_t a;
 642:..\..\..\arduinoLCD\test\Pain Drain\libraries\lvgl\src\widgets/lv_roller.c ****         lv_anim_init(&a);
 643:..\..\..\arduinoLCD\test\Pain Drain\libraries\lvgl\src\widgets/lv_roller.c ****         lv_anim_set_var(&a, label);
 644:..\..\..\arduinoLCD\test\Pain Drain\libraries\lvgl\src\widgets/lv_roller.c ****         lv_anim_set_exec_cb(&a, set_y_anim);
 645:..\..\..\arduinoLCD\test\Pain Drain\libraries\lvgl\src\widgets/lv_roller.c ****         lv_anim_set_values(&a, lv_obj_get_y(label), new_y);
 646:..\..\..\arduinoLCD\test\Pain Drain\libraries\lvgl\src\widgets/lv_roller.c ****         lv_anim_set_time(&a, anim_time);
 647:..\..\..\arduinoLCD\test\Pain Drain\libraries\lvgl\src\widgets/lv_roller.c ****         lv_anim_set_ready_cb(&a, scroll_anim_ready_cb);
 648:..\..\..\arduinoLCD\test\Pain Drain\libraries\lvgl\src\widgets/lv_roller.c ****         lv_anim_set_path_cb(&a, lv_anim_path_ease_out);
 649:..\..\..\arduinoLCD\test\Pain Drain\libraries\lvgl\src\widgets/lv_roller.c ****         lv_anim_start(&a);
 650:..\..\..\arduinoLCD\test\Pain Drain\libraries\lvgl\src\widgets/lv_roller.c ****     }
 651:..\..\..\arduinoLCD\test\Pain Drain\libraries\lvgl\src\widgets/lv_roller.c **** }
 652:..\..\..\arduinoLCD\test\Pain Drain\libraries\lvgl\src\widgets/lv_roller.c **** 
 653:..\..\..\arduinoLCD\test\Pain Drain\libraries\lvgl\src\widgets/lv_roller.c **** static lv_res_t release_handler(lv_obj_t * obj)
 654:..\..\..\arduinoLCD\test\Pain Drain\libraries\lvgl\src\widgets/lv_roller.c **** {
 655:..\..\..\arduinoLCD\test\Pain Drain\libraries\lvgl\src\widgets/lv_roller.c ****     lv_obj_t * label = get_label(obj);
 656:..\..\..\arduinoLCD\test\Pain Drain\libraries\lvgl\src\widgets/lv_roller.c ****     if(label == NULL) return LV_RES_OK;
 657:..\..\..\arduinoLCD\test\Pain Drain\libraries\lvgl\src\widgets/lv_roller.c **** 
 658:..\..\..\arduinoLCD\test\Pain Drain\libraries\lvgl\src\widgets/lv_roller.c ****     lv_indev_t * indev = lv_indev_get_act();
ARM GAS  C:\Users\haske\AppData\Local\Temp\ccRPH14P.s 			page 13


 659:..\..\..\arduinoLCD\test\Pain Drain\libraries\lvgl\src\widgets/lv_roller.c ****     lv_roller_t * roller = (lv_roller_t *)obj;
 660:..\..\..\arduinoLCD\test\Pain Drain\libraries\lvgl\src\widgets/lv_roller.c **** 
 661:..\..\..\arduinoLCD\test\Pain Drain\libraries\lvgl\src\widgets/lv_roller.c ****     /*Leave edit mode once a new option is selected*/
 662:..\..\..\arduinoLCD\test\Pain Drain\libraries\lvgl\src\widgets/lv_roller.c ****     lv_indev_type_t indev_type = lv_indev_get_type(indev);
 663:..\..\..\arduinoLCD\test\Pain Drain\libraries\lvgl\src\widgets/lv_roller.c ****     if(indev_type == LV_INDEV_TYPE_ENCODER || indev_type == LV_INDEV_TYPE_KEYPAD) {
 664:..\..\..\arduinoLCD\test\Pain Drain\libraries\lvgl\src\widgets/lv_roller.c ****         roller->sel_opt_id_ori = roller->sel_opt_id;
 665:..\..\..\arduinoLCD\test\Pain Drain\libraries\lvgl\src\widgets/lv_roller.c **** 
 666:..\..\..\arduinoLCD\test\Pain Drain\libraries\lvgl\src\widgets/lv_roller.c ****         if(indev_type == LV_INDEV_TYPE_ENCODER) {
 667:..\..\..\arduinoLCD\test\Pain Drain\libraries\lvgl\src\widgets/lv_roller.c ****             lv_group_t * g      = lv_obj_get_group(obj);
 668:..\..\..\arduinoLCD\test\Pain Drain\libraries\lvgl\src\widgets/lv_roller.c ****             if(lv_group_get_editing(g)) {
 669:..\..\..\arduinoLCD\test\Pain Drain\libraries\lvgl\src\widgets/lv_roller.c ****                 lv_group_set_editing(g, false);
 670:..\..\..\arduinoLCD\test\Pain Drain\libraries\lvgl\src\widgets/lv_roller.c ****             }
 671:..\..\..\arduinoLCD\test\Pain Drain\libraries\lvgl\src\widgets/lv_roller.c ****         }
 672:..\..\..\arduinoLCD\test\Pain Drain\libraries\lvgl\src\widgets/lv_roller.c ****     }
 673:..\..\..\arduinoLCD\test\Pain Drain\libraries\lvgl\src\widgets/lv_roller.c **** 
 674:..\..\..\arduinoLCD\test\Pain Drain\libraries\lvgl\src\widgets/lv_roller.c ****     if(lv_indev_get_type(indev) == LV_INDEV_TYPE_POINTER || lv_indev_get_type(indev) == LV_INDEV_TY
 675:..\..\..\arduinoLCD\test\Pain Drain\libraries\lvgl\src\widgets/lv_roller.c ****         /*Search the clicked option (For KEYPAD and ENCODER the new value should be already set)*/
 676:..\..\..\arduinoLCD\test\Pain Drain\libraries\lvgl\src\widgets/lv_roller.c ****         int16_t new_opt  = -1;
 677:..\..\..\arduinoLCD\test\Pain Drain\libraries\lvgl\src\widgets/lv_roller.c ****         if(roller->moved == 0) {
 678:..\..\..\arduinoLCD\test\Pain Drain\libraries\lvgl\src\widgets/lv_roller.c ****             new_opt = 0;
 679:..\..\..\arduinoLCD\test\Pain Drain\libraries\lvgl\src\widgets/lv_roller.c ****             lv_point_t p;
 680:..\..\..\arduinoLCD\test\Pain Drain\libraries\lvgl\src\widgets/lv_roller.c ****             lv_indev_get_point(indev, &p);
 681:..\..\..\arduinoLCD\test\Pain Drain\libraries\lvgl\src\widgets/lv_roller.c ****             p.y -= label->coords.y1;
 682:..\..\..\arduinoLCD\test\Pain Drain\libraries\lvgl\src\widgets/lv_roller.c ****             p.x -= label->coords.x1;
 683:..\..\..\arduinoLCD\test\Pain Drain\libraries\lvgl\src\widgets/lv_roller.c ****             uint32_t letter_i;
 684:..\..\..\arduinoLCD\test\Pain Drain\libraries\lvgl\src\widgets/lv_roller.c ****             letter_i = lv_label_get_letter_on(label, &p);
 685:..\..\..\arduinoLCD\test\Pain Drain\libraries\lvgl\src\widgets/lv_roller.c **** 
 686:..\..\..\arduinoLCD\test\Pain Drain\libraries\lvgl\src\widgets/lv_roller.c ****             const char * txt  = lv_label_get_text(label);
 687:..\..\..\arduinoLCD\test\Pain Drain\libraries\lvgl\src\widgets/lv_roller.c ****             uint32_t i        = 0;
 688:..\..\..\arduinoLCD\test\Pain Drain\libraries\lvgl\src\widgets/lv_roller.c ****             uint32_t i_prev   = 0;
 689:..\..\..\arduinoLCD\test\Pain Drain\libraries\lvgl\src\widgets/lv_roller.c **** 
 690:..\..\..\arduinoLCD\test\Pain Drain\libraries\lvgl\src\widgets/lv_roller.c ****             uint32_t letter_cnt = 0;
 691:..\..\..\arduinoLCD\test\Pain Drain\libraries\lvgl\src\widgets/lv_roller.c ****             for(letter_cnt = 0; letter_cnt < letter_i; letter_cnt++) {
 692:..\..\..\arduinoLCD\test\Pain Drain\libraries\lvgl\src\widgets/lv_roller.c ****                 uint32_t letter = _lv_txt_encoded_next(txt, &i);
 693:..\..\..\arduinoLCD\test\Pain Drain\libraries\lvgl\src\widgets/lv_roller.c ****                 /*Count he lines to reach the clicked letter. But ignore the last '\n' because it
 694:..\..\..\arduinoLCD\test\Pain Drain\libraries\lvgl\src\widgets/lv_roller.c ****                  * still belongs to the clicked line*/
 695:..\..\..\arduinoLCD\test\Pain Drain\libraries\lvgl\src\widgets/lv_roller.c ****                 if(letter == '\n' && i_prev != letter_i) new_opt++;
 696:..\..\..\arduinoLCD\test\Pain Drain\libraries\lvgl\src\widgets/lv_roller.c ****                 i_prev = i;
 697:..\..\..\arduinoLCD\test\Pain Drain\libraries\lvgl\src\widgets/lv_roller.c ****             }
 698:..\..\..\arduinoLCD\test\Pain Drain\libraries\lvgl\src\widgets/lv_roller.c ****         }
 699:..\..\..\arduinoLCD\test\Pain Drain\libraries\lvgl\src\widgets/lv_roller.c ****         else {
 700:..\..\..\arduinoLCD\test\Pain Drain\libraries\lvgl\src\widgets/lv_roller.c ****             /*If dragged then align the list to have an element in the middle*/
 701:..\..\..\arduinoLCD\test\Pain Drain\libraries\lvgl\src\widgets/lv_roller.c ****             const lv_font_t * font = lv_obj_get_style_text_font(obj, LV_PART_MAIN);
 702:..\..\..\arduinoLCD\test\Pain Drain\libraries\lvgl\src\widgets/lv_roller.c ****             lv_coord_t line_space = lv_obj_get_style_text_line_space(obj, LV_PART_MAIN);
 703:..\..\..\arduinoLCD\test\Pain Drain\libraries\lvgl\src\widgets/lv_roller.c ****             lv_coord_t font_h              = lv_font_get_line_height(font);
 704:..\..\..\arduinoLCD\test\Pain Drain\libraries\lvgl\src\widgets/lv_roller.c **** 
 705:..\..\..\arduinoLCD\test\Pain Drain\libraries\lvgl\src\widgets/lv_roller.c ****             lv_coord_t label_unit = font_h + line_space;
 706:..\..\..\arduinoLCD\test\Pain Drain\libraries\lvgl\src\widgets/lv_roller.c ****             lv_coord_t mid        = obj->coords.y1 + (obj->coords.y2 - obj->coords.y1) / 2;
 707:..\..\..\arduinoLCD\test\Pain Drain\libraries\lvgl\src\widgets/lv_roller.c ****             lv_coord_t label_y1 = label->coords.y1 + lv_indev_scroll_throw_predict(indev, LV_DIR_VE
 708:..\..\..\arduinoLCD\test\Pain Drain\libraries\lvgl\src\widgets/lv_roller.c ****             int32_t id = (mid - label_y1) / label_unit;
 709:..\..\..\arduinoLCD\test\Pain Drain\libraries\lvgl\src\widgets/lv_roller.c **** 
 710:..\..\..\arduinoLCD\test\Pain Drain\libraries\lvgl\src\widgets/lv_roller.c ****             if(id < 0) id = 0;
 711:..\..\..\arduinoLCD\test\Pain Drain\libraries\lvgl\src\widgets/lv_roller.c ****             if(id >= roller->option_cnt) id = roller->option_cnt - 1;
 712:..\..\..\arduinoLCD\test\Pain Drain\libraries\lvgl\src\widgets/lv_roller.c **** 
 713:..\..\..\arduinoLCD\test\Pain Drain\libraries\lvgl\src\widgets/lv_roller.c ****             new_opt = id;
 714:..\..\..\arduinoLCD\test\Pain Drain\libraries\lvgl\src\widgets/lv_roller.c ****         }
 715:..\..\..\arduinoLCD\test\Pain Drain\libraries\lvgl\src\widgets/lv_roller.c **** 
ARM GAS  C:\Users\haske\AppData\Local\Temp\ccRPH14P.s 			page 14


 716:..\..\..\arduinoLCD\test\Pain Drain\libraries\lvgl\src\widgets/lv_roller.c ****         if(new_opt >= 0) {
 717:..\..\..\arduinoLCD\test\Pain Drain\libraries\lvgl\src\widgets/lv_roller.c ****             lv_roller_set_selected(obj, new_opt, LV_ANIM_ON);
 718:..\..\..\arduinoLCD\test\Pain Drain\libraries\lvgl\src\widgets/lv_roller.c ****         }
 719:..\..\..\arduinoLCD\test\Pain Drain\libraries\lvgl\src\widgets/lv_roller.c ****     }
 720:..\..\..\arduinoLCD\test\Pain Drain\libraries\lvgl\src\widgets/lv_roller.c **** 
 721:..\..\..\arduinoLCD\test\Pain Drain\libraries\lvgl\src\widgets/lv_roller.c ****     uint32_t id  = roller->sel_opt_id; /*Just to use uint32_t in event data*/
 722:..\..\..\arduinoLCD\test\Pain Drain\libraries\lvgl\src\widgets/lv_roller.c ****     lv_res_t res = lv_event_send(obj, LV_EVENT_VALUE_CHANGED, &id);
 723:..\..\..\arduinoLCD\test\Pain Drain\libraries\lvgl\src\widgets/lv_roller.c ****     return res;
 724:..\..\..\arduinoLCD\test\Pain Drain\libraries\lvgl\src\widgets/lv_roller.c **** }
 725:..\..\..\arduinoLCD\test\Pain Drain\libraries\lvgl\src\widgets/lv_roller.c **** 
 726:..\..\..\arduinoLCD\test\Pain Drain\libraries\lvgl\src\widgets/lv_roller.c **** /**
 727:..\..\..\arduinoLCD\test\Pain Drain\libraries\lvgl\src\widgets/lv_roller.c ****  * Set the middle page for the roller if infinite is enabled
 728:..\..\..\arduinoLCD\test\Pain Drain\libraries\lvgl\src\widgets/lv_roller.c ****  * @param roller pointer to a roller object
 729:..\..\..\arduinoLCD\test\Pain Drain\libraries\lvgl\src\widgets/lv_roller.c ****  */
 730:..\..\..\arduinoLCD\test\Pain Drain\libraries\lvgl\src\widgets/lv_roller.c **** static void inf_normalize(lv_obj_t * obj)
 731:..\..\..\arduinoLCD\test\Pain Drain\libraries\lvgl\src\widgets/lv_roller.c **** {
 732:..\..\..\arduinoLCD\test\Pain Drain\libraries\lvgl\src\widgets/lv_roller.c ****     lv_roller_t * roller = (lv_roller_t *)obj;
 733:..\..\..\arduinoLCD\test\Pain Drain\libraries\lvgl\src\widgets/lv_roller.c **** 
 734:..\..\..\arduinoLCD\test\Pain Drain\libraries\lvgl\src\widgets/lv_roller.c ****     if(roller->mode == LV_ROLLER_MODE_INFINITE) {
 735:..\..\..\arduinoLCD\test\Pain Drain\libraries\lvgl\src\widgets/lv_roller.c ****         uint16_t real_id_cnt = roller->option_cnt / LV_ROLLER_INF_PAGES;
 736:..\..\..\arduinoLCD\test\Pain Drain\libraries\lvgl\src\widgets/lv_roller.c ****         roller->sel_opt_id = roller->sel_opt_id % real_id_cnt;
 737:..\..\..\arduinoLCD\test\Pain Drain\libraries\lvgl\src\widgets/lv_roller.c ****         roller->sel_opt_id += (LV_ROLLER_INF_PAGES / 2) * real_id_cnt; /*Select the middle page*/
 738:..\..\..\arduinoLCD\test\Pain Drain\libraries\lvgl\src\widgets/lv_roller.c **** 
 739:..\..\..\arduinoLCD\test\Pain Drain\libraries\lvgl\src\widgets/lv_roller.c ****         roller->sel_opt_id_ori = roller->sel_opt_id % real_id_cnt;
 740:..\..\..\arduinoLCD\test\Pain Drain\libraries\lvgl\src\widgets/lv_roller.c ****         roller->sel_opt_id_ori += (LV_ROLLER_INF_PAGES / 2) * real_id_cnt; /*Select the middle page
 741:..\..\..\arduinoLCD\test\Pain Drain\libraries\lvgl\src\widgets/lv_roller.c **** 
 742:..\..\..\arduinoLCD\test\Pain Drain\libraries\lvgl\src\widgets/lv_roller.c ****         /*Move to the new id*/
 743:..\..\..\arduinoLCD\test\Pain Drain\libraries\lvgl\src\widgets/lv_roller.c ****         const lv_font_t * font = lv_obj_get_style_text_font(obj, LV_PART_MAIN);
 744:..\..\..\arduinoLCD\test\Pain Drain\libraries\lvgl\src\widgets/lv_roller.c ****         lv_coord_t line_space = lv_obj_get_style_text_line_space(obj, LV_PART_MAIN);
 745:..\..\..\arduinoLCD\test\Pain Drain\libraries\lvgl\src\widgets/lv_roller.c ****         lv_coord_t font_h              = lv_font_get_line_height(font);
 746:..\..\..\arduinoLCD\test\Pain Drain\libraries\lvgl\src\widgets/lv_roller.c ****         lv_coord_t h                   = lv_obj_get_content_height(obj);
 747:..\..\..\arduinoLCD\test\Pain Drain\libraries\lvgl\src\widgets/lv_roller.c **** 
 748:..\..\..\arduinoLCD\test\Pain Drain\libraries\lvgl\src\widgets/lv_roller.c ****         lv_obj_t * label = get_label(obj);
 749:..\..\..\arduinoLCD\test\Pain Drain\libraries\lvgl\src\widgets/lv_roller.c **** 
 750:..\..\..\arduinoLCD\test\Pain Drain\libraries\lvgl\src\widgets/lv_roller.c **** 
 751:..\..\..\arduinoLCD\test\Pain Drain\libraries\lvgl\src\widgets/lv_roller.c ****         lv_coord_t sel_y1 = roller->sel_opt_id * (font_h + line_space);
 752:..\..\..\arduinoLCD\test\Pain Drain\libraries\lvgl\src\widgets/lv_roller.c ****         lv_coord_t mid_y1 = h / 2 - font_h / 2;
 753:..\..\..\arduinoLCD\test\Pain Drain\libraries\lvgl\src\widgets/lv_roller.c ****         lv_coord_t new_y = mid_y1 - sel_y1;
 754:..\..\..\arduinoLCD\test\Pain Drain\libraries\lvgl\src\widgets/lv_roller.c ****         lv_obj_set_y(label, new_y);
 755:..\..\..\arduinoLCD\test\Pain Drain\libraries\lvgl\src\widgets/lv_roller.c ****     }
 756:..\..\..\arduinoLCD\test\Pain Drain\libraries\lvgl\src\widgets/lv_roller.c **** }
 757:..\..\..\arduinoLCD\test\Pain Drain\libraries\lvgl\src\widgets/lv_roller.c **** 
 758:..\..\..\arduinoLCD\test\Pain Drain\libraries\lvgl\src\widgets/lv_roller.c **** static lv_obj_t * get_label(const lv_obj_t * obj)
 759:..\..\..\arduinoLCD\test\Pain Drain\libraries\lvgl\src\widgets/lv_roller.c **** {
 760:..\..\..\arduinoLCD\test\Pain Drain\libraries\lvgl\src\widgets/lv_roller.c ****     return lv_obj_get_child(obj, 0);
 761:..\..\..\arduinoLCD\test\Pain Drain\libraries\lvgl\src\widgets/lv_roller.c **** }
 762:..\..\..\arduinoLCD\test\Pain Drain\libraries\lvgl\src\widgets/lv_roller.c **** 
 763:..\..\..\arduinoLCD\test\Pain Drain\libraries\lvgl\src\widgets/lv_roller.c **** 
 764:..\..\..\arduinoLCD\test\Pain Drain\libraries\lvgl\src\widgets/lv_roller.c **** static lv_coord_t get_selected_label_width(const lv_obj_t * obj)
 765:..\..\..\arduinoLCD\test\Pain Drain\libraries\lvgl\src\widgets/lv_roller.c **** {
 766:..\..\..\arduinoLCD\test\Pain Drain\libraries\lvgl\src\widgets/lv_roller.c ****     lv_obj_t * label = get_label(obj);
 767:..\..\..\arduinoLCD\test\Pain Drain\libraries\lvgl\src\widgets/lv_roller.c ****     if(label == NULL) return 0;
 768:..\..\..\arduinoLCD\test\Pain Drain\libraries\lvgl\src\widgets/lv_roller.c **** 
 769:..\..\..\arduinoLCD\test\Pain Drain\libraries\lvgl\src\widgets/lv_roller.c ****     const lv_font_t * font = lv_obj_get_style_text_font(obj, LV_PART_SELECTED);
 770:..\..\..\arduinoLCD\test\Pain Drain\libraries\lvgl\src\widgets/lv_roller.c ****     lv_coord_t letter_space = lv_obj_get_style_text_letter_space(obj, LV_PART_SELECTED);
 771:..\..\..\arduinoLCD\test\Pain Drain\libraries\lvgl\src\widgets/lv_roller.c ****     const char * txt = lv_label_get_text(label);
 772:..\..\..\arduinoLCD\test\Pain Drain\libraries\lvgl\src\widgets/lv_roller.c ****     lv_point_t size;
ARM GAS  C:\Users\haske\AppData\Local\Temp\ccRPH14P.s 			page 15


 773:..\..\..\arduinoLCD\test\Pain Drain\libraries\lvgl\src\widgets/lv_roller.c ****     lv_txt_get_size(&size, txt, font, letter_space, 0, LV_COORD_MAX,  LV_TEXT_FLAG_NONE);
 774:..\..\..\arduinoLCD\test\Pain Drain\libraries\lvgl\src\widgets/lv_roller.c ****     return size.x;
 775:..\..\..\arduinoLCD\test\Pain Drain\libraries\lvgl\src\widgets/lv_roller.c **** }
 776:..\..\..\arduinoLCD\test\Pain Drain\libraries\lvgl\src\widgets/lv_roller.c **** 
 777:..\..\..\arduinoLCD\test\Pain Drain\libraries\lvgl\src\widgets/lv_roller.c **** static void scroll_anim_ready_cb(lv_anim_t * a)
 778:..\..\..\arduinoLCD\test\Pain Drain\libraries\lvgl\src\widgets/lv_roller.c **** {
 779:..\..\..\arduinoLCD\test\Pain Drain\libraries\lvgl\src\widgets/lv_roller.c ****     lv_obj_t * obj = lv_obj_get_parent(a->var); /*The label is animated*/
 780:..\..\..\arduinoLCD\test\Pain Drain\libraries\lvgl\src\widgets/lv_roller.c ****     inf_normalize(obj);
 781:..\..\..\arduinoLCD\test\Pain Drain\libraries\lvgl\src\widgets/lv_roller.c **** }
 782:..\..\..\arduinoLCD\test\Pain Drain\libraries\lvgl\src\widgets/lv_roller.c **** 
 783:..\..\..\arduinoLCD\test\Pain Drain\libraries\lvgl\src\widgets/lv_roller.c **** 
 784:..\..\..\arduinoLCD\test\Pain Drain\libraries\lvgl\src\widgets/lv_roller.c **** static void set_y_anim(void * obj, int32_t v)
 785:..\..\..\arduinoLCD\test\Pain Drain\libraries\lvgl\src\widgets/lv_roller.c **** {
  27              		.loc 1 785 0
  28              		.cfi_startproc
  29              		@ args = 0, pretend = 0, frame = 0
  30              		@ frame_needed = 0, uses_anonymous_args = 0
  31              	.LVL0:
  32 0000 10B5     		push	{r4, lr}
  33              		.cfi_def_cfa_offset 8
  34              		.cfi_offset 4, -8
  35              		.cfi_offset 14, -4
 786:..\..\..\arduinoLCD\test\Pain Drain\libraries\lvgl\src\widgets/lv_roller.c ****     lv_obj_set_y(obj, v);
  36              		.loc 1 786 0
  37 0002 09B2     		sxth	r1, r1
  38              	.LVL1:
  39 0004 FFF7FEFF 		bl	lv_obj_set_y
  40              	.LVL2:
 787:..\..\..\arduinoLCD\test\Pain Drain\libraries\lvgl\src\widgets/lv_roller.c **** }
  41              		.loc 1 787 0
  42              		@ sp needed
  43 0008 10BD     		pop	{r4, pc}
  44              		.cfi_endproc
  45              	.LFE179:
  46              		.size	set_y_anim, .-set_y_anim
  47 000a C046     		.section	.text.get_label,"ax",%progbits
  48              		.align	2
  49              		.code	16
  50              		.thumb_func
  51              		.type	get_label, %function
  52              	get_label:
  53              	.LFB176:
 759:..\..\..\arduinoLCD\test\Pain Drain\libraries\lvgl\src\widgets/lv_roller.c ****     return lv_obj_get_child(obj, 0);
  54              		.loc 1 759 0
  55              		.cfi_startproc
  56              		@ args = 0, pretend = 0, frame = 0
  57              		@ frame_needed = 0, uses_anonymous_args = 0
  58              	.LVL3:
  59 0000 10B5     		push	{r4, lr}
  60              		.cfi_def_cfa_offset 8
  61              		.cfi_offset 4, -8
  62              		.cfi_offset 14, -4
 760:..\..\..\arduinoLCD\test\Pain Drain\libraries\lvgl\src\widgets/lv_roller.c **** }
  63              		.loc 1 760 0
  64 0002 0021     		movs	r1, #0
  65 0004 FFF7FEFF 		bl	lv_obj_get_child
  66              	.LVL4:
ARM GAS  C:\Users\haske\AppData\Local\Temp\ccRPH14P.s 			page 16


 761:..\..\..\arduinoLCD\test\Pain Drain\libraries\lvgl\src\widgets/lv_roller.c **** 
  67              		.loc 1 761 0
  68              		@ sp needed
  69 0008 10BD     		pop	{r4, pc}
  70              		.cfi_endproc
  71              	.LFE176:
  72              		.size	get_label, .-get_label
  73 000a C046     		.section	.text.get_selected_label_width,"ax",%progbits
  74              		.align	2
  75              		.code	16
  76              		.thumb_func
  77              		.type	get_selected_label_width, %function
  78              	get_selected_label_width:
  79              	.LFB177:
 765:..\..\..\arduinoLCD\test\Pain Drain\libraries\lvgl\src\widgets/lv_roller.c ****     lv_obj_t * label = get_label(obj);
  80              		.loc 1 765 0
  81              		.cfi_startproc
  82              		@ args = 0, pretend = 0, frame = 8
  83              		@ frame_needed = 0, uses_anonymous_args = 0
  84              	.LVL5:
  85 0000 F0B5     		push	{r4, r5, r6, r7, lr}
  86              		.cfi_def_cfa_offset 20
  87              		.cfi_offset 4, -20
  88              		.cfi_offset 5, -16
  89              		.cfi_offset 6, -12
  90              		.cfi_offset 7, -8
  91              		.cfi_offset 14, -4
  92 0002 87B0     		sub	sp, sp, #28
  93              		.cfi_def_cfa_offset 48
  94 0004 0400     		movs	r4, r0
 766:..\..\..\arduinoLCD\test\Pain Drain\libraries\lvgl\src\widgets/lv_roller.c ****     if(label == NULL) return 0;
  95              		.loc 1 766 0
  96 0006 FFF7FEFF 		bl	get_label
  97              	.LVL6:
  98 000a 051E     		subs	r5, r0, #0
  99              	.LVL7:
 767:..\..\..\arduinoLCD\test\Pain Drain\libraries\lvgl\src\widgets/lv_roller.c **** 
 100              		.loc 1 767 0
 101 000c 1FD0     		beq	.L5
 102              	.LVL8:
 103              	.LBB74:
 104              	.LBB75:
 105              		.file 2 "..\\..\\..\\arduinoLCD\\test\\Pain Drain\\libraries\\lvgl\\src\\widgets\\../core/lv_obj_s
   1:..\..\..\arduinoLCD\test\Pain Drain\libraries\lvgl\src\widgets\../core/lv_obj_style_gen.h **** static inline lv_coord_t lv_obj_get_style_width(const struct _lv_obj_t * obj, uint32_t part)
   2:..\..\..\arduinoLCD\test\Pain Drain\libraries\lvgl\src\widgets\../core/lv_obj_style_gen.h **** {
   3:..\..\..\arduinoLCD\test\Pain Drain\libraries\lvgl\src\widgets\../core/lv_obj_style_gen.h ****     lv_style_value_t v = lv_obj_get_style_prop(obj, part, LV_STYLE_WIDTH);
   4:..\..\..\arduinoLCD\test\Pain Drain\libraries\lvgl\src\widgets\../core/lv_obj_style_gen.h ****     return (lv_coord_t)v.num;
   5:..\..\..\arduinoLCD\test\Pain Drain\libraries\lvgl\src\widgets\../core/lv_obj_style_gen.h **** }
   6:..\..\..\arduinoLCD\test\Pain Drain\libraries\lvgl\src\widgets\../core/lv_obj_style_gen.h **** 
   7:..\..\..\arduinoLCD\test\Pain Drain\libraries\lvgl\src\widgets\../core/lv_obj_style_gen.h **** static inline lv_coord_t lv_obj_get_style_min_width(const struct _lv_obj_t * obj, uint32_t part)
   8:..\..\..\arduinoLCD\test\Pain Drain\libraries\lvgl\src\widgets\../core/lv_obj_style_gen.h **** {
   9:..\..\..\arduinoLCD\test\Pain Drain\libraries\lvgl\src\widgets\../core/lv_obj_style_gen.h ****     lv_style_value_t v = lv_obj_get_style_prop(obj, part, LV_STYLE_MIN_WIDTH);
  10:..\..\..\arduinoLCD\test\Pain Drain\libraries\lvgl\src\widgets\../core/lv_obj_style_gen.h ****     return (lv_coord_t)v.num;
  11:..\..\..\arduinoLCD\test\Pain Drain\libraries\lvgl\src\widgets\../core/lv_obj_style_gen.h **** }
  12:..\..\..\arduinoLCD\test\Pain Drain\libraries\lvgl\src\widgets\../core/lv_obj_style_gen.h **** 
  13:..\..\..\arduinoLCD\test\Pain Drain\libraries\lvgl\src\widgets\../core/lv_obj_style_gen.h **** static inline lv_coord_t lv_obj_get_style_max_width(const struct _lv_obj_t * obj, uint32_t part)
  14:..\..\..\arduinoLCD\test\Pain Drain\libraries\lvgl\src\widgets\../core/lv_obj_style_gen.h **** {
ARM GAS  C:\Users\haske\AppData\Local\Temp\ccRPH14P.s 			page 17


  15:..\..\..\arduinoLCD\test\Pain Drain\libraries\lvgl\src\widgets\../core/lv_obj_style_gen.h ****     lv_style_value_t v = lv_obj_get_style_prop(obj, part, LV_STYLE_MAX_WIDTH);
  16:..\..\..\arduinoLCD\test\Pain Drain\libraries\lvgl\src\widgets\../core/lv_obj_style_gen.h ****     return (lv_coord_t)v.num;
  17:..\..\..\arduinoLCD\test\Pain Drain\libraries\lvgl\src\widgets\../core/lv_obj_style_gen.h **** }
  18:..\..\..\arduinoLCD\test\Pain Drain\libraries\lvgl\src\widgets\../core/lv_obj_style_gen.h **** 
  19:..\..\..\arduinoLCD\test\Pain Drain\libraries\lvgl\src\widgets\../core/lv_obj_style_gen.h **** static inline lv_coord_t lv_obj_get_style_height(const struct _lv_obj_t * obj, uint32_t part)
  20:..\..\..\arduinoLCD\test\Pain Drain\libraries\lvgl\src\widgets\../core/lv_obj_style_gen.h **** {
  21:..\..\..\arduinoLCD\test\Pain Drain\libraries\lvgl\src\widgets\../core/lv_obj_style_gen.h ****     lv_style_value_t v = lv_obj_get_style_prop(obj, part, LV_STYLE_HEIGHT);
  22:..\..\..\arduinoLCD\test\Pain Drain\libraries\lvgl\src\widgets\../core/lv_obj_style_gen.h ****     return (lv_coord_t)v.num;
  23:..\..\..\arduinoLCD\test\Pain Drain\libraries\lvgl\src\widgets\../core/lv_obj_style_gen.h **** }
  24:..\..\..\arduinoLCD\test\Pain Drain\libraries\lvgl\src\widgets\../core/lv_obj_style_gen.h **** 
  25:..\..\..\arduinoLCD\test\Pain Drain\libraries\lvgl\src\widgets\../core/lv_obj_style_gen.h **** static inline lv_coord_t lv_obj_get_style_min_height(const struct _lv_obj_t * obj, uint32_t part)
  26:..\..\..\arduinoLCD\test\Pain Drain\libraries\lvgl\src\widgets\../core/lv_obj_style_gen.h **** {
  27:..\..\..\arduinoLCD\test\Pain Drain\libraries\lvgl\src\widgets\../core/lv_obj_style_gen.h ****     lv_style_value_t v = lv_obj_get_style_prop(obj, part, LV_STYLE_MIN_HEIGHT);
  28:..\..\..\arduinoLCD\test\Pain Drain\libraries\lvgl\src\widgets\../core/lv_obj_style_gen.h ****     return (lv_coord_t)v.num;
  29:..\..\..\arduinoLCD\test\Pain Drain\libraries\lvgl\src\widgets\../core/lv_obj_style_gen.h **** }
  30:..\..\..\arduinoLCD\test\Pain Drain\libraries\lvgl\src\widgets\../core/lv_obj_style_gen.h **** 
  31:..\..\..\arduinoLCD\test\Pain Drain\libraries\lvgl\src\widgets\../core/lv_obj_style_gen.h **** static inline lv_coord_t lv_obj_get_style_max_height(const struct _lv_obj_t * obj, uint32_t part)
  32:..\..\..\arduinoLCD\test\Pain Drain\libraries\lvgl\src\widgets\../core/lv_obj_style_gen.h **** {
  33:..\..\..\arduinoLCD\test\Pain Drain\libraries\lvgl\src\widgets\../core/lv_obj_style_gen.h ****     lv_style_value_t v = lv_obj_get_style_prop(obj, part, LV_STYLE_MAX_HEIGHT);
  34:..\..\..\arduinoLCD\test\Pain Drain\libraries\lvgl\src\widgets\../core/lv_obj_style_gen.h ****     return (lv_coord_t)v.num;
  35:..\..\..\arduinoLCD\test\Pain Drain\libraries\lvgl\src\widgets\../core/lv_obj_style_gen.h **** }
  36:..\..\..\arduinoLCD\test\Pain Drain\libraries\lvgl\src\widgets\../core/lv_obj_style_gen.h **** 
  37:..\..\..\arduinoLCD\test\Pain Drain\libraries\lvgl\src\widgets\../core/lv_obj_style_gen.h **** static inline lv_coord_t lv_obj_get_style_x(const struct _lv_obj_t * obj, uint32_t part)
  38:..\..\..\arduinoLCD\test\Pain Drain\libraries\lvgl\src\widgets\../core/lv_obj_style_gen.h **** {
  39:..\..\..\arduinoLCD\test\Pain Drain\libraries\lvgl\src\widgets\../core/lv_obj_style_gen.h ****     lv_style_value_t v = lv_obj_get_style_prop(obj, part, LV_STYLE_X);
  40:..\..\..\arduinoLCD\test\Pain Drain\libraries\lvgl\src\widgets\../core/lv_obj_style_gen.h ****     return (lv_coord_t)v.num;
  41:..\..\..\arduinoLCD\test\Pain Drain\libraries\lvgl\src\widgets\../core/lv_obj_style_gen.h **** }
  42:..\..\..\arduinoLCD\test\Pain Drain\libraries\lvgl\src\widgets\../core/lv_obj_style_gen.h **** 
  43:..\..\..\arduinoLCD\test\Pain Drain\libraries\lvgl\src\widgets\../core/lv_obj_style_gen.h **** static inline lv_coord_t lv_obj_get_style_y(const struct _lv_obj_t * obj, uint32_t part)
  44:..\..\..\arduinoLCD\test\Pain Drain\libraries\lvgl\src\widgets\../core/lv_obj_style_gen.h **** {
  45:..\..\..\arduinoLCD\test\Pain Drain\libraries\lvgl\src\widgets\../core/lv_obj_style_gen.h ****     lv_style_value_t v = lv_obj_get_style_prop(obj, part, LV_STYLE_Y);
  46:..\..\..\arduinoLCD\test\Pain Drain\libraries\lvgl\src\widgets\../core/lv_obj_style_gen.h ****     return (lv_coord_t)v.num;
  47:..\..\..\arduinoLCD\test\Pain Drain\libraries\lvgl\src\widgets\../core/lv_obj_style_gen.h **** }
  48:..\..\..\arduinoLCD\test\Pain Drain\libraries\lvgl\src\widgets\../core/lv_obj_style_gen.h **** 
  49:..\..\..\arduinoLCD\test\Pain Drain\libraries\lvgl\src\widgets\../core/lv_obj_style_gen.h **** static inline lv_align_t lv_obj_get_style_align(const struct _lv_obj_t * obj, uint32_t part)
  50:..\..\..\arduinoLCD\test\Pain Drain\libraries\lvgl\src\widgets\../core/lv_obj_style_gen.h **** {
  51:..\..\..\arduinoLCD\test\Pain Drain\libraries\lvgl\src\widgets\../core/lv_obj_style_gen.h ****     lv_style_value_t v = lv_obj_get_style_prop(obj, part, LV_STYLE_ALIGN);
  52:..\..\..\arduinoLCD\test\Pain Drain\libraries\lvgl\src\widgets\../core/lv_obj_style_gen.h ****     return (lv_align_t)v.num;
  53:..\..\..\arduinoLCD\test\Pain Drain\libraries\lvgl\src\widgets\../core/lv_obj_style_gen.h **** }
  54:..\..\..\arduinoLCD\test\Pain Drain\libraries\lvgl\src\widgets\../core/lv_obj_style_gen.h **** 
  55:..\..\..\arduinoLCD\test\Pain Drain\libraries\lvgl\src\widgets\../core/lv_obj_style_gen.h **** static inline lv_coord_t lv_obj_get_style_transform_width(const struct _lv_obj_t * obj, uint32_t pa
  56:..\..\..\arduinoLCD\test\Pain Drain\libraries\lvgl\src\widgets\../core/lv_obj_style_gen.h **** {
  57:..\..\..\arduinoLCD\test\Pain Drain\libraries\lvgl\src\widgets\../core/lv_obj_style_gen.h ****     lv_style_value_t v = lv_obj_get_style_prop(obj, part, LV_STYLE_TRANSFORM_WIDTH);
  58:..\..\..\arduinoLCD\test\Pain Drain\libraries\lvgl\src\widgets\../core/lv_obj_style_gen.h ****     return (lv_coord_t)v.num;
  59:..\..\..\arduinoLCD\test\Pain Drain\libraries\lvgl\src\widgets\../core/lv_obj_style_gen.h **** }
  60:..\..\..\arduinoLCD\test\Pain Drain\libraries\lvgl\src\widgets\../core/lv_obj_style_gen.h **** 
  61:..\..\..\arduinoLCD\test\Pain Drain\libraries\lvgl\src\widgets\../core/lv_obj_style_gen.h **** static inline lv_coord_t lv_obj_get_style_transform_height(const struct _lv_obj_t * obj, uint32_t p
  62:..\..\..\arduinoLCD\test\Pain Drain\libraries\lvgl\src\widgets\../core/lv_obj_style_gen.h **** {
  63:..\..\..\arduinoLCD\test\Pain Drain\libraries\lvgl\src\widgets\../core/lv_obj_style_gen.h ****     lv_style_value_t v = lv_obj_get_style_prop(obj, part, LV_STYLE_TRANSFORM_HEIGHT);
  64:..\..\..\arduinoLCD\test\Pain Drain\libraries\lvgl\src\widgets\../core/lv_obj_style_gen.h ****     return (lv_coord_t)v.num;
  65:..\..\..\arduinoLCD\test\Pain Drain\libraries\lvgl\src\widgets\../core/lv_obj_style_gen.h **** }
  66:..\..\..\arduinoLCD\test\Pain Drain\libraries\lvgl\src\widgets\../core/lv_obj_style_gen.h **** 
  67:..\..\..\arduinoLCD\test\Pain Drain\libraries\lvgl\src\widgets\../core/lv_obj_style_gen.h **** static inline lv_coord_t lv_obj_get_style_translate_x(const struct _lv_obj_t * obj, uint32_t part)
  68:..\..\..\arduinoLCD\test\Pain Drain\libraries\lvgl\src\widgets\../core/lv_obj_style_gen.h **** {
  69:..\..\..\arduinoLCD\test\Pain Drain\libraries\lvgl\src\widgets\../core/lv_obj_style_gen.h ****     lv_style_value_t v = lv_obj_get_style_prop(obj, part, LV_STYLE_TRANSLATE_X);
  70:..\..\..\arduinoLCD\test\Pain Drain\libraries\lvgl\src\widgets\../core/lv_obj_style_gen.h ****     return (lv_coord_t)v.num;
  71:..\..\..\arduinoLCD\test\Pain Drain\libraries\lvgl\src\widgets\../core/lv_obj_style_gen.h **** }
ARM GAS  C:\Users\haske\AppData\Local\Temp\ccRPH14P.s 			page 18


  72:..\..\..\arduinoLCD\test\Pain Drain\libraries\lvgl\src\widgets\../core/lv_obj_style_gen.h **** 
  73:..\..\..\arduinoLCD\test\Pain Drain\libraries\lvgl\src\widgets\../core/lv_obj_style_gen.h **** static inline lv_coord_t lv_obj_get_style_translate_y(const struct _lv_obj_t * obj, uint32_t part)
  74:..\..\..\arduinoLCD\test\Pain Drain\libraries\lvgl\src\widgets\../core/lv_obj_style_gen.h **** {
  75:..\..\..\arduinoLCD\test\Pain Drain\libraries\lvgl\src\widgets\../core/lv_obj_style_gen.h ****     lv_style_value_t v = lv_obj_get_style_prop(obj, part, LV_STYLE_TRANSLATE_Y);
  76:..\..\..\arduinoLCD\test\Pain Drain\libraries\lvgl\src\widgets\../core/lv_obj_style_gen.h ****     return (lv_coord_t)v.num;
  77:..\..\..\arduinoLCD\test\Pain Drain\libraries\lvgl\src\widgets\../core/lv_obj_style_gen.h **** }
  78:..\..\..\arduinoLCD\test\Pain Drain\libraries\lvgl\src\widgets\../core/lv_obj_style_gen.h **** 
  79:..\..\..\arduinoLCD\test\Pain Drain\libraries\lvgl\src\widgets\../core/lv_obj_style_gen.h **** static inline lv_coord_t lv_obj_get_style_transform_zoom(const struct _lv_obj_t * obj, uint32_t par
  80:..\..\..\arduinoLCD\test\Pain Drain\libraries\lvgl\src\widgets\../core/lv_obj_style_gen.h **** {
  81:..\..\..\arduinoLCD\test\Pain Drain\libraries\lvgl\src\widgets\../core/lv_obj_style_gen.h ****     lv_style_value_t v = lv_obj_get_style_prop(obj, part, LV_STYLE_TRANSFORM_ZOOM);
  82:..\..\..\arduinoLCD\test\Pain Drain\libraries\lvgl\src\widgets\../core/lv_obj_style_gen.h ****     return (lv_coord_t)v.num;
  83:..\..\..\arduinoLCD\test\Pain Drain\libraries\lvgl\src\widgets\../core/lv_obj_style_gen.h **** }
  84:..\..\..\arduinoLCD\test\Pain Drain\libraries\lvgl\src\widgets\../core/lv_obj_style_gen.h **** 
  85:..\..\..\arduinoLCD\test\Pain Drain\libraries\lvgl\src\widgets\../core/lv_obj_style_gen.h **** static inline lv_coord_t lv_obj_get_style_transform_angle(const struct _lv_obj_t * obj, uint32_t pa
  86:..\..\..\arduinoLCD\test\Pain Drain\libraries\lvgl\src\widgets\../core/lv_obj_style_gen.h **** {
  87:..\..\..\arduinoLCD\test\Pain Drain\libraries\lvgl\src\widgets\../core/lv_obj_style_gen.h ****     lv_style_value_t v = lv_obj_get_style_prop(obj, part, LV_STYLE_TRANSFORM_ANGLE);
  88:..\..\..\arduinoLCD\test\Pain Drain\libraries\lvgl\src\widgets\../core/lv_obj_style_gen.h ****     return (lv_coord_t)v.num;
  89:..\..\..\arduinoLCD\test\Pain Drain\libraries\lvgl\src\widgets\../core/lv_obj_style_gen.h **** }
  90:..\..\..\arduinoLCD\test\Pain Drain\libraries\lvgl\src\widgets\../core/lv_obj_style_gen.h **** 
  91:..\..\..\arduinoLCD\test\Pain Drain\libraries\lvgl\src\widgets\../core/lv_obj_style_gen.h **** static inline lv_coord_t lv_obj_get_style_transform_pivot_x(const struct _lv_obj_t * obj, uint32_t 
  92:..\..\..\arduinoLCD\test\Pain Drain\libraries\lvgl\src\widgets\../core/lv_obj_style_gen.h **** {
  93:..\..\..\arduinoLCD\test\Pain Drain\libraries\lvgl\src\widgets\../core/lv_obj_style_gen.h ****     lv_style_value_t v = lv_obj_get_style_prop(obj, part, LV_STYLE_TRANSFORM_PIVOT_X);
  94:..\..\..\arduinoLCD\test\Pain Drain\libraries\lvgl\src\widgets\../core/lv_obj_style_gen.h ****     return (lv_coord_t)v.num;
  95:..\..\..\arduinoLCD\test\Pain Drain\libraries\lvgl\src\widgets\../core/lv_obj_style_gen.h **** }
  96:..\..\..\arduinoLCD\test\Pain Drain\libraries\lvgl\src\widgets\../core/lv_obj_style_gen.h **** 
  97:..\..\..\arduinoLCD\test\Pain Drain\libraries\lvgl\src\widgets\../core/lv_obj_style_gen.h **** static inline lv_coord_t lv_obj_get_style_transform_pivot_y(const struct _lv_obj_t * obj, uint32_t 
  98:..\..\..\arduinoLCD\test\Pain Drain\libraries\lvgl\src\widgets\../core/lv_obj_style_gen.h **** {
  99:..\..\..\arduinoLCD\test\Pain Drain\libraries\lvgl\src\widgets\../core/lv_obj_style_gen.h ****     lv_style_value_t v = lv_obj_get_style_prop(obj, part, LV_STYLE_TRANSFORM_PIVOT_Y);
 100:..\..\..\arduinoLCD\test\Pain Drain\libraries\lvgl\src\widgets\../core/lv_obj_style_gen.h ****     return (lv_coord_t)v.num;
 101:..\..\..\arduinoLCD\test\Pain Drain\libraries\lvgl\src\widgets\../core/lv_obj_style_gen.h **** }
 102:..\..\..\arduinoLCD\test\Pain Drain\libraries\lvgl\src\widgets\../core/lv_obj_style_gen.h **** 
 103:..\..\..\arduinoLCD\test\Pain Drain\libraries\lvgl\src\widgets\../core/lv_obj_style_gen.h **** static inline lv_coord_t lv_obj_get_style_pad_top(const struct _lv_obj_t * obj, uint32_t part)
 104:..\..\..\arduinoLCD\test\Pain Drain\libraries\lvgl\src\widgets\../core/lv_obj_style_gen.h **** {
 105:..\..\..\arduinoLCD\test\Pain Drain\libraries\lvgl\src\widgets\../core/lv_obj_style_gen.h ****     lv_style_value_t v = lv_obj_get_style_prop(obj, part, LV_STYLE_PAD_TOP);
 106:..\..\..\arduinoLCD\test\Pain Drain\libraries\lvgl\src\widgets\../core/lv_obj_style_gen.h ****     return (lv_coord_t)v.num;
 107:..\..\..\arduinoLCD\test\Pain Drain\libraries\lvgl\src\widgets\../core/lv_obj_style_gen.h **** }
 108:..\..\..\arduinoLCD\test\Pain Drain\libraries\lvgl\src\widgets\../core/lv_obj_style_gen.h **** 
 109:..\..\..\arduinoLCD\test\Pain Drain\libraries\lvgl\src\widgets\../core/lv_obj_style_gen.h **** static inline lv_coord_t lv_obj_get_style_pad_bottom(const struct _lv_obj_t * obj, uint32_t part)
 110:..\..\..\arduinoLCD\test\Pain Drain\libraries\lvgl\src\widgets\../core/lv_obj_style_gen.h **** {
 111:..\..\..\arduinoLCD\test\Pain Drain\libraries\lvgl\src\widgets\../core/lv_obj_style_gen.h ****     lv_style_value_t v = lv_obj_get_style_prop(obj, part, LV_STYLE_PAD_BOTTOM);
 112:..\..\..\arduinoLCD\test\Pain Drain\libraries\lvgl\src\widgets\../core/lv_obj_style_gen.h ****     return (lv_coord_t)v.num;
 113:..\..\..\arduinoLCD\test\Pain Drain\libraries\lvgl\src\widgets\../core/lv_obj_style_gen.h **** }
 114:..\..\..\arduinoLCD\test\Pain Drain\libraries\lvgl\src\widgets\../core/lv_obj_style_gen.h **** 
 115:..\..\..\arduinoLCD\test\Pain Drain\libraries\lvgl\src\widgets\../core/lv_obj_style_gen.h **** static inline lv_coord_t lv_obj_get_style_pad_left(const struct _lv_obj_t * obj, uint32_t part)
 116:..\..\..\arduinoLCD\test\Pain Drain\libraries\lvgl\src\widgets\../core/lv_obj_style_gen.h **** {
 117:..\..\..\arduinoLCD\test\Pain Drain\libraries\lvgl\src\widgets\../core/lv_obj_style_gen.h ****     lv_style_value_t v = lv_obj_get_style_prop(obj, part, LV_STYLE_PAD_LEFT);
 118:..\..\..\arduinoLCD\test\Pain Drain\libraries\lvgl\src\widgets\../core/lv_obj_style_gen.h ****     return (lv_coord_t)v.num;
 119:..\..\..\arduinoLCD\test\Pain Drain\libraries\lvgl\src\widgets\../core/lv_obj_style_gen.h **** }
 120:..\..\..\arduinoLCD\test\Pain Drain\libraries\lvgl\src\widgets\../core/lv_obj_style_gen.h **** 
 121:..\..\..\arduinoLCD\test\Pain Drain\libraries\lvgl\src\widgets\../core/lv_obj_style_gen.h **** static inline lv_coord_t lv_obj_get_style_pad_right(const struct _lv_obj_t * obj, uint32_t part)
 122:..\..\..\arduinoLCD\test\Pain Drain\libraries\lvgl\src\widgets\../core/lv_obj_style_gen.h **** {
 123:..\..\..\arduinoLCD\test\Pain Drain\libraries\lvgl\src\widgets\../core/lv_obj_style_gen.h ****     lv_style_value_t v = lv_obj_get_style_prop(obj, part, LV_STYLE_PAD_RIGHT);
 124:..\..\..\arduinoLCD\test\Pain Drain\libraries\lvgl\src\widgets\../core/lv_obj_style_gen.h ****     return (lv_coord_t)v.num;
 125:..\..\..\arduinoLCD\test\Pain Drain\libraries\lvgl\src\widgets\../core/lv_obj_style_gen.h **** }
 126:..\..\..\arduinoLCD\test\Pain Drain\libraries\lvgl\src\widgets\../core/lv_obj_style_gen.h **** 
 127:..\..\..\arduinoLCD\test\Pain Drain\libraries\lvgl\src\widgets\../core/lv_obj_style_gen.h **** static inline lv_coord_t lv_obj_get_style_pad_row(const struct _lv_obj_t * obj, uint32_t part)
 128:..\..\..\arduinoLCD\test\Pain Drain\libraries\lvgl\src\widgets\../core/lv_obj_style_gen.h **** {
ARM GAS  C:\Users\haske\AppData\Local\Temp\ccRPH14P.s 			page 19


 129:..\..\..\arduinoLCD\test\Pain Drain\libraries\lvgl\src\widgets\../core/lv_obj_style_gen.h ****     lv_style_value_t v = lv_obj_get_style_prop(obj, part, LV_STYLE_PAD_ROW);
 130:..\..\..\arduinoLCD\test\Pain Drain\libraries\lvgl\src\widgets\../core/lv_obj_style_gen.h ****     return (lv_coord_t)v.num;
 131:..\..\..\arduinoLCD\test\Pain Drain\libraries\lvgl\src\widgets\../core/lv_obj_style_gen.h **** }
 132:..\..\..\arduinoLCD\test\Pain Drain\libraries\lvgl\src\widgets\../core/lv_obj_style_gen.h **** 
 133:..\..\..\arduinoLCD\test\Pain Drain\libraries\lvgl\src\widgets\../core/lv_obj_style_gen.h **** static inline lv_coord_t lv_obj_get_style_pad_column(const struct _lv_obj_t * obj, uint32_t part)
 134:..\..\..\arduinoLCD\test\Pain Drain\libraries\lvgl\src\widgets\../core/lv_obj_style_gen.h **** {
 135:..\..\..\arduinoLCD\test\Pain Drain\libraries\lvgl\src\widgets\../core/lv_obj_style_gen.h ****     lv_style_value_t v = lv_obj_get_style_prop(obj, part, LV_STYLE_PAD_COLUMN);
 136:..\..\..\arduinoLCD\test\Pain Drain\libraries\lvgl\src\widgets\../core/lv_obj_style_gen.h ****     return (lv_coord_t)v.num;
 137:..\..\..\arduinoLCD\test\Pain Drain\libraries\lvgl\src\widgets\../core/lv_obj_style_gen.h **** }
 138:..\..\..\arduinoLCD\test\Pain Drain\libraries\lvgl\src\widgets\../core/lv_obj_style_gen.h **** 
 139:..\..\..\arduinoLCD\test\Pain Drain\libraries\lvgl\src\widgets\../core/lv_obj_style_gen.h **** static inline lv_color_t lv_obj_get_style_bg_color(const struct _lv_obj_t * obj, uint32_t part)
 140:..\..\..\arduinoLCD\test\Pain Drain\libraries\lvgl\src\widgets\../core/lv_obj_style_gen.h **** {
 141:..\..\..\arduinoLCD\test\Pain Drain\libraries\lvgl\src\widgets\../core/lv_obj_style_gen.h ****     lv_style_value_t v = lv_obj_get_style_prop(obj, part, LV_STYLE_BG_COLOR);
 142:..\..\..\arduinoLCD\test\Pain Drain\libraries\lvgl\src\widgets\../core/lv_obj_style_gen.h ****     return v.color;
 143:..\..\..\arduinoLCD\test\Pain Drain\libraries\lvgl\src\widgets\../core/lv_obj_style_gen.h **** }
 144:..\..\..\arduinoLCD\test\Pain Drain\libraries\lvgl\src\widgets\../core/lv_obj_style_gen.h **** 
 145:..\..\..\arduinoLCD\test\Pain Drain\libraries\lvgl\src\widgets\../core/lv_obj_style_gen.h **** static inline lv_color_t lv_obj_get_style_bg_color_filtered(const struct _lv_obj_t * obj, uint32_t 
 146:..\..\..\arduinoLCD\test\Pain Drain\libraries\lvgl\src\widgets\../core/lv_obj_style_gen.h **** {
 147:..\..\..\arduinoLCD\test\Pain Drain\libraries\lvgl\src\widgets\../core/lv_obj_style_gen.h ****     lv_style_value_t v = _lv_obj_style_apply_color_filter(obj, part, lv_obj_get_style_prop(obj, par
 148:..\..\..\arduinoLCD\test\Pain Drain\libraries\lvgl\src\widgets\../core/lv_obj_style_gen.h ****     return v.color;
 149:..\..\..\arduinoLCD\test\Pain Drain\libraries\lvgl\src\widgets\../core/lv_obj_style_gen.h **** }
 150:..\..\..\arduinoLCD\test\Pain Drain\libraries\lvgl\src\widgets\../core/lv_obj_style_gen.h **** 
 151:..\..\..\arduinoLCD\test\Pain Drain\libraries\lvgl\src\widgets\../core/lv_obj_style_gen.h **** static inline lv_opa_t lv_obj_get_style_bg_opa(const struct _lv_obj_t * obj, uint32_t part)
 152:..\..\..\arduinoLCD\test\Pain Drain\libraries\lvgl\src\widgets\../core/lv_obj_style_gen.h **** {
 153:..\..\..\arduinoLCD\test\Pain Drain\libraries\lvgl\src\widgets\../core/lv_obj_style_gen.h ****     lv_style_value_t v = lv_obj_get_style_prop(obj, part, LV_STYLE_BG_OPA);
 154:..\..\..\arduinoLCD\test\Pain Drain\libraries\lvgl\src\widgets\../core/lv_obj_style_gen.h ****     return (lv_opa_t)v.num;
 155:..\..\..\arduinoLCD\test\Pain Drain\libraries\lvgl\src\widgets\../core/lv_obj_style_gen.h **** }
 156:..\..\..\arduinoLCD\test\Pain Drain\libraries\lvgl\src\widgets\../core/lv_obj_style_gen.h **** 
 157:..\..\..\arduinoLCD\test\Pain Drain\libraries\lvgl\src\widgets\../core/lv_obj_style_gen.h **** static inline lv_color_t lv_obj_get_style_bg_grad_color(const struct _lv_obj_t * obj, uint32_t part
 158:..\..\..\arduinoLCD\test\Pain Drain\libraries\lvgl\src\widgets\../core/lv_obj_style_gen.h **** {
 159:..\..\..\arduinoLCD\test\Pain Drain\libraries\lvgl\src\widgets\../core/lv_obj_style_gen.h ****     lv_style_value_t v = lv_obj_get_style_prop(obj, part, LV_STYLE_BG_GRAD_COLOR);
 160:..\..\..\arduinoLCD\test\Pain Drain\libraries\lvgl\src\widgets\../core/lv_obj_style_gen.h ****     return v.color;
 161:..\..\..\arduinoLCD\test\Pain Drain\libraries\lvgl\src\widgets\../core/lv_obj_style_gen.h **** }
 162:..\..\..\arduinoLCD\test\Pain Drain\libraries\lvgl\src\widgets\../core/lv_obj_style_gen.h **** 
 163:..\..\..\arduinoLCD\test\Pain Drain\libraries\lvgl\src\widgets\../core/lv_obj_style_gen.h **** static inline lv_color_t lv_obj_get_style_bg_grad_color_filtered(const struct _lv_obj_t * obj, uint
 164:..\..\..\arduinoLCD\test\Pain Drain\libraries\lvgl\src\widgets\../core/lv_obj_style_gen.h **** {
 165:..\..\..\arduinoLCD\test\Pain Drain\libraries\lvgl\src\widgets\../core/lv_obj_style_gen.h ****     lv_style_value_t v = _lv_obj_style_apply_color_filter(obj, part, lv_obj_get_style_prop(obj, par
 166:..\..\..\arduinoLCD\test\Pain Drain\libraries\lvgl\src\widgets\../core/lv_obj_style_gen.h ****     return v.color;
 167:..\..\..\arduinoLCD\test\Pain Drain\libraries\lvgl\src\widgets\../core/lv_obj_style_gen.h **** }
 168:..\..\..\arduinoLCD\test\Pain Drain\libraries\lvgl\src\widgets\../core/lv_obj_style_gen.h **** 
 169:..\..\..\arduinoLCD\test\Pain Drain\libraries\lvgl\src\widgets\../core/lv_obj_style_gen.h **** static inline lv_grad_dir_t lv_obj_get_style_bg_grad_dir(const struct _lv_obj_t * obj, uint32_t par
 170:..\..\..\arduinoLCD\test\Pain Drain\libraries\lvgl\src\widgets\../core/lv_obj_style_gen.h **** {
 171:..\..\..\arduinoLCD\test\Pain Drain\libraries\lvgl\src\widgets\../core/lv_obj_style_gen.h ****     lv_style_value_t v = lv_obj_get_style_prop(obj, part, LV_STYLE_BG_GRAD_DIR);
 172:..\..\..\arduinoLCD\test\Pain Drain\libraries\lvgl\src\widgets\../core/lv_obj_style_gen.h ****     return (lv_grad_dir_t)v.num;
 173:..\..\..\arduinoLCD\test\Pain Drain\libraries\lvgl\src\widgets\../core/lv_obj_style_gen.h **** }
 174:..\..\..\arduinoLCD\test\Pain Drain\libraries\lvgl\src\widgets\../core/lv_obj_style_gen.h **** 
 175:..\..\..\arduinoLCD\test\Pain Drain\libraries\lvgl\src\widgets\../core/lv_obj_style_gen.h **** static inline lv_coord_t lv_obj_get_style_bg_main_stop(const struct _lv_obj_t * obj, uint32_t part)
 176:..\..\..\arduinoLCD\test\Pain Drain\libraries\lvgl\src\widgets\../core/lv_obj_style_gen.h **** {
 177:..\..\..\arduinoLCD\test\Pain Drain\libraries\lvgl\src\widgets\../core/lv_obj_style_gen.h ****     lv_style_value_t v = lv_obj_get_style_prop(obj, part, LV_STYLE_BG_MAIN_STOP);
 178:..\..\..\arduinoLCD\test\Pain Drain\libraries\lvgl\src\widgets\../core/lv_obj_style_gen.h ****     return (lv_coord_t)v.num;
 179:..\..\..\arduinoLCD\test\Pain Drain\libraries\lvgl\src\widgets\../core/lv_obj_style_gen.h **** }
 180:..\..\..\arduinoLCD\test\Pain Drain\libraries\lvgl\src\widgets\../core/lv_obj_style_gen.h **** 
 181:..\..\..\arduinoLCD\test\Pain Drain\libraries\lvgl\src\widgets\../core/lv_obj_style_gen.h **** static inline lv_coord_t lv_obj_get_style_bg_grad_stop(const struct _lv_obj_t * obj, uint32_t part)
 182:..\..\..\arduinoLCD\test\Pain Drain\libraries\lvgl\src\widgets\../core/lv_obj_style_gen.h **** {
 183:..\..\..\arduinoLCD\test\Pain Drain\libraries\lvgl\src\widgets\../core/lv_obj_style_gen.h ****     lv_style_value_t v = lv_obj_get_style_prop(obj, part, LV_STYLE_BG_GRAD_STOP);
 184:..\..\..\arduinoLCD\test\Pain Drain\libraries\lvgl\src\widgets\../core/lv_obj_style_gen.h ****     return (lv_coord_t)v.num;
 185:..\..\..\arduinoLCD\test\Pain Drain\libraries\lvgl\src\widgets\../core/lv_obj_style_gen.h **** }
ARM GAS  C:\Users\haske\AppData\Local\Temp\ccRPH14P.s 			page 20


 186:..\..\..\arduinoLCD\test\Pain Drain\libraries\lvgl\src\widgets\../core/lv_obj_style_gen.h **** 
 187:..\..\..\arduinoLCD\test\Pain Drain\libraries\lvgl\src\widgets\../core/lv_obj_style_gen.h **** static inline const lv_grad_dsc_t * lv_obj_get_style_bg_grad(const struct _lv_obj_t * obj, uint32_t
 188:..\..\..\arduinoLCD\test\Pain Drain\libraries\lvgl\src\widgets\../core/lv_obj_style_gen.h **** {
 189:..\..\..\arduinoLCD\test\Pain Drain\libraries\lvgl\src\widgets\../core/lv_obj_style_gen.h ****     lv_style_value_t v = lv_obj_get_style_prop(obj, part, LV_STYLE_BG_GRAD);
 190:..\..\..\arduinoLCD\test\Pain Drain\libraries\lvgl\src\widgets\../core/lv_obj_style_gen.h ****     return (const lv_grad_dsc_t *)v.ptr;
 191:..\..\..\arduinoLCD\test\Pain Drain\libraries\lvgl\src\widgets\../core/lv_obj_style_gen.h **** }
 192:..\..\..\arduinoLCD\test\Pain Drain\libraries\lvgl\src\widgets\../core/lv_obj_style_gen.h **** 
 193:..\..\..\arduinoLCD\test\Pain Drain\libraries\lvgl\src\widgets\../core/lv_obj_style_gen.h **** static inline lv_dither_mode_t lv_obj_get_style_bg_dither_mode(const struct _lv_obj_t * obj, uint32
 194:..\..\..\arduinoLCD\test\Pain Drain\libraries\lvgl\src\widgets\../core/lv_obj_style_gen.h **** {
 195:..\..\..\arduinoLCD\test\Pain Drain\libraries\lvgl\src\widgets\../core/lv_obj_style_gen.h ****     lv_style_value_t v = lv_obj_get_style_prop(obj, part, LV_STYLE_BG_DITHER_MODE);
 196:..\..\..\arduinoLCD\test\Pain Drain\libraries\lvgl\src\widgets\../core/lv_obj_style_gen.h ****     return (lv_dither_mode_t)v.num;
 197:..\..\..\arduinoLCD\test\Pain Drain\libraries\lvgl\src\widgets\../core/lv_obj_style_gen.h **** }
 198:..\..\..\arduinoLCD\test\Pain Drain\libraries\lvgl\src\widgets\../core/lv_obj_style_gen.h **** 
 199:..\..\..\arduinoLCD\test\Pain Drain\libraries\lvgl\src\widgets\../core/lv_obj_style_gen.h **** static inline const void * lv_obj_get_style_bg_img_src(const struct _lv_obj_t * obj, uint32_t part)
 200:..\..\..\arduinoLCD\test\Pain Drain\libraries\lvgl\src\widgets\../core/lv_obj_style_gen.h **** {
 201:..\..\..\arduinoLCD\test\Pain Drain\libraries\lvgl\src\widgets\../core/lv_obj_style_gen.h ****     lv_style_value_t v = lv_obj_get_style_prop(obj, part, LV_STYLE_BG_IMG_SRC);
 202:..\..\..\arduinoLCD\test\Pain Drain\libraries\lvgl\src\widgets\../core/lv_obj_style_gen.h ****     return (const void *)v.ptr;
 203:..\..\..\arduinoLCD\test\Pain Drain\libraries\lvgl\src\widgets\../core/lv_obj_style_gen.h **** }
 204:..\..\..\arduinoLCD\test\Pain Drain\libraries\lvgl\src\widgets\../core/lv_obj_style_gen.h **** 
 205:..\..\..\arduinoLCD\test\Pain Drain\libraries\lvgl\src\widgets\../core/lv_obj_style_gen.h **** static inline lv_opa_t lv_obj_get_style_bg_img_opa(const struct _lv_obj_t * obj, uint32_t part)
 206:..\..\..\arduinoLCD\test\Pain Drain\libraries\lvgl\src\widgets\../core/lv_obj_style_gen.h **** {
 207:..\..\..\arduinoLCD\test\Pain Drain\libraries\lvgl\src\widgets\../core/lv_obj_style_gen.h ****     lv_style_value_t v = lv_obj_get_style_prop(obj, part, LV_STYLE_BG_IMG_OPA);
 208:..\..\..\arduinoLCD\test\Pain Drain\libraries\lvgl\src\widgets\../core/lv_obj_style_gen.h ****     return (lv_opa_t)v.num;
 209:..\..\..\arduinoLCD\test\Pain Drain\libraries\lvgl\src\widgets\../core/lv_obj_style_gen.h **** }
 210:..\..\..\arduinoLCD\test\Pain Drain\libraries\lvgl\src\widgets\../core/lv_obj_style_gen.h **** 
 211:..\..\..\arduinoLCD\test\Pain Drain\libraries\lvgl\src\widgets\../core/lv_obj_style_gen.h **** static inline lv_color_t lv_obj_get_style_bg_img_recolor(const struct _lv_obj_t * obj, uint32_t par
 212:..\..\..\arduinoLCD\test\Pain Drain\libraries\lvgl\src\widgets\../core/lv_obj_style_gen.h **** {
 213:..\..\..\arduinoLCD\test\Pain Drain\libraries\lvgl\src\widgets\../core/lv_obj_style_gen.h ****     lv_style_value_t v = lv_obj_get_style_prop(obj, part, LV_STYLE_BG_IMG_RECOLOR);
 214:..\..\..\arduinoLCD\test\Pain Drain\libraries\lvgl\src\widgets\../core/lv_obj_style_gen.h ****     return v.color;
 215:..\..\..\arduinoLCD\test\Pain Drain\libraries\lvgl\src\widgets\../core/lv_obj_style_gen.h **** }
 216:..\..\..\arduinoLCD\test\Pain Drain\libraries\lvgl\src\widgets\../core/lv_obj_style_gen.h **** 
 217:..\..\..\arduinoLCD\test\Pain Drain\libraries\lvgl\src\widgets\../core/lv_obj_style_gen.h **** static inline lv_color_t lv_obj_get_style_bg_img_recolor_filtered(const struct _lv_obj_t * obj, uin
 218:..\..\..\arduinoLCD\test\Pain Drain\libraries\lvgl\src\widgets\../core/lv_obj_style_gen.h **** {
 219:..\..\..\arduinoLCD\test\Pain Drain\libraries\lvgl\src\widgets\../core/lv_obj_style_gen.h ****     lv_style_value_t v = _lv_obj_style_apply_color_filter(obj, part, lv_obj_get_style_prop(obj, par
 220:..\..\..\arduinoLCD\test\Pain Drain\libraries\lvgl\src\widgets\../core/lv_obj_style_gen.h ****     return v.color;
 221:..\..\..\arduinoLCD\test\Pain Drain\libraries\lvgl\src\widgets\../core/lv_obj_style_gen.h **** }
 222:..\..\..\arduinoLCD\test\Pain Drain\libraries\lvgl\src\widgets\../core/lv_obj_style_gen.h **** 
 223:..\..\..\arduinoLCD\test\Pain Drain\libraries\lvgl\src\widgets\../core/lv_obj_style_gen.h **** static inline lv_opa_t lv_obj_get_style_bg_img_recolor_opa(const struct _lv_obj_t * obj, uint32_t p
 224:..\..\..\arduinoLCD\test\Pain Drain\libraries\lvgl\src\widgets\../core/lv_obj_style_gen.h **** {
 225:..\..\..\arduinoLCD\test\Pain Drain\libraries\lvgl\src\widgets\../core/lv_obj_style_gen.h ****     lv_style_value_t v = lv_obj_get_style_prop(obj, part, LV_STYLE_BG_IMG_RECOLOR_OPA);
 226:..\..\..\arduinoLCD\test\Pain Drain\libraries\lvgl\src\widgets\../core/lv_obj_style_gen.h ****     return (lv_opa_t)v.num;
 227:..\..\..\arduinoLCD\test\Pain Drain\libraries\lvgl\src\widgets\../core/lv_obj_style_gen.h **** }
 228:..\..\..\arduinoLCD\test\Pain Drain\libraries\lvgl\src\widgets\../core/lv_obj_style_gen.h **** 
 229:..\..\..\arduinoLCD\test\Pain Drain\libraries\lvgl\src\widgets\../core/lv_obj_style_gen.h **** static inline bool lv_obj_get_style_bg_img_tiled(const struct _lv_obj_t * obj, uint32_t part)
 230:..\..\..\arduinoLCD\test\Pain Drain\libraries\lvgl\src\widgets\../core/lv_obj_style_gen.h **** {
 231:..\..\..\arduinoLCD\test\Pain Drain\libraries\lvgl\src\widgets\../core/lv_obj_style_gen.h ****     lv_style_value_t v = lv_obj_get_style_prop(obj, part, LV_STYLE_BG_IMG_TILED);
 232:..\..\..\arduinoLCD\test\Pain Drain\libraries\lvgl\src\widgets\../core/lv_obj_style_gen.h ****     return (bool)v.num;
 233:..\..\..\arduinoLCD\test\Pain Drain\libraries\lvgl\src\widgets\../core/lv_obj_style_gen.h **** }
 234:..\..\..\arduinoLCD\test\Pain Drain\libraries\lvgl\src\widgets\../core/lv_obj_style_gen.h **** 
 235:..\..\..\arduinoLCD\test\Pain Drain\libraries\lvgl\src\widgets\../core/lv_obj_style_gen.h **** static inline lv_color_t lv_obj_get_style_border_color(const struct _lv_obj_t * obj, uint32_t part)
 236:..\..\..\arduinoLCD\test\Pain Drain\libraries\lvgl\src\widgets\../core/lv_obj_style_gen.h **** {
 237:..\..\..\arduinoLCD\test\Pain Drain\libraries\lvgl\src\widgets\../core/lv_obj_style_gen.h ****     lv_style_value_t v = lv_obj_get_style_prop(obj, part, LV_STYLE_BORDER_COLOR);
 238:..\..\..\arduinoLCD\test\Pain Drain\libraries\lvgl\src\widgets\../core/lv_obj_style_gen.h ****     return v.color;
 239:..\..\..\arduinoLCD\test\Pain Drain\libraries\lvgl\src\widgets\../core/lv_obj_style_gen.h **** }
 240:..\..\..\arduinoLCD\test\Pain Drain\libraries\lvgl\src\widgets\../core/lv_obj_style_gen.h **** 
 241:..\..\..\arduinoLCD\test\Pain Drain\libraries\lvgl\src\widgets\../core/lv_obj_style_gen.h **** static inline lv_color_t lv_obj_get_style_border_color_filtered(const struct _lv_obj_t * obj, uint3
 242:..\..\..\arduinoLCD\test\Pain Drain\libraries\lvgl\src\widgets\../core/lv_obj_style_gen.h **** {
ARM GAS  C:\Users\haske\AppData\Local\Temp\ccRPH14P.s 			page 21


 243:..\..\..\arduinoLCD\test\Pain Drain\libraries\lvgl\src\widgets\../core/lv_obj_style_gen.h ****     lv_style_value_t v = _lv_obj_style_apply_color_filter(obj, part, lv_obj_get_style_prop(obj, par
 244:..\..\..\arduinoLCD\test\Pain Drain\libraries\lvgl\src\widgets\../core/lv_obj_style_gen.h ****     return v.color;
 245:..\..\..\arduinoLCD\test\Pain Drain\libraries\lvgl\src\widgets\../core/lv_obj_style_gen.h **** }
 246:..\..\..\arduinoLCD\test\Pain Drain\libraries\lvgl\src\widgets\../core/lv_obj_style_gen.h **** 
 247:..\..\..\arduinoLCD\test\Pain Drain\libraries\lvgl\src\widgets\../core/lv_obj_style_gen.h **** static inline lv_opa_t lv_obj_get_style_border_opa(const struct _lv_obj_t * obj, uint32_t part)
 248:..\..\..\arduinoLCD\test\Pain Drain\libraries\lvgl\src\widgets\../core/lv_obj_style_gen.h **** {
 249:..\..\..\arduinoLCD\test\Pain Drain\libraries\lvgl\src\widgets\../core/lv_obj_style_gen.h ****     lv_style_value_t v = lv_obj_get_style_prop(obj, part, LV_STYLE_BORDER_OPA);
 250:..\..\..\arduinoLCD\test\Pain Drain\libraries\lvgl\src\widgets\../core/lv_obj_style_gen.h ****     return (lv_opa_t)v.num;
 251:..\..\..\arduinoLCD\test\Pain Drain\libraries\lvgl\src\widgets\../core/lv_obj_style_gen.h **** }
 252:..\..\..\arduinoLCD\test\Pain Drain\libraries\lvgl\src\widgets\../core/lv_obj_style_gen.h **** 
 253:..\..\..\arduinoLCD\test\Pain Drain\libraries\lvgl\src\widgets\../core/lv_obj_style_gen.h **** static inline lv_coord_t lv_obj_get_style_border_width(const struct _lv_obj_t * obj, uint32_t part)
 254:..\..\..\arduinoLCD\test\Pain Drain\libraries\lvgl\src\widgets\../core/lv_obj_style_gen.h **** {
 255:..\..\..\arduinoLCD\test\Pain Drain\libraries\lvgl\src\widgets\../core/lv_obj_style_gen.h ****     lv_style_value_t v = lv_obj_get_style_prop(obj, part, LV_STYLE_BORDER_WIDTH);
 256:..\..\..\arduinoLCD\test\Pain Drain\libraries\lvgl\src\widgets\../core/lv_obj_style_gen.h ****     return (lv_coord_t)v.num;
 257:..\..\..\arduinoLCD\test\Pain Drain\libraries\lvgl\src\widgets\../core/lv_obj_style_gen.h **** }
 258:..\..\..\arduinoLCD\test\Pain Drain\libraries\lvgl\src\widgets\../core/lv_obj_style_gen.h **** 
 259:..\..\..\arduinoLCD\test\Pain Drain\libraries\lvgl\src\widgets\../core/lv_obj_style_gen.h **** static inline lv_border_side_t lv_obj_get_style_border_side(const struct _lv_obj_t * obj, uint32_t 
 260:..\..\..\arduinoLCD\test\Pain Drain\libraries\lvgl\src\widgets\../core/lv_obj_style_gen.h **** {
 261:..\..\..\arduinoLCD\test\Pain Drain\libraries\lvgl\src\widgets\../core/lv_obj_style_gen.h ****     lv_style_value_t v = lv_obj_get_style_prop(obj, part, LV_STYLE_BORDER_SIDE);
 262:..\..\..\arduinoLCD\test\Pain Drain\libraries\lvgl\src\widgets\../core/lv_obj_style_gen.h ****     return (lv_border_side_t)v.num;
 263:..\..\..\arduinoLCD\test\Pain Drain\libraries\lvgl\src\widgets\../core/lv_obj_style_gen.h **** }
 264:..\..\..\arduinoLCD\test\Pain Drain\libraries\lvgl\src\widgets\../core/lv_obj_style_gen.h **** 
 265:..\..\..\arduinoLCD\test\Pain Drain\libraries\lvgl\src\widgets\../core/lv_obj_style_gen.h **** static inline bool lv_obj_get_style_border_post(const struct _lv_obj_t * obj, uint32_t part)
 266:..\..\..\arduinoLCD\test\Pain Drain\libraries\lvgl\src\widgets\../core/lv_obj_style_gen.h **** {
 267:..\..\..\arduinoLCD\test\Pain Drain\libraries\lvgl\src\widgets\../core/lv_obj_style_gen.h ****     lv_style_value_t v = lv_obj_get_style_prop(obj, part, LV_STYLE_BORDER_POST);
 268:..\..\..\arduinoLCD\test\Pain Drain\libraries\lvgl\src\widgets\../core/lv_obj_style_gen.h ****     return (bool)v.num;
 269:..\..\..\arduinoLCD\test\Pain Drain\libraries\lvgl\src\widgets\../core/lv_obj_style_gen.h **** }
 270:..\..\..\arduinoLCD\test\Pain Drain\libraries\lvgl\src\widgets\../core/lv_obj_style_gen.h **** 
 271:..\..\..\arduinoLCD\test\Pain Drain\libraries\lvgl\src\widgets\../core/lv_obj_style_gen.h **** static inline lv_coord_t lv_obj_get_style_outline_width(const struct _lv_obj_t * obj, uint32_t part
 272:..\..\..\arduinoLCD\test\Pain Drain\libraries\lvgl\src\widgets\../core/lv_obj_style_gen.h **** {
 273:..\..\..\arduinoLCD\test\Pain Drain\libraries\lvgl\src\widgets\../core/lv_obj_style_gen.h ****     lv_style_value_t v = lv_obj_get_style_prop(obj, part, LV_STYLE_OUTLINE_WIDTH);
 274:..\..\..\arduinoLCD\test\Pain Drain\libraries\lvgl\src\widgets\../core/lv_obj_style_gen.h ****     return (lv_coord_t)v.num;
 275:..\..\..\arduinoLCD\test\Pain Drain\libraries\lvgl\src\widgets\../core/lv_obj_style_gen.h **** }
 276:..\..\..\arduinoLCD\test\Pain Drain\libraries\lvgl\src\widgets\../core/lv_obj_style_gen.h **** 
 277:..\..\..\arduinoLCD\test\Pain Drain\libraries\lvgl\src\widgets\../core/lv_obj_style_gen.h **** static inline lv_color_t lv_obj_get_style_outline_color(const struct _lv_obj_t * obj, uint32_t part
 278:..\..\..\arduinoLCD\test\Pain Drain\libraries\lvgl\src\widgets\../core/lv_obj_style_gen.h **** {
 279:..\..\..\arduinoLCD\test\Pain Drain\libraries\lvgl\src\widgets\../core/lv_obj_style_gen.h ****     lv_style_value_t v = lv_obj_get_style_prop(obj, part, LV_STYLE_OUTLINE_COLOR);
 280:..\..\..\arduinoLCD\test\Pain Drain\libraries\lvgl\src\widgets\../core/lv_obj_style_gen.h ****     return v.color;
 281:..\..\..\arduinoLCD\test\Pain Drain\libraries\lvgl\src\widgets\../core/lv_obj_style_gen.h **** }
 282:..\..\..\arduinoLCD\test\Pain Drain\libraries\lvgl\src\widgets\../core/lv_obj_style_gen.h **** 
 283:..\..\..\arduinoLCD\test\Pain Drain\libraries\lvgl\src\widgets\../core/lv_obj_style_gen.h **** static inline lv_color_t lv_obj_get_style_outline_color_filtered(const struct _lv_obj_t * obj, uint
 284:..\..\..\arduinoLCD\test\Pain Drain\libraries\lvgl\src\widgets\../core/lv_obj_style_gen.h **** {
 285:..\..\..\arduinoLCD\test\Pain Drain\libraries\lvgl\src\widgets\../core/lv_obj_style_gen.h ****     lv_style_value_t v = _lv_obj_style_apply_color_filter(obj, part, lv_obj_get_style_prop(obj, par
 286:..\..\..\arduinoLCD\test\Pain Drain\libraries\lvgl\src\widgets\../core/lv_obj_style_gen.h ****     return v.color;
 287:..\..\..\arduinoLCD\test\Pain Drain\libraries\lvgl\src\widgets\../core/lv_obj_style_gen.h **** }
 288:..\..\..\arduinoLCD\test\Pain Drain\libraries\lvgl\src\widgets\../core/lv_obj_style_gen.h **** 
 289:..\..\..\arduinoLCD\test\Pain Drain\libraries\lvgl\src\widgets\../core/lv_obj_style_gen.h **** static inline lv_opa_t lv_obj_get_style_outline_opa(const struct _lv_obj_t * obj, uint32_t part)
 290:..\..\..\arduinoLCD\test\Pain Drain\libraries\lvgl\src\widgets\../core/lv_obj_style_gen.h **** {
 291:..\..\..\arduinoLCD\test\Pain Drain\libraries\lvgl\src\widgets\../core/lv_obj_style_gen.h ****     lv_style_value_t v = lv_obj_get_style_prop(obj, part, LV_STYLE_OUTLINE_OPA);
 292:..\..\..\arduinoLCD\test\Pain Drain\libraries\lvgl\src\widgets\../core/lv_obj_style_gen.h ****     return (lv_opa_t)v.num;
 293:..\..\..\arduinoLCD\test\Pain Drain\libraries\lvgl\src\widgets\../core/lv_obj_style_gen.h **** }
 294:..\..\..\arduinoLCD\test\Pain Drain\libraries\lvgl\src\widgets\../core/lv_obj_style_gen.h **** 
 295:..\..\..\arduinoLCD\test\Pain Drain\libraries\lvgl\src\widgets\../core/lv_obj_style_gen.h **** static inline lv_coord_t lv_obj_get_style_outline_pad(const struct _lv_obj_t * obj, uint32_t part)
 296:..\..\..\arduinoLCD\test\Pain Drain\libraries\lvgl\src\widgets\../core/lv_obj_style_gen.h **** {
 297:..\..\..\arduinoLCD\test\Pain Drain\libraries\lvgl\src\widgets\../core/lv_obj_style_gen.h ****     lv_style_value_t v = lv_obj_get_style_prop(obj, part, LV_STYLE_OUTLINE_PAD);
 298:..\..\..\arduinoLCD\test\Pain Drain\libraries\lvgl\src\widgets\../core/lv_obj_style_gen.h ****     return (lv_coord_t)v.num;
 299:..\..\..\arduinoLCD\test\Pain Drain\libraries\lvgl\src\widgets\../core/lv_obj_style_gen.h **** }
ARM GAS  C:\Users\haske\AppData\Local\Temp\ccRPH14P.s 			page 22


 300:..\..\..\arduinoLCD\test\Pain Drain\libraries\lvgl\src\widgets\../core/lv_obj_style_gen.h **** 
 301:..\..\..\arduinoLCD\test\Pain Drain\libraries\lvgl\src\widgets\../core/lv_obj_style_gen.h **** static inline lv_coord_t lv_obj_get_style_shadow_width(const struct _lv_obj_t * obj, uint32_t part)
 302:..\..\..\arduinoLCD\test\Pain Drain\libraries\lvgl\src\widgets\../core/lv_obj_style_gen.h **** {
 303:..\..\..\arduinoLCD\test\Pain Drain\libraries\lvgl\src\widgets\../core/lv_obj_style_gen.h ****     lv_style_value_t v = lv_obj_get_style_prop(obj, part, LV_STYLE_SHADOW_WIDTH);
 304:..\..\..\arduinoLCD\test\Pain Drain\libraries\lvgl\src\widgets\../core/lv_obj_style_gen.h ****     return (lv_coord_t)v.num;
 305:..\..\..\arduinoLCD\test\Pain Drain\libraries\lvgl\src\widgets\../core/lv_obj_style_gen.h **** }
 306:..\..\..\arduinoLCD\test\Pain Drain\libraries\lvgl\src\widgets\../core/lv_obj_style_gen.h **** 
 307:..\..\..\arduinoLCD\test\Pain Drain\libraries\lvgl\src\widgets\../core/lv_obj_style_gen.h **** static inline lv_coord_t lv_obj_get_style_shadow_ofs_x(const struct _lv_obj_t * obj, uint32_t part)
 308:..\..\..\arduinoLCD\test\Pain Drain\libraries\lvgl\src\widgets\../core/lv_obj_style_gen.h **** {
 309:..\..\..\arduinoLCD\test\Pain Drain\libraries\lvgl\src\widgets\../core/lv_obj_style_gen.h ****     lv_style_value_t v = lv_obj_get_style_prop(obj, part, LV_STYLE_SHADOW_OFS_X);
 310:..\..\..\arduinoLCD\test\Pain Drain\libraries\lvgl\src\widgets\../core/lv_obj_style_gen.h ****     return (lv_coord_t)v.num;
 311:..\..\..\arduinoLCD\test\Pain Drain\libraries\lvgl\src\widgets\../core/lv_obj_style_gen.h **** }
 312:..\..\..\arduinoLCD\test\Pain Drain\libraries\lvgl\src\widgets\../core/lv_obj_style_gen.h **** 
 313:..\..\..\arduinoLCD\test\Pain Drain\libraries\lvgl\src\widgets\../core/lv_obj_style_gen.h **** static inline lv_coord_t lv_obj_get_style_shadow_ofs_y(const struct _lv_obj_t * obj, uint32_t part)
 314:..\..\..\arduinoLCD\test\Pain Drain\libraries\lvgl\src\widgets\../core/lv_obj_style_gen.h **** {
 315:..\..\..\arduinoLCD\test\Pain Drain\libraries\lvgl\src\widgets\../core/lv_obj_style_gen.h ****     lv_style_value_t v = lv_obj_get_style_prop(obj, part, LV_STYLE_SHADOW_OFS_Y);
 316:..\..\..\arduinoLCD\test\Pain Drain\libraries\lvgl\src\widgets\../core/lv_obj_style_gen.h ****     return (lv_coord_t)v.num;
 317:..\..\..\arduinoLCD\test\Pain Drain\libraries\lvgl\src\widgets\../core/lv_obj_style_gen.h **** }
 318:..\..\..\arduinoLCD\test\Pain Drain\libraries\lvgl\src\widgets\../core/lv_obj_style_gen.h **** 
 319:..\..\..\arduinoLCD\test\Pain Drain\libraries\lvgl\src\widgets\../core/lv_obj_style_gen.h **** static inline lv_coord_t lv_obj_get_style_shadow_spread(const struct _lv_obj_t * obj, uint32_t part
 320:..\..\..\arduinoLCD\test\Pain Drain\libraries\lvgl\src\widgets\../core/lv_obj_style_gen.h **** {
 321:..\..\..\arduinoLCD\test\Pain Drain\libraries\lvgl\src\widgets\../core/lv_obj_style_gen.h ****     lv_style_value_t v = lv_obj_get_style_prop(obj, part, LV_STYLE_SHADOW_SPREAD);
 322:..\..\..\arduinoLCD\test\Pain Drain\libraries\lvgl\src\widgets\../core/lv_obj_style_gen.h ****     return (lv_coord_t)v.num;
 323:..\..\..\arduinoLCD\test\Pain Drain\libraries\lvgl\src\widgets\../core/lv_obj_style_gen.h **** }
 324:..\..\..\arduinoLCD\test\Pain Drain\libraries\lvgl\src\widgets\../core/lv_obj_style_gen.h **** 
 325:..\..\..\arduinoLCD\test\Pain Drain\libraries\lvgl\src\widgets\../core/lv_obj_style_gen.h **** static inline lv_color_t lv_obj_get_style_shadow_color(const struct _lv_obj_t * obj, uint32_t part)
 326:..\..\..\arduinoLCD\test\Pain Drain\libraries\lvgl\src\widgets\../core/lv_obj_style_gen.h **** {
 327:..\..\..\arduinoLCD\test\Pain Drain\libraries\lvgl\src\widgets\../core/lv_obj_style_gen.h ****     lv_style_value_t v = lv_obj_get_style_prop(obj, part, LV_STYLE_SHADOW_COLOR);
 328:..\..\..\arduinoLCD\test\Pain Drain\libraries\lvgl\src\widgets\../core/lv_obj_style_gen.h ****     return v.color;
 329:..\..\..\arduinoLCD\test\Pain Drain\libraries\lvgl\src\widgets\../core/lv_obj_style_gen.h **** }
 330:..\..\..\arduinoLCD\test\Pain Drain\libraries\lvgl\src\widgets\../core/lv_obj_style_gen.h **** 
 331:..\..\..\arduinoLCD\test\Pain Drain\libraries\lvgl\src\widgets\../core/lv_obj_style_gen.h **** static inline lv_color_t lv_obj_get_style_shadow_color_filtered(const struct _lv_obj_t * obj, uint3
 332:..\..\..\arduinoLCD\test\Pain Drain\libraries\lvgl\src\widgets\../core/lv_obj_style_gen.h **** {
 333:..\..\..\arduinoLCD\test\Pain Drain\libraries\lvgl\src\widgets\../core/lv_obj_style_gen.h ****     lv_style_value_t v = _lv_obj_style_apply_color_filter(obj, part, lv_obj_get_style_prop(obj, par
 334:..\..\..\arduinoLCD\test\Pain Drain\libraries\lvgl\src\widgets\../core/lv_obj_style_gen.h ****     return v.color;
 335:..\..\..\arduinoLCD\test\Pain Drain\libraries\lvgl\src\widgets\../core/lv_obj_style_gen.h **** }
 336:..\..\..\arduinoLCD\test\Pain Drain\libraries\lvgl\src\widgets\../core/lv_obj_style_gen.h **** 
 337:..\..\..\arduinoLCD\test\Pain Drain\libraries\lvgl\src\widgets\../core/lv_obj_style_gen.h **** static inline lv_opa_t lv_obj_get_style_shadow_opa(const struct _lv_obj_t * obj, uint32_t part)
 338:..\..\..\arduinoLCD\test\Pain Drain\libraries\lvgl\src\widgets\../core/lv_obj_style_gen.h **** {
 339:..\..\..\arduinoLCD\test\Pain Drain\libraries\lvgl\src\widgets\../core/lv_obj_style_gen.h ****     lv_style_value_t v = lv_obj_get_style_prop(obj, part, LV_STYLE_SHADOW_OPA);
 340:..\..\..\arduinoLCD\test\Pain Drain\libraries\lvgl\src\widgets\../core/lv_obj_style_gen.h ****     return (lv_opa_t)v.num;
 341:..\..\..\arduinoLCD\test\Pain Drain\libraries\lvgl\src\widgets\../core/lv_obj_style_gen.h **** }
 342:..\..\..\arduinoLCD\test\Pain Drain\libraries\lvgl\src\widgets\../core/lv_obj_style_gen.h **** 
 343:..\..\..\arduinoLCD\test\Pain Drain\libraries\lvgl\src\widgets\../core/lv_obj_style_gen.h **** static inline lv_opa_t lv_obj_get_style_img_opa(const struct _lv_obj_t * obj, uint32_t part)
 344:..\..\..\arduinoLCD\test\Pain Drain\libraries\lvgl\src\widgets\../core/lv_obj_style_gen.h **** {
 345:..\..\..\arduinoLCD\test\Pain Drain\libraries\lvgl\src\widgets\../core/lv_obj_style_gen.h ****     lv_style_value_t v = lv_obj_get_style_prop(obj, part, LV_STYLE_IMG_OPA);
 346:..\..\..\arduinoLCD\test\Pain Drain\libraries\lvgl\src\widgets\../core/lv_obj_style_gen.h ****     return (lv_opa_t)v.num;
 347:..\..\..\arduinoLCD\test\Pain Drain\libraries\lvgl\src\widgets\../core/lv_obj_style_gen.h **** }
 348:..\..\..\arduinoLCD\test\Pain Drain\libraries\lvgl\src\widgets\../core/lv_obj_style_gen.h **** 
 349:..\..\..\arduinoLCD\test\Pain Drain\libraries\lvgl\src\widgets\../core/lv_obj_style_gen.h **** static inline lv_color_t lv_obj_get_style_img_recolor(const struct _lv_obj_t * obj, uint32_t part)
 350:..\..\..\arduinoLCD\test\Pain Drain\libraries\lvgl\src\widgets\../core/lv_obj_style_gen.h **** {
 351:..\..\..\arduinoLCD\test\Pain Drain\libraries\lvgl\src\widgets\../core/lv_obj_style_gen.h ****     lv_style_value_t v = lv_obj_get_style_prop(obj, part, LV_STYLE_IMG_RECOLOR);
 352:..\..\..\arduinoLCD\test\Pain Drain\libraries\lvgl\src\widgets\../core/lv_obj_style_gen.h ****     return v.color;
 353:..\..\..\arduinoLCD\test\Pain Drain\libraries\lvgl\src\widgets\../core/lv_obj_style_gen.h **** }
 354:..\..\..\arduinoLCD\test\Pain Drain\libraries\lvgl\src\widgets\../core/lv_obj_style_gen.h **** 
 355:..\..\..\arduinoLCD\test\Pain Drain\libraries\lvgl\src\widgets\../core/lv_obj_style_gen.h **** static inline lv_color_t lv_obj_get_style_img_recolor_filtered(const struct _lv_obj_t * obj, uint32
 356:..\..\..\arduinoLCD\test\Pain Drain\libraries\lvgl\src\widgets\../core/lv_obj_style_gen.h **** {
ARM GAS  C:\Users\haske\AppData\Local\Temp\ccRPH14P.s 			page 23


 357:..\..\..\arduinoLCD\test\Pain Drain\libraries\lvgl\src\widgets\../core/lv_obj_style_gen.h ****     lv_style_value_t v = _lv_obj_style_apply_color_filter(obj, part, lv_obj_get_style_prop(obj, par
 358:..\..\..\arduinoLCD\test\Pain Drain\libraries\lvgl\src\widgets\../core/lv_obj_style_gen.h ****     return v.color;
 359:..\..\..\arduinoLCD\test\Pain Drain\libraries\lvgl\src\widgets\../core/lv_obj_style_gen.h **** }
 360:..\..\..\arduinoLCD\test\Pain Drain\libraries\lvgl\src\widgets\../core/lv_obj_style_gen.h **** 
 361:..\..\..\arduinoLCD\test\Pain Drain\libraries\lvgl\src\widgets\../core/lv_obj_style_gen.h **** static inline lv_opa_t lv_obj_get_style_img_recolor_opa(const struct _lv_obj_t * obj, uint32_t part
 362:..\..\..\arduinoLCD\test\Pain Drain\libraries\lvgl\src\widgets\../core/lv_obj_style_gen.h **** {
 363:..\..\..\arduinoLCD\test\Pain Drain\libraries\lvgl\src\widgets\../core/lv_obj_style_gen.h ****     lv_style_value_t v = lv_obj_get_style_prop(obj, part, LV_STYLE_IMG_RECOLOR_OPA);
 364:..\..\..\arduinoLCD\test\Pain Drain\libraries\lvgl\src\widgets\../core/lv_obj_style_gen.h ****     return (lv_opa_t)v.num;
 365:..\..\..\arduinoLCD\test\Pain Drain\libraries\lvgl\src\widgets\../core/lv_obj_style_gen.h **** }
 366:..\..\..\arduinoLCD\test\Pain Drain\libraries\lvgl\src\widgets\../core/lv_obj_style_gen.h **** 
 367:..\..\..\arduinoLCD\test\Pain Drain\libraries\lvgl\src\widgets\../core/lv_obj_style_gen.h **** static inline lv_coord_t lv_obj_get_style_line_width(const struct _lv_obj_t * obj, uint32_t part)
 368:..\..\..\arduinoLCD\test\Pain Drain\libraries\lvgl\src\widgets\../core/lv_obj_style_gen.h **** {
 369:..\..\..\arduinoLCD\test\Pain Drain\libraries\lvgl\src\widgets\../core/lv_obj_style_gen.h ****     lv_style_value_t v = lv_obj_get_style_prop(obj, part, LV_STYLE_LINE_WIDTH);
 370:..\..\..\arduinoLCD\test\Pain Drain\libraries\lvgl\src\widgets\../core/lv_obj_style_gen.h ****     return (lv_coord_t)v.num;
 371:..\..\..\arduinoLCD\test\Pain Drain\libraries\lvgl\src\widgets\../core/lv_obj_style_gen.h **** }
 372:..\..\..\arduinoLCD\test\Pain Drain\libraries\lvgl\src\widgets\../core/lv_obj_style_gen.h **** 
 373:..\..\..\arduinoLCD\test\Pain Drain\libraries\lvgl\src\widgets\../core/lv_obj_style_gen.h **** static inline lv_coord_t lv_obj_get_style_line_dash_width(const struct _lv_obj_t * obj, uint32_t pa
 374:..\..\..\arduinoLCD\test\Pain Drain\libraries\lvgl\src\widgets\../core/lv_obj_style_gen.h **** {
 375:..\..\..\arduinoLCD\test\Pain Drain\libraries\lvgl\src\widgets\../core/lv_obj_style_gen.h ****     lv_style_value_t v = lv_obj_get_style_prop(obj, part, LV_STYLE_LINE_DASH_WIDTH);
 376:..\..\..\arduinoLCD\test\Pain Drain\libraries\lvgl\src\widgets\../core/lv_obj_style_gen.h ****     return (lv_coord_t)v.num;
 377:..\..\..\arduinoLCD\test\Pain Drain\libraries\lvgl\src\widgets\../core/lv_obj_style_gen.h **** }
 378:..\..\..\arduinoLCD\test\Pain Drain\libraries\lvgl\src\widgets\../core/lv_obj_style_gen.h **** 
 379:..\..\..\arduinoLCD\test\Pain Drain\libraries\lvgl\src\widgets\../core/lv_obj_style_gen.h **** static inline lv_coord_t lv_obj_get_style_line_dash_gap(const struct _lv_obj_t * obj, uint32_t part
 380:..\..\..\arduinoLCD\test\Pain Drain\libraries\lvgl\src\widgets\../core/lv_obj_style_gen.h **** {
 381:..\..\..\arduinoLCD\test\Pain Drain\libraries\lvgl\src\widgets\../core/lv_obj_style_gen.h ****     lv_style_value_t v = lv_obj_get_style_prop(obj, part, LV_STYLE_LINE_DASH_GAP);
 382:..\..\..\arduinoLCD\test\Pain Drain\libraries\lvgl\src\widgets\../core/lv_obj_style_gen.h ****     return (lv_coord_t)v.num;
 383:..\..\..\arduinoLCD\test\Pain Drain\libraries\lvgl\src\widgets\../core/lv_obj_style_gen.h **** }
 384:..\..\..\arduinoLCD\test\Pain Drain\libraries\lvgl\src\widgets\../core/lv_obj_style_gen.h **** 
 385:..\..\..\arduinoLCD\test\Pain Drain\libraries\lvgl\src\widgets\../core/lv_obj_style_gen.h **** static inline bool lv_obj_get_style_line_rounded(const struct _lv_obj_t * obj, uint32_t part)
 386:..\..\..\arduinoLCD\test\Pain Drain\libraries\lvgl\src\widgets\../core/lv_obj_style_gen.h **** {
 387:..\..\..\arduinoLCD\test\Pain Drain\libraries\lvgl\src\widgets\../core/lv_obj_style_gen.h ****     lv_style_value_t v = lv_obj_get_style_prop(obj, part, LV_STYLE_LINE_ROUNDED);
 388:..\..\..\arduinoLCD\test\Pain Drain\libraries\lvgl\src\widgets\../core/lv_obj_style_gen.h ****     return (bool)v.num;
 389:..\..\..\arduinoLCD\test\Pain Drain\libraries\lvgl\src\widgets\../core/lv_obj_style_gen.h **** }
 390:..\..\..\arduinoLCD\test\Pain Drain\libraries\lvgl\src\widgets\../core/lv_obj_style_gen.h **** 
 391:..\..\..\arduinoLCD\test\Pain Drain\libraries\lvgl\src\widgets\../core/lv_obj_style_gen.h **** static inline lv_color_t lv_obj_get_style_line_color(const struct _lv_obj_t * obj, uint32_t part)
 392:..\..\..\arduinoLCD\test\Pain Drain\libraries\lvgl\src\widgets\../core/lv_obj_style_gen.h **** {
 393:..\..\..\arduinoLCD\test\Pain Drain\libraries\lvgl\src\widgets\../core/lv_obj_style_gen.h ****     lv_style_value_t v = lv_obj_get_style_prop(obj, part, LV_STYLE_LINE_COLOR);
 394:..\..\..\arduinoLCD\test\Pain Drain\libraries\lvgl\src\widgets\../core/lv_obj_style_gen.h ****     return v.color;
 395:..\..\..\arduinoLCD\test\Pain Drain\libraries\lvgl\src\widgets\../core/lv_obj_style_gen.h **** }
 396:..\..\..\arduinoLCD\test\Pain Drain\libraries\lvgl\src\widgets\../core/lv_obj_style_gen.h **** 
 397:..\..\..\arduinoLCD\test\Pain Drain\libraries\lvgl\src\widgets\../core/lv_obj_style_gen.h **** static inline lv_color_t lv_obj_get_style_line_color_filtered(const struct _lv_obj_t * obj, uint32_
 398:..\..\..\arduinoLCD\test\Pain Drain\libraries\lvgl\src\widgets\../core/lv_obj_style_gen.h **** {
 399:..\..\..\arduinoLCD\test\Pain Drain\libraries\lvgl\src\widgets\../core/lv_obj_style_gen.h ****     lv_style_value_t v = _lv_obj_style_apply_color_filter(obj, part, lv_obj_get_style_prop(obj, par
 400:..\..\..\arduinoLCD\test\Pain Drain\libraries\lvgl\src\widgets\../core/lv_obj_style_gen.h ****     return v.color;
 401:..\..\..\arduinoLCD\test\Pain Drain\libraries\lvgl\src\widgets\../core/lv_obj_style_gen.h **** }
 402:..\..\..\arduinoLCD\test\Pain Drain\libraries\lvgl\src\widgets\../core/lv_obj_style_gen.h **** 
 403:..\..\..\arduinoLCD\test\Pain Drain\libraries\lvgl\src\widgets\../core/lv_obj_style_gen.h **** static inline lv_opa_t lv_obj_get_style_line_opa(const struct _lv_obj_t * obj, uint32_t part)
 404:..\..\..\arduinoLCD\test\Pain Drain\libraries\lvgl\src\widgets\../core/lv_obj_style_gen.h **** {
 405:..\..\..\arduinoLCD\test\Pain Drain\libraries\lvgl\src\widgets\../core/lv_obj_style_gen.h ****     lv_style_value_t v = lv_obj_get_style_prop(obj, part, LV_STYLE_LINE_OPA);
 406:..\..\..\arduinoLCD\test\Pain Drain\libraries\lvgl\src\widgets\../core/lv_obj_style_gen.h ****     return (lv_opa_t)v.num;
 407:..\..\..\arduinoLCD\test\Pain Drain\libraries\lvgl\src\widgets\../core/lv_obj_style_gen.h **** }
 408:..\..\..\arduinoLCD\test\Pain Drain\libraries\lvgl\src\widgets\../core/lv_obj_style_gen.h **** 
 409:..\..\..\arduinoLCD\test\Pain Drain\libraries\lvgl\src\widgets\../core/lv_obj_style_gen.h **** static inline lv_coord_t lv_obj_get_style_arc_width(const struct _lv_obj_t * obj, uint32_t part)
 410:..\..\..\arduinoLCD\test\Pain Drain\libraries\lvgl\src\widgets\../core/lv_obj_style_gen.h **** {
 411:..\..\..\arduinoLCD\test\Pain Drain\libraries\lvgl\src\widgets\../core/lv_obj_style_gen.h ****     lv_style_value_t v = lv_obj_get_style_prop(obj, part, LV_STYLE_ARC_WIDTH);
 412:..\..\..\arduinoLCD\test\Pain Drain\libraries\lvgl\src\widgets\../core/lv_obj_style_gen.h ****     return (lv_coord_t)v.num;
 413:..\..\..\arduinoLCD\test\Pain Drain\libraries\lvgl\src\widgets\../core/lv_obj_style_gen.h **** }
ARM GAS  C:\Users\haske\AppData\Local\Temp\ccRPH14P.s 			page 24


 414:..\..\..\arduinoLCD\test\Pain Drain\libraries\lvgl\src\widgets\../core/lv_obj_style_gen.h **** 
 415:..\..\..\arduinoLCD\test\Pain Drain\libraries\lvgl\src\widgets\../core/lv_obj_style_gen.h **** static inline bool lv_obj_get_style_arc_rounded(const struct _lv_obj_t * obj, uint32_t part)
 416:..\..\..\arduinoLCD\test\Pain Drain\libraries\lvgl\src\widgets\../core/lv_obj_style_gen.h **** {
 417:..\..\..\arduinoLCD\test\Pain Drain\libraries\lvgl\src\widgets\../core/lv_obj_style_gen.h ****     lv_style_value_t v = lv_obj_get_style_prop(obj, part, LV_STYLE_ARC_ROUNDED);
 418:..\..\..\arduinoLCD\test\Pain Drain\libraries\lvgl\src\widgets\../core/lv_obj_style_gen.h ****     return (bool)v.num;
 419:..\..\..\arduinoLCD\test\Pain Drain\libraries\lvgl\src\widgets\../core/lv_obj_style_gen.h **** }
 420:..\..\..\arduinoLCD\test\Pain Drain\libraries\lvgl\src\widgets\../core/lv_obj_style_gen.h **** 
 421:..\..\..\arduinoLCD\test\Pain Drain\libraries\lvgl\src\widgets\../core/lv_obj_style_gen.h **** static inline lv_color_t lv_obj_get_style_arc_color(const struct _lv_obj_t * obj, uint32_t part)
 422:..\..\..\arduinoLCD\test\Pain Drain\libraries\lvgl\src\widgets\../core/lv_obj_style_gen.h **** {
 423:..\..\..\arduinoLCD\test\Pain Drain\libraries\lvgl\src\widgets\../core/lv_obj_style_gen.h ****     lv_style_value_t v = lv_obj_get_style_prop(obj, part, LV_STYLE_ARC_COLOR);
 424:..\..\..\arduinoLCD\test\Pain Drain\libraries\lvgl\src\widgets\../core/lv_obj_style_gen.h ****     return v.color;
 425:..\..\..\arduinoLCD\test\Pain Drain\libraries\lvgl\src\widgets\../core/lv_obj_style_gen.h **** }
 426:..\..\..\arduinoLCD\test\Pain Drain\libraries\lvgl\src\widgets\../core/lv_obj_style_gen.h **** 
 427:..\..\..\arduinoLCD\test\Pain Drain\libraries\lvgl\src\widgets\../core/lv_obj_style_gen.h **** static inline lv_color_t lv_obj_get_style_arc_color_filtered(const struct _lv_obj_t * obj, uint32_t
 428:..\..\..\arduinoLCD\test\Pain Drain\libraries\lvgl\src\widgets\../core/lv_obj_style_gen.h **** {
 429:..\..\..\arduinoLCD\test\Pain Drain\libraries\lvgl\src\widgets\../core/lv_obj_style_gen.h ****     lv_style_value_t v = _lv_obj_style_apply_color_filter(obj, part, lv_obj_get_style_prop(obj, par
 430:..\..\..\arduinoLCD\test\Pain Drain\libraries\lvgl\src\widgets\../core/lv_obj_style_gen.h ****     return v.color;
 431:..\..\..\arduinoLCD\test\Pain Drain\libraries\lvgl\src\widgets\../core/lv_obj_style_gen.h **** }
 432:..\..\..\arduinoLCD\test\Pain Drain\libraries\lvgl\src\widgets\../core/lv_obj_style_gen.h **** 
 433:..\..\..\arduinoLCD\test\Pain Drain\libraries\lvgl\src\widgets\../core/lv_obj_style_gen.h **** static inline lv_opa_t lv_obj_get_style_arc_opa(const struct _lv_obj_t * obj, uint32_t part)
 434:..\..\..\arduinoLCD\test\Pain Drain\libraries\lvgl\src\widgets\../core/lv_obj_style_gen.h **** {
 435:..\..\..\arduinoLCD\test\Pain Drain\libraries\lvgl\src\widgets\../core/lv_obj_style_gen.h ****     lv_style_value_t v = lv_obj_get_style_prop(obj, part, LV_STYLE_ARC_OPA);
 436:..\..\..\arduinoLCD\test\Pain Drain\libraries\lvgl\src\widgets\../core/lv_obj_style_gen.h ****     return (lv_opa_t)v.num;
 437:..\..\..\arduinoLCD\test\Pain Drain\libraries\lvgl\src\widgets\../core/lv_obj_style_gen.h **** }
 438:..\..\..\arduinoLCD\test\Pain Drain\libraries\lvgl\src\widgets\../core/lv_obj_style_gen.h **** 
 439:..\..\..\arduinoLCD\test\Pain Drain\libraries\lvgl\src\widgets\../core/lv_obj_style_gen.h **** static inline const void * lv_obj_get_style_arc_img_src(const struct _lv_obj_t * obj, uint32_t part
 440:..\..\..\arduinoLCD\test\Pain Drain\libraries\lvgl\src\widgets\../core/lv_obj_style_gen.h **** {
 441:..\..\..\arduinoLCD\test\Pain Drain\libraries\lvgl\src\widgets\../core/lv_obj_style_gen.h ****     lv_style_value_t v = lv_obj_get_style_prop(obj, part, LV_STYLE_ARC_IMG_SRC);
 442:..\..\..\arduinoLCD\test\Pain Drain\libraries\lvgl\src\widgets\../core/lv_obj_style_gen.h ****     return (const void *)v.ptr;
 443:..\..\..\arduinoLCD\test\Pain Drain\libraries\lvgl\src\widgets\../core/lv_obj_style_gen.h **** }
 444:..\..\..\arduinoLCD\test\Pain Drain\libraries\lvgl\src\widgets\../core/lv_obj_style_gen.h **** 
 445:..\..\..\arduinoLCD\test\Pain Drain\libraries\lvgl\src\widgets\../core/lv_obj_style_gen.h **** static inline lv_color_t lv_obj_get_style_text_color(const struct _lv_obj_t * obj, uint32_t part)
 446:..\..\..\arduinoLCD\test\Pain Drain\libraries\lvgl\src\widgets\../core/lv_obj_style_gen.h **** {
 447:..\..\..\arduinoLCD\test\Pain Drain\libraries\lvgl\src\widgets\../core/lv_obj_style_gen.h ****     lv_style_value_t v = lv_obj_get_style_prop(obj, part, LV_STYLE_TEXT_COLOR);
 448:..\..\..\arduinoLCD\test\Pain Drain\libraries\lvgl\src\widgets\../core/lv_obj_style_gen.h ****     return v.color;
 449:..\..\..\arduinoLCD\test\Pain Drain\libraries\lvgl\src\widgets\../core/lv_obj_style_gen.h **** }
 450:..\..\..\arduinoLCD\test\Pain Drain\libraries\lvgl\src\widgets\../core/lv_obj_style_gen.h **** 
 451:..\..\..\arduinoLCD\test\Pain Drain\libraries\lvgl\src\widgets\../core/lv_obj_style_gen.h **** static inline lv_color_t lv_obj_get_style_text_color_filtered(const struct _lv_obj_t * obj, uint32_
 452:..\..\..\arduinoLCD\test\Pain Drain\libraries\lvgl\src\widgets\../core/lv_obj_style_gen.h **** {
 453:..\..\..\arduinoLCD\test\Pain Drain\libraries\lvgl\src\widgets\../core/lv_obj_style_gen.h ****     lv_style_value_t v = _lv_obj_style_apply_color_filter(obj, part, lv_obj_get_style_prop(obj, par
 454:..\..\..\arduinoLCD\test\Pain Drain\libraries\lvgl\src\widgets\../core/lv_obj_style_gen.h ****     return v.color;
 455:..\..\..\arduinoLCD\test\Pain Drain\libraries\lvgl\src\widgets\../core/lv_obj_style_gen.h **** }
 456:..\..\..\arduinoLCD\test\Pain Drain\libraries\lvgl\src\widgets\../core/lv_obj_style_gen.h **** 
 457:..\..\..\arduinoLCD\test\Pain Drain\libraries\lvgl\src\widgets\../core/lv_obj_style_gen.h **** static inline lv_opa_t lv_obj_get_style_text_opa(const struct _lv_obj_t * obj, uint32_t part)
 458:..\..\..\arduinoLCD\test\Pain Drain\libraries\lvgl\src\widgets\../core/lv_obj_style_gen.h **** {
 459:..\..\..\arduinoLCD\test\Pain Drain\libraries\lvgl\src\widgets\../core/lv_obj_style_gen.h ****     lv_style_value_t v = lv_obj_get_style_prop(obj, part, LV_STYLE_TEXT_OPA);
 460:..\..\..\arduinoLCD\test\Pain Drain\libraries\lvgl\src\widgets\../core/lv_obj_style_gen.h ****     return (lv_opa_t)v.num;
 461:..\..\..\arduinoLCD\test\Pain Drain\libraries\lvgl\src\widgets\../core/lv_obj_style_gen.h **** }
 462:..\..\..\arduinoLCD\test\Pain Drain\libraries\lvgl\src\widgets\../core/lv_obj_style_gen.h **** 
 463:..\..\..\arduinoLCD\test\Pain Drain\libraries\lvgl\src\widgets\../core/lv_obj_style_gen.h **** static inline const lv_font_t * lv_obj_get_style_text_font(const struct _lv_obj_t * obj, uint32_t p
 464:..\..\..\arduinoLCD\test\Pain Drain\libraries\lvgl\src\widgets\../core/lv_obj_style_gen.h **** {
 465:..\..\..\arduinoLCD\test\Pain Drain\libraries\lvgl\src\widgets\../core/lv_obj_style_gen.h ****     lv_style_value_t v = lv_obj_get_style_prop(obj, part, LV_STYLE_TEXT_FONT);
 106              		.loc 2 465 0
 107 000e 8027     		movs	r7, #128
 108 0010 FF02     		lsls	r7, r7, #11
 109 0012 5722     		movs	r2, #87
 110 0014 3900     		movs	r1, r7
ARM GAS  C:\Users\haske\AppData\Local\Temp\ccRPH14P.s 			page 25


 111 0016 2000     		movs	r0, r4
 112              	.LVL9:
 113 0018 FFF7FEFF 		bl	lv_obj_get_style_prop
 114              	.LVL10:
 115 001c 0600     		movs	r6, r0
 116              	.LVL11:
 117              	.LBE75:
 118              	.LBE74:
 119              	.LBB76:
 120              	.LBB77:
 466:..\..\..\arduinoLCD\test\Pain Drain\libraries\lvgl\src\widgets\../core/lv_obj_style_gen.h ****     return (const lv_font_t *)v.ptr;
 467:..\..\..\arduinoLCD\test\Pain Drain\libraries\lvgl\src\widgets\../core/lv_obj_style_gen.h **** }
 468:..\..\..\arduinoLCD\test\Pain Drain\libraries\lvgl\src\widgets\../core/lv_obj_style_gen.h **** 
 469:..\..\..\arduinoLCD\test\Pain Drain\libraries\lvgl\src\widgets\../core/lv_obj_style_gen.h **** static inline lv_coord_t lv_obj_get_style_text_letter_space(const struct _lv_obj_t * obj, uint32_t 
 470:..\..\..\arduinoLCD\test\Pain Drain\libraries\lvgl\src\widgets\../core/lv_obj_style_gen.h **** {
 471:..\..\..\arduinoLCD\test\Pain Drain\libraries\lvgl\src\widgets\../core/lv_obj_style_gen.h ****     lv_style_value_t v = lv_obj_get_style_prop(obj, part, LV_STYLE_TEXT_LETTER_SPACE);
 121              		.loc 2 471 0
 122 001e 5822     		movs	r2, #88
 123 0020 3900     		movs	r1, r7
 124 0022 2000     		movs	r0, r4
 125 0024 FFF7FEFF 		bl	lv_obj_get_style_prop
 126              	.LVL12:
 472:..\..\..\arduinoLCD\test\Pain Drain\libraries\lvgl\src\widgets\../core/lv_obj_style_gen.h ****     return (lv_coord_t)v.num;
 127              		.loc 2 472 0
 128 0028 04B2     		sxth	r4, r0
 129              	.LVL13:
 130              	.LBE77:
 131              	.LBE76:
 771:..\..\..\arduinoLCD\test\Pain Drain\libraries\lvgl\src\widgets/lv_roller.c ****     lv_point_t size;
 132              		.loc 1 771 0
 133 002a 2800     		movs	r0, r5
 134 002c FFF7FEFF 		bl	lv_label_get_text
 135              	.LVL14:
 136 0030 0100     		movs	r1, r0
 137              	.LVL15:
 773:..\..\..\arduinoLCD\test\Pain Drain\libraries\lvgl\src\widgets/lv_roller.c ****     return size.x;
 138              		.loc 1 773 0
 139 0032 05AD     		add	r5, sp, #20
 140              	.LVL16:
 141 0034 0023     		movs	r3, #0
 142 0036 0293     		str	r3, [sp, #8]
 143 0038 064A     		ldr	r2, .L6
 144 003a 0192     		str	r2, [sp, #4]
 145 003c 0093     		str	r3, [sp]
 146 003e 2300     		movs	r3, r4
 147              	.LVL17:
 148 0040 3200     		movs	r2, r6
 149 0042 2800     		movs	r0, r5
 150              	.LVL18:
 151 0044 FFF7FEFF 		bl	lv_txt_get_size
 152              	.LVL19:
 774:..\..\..\arduinoLCD\test\Pain Drain\libraries\lvgl\src\widgets/lv_roller.c **** }
 153              		.loc 1 774 0
 154 0048 0023     		movs	r3, #0
 155 004a E85E     		ldrsh	r0, [r5, r3]
 156 004c 00E0     		b	.L4
 157              	.LVL20:
ARM GAS  C:\Users\haske\AppData\Local\Temp\ccRPH14P.s 			page 26


 158              	.L5:
 767:..\..\..\arduinoLCD\test\Pain Drain\libraries\lvgl\src\widgets/lv_roller.c **** 
 159              		.loc 1 767 0
 160 004e 0020     		movs	r0, #0
 161              	.LVL21:
 162              	.L4:
 775:..\..\..\arduinoLCD\test\Pain Drain\libraries\lvgl\src\widgets/lv_roller.c **** 
 163              		.loc 1 775 0
 164 0050 07B0     		add	sp, sp, #28
 165              		@ sp needed
 166              	.LVL22:
 167 0052 F0BD     		pop	{r4, r5, r6, r7, pc}
 168              	.L7:
 169              		.align	2
 170              	.L6:
 171 0054 FF1F0000 		.word	8191
 172              		.cfi_endproc
 173              	.LFE177:
 174              		.size	get_selected_label_width, .-get_selected_label_width
 175              		.global	__aeabi_uidiv
 176              		.global	__aeabi_uidivmod
 177              		.section	.text.inf_normalize,"ax",%progbits
 178              		.align	2
 179              		.code	16
 180              		.thumb_func
 181              		.type	inf_normalize, %function
 182              	inf_normalize:
 183              	.LFB175:
 731:..\..\..\arduinoLCD\test\Pain Drain\libraries\lvgl\src\widgets/lv_roller.c ****     lv_roller_t * roller = (lv_roller_t *)obj;
 184              		.loc 1 731 0
 185              		.cfi_startproc
 186              		@ args = 0, pretend = 0, frame = 0
 187              		@ frame_needed = 0, uses_anonymous_args = 0
 188              	.LVL23:
 189 0000 F8B5     		push	{r3, r4, r5, r6, r7, lr}
 190              		.cfi_def_cfa_offset 24
 191              		.cfi_offset 3, -24
 192              		.cfi_offset 4, -20
 193              		.cfi_offset 5, -16
 194              		.cfi_offset 6, -12
 195              		.cfi_offset 7, -8
 196              		.cfi_offset 14, -4
 197 0002 0500     		movs	r5, r0
 198              	.LVL24:
 734:..\..\..\arduinoLCD\test\Pain Drain\libraries\lvgl\src\widgets/lv_roller.c ****         uint16_t real_id_cnt = roller->option_cnt / LV_ROLLER_INF_PAGES;
 199              		.loc 1 734 0
 200 0004 2A23     		movs	r3, #42
 201 0006 C35C     		ldrb	r3, [r0, r3]
 202 0008 DB07     		lsls	r3, r3, #31
 203 000a 3AD5     		bpl	.L8
 204              	.LBB78:
 735:..\..\..\arduinoLCD\test\Pain Drain\libraries\lvgl\src\widgets/lv_roller.c ****         roller->sel_opt_id = roller->sel_opt_id % real_id_cnt;
 205              		.loc 1 735 0
 206 000c 808C     		ldrh	r0, [r0, #36]
 207              	.LVL25:
 208 000e 0721     		movs	r1, #7
 209 0010 FFF7FEFF 		bl	__aeabi_uidiv
ARM GAS  C:\Users\haske\AppData\Local\Temp\ccRPH14P.s 			page 27


 210              	.LVL26:
 211 0014 86B2     		uxth	r6, r0
 212              	.LVL27:
 736:..\..\..\arduinoLCD\test\Pain Drain\libraries\lvgl\src\widgets/lv_roller.c ****         roller->sel_opt_id += (LV_ROLLER_INF_PAGES / 2) * real_id_cnt; /*Select the middle page*/
 213              		.loc 1 736 0
 214 0016 E88C     		ldrh	r0, [r5, #38]
 215 0018 3100     		movs	r1, r6
 216 001a FFF7FEFF 		bl	__aeabi_uidivmod
 217              	.LVL28:
 218 001e 88B2     		uxth	r0, r1
 737:..\..\..\arduinoLCD\test\Pain Drain\libraries\lvgl\src\widgets/lv_roller.c **** 
 219              		.loc 1 737 0
 220 0020 7400     		lsls	r4, r6, #1
 221 0022 3419     		adds	r4, r6, r4
 222 0024 A4B2     		uxth	r4, r4
 223 0026 0119     		adds	r1, r0, r4
 224 0028 88B2     		uxth	r0, r1
 225 002a E884     		strh	r0, [r5, #38]
 739:..\..\..\arduinoLCD\test\Pain Drain\libraries\lvgl\src\widgets/lv_roller.c ****         roller->sel_opt_id_ori += (LV_ROLLER_INF_PAGES / 2) * real_id_cnt; /*Select the middle page
 226              		.loc 1 739 0
 227 002c 3100     		movs	r1, r6
 228 002e FFF7FEFF 		bl	__aeabi_uidivmod
 229              	.LVL29:
 230 0032 89B2     		uxth	r1, r1
 740:..\..\..\arduinoLCD\test\Pain Drain\libraries\lvgl\src\widgets/lv_roller.c **** 
 231              		.loc 1 740 0
 232 0034 6418     		adds	r4, r4, r1
 233 0036 2C85     		strh	r4, [r5, #40]
 234              	.LVL30:
 235              	.LBB79:
 236              	.LBB80:
 465:..\..\..\arduinoLCD\test\Pain Drain\libraries\lvgl\src\widgets\../core/lv_obj_style_gen.h ****     return (const lv_font_t *)v.ptr;
 237              		.loc 2 465 0
 238 0038 5722     		movs	r2, #87
 239 003a 0021     		movs	r1, #0
 240 003c 2800     		movs	r0, r5
 241 003e FFF7FEFF 		bl	lv_obj_get_style_prop
 242              	.LVL31:
 243 0042 0400     		movs	r4, r0
 244              	.LVL32:
 245              	.LBE80:
 246              	.LBE79:
 247              	.LBB81:
 248              	.LBB82:
 473:..\..\..\arduinoLCD\test\Pain Drain\libraries\lvgl\src\widgets\../core/lv_obj_style_gen.h **** }
 474:..\..\..\arduinoLCD\test\Pain Drain\libraries\lvgl\src\widgets\../core/lv_obj_style_gen.h **** 
 475:..\..\..\arduinoLCD\test\Pain Drain\libraries\lvgl\src\widgets\../core/lv_obj_style_gen.h **** static inline lv_coord_t lv_obj_get_style_text_line_space(const struct _lv_obj_t * obj, uint32_t pa
 476:..\..\..\arduinoLCD\test\Pain Drain\libraries\lvgl\src\widgets\../core/lv_obj_style_gen.h **** {
 477:..\..\..\arduinoLCD\test\Pain Drain\libraries\lvgl\src\widgets\../core/lv_obj_style_gen.h ****     lv_style_value_t v = lv_obj_get_style_prop(obj, part, LV_STYLE_TEXT_LINE_SPACE);
 249              		.loc 2 477 0
 250 0044 5922     		movs	r2, #89
 251 0046 0021     		movs	r1, #0
 252 0048 2800     		movs	r0, r5
 253 004a FFF7FEFF 		bl	lv_obj_get_style_prop
 254              	.LVL33:
 478:..\..\..\arduinoLCD\test\Pain Drain\libraries\lvgl\src\widgets\../core/lv_obj_style_gen.h ****     return (lv_coord_t)v.num;
 255              		.loc 2 478 0
ARM GAS  C:\Users\haske\AppData\Local\Temp\ccRPH14P.s 			page 28


 256 004e 06B2     		sxth	r6, r0
 257              	.LVL34:
 258              	.LBE82:
 259              	.LBE81:
 260              	.LBB83:
 261              	.LBB84:
 262              		.file 3 "c:\\projects\\paindrain\\arduinolcd\\test\\pain drain\\libraries\\lvgl\\src\\font\\lv_fon
   1:c:\projects\paindrain\arduinolcd\test\pain drain\libraries\lvgl\src\font\lv_font.h **** /**
   2:c:\projects\paindrain\arduinolcd\test\pain drain\libraries\lvgl\src\font\lv_font.h ****  * @file lv_font.h
   3:c:\projects\paindrain\arduinolcd\test\pain drain\libraries\lvgl\src\font\lv_font.h ****  *
   4:c:\projects\paindrain\arduinolcd\test\pain drain\libraries\lvgl\src\font\lv_font.h ****  */
   5:c:\projects\paindrain\arduinolcd\test\pain drain\libraries\lvgl\src\font\lv_font.h **** 
   6:c:\projects\paindrain\arduinolcd\test\pain drain\libraries\lvgl\src\font\lv_font.h **** #ifndef LV_FONT_H
   7:c:\projects\paindrain\arduinolcd\test\pain drain\libraries\lvgl\src\font\lv_font.h **** #define LV_FONT_H
   8:c:\projects\paindrain\arduinolcd\test\pain drain\libraries\lvgl\src\font\lv_font.h **** 
   9:c:\projects\paindrain\arduinolcd\test\pain drain\libraries\lvgl\src\font\lv_font.h **** #ifdef __cplusplus
  10:c:\projects\paindrain\arduinolcd\test\pain drain\libraries\lvgl\src\font\lv_font.h **** extern "C" {
  11:c:\projects\paindrain\arduinolcd\test\pain drain\libraries\lvgl\src\font\lv_font.h **** #endif
  12:c:\projects\paindrain\arduinolcd\test\pain drain\libraries\lvgl\src\font\lv_font.h **** 
  13:c:\projects\paindrain\arduinolcd\test\pain drain\libraries\lvgl\src\font\lv_font.h **** /*********************
  14:c:\projects\paindrain\arduinolcd\test\pain drain\libraries\lvgl\src\font\lv_font.h ****  *      INCLUDES
  15:c:\projects\paindrain\arduinolcd\test\pain drain\libraries\lvgl\src\font\lv_font.h ****  *********************/
  16:c:\projects\paindrain\arduinolcd\test\pain drain\libraries\lvgl\src\font\lv_font.h **** #include "../lv_conf_internal.h"
  17:c:\projects\paindrain\arduinolcd\test\pain drain\libraries\lvgl\src\font\lv_font.h **** #include <stdint.h>
  18:c:\projects\paindrain\arduinolcd\test\pain drain\libraries\lvgl\src\font\lv_font.h **** #include <stddef.h>
  19:c:\projects\paindrain\arduinolcd\test\pain drain\libraries\lvgl\src\font\lv_font.h **** #include <stdbool.h>
  20:c:\projects\paindrain\arduinolcd\test\pain drain\libraries\lvgl\src\font\lv_font.h **** 
  21:c:\projects\paindrain\arduinolcd\test\pain drain\libraries\lvgl\src\font\lv_font.h **** #include "lv_symbol_def.h"
  22:c:\projects\paindrain\arduinolcd\test\pain drain\libraries\lvgl\src\font\lv_font.h **** #include "../misc/lv_area.h"
  23:c:\projects\paindrain\arduinolcd\test\pain drain\libraries\lvgl\src\font\lv_font.h **** 
  24:c:\projects\paindrain\arduinolcd\test\pain drain\libraries\lvgl\src\font\lv_font.h **** /*********************
  25:c:\projects\paindrain\arduinolcd\test\pain drain\libraries\lvgl\src\font\lv_font.h ****  *      DEFINES
  26:c:\projects\paindrain\arduinolcd\test\pain drain\libraries\lvgl\src\font\lv_font.h ****  *********************/
  27:c:\projects\paindrain\arduinolcd\test\pain drain\libraries\lvgl\src\font\lv_font.h **** 
  28:c:\projects\paindrain\arduinolcd\test\pain drain\libraries\lvgl\src\font\lv_font.h **** /* imgfont identifier */
  29:c:\projects\paindrain\arduinolcd\test\pain drain\libraries\lvgl\src\font\lv_font.h **** #define LV_IMGFONT_BPP 9
  30:c:\projects\paindrain\arduinolcd\test\pain drain\libraries\lvgl\src\font\lv_font.h **** 
  31:c:\projects\paindrain\arduinolcd\test\pain drain\libraries\lvgl\src\font\lv_font.h **** /**********************
  32:c:\projects\paindrain\arduinolcd\test\pain drain\libraries\lvgl\src\font\lv_font.h ****  *      TYPEDEFS
  33:c:\projects\paindrain\arduinolcd\test\pain drain\libraries\lvgl\src\font\lv_font.h ****  **********************/
  34:c:\projects\paindrain\arduinolcd\test\pain drain\libraries\lvgl\src\font\lv_font.h **** 
  35:c:\projects\paindrain\arduinolcd\test\pain drain\libraries\lvgl\src\font\lv_font.h **** /*------------------
  36:c:\projects\paindrain\arduinolcd\test\pain drain\libraries\lvgl\src\font\lv_font.h ****  * General types
  37:c:\projects\paindrain\arduinolcd\test\pain drain\libraries\lvgl\src\font\lv_font.h ****  *-----------------*/
  38:c:\projects\paindrain\arduinolcd\test\pain drain\libraries\lvgl\src\font\lv_font.h **** 
  39:c:\projects\paindrain\arduinolcd\test\pain drain\libraries\lvgl\src\font\lv_font.h **** struct _lv_font_t;
  40:c:\projects\paindrain\arduinolcd\test\pain drain\libraries\lvgl\src\font\lv_font.h **** /** Describes the properties of a glyph.*/
  41:c:\projects\paindrain\arduinolcd\test\pain drain\libraries\lvgl\src\font\lv_font.h **** typedef struct {
  42:c:\projects\paindrain\arduinolcd\test\pain drain\libraries\lvgl\src\font\lv_font.h ****     const struct _lv_font_t *
  43:c:\projects\paindrain\arduinolcd\test\pain drain\libraries\lvgl\src\font\lv_font.h ****         resolved_font; /**< Pointer to a font where the glyph was actually found after handling fal
  44:c:\projects\paindrain\arduinolcd\test\pain drain\libraries\lvgl\src\font\lv_font.h ****     uint16_t adv_w; /**< The glyph needs this space. Draw the next glyph after this width.*/
  45:c:\projects\paindrain\arduinolcd\test\pain drain\libraries\lvgl\src\font\lv_font.h ****     uint16_t box_w; /**< Width of the glyph's bounding box*/
  46:c:\projects\paindrain\arduinolcd\test\pain drain\libraries\lvgl\src\font\lv_font.h ****     uint16_t box_h; /**< Height of the glyph's bounding box*/
  47:c:\projects\paindrain\arduinolcd\test\pain drain\libraries\lvgl\src\font\lv_font.h ****     int16_t ofs_x;  /**< x offset of the bounding box*/
  48:c:\projects\paindrain\arduinolcd\test\pain drain\libraries\lvgl\src\font\lv_font.h ****     int16_t ofs_y;  /**< y offset of the bounding box*/
  49:c:\projects\paindrain\arduinolcd\test\pain drain\libraries\lvgl\src\font\lv_font.h ****     uint8_t bpp: 4;  /**< Bit-per-pixel: 1, 2, 4, 8*/
  50:c:\projects\paindrain\arduinolcd\test\pain drain\libraries\lvgl\src\font\lv_font.h ****     uint8_t is_placeholder: 1; /** Glyph is missing. But placeholder will still be displayed */
ARM GAS  C:\Users\haske\AppData\Local\Temp\ccRPH14P.s 			page 29


  51:c:\projects\paindrain\arduinolcd\test\pain drain\libraries\lvgl\src\font\lv_font.h **** } lv_font_glyph_dsc_t;
  52:c:\projects\paindrain\arduinolcd\test\pain drain\libraries\lvgl\src\font\lv_font.h **** 
  53:c:\projects\paindrain\arduinolcd\test\pain drain\libraries\lvgl\src\font\lv_font.h **** /** The bitmaps might be upscaled by 3 to achieve subpixel rendering.*/
  54:c:\projects\paindrain\arduinolcd\test\pain drain\libraries\lvgl\src\font\lv_font.h **** enum {
  55:c:\projects\paindrain\arduinolcd\test\pain drain\libraries\lvgl\src\font\lv_font.h ****     LV_FONT_SUBPX_NONE,
  56:c:\projects\paindrain\arduinolcd\test\pain drain\libraries\lvgl\src\font\lv_font.h ****     LV_FONT_SUBPX_HOR,
  57:c:\projects\paindrain\arduinolcd\test\pain drain\libraries\lvgl\src\font\lv_font.h ****     LV_FONT_SUBPX_VER,
  58:c:\projects\paindrain\arduinolcd\test\pain drain\libraries\lvgl\src\font\lv_font.h ****     LV_FONT_SUBPX_BOTH,
  59:c:\projects\paindrain\arduinolcd\test\pain drain\libraries\lvgl\src\font\lv_font.h **** };
  60:c:\projects\paindrain\arduinolcd\test\pain drain\libraries\lvgl\src\font\lv_font.h **** 
  61:c:\projects\paindrain\arduinolcd\test\pain drain\libraries\lvgl\src\font\lv_font.h **** typedef uint8_t lv_font_subpx_t;
  62:c:\projects\paindrain\arduinolcd\test\pain drain\libraries\lvgl\src\font\lv_font.h **** 
  63:c:\projects\paindrain\arduinolcd\test\pain drain\libraries\lvgl\src\font\lv_font.h **** /** Describe the properties of a font*/
  64:c:\projects\paindrain\arduinolcd\test\pain drain\libraries\lvgl\src\font\lv_font.h **** typedef struct _lv_font_t {
  65:c:\projects\paindrain\arduinolcd\test\pain drain\libraries\lvgl\src\font\lv_font.h ****     /** Get a glyph's descriptor from a font*/
  66:c:\projects\paindrain\arduinolcd\test\pain drain\libraries\lvgl\src\font\lv_font.h ****     bool (*get_glyph_dsc)(const struct _lv_font_t *, lv_font_glyph_dsc_t *, uint32_t letter, uint32
  67:c:\projects\paindrain\arduinolcd\test\pain drain\libraries\lvgl\src\font\lv_font.h **** 
  68:c:\projects\paindrain\arduinolcd\test\pain drain\libraries\lvgl\src\font\lv_font.h ****     /** Get a glyph's bitmap from a font*/
  69:c:\projects\paindrain\arduinolcd\test\pain drain\libraries\lvgl\src\font\lv_font.h ****     const uint8_t * (*get_glyph_bitmap)(const struct _lv_font_t *, uint32_t);
  70:c:\projects\paindrain\arduinolcd\test\pain drain\libraries\lvgl\src\font\lv_font.h **** 
  71:c:\projects\paindrain\arduinolcd\test\pain drain\libraries\lvgl\src\font\lv_font.h ****     /*Pointer to the font in a font pack (must have the same line height)*/
  72:c:\projects\paindrain\arduinolcd\test\pain drain\libraries\lvgl\src\font\lv_font.h ****     lv_coord_t line_height;         /**< The real line height where any text fits*/
  73:c:\projects\paindrain\arduinolcd\test\pain drain\libraries\lvgl\src\font\lv_font.h ****     lv_coord_t base_line;           /**< Base line measured from the top of the line_height*/
  74:c:\projects\paindrain\arduinolcd\test\pain drain\libraries\lvgl\src\font\lv_font.h ****     uint8_t subpx  : 2;             /**< An element of `lv_font_subpx_t`*/
  75:c:\projects\paindrain\arduinolcd\test\pain drain\libraries\lvgl\src\font\lv_font.h **** 
  76:c:\projects\paindrain\arduinolcd\test\pain drain\libraries\lvgl\src\font\lv_font.h ****     int8_t underline_position;      /**< Distance between the top of the underline and base line (<
  77:c:\projects\paindrain\arduinolcd\test\pain drain\libraries\lvgl\src\font\lv_font.h ****     int8_t underline_thickness;     /**< Thickness of the underline*/
  78:c:\projects\paindrain\arduinolcd\test\pain drain\libraries\lvgl\src\font\lv_font.h **** 
  79:c:\projects\paindrain\arduinolcd\test\pain drain\libraries\lvgl\src\font\lv_font.h ****     const void * dsc;               /**< Store implementation specific or run_time data or caching 
  80:c:\projects\paindrain\arduinolcd\test\pain drain\libraries\lvgl\src\font\lv_font.h ****     const struct _lv_font_t * fallback;   /**< Fallback font for missing glyph. Resolved recursivel
  81:c:\projects\paindrain\arduinolcd\test\pain drain\libraries\lvgl\src\font\lv_font.h **** #if LV_USE_USER_DATA
  82:c:\projects\paindrain\arduinolcd\test\pain drain\libraries\lvgl\src\font\lv_font.h ****     void * user_data;               /**< Custom user data for font.*/
  83:c:\projects\paindrain\arduinolcd\test\pain drain\libraries\lvgl\src\font\lv_font.h **** #endif
  84:c:\projects\paindrain\arduinolcd\test\pain drain\libraries\lvgl\src\font\lv_font.h **** } lv_font_t;
  85:c:\projects\paindrain\arduinolcd\test\pain drain\libraries\lvgl\src\font\lv_font.h **** 
  86:c:\projects\paindrain\arduinolcd\test\pain drain\libraries\lvgl\src\font\lv_font.h **** /**********************
  87:c:\projects\paindrain\arduinolcd\test\pain drain\libraries\lvgl\src\font\lv_font.h ****  * GLOBAL PROTOTYPES
  88:c:\projects\paindrain\arduinolcd\test\pain drain\libraries\lvgl\src\font\lv_font.h ****  **********************/
  89:c:\projects\paindrain\arduinolcd\test\pain drain\libraries\lvgl\src\font\lv_font.h **** 
  90:c:\projects\paindrain\arduinolcd\test\pain drain\libraries\lvgl\src\font\lv_font.h **** /**
  91:c:\projects\paindrain\arduinolcd\test\pain drain\libraries\lvgl\src\font\lv_font.h ****  * Return with the bitmap of a font.
  92:c:\projects\paindrain\arduinolcd\test\pain drain\libraries\lvgl\src\font\lv_font.h ****  * @param font_p pointer to a font
  93:c:\projects\paindrain\arduinolcd\test\pain drain\libraries\lvgl\src\font\lv_font.h ****  * @param letter a UNICODE character code
  94:c:\projects\paindrain\arduinolcd\test\pain drain\libraries\lvgl\src\font\lv_font.h ****  * @return pointer to the bitmap of the letter
  95:c:\projects\paindrain\arduinolcd\test\pain drain\libraries\lvgl\src\font\lv_font.h ****  */
  96:c:\projects\paindrain\arduinolcd\test\pain drain\libraries\lvgl\src\font\lv_font.h **** const uint8_t * lv_font_get_glyph_bitmap(const lv_font_t * font_p, uint32_t letter);
  97:c:\projects\paindrain\arduinolcd\test\pain drain\libraries\lvgl\src\font\lv_font.h **** 
  98:c:\projects\paindrain\arduinolcd\test\pain drain\libraries\lvgl\src\font\lv_font.h **** /**
  99:c:\projects\paindrain\arduinolcd\test\pain drain\libraries\lvgl\src\font\lv_font.h ****  * Get the descriptor of a glyph
 100:c:\projects\paindrain\arduinolcd\test\pain drain\libraries\lvgl\src\font\lv_font.h ****  * @param font_p pointer to font
 101:c:\projects\paindrain\arduinolcd\test\pain drain\libraries\lvgl\src\font\lv_font.h ****  * @param dsc_out store the result descriptor here
 102:c:\projects\paindrain\arduinolcd\test\pain drain\libraries\lvgl\src\font\lv_font.h ****  * @param letter a UNICODE letter code
 103:c:\projects\paindrain\arduinolcd\test\pain drain\libraries\lvgl\src\font\lv_font.h ****  * @param letter_next the next letter after `letter`. Used for kerning
 104:c:\projects\paindrain\arduinolcd\test\pain drain\libraries\lvgl\src\font\lv_font.h ****  * @return true: descriptor is successfully loaded into `dsc_out`.
 105:c:\projects\paindrain\arduinolcd\test\pain drain\libraries\lvgl\src\font\lv_font.h ****  *         false: the letter was not found, no data is loaded to `dsc_out`
 106:c:\projects\paindrain\arduinolcd\test\pain drain\libraries\lvgl\src\font\lv_font.h ****  */
 107:c:\projects\paindrain\arduinolcd\test\pain drain\libraries\lvgl\src\font\lv_font.h **** bool lv_font_get_glyph_dsc(const lv_font_t * font_p, lv_font_glyph_dsc_t * dsc_out, uint32_t letter
ARM GAS  C:\Users\haske\AppData\Local\Temp\ccRPH14P.s 			page 30


 108:c:\projects\paindrain\arduinolcd\test\pain drain\libraries\lvgl\src\font\lv_font.h ****                            uint32_t letter_next);
 109:c:\projects\paindrain\arduinolcd\test\pain drain\libraries\lvgl\src\font\lv_font.h **** 
 110:c:\projects\paindrain\arduinolcd\test\pain drain\libraries\lvgl\src\font\lv_font.h **** /**
 111:c:\projects\paindrain\arduinolcd\test\pain drain\libraries\lvgl\src\font\lv_font.h ****  * Get the width of a glyph with kerning
 112:c:\projects\paindrain\arduinolcd\test\pain drain\libraries\lvgl\src\font\lv_font.h ****  * @param font pointer to a font
 113:c:\projects\paindrain\arduinolcd\test\pain drain\libraries\lvgl\src\font\lv_font.h ****  * @param letter a UNICODE letter
 114:c:\projects\paindrain\arduinolcd\test\pain drain\libraries\lvgl\src\font\lv_font.h ****  * @param letter_next the next letter after `letter`. Used for kerning
 115:c:\projects\paindrain\arduinolcd\test\pain drain\libraries\lvgl\src\font\lv_font.h ****  * @return the width of the glyph
 116:c:\projects\paindrain\arduinolcd\test\pain drain\libraries\lvgl\src\font\lv_font.h ****  */
 117:c:\projects\paindrain\arduinolcd\test\pain drain\libraries\lvgl\src\font\lv_font.h **** uint16_t lv_font_get_glyph_width(const lv_font_t * font, uint32_t letter, uint32_t letter_next);
 118:c:\projects\paindrain\arduinolcd\test\pain drain\libraries\lvgl\src\font\lv_font.h **** 
 119:c:\projects\paindrain\arduinolcd\test\pain drain\libraries\lvgl\src\font\lv_font.h **** /**
 120:c:\projects\paindrain\arduinolcd\test\pain drain\libraries\lvgl\src\font\lv_font.h ****  * Get the line height of a font. All characters fit into this height
 121:c:\projects\paindrain\arduinolcd\test\pain drain\libraries\lvgl\src\font\lv_font.h ****  * @param font_p pointer to a font
 122:c:\projects\paindrain\arduinolcd\test\pain drain\libraries\lvgl\src\font\lv_font.h ****  * @return the height of a font
 123:c:\projects\paindrain\arduinolcd\test\pain drain\libraries\lvgl\src\font\lv_font.h ****  */
 124:c:\projects\paindrain\arduinolcd\test\pain drain\libraries\lvgl\src\font\lv_font.h **** static inline lv_coord_t lv_font_get_line_height(const lv_font_t * font_p)
 125:c:\projects\paindrain\arduinolcd\test\pain drain\libraries\lvgl\src\font\lv_font.h **** {
 126:c:\projects\paindrain\arduinolcd\test\pain drain\libraries\lvgl\src\font\lv_font.h ****     return font_p->line_height;
 263              		.loc 3 126 0
 264 0050 0823     		movs	r3, #8
 265 0052 E75E     		ldrsh	r7, [r4, r3]
 266              	.LBE84:
 267              	.LBE83:
 746:..\..\..\arduinoLCD\test\Pain Drain\libraries\lvgl\src\widgets/lv_roller.c **** 
 268              		.loc 1 746 0
 269 0054 2800     		movs	r0, r5
 270 0056 FFF7FEFF 		bl	lv_obj_get_content_height
 271              	.LVL35:
 272 005a 0400     		movs	r4, r0
 273              	.LVL36:
 748:..\..\..\arduinoLCD\test\Pain Drain\libraries\lvgl\src\widgets/lv_roller.c **** 
 274              		.loc 1 748 0
 275 005c 2800     		movs	r0, r5
 276 005e FFF7FEFF 		bl	get_label
 277              	.LVL37:
 751:..\..\..\arduinoLCD\test\Pain Drain\libraries\lvgl\src\widgets/lv_roller.c ****         lv_coord_t mid_y1 = h / 2 - font_h / 2;
 278              		.loc 1 751 0
 279 0062 E98C     		ldrh	r1, [r5, #38]
 280 0064 BE19     		adds	r6, r7, r6
 281 0066 4E43     		muls	r6, r1
 282 0068 B6B2     		uxth	r6, r6
 283              	.LVL38:
 752:..\..\..\arduinoLCD\test\Pain Drain\libraries\lvgl\src\widgets/lv_roller.c ****         lv_coord_t new_y = mid_y1 - sel_y1;
 284              		.loc 1 752 0
 285 006a E30F     		lsrs	r3, r4, #31
 286 006c 1C19     		adds	r4, r3, r4
 287              	.LVL39:
 288 006e 6310     		asrs	r3, r4, #1
 289 0070 FC0F     		lsrs	r4, r7, #31
 290 0072 E419     		adds	r4, r4, r7
 291 0074 6410     		asrs	r4, r4, #1
 292 0076 1C1B     		subs	r4, r3, r4
 293 0078 A4B2     		uxth	r4, r4
 294              	.LVL40:
 753:..\..\..\arduinoLCD\test\Pain Drain\libraries\lvgl\src\widgets/lv_roller.c ****         lv_obj_set_y(label, new_y);
 295              		.loc 1 753 0
ARM GAS  C:\Users\haske\AppData\Local\Temp\ccRPH14P.s 			page 31


 296 007a A11B     		subs	r1, r4, r6
 297 007c 09B2     		sxth	r1, r1
 298              	.LVL41:
 754:..\..\..\arduinoLCD\test\Pain Drain\libraries\lvgl\src\widgets/lv_roller.c ****     }
 299              		.loc 1 754 0
 300 007e FFF7FEFF 		bl	lv_obj_set_y
 301              	.LVL42:
 302              	.L8:
 303              	.LBE78:
 756:..\..\..\arduinoLCD\test\Pain Drain\libraries\lvgl\src\widgets/lv_roller.c **** 
 304              		.loc 1 756 0
 305              		@ sp needed
 306              	.LVL43:
 307 0082 F8BD     		pop	{r3, r4, r5, r6, r7, pc}
 308              		.cfi_endproc
 309              	.LFE175:
 310              		.size	inf_normalize, .-inf_normalize
 311              		.section	.text.scroll_anim_ready_cb,"ax",%progbits
 312              		.align	2
 313              		.code	16
 314              		.thumb_func
 315              		.type	scroll_anim_ready_cb, %function
 316              	scroll_anim_ready_cb:
 317              	.LFB178:
 778:..\..\..\arduinoLCD\test\Pain Drain\libraries\lvgl\src\widgets/lv_roller.c ****     lv_obj_t * obj = lv_obj_get_parent(a->var); /*The label is animated*/
 318              		.loc 1 778 0
 319              		.cfi_startproc
 320              		@ args = 0, pretend = 0, frame = 0
 321              		@ frame_needed = 0, uses_anonymous_args = 0
 322              	.LVL44:
 323 0000 10B5     		push	{r4, lr}
 324              		.cfi_def_cfa_offset 8
 325              		.cfi_offset 4, -8
 326              		.cfi_offset 14, -4
 779:..\..\..\arduinoLCD\test\Pain Drain\libraries\lvgl\src\widgets/lv_roller.c ****     inf_normalize(obj);
 327              		.loc 1 779 0
 328 0002 0068     		ldr	r0, [r0]
 329              	.LVL45:
 330 0004 FFF7FEFF 		bl	lv_obj_get_parent
 331              	.LVL46:
 780:..\..\..\arduinoLCD\test\Pain Drain\libraries\lvgl\src\widgets/lv_roller.c **** }
 332              		.loc 1 780 0
 333 0008 FFF7FEFF 		bl	inf_normalize
 334              	.LVL47:
 781:..\..\..\arduinoLCD\test\Pain Drain\libraries\lvgl\src\widgets/lv_roller.c **** 
 335              		.loc 1 781 0
 336              		@ sp needed
 337 000c 10BD     		pop	{r4, pc}
 338              		.cfi_endproc
 339              	.LFE178:
 340              		.size	scroll_anim_ready_cb, .-scroll_anim_ready_cb
 341 000e C046     		.section	.text.refr_position,"ax",%progbits
 342              		.align	2
 343              		.code	16
 344              		.thumb_func
 345              		.type	refr_position, %function
 346              	refr_position:
ARM GAS  C:\Users\haske\AppData\Local\Temp\ccRPH14P.s 			page 32


 347              	.LFB173:
 599:..\..\..\arduinoLCD\test\Pain Drain\libraries\lvgl\src\widgets/lv_roller.c ****     lv_obj_t * label = get_label(obj);
 348              		.loc 1 599 0
 349              		.cfi_startproc
 350              		@ args = 0, pretend = 0, frame = 80
 351              		@ frame_needed = 0, uses_anonymous_args = 0
 352              	.LVL48:
 353 0000 F0B5     		push	{r4, r5, r6, r7, lr}
 354              		.cfi_def_cfa_offset 20
 355              		.cfi_offset 4, -20
 356              		.cfi_offset 5, -16
 357              		.cfi_offset 6, -12
 358              		.cfi_offset 7, -8
 359              		.cfi_offset 14, -4
 360 0002 5F46     		mov	r7, fp
 361 0004 4646     		mov	r6, r8
 362 0006 C0B4     		push	{r6, r7}
 363              		.cfi_def_cfa_offset 28
 364              		.cfi_offset 8, -28
 365              		.cfi_offset 11, -24
 366 0008 95B0     		sub	sp, sp, #84
 367              		.cfi_def_cfa_offset 112
 368 000a 0090     		str	r0, [sp]
 369 000c 8846     		mov	r8, r1
 600:..\..\..\arduinoLCD\test\Pain Drain\libraries\lvgl\src\widgets/lv_roller.c ****     if(label == NULL) return;
 370              		.loc 1 600 0
 371 000e FFF7FEFF 		bl	get_label
 372              	.LVL49:
 373 0012 051E     		subs	r5, r0, #0
 374              	.LVL50:
 601:..\..\..\arduinoLCD\test\Pain Drain\libraries\lvgl\src\widgets/lv_roller.c **** 
 375              		.loc 1 601 0
 376 0014 00D1     		bne	.LCB342
 377 0016 87E0     		b	.L11	@long jump
 378              	.LCB342:
 603:..\..\..\arduinoLCD\test\Pain Drain\libraries\lvgl\src\widgets/lv_roller.c **** 
 379              		.loc 1 603 0
 380 0018 FFF7FEFF 		bl	lv_label_get_text
 381              	.LVL51:
 382 001c 0200     		movs	r2, r0
 383 001e 0021     		movs	r1, #0
 384 0020 2800     		movs	r0, r5
 385 0022 FFF7FEFF 		bl	lv_obj_calculate_style_text_align
 386              	.LVL52:
 605:..\..\..\arduinoLCD\test\Pain Drain\libraries\lvgl\src\widgets/lv_roller.c ****         case LV_TEXT_ALIGN_CENTER:
 387              		.loc 1 605 0
 388 0026 0228     		cmp	r0, #2
 389 0028 04D0     		beq	.L14
 390 002a 0328     		cmp	r0, #3
 391 002c 12D0     		beq	.L15
 392 002e 0128     		cmp	r0, #1
 393 0030 21D1     		bne	.L13
 394 0032 1CE0     		b	.L16
 395              	.L14:
 607:..\..\..\arduinoLCD\test\Pain Drain\libraries\lvgl\src\widgets/lv_roller.c ****             break;
 396              		.loc 1 607 0
 397 0034 0098     		ldr	r0, [sp]
ARM GAS  C:\Users\haske\AppData\Local\Temp\ccRPH14P.s 			page 33


 398              	.LVL53:
 399 0036 FFF7FEFF 		bl	lv_obj_get_content_width
 400              	.LVL54:
 401 003a 0400     		movs	r4, r0
 402 003c 2800     		movs	r0, r5
 403 003e FFF7FEFF 		bl	lv_obj_get_width
 404              	.LVL55:
 405 0042 201A     		subs	r0, r4, r0
 406 0044 C10F     		lsrs	r1, r0, #31
 407 0046 0818     		adds	r0, r1, r0
 408 0048 4010     		asrs	r0, r0, #1
 409 004a 01B2     		sxth	r1, r0
 410 004c 2800     		movs	r0, r5
 411 004e FFF7FEFF 		bl	lv_obj_set_x
 412              	.LVL56:
 608:..\..\..\arduinoLCD\test\Pain Drain\libraries\lvgl\src\widgets/lv_roller.c ****         case LV_TEXT_ALIGN_RIGHT:
 413              		.loc 1 608 0
 414 0052 10E0     		b	.L13
 415              	.LVL57:
 416              	.L15:
 610:..\..\..\arduinoLCD\test\Pain Drain\libraries\lvgl\src\widgets/lv_roller.c ****             break;
 417              		.loc 1 610 0
 418 0054 0098     		ldr	r0, [sp]
 419              	.LVL58:
 420 0056 FFF7FEFF 		bl	lv_obj_get_content_width
 421              	.LVL59:
 422 005a 0400     		movs	r4, r0
 423 005c 2800     		movs	r0, r5
 424 005e FFF7FEFF 		bl	lv_obj_get_width
 425              	.LVL60:
 426 0062 211A     		subs	r1, r4, r0
 427 0064 09B2     		sxth	r1, r1
 428 0066 2800     		movs	r0, r5
 429 0068 FFF7FEFF 		bl	lv_obj_set_x
 430              	.LVL61:
 611:..\..\..\arduinoLCD\test\Pain Drain\libraries\lvgl\src\widgets/lv_roller.c ****         case LV_TEXT_ALIGN_LEFT:
 431              		.loc 1 611 0
 432 006c 03E0     		b	.L13
 433              	.LVL62:
 434              	.L16:
 613:..\..\..\arduinoLCD\test\Pain Drain\libraries\lvgl\src\widgets/lv_roller.c ****             break;
 435              		.loc 1 613 0
 436 006e 0021     		movs	r1, #0
 437 0070 2800     		movs	r0, r5
 438              	.LVL63:
 439 0072 FFF7FEFF 		bl	lv_obj_set_x
 440              	.LVL64:
 441              	.L13:
 442              	.LBB85:
 443              	.LBB86:
 465:..\..\..\arduinoLCD\test\Pain Drain\libraries\lvgl\src\widgets\../core/lv_obj_style_gen.h ****     return (const lv_font_t *)v.ptr;
 444              		.loc 2 465 0
 445 0076 5722     		movs	r2, #87
 446 0078 0021     		movs	r1, #0
 447 007a 009C     		ldr	r4, [sp]
 448 007c 2000     		movs	r0, r4
 449 007e FFF7FEFF 		bl	lv_obj_get_style_prop
ARM GAS  C:\Users\haske\AppData\Local\Temp\ccRPH14P.s 			page 34


 450              	.LVL65:
 451 0082 0600     		movs	r6, r0
 452              	.LVL66:
 453              	.LBE86:
 454              	.LBE85:
 455              	.LBB87:
 456              	.LBB88:
 477:..\..\..\arduinoLCD\test\Pain Drain\libraries\lvgl\src\widgets\../core/lv_obj_style_gen.h ****     return (lv_coord_t)v.num;
 457              		.loc 2 477 0
 458 0084 5922     		movs	r2, #89
 459 0086 0021     		movs	r1, #0
 460 0088 2000     		movs	r0, r4
 461 008a FFF7FEFF 		bl	lv_obj_get_style_prop
 462              	.LVL67:
 463              		.loc 2 478 0
 464 008e 03B2     		sxth	r3, r0
 465 0090 9B46     		mov	fp, r3
 466              	.LVL68:
 467              	.LBE88:
 468              	.LBE87:
 469              	.LBB89:
 470              	.LBB90:
 471              		.loc 3 126 0
 472 0092 0823     		movs	r3, #8
 473 0094 F75E     		ldrsh	r7, [r6, r3]
 474              	.LBE90:
 475              	.LBE89:
 621:..\..\..\arduinoLCD\test\Pain Drain\libraries\lvgl\src\widgets/lv_roller.c ****     uint16_t anim_time             = lv_obj_get_style_anim_time(obj, LV_PART_MAIN);
 476              		.loc 1 621 0
 477 0096 2600     		movs	r6, r4
 478              	.LVL69:
 479 0098 2000     		movs	r0, r4
 480 009a FFF7FEFF 		bl	lv_obj_get_content_height
 481              	.LVL70:
 482 009e 0400     		movs	r4, r0
 483              	.LVL71:
 484              	.LBB91:
 485              	.LBB92:
 479:..\..\..\arduinoLCD\test\Pain Drain\libraries\lvgl\src\widgets\../core/lv_obj_style_gen.h **** }
 480:..\..\..\arduinoLCD\test\Pain Drain\libraries\lvgl\src\widgets\../core/lv_obj_style_gen.h **** 
 481:..\..\..\arduinoLCD\test\Pain Drain\libraries\lvgl\src\widgets\../core/lv_obj_style_gen.h **** static inline lv_text_decor_t lv_obj_get_style_text_decor(const struct _lv_obj_t * obj, uint32_t pa
 482:..\..\..\arduinoLCD\test\Pain Drain\libraries\lvgl\src\widgets\../core/lv_obj_style_gen.h **** {
 483:..\..\..\arduinoLCD\test\Pain Drain\libraries\lvgl\src\widgets\../core/lv_obj_style_gen.h ****     lv_style_value_t v = lv_obj_get_style_prop(obj, part, LV_STYLE_TEXT_DECOR);
 484:..\..\..\arduinoLCD\test\Pain Drain\libraries\lvgl\src\widgets\../core/lv_obj_style_gen.h ****     return (lv_text_decor_t)v.num;
 485:..\..\..\arduinoLCD\test\Pain Drain\libraries\lvgl\src\widgets\../core/lv_obj_style_gen.h **** }
 486:..\..\..\arduinoLCD\test\Pain Drain\libraries\lvgl\src\widgets\../core/lv_obj_style_gen.h **** 
 487:..\..\..\arduinoLCD\test\Pain Drain\libraries\lvgl\src\widgets\../core/lv_obj_style_gen.h **** static inline lv_text_align_t lv_obj_get_style_text_align(const struct _lv_obj_t * obj, uint32_t pa
 488:..\..\..\arduinoLCD\test\Pain Drain\libraries\lvgl\src\widgets\../core/lv_obj_style_gen.h **** {
 489:..\..\..\arduinoLCD\test\Pain Drain\libraries\lvgl\src\widgets\../core/lv_obj_style_gen.h ****     lv_style_value_t v = lv_obj_get_style_prop(obj, part, LV_STYLE_TEXT_ALIGN);
 490:..\..\..\arduinoLCD\test\Pain Drain\libraries\lvgl\src\widgets\../core/lv_obj_style_gen.h ****     return (lv_text_align_t)v.num;
 491:..\..\..\arduinoLCD\test\Pain Drain\libraries\lvgl\src\widgets\../core/lv_obj_style_gen.h **** }
 492:..\..\..\arduinoLCD\test\Pain Drain\libraries\lvgl\src\widgets\../core/lv_obj_style_gen.h **** 
 493:..\..\..\arduinoLCD\test\Pain Drain\libraries\lvgl\src\widgets\../core/lv_obj_style_gen.h **** static inline lv_coord_t lv_obj_get_style_radius(const struct _lv_obj_t * obj, uint32_t part)
 494:..\..\..\arduinoLCD\test\Pain Drain\libraries\lvgl\src\widgets\../core/lv_obj_style_gen.h **** {
 495:..\..\..\arduinoLCD\test\Pain Drain\libraries\lvgl\src\widgets\../core/lv_obj_style_gen.h ****     lv_style_value_t v = lv_obj_get_style_prop(obj, part, LV_STYLE_RADIUS);
 496:..\..\..\arduinoLCD\test\Pain Drain\libraries\lvgl\src\widgets\../core/lv_obj_style_gen.h ****     return (lv_coord_t)v.num;
 497:..\..\..\arduinoLCD\test\Pain Drain\libraries\lvgl\src\widgets\../core/lv_obj_style_gen.h **** }
ARM GAS  C:\Users\haske\AppData\Local\Temp\ccRPH14P.s 			page 35


 498:..\..\..\arduinoLCD\test\Pain Drain\libraries\lvgl\src\widgets\../core/lv_obj_style_gen.h **** 
 499:..\..\..\arduinoLCD\test\Pain Drain\libraries\lvgl\src\widgets\../core/lv_obj_style_gen.h **** static inline bool lv_obj_get_style_clip_corner(const struct _lv_obj_t * obj, uint32_t part)
 500:..\..\..\arduinoLCD\test\Pain Drain\libraries\lvgl\src\widgets\../core/lv_obj_style_gen.h **** {
 501:..\..\..\arduinoLCD\test\Pain Drain\libraries\lvgl\src\widgets\../core/lv_obj_style_gen.h ****     lv_style_value_t v = lv_obj_get_style_prop(obj, part, LV_STYLE_CLIP_CORNER);
 502:..\..\..\arduinoLCD\test\Pain Drain\libraries\lvgl\src\widgets\../core/lv_obj_style_gen.h ****     return (bool)v.num;
 503:..\..\..\arduinoLCD\test\Pain Drain\libraries\lvgl\src\widgets\../core/lv_obj_style_gen.h **** }
 504:..\..\..\arduinoLCD\test\Pain Drain\libraries\lvgl\src\widgets\../core/lv_obj_style_gen.h **** 
 505:..\..\..\arduinoLCD\test\Pain Drain\libraries\lvgl\src\widgets\../core/lv_obj_style_gen.h **** static inline lv_opa_t lv_obj_get_style_opa(const struct _lv_obj_t * obj, uint32_t part)
 506:..\..\..\arduinoLCD\test\Pain Drain\libraries\lvgl\src\widgets\../core/lv_obj_style_gen.h **** {
 507:..\..\..\arduinoLCD\test\Pain Drain\libraries\lvgl\src\widgets\../core/lv_obj_style_gen.h ****     lv_style_value_t v = lv_obj_get_style_prop(obj, part, LV_STYLE_OPA);
 508:..\..\..\arduinoLCD\test\Pain Drain\libraries\lvgl\src\widgets\../core/lv_obj_style_gen.h ****     return (lv_opa_t)v.num;
 509:..\..\..\arduinoLCD\test\Pain Drain\libraries\lvgl\src\widgets\../core/lv_obj_style_gen.h **** }
 510:..\..\..\arduinoLCD\test\Pain Drain\libraries\lvgl\src\widgets\../core/lv_obj_style_gen.h **** 
 511:..\..\..\arduinoLCD\test\Pain Drain\libraries\lvgl\src\widgets\../core/lv_obj_style_gen.h **** static inline const lv_color_filter_dsc_t * lv_obj_get_style_color_filter_dsc(const struct _lv_obj_
 512:..\..\..\arduinoLCD\test\Pain Drain\libraries\lvgl\src\widgets\../core/lv_obj_style_gen.h **** {
 513:..\..\..\arduinoLCD\test\Pain Drain\libraries\lvgl\src\widgets\../core/lv_obj_style_gen.h ****     lv_style_value_t v = lv_obj_get_style_prop(obj, part, LV_STYLE_COLOR_FILTER_DSC);
 514:..\..\..\arduinoLCD\test\Pain Drain\libraries\lvgl\src\widgets\../core/lv_obj_style_gen.h ****     return (const lv_color_filter_dsc_t *)v.ptr;
 515:..\..\..\arduinoLCD\test\Pain Drain\libraries\lvgl\src\widgets\../core/lv_obj_style_gen.h **** }
 516:..\..\..\arduinoLCD\test\Pain Drain\libraries\lvgl\src\widgets\../core/lv_obj_style_gen.h **** 
 517:..\..\..\arduinoLCD\test\Pain Drain\libraries\lvgl\src\widgets\../core/lv_obj_style_gen.h **** static inline lv_opa_t lv_obj_get_style_color_filter_opa(const struct _lv_obj_t * obj, uint32_t par
 518:..\..\..\arduinoLCD\test\Pain Drain\libraries\lvgl\src\widgets\../core/lv_obj_style_gen.h **** {
 519:..\..\..\arduinoLCD\test\Pain Drain\libraries\lvgl\src\widgets\../core/lv_obj_style_gen.h ****     lv_style_value_t v = lv_obj_get_style_prop(obj, part, LV_STYLE_COLOR_FILTER_OPA);
 520:..\..\..\arduinoLCD\test\Pain Drain\libraries\lvgl\src\widgets\../core/lv_obj_style_gen.h ****     return (lv_opa_t)v.num;
 521:..\..\..\arduinoLCD\test\Pain Drain\libraries\lvgl\src\widgets\../core/lv_obj_style_gen.h **** }
 522:..\..\..\arduinoLCD\test\Pain Drain\libraries\lvgl\src\widgets\../core/lv_obj_style_gen.h **** 
 523:..\..\..\arduinoLCD\test\Pain Drain\libraries\lvgl\src\widgets\../core/lv_obj_style_gen.h **** static inline const lv_anim_t * lv_obj_get_style_anim(const struct _lv_obj_t * obj, uint32_t part)
 524:..\..\..\arduinoLCD\test\Pain Drain\libraries\lvgl\src\widgets\../core/lv_obj_style_gen.h **** {
 525:..\..\..\arduinoLCD\test\Pain Drain\libraries\lvgl\src\widgets\../core/lv_obj_style_gen.h ****     lv_style_value_t v = lv_obj_get_style_prop(obj, part, LV_STYLE_ANIM);
 526:..\..\..\arduinoLCD\test\Pain Drain\libraries\lvgl\src\widgets\../core/lv_obj_style_gen.h ****     return (const lv_anim_t *)v.ptr;
 527:..\..\..\arduinoLCD\test\Pain Drain\libraries\lvgl\src\widgets\../core/lv_obj_style_gen.h **** }
 528:..\..\..\arduinoLCD\test\Pain Drain\libraries\lvgl\src\widgets\../core/lv_obj_style_gen.h **** 
 529:..\..\..\arduinoLCD\test\Pain Drain\libraries\lvgl\src\widgets\../core/lv_obj_style_gen.h **** static inline uint32_t lv_obj_get_style_anim_time(const struct _lv_obj_t * obj, uint32_t part)
 530:..\..\..\arduinoLCD\test\Pain Drain\libraries\lvgl\src\widgets\../core/lv_obj_style_gen.h **** {
 531:..\..\..\arduinoLCD\test\Pain Drain\libraries\lvgl\src\widgets\../core/lv_obj_style_gen.h ****     lv_style_value_t v = lv_obj_get_style_prop(obj, part, LV_STYLE_ANIM_TIME);
 486              		.loc 2 531 0
 487 00a0 6422     		movs	r2, #100
 488 00a2 0021     		movs	r1, #0
 489 00a4 3000     		movs	r0, r6
 490 00a6 FFF7FEFF 		bl	lv_obj_get_style_prop
 491              	.LVL72:
 492 00aa 0190     		str	r0, [sp, #4]
 493              	.LVL73:
 494              	.LBE92:
 495              	.LBE91:
 622:..\..\..\arduinoLCD\test\Pain Drain\libraries\lvgl\src\widgets/lv_roller.c **** 
 496              		.loc 1 622 0
 497 00ac 86B2     		uxth	r6, r0
 498              	.LVL74:
 626:..\..\..\arduinoLCD\test\Pain Drain\libraries\lvgl\src\widgets/lv_roller.c ****         inf_normalize(obj);
 499              		.loc 1 626 0
 500 00ae 4346     		mov	r3, r8
 501 00b0 002B     		cmp	r3, #0
 502 00b2 01D0     		beq	.L17
 626:..\..\..\arduinoLCD\test\Pain Drain\libraries\lvgl\src\widgets/lv_roller.c ****         inf_normalize(obj);
 503              		.loc 1 626 0 is_stmt 0 discriminator 1
 504 00b4 002E     		cmp	r6, #0
 505 00b6 02D1     		bne	.L18
ARM GAS  C:\Users\haske\AppData\Local\Temp\ccRPH14P.s 			page 36


 506              	.L17:
 627:..\..\..\arduinoLCD\test\Pain Drain\libraries\lvgl\src\widgets/lv_roller.c ****     }
 507              		.loc 1 627 0 is_stmt 1
 508 00b8 0098     		ldr	r0, [sp]
 509 00ba FFF7FEFF 		bl	inf_normalize
 510              	.LVL75:
 511              	.L18:
 630:..\..\..\arduinoLCD\test\Pain Drain\libraries\lvgl\src\widgets/lv_roller.c ****     lv_coord_t sel_y1 = id * (font_h + line_space);
 512              		.loc 1 630 0
 513 00be 009B     		ldr	r3, [sp]
 514 00c0 DB8C     		ldrh	r3, [r3, #38]
 515              	.LVL76:
 631:..\..\..\arduinoLCD\test\Pain Drain\libraries\lvgl\src\widgets/lv_roller.c ****     lv_coord_t mid_y1 = h / 2 - font_h / 2;
 516              		.loc 1 631 0
 517 00c2 5A46     		mov	r2, fp
 518 00c4 B818     		adds	r0, r7, r2
 519 00c6 5843     		muls	r0, r3
 520 00c8 80B2     		uxth	r0, r0
 521              	.LVL77:
 632:..\..\..\arduinoLCD\test\Pain Drain\libraries\lvgl\src\widgets/lv_roller.c **** 
 522              		.loc 1 632 0
 523 00ca E30F     		lsrs	r3, r4, #31
 524              	.LVL78:
 525 00cc 1C19     		adds	r4, r3, r4
 526              	.LVL79:
 527 00ce 6310     		asrs	r3, r4, #1
 528 00d0 FC0F     		lsrs	r4, r7, #31
 529 00d2 E419     		adds	r4, r4, r7
 530 00d4 6410     		asrs	r4, r4, #1
 531 00d6 1C1B     		subs	r4, r3, r4
 532 00d8 A4B2     		uxth	r4, r4
 533              	.LVL80:
 634:..\..\..\arduinoLCD\test\Pain Drain\libraries\lvgl\src\widgets/lv_roller.c **** 
 534              		.loc 1 634 0
 535 00da 241A     		subs	r4, r4, r0
 536              	.LVL81:
 537 00dc 24B2     		sxth	r4, r4
 538              	.LVL82:
 636:..\..\..\arduinoLCD\test\Pain Drain\libraries\lvgl\src\widgets/lv_roller.c ****         lv_anim_del(label, set_y_anim);
 539              		.loc 1 636 0
 540 00de 4346     		mov	r3, r8
 541              	.LVL83:
 542 00e0 002B     		cmp	r3, #0
 543 00e2 01D0     		beq	.L19
 636:..\..\..\arduinoLCD\test\Pain Drain\libraries\lvgl\src\widgets/lv_roller.c ****         lv_anim_del(label, set_y_anim);
 544              		.loc 1 636 0 is_stmt 0 discriminator 1
 545 00e4 002E     		cmp	r6, #0
 546 00e6 08D1     		bne	.L20
 547              	.L19:
 637:..\..\..\arduinoLCD\test\Pain Drain\libraries\lvgl\src\widgets/lv_roller.c ****         lv_obj_set_y(label, new_y);
 548              		.loc 1 637 0 is_stmt 1
 549 00e8 1249     		ldr	r1, .L21
 550 00ea 2800     		movs	r0, r5
 551              	.LVL84:
 552 00ec FFF7FEFF 		bl	lv_anim_del
 553              	.LVL85:
 638:..\..\..\arduinoLCD\test\Pain Drain\libraries\lvgl\src\widgets/lv_roller.c ****     }
ARM GAS  C:\Users\haske\AppData\Local\Temp\ccRPH14P.s 			page 37


 554              		.loc 1 638 0
 555 00f0 2100     		movs	r1, r4
 556 00f2 2800     		movs	r0, r5
 557 00f4 FFF7FEFF 		bl	lv_obj_set_y
 558              	.LVL86:
 559 00f8 16E0     		b	.L11
 560              	.LVL87:
 561              	.L20:
 562              	.LBB93:
 642:..\..\..\arduinoLCD\test\Pain Drain\libraries\lvgl\src\widgets/lv_roller.c ****         lv_anim_set_var(&a, label);
 563              		.loc 1 642 0 discriminator 2
 564 00fa 03A8     		add	r0, sp, #12
 565              	.LVL88:
 566 00fc FFF7FEFF 		bl	lv_anim_init
 567              	.LVL89:
 568              	.LBB94:
 569              	.LBB95:
 570              		.file 4 "c:\\projects\\paindrain\\arduinolcd\\test\\pain drain\\libraries\\lvgl\\src\\misc\\lv_ani
   1:c:\projects\paindrain\arduinolcd\test\pain drain\libraries\lvgl\src\misc\lv_anim.h **** /**
   2:c:\projects\paindrain\arduinolcd\test\pain drain\libraries\lvgl\src\misc\lv_anim.h ****  * @file lv_anim.h
   3:c:\projects\paindrain\arduinolcd\test\pain drain\libraries\lvgl\src\misc\lv_anim.h ****  *
   4:c:\projects\paindrain\arduinolcd\test\pain drain\libraries\lvgl\src\misc\lv_anim.h ****  */
   5:c:\projects\paindrain\arduinolcd\test\pain drain\libraries\lvgl\src\misc\lv_anim.h **** 
   6:c:\projects\paindrain\arduinolcd\test\pain drain\libraries\lvgl\src\misc\lv_anim.h **** #ifndef LV_ANIM_H
   7:c:\projects\paindrain\arduinolcd\test\pain drain\libraries\lvgl\src\misc\lv_anim.h **** #define LV_ANIM_H
   8:c:\projects\paindrain\arduinolcd\test\pain drain\libraries\lvgl\src\misc\lv_anim.h **** 
   9:c:\projects\paindrain\arduinolcd\test\pain drain\libraries\lvgl\src\misc\lv_anim.h **** #ifdef __cplusplus
  10:c:\projects\paindrain\arduinolcd\test\pain drain\libraries\lvgl\src\misc\lv_anim.h **** extern "C" {
  11:c:\projects\paindrain\arduinolcd\test\pain drain\libraries\lvgl\src\misc\lv_anim.h **** #endif
  12:c:\projects\paindrain\arduinolcd\test\pain drain\libraries\lvgl\src\misc\lv_anim.h **** 
  13:c:\projects\paindrain\arduinolcd\test\pain drain\libraries\lvgl\src\misc\lv_anim.h **** /*********************
  14:c:\projects\paindrain\arduinolcd\test\pain drain\libraries\lvgl\src\misc\lv_anim.h ****  *      INCLUDES
  15:c:\projects\paindrain\arduinolcd\test\pain drain\libraries\lvgl\src\misc\lv_anim.h ****  *********************/
  16:c:\projects\paindrain\arduinolcd\test\pain drain\libraries\lvgl\src\misc\lv_anim.h **** #include "../lv_conf_internal.h"
  17:c:\projects\paindrain\arduinolcd\test\pain drain\libraries\lvgl\src\misc\lv_anim.h **** 
  18:c:\projects\paindrain\arduinolcd\test\pain drain\libraries\lvgl\src\misc\lv_anim.h **** #include <stdint.h>
  19:c:\projects\paindrain\arduinolcd\test\pain drain\libraries\lvgl\src\misc\lv_anim.h **** #include <stdbool.h>
  20:c:\projects\paindrain\arduinolcd\test\pain drain\libraries\lvgl\src\misc\lv_anim.h **** #include <stddef.h>
  21:c:\projects\paindrain\arduinolcd\test\pain drain\libraries\lvgl\src\misc\lv_anim.h **** 
  22:c:\projects\paindrain\arduinolcd\test\pain drain\libraries\lvgl\src\misc\lv_anim.h **** /*********************
  23:c:\projects\paindrain\arduinolcd\test\pain drain\libraries\lvgl\src\misc\lv_anim.h ****  *      DEFINES
  24:c:\projects\paindrain\arduinolcd\test\pain drain\libraries\lvgl\src\misc\lv_anim.h ****  *********************/
  25:c:\projects\paindrain\arduinolcd\test\pain drain\libraries\lvgl\src\misc\lv_anim.h **** 
  26:c:\projects\paindrain\arduinolcd\test\pain drain\libraries\lvgl\src\misc\lv_anim.h **** #define LV_ANIM_REPEAT_INFINITE      0xFFFF
  27:c:\projects\paindrain\arduinolcd\test\pain drain\libraries\lvgl\src\misc\lv_anim.h **** #define LV_ANIM_PLAYTIME_INFINITE    0xFFFFFFFF
  28:c:\projects\paindrain\arduinolcd\test\pain drain\libraries\lvgl\src\misc\lv_anim.h **** 
  29:c:\projects\paindrain\arduinolcd\test\pain drain\libraries\lvgl\src\misc\lv_anim.h **** LV_EXPORT_CONST_INT(LV_ANIM_REPEAT_INFINITE);
  30:c:\projects\paindrain\arduinolcd\test\pain drain\libraries\lvgl\src\misc\lv_anim.h **** LV_EXPORT_CONST_INT(LV_ANIM_PLAYTIME_INFINITE);
  31:c:\projects\paindrain\arduinolcd\test\pain drain\libraries\lvgl\src\misc\lv_anim.h **** 
  32:c:\projects\paindrain\arduinolcd\test\pain drain\libraries\lvgl\src\misc\lv_anim.h **** /**********************
  33:c:\projects\paindrain\arduinolcd\test\pain drain\libraries\lvgl\src\misc\lv_anim.h ****  *      TYPEDEFS
  34:c:\projects\paindrain\arduinolcd\test\pain drain\libraries\lvgl\src\misc\lv_anim.h ****  **********************/
  35:c:\projects\paindrain\arduinolcd\test\pain drain\libraries\lvgl\src\misc\lv_anim.h **** 
  36:c:\projects\paindrain\arduinolcd\test\pain drain\libraries\lvgl\src\misc\lv_anim.h **** /** Can be used to indicate if animations are enabled or disabled in a case*/
  37:c:\projects\paindrain\arduinolcd\test\pain drain\libraries\lvgl\src\misc\lv_anim.h **** typedef enum {
  38:c:\projects\paindrain\arduinolcd\test\pain drain\libraries\lvgl\src\misc\lv_anim.h ****     LV_ANIM_OFF,
  39:c:\projects\paindrain\arduinolcd\test\pain drain\libraries\lvgl\src\misc\lv_anim.h ****     LV_ANIM_ON,
ARM GAS  C:\Users\haske\AppData\Local\Temp\ccRPH14P.s 			page 38


  40:c:\projects\paindrain\arduinolcd\test\pain drain\libraries\lvgl\src\misc\lv_anim.h **** } lv_anim_enable_t;
  41:c:\projects\paindrain\arduinolcd\test\pain drain\libraries\lvgl\src\misc\lv_anim.h **** 
  42:c:\projects\paindrain\arduinolcd\test\pain drain\libraries\lvgl\src\misc\lv_anim.h **** struct _lv_anim_t;
  43:c:\projects\paindrain\arduinolcd\test\pain drain\libraries\lvgl\src\misc\lv_anim.h **** struct _lv_timer_t;
  44:c:\projects\paindrain\arduinolcd\test\pain drain\libraries\lvgl\src\misc\lv_anim.h **** 
  45:c:\projects\paindrain\arduinolcd\test\pain drain\libraries\lvgl\src\misc\lv_anim.h **** /** Get the current value during an animation*/
  46:c:\projects\paindrain\arduinolcd\test\pain drain\libraries\lvgl\src\misc\lv_anim.h **** typedef int32_t (*lv_anim_path_cb_t)(const struct _lv_anim_t *);
  47:c:\projects\paindrain\arduinolcd\test\pain drain\libraries\lvgl\src\misc\lv_anim.h **** 
  48:c:\projects\paindrain\arduinolcd\test\pain drain\libraries\lvgl\src\misc\lv_anim.h **** /** Generic prototype of "animator" functions.
  49:c:\projects\paindrain\arduinolcd\test\pain drain\libraries\lvgl\src\misc\lv_anim.h ****  * First parameter is the variable to animate.
  50:c:\projects\paindrain\arduinolcd\test\pain drain\libraries\lvgl\src\misc\lv_anim.h ****  * Second parameter is the value to set.
  51:c:\projects\paindrain\arduinolcd\test\pain drain\libraries\lvgl\src\misc\lv_anim.h ****  * Compatible with `lv_xxx_set_yyy(obj, value)` functions
  52:c:\projects\paindrain\arduinolcd\test\pain drain\libraries\lvgl\src\misc\lv_anim.h ****  * The `x` in `_xcb_t` means it's not a fully generic prototype because
  53:c:\projects\paindrain\arduinolcd\test\pain drain\libraries\lvgl\src\misc\lv_anim.h ****  * it doesn't receive `lv_anim_t *` as its first argument*/
  54:c:\projects\paindrain\arduinolcd\test\pain drain\libraries\lvgl\src\misc\lv_anim.h **** typedef void (*lv_anim_exec_xcb_t)(void *, int32_t);
  55:c:\projects\paindrain\arduinolcd\test\pain drain\libraries\lvgl\src\misc\lv_anim.h **** 
  56:c:\projects\paindrain\arduinolcd\test\pain drain\libraries\lvgl\src\misc\lv_anim.h **** /** Same as `lv_anim_exec_xcb_t` but receives `lv_anim_t *` as the first parameter.
  57:c:\projects\paindrain\arduinolcd\test\pain drain\libraries\lvgl\src\misc\lv_anim.h ****  * It's more consistent but less convenient. Might be used by binding generator functions.*/
  58:c:\projects\paindrain\arduinolcd\test\pain drain\libraries\lvgl\src\misc\lv_anim.h **** typedef void (*lv_anim_custom_exec_cb_t)(struct _lv_anim_t *, int32_t);
  59:c:\projects\paindrain\arduinolcd\test\pain drain\libraries\lvgl\src\misc\lv_anim.h **** 
  60:c:\projects\paindrain\arduinolcd\test\pain drain\libraries\lvgl\src\misc\lv_anim.h **** /** Callback to call when the animation is ready*/
  61:c:\projects\paindrain\arduinolcd\test\pain drain\libraries\lvgl\src\misc\lv_anim.h **** typedef void (*lv_anim_ready_cb_t)(struct _lv_anim_t *);
  62:c:\projects\paindrain\arduinolcd\test\pain drain\libraries\lvgl\src\misc\lv_anim.h **** 
  63:c:\projects\paindrain\arduinolcd\test\pain drain\libraries\lvgl\src\misc\lv_anim.h **** /** Callback to call when the animation really stars (considering `delay`)*/
  64:c:\projects\paindrain\arduinolcd\test\pain drain\libraries\lvgl\src\misc\lv_anim.h **** typedef void (*lv_anim_start_cb_t)(struct _lv_anim_t *);
  65:c:\projects\paindrain\arduinolcd\test\pain drain\libraries\lvgl\src\misc\lv_anim.h **** 
  66:c:\projects\paindrain\arduinolcd\test\pain drain\libraries\lvgl\src\misc\lv_anim.h **** /** Callback used when the animation values are relative to get the current value*/
  67:c:\projects\paindrain\arduinolcd\test\pain drain\libraries\lvgl\src\misc\lv_anim.h **** typedef int32_t (*lv_anim_get_value_cb_t)(struct _lv_anim_t *);
  68:c:\projects\paindrain\arduinolcd\test\pain drain\libraries\lvgl\src\misc\lv_anim.h **** 
  69:c:\projects\paindrain\arduinolcd\test\pain drain\libraries\lvgl\src\misc\lv_anim.h **** /** Callback used when the animation is deleted*/
  70:c:\projects\paindrain\arduinolcd\test\pain drain\libraries\lvgl\src\misc\lv_anim.h **** typedef void (*lv_anim_deleted_cb_t)(struct _lv_anim_t *);
  71:c:\projects\paindrain\arduinolcd\test\pain drain\libraries\lvgl\src\misc\lv_anim.h **** 
  72:c:\projects\paindrain\arduinolcd\test\pain drain\libraries\lvgl\src\misc\lv_anim.h **** /** Describes an animation*/
  73:c:\projects\paindrain\arduinolcd\test\pain drain\libraries\lvgl\src\misc\lv_anim.h **** typedef struct _lv_anim_t {
  74:c:\projects\paindrain\arduinolcd\test\pain drain\libraries\lvgl\src\misc\lv_anim.h ****     void * var;                          /**<Variable to animate*/
  75:c:\projects\paindrain\arduinolcd\test\pain drain\libraries\lvgl\src\misc\lv_anim.h ****     lv_anim_exec_xcb_t exec_cb;          /**< Function to execute to animate*/
  76:c:\projects\paindrain\arduinolcd\test\pain drain\libraries\lvgl\src\misc\lv_anim.h ****     lv_anim_start_cb_t start_cb;         /**< Call it when the animation is starts (considering `de
  77:c:\projects\paindrain\arduinolcd\test\pain drain\libraries\lvgl\src\misc\lv_anim.h ****     lv_anim_ready_cb_t ready_cb;         /**< Call it when the animation is ready*/
  78:c:\projects\paindrain\arduinolcd\test\pain drain\libraries\lvgl\src\misc\lv_anim.h ****     lv_anim_deleted_cb_t deleted_cb;     /**< Call it when the animation is deleted*/
  79:c:\projects\paindrain\arduinolcd\test\pain drain\libraries\lvgl\src\misc\lv_anim.h ****     lv_anim_get_value_cb_t get_value_cb; /**< Get the current value in relative mode*/
  80:c:\projects\paindrain\arduinolcd\test\pain drain\libraries\lvgl\src\misc\lv_anim.h **** #if LV_USE_USER_DATA
  81:c:\projects\paindrain\arduinolcd\test\pain drain\libraries\lvgl\src\misc\lv_anim.h ****     void * user_data; /**< Custom user data*/
  82:c:\projects\paindrain\arduinolcd\test\pain drain\libraries\lvgl\src\misc\lv_anim.h **** #endif
  83:c:\projects\paindrain\arduinolcd\test\pain drain\libraries\lvgl\src\misc\lv_anim.h ****     lv_anim_path_cb_t path_cb;         /**< Describe the path (curve) of animations*/
  84:c:\projects\paindrain\arduinolcd\test\pain drain\libraries\lvgl\src\misc\lv_anim.h ****     int32_t start_value;               /**< Start value*/
  85:c:\projects\paindrain\arduinolcd\test\pain drain\libraries\lvgl\src\misc\lv_anim.h ****     int32_t current_value;             /**< Current value*/
  86:c:\projects\paindrain\arduinolcd\test\pain drain\libraries\lvgl\src\misc\lv_anim.h ****     int32_t end_value;                 /**< End value*/
  87:c:\projects\paindrain\arduinolcd\test\pain drain\libraries\lvgl\src\misc\lv_anim.h ****     int32_t time;                /**< Animation time in ms*/
  88:c:\projects\paindrain\arduinolcd\test\pain drain\libraries\lvgl\src\misc\lv_anim.h ****     int32_t act_time;            /**< Current time in animation. Set to negative to make delay.*/
  89:c:\projects\paindrain\arduinolcd\test\pain drain\libraries\lvgl\src\misc\lv_anim.h ****     uint32_t playback_delay;     /**< Wait before play back*/
  90:c:\projects\paindrain\arduinolcd\test\pain drain\libraries\lvgl\src\misc\lv_anim.h ****     uint32_t playback_time;      /**< Duration of playback animation*/
  91:c:\projects\paindrain\arduinolcd\test\pain drain\libraries\lvgl\src\misc\lv_anim.h ****     uint32_t repeat_delay;       /**< Wait before repeat*/
  92:c:\projects\paindrain\arduinolcd\test\pain drain\libraries\lvgl\src\misc\lv_anim.h ****     uint16_t repeat_cnt;         /**< Repeat count for the animation*/
  93:c:\projects\paindrain\arduinolcd\test\pain drain\libraries\lvgl\src\misc\lv_anim.h ****     uint8_t early_apply  : 1;    /**< 1: Apply start value immediately even is there is `delay`*/
  94:c:\projects\paindrain\arduinolcd\test\pain drain\libraries\lvgl\src\misc\lv_anim.h **** 
  95:c:\projects\paindrain\arduinolcd\test\pain drain\libraries\lvgl\src\misc\lv_anim.h ****     /*Animation system use these - user shouldn't set*/
  96:c:\projects\paindrain\arduinolcd\test\pain drain\libraries\lvgl\src\misc\lv_anim.h ****     uint8_t playback_now : 1; /**< Play back is in progress*/
ARM GAS  C:\Users\haske\AppData\Local\Temp\ccRPH14P.s 			page 39


  97:c:\projects\paindrain\arduinolcd\test\pain drain\libraries\lvgl\src\misc\lv_anim.h ****     uint8_t run_round : 1;    /**< Indicates the animation has run in this round*/
  98:c:\projects\paindrain\arduinolcd\test\pain drain\libraries\lvgl\src\misc\lv_anim.h ****     uint8_t start_cb_called : 1;    /**< Indicates that the `start_cb` was already called*/
  99:c:\projects\paindrain\arduinolcd\test\pain drain\libraries\lvgl\src\misc\lv_anim.h **** } lv_anim_t;
 100:c:\projects\paindrain\arduinolcd\test\pain drain\libraries\lvgl\src\misc\lv_anim.h **** 
 101:c:\projects\paindrain\arduinolcd\test\pain drain\libraries\lvgl\src\misc\lv_anim.h **** /**********************
 102:c:\projects\paindrain\arduinolcd\test\pain drain\libraries\lvgl\src\misc\lv_anim.h ****  * GLOBAL PROTOTYPES
 103:c:\projects\paindrain\arduinolcd\test\pain drain\libraries\lvgl\src\misc\lv_anim.h ****  **********************/
 104:c:\projects\paindrain\arduinolcd\test\pain drain\libraries\lvgl\src\misc\lv_anim.h **** 
 105:c:\projects\paindrain\arduinolcd\test\pain drain\libraries\lvgl\src\misc\lv_anim.h **** /**
 106:c:\projects\paindrain\arduinolcd\test\pain drain\libraries\lvgl\src\misc\lv_anim.h ****  * Init. the animation module
 107:c:\projects\paindrain\arduinolcd\test\pain drain\libraries\lvgl\src\misc\lv_anim.h ****  */
 108:c:\projects\paindrain\arduinolcd\test\pain drain\libraries\lvgl\src\misc\lv_anim.h **** void _lv_anim_core_init(void);
 109:c:\projects\paindrain\arduinolcd\test\pain drain\libraries\lvgl\src\misc\lv_anim.h **** 
 110:c:\projects\paindrain\arduinolcd\test\pain drain\libraries\lvgl\src\misc\lv_anim.h **** /**
 111:c:\projects\paindrain\arduinolcd\test\pain drain\libraries\lvgl\src\misc\lv_anim.h ****  * Initialize an animation variable.
 112:c:\projects\paindrain\arduinolcd\test\pain drain\libraries\lvgl\src\misc\lv_anim.h ****  * E.g.:
 113:c:\projects\paindrain\arduinolcd\test\pain drain\libraries\lvgl\src\misc\lv_anim.h ****  * lv_anim_t a;
 114:c:\projects\paindrain\arduinolcd\test\pain drain\libraries\lvgl\src\misc\lv_anim.h ****  * lv_anim_init(&a);
 115:c:\projects\paindrain\arduinolcd\test\pain drain\libraries\lvgl\src\misc\lv_anim.h ****  * lv_anim_set_...(&a);
 116:c:\projects\paindrain\arduinolcd\test\pain drain\libraries\lvgl\src\misc\lv_anim.h ****  * lv_anim_start(&a);
 117:c:\projects\paindrain\arduinolcd\test\pain drain\libraries\lvgl\src\misc\lv_anim.h ****  * @param a     pointer to an `lv_anim_t` variable to initialize
 118:c:\projects\paindrain\arduinolcd\test\pain drain\libraries\lvgl\src\misc\lv_anim.h ****  */
 119:c:\projects\paindrain\arduinolcd\test\pain drain\libraries\lvgl\src\misc\lv_anim.h **** void lv_anim_init(lv_anim_t * a);
 120:c:\projects\paindrain\arduinolcd\test\pain drain\libraries\lvgl\src\misc\lv_anim.h **** 
 121:c:\projects\paindrain\arduinolcd\test\pain drain\libraries\lvgl\src\misc\lv_anim.h **** /**
 122:c:\projects\paindrain\arduinolcd\test\pain drain\libraries\lvgl\src\misc\lv_anim.h ****  * Set a variable to animate
 123:c:\projects\paindrain\arduinolcd\test\pain drain\libraries\lvgl\src\misc\lv_anim.h ****  * @param a     pointer to an initialized `lv_anim_t` variable
 124:c:\projects\paindrain\arduinolcd\test\pain drain\libraries\lvgl\src\misc\lv_anim.h ****  * @param var   pointer to a variable to animate
 125:c:\projects\paindrain\arduinolcd\test\pain drain\libraries\lvgl\src\misc\lv_anim.h ****  */
 126:c:\projects\paindrain\arduinolcd\test\pain drain\libraries\lvgl\src\misc\lv_anim.h **** static inline void lv_anim_set_var(lv_anim_t * a, void * var)
 127:c:\projects\paindrain\arduinolcd\test\pain drain\libraries\lvgl\src\misc\lv_anim.h **** {
 128:c:\projects\paindrain\arduinolcd\test\pain drain\libraries\lvgl\src\misc\lv_anim.h ****     a->var = var;
 571              		.loc 4 128 0 discriminator 2
 572 0100 0395     		str	r5, [sp, #12]
 573              	.LVL90:
 574              	.LBE95:
 575              	.LBE94:
 576              	.LBB96:
 577              	.LBB97:
 129:c:\projects\paindrain\arduinolcd\test\pain drain\libraries\lvgl\src\misc\lv_anim.h **** }
 130:c:\projects\paindrain\arduinolcd\test\pain drain\libraries\lvgl\src\misc\lv_anim.h **** 
 131:c:\projects\paindrain\arduinolcd\test\pain drain\libraries\lvgl\src\misc\lv_anim.h **** /**
 132:c:\projects\paindrain\arduinolcd\test\pain drain\libraries\lvgl\src\misc\lv_anim.h ****  * Set a function to animate `var`
 133:c:\projects\paindrain\arduinolcd\test\pain drain\libraries\lvgl\src\misc\lv_anim.h ****  * @param a         pointer to an initialized `lv_anim_t` variable
 134:c:\projects\paindrain\arduinolcd\test\pain drain\libraries\lvgl\src\misc\lv_anim.h ****  * @param exec_cb   a function to execute during animation
 135:c:\projects\paindrain\arduinolcd\test\pain drain\libraries\lvgl\src\misc\lv_anim.h ****  *                  LVGL's built-in functions can be used.
 136:c:\projects\paindrain\arduinolcd\test\pain drain\libraries\lvgl\src\misc\lv_anim.h ****  *                  E.g. lv_obj_set_x
 137:c:\projects\paindrain\arduinolcd\test\pain drain\libraries\lvgl\src\misc\lv_anim.h ****  */
 138:c:\projects\paindrain\arduinolcd\test\pain drain\libraries\lvgl\src\misc\lv_anim.h **** static inline void lv_anim_set_exec_cb(lv_anim_t * a, lv_anim_exec_xcb_t exec_cb)
 139:c:\projects\paindrain\arduinolcd\test\pain drain\libraries\lvgl\src\misc\lv_anim.h **** {
 140:c:\projects\paindrain\arduinolcd\test\pain drain\libraries\lvgl\src\misc\lv_anim.h ****     a->exec_cb = exec_cb;
 578              		.loc 4 140 0 discriminator 2
 579 0102 0C4B     		ldr	r3, .L21
 580 0104 0493     		str	r3, [sp, #16]
 581              	.LVL91:
 582              	.LBE97:
 583              	.LBE96:
ARM GAS  C:\Users\haske\AppData\Local\Temp\ccRPH14P.s 			page 40


 645:..\..\..\arduinoLCD\test\Pain Drain\libraries\lvgl\src\widgets/lv_roller.c ****         lv_anim_set_time(&a, anim_time);
 584              		.loc 1 645 0 discriminator 2
 585 0106 2800     		movs	r0, r5
 586 0108 FFF7FEFF 		bl	lv_obj_get_y
 587              	.LVL92:
 588              	.LBB98:
 589              	.LBB99:
 141:c:\projects\paindrain\arduinolcd\test\pain drain\libraries\lvgl\src\misc\lv_anim.h **** }
 142:c:\projects\paindrain\arduinolcd\test\pain drain\libraries\lvgl\src\misc\lv_anim.h **** 
 143:c:\projects\paindrain\arduinolcd\test\pain drain\libraries\lvgl\src\misc\lv_anim.h **** /**
 144:c:\projects\paindrain\arduinolcd\test\pain drain\libraries\lvgl\src\misc\lv_anim.h ****  * Set the duration of an animation
 145:c:\projects\paindrain\arduinolcd\test\pain drain\libraries\lvgl\src\misc\lv_anim.h ****  * @param a         pointer to an initialized `lv_anim_t` variable
 146:c:\projects\paindrain\arduinolcd\test\pain drain\libraries\lvgl\src\misc\lv_anim.h ****  * @param duration  duration of the animation in milliseconds
 147:c:\projects\paindrain\arduinolcd\test\pain drain\libraries\lvgl\src\misc\lv_anim.h ****  */
 148:c:\projects\paindrain\arduinolcd\test\pain drain\libraries\lvgl\src\misc\lv_anim.h **** static inline void lv_anim_set_time(lv_anim_t * a, uint32_t duration)
 149:c:\projects\paindrain\arduinolcd\test\pain drain\libraries\lvgl\src\misc\lv_anim.h **** {
 150:c:\projects\paindrain\arduinolcd\test\pain drain\libraries\lvgl\src\misc\lv_anim.h ****     a->time = duration;
 151:c:\projects\paindrain\arduinolcd\test\pain drain\libraries\lvgl\src\misc\lv_anim.h **** }
 152:c:\projects\paindrain\arduinolcd\test\pain drain\libraries\lvgl\src\misc\lv_anim.h **** 
 153:c:\projects\paindrain\arduinolcd\test\pain drain\libraries\lvgl\src\misc\lv_anim.h **** /**
 154:c:\projects\paindrain\arduinolcd\test\pain drain\libraries\lvgl\src\misc\lv_anim.h ****  * Set a delay before starting the animation
 155:c:\projects\paindrain\arduinolcd\test\pain drain\libraries\lvgl\src\misc\lv_anim.h ****  * @param a         pointer to an initialized `lv_anim_t` variable
 156:c:\projects\paindrain\arduinolcd\test\pain drain\libraries\lvgl\src\misc\lv_anim.h ****  * @param delay     delay before the animation in milliseconds
 157:c:\projects\paindrain\arduinolcd\test\pain drain\libraries\lvgl\src\misc\lv_anim.h ****  */
 158:c:\projects\paindrain\arduinolcd\test\pain drain\libraries\lvgl\src\misc\lv_anim.h **** static inline void lv_anim_set_delay(lv_anim_t * a, uint32_t delay)
 159:c:\projects\paindrain\arduinolcd\test\pain drain\libraries\lvgl\src\misc\lv_anim.h **** {
 160:c:\projects\paindrain\arduinolcd\test\pain drain\libraries\lvgl\src\misc\lv_anim.h ****     a->act_time = -(int32_t)(delay);
 161:c:\projects\paindrain\arduinolcd\test\pain drain\libraries\lvgl\src\misc\lv_anim.h **** }
 162:c:\projects\paindrain\arduinolcd\test\pain drain\libraries\lvgl\src\misc\lv_anim.h **** 
 163:c:\projects\paindrain\arduinolcd\test\pain drain\libraries\lvgl\src\misc\lv_anim.h **** /**
 164:c:\projects\paindrain\arduinolcd\test\pain drain\libraries\lvgl\src\misc\lv_anim.h ****  * Set the start and end values of an animation
 165:c:\projects\paindrain\arduinolcd\test\pain drain\libraries\lvgl\src\misc\lv_anim.h ****  * @param a         pointer to an initialized `lv_anim_t` variable
 166:c:\projects\paindrain\arduinolcd\test\pain drain\libraries\lvgl\src\misc\lv_anim.h ****  * @param start     the start value
 167:c:\projects\paindrain\arduinolcd\test\pain drain\libraries\lvgl\src\misc\lv_anim.h ****  * @param end       the end value
 168:c:\projects\paindrain\arduinolcd\test\pain drain\libraries\lvgl\src\misc\lv_anim.h ****  */
 169:c:\projects\paindrain\arduinolcd\test\pain drain\libraries\lvgl\src\misc\lv_anim.h **** static inline void lv_anim_set_values(lv_anim_t * a, int32_t start, int32_t end)
 170:c:\projects\paindrain\arduinolcd\test\pain drain\libraries\lvgl\src\misc\lv_anim.h **** {
 171:c:\projects\paindrain\arduinolcd\test\pain drain\libraries\lvgl\src\misc\lv_anim.h ****     a->start_value = start;
 590              		.loc 4 171 0 discriminator 2
 591 010c 0B90     		str	r0, [sp, #44]
 172:c:\projects\paindrain\arduinolcd\test\pain drain\libraries\lvgl\src\misc\lv_anim.h ****     a->current_value = start;
 592              		.loc 4 172 0 discriminator 2
 593 010e 0C90     		str	r0, [sp, #48]
 173:c:\projects\paindrain\arduinolcd\test\pain drain\libraries\lvgl\src\misc\lv_anim.h ****     a->end_value = end;
 594              		.loc 4 173 0 discriminator 2
 595 0110 0D94     		str	r4, [sp, #52]
 596              	.LVL93:
 597              	.LBE99:
 598              	.LBE98:
 599              	.LBB100:
 600              	.LBB101:
 150:c:\projects\paindrain\arduinolcd\test\pain drain\libraries\lvgl\src\misc\lv_anim.h **** }
 601              		.loc 4 150 0 discriminator 2
 602 0112 019B     		ldr	r3, [sp, #4]
 603 0114 1E04     		lsls	r6, r3, #16
 604              	.LVL94:
 605 0116 360C     		lsrs	r6, r6, #16
ARM GAS  C:\Users\haske\AppData\Local\Temp\ccRPH14P.s 			page 41


 606 0118 0E96     		str	r6, [sp, #56]
 607              	.LVL95:
 608              	.LBE101:
 609              	.LBE100:
 610              	.LBB102:
 611              	.LBB103:
 174:c:\projects\paindrain\arduinolcd\test\pain drain\libraries\lvgl\src\misc\lv_anim.h **** }
 175:c:\projects\paindrain\arduinolcd\test\pain drain\libraries\lvgl\src\misc\lv_anim.h **** 
 176:c:\projects\paindrain\arduinolcd\test\pain drain\libraries\lvgl\src\misc\lv_anim.h **** /**
 177:c:\projects\paindrain\arduinolcd\test\pain drain\libraries\lvgl\src\misc\lv_anim.h ****  * Similar to `lv_anim_set_exec_cb` but `lv_anim_custom_exec_cb_t` receives
 178:c:\projects\paindrain\arduinolcd\test\pain drain\libraries\lvgl\src\misc\lv_anim.h ****  * `lv_anim_t * ` as its first parameter instead of `void *`.
 179:c:\projects\paindrain\arduinolcd\test\pain drain\libraries\lvgl\src\misc\lv_anim.h ****  * This function might be used when LVGL is bound to other languages because
 180:c:\projects\paindrain\arduinolcd\test\pain drain\libraries\lvgl\src\misc\lv_anim.h ****  * it's more consistent to have `lv_anim_t *` as first parameter.
 181:c:\projects\paindrain\arduinolcd\test\pain drain\libraries\lvgl\src\misc\lv_anim.h ****  * The variable to animate can be stored in the animation's `user_data`
 182:c:\projects\paindrain\arduinolcd\test\pain drain\libraries\lvgl\src\misc\lv_anim.h ****  * @param a         pointer to an initialized `lv_anim_t` variable
 183:c:\projects\paindrain\arduinolcd\test\pain drain\libraries\lvgl\src\misc\lv_anim.h ****  * @param exec_cb   a function to execute.
 184:c:\projects\paindrain\arduinolcd\test\pain drain\libraries\lvgl\src\misc\lv_anim.h ****  */
 185:c:\projects\paindrain\arduinolcd\test\pain drain\libraries\lvgl\src\misc\lv_anim.h **** static inline void lv_anim_set_custom_exec_cb(lv_anim_t * a, lv_anim_custom_exec_cb_t exec_cb)
 186:c:\projects\paindrain\arduinolcd\test\pain drain\libraries\lvgl\src\misc\lv_anim.h **** {
 187:c:\projects\paindrain\arduinolcd\test\pain drain\libraries\lvgl\src\misc\lv_anim.h ****     a->var     = a;
 188:c:\projects\paindrain\arduinolcd\test\pain drain\libraries\lvgl\src\misc\lv_anim.h ****     a->exec_cb = (lv_anim_exec_xcb_t)exec_cb;
 189:c:\projects\paindrain\arduinolcd\test\pain drain\libraries\lvgl\src\misc\lv_anim.h **** }
 190:c:\projects\paindrain\arduinolcd\test\pain drain\libraries\lvgl\src\misc\lv_anim.h **** 
 191:c:\projects\paindrain\arduinolcd\test\pain drain\libraries\lvgl\src\misc\lv_anim.h **** /**
 192:c:\projects\paindrain\arduinolcd\test\pain drain\libraries\lvgl\src\misc\lv_anim.h ****  * Set the path (curve) of the animation.
 193:c:\projects\paindrain\arduinolcd\test\pain drain\libraries\lvgl\src\misc\lv_anim.h ****  * @param a         pointer to an initialized `lv_anim_t` variable
 194:c:\projects\paindrain\arduinolcd\test\pain drain\libraries\lvgl\src\misc\lv_anim.h ****  * @param path_cb a function to set the current value of the animation.
 195:c:\projects\paindrain\arduinolcd\test\pain drain\libraries\lvgl\src\misc\lv_anim.h ****  */
 196:c:\projects\paindrain\arduinolcd\test\pain drain\libraries\lvgl\src\misc\lv_anim.h **** static inline void lv_anim_set_path_cb(lv_anim_t * a, lv_anim_path_cb_t path_cb)
 197:c:\projects\paindrain\arduinolcd\test\pain drain\libraries\lvgl\src\misc\lv_anim.h **** {
 198:c:\projects\paindrain\arduinolcd\test\pain drain\libraries\lvgl\src\misc\lv_anim.h ****     a->path_cb = path_cb;
 199:c:\projects\paindrain\arduinolcd\test\pain drain\libraries\lvgl\src\misc\lv_anim.h **** }
 200:c:\projects\paindrain\arduinolcd\test\pain drain\libraries\lvgl\src\misc\lv_anim.h **** 
 201:c:\projects\paindrain\arduinolcd\test\pain drain\libraries\lvgl\src\misc\lv_anim.h **** /**
 202:c:\projects\paindrain\arduinolcd\test\pain drain\libraries\lvgl\src\misc\lv_anim.h ****  * Set a function call when the animation really starts (considering `delay`)
 203:c:\projects\paindrain\arduinolcd\test\pain drain\libraries\lvgl\src\misc\lv_anim.h ****  * @param a         pointer to an initialized `lv_anim_t` variable
 204:c:\projects\paindrain\arduinolcd\test\pain drain\libraries\lvgl\src\misc\lv_anim.h ****  * @param start_cb  a function call when the animation starts
 205:c:\projects\paindrain\arduinolcd\test\pain drain\libraries\lvgl\src\misc\lv_anim.h ****  */
 206:c:\projects\paindrain\arduinolcd\test\pain drain\libraries\lvgl\src\misc\lv_anim.h **** static inline void lv_anim_set_start_cb(lv_anim_t * a, lv_anim_start_cb_t start_cb)
 207:c:\projects\paindrain\arduinolcd\test\pain drain\libraries\lvgl\src\misc\lv_anim.h **** {
 208:c:\projects\paindrain\arduinolcd\test\pain drain\libraries\lvgl\src\misc\lv_anim.h ****     a->start_cb = start_cb;
 209:c:\projects\paindrain\arduinolcd\test\pain drain\libraries\lvgl\src\misc\lv_anim.h **** }
 210:c:\projects\paindrain\arduinolcd\test\pain drain\libraries\lvgl\src\misc\lv_anim.h **** 
 211:c:\projects\paindrain\arduinolcd\test\pain drain\libraries\lvgl\src\misc\lv_anim.h **** /**
 212:c:\projects\paindrain\arduinolcd\test\pain drain\libraries\lvgl\src\misc\lv_anim.h ****  * Set a function to use the current value of the variable and make start and end value
 213:c:\projects\paindrain\arduinolcd\test\pain drain\libraries\lvgl\src\misc\lv_anim.h ****  * relative to the returned current value.
 214:c:\projects\paindrain\arduinolcd\test\pain drain\libraries\lvgl\src\misc\lv_anim.h ****  * @param a             pointer to an initialized `lv_anim_t` variable
 215:c:\projects\paindrain\arduinolcd\test\pain drain\libraries\lvgl\src\misc\lv_anim.h ****  * @param get_value_cb  a function call when the animation starts
 216:c:\projects\paindrain\arduinolcd\test\pain drain\libraries\lvgl\src\misc\lv_anim.h ****  */
 217:c:\projects\paindrain\arduinolcd\test\pain drain\libraries\lvgl\src\misc\lv_anim.h **** static inline void lv_anim_set_get_value_cb(lv_anim_t * a, lv_anim_get_value_cb_t get_value_cb)
 218:c:\projects\paindrain\arduinolcd\test\pain drain\libraries\lvgl\src\misc\lv_anim.h **** {
 219:c:\projects\paindrain\arduinolcd\test\pain drain\libraries\lvgl\src\misc\lv_anim.h ****     a->get_value_cb = get_value_cb;
 220:c:\projects\paindrain\arduinolcd\test\pain drain\libraries\lvgl\src\misc\lv_anim.h **** }
 221:c:\projects\paindrain\arduinolcd\test\pain drain\libraries\lvgl\src\misc\lv_anim.h **** 
 222:c:\projects\paindrain\arduinolcd\test\pain drain\libraries\lvgl\src\misc\lv_anim.h **** /**
 223:c:\projects\paindrain\arduinolcd\test\pain drain\libraries\lvgl\src\misc\lv_anim.h ****  * Set a function call when the animation is ready
 224:c:\projects\paindrain\arduinolcd\test\pain drain\libraries\lvgl\src\misc\lv_anim.h ****  * @param a         pointer to an initialized `lv_anim_t` variable
ARM GAS  C:\Users\haske\AppData\Local\Temp\ccRPH14P.s 			page 42


 225:c:\projects\paindrain\arduinolcd\test\pain drain\libraries\lvgl\src\misc\lv_anim.h ****  * @param ready_cb  a function call when the animation is ready
 226:c:\projects\paindrain\arduinolcd\test\pain drain\libraries\lvgl\src\misc\lv_anim.h ****  */
 227:c:\projects\paindrain\arduinolcd\test\pain drain\libraries\lvgl\src\misc\lv_anim.h **** static inline void lv_anim_set_ready_cb(lv_anim_t * a, lv_anim_ready_cb_t ready_cb)
 228:c:\projects\paindrain\arduinolcd\test\pain drain\libraries\lvgl\src\misc\lv_anim.h **** {
 229:c:\projects\paindrain\arduinolcd\test\pain drain\libraries\lvgl\src\misc\lv_anim.h ****     a->ready_cb = ready_cb;
 612              		.loc 4 229 0 discriminator 2
 613 011a 074B     		ldr	r3, .L21+4
 614 011c 0693     		str	r3, [sp, #24]
 615              	.LVL96:
 616              	.LBE103:
 617              	.LBE102:
 618              	.LBB104:
 619              	.LBB105:
 198:c:\projects\paindrain\arduinolcd\test\pain drain\libraries\lvgl\src\misc\lv_anim.h **** }
 620              		.loc 4 198 0 discriminator 2
 621 011e 074B     		ldr	r3, .L21+8
 622 0120 0A93     		str	r3, [sp, #40]
 623              	.LVL97:
 624              	.LBE105:
 625              	.LBE104:
 649:..\..\..\arduinoLCD\test\Pain Drain\libraries\lvgl\src\widgets/lv_roller.c ****     }
 626              		.loc 1 649 0 discriminator 2
 627 0122 03A8     		add	r0, sp, #12
 628 0124 FFF7FEFF 		bl	lv_anim_start
 629              	.LVL98:
 630              	.L11:
 631              	.LBE93:
 651:..\..\..\arduinoLCD\test\Pain Drain\libraries\lvgl\src\widgets/lv_roller.c **** 
 632              		.loc 1 651 0
 633 0128 15B0     		add	sp, sp, #84
 634              	.LVL99:
 635              		@ sp needed
 636              	.LVL100:
 637 012a 0CBC     		pop	{r2, r3}
 638 012c 9046     		mov	r8, r2
 639 012e 9B46     		mov	fp, r3
 640 0130 F0BD     		pop	{r4, r5, r6, r7, pc}
 641              	.L22:
 642 0132 C046     		.align	2
 643              	.L21:
 644 0134 00000000 		.word	set_y_anim
 645 0138 00000000 		.word	scroll_anim_ready_cb
 646 013c 00000000 		.word	lv_anim_path_ease_out
 647              		.cfi_endproc
 648              	.LFE173:
 649              		.size	refr_position, .-refr_position
 650              		.section	.text.get_sel_area,"ax",%progbits
 651              		.align	2
 652              		.code	16
 653              		.thumb_func
 654              		.type	get_sel_area, %function
 655              	get_sel_area:
 656              	.LFB172:
 575:..\..\..\arduinoLCD\test\Pain Drain\libraries\lvgl\src\widgets/lv_roller.c **** 
 657              		.loc 1 575 0
 658              		.cfi_startproc
 659              		@ args = 0, pretend = 0, frame = 8
ARM GAS  C:\Users\haske\AppData\Local\Temp\ccRPH14P.s 			page 43


 660              		@ frame_needed = 0, uses_anonymous_args = 0
 661              	.LVL101:
 662 0000 F0B5     		push	{r4, r5, r6, r7, lr}
 663              		.cfi_def_cfa_offset 20
 664              		.cfi_offset 4, -20
 665              		.cfi_offset 5, -16
 666              		.cfi_offset 6, -12
 667              		.cfi_offset 7, -8
 668              		.cfi_offset 14, -4
 669 0002 4746     		mov	r7, r8
 670 0004 80B4     		push	{r7}
 671              		.cfi_def_cfa_offset 24
 672              		.cfi_offset 8, -24
 673 0006 82B0     		sub	sp, sp, #8
 674              		.cfi_def_cfa_offset 32
 675 0008 0500     		movs	r5, r0
 676 000a 0E00     		movs	r6, r1
 677              	.LVL102:
 678              	.LBB106:
 679              	.LBB107:
 465:..\..\..\arduinoLCD\test\Pain Drain\libraries\lvgl\src\widgets\../core/lv_obj_style_gen.h ****     return (const lv_font_t *)v.ptr;
 680              		.loc 2 465 0
 681 000c 5722     		movs	r2, #87
 682 000e 0021     		movs	r1, #0
 683              	.LVL103:
 684 0010 FFF7FEFF 		bl	lv_obj_get_style_prop
 685              	.LVL104:
 686 0014 0400     		movs	r4, r0
 687              	.LVL105:
 688              	.LBE107:
 689              	.LBE106:
 690              	.LBB108:
 691              	.LBB109:
 692 0016 5722     		movs	r2, #87
 693 0018 8021     		movs	r1, #128
 694 001a C902     		lsls	r1, r1, #11
 695 001c 2800     		movs	r0, r5
 696 001e FFF7FEFF 		bl	lv_obj_get_style_prop
 697              	.LVL106:
 698              	.LBE109:
 699              	.LBE108:
 700              	.LBB110:
 701              	.LBB111:
 702              		.loc 3 126 0
 703 0022 0823     		movs	r3, #8
 704 0024 E45E     		ldrsh	r4, [r4, r3]
 705              	.LVL107:
 706              	.LBE111:
 707              	.LBE110:
 708              	.LBB112:
 709              	.LBB113:
 710 0026 0823     		movs	r3, #8
 711 0028 C75E     		ldrsh	r7, [r0, r3]
 712              	.LVL108:
 713              	.LBE113:
 714              	.LBE112:
 715              	.LBB114:
ARM GAS  C:\Users\haske\AppData\Local\Temp\ccRPH14P.s 			page 44


 716              	.LBB115:
 477:..\..\..\arduinoLCD\test\Pain Drain\libraries\lvgl\src\widgets\../core/lv_obj_style_gen.h ****     return (lv_coord_t)v.num;
 717              		.loc 2 477 0
 718 002a 5922     		movs	r2, #89
 719 002c 0021     		movs	r1, #0
 720 002e 2800     		movs	r0, r5
 721              	.LVL109:
 722 0030 FFF7FEFF 		bl	lv_obj_get_style_prop
 723              	.LVL110:
 724              	.LBE115:
 725              	.LBE114:
 582:..\..\..\arduinoLCD\test\Pain Drain\libraries\lvgl\src\widgets/lv_roller.c ****     sel_area->y1 = obj->coords.y1 + lv_obj_get_height(obj) / 2 - d / 2;
 726              		.loc 1 582 0
 727 0034 3A19     		adds	r2, r7, r4
 728 0036 D30F     		lsrs	r3, r2, #31
 729 0038 9A18     		adds	r2, r3, r2
 730 003a 5210     		asrs	r2, r2, #1
 731              	.LVL111:
 732 003c 1218     		adds	r2, r2, r0
 733 003e 97B2     		uxth	r7, r2
 734 0040 3BB2     		sxth	r3, r7
 735 0042 9846     		mov	r8, r3
 736              	.LVL112:
 583:..\..\..\arduinoLCD\test\Pain Drain\libraries\lvgl\src\widgets/lv_roller.c ****     sel_area->y2 = sel_area->y1 + d;
 737              		.loc 1 583 0
 738 0044 1623     		movs	r3, #22
 739 0046 EC5E     		ldrsh	r4, [r5, r3]
 740 0048 2800     		movs	r0, r5
 741              	.LVL113:
 742 004a FFF7FEFF 		bl	lv_obj_get_height
 743              	.LVL114:
 744 004e C30F     		lsrs	r3, r0, #31
 745 0050 1B18     		adds	r3, r3, r0
 746 0052 5B10     		asrs	r3, r3, #1
 747 0054 1C19     		adds	r4, r3, r4
 748 0056 4346     		mov	r3, r8
 749 0058 DB0F     		lsrs	r3, r3, #31
 750 005a 4344     		add	r3, r3, r8
 751 005c 5B10     		asrs	r3, r3, #1
 752 005e E31A     		subs	r3, r4, r3
 753 0060 9BB2     		uxth	r3, r3
 754 0062 7380     		strh	r3, [r6, #2]
 584:..\..\..\arduinoLCD\test\Pain Drain\libraries\lvgl\src\widgets/lv_roller.c ****     lv_area_t roller_coords;
 755              		.loc 1 584 0
 756 0064 FB18     		adds	r3, r7, r3
 757 0066 F380     		strh	r3, [r6, #6]
 586:..\..\..\arduinoLCD\test\Pain Drain\libraries\lvgl\src\widgets/lv_roller.c **** 
 758              		.loc 1 586 0
 759 0068 6946     		mov	r1, sp
 760 006a 2800     		movs	r0, r5
 761 006c FFF7FEFF 		bl	lv_obj_get_coords
 762              	.LVL115:
 588:..\..\..\arduinoLCD\test\Pain Drain\libraries\lvgl\src\widgets/lv_roller.c ****     sel_area->x2 = roller_coords.x2;
 763              		.loc 1 588 0
 764 0070 6B46     		mov	r3, sp
 765 0072 0022     		movs	r2, #0
 766 0074 9B5E     		ldrsh	r3, [r3, r2]
ARM GAS  C:\Users\haske\AppData\Local\Temp\ccRPH14P.s 			page 45


 767 0076 3380     		strh	r3, [r6]
 589:..\..\..\arduinoLCD\test\Pain Drain\libraries\lvgl\src\widgets/lv_roller.c **** 
 768              		.loc 1 589 0
 769 0078 6B46     		mov	r3, sp
 770 007a 0422     		movs	r2, #4
 771 007c 9B5E     		ldrsh	r3, [r3, r2]
 772 007e B380     		strh	r3, [r6, #4]
 591:..\..\..\arduinoLCD\test\Pain Drain\libraries\lvgl\src\widgets/lv_roller.c **** 
 773              		.loc 1 591 0
 774 0080 02B0     		add	sp, sp, #8
 775              		@ sp needed
 776              	.LVL116:
 777              	.LVL117:
 778              	.LVL118:
 779 0082 04BC     		pop	{r2}
 780 0084 9046     		mov	r8, r2
 781 0086 F0BD     		pop	{r4, r5, r6, r7, pc}
 782              		.cfi_endproc
 783              	.LFE172:
 784              		.size	get_sel_area, .-get_sel_area
 785              		.global	__aeabi_idiv
