ARM GAS  C:\Users\haske\AppData\Local\Temp\ccmSsGgz.s 			page 1


   1              		.syntax unified
   2              		.cpu cortex-m0plus
   3              		.fpu softvfp
   4              		.eabi_attribute 20, 1
   5              		.eabi_attribute 21, 1
   6              		.eabi_attribute 23, 3
   7              		.eabi_attribute 24, 1
   8              		.eabi_attribute 25, 1
   9              		.eabi_attribute 26, 1
  10              		.eabi_attribute 30, 1
  11              		.eabi_attribute 34, 0
  12              		.eabi_attribute 18, 4
  13              		.thumb
  14              		.syntax unified
  15              		.file	"lv_spinner.c"
  16              		.text
  17              	.Ltext0:
  18              		.cfi_sections	.debug_frame
  19              		.section	.text.lv_spinner_constructor,"ax",%progbits
  20              		.align	2
  21              		.code	16
  22              		.thumb_func
  23              		.type	lv_spinner_constructor, %function
  24              	lv_spinner_constructor:
  25              	.LFB203:
  26              		.file 1 "..\\..\\..\\arduinoLCD\\test\\Pain Drain\\libraries\\lvgl\\src\\extra\\widgets\\spinner\\
   1:..\..\..\arduinoLCD\test\Pain Drain\libraries\lvgl\src\extra\widgets\spinner/lv_spinner.c **** /**
   2:..\..\..\arduinoLCD\test\Pain Drain\libraries\lvgl\src\extra\widgets\spinner/lv_spinner.c ****  * @file lv_spinner.c
   3:..\..\..\arduinoLCD\test\Pain Drain\libraries\lvgl\src\extra\widgets\spinner/lv_spinner.c ****  *
   4:..\..\..\arduinoLCD\test\Pain Drain\libraries\lvgl\src\extra\widgets\spinner/lv_spinner.c ****  */
   5:..\..\..\arduinoLCD\test\Pain Drain\libraries\lvgl\src\extra\widgets\spinner/lv_spinner.c **** 
   6:..\..\..\arduinoLCD\test\Pain Drain\libraries\lvgl\src\extra\widgets\spinner/lv_spinner.c **** /*********************
   7:..\..\..\arduinoLCD\test\Pain Drain\libraries\lvgl\src\extra\widgets\spinner/lv_spinner.c ****  *      INCLUDES
   8:..\..\..\arduinoLCD\test\Pain Drain\libraries\lvgl\src\extra\widgets\spinner/lv_spinner.c ****  *********************/
   9:..\..\..\arduinoLCD\test\Pain Drain\libraries\lvgl\src\extra\widgets\spinner/lv_spinner.c **** #include "lv_spinner.h"
  10:..\..\..\arduinoLCD\test\Pain Drain\libraries\lvgl\src\extra\widgets\spinner/lv_spinner.c **** #if LV_USE_SPINNER
  11:..\..\..\arduinoLCD\test\Pain Drain\libraries\lvgl\src\extra\widgets\spinner/lv_spinner.c **** 
  12:..\..\..\arduinoLCD\test\Pain Drain\libraries\lvgl\src\extra\widgets\spinner/lv_spinner.c **** /*********************
  13:..\..\..\arduinoLCD\test\Pain Drain\libraries\lvgl\src\extra\widgets\spinner/lv_spinner.c ****  *      DEFINES
  14:..\..\..\arduinoLCD\test\Pain Drain\libraries\lvgl\src\extra\widgets\spinner/lv_spinner.c ****  *********************/
  15:..\..\..\arduinoLCD\test\Pain Drain\libraries\lvgl\src\extra\widgets\spinner/lv_spinner.c **** 
  16:..\..\..\arduinoLCD\test\Pain Drain\libraries\lvgl\src\extra\widgets\spinner/lv_spinner.c **** /**********************
  17:..\..\..\arduinoLCD\test\Pain Drain\libraries\lvgl\src\extra\widgets\spinner/lv_spinner.c ****  *      TYPEDEFS
  18:..\..\..\arduinoLCD\test\Pain Drain\libraries\lvgl\src\extra\widgets\spinner/lv_spinner.c ****  **********************/
  19:..\..\..\arduinoLCD\test\Pain Drain\libraries\lvgl\src\extra\widgets\spinner/lv_spinner.c **** 
  20:..\..\..\arduinoLCD\test\Pain Drain\libraries\lvgl\src\extra\widgets\spinner/lv_spinner.c **** /**********************
  21:..\..\..\arduinoLCD\test\Pain Drain\libraries\lvgl\src\extra\widgets\spinner/lv_spinner.c ****  *  STATIC PROTOTYPES
  22:..\..\..\arduinoLCD\test\Pain Drain\libraries\lvgl\src\extra\widgets\spinner/lv_spinner.c ****  **********************/
  23:..\..\..\arduinoLCD\test\Pain Drain\libraries\lvgl\src\extra\widgets\spinner/lv_spinner.c **** static void lv_spinner_constructor(const lv_obj_class_t * class_p, lv_obj_t * obj);
  24:..\..\..\arduinoLCD\test\Pain Drain\libraries\lvgl\src\extra\widgets\spinner/lv_spinner.c **** static void arc_anim_start_angle(void * obj, int32_t v);
  25:..\..\..\arduinoLCD\test\Pain Drain\libraries\lvgl\src\extra\widgets\spinner/lv_spinner.c **** static void arc_anim_end_angle(void * obj, int32_t v);
  26:..\..\..\arduinoLCD\test\Pain Drain\libraries\lvgl\src\extra\widgets\spinner/lv_spinner.c **** 
  27:..\..\..\arduinoLCD\test\Pain Drain\libraries\lvgl\src\extra\widgets\spinner/lv_spinner.c **** /**********************
  28:..\..\..\arduinoLCD\test\Pain Drain\libraries\lvgl\src\extra\widgets\spinner/lv_spinner.c ****  *  STATIC VARIABLES
  29:..\..\..\arduinoLCD\test\Pain Drain\libraries\lvgl\src\extra\widgets\spinner/lv_spinner.c ****  **********************/
  30:..\..\..\arduinoLCD\test\Pain Drain\libraries\lvgl\src\extra\widgets\spinner/lv_spinner.c **** const lv_obj_class_t lv_spinner_class = {
  31:..\..\..\arduinoLCD\test\Pain Drain\libraries\lvgl\src\extra\widgets\spinner/lv_spinner.c ****     .base_class = &lv_arc_class,
ARM GAS  C:\Users\haske\AppData\Local\Temp\ccmSsGgz.s 			page 2


  32:..\..\..\arduinoLCD\test\Pain Drain\libraries\lvgl\src\extra\widgets\spinner/lv_spinner.c ****     .constructor_cb = lv_spinner_constructor
  33:..\..\..\arduinoLCD\test\Pain Drain\libraries\lvgl\src\extra\widgets\spinner/lv_spinner.c **** };
  34:..\..\..\arduinoLCD\test\Pain Drain\libraries\lvgl\src\extra\widgets\spinner/lv_spinner.c **** 
  35:..\..\..\arduinoLCD\test\Pain Drain\libraries\lvgl\src\extra\widgets\spinner/lv_spinner.c **** static uint32_t time_param;
  36:..\..\..\arduinoLCD\test\Pain Drain\libraries\lvgl\src\extra\widgets\spinner/lv_spinner.c **** static uint32_t arc_length_param;
  37:..\..\..\arduinoLCD\test\Pain Drain\libraries\lvgl\src\extra\widgets\spinner/lv_spinner.c **** 
  38:..\..\..\arduinoLCD\test\Pain Drain\libraries\lvgl\src\extra\widgets\spinner/lv_spinner.c **** /**********************
  39:..\..\..\arduinoLCD\test\Pain Drain\libraries\lvgl\src\extra\widgets\spinner/lv_spinner.c ****  *      MACROS
  40:..\..\..\arduinoLCD\test\Pain Drain\libraries\lvgl\src\extra\widgets\spinner/lv_spinner.c ****  **********************/
  41:..\..\..\arduinoLCD\test\Pain Drain\libraries\lvgl\src\extra\widgets\spinner/lv_spinner.c **** 
  42:..\..\..\arduinoLCD\test\Pain Drain\libraries\lvgl\src\extra\widgets\spinner/lv_spinner.c **** /**********************
  43:..\..\..\arduinoLCD\test\Pain Drain\libraries\lvgl\src\extra\widgets\spinner/lv_spinner.c ****  *   GLOBAL FUNCTIONS
  44:..\..\..\arduinoLCD\test\Pain Drain\libraries\lvgl\src\extra\widgets\spinner/lv_spinner.c ****  **********************/
  45:..\..\..\arduinoLCD\test\Pain Drain\libraries\lvgl\src\extra\widgets\spinner/lv_spinner.c **** 
  46:..\..\..\arduinoLCD\test\Pain Drain\libraries\lvgl\src\extra\widgets\spinner/lv_spinner.c **** /**
  47:..\..\..\arduinoLCD\test\Pain Drain\libraries\lvgl\src\extra\widgets\spinner/lv_spinner.c ****  * Create a spinner object
  48:..\..\..\arduinoLCD\test\Pain Drain\libraries\lvgl\src\extra\widgets\spinner/lv_spinner.c ****  * @param parent pointer to an object, it will be the parent of the new spinner
  49:..\..\..\arduinoLCD\test\Pain Drain\libraries\lvgl\src\extra\widgets\spinner/lv_spinner.c ****  * @return pointer to the created spinner
  50:..\..\..\arduinoLCD\test\Pain Drain\libraries\lvgl\src\extra\widgets\spinner/lv_spinner.c ****  */
  51:..\..\..\arduinoLCD\test\Pain Drain\libraries\lvgl\src\extra\widgets\spinner/lv_spinner.c **** lv_obj_t * lv_spinner_create(lv_obj_t * parent, uint32_t time, uint32_t arc_length)
  52:..\..\..\arduinoLCD\test\Pain Drain\libraries\lvgl\src\extra\widgets\spinner/lv_spinner.c **** {
  53:..\..\..\arduinoLCD\test\Pain Drain\libraries\lvgl\src\extra\widgets\spinner/lv_spinner.c ****     time_param = time;
  54:..\..\..\arduinoLCD\test\Pain Drain\libraries\lvgl\src\extra\widgets\spinner/lv_spinner.c ****     arc_length_param = arc_length;
  55:..\..\..\arduinoLCD\test\Pain Drain\libraries\lvgl\src\extra\widgets\spinner/lv_spinner.c **** 
  56:..\..\..\arduinoLCD\test\Pain Drain\libraries\lvgl\src\extra\widgets\spinner/lv_spinner.c ****     lv_obj_t * obj = lv_obj_class_create_obj(&lv_spinner_class, parent);
  57:..\..\..\arduinoLCD\test\Pain Drain\libraries\lvgl\src\extra\widgets\spinner/lv_spinner.c ****     lv_obj_class_init_obj(obj);
  58:..\..\..\arduinoLCD\test\Pain Drain\libraries\lvgl\src\extra\widgets\spinner/lv_spinner.c ****     return obj;
  59:..\..\..\arduinoLCD\test\Pain Drain\libraries\lvgl\src\extra\widgets\spinner/lv_spinner.c **** }
  60:..\..\..\arduinoLCD\test\Pain Drain\libraries\lvgl\src\extra\widgets\spinner/lv_spinner.c **** 
  61:..\..\..\arduinoLCD\test\Pain Drain\libraries\lvgl\src\extra\widgets\spinner/lv_spinner.c **** 
  62:..\..\..\arduinoLCD\test\Pain Drain\libraries\lvgl\src\extra\widgets\spinner/lv_spinner.c **** /**********************
  63:..\..\..\arduinoLCD\test\Pain Drain\libraries\lvgl\src\extra\widgets\spinner/lv_spinner.c ****  *   STATIC FUNCTIONS
  64:..\..\..\arduinoLCD\test\Pain Drain\libraries\lvgl\src\extra\widgets\spinner/lv_spinner.c ****  **********************/
  65:..\..\..\arduinoLCD\test\Pain Drain\libraries\lvgl\src\extra\widgets\spinner/lv_spinner.c **** 
  66:..\..\..\arduinoLCD\test\Pain Drain\libraries\lvgl\src\extra\widgets\spinner/lv_spinner.c **** static void lv_spinner_constructor(const lv_obj_class_t * class_p, lv_obj_t * obj)
  67:..\..\..\arduinoLCD\test\Pain Drain\libraries\lvgl\src\extra\widgets\spinner/lv_spinner.c **** {
  27              		.loc 1 67 0
  28              		.cfi_startproc
  29              		@ args = 0, pretend = 0, frame = 72
  30              		@ frame_needed = 0, uses_anonymous_args = 0
  31              	.LVL0:
  32 0000 70B5     		push	{r4, r5, r6, lr}
  33              		.cfi_def_cfa_offset 16
  34              		.cfi_offset 4, -16
  35              		.cfi_offset 5, -12
  36              		.cfi_offset 6, -8
  37              		.cfi_offset 14, -4
  38 0002 92B0     		sub	sp, sp, #72
  39              		.cfi_def_cfa_offset 88
  40 0004 0D00     		movs	r5, r1
  68:..\..\..\arduinoLCD\test\Pain Drain\libraries\lvgl\src\extra\widgets\spinner/lv_spinner.c ****     LV_TRACE_OBJ_CREATE("begin");
  69:..\..\..\arduinoLCD\test\Pain Drain\libraries\lvgl\src\extra\widgets\spinner/lv_spinner.c **** 
  70:..\..\..\arduinoLCD\test\Pain Drain\libraries\lvgl\src\extra\widgets\spinner/lv_spinner.c ****     LV_UNUSED(class_p);
  71:..\..\..\arduinoLCD\test\Pain Drain\libraries\lvgl\src\extra\widgets\spinner/lv_spinner.c **** 
  72:..\..\..\arduinoLCD\test\Pain Drain\libraries\lvgl\src\extra\widgets\spinner/lv_spinner.c ****     lv_obj_clear_flag(obj, LV_OBJ_FLAG_CLICKABLE);
  41              		.loc 1 72 0
  42 0006 0221     		movs	r1, #2
ARM GAS  C:\Users\haske\AppData\Local\Temp\ccmSsGgz.s 			page 3


  43              	.LVL1:
  44 0008 2800     		movs	r0, r5
  45              	.LVL2:
  46 000a FFF7FEFF 		bl	lv_obj_clear_flag
  47              	.LVL3:
  73:..\..\..\arduinoLCD\test\Pain Drain\libraries\lvgl\src\extra\widgets\spinner/lv_spinner.c **** 
  74:..\..\..\arduinoLCD\test\Pain Drain\libraries\lvgl\src\extra\widgets\spinner/lv_spinner.c ****     lv_anim_t a;
  75:..\..\..\arduinoLCD\test\Pain Drain\libraries\lvgl\src\extra\widgets\spinner/lv_spinner.c ****     lv_anim_init(&a);
  48              		.loc 1 75 0
  49 000e 01AC     		add	r4, sp, #4
  50 0010 2000     		movs	r0, r4
  51 0012 FFF7FEFF 		bl	lv_anim_init
  52              	.LVL4:
  53              	.LBB18:
  54              	.LBB19:
  55              		.file 2 "c:\\projects\\paindrain\\arduinolcd\\test\\pain drain\\libraries\\lvgl\\src/misc/lv_anim.
   1:c:\projects\paindrain\arduinolcd\test\pain drain\libraries\lvgl\src/misc\lv_anim.h **** /**
   2:c:\projects\paindrain\arduinolcd\test\pain drain\libraries\lvgl\src/misc\lv_anim.h ****  * @file lv_anim.h
   3:c:\projects\paindrain\arduinolcd\test\pain drain\libraries\lvgl\src/misc\lv_anim.h ****  *
   4:c:\projects\paindrain\arduinolcd\test\pain drain\libraries\lvgl\src/misc\lv_anim.h ****  */
   5:c:\projects\paindrain\arduinolcd\test\pain drain\libraries\lvgl\src/misc\lv_anim.h **** 
   6:c:\projects\paindrain\arduinolcd\test\pain drain\libraries\lvgl\src/misc\lv_anim.h **** #ifndef LV_ANIM_H
   7:c:\projects\paindrain\arduinolcd\test\pain drain\libraries\lvgl\src/misc\lv_anim.h **** #define LV_ANIM_H
   8:c:\projects\paindrain\arduinolcd\test\pain drain\libraries\lvgl\src/misc\lv_anim.h **** 
   9:c:\projects\paindrain\arduinolcd\test\pain drain\libraries\lvgl\src/misc\lv_anim.h **** #ifdef __cplusplus
  10:c:\projects\paindrain\arduinolcd\test\pain drain\libraries\lvgl\src/misc\lv_anim.h **** extern "C" {
  11:c:\projects\paindrain\arduinolcd\test\pain drain\libraries\lvgl\src/misc\lv_anim.h **** #endif
  12:c:\projects\paindrain\arduinolcd\test\pain drain\libraries\lvgl\src/misc\lv_anim.h **** 
  13:c:\projects\paindrain\arduinolcd\test\pain drain\libraries\lvgl\src/misc\lv_anim.h **** /*********************
  14:c:\projects\paindrain\arduinolcd\test\pain drain\libraries\lvgl\src/misc\lv_anim.h ****  *      INCLUDES
  15:c:\projects\paindrain\arduinolcd\test\pain drain\libraries\lvgl\src/misc\lv_anim.h ****  *********************/
  16:c:\projects\paindrain\arduinolcd\test\pain drain\libraries\lvgl\src/misc\lv_anim.h **** #include "../lv_conf_internal.h"
  17:c:\projects\paindrain\arduinolcd\test\pain drain\libraries\lvgl\src/misc\lv_anim.h **** 
  18:c:\projects\paindrain\arduinolcd\test\pain drain\libraries\lvgl\src/misc\lv_anim.h **** #include <stdint.h>
  19:c:\projects\paindrain\arduinolcd\test\pain drain\libraries\lvgl\src/misc\lv_anim.h **** #include <stdbool.h>
  20:c:\projects\paindrain\arduinolcd\test\pain drain\libraries\lvgl\src/misc\lv_anim.h **** #include <stddef.h>
  21:c:\projects\paindrain\arduinolcd\test\pain drain\libraries\lvgl\src/misc\lv_anim.h **** 
  22:c:\projects\paindrain\arduinolcd\test\pain drain\libraries\lvgl\src/misc\lv_anim.h **** /*********************
  23:c:\projects\paindrain\arduinolcd\test\pain drain\libraries\lvgl\src/misc\lv_anim.h ****  *      DEFINES
  24:c:\projects\paindrain\arduinolcd\test\pain drain\libraries\lvgl\src/misc\lv_anim.h ****  *********************/
  25:c:\projects\paindrain\arduinolcd\test\pain drain\libraries\lvgl\src/misc\lv_anim.h **** 
  26:c:\projects\paindrain\arduinolcd\test\pain drain\libraries\lvgl\src/misc\lv_anim.h **** #define LV_ANIM_REPEAT_INFINITE      0xFFFF
  27:c:\projects\paindrain\arduinolcd\test\pain drain\libraries\lvgl\src/misc\lv_anim.h **** #define LV_ANIM_PLAYTIME_INFINITE    0xFFFFFFFF
  28:c:\projects\paindrain\arduinolcd\test\pain drain\libraries\lvgl\src/misc\lv_anim.h **** 
  29:c:\projects\paindrain\arduinolcd\test\pain drain\libraries\lvgl\src/misc\lv_anim.h **** LV_EXPORT_CONST_INT(LV_ANIM_REPEAT_INFINITE);
  30:c:\projects\paindrain\arduinolcd\test\pain drain\libraries\lvgl\src/misc\lv_anim.h **** LV_EXPORT_CONST_INT(LV_ANIM_PLAYTIME_INFINITE);
  31:c:\projects\paindrain\arduinolcd\test\pain drain\libraries\lvgl\src/misc\lv_anim.h **** 
  32:c:\projects\paindrain\arduinolcd\test\pain drain\libraries\lvgl\src/misc\lv_anim.h **** /**********************
  33:c:\projects\paindrain\arduinolcd\test\pain drain\libraries\lvgl\src/misc\lv_anim.h ****  *      TYPEDEFS
  34:c:\projects\paindrain\arduinolcd\test\pain drain\libraries\lvgl\src/misc\lv_anim.h ****  **********************/
  35:c:\projects\paindrain\arduinolcd\test\pain drain\libraries\lvgl\src/misc\lv_anim.h **** 
  36:c:\projects\paindrain\arduinolcd\test\pain drain\libraries\lvgl\src/misc\lv_anim.h **** /** Can be used to indicate if animations are enabled or disabled in a case*/
  37:c:\projects\paindrain\arduinolcd\test\pain drain\libraries\lvgl\src/misc\lv_anim.h **** typedef enum {
  38:c:\projects\paindrain\arduinolcd\test\pain drain\libraries\lvgl\src/misc\lv_anim.h ****     LV_ANIM_OFF,
  39:c:\projects\paindrain\arduinolcd\test\pain drain\libraries\lvgl\src/misc\lv_anim.h ****     LV_ANIM_ON,
  40:c:\projects\paindrain\arduinolcd\test\pain drain\libraries\lvgl\src/misc\lv_anim.h **** } lv_anim_enable_t;
  41:c:\projects\paindrain\arduinolcd\test\pain drain\libraries\lvgl\src/misc\lv_anim.h **** 
ARM GAS  C:\Users\haske\AppData\Local\Temp\ccmSsGgz.s 			page 4


  42:c:\projects\paindrain\arduinolcd\test\pain drain\libraries\lvgl\src/misc\lv_anim.h **** struct _lv_anim_t;
  43:c:\projects\paindrain\arduinolcd\test\pain drain\libraries\lvgl\src/misc\lv_anim.h **** struct _lv_timer_t;
  44:c:\projects\paindrain\arduinolcd\test\pain drain\libraries\lvgl\src/misc\lv_anim.h **** 
  45:c:\projects\paindrain\arduinolcd\test\pain drain\libraries\lvgl\src/misc\lv_anim.h **** /** Get the current value during an animation*/
  46:c:\projects\paindrain\arduinolcd\test\pain drain\libraries\lvgl\src/misc\lv_anim.h **** typedef int32_t (*lv_anim_path_cb_t)(const struct _lv_anim_t *);
  47:c:\projects\paindrain\arduinolcd\test\pain drain\libraries\lvgl\src/misc\lv_anim.h **** 
  48:c:\projects\paindrain\arduinolcd\test\pain drain\libraries\lvgl\src/misc\lv_anim.h **** /** Generic prototype of "animator" functions.
  49:c:\projects\paindrain\arduinolcd\test\pain drain\libraries\lvgl\src/misc\lv_anim.h ****  * First parameter is the variable to animate.
  50:c:\projects\paindrain\arduinolcd\test\pain drain\libraries\lvgl\src/misc\lv_anim.h ****  * Second parameter is the value to set.
  51:c:\projects\paindrain\arduinolcd\test\pain drain\libraries\lvgl\src/misc\lv_anim.h ****  * Compatible with `lv_xxx_set_yyy(obj, value)` functions
  52:c:\projects\paindrain\arduinolcd\test\pain drain\libraries\lvgl\src/misc\lv_anim.h ****  * The `x` in `_xcb_t` means it's not a fully generic prototype because
  53:c:\projects\paindrain\arduinolcd\test\pain drain\libraries\lvgl\src/misc\lv_anim.h ****  * it doesn't receive `lv_anim_t *` as its first argument*/
  54:c:\projects\paindrain\arduinolcd\test\pain drain\libraries\lvgl\src/misc\lv_anim.h **** typedef void (*lv_anim_exec_xcb_t)(void *, int32_t);
  55:c:\projects\paindrain\arduinolcd\test\pain drain\libraries\lvgl\src/misc\lv_anim.h **** 
  56:c:\projects\paindrain\arduinolcd\test\pain drain\libraries\lvgl\src/misc\lv_anim.h **** /** Same as `lv_anim_exec_xcb_t` but receives `lv_anim_t *` as the first parameter.
  57:c:\projects\paindrain\arduinolcd\test\pain drain\libraries\lvgl\src/misc\lv_anim.h ****  * It's more consistent but less convenient. Might be used by binding generator functions.*/
  58:c:\projects\paindrain\arduinolcd\test\pain drain\libraries\lvgl\src/misc\lv_anim.h **** typedef void (*lv_anim_custom_exec_cb_t)(struct _lv_anim_t *, int32_t);
  59:c:\projects\paindrain\arduinolcd\test\pain drain\libraries\lvgl\src/misc\lv_anim.h **** 
  60:c:\projects\paindrain\arduinolcd\test\pain drain\libraries\lvgl\src/misc\lv_anim.h **** /** Callback to call when the animation is ready*/
  61:c:\projects\paindrain\arduinolcd\test\pain drain\libraries\lvgl\src/misc\lv_anim.h **** typedef void (*lv_anim_ready_cb_t)(struct _lv_anim_t *);
  62:c:\projects\paindrain\arduinolcd\test\pain drain\libraries\lvgl\src/misc\lv_anim.h **** 
  63:c:\projects\paindrain\arduinolcd\test\pain drain\libraries\lvgl\src/misc\lv_anim.h **** /** Callback to call when the animation really stars (considering `delay`)*/
  64:c:\projects\paindrain\arduinolcd\test\pain drain\libraries\lvgl\src/misc\lv_anim.h **** typedef void (*lv_anim_start_cb_t)(struct _lv_anim_t *);
  65:c:\projects\paindrain\arduinolcd\test\pain drain\libraries\lvgl\src/misc\lv_anim.h **** 
  66:c:\projects\paindrain\arduinolcd\test\pain drain\libraries\lvgl\src/misc\lv_anim.h **** /** Callback used when the animation values are relative to get the current value*/
  67:c:\projects\paindrain\arduinolcd\test\pain drain\libraries\lvgl\src/misc\lv_anim.h **** typedef int32_t (*lv_anim_get_value_cb_t)(struct _lv_anim_t *);
  68:c:\projects\paindrain\arduinolcd\test\pain drain\libraries\lvgl\src/misc\lv_anim.h **** 
  69:c:\projects\paindrain\arduinolcd\test\pain drain\libraries\lvgl\src/misc\lv_anim.h **** /** Callback used when the animation is deleted*/
  70:c:\projects\paindrain\arduinolcd\test\pain drain\libraries\lvgl\src/misc\lv_anim.h **** typedef void (*lv_anim_deleted_cb_t)(struct _lv_anim_t *);
  71:c:\projects\paindrain\arduinolcd\test\pain drain\libraries\lvgl\src/misc\lv_anim.h **** 
  72:c:\projects\paindrain\arduinolcd\test\pain drain\libraries\lvgl\src/misc\lv_anim.h **** /** Describes an animation*/
  73:c:\projects\paindrain\arduinolcd\test\pain drain\libraries\lvgl\src/misc\lv_anim.h **** typedef struct _lv_anim_t {
  74:c:\projects\paindrain\arduinolcd\test\pain drain\libraries\lvgl\src/misc\lv_anim.h ****     void * var;                          /**<Variable to animate*/
  75:c:\projects\paindrain\arduinolcd\test\pain drain\libraries\lvgl\src/misc\lv_anim.h ****     lv_anim_exec_xcb_t exec_cb;          /**< Function to execute to animate*/
  76:c:\projects\paindrain\arduinolcd\test\pain drain\libraries\lvgl\src/misc\lv_anim.h ****     lv_anim_start_cb_t start_cb;         /**< Call it when the animation is starts (considering `de
  77:c:\projects\paindrain\arduinolcd\test\pain drain\libraries\lvgl\src/misc\lv_anim.h ****     lv_anim_ready_cb_t ready_cb;         /**< Call it when the animation is ready*/
  78:c:\projects\paindrain\arduinolcd\test\pain drain\libraries\lvgl\src/misc\lv_anim.h ****     lv_anim_deleted_cb_t deleted_cb;     /**< Call it when the animation is deleted*/
  79:c:\projects\paindrain\arduinolcd\test\pain drain\libraries\lvgl\src/misc\lv_anim.h ****     lv_anim_get_value_cb_t get_value_cb; /**< Get the current value in relative mode*/
  80:c:\projects\paindrain\arduinolcd\test\pain drain\libraries\lvgl\src/misc\lv_anim.h **** #if LV_USE_USER_DATA
  81:c:\projects\paindrain\arduinolcd\test\pain drain\libraries\lvgl\src/misc\lv_anim.h ****     void * user_data; /**< Custom user data*/
  82:c:\projects\paindrain\arduinolcd\test\pain drain\libraries\lvgl\src/misc\lv_anim.h **** #endif
  83:c:\projects\paindrain\arduinolcd\test\pain drain\libraries\lvgl\src/misc\lv_anim.h ****     lv_anim_path_cb_t path_cb;         /**< Describe the path (curve) of animations*/
  84:c:\projects\paindrain\arduinolcd\test\pain drain\libraries\lvgl\src/misc\lv_anim.h ****     int32_t start_value;               /**< Start value*/
  85:c:\projects\paindrain\arduinolcd\test\pain drain\libraries\lvgl\src/misc\lv_anim.h ****     int32_t current_value;             /**< Current value*/
  86:c:\projects\paindrain\arduinolcd\test\pain drain\libraries\lvgl\src/misc\lv_anim.h ****     int32_t end_value;                 /**< End value*/
  87:c:\projects\paindrain\arduinolcd\test\pain drain\libraries\lvgl\src/misc\lv_anim.h ****     int32_t time;                /**< Animation time in ms*/
  88:c:\projects\paindrain\arduinolcd\test\pain drain\libraries\lvgl\src/misc\lv_anim.h ****     int32_t act_time;            /**< Current time in animation. Set to negative to make delay.*/
  89:c:\projects\paindrain\arduinolcd\test\pain drain\libraries\lvgl\src/misc\lv_anim.h ****     uint32_t playback_delay;     /**< Wait before play back*/
  90:c:\projects\paindrain\arduinolcd\test\pain drain\libraries\lvgl\src/misc\lv_anim.h ****     uint32_t playback_time;      /**< Duration of playback animation*/
  91:c:\projects\paindrain\arduinolcd\test\pain drain\libraries\lvgl\src/misc\lv_anim.h ****     uint32_t repeat_delay;       /**< Wait before repeat*/
  92:c:\projects\paindrain\arduinolcd\test\pain drain\libraries\lvgl\src/misc\lv_anim.h ****     uint16_t repeat_cnt;         /**< Repeat count for the animation*/
  93:c:\projects\paindrain\arduinolcd\test\pain drain\libraries\lvgl\src/misc\lv_anim.h ****     uint8_t early_apply  : 1;    /**< 1: Apply start value immediately even is there is `delay`*/
  94:c:\projects\paindrain\arduinolcd\test\pain drain\libraries\lvgl\src/misc\lv_anim.h **** 
  95:c:\projects\paindrain\arduinolcd\test\pain drain\libraries\lvgl\src/misc\lv_anim.h ****     /*Animation system use these - user shouldn't set*/
  96:c:\projects\paindrain\arduinolcd\test\pain drain\libraries\lvgl\src/misc\lv_anim.h ****     uint8_t playback_now : 1; /**< Play back is in progress*/
  97:c:\projects\paindrain\arduinolcd\test\pain drain\libraries\lvgl\src/misc\lv_anim.h ****     uint8_t run_round : 1;    /**< Indicates the animation has run in this round*/
  98:c:\projects\paindrain\arduinolcd\test\pain drain\libraries\lvgl\src/misc\lv_anim.h ****     uint8_t start_cb_called : 1;    /**< Indicates that the `start_cb` was already called*/
ARM GAS  C:\Users\haske\AppData\Local\Temp\ccmSsGgz.s 			page 5


  99:c:\projects\paindrain\arduinolcd\test\pain drain\libraries\lvgl\src/misc\lv_anim.h **** } lv_anim_t;
 100:c:\projects\paindrain\arduinolcd\test\pain drain\libraries\lvgl\src/misc\lv_anim.h **** 
 101:c:\projects\paindrain\arduinolcd\test\pain drain\libraries\lvgl\src/misc\lv_anim.h **** /**********************
 102:c:\projects\paindrain\arduinolcd\test\pain drain\libraries\lvgl\src/misc\lv_anim.h ****  * GLOBAL PROTOTYPES
 103:c:\projects\paindrain\arduinolcd\test\pain drain\libraries\lvgl\src/misc\lv_anim.h ****  **********************/
 104:c:\projects\paindrain\arduinolcd\test\pain drain\libraries\lvgl\src/misc\lv_anim.h **** 
 105:c:\projects\paindrain\arduinolcd\test\pain drain\libraries\lvgl\src/misc\lv_anim.h **** /**
 106:c:\projects\paindrain\arduinolcd\test\pain drain\libraries\lvgl\src/misc\lv_anim.h ****  * Init. the animation module
 107:c:\projects\paindrain\arduinolcd\test\pain drain\libraries\lvgl\src/misc\lv_anim.h ****  */
 108:c:\projects\paindrain\arduinolcd\test\pain drain\libraries\lvgl\src/misc\lv_anim.h **** void _lv_anim_core_init(void);
 109:c:\projects\paindrain\arduinolcd\test\pain drain\libraries\lvgl\src/misc\lv_anim.h **** 
 110:c:\projects\paindrain\arduinolcd\test\pain drain\libraries\lvgl\src/misc\lv_anim.h **** /**
 111:c:\projects\paindrain\arduinolcd\test\pain drain\libraries\lvgl\src/misc\lv_anim.h ****  * Initialize an animation variable.
 112:c:\projects\paindrain\arduinolcd\test\pain drain\libraries\lvgl\src/misc\lv_anim.h ****  * E.g.:
 113:c:\projects\paindrain\arduinolcd\test\pain drain\libraries\lvgl\src/misc\lv_anim.h ****  * lv_anim_t a;
 114:c:\projects\paindrain\arduinolcd\test\pain drain\libraries\lvgl\src/misc\lv_anim.h ****  * lv_anim_init(&a);
 115:c:\projects\paindrain\arduinolcd\test\pain drain\libraries\lvgl\src/misc\lv_anim.h ****  * lv_anim_set_...(&a);
 116:c:\projects\paindrain\arduinolcd\test\pain drain\libraries\lvgl\src/misc\lv_anim.h ****  * lv_anim_start(&a);
 117:c:\projects\paindrain\arduinolcd\test\pain drain\libraries\lvgl\src/misc\lv_anim.h ****  * @param a     pointer to an `lv_anim_t` variable to initialize
 118:c:\projects\paindrain\arduinolcd\test\pain drain\libraries\lvgl\src/misc\lv_anim.h ****  */
 119:c:\projects\paindrain\arduinolcd\test\pain drain\libraries\lvgl\src/misc\lv_anim.h **** void lv_anim_init(lv_anim_t * a);
 120:c:\projects\paindrain\arduinolcd\test\pain drain\libraries\lvgl\src/misc\lv_anim.h **** 
 121:c:\projects\paindrain\arduinolcd\test\pain drain\libraries\lvgl\src/misc\lv_anim.h **** /**
 122:c:\projects\paindrain\arduinolcd\test\pain drain\libraries\lvgl\src/misc\lv_anim.h ****  * Set a variable to animate
 123:c:\projects\paindrain\arduinolcd\test\pain drain\libraries\lvgl\src/misc\lv_anim.h ****  * @param a     pointer to an initialized `lv_anim_t` variable
 124:c:\projects\paindrain\arduinolcd\test\pain drain\libraries\lvgl\src/misc\lv_anim.h ****  * @param var   pointer to a variable to animate
 125:c:\projects\paindrain\arduinolcd\test\pain drain\libraries\lvgl\src/misc\lv_anim.h ****  */
 126:c:\projects\paindrain\arduinolcd\test\pain drain\libraries\lvgl\src/misc\lv_anim.h **** static inline void lv_anim_set_var(lv_anim_t * a, void * var)
 127:c:\projects\paindrain\arduinolcd\test\pain drain\libraries\lvgl\src/misc\lv_anim.h **** {
 128:c:\projects\paindrain\arduinolcd\test\pain drain\libraries\lvgl\src/misc\lv_anim.h ****     a->var = var;
  56              		.loc 2 128 0
  57 0016 0195     		str	r5, [sp, #4]
  58              	.LVL5:
  59              	.LBE19:
  60              	.LBE18:
  61              	.LBB20:
  62              	.LBB21:
 129:c:\projects\paindrain\arduinolcd\test\pain drain\libraries\lvgl\src/misc\lv_anim.h **** }
 130:c:\projects\paindrain\arduinolcd\test\pain drain\libraries\lvgl\src/misc\lv_anim.h **** 
 131:c:\projects\paindrain\arduinolcd\test\pain drain\libraries\lvgl\src/misc\lv_anim.h **** /**
 132:c:\projects\paindrain\arduinolcd\test\pain drain\libraries\lvgl\src/misc\lv_anim.h ****  * Set a function to animate `var`
 133:c:\projects\paindrain\arduinolcd\test\pain drain\libraries\lvgl\src/misc\lv_anim.h ****  * @param a         pointer to an initialized `lv_anim_t` variable
 134:c:\projects\paindrain\arduinolcd\test\pain drain\libraries\lvgl\src/misc\lv_anim.h ****  * @param exec_cb   a function to execute during animation
 135:c:\projects\paindrain\arduinolcd\test\pain drain\libraries\lvgl\src/misc\lv_anim.h ****  *                  LVGL's built-in functions can be used.
 136:c:\projects\paindrain\arduinolcd\test\pain drain\libraries\lvgl\src/misc\lv_anim.h ****  *                  E.g. lv_obj_set_x
 137:c:\projects\paindrain\arduinolcd\test\pain drain\libraries\lvgl\src/misc\lv_anim.h ****  */
 138:c:\projects\paindrain\arduinolcd\test\pain drain\libraries\lvgl\src/misc\lv_anim.h **** static inline void lv_anim_set_exec_cb(lv_anim_t * a, lv_anim_exec_xcb_t exec_cb)
 139:c:\projects\paindrain\arduinolcd\test\pain drain\libraries\lvgl\src/misc\lv_anim.h **** {
 140:c:\projects\paindrain\arduinolcd\test\pain drain\libraries\lvgl\src/misc\lv_anim.h ****     a->exec_cb = exec_cb;
  63              		.loc 2 140 0
  64 0018 154B     		ldr	r3, .L2
  65 001a 6360     		str	r3, [r4, #4]
  66              	.LVL6:
  67              	.LBE21:
  68              	.LBE20:
  69              	.LBB22:
  70              	.LBB23:
ARM GAS  C:\Users\haske\AppData\Local\Temp\ccmSsGgz.s 			page 6


 141:c:\projects\paindrain\arduinolcd\test\pain drain\libraries\lvgl\src/misc\lv_anim.h **** }
 142:c:\projects\paindrain\arduinolcd\test\pain drain\libraries\lvgl\src/misc\lv_anim.h **** 
 143:c:\projects\paindrain\arduinolcd\test\pain drain\libraries\lvgl\src/misc\lv_anim.h **** /**
 144:c:\projects\paindrain\arduinolcd\test\pain drain\libraries\lvgl\src/misc\lv_anim.h ****  * Set the duration of an animation
 145:c:\projects\paindrain\arduinolcd\test\pain drain\libraries\lvgl\src/misc\lv_anim.h ****  * @param a         pointer to an initialized `lv_anim_t` variable
 146:c:\projects\paindrain\arduinolcd\test\pain drain\libraries\lvgl\src/misc\lv_anim.h ****  * @param duration  duration of the animation in milliseconds
 147:c:\projects\paindrain\arduinolcd\test\pain drain\libraries\lvgl\src/misc\lv_anim.h ****  */
 148:c:\projects\paindrain\arduinolcd\test\pain drain\libraries\lvgl\src/misc\lv_anim.h **** static inline void lv_anim_set_time(lv_anim_t * a, uint32_t duration)
 149:c:\projects\paindrain\arduinolcd\test\pain drain\libraries\lvgl\src/misc\lv_anim.h **** {
 150:c:\projects\paindrain\arduinolcd\test\pain drain\libraries\lvgl\src/misc\lv_anim.h ****     a->time = duration;
 151:c:\projects\paindrain\arduinolcd\test\pain drain\libraries\lvgl\src/misc\lv_anim.h **** }
 152:c:\projects\paindrain\arduinolcd\test\pain drain\libraries\lvgl\src/misc\lv_anim.h **** 
 153:c:\projects\paindrain\arduinolcd\test\pain drain\libraries\lvgl\src/misc\lv_anim.h **** /**
 154:c:\projects\paindrain\arduinolcd\test\pain drain\libraries\lvgl\src/misc\lv_anim.h ****  * Set a delay before starting the animation
 155:c:\projects\paindrain\arduinolcd\test\pain drain\libraries\lvgl\src/misc\lv_anim.h ****  * @param a         pointer to an initialized `lv_anim_t` variable
 156:c:\projects\paindrain\arduinolcd\test\pain drain\libraries\lvgl\src/misc\lv_anim.h ****  * @param delay     delay before the animation in milliseconds
 157:c:\projects\paindrain\arduinolcd\test\pain drain\libraries\lvgl\src/misc\lv_anim.h ****  */
 158:c:\projects\paindrain\arduinolcd\test\pain drain\libraries\lvgl\src/misc\lv_anim.h **** static inline void lv_anim_set_delay(lv_anim_t * a, uint32_t delay)
 159:c:\projects\paindrain\arduinolcd\test\pain drain\libraries\lvgl\src/misc\lv_anim.h **** {
 160:c:\projects\paindrain\arduinolcd\test\pain drain\libraries\lvgl\src/misc\lv_anim.h ****     a->act_time = -(int32_t)(delay);
 161:c:\projects\paindrain\arduinolcd\test\pain drain\libraries\lvgl\src/misc\lv_anim.h **** }
 162:c:\projects\paindrain\arduinolcd\test\pain drain\libraries\lvgl\src/misc\lv_anim.h **** 
 163:c:\projects\paindrain\arduinolcd\test\pain drain\libraries\lvgl\src/misc\lv_anim.h **** /**
 164:c:\projects\paindrain\arduinolcd\test\pain drain\libraries\lvgl\src/misc\lv_anim.h ****  * Set the start and end values of an animation
 165:c:\projects\paindrain\arduinolcd\test\pain drain\libraries\lvgl\src/misc\lv_anim.h ****  * @param a         pointer to an initialized `lv_anim_t` variable
 166:c:\projects\paindrain\arduinolcd\test\pain drain\libraries\lvgl\src/misc\lv_anim.h ****  * @param start     the start value
 167:c:\projects\paindrain\arduinolcd\test\pain drain\libraries\lvgl\src/misc\lv_anim.h ****  * @param end       the end value
 168:c:\projects\paindrain\arduinolcd\test\pain drain\libraries\lvgl\src/misc\lv_anim.h ****  */
 169:c:\projects\paindrain\arduinolcd\test\pain drain\libraries\lvgl\src/misc\lv_anim.h **** static inline void lv_anim_set_values(lv_anim_t * a, int32_t start, int32_t end)
 170:c:\projects\paindrain\arduinolcd\test\pain drain\libraries\lvgl\src/misc\lv_anim.h **** {
 171:c:\projects\paindrain\arduinolcd\test\pain drain\libraries\lvgl\src/misc\lv_anim.h ****     a->start_value = start;
 172:c:\projects\paindrain\arduinolcd\test\pain drain\libraries\lvgl\src/misc\lv_anim.h ****     a->current_value = start;
 173:c:\projects\paindrain\arduinolcd\test\pain drain\libraries\lvgl\src/misc\lv_anim.h ****     a->end_value = end;
 174:c:\projects\paindrain\arduinolcd\test\pain drain\libraries\lvgl\src/misc\lv_anim.h **** }
 175:c:\projects\paindrain\arduinolcd\test\pain drain\libraries\lvgl\src/misc\lv_anim.h **** 
 176:c:\projects\paindrain\arduinolcd\test\pain drain\libraries\lvgl\src/misc\lv_anim.h **** /**
 177:c:\projects\paindrain\arduinolcd\test\pain drain\libraries\lvgl\src/misc\lv_anim.h ****  * Similar to `lv_anim_set_exec_cb` but `lv_anim_custom_exec_cb_t` receives
 178:c:\projects\paindrain\arduinolcd\test\pain drain\libraries\lvgl\src/misc\lv_anim.h ****  * `lv_anim_t * ` as its first parameter instead of `void *`.
 179:c:\projects\paindrain\arduinolcd\test\pain drain\libraries\lvgl\src/misc\lv_anim.h ****  * This function might be used when LVGL is bound to other languages because
 180:c:\projects\paindrain\arduinolcd\test\pain drain\libraries\lvgl\src/misc\lv_anim.h ****  * it's more consistent to have `lv_anim_t *` as first parameter.
 181:c:\projects\paindrain\arduinolcd\test\pain drain\libraries\lvgl\src/misc\lv_anim.h ****  * The variable to animate can be stored in the animation's `user_data`
 182:c:\projects\paindrain\arduinolcd\test\pain drain\libraries\lvgl\src/misc\lv_anim.h ****  * @param a         pointer to an initialized `lv_anim_t` variable
 183:c:\projects\paindrain\arduinolcd\test\pain drain\libraries\lvgl\src/misc\lv_anim.h ****  * @param exec_cb   a function to execute.
 184:c:\projects\paindrain\arduinolcd\test\pain drain\libraries\lvgl\src/misc\lv_anim.h ****  */
 185:c:\projects\paindrain\arduinolcd\test\pain drain\libraries\lvgl\src/misc\lv_anim.h **** static inline void lv_anim_set_custom_exec_cb(lv_anim_t * a, lv_anim_custom_exec_cb_t exec_cb)
 186:c:\projects\paindrain\arduinolcd\test\pain drain\libraries\lvgl\src/misc\lv_anim.h **** {
 187:c:\projects\paindrain\arduinolcd\test\pain drain\libraries\lvgl\src/misc\lv_anim.h ****     a->var     = a;
 188:c:\projects\paindrain\arduinolcd\test\pain drain\libraries\lvgl\src/misc\lv_anim.h ****     a->exec_cb = (lv_anim_exec_xcb_t)exec_cb;
 189:c:\projects\paindrain\arduinolcd\test\pain drain\libraries\lvgl\src/misc\lv_anim.h **** }
 190:c:\projects\paindrain\arduinolcd\test\pain drain\libraries\lvgl\src/misc\lv_anim.h **** 
 191:c:\projects\paindrain\arduinolcd\test\pain drain\libraries\lvgl\src/misc\lv_anim.h **** /**
 192:c:\projects\paindrain\arduinolcd\test\pain drain\libraries\lvgl\src/misc\lv_anim.h ****  * Set the path (curve) of the animation.
 193:c:\projects\paindrain\arduinolcd\test\pain drain\libraries\lvgl\src/misc\lv_anim.h ****  * @param a         pointer to an initialized `lv_anim_t` variable
 194:c:\projects\paindrain\arduinolcd\test\pain drain\libraries\lvgl\src/misc\lv_anim.h ****  * @param path_cb a function to set the current value of the animation.
 195:c:\projects\paindrain\arduinolcd\test\pain drain\libraries\lvgl\src/misc\lv_anim.h ****  */
 196:c:\projects\paindrain\arduinolcd\test\pain drain\libraries\lvgl\src/misc\lv_anim.h **** static inline void lv_anim_set_path_cb(lv_anim_t * a, lv_anim_path_cb_t path_cb)
 197:c:\projects\paindrain\arduinolcd\test\pain drain\libraries\lvgl\src/misc\lv_anim.h **** {
ARM GAS  C:\Users\haske\AppData\Local\Temp\ccmSsGgz.s 			page 7


 198:c:\projects\paindrain\arduinolcd\test\pain drain\libraries\lvgl\src/misc\lv_anim.h ****     a->path_cb = path_cb;
 199:c:\projects\paindrain\arduinolcd\test\pain drain\libraries\lvgl\src/misc\lv_anim.h **** }
 200:c:\projects\paindrain\arduinolcd\test\pain drain\libraries\lvgl\src/misc\lv_anim.h **** 
 201:c:\projects\paindrain\arduinolcd\test\pain drain\libraries\lvgl\src/misc\lv_anim.h **** /**
 202:c:\projects\paindrain\arduinolcd\test\pain drain\libraries\lvgl\src/misc\lv_anim.h ****  * Set a function call when the animation really starts (considering `delay`)
 203:c:\projects\paindrain\arduinolcd\test\pain drain\libraries\lvgl\src/misc\lv_anim.h ****  * @param a         pointer to an initialized `lv_anim_t` variable
 204:c:\projects\paindrain\arduinolcd\test\pain drain\libraries\lvgl\src/misc\lv_anim.h ****  * @param start_cb  a function call when the animation starts
 205:c:\projects\paindrain\arduinolcd\test\pain drain\libraries\lvgl\src/misc\lv_anim.h ****  */
 206:c:\projects\paindrain\arduinolcd\test\pain drain\libraries\lvgl\src/misc\lv_anim.h **** static inline void lv_anim_set_start_cb(lv_anim_t * a, lv_anim_start_cb_t start_cb)
 207:c:\projects\paindrain\arduinolcd\test\pain drain\libraries\lvgl\src/misc\lv_anim.h **** {
 208:c:\projects\paindrain\arduinolcd\test\pain drain\libraries\lvgl\src/misc\lv_anim.h ****     a->start_cb = start_cb;
 209:c:\projects\paindrain\arduinolcd\test\pain drain\libraries\lvgl\src/misc\lv_anim.h **** }
 210:c:\projects\paindrain\arduinolcd\test\pain drain\libraries\lvgl\src/misc\lv_anim.h **** 
 211:c:\projects\paindrain\arduinolcd\test\pain drain\libraries\lvgl\src/misc\lv_anim.h **** /**
 212:c:\projects\paindrain\arduinolcd\test\pain drain\libraries\lvgl\src/misc\lv_anim.h ****  * Set a function to use the current value of the variable and make start and end value
 213:c:\projects\paindrain\arduinolcd\test\pain drain\libraries\lvgl\src/misc\lv_anim.h ****  * relative to the returned current value.
 214:c:\projects\paindrain\arduinolcd\test\pain drain\libraries\lvgl\src/misc\lv_anim.h ****  * @param a             pointer to an initialized `lv_anim_t` variable
 215:c:\projects\paindrain\arduinolcd\test\pain drain\libraries\lvgl\src/misc\lv_anim.h ****  * @param get_value_cb  a function call when the animation starts
 216:c:\projects\paindrain\arduinolcd\test\pain drain\libraries\lvgl\src/misc\lv_anim.h ****  */
 217:c:\projects\paindrain\arduinolcd\test\pain drain\libraries\lvgl\src/misc\lv_anim.h **** static inline void lv_anim_set_get_value_cb(lv_anim_t * a, lv_anim_get_value_cb_t get_value_cb)
 218:c:\projects\paindrain\arduinolcd\test\pain drain\libraries\lvgl\src/misc\lv_anim.h **** {
 219:c:\projects\paindrain\arduinolcd\test\pain drain\libraries\lvgl\src/misc\lv_anim.h ****     a->get_value_cb = get_value_cb;
 220:c:\projects\paindrain\arduinolcd\test\pain drain\libraries\lvgl\src/misc\lv_anim.h **** }
 221:c:\projects\paindrain\arduinolcd\test\pain drain\libraries\lvgl\src/misc\lv_anim.h **** 
 222:c:\projects\paindrain\arduinolcd\test\pain drain\libraries\lvgl\src/misc\lv_anim.h **** /**
 223:c:\projects\paindrain\arduinolcd\test\pain drain\libraries\lvgl\src/misc\lv_anim.h ****  * Set a function call when the animation is ready
 224:c:\projects\paindrain\arduinolcd\test\pain drain\libraries\lvgl\src/misc\lv_anim.h ****  * @param a         pointer to an initialized `lv_anim_t` variable
 225:c:\projects\paindrain\arduinolcd\test\pain drain\libraries\lvgl\src/misc\lv_anim.h ****  * @param ready_cb  a function call when the animation is ready
 226:c:\projects\paindrain\arduinolcd\test\pain drain\libraries\lvgl\src/misc\lv_anim.h ****  */
 227:c:\projects\paindrain\arduinolcd\test\pain drain\libraries\lvgl\src/misc\lv_anim.h **** static inline void lv_anim_set_ready_cb(lv_anim_t * a, lv_anim_ready_cb_t ready_cb)
 228:c:\projects\paindrain\arduinolcd\test\pain drain\libraries\lvgl\src/misc\lv_anim.h **** {
 229:c:\projects\paindrain\arduinolcd\test\pain drain\libraries\lvgl\src/misc\lv_anim.h ****     a->ready_cb = ready_cb;
 230:c:\projects\paindrain\arduinolcd\test\pain drain\libraries\lvgl\src/misc\lv_anim.h **** }
 231:c:\projects\paindrain\arduinolcd\test\pain drain\libraries\lvgl\src/misc\lv_anim.h **** 
 232:c:\projects\paindrain\arduinolcd\test\pain drain\libraries\lvgl\src/misc\lv_anim.h **** /**
 233:c:\projects\paindrain\arduinolcd\test\pain drain\libraries\lvgl\src/misc\lv_anim.h ****  * Set a function call when the animation is deleted.
 234:c:\projects\paindrain\arduinolcd\test\pain drain\libraries\lvgl\src/misc\lv_anim.h ****  * @param a         pointer to an initialized `lv_anim_t` variable
 235:c:\projects\paindrain\arduinolcd\test\pain drain\libraries\lvgl\src/misc\lv_anim.h ****  * @param deleted_cb  a function call when the animation is deleted
 236:c:\projects\paindrain\arduinolcd\test\pain drain\libraries\lvgl\src/misc\lv_anim.h ****  */
 237:c:\projects\paindrain\arduinolcd\test\pain drain\libraries\lvgl\src/misc\lv_anim.h **** static inline void lv_anim_set_deleted_cb(lv_anim_t * a, lv_anim_deleted_cb_t deleted_cb)
 238:c:\projects\paindrain\arduinolcd\test\pain drain\libraries\lvgl\src/misc\lv_anim.h **** {
 239:c:\projects\paindrain\arduinolcd\test\pain drain\libraries\lvgl\src/misc\lv_anim.h ****     a->deleted_cb = deleted_cb;
 240:c:\projects\paindrain\arduinolcd\test\pain drain\libraries\lvgl\src/misc\lv_anim.h **** }
 241:c:\projects\paindrain\arduinolcd\test\pain drain\libraries\lvgl\src/misc\lv_anim.h **** 
 242:c:\projects\paindrain\arduinolcd\test\pain drain\libraries\lvgl\src/misc\lv_anim.h **** /**
 243:c:\projects\paindrain\arduinolcd\test\pain drain\libraries\lvgl\src/misc\lv_anim.h ****  * Make the animation to play back to when the forward direction is ready
 244:c:\projects\paindrain\arduinolcd\test\pain drain\libraries\lvgl\src/misc\lv_anim.h ****  * @param a         pointer to an initialized `lv_anim_t` variable
 245:c:\projects\paindrain\arduinolcd\test\pain drain\libraries\lvgl\src/misc\lv_anim.h ****  * @param time      the duration of the playback animation in milliseconds. 0: disable playback
 246:c:\projects\paindrain\arduinolcd\test\pain drain\libraries\lvgl\src/misc\lv_anim.h ****  */
 247:c:\projects\paindrain\arduinolcd\test\pain drain\libraries\lvgl\src/misc\lv_anim.h **** static inline void lv_anim_set_playback_time(lv_anim_t * a, uint32_t time)
 248:c:\projects\paindrain\arduinolcd\test\pain drain\libraries\lvgl\src/misc\lv_anim.h **** {
 249:c:\projects\paindrain\arduinolcd\test\pain drain\libraries\lvgl\src/misc\lv_anim.h ****     a->playback_time = time;
 250:c:\projects\paindrain\arduinolcd\test\pain drain\libraries\lvgl\src/misc\lv_anim.h **** }
 251:c:\projects\paindrain\arduinolcd\test\pain drain\libraries\lvgl\src/misc\lv_anim.h **** 
 252:c:\projects\paindrain\arduinolcd\test\pain drain\libraries\lvgl\src/misc\lv_anim.h **** /**
 253:c:\projects\paindrain\arduinolcd\test\pain drain\libraries\lvgl\src/misc\lv_anim.h ****  * Make the animation to play back to when the forward direction is ready
 254:c:\projects\paindrain\arduinolcd\test\pain drain\libraries\lvgl\src/misc\lv_anim.h ****  * @param a         pointer to an initialized `lv_anim_t` variable
ARM GAS  C:\Users\haske\AppData\Local\Temp\ccmSsGgz.s 			page 8


 255:c:\projects\paindrain\arduinolcd\test\pain drain\libraries\lvgl\src/misc\lv_anim.h ****  * @param delay     delay in milliseconds before starting the playback animation.
 256:c:\projects\paindrain\arduinolcd\test\pain drain\libraries\lvgl\src/misc\lv_anim.h ****  */
 257:c:\projects\paindrain\arduinolcd\test\pain drain\libraries\lvgl\src/misc\lv_anim.h **** static inline void lv_anim_set_playback_delay(lv_anim_t * a, uint32_t delay)
 258:c:\projects\paindrain\arduinolcd\test\pain drain\libraries\lvgl\src/misc\lv_anim.h **** {
 259:c:\projects\paindrain\arduinolcd\test\pain drain\libraries\lvgl\src/misc\lv_anim.h ****     a->playback_delay = delay;
 260:c:\projects\paindrain\arduinolcd\test\pain drain\libraries\lvgl\src/misc\lv_anim.h **** }
 261:c:\projects\paindrain\arduinolcd\test\pain drain\libraries\lvgl\src/misc\lv_anim.h **** 
 262:c:\projects\paindrain\arduinolcd\test\pain drain\libraries\lvgl\src/misc\lv_anim.h **** /**
 263:c:\projects\paindrain\arduinolcd\test\pain drain\libraries\lvgl\src/misc\lv_anim.h ****  * Make the animation repeat itself.
 264:c:\projects\paindrain\arduinolcd\test\pain drain\libraries\lvgl\src/misc\lv_anim.h ****  * @param a         pointer to an initialized `lv_anim_t` variable
 265:c:\projects\paindrain\arduinolcd\test\pain drain\libraries\lvgl\src/misc\lv_anim.h ****  * @param cnt       repeat count or `LV_ANIM_REPEAT_INFINITE` for infinite repetition. 0: to disabl
 266:c:\projects\paindrain\arduinolcd\test\pain drain\libraries\lvgl\src/misc\lv_anim.h ****  */
 267:c:\projects\paindrain\arduinolcd\test\pain drain\libraries\lvgl\src/misc\lv_anim.h **** static inline void lv_anim_set_repeat_count(lv_anim_t * a, uint16_t cnt)
 268:c:\projects\paindrain\arduinolcd\test\pain drain\libraries\lvgl\src/misc\lv_anim.h **** {
 269:c:\projects\paindrain\arduinolcd\test\pain drain\libraries\lvgl\src/misc\lv_anim.h ****     a->repeat_cnt = cnt;
  71              		.loc 2 269 0
  72 001c 0122     		movs	r2, #1
  73 001e 5242     		rsbs	r2, r2, #0
  74 0020 4023     		movs	r3, #64
  75 0022 E252     		strh	r2, [r4, r3]
  76              	.LVL7:
  77              	.LBE23:
  78              	.LBE22:
  76:..\..\..\arduinoLCD\test\Pain Drain\libraries\lvgl\src\extra\widgets\spinner/lv_spinner.c ****     lv_anim_set_var(&a, obj);
  77:..\..\..\arduinoLCD\test\Pain Drain\libraries\lvgl\src\extra\widgets\spinner/lv_spinner.c ****     lv_anim_set_exec_cb(&a, arc_anim_end_angle);
  78:..\..\..\arduinoLCD\test\Pain Drain\libraries\lvgl\src\extra\widgets\spinner/lv_spinner.c ****     lv_anim_set_repeat_count(&a, LV_ANIM_REPEAT_INFINITE);
  79:..\..\..\arduinoLCD\test\Pain Drain\libraries\lvgl\src\extra\widgets\spinner/lv_spinner.c ****     lv_anim_set_time(&a, time_param);
  79              		.loc 1 79 0
  80 0024 134B     		ldr	r3, .L2+4
  81              	.LVL8:
  82              	.LBB24:
  83              	.LBB25:
 150:c:\projects\paindrain\arduinolcd\test\pain drain\libraries\lvgl\src/misc\lv_anim.h **** }
  84              		.loc 2 150 0
  85 0026 1A68     		ldr	r2, [r3]
  86 0028 E262     		str	r2, [r4, #44]
  87              	.LVL9:
  88              	.LBE25:
  89              	.LBE24:
  80:..\..\..\arduinoLCD\test\Pain Drain\libraries\lvgl\src\extra\widgets\spinner/lv_spinner.c ****     lv_anim_set_values(&a, arc_length_param, 360 + arc_length_param);
  90              		.loc 1 80 0
  91 002a 5B68     		ldr	r3, [r3, #4]
  92 002c 1A00     		movs	r2, r3
  93 002e 6932     		adds	r2, r2, #105
  94 0030 FF32     		adds	r2, r2, #255
  95              	.LVL10:
  96              	.LBB26:
  97              	.LBB27:
 171:c:\projects\paindrain\arduinolcd\test\pain drain\libraries\lvgl\src/misc\lv_anim.h ****     a->current_value = start;
  98              		.loc 2 171 0
  99 0032 2362     		str	r3, [r4, #32]
 172:c:\projects\paindrain\arduinolcd\test\pain drain\libraries\lvgl\src/misc\lv_anim.h ****     a->end_value = end;
 100              		.loc 2 172 0
 101 0034 6362     		str	r3, [r4, #36]
 173:c:\projects\paindrain\arduinolcd\test\pain drain\libraries\lvgl\src/misc\lv_anim.h **** }
 102              		.loc 2 173 0
 103 0036 A262     		str	r2, [r4, #40]
ARM GAS  C:\Users\haske\AppData\Local\Temp\ccmSsGgz.s 			page 9


 104              	.LVL11:
 105              	.LBE27:
 106              	.LBE26:
  81:..\..\..\arduinoLCD\test\Pain Drain\libraries\lvgl\src\extra\widgets\spinner/lv_spinner.c ****     lv_anim_start(&a);
 107              		.loc 1 81 0
 108 0038 2000     		movs	r0, r4
 109 003a FFF7FEFF 		bl	lv_anim_start
 110              	.LVL12:
 111              	.LBB28:
 112              	.LBB29:
 198:c:\projects\paindrain\arduinolcd\test\pain drain\libraries\lvgl\src/misc\lv_anim.h **** }
 113              		.loc 2 198 0
 114 003e 0E4B     		ldr	r3, .L2+8
 115 0040 E361     		str	r3, [r4, #28]
 116              	.LVL13:
 117              	.LBE29:
 118              	.LBE28:
 119              	.LBB30:
 120              	.LBB31:
 171:c:\projects\paindrain\arduinolcd\test\pain drain\libraries\lvgl\src/misc\lv_anim.h ****     a->current_value = start;
 121              		.loc 2 171 0
 122 0042 0023     		movs	r3, #0
 123 0044 2362     		str	r3, [r4, #32]
 172:c:\projects\paindrain\arduinolcd\test\pain drain\libraries\lvgl\src/misc\lv_anim.h ****     a->end_value = end;
 124              		.loc 2 172 0
 125 0046 6362     		str	r3, [r4, #36]
 173:c:\projects\paindrain\arduinolcd\test\pain drain\libraries\lvgl\src/misc\lv_anim.h **** }
 126              		.loc 2 173 0
 127 0048 B426     		movs	r6, #180
 128 004a 7600     		lsls	r6, r6, #1
 129 004c A662     		str	r6, [r4, #40]
 130              	.LVL14:
 131              	.LBE31:
 132              	.LBE30:
 133              	.LBB32:
 134              	.LBB33:
 140:c:\projects\paindrain\arduinolcd\test\pain drain\libraries\lvgl\src/misc\lv_anim.h **** }
 135              		.loc 2 140 0
 136 004e 0B4B     		ldr	r3, .L2+12
 137 0050 6360     		str	r3, [r4, #4]
 138              	.LVL15:
 139              	.LBE33:
 140              	.LBE32:
  82:..\..\..\arduinoLCD\test\Pain Drain\libraries\lvgl\src\extra\widgets\spinner/lv_spinner.c **** 
  83:..\..\..\arduinoLCD\test\Pain Drain\libraries\lvgl\src\extra\widgets\spinner/lv_spinner.c ****     lv_anim_set_path_cb(&a, lv_anim_path_ease_in_out);
  84:..\..\..\arduinoLCD\test\Pain Drain\libraries\lvgl\src\extra\widgets\spinner/lv_spinner.c ****     lv_anim_set_values(&a, 0, 360);
  85:..\..\..\arduinoLCD\test\Pain Drain\libraries\lvgl\src\extra\widgets\spinner/lv_spinner.c ****     lv_anim_set_exec_cb(&a, arc_anim_start_angle);
  86:..\..\..\arduinoLCD\test\Pain Drain\libraries\lvgl\src\extra\widgets\spinner/lv_spinner.c ****     lv_anim_start(&a);
 141              		.loc 1 86 0
 142 0052 2000     		movs	r0, r4
 143 0054 FFF7FEFF 		bl	lv_anim_start
 144              	.LVL16:
  87:..\..\..\arduinoLCD\test\Pain Drain\libraries\lvgl\src\extra\widgets\spinner/lv_spinner.c **** 
  88:..\..\..\arduinoLCD\test\Pain Drain\libraries\lvgl\src\extra\widgets\spinner/lv_spinner.c ****     lv_arc_set_bg_angles(obj, 0, 360);
 145              		.loc 1 88 0
 146 0058 3200     		movs	r2, r6
 147 005a 0021     		movs	r1, #0
ARM GAS  C:\Users\haske\AppData\Local\Temp\ccmSsGgz.s 			page 10


 148 005c 2800     		movs	r0, r5
 149 005e FFF7FEFF 		bl	lv_arc_set_bg_angles
 150              	.LVL17:
  89:..\..\..\arduinoLCD\test\Pain Drain\libraries\lvgl\src\extra\widgets\spinner/lv_spinner.c ****     lv_arc_set_rotation(obj, 270);
 151              		.loc 1 89 0
 152 0062 8721     		movs	r1, #135
 153 0064 4900     		lsls	r1, r1, #1
 154 0066 2800     		movs	r0, r5
 155 0068 FFF7FEFF 		bl	lv_arc_set_rotation
 156              	.LVL18:
  90:..\..\..\arduinoLCD\test\Pain Drain\libraries\lvgl\src\extra\widgets\spinner/lv_spinner.c **** }
 157              		.loc 1 90 0
 158 006c 12B0     		add	sp, sp, #72
 159              		@ sp needed
 160              	.LVL19:
 161 006e 70BD     		pop	{r4, r5, r6, pc}
 162              	.L3:
 163              		.align	2
 164              	.L2:
 165 0070 00000000 		.word	arc_anim_end_angle
 166 0074 00000000 		.word	.LANCHOR0
 167 0078 00000000 		.word	lv_anim_path_ease_in_out
 168 007c 00000000 		.word	arc_anim_start_angle
 169              		.cfi_endproc
 170              	.LFE203:
 171              		.size	lv_spinner_constructor, .-lv_spinner_constructor
 172              		.section	.text.arc_anim_start_angle,"ax",%progbits
 173              		.align	2
 174              		.code	16
 175              		.thumb_func
 176              		.type	arc_anim_start_angle, %function
 177              	arc_anim_start_angle:
 178              	.LFB204:
  91:..\..\..\arduinoLCD\test\Pain Drain\libraries\lvgl\src\extra\widgets\spinner/lv_spinner.c **** 
  92:..\..\..\arduinoLCD\test\Pain Drain\libraries\lvgl\src\extra\widgets\spinner/lv_spinner.c **** 
  93:..\..\..\arduinoLCD\test\Pain Drain\libraries\lvgl\src\extra\widgets\spinner/lv_spinner.c **** static void arc_anim_start_angle(void * obj, int32_t v)
  94:..\..\..\arduinoLCD\test\Pain Drain\libraries\lvgl\src\extra\widgets\spinner/lv_spinner.c **** {
 179              		.loc 1 94 0
 180              		.cfi_startproc
 181              		@ args = 0, pretend = 0, frame = 0
 182              		@ frame_needed = 0, uses_anonymous_args = 0
 183              	.LVL20:
 184 0000 10B5     		push	{r4, lr}
 185              		.cfi_def_cfa_offset 8
 186              		.cfi_offset 4, -8
 187              		.cfi_offset 14, -4
  95:..\..\..\arduinoLCD\test\Pain Drain\libraries\lvgl\src\extra\widgets\spinner/lv_spinner.c ****     lv_arc_set_start_angle(obj, (uint16_t) v);
 188              		.loc 1 95 0
 189 0002 89B2     		uxth	r1, r1
 190              	.LVL21:
 191 0004 FFF7FEFF 		bl	lv_arc_set_start_angle
 192              	.LVL22:
  96:..\..\..\arduinoLCD\test\Pain Drain\libraries\lvgl\src\extra\widgets\spinner/lv_spinner.c **** }
 193              		.loc 1 96 0
 194              		@ sp needed
 195 0008 10BD     		pop	{r4, pc}
 196              		.cfi_endproc
ARM GAS  C:\Users\haske\AppData\Local\Temp\ccmSsGgz.s 			page 11


 197              	.LFE204:
 198              		.size	arc_anim_start_angle, .-arc_anim_start_angle
 199 000a C046     		.section	.text.arc_anim_end_angle,"ax",%progbits
 200              		.align	2
 201              		.code	16
 202              		.thumb_func
 203              		.type	arc_anim_end_angle, %function
 204              	arc_anim_end_angle:
 205              	.LFB205:
  97:..\..\..\arduinoLCD\test\Pain Drain\libraries\lvgl\src\extra\widgets\spinner/lv_spinner.c **** 
  98:..\..\..\arduinoLCD\test\Pain Drain\libraries\lvgl\src\extra\widgets\spinner/lv_spinner.c **** 
  99:..\..\..\arduinoLCD\test\Pain Drain\libraries\lvgl\src\extra\widgets\spinner/lv_spinner.c **** static void arc_anim_end_angle(void * obj, int32_t v)
 100:..\..\..\arduinoLCD\test\Pain Drain\libraries\lvgl\src\extra\widgets\spinner/lv_spinner.c **** {
 206              		.loc 1 100 0
 207              		.cfi_startproc
 208              		@ args = 0, pretend = 0, frame = 0
 209              		@ frame_needed = 0, uses_anonymous_args = 0
 210              	.LVL23:
 211 0000 10B5     		push	{r4, lr}
 212              		.cfi_def_cfa_offset 8
 213              		.cfi_offset 4, -8
 214              		.cfi_offset 14, -4
 101:..\..\..\arduinoLCD\test\Pain Drain\libraries\lvgl\src\extra\widgets\spinner/lv_spinner.c ****     lv_arc_set_end_angle(obj, (uint16_t) v);
 215              		.loc 1 101 0
 216 0002 89B2     		uxth	r1, r1
 217              	.LVL24:
 218 0004 FFF7FEFF 		bl	lv_arc_set_end_angle
 219              	.LVL25:
 102:..\..\..\arduinoLCD\test\Pain Drain\libraries\lvgl\src\extra\widgets\spinner/lv_spinner.c **** }
 220              		.loc 1 102 0
 221              		@ sp needed
 222 0008 10BD     		pop	{r4, pc}
 223              		.cfi_endproc
 224              	.LFE205:
 225              		.size	arc_anim_end_angle, .-arc_anim_end_angle
 226 000a C046     		.section	.text.lv_spinner_create,"ax",%progbits
 227              		.align	2
 228              		.global	lv_spinner_create
 229              		.code	16
 230              		.thumb_func
 231              		.type	lv_spinner_create, %function
 232              	lv_spinner_create:
 233              	.LFB202:
  52:..\..\..\arduinoLCD\test\Pain Drain\libraries\lvgl\src\extra\widgets\spinner/lv_spinner.c ****     time_param = time;
 234              		.loc 1 52 0
 235              		.cfi_startproc
 236              		@ args = 0, pretend = 0, frame = 0
 237              		@ frame_needed = 0, uses_anonymous_args = 0
 238              	.LVL26:
 239 0000 10B5     		push	{r4, lr}
 240              		.cfi_def_cfa_offset 8
 241              		.cfi_offset 4, -8
 242              		.cfi_offset 14, -4
  53:..\..\..\arduinoLCD\test\Pain Drain\libraries\lvgl\src\extra\widgets\spinner/lv_spinner.c ****     arc_length_param = arc_length;
 243              		.loc 1 53 0
 244 0002 064B     		ldr	r3, .L7
 245 0004 1960     		str	r1, [r3]
ARM GAS  C:\Users\haske\AppData\Local\Temp\ccmSsGgz.s 			page 12


  54:..\..\..\arduinoLCD\test\Pain Drain\libraries\lvgl\src\extra\widgets\spinner/lv_spinner.c **** 
 246              		.loc 1 54 0
 247 0006 5A60     		str	r2, [r3, #4]
  56:..\..\..\arduinoLCD\test\Pain Drain\libraries\lvgl\src\extra\widgets\spinner/lv_spinner.c ****     lv_obj_class_init_obj(obj);
 248              		.loc 1 56 0
 249 0008 0100     		movs	r1, r0
 250              	.LVL27:
 251 000a 0548     		ldr	r0, .L7+4
 252              	.LVL28:
 253 000c FFF7FEFF 		bl	lv_obj_class_create_obj
 254              	.LVL29:
 255 0010 0400     		movs	r4, r0
 256              	.LVL30:
  57:..\..\..\arduinoLCD\test\Pain Drain\libraries\lvgl\src\extra\widgets\spinner/lv_spinner.c ****     return obj;
 257              		.loc 1 57 0
 258 0012 FFF7FEFF 		bl	lv_obj_class_init_obj
 259              	.LVL31:
  59:..\..\..\arduinoLCD\test\Pain Drain\libraries\lvgl\src\extra\widgets\spinner/lv_spinner.c **** 
 260              		.loc 1 59 0
 261 0016 2000     		movs	r0, r4
 262              		@ sp needed
 263              	.LVL32:
 264 0018 10BD     		pop	{r4, pc}
 265              	.L8:
 266 001a C046     		.align	2
 267              	.L7:
 268 001c 00000000 		.word	.LANCHOR0
 269 0020 00000000 		.word	.LANCHOR1
 270              		.cfi_endproc
 271              	.LFE202:
 272              		.size	lv_spinner_create, .-lv_spinner_create
 273              		.global	lv_spinner_class
 274              		.section	.rodata
 275              		.align	2
 276              		.set	.LANCHOR1,. + 0
 277              		.type	lv_spinner_class, %object
 278              		.size	lv_spinner_class, 28
 279              	lv_spinner_class:
 280 0000 00000000 		.word	lv_arc_class
 281 0004 00000000 		.word	lv_spinner_constructor
 282 0008 00000000 		.space	20
 282      00000000 
 282      00000000 
 282      00000000 
 282      00000000 
 283              		.bss
 284              		.align	2
 285              		.set	.LANCHOR0,. + 0
 286              		.type	time_param, %object
 287              		.size	time_param, 4
 288              	time_param:
 289 0000 00000000 		.space	4
 290              		.type	arc_length_param, %object
 291              		.size	arc_length_param, 4
 292              	arc_length_param:
 293 0004 00000000 		.space	4
 294              		.text
ARM GAS  C:\Users\haske\AppData\Local\Temp\ccmSsGgz.s 			page 13


 295              	.Letext0:
 296              		.file 3 "c:\\program files (x86)\\cypress\\psoc creator\\4.4\\psoc creator\\import\\gnu\\arm\\5.4.
 297              		.file 4 "c:\\program files (x86)\\cypress\\psoc creator\\4.4\\psoc creator\\import\\gnu\\arm\\5.4.
 298              		.file 5 "c:\\projects\\paindrain\\arduinolcd\\test\\pain drain\\libraries\\lvgl\\src\\misc\\lv_are
 299              		.file 6 "c:\\projects\\paindrain\\arduinolcd\\test\\pain drain\\libraries\\lvgl\\src\\font\\lv_fon
 300              		.file 7 "c:\\projects\\paindrain\\arduinolcd\\test\\pain drain\\libraries\\lvgl\\src\\misc\\lv_col
 301              		.file 8 "c:\\projects\\paindrain\\arduinolcd\\test\\pain drain\\libraries\\lvgl\\src\\misc\\lv_sty
 302              		.file 9 "c:\\projects\\paindrain\\arduinolcd\\test\\pain drain\\libraries\\lvgl\\src/core/lv_obj.h
 303              		.file 10 "c:\\projects\\paindrain\\arduinolcd\\test\\pain drain\\libraries\\lvgl\\src\\misc\\lv_ll
 304              		.file 11 "c:\\projects\\paindrain\\arduinolcd\\test\\pain drain\\libraries\\lvgl\\src/core/lv_grou
 305              		.file 12 "c:\\projects\\paindrain\\arduinolcd\\test\\pain drain\\libraries\\lvgl\\src/core/lv_obj_
 306              		.file 13 "c:\\projects\\paindrain\\arduinolcd\\test\\pain drain\\libraries\\lvgl\\src/core/lv_obj_
 307              		.file 14 "c:\\projects\\paindrain\\arduinolcd\\test\\pain drain\\libraries\\lvgl\\src/core/lv_obj_
 308              		.file 15 "c:\\projects\\paindrain\\arduinolcd\\test\\pain drain\\libraries\\lvgl\\src/core/lv_even
 309              		.file 16 "c:\\projects\\paindrain\\arduinolcd\\test\\pain drain\\libraries\\lvgl\\src/widgets/lv_b
 310              		.file 17 "c:\\projects\\paindrain\\arduinolcd\\test\\pain drain\\libraries\\lvgl\\src/extra/widget
 311              		.file 18 "c:\\projects\\paindrain\\arduinolcd\\test\\pain drain\\libraries\\lvgl\\src/widgets/lv_a
 312              		.file 19 "c:\\projects\\paindrain\\arduinolcd\\test\\pain drain\\libraries\\lvgl\\src/extra/layout
 313              		.file 20 "c:\\projects\\paindrain\\arduinolcd\\test\\pain drain\\libraries\\lvgl\\src/extra/layout