ARM GAS  C:\Users\haske\AppData\Local\Temp\ccdHxW38.s 			page 1


   1              		.syntax unified
   2              		.cpu cortex-m0plus
   3              		.fpu softvfp
   4              		.eabi_attribute 20, 1
   5              		.eabi_attribute 21, 1
   6              		.eabi_attribute 23, 3
   7              		.eabi_attribute 24, 1
   8              		.eabi_attribute 25, 1
   9              		.eabi_attribute 26, 1
  10              		.eabi_attribute 30, 1
  11              		.eabi_attribute 34, 0
  12              		.eabi_attribute 18, 4
  13              		.thumb
  14              		.syntax unified
  15              		.file	"lv_style.c"
  16              		.text
  17              	.Ltext0:
  18              		.cfi_sections	.debug_frame
  19              		.section	.text.lv_style_set_prop_helper,"ax",%progbits
  20              		.align	2
  21              		.code	16
  22              		.thumb_func
  23              		.type	lv_style_set_prop_helper, %function
  24              	lv_style_set_prop_helper:
  25              	.LFB69:
  26              		.file 1 "..\\..\\..\\arduinoLCD\\test\\Pain Drain\\libraries\\lvgl\\src\\misc\\lv_style.c"
   1:..\..\..\arduinoLCD\test\Pain Drain\libraries\lvgl\src\misc/lv_style.c **** /**
   2:..\..\..\arduinoLCD\test\Pain Drain\libraries\lvgl\src\misc/lv_style.c ****  * @file lv_style.c
   3:..\..\..\arduinoLCD\test\Pain Drain\libraries\lvgl\src\misc/lv_style.c ****  *
   4:..\..\..\arduinoLCD\test\Pain Drain\libraries\lvgl\src\misc/lv_style.c ****  */
   5:..\..\..\arduinoLCD\test\Pain Drain\libraries\lvgl\src\misc/lv_style.c **** 
   6:..\..\..\arduinoLCD\test\Pain Drain\libraries\lvgl\src\misc/lv_style.c **** /*********************
   7:..\..\..\arduinoLCD\test\Pain Drain\libraries\lvgl\src\misc/lv_style.c ****  *      INCLUDES
   8:..\..\..\arduinoLCD\test\Pain Drain\libraries\lvgl\src\misc/lv_style.c ****  *********************/
   9:..\..\..\arduinoLCD\test\Pain Drain\libraries\lvgl\src\misc/lv_style.c **** #include "lv_style.h"
  10:..\..\..\arduinoLCD\test\Pain Drain\libraries\lvgl\src\misc/lv_style.c **** #include "../misc/lv_gc.h"
  11:..\..\..\arduinoLCD\test\Pain Drain\libraries\lvgl\src\misc/lv_style.c **** #include "../misc/lv_mem.h"
  12:..\..\..\arduinoLCD\test\Pain Drain\libraries\lvgl\src\misc/lv_style.c **** #include "lv_assert.h"
  13:..\..\..\arduinoLCD\test\Pain Drain\libraries\lvgl\src\misc/lv_style.c **** #include "lv_types.h"
  14:..\..\..\arduinoLCD\test\Pain Drain\libraries\lvgl\src\misc/lv_style.c **** 
  15:..\..\..\arduinoLCD\test\Pain Drain\libraries\lvgl\src\misc/lv_style.c **** /*********************
  16:..\..\..\arduinoLCD\test\Pain Drain\libraries\lvgl\src\misc/lv_style.c ****  *      DEFINES
  17:..\..\..\arduinoLCD\test\Pain Drain\libraries\lvgl\src\misc/lv_style.c ****  *********************/
  18:..\..\..\arduinoLCD\test\Pain Drain\libraries\lvgl\src\misc/lv_style.c **** 
  19:..\..\..\arduinoLCD\test\Pain Drain\libraries\lvgl\src\misc/lv_style.c **** /**********************
  20:..\..\..\arduinoLCD\test\Pain Drain\libraries\lvgl\src\misc/lv_style.c ****  *      TYPEDEFS
  21:..\..\..\arduinoLCD\test\Pain Drain\libraries\lvgl\src\misc/lv_style.c ****  **********************/
  22:..\..\..\arduinoLCD\test\Pain Drain\libraries\lvgl\src\misc/lv_style.c **** 
  23:..\..\..\arduinoLCD\test\Pain Drain\libraries\lvgl\src\misc/lv_style.c **** /**********************
  24:..\..\..\arduinoLCD\test\Pain Drain\libraries\lvgl\src\misc/lv_style.c ****  *  STATIC PROTOTYPES
  25:..\..\..\arduinoLCD\test\Pain Drain\libraries\lvgl\src\misc/lv_style.c ****  **********************/
  26:..\..\..\arduinoLCD\test\Pain Drain\libraries\lvgl\src\misc/lv_style.c **** 
  27:..\..\..\arduinoLCD\test\Pain Drain\libraries\lvgl\src\misc/lv_style.c **** static void lv_style_set_prop_internal(lv_style_t * style, lv_style_prop_t prop_and_meta, lv_style_
  28:..\..\..\arduinoLCD\test\Pain Drain\libraries\lvgl\src\misc/lv_style.c ****                                        void (*value_adjustment_helper)(lv_style_prop_t, lv_style_va
  29:..\..\..\arduinoLCD\test\Pain Drain\libraries\lvgl\src\misc/lv_style.c **** static void lv_style_set_prop_helper(lv_style_prop_t prop, lv_style_value_t value, uint16_t * prop_
  30:..\..\..\arduinoLCD\test\Pain Drain\libraries\lvgl\src\misc/lv_style.c ****                                      lv_style_value_t * value_storage);
  31:..\..\..\arduinoLCD\test\Pain Drain\libraries\lvgl\src\misc/lv_style.c **** static void lv_style_set_prop_meta_helper(lv_style_prop_t prop, lv_style_value_t value, uint16_t * 
ARM GAS  C:\Users\haske\AppData\Local\Temp\ccdHxW38.s 			page 2


  32:..\..\..\arduinoLCD\test\Pain Drain\libraries\lvgl\src\misc/lv_style.c ****                                           lv_style_value_t * value_storage);
  33:..\..\..\arduinoLCD\test\Pain Drain\libraries\lvgl\src\misc/lv_style.c **** 
  34:..\..\..\arduinoLCD\test\Pain Drain\libraries\lvgl\src\misc/lv_style.c **** /**********************
  35:..\..\..\arduinoLCD\test\Pain Drain\libraries\lvgl\src\misc/lv_style.c ****  *  GLOBAL VARIABLES
  36:..\..\..\arduinoLCD\test\Pain Drain\libraries\lvgl\src\misc/lv_style.c ****  **********************/
  37:..\..\..\arduinoLCD\test\Pain Drain\libraries\lvgl\src\misc/lv_style.c **** 
  38:..\..\..\arduinoLCD\test\Pain Drain\libraries\lvgl\src\misc/lv_style.c **** const uint8_t _lv_style_builtin_prop_flag_lookup_table[_LV_STYLE_NUM_BUILT_IN_PROPS] = {
  39:..\..\..\arduinoLCD\test\Pain Drain\libraries\lvgl\src\misc/lv_style.c ****     [LV_STYLE_WIDTH] =                    LV_STYLE_PROP_LAYOUT_REFR,
  40:..\..\..\arduinoLCD\test\Pain Drain\libraries\lvgl\src\misc/lv_style.c ****     [LV_STYLE_MIN_WIDTH] =                LV_STYLE_PROP_LAYOUT_REFR,
  41:..\..\..\arduinoLCD\test\Pain Drain\libraries\lvgl\src\misc/lv_style.c ****     [LV_STYLE_MAX_WIDTH] =                LV_STYLE_PROP_LAYOUT_REFR,
  42:..\..\..\arduinoLCD\test\Pain Drain\libraries\lvgl\src\misc/lv_style.c ****     [LV_STYLE_HEIGHT] =                   LV_STYLE_PROP_LAYOUT_REFR,
  43:..\..\..\arduinoLCD\test\Pain Drain\libraries\lvgl\src\misc/lv_style.c ****     [LV_STYLE_MIN_HEIGHT] =               LV_STYLE_PROP_LAYOUT_REFR,
  44:..\..\..\arduinoLCD\test\Pain Drain\libraries\lvgl\src\misc/lv_style.c ****     [LV_STYLE_MAX_HEIGHT] =               LV_STYLE_PROP_LAYOUT_REFR,
  45:..\..\..\arduinoLCD\test\Pain Drain\libraries\lvgl\src\misc/lv_style.c ****     [LV_STYLE_X] =                        LV_STYLE_PROP_LAYOUT_REFR,
  46:..\..\..\arduinoLCD\test\Pain Drain\libraries\lvgl\src\misc/lv_style.c ****     [LV_STYLE_Y] =                        LV_STYLE_PROP_LAYOUT_REFR,
  47:..\..\..\arduinoLCD\test\Pain Drain\libraries\lvgl\src\misc/lv_style.c ****     [LV_STYLE_ALIGN] =                    LV_STYLE_PROP_LAYOUT_REFR,
  48:..\..\..\arduinoLCD\test\Pain Drain\libraries\lvgl\src\misc/lv_style.c ****     [LV_STYLE_TRANSFORM_WIDTH] =           LV_STYLE_PROP_EXT_DRAW,
  49:..\..\..\arduinoLCD\test\Pain Drain\libraries\lvgl\src\misc/lv_style.c ****     [LV_STYLE_TRANSFORM_HEIGHT] =          LV_STYLE_PROP_EXT_DRAW,
  50:..\..\..\arduinoLCD\test\Pain Drain\libraries\lvgl\src\misc/lv_style.c ****     [LV_STYLE_TRANSLATE_X] =               LV_STYLE_PROP_LAYOUT_REFR | LV_STYLE_PROP_PARENT_LAYOUT_
  51:..\..\..\arduinoLCD\test\Pain Drain\libraries\lvgl\src\misc/lv_style.c ****     [LV_STYLE_TRANSLATE_Y] =               LV_STYLE_PROP_LAYOUT_REFR | LV_STYLE_PROP_PARENT_LAYOUT_
  52:..\..\..\arduinoLCD\test\Pain Drain\libraries\lvgl\src\misc/lv_style.c ****     [LV_STYLE_TRANSFORM_ZOOM] =            LV_STYLE_PROP_EXT_DRAW | LV_STYLE_PROP_LAYER_REFR,
  53:..\..\..\arduinoLCD\test\Pain Drain\libraries\lvgl\src\misc/lv_style.c ****     [LV_STYLE_TRANSFORM_ANGLE] =           LV_STYLE_PROP_EXT_DRAW | LV_STYLE_PROP_LAYER_REFR,
  54:..\..\..\arduinoLCD\test\Pain Drain\libraries\lvgl\src\misc/lv_style.c **** 
  55:..\..\..\arduinoLCD\test\Pain Drain\libraries\lvgl\src\misc/lv_style.c ****     [LV_STYLE_PAD_TOP] =                   LV_STYLE_PROP_EXT_DRAW | LV_STYLE_PROP_LAYOUT_REFR,
  56:..\..\..\arduinoLCD\test\Pain Drain\libraries\lvgl\src\misc/lv_style.c ****     [LV_STYLE_PAD_BOTTOM] =                LV_STYLE_PROP_EXT_DRAW | LV_STYLE_PROP_LAYOUT_REFR,
  57:..\..\..\arduinoLCD\test\Pain Drain\libraries\lvgl\src\misc/lv_style.c ****     [LV_STYLE_PAD_LEFT] =                  LV_STYLE_PROP_EXT_DRAW | LV_STYLE_PROP_LAYOUT_REFR,
  58:..\..\..\arduinoLCD\test\Pain Drain\libraries\lvgl\src\misc/lv_style.c ****     [LV_STYLE_PAD_RIGHT] =                 LV_STYLE_PROP_EXT_DRAW | LV_STYLE_PROP_LAYOUT_REFR,
  59:..\..\..\arduinoLCD\test\Pain Drain\libraries\lvgl\src\misc/lv_style.c ****     [LV_STYLE_PAD_ROW] =                   LV_STYLE_PROP_EXT_DRAW | LV_STYLE_PROP_LAYOUT_REFR,
  60:..\..\..\arduinoLCD\test\Pain Drain\libraries\lvgl\src\misc/lv_style.c ****     [LV_STYLE_PAD_COLUMN] =                LV_STYLE_PROP_EXT_DRAW | LV_STYLE_PROP_LAYOUT_REFR,
  61:..\..\..\arduinoLCD\test\Pain Drain\libraries\lvgl\src\misc/lv_style.c **** 
  62:..\..\..\arduinoLCD\test\Pain Drain\libraries\lvgl\src\misc/lv_style.c ****     [LV_STYLE_BG_COLOR] = 0,
  63:..\..\..\arduinoLCD\test\Pain Drain\libraries\lvgl\src\misc/lv_style.c ****     [LV_STYLE_BG_OPA] = 0,
  64:..\..\..\arduinoLCD\test\Pain Drain\libraries\lvgl\src\misc/lv_style.c ****     [LV_STYLE_BG_GRAD_COLOR] = 0,
  65:..\..\..\arduinoLCD\test\Pain Drain\libraries\lvgl\src\misc/lv_style.c ****     [LV_STYLE_BG_GRAD_DIR] = 0,
  66:..\..\..\arduinoLCD\test\Pain Drain\libraries\lvgl\src\misc/lv_style.c ****     [LV_STYLE_BG_MAIN_STOP] = 0,
  67:..\..\..\arduinoLCD\test\Pain Drain\libraries\lvgl\src\misc/lv_style.c ****     [LV_STYLE_BG_GRAD_STOP] = 0,
  68:..\..\..\arduinoLCD\test\Pain Drain\libraries\lvgl\src\misc/lv_style.c ****     [LV_STYLE_BG_GRAD] = 0,
  69:..\..\..\arduinoLCD\test\Pain Drain\libraries\lvgl\src\misc/lv_style.c ****     [LV_STYLE_BG_DITHER_MODE] = 0,
  70:..\..\..\arduinoLCD\test\Pain Drain\libraries\lvgl\src\misc/lv_style.c **** 
  71:..\..\..\arduinoLCD\test\Pain Drain\libraries\lvgl\src\misc/lv_style.c ****     [LV_STYLE_BG_IMG_SRC] =                LV_STYLE_PROP_EXT_DRAW,
  72:..\..\..\arduinoLCD\test\Pain Drain\libraries\lvgl\src\misc/lv_style.c ****     [LV_STYLE_BG_IMG_OPA] = 0,
  73:..\..\..\arduinoLCD\test\Pain Drain\libraries\lvgl\src\misc/lv_style.c ****     [LV_STYLE_BG_IMG_RECOLOR] = 0,
  74:..\..\..\arduinoLCD\test\Pain Drain\libraries\lvgl\src\misc/lv_style.c ****     [LV_STYLE_BG_IMG_RECOLOR_OPA] = 0,
  75:..\..\..\arduinoLCD\test\Pain Drain\libraries\lvgl\src\misc/lv_style.c ****     [LV_STYLE_BG_IMG_TILED] = 0,
  76:..\..\..\arduinoLCD\test\Pain Drain\libraries\lvgl\src\misc/lv_style.c **** 
  77:..\..\..\arduinoLCD\test\Pain Drain\libraries\lvgl\src\misc/lv_style.c ****     [LV_STYLE_BORDER_COLOR] = 0,
  78:..\..\..\arduinoLCD\test\Pain Drain\libraries\lvgl\src\misc/lv_style.c ****     [LV_STYLE_BORDER_OPA] = 0,
  79:..\..\..\arduinoLCD\test\Pain Drain\libraries\lvgl\src\misc/lv_style.c ****     [LV_STYLE_BORDER_WIDTH] =              LV_STYLE_PROP_LAYOUT_REFR,
  80:..\..\..\arduinoLCD\test\Pain Drain\libraries\lvgl\src\misc/lv_style.c ****     [LV_STYLE_BORDER_SIDE] = 0,
  81:..\..\..\arduinoLCD\test\Pain Drain\libraries\lvgl\src\misc/lv_style.c ****     [LV_STYLE_BORDER_POST] = 0,
  82:..\..\..\arduinoLCD\test\Pain Drain\libraries\lvgl\src\misc/lv_style.c **** 
  83:..\..\..\arduinoLCD\test\Pain Drain\libraries\lvgl\src\misc/lv_style.c ****     [LV_STYLE_OUTLINE_WIDTH] =             LV_STYLE_PROP_EXT_DRAW,
  84:..\..\..\arduinoLCD\test\Pain Drain\libraries\lvgl\src\misc/lv_style.c ****     [LV_STYLE_OUTLINE_COLOR] = 0,
  85:..\..\..\arduinoLCD\test\Pain Drain\libraries\lvgl\src\misc/lv_style.c ****     [LV_STYLE_OUTLINE_OPA] =               LV_STYLE_PROP_EXT_DRAW,
  86:..\..\..\arduinoLCD\test\Pain Drain\libraries\lvgl\src\misc/lv_style.c ****     [LV_STYLE_OUTLINE_PAD] =               LV_STYLE_PROP_EXT_DRAW,
  87:..\..\..\arduinoLCD\test\Pain Drain\libraries\lvgl\src\misc/lv_style.c **** 
  88:..\..\..\arduinoLCD\test\Pain Drain\libraries\lvgl\src\misc/lv_style.c ****     [LV_STYLE_SHADOW_WIDTH] =              LV_STYLE_PROP_EXT_DRAW,
ARM GAS  C:\Users\haske\AppData\Local\Temp\ccdHxW38.s 			page 3


  89:..\..\..\arduinoLCD\test\Pain Drain\libraries\lvgl\src\misc/lv_style.c ****     [LV_STYLE_SHADOW_OFS_X] =              LV_STYLE_PROP_EXT_DRAW,
  90:..\..\..\arduinoLCD\test\Pain Drain\libraries\lvgl\src\misc/lv_style.c ****     [LV_STYLE_SHADOW_OFS_Y] =              LV_STYLE_PROP_EXT_DRAW,
  91:..\..\..\arduinoLCD\test\Pain Drain\libraries\lvgl\src\misc/lv_style.c ****     [LV_STYLE_SHADOW_SPREAD] =             LV_STYLE_PROP_EXT_DRAW,
  92:..\..\..\arduinoLCD\test\Pain Drain\libraries\lvgl\src\misc/lv_style.c ****     [LV_STYLE_SHADOW_COLOR] = 0,
  93:..\..\..\arduinoLCD\test\Pain Drain\libraries\lvgl\src\misc/lv_style.c ****     [LV_STYLE_SHADOW_OPA] =                LV_STYLE_PROP_EXT_DRAW,
  94:..\..\..\arduinoLCD\test\Pain Drain\libraries\lvgl\src\misc/lv_style.c **** 
  95:..\..\..\arduinoLCD\test\Pain Drain\libraries\lvgl\src\misc/lv_style.c ****     [LV_STYLE_IMG_OPA] = 0,
  96:..\..\..\arduinoLCD\test\Pain Drain\libraries\lvgl\src\misc/lv_style.c ****     [LV_STYLE_IMG_RECOLOR] = 0,
  97:..\..\..\arduinoLCD\test\Pain Drain\libraries\lvgl\src\misc/lv_style.c ****     [LV_STYLE_IMG_RECOLOR_OPA] = 0,
  98:..\..\..\arduinoLCD\test\Pain Drain\libraries\lvgl\src\misc/lv_style.c **** 
  99:..\..\..\arduinoLCD\test\Pain Drain\libraries\lvgl\src\misc/lv_style.c ****     [LV_STYLE_LINE_WIDTH] =                LV_STYLE_PROP_EXT_DRAW,
 100:..\..\..\arduinoLCD\test\Pain Drain\libraries\lvgl\src\misc/lv_style.c ****     [LV_STYLE_LINE_DASH_WIDTH] = 0,
 101:..\..\..\arduinoLCD\test\Pain Drain\libraries\lvgl\src\misc/lv_style.c ****     [LV_STYLE_LINE_DASH_GAP] = 0,
 102:..\..\..\arduinoLCD\test\Pain Drain\libraries\lvgl\src\misc/lv_style.c ****     [LV_STYLE_LINE_ROUNDED] = 0,
 103:..\..\..\arduinoLCD\test\Pain Drain\libraries\lvgl\src\misc/lv_style.c ****     [LV_STYLE_LINE_COLOR] = 0,
 104:..\..\..\arduinoLCD\test\Pain Drain\libraries\lvgl\src\misc/lv_style.c ****     [LV_STYLE_LINE_OPA] = 0,
 105:..\..\..\arduinoLCD\test\Pain Drain\libraries\lvgl\src\misc/lv_style.c **** 
 106:..\..\..\arduinoLCD\test\Pain Drain\libraries\lvgl\src\misc/lv_style.c ****     [LV_STYLE_ARC_WIDTH] =                 LV_STYLE_PROP_EXT_DRAW,
 107:..\..\..\arduinoLCD\test\Pain Drain\libraries\lvgl\src\misc/lv_style.c ****     [LV_STYLE_ARC_ROUNDED] = 0,
 108:..\..\..\arduinoLCD\test\Pain Drain\libraries\lvgl\src\misc/lv_style.c ****     [LV_STYLE_ARC_COLOR] = 0,
 109:..\..\..\arduinoLCD\test\Pain Drain\libraries\lvgl\src\misc/lv_style.c ****     [LV_STYLE_ARC_OPA] = 0,
 110:..\..\..\arduinoLCD\test\Pain Drain\libraries\lvgl\src\misc/lv_style.c ****     [LV_STYLE_ARC_IMG_SRC] = 0,
 111:..\..\..\arduinoLCD\test\Pain Drain\libraries\lvgl\src\misc/lv_style.c **** 
 112:..\..\..\arduinoLCD\test\Pain Drain\libraries\lvgl\src\misc/lv_style.c ****     [LV_STYLE_TEXT_COLOR] =                LV_STYLE_PROP_INHERIT,
 113:..\..\..\arduinoLCD\test\Pain Drain\libraries\lvgl\src\misc/lv_style.c ****     [LV_STYLE_TEXT_OPA] =                  LV_STYLE_PROP_INHERIT,
 114:..\..\..\arduinoLCD\test\Pain Drain\libraries\lvgl\src\misc/lv_style.c ****     [LV_STYLE_TEXT_FONT] =                 LV_STYLE_PROP_INHERIT | LV_STYLE_PROP_LAYOUT_REFR,
 115:..\..\..\arduinoLCD\test\Pain Drain\libraries\lvgl\src\misc/lv_style.c ****     [LV_STYLE_TEXT_LETTER_SPACE] =         LV_STYLE_PROP_INHERIT | LV_STYLE_PROP_LAYOUT_REFR,
 116:..\..\..\arduinoLCD\test\Pain Drain\libraries\lvgl\src\misc/lv_style.c ****     [LV_STYLE_TEXT_LINE_SPACE] =           LV_STYLE_PROP_INHERIT | LV_STYLE_PROP_LAYOUT_REFR,
 117:..\..\..\arduinoLCD\test\Pain Drain\libraries\lvgl\src\misc/lv_style.c ****     [LV_STYLE_TEXT_DECOR] =                LV_STYLE_PROP_INHERIT,
 118:..\..\..\arduinoLCD\test\Pain Drain\libraries\lvgl\src\misc/lv_style.c ****     [LV_STYLE_TEXT_ALIGN] =                LV_STYLE_PROP_INHERIT | LV_STYLE_PROP_LAYOUT_REFR,
 119:..\..\..\arduinoLCD\test\Pain Drain\libraries\lvgl\src\misc/lv_style.c **** 
 120:..\..\..\arduinoLCD\test\Pain Drain\libraries\lvgl\src\misc/lv_style.c ****     [LV_STYLE_RADIUS] = 0,
 121:..\..\..\arduinoLCD\test\Pain Drain\libraries\lvgl\src\misc/lv_style.c ****     [LV_STYLE_CLIP_CORNER] = 0,
 122:..\..\..\arduinoLCD\test\Pain Drain\libraries\lvgl\src\misc/lv_style.c ****     [LV_STYLE_OPA] =                       LV_STYLE_PROP_LAYER_REFR,
 123:..\..\..\arduinoLCD\test\Pain Drain\libraries\lvgl\src\misc/lv_style.c ****     [LV_STYLE_COLOR_FILTER_DSC] =          LV_STYLE_PROP_INHERIT,
 124:..\..\..\arduinoLCD\test\Pain Drain\libraries\lvgl\src\misc/lv_style.c ****     [LV_STYLE_COLOR_FILTER_OPA] =          LV_STYLE_PROP_INHERIT,
 125:..\..\..\arduinoLCD\test\Pain Drain\libraries\lvgl\src\misc/lv_style.c ****     [LV_STYLE_ANIM_TIME] = 0,
 126:..\..\..\arduinoLCD\test\Pain Drain\libraries\lvgl\src\misc/lv_style.c ****     [LV_STYLE_ANIM_SPEED] = 0,
 127:..\..\..\arduinoLCD\test\Pain Drain\libraries\lvgl\src\misc/lv_style.c ****     [LV_STYLE_TRANSITION] = 0,
 128:..\..\..\arduinoLCD\test\Pain Drain\libraries\lvgl\src\misc/lv_style.c ****     [LV_STYLE_BLEND_MODE] =                LV_STYLE_PROP_LAYER_REFR,
 129:..\..\..\arduinoLCD\test\Pain Drain\libraries\lvgl\src\misc/lv_style.c ****     [LV_STYLE_LAYOUT] =                    LV_STYLE_PROP_LAYOUT_REFR,
 130:..\..\..\arduinoLCD\test\Pain Drain\libraries\lvgl\src\misc/lv_style.c ****     [LV_STYLE_BASE_DIR] =                  LV_STYLE_PROP_INHERIT | LV_STYLE_PROP_LAYOUT_REFR,
 131:..\..\..\arduinoLCD\test\Pain Drain\libraries\lvgl\src\misc/lv_style.c **** };
 132:..\..\..\arduinoLCD\test\Pain Drain\libraries\lvgl\src\misc/lv_style.c **** 
 133:..\..\..\arduinoLCD\test\Pain Drain\libraries\lvgl\src\misc/lv_style.c **** uint32_t _lv_style_custom_prop_flag_lookup_table_size = 0;
 134:..\..\..\arduinoLCD\test\Pain Drain\libraries\lvgl\src\misc/lv_style.c **** 
 135:..\..\..\arduinoLCD\test\Pain Drain\libraries\lvgl\src\misc/lv_style.c **** /**********************
 136:..\..\..\arduinoLCD\test\Pain Drain\libraries\lvgl\src\misc/lv_style.c ****  *  STATIC VARIABLES
 137:..\..\..\arduinoLCD\test\Pain Drain\libraries\lvgl\src\misc/lv_style.c ****  **********************/
 138:..\..\..\arduinoLCD\test\Pain Drain\libraries\lvgl\src\misc/lv_style.c **** 
 139:..\..\..\arduinoLCD\test\Pain Drain\libraries\lvgl\src\misc/lv_style.c **** static uint16_t last_custom_prop_id = (uint16_t)_LV_STYLE_LAST_BUILT_IN_PROP;
 140:..\..\..\arduinoLCD\test\Pain Drain\libraries\lvgl\src\misc/lv_style.c **** static const lv_style_value_t null_style_value = { .num = 0 };
 141:..\..\..\arduinoLCD\test\Pain Drain\libraries\lvgl\src\misc/lv_style.c **** 
 142:..\..\..\arduinoLCD\test\Pain Drain\libraries\lvgl\src\misc/lv_style.c **** /**********************
 143:..\..\..\arduinoLCD\test\Pain Drain\libraries\lvgl\src\misc/lv_style.c ****  *      MACROS
 144:..\..\..\arduinoLCD\test\Pain Drain\libraries\lvgl\src\misc/lv_style.c ****  **********************/
 145:..\..\..\arduinoLCD\test\Pain Drain\libraries\lvgl\src\misc/lv_style.c **** 
ARM GAS  C:\Users\haske\AppData\Local\Temp\ccdHxW38.s 			page 4


 146:..\..\..\arduinoLCD\test\Pain Drain\libraries\lvgl\src\misc/lv_style.c **** /**********************
 147:..\..\..\arduinoLCD\test\Pain Drain\libraries\lvgl\src\misc/lv_style.c ****  *   GLOBAL FUNCTIONS
 148:..\..\..\arduinoLCD\test\Pain Drain\libraries\lvgl\src\misc/lv_style.c ****  **********************/
 149:..\..\..\arduinoLCD\test\Pain Drain\libraries\lvgl\src\misc/lv_style.c **** 
 150:..\..\..\arduinoLCD\test\Pain Drain\libraries\lvgl\src\misc/lv_style.c **** void lv_style_init(lv_style_t * style)
 151:..\..\..\arduinoLCD\test\Pain Drain\libraries\lvgl\src\misc/lv_style.c **** {
 152:..\..\..\arduinoLCD\test\Pain Drain\libraries\lvgl\src\misc/lv_style.c **** #if LV_USE_ASSERT_STYLE
 153:..\..\..\arduinoLCD\test\Pain Drain\libraries\lvgl\src\misc/lv_style.c ****     if(style->sentinel == LV_STYLE_SENTINEL_VALUE && style->prop_cnt > 1) {
 154:..\..\..\arduinoLCD\test\Pain Drain\libraries\lvgl\src\misc/lv_style.c ****         LV_LOG_WARN("Style might be already inited. (Potential memory leak)");
 155:..\..\..\arduinoLCD\test\Pain Drain\libraries\lvgl\src\misc/lv_style.c ****     }
 156:..\..\..\arduinoLCD\test\Pain Drain\libraries\lvgl\src\misc/lv_style.c **** #endif
 157:..\..\..\arduinoLCD\test\Pain Drain\libraries\lvgl\src\misc/lv_style.c **** 
 158:..\..\..\arduinoLCD\test\Pain Drain\libraries\lvgl\src\misc/lv_style.c ****     lv_memset_00(style, sizeof(lv_style_t));
 159:..\..\..\arduinoLCD\test\Pain Drain\libraries\lvgl\src\misc/lv_style.c **** #if LV_USE_ASSERT_STYLE
 160:..\..\..\arduinoLCD\test\Pain Drain\libraries\lvgl\src\misc/lv_style.c ****     style->sentinel = LV_STYLE_SENTINEL_VALUE;
 161:..\..\..\arduinoLCD\test\Pain Drain\libraries\lvgl\src\misc/lv_style.c **** #endif
 162:..\..\..\arduinoLCD\test\Pain Drain\libraries\lvgl\src\misc/lv_style.c **** }
 163:..\..\..\arduinoLCD\test\Pain Drain\libraries\lvgl\src\misc/lv_style.c **** 
 164:..\..\..\arduinoLCD\test\Pain Drain\libraries\lvgl\src\misc/lv_style.c **** void lv_style_reset(lv_style_t * style)
 165:..\..\..\arduinoLCD\test\Pain Drain\libraries\lvgl\src\misc/lv_style.c **** {
 166:..\..\..\arduinoLCD\test\Pain Drain\libraries\lvgl\src\misc/lv_style.c ****     LV_ASSERT_STYLE(style);
 167:..\..\..\arduinoLCD\test\Pain Drain\libraries\lvgl\src\misc/lv_style.c **** 
 168:..\..\..\arduinoLCD\test\Pain Drain\libraries\lvgl\src\misc/lv_style.c ****     if(style->prop1 == LV_STYLE_PROP_ANY) {
 169:..\..\..\arduinoLCD\test\Pain Drain\libraries\lvgl\src\misc/lv_style.c ****         LV_LOG_ERROR("Cannot reset const style");
 170:..\..\..\arduinoLCD\test\Pain Drain\libraries\lvgl\src\misc/lv_style.c ****         return;
 171:..\..\..\arduinoLCD\test\Pain Drain\libraries\lvgl\src\misc/lv_style.c ****     }
 172:..\..\..\arduinoLCD\test\Pain Drain\libraries\lvgl\src\misc/lv_style.c **** 
 173:..\..\..\arduinoLCD\test\Pain Drain\libraries\lvgl\src\misc/lv_style.c ****     if(style->prop_cnt > 1) lv_mem_free(style->v_p.values_and_props);
 174:..\..\..\arduinoLCD\test\Pain Drain\libraries\lvgl\src\misc/lv_style.c ****     lv_memset_00(style, sizeof(lv_style_t));
 175:..\..\..\arduinoLCD\test\Pain Drain\libraries\lvgl\src\misc/lv_style.c **** #if LV_USE_ASSERT_STYLE
 176:..\..\..\arduinoLCD\test\Pain Drain\libraries\lvgl\src\misc/lv_style.c ****     style->sentinel = LV_STYLE_SENTINEL_VALUE;
 177:..\..\..\arduinoLCD\test\Pain Drain\libraries\lvgl\src\misc/lv_style.c **** #endif
 178:..\..\..\arduinoLCD\test\Pain Drain\libraries\lvgl\src\misc/lv_style.c **** }
 179:..\..\..\arduinoLCD\test\Pain Drain\libraries\lvgl\src\misc/lv_style.c **** 
 180:..\..\..\arduinoLCD\test\Pain Drain\libraries\lvgl\src\misc/lv_style.c **** lv_style_prop_t lv_style_register_prop(uint8_t flag)
 181:..\..\..\arduinoLCD\test\Pain Drain\libraries\lvgl\src\misc/lv_style.c **** {
 182:..\..\..\arduinoLCD\test\Pain Drain\libraries\lvgl\src\misc/lv_style.c ****     if(LV_GC_ROOT(_lv_style_custom_prop_flag_lookup_table) == NULL) {
 183:..\..\..\arduinoLCD\test\Pain Drain\libraries\lvgl\src\misc/lv_style.c ****         _lv_style_custom_prop_flag_lookup_table_size = 0;
 184:..\..\..\arduinoLCD\test\Pain Drain\libraries\lvgl\src\misc/lv_style.c ****         last_custom_prop_id = (uint16_t)_LV_STYLE_LAST_BUILT_IN_PROP;
 185:..\..\..\arduinoLCD\test\Pain Drain\libraries\lvgl\src\misc/lv_style.c ****     }
 186:..\..\..\arduinoLCD\test\Pain Drain\libraries\lvgl\src\misc/lv_style.c **** 
 187:..\..\..\arduinoLCD\test\Pain Drain\libraries\lvgl\src\misc/lv_style.c ****     if(((last_custom_prop_id + 1) & LV_STYLE_PROP_META_MASK) != 0) {
 188:..\..\..\arduinoLCD\test\Pain Drain\libraries\lvgl\src\misc/lv_style.c ****         LV_LOG_ERROR("No more custom property IDs available");
 189:..\..\..\arduinoLCD\test\Pain Drain\libraries\lvgl\src\misc/lv_style.c ****         return LV_STYLE_PROP_INV;
 190:..\..\..\arduinoLCD\test\Pain Drain\libraries\lvgl\src\misc/lv_style.c ****     }
 191:..\..\..\arduinoLCD\test\Pain Drain\libraries\lvgl\src\misc/lv_style.c **** 
 192:..\..\..\arduinoLCD\test\Pain Drain\libraries\lvgl\src\misc/lv_style.c ****     /*
 193:..\..\..\arduinoLCD\test\Pain Drain\libraries\lvgl\src\misc/lv_style.c ****      * Allocate the lookup table if it's not yet available.
 194:..\..\..\arduinoLCD\test\Pain Drain\libraries\lvgl\src\misc/lv_style.c ****      */
 195:..\..\..\arduinoLCD\test\Pain Drain\libraries\lvgl\src\misc/lv_style.c ****     size_t required_size = (last_custom_prop_id + 1 - _LV_STYLE_LAST_BUILT_IN_PROP);
 196:..\..\..\arduinoLCD\test\Pain Drain\libraries\lvgl\src\misc/lv_style.c ****     if(_lv_style_custom_prop_flag_lookup_table_size < required_size) {
 197:..\..\..\arduinoLCD\test\Pain Drain\libraries\lvgl\src\misc/lv_style.c ****         /* Round required_size up to the nearest 32-byte value */
 198:..\..\..\arduinoLCD\test\Pain Drain\libraries\lvgl\src\misc/lv_style.c ****         required_size = (required_size + 31) & ~31;
 199:..\..\..\arduinoLCD\test\Pain Drain\libraries\lvgl\src\misc/lv_style.c ****         LV_ASSERT_MSG(required_size > 0, "required size has become 0?");
 200:..\..\..\arduinoLCD\test\Pain Drain\libraries\lvgl\src\misc/lv_style.c ****         uint8_t * old_p = LV_GC_ROOT(_lv_style_custom_prop_flag_lookup_table);
 201:..\..\..\arduinoLCD\test\Pain Drain\libraries\lvgl\src\misc/lv_style.c ****         uint8_t * new_p = lv_mem_realloc(old_p, required_size * sizeof(uint8_t));
 202:..\..\..\arduinoLCD\test\Pain Drain\libraries\lvgl\src\misc/lv_style.c ****         if(new_p == NULL) {
ARM GAS  C:\Users\haske\AppData\Local\Temp\ccdHxW38.s 			page 5


 203:..\..\..\arduinoLCD\test\Pain Drain\libraries\lvgl\src\misc/lv_style.c ****             LV_LOG_ERROR("Unable to allocate space for custom property lookup table");
 204:..\..\..\arduinoLCD\test\Pain Drain\libraries\lvgl\src\misc/lv_style.c ****             return LV_STYLE_PROP_INV;
 205:..\..\..\arduinoLCD\test\Pain Drain\libraries\lvgl\src\misc/lv_style.c ****         }
 206:..\..\..\arduinoLCD\test\Pain Drain\libraries\lvgl\src\misc/lv_style.c ****         LV_GC_ROOT(_lv_style_custom_prop_flag_lookup_table) = new_p;
 207:..\..\..\arduinoLCD\test\Pain Drain\libraries\lvgl\src\misc/lv_style.c ****         _lv_style_custom_prop_flag_lookup_table_size = required_size;
 208:..\..\..\arduinoLCD\test\Pain Drain\libraries\lvgl\src\misc/lv_style.c ****     }
 209:..\..\..\arduinoLCD\test\Pain Drain\libraries\lvgl\src\misc/lv_style.c ****     last_custom_prop_id++;
 210:..\..\..\arduinoLCD\test\Pain Drain\libraries\lvgl\src\misc/lv_style.c ****     /* This should never happen - we should bail out above */
 211:..\..\..\arduinoLCD\test\Pain Drain\libraries\lvgl\src\misc/lv_style.c ****     LV_ASSERT_NULL(LV_GC_ROOT(_lv_style_custom_prop_flag_lookup_table));
 212:..\..\..\arduinoLCD\test\Pain Drain\libraries\lvgl\src\misc/lv_style.c ****     LV_GC_ROOT(_lv_style_custom_prop_flag_lookup_table)[last_custom_prop_id - _LV_STYLE_NUM_BUILT_I
 213:..\..\..\arduinoLCD\test\Pain Drain\libraries\lvgl\src\misc/lv_style.c ****     return last_custom_prop_id;
 214:..\..\..\arduinoLCD\test\Pain Drain\libraries\lvgl\src\misc/lv_style.c **** }
 215:..\..\..\arduinoLCD\test\Pain Drain\libraries\lvgl\src\misc/lv_style.c **** 
 216:..\..\..\arduinoLCD\test\Pain Drain\libraries\lvgl\src\misc/lv_style.c **** lv_style_prop_t lv_style_get_num_custom_props(void)
 217:..\..\..\arduinoLCD\test\Pain Drain\libraries\lvgl\src\misc/lv_style.c **** {
 218:..\..\..\arduinoLCD\test\Pain Drain\libraries\lvgl\src\misc/lv_style.c ****     return last_custom_prop_id - _LV_STYLE_LAST_BUILT_IN_PROP;
 219:..\..\..\arduinoLCD\test\Pain Drain\libraries\lvgl\src\misc/lv_style.c **** }
 220:..\..\..\arduinoLCD\test\Pain Drain\libraries\lvgl\src\misc/lv_style.c **** 
 221:..\..\..\arduinoLCD\test\Pain Drain\libraries\lvgl\src\misc/lv_style.c **** bool lv_style_remove_prop(lv_style_t * style, lv_style_prop_t prop)
 222:..\..\..\arduinoLCD\test\Pain Drain\libraries\lvgl\src\misc/lv_style.c **** {
 223:..\..\..\arduinoLCD\test\Pain Drain\libraries\lvgl\src\misc/lv_style.c ****     LV_ASSERT_STYLE(style);
 224:..\..\..\arduinoLCD\test\Pain Drain\libraries\lvgl\src\misc/lv_style.c **** 
 225:..\..\..\arduinoLCD\test\Pain Drain\libraries\lvgl\src\misc/lv_style.c ****     if(style->prop1 == LV_STYLE_PROP_ANY) {
 226:..\..\..\arduinoLCD\test\Pain Drain\libraries\lvgl\src\misc/lv_style.c ****         LV_LOG_ERROR("Cannot remove prop from const style");
 227:..\..\..\arduinoLCD\test\Pain Drain\libraries\lvgl\src\misc/lv_style.c ****         return false;
 228:..\..\..\arduinoLCD\test\Pain Drain\libraries\lvgl\src\misc/lv_style.c ****     }
 229:..\..\..\arduinoLCD\test\Pain Drain\libraries\lvgl\src\misc/lv_style.c **** 
 230:..\..\..\arduinoLCD\test\Pain Drain\libraries\lvgl\src\misc/lv_style.c ****     if(style->prop_cnt == 0)  return false;
 231:..\..\..\arduinoLCD\test\Pain Drain\libraries\lvgl\src\misc/lv_style.c **** 
 232:..\..\..\arduinoLCD\test\Pain Drain\libraries\lvgl\src\misc/lv_style.c ****     if(style->prop_cnt == 1) {
 233:..\..\..\arduinoLCD\test\Pain Drain\libraries\lvgl\src\misc/lv_style.c ****         if(LV_STYLE_PROP_ID_MASK(style->prop1) == prop) {
 234:..\..\..\arduinoLCD\test\Pain Drain\libraries\lvgl\src\misc/lv_style.c ****             style->prop1 = LV_STYLE_PROP_INV;
 235:..\..\..\arduinoLCD\test\Pain Drain\libraries\lvgl\src\misc/lv_style.c ****             style->prop_cnt = 0;
 236:..\..\..\arduinoLCD\test\Pain Drain\libraries\lvgl\src\misc/lv_style.c ****             return true;
 237:..\..\..\arduinoLCD\test\Pain Drain\libraries\lvgl\src\misc/lv_style.c ****         }
 238:..\..\..\arduinoLCD\test\Pain Drain\libraries\lvgl\src\misc/lv_style.c ****         return false;
 239:..\..\..\arduinoLCD\test\Pain Drain\libraries\lvgl\src\misc/lv_style.c ****     }
 240:..\..\..\arduinoLCD\test\Pain Drain\libraries\lvgl\src\misc/lv_style.c **** 
 241:..\..\..\arduinoLCD\test\Pain Drain\libraries\lvgl\src\misc/lv_style.c ****     uint8_t * tmp = style->v_p.values_and_props + style->prop_cnt * sizeof(lv_style_value_t);
 242:..\..\..\arduinoLCD\test\Pain Drain\libraries\lvgl\src\misc/lv_style.c ****     uint16_t * old_props = (uint16_t *)tmp;
 243:..\..\..\arduinoLCD\test\Pain Drain\libraries\lvgl\src\misc/lv_style.c ****     uint32_t i;
 244:..\..\..\arduinoLCD\test\Pain Drain\libraries\lvgl\src\misc/lv_style.c ****     for(i = 0; i < style->prop_cnt; i++) {
 245:..\..\..\arduinoLCD\test\Pain Drain\libraries\lvgl\src\misc/lv_style.c ****         if(LV_STYLE_PROP_ID_MASK(old_props[i]) == prop) {
 246:..\..\..\arduinoLCD\test\Pain Drain\libraries\lvgl\src\misc/lv_style.c ****             lv_style_value_t * old_values = (lv_style_value_t *)style->v_p.values_and_props;
 247:..\..\..\arduinoLCD\test\Pain Drain\libraries\lvgl\src\misc/lv_style.c **** 
 248:..\..\..\arduinoLCD\test\Pain Drain\libraries\lvgl\src\misc/lv_style.c ****             if(style->prop_cnt == 2) {
 249:..\..\..\arduinoLCD\test\Pain Drain\libraries\lvgl\src\misc/lv_style.c ****                 style->prop_cnt = 1;
 250:..\..\..\arduinoLCD\test\Pain Drain\libraries\lvgl\src\misc/lv_style.c ****                 style->prop1 = i == 0 ? old_props[1] : old_props[0];
 251:..\..\..\arduinoLCD\test\Pain Drain\libraries\lvgl\src\misc/lv_style.c ****                 style->v_p.value1 = i == 0 ? old_values[1] : old_values[0];
 252:..\..\..\arduinoLCD\test\Pain Drain\libraries\lvgl\src\misc/lv_style.c ****             }
 253:..\..\..\arduinoLCD\test\Pain Drain\libraries\lvgl\src\misc/lv_style.c ****             else {
 254:..\..\..\arduinoLCD\test\Pain Drain\libraries\lvgl\src\misc/lv_style.c ****                 size_t size = (style->prop_cnt - 1) * (sizeof(lv_style_value_t) + sizeof(uint16_t))
 255:..\..\..\arduinoLCD\test\Pain Drain\libraries\lvgl\src\misc/lv_style.c ****                 uint8_t * new_values_and_props = lv_mem_alloc(size);
 256:..\..\..\arduinoLCD\test\Pain Drain\libraries\lvgl\src\misc/lv_style.c ****                 if(new_values_and_props == NULL) return false;
 257:..\..\..\arduinoLCD\test\Pain Drain\libraries\lvgl\src\misc/lv_style.c ****                 style->v_p.values_and_props = new_values_and_props;
 258:..\..\..\arduinoLCD\test\Pain Drain\libraries\lvgl\src\misc/lv_style.c ****                 style->prop_cnt--;
 259:..\..\..\arduinoLCD\test\Pain Drain\libraries\lvgl\src\misc/lv_style.c **** 
ARM GAS  C:\Users\haske\AppData\Local\Temp\ccdHxW38.s 			page 6


 260:..\..\..\arduinoLCD\test\Pain Drain\libraries\lvgl\src\misc/lv_style.c ****                 tmp = new_values_and_props + style->prop_cnt * sizeof(lv_style_value_t);
 261:..\..\..\arduinoLCD\test\Pain Drain\libraries\lvgl\src\misc/lv_style.c ****                 uint16_t * new_props = (uint16_t *)tmp;
 262:..\..\..\arduinoLCD\test\Pain Drain\libraries\lvgl\src\misc/lv_style.c ****                 lv_style_value_t * new_values = (lv_style_value_t *)new_values_and_props;
 263:..\..\..\arduinoLCD\test\Pain Drain\libraries\lvgl\src\misc/lv_style.c **** 
 264:..\..\..\arduinoLCD\test\Pain Drain\libraries\lvgl\src\misc/lv_style.c ****                 uint32_t j;
 265:..\..\..\arduinoLCD\test\Pain Drain\libraries\lvgl\src\misc/lv_style.c ****                 for(i = j = 0; j <= style->prop_cnt;
 266:..\..\..\arduinoLCD\test\Pain Drain\libraries\lvgl\src\misc/lv_style.c ****                     j++) { /*<=: because prop_cnt already reduced but all the old props. needs to b
 267:..\..\..\arduinoLCD\test\Pain Drain\libraries\lvgl\src\misc/lv_style.c ****                     if(old_props[j] != prop) {
 268:..\..\..\arduinoLCD\test\Pain Drain\libraries\lvgl\src\misc/lv_style.c ****                         new_values[i] = old_values[j];
 269:..\..\..\arduinoLCD\test\Pain Drain\libraries\lvgl\src\misc/lv_style.c ****                         new_props[i++] = old_props[j];
 270:..\..\..\arduinoLCD\test\Pain Drain\libraries\lvgl\src\misc/lv_style.c ****                     }
 271:..\..\..\arduinoLCD\test\Pain Drain\libraries\lvgl\src\misc/lv_style.c ****                 }
 272:..\..\..\arduinoLCD\test\Pain Drain\libraries\lvgl\src\misc/lv_style.c ****             }
 273:..\..\..\arduinoLCD\test\Pain Drain\libraries\lvgl\src\misc/lv_style.c **** 
 274:..\..\..\arduinoLCD\test\Pain Drain\libraries\lvgl\src\misc/lv_style.c ****             lv_mem_free(old_values);
 275:..\..\..\arduinoLCD\test\Pain Drain\libraries\lvgl\src\misc/lv_style.c ****             return true;
 276:..\..\..\arduinoLCD\test\Pain Drain\libraries\lvgl\src\misc/lv_style.c ****         }
 277:..\..\..\arduinoLCD\test\Pain Drain\libraries\lvgl\src\misc/lv_style.c ****     }
 278:..\..\..\arduinoLCD\test\Pain Drain\libraries\lvgl\src\misc/lv_style.c **** 
 279:..\..\..\arduinoLCD\test\Pain Drain\libraries\lvgl\src\misc/lv_style.c ****     return false;
 280:..\..\..\arduinoLCD\test\Pain Drain\libraries\lvgl\src\misc/lv_style.c **** }
 281:..\..\..\arduinoLCD\test\Pain Drain\libraries\lvgl\src\misc/lv_style.c **** 
 282:..\..\..\arduinoLCD\test\Pain Drain\libraries\lvgl\src\misc/lv_style.c **** void lv_style_set_prop(lv_style_t * style, lv_style_prop_t prop, lv_style_value_t value)
 283:..\..\..\arduinoLCD\test\Pain Drain\libraries\lvgl\src\misc/lv_style.c **** {
 284:..\..\..\arduinoLCD\test\Pain Drain\libraries\lvgl\src\misc/lv_style.c ****     lv_style_set_prop_internal(style, prop, value, lv_style_set_prop_helper);
 285:..\..\..\arduinoLCD\test\Pain Drain\libraries\lvgl\src\misc/lv_style.c **** }
 286:..\..\..\arduinoLCD\test\Pain Drain\libraries\lvgl\src\misc/lv_style.c **** 
 287:..\..\..\arduinoLCD\test\Pain Drain\libraries\lvgl\src\misc/lv_style.c **** void lv_style_set_prop_meta(lv_style_t * style, lv_style_prop_t prop, uint16_t meta)
 288:..\..\..\arduinoLCD\test\Pain Drain\libraries\lvgl\src\misc/lv_style.c **** {
 289:..\..\..\arduinoLCD\test\Pain Drain\libraries\lvgl\src\misc/lv_style.c ****     lv_style_set_prop_internal(style, prop | meta, null_style_value, lv_style_set_prop_meta_helper)
 290:..\..\..\arduinoLCD\test\Pain Drain\libraries\lvgl\src\misc/lv_style.c **** }
 291:..\..\..\arduinoLCD\test\Pain Drain\libraries\lvgl\src\misc/lv_style.c **** 
 292:..\..\..\arduinoLCD\test\Pain Drain\libraries\lvgl\src\misc/lv_style.c **** lv_style_res_t lv_style_get_prop(const lv_style_t * style, lv_style_prop_t prop, lv_style_value_t *
 293:..\..\..\arduinoLCD\test\Pain Drain\libraries\lvgl\src\misc/lv_style.c **** {
 294:..\..\..\arduinoLCD\test\Pain Drain\libraries\lvgl\src\misc/lv_style.c ****     return lv_style_get_prop_inlined(style, prop, value);
 295:..\..\..\arduinoLCD\test\Pain Drain\libraries\lvgl\src\misc/lv_style.c **** }
 296:..\..\..\arduinoLCD\test\Pain Drain\libraries\lvgl\src\misc/lv_style.c **** 
 297:..\..\..\arduinoLCD\test\Pain Drain\libraries\lvgl\src\misc/lv_style.c **** void lv_style_transition_dsc_init(lv_style_transition_dsc_t * tr, const lv_style_prop_t props[],
 298:..\..\..\arduinoLCD\test\Pain Drain\libraries\lvgl\src\misc/lv_style.c ****                                   lv_anim_path_cb_t path_cb, uint32_t time, uint32_t delay, void * 
 299:..\..\..\arduinoLCD\test\Pain Drain\libraries\lvgl\src\misc/lv_style.c **** {
 300:..\..\..\arduinoLCD\test\Pain Drain\libraries\lvgl\src\misc/lv_style.c ****     lv_memset_00(tr, sizeof(lv_style_transition_dsc_t));
 301:..\..\..\arduinoLCD\test\Pain Drain\libraries\lvgl\src\misc/lv_style.c ****     tr->props = props;
 302:..\..\..\arduinoLCD\test\Pain Drain\libraries\lvgl\src\misc/lv_style.c ****     tr->path_xcb = path_cb == NULL ? lv_anim_path_linear : path_cb;
 303:..\..\..\arduinoLCD\test\Pain Drain\libraries\lvgl\src\misc/lv_style.c ****     tr->time = time;
 304:..\..\..\arduinoLCD\test\Pain Drain\libraries\lvgl\src\misc/lv_style.c ****     tr->delay = delay;
 305:..\..\..\arduinoLCD\test\Pain Drain\libraries\lvgl\src\misc/lv_style.c **** #if LV_USE_USER_DATA
 306:..\..\..\arduinoLCD\test\Pain Drain\libraries\lvgl\src\misc/lv_style.c ****     tr->user_data = user_data;
 307:..\..\..\arduinoLCD\test\Pain Drain\libraries\lvgl\src\misc/lv_style.c **** #else
 308:..\..\..\arduinoLCD\test\Pain Drain\libraries\lvgl\src\misc/lv_style.c ****     LV_UNUSED(user_data);
 309:..\..\..\arduinoLCD\test\Pain Drain\libraries\lvgl\src\misc/lv_style.c **** #endif
 310:..\..\..\arduinoLCD\test\Pain Drain\libraries\lvgl\src\misc/lv_style.c **** }
 311:..\..\..\arduinoLCD\test\Pain Drain\libraries\lvgl\src\misc/lv_style.c **** 
 312:..\..\..\arduinoLCD\test\Pain Drain\libraries\lvgl\src\misc/lv_style.c **** lv_style_value_t lv_style_prop_get_default(lv_style_prop_t prop)
 313:..\..\..\arduinoLCD\test\Pain Drain\libraries\lvgl\src\misc/lv_style.c **** {
 314:..\..\..\arduinoLCD\test\Pain Drain\libraries\lvgl\src\misc/lv_style.c ****     lv_style_value_t value;
 315:..\..\..\arduinoLCD\test\Pain Drain\libraries\lvgl\src\misc/lv_style.c ****     switch(prop) {
 316:..\..\..\arduinoLCD\test\Pain Drain\libraries\lvgl\src\misc/lv_style.c ****         case LV_STYLE_TRANSFORM_ZOOM:
ARM GAS  C:\Users\haske\AppData\Local\Temp\ccdHxW38.s 			page 7


 317:..\..\..\arduinoLCD\test\Pain Drain\libraries\lvgl\src\misc/lv_style.c ****             value.num = LV_IMG_ZOOM_NONE;
 318:..\..\..\arduinoLCD\test\Pain Drain\libraries\lvgl\src\misc/lv_style.c ****             break;
 319:..\..\..\arduinoLCD\test\Pain Drain\libraries\lvgl\src\misc/lv_style.c ****         case LV_STYLE_BG_COLOR:
 320:..\..\..\arduinoLCD\test\Pain Drain\libraries\lvgl\src\misc/lv_style.c ****             value.color = lv_color_white();
 321:..\..\..\arduinoLCD\test\Pain Drain\libraries\lvgl\src\misc/lv_style.c ****             break;
 322:..\..\..\arduinoLCD\test\Pain Drain\libraries\lvgl\src\misc/lv_style.c ****         case LV_STYLE_BG_GRAD_COLOR:
 323:..\..\..\arduinoLCD\test\Pain Drain\libraries\lvgl\src\misc/lv_style.c ****         case LV_STYLE_BORDER_COLOR:
 324:..\..\..\arduinoLCD\test\Pain Drain\libraries\lvgl\src\misc/lv_style.c ****         case LV_STYLE_SHADOW_COLOR:
 325:..\..\..\arduinoLCD\test\Pain Drain\libraries\lvgl\src\misc/lv_style.c ****         case LV_STYLE_OUTLINE_COLOR:
 326:..\..\..\arduinoLCD\test\Pain Drain\libraries\lvgl\src\misc/lv_style.c ****         case LV_STYLE_ARC_COLOR:
 327:..\..\..\arduinoLCD\test\Pain Drain\libraries\lvgl\src\misc/lv_style.c ****         case LV_STYLE_LINE_COLOR:
 328:..\..\..\arduinoLCD\test\Pain Drain\libraries\lvgl\src\misc/lv_style.c ****         case LV_STYLE_TEXT_COLOR:
 329:..\..\..\arduinoLCD\test\Pain Drain\libraries\lvgl\src\misc/lv_style.c ****         case LV_STYLE_IMG_RECOLOR:
 330:..\..\..\arduinoLCD\test\Pain Drain\libraries\lvgl\src\misc/lv_style.c ****             value.color = lv_color_black();
 331:..\..\..\arduinoLCD\test\Pain Drain\libraries\lvgl\src\misc/lv_style.c ****             break;
 332:..\..\..\arduinoLCD\test\Pain Drain\libraries\lvgl\src\misc/lv_style.c ****         case LV_STYLE_OPA:
 333:..\..\..\arduinoLCD\test\Pain Drain\libraries\lvgl\src\misc/lv_style.c ****         case LV_STYLE_BORDER_OPA:
 334:..\..\..\arduinoLCD\test\Pain Drain\libraries\lvgl\src\misc/lv_style.c ****         case LV_STYLE_TEXT_OPA:
 335:..\..\..\arduinoLCD\test\Pain Drain\libraries\lvgl\src\misc/lv_style.c ****         case LV_STYLE_IMG_OPA:
 336:..\..\..\arduinoLCD\test\Pain Drain\libraries\lvgl\src\misc/lv_style.c ****         case LV_STYLE_BG_IMG_OPA:
 337:..\..\..\arduinoLCD\test\Pain Drain\libraries\lvgl\src\misc/lv_style.c ****         case LV_STYLE_OUTLINE_OPA:
 338:..\..\..\arduinoLCD\test\Pain Drain\libraries\lvgl\src\misc/lv_style.c ****         case LV_STYLE_SHADOW_OPA:
 339:..\..\..\arduinoLCD\test\Pain Drain\libraries\lvgl\src\misc/lv_style.c ****         case LV_STYLE_LINE_OPA:
 340:..\..\..\arduinoLCD\test\Pain Drain\libraries\lvgl\src\misc/lv_style.c ****         case LV_STYLE_ARC_OPA:
 341:..\..\..\arduinoLCD\test\Pain Drain\libraries\lvgl\src\misc/lv_style.c ****             value.num = LV_OPA_COVER;
 342:..\..\..\arduinoLCD\test\Pain Drain\libraries\lvgl\src\misc/lv_style.c ****             break;
 343:..\..\..\arduinoLCD\test\Pain Drain\libraries\lvgl\src\misc/lv_style.c ****         case LV_STYLE_BG_GRAD_STOP:
 344:..\..\..\arduinoLCD\test\Pain Drain\libraries\lvgl\src\misc/lv_style.c ****             value.num = 255;
 345:..\..\..\arduinoLCD\test\Pain Drain\libraries\lvgl\src\misc/lv_style.c ****             break;
 346:..\..\..\arduinoLCD\test\Pain Drain\libraries\lvgl\src\misc/lv_style.c ****         case LV_STYLE_BORDER_SIDE:
 347:..\..\..\arduinoLCD\test\Pain Drain\libraries\lvgl\src\misc/lv_style.c ****             value.num = LV_BORDER_SIDE_FULL;
 348:..\..\..\arduinoLCD\test\Pain Drain\libraries\lvgl\src\misc/lv_style.c ****             break;
 349:..\..\..\arduinoLCD\test\Pain Drain\libraries\lvgl\src\misc/lv_style.c ****         case LV_STYLE_TEXT_FONT:
 350:..\..\..\arduinoLCD\test\Pain Drain\libraries\lvgl\src\misc/lv_style.c ****             value.ptr = LV_FONT_DEFAULT;
 351:..\..\..\arduinoLCD\test\Pain Drain\libraries\lvgl\src\misc/lv_style.c ****             break;
 352:..\..\..\arduinoLCD\test\Pain Drain\libraries\lvgl\src\misc/lv_style.c ****         case LV_STYLE_MAX_WIDTH:
 353:..\..\..\arduinoLCD\test\Pain Drain\libraries\lvgl\src\misc/lv_style.c ****         case LV_STYLE_MAX_HEIGHT:
 354:..\..\..\arduinoLCD\test\Pain Drain\libraries\lvgl\src\misc/lv_style.c ****             value.num = LV_COORD_MAX;
 355:..\..\..\arduinoLCD\test\Pain Drain\libraries\lvgl\src\misc/lv_style.c ****             break;
 356:..\..\..\arduinoLCD\test\Pain Drain\libraries\lvgl\src\misc/lv_style.c ****         default:
 357:..\..\..\arduinoLCD\test\Pain Drain\libraries\lvgl\src\misc/lv_style.c ****             value.ptr = NULL;
 358:..\..\..\arduinoLCD\test\Pain Drain\libraries\lvgl\src\misc/lv_style.c ****             value.num = 0;
 359:..\..\..\arduinoLCD\test\Pain Drain\libraries\lvgl\src\misc/lv_style.c ****             break;
 360:..\..\..\arduinoLCD\test\Pain Drain\libraries\lvgl\src\misc/lv_style.c ****     }
 361:..\..\..\arduinoLCD\test\Pain Drain\libraries\lvgl\src\misc/lv_style.c **** 
 362:..\..\..\arduinoLCD\test\Pain Drain\libraries\lvgl\src\misc/lv_style.c ****     return value;
 363:..\..\..\arduinoLCD\test\Pain Drain\libraries\lvgl\src\misc/lv_style.c **** }
 364:..\..\..\arduinoLCD\test\Pain Drain\libraries\lvgl\src\misc/lv_style.c **** 
 365:..\..\..\arduinoLCD\test\Pain Drain\libraries\lvgl\src\misc/lv_style.c **** bool lv_style_is_empty(const lv_style_t * style)
 366:..\..\..\arduinoLCD\test\Pain Drain\libraries\lvgl\src\misc/lv_style.c **** {
 367:..\..\..\arduinoLCD\test\Pain Drain\libraries\lvgl\src\misc/lv_style.c ****     LV_ASSERT_STYLE(style);
 368:..\..\..\arduinoLCD\test\Pain Drain\libraries\lvgl\src\misc/lv_style.c **** 
 369:..\..\..\arduinoLCD\test\Pain Drain\libraries\lvgl\src\misc/lv_style.c ****     return style->prop_cnt == 0 ? true : false;
 370:..\..\..\arduinoLCD\test\Pain Drain\libraries\lvgl\src\misc/lv_style.c **** }
 371:..\..\..\arduinoLCD\test\Pain Drain\libraries\lvgl\src\misc/lv_style.c **** 
 372:..\..\..\arduinoLCD\test\Pain Drain\libraries\lvgl\src\misc/lv_style.c **** uint8_t _lv_style_get_prop_group(lv_style_prop_t prop)
 373:..\..\..\arduinoLCD\test\Pain Drain\libraries\lvgl\src\misc/lv_style.c **** {
ARM GAS  C:\Users\haske\AppData\Local\Temp\ccdHxW38.s 			page 8


 374:..\..\..\arduinoLCD\test\Pain Drain\libraries\lvgl\src\misc/lv_style.c ****     uint16_t group = (prop & 0x1FF) >> 4;
 375:..\..\..\arduinoLCD\test\Pain Drain\libraries\lvgl\src\misc/lv_style.c ****     if(group > 7) group = 7;    /*The MSB marks all the custom properties*/
 376:..\..\..\arduinoLCD\test\Pain Drain\libraries\lvgl\src\misc/lv_style.c ****     return (uint8_t)group;
 377:..\..\..\arduinoLCD\test\Pain Drain\libraries\lvgl\src\misc/lv_style.c **** }
 378:..\..\..\arduinoLCD\test\Pain Drain\libraries\lvgl\src\misc/lv_style.c **** 
 379:..\..\..\arduinoLCD\test\Pain Drain\libraries\lvgl\src\misc/lv_style.c **** uint8_t _lv_style_prop_lookup_flags(lv_style_prop_t prop)
 380:..\..\..\arduinoLCD\test\Pain Drain\libraries\lvgl\src\misc/lv_style.c **** {
 381:..\..\..\arduinoLCD\test\Pain Drain\libraries\lvgl\src\misc/lv_style.c ****     extern const uint8_t _lv_style_builtin_prop_flag_lookup_table[];
 382:..\..\..\arduinoLCD\test\Pain Drain\libraries\lvgl\src\misc/lv_style.c ****     extern uint32_t _lv_style_custom_prop_flag_lookup_table_size;
 383:..\..\..\arduinoLCD\test\Pain Drain\libraries\lvgl\src\misc/lv_style.c ****     if(prop == LV_STYLE_PROP_ANY) return LV_STYLE_PROP_ALL; /*Any prop can have any flags*/
 384:..\..\..\arduinoLCD\test\Pain Drain\libraries\lvgl\src\misc/lv_style.c ****     if(prop == LV_STYLE_PROP_INV) return 0;
 385:..\..\..\arduinoLCD\test\Pain Drain\libraries\lvgl\src\misc/lv_style.c **** 
 386:..\..\..\arduinoLCD\test\Pain Drain\libraries\lvgl\src\misc/lv_style.c ****     if(prop < _LV_STYLE_NUM_BUILT_IN_PROPS)
 387:..\..\..\arduinoLCD\test\Pain Drain\libraries\lvgl\src\misc/lv_style.c ****         return _lv_style_builtin_prop_flag_lookup_table[prop];
 388:..\..\..\arduinoLCD\test\Pain Drain\libraries\lvgl\src\misc/lv_style.c ****     prop -= _LV_STYLE_NUM_BUILT_IN_PROPS;
 389:..\..\..\arduinoLCD\test\Pain Drain\libraries\lvgl\src\misc/lv_style.c ****     if(LV_GC_ROOT(_lv_style_custom_prop_flag_lookup_table) != NULL && prop < _lv_style_custom_prop_
 390:..\..\..\arduinoLCD\test\Pain Drain\libraries\lvgl\src\misc/lv_style.c ****         return LV_GC_ROOT(_lv_style_custom_prop_flag_lookup_table)[prop];
 391:..\..\..\arduinoLCD\test\Pain Drain\libraries\lvgl\src\misc/lv_style.c ****     return 0;
 392:..\..\..\arduinoLCD\test\Pain Drain\libraries\lvgl\src\misc/lv_style.c **** }
 393:..\..\..\arduinoLCD\test\Pain Drain\libraries\lvgl\src\misc/lv_style.c **** 
 394:..\..\..\arduinoLCD\test\Pain Drain\libraries\lvgl\src\misc/lv_style.c **** /**********************
 395:..\..\..\arduinoLCD\test\Pain Drain\libraries\lvgl\src\misc/lv_style.c ****  *   STATIC FUNCTIONS
 396:..\..\..\arduinoLCD\test\Pain Drain\libraries\lvgl\src\misc/lv_style.c ****  **********************/
 397:..\..\..\arduinoLCD\test\Pain Drain\libraries\lvgl\src\misc/lv_style.c **** 
 398:..\..\..\arduinoLCD\test\Pain Drain\libraries\lvgl\src\misc/lv_style.c **** static void lv_style_set_prop_helper(lv_style_prop_t prop, lv_style_value_t value, uint16_t * prop_
 399:..\..\..\arduinoLCD\test\Pain Drain\libraries\lvgl\src\misc/lv_style.c ****                                      lv_style_value_t * value_storage)
 400:..\..\..\arduinoLCD\test\Pain Drain\libraries\lvgl\src\misc/lv_style.c **** {
  27              		.loc 1 400 0
  28              		.cfi_startproc
  29              		@ args = 0, pretend = 0, frame = 0
  30              		@ frame_needed = 0, uses_anonymous_args = 0
  31              		@ link register save eliminated.
  32              	.LVL0:
 401:..\..\..\arduinoLCD\test\Pain Drain\libraries\lvgl\src\misc/lv_style.c ****     *prop_storage = prop;
  33              		.loc 1 401 0
  34 0000 1080     		strh	r0, [r2]
 402:..\..\..\arduinoLCD\test\Pain Drain\libraries\lvgl\src\misc/lv_style.c ****     *value_storage = value;
  35              		.loc 1 402 0
  36 0002 1960     		str	r1, [r3]
 403:..\..\..\arduinoLCD\test\Pain Drain\libraries\lvgl\src\misc/lv_style.c **** }
  37              		.loc 1 403 0
  38              		@ sp needed
  39 0004 7047     		bx	lr
  40              		.cfi_endproc
  41              	.LFE69:
  42              		.size	lv_style_set_prop_helper, .-lv_style_set_prop_helper
  43              		.section	.text.lv_style_set_prop_meta_helper,"ax",%progbits
  44              		.align	2
  45              		.code	16
  46              		.thumb_func
  47              		.type	lv_style_set_prop_meta_helper, %function
  48              	lv_style_set_prop_meta_helper:
  49              	.LFB70:
 404:..\..\..\arduinoLCD\test\Pain Drain\libraries\lvgl\src\misc/lv_style.c **** 
 405:..\..\..\arduinoLCD\test\Pain Drain\libraries\lvgl\src\misc/lv_style.c **** static void lv_style_set_prop_meta_helper(lv_style_prop_t prop, lv_style_value_t value, uint16_t * 
 406:..\..\..\arduinoLCD\test\Pain Drain\libraries\lvgl\src\misc/lv_style.c ****                                           lv_style_value_t * value_storage)
 407:..\..\..\arduinoLCD\test\Pain Drain\libraries\lvgl\src\misc/lv_style.c **** {
ARM GAS  C:\Users\haske\AppData\Local\Temp\ccdHxW38.s 			page 9


  50              		.loc 1 407 0
  51              		.cfi_startproc
  52              		@ args = 0, pretend = 0, frame = 0
  53              		@ frame_needed = 0, uses_anonymous_args = 0
  54              		@ link register save eliminated.
  55              	.LVL1:
 408:..\..\..\arduinoLCD\test\Pain Drain\libraries\lvgl\src\misc/lv_style.c ****     LV_UNUSED(value);
 409:..\..\..\arduinoLCD\test\Pain Drain\libraries\lvgl\src\misc/lv_style.c ****     LV_UNUSED(value_storage);
 410:..\..\..\arduinoLCD\test\Pain Drain\libraries\lvgl\src\misc/lv_style.c ****     *prop_storage = prop; /* meta is OR-ed into the prop ID already */
  56              		.loc 1 410 0
  57 0000 1080     		strh	r0, [r2]
 411:..\..\..\arduinoLCD\test\Pain Drain\libraries\lvgl\src\misc/lv_style.c **** }
  58              		.loc 1 411 0
  59              		@ sp needed
  60 0002 7047     		bx	lr
  61              		.cfi_endproc
  62              	.LFE70:
  63              		.size	lv_style_set_prop_meta_helper, .-lv_style_set_prop_meta_helper
  64              		.section	.text.lv_style_init,"ax",%progbits
  65              		.align	2
  66              		.global	lv_style_init
  67              		.code	16
  68              		.thumb_func
  69              		.type	lv_style_init, %function
  70              	lv_style_init:
  71              	.LFB56:
 151:..\..\..\arduinoLCD\test\Pain Drain\libraries\lvgl\src\misc/lv_style.c **** #if LV_USE_ASSERT_STYLE
  72              		.loc 1 151 0
  73              		.cfi_startproc
  74              		@ args = 0, pretend = 0, frame = 0
  75              		@ frame_needed = 0, uses_anonymous_args = 0
  76              	.LVL2:
  77 0000 10B5     		push	{r4, lr}
  78              		.cfi_def_cfa_offset 8
  79              		.cfi_offset 4, -8
  80              		.cfi_offset 14, -4
 158:..\..\..\arduinoLCD\test\Pain Drain\libraries\lvgl\src\misc/lv_style.c **** #if LV_USE_ASSERT_STYLE
  81              		.loc 1 158 0
  82 0002 0821     		movs	r1, #8
  83 0004 FFF7FEFF 		bl	lv_memset_00
  84              	.LVL3:
 162:..\..\..\arduinoLCD\test\Pain Drain\libraries\lvgl\src\misc/lv_style.c **** 
  85              		.loc 1 162 0
  86              		@ sp needed
  87 0008 10BD     		pop	{r4, pc}
  88              		.cfi_endproc
  89              	.LFE56:
  90              		.size	lv_style_init, .-lv_style_init
  91 000a C046     		.section	.text.lv_style_reset,"ax",%progbits
  92              		.align	2
  93              		.global	lv_style_reset
  94              		.code	16
  95              		.thumb_func
  96              		.type	lv_style_reset, %function
  97              	lv_style_reset:
  98              	.LFB57:
 165:..\..\..\arduinoLCD\test\Pain Drain\libraries\lvgl\src\misc/lv_style.c ****     LV_ASSERT_STYLE(style);
ARM GAS  C:\Users\haske\AppData\Local\Temp\ccdHxW38.s 			page 10


  99              		.loc 1 165 0
 100              		.cfi_startproc
 101              		@ args = 0, pretend = 0, frame = 0
 102              		@ frame_needed = 0, uses_anonymous_args = 0
 103              	.LVL4:
 104 0000 10B5     		push	{r4, lr}
 105              		.cfi_def_cfa_offset 8
 106              		.cfi_offset 4, -8
 107              		.cfi_offset 14, -4
 108 0002 0400     		movs	r4, r0
 168:..\..\..\arduinoLCD\test\Pain Drain\libraries\lvgl\src\misc/lv_style.c ****         LV_LOG_ERROR("Cannot reset const style");
 109              		.loc 1 168 0
 110 0004 8288     		ldrh	r2, [r0, #4]
 111 0006 074B     		ldr	r3, .L7
 112 0008 9A42     		cmp	r2, r3
 113 000a 09D0     		beq	.L4
 173:..\..\..\arduinoLCD\test\Pain Drain\libraries\lvgl\src\misc/lv_style.c ****     lv_memset_00(style, sizeof(lv_style_t));
 114              		.loc 1 173 0
 115 000c C379     		ldrb	r3, [r0, #7]
 116 000e 012B     		cmp	r3, #1
 117 0010 02D9     		bls	.L6
 173:..\..\..\arduinoLCD\test\Pain Drain\libraries\lvgl\src\misc/lv_style.c ****     lv_memset_00(style, sizeof(lv_style_t));
 118              		.loc 1 173 0 is_stmt 0 discriminator 1
 119 0012 0068     		ldr	r0, [r0]
 120              	.LVL5:
 121 0014 FFF7FEFF 		bl	lv_mem_free
 122              	.LVL6:
 123              	.L6:
 174:..\..\..\arduinoLCD\test\Pain Drain\libraries\lvgl\src\misc/lv_style.c **** #if LV_USE_ASSERT_STYLE
 124              		.loc 1 174 0 is_stmt 1
 125 0018 0821     		movs	r1, #8
 126 001a 2000     		movs	r0, r4
 127 001c FFF7FEFF 		bl	lv_memset_00
 128              	.LVL7:
 129              	.L4:
 178:..\..\..\arduinoLCD\test\Pain Drain\libraries\lvgl\src\misc/lv_style.c **** 
 130              		.loc 1 178 0
 131              		@ sp needed
 132              	.LVL8:
 133 0020 10BD     		pop	{r4, pc}
 134              	.L8:
 135 0022 C046     		.align	2
 136              	.L7:
 137 0024 FFFF0000 		.word	65535
 138              		.cfi_endproc
 139              	.LFE57:
 140              		.size	lv_style_reset, .-lv_style_reset
 141              		.section	.text.lv_style_register_prop,"ax",%progbits
 142              		.align	2
 143              		.global	lv_style_register_prop
 144              		.code	16
 145              		.thumb_func
 146              		.type	lv_style_register_prop, %function
 147              	lv_style_register_prop:
 148              	.LFB58:
 181:..\..\..\arduinoLCD\test\Pain Drain\libraries\lvgl\src\misc/lv_style.c ****     if(LV_GC_ROOT(_lv_style_custom_prop_flag_lookup_table) == NULL) {
 149              		.loc 1 181 0
ARM GAS  C:\Users\haske\AppData\Local\Temp\ccdHxW38.s 			page 11


 150              		.cfi_startproc
 151              		@ args = 0, pretend = 0, frame = 0
 152              		@ frame_needed = 0, uses_anonymous_args = 0
 153              	.LVL9:
 154 0000 70B5     		push	{r4, r5, r6, lr}
 155              		.cfi_def_cfa_offset 16
 156              		.cfi_offset 4, -16
 157              		.cfi_offset 5, -12
 158              		.cfi_offset 6, -8
 159              		.cfi_offset 14, -4
 160 0002 0500     		movs	r5, r0
 182:..\..\..\arduinoLCD\test\Pain Drain\libraries\lvgl\src\misc/lv_style.c ****         _lv_style_custom_prop_flag_lookup_table_size = 0;
 161              		.loc 1 182 0
 162 0004 1A4B     		ldr	r3, .L19
 163 0006 1868     		ldr	r0, [r3]
 164              	.LVL10:
 165 0008 0028     		cmp	r0, #0
 166 000a 05D1     		bne	.L10
 183:..\..\..\arduinoLCD\test\Pain Drain\libraries\lvgl\src\misc/lv_style.c ****         last_custom_prop_id = (uint16_t)_LV_STYLE_LAST_BUILT_IN_PROP;
 167              		.loc 1 183 0
 168 000c 0022     		movs	r2, #0
 169 000e 194B     		ldr	r3, .L19+4
 170 0010 1A60     		str	r2, [r3]
 184:..\..\..\arduinoLCD\test\Pain Drain\libraries\lvgl\src\misc/lv_style.c ****     }
 171              		.loc 1 184 0
 172 0012 6F32     		adds	r2, r2, #111
 173 0014 184B     		ldr	r3, .L19+8
 174 0016 1A80     		strh	r2, [r3]
 175              	.L10:
 187:..\..\..\arduinoLCD\test\Pain Drain\libraries\lvgl\src\misc/lv_style.c ****         LV_LOG_ERROR("No more custom property IDs available");
 176              		.loc 1 187 0
 177 0018 174B     		ldr	r3, .L19+8
 178 001a 1C88     		ldrh	r4, [r3]
 179 001c 621C     		adds	r2, r4, #1
 180 001e C023     		movs	r3, #192
 181 0020 1B02     		lsls	r3, r3, #8
 182 0022 1A42     		tst	r2, r3
 183 0024 20D1     		bne	.L17
 195:..\..\..\arduinoLCD\test\Pain Drain\libraries\lvgl\src\misc/lv_style.c ****     if(_lv_style_custom_prop_flag_lookup_table_size < required_size) {
 184              		.loc 1 195 0
 185 0026 6E3C     		subs	r4, r4, #110
 186              	.LVL11:
 196:..\..\..\arduinoLCD\test\Pain Drain\libraries\lvgl\src\misc/lv_style.c ****         /* Round required_size up to the nearest 32-byte value */
 187              		.loc 1 196 0
 188 0028 124B     		ldr	r3, .L19+4
 189 002a 1B68     		ldr	r3, [r3]
 190 002c 9C42     		cmp	r4, r3
 191 002e 0DD9     		bls	.L12
 192              	.LBB14:
 198:..\..\..\arduinoLCD\test\Pain Drain\libraries\lvgl\src\misc/lv_style.c ****         LV_ASSERT_MSG(required_size > 0, "required size has become 0?");
 193              		.loc 1 198 0
 194 0030 1F34     		adds	r4, r4, #31
 195              	.LVL12:
 196 0032 1F23     		movs	r3, #31
 197 0034 9C43     		bics	r4, r3
 198              	.LVL13:
 199:..\..\..\arduinoLCD\test\Pain Drain\libraries\lvgl\src\misc/lv_style.c ****         uint8_t * old_p = LV_GC_ROOT(_lv_style_custom_prop_flag_lookup_table);
ARM GAS  C:\Users\haske\AppData\Local\Temp\ccdHxW38.s 			page 12


 199              		.loc 1 199 0
 200 0036 00D1     		bne	.L13
 201              	.L14:
 202 0038 FEE7     		b	.L14
 203              	.L13:
 204              	.LVL14:
 201:..\..\..\arduinoLCD\test\Pain Drain\libraries\lvgl\src\misc/lv_style.c ****         if(new_p == NULL) {
 205              		.loc 1 201 0
 206 003a 2100     		movs	r1, r4
 207 003c FFF7FEFF 		bl	lv_mem_realloc
 208              	.LVL15:
 202:..\..\..\arduinoLCD\test\Pain Drain\libraries\lvgl\src\misc/lv_style.c ****             LV_LOG_ERROR("Unable to allocate space for custom property lookup table");
 209              		.loc 1 202 0
 210 0040 0028     		cmp	r0, #0
 211 0042 13D0     		beq	.L18
 206:..\..\..\arduinoLCD\test\Pain Drain\libraries\lvgl\src\misc/lv_style.c ****         _lv_style_custom_prop_flag_lookup_table_size = required_size;
 212              		.loc 1 206 0
 213 0044 0A4B     		ldr	r3, .L19
 214 0046 1860     		str	r0, [r3]
 207:..\..\..\arduinoLCD\test\Pain Drain\libraries\lvgl\src\misc/lv_style.c ****     }
 215              		.loc 1 207 0
 216 0048 0A4B     		ldr	r3, .L19+4
 217 004a 1C60     		str	r4, [r3]
 218              	.LVL16:
 219              	.L12:
 220              	.LBE14:
 209:..\..\..\arduinoLCD\test\Pain Drain\libraries\lvgl\src\misc/lv_style.c ****     /* This should never happen - we should bail out above */
 221              		.loc 1 209 0
 222 004c 0A4B     		ldr	r3, .L19+8
 223 004e 1888     		ldrh	r0, [r3]
 224 0050 0130     		adds	r0, r0, #1
 225 0052 80B2     		uxth	r0, r0
 226 0054 1880     		strh	r0, [r3]
 211:..\..\..\arduinoLCD\test\Pain Drain\libraries\lvgl\src\misc/lv_style.c ****     LV_GC_ROOT(_lv_style_custom_prop_flag_lookup_table)[last_custom_prop_id - _LV_STYLE_NUM_BUILT_I
 227              		.loc 1 211 0
 228 0056 064B     		ldr	r3, .L19
 229 0058 1B68     		ldr	r3, [r3]
 230 005a 002B     		cmp	r3, #0
 231 005c 00D1     		bne	.L15
 232              	.L16:
 233 005e FEE7     		b	.L16
 234              	.L15:
 212:..\..\..\arduinoLCD\test\Pain Drain\libraries\lvgl\src\misc/lv_style.c ****     return last_custom_prop_id;
 235              		.loc 1 212 0
 236 0060 0200     		movs	r2, r0
 237 0062 703A     		subs	r2, r2, #112
 238 0064 9D54     		strb	r5, [r3, r2]
 213:..\..\..\arduinoLCD\test\Pain Drain\libraries\lvgl\src\misc/lv_style.c **** }
 239              		.loc 1 213 0
 240 0066 02E0     		b	.L11
 241              	.LVL17:
 242              	.L17:
 189:..\..\..\arduinoLCD\test\Pain Drain\libraries\lvgl\src\misc/lv_style.c ****     }
 243              		.loc 1 189 0
 244 0068 0020     		movs	r0, #0
 245 006a 00E0     		b	.L11
 246              	.LVL18:
ARM GAS  C:\Users\haske\AppData\Local\Temp\ccdHxW38.s 			page 13


 247              	.L18:
 248              	.LBB15:
 204:..\..\..\arduinoLCD\test\Pain Drain\libraries\lvgl\src\misc/lv_style.c ****         }
 249              		.loc 1 204 0
 250 006c 0020     		movs	r0, #0
 251              	.LVL19:
 252              	.L11:
 253              	.LBE15:
 214:..\..\..\arduinoLCD\test\Pain Drain\libraries\lvgl\src\misc/lv_style.c **** 
 254              		.loc 1 214 0
 255              		@ sp needed
 256 006e 70BD     		pop	{r4, r5, r6, pc}
 257              	.L20:
 258              		.align	2
 259              	.L19:
 260 0070 00000000 		.word	_lv_style_custom_prop_flag_lookup_table
 261 0074 00000000 		.word	.LANCHOR0
 262 0078 00000000 		.word	.LANCHOR1
 263              		.cfi_endproc
 264              	.LFE58:
 265              		.size	lv_style_register_prop, .-lv_style_register_prop
 266              		.section	.text.lv_style_get_num_custom_props,"ax",%progbits
 267              		.align	2
 268              		.global	lv_style_get_num_custom_props
 269              		.code	16
 270              		.thumb_func
 271              		.type	lv_style_get_num_custom_props, %function
 272              	lv_style_get_num_custom_props:
 273              	.LFB59:
 217:..\..\..\arduinoLCD\test\Pain Drain\libraries\lvgl\src\misc/lv_style.c ****     return last_custom_prop_id - _LV_STYLE_LAST_BUILT_IN_PROP;
 274              		.loc 1 217 0
 275              		.cfi_startproc
 276              		@ args = 0, pretend = 0, frame = 0
 277              		@ frame_needed = 0, uses_anonymous_args = 0
 278              		@ link register save eliminated.
 218:..\..\..\arduinoLCD\test\Pain Drain\libraries\lvgl\src\misc/lv_style.c **** }
 279              		.loc 1 218 0
 280 0000 024B     		ldr	r3, .L22
 281 0002 1888     		ldrh	r0, [r3]
 282 0004 6F38     		subs	r0, r0, #111
 283 0006 80B2     		uxth	r0, r0
 219:..\..\..\arduinoLCD\test\Pain Drain\libraries\lvgl\src\misc/lv_style.c **** 
 284              		.loc 1 219 0
 285              		@ sp needed
 286 0008 7047     		bx	lr
 287              	.L23:
 288 000a C046     		.align	2
 289              	.L22:
 290 000c 00000000 		.word	.LANCHOR1
 291              		.cfi_endproc
 292              	.LFE59:
 293              		.size	lv_style_get_num_custom_props, .-lv_style_get_num_custom_props
 294              		.section	.text.lv_style_remove_prop,"ax",%progbits
 295              		.align	2
 296              		.global	lv_style_remove_prop
 297              		.code	16
 298              		.thumb_func
ARM GAS  C:\Users\haske\AppData\Local\Temp\ccdHxW38.s 			page 14


 299              		.type	lv_style_remove_prop, %function
 300              	lv_style_remove_prop:
 301              	.LFB60:
 222:..\..\..\arduinoLCD\test\Pain Drain\libraries\lvgl\src\misc/lv_style.c ****     LV_ASSERT_STYLE(style);
 302              		.loc 1 222 0
 303              		.cfi_startproc
 304              		@ args = 0, pretend = 0, frame = 8
 305              		@ frame_needed = 0, uses_anonymous_args = 0
 306              	.LVL20:
 307 0000 F0B5     		push	{r4, r5, r6, r7, lr}
 308              		.cfi_def_cfa_offset 20
 309              		.cfi_offset 4, -20
 310              		.cfi_offset 5, -16
 311              		.cfi_offset 6, -12
 312              		.cfi_offset 7, -8
 313              		.cfi_offset 14, -4
 314 0002 5F46     		mov	r7, fp
 315 0004 5646     		mov	r6, r10
 316 0006 4D46     		mov	r5, r9
 317 0008 4446     		mov	r4, r8
 318 000a F0B4     		push	{r4, r5, r6, r7}
 319              		.cfi_def_cfa_offset 36
 320              		.cfi_offset 8, -36
 321              		.cfi_offset 9, -32
 322              		.cfi_offset 10, -28
 323              		.cfi_offset 11, -24
 324 000c 83B0     		sub	sp, sp, #12
 325              		.cfi_def_cfa_offset 48
 326 000e 0700     		movs	r7, r0
 327 0010 0D00     		movs	r5, r1
 225:..\..\..\arduinoLCD\test\Pain Drain\libraries\lvgl\src\misc/lv_style.c ****         LV_LOG_ERROR("Cannot remove prop from const style");
 328              		.loc 1 225 0
 329 0012 8388     		ldrh	r3, [r0, #4]
 330 0014 3E4A     		ldr	r2, .L42
 331 0016 9342     		cmp	r3, r2
 332 0018 6CD0     		beq	.L38
 230:..\..\..\arduinoLCD\test\Pain Drain\libraries\lvgl\src\misc/lv_style.c **** 
 333              		.loc 1 230 0
 334 001a C279     		ldrb	r2, [r0, #7]
 335 001c 9046     		mov	r8, r2
 336 001e 002A     		cmp	r2, #0
 337 0020 6AD0     		beq	.L39
 232:..\..\..\arduinoLCD\test\Pain Drain\libraries\lvgl\src\misc/lv_style.c ****         if(LV_STYLE_PROP_ID_MASK(style->prop1) == prop) {
 338              		.loc 1 232 0
 339 0022 012A     		cmp	r2, #1
 340 0024 08D1     		bne	.L26
 233:..\..\..\arduinoLCD\test\Pain Drain\libraries\lvgl\src\misc/lv_style.c ****             style->prop1 = LV_STYLE_PROP_INV;
 341              		.loc 1 233 0
 342 0026 9B04     		lsls	r3, r3, #18
 343 0028 9B0C     		lsrs	r3, r3, #18
 344 002a 8B42     		cmp	r3, r1
 345 002c 66D1     		bne	.L40
 234:..\..\..\arduinoLCD\test\Pain Drain\libraries\lvgl\src\misc/lv_style.c ****             style->prop_cnt = 0;
 346              		.loc 1 234 0
 347 002e 0023     		movs	r3, #0
 348 0030 8380     		strh	r3, [r0, #4]
 235:..\..\..\arduinoLCD\test\Pain Drain\libraries\lvgl\src\misc/lv_style.c ****             return true;
ARM GAS  C:\Users\haske\AppData\Local\Temp\ccdHxW38.s 			page 15


 349              		.loc 1 235 0
 350 0032 C371     		strb	r3, [r0, #7]
 236:..\..\..\arduinoLCD\test\Pain Drain\libraries\lvgl\src\misc/lv_style.c ****         }
 351              		.loc 1 236 0
 352 0034 0120     		movs	r0, #1
 353              	.LVL21:
 354 0036 64E0     		b	.L25
 355              	.LVL22:
 356              	.L26:
 241:..\..\..\arduinoLCD\test\Pain Drain\libraries\lvgl\src\misc/lv_style.c ****     uint16_t * old_props = (uint16_t *)tmp;
 357              		.loc 1 241 0
 358 0038 0468     		ldr	r4, [r0]
 359 003a 1100     		movs	r1, r2
 360              	.LVL23:
 361 003c 9600     		lsls	r6, r2, #2
 362 003e A319     		adds	r3, r4, r6
 363 0040 9C46     		mov	ip, r3
 364              	.LVL24:
 244:..\..\..\arduinoLCD\test\Pain Drain\libraries\lvgl\src\misc/lv_style.c ****         if(LV_STYLE_PROP_ID_MASK(old_props[i]) == prop) {
 365              		.loc 1 244 0
 366 0042 0022     		movs	r2, #0
 367 0044 52E0     		b	.L27
 368              	.LVL25:
 369              	.L37:
 245:..\..\..\arduinoLCD\test\Pain Drain\libraries\lvgl\src\misc/lv_style.c ****             lv_style_value_t * old_values = (lv_style_value_t *)style->v_p.values_and_props;
 370              		.loc 1 245 0
 371 0046 5300     		lsls	r3, r2, #1
 372 0048 A019     		adds	r0, r4, r6
 373 004a C35A     		ldrh	r3, [r0, r3]
 374 004c 9B04     		lsls	r3, r3, #18
 375 004e 9B0C     		lsrs	r3, r3, #18
 376 0050 AB42     		cmp	r3, r5
 377 0052 4AD1     		bne	.L28
 378              	.LVL26:
 379              	.LBB16:
 248:..\..\..\arduinoLCD\test\Pain Drain\libraries\lvgl\src\misc/lv_style.c ****                 style->prop_cnt = 1;
 380              		.loc 1 248 0
 381 0054 4346     		mov	r3, r8
 382 0056 022B     		cmp	r3, #2
 383 0058 11D1     		bne	.L29
 249:..\..\..\arduinoLCD\test\Pain Drain\libraries\lvgl\src\misc/lv_style.c ****                 style->prop1 = i == 0 ? old_props[1] : old_props[0];
 384              		.loc 1 249 0
 385 005a 013B     		subs	r3, r3, #1
 386 005c FB71     		strb	r3, [r7, #7]
 250:..\..\..\arduinoLCD\test\Pain Drain\libraries\lvgl\src\misc/lv_style.c ****                 style->v_p.value1 = i == 0 ? old_values[1] : old_values[0];
 387              		.loc 1 250 0
 388 005e 002A     		cmp	r2, #0
 389 0060 02D1     		bne	.L30
 250:..\..\..\arduinoLCD\test\Pain Drain\libraries\lvgl\src\misc/lv_style.c ****                 style->v_p.value1 = i == 0 ? old_values[1] : old_values[0];
 390              		.loc 1 250 0 is_stmt 0 discriminator 1
 391 0062 6346     		mov	r3, ip
 392 0064 5B88     		ldrh	r3, [r3, #2]
 393 0066 01E0     		b	.L31
 394              	.L30:
 250:..\..\..\arduinoLCD\test\Pain Drain\libraries\lvgl\src\misc/lv_style.c ****                 style->v_p.value1 = i == 0 ? old_values[1] : old_values[0];
 395              		.loc 1 250 0 discriminator 2
 396 0068 6346     		mov	r3, ip
ARM GAS  C:\Users\haske\AppData\Local\Temp\ccdHxW38.s 			page 16


 397 006a 1B88     		ldrh	r3, [r3]
 398              	.L31:
 250:..\..\..\arduinoLCD\test\Pain Drain\libraries\lvgl\src\misc/lv_style.c ****                 style->v_p.value1 = i == 0 ? old_values[1] : old_values[0];
 399              		.loc 1 250 0 discriminator 4
 400 006c BB80     		strh	r3, [r7, #4]
 251:..\..\..\arduinoLCD\test\Pain Drain\libraries\lvgl\src\misc/lv_style.c ****             }
 401              		.loc 1 251 0 is_stmt 1 discriminator 4
 402 006e 002A     		cmp	r2, #0
 403 0070 02D1     		bne	.L32
 251:..\..\..\arduinoLCD\test\Pain Drain\libraries\lvgl\src\misc/lv_style.c ****             }
 404              		.loc 1 251 0 is_stmt 0 discriminator 1
 405 0072 6368     		ldr	r3, [r4, #4]
 406 0074 3B60     		str	r3, [r7]
 407 0076 33E0     		b	.L33
 408              	.L32:
 251:..\..\..\arduinoLCD\test\Pain Drain\libraries\lvgl\src\misc/lv_style.c ****             }
 409              		.loc 1 251 0 discriminator 2
 410 0078 2368     		ldr	r3, [r4]
 411 007a 3B60     		str	r3, [r7]
 412 007c 30E0     		b	.L33
 413              	.L29:
 414              	.LBB17:
 254:..\..\..\arduinoLCD\test\Pain Drain\libraries\lvgl\src\misc/lv_style.c ****                 uint8_t * new_values_and_props = lv_mem_alloc(size);
 415              		.loc 1 254 0 is_stmt 1
 416 007e 4046     		mov	r0, r8
 417 0080 0138     		subs	r0, r0, #1
 418 0082 4300     		lsls	r3, r0, #1
 419 0084 1B18     		adds	r3, r3, r0
 420 0086 5800     		lsls	r0, r3, #1
 421              	.LVL27:
 255:..\..\..\arduinoLCD\test\Pain Drain\libraries\lvgl\src\misc/lv_style.c ****                 if(new_values_and_props == NULL) return false;
 422              		.loc 1 255 0
 423 0088 FFF7FEFF 		bl	lv_mem_alloc
 424              	.LVL28:
 425 008c 8446     		mov	ip, r0
 426              	.LVL29:
 256:..\..\..\arduinoLCD\test\Pain Drain\libraries\lvgl\src\misc/lv_style.c ****                 style->v_p.values_and_props = new_values_and_props;
 427              		.loc 1 256 0
 428 008e 0028     		cmp	r0, #0
 429 0090 36D0     		beq	.L41
 257:..\..\..\arduinoLCD\test\Pain Drain\libraries\lvgl\src\misc/lv_style.c ****                 style->prop_cnt--;
 430              		.loc 1 257 0
 431 0092 3860     		str	r0, [r7]
 258:..\..\..\arduinoLCD\test\Pain Drain\libraries\lvgl\src\misc/lv_style.c **** 
 432              		.loc 1 258 0
 433 0094 FB79     		ldrb	r3, [r7, #7]
 434 0096 013B     		subs	r3, r3, #1
 435 0098 DBB2     		uxtb	r3, r3
 436 009a FB71     		strb	r3, [r7, #7]
 260:..\..\..\arduinoLCD\test\Pain Drain\libraries\lvgl\src\misc/lv_style.c ****                 uint16_t * new_props = (uint16_t *)tmp;
 437              		.loc 1 260 0
 438 009c 9B00     		lsls	r3, r3, #2
 439 009e 9846     		mov	r8, r3
 440              	.LVL30:
 265:..\..\..\arduinoLCD\test\Pain Drain\libraries\lvgl\src\misc/lv_style.c ****                     j++) { /*<=: because prop_cnt already reduced but all the old props. needs to b
 441              		.loc 1 265 0
 442 00a0 0022     		movs	r2, #0
ARM GAS  C:\Users\haske\AppData\Local\Temp\ccdHxW38.s 			page 17


 443 00a2 0023     		movs	r3, #0
 444              	.LVL31:
 445 00a4 9A46     		mov	r10, r3
 446 00a6 18E0     		b	.L34
 447              	.LVL32:
 448              	.L36:
 267:..\..\..\arduinoLCD\test\Pain Drain\libraries\lvgl\src\misc/lv_style.c ****                         new_values[i] = old_values[j];
 449              		.loc 1 267 0
 450 00a8 5300     		lsls	r3, r2, #1
 451 00aa F318     		adds	r3, r6, r3
 452 00ac E318     		adds	r3, r4, r3
 453 00ae 0193     		str	r3, [sp, #4]
 454 00b0 1888     		ldrh	r0, [r3]
 455 00b2 8542     		cmp	r5, r0
 456 00b4 10D0     		beq	.L35
 268:..\..\..\arduinoLCD\test\Pain Drain\libraries\lvgl\src\misc/lv_style.c ****                         new_props[i++] = old_props[j];
 457              		.loc 1 268 0
 458 00b6 5346     		mov	r3, r10
 459 00b8 9B00     		lsls	r3, r3, #2
 460 00ba 9100     		lsls	r1, r2, #2
 461 00bc 8946     		mov	r9, r1
 462 00be 6146     		mov	r1, ip
 463 00c0 4846     		mov	r0, r9
 464 00c2 2058     		ldr	r0, [r4, r0]
 465 00c4 C850     		str	r0, [r1, r3]
 466              	.LVL33:
 269:..\..\..\arduinoLCD\test\Pain Drain\libraries\lvgl\src\misc/lv_style.c ****                     }
 467              		.loc 1 269 0
 468 00c6 5346     		mov	r3, r10
 469 00c8 5800     		lsls	r0, r3, #1
 470 00ca 4044     		add	r0, r0, r8
 471 00cc 019B     		ldr	r3, [sp, #4]
 472 00ce 1B88     		ldrh	r3, [r3]
 473 00d0 0B52     		strh	r3, [r1, r0]
 474 00d2 0123     		movs	r3, #1
 475 00d4 9946     		mov	r9, r3
 476 00d6 CA44     		add	r10, r10, r9
 477              	.LVL34:
 478              	.L35:
 266:..\..\..\arduinoLCD\test\Pain Drain\libraries\lvgl\src\misc/lv_style.c ****                     if(old_props[j] != prop) {
 479              		.loc 1 266 0
 480 00d8 0132     		adds	r2, r2, #1
 481              	.LVL35:
 482              	.L34:
 265:..\..\..\arduinoLCD\test\Pain Drain\libraries\lvgl\src\misc/lv_style.c ****                     j++) { /*<=: because prop_cnt already reduced but all the old props. needs to b
 483              		.loc 1 265 0 discriminator 1
 484 00da FB79     		ldrb	r3, [r7, #7]
 485 00dc 9A42     		cmp	r2, r3
 486 00de E3D9     		bls	.L36
 487              	.LVL36:
 488              	.L33:
 489              	.LBE17:
 274:..\..\..\arduinoLCD\test\Pain Drain\libraries\lvgl\src\misc/lv_style.c ****             return true;
 490              		.loc 1 274 0
 491 00e0 2000     		movs	r0, r4
 492 00e2 FFF7FEFF 		bl	lv_mem_free
 493              	.LVL37:
ARM GAS  C:\Users\haske\AppData\Local\Temp\ccdHxW38.s 			page 18


 275:..\..\..\arduinoLCD\test\Pain Drain\libraries\lvgl\src\misc/lv_style.c ****         }
 494              		.loc 1 275 0
 495 00e6 0120     		movs	r0, #1
 496 00e8 0BE0     		b	.L25
 497              	.LVL38:
 498              	.L28:
 499              	.LBE16:
 244:..\..\..\arduinoLCD\test\Pain Drain\libraries\lvgl\src\misc/lv_style.c ****         if(LV_STYLE_PROP_ID_MASK(old_props[i]) == prop) {
 500              		.loc 1 244 0 discriminator 2
 501 00ea 0132     		adds	r2, r2, #1
 502              	.LVL39:
 503              	.L27:
 244:..\..\..\arduinoLCD\test\Pain Drain\libraries\lvgl\src\misc/lv_style.c ****         if(LV_STYLE_PROP_ID_MASK(old_props[i]) == prop) {
 504              		.loc 1 244 0 is_stmt 0 discriminator 1
 505 00ec 8A42     		cmp	r2, r1
 506 00ee AAD3     		bcc	.L37
 279:..\..\..\arduinoLCD\test\Pain Drain\libraries\lvgl\src\misc/lv_style.c **** }
 507              		.loc 1 279 0 is_stmt 1
 508 00f0 0020     		movs	r0, #0
 509 00f2 06E0     		b	.L25
 510              	.LVL40:
 511              	.L38:
 227:..\..\..\arduinoLCD\test\Pain Drain\libraries\lvgl\src\misc/lv_style.c ****     }
 512              		.loc 1 227 0
 513 00f4 0020     		movs	r0, #0
 514              	.LVL41:
 515 00f6 04E0     		b	.L25
 516              	.LVL42:
 517              	.L39:
 230:..\..\..\arduinoLCD\test\Pain Drain\libraries\lvgl\src\misc/lv_style.c **** 
 518              		.loc 1 230 0
 519 00f8 0020     		movs	r0, #0
 520              	.LVL43:
 521 00fa 02E0     		b	.L25
 522              	.LVL44:
 523              	.L40:
 238:..\..\..\arduinoLCD\test\Pain Drain\libraries\lvgl\src\misc/lv_style.c ****     }
 524              		.loc 1 238 0
 525 00fc 0020     		movs	r0, #0
 526              	.LVL45:
 527 00fe 00E0     		b	.L25
 528              	.LVL46:
 529              	.L41:
 530              	.LBB19:
 531              	.LBB18:
 256:..\..\..\arduinoLCD\test\Pain Drain\libraries\lvgl\src\misc/lv_style.c ****                 style->v_p.values_and_props = new_values_and_props;
 532              		.loc 1 256 0
 533 0100 0020     		movs	r0, #0
 534              	.LVL47:
 535              	.L25:
 536              	.LBE18:
 537              	.LBE19:
 280:..\..\..\arduinoLCD\test\Pain Drain\libraries\lvgl\src\misc/lv_style.c **** 
 538              		.loc 1 280 0
 539 0102 03B0     		add	sp, sp, #12
 540              		@ sp needed
 541              	.LVL48:
ARM GAS  C:\Users\haske\AppData\Local\Temp\ccdHxW38.s 			page 19


 542 0104 3CBC     		pop	{r2, r3, r4, r5}
 543 0106 9046     		mov	r8, r2
 544 0108 9946     		mov	r9, r3
 545 010a A246     		mov	r10, r4
 546 010c AB46     		mov	fp, r5
 547 010e F0BD     		pop	{r4, r5, r6, r7, pc}
 548              	.L43:
 549              		.align	2
 550              	.L42:
 551 0110 FFFF0000 		.word	65535
 552              		.cfi_endproc
 553              	.LFE60:
 554              		.size	lv_style_remove_prop, .-lv_style_remove_prop
 555              		.section	.text.lv_style_transition_dsc_init,"ax",%progbits
 556              		.align	2
 557              		.global	lv_style_transition_dsc_init
 558              		.code	16
 559              		.thumb_func
 560              		.type	lv_style_transition_dsc_init, %function
 561              	lv_style_transition_dsc_init:
 562              	.LFB64:
 299:..\..\..\arduinoLCD\test\Pain Drain\libraries\lvgl\src\misc/lv_style.c ****     lv_memset_00(tr, sizeof(lv_style_transition_dsc_t));
 563              		.loc 1 299 0
 564              		.cfi_startproc
 565              		@ args = 8, pretend = 0, frame = 0
 566              		@ frame_needed = 0, uses_anonymous_args = 0
 567              	.LVL49:
 568 0000 F8B5     		push	{r3, r4, r5, r6, r7, lr}
 569              		.cfi_def_cfa_offset 24
 570              		.cfi_offset 3, -24
 571              		.cfi_offset 4, -20
 572              		.cfi_offset 5, -16
 573              		.cfi_offset 6, -12
 574              		.cfi_offset 7, -8
 575              		.cfi_offset 14, -4
 576 0002 0400     		movs	r4, r0
 577 0004 0F00     		movs	r7, r1
 578 0006 1500     		movs	r5, r2
 579 0008 1E00     		movs	r6, r3
 300:..\..\..\arduinoLCD\test\Pain Drain\libraries\lvgl\src\misc/lv_style.c ****     tr->props = props;
 580              		.loc 1 300 0
 581 000a 1421     		movs	r1, #20
 582              	.LVL50:
 583 000c FFF7FEFF 		bl	lv_memset_00
 584              	.LVL51:
 301:..\..\..\arduinoLCD\test\Pain Drain\libraries\lvgl\src\misc/lv_style.c ****     tr->path_xcb = path_cb == NULL ? lv_anim_path_linear : path_cb;
 585              		.loc 1 301 0
 586 0010 2760     		str	r7, [r4]
 302:..\..\..\arduinoLCD\test\Pain Drain\libraries\lvgl\src\misc/lv_style.c ****     tr->time = time;
 587              		.loc 1 302 0
 588 0012 002D     		cmp	r5, #0
 589 0014 00D1     		bne	.L45
 590 0016 044D     		ldr	r5, .L47
 591              	.LVL52:
 592              	.L45:
 302:..\..\..\arduinoLCD\test\Pain Drain\libraries\lvgl\src\misc/lv_style.c ****     tr->time = time;
 593              		.loc 1 302 0 is_stmt 0 discriminator 4
ARM GAS  C:\Users\haske\AppData\Local\Temp\ccdHxW38.s 			page 20


 594 0018 A560     		str	r5, [r4, #8]
 303:..\..\..\arduinoLCD\test\Pain Drain\libraries\lvgl\src\misc/lv_style.c ****     tr->delay = delay;
 595              		.loc 1 303 0 is_stmt 1 discriminator 4
 596 001a E660     		str	r6, [r4, #12]
 304:..\..\..\arduinoLCD\test\Pain Drain\libraries\lvgl\src\misc/lv_style.c **** #if LV_USE_USER_DATA
 597              		.loc 1 304 0 discriminator 4
 598 001c 069B     		ldr	r3, [sp, #24]
 599 001e 2361     		str	r3, [r4, #16]
 306:..\..\..\arduinoLCD\test\Pain Drain\libraries\lvgl\src\misc/lv_style.c **** #else
 600              		.loc 1 306 0 discriminator 4
 601 0020 079B     		ldr	r3, [sp, #28]
 602 0022 6360     		str	r3, [r4, #4]
 310:..\..\..\arduinoLCD\test\Pain Drain\libraries\lvgl\src\misc/lv_style.c **** 
 603              		.loc 1 310 0 discriminator 4
 604              		@ sp needed
 605              	.LVL53:
 606              	.LVL54:
 607              	.LVL55:
 608 0024 F8BD     		pop	{r3, r4, r5, r6, r7, pc}
 609              	.L48:
 610 0026 C046     		.align	2
 611              	.L47:
 612 0028 00000000 		.word	lv_anim_path_linear
 613              		.cfi_endproc
 614              	.LFE64:
 615              		.size	lv_style_transition_dsc_init, .-lv_style_transition_dsc_init
 616              		.section	.text.lv_style_prop_get_default,"ax",%progbits
 617              		.align	2
 618              		.global	lv_style_prop_get_default
 619              		.code	16
 620              		.thumb_func
 621              		.type	lv_style_prop_get_default, %function
 622              	lv_style_prop_get_default:
 623              	.LFB65:
 313:..\..\..\arduinoLCD\test\Pain Drain\libraries\lvgl\src\misc/lv_style.c ****     lv_style_value_t value;
 624              		.loc 1 313 0
 625              		.cfi_startproc
 626              		@ args = 0, pretend = 0, frame = 0
 627              		@ frame_needed = 0, uses_anonymous_args = 0
 628              		@ link register save eliminated.
 629              	.LVL56:
 315:..\..\..\arduinoLCD\test\Pain Drain\libraries\lvgl\src\misc/lv_style.c ****         case LV_STYLE_TRANSFORM_ZOOM:
 630              		.loc 1 315 0
 631 0000 0338     		subs	r0, r0, #3
 632              	.LVL57:
 633 0002 83B2     		uxth	r3, r0
 634 0004 692B     		cmp	r3, #105
 635 0006 1AD8     		bhi	.L50
 636 0008 9800     		lsls	r0, r3, #2
 637 000a 0E4B     		ldr	r3, .L61
 638 000c 1B58     		ldr	r3, [r3, r0]
 639 000e 9F46     		mov	pc, r3
 640              		.section	.rodata
 641              		.align	2
 642              	.L52:
 643 0000 3A000000 		.word	.L51
 644 0004 3E000000 		.word	.L50
ARM GAS  C:\Users\haske\AppData\Local\Temp\ccdHxW38.s 			page 21


 645 0008 3E000000 		.word	.L50
 646 000c 3A000000 		.word	.L51
 647 0010 3E000000 		.word	.L50
 648 0014 3E000000 		.word	.L50
 649 0018 3E000000 		.word	.L50
 650 001c 3E000000 		.word	.L50
 651 0020 3E000000 		.word	.L50
 652 0024 3E000000 		.word	.L50
 653 0028 3E000000 		.word	.L50
 654 002c 3E000000 		.word	.L50
 655 0030 3E000000 		.word	.L50
 656 0034 3E000000 		.word	.L50
 657 0038 3E000000 		.word	.L50
 658 003c 3E000000 		.word	.L50
 659 0040 3E000000 		.word	.L50
 660 0044 3E000000 		.word	.L50
 661 0048 3E000000 		.word	.L50
 662 004c 3E000000 		.word	.L50
 663 0050 3E000000 		.word	.L50
 664 0054 3E000000 		.word	.L50
 665 0058 3E000000 		.word	.L50
 666 005c 3E000000 		.word	.L50
 667 0060 3E000000 		.word	.L50
 668 0064 3E000000 		.word	.L50
 669 0068 3E000000 		.word	.L50
 670 006c 3E000000 		.word	.L50
 671 0070 3E000000 		.word	.L50
 672 0074 16000000 		.word	.L53
 673 0078 3E000000 		.word	.L50
 674 007c 26000000 		.word	.L54
 675 0080 3E000000 		.word	.L50
 676 0084 3E000000 		.word	.L50
 677 0088 2E000000 		.word	.L55
 678 008c 3E000000 		.word	.L50
 679 0090 3E000000 		.word	.L50
 680 0094 3E000000 		.word	.L50
 681 0098 2A000000 		.word	.L56
 682 009c 3E000000 		.word	.L50
 683 00a0 3E000000 		.word	.L50
 684 00a4 3E000000 		.word	.L50
 685 00a8 3E000000 		.word	.L50
 686 00ac 3E000000 		.word	.L50
 687 00b0 3E000000 		.word	.L50
 688 00b4 26000000 		.word	.L54
 689 00b8 2A000000 		.word	.L56
 690 00bc 3E000000 		.word	.L50
 691 00c0 32000000 		.word	.L57
 692 00c4 3E000000 		.word	.L50
 693 00c8 3E000000 		.word	.L50
 694 00cc 26000000 		.word	.L54
 695 00d0 2A000000 		.word	.L56
 696 00d4 3E000000 		.word	.L50
 697 00d8 3E000000 		.word	.L50
 698 00dc 3E000000 		.word	.L50
 699 00e0 3E000000 		.word	.L50
 700 00e4 3E000000 		.word	.L50
 701 00e8 3E000000 		.word	.L50
ARM GAS  C:\Users\haske\AppData\Local\Temp\ccdHxW38.s 			page 22


 702 00ec 3E000000 		.word	.L50
 703 00f0 3E000000 		.word	.L50
 704 00f4 3E000000 		.word	.L50
 705 00f8 3E000000 		.word	.L50
 706 00fc 3E000000 		.word	.L50
 707 0100 3E000000 		.word	.L50
 708 0104 26000000 		.word	.L54
 709 0108 2A000000 		.word	.L56
 710 010c 2A000000 		.word	.L56
 711 0110 26000000 		.word	.L54
 712 0114 3E000000 		.word	.L50
 713 0118 3E000000 		.word	.L50
 714 011c 3E000000 		.word	.L50
 715 0120 3E000000 		.word	.L50
 716 0124 3E000000 		.word	.L50
 717 0128 26000000 		.word	.L54
 718 012c 2A000000 		.word	.L56
 719 0130 3E000000 		.word	.L50
 720 0134 3E000000 		.word	.L50
 721 0138 3E000000 		.word	.L50
 722 013c 26000000 		.word	.L54
 723 0140 2A000000 		.word	.L56
 724 0144 3E000000 		.word	.L50
 725 0148 26000000 		.word	.L54
 726 014c 2A000000 		.word	.L56
 727 0150 36000000 		.word	.L58
 728 0154 3E000000 		.word	.L50
 729 0158 3E000000 		.word	.L50
 730 015c 3E000000 		.word	.L50
 731 0160 3E000000 		.word	.L50
 732 0164 3E000000 		.word	.L50
 733 0168 3E000000 		.word	.L50
 734 016c 3E000000 		.word	.L50
 735 0170 3E000000 		.word	.L50
 736 0174 2A000000 		.word	.L56
 737 0178 3E000000 		.word	.L50
 738 017c 3E000000 		.word	.L50
 739 0180 3E000000 		.word	.L50
 740 0184 3E000000 		.word	.L50
 741 0188 3E000000 		.word	.L50
 742 018c 3E000000 		.word	.L50
 743 0190 3E000000 		.word	.L50
 744 0194 3E000000 		.word	.L50
 745 0198 3E000000 		.word	.L50
 746 019c 3E000000 		.word	.L50
 747 01a0 3E000000 		.word	.L50
 748 01a4 10000000 		.word	.L59
 749              		.section	.text.lv_style_prop_get_default
 750              	.L59:
 317:..\..\..\arduinoLCD\test\Pain Drain\libraries\lvgl\src\misc/lv_style.c ****             break;
 751              		.loc 1 317 0
 752 0010 8020     		movs	r0, #128
 753              	.LVL58:
 754 0012 4000     		lsls	r0, r0, #1
 755              	.LVL59:
 318:..\..\..\arduinoLCD\test\Pain Drain\libraries\lvgl\src\misc/lv_style.c ****         case LV_STYLE_BG_COLOR:
 756              		.loc 1 318 0
ARM GAS  C:\Users\haske\AppData\Local\Temp\ccdHxW38.s 			page 23


 757 0014 14E0     		b	.L60
 758              	.L53:
 759              	.LVL60:
 760              	.LBB20:
 761              	.LBB21:
 762              	.LBB22:
 763              		.file 2 "..\\..\\..\\arduinoLCD\\test\\Pain Drain\\libraries\\lvgl\\src\\misc\\lv_color.h"
   1:..\..\..\arduinoLCD\test\Pain Drain\libraries\lvgl\src\misc/lv_color.h **** /**
   2:..\..\..\arduinoLCD\test\Pain Drain\libraries\lvgl\src\misc/lv_color.h ****  * @file lv_color.h
   3:..\..\..\arduinoLCD\test\Pain Drain\libraries\lvgl\src\misc/lv_color.h ****  *
   4:..\..\..\arduinoLCD\test\Pain Drain\libraries\lvgl\src\misc/lv_color.h ****  */
   5:..\..\..\arduinoLCD\test\Pain Drain\libraries\lvgl\src\misc/lv_color.h **** 
   6:..\..\..\arduinoLCD\test\Pain Drain\libraries\lvgl\src\misc/lv_color.h **** #ifndef LV_COLOR_H
   7:..\..\..\arduinoLCD\test\Pain Drain\libraries\lvgl\src\misc/lv_color.h **** #define LV_COLOR_H
   8:..\..\..\arduinoLCD\test\Pain Drain\libraries\lvgl\src\misc/lv_color.h **** 
   9:..\..\..\arduinoLCD\test\Pain Drain\libraries\lvgl\src\misc/lv_color.h **** #ifdef __cplusplus
  10:..\..\..\arduinoLCD\test\Pain Drain\libraries\lvgl\src\misc/lv_color.h **** extern "C" {
  11:..\..\..\arduinoLCD\test\Pain Drain\libraries\lvgl\src\misc/lv_color.h **** #endif
  12:..\..\..\arduinoLCD\test\Pain Drain\libraries\lvgl\src\misc/lv_color.h **** 
  13:..\..\..\arduinoLCD\test\Pain Drain\libraries\lvgl\src\misc/lv_color.h **** /*********************
  14:..\..\..\arduinoLCD\test\Pain Drain\libraries\lvgl\src\misc/lv_color.h ****  *      INCLUDES
  15:..\..\..\arduinoLCD\test\Pain Drain\libraries\lvgl\src\misc/lv_color.h ****  *********************/
  16:..\..\..\arduinoLCD\test\Pain Drain\libraries\lvgl\src\misc/lv_color.h **** #include "../lv_conf_internal.h"
  17:..\..\..\arduinoLCD\test\Pain Drain\libraries\lvgl\src\misc/lv_color.h **** #include "lv_assert.h"
  18:..\..\..\arduinoLCD\test\Pain Drain\libraries\lvgl\src\misc/lv_color.h **** #include "lv_math.h"
  19:..\..\..\arduinoLCD\test\Pain Drain\libraries\lvgl\src\misc/lv_color.h **** #include "lv_types.h"
  20:..\..\..\arduinoLCD\test\Pain Drain\libraries\lvgl\src\misc/lv_color.h **** 
  21:..\..\..\arduinoLCD\test\Pain Drain\libraries\lvgl\src\misc/lv_color.h **** /*Error checking*/
  22:..\..\..\arduinoLCD\test\Pain Drain\libraries\lvgl\src\misc/lv_color.h **** #if LV_COLOR_DEPTH == 24
  23:..\..\..\arduinoLCD\test\Pain Drain\libraries\lvgl\src\misc/lv_color.h **** #error "LV_COLOR_DEPTH 24 is deprecated. Use LV_COLOR_DEPTH 32 instead (lv_conf.h)"
  24:..\..\..\arduinoLCD\test\Pain Drain\libraries\lvgl\src\misc/lv_color.h **** #endif
  25:..\..\..\arduinoLCD\test\Pain Drain\libraries\lvgl\src\misc/lv_color.h **** 
  26:..\..\..\arduinoLCD\test\Pain Drain\libraries\lvgl\src\misc/lv_color.h **** #if LV_COLOR_DEPTH != 16 && LV_COLOR_16_SWAP != 0
  27:..\..\..\arduinoLCD\test\Pain Drain\libraries\lvgl\src\misc/lv_color.h **** #error "LV_COLOR_16_SWAP requires LV_COLOR_DEPTH == 16. Set it in lv_conf.h"
  28:..\..\..\arduinoLCD\test\Pain Drain\libraries\lvgl\src\misc/lv_color.h **** #endif
  29:..\..\..\arduinoLCD\test\Pain Drain\libraries\lvgl\src\misc/lv_color.h **** 
  30:..\..\..\arduinoLCD\test\Pain Drain\libraries\lvgl\src\misc/lv_color.h **** #include <stdint.h>
  31:..\..\..\arduinoLCD\test\Pain Drain\libraries\lvgl\src\misc/lv_color.h **** 
  32:..\..\..\arduinoLCD\test\Pain Drain\libraries\lvgl\src\misc/lv_color.h **** /*********************
  33:..\..\..\arduinoLCD\test\Pain Drain\libraries\lvgl\src\misc/lv_color.h ****  *      DEFINES
  34:..\..\..\arduinoLCD\test\Pain Drain\libraries\lvgl\src\misc/lv_color.h ****  *********************/
  35:..\..\..\arduinoLCD\test\Pain Drain\libraries\lvgl\src\misc/lv_color.h **** LV_EXPORT_CONST_INT(LV_COLOR_DEPTH);
  36:..\..\..\arduinoLCD\test\Pain Drain\libraries\lvgl\src\misc/lv_color.h **** LV_EXPORT_CONST_INT(LV_COLOR_16_SWAP);
  37:..\..\..\arduinoLCD\test\Pain Drain\libraries\lvgl\src\misc/lv_color.h **** 
  38:..\..\..\arduinoLCD\test\Pain Drain\libraries\lvgl\src\misc/lv_color.h **** /**
  39:..\..\..\arduinoLCD\test\Pain Drain\libraries\lvgl\src\misc/lv_color.h ****  * Opacity percentages.
  40:..\..\..\arduinoLCD\test\Pain Drain\libraries\lvgl\src\misc/lv_color.h ****  */
  41:..\..\..\arduinoLCD\test\Pain Drain\libraries\lvgl\src\misc/lv_color.h **** enum {
  42:..\..\..\arduinoLCD\test\Pain Drain\libraries\lvgl\src\misc/lv_color.h ****     LV_OPA_TRANSP = 0,
  43:..\..\..\arduinoLCD\test\Pain Drain\libraries\lvgl\src\misc/lv_color.h ****     LV_OPA_0      = 0,
  44:..\..\..\arduinoLCD\test\Pain Drain\libraries\lvgl\src\misc/lv_color.h ****     LV_OPA_10     = 25,
  45:..\..\..\arduinoLCD\test\Pain Drain\libraries\lvgl\src\misc/lv_color.h ****     LV_OPA_20     = 51,
  46:..\..\..\arduinoLCD\test\Pain Drain\libraries\lvgl\src\misc/lv_color.h ****     LV_OPA_30     = 76,
  47:..\..\..\arduinoLCD\test\Pain Drain\libraries\lvgl\src\misc/lv_color.h ****     LV_OPA_40     = 102,
  48:..\..\..\arduinoLCD\test\Pain Drain\libraries\lvgl\src\misc/lv_color.h ****     LV_OPA_50     = 127,
  49:..\..\..\arduinoLCD\test\Pain Drain\libraries\lvgl\src\misc/lv_color.h ****     LV_OPA_60     = 153,
  50:..\..\..\arduinoLCD\test\Pain Drain\libraries\lvgl\src\misc/lv_color.h ****     LV_OPA_70     = 178,
ARM GAS  C:\Users\haske\AppData\Local\Temp\ccdHxW38.s 			page 24


  51:..\..\..\arduinoLCD\test\Pain Drain\libraries\lvgl\src\misc/lv_color.h ****     LV_OPA_80     = 204,
  52:..\..\..\arduinoLCD\test\Pain Drain\libraries\lvgl\src\misc/lv_color.h ****     LV_OPA_90     = 229,
  53:..\..\..\arduinoLCD\test\Pain Drain\libraries\lvgl\src\misc/lv_color.h ****     LV_OPA_100    = 255,
  54:..\..\..\arduinoLCD\test\Pain Drain\libraries\lvgl\src\misc/lv_color.h ****     LV_OPA_COVER  = 255,
  55:..\..\..\arduinoLCD\test\Pain Drain\libraries\lvgl\src\misc/lv_color.h **** };
  56:..\..\..\arduinoLCD\test\Pain Drain\libraries\lvgl\src\misc/lv_color.h **** 
  57:..\..\..\arduinoLCD\test\Pain Drain\libraries\lvgl\src\misc/lv_color.h **** #define LV_OPA_MIN 2    /*Opacities below this will be transparent*/
  58:..\..\..\arduinoLCD\test\Pain Drain\libraries\lvgl\src\misc/lv_color.h **** #define LV_OPA_MAX 253  /*Opacities above this will fully cover*/
  59:..\..\..\arduinoLCD\test\Pain Drain\libraries\lvgl\src\misc/lv_color.h **** 
  60:..\..\..\arduinoLCD\test\Pain Drain\libraries\lvgl\src\misc/lv_color.h **** #if LV_COLOR_DEPTH == 1
  61:..\..\..\arduinoLCD\test\Pain Drain\libraries\lvgl\src\misc/lv_color.h **** #define LV_COLOR_SIZE 8
  62:..\..\..\arduinoLCD\test\Pain Drain\libraries\lvgl\src\misc/lv_color.h **** #elif LV_COLOR_DEPTH == 8
  63:..\..\..\arduinoLCD\test\Pain Drain\libraries\lvgl\src\misc/lv_color.h **** #define LV_COLOR_SIZE 8
  64:..\..\..\arduinoLCD\test\Pain Drain\libraries\lvgl\src\misc/lv_color.h **** #elif LV_COLOR_DEPTH == 16
  65:..\..\..\arduinoLCD\test\Pain Drain\libraries\lvgl\src\misc/lv_color.h **** #define LV_COLOR_SIZE 16
  66:..\..\..\arduinoLCD\test\Pain Drain\libraries\lvgl\src\misc/lv_color.h **** #elif LV_COLOR_DEPTH == 32
  67:..\..\..\arduinoLCD\test\Pain Drain\libraries\lvgl\src\misc/lv_color.h **** #define LV_COLOR_SIZE 32
  68:..\..\..\arduinoLCD\test\Pain Drain\libraries\lvgl\src\misc/lv_color.h **** #else
  69:..\..\..\arduinoLCD\test\Pain Drain\libraries\lvgl\src\misc/lv_color.h **** #error "Invalid LV_COLOR_DEPTH in lv_conf.h! Set it to 1, 8, 16 or 32!"
  70:..\..\..\arduinoLCD\test\Pain Drain\libraries\lvgl\src\misc/lv_color.h **** #endif
  71:..\..\..\arduinoLCD\test\Pain Drain\libraries\lvgl\src\misc/lv_color.h **** 
  72:..\..\..\arduinoLCD\test\Pain Drain\libraries\lvgl\src\misc/lv_color.h **** #if defined(__cplusplus) && !defined(_LV_COLOR_HAS_MODERN_CPP)
  73:..\..\..\arduinoLCD\test\Pain Drain\libraries\lvgl\src\misc/lv_color.h **** /**
  74:..\..\..\arduinoLCD\test\Pain Drain\libraries\lvgl\src\misc/lv_color.h **** * MSVC compiler's definition of the __cplusplus indicating 199711L regardless to C++ standard versi
  75:..\..\..\arduinoLCD\test\Pain Drain\libraries\lvgl\src\misc/lv_color.h **** * see https://devblogs.microsoft.com/cppblog/msvc-now-correctly-reports-cplusplus
  76:..\..\..\arduinoLCD\test\Pain Drain\libraries\lvgl\src\misc/lv_color.h **** * so we use _MSC_VER macro instead of __cplusplus
  77:..\..\..\arduinoLCD\test\Pain Drain\libraries\lvgl\src\misc/lv_color.h **** */
  78:..\..\..\arduinoLCD\test\Pain Drain\libraries\lvgl\src\misc/lv_color.h **** #ifdef _MSC_VER
  79:..\..\..\arduinoLCD\test\Pain Drain\libraries\lvgl\src\misc/lv_color.h **** #if _MSC_VER >= 1900 /*Visual Studio 2015*/
  80:..\..\..\arduinoLCD\test\Pain Drain\libraries\lvgl\src\misc/lv_color.h **** #define _LV_COLOR_HAS_MODERN_CPP 1
  81:..\..\..\arduinoLCD\test\Pain Drain\libraries\lvgl\src\misc/lv_color.h **** #endif
  82:..\..\..\arduinoLCD\test\Pain Drain\libraries\lvgl\src\misc/lv_color.h **** #else
  83:..\..\..\arduinoLCD\test\Pain Drain\libraries\lvgl\src\misc/lv_color.h **** #if __cplusplus >= 201103L
  84:..\..\..\arduinoLCD\test\Pain Drain\libraries\lvgl\src\misc/lv_color.h **** #define _LV_COLOR_HAS_MODERN_CPP 1
  85:..\..\..\arduinoLCD\test\Pain Drain\libraries\lvgl\src\misc/lv_color.h **** #endif
  86:..\..\..\arduinoLCD\test\Pain Drain\libraries\lvgl\src\misc/lv_color.h **** #endif
  87:..\..\..\arduinoLCD\test\Pain Drain\libraries\lvgl\src\misc/lv_color.h **** #endif /*__cplusplus*/
  88:..\..\..\arduinoLCD\test\Pain Drain\libraries\lvgl\src\misc/lv_color.h **** 
  89:..\..\..\arduinoLCD\test\Pain Drain\libraries\lvgl\src\misc/lv_color.h **** #ifndef _LV_COLOR_HAS_MODERN_CPP
  90:..\..\..\arduinoLCD\test\Pain Drain\libraries\lvgl\src\misc/lv_color.h **** #define _LV_COLOR_HAS_MODERN_CPP 0
  91:..\..\..\arduinoLCD\test\Pain Drain\libraries\lvgl\src\misc/lv_color.h **** #endif
  92:..\..\..\arduinoLCD\test\Pain Drain\libraries\lvgl\src\misc/lv_color.h **** 
  93:..\..\..\arduinoLCD\test\Pain Drain\libraries\lvgl\src\misc/lv_color.h **** #if _LV_COLOR_HAS_MODERN_CPP
  94:..\..\..\arduinoLCD\test\Pain Drain\libraries\lvgl\src\misc/lv_color.h **** /*Fix msvc compiler error C4576 inside C++ code*/
  95:..\..\..\arduinoLCD\test\Pain Drain\libraries\lvgl\src\misc/lv_color.h **** #define _LV_COLOR_MAKE_TYPE_HELPER lv_color_t
  96:..\..\..\arduinoLCD\test\Pain Drain\libraries\lvgl\src\misc/lv_color.h **** #else
  97:..\..\..\arduinoLCD\test\Pain Drain\libraries\lvgl\src\misc/lv_color.h **** #define _LV_COLOR_MAKE_TYPE_HELPER (lv_color_t)
  98:..\..\..\arduinoLCD\test\Pain Drain\libraries\lvgl\src\misc/lv_color.h **** #endif
  99:..\..\..\arduinoLCD\test\Pain Drain\libraries\lvgl\src\misc/lv_color.h **** 
 100:..\..\..\arduinoLCD\test\Pain Drain\libraries\lvgl\src\misc/lv_color.h **** /*---------------------------------------
 101:..\..\..\arduinoLCD\test\Pain Drain\libraries\lvgl\src\misc/lv_color.h ****  * Macros for all existing color depths
 102:..\..\..\arduinoLCD\test\Pain Drain\libraries\lvgl\src\misc/lv_color.h ****  * to set/get values of the color channels
 103:..\..\..\arduinoLCD\test\Pain Drain\libraries\lvgl\src\misc/lv_color.h ****  *------------------------------------------*/
 104:..\..\..\arduinoLCD\test\Pain Drain\libraries\lvgl\src\misc/lv_color.h **** # define LV_COLOR_SET_R1(c, v) (c).ch.red = (uint8_t)((v) & 0x1)
 105:..\..\..\arduinoLCD\test\Pain Drain\libraries\lvgl\src\misc/lv_color.h **** # define LV_COLOR_SET_G1(c, v) (c).ch.green = (uint8_t)((v) & 0x1)
 106:..\..\..\arduinoLCD\test\Pain Drain\libraries\lvgl\src\misc/lv_color.h **** # define LV_COLOR_SET_B1(c, v) (c).ch.blue = (uint8_t)((v) & 0x1)
 107:..\..\..\arduinoLCD\test\Pain Drain\libraries\lvgl\src\misc/lv_color.h **** # define LV_COLOR_SET_A1(c, v) do {} while(0)
ARM GAS  C:\Users\haske\AppData\Local\Temp\ccdHxW38.s 			page 25


 108:..\..\..\arduinoLCD\test\Pain Drain\libraries\lvgl\src\misc/lv_color.h **** 
 109:..\..\..\arduinoLCD\test\Pain Drain\libraries\lvgl\src\misc/lv_color.h **** # define LV_COLOR_GET_R1(c) (c).ch.red
 110:..\..\..\arduinoLCD\test\Pain Drain\libraries\lvgl\src\misc/lv_color.h **** # define LV_COLOR_GET_G1(c) (c).ch.green
 111:..\..\..\arduinoLCD\test\Pain Drain\libraries\lvgl\src\misc/lv_color.h **** # define LV_COLOR_GET_B1(c) (c).ch.blue
 112:..\..\..\arduinoLCD\test\Pain Drain\libraries\lvgl\src\misc/lv_color.h **** # define LV_COLOR_GET_A1(c) 0xFF
 113:..\..\..\arduinoLCD\test\Pain Drain\libraries\lvgl\src\misc/lv_color.h **** 
 114:..\..\..\arduinoLCD\test\Pain Drain\libraries\lvgl\src\misc/lv_color.h **** # define _LV_COLOR_ZERO_INITIALIZER1 {0x00}
 115:..\..\..\arduinoLCD\test\Pain Drain\libraries\lvgl\src\misc/lv_color.h **** # define LV_COLOR_MAKE1(r8, g8, b8)  {(uint8_t)((b8 >> 7) | (g8 >> 7) | (r8 >> 7))}
 116:..\..\..\arduinoLCD\test\Pain Drain\libraries\lvgl\src\misc/lv_color.h **** 
 117:..\..\..\arduinoLCD\test\Pain Drain\libraries\lvgl\src\misc/lv_color.h **** # define LV_COLOR_SET_R8(c, v) (c).ch.red = (uint8_t)((v) & 0x7U)
 118:..\..\..\arduinoLCD\test\Pain Drain\libraries\lvgl\src\misc/lv_color.h **** # define LV_COLOR_SET_G8(c, v) (c).ch.green = (uint8_t)((v) & 0x7U)
 119:..\..\..\arduinoLCD\test\Pain Drain\libraries\lvgl\src\misc/lv_color.h **** # define LV_COLOR_SET_B8(c, v) (c).ch.blue = (uint8_t)((v) & 0x3U)
 120:..\..\..\arduinoLCD\test\Pain Drain\libraries\lvgl\src\misc/lv_color.h **** # define LV_COLOR_SET_A8(c, v) do {} while(0)
 121:..\..\..\arduinoLCD\test\Pain Drain\libraries\lvgl\src\misc/lv_color.h **** 
 122:..\..\..\arduinoLCD\test\Pain Drain\libraries\lvgl\src\misc/lv_color.h **** # define LV_COLOR_GET_R8(c) (c).ch.red
 123:..\..\..\arduinoLCD\test\Pain Drain\libraries\lvgl\src\misc/lv_color.h **** # define LV_COLOR_GET_G8(c) (c).ch.green
 124:..\..\..\arduinoLCD\test\Pain Drain\libraries\lvgl\src\misc/lv_color.h **** # define LV_COLOR_GET_B8(c) (c).ch.blue
 125:..\..\..\arduinoLCD\test\Pain Drain\libraries\lvgl\src\misc/lv_color.h **** # define LV_COLOR_GET_A8(c) 0xFF
 126:..\..\..\arduinoLCD\test\Pain Drain\libraries\lvgl\src\misc/lv_color.h **** 
 127:..\..\..\arduinoLCD\test\Pain Drain\libraries\lvgl\src\misc/lv_color.h **** # define _LV_COLOR_ZERO_INITIALIZER8 {{0x00, 0x00, 0x00}}
 128:..\..\..\arduinoLCD\test\Pain Drain\libraries\lvgl\src\misc/lv_color.h **** # define LV_COLOR_MAKE8(r8, g8, b8) {{(uint8_t)((b8 >> 6) & 0x3U), (uint8_t)((g8 >> 5) & 0x7U), (ui
 129:..\..\..\arduinoLCD\test\Pain Drain\libraries\lvgl\src\misc/lv_color.h **** 
 130:..\..\..\arduinoLCD\test\Pain Drain\libraries\lvgl\src\misc/lv_color.h **** # define LV_COLOR_SET_R16(c, v) (c).ch.red = (uint8_t)((v) & 0x1FU)
 131:..\..\..\arduinoLCD\test\Pain Drain\libraries\lvgl\src\misc/lv_color.h **** #if LV_COLOR_16_SWAP == 0
 132:..\..\..\arduinoLCD\test\Pain Drain\libraries\lvgl\src\misc/lv_color.h **** # define LV_COLOR_SET_G16(c, v) (c).ch.green = (uint8_t)((v) & 0x3FU)
 133:..\..\..\arduinoLCD\test\Pain Drain\libraries\lvgl\src\misc/lv_color.h **** #else
 134:..\..\..\arduinoLCD\test\Pain Drain\libraries\lvgl\src\misc/lv_color.h **** # define LV_COLOR_SET_G16(c, v) {(c).ch.green_h = (uint8_t)(((v) >> 3) & 0x7); (c).ch.green_l = (ui
 135:..\..\..\arduinoLCD\test\Pain Drain\libraries\lvgl\src\misc/lv_color.h **** #endif
 136:..\..\..\arduinoLCD\test\Pain Drain\libraries\lvgl\src\misc/lv_color.h **** # define LV_COLOR_SET_B16(c, v) (c).ch.blue = (uint8_t)((v) & 0x1FU)
 137:..\..\..\arduinoLCD\test\Pain Drain\libraries\lvgl\src\misc/lv_color.h **** # define LV_COLOR_SET_A16(c, v) do {} while(0)
 138:..\..\..\arduinoLCD\test\Pain Drain\libraries\lvgl\src\misc/lv_color.h **** 
 139:..\..\..\arduinoLCD\test\Pain Drain\libraries\lvgl\src\misc/lv_color.h **** # define LV_COLOR_GET_R16(c) (c).ch.red
 140:..\..\..\arduinoLCD\test\Pain Drain\libraries\lvgl\src\misc/lv_color.h **** #if LV_COLOR_16_SWAP == 0
 141:..\..\..\arduinoLCD\test\Pain Drain\libraries\lvgl\src\misc/lv_color.h **** # define LV_COLOR_GET_G16(c) (c).ch.green
 142:..\..\..\arduinoLCD\test\Pain Drain\libraries\lvgl\src\misc/lv_color.h **** #else
 143:..\..\..\arduinoLCD\test\Pain Drain\libraries\lvgl\src\misc/lv_color.h **** # define LV_COLOR_GET_G16(c) (((c).ch.green_h << 3) + (c).ch.green_l)
 144:..\..\..\arduinoLCD\test\Pain Drain\libraries\lvgl\src\misc/lv_color.h **** #endif
 145:..\..\..\arduinoLCD\test\Pain Drain\libraries\lvgl\src\misc/lv_color.h **** # define LV_COLOR_GET_B16(c) (c).ch.blue
 146:..\..\..\arduinoLCD\test\Pain Drain\libraries\lvgl\src\misc/lv_color.h **** # define LV_COLOR_GET_A16(c) 0xFF
 147:..\..\..\arduinoLCD\test\Pain Drain\libraries\lvgl\src\misc/lv_color.h **** 
 148:..\..\..\arduinoLCD\test\Pain Drain\libraries\lvgl\src\misc/lv_color.h **** #if LV_COLOR_16_SWAP == 0
 149:..\..\..\arduinoLCD\test\Pain Drain\libraries\lvgl\src\misc/lv_color.h **** # define _LV_COLOR_ZERO_INITIALIZER16  {{0x00, 0x00, 0x00}}
 150:..\..\..\arduinoLCD\test\Pain Drain\libraries\lvgl\src\misc/lv_color.h **** # define LV_COLOR_MAKE16(r8, g8, b8) {{(uint8_t)((b8 >> 3) & 0x1FU), (uint8_t)((g8 >> 2) & 0x3FU), 
 151:..\..\..\arduinoLCD\test\Pain Drain\libraries\lvgl\src\misc/lv_color.h **** #else
 152:..\..\..\arduinoLCD\test\Pain Drain\libraries\lvgl\src\misc/lv_color.h **** # define _LV_COLOR_ZERO_INITIALIZER16 {{0x00, 0x00, 0x00, 0x00}}
 153:..\..\..\arduinoLCD\test\Pain Drain\libraries\lvgl\src\misc/lv_color.h **** # define LV_COLOR_MAKE16(r8, g8, b8) {{(uint8_t)((g8 >> 5) & 0x7U), (uint8_t)((r8 >> 3) & 0x1FU), (
 154:..\..\..\arduinoLCD\test\Pain Drain\libraries\lvgl\src\misc/lv_color.h **** #endif
 155:..\..\..\arduinoLCD\test\Pain Drain\libraries\lvgl\src\misc/lv_color.h **** 
 156:..\..\..\arduinoLCD\test\Pain Drain\libraries\lvgl\src\misc/lv_color.h **** # define LV_COLOR_SET_R32(c, v) (c).ch.red = (uint8_t)((v) & 0xFF)
 157:..\..\..\arduinoLCD\test\Pain Drain\libraries\lvgl\src\misc/lv_color.h **** # define LV_COLOR_SET_G32(c, v) (c).ch.green = (uint8_t)((v) & 0xFF)
 158:..\..\..\arduinoLCD\test\Pain Drain\libraries\lvgl\src\misc/lv_color.h **** # define LV_COLOR_SET_B32(c, v) (c).ch.blue = (uint8_t)((v) & 0xFF)
 159:..\..\..\arduinoLCD\test\Pain Drain\libraries\lvgl\src\misc/lv_color.h **** # define LV_COLOR_SET_A32(c, v) (c).ch.alpha = (uint8_t)((v) & 0xFF)
 160:..\..\..\arduinoLCD\test\Pain Drain\libraries\lvgl\src\misc/lv_color.h **** 
 161:..\..\..\arduinoLCD\test\Pain Drain\libraries\lvgl\src\misc/lv_color.h **** # define LV_COLOR_GET_R32(c) (c).ch.red
 162:..\..\..\arduinoLCD\test\Pain Drain\libraries\lvgl\src\misc/lv_color.h **** # define LV_COLOR_GET_G32(c) (c).ch.green
 163:..\..\..\arduinoLCD\test\Pain Drain\libraries\lvgl\src\misc/lv_color.h **** # define LV_COLOR_GET_B32(c) (c).ch.blue
 164:..\..\..\arduinoLCD\test\Pain Drain\libraries\lvgl\src\misc/lv_color.h **** # define LV_COLOR_GET_A32(c) (c).ch.alpha
ARM GAS  C:\Users\haske\AppData\Local\Temp\ccdHxW38.s 			page 26


 165:..\..\..\arduinoLCD\test\Pain Drain\libraries\lvgl\src\misc/lv_color.h **** 
 166:..\..\..\arduinoLCD\test\Pain Drain\libraries\lvgl\src\misc/lv_color.h **** # define _LV_COLOR_ZERO_INITIALIZER32  {{0x00, 0x00, 0x00, 0x00}}
 167:..\..\..\arduinoLCD\test\Pain Drain\libraries\lvgl\src\misc/lv_color.h **** # define LV_COLOR_MAKE32(r8, g8, b8) {{b8, g8, r8, 0xff}} /*Fix 0xff alpha*/
 168:..\..\..\arduinoLCD\test\Pain Drain\libraries\lvgl\src\misc/lv_color.h **** 
 169:..\..\..\arduinoLCD\test\Pain Drain\libraries\lvgl\src\misc/lv_color.h **** /*---------------------------------------
 170:..\..\..\arduinoLCD\test\Pain Drain\libraries\lvgl\src\misc/lv_color.h ****  * Macros for the current color depth
 171:..\..\..\arduinoLCD\test\Pain Drain\libraries\lvgl\src\misc/lv_color.h ****  * to set/get values of the color channels
 172:..\..\..\arduinoLCD\test\Pain Drain\libraries\lvgl\src\misc/lv_color.h ****  *------------------------------------------*/
 173:..\..\..\arduinoLCD\test\Pain Drain\libraries\lvgl\src\misc/lv_color.h **** #define LV_COLOR_SET_R(c, v) LV_CONCAT(LV_COLOR_SET_R, LV_COLOR_DEPTH)(c, v)
 174:..\..\..\arduinoLCD\test\Pain Drain\libraries\lvgl\src\misc/lv_color.h **** #define LV_COLOR_SET_G(c, v) LV_CONCAT(LV_COLOR_SET_G, LV_COLOR_DEPTH)(c, v)
 175:..\..\..\arduinoLCD\test\Pain Drain\libraries\lvgl\src\misc/lv_color.h **** #define LV_COLOR_SET_B(c, v) LV_CONCAT(LV_COLOR_SET_B, LV_COLOR_DEPTH)(c, v)
 176:..\..\..\arduinoLCD\test\Pain Drain\libraries\lvgl\src\misc/lv_color.h **** #define LV_COLOR_SET_A(c, v) LV_CONCAT(LV_COLOR_SET_A, LV_COLOR_DEPTH)(c, v)
 177:..\..\..\arduinoLCD\test\Pain Drain\libraries\lvgl\src\misc/lv_color.h **** 
 178:..\..\..\arduinoLCD\test\Pain Drain\libraries\lvgl\src\misc/lv_color.h **** #define LV_COLOR_GET_R(c) LV_CONCAT(LV_COLOR_GET_R, LV_COLOR_DEPTH)(c)
 179:..\..\..\arduinoLCD\test\Pain Drain\libraries\lvgl\src\misc/lv_color.h **** #define LV_COLOR_GET_G(c) LV_CONCAT(LV_COLOR_GET_G, LV_COLOR_DEPTH)(c)
 180:..\..\..\arduinoLCD\test\Pain Drain\libraries\lvgl\src\misc/lv_color.h **** #define LV_COLOR_GET_B(c) LV_CONCAT(LV_COLOR_GET_B, LV_COLOR_DEPTH)(c)
 181:..\..\..\arduinoLCD\test\Pain Drain\libraries\lvgl\src\misc/lv_color.h **** #define LV_COLOR_GET_A(c) LV_CONCAT(LV_COLOR_GET_A, LV_COLOR_DEPTH)(c)
 182:..\..\..\arduinoLCD\test\Pain Drain\libraries\lvgl\src\misc/lv_color.h **** 
 183:..\..\..\arduinoLCD\test\Pain Drain\libraries\lvgl\src\misc/lv_color.h **** #define _LV_COLOR_ZERO_INITIALIZER LV_CONCAT(_LV_COLOR_ZERO_INITIALIZER, LV_COLOR_DEPTH)
 184:..\..\..\arduinoLCD\test\Pain Drain\libraries\lvgl\src\misc/lv_color.h **** #define LV_COLOR_MAKE(r8, g8, b8) LV_CONCAT(LV_COLOR_MAKE, LV_COLOR_DEPTH)(r8, g8, b8)
 185:..\..\..\arduinoLCD\test\Pain Drain\libraries\lvgl\src\misc/lv_color.h **** 
 186:..\..\..\arduinoLCD\test\Pain Drain\libraries\lvgl\src\misc/lv_color.h **** /**********************
 187:..\..\..\arduinoLCD\test\Pain Drain\libraries\lvgl\src\misc/lv_color.h ****  *      TYPEDEFS
 188:..\..\..\arduinoLCD\test\Pain Drain\libraries\lvgl\src\misc/lv_color.h ****  **********************/
 189:..\..\..\arduinoLCD\test\Pain Drain\libraries\lvgl\src\misc/lv_color.h **** 
 190:..\..\..\arduinoLCD\test\Pain Drain\libraries\lvgl\src\misc/lv_color.h **** typedef union {
 191:..\..\..\arduinoLCD\test\Pain Drain\libraries\lvgl\src\misc/lv_color.h ****     uint8_t full; /*must be declared first to set all bits of byte via initializer list*/
 192:..\..\..\arduinoLCD\test\Pain Drain\libraries\lvgl\src\misc/lv_color.h ****     union {
 193:..\..\..\arduinoLCD\test\Pain Drain\libraries\lvgl\src\misc/lv_color.h ****         uint8_t blue : 1;
 194:..\..\..\arduinoLCD\test\Pain Drain\libraries\lvgl\src\misc/lv_color.h ****         uint8_t green : 1;
 195:..\..\..\arduinoLCD\test\Pain Drain\libraries\lvgl\src\misc/lv_color.h ****         uint8_t red : 1;
 196:..\..\..\arduinoLCD\test\Pain Drain\libraries\lvgl\src\misc/lv_color.h ****     } ch;
 197:..\..\..\arduinoLCD\test\Pain Drain\libraries\lvgl\src\misc/lv_color.h **** } lv_color1_t;
 198:..\..\..\arduinoLCD\test\Pain Drain\libraries\lvgl\src\misc/lv_color.h **** 
 199:..\..\..\arduinoLCD\test\Pain Drain\libraries\lvgl\src\misc/lv_color.h **** typedef union {
 200:..\..\..\arduinoLCD\test\Pain Drain\libraries\lvgl\src\misc/lv_color.h ****     struct {
 201:..\..\..\arduinoLCD\test\Pain Drain\libraries\lvgl\src\misc/lv_color.h ****         uint8_t blue : 2;
 202:..\..\..\arduinoLCD\test\Pain Drain\libraries\lvgl\src\misc/lv_color.h ****         uint8_t green : 3;
 203:..\..\..\arduinoLCD\test\Pain Drain\libraries\lvgl\src\misc/lv_color.h ****         uint8_t red : 3;
 204:..\..\..\arduinoLCD\test\Pain Drain\libraries\lvgl\src\misc/lv_color.h ****     } ch;
 205:..\..\..\arduinoLCD\test\Pain Drain\libraries\lvgl\src\misc/lv_color.h ****     uint8_t full;
 206:..\..\..\arduinoLCD\test\Pain Drain\libraries\lvgl\src\misc/lv_color.h **** } lv_color8_t;
 207:..\..\..\arduinoLCD\test\Pain Drain\libraries\lvgl\src\misc/lv_color.h **** 
 208:..\..\..\arduinoLCD\test\Pain Drain\libraries\lvgl\src\misc/lv_color.h **** typedef union {
 209:..\..\..\arduinoLCD\test\Pain Drain\libraries\lvgl\src\misc/lv_color.h ****     struct {
 210:..\..\..\arduinoLCD\test\Pain Drain\libraries\lvgl\src\misc/lv_color.h **** #if LV_COLOR_16_SWAP == 0
 211:..\..\..\arduinoLCD\test\Pain Drain\libraries\lvgl\src\misc/lv_color.h ****         uint16_t blue : 5;
 212:..\..\..\arduinoLCD\test\Pain Drain\libraries\lvgl\src\misc/lv_color.h ****         uint16_t green : 6;
 213:..\..\..\arduinoLCD\test\Pain Drain\libraries\lvgl\src\misc/lv_color.h ****         uint16_t red : 5;
 214:..\..\..\arduinoLCD\test\Pain Drain\libraries\lvgl\src\misc/lv_color.h **** #else
 215:..\..\..\arduinoLCD\test\Pain Drain\libraries\lvgl\src\misc/lv_color.h ****         uint16_t green_h : 3;
 216:..\..\..\arduinoLCD\test\Pain Drain\libraries\lvgl\src\misc/lv_color.h ****         uint16_t red : 5;
 217:..\..\..\arduinoLCD\test\Pain Drain\libraries\lvgl\src\misc/lv_color.h ****         uint16_t blue : 5;
 218:..\..\..\arduinoLCD\test\Pain Drain\libraries\lvgl\src\misc/lv_color.h ****         uint16_t green_l : 3;
 219:..\..\..\arduinoLCD\test\Pain Drain\libraries\lvgl\src\misc/lv_color.h **** #endif
 220:..\..\..\arduinoLCD\test\Pain Drain\libraries\lvgl\src\misc/lv_color.h ****     } ch;
 221:..\..\..\arduinoLCD\test\Pain Drain\libraries\lvgl\src\misc/lv_color.h ****     uint16_t full;
ARM GAS  C:\Users\haske\AppData\Local\Temp\ccdHxW38.s 			page 27


 222:..\..\..\arduinoLCD\test\Pain Drain\libraries\lvgl\src\misc/lv_color.h **** } lv_color16_t;
 223:..\..\..\arduinoLCD\test\Pain Drain\libraries\lvgl\src\misc/lv_color.h **** 
 224:..\..\..\arduinoLCD\test\Pain Drain\libraries\lvgl\src\misc/lv_color.h **** typedef union {
 225:..\..\..\arduinoLCD\test\Pain Drain\libraries\lvgl\src\misc/lv_color.h ****     struct {
 226:..\..\..\arduinoLCD\test\Pain Drain\libraries\lvgl\src\misc/lv_color.h ****         uint8_t blue;
 227:..\..\..\arduinoLCD\test\Pain Drain\libraries\lvgl\src\misc/lv_color.h ****         uint8_t green;
 228:..\..\..\arduinoLCD\test\Pain Drain\libraries\lvgl\src\misc/lv_color.h ****         uint8_t red;
 229:..\..\..\arduinoLCD\test\Pain Drain\libraries\lvgl\src\misc/lv_color.h ****         uint8_t alpha;
 230:..\..\..\arduinoLCD\test\Pain Drain\libraries\lvgl\src\misc/lv_color.h ****     } ch;
 231:..\..\..\arduinoLCD\test\Pain Drain\libraries\lvgl\src\misc/lv_color.h ****     uint32_t full;
 232:..\..\..\arduinoLCD\test\Pain Drain\libraries\lvgl\src\misc/lv_color.h **** } lv_color32_t;
 233:..\..\..\arduinoLCD\test\Pain Drain\libraries\lvgl\src\misc/lv_color.h **** 
 234:..\..\..\arduinoLCD\test\Pain Drain\libraries\lvgl\src\misc/lv_color.h **** typedef LV_CONCAT3(uint, LV_COLOR_SIZE, _t) lv_color_int_t;
 235:..\..\..\arduinoLCD\test\Pain Drain\libraries\lvgl\src\misc/lv_color.h **** typedef LV_CONCAT3(lv_color, LV_COLOR_DEPTH, _t) lv_color_t;
 236:..\..\..\arduinoLCD\test\Pain Drain\libraries\lvgl\src\misc/lv_color.h **** 
 237:..\..\..\arduinoLCD\test\Pain Drain\libraries\lvgl\src\misc/lv_color.h **** typedef struct {
 238:..\..\..\arduinoLCD\test\Pain Drain\libraries\lvgl\src\misc/lv_color.h ****     uint16_t h;
 239:..\..\..\arduinoLCD\test\Pain Drain\libraries\lvgl\src\misc/lv_color.h ****     uint8_t s;
 240:..\..\..\arduinoLCD\test\Pain Drain\libraries\lvgl\src\misc/lv_color.h ****     uint8_t v;
 241:..\..\..\arduinoLCD\test\Pain Drain\libraries\lvgl\src\misc/lv_color.h **** } lv_color_hsv_t;
 242:..\..\..\arduinoLCD\test\Pain Drain\libraries\lvgl\src\misc/lv_color.h **** 
 243:..\..\..\arduinoLCD\test\Pain Drain\libraries\lvgl\src\misc/lv_color.h **** //! @cond Doxygen_Suppress
 244:..\..\..\arduinoLCD\test\Pain Drain\libraries\lvgl\src\misc/lv_color.h **** /*No idea where the guard is required but else throws warnings in the docs*/
 245:..\..\..\arduinoLCD\test\Pain Drain\libraries\lvgl\src\misc/lv_color.h **** typedef uint8_t lv_opa_t;
 246:..\..\..\arduinoLCD\test\Pain Drain\libraries\lvgl\src\misc/lv_color.h **** //! @endcond
 247:..\..\..\arduinoLCD\test\Pain Drain\libraries\lvgl\src\misc/lv_color.h **** 
 248:..\..\..\arduinoLCD\test\Pain Drain\libraries\lvgl\src\misc/lv_color.h **** struct _lv_color_filter_dsc_t;
 249:..\..\..\arduinoLCD\test\Pain Drain\libraries\lvgl\src\misc/lv_color.h **** 
 250:..\..\..\arduinoLCD\test\Pain Drain\libraries\lvgl\src\misc/lv_color.h **** typedef lv_color_t (*lv_color_filter_cb_t)(const struct _lv_color_filter_dsc_t *, lv_color_t, lv_op
 251:..\..\..\arduinoLCD\test\Pain Drain\libraries\lvgl\src\misc/lv_color.h **** 
 252:..\..\..\arduinoLCD\test\Pain Drain\libraries\lvgl\src\misc/lv_color.h **** typedef struct _lv_color_filter_dsc_t {
 253:..\..\..\arduinoLCD\test\Pain Drain\libraries\lvgl\src\misc/lv_color.h ****     lv_color_filter_cb_t filter_cb;
 254:..\..\..\arduinoLCD\test\Pain Drain\libraries\lvgl\src\misc/lv_color.h ****     void * user_data;
 255:..\..\..\arduinoLCD\test\Pain Drain\libraries\lvgl\src\misc/lv_color.h **** } lv_color_filter_dsc_t;
 256:..\..\..\arduinoLCD\test\Pain Drain\libraries\lvgl\src\misc/lv_color.h **** 
 257:..\..\..\arduinoLCD\test\Pain Drain\libraries\lvgl\src\misc/lv_color.h **** 
 258:..\..\..\arduinoLCD\test\Pain Drain\libraries\lvgl\src\misc/lv_color.h **** typedef enum {
 259:..\..\..\arduinoLCD\test\Pain Drain\libraries\lvgl\src\misc/lv_color.h ****     LV_PALETTE_RED,
 260:..\..\..\arduinoLCD\test\Pain Drain\libraries\lvgl\src\misc/lv_color.h ****     LV_PALETTE_PINK,
 261:..\..\..\arduinoLCD\test\Pain Drain\libraries\lvgl\src\misc/lv_color.h ****     LV_PALETTE_PURPLE,
 262:..\..\..\arduinoLCD\test\Pain Drain\libraries\lvgl\src\misc/lv_color.h ****     LV_PALETTE_DEEP_PURPLE,
 263:..\..\..\arduinoLCD\test\Pain Drain\libraries\lvgl\src\misc/lv_color.h ****     LV_PALETTE_INDIGO,
 264:..\..\..\arduinoLCD\test\Pain Drain\libraries\lvgl\src\misc/lv_color.h ****     LV_PALETTE_BLUE,
 265:..\..\..\arduinoLCD\test\Pain Drain\libraries\lvgl\src\misc/lv_color.h ****     LV_PALETTE_LIGHT_BLUE,
 266:..\..\..\arduinoLCD\test\Pain Drain\libraries\lvgl\src\misc/lv_color.h ****     LV_PALETTE_CYAN,
 267:..\..\..\arduinoLCD\test\Pain Drain\libraries\lvgl\src\misc/lv_color.h ****     LV_PALETTE_TEAL,
 268:..\..\..\arduinoLCD\test\Pain Drain\libraries\lvgl\src\misc/lv_color.h ****     LV_PALETTE_GREEN,
 269:..\..\..\arduinoLCD\test\Pain Drain\libraries\lvgl\src\misc/lv_color.h ****     LV_PALETTE_LIGHT_GREEN,
 270:..\..\..\arduinoLCD\test\Pain Drain\libraries\lvgl\src\misc/lv_color.h ****     LV_PALETTE_LIME,
 271:..\..\..\arduinoLCD\test\Pain Drain\libraries\lvgl\src\misc/lv_color.h ****     LV_PALETTE_YELLOW,
 272:..\..\..\arduinoLCD\test\Pain Drain\libraries\lvgl\src\misc/lv_color.h ****     LV_PALETTE_AMBER,
 273:..\..\..\arduinoLCD\test\Pain Drain\libraries\lvgl\src\misc/lv_color.h ****     LV_PALETTE_ORANGE,
 274:..\..\..\arduinoLCD\test\Pain Drain\libraries\lvgl\src\misc/lv_color.h ****     LV_PALETTE_DEEP_ORANGE,
 275:..\..\..\arduinoLCD\test\Pain Drain\libraries\lvgl\src\misc/lv_color.h ****     LV_PALETTE_BROWN,
 276:..\..\..\arduinoLCD\test\Pain Drain\libraries\lvgl\src\misc/lv_color.h ****     LV_PALETTE_BLUE_GREY,
 277:..\..\..\arduinoLCD\test\Pain Drain\libraries\lvgl\src\misc/lv_color.h ****     LV_PALETTE_GREY,
 278:..\..\..\arduinoLCD\test\Pain Drain\libraries\lvgl\src\misc/lv_color.h ****     _LV_PALETTE_LAST,
ARM GAS  C:\Users\haske\AppData\Local\Temp\ccdHxW38.s 			page 28


 279:..\..\..\arduinoLCD\test\Pain Drain\libraries\lvgl\src\misc/lv_color.h ****     LV_PALETTE_NONE = 0xff,
 280:..\..\..\arduinoLCD\test\Pain Drain\libraries\lvgl\src\misc/lv_color.h **** } lv_palette_t;
 281:..\..\..\arduinoLCD\test\Pain Drain\libraries\lvgl\src\misc/lv_color.h **** 
 282:..\..\..\arduinoLCD\test\Pain Drain\libraries\lvgl\src\misc/lv_color.h **** /**********************
 283:..\..\..\arduinoLCD\test\Pain Drain\libraries\lvgl\src\misc/lv_color.h ****  * GLOBAL PROTOTYPES
 284:..\..\..\arduinoLCD\test\Pain Drain\libraries\lvgl\src\misc/lv_color.h ****  **********************/
 285:..\..\..\arduinoLCD\test\Pain Drain\libraries\lvgl\src\misc/lv_color.h **** 
 286:..\..\..\arduinoLCD\test\Pain Drain\libraries\lvgl\src\misc/lv_color.h **** /*In color conversations:
 287:..\..\..\arduinoLCD\test\Pain Drain\libraries\lvgl\src\misc/lv_color.h ****  * - When converting to bigger color type the LSB weight of 1 LSB is calculated
 288:..\..\..\arduinoLCD\test\Pain Drain\libraries\lvgl\src\misc/lv_color.h ****  *   E.g. 16 bit Red has 5 bits
 289:..\..\..\arduinoLCD\test\Pain Drain\libraries\lvgl\src\misc/lv_color.h ****  *         8 bit Red has 3 bits
 290:..\..\..\arduinoLCD\test\Pain Drain\libraries\lvgl\src\misc/lv_color.h ****  *        ----------------------
 291:..\..\..\arduinoLCD\test\Pain Drain\libraries\lvgl\src\misc/lv_color.h ****  *        8 bit red LSB = (2^5 - 1) / (2^3 - 1) = 31 / 7 = 4
 292:..\..\..\arduinoLCD\test\Pain Drain\libraries\lvgl\src\misc/lv_color.h ****  *
 293:..\..\..\arduinoLCD\test\Pain Drain\libraries\lvgl\src\misc/lv_color.h ****  * - When calculating to smaller color type simply shift out the LSBs
 294:..\..\..\arduinoLCD\test\Pain Drain\libraries\lvgl\src\misc/lv_color.h ****  *   E.g.  8 bit Red has 3 bits
 295:..\..\..\arduinoLCD\test\Pain Drain\libraries\lvgl\src\misc/lv_color.h ****  *        16 bit Red has 5 bits
 296:..\..\..\arduinoLCD\test\Pain Drain\libraries\lvgl\src\misc/lv_color.h ****  *        ----------------------
 297:..\..\..\arduinoLCD\test\Pain Drain\libraries\lvgl\src\misc/lv_color.h ****  *         Shift right with 5 - 3 = 2
 298:..\..\..\arduinoLCD\test\Pain Drain\libraries\lvgl\src\misc/lv_color.h ****  */
 299:..\..\..\arduinoLCD\test\Pain Drain\libraries\lvgl\src\misc/lv_color.h **** static inline uint8_t lv_color_to1(lv_color_t color)
 300:..\..\..\arduinoLCD\test\Pain Drain\libraries\lvgl\src\misc/lv_color.h **** {
 301:..\..\..\arduinoLCD\test\Pain Drain\libraries\lvgl\src\misc/lv_color.h **** #if LV_COLOR_DEPTH == 1
 302:..\..\..\arduinoLCD\test\Pain Drain\libraries\lvgl\src\misc/lv_color.h ****     return color.full;
 303:..\..\..\arduinoLCD\test\Pain Drain\libraries\lvgl\src\misc/lv_color.h **** #elif LV_COLOR_DEPTH == 8
 304:..\..\..\arduinoLCD\test\Pain Drain\libraries\lvgl\src\misc/lv_color.h ****     if((LV_COLOR_GET_R(color) & 0x4) || (LV_COLOR_GET_G(color) & 0x4) || (LV_COLOR_GET_B(color) & 0
 305:..\..\..\arduinoLCD\test\Pain Drain\libraries\lvgl\src\misc/lv_color.h ****         return 1;
 306:..\..\..\arduinoLCD\test\Pain Drain\libraries\lvgl\src\misc/lv_color.h ****     }
 307:..\..\..\arduinoLCD\test\Pain Drain\libraries\lvgl\src\misc/lv_color.h ****     else {
 308:..\..\..\arduinoLCD\test\Pain Drain\libraries\lvgl\src\misc/lv_color.h ****         return 0;
 309:..\..\..\arduinoLCD\test\Pain Drain\libraries\lvgl\src\misc/lv_color.h ****     }
 310:..\..\..\arduinoLCD\test\Pain Drain\libraries\lvgl\src\misc/lv_color.h **** #elif LV_COLOR_DEPTH == 16
 311:..\..\..\arduinoLCD\test\Pain Drain\libraries\lvgl\src\misc/lv_color.h ****     if((LV_COLOR_GET_R(color) & 0x10) || (LV_COLOR_GET_G(color) & 0x20) || (LV_COLOR_GET_B(color) &
 312:..\..\..\arduinoLCD\test\Pain Drain\libraries\lvgl\src\misc/lv_color.h ****         return 1;
 313:..\..\..\arduinoLCD\test\Pain Drain\libraries\lvgl\src\misc/lv_color.h ****     }
 314:..\..\..\arduinoLCD\test\Pain Drain\libraries\lvgl\src\misc/lv_color.h ****     else {
 315:..\..\..\arduinoLCD\test\Pain Drain\libraries\lvgl\src\misc/lv_color.h ****         return 0;
 316:..\..\..\arduinoLCD\test\Pain Drain\libraries\lvgl\src\misc/lv_color.h ****     }
 317:..\..\..\arduinoLCD\test\Pain Drain\libraries\lvgl\src\misc/lv_color.h **** #elif LV_COLOR_DEPTH == 32
 318:..\..\..\arduinoLCD\test\Pain Drain\libraries\lvgl\src\misc/lv_color.h ****     if((LV_COLOR_GET_R(color) & 0x80) || (LV_COLOR_GET_G(color) & 0x80) || (LV_COLOR_GET_B(color) &
 319:..\..\..\arduinoLCD\test\Pain Drain\libraries\lvgl\src\misc/lv_color.h ****         return 1;
 320:..\..\..\arduinoLCD\test\Pain Drain\libraries\lvgl\src\misc/lv_color.h ****     }
 321:..\..\..\arduinoLCD\test\Pain Drain\libraries\lvgl\src\misc/lv_color.h ****     else {
 322:..\..\..\arduinoLCD\test\Pain Drain\libraries\lvgl\src\misc/lv_color.h ****         return 0;
 323:..\..\..\arduinoLCD\test\Pain Drain\libraries\lvgl\src\misc/lv_color.h ****     }
 324:..\..\..\arduinoLCD\test\Pain Drain\libraries\lvgl\src\misc/lv_color.h **** #endif
 325:..\..\..\arduinoLCD\test\Pain Drain\libraries\lvgl\src\misc/lv_color.h **** }
 326:..\..\..\arduinoLCD\test\Pain Drain\libraries\lvgl\src\misc/lv_color.h **** 
 327:..\..\..\arduinoLCD\test\Pain Drain\libraries\lvgl\src\misc/lv_color.h **** static inline uint8_t lv_color_to8(lv_color_t color)
 328:..\..\..\arduinoLCD\test\Pain Drain\libraries\lvgl\src\misc/lv_color.h **** {
 329:..\..\..\arduinoLCD\test\Pain Drain\libraries\lvgl\src\misc/lv_color.h **** #if LV_COLOR_DEPTH == 1
 330:..\..\..\arduinoLCD\test\Pain Drain\libraries\lvgl\src\misc/lv_color.h ****     if(color.full == 0)
 331:..\..\..\arduinoLCD\test\Pain Drain\libraries\lvgl\src\misc/lv_color.h ****         return 0;
 332:..\..\..\arduinoLCD\test\Pain Drain\libraries\lvgl\src\misc/lv_color.h ****     else
 333:..\..\..\arduinoLCD\test\Pain Drain\libraries\lvgl\src\misc/lv_color.h ****         return 0xFF;
 334:..\..\..\arduinoLCD\test\Pain Drain\libraries\lvgl\src\misc/lv_color.h **** #elif LV_COLOR_DEPTH == 8
 335:..\..\..\arduinoLCD\test\Pain Drain\libraries\lvgl\src\misc/lv_color.h ****     return color.full;
ARM GAS  C:\Users\haske\AppData\Local\Temp\ccdHxW38.s 			page 29


 336:..\..\..\arduinoLCD\test\Pain Drain\libraries\lvgl\src\misc/lv_color.h **** #elif LV_COLOR_DEPTH == 16
 337:..\..\..\arduinoLCD\test\Pain Drain\libraries\lvgl\src\misc/lv_color.h ****     lv_color8_t ret;
 338:..\..\..\arduinoLCD\test\Pain Drain\libraries\lvgl\src\misc/lv_color.h ****     LV_COLOR_SET_R8(ret, LV_COLOR_GET_R(color) >> 2); /*5 - 3  = 2*/
 339:..\..\..\arduinoLCD\test\Pain Drain\libraries\lvgl\src\misc/lv_color.h ****     LV_COLOR_SET_G8(ret, LV_COLOR_GET_G(color) >> 3); /*6 - 3  = 3*/
 340:..\..\..\arduinoLCD\test\Pain Drain\libraries\lvgl\src\misc/lv_color.h ****     LV_COLOR_SET_B8(ret, LV_COLOR_GET_B(color) >> 3); /*5 - 2  = 3*/
 341:..\..\..\arduinoLCD\test\Pain Drain\libraries\lvgl\src\misc/lv_color.h ****     return ret.full;
 342:..\..\..\arduinoLCD\test\Pain Drain\libraries\lvgl\src\misc/lv_color.h **** #elif LV_COLOR_DEPTH == 32
 343:..\..\..\arduinoLCD\test\Pain Drain\libraries\lvgl\src\misc/lv_color.h ****     lv_color8_t ret;
 344:..\..\..\arduinoLCD\test\Pain Drain\libraries\lvgl\src\misc/lv_color.h ****     LV_COLOR_SET_R8(ret, LV_COLOR_GET_R(color) >> 5); /*8 - 3  = 5*/
 345:..\..\..\arduinoLCD\test\Pain Drain\libraries\lvgl\src\misc/lv_color.h ****     LV_COLOR_SET_G8(ret, LV_COLOR_GET_G(color) >> 5); /*8 - 3  = 5*/
 346:..\..\..\arduinoLCD\test\Pain Drain\libraries\lvgl\src\misc/lv_color.h ****     LV_COLOR_SET_B8(ret, LV_COLOR_GET_B(color) >> 6); /*8 - 2  = 6*/
 347:..\..\..\arduinoLCD\test\Pain Drain\libraries\lvgl\src\misc/lv_color.h ****     return ret.full;
 348:..\..\..\arduinoLCD\test\Pain Drain\libraries\lvgl\src\misc/lv_color.h **** #endif
 349:..\..\..\arduinoLCD\test\Pain Drain\libraries\lvgl\src\misc/lv_color.h **** }
 350:..\..\..\arduinoLCD\test\Pain Drain\libraries\lvgl\src\misc/lv_color.h **** 
 351:..\..\..\arduinoLCD\test\Pain Drain\libraries\lvgl\src\misc/lv_color.h **** static inline uint16_t lv_color_to16(lv_color_t color)
 352:..\..\..\arduinoLCD\test\Pain Drain\libraries\lvgl\src\misc/lv_color.h **** {
 353:..\..\..\arduinoLCD\test\Pain Drain\libraries\lvgl\src\misc/lv_color.h **** #if LV_COLOR_DEPTH == 1
 354:..\..\..\arduinoLCD\test\Pain Drain\libraries\lvgl\src\misc/lv_color.h ****     if(color.full == 0)
 355:..\..\..\arduinoLCD\test\Pain Drain\libraries\lvgl\src\misc/lv_color.h ****         return 0;
 356:..\..\..\arduinoLCD\test\Pain Drain\libraries\lvgl\src\misc/lv_color.h ****     else
 357:..\..\..\arduinoLCD\test\Pain Drain\libraries\lvgl\src\misc/lv_color.h ****         return 0xFFFF;
 358:..\..\..\arduinoLCD\test\Pain Drain\libraries\lvgl\src\misc/lv_color.h **** #elif LV_COLOR_DEPTH == 8
 359:..\..\..\arduinoLCD\test\Pain Drain\libraries\lvgl\src\misc/lv_color.h ****     lv_color16_t ret;
 360:..\..\..\arduinoLCD\test\Pain Drain\libraries\lvgl\src\misc/lv_color.h ****     LV_COLOR_SET_R16(ret, LV_COLOR_GET_R(color) * 4);  /*(2^5 - 1)/(2^3 - 1) = 31/7 = 4*/
 361:..\..\..\arduinoLCD\test\Pain Drain\libraries\lvgl\src\misc/lv_color.h ****     LV_COLOR_SET_G16(ret, LV_COLOR_GET_G(color) * 9);  /*(2^6 - 1)/(2^3 - 1) = 63/7 = 9*/
 362:..\..\..\arduinoLCD\test\Pain Drain\libraries\lvgl\src\misc/lv_color.h ****     LV_COLOR_SET_B16(ret, LV_COLOR_GET_B(color) * 10); /*(2^5 - 1)/(2^2 - 1) = 31/3 = 10*/
 363:..\..\..\arduinoLCD\test\Pain Drain\libraries\lvgl\src\misc/lv_color.h ****     return ret.full;
 364:..\..\..\arduinoLCD\test\Pain Drain\libraries\lvgl\src\misc/lv_color.h **** #elif LV_COLOR_DEPTH == 16
 365:..\..\..\arduinoLCD\test\Pain Drain\libraries\lvgl\src\misc/lv_color.h ****     return color.full;
 366:..\..\..\arduinoLCD\test\Pain Drain\libraries\lvgl\src\misc/lv_color.h **** #elif LV_COLOR_DEPTH == 32
 367:..\..\..\arduinoLCD\test\Pain Drain\libraries\lvgl\src\misc/lv_color.h ****     lv_color16_t ret;
 368:..\..\..\arduinoLCD\test\Pain Drain\libraries\lvgl\src\misc/lv_color.h ****     LV_COLOR_SET_R16(ret, LV_COLOR_GET_R(color) >> 3); /*8 - 5  = 3*/
 369:..\..\..\arduinoLCD\test\Pain Drain\libraries\lvgl\src\misc/lv_color.h ****     LV_COLOR_SET_G16(ret, LV_COLOR_GET_G(color) >> 2); /*8 - 6  = 2*/
 370:..\..\..\arduinoLCD\test\Pain Drain\libraries\lvgl\src\misc/lv_color.h ****     LV_COLOR_SET_B16(ret, LV_COLOR_GET_B(color) >> 3); /*8 - 5  = 3*/
 371:..\..\..\arduinoLCD\test\Pain Drain\libraries\lvgl\src\misc/lv_color.h ****     return ret.full;
 372:..\..\..\arduinoLCD\test\Pain Drain\libraries\lvgl\src\misc/lv_color.h **** #endif
 373:..\..\..\arduinoLCD\test\Pain Drain\libraries\lvgl\src\misc/lv_color.h **** }
 374:..\..\..\arduinoLCD\test\Pain Drain\libraries\lvgl\src\misc/lv_color.h **** 
 375:..\..\..\arduinoLCD\test\Pain Drain\libraries\lvgl\src\misc/lv_color.h **** static inline uint32_t lv_color_to32(lv_color_t color)
 376:..\..\..\arduinoLCD\test\Pain Drain\libraries\lvgl\src\misc/lv_color.h **** {
 377:..\..\..\arduinoLCD\test\Pain Drain\libraries\lvgl\src\misc/lv_color.h **** #if LV_COLOR_DEPTH == 1
 378:..\..\..\arduinoLCD\test\Pain Drain\libraries\lvgl\src\misc/lv_color.h ****     if(color.full == 0)
 379:..\..\..\arduinoLCD\test\Pain Drain\libraries\lvgl\src\misc/lv_color.h ****         return 0xFF000000;
 380:..\..\..\arduinoLCD\test\Pain Drain\libraries\lvgl\src\misc/lv_color.h ****     else
 381:..\..\..\arduinoLCD\test\Pain Drain\libraries\lvgl\src\misc/lv_color.h ****         return 0xFFFFFFFF;
 382:..\..\..\arduinoLCD\test\Pain Drain\libraries\lvgl\src\misc/lv_color.h **** #elif LV_COLOR_DEPTH == 8
 383:..\..\..\arduinoLCD\test\Pain Drain\libraries\lvgl\src\misc/lv_color.h ****     lv_color32_t ret;
 384:..\..\..\arduinoLCD\test\Pain Drain\libraries\lvgl\src\misc/lv_color.h ****     LV_COLOR_SET_R32(ret, LV_COLOR_GET_R(color) * 36); /*(2^8 - 1)/(2^3 - 1) = 255/7 = 36*/
 385:..\..\..\arduinoLCD\test\Pain Drain\libraries\lvgl\src\misc/lv_color.h ****     LV_COLOR_SET_G32(ret, LV_COLOR_GET_G(color) * 36); /*(2^8 - 1)/(2^3 - 1) = 255/7 = 36*/
 386:..\..\..\arduinoLCD\test\Pain Drain\libraries\lvgl\src\misc/lv_color.h ****     LV_COLOR_SET_B32(ret, LV_COLOR_GET_B(color) * 85); /*(2^8 - 1)/(2^2 - 1) = 255/3 = 85*/
 387:..\..\..\arduinoLCD\test\Pain Drain\libraries\lvgl\src\misc/lv_color.h ****     LV_COLOR_SET_A32(ret, 0xFF);
 388:..\..\..\arduinoLCD\test\Pain Drain\libraries\lvgl\src\misc/lv_color.h ****     return ret.full;
 389:..\..\..\arduinoLCD\test\Pain Drain\libraries\lvgl\src\misc/lv_color.h **** #elif LV_COLOR_DEPTH == 16
 390:..\..\..\arduinoLCD\test\Pain Drain\libraries\lvgl\src\misc/lv_color.h ****     /**
 391:..\..\..\arduinoLCD\test\Pain Drain\libraries\lvgl\src\misc/lv_color.h ****      * The floating point math for conversion is:
 392:..\..\..\arduinoLCD\test\Pain Drain\libraries\lvgl\src\misc/lv_color.h ****      *  valueto = valuefrom * ( (2^bitsto - 1) / (float)(2^bitsfrom - 1) )
ARM GAS  C:\Users\haske\AppData\Local\Temp\ccdHxW38.s 			page 30


 393:..\..\..\arduinoLCD\test\Pain Drain\libraries\lvgl\src\misc/lv_color.h ****      * The faster integer math for conversion is:
 394:..\..\..\arduinoLCD\test\Pain Drain\libraries\lvgl\src\misc/lv_color.h ****      *  valueto = ( valuefrom * multiplier + adder ) >> divisor
 395:..\..\..\arduinoLCD\test\Pain Drain\libraries\lvgl\src\misc/lv_color.h ****      *   multiplier = FLOOR( ( (2^bitsto - 1) << divisor ) / (float)(2^bitsfrom - 1) )
 396:..\..\..\arduinoLCD\test\Pain Drain\libraries\lvgl\src\misc/lv_color.h ****      *
 397:..\..\..\arduinoLCD\test\Pain Drain\libraries\lvgl\src\misc/lv_color.h ****      * Find the first divisor where ( adder >> divisor ) <= 0
 398:..\..\..\arduinoLCD\test\Pain Drain\libraries\lvgl\src\misc/lv_color.h ****      *
 399:..\..\..\arduinoLCD\test\Pain Drain\libraries\lvgl\src\misc/lv_color.h ****      * 5-bit to 8-bit: ( 31 * multiplier + adder ) >> divisor = 255
 400:..\..\..\arduinoLCD\test\Pain Drain\libraries\lvgl\src\misc/lv_color.h ****      * divisor  multiplier  adder  min (0)  max (31)
 401:..\..\..\arduinoLCD\test\Pain Drain\libraries\lvgl\src\misc/lv_color.h ****      *       0           8      7        7       255
 402:..\..\..\arduinoLCD\test\Pain Drain\libraries\lvgl\src\misc/lv_color.h ****      *       1          16     14        7       255
 403:..\..\..\arduinoLCD\test\Pain Drain\libraries\lvgl\src\misc/lv_color.h ****      *       2          32     28        7       255
 404:..\..\..\arduinoLCD\test\Pain Drain\libraries\lvgl\src\misc/lv_color.h ****      *       3          65     25        3       255
 405:..\..\..\arduinoLCD\test\Pain Drain\libraries\lvgl\src\misc/lv_color.h ****      *       4         131     19        1       255
 406:..\..\..\arduinoLCD\test\Pain Drain\libraries\lvgl\src\misc/lv_color.h ****      *       5         263      7        0       255
 407:..\..\..\arduinoLCD\test\Pain Drain\libraries\lvgl\src\misc/lv_color.h ****      *
 408:..\..\..\arduinoLCD\test\Pain Drain\libraries\lvgl\src\misc/lv_color.h ****      * 6-bit to 8-bit: 255 = ( 63 * multiplier + adder ) >> divisor
 409:..\..\..\arduinoLCD\test\Pain Drain\libraries\lvgl\src\misc/lv_color.h ****      * divisor  multiplier  adder  min (0)  max (63)
 410:..\..\..\arduinoLCD\test\Pain Drain\libraries\lvgl\src\misc/lv_color.h ****      *       0           4      3        3       255
 411:..\..\..\arduinoLCD\test\Pain Drain\libraries\lvgl\src\misc/lv_color.h ****      *       1           8      6        3       255
 412:..\..\..\arduinoLCD\test\Pain Drain\libraries\lvgl\src\misc/lv_color.h ****      *       2          16     12        3       255
 413:..\..\..\arduinoLCD\test\Pain Drain\libraries\lvgl\src\misc/lv_color.h ****      *       3          32     24        3       255
 414:..\..\..\arduinoLCD\test\Pain Drain\libraries\lvgl\src\misc/lv_color.h ****      *       4          64     48        3       255
 415:..\..\..\arduinoLCD\test\Pain Drain\libraries\lvgl\src\misc/lv_color.h ****      *       5         129     33        1       255
 416:..\..\..\arduinoLCD\test\Pain Drain\libraries\lvgl\src\misc/lv_color.h ****      *       6         259      3        0       255
 417:..\..\..\arduinoLCD\test\Pain Drain\libraries\lvgl\src\misc/lv_color.h ****      */
 418:..\..\..\arduinoLCD\test\Pain Drain\libraries\lvgl\src\misc/lv_color.h **** 
 419:..\..\..\arduinoLCD\test\Pain Drain\libraries\lvgl\src\misc/lv_color.h ****     lv_color32_t ret;
 420:..\..\..\arduinoLCD\test\Pain Drain\libraries\lvgl\src\misc/lv_color.h ****     LV_COLOR_SET_R32(ret, (LV_COLOR_GET_R(color) * 263 + 7) >> 5);
 421:..\..\..\arduinoLCD\test\Pain Drain\libraries\lvgl\src\misc/lv_color.h ****     LV_COLOR_SET_G32(ret, (LV_COLOR_GET_G(color) * 259 + 3) >> 6);
 422:..\..\..\arduinoLCD\test\Pain Drain\libraries\lvgl\src\misc/lv_color.h ****     LV_COLOR_SET_B32(ret, (LV_COLOR_GET_B(color) * 263 + 7) >> 5);
 423:..\..\..\arduinoLCD\test\Pain Drain\libraries\lvgl\src\misc/lv_color.h ****     LV_COLOR_SET_A32(ret, 0xFF);
 424:..\..\..\arduinoLCD\test\Pain Drain\libraries\lvgl\src\misc/lv_color.h ****     return ret.full;
 425:..\..\..\arduinoLCD\test\Pain Drain\libraries\lvgl\src\misc/lv_color.h **** #elif LV_COLOR_DEPTH == 32
 426:..\..\..\arduinoLCD\test\Pain Drain\libraries\lvgl\src\misc/lv_color.h ****     return color.full;
 427:..\..\..\arduinoLCD\test\Pain Drain\libraries\lvgl\src\misc/lv_color.h **** #endif
 428:..\..\..\arduinoLCD\test\Pain Drain\libraries\lvgl\src\misc/lv_color.h **** }
 429:..\..\..\arduinoLCD\test\Pain Drain\libraries\lvgl\src\misc/lv_color.h **** 
 430:..\..\..\arduinoLCD\test\Pain Drain\libraries\lvgl\src\misc/lv_color.h **** //! @cond Doxygen_Suppress
 431:..\..\..\arduinoLCD\test\Pain Drain\libraries\lvgl\src\misc/lv_color.h **** 
 432:..\..\..\arduinoLCD\test\Pain Drain\libraries\lvgl\src\misc/lv_color.h **** /**
 433:..\..\..\arduinoLCD\test\Pain Drain\libraries\lvgl\src\misc/lv_color.h ****  * Mix two colors with a given ratio.
 434:..\..\..\arduinoLCD\test\Pain Drain\libraries\lvgl\src\misc/lv_color.h ****  * @param c1 the first color to mix (usually the foreground)
 435:..\..\..\arduinoLCD\test\Pain Drain\libraries\lvgl\src\misc/lv_color.h ****  * @param c2 the second color to mix (usually the background)
 436:..\..\..\arduinoLCD\test\Pain Drain\libraries\lvgl\src\misc/lv_color.h ****  * @param mix The ratio of the colors. 0: full `c2`, 255: full `c1`, 127: half `c1` and half`c2`
 437:..\..\..\arduinoLCD\test\Pain Drain\libraries\lvgl\src\misc/lv_color.h ****  * @return the mixed color
 438:..\..\..\arduinoLCD\test\Pain Drain\libraries\lvgl\src\misc/lv_color.h ****  */
 439:..\..\..\arduinoLCD\test\Pain Drain\libraries\lvgl\src\misc/lv_color.h **** LV_ATTRIBUTE_FAST_MEM static inline lv_color_t lv_color_mix(lv_color_t c1, lv_color_t c2, uint8_t m
 440:..\..\..\arduinoLCD\test\Pain Drain\libraries\lvgl\src\misc/lv_color.h **** {
 441:..\..\..\arduinoLCD\test\Pain Drain\libraries\lvgl\src\misc/lv_color.h ****     lv_color_t ret;
 442:..\..\..\arduinoLCD\test\Pain Drain\libraries\lvgl\src\misc/lv_color.h **** 
 443:..\..\..\arduinoLCD\test\Pain Drain\libraries\lvgl\src\misc/lv_color.h **** #if LV_COLOR_DEPTH == 16 && LV_COLOR_16_SWAP == 0 && LV_COLOR_MIX_ROUND_OFS == 0
 444:..\..\..\arduinoLCD\test\Pain Drain\libraries\lvgl\src\misc/lv_color.h ****     /*Source: https://stackoverflow.com/a/50012418/1999969*/
 445:..\..\..\arduinoLCD\test\Pain Drain\libraries\lvgl\src\misc/lv_color.h ****     mix = (uint32_t)((uint32_t)mix + 4) >> 3;
 446:..\..\..\arduinoLCD\test\Pain Drain\libraries\lvgl\src\misc/lv_color.h ****     uint32_t bg = (uint32_t)((uint32_t)c2.full | ((uint32_t)c2.full << 16)) &
 447:..\..\..\arduinoLCD\test\Pain Drain\libraries\lvgl\src\misc/lv_color.h ****                   0x7E0F81F; /*0b00000111111000001111100000011111*/
 448:..\..\..\arduinoLCD\test\Pain Drain\libraries\lvgl\src\misc/lv_color.h ****     uint32_t fg = (uint32_t)((uint32_t)c1.full | ((uint32_t)c1.full << 16)) & 0x7E0F81F;
 449:..\..\..\arduinoLCD\test\Pain Drain\libraries\lvgl\src\misc/lv_color.h ****     uint32_t result = ((((fg - bg) * mix) >> 5) + bg) & 0x7E0F81F;
ARM GAS  C:\Users\haske\AppData\Local\Temp\ccdHxW38.s 			page 31


 450:..\..\..\arduinoLCD\test\Pain Drain\libraries\lvgl\src\misc/lv_color.h ****     ret.full = (uint16_t)((result >> 16) | result);
 451:..\..\..\arduinoLCD\test\Pain Drain\libraries\lvgl\src\misc/lv_color.h **** #elif LV_COLOR_DEPTH != 1
 452:..\..\..\arduinoLCD\test\Pain Drain\libraries\lvgl\src\misc/lv_color.h ****     /*LV_COLOR_DEPTH == 8, 16 or 32*/
 453:..\..\..\arduinoLCD\test\Pain Drain\libraries\lvgl\src\misc/lv_color.h ****     LV_COLOR_SET_R(ret, LV_UDIV255((uint16_t)LV_COLOR_GET_R(c1) * mix + LV_COLOR_GET_R(c2) *
 454:..\..\..\arduinoLCD\test\Pain Drain\libraries\lvgl\src\misc/lv_color.h ****                                    (255 - mix) + LV_COLOR_MIX_ROUND_OFS));
 455:..\..\..\arduinoLCD\test\Pain Drain\libraries\lvgl\src\misc/lv_color.h ****     LV_COLOR_SET_G(ret, LV_UDIV255((uint16_t)LV_COLOR_GET_G(c1) * mix + LV_COLOR_GET_G(c2) *
 456:..\..\..\arduinoLCD\test\Pain Drain\libraries\lvgl\src\misc/lv_color.h ****                                    (255 - mix) + LV_COLOR_MIX_ROUND_OFS));
 457:..\..\..\arduinoLCD\test\Pain Drain\libraries\lvgl\src\misc/lv_color.h ****     LV_COLOR_SET_B(ret, LV_UDIV255((uint16_t)LV_COLOR_GET_B(c1) * mix + LV_COLOR_GET_B(c2) *
 458:..\..\..\arduinoLCD\test\Pain Drain\libraries\lvgl\src\misc/lv_color.h ****                                    (255 - mix) + LV_COLOR_MIX_ROUND_OFS));
 459:..\..\..\arduinoLCD\test\Pain Drain\libraries\lvgl\src\misc/lv_color.h ****     LV_COLOR_SET_A(ret, 0xFF);
 460:..\..\..\arduinoLCD\test\Pain Drain\libraries\lvgl\src\misc/lv_color.h **** #else
 461:..\..\..\arduinoLCD\test\Pain Drain\libraries\lvgl\src\misc/lv_color.h ****     /*LV_COLOR_DEPTH == 1*/
 462:..\..\..\arduinoLCD\test\Pain Drain\libraries\lvgl\src\misc/lv_color.h ****     ret.full = mix > LV_OPA_50 ? c1.full : c2.full;
 463:..\..\..\arduinoLCD\test\Pain Drain\libraries\lvgl\src\misc/lv_color.h **** #endif
 464:..\..\..\arduinoLCD\test\Pain Drain\libraries\lvgl\src\misc/lv_color.h **** 
 465:..\..\..\arduinoLCD\test\Pain Drain\libraries\lvgl\src\misc/lv_color.h ****     return ret;
 466:..\..\..\arduinoLCD\test\Pain Drain\libraries\lvgl\src\misc/lv_color.h **** }
 467:..\..\..\arduinoLCD\test\Pain Drain\libraries\lvgl\src\misc/lv_color.h **** 
 468:..\..\..\arduinoLCD\test\Pain Drain\libraries\lvgl\src\misc/lv_color.h **** LV_ATTRIBUTE_FAST_MEM static inline void lv_color_premult(lv_color_t c, uint8_t mix, uint16_t * out
 469:..\..\..\arduinoLCD\test\Pain Drain\libraries\lvgl\src\misc/lv_color.h **** {
 470:..\..\..\arduinoLCD\test\Pain Drain\libraries\lvgl\src\misc/lv_color.h **** #if LV_COLOR_DEPTH != 1
 471:..\..\..\arduinoLCD\test\Pain Drain\libraries\lvgl\src\misc/lv_color.h ****     out[0] = (uint16_t)LV_COLOR_GET_R(c) * mix;
 472:..\..\..\arduinoLCD\test\Pain Drain\libraries\lvgl\src\misc/lv_color.h ****     out[1] = (uint16_t)LV_COLOR_GET_G(c) * mix;
 473:..\..\..\arduinoLCD\test\Pain Drain\libraries\lvgl\src\misc/lv_color.h ****     out[2] = (uint16_t)LV_COLOR_GET_B(c) * mix;
 474:..\..\..\arduinoLCD\test\Pain Drain\libraries\lvgl\src\misc/lv_color.h **** #else
 475:..\..\..\arduinoLCD\test\Pain Drain\libraries\lvgl\src\misc/lv_color.h ****     (void) mix;
 476:..\..\..\arduinoLCD\test\Pain Drain\libraries\lvgl\src\misc/lv_color.h ****     /*Pre-multiplication can't be used with 1 bpp*/
 477:..\..\..\arduinoLCD\test\Pain Drain\libraries\lvgl\src\misc/lv_color.h ****     out[0] = LV_COLOR_GET_R(c);
 478:..\..\..\arduinoLCD\test\Pain Drain\libraries\lvgl\src\misc/lv_color.h ****     out[1] = LV_COLOR_GET_G(c);
 479:..\..\..\arduinoLCD\test\Pain Drain\libraries\lvgl\src\misc/lv_color.h ****     out[2] = LV_COLOR_GET_B(c);
 480:..\..\..\arduinoLCD\test\Pain Drain\libraries\lvgl\src\misc/lv_color.h **** #endif
 481:..\..\..\arduinoLCD\test\Pain Drain\libraries\lvgl\src\misc/lv_color.h **** 
 482:..\..\..\arduinoLCD\test\Pain Drain\libraries\lvgl\src\misc/lv_color.h **** }
 483:..\..\..\arduinoLCD\test\Pain Drain\libraries\lvgl\src\misc/lv_color.h **** 
 484:..\..\..\arduinoLCD\test\Pain Drain\libraries\lvgl\src\misc/lv_color.h **** /**
 485:..\..\..\arduinoLCD\test\Pain Drain\libraries\lvgl\src\misc/lv_color.h ****  * Mix two colors with a given ratio. It runs faster then `lv_color_mix` but requires some pre comp
 486:..\..\..\arduinoLCD\test\Pain Drain\libraries\lvgl\src\misc/lv_color.h ****  * @param premult_c1 The first color. Should be preprocessed with `lv_color_premult(c1)`
 487:..\..\..\arduinoLCD\test\Pain Drain\libraries\lvgl\src\misc/lv_color.h ****  * @param c2 The second color. As it is no pre computation required on it
 488:..\..\..\arduinoLCD\test\Pain Drain\libraries\lvgl\src\misc/lv_color.h ****  * @param mix The ratio of the colors. 0: full `c1`, 255: full `c2`, 127: half `c1` and half `c2`.
 489:..\..\..\arduinoLCD\test\Pain Drain\libraries\lvgl\src\misc/lv_color.h ****  *            Should be modified like mix = `255 - mix`
 490:..\..\..\arduinoLCD\test\Pain Drain\libraries\lvgl\src\misc/lv_color.h ****  * @return the mixed color
 491:..\..\..\arduinoLCD\test\Pain Drain\libraries\lvgl\src\misc/lv_color.h ****  * @note 255 won't give clearly `c1`.
 492:..\..\..\arduinoLCD\test\Pain Drain\libraries\lvgl\src\misc/lv_color.h ****  */
 493:..\..\..\arduinoLCD\test\Pain Drain\libraries\lvgl\src\misc/lv_color.h **** LV_ATTRIBUTE_FAST_MEM static inline lv_color_t lv_color_mix_premult(uint16_t * premult_c1, lv_color
 494:..\..\..\arduinoLCD\test\Pain Drain\libraries\lvgl\src\misc/lv_color.h **** {
 495:..\..\..\arduinoLCD\test\Pain Drain\libraries\lvgl\src\misc/lv_color.h ****     lv_color_t ret;
 496:..\..\..\arduinoLCD\test\Pain Drain\libraries\lvgl\src\misc/lv_color.h **** #if LV_COLOR_DEPTH != 1
 497:..\..\..\arduinoLCD\test\Pain Drain\libraries\lvgl\src\misc/lv_color.h ****     /*LV_COLOR_DEPTH == 8 or 32*/
 498:..\..\..\arduinoLCD\test\Pain Drain\libraries\lvgl\src\misc/lv_color.h ****     LV_COLOR_SET_R(ret, LV_UDIV255(premult_c1[0] + LV_COLOR_GET_R(c2) * mix + LV_COLOR_MIX_ROUND_OF
 499:..\..\..\arduinoLCD\test\Pain Drain\libraries\lvgl\src\misc/lv_color.h ****     LV_COLOR_SET_G(ret, LV_UDIV255(premult_c1[1] + LV_COLOR_GET_G(c2) * mix + LV_COLOR_MIX_ROUND_OF
 500:..\..\..\arduinoLCD\test\Pain Drain\libraries\lvgl\src\misc/lv_color.h ****     LV_COLOR_SET_B(ret, LV_UDIV255(premult_c1[2] + LV_COLOR_GET_B(c2) * mix + LV_COLOR_MIX_ROUND_OF
 501:..\..\..\arduinoLCD\test\Pain Drain\libraries\lvgl\src\misc/lv_color.h ****     LV_COLOR_SET_A(ret, 0xFF);
 502:..\..\..\arduinoLCD\test\Pain Drain\libraries\lvgl\src\misc/lv_color.h **** #else
 503:..\..\..\arduinoLCD\test\Pain Drain\libraries\lvgl\src\misc/lv_color.h ****     /*LV_COLOR_DEPTH == 1*/
 504:..\..\..\arduinoLCD\test\Pain Drain\libraries\lvgl\src\misc/lv_color.h ****     /*Restore color1*/
 505:..\..\..\arduinoLCD\test\Pain Drain\libraries\lvgl\src\misc/lv_color.h ****     lv_color_t c1;
 506:..\..\..\arduinoLCD\test\Pain Drain\libraries\lvgl\src\misc/lv_color.h ****     LV_COLOR_SET_R(c1, premult_c1[0]);
ARM GAS  C:\Users\haske\AppData\Local\Temp\ccdHxW38.s 			page 32


 507:..\..\..\arduinoLCD\test\Pain Drain\libraries\lvgl\src\misc/lv_color.h ****     LV_COLOR_SET_G(c1, premult_c1[1]);
 508:..\..\..\arduinoLCD\test\Pain Drain\libraries\lvgl\src\misc/lv_color.h ****     LV_COLOR_SET_B(c1, premult_c1[2]);
 509:..\..\..\arduinoLCD\test\Pain Drain\libraries\lvgl\src\misc/lv_color.h ****     ret.full = mix > LV_OPA_50 ? c2.full : c1.full;
 510:..\..\..\arduinoLCD\test\Pain Drain\libraries\lvgl\src\misc/lv_color.h **** #endif
 511:..\..\..\arduinoLCD\test\Pain Drain\libraries\lvgl\src\misc/lv_color.h **** 
 512:..\..\..\arduinoLCD\test\Pain Drain\libraries\lvgl\src\misc/lv_color.h ****     return ret;
 513:..\..\..\arduinoLCD\test\Pain Drain\libraries\lvgl\src\misc/lv_color.h **** }
 514:..\..\..\arduinoLCD\test\Pain Drain\libraries\lvgl\src\misc/lv_color.h **** 
 515:..\..\..\arduinoLCD\test\Pain Drain\libraries\lvgl\src\misc/lv_color.h **** /**
 516:..\..\..\arduinoLCD\test\Pain Drain\libraries\lvgl\src\misc/lv_color.h ****  * Mix two colors. Both color can have alpha value.
 517:..\..\..\arduinoLCD\test\Pain Drain\libraries\lvgl\src\misc/lv_color.h ****  * @param bg_color background color
 518:..\..\..\arduinoLCD\test\Pain Drain\libraries\lvgl\src\misc/lv_color.h ****  * @param bg_opa alpha of the background color
 519:..\..\..\arduinoLCD\test\Pain Drain\libraries\lvgl\src\misc/lv_color.h ****  * @param fg_color foreground color
 520:..\..\..\arduinoLCD\test\Pain Drain\libraries\lvgl\src\misc/lv_color.h ****  * @param fg_opa alpha of the foreground color
 521:..\..\..\arduinoLCD\test\Pain Drain\libraries\lvgl\src\misc/lv_color.h ****  * @param res_color the result color
 522:..\..\..\arduinoLCD\test\Pain Drain\libraries\lvgl\src\misc/lv_color.h ****  * @param res_opa the result opacity
 523:..\..\..\arduinoLCD\test\Pain Drain\libraries\lvgl\src\misc/lv_color.h ****  */
 524:..\..\..\arduinoLCD\test\Pain Drain\libraries\lvgl\src\misc/lv_color.h **** LV_ATTRIBUTE_FAST_MEM static inline void lv_color_mix_with_alpha(lv_color_t bg_color, lv_opa_t bg_o
 525:..\..\..\arduinoLCD\test\Pain Drain\libraries\lvgl\src\misc/lv_color.h ****                                                                  lv_color_t fg_color, lv_opa_t fg_o
 526:..\..\..\arduinoLCD\test\Pain Drain\libraries\lvgl\src\misc/lv_color.h ****                                                                  lv_color_t * res_color, lv_opa_t *
 527:..\..\..\arduinoLCD\test\Pain Drain\libraries\lvgl\src\misc/lv_color.h **** {
 528:..\..\..\arduinoLCD\test\Pain Drain\libraries\lvgl\src\misc/lv_color.h ****     /*Pick the foreground if it's fully opaque or the Background is fully transparent*/
 529:..\..\..\arduinoLCD\test\Pain Drain\libraries\lvgl\src\misc/lv_color.h ****     if(fg_opa >= LV_OPA_MAX || bg_opa <= LV_OPA_MIN) {
 530:..\..\..\arduinoLCD\test\Pain Drain\libraries\lvgl\src\misc/lv_color.h ****         res_color->full = fg_color.full;
 531:..\..\..\arduinoLCD\test\Pain Drain\libraries\lvgl\src\misc/lv_color.h ****         *res_opa = fg_opa;
 532:..\..\..\arduinoLCD\test\Pain Drain\libraries\lvgl\src\misc/lv_color.h ****     }
 533:..\..\..\arduinoLCD\test\Pain Drain\libraries\lvgl\src\misc/lv_color.h ****     /*Transparent foreground: use the Background*/
 534:..\..\..\arduinoLCD\test\Pain Drain\libraries\lvgl\src\misc/lv_color.h ****     else if(fg_opa <= LV_OPA_MIN) {
 535:..\..\..\arduinoLCD\test\Pain Drain\libraries\lvgl\src\misc/lv_color.h ****         res_color->full = bg_color.full;
 536:..\..\..\arduinoLCD\test\Pain Drain\libraries\lvgl\src\misc/lv_color.h ****         *res_opa = bg_opa;
 537:..\..\..\arduinoLCD\test\Pain Drain\libraries\lvgl\src\misc/lv_color.h ****     }
 538:..\..\..\arduinoLCD\test\Pain Drain\libraries\lvgl\src\misc/lv_color.h ****     /*Opaque background: use simple mix*/
 539:..\..\..\arduinoLCD\test\Pain Drain\libraries\lvgl\src\misc/lv_color.h ****     else if(bg_opa >= LV_OPA_MAX) {
 540:..\..\..\arduinoLCD\test\Pain Drain\libraries\lvgl\src\misc/lv_color.h ****         *res_color = lv_color_mix(fg_color, bg_color, fg_opa);
 541:..\..\..\arduinoLCD\test\Pain Drain\libraries\lvgl\src\misc/lv_color.h ****         *res_opa = LV_OPA_COVER;
 542:..\..\..\arduinoLCD\test\Pain Drain\libraries\lvgl\src\misc/lv_color.h ****     }
 543:..\..\..\arduinoLCD\test\Pain Drain\libraries\lvgl\src\misc/lv_color.h ****     /*Both colors have alpha. Expensive calculation need to be applied*/
 544:..\..\..\arduinoLCD\test\Pain Drain\libraries\lvgl\src\misc/lv_color.h ****     else {
 545:..\..\..\arduinoLCD\test\Pain Drain\libraries\lvgl\src\misc/lv_color.h ****         /*Save the parameters and the result. If they will be asked again don't compute again*/
 546:..\..\..\arduinoLCD\test\Pain Drain\libraries\lvgl\src\misc/lv_color.h ****         static lv_opa_t fg_opa_save     = 0;
 547:..\..\..\arduinoLCD\test\Pain Drain\libraries\lvgl\src\misc/lv_color.h ****         static lv_opa_t bg_opa_save     = 0;
 548:..\..\..\arduinoLCD\test\Pain Drain\libraries\lvgl\src\misc/lv_color.h ****         static lv_color_t fg_color_save = _LV_COLOR_ZERO_INITIALIZER;
 549:..\..\..\arduinoLCD\test\Pain Drain\libraries\lvgl\src\misc/lv_color.h ****         static lv_color_t bg_color_save = _LV_COLOR_ZERO_INITIALIZER;
 550:..\..\..\arduinoLCD\test\Pain Drain\libraries\lvgl\src\misc/lv_color.h ****         static lv_color_t res_color_saved = _LV_COLOR_ZERO_INITIALIZER;
 551:..\..\..\arduinoLCD\test\Pain Drain\libraries\lvgl\src\misc/lv_color.h ****         static lv_opa_t res_opa_saved = 0;
 552:..\..\..\arduinoLCD\test\Pain Drain\libraries\lvgl\src\misc/lv_color.h **** 
 553:..\..\..\arduinoLCD\test\Pain Drain\libraries\lvgl\src\misc/lv_color.h ****         if(fg_opa != fg_opa_save || bg_opa != bg_opa_save || fg_color.full != fg_color_save.full ||
 554:..\..\..\arduinoLCD\test\Pain Drain\libraries\lvgl\src\misc/lv_color.h ****            bg_color.full != bg_color_save.full) {
 555:..\..\..\arduinoLCD\test\Pain Drain\libraries\lvgl\src\misc/lv_color.h ****             fg_opa_save        = fg_opa;
 556:..\..\..\arduinoLCD\test\Pain Drain\libraries\lvgl\src\misc/lv_color.h ****             bg_opa_save        = bg_opa;
 557:..\..\..\arduinoLCD\test\Pain Drain\libraries\lvgl\src\misc/lv_color.h ****             fg_color_save.full = fg_color.full;
 558:..\..\..\arduinoLCD\test\Pain Drain\libraries\lvgl\src\misc/lv_color.h ****             bg_color_save.full = bg_color.full;
 559:..\..\..\arduinoLCD\test\Pain Drain\libraries\lvgl\src\misc/lv_color.h ****             /*Info:
 560:..\..\..\arduinoLCD\test\Pain Drain\libraries\lvgl\src\misc/lv_color.h ****              * https://en.wikipedia.org/wiki/Alpha_compositing#Analytical_derivation_of_the_over_op
 561:..\..\..\arduinoLCD\test\Pain Drain\libraries\lvgl\src\misc/lv_color.h ****             res_opa_saved = 255 - ((uint16_t)((uint16_t)(255 - fg_opa) * (255 - bg_opa)) >> 8);
 562:..\..\..\arduinoLCD\test\Pain Drain\libraries\lvgl\src\misc/lv_color.h ****             LV_ASSERT(res_opa_saved != 0);
 563:..\..\..\arduinoLCD\test\Pain Drain\libraries\lvgl\src\misc/lv_color.h ****             lv_opa_t ratio = (uint16_t)((uint16_t)fg_opa * 255) / res_opa_saved;
ARM GAS  C:\Users\haske\AppData\Local\Temp\ccdHxW38.s 			page 33


 564:..\..\..\arduinoLCD\test\Pain Drain\libraries\lvgl\src\misc/lv_color.h ****             res_color_saved = lv_color_mix(fg_color, bg_color, ratio);
 565:..\..\..\arduinoLCD\test\Pain Drain\libraries\lvgl\src\misc/lv_color.h **** 
 566:..\..\..\arduinoLCD\test\Pain Drain\libraries\lvgl\src\misc/lv_color.h ****         }
 567:..\..\..\arduinoLCD\test\Pain Drain\libraries\lvgl\src\misc/lv_color.h **** 
 568:..\..\..\arduinoLCD\test\Pain Drain\libraries\lvgl\src\misc/lv_color.h ****         res_color->full = res_color_saved.full;
 569:..\..\..\arduinoLCD\test\Pain Drain\libraries\lvgl\src\misc/lv_color.h ****         *res_opa = res_opa_saved;
 570:..\..\..\arduinoLCD\test\Pain Drain\libraries\lvgl\src\misc/lv_color.h ****     }
 571:..\..\..\arduinoLCD\test\Pain Drain\libraries\lvgl\src\misc/lv_color.h **** }
 572:..\..\..\arduinoLCD\test\Pain Drain\libraries\lvgl\src\misc/lv_color.h **** 
 573:..\..\..\arduinoLCD\test\Pain Drain\libraries\lvgl\src\misc/lv_color.h **** //! @endcond
 574:..\..\..\arduinoLCD\test\Pain Drain\libraries\lvgl\src\misc/lv_color.h **** 
 575:..\..\..\arduinoLCD\test\Pain Drain\libraries\lvgl\src\misc/lv_color.h **** /**
 576:..\..\..\arduinoLCD\test\Pain Drain\libraries\lvgl\src\misc/lv_color.h ****  * Get the brightness of a color
 577:..\..\..\arduinoLCD\test\Pain Drain\libraries\lvgl\src\misc/lv_color.h ****  * @param color a color
 578:..\..\..\arduinoLCD\test\Pain Drain\libraries\lvgl\src\misc/lv_color.h ****  * @return the brightness [0..255]
 579:..\..\..\arduinoLCD\test\Pain Drain\libraries\lvgl\src\misc/lv_color.h ****  */
 580:..\..\..\arduinoLCD\test\Pain Drain\libraries\lvgl\src\misc/lv_color.h **** static inline uint8_t lv_color_brightness(lv_color_t color)
 581:..\..\..\arduinoLCD\test\Pain Drain\libraries\lvgl\src\misc/lv_color.h **** {
 582:..\..\..\arduinoLCD\test\Pain Drain\libraries\lvgl\src\misc/lv_color.h ****     lv_color32_t c32;
 583:..\..\..\arduinoLCD\test\Pain Drain\libraries\lvgl\src\misc/lv_color.h ****     c32.full        = lv_color_to32(color);
 584:..\..\..\arduinoLCD\test\Pain Drain\libraries\lvgl\src\misc/lv_color.h ****     uint16_t bright = (uint16_t)(3u * LV_COLOR_GET_R32(c32) + LV_COLOR_GET_B32(c32) + 4u * LV_COLOR
 585:..\..\..\arduinoLCD\test\Pain Drain\libraries\lvgl\src\misc/lv_color.h ****     return (uint8_t)(bright >> 3);
 586:..\..\..\arduinoLCD\test\Pain Drain\libraries\lvgl\src\misc/lv_color.h **** }
 587:..\..\..\arduinoLCD\test\Pain Drain\libraries\lvgl\src\misc/lv_color.h **** 
 588:..\..\..\arduinoLCD\test\Pain Drain\libraries\lvgl\src\misc/lv_color.h **** static inline lv_color_t lv_color_make(uint8_t r, uint8_t g, uint8_t b)
 589:..\..\..\arduinoLCD\test\Pain Drain\libraries\lvgl\src\misc/lv_color.h **** {
 590:..\..\..\arduinoLCD\test\Pain Drain\libraries\lvgl\src\misc/lv_color.h ****     return _LV_COLOR_MAKE_TYPE_HELPER LV_COLOR_MAKE(r, g, b);
 764              		.loc 2 590 0
 765 0016 FC20     		movs	r0, #252
 766 0018 C000     		lsls	r0, r0, #3
 767 001a 1F23     		movs	r3, #31
 768 001c 1843     		orrs	r0, r3
 769 001e 0A4B     		ldr	r3, .L61+4
 770 0020 1843     		orrs	r0, r3
 771              	.LVL61:
 772 0022 80B2     		uxth	r0, r0
 773 0024 0CE0     		b	.L60
 774              	.L54:
 775 0026 0020     		movs	r0, #0
 776 0028 0AE0     		b	.L60
 777              	.L56:
 778              	.LBE22:
 779              	.LBE21:
 780              	.LBE20:
 341:..\..\..\arduinoLCD\test\Pain Drain\libraries\lvgl\src\misc/lv_style.c ****             break;
 781              		.loc 1 341 0
 782 002a FF20     		movs	r0, #255
 342:..\..\..\arduinoLCD\test\Pain Drain\libraries\lvgl\src\misc/lv_style.c ****         case LV_STYLE_BG_GRAD_STOP:
 783              		.loc 1 342 0
 784 002c 08E0     		b	.L60
 785              	.L55:
 344:..\..\..\arduinoLCD\test\Pain Drain\libraries\lvgl\src\misc/lv_style.c ****             break;
 786              		.loc 1 344 0
 787 002e FF20     		movs	r0, #255
 345:..\..\..\arduinoLCD\test\Pain Drain\libraries\lvgl\src\misc/lv_style.c ****         case LV_STYLE_BORDER_SIDE:
 788              		.loc 1 345 0
 789 0030 06E0     		b	.L60
ARM GAS  C:\Users\haske\AppData\Local\Temp\ccdHxW38.s 			page 34


 790              	.L57:
 347:..\..\..\arduinoLCD\test\Pain Drain\libraries\lvgl\src\misc/lv_style.c ****             break;
 791              		.loc 1 347 0
 792 0032 0F20     		movs	r0, #15
 348:..\..\..\arduinoLCD\test\Pain Drain\libraries\lvgl\src\misc/lv_style.c ****         case LV_STYLE_TEXT_FONT:
 793              		.loc 1 348 0
 794 0034 04E0     		b	.L60
 795              	.L58:
 350:..\..\..\arduinoLCD\test\Pain Drain\libraries\lvgl\src\misc/lv_style.c ****             break;
 796              		.loc 1 350 0
 797 0036 0548     		ldr	r0, .L61+8
 351:..\..\..\arduinoLCD\test\Pain Drain\libraries\lvgl\src\misc/lv_style.c ****         case LV_STYLE_MAX_WIDTH:
 798              		.loc 1 351 0
 799 0038 02E0     		b	.L60
 800              	.L51:
 354:..\..\..\arduinoLCD\test\Pain Drain\libraries\lvgl\src\misc/lv_style.c ****             break;
 801              		.loc 1 354 0
 802 003a 0548     		ldr	r0, .L61+12
 355:..\..\..\arduinoLCD\test\Pain Drain\libraries\lvgl\src\misc/lv_style.c ****         default:
 803              		.loc 1 355 0
 804 003c 00E0     		b	.L60
 805              	.L50:
 357:..\..\..\arduinoLCD\test\Pain Drain\libraries\lvgl\src\misc/lv_style.c ****             value.num = 0;
 806              		.loc 1 357 0
 807 003e 0020     		movs	r0, #0
 808              	.L60:
 363:..\..\..\arduinoLCD\test\Pain Drain\libraries\lvgl\src\misc/lv_style.c **** 
 809              		.loc 1 363 0
 810              		@ sp needed
 811 0040 7047     		bx	lr
 812              	.L62:
 813 0042 C046     		.align	2
 814              	.L61:
 815 0044 00000000 		.word	.L52
 816 0048 00F8FFFF 		.word	-2048
 817 004c 00000000 		.word	lv_font_montserrat_14
 818 0050 FF1F0000 		.word	8191
 819              		.cfi_endproc
 820              	.LFE65:
 821              		.size	lv_style_prop_get_default, .-lv_style_prop_get_default
 822              		.section	.text.lv_style_get_prop,"ax",%progbits
 823              		.align	2
 824              		.global	lv_style_get_prop
 825              		.code	16
 826              		.thumb_func
 827              		.type	lv_style_get_prop, %function
 828              	lv_style_get_prop:
 829              	.LFB63:
 293:..\..\..\arduinoLCD\test\Pain Drain\libraries\lvgl\src\misc/lv_style.c ****     return lv_style_get_prop_inlined(style, prop, value);
 830              		.loc 1 293 0
 831              		.cfi_startproc
 832              		@ args = 0, pretend = 0, frame = 0
 833              		@ frame_needed = 0, uses_anonymous_args = 0
 834              	.LVL62:
 835 0000 F8B5     		push	{r3, r4, r5, r6, r7, lr}
 836              		.cfi_def_cfa_offset 24
 837              		.cfi_offset 3, -24
ARM GAS  C:\Users\haske\AppData\Local\Temp\ccdHxW38.s 			page 35


 838              		.cfi_offset 4, -20
 839              		.cfi_offset 5, -16
 840              		.cfi_offset 6, -12
 841              		.cfi_offset 7, -8
 842              		.cfi_offset 14, -4
 843 0002 0600     		movs	r6, r0
 844 0004 1400     		movs	r4, r2
 845              	.LVL63:
 846              	.LBB30:
 847              	.LBB31:
 848              		.file 3 "..\\..\\..\\arduinoLCD\\test\\Pain Drain\\libraries\\lvgl\\src\\misc\\lv_style.h"
   1:..\..\..\arduinoLCD\test\Pain Drain\libraries\lvgl\src\misc/lv_style.h **** /**
   2:..\..\..\arduinoLCD\test\Pain Drain\libraries\lvgl\src\misc/lv_style.h ****  * @file lv_style.h
   3:..\..\..\arduinoLCD\test\Pain Drain\libraries\lvgl\src\misc/lv_style.h ****  *
   4:..\..\..\arduinoLCD\test\Pain Drain\libraries\lvgl\src\misc/lv_style.h ****  */
   5:..\..\..\arduinoLCD\test\Pain Drain\libraries\lvgl\src\misc/lv_style.h **** 
   6:..\..\..\arduinoLCD\test\Pain Drain\libraries\lvgl\src\misc/lv_style.h **** #ifndef LV_STYLE_H
   7:..\..\..\arduinoLCD\test\Pain Drain\libraries\lvgl\src\misc/lv_style.h **** #define LV_STYLE_H
   8:..\..\..\arduinoLCD\test\Pain Drain\libraries\lvgl\src\misc/lv_style.h **** 
   9:..\..\..\arduinoLCD\test\Pain Drain\libraries\lvgl\src\misc/lv_style.h **** #ifdef __cplusplus
  10:..\..\..\arduinoLCD\test\Pain Drain\libraries\lvgl\src\misc/lv_style.h **** extern "C" {
  11:..\..\..\arduinoLCD\test\Pain Drain\libraries\lvgl\src\misc/lv_style.h **** #endif
  12:..\..\..\arduinoLCD\test\Pain Drain\libraries\lvgl\src\misc/lv_style.h **** 
  13:..\..\..\arduinoLCD\test\Pain Drain\libraries\lvgl\src\misc/lv_style.h **** /*********************
  14:..\..\..\arduinoLCD\test\Pain Drain\libraries\lvgl\src\misc/lv_style.h ****  *      INCLUDES
  15:..\..\..\arduinoLCD\test\Pain Drain\libraries\lvgl\src\misc/lv_style.h ****  *********************/
  16:..\..\..\arduinoLCD\test\Pain Drain\libraries\lvgl\src\misc/lv_style.h **** #include <stdbool.h>
  17:..\..\..\arduinoLCD\test\Pain Drain\libraries\lvgl\src\misc/lv_style.h **** #include <stdint.h>
  18:..\..\..\arduinoLCD\test\Pain Drain\libraries\lvgl\src\misc/lv_style.h **** #include "../font/lv_font.h"
  19:..\..\..\arduinoLCD\test\Pain Drain\libraries\lvgl\src\misc/lv_style.h **** #include "lv_color.h"
  20:..\..\..\arduinoLCD\test\Pain Drain\libraries\lvgl\src\misc/lv_style.h **** #include "lv_area.h"
  21:..\..\..\arduinoLCD\test\Pain Drain\libraries\lvgl\src\misc/lv_style.h **** #include "lv_anim.h"
  22:..\..\..\arduinoLCD\test\Pain Drain\libraries\lvgl\src\misc/lv_style.h **** #include "lv_txt.h"
  23:..\..\..\arduinoLCD\test\Pain Drain\libraries\lvgl\src\misc/lv_style.h **** #include "lv_types.h"
  24:..\..\..\arduinoLCD\test\Pain Drain\libraries\lvgl\src\misc/lv_style.h **** #include "lv_assert.h"
  25:..\..\..\arduinoLCD\test\Pain Drain\libraries\lvgl\src\misc/lv_style.h **** #include "lv_bidi.h"
  26:..\..\..\arduinoLCD\test\Pain Drain\libraries\lvgl\src\misc/lv_style.h **** 
  27:..\..\..\arduinoLCD\test\Pain Drain\libraries\lvgl\src\misc/lv_style.h **** /*********************
  28:..\..\..\arduinoLCD\test\Pain Drain\libraries\lvgl\src\misc/lv_style.h ****  *      DEFINES
  29:..\..\..\arduinoLCD\test\Pain Drain\libraries\lvgl\src\misc/lv_style.h ****  *********************/
  30:..\..\..\arduinoLCD\test\Pain Drain\libraries\lvgl\src\misc/lv_style.h **** 
  31:..\..\..\arduinoLCD\test\Pain Drain\libraries\lvgl\src\misc/lv_style.h **** #define LV_STYLE_SENTINEL_VALUE     0xAABBCCDD
  32:..\..\..\arduinoLCD\test\Pain Drain\libraries\lvgl\src\misc/lv_style.h **** 
  33:..\..\..\arduinoLCD\test\Pain Drain\libraries\lvgl\src\misc/lv_style.h **** /**
  34:..\..\..\arduinoLCD\test\Pain Drain\libraries\lvgl\src\misc/lv_style.h ****  * Flags for style behavior
  35:..\..\..\arduinoLCD\test\Pain Drain\libraries\lvgl\src\misc/lv_style.h ****  *
  36:..\..\..\arduinoLCD\test\Pain Drain\libraries\lvgl\src\misc/lv_style.h ****  * The rest of the flags will have _FLAG added to their name in v9.
  37:..\..\..\arduinoLCD\test\Pain Drain\libraries\lvgl\src\misc/lv_style.h ****  */
  38:..\..\..\arduinoLCD\test\Pain Drain\libraries\lvgl\src\misc/lv_style.h **** #define LV_STYLE_PROP_FLAG_NONE             (0)
  39:..\..\..\arduinoLCD\test\Pain Drain\libraries\lvgl\src\misc/lv_style.h **** #define LV_STYLE_PROP_INHERIT               (1 << 0)  /*Inherited*/
  40:..\..\..\arduinoLCD\test\Pain Drain\libraries\lvgl\src\misc/lv_style.h **** #define LV_STYLE_PROP_EXT_DRAW              (1 << 1)  /*Requires ext. draw size update when changed
  41:..\..\..\arduinoLCD\test\Pain Drain\libraries\lvgl\src\misc/lv_style.h **** #define LV_STYLE_PROP_LAYOUT_REFR           (1 << 2)  /*Requires layout update when changed*/
  42:..\..\..\arduinoLCD\test\Pain Drain\libraries\lvgl\src\misc/lv_style.h **** #define LV_STYLE_PROP_PARENT_LAYOUT_REFR    (1 << 3)  /*Requires layout update on parent when chang
  43:..\..\..\arduinoLCD\test\Pain Drain\libraries\lvgl\src\misc/lv_style.h **** #define LV_STYLE_PROP_LAYER_REFR            (1 << 4)  /*Affects layer handling*/
  44:..\..\..\arduinoLCD\test\Pain Drain\libraries\lvgl\src\misc/lv_style.h **** #define LV_STYLE_PROP_ALL                   (0x1F)     /*Indicating all flags*/
  45:..\..\..\arduinoLCD\test\Pain Drain\libraries\lvgl\src\misc/lv_style.h **** 
  46:..\..\..\arduinoLCD\test\Pain Drain\libraries\lvgl\src\misc/lv_style.h **** /**
ARM GAS  C:\Users\haske\AppData\Local\Temp\ccdHxW38.s 			page 36


  47:..\..\..\arduinoLCD\test\Pain Drain\libraries\lvgl\src\misc/lv_style.h ****  * Other constants
  48:..\..\..\arduinoLCD\test\Pain Drain\libraries\lvgl\src\misc/lv_style.h ****  */
  49:..\..\..\arduinoLCD\test\Pain Drain\libraries\lvgl\src\misc/lv_style.h **** #define LV_IMG_ZOOM_NONE            256        /*Value for not zooming the image*/
  50:..\..\..\arduinoLCD\test\Pain Drain\libraries\lvgl\src\misc/lv_style.h **** LV_EXPORT_CONST_INT(LV_IMG_ZOOM_NONE);
  51:..\..\..\arduinoLCD\test\Pain Drain\libraries\lvgl\src\misc/lv_style.h **** 
  52:..\..\..\arduinoLCD\test\Pain Drain\libraries\lvgl\src\misc/lv_style.h **** // *INDENT-OFF*
  53:..\..\..\arduinoLCD\test\Pain Drain\libraries\lvgl\src\misc/lv_style.h **** #if LV_USE_ASSERT_STYLE
  54:..\..\..\arduinoLCD\test\Pain Drain\libraries\lvgl\src\misc/lv_style.h **** #define LV_STYLE_CONST_INIT(var_name, prop_array)                       \
  55:..\..\..\arduinoLCD\test\Pain Drain\libraries\lvgl\src\misc/lv_style.h ****     const lv_style_t var_name = {                                       \
  56:..\..\..\arduinoLCD\test\Pain Drain\libraries\lvgl\src\misc/lv_style.h ****         .sentinel = LV_STYLE_SENTINEL_VALUE,                            \
  57:..\..\..\arduinoLCD\test\Pain Drain\libraries\lvgl\src\misc/lv_style.h ****         .v_p = { .const_props = prop_array },                           \
  58:..\..\..\arduinoLCD\test\Pain Drain\libraries\lvgl\src\misc/lv_style.h ****         .has_group = 0xFF,                                              \
  59:..\..\..\arduinoLCD\test\Pain Drain\libraries\lvgl\src\misc/lv_style.h ****         .prop1 = LV_STYLE_PROP_ANY,                                     \
  60:..\..\..\arduinoLCD\test\Pain Drain\libraries\lvgl\src\misc/lv_style.h ****         .prop_cnt = (sizeof(prop_array) / sizeof((prop_array)[0])),     \
  61:..\..\..\arduinoLCD\test\Pain Drain\libraries\lvgl\src\misc/lv_style.h ****     }
  62:..\..\..\arduinoLCD\test\Pain Drain\libraries\lvgl\src\misc/lv_style.h **** #else
  63:..\..\..\arduinoLCD\test\Pain Drain\libraries\lvgl\src\misc/lv_style.h **** #define LV_STYLE_CONST_INIT(var_name, prop_array)                       \
  64:..\..\..\arduinoLCD\test\Pain Drain\libraries\lvgl\src\misc/lv_style.h ****     const lv_style_t var_name = {                                       \
  65:..\..\..\arduinoLCD\test\Pain Drain\libraries\lvgl\src\misc/lv_style.h ****         .v_p = { .const_props = prop_array },                           \
  66:..\..\..\arduinoLCD\test\Pain Drain\libraries\lvgl\src\misc/lv_style.h ****         .has_group = 0xFF,                                              \
  67:..\..\..\arduinoLCD\test\Pain Drain\libraries\lvgl\src\misc/lv_style.h ****         .prop1 = LV_STYLE_PROP_ANY,                                     \
  68:..\..\..\arduinoLCD\test\Pain Drain\libraries\lvgl\src\misc/lv_style.h ****         .prop_cnt = (sizeof(prop_array) / sizeof((prop_array)[0])),     \
  69:..\..\..\arduinoLCD\test\Pain Drain\libraries\lvgl\src\misc/lv_style.h ****     }
  70:..\..\..\arduinoLCD\test\Pain Drain\libraries\lvgl\src\misc/lv_style.h **** #endif
  71:..\..\..\arduinoLCD\test\Pain Drain\libraries\lvgl\src\misc/lv_style.h **** // *INDENT-ON*
  72:..\..\..\arduinoLCD\test\Pain Drain\libraries\lvgl\src\misc/lv_style.h **** 
  73:..\..\..\arduinoLCD\test\Pain Drain\libraries\lvgl\src\misc/lv_style.h **** #define LV_STYLE_PROP_META_INHERIT 0x8000
  74:..\..\..\arduinoLCD\test\Pain Drain\libraries\lvgl\src\misc/lv_style.h **** #define LV_STYLE_PROP_META_INITIAL 0x4000
  75:..\..\..\arduinoLCD\test\Pain Drain\libraries\lvgl\src\misc/lv_style.h **** #define LV_STYLE_PROP_META_MASK (LV_STYLE_PROP_META_INHERIT | LV_STYLE_PROP_META_INITIAL)
  76:..\..\..\arduinoLCD\test\Pain Drain\libraries\lvgl\src\misc/lv_style.h **** 
  77:..\..\..\arduinoLCD\test\Pain Drain\libraries\lvgl\src\misc/lv_style.h **** #define LV_STYLE_PROP_ID_MASK(prop) ((lv_style_prop_t)((prop) & ~LV_STYLE_PROP_META_MASK))
  78:..\..\..\arduinoLCD\test\Pain Drain\libraries\lvgl\src\misc/lv_style.h **** 
  79:..\..\..\arduinoLCD\test\Pain Drain\libraries\lvgl\src\misc/lv_style.h **** /**********************
  80:..\..\..\arduinoLCD\test\Pain Drain\libraries\lvgl\src\misc/lv_style.h ****  *      TYPEDEFS
  81:..\..\..\arduinoLCD\test\Pain Drain\libraries\lvgl\src\misc/lv_style.h ****  **********************/
  82:..\..\..\arduinoLCD\test\Pain Drain\libraries\lvgl\src\misc/lv_style.h **** 
  83:..\..\..\arduinoLCD\test\Pain Drain\libraries\lvgl\src\misc/lv_style.h **** /**
  84:..\..\..\arduinoLCD\test\Pain Drain\libraries\lvgl\src\misc/lv_style.h ****  * Possible options how to blend opaque drawings
  85:..\..\..\arduinoLCD\test\Pain Drain\libraries\lvgl\src\misc/lv_style.h ****  */
  86:..\..\..\arduinoLCD\test\Pain Drain\libraries\lvgl\src\misc/lv_style.h **** enum {
  87:..\..\..\arduinoLCD\test\Pain Drain\libraries\lvgl\src\misc/lv_style.h ****     LV_BLEND_MODE_NORMAL,     /**< Simply mix according to the opacity value*/
  88:..\..\..\arduinoLCD\test\Pain Drain\libraries\lvgl\src\misc/lv_style.h ****     LV_BLEND_MODE_ADDITIVE,   /**< Add the respective color channels*/
  89:..\..\..\arduinoLCD\test\Pain Drain\libraries\lvgl\src\misc/lv_style.h ****     LV_BLEND_MODE_SUBTRACTIVE,/**< Subtract the foreground from the background*/
  90:..\..\..\arduinoLCD\test\Pain Drain\libraries\lvgl\src\misc/lv_style.h ****     LV_BLEND_MODE_MULTIPLY,   /**< Multiply the foreground and background*/
  91:..\..\..\arduinoLCD\test\Pain Drain\libraries\lvgl\src\misc/lv_style.h ****     LV_BLEND_MODE_REPLACE,    /**< Replace background with foreground in the area*/
  92:..\..\..\arduinoLCD\test\Pain Drain\libraries\lvgl\src\misc/lv_style.h **** };
  93:..\..\..\arduinoLCD\test\Pain Drain\libraries\lvgl\src\misc/lv_style.h **** 
  94:..\..\..\arduinoLCD\test\Pain Drain\libraries\lvgl\src\misc/lv_style.h **** typedef uint8_t lv_blend_mode_t;
  95:..\..\..\arduinoLCD\test\Pain Drain\libraries\lvgl\src\misc/lv_style.h **** 
  96:..\..\..\arduinoLCD\test\Pain Drain\libraries\lvgl\src\misc/lv_style.h **** /**
  97:..\..\..\arduinoLCD\test\Pain Drain\libraries\lvgl\src\misc/lv_style.h ****  * Some options to apply decorations on texts.
  98:..\..\..\arduinoLCD\test\Pain Drain\libraries\lvgl\src\misc/lv_style.h ****  * 'OR'ed values can be used.
  99:..\..\..\arduinoLCD\test\Pain Drain\libraries\lvgl\src\misc/lv_style.h ****  */
 100:..\..\..\arduinoLCD\test\Pain Drain\libraries\lvgl\src\misc/lv_style.h **** enum {
 101:..\..\..\arduinoLCD\test\Pain Drain\libraries\lvgl\src\misc/lv_style.h ****     LV_TEXT_DECOR_NONE          = 0x00,
 102:..\..\..\arduinoLCD\test\Pain Drain\libraries\lvgl\src\misc/lv_style.h ****     LV_TEXT_DECOR_UNDERLINE     = 0x01,
 103:..\..\..\arduinoLCD\test\Pain Drain\libraries\lvgl\src\misc/lv_style.h ****     LV_TEXT_DECOR_STRIKETHROUGH = 0x02,
ARM GAS  C:\Users\haske\AppData\Local\Temp\ccdHxW38.s 			page 37


 104:..\..\..\arduinoLCD\test\Pain Drain\libraries\lvgl\src\misc/lv_style.h **** };
 105:..\..\..\arduinoLCD\test\Pain Drain\libraries\lvgl\src\misc/lv_style.h **** 
 106:..\..\..\arduinoLCD\test\Pain Drain\libraries\lvgl\src\misc/lv_style.h **** typedef uint8_t lv_text_decor_t;
 107:..\..\..\arduinoLCD\test\Pain Drain\libraries\lvgl\src\misc/lv_style.h **** 
 108:..\..\..\arduinoLCD\test\Pain Drain\libraries\lvgl\src\misc/lv_style.h **** /**
 109:..\..\..\arduinoLCD\test\Pain Drain\libraries\lvgl\src\misc/lv_style.h ****  * Selects on which sides border should be drawn
 110:..\..\..\arduinoLCD\test\Pain Drain\libraries\lvgl\src\misc/lv_style.h ****  * 'OR'ed values can be used.
 111:..\..\..\arduinoLCD\test\Pain Drain\libraries\lvgl\src\misc/lv_style.h ****  */
 112:..\..\..\arduinoLCD\test\Pain Drain\libraries\lvgl\src\misc/lv_style.h **** enum {
 113:..\..\..\arduinoLCD\test\Pain Drain\libraries\lvgl\src\misc/lv_style.h ****     LV_BORDER_SIDE_NONE     = 0x00,
 114:..\..\..\arduinoLCD\test\Pain Drain\libraries\lvgl\src\misc/lv_style.h ****     LV_BORDER_SIDE_BOTTOM   = 0x01,
 115:..\..\..\arduinoLCD\test\Pain Drain\libraries\lvgl\src\misc/lv_style.h ****     LV_BORDER_SIDE_TOP      = 0x02,
 116:..\..\..\arduinoLCD\test\Pain Drain\libraries\lvgl\src\misc/lv_style.h ****     LV_BORDER_SIDE_LEFT     = 0x04,
 117:..\..\..\arduinoLCD\test\Pain Drain\libraries\lvgl\src\misc/lv_style.h ****     LV_BORDER_SIDE_RIGHT    = 0x08,
 118:..\..\..\arduinoLCD\test\Pain Drain\libraries\lvgl\src\misc/lv_style.h ****     LV_BORDER_SIDE_FULL     = 0x0F,
 119:..\..\..\arduinoLCD\test\Pain Drain\libraries\lvgl\src\misc/lv_style.h ****     LV_BORDER_SIDE_INTERNAL = 0x10, /**< FOR matrix-like objects (e.g. Button matrix)*/
 120:..\..\..\arduinoLCD\test\Pain Drain\libraries\lvgl\src\misc/lv_style.h **** };
 121:..\..\..\arduinoLCD\test\Pain Drain\libraries\lvgl\src\misc/lv_style.h **** typedef uint8_t lv_border_side_t;
 122:..\..\..\arduinoLCD\test\Pain Drain\libraries\lvgl\src\misc/lv_style.h **** 
 123:..\..\..\arduinoLCD\test\Pain Drain\libraries\lvgl\src\misc/lv_style.h **** /**
 124:..\..\..\arduinoLCD\test\Pain Drain\libraries\lvgl\src\misc/lv_style.h ****  * The direction of the gradient.
 125:..\..\..\arduinoLCD\test\Pain Drain\libraries\lvgl\src\misc/lv_style.h ****  */
 126:..\..\..\arduinoLCD\test\Pain Drain\libraries\lvgl\src\misc/lv_style.h **** enum {
 127:..\..\..\arduinoLCD\test\Pain Drain\libraries\lvgl\src\misc/lv_style.h ****     LV_GRAD_DIR_NONE, /**< No gradient (the `grad_color` property is ignored)*/
 128:..\..\..\arduinoLCD\test\Pain Drain\libraries\lvgl\src\misc/lv_style.h ****     LV_GRAD_DIR_VER,  /**< Vertical (top to bottom) gradient*/
 129:..\..\..\arduinoLCD\test\Pain Drain\libraries\lvgl\src\misc/lv_style.h ****     LV_GRAD_DIR_HOR,  /**< Horizontal (left to right) gradient*/
 130:..\..\..\arduinoLCD\test\Pain Drain\libraries\lvgl\src\misc/lv_style.h **** };
 131:..\..\..\arduinoLCD\test\Pain Drain\libraries\lvgl\src\misc/lv_style.h **** 
 132:..\..\..\arduinoLCD\test\Pain Drain\libraries\lvgl\src\misc/lv_style.h **** typedef uint8_t lv_grad_dir_t;
 133:..\..\..\arduinoLCD\test\Pain Drain\libraries\lvgl\src\misc/lv_style.h **** 
 134:..\..\..\arduinoLCD\test\Pain Drain\libraries\lvgl\src\misc/lv_style.h **** /**
 135:..\..\..\arduinoLCD\test\Pain Drain\libraries\lvgl\src\misc/lv_style.h ****  * The dithering algorithm for the gradient
 136:..\..\..\arduinoLCD\test\Pain Drain\libraries\lvgl\src\misc/lv_style.h ****  * Depends on LV_DITHER_GRADIENT
 137:..\..\..\arduinoLCD\test\Pain Drain\libraries\lvgl\src\misc/lv_style.h ****  */
 138:..\..\..\arduinoLCD\test\Pain Drain\libraries\lvgl\src\misc/lv_style.h **** enum {
 139:..\..\..\arduinoLCD\test\Pain Drain\libraries\lvgl\src\misc/lv_style.h ****     LV_DITHER_NONE,     /**< No dithering, colors are just quantized to the output resolution*/
 140:..\..\..\arduinoLCD\test\Pain Drain\libraries\lvgl\src\misc/lv_style.h ****     LV_DITHER_ORDERED,  /**< Ordered dithering. Faster to compute and use less memory but lower qua
 141:..\..\..\arduinoLCD\test\Pain Drain\libraries\lvgl\src\misc/lv_style.h ****     LV_DITHER_ERR_DIFF, /**< Error diffusion mode. Slower to compute and use more memory but give h
 142:..\..\..\arduinoLCD\test\Pain Drain\libraries\lvgl\src\misc/lv_style.h **** };
 143:..\..\..\arduinoLCD\test\Pain Drain\libraries\lvgl\src\misc/lv_style.h **** 
 144:..\..\..\arduinoLCD\test\Pain Drain\libraries\lvgl\src\misc/lv_style.h **** typedef uint8_t lv_dither_mode_t;
 145:..\..\..\arduinoLCD\test\Pain Drain\libraries\lvgl\src\misc/lv_style.h **** 
 146:..\..\..\arduinoLCD\test\Pain Drain\libraries\lvgl\src\misc/lv_style.h **** /** A gradient stop definition.
 147:..\..\..\arduinoLCD\test\Pain Drain\libraries\lvgl\src\misc/lv_style.h ****  *  This matches a color and a position in a virtual 0-255 scale.
 148:..\..\..\arduinoLCD\test\Pain Drain\libraries\lvgl\src\misc/lv_style.h ****  */
 149:..\..\..\arduinoLCD\test\Pain Drain\libraries\lvgl\src\misc/lv_style.h **** typedef struct {
 150:..\..\..\arduinoLCD\test\Pain Drain\libraries\lvgl\src\misc/lv_style.h ****     lv_color_t color;   /**< The stop color */
 151:..\..\..\arduinoLCD\test\Pain Drain\libraries\lvgl\src\misc/lv_style.h ****     uint8_t    frac;    /**< The stop position in 1/255 unit */
 152:..\..\..\arduinoLCD\test\Pain Drain\libraries\lvgl\src\misc/lv_style.h **** } lv_gradient_stop_t;
 153:..\..\..\arduinoLCD\test\Pain Drain\libraries\lvgl\src\misc/lv_style.h **** 
 154:..\..\..\arduinoLCD\test\Pain Drain\libraries\lvgl\src\misc/lv_style.h **** /** A descriptor of a gradient. */
 155:..\..\..\arduinoLCD\test\Pain Drain\libraries\lvgl\src\misc/lv_style.h **** typedef struct {
 156:..\..\..\arduinoLCD\test\Pain Drain\libraries\lvgl\src\misc/lv_style.h ****     lv_gradient_stop_t   stops[LV_GRADIENT_MAX_STOPS]; /**< A gradient stop array */
 157:..\..\..\arduinoLCD\test\Pain Drain\libraries\lvgl\src\misc/lv_style.h ****     uint8_t              stops_count;                  /**< The number of used stops in the array *
 158:..\..\..\arduinoLCD\test\Pain Drain\libraries\lvgl\src\misc/lv_style.h ****     lv_grad_dir_t        dir : 3;                      /**< The gradient direction.
 159:..\..\..\arduinoLCD\test\Pain Drain\libraries\lvgl\src\misc/lv_style.h ****                                                         * Any of LV_GRAD_DIR_HOR, LV_GRAD_DIR_VER, 
 160:..\..\..\arduinoLCD\test\Pain Drain\libraries\lvgl\src\misc/lv_style.h ****     lv_dither_mode_t     dither : 3;                   /**< Whether to dither the gradient or not.
ARM GAS  C:\Users\haske\AppData\Local\Temp\ccdHxW38.s 			page 38


 161:..\..\..\arduinoLCD\test\Pain Drain\libraries\lvgl\src\misc/lv_style.h ****                                                         * Any of LV_DITHER_NONE, LV_DITHER_ORDERED,
 162:..\..\..\arduinoLCD\test\Pain Drain\libraries\lvgl\src\misc/lv_style.h **** } lv_grad_dsc_t;
 163:..\..\..\arduinoLCD\test\Pain Drain\libraries\lvgl\src\misc/lv_style.h **** 
 164:..\..\..\arduinoLCD\test\Pain Drain\libraries\lvgl\src\misc/lv_style.h **** /**
 165:..\..\..\arduinoLCD\test\Pain Drain\libraries\lvgl\src\misc/lv_style.h ****  * A common type to handle all the property types in the same way.
 166:..\..\..\arduinoLCD\test\Pain Drain\libraries\lvgl\src\misc/lv_style.h ****  */
 167:..\..\..\arduinoLCD\test\Pain Drain\libraries\lvgl\src\misc/lv_style.h **** typedef union {
 168:..\..\..\arduinoLCD\test\Pain Drain\libraries\lvgl\src\misc/lv_style.h ****     int32_t num;         /**< Number integer number (opacity, enums, booleans or "normal" numbers)*
 169:..\..\..\arduinoLCD\test\Pain Drain\libraries\lvgl\src\misc/lv_style.h ****     const void * ptr;    /**< Constant pointers  (font, cone text, etc)*/
 170:..\..\..\arduinoLCD\test\Pain Drain\libraries\lvgl\src\misc/lv_style.h ****     lv_color_t color;    /**< Colors*/
 171:..\..\..\arduinoLCD\test\Pain Drain\libraries\lvgl\src\misc/lv_style.h **** } lv_style_value_t;
 172:..\..\..\arduinoLCD\test\Pain Drain\libraries\lvgl\src\misc/lv_style.h **** 
 173:..\..\..\arduinoLCD\test\Pain Drain\libraries\lvgl\src\misc/lv_style.h **** /**
 174:..\..\..\arduinoLCD\test\Pain Drain\libraries\lvgl\src\misc/lv_style.h ****  * Enumeration of all built in style properties
 175:..\..\..\arduinoLCD\test\Pain Drain\libraries\lvgl\src\misc/lv_style.h ****  *
 176:..\..\..\arduinoLCD\test\Pain Drain\libraries\lvgl\src\misc/lv_style.h ****  * Props are split into groups of 16. When adding a new prop to a group, ensure it does not overflo
 177:..\..\..\arduinoLCD\test\Pain Drain\libraries\lvgl\src\misc/lv_style.h ****  */
 178:..\..\..\arduinoLCD\test\Pain Drain\libraries\lvgl\src\misc/lv_style.h **** typedef enum {
 179:..\..\..\arduinoLCD\test\Pain Drain\libraries\lvgl\src\misc/lv_style.h ****     LV_STYLE_PROP_INV               = 0,
 180:..\..\..\arduinoLCD\test\Pain Drain\libraries\lvgl\src\misc/lv_style.h **** 
 181:..\..\..\arduinoLCD\test\Pain Drain\libraries\lvgl\src\misc/lv_style.h ****     /*Group 0*/
 182:..\..\..\arduinoLCD\test\Pain Drain\libraries\lvgl\src\misc/lv_style.h ****     LV_STYLE_WIDTH                  = 1,
 183:..\..\..\arduinoLCD\test\Pain Drain\libraries\lvgl\src\misc/lv_style.h ****     LV_STYLE_MIN_WIDTH              = 2,
 184:..\..\..\arduinoLCD\test\Pain Drain\libraries\lvgl\src\misc/lv_style.h ****     LV_STYLE_MAX_WIDTH              = 3,
 185:..\..\..\arduinoLCD\test\Pain Drain\libraries\lvgl\src\misc/lv_style.h ****     LV_STYLE_HEIGHT                 = 4,
 186:..\..\..\arduinoLCD\test\Pain Drain\libraries\lvgl\src\misc/lv_style.h ****     LV_STYLE_MIN_HEIGHT             = 5,
 187:..\..\..\arduinoLCD\test\Pain Drain\libraries\lvgl\src\misc/lv_style.h ****     LV_STYLE_MAX_HEIGHT             = 6,
 188:..\..\..\arduinoLCD\test\Pain Drain\libraries\lvgl\src\misc/lv_style.h ****     LV_STYLE_X                      = 7,
 189:..\..\..\arduinoLCD\test\Pain Drain\libraries\lvgl\src\misc/lv_style.h ****     LV_STYLE_Y                      = 8,
 190:..\..\..\arduinoLCD\test\Pain Drain\libraries\lvgl\src\misc/lv_style.h ****     LV_STYLE_ALIGN                  = 9,
 191:..\..\..\arduinoLCD\test\Pain Drain\libraries\lvgl\src\misc/lv_style.h ****     LV_STYLE_LAYOUT                 = 10,
 192:..\..\..\arduinoLCD\test\Pain Drain\libraries\lvgl\src\misc/lv_style.h ****     LV_STYLE_RADIUS                 = 11,
 193:..\..\..\arduinoLCD\test\Pain Drain\libraries\lvgl\src\misc/lv_style.h **** 
 194:..\..\..\arduinoLCD\test\Pain Drain\libraries\lvgl\src\misc/lv_style.h ****     /*Group 1*/
 195:..\..\..\arduinoLCD\test\Pain Drain\libraries\lvgl\src\misc/lv_style.h ****     LV_STYLE_PAD_TOP                = 16,
 196:..\..\..\arduinoLCD\test\Pain Drain\libraries\lvgl\src\misc/lv_style.h ****     LV_STYLE_PAD_BOTTOM             = 17,
 197:..\..\..\arduinoLCD\test\Pain Drain\libraries\lvgl\src\misc/lv_style.h ****     LV_STYLE_PAD_LEFT               = 18,
 198:..\..\..\arduinoLCD\test\Pain Drain\libraries\lvgl\src\misc/lv_style.h ****     LV_STYLE_PAD_RIGHT              = 19,
 199:..\..\..\arduinoLCD\test\Pain Drain\libraries\lvgl\src\misc/lv_style.h ****     LV_STYLE_PAD_ROW                = 20,
 200:..\..\..\arduinoLCD\test\Pain Drain\libraries\lvgl\src\misc/lv_style.h ****     LV_STYLE_PAD_COLUMN             = 21,
 201:..\..\..\arduinoLCD\test\Pain Drain\libraries\lvgl\src\misc/lv_style.h ****     LV_STYLE_BASE_DIR               = 22,
 202:..\..\..\arduinoLCD\test\Pain Drain\libraries\lvgl\src\misc/lv_style.h ****     LV_STYLE_CLIP_CORNER            = 23,
 203:..\..\..\arduinoLCD\test\Pain Drain\libraries\lvgl\src\misc/lv_style.h **** 
 204:..\..\..\arduinoLCD\test\Pain Drain\libraries\lvgl\src\misc/lv_style.h ****     /*Group 2*/
 205:..\..\..\arduinoLCD\test\Pain Drain\libraries\lvgl\src\misc/lv_style.h ****     LV_STYLE_BG_COLOR               = 32,
 206:..\..\..\arduinoLCD\test\Pain Drain\libraries\lvgl\src\misc/lv_style.h ****     LV_STYLE_BG_OPA                 = 33,
 207:..\..\..\arduinoLCD\test\Pain Drain\libraries\lvgl\src\misc/lv_style.h ****     LV_STYLE_BG_GRAD_COLOR          = 34,
 208:..\..\..\arduinoLCD\test\Pain Drain\libraries\lvgl\src\misc/lv_style.h ****     LV_STYLE_BG_GRAD_DIR            = 35,
 209:..\..\..\arduinoLCD\test\Pain Drain\libraries\lvgl\src\misc/lv_style.h ****     LV_STYLE_BG_MAIN_STOP           = 36,
 210:..\..\..\arduinoLCD\test\Pain Drain\libraries\lvgl\src\misc/lv_style.h ****     LV_STYLE_BG_GRAD_STOP           = 37,
 211:..\..\..\arduinoLCD\test\Pain Drain\libraries\lvgl\src\misc/lv_style.h ****     LV_STYLE_BG_GRAD                = 38,
 212:..\..\..\arduinoLCD\test\Pain Drain\libraries\lvgl\src\misc/lv_style.h ****     LV_STYLE_BG_DITHER_MODE         = 39,
 213:..\..\..\arduinoLCD\test\Pain Drain\libraries\lvgl\src\misc/lv_style.h ****     LV_STYLE_BG_IMG_SRC             = 40,
 214:..\..\..\arduinoLCD\test\Pain Drain\libraries\lvgl\src\misc/lv_style.h ****     LV_STYLE_BG_IMG_OPA             = 41,
 215:..\..\..\arduinoLCD\test\Pain Drain\libraries\lvgl\src\misc/lv_style.h ****     LV_STYLE_BG_IMG_RECOLOR         = 42,
 216:..\..\..\arduinoLCD\test\Pain Drain\libraries\lvgl\src\misc/lv_style.h ****     LV_STYLE_BG_IMG_RECOLOR_OPA     = 43,
 217:..\..\..\arduinoLCD\test\Pain Drain\libraries\lvgl\src\misc/lv_style.h ****     LV_STYLE_BG_IMG_TILED           = 44,
ARM GAS  C:\Users\haske\AppData\Local\Temp\ccdHxW38.s 			page 39


 218:..\..\..\arduinoLCD\test\Pain Drain\libraries\lvgl\src\misc/lv_style.h **** 
 219:..\..\..\arduinoLCD\test\Pain Drain\libraries\lvgl\src\misc/lv_style.h ****     /*Group 3*/
 220:..\..\..\arduinoLCD\test\Pain Drain\libraries\lvgl\src\misc/lv_style.h ****     LV_STYLE_BORDER_COLOR           = 48,
 221:..\..\..\arduinoLCD\test\Pain Drain\libraries\lvgl\src\misc/lv_style.h ****     LV_STYLE_BORDER_OPA             = 49,
 222:..\..\..\arduinoLCD\test\Pain Drain\libraries\lvgl\src\misc/lv_style.h ****     LV_STYLE_BORDER_WIDTH           = 50,
 223:..\..\..\arduinoLCD\test\Pain Drain\libraries\lvgl\src\misc/lv_style.h ****     LV_STYLE_BORDER_SIDE            = 51,
 224:..\..\..\arduinoLCD\test\Pain Drain\libraries\lvgl\src\misc/lv_style.h ****     LV_STYLE_BORDER_POST            = 52,
 225:..\..\..\arduinoLCD\test\Pain Drain\libraries\lvgl\src\misc/lv_style.h ****     LV_STYLE_OUTLINE_WIDTH          = 53,
 226:..\..\..\arduinoLCD\test\Pain Drain\libraries\lvgl\src\misc/lv_style.h ****     LV_STYLE_OUTLINE_COLOR          = 54,
 227:..\..\..\arduinoLCD\test\Pain Drain\libraries\lvgl\src\misc/lv_style.h ****     LV_STYLE_OUTLINE_OPA            = 55,
 228:..\..\..\arduinoLCD\test\Pain Drain\libraries\lvgl\src\misc/lv_style.h ****     LV_STYLE_OUTLINE_PAD            = 56,
 229:..\..\..\arduinoLCD\test\Pain Drain\libraries\lvgl\src\misc/lv_style.h **** 
 230:..\..\..\arduinoLCD\test\Pain Drain\libraries\lvgl\src\misc/lv_style.h ****     /*Group 4*/
 231:..\..\..\arduinoLCD\test\Pain Drain\libraries\lvgl\src\misc/lv_style.h ****     LV_STYLE_SHADOW_WIDTH           = 64,
 232:..\..\..\arduinoLCD\test\Pain Drain\libraries\lvgl\src\misc/lv_style.h ****     LV_STYLE_SHADOW_OFS_X           = 65,
 233:..\..\..\arduinoLCD\test\Pain Drain\libraries\lvgl\src\misc/lv_style.h ****     LV_STYLE_SHADOW_OFS_Y           = 66,
 234:..\..\..\arduinoLCD\test\Pain Drain\libraries\lvgl\src\misc/lv_style.h ****     LV_STYLE_SHADOW_SPREAD          = 67,
 235:..\..\..\arduinoLCD\test\Pain Drain\libraries\lvgl\src\misc/lv_style.h ****     LV_STYLE_SHADOW_COLOR           = 68,
 236:..\..\..\arduinoLCD\test\Pain Drain\libraries\lvgl\src\misc/lv_style.h ****     LV_STYLE_SHADOW_OPA             = 69,
 237:..\..\..\arduinoLCD\test\Pain Drain\libraries\lvgl\src\misc/lv_style.h ****     LV_STYLE_IMG_OPA                = 70,
 238:..\..\..\arduinoLCD\test\Pain Drain\libraries\lvgl\src\misc/lv_style.h ****     LV_STYLE_IMG_RECOLOR            = 71,
 239:..\..\..\arduinoLCD\test\Pain Drain\libraries\lvgl\src\misc/lv_style.h ****     LV_STYLE_IMG_RECOLOR_OPA        = 72,
 240:..\..\..\arduinoLCD\test\Pain Drain\libraries\lvgl\src\misc/lv_style.h ****     LV_STYLE_LINE_WIDTH             = 73,
 241:..\..\..\arduinoLCD\test\Pain Drain\libraries\lvgl\src\misc/lv_style.h ****     LV_STYLE_LINE_DASH_WIDTH        = 74,
 242:..\..\..\arduinoLCD\test\Pain Drain\libraries\lvgl\src\misc/lv_style.h ****     LV_STYLE_LINE_DASH_GAP          = 75,
 243:..\..\..\arduinoLCD\test\Pain Drain\libraries\lvgl\src\misc/lv_style.h ****     LV_STYLE_LINE_ROUNDED           = 76,
 244:..\..\..\arduinoLCD\test\Pain Drain\libraries\lvgl\src\misc/lv_style.h ****     LV_STYLE_LINE_COLOR             = 77,
 245:..\..\..\arduinoLCD\test\Pain Drain\libraries\lvgl\src\misc/lv_style.h ****     LV_STYLE_LINE_OPA               = 78,
 246:..\..\..\arduinoLCD\test\Pain Drain\libraries\lvgl\src\misc/lv_style.h **** 
 247:..\..\..\arduinoLCD\test\Pain Drain\libraries\lvgl\src\misc/lv_style.h ****     /*Group 5*/
 248:..\..\..\arduinoLCD\test\Pain Drain\libraries\lvgl\src\misc/lv_style.h ****     LV_STYLE_ARC_WIDTH              = 80,
 249:..\..\..\arduinoLCD\test\Pain Drain\libraries\lvgl\src\misc/lv_style.h ****     LV_STYLE_ARC_ROUNDED            = 81,
 250:..\..\..\arduinoLCD\test\Pain Drain\libraries\lvgl\src\misc/lv_style.h ****     LV_STYLE_ARC_COLOR              = 82,
 251:..\..\..\arduinoLCD\test\Pain Drain\libraries\lvgl\src\misc/lv_style.h ****     LV_STYLE_ARC_OPA                = 83,
 252:..\..\..\arduinoLCD\test\Pain Drain\libraries\lvgl\src\misc/lv_style.h ****     LV_STYLE_ARC_IMG_SRC            = 84,
 253:..\..\..\arduinoLCD\test\Pain Drain\libraries\lvgl\src\misc/lv_style.h ****     LV_STYLE_TEXT_COLOR             = 85,
 254:..\..\..\arduinoLCD\test\Pain Drain\libraries\lvgl\src\misc/lv_style.h ****     LV_STYLE_TEXT_OPA               = 86,
 255:..\..\..\arduinoLCD\test\Pain Drain\libraries\lvgl\src\misc/lv_style.h ****     LV_STYLE_TEXT_FONT              = 87,
 256:..\..\..\arduinoLCD\test\Pain Drain\libraries\lvgl\src\misc/lv_style.h ****     LV_STYLE_TEXT_LETTER_SPACE      = 88,
 257:..\..\..\arduinoLCD\test\Pain Drain\libraries\lvgl\src\misc/lv_style.h ****     LV_STYLE_TEXT_LINE_SPACE        = 89,
 258:..\..\..\arduinoLCD\test\Pain Drain\libraries\lvgl\src\misc/lv_style.h ****     LV_STYLE_TEXT_DECOR             = 90,
 259:..\..\..\arduinoLCD\test\Pain Drain\libraries\lvgl\src\misc/lv_style.h ****     LV_STYLE_TEXT_ALIGN             = 91,
 260:..\..\..\arduinoLCD\test\Pain Drain\libraries\lvgl\src\misc/lv_style.h **** 
 261:..\..\..\arduinoLCD\test\Pain Drain\libraries\lvgl\src\misc/lv_style.h ****     /*Group 6*/
 262:..\..\..\arduinoLCD\test\Pain Drain\libraries\lvgl\src\misc/lv_style.h ****     LV_STYLE_OPA                    = 96,
 263:..\..\..\arduinoLCD\test\Pain Drain\libraries\lvgl\src\misc/lv_style.h ****     LV_STYLE_COLOR_FILTER_DSC       = 97,
 264:..\..\..\arduinoLCD\test\Pain Drain\libraries\lvgl\src\misc/lv_style.h ****     LV_STYLE_COLOR_FILTER_OPA       = 98,
 265:..\..\..\arduinoLCD\test\Pain Drain\libraries\lvgl\src\misc/lv_style.h ****     LV_STYLE_ANIM                   = 99,
 266:..\..\..\arduinoLCD\test\Pain Drain\libraries\lvgl\src\misc/lv_style.h ****     LV_STYLE_ANIM_TIME              = 100,
 267:..\..\..\arduinoLCD\test\Pain Drain\libraries\lvgl\src\misc/lv_style.h ****     LV_STYLE_ANIM_SPEED             = 101,
 268:..\..\..\arduinoLCD\test\Pain Drain\libraries\lvgl\src\misc/lv_style.h ****     LV_STYLE_TRANSITION             = 102,
 269:..\..\..\arduinoLCD\test\Pain Drain\libraries\lvgl\src\misc/lv_style.h ****     LV_STYLE_BLEND_MODE             = 103,
 270:..\..\..\arduinoLCD\test\Pain Drain\libraries\lvgl\src\misc/lv_style.h ****     LV_STYLE_TRANSFORM_WIDTH        = 104,
 271:..\..\..\arduinoLCD\test\Pain Drain\libraries\lvgl\src\misc/lv_style.h ****     LV_STYLE_TRANSFORM_HEIGHT       = 105,
 272:..\..\..\arduinoLCD\test\Pain Drain\libraries\lvgl\src\misc/lv_style.h ****     LV_STYLE_TRANSLATE_X            = 106,
 273:..\..\..\arduinoLCD\test\Pain Drain\libraries\lvgl\src\misc/lv_style.h ****     LV_STYLE_TRANSLATE_Y            = 107,
 274:..\..\..\arduinoLCD\test\Pain Drain\libraries\lvgl\src\misc/lv_style.h ****     LV_STYLE_TRANSFORM_ZOOM         = 108,
ARM GAS  C:\Users\haske\AppData\Local\Temp\ccdHxW38.s 			page 40


 275:..\..\..\arduinoLCD\test\Pain Drain\libraries\lvgl\src\misc/lv_style.h ****     LV_STYLE_TRANSFORM_ANGLE        = 109,
 276:..\..\..\arduinoLCD\test\Pain Drain\libraries\lvgl\src\misc/lv_style.h ****     LV_STYLE_TRANSFORM_PIVOT_X      = 110,
 277:..\..\..\arduinoLCD\test\Pain Drain\libraries\lvgl\src\misc/lv_style.h ****     LV_STYLE_TRANSFORM_PIVOT_Y      = 111,
 278:..\..\..\arduinoLCD\test\Pain Drain\libraries\lvgl\src\misc/lv_style.h **** 
 279:..\..\..\arduinoLCD\test\Pain Drain\libraries\lvgl\src\misc/lv_style.h ****     _LV_STYLE_LAST_BUILT_IN_PROP     = 111,
 280:..\..\..\arduinoLCD\test\Pain Drain\libraries\lvgl\src\misc/lv_style.h ****     _LV_STYLE_NUM_BUILT_IN_PROPS     = _LV_STYLE_LAST_BUILT_IN_PROP + 1,
 281:..\..\..\arduinoLCD\test\Pain Drain\libraries\lvgl\src\misc/lv_style.h **** 
 282:..\..\..\arduinoLCD\test\Pain Drain\libraries\lvgl\src\misc/lv_style.h ****     LV_STYLE_PROP_ANY                = 0xFFFF,
 283:..\..\..\arduinoLCD\test\Pain Drain\libraries\lvgl\src\misc/lv_style.h ****     _LV_STYLE_PROP_CONST             = 0xFFFF /* magic value for const styles */
 284:..\..\..\arduinoLCD\test\Pain Drain\libraries\lvgl\src\misc/lv_style.h **** } lv_style_prop_t;
 285:..\..\..\arduinoLCD\test\Pain Drain\libraries\lvgl\src\misc/lv_style.h **** 
 286:..\..\..\arduinoLCD\test\Pain Drain\libraries\lvgl\src\misc/lv_style.h **** enum {
 287:..\..\..\arduinoLCD\test\Pain Drain\libraries\lvgl\src\misc/lv_style.h ****     LV_STYLE_RES_NOT_FOUND,
 288:..\..\..\arduinoLCD\test\Pain Drain\libraries\lvgl\src\misc/lv_style.h ****     LV_STYLE_RES_FOUND,
 289:..\..\..\arduinoLCD\test\Pain Drain\libraries\lvgl\src\misc/lv_style.h ****     LV_STYLE_RES_INHERIT
 290:..\..\..\arduinoLCD\test\Pain Drain\libraries\lvgl\src\misc/lv_style.h **** };
 291:..\..\..\arduinoLCD\test\Pain Drain\libraries\lvgl\src\misc/lv_style.h **** 
 292:..\..\..\arduinoLCD\test\Pain Drain\libraries\lvgl\src\misc/lv_style.h **** typedef uint8_t lv_style_res_t;
 293:..\..\..\arduinoLCD\test\Pain Drain\libraries\lvgl\src\misc/lv_style.h **** 
 294:..\..\..\arduinoLCD\test\Pain Drain\libraries\lvgl\src\misc/lv_style.h **** /**
 295:..\..\..\arduinoLCD\test\Pain Drain\libraries\lvgl\src\misc/lv_style.h ****  * Descriptor for style transitions
 296:..\..\..\arduinoLCD\test\Pain Drain\libraries\lvgl\src\misc/lv_style.h ****  */
 297:..\..\..\arduinoLCD\test\Pain Drain\libraries\lvgl\src\misc/lv_style.h **** typedef struct {
 298:..\..\..\arduinoLCD\test\Pain Drain\libraries\lvgl\src\misc/lv_style.h ****     const lv_style_prop_t * props; /**< An array with the properties to animate.*/
 299:..\..\..\arduinoLCD\test\Pain Drain\libraries\lvgl\src\misc/lv_style.h **** #if LV_USE_USER_DATA
 300:..\..\..\arduinoLCD\test\Pain Drain\libraries\lvgl\src\misc/lv_style.h ****     void * user_data;              /**< A custom user data that will be passed to the animation's u
 301:..\..\..\arduinoLCD\test\Pain Drain\libraries\lvgl\src\misc/lv_style.h **** #endif
 302:..\..\..\arduinoLCD\test\Pain Drain\libraries\lvgl\src\misc/lv_style.h ****     lv_anim_path_cb_t path_xcb;     /**< A path for the animation.*/
 303:..\..\..\arduinoLCD\test\Pain Drain\libraries\lvgl\src\misc/lv_style.h ****     uint32_t time;                 /**< Duration of the transition in [ms]*/
 304:..\..\..\arduinoLCD\test\Pain Drain\libraries\lvgl\src\misc/lv_style.h ****     uint32_t delay;                /**< Delay before the transition in [ms]*/
 305:..\..\..\arduinoLCD\test\Pain Drain\libraries\lvgl\src\misc/lv_style.h **** } lv_style_transition_dsc_t;
 306:..\..\..\arduinoLCD\test\Pain Drain\libraries\lvgl\src\misc/lv_style.h **** 
 307:..\..\..\arduinoLCD\test\Pain Drain\libraries\lvgl\src\misc/lv_style.h **** /**
 308:..\..\..\arduinoLCD\test\Pain Drain\libraries\lvgl\src\misc/lv_style.h ****  * Descriptor of a constant style property.
 309:..\..\..\arduinoLCD\test\Pain Drain\libraries\lvgl\src\misc/lv_style.h ****  */
 310:..\..\..\arduinoLCD\test\Pain Drain\libraries\lvgl\src\misc/lv_style.h **** typedef struct {
 311:..\..\..\arduinoLCD\test\Pain Drain\libraries\lvgl\src\misc/lv_style.h ****     lv_style_prop_t prop;
 312:..\..\..\arduinoLCD\test\Pain Drain\libraries\lvgl\src\misc/lv_style.h ****     lv_style_value_t value;
 313:..\..\..\arduinoLCD\test\Pain Drain\libraries\lvgl\src\misc/lv_style.h **** } lv_style_const_prop_t;
 314:..\..\..\arduinoLCD\test\Pain Drain\libraries\lvgl\src\misc/lv_style.h **** 
 315:..\..\..\arduinoLCD\test\Pain Drain\libraries\lvgl\src\misc/lv_style.h **** /**
 316:..\..\..\arduinoLCD\test\Pain Drain\libraries\lvgl\src\misc/lv_style.h ****  * Descriptor of a style (a collection of properties and values).
 317:..\..\..\arduinoLCD\test\Pain Drain\libraries\lvgl\src\misc/lv_style.h ****  */
 318:..\..\..\arduinoLCD\test\Pain Drain\libraries\lvgl\src\misc/lv_style.h **** typedef struct {
 319:..\..\..\arduinoLCD\test\Pain Drain\libraries\lvgl\src\misc/lv_style.h **** 
 320:..\..\..\arduinoLCD\test\Pain Drain\libraries\lvgl\src\misc/lv_style.h **** #if LV_USE_ASSERT_STYLE
 321:..\..\..\arduinoLCD\test\Pain Drain\libraries\lvgl\src\misc/lv_style.h ****     uint32_t sentinel;
 322:..\..\..\arduinoLCD\test\Pain Drain\libraries\lvgl\src\misc/lv_style.h **** #endif
 323:..\..\..\arduinoLCD\test\Pain Drain\libraries\lvgl\src\misc/lv_style.h **** 
 324:..\..\..\arduinoLCD\test\Pain Drain\libraries\lvgl\src\misc/lv_style.h ****     /*If there is only one property store it directly.
 325:..\..\..\arduinoLCD\test\Pain Drain\libraries\lvgl\src\misc/lv_style.h ****      *For more properties allocate an array*/
 326:..\..\..\arduinoLCD\test\Pain Drain\libraries\lvgl\src\misc/lv_style.h ****     union {
 327:..\..\..\arduinoLCD\test\Pain Drain\libraries\lvgl\src\misc/lv_style.h ****         lv_style_value_t value1;
 328:..\..\..\arduinoLCD\test\Pain Drain\libraries\lvgl\src\misc/lv_style.h ****         uint8_t * values_and_props;
 329:..\..\..\arduinoLCD\test\Pain Drain\libraries\lvgl\src\misc/lv_style.h ****         const lv_style_const_prop_t * const_props;
 330:..\..\..\arduinoLCD\test\Pain Drain\libraries\lvgl\src\misc/lv_style.h ****     } v_p;
 331:..\..\..\arduinoLCD\test\Pain Drain\libraries\lvgl\src\misc/lv_style.h **** 
ARM GAS  C:\Users\haske\AppData\Local\Temp\ccdHxW38.s 			page 41


 332:..\..\..\arduinoLCD\test\Pain Drain\libraries\lvgl\src\misc/lv_style.h ****     uint16_t prop1;
 333:..\..\..\arduinoLCD\test\Pain Drain\libraries\lvgl\src\misc/lv_style.h ****     uint8_t has_group;
 334:..\..\..\arduinoLCD\test\Pain Drain\libraries\lvgl\src\misc/lv_style.h ****     uint8_t prop_cnt;
 335:..\..\..\arduinoLCD\test\Pain Drain\libraries\lvgl\src\misc/lv_style.h **** } lv_style_t;
 336:..\..\..\arduinoLCD\test\Pain Drain\libraries\lvgl\src\misc/lv_style.h **** 
 337:..\..\..\arduinoLCD\test\Pain Drain\libraries\lvgl\src\misc/lv_style.h **** /**********************
 338:..\..\..\arduinoLCD\test\Pain Drain\libraries\lvgl\src\misc/lv_style.h ****  * GLOBAL PROTOTYPES
 339:..\..\..\arduinoLCD\test\Pain Drain\libraries\lvgl\src\misc/lv_style.h ****  **********************/
 340:..\..\..\arduinoLCD\test\Pain Drain\libraries\lvgl\src\misc/lv_style.h **** 
 341:..\..\..\arduinoLCD\test\Pain Drain\libraries\lvgl\src\misc/lv_style.h **** 
 342:..\..\..\arduinoLCD\test\Pain Drain\libraries\lvgl\src\misc/lv_style.h **** /**
 343:..\..\..\arduinoLCD\test\Pain Drain\libraries\lvgl\src\misc/lv_style.h ****  * Initialize a style
 344:..\..\..\arduinoLCD\test\Pain Drain\libraries\lvgl\src\misc/lv_style.h ****  * @param style pointer to a style to initialize
 345:..\..\..\arduinoLCD\test\Pain Drain\libraries\lvgl\src\misc/lv_style.h ****  * @note Do not call `lv_style_init` on styles that already have some properties
 346:..\..\..\arduinoLCD\test\Pain Drain\libraries\lvgl\src\misc/lv_style.h ****  *       because this function won't free the used memory, just sets a default state for the style.
 347:..\..\..\arduinoLCD\test\Pain Drain\libraries\lvgl\src\misc/lv_style.h ****  *       In other words be sure to initialize styles only once!
 348:..\..\..\arduinoLCD\test\Pain Drain\libraries\lvgl\src\misc/lv_style.h ****  */
 349:..\..\..\arduinoLCD\test\Pain Drain\libraries\lvgl\src\misc/lv_style.h **** void lv_style_init(lv_style_t * style);
 350:..\..\..\arduinoLCD\test\Pain Drain\libraries\lvgl\src\misc/lv_style.h **** 
 351:..\..\..\arduinoLCD\test\Pain Drain\libraries\lvgl\src\misc/lv_style.h **** /**
 352:..\..\..\arduinoLCD\test\Pain Drain\libraries\lvgl\src\misc/lv_style.h ****  * Clear all properties from a style and free all allocated memories.
 353:..\..\..\arduinoLCD\test\Pain Drain\libraries\lvgl\src\misc/lv_style.h ****  * @param style pointer to a style
 354:..\..\..\arduinoLCD\test\Pain Drain\libraries\lvgl\src\misc/lv_style.h ****  */
 355:..\..\..\arduinoLCD\test\Pain Drain\libraries\lvgl\src\misc/lv_style.h **** void lv_style_reset(lv_style_t * style);
 356:..\..\..\arduinoLCD\test\Pain Drain\libraries\lvgl\src\misc/lv_style.h **** 
 357:..\..\..\arduinoLCD\test\Pain Drain\libraries\lvgl\src\misc/lv_style.h **** /**
 358:..\..\..\arduinoLCD\test\Pain Drain\libraries\lvgl\src\misc/lv_style.h ****  * Register a new style property for custom usage
 359:..\..\..\arduinoLCD\test\Pain Drain\libraries\lvgl\src\misc/lv_style.h ****  * @return a new property ID, or LV_STYLE_PROP_INV if there are no more available.
 360:..\..\..\arduinoLCD\test\Pain Drain\libraries\lvgl\src\misc/lv_style.h ****  * @example
 361:..\..\..\arduinoLCD\test\Pain Drain\libraries\lvgl\src\misc/lv_style.h ****  * lv_style_prop_t MY_PROP;
 362:..\..\..\arduinoLCD\test\Pain Drain\libraries\lvgl\src\misc/lv_style.h ****  * static inline void lv_style_set_my_prop(lv_style_t * style, lv_color_t value) {
 363:..\..\..\arduinoLCD\test\Pain Drain\libraries\lvgl\src\misc/lv_style.h ****  * lv_style_value_t v = {.color = value}; lv_style_set_prop(style, MY_PROP, v); }
 364:..\..\..\arduinoLCD\test\Pain Drain\libraries\lvgl\src\misc/lv_style.h ****  *
 365:..\..\..\arduinoLCD\test\Pain Drain\libraries\lvgl\src\misc/lv_style.h ****  * ...
 366:..\..\..\arduinoLCD\test\Pain Drain\libraries\lvgl\src\misc/lv_style.h ****  * MY_PROP = lv_style_register_prop();
 367:..\..\..\arduinoLCD\test\Pain Drain\libraries\lvgl\src\misc/lv_style.h ****  * ...
 368:..\..\..\arduinoLCD\test\Pain Drain\libraries\lvgl\src\misc/lv_style.h ****  * lv_style_set_my_prop(&style1, lv_palette_main(LV_PALETTE_RED));
 369:..\..\..\arduinoLCD\test\Pain Drain\libraries\lvgl\src\misc/lv_style.h ****  */
 370:..\..\..\arduinoLCD\test\Pain Drain\libraries\lvgl\src\misc/lv_style.h **** lv_style_prop_t lv_style_register_prop(uint8_t flag);
 371:..\..\..\arduinoLCD\test\Pain Drain\libraries\lvgl\src\misc/lv_style.h **** 
 372:..\..\..\arduinoLCD\test\Pain Drain\libraries\lvgl\src\misc/lv_style.h **** /**
 373:..\..\..\arduinoLCD\test\Pain Drain\libraries\lvgl\src\misc/lv_style.h ****  * Get the number of custom properties that have been registered thus far.
 374:..\..\..\arduinoLCD\test\Pain Drain\libraries\lvgl\src\misc/lv_style.h ****  */
 375:..\..\..\arduinoLCD\test\Pain Drain\libraries\lvgl\src\misc/lv_style.h **** lv_style_prop_t lv_style_get_num_custom_props(void);
 376:..\..\..\arduinoLCD\test\Pain Drain\libraries\lvgl\src\misc/lv_style.h **** 
 377:..\..\..\arduinoLCD\test\Pain Drain\libraries\lvgl\src\misc/lv_style.h **** /**
 378:..\..\..\arduinoLCD\test\Pain Drain\libraries\lvgl\src\misc/lv_style.h ****  * Remove a property from a style
 379:..\..\..\arduinoLCD\test\Pain Drain\libraries\lvgl\src\misc/lv_style.h ****  * @param style pointer to a style
 380:..\..\..\arduinoLCD\test\Pain Drain\libraries\lvgl\src\misc/lv_style.h ****  * @param prop  a style property ORed with a state.
 381:..\..\..\arduinoLCD\test\Pain Drain\libraries\lvgl\src\misc/lv_style.h ****  * @return true: the property was found and removed; false: the property wasn't found
 382:..\..\..\arduinoLCD\test\Pain Drain\libraries\lvgl\src\misc/lv_style.h ****  */
 383:..\..\..\arduinoLCD\test\Pain Drain\libraries\lvgl\src\misc/lv_style.h **** bool lv_style_remove_prop(lv_style_t * style, lv_style_prop_t prop);
 384:..\..\..\arduinoLCD\test\Pain Drain\libraries\lvgl\src\misc/lv_style.h **** 
 385:..\..\..\arduinoLCD\test\Pain Drain\libraries\lvgl\src\misc/lv_style.h **** /**
 386:..\..\..\arduinoLCD\test\Pain Drain\libraries\lvgl\src\misc/lv_style.h ****  * Set the value of property in a style.
 387:..\..\..\arduinoLCD\test\Pain Drain\libraries\lvgl\src\misc/lv_style.h ****  * This function shouldn't be used directly by the user.
 388:..\..\..\arduinoLCD\test\Pain Drain\libraries\lvgl\src\misc/lv_style.h ****  * Instead use `lv_style_set_<prop_name>()`. E.g. `lv_style_set_bg_color()`
ARM GAS  C:\Users\haske\AppData\Local\Temp\ccdHxW38.s 			page 42


 389:..\..\..\arduinoLCD\test\Pain Drain\libraries\lvgl\src\misc/lv_style.h ****  * @param style pointer to style
 390:..\..\..\arduinoLCD\test\Pain Drain\libraries\lvgl\src\misc/lv_style.h ****  * @param prop the ID of a property (e.g. `LV_STYLE_BG_COLOR`)
 391:..\..\..\arduinoLCD\test\Pain Drain\libraries\lvgl\src\misc/lv_style.h ****  * @param value `lv_style_value_t` variable in which a field is set according to the type of `prop`
 392:..\..\..\arduinoLCD\test\Pain Drain\libraries\lvgl\src\misc/lv_style.h ****  */
 393:..\..\..\arduinoLCD\test\Pain Drain\libraries\lvgl\src\misc/lv_style.h **** void lv_style_set_prop(lv_style_t * style, lv_style_prop_t prop, lv_style_value_t value);
 394:..\..\..\arduinoLCD\test\Pain Drain\libraries\lvgl\src\misc/lv_style.h **** 
 395:..\..\..\arduinoLCD\test\Pain Drain\libraries\lvgl\src\misc/lv_style.h **** /**
 396:..\..\..\arduinoLCD\test\Pain Drain\libraries\lvgl\src\misc/lv_style.h ****  * Set a special meta state for a property in a style.
 397:..\..\..\arduinoLCD\test\Pain Drain\libraries\lvgl\src\misc/lv_style.h ****  * This function shouldn't be used directly by the user.
 398:..\..\..\arduinoLCD\test\Pain Drain\libraries\lvgl\src\misc/lv_style.h ****  * @param style pointer to style
 399:..\..\..\arduinoLCD\test\Pain Drain\libraries\lvgl\src\misc/lv_style.h ****  * @param prop the ID of a property (e.g. `LV_STYLE_BG_COLOR`)
 400:..\..\..\arduinoLCD\test\Pain Drain\libraries\lvgl\src\misc/lv_style.h ****  * @param meta the meta value to attach to the property in the style
 401:..\..\..\arduinoLCD\test\Pain Drain\libraries\lvgl\src\misc/lv_style.h ****  */
 402:..\..\..\arduinoLCD\test\Pain Drain\libraries\lvgl\src\misc/lv_style.h **** void lv_style_set_prop_meta(lv_style_t * style, lv_style_prop_t prop, uint16_t meta);
 403:..\..\..\arduinoLCD\test\Pain Drain\libraries\lvgl\src\misc/lv_style.h **** 
 404:..\..\..\arduinoLCD\test\Pain Drain\libraries\lvgl\src\misc/lv_style.h **** /**
 405:..\..\..\arduinoLCD\test\Pain Drain\libraries\lvgl\src\misc/lv_style.h ****  * Get the value of a property
 406:..\..\..\arduinoLCD\test\Pain Drain\libraries\lvgl\src\misc/lv_style.h ****  * @param style pointer to a style
 407:..\..\..\arduinoLCD\test\Pain Drain\libraries\lvgl\src\misc/lv_style.h ****  * @param prop  the ID of a property
 408:..\..\..\arduinoLCD\test\Pain Drain\libraries\lvgl\src\misc/lv_style.h ****  * @param value pointer to a `lv_style_value_t` variable to store the value
 409:..\..\..\arduinoLCD\test\Pain Drain\libraries\lvgl\src\misc/lv_style.h ****  * @return LV_RES_INV: the property wasn't found in the style (`value` is unchanged)
 410:..\..\..\arduinoLCD\test\Pain Drain\libraries\lvgl\src\misc/lv_style.h ****  *         LV_RES_OK: the property was fond, and `value` is set accordingly
 411:..\..\..\arduinoLCD\test\Pain Drain\libraries\lvgl\src\misc/lv_style.h ****  * @note For performance reasons there are no sanity check on `style`
 412:..\..\..\arduinoLCD\test\Pain Drain\libraries\lvgl\src\misc/lv_style.h ****  */
 413:..\..\..\arduinoLCD\test\Pain Drain\libraries\lvgl\src\misc/lv_style.h **** lv_style_res_t lv_style_get_prop(const lv_style_t * style, lv_style_prop_t prop, lv_style_value_t *
 414:..\..\..\arduinoLCD\test\Pain Drain\libraries\lvgl\src\misc/lv_style.h **** 
 415:..\..\..\arduinoLCD\test\Pain Drain\libraries\lvgl\src\misc/lv_style.h **** /**
 416:..\..\..\arduinoLCD\test\Pain Drain\libraries\lvgl\src\misc/lv_style.h ****  * Initialize a transition descriptor.
 417:..\..\..\arduinoLCD\test\Pain Drain\libraries\lvgl\src\misc/lv_style.h ****  * @param tr        pointer to a transition descriptor to initialize
 418:..\..\..\arduinoLCD\test\Pain Drain\libraries\lvgl\src\misc/lv_style.h ****  * @param props     an array with the properties to transition. The last element must be zero.
 419:..\..\..\arduinoLCD\test\Pain Drain\libraries\lvgl\src\misc/lv_style.h ****  * @param path_cb   an animation path (ease) callback. If `NULL` liner path will be used.
 420:..\..\..\arduinoLCD\test\Pain Drain\libraries\lvgl\src\misc/lv_style.h ****  * @param time      duration of the transition in [ms]
 421:..\..\..\arduinoLCD\test\Pain Drain\libraries\lvgl\src\misc/lv_style.h ****  * @param delay     delay before the transition in [ms]
 422:..\..\..\arduinoLCD\test\Pain Drain\libraries\lvgl\src\misc/lv_style.h ****  * @param user_data any custom data that will be saved in the transition animation and will be avai
 423:..\..\..\arduinoLCD\test\Pain Drain\libraries\lvgl\src\misc/lv_style.h ****  * @example
 424:..\..\..\arduinoLCD\test\Pain Drain\libraries\lvgl\src\misc/lv_style.h ****  * const static lv_style_prop_t trans_props[] = { LV_STYLE_BG_OPA, LV_STYLE_BG_COLOR, 0 };
 425:..\..\..\arduinoLCD\test\Pain Drain\libraries\lvgl\src\misc/lv_style.h ****  *  static lv_style_transition_dsc_t trans1;
 426:..\..\..\arduinoLCD\test\Pain Drain\libraries\lvgl\src\misc/lv_style.h ****  *  lv_style_transition_dsc_init(&trans1, trans_props, NULL, 300, 0, NULL);
 427:..\..\..\arduinoLCD\test\Pain Drain\libraries\lvgl\src\misc/lv_style.h ****  */
 428:..\..\..\arduinoLCD\test\Pain Drain\libraries\lvgl\src\misc/lv_style.h **** void lv_style_transition_dsc_init(lv_style_transition_dsc_t * tr, const lv_style_prop_t props[],
 429:..\..\..\arduinoLCD\test\Pain Drain\libraries\lvgl\src\misc/lv_style.h ****                                   lv_anim_path_cb_t path_cb, uint32_t time, uint32_t delay, void * 
 430:..\..\..\arduinoLCD\test\Pain Drain\libraries\lvgl\src\misc/lv_style.h **** 
 431:..\..\..\arduinoLCD\test\Pain Drain\libraries\lvgl\src\misc/lv_style.h **** /**
 432:..\..\..\arduinoLCD\test\Pain Drain\libraries\lvgl\src\misc/lv_style.h ****  * Get the default value of a property
 433:..\..\..\arduinoLCD\test\Pain Drain\libraries\lvgl\src\misc/lv_style.h ****  * @param prop the ID of a property
 434:..\..\..\arduinoLCD\test\Pain Drain\libraries\lvgl\src\misc/lv_style.h ****  * @return the default value
 435:..\..\..\arduinoLCD\test\Pain Drain\libraries\lvgl\src\misc/lv_style.h ****  */
 436:..\..\..\arduinoLCD\test\Pain Drain\libraries\lvgl\src\misc/lv_style.h **** lv_style_value_t lv_style_prop_get_default(lv_style_prop_t prop);
 437:..\..\..\arduinoLCD\test\Pain Drain\libraries\lvgl\src\misc/lv_style.h **** 
 438:..\..\..\arduinoLCD\test\Pain Drain\libraries\lvgl\src\misc/lv_style.h **** /**
 439:..\..\..\arduinoLCD\test\Pain Drain\libraries\lvgl\src\misc/lv_style.h ****  * Get the value of a property
 440:..\..\..\arduinoLCD\test\Pain Drain\libraries\lvgl\src\misc/lv_style.h ****  * @param style pointer to a style
 441:..\..\..\arduinoLCD\test\Pain Drain\libraries\lvgl\src\misc/lv_style.h ****  * @param prop  the ID of a property
 442:..\..\..\arduinoLCD\test\Pain Drain\libraries\lvgl\src\misc/lv_style.h ****  * @param value pointer to a `lv_style_value_t` variable to store the value
 443:..\..\..\arduinoLCD\test\Pain Drain\libraries\lvgl\src\misc/lv_style.h ****  * @return LV_RES_INV: the property wasn't found in the style (`value` is unchanged)
 444:..\..\..\arduinoLCD\test\Pain Drain\libraries\lvgl\src\misc/lv_style.h ****  *         LV_RES_OK: the property was fond, and `value` is set accordingly
 445:..\..\..\arduinoLCD\test\Pain Drain\libraries\lvgl\src\misc/lv_style.h ****  * @note For performance reasons there are no sanity check on `style`
ARM GAS  C:\Users\haske\AppData\Local\Temp\ccdHxW38.s 			page 43


 446:..\..\..\arduinoLCD\test\Pain Drain\libraries\lvgl\src\misc/lv_style.h ****  * @note This function is the same as ::lv_style_get_prop but inlined. Use it only on performance c
 447:..\..\..\arduinoLCD\test\Pain Drain\libraries\lvgl\src\misc/lv_style.h ****  */
 448:..\..\..\arduinoLCD\test\Pain Drain\libraries\lvgl\src\misc/lv_style.h **** static inline lv_style_res_t lv_style_get_prop_inlined(const lv_style_t * style, lv_style_prop_t pr
 449:..\..\..\arduinoLCD\test\Pain Drain\libraries\lvgl\src\misc/lv_style.h ****                                                        lv_style_value_t * value)
 450:..\..\..\arduinoLCD\test\Pain Drain\libraries\lvgl\src\misc/lv_style.h **** {
 451:..\..\..\arduinoLCD\test\Pain Drain\libraries\lvgl\src\misc/lv_style.h ****     if(style->prop1 == LV_STYLE_PROP_ANY) {
 849              		.loc 3 451 0
 850 0006 8388     		ldrh	r3, [r0, #4]
 851 0008 314A     		ldr	r2, .L82
 852              	.LVL64:
 853 000a 9342     		cmp	r3, r2
 854 000c 20D1     		bne	.L81
 855 000e 19E0     		b	.L76
 856              	.LVL65:
 857              	.L69:
 858              	.LBB32:
 859              	.LBB33:
 452:..\..\..\arduinoLCD\test\Pain Drain\libraries\lvgl\src\misc/lv_style.h ****         const lv_style_const_prop_t * const_prop;
 453:..\..\..\arduinoLCD\test\Pain Drain\libraries\lvgl\src\misc/lv_style.h ****         uint32_t i;
 454:..\..\..\arduinoLCD\test\Pain Drain\libraries\lvgl\src\misc/lv_style.h ****         for(i = 0; i < style->prop_cnt; i++) {
 455:..\..\..\arduinoLCD\test\Pain Drain\libraries\lvgl\src\misc/lv_style.h ****             const_prop = style->v_p.const_props + i;
 860              		.loc 3 455 0
 861 0010 DA00     		lsls	r2, r3, #3
 862 0012 3068     		ldr	r0, [r6]
 863 0014 8446     		mov	ip, r0
 864 0016 6244     		add	r2, r2, ip
 865              	.LVL66:
 456:..\..\..\arduinoLCD\test\Pain Drain\libraries\lvgl\src\misc/lv_style.h ****             lv_style_prop_t prop_id = LV_STYLE_PROP_ID_MASK(const_prop->prop);
 866              		.loc 3 456 0
 867 0018 1088     		ldrh	r0, [r2]
 868 001a 8504     		lsls	r5, r0, #18
 869 001c AD0C     		lsrs	r5, r5, #18
 870              	.LVL67:
 457:..\..\..\arduinoLCD\test\Pain Drain\libraries\lvgl\src\misc/lv_style.h ****             if(prop_id == prop) {
 871              		.loc 3 457 0
 872 001e A942     		cmp	r1, r5
 873 0020 0ED1     		bne	.L66
 458:..\..\..\arduinoLCD\test\Pain Drain\libraries\lvgl\src\misc/lv_style.h ****                 if(const_prop->prop & LV_STYLE_PROP_META_INHERIT)
 874              		.loc 3 458 0
 875 0022 03B2     		sxth	r3, r0
 876              	.LVL68:
 877 0024 002B     		cmp	r3, #0
 878 0026 4ADB     		blt	.L77
 459:..\..\..\arduinoLCD\test\Pain Drain\libraries\lvgl\src\misc/lv_style.h ****                     return LV_STYLE_RES_INHERIT;
 460:..\..\..\arduinoLCD\test\Pain Drain\libraries\lvgl\src\misc/lv_style.h ****                 *value = (const_prop->prop & LV_STYLE_PROP_META_INITIAL) ? lv_style_prop_get_defaul
 879              		.loc 3 460 0
 880 0028 4304     		lsls	r3, r0, #17
 881 002a 05D5     		bpl	.L68
 882 002c 2800     		movs	r0, r5
 883 002e FFF7FEFF 		bl	lv_style_prop_get_default
 884              	.LVL69:
 885 0032 2060     		str	r0, [r4]
 461:..\..\..\arduinoLCD\test\Pain Drain\libraries\lvgl\src\misc/lv_style.h ****                 return LV_STYLE_RES_FOUND;
 886              		.loc 3 461 0
 887 0034 0120     		movs	r0, #1
 888 0036 49E0     		b	.L67
 889              	.LVL70:
ARM GAS  C:\Users\haske\AppData\Local\Temp\ccdHxW38.s 			page 44


 890              	.L68:
 460:..\..\..\arduinoLCD\test\Pain Drain\libraries\lvgl\src\misc/lv_style.h ****                 return LV_STYLE_RES_FOUND;
 891              		.loc 3 460 0
 892 0038 5368     		ldr	r3, [r2, #4]
 893 003a 2360     		str	r3, [r4]
 894              		.loc 3 461 0
 895 003c 0120     		movs	r0, #1
 896 003e 45E0     		b	.L67
 897              	.LVL71:
 898              	.L66:
 899              	.LBE33:
 454:..\..\..\arduinoLCD\test\Pain Drain\libraries\lvgl\src\misc/lv_style.h ****             const_prop = style->v_p.const_props + i;
 900              		.loc 3 454 0
 901 0040 0133     		adds	r3, r3, #1
 902              	.LVL72:
 903 0042 00E0     		b	.L64
 904              	.LVL73:
 905              	.L76:
 906              	.LBE32:
 451:..\..\..\arduinoLCD\test\Pain Drain\libraries\lvgl\src\misc/lv_style.h ****         const lv_style_const_prop_t * const_prop;
 907              		.loc 3 451 0
 908 0044 0023     		movs	r3, #0
 909              	.LVL74:
 910              	.L64:
 911              	.LBB35:
 454:..\..\..\arduinoLCD\test\Pain Drain\libraries\lvgl\src\misc/lv_style.h ****             const_prop = style->v_p.const_props + i;
 912              		.loc 3 454 0
 913 0046 F279     		ldrb	r2, [r6, #7]
 914 0048 9342     		cmp	r3, r2
 915 004a E1D3     		bcc	.L69
 462:..\..\..\arduinoLCD\test\Pain Drain\libraries\lvgl\src\misc/lv_style.h ****             }
 463:..\..\..\arduinoLCD\test\Pain Drain\libraries\lvgl\src\misc/lv_style.h ****         }
 464:..\..\..\arduinoLCD\test\Pain Drain\libraries\lvgl\src\misc/lv_style.h ****         return LV_STYLE_RES_NOT_FOUND;
 916              		.loc 3 464 0
 917 004c 0020     		movs	r0, #0
 918 004e 3DE0     		b	.L67
 919              	.LVL75:
 920              	.L81:
 921              	.LBE35:
 465:..\..\..\arduinoLCD\test\Pain Drain\libraries\lvgl\src\misc/lv_style.h ****     }
 466:..\..\..\arduinoLCD\test\Pain Drain\libraries\lvgl\src\misc/lv_style.h **** 
 467:..\..\..\arduinoLCD\test\Pain Drain\libraries\lvgl\src\misc/lv_style.h ****     if(style->prop_cnt == 0) return LV_STYLE_RES_NOT_FOUND;
 922              		.loc 3 467 0
 923 0050 C079     		ldrb	r0, [r0, #7]
 924              	.LVL76:
 925 0052 0028     		cmp	r0, #0
 926 0054 3AD0     		beq	.L67
 468:..\..\..\arduinoLCD\test\Pain Drain\libraries\lvgl\src\misc/lv_style.h **** 
 469:..\..\..\arduinoLCD\test\Pain Drain\libraries\lvgl\src\misc/lv_style.h ****     if(style->prop_cnt > 1) {
 927              		.loc 3 469 0
 928 0056 0128     		cmp	r0, #1
 929 0058 1FD9     		bls	.L70
 930              	.LBB36:
 470:..\..\..\arduinoLCD\test\Pain Drain\libraries\lvgl\src\misc/lv_style.h ****         uint8_t * tmp = style->v_p.values_and_props + style->prop_cnt * sizeof(lv_style_value_t);
 931              		.loc 3 470 0
 932 005a 3768     		ldr	r7, [r6]
 933 005c 0600     		movs	r6, r0
ARM GAS  C:\Users\haske\AppData\Local\Temp\ccdHxW38.s 			page 45


 934              	.LVL77:
 935 005e 8500     		lsls	r5, r0, #2
 936              	.LVL78:
 471:..\..\..\arduinoLCD\test\Pain Drain\libraries\lvgl\src\misc/lv_style.h ****         uint16_t * props = (uint16_t *)tmp;
 472:..\..\..\arduinoLCD\test\Pain Drain\libraries\lvgl\src\misc/lv_style.h ****         uint32_t i;
 473:..\..\..\arduinoLCD\test\Pain Drain\libraries\lvgl\src\misc/lv_style.h ****         for(i = 0; i < style->prop_cnt; i++) {
 937              		.loc 3 473 0
 938 0060 0023     		movs	r3, #0
 939 0062 16E0     		b	.L71
 940              	.LVL79:
 941              	.L74:
 942              	.LBB37:
 474:..\..\..\arduinoLCD\test\Pain Drain\libraries\lvgl\src\misc/lv_style.h ****             lv_style_prop_t prop_id = LV_STYLE_PROP_ID_MASK(props[i]);
 943              		.loc 3 474 0
 944 0064 5A00     		lsls	r2, r3, #1
 945 0066 AA18     		adds	r2, r5, r2
 946 0068 BA5A     		ldrh	r2, [r7, r2]
 947 006a 9004     		lsls	r0, r2, #18
 948 006c 800C     		lsrs	r0, r0, #18
 949              	.LVL80:
 475:..\..\..\arduinoLCD\test\Pain Drain\libraries\lvgl\src\misc/lv_style.h ****             if(prop_id == prop) {
 950              		.loc 3 475 0
 951 006e 8142     		cmp	r1, r0
 952 0070 0ED1     		bne	.L72
 476:..\..\..\arduinoLCD\test\Pain Drain\libraries\lvgl\src\misc/lv_style.h ****                 if(props[i] & LV_STYLE_PROP_META_INHERIT)
 953              		.loc 3 476 0
 954 0072 11B2     		sxth	r1, r2
 955              	.LVL81:
 956 0074 0029     		cmp	r1, #0
 957 0076 24DB     		blt	.L78
 477:..\..\..\arduinoLCD\test\Pain Drain\libraries\lvgl\src\misc/lv_style.h ****                     return LV_STYLE_RES_INHERIT;
 478:..\..\..\arduinoLCD\test\Pain Drain\libraries\lvgl\src\misc/lv_style.h ****                 if(props[i] & LV_STYLE_PROP_META_INITIAL)
 958              		.loc 3 478 0
 959 0078 5204     		lsls	r2, r2, #17
 960 007a 04D5     		bpl	.L73
 479:..\..\..\arduinoLCD\test\Pain Drain\libraries\lvgl\src\misc/lv_style.h ****                     *value = lv_style_prop_get_default(prop_id);
 961              		.loc 3 479 0
 962 007c FFF7FEFF 		bl	lv_style_prop_get_default
 963              	.LVL82:
 964 0080 2060     		str	r0, [r4]
 480:..\..\..\arduinoLCD\test\Pain Drain\libraries\lvgl\src\misc/lv_style.h ****                 else {
 481:..\..\..\arduinoLCD\test\Pain Drain\libraries\lvgl\src\misc/lv_style.h ****                     lv_style_value_t * values = (lv_style_value_t *)style->v_p.values_and_props;
 482:..\..\..\arduinoLCD\test\Pain Drain\libraries\lvgl\src\misc/lv_style.h ****                     *value = values[i];
 483:..\..\..\arduinoLCD\test\Pain Drain\libraries\lvgl\src\misc/lv_style.h ****                 }
 484:..\..\..\arduinoLCD\test\Pain Drain\libraries\lvgl\src\misc/lv_style.h ****                 return LV_STYLE_RES_FOUND;
 965              		.loc 3 484 0
 966 0082 0120     		movs	r0, #1
 967 0084 22E0     		b	.L67
 968              	.LVL83:
 969              	.L73:
 970              	.LBB38:
 482:..\..\..\arduinoLCD\test\Pain Drain\libraries\lvgl\src\misc/lv_style.h ****                 }
 971              		.loc 3 482 0
 972 0086 9B00     		lsls	r3, r3, #2
 973              	.LVL84:
 974 0088 FB58     		ldr	r3, [r7, r3]
 975 008a 2360     		str	r3, [r4]
ARM GAS  C:\Users\haske\AppData\Local\Temp\ccdHxW38.s 			page 46


 976              	.LBE38:
 977              		.loc 3 484 0
 978 008c 0120     		movs	r0, #1
 979              	.LVL85:
 980 008e 1DE0     		b	.L67
 981              	.LVL86:
 982              	.L72:
 983              	.LBE37:
 473:..\..\..\arduinoLCD\test\Pain Drain\libraries\lvgl\src\misc/lv_style.h ****             lv_style_prop_t prop_id = LV_STYLE_PROP_ID_MASK(props[i]);
 984              		.loc 3 473 0
 985 0090 0133     		adds	r3, r3, #1
 986              	.LVL87:
 987              	.L71:
 988 0092 9E42     		cmp	r6, r3
 989 0094 E6D8     		bhi	.L74
 990              	.LBE36:
 485:..\..\..\arduinoLCD\test\Pain Drain\libraries\lvgl\src\misc/lv_style.h ****             }
 486:..\..\..\arduinoLCD\test\Pain Drain\libraries\lvgl\src\misc/lv_style.h ****         }
 487:..\..\..\arduinoLCD\test\Pain Drain\libraries\lvgl\src\misc/lv_style.h ****     }
 488:..\..\..\arduinoLCD\test\Pain Drain\libraries\lvgl\src\misc/lv_style.h ****     else if(LV_STYLE_PROP_ID_MASK(style->prop1) == prop) {
 489:..\..\..\arduinoLCD\test\Pain Drain\libraries\lvgl\src\misc/lv_style.h ****         if(style->prop1 & LV_STYLE_PROP_META_INHERIT)
 490:..\..\..\arduinoLCD\test\Pain Drain\libraries\lvgl\src\misc/lv_style.h ****             return LV_STYLE_RES_INHERIT;
 491:..\..\..\arduinoLCD\test\Pain Drain\libraries\lvgl\src\misc/lv_style.h ****         *value = (style->prop1 & LV_STYLE_PROP_META_INITIAL) ? lv_style_prop_get_default(LV_STYLE_P
 492:..\..\..\arduinoLCD\test\Pain Drain\libraries\lvgl\src\misc/lv_style.h ****                                                                                              style-
 493:..\..\..\arduinoLCD\test\Pain Drain\libraries\lvgl\src\misc/lv_style.h ****         return LV_STYLE_RES_FOUND;
 494:..\..\..\arduinoLCD\test\Pain Drain\libraries\lvgl\src\misc/lv_style.h ****     }
 495:..\..\..\arduinoLCD\test\Pain Drain\libraries\lvgl\src\misc/lv_style.h ****     return LV_STYLE_RES_NOT_FOUND;
 991              		.loc 3 495 0
 992 0096 0020     		movs	r0, #0
 993 0098 18E0     		b	.L67
 994              	.LVL88:
 995              	.L70:
 996 009a 9804     		lsls	r0, r3, #18
 997 009c 800C     		lsrs	r0, r0, #18
 488:..\..\..\arduinoLCD\test\Pain Drain\libraries\lvgl\src\misc/lv_style.h ****         if(style->prop1 & LV_STYLE_PROP_META_INHERIT)
 998              		.loc 3 488 0
 999 009e 8842     		cmp	r0, r1
 1000 00a0 11D1     		bne	.L79
 489:..\..\..\arduinoLCD\test\Pain Drain\libraries\lvgl\src\misc/lv_style.h ****             return LV_STYLE_RES_INHERIT;
 1001              		.loc 3 489 0
 1002 00a2 1AB2     		sxth	r2, r3
 1003 00a4 002A     		cmp	r2, #0
 1004 00a6 10DB     		blt	.L80
 491:..\..\..\arduinoLCD\test\Pain Drain\libraries\lvgl\src\misc/lv_style.h ****                                                                                              style-
 1005              		.loc 3 491 0
 1006 00a8 5B04     		lsls	r3, r3, #17
 1007 00aa 04D5     		bpl	.L75
 1008 00ac FFF7FEFF 		bl	lv_style_prop_get_default
 1009              	.LVL89:
 1010 00b0 2060     		str	r0, [r4]
 493:..\..\..\arduinoLCD\test\Pain Drain\libraries\lvgl\src\misc/lv_style.h ****     }
 1011              		.loc 3 493 0
 1012 00b2 0120     		movs	r0, #1
 1013 00b4 0AE0     		b	.L67
 1014              	.LVL90:
 1015              	.L75:
 491:..\..\..\arduinoLCD\test\Pain Drain\libraries\lvgl\src\misc/lv_style.h ****                                                                                              style-
ARM GAS  C:\Users\haske\AppData\Local\Temp\ccdHxW38.s 			page 47


 1016              		.loc 3 491 0
 1017 00b6 3368     		ldr	r3, [r6]
 1018 00b8 2360     		str	r3, [r4]
 493:..\..\..\arduinoLCD\test\Pain Drain\libraries\lvgl\src\misc/lv_style.h ****     }
 1019              		.loc 3 493 0
 1020 00ba 0120     		movs	r0, #1
 1021 00bc 06E0     		b	.L67
 1022              	.LVL91:
 1023              	.L77:
 1024              	.LBB40:
 1025              	.LBB34:
 459:..\..\..\arduinoLCD\test\Pain Drain\libraries\lvgl\src\misc/lv_style.h ****                 *value = (const_prop->prop & LV_STYLE_PROP_META_INITIAL) ? lv_style_prop_get_defaul
 1026              		.loc 3 459 0
 1027 00be 0220     		movs	r0, #2
 1028 00c0 04E0     		b	.L67
 1029              	.LVL92:
 1030              	.L78:
 1031              	.LBE34:
 1032              	.LBE40:
 1033              	.LBB41:
 1034              	.LBB39:
 477:..\..\..\arduinoLCD\test\Pain Drain\libraries\lvgl\src\misc/lv_style.h ****                 if(props[i] & LV_STYLE_PROP_META_INITIAL)
 1035              		.loc 3 477 0
 1036 00c2 0220     		movs	r0, #2
 1037              	.LVL93:
 1038 00c4 02E0     		b	.L67
 1039              	.LVL94:
 1040              	.L79:
 1041              	.LBE39:
 1042              	.LBE41:
 1043              		.loc 3 495 0
 1044 00c6 0020     		movs	r0, #0
 1045 00c8 00E0     		b	.L67
 1046              	.L80:
 490:..\..\..\arduinoLCD\test\Pain Drain\libraries\lvgl\src\misc/lv_style.h ****         *value = (style->prop1 & LV_STYLE_PROP_META_INITIAL) ? lv_style_prop_get_default(LV_STYLE_P
 1047              		.loc 3 490 0
 1048 00ca 0220     		movs	r0, #2
 1049              	.LVL95:
 1050              	.L67:
 1051              	.LBE31:
 1052              	.LBE30:
 295:..\..\..\arduinoLCD\test\Pain Drain\libraries\lvgl\src\misc/lv_style.c **** 
 1053              		.loc 1 295 0
 1054              		@ sp needed
 1055              	.LVL96:
 1056 00cc F8BD     		pop	{r3, r4, r5, r6, r7, pc}
 1057              	.L83:
 1058 00ce C046     		.align	2
 1059              	.L82:
 1060 00d0 FFFF0000 		.word	65535
 1061              		.cfi_endproc
 1062              	.LFE63:
 1063              		.size	lv_style_get_prop, .-lv_style_get_prop
 1064              		.section	.text.lv_style_is_empty,"ax",%progbits
 1065              		.align	2
 1066              		.global	lv_style_is_empty
 1067              		.code	16
ARM GAS  C:\Users\haske\AppData\Local\Temp\ccdHxW38.s 			page 48


 1068              		.thumb_func
 1069              		.type	lv_style_is_empty, %function
 1070              	lv_style_is_empty:
 1071              	.LFB66:
 366:..\..\..\arduinoLCD\test\Pain Drain\libraries\lvgl\src\misc/lv_style.c ****     LV_ASSERT_STYLE(style);
 1072              		.loc 1 366 0
 1073              		.cfi_startproc
 1074              		@ args = 0, pretend = 0, frame = 0
 1075              		@ frame_needed = 0, uses_anonymous_args = 0
 1076              		@ link register save eliminated.
 1077              	.LVL97:
 369:..\..\..\arduinoLCD\test\Pain Drain\libraries\lvgl\src\misc/lv_style.c **** }
 1078              		.loc 1 369 0
 1079 0000 C079     		ldrb	r0, [r0, #7]
 1080              	.LVL98:
 1081 0002 4342     		rsbs	r3, r0, #0
 1082 0004 5841     		adcs	r0, r0, r3
 1083 0006 C0B2     		uxtb	r0, r0
 370:..\..\..\arduinoLCD\test\Pain Drain\libraries\lvgl\src\misc/lv_style.c **** 
 1084              		.loc 1 370 0
 1085              		@ sp needed
 1086 0008 7047     		bx	lr
 1087              		.cfi_endproc
 1088              	.LFE66:
 1089              		.size	lv_style_is_empty, .-lv_style_is_empty
 1090 000a C046     		.section	.text._lv_style_get_prop_group,"ax",%progbits
 1091              		.align	2
 1092              		.global	_lv_style_get_prop_group
 1093              		.code	16
 1094              		.thumb_func
 1095              		.type	_lv_style_get_prop_group, %function
 1096              	_lv_style_get_prop_group:
 1097              	.LFB67:
 373:..\..\..\arduinoLCD\test\Pain Drain\libraries\lvgl\src\misc/lv_style.c ****     uint16_t group = (prop & 0x1FF) >> 4;
 1098              		.loc 1 373 0
 1099              		.cfi_startproc
 1100              		@ args = 0, pretend = 0, frame = 0
 1101              		@ frame_needed = 0, uses_anonymous_args = 0
 1102              		@ link register save eliminated.
 1103              	.LVL99:
 374:..\..\..\arduinoLCD\test\Pain Drain\libraries\lvgl\src\misc/lv_style.c ****     if(group > 7) group = 7;    /*The MSB marks all the custom properties*/
 1104              		.loc 1 374 0
 1105 0000 0011     		asrs	r0, r0, #4
 1106              	.LVL100:
 1107 0002 1F23     		movs	r3, #31
 1108 0004 1840     		ands	r0, r3
 1109              	.LVL101:
 375:..\..\..\arduinoLCD\test\Pain Drain\libraries\lvgl\src\misc/lv_style.c ****     return (uint8_t)group;
 1110              		.loc 1 375 0
 1111 0006 0728     		cmp	r0, #7
 1112 0008 00D9     		bls	.L86
 1113 000a 0720     		movs	r0, #7
 1114              	.LVL102:
 1115              	.L86:
 376:..\..\..\arduinoLCD\test\Pain Drain\libraries\lvgl\src\misc/lv_style.c **** }
 1116              		.loc 1 376 0
 1117 000c C0B2     		uxtb	r0, r0
ARM GAS  C:\Users\haske\AppData\Local\Temp\ccdHxW38.s 			page 49


 1118              	.LVL103:
 377:..\..\..\arduinoLCD\test\Pain Drain\libraries\lvgl\src\misc/lv_style.c **** 
 1119              		.loc 1 377 0
 1120              		@ sp needed
 1121 000e 7047     		bx	lr
 1122              		.cfi_endproc
 1123              	.LFE67:
 1124              		.size	_lv_style_get_prop_group, .-_lv_style_get_prop_group
 1125              		.section	.text.lv_style_set_prop_internal,"ax",%progbits
 1126              		.align	2
 1127              		.code	16
 1128              		.thumb_func
 1129              		.type	lv_style_set_prop_internal, %function
 1130              	lv_style_set_prop_internal:
 1131              	.LFB71:
 412:..\..\..\arduinoLCD\test\Pain Drain\libraries\lvgl\src\misc/lv_style.c **** 
 413:..\..\..\arduinoLCD\test\Pain Drain\libraries\lvgl\src\misc/lv_style.c **** static void lv_style_set_prop_internal(lv_style_t * style, lv_style_prop_t prop_and_meta, lv_style_
 414:..\..\..\arduinoLCD\test\Pain Drain\libraries\lvgl\src\misc/lv_style.c ****                                        void (*value_adjustment_helper)(lv_style_prop_t, lv_style_va
 415:..\..\..\arduinoLCD\test\Pain Drain\libraries\lvgl\src\misc/lv_style.c **** {
 1132              		.loc 1 415 0
 1133              		.cfi_startproc
 1134              		@ args = 0, pretend = 0, frame = 16
 1135              		@ frame_needed = 0, uses_anonymous_args = 0
 1136              	.LVL104:
 1137 0000 F0B5     		push	{r4, r5, r6, r7, lr}
 1138              		.cfi_def_cfa_offset 20
 1139              		.cfi_offset 4, -20
 1140              		.cfi_offset 5, -16
 1141              		.cfi_offset 6, -12
 1142              		.cfi_offset 7, -8
 1143              		.cfi_offset 14, -4
 1144 0002 85B0     		sub	sp, sp, #20
 1145              		.cfi_def_cfa_offset 40
 1146 0004 0600     		movs	r6, r0
 1147 0006 0191     		str	r1, [sp, #4]
 1148 0008 0292     		str	r2, [sp, #8]
 1149 000a 0393     		str	r3, [sp, #12]
 416:..\..\..\arduinoLCD\test\Pain Drain\libraries\lvgl\src\misc/lv_style.c ****     LV_ASSERT_STYLE(style);
 417:..\..\..\arduinoLCD\test\Pain Drain\libraries\lvgl\src\misc/lv_style.c **** 
 418:..\..\..\arduinoLCD\test\Pain Drain\libraries\lvgl\src\misc/lv_style.c ****     if(style->prop1 == LV_STYLE_PROP_ANY) {
 1150              		.loc 1 418 0
 1151 000c 8388     		ldrh	r3, [r0, #4]
 1152              	.LVL105:
 1153 000e 424A     		ldr	r2, .L100
 1154              	.LVL106:
 1155 0010 9342     		cmp	r3, r2
 1156 0012 00D1     		bne	.LCB1181
 1157 0014 7EE0     		b	.L88	@long jump
 1158              	.LCB1181:
 419:..\..\..\arduinoLCD\test\Pain Drain\libraries\lvgl\src\misc/lv_style.c ****         LV_LOG_ERROR("Cannot set property of constant style");
 420:..\..\..\arduinoLCD\test\Pain Drain\libraries\lvgl\src\misc/lv_style.c ****         return;
 421:..\..\..\arduinoLCD\test\Pain Drain\libraries\lvgl\src\misc/lv_style.c ****     }
 422:..\..\..\arduinoLCD\test\Pain Drain\libraries\lvgl\src\misc/lv_style.c **** 
 423:..\..\..\arduinoLCD\test\Pain Drain\libraries\lvgl\src\misc/lv_style.c ****     lv_style_prop_t prop_id = LV_STYLE_PROP_ID_MASK(prop_and_meta);
 1159              		.loc 1 423 0
 1160 0016 8F04     		lsls	r7, r1, #18
 1161 0018 BF0C     		lsrs	r7, r7, #18
ARM GAS  C:\Users\haske\AppData\Local\Temp\ccdHxW38.s 			page 50


 1162              	.LVL107:
 424:..\..\..\arduinoLCD\test\Pain Drain\libraries\lvgl\src\misc/lv_style.c **** 
 425:..\..\..\arduinoLCD\test\Pain Drain\libraries\lvgl\src\misc/lv_style.c ****     if(style->prop_cnt > 1) {
 1163              		.loc 1 425 0
 1164 001a C579     		ldrb	r5, [r0, #7]
 1165 001c 012D     		cmp	r5, #1
 1166 001e 42D9     		bls	.L90
 1167              	.LBB42:
 426:..\..\..\arduinoLCD\test\Pain Drain\libraries\lvgl\src\misc/lv_style.c ****         uint8_t * tmp = style->v_p.values_and_props + style->prop_cnt * sizeof(lv_style_value_t);
 1168              		.loc 1 426 0
 1169 0020 0468     		ldr	r4, [r0]
 1170 0022 AB00     		lsls	r3, r5, #2
 1171              	.LVL108:
 427:..\..\..\arduinoLCD\test\Pain Drain\libraries\lvgl\src\misc/lv_style.c ****         uint16_t * props = (uint16_t *)tmp;
 428:..\..\..\arduinoLCD\test\Pain Drain\libraries\lvgl\src\misc/lv_style.c ****         int32_t i;
 429:..\..\..\arduinoLCD\test\Pain Drain\libraries\lvgl\src\misc/lv_style.c ****         for(i = style->prop_cnt - 1; i >= 0; i--) {
 1172              		.loc 1 429 0
 1173 0024 681E     		subs	r0, r5, #1
 1174              	.LVL109:
 1175 0026 10E0     		b	.L91
 1176              	.LVL110:
 1177              	.L93:
 430:..\..\..\arduinoLCD\test\Pain Drain\libraries\lvgl\src\misc/lv_style.c ****             if(LV_STYLE_PROP_ID_MASK(props[i]) == prop_id) {
 1178              		.loc 1 430 0
 1179 0028 0090     		str	r0, [sp]
 1180 002a 4200     		lsls	r2, r0, #1
 1181 002c 9A18     		adds	r2, r3, r2
 1182 002e A218     		adds	r2, r4, r2
 1183 0030 1188     		ldrh	r1, [r2]
 1184 0032 8904     		lsls	r1, r1, #18
 1185 0034 890C     		lsrs	r1, r1, #18
 1186 0036 B942     		cmp	r1, r7
 1187 0038 06D1     		bne	.L92
 1188              	.LVL111:
 1189              	.LBB43:
 431:..\..\..\arduinoLCD\test\Pain Drain\libraries\lvgl\src\misc/lv_style.c ****                 lv_style_value_t * values = (lv_style_value_t *)style->v_p.values_and_props;
 432:..\..\..\arduinoLCD\test\Pain Drain\libraries\lvgl\src\misc/lv_style.c ****                 value_adjustment_helper(prop_and_meta, value, &props[i], &values[i]);
 1190              		.loc 1 432 0
 1191 003a 8300     		lsls	r3, r0, #2
 1192              	.LVL112:
 1193 003c E318     		adds	r3, r4, r3
 1194 003e 0299     		ldr	r1, [sp, #8]
 1195 0040 0198     		ldr	r0, [sp, #4]
 1196              	.LVL113:
 1197 0042 039C     		ldr	r4, [sp, #12]
 1198              	.LVL114:
 1199 0044 A047     		blx	r4
 1200              	.LVL115:
 433:..\..\..\arduinoLCD\test\Pain Drain\libraries\lvgl\src\misc/lv_style.c ****                 return;
 1201              		.loc 1 433 0
 1202 0046 65E0     		b	.L88
 1203              	.LVL116:
 1204              	.L92:
 1205              	.LBE43:
 429:..\..\..\arduinoLCD\test\Pain Drain\libraries\lvgl\src\misc/lv_style.c ****             if(LV_STYLE_PROP_ID_MASK(props[i]) == prop_id) {
 1206              		.loc 1 429 0 discriminator 2
 1207 0048 0138     		subs	r0, r0, #1
ARM GAS  C:\Users\haske\AppData\Local\Temp\ccdHxW38.s 			page 51


 1208              	.LVL117:
 1209              	.L91:
 429:..\..\..\arduinoLCD\test\Pain Drain\libraries\lvgl\src\misc/lv_style.c ****             if(LV_STYLE_PROP_ID_MASK(props[i]) == prop_id) {
 1210              		.loc 1 429 0 is_stmt 0 discriminator 1
 1211 004a 0028     		cmp	r0, #0
 1212 004c ECDA     		bge	.L93
 434:..\..\..\arduinoLCD\test\Pain Drain\libraries\lvgl\src\misc/lv_style.c ****             }
 435:..\..\..\arduinoLCD\test\Pain Drain\libraries\lvgl\src\misc/lv_style.c ****         }
 436:..\..\..\arduinoLCD\test\Pain Drain\libraries\lvgl\src\misc/lv_style.c **** 
 437:..\..\..\arduinoLCD\test\Pain Drain\libraries\lvgl\src\misc/lv_style.c ****         size_t size = (style->prop_cnt + 1) * (sizeof(lv_style_value_t) + sizeof(uint16_t));
 1213              		.loc 1 437 0 is_stmt 1
 1214 004e 6B1C     		adds	r3, r5, #1
 1215              	.LVL118:
 1216 0050 5A00     		lsls	r2, r3, #1
 1217 0052 D318     		adds	r3, r2, r3
 1218 0054 5900     		lsls	r1, r3, #1
 1219              	.LVL119:
 438:..\..\..\arduinoLCD\test\Pain Drain\libraries\lvgl\src\misc/lv_style.c ****         uint8_t * values_and_props = lv_mem_realloc(style->v_p.values_and_props, size);
 1220              		.loc 1 438 0
 1221 0056 2000     		movs	r0, r4
 1222              	.LVL120:
 1223 0058 FFF7FEFF 		bl	lv_mem_realloc
 1224              	.LVL121:
 439:..\..\..\arduinoLCD\test\Pain Drain\libraries\lvgl\src\misc/lv_style.c ****         if(values_and_props == NULL) return;
 1225              		.loc 1 439 0
 1226 005c 0028     		cmp	r0, #0
 1227 005e 59D0     		beq	.L88
 440:..\..\..\arduinoLCD\test\Pain Drain\libraries\lvgl\src\misc/lv_style.c ****         style->v_p.values_and_props = values_and_props;
 1228              		.loc 1 440 0
 1229 0060 3060     		str	r0, [r6]
 441:..\..\..\arduinoLCD\test\Pain Drain\libraries\lvgl\src\misc/lv_style.c **** 
 442:..\..\..\arduinoLCD\test\Pain Drain\libraries\lvgl\src\misc/lv_style.c ****         tmp = values_and_props + style->prop_cnt * sizeof(lv_style_value_t);
 1230              		.loc 1 442 0
 1231 0062 F179     		ldrb	r1, [r6, #7]
 1232 0064 8A00     		lsls	r2, r1, #2
 1233              	.LVL122:
 443:..\..\..\arduinoLCD\test\Pain Drain\libraries\lvgl\src\misc/lv_style.c ****         props = (uint16_t *)tmp;
 444:..\..\..\arduinoLCD\test\Pain Drain\libraries\lvgl\src\misc/lv_style.c ****         /*Shift all props to make place for the value before them*/
 445:..\..\..\arduinoLCD\test\Pain Drain\libraries\lvgl\src\misc/lv_style.c ****         for(i = style->prop_cnt - 1; i >= 0; i--) {
 1234              		.loc 1 445 0
 1235 0066 0139     		subs	r1, r1, #1
 1236              	.LVL123:
 1237 0068 07E0     		b	.L94
 1238              	.LVL124:
 1239              	.L95:
 446:..\..\..\arduinoLCD\test\Pain Drain\libraries\lvgl\src\misc/lv_style.c ****             props[i + sizeof(lv_style_value_t) / sizeof(uint16_t)] = props[i];
 1240              		.loc 1 446 0 discriminator 3
 1241 006a 8B1C     		adds	r3, r1, #2
 1242 006c 5B00     		lsls	r3, r3, #1
 1243 006e D318     		adds	r3, r2, r3
 1244 0070 4C00     		lsls	r4, r1, #1
 1245 0072 8518     		adds	r5, r0, r2
 1246 0074 2C5B     		ldrh	r4, [r5, r4]
 1247 0076 C452     		strh	r4, [r0, r3]
 445:..\..\..\arduinoLCD\test\Pain Drain\libraries\lvgl\src\misc/lv_style.c ****             props[i + sizeof(lv_style_value_t) / sizeof(uint16_t)] = props[i];
 1248              		.loc 1 445 0 discriminator 3
 1249 0078 0139     		subs	r1, r1, #1
ARM GAS  C:\Users\haske\AppData\Local\Temp\ccdHxW38.s 			page 52


 1250              	.LVL125:
 1251              	.L94:
 445:..\..\..\arduinoLCD\test\Pain Drain\libraries\lvgl\src\misc/lv_style.c ****             props[i + sizeof(lv_style_value_t) / sizeof(uint16_t)] = props[i];
 1252              		.loc 1 445 0 is_stmt 0 discriminator 1
 1253 007a 0029     		cmp	r1, #0
 1254 007c F5DA     		bge	.L95
 447:..\..\..\arduinoLCD\test\Pain Drain\libraries\lvgl\src\misc/lv_style.c ****         }
 448:..\..\..\arduinoLCD\test\Pain Drain\libraries\lvgl\src\misc/lv_style.c ****         style->prop_cnt++;
 1255              		.loc 1 448 0 is_stmt 1
 1256 007e F379     		ldrb	r3, [r6, #7]
 1257 0080 0133     		adds	r3, r3, #1
 1258 0082 DBB2     		uxtb	r3, r3
 1259 0084 F371     		strb	r3, [r6, #7]
 449:..\..\..\arduinoLCD\test\Pain Drain\libraries\lvgl\src\misc/lv_style.c **** 
 450:..\..\..\arduinoLCD\test\Pain Drain\libraries\lvgl\src\misc/lv_style.c ****         /*Go to the new position wit the props*/
 451:..\..\..\arduinoLCD\test\Pain Drain\libraries\lvgl\src\misc/lv_style.c ****         tmp = values_and_props + style->prop_cnt * sizeof(lv_style_value_t);
 1260              		.loc 1 451 0
 1261 0086 9900     		lsls	r1, r3, #2
 1262              	.LVL126:
 452:..\..\..\arduinoLCD\test\Pain Drain\libraries\lvgl\src\misc/lv_style.c ****         props = (uint16_t *)tmp;
 453:..\..\..\arduinoLCD\test\Pain Drain\libraries\lvgl\src\misc/lv_style.c ****         lv_style_value_t * values = (lv_style_value_t *)values_and_props;
 454:..\..\..\arduinoLCD\test\Pain Drain\libraries\lvgl\src\misc/lv_style.c **** 
 455:..\..\..\arduinoLCD\test\Pain Drain\libraries\lvgl\src\misc/lv_style.c ****         /*Set the new property and value*/
 456:..\..\..\arduinoLCD\test\Pain Drain\libraries\lvgl\src\misc/lv_style.c ****         value_adjustment_helper(prop_and_meta, value, &props[style->prop_cnt - 1], &values[style->p
 1263              		.loc 1 456 0
 1264 0088 244A     		ldr	r2, .L100+4
 1265 008a 9A18     		adds	r2, r3, r2
 1266 008c 5200     		lsls	r2, r2, #1
 1267 008e 244C     		ldr	r4, .L100+8
 1268 0090 A446     		mov	ip, r4
 1269 0092 6344     		add	r3, r3, ip
 1270 0094 9B00     		lsls	r3, r3, #2
 1271 0096 C318     		adds	r3, r0, r3
 1272 0098 8A18     		adds	r2, r1, r2
 1273 009a 8218     		adds	r2, r0, r2
 1274 009c 0299     		ldr	r1, [sp, #8]
 1275              	.LVL127:
 1276 009e 0198     		ldr	r0, [sp, #4]
 1277              	.LVL128:
 1278 00a0 039C     		ldr	r4, [sp, #12]
 1279 00a2 A047     		blx	r4
 1280              	.LVL129:
 1281              	.LBE42:
 1282 00a4 2EE0     		b	.L96
 1283              	.LVL130:
 1284              	.L90:
 457:..\..\..\arduinoLCD\test\Pain Drain\libraries\lvgl\src\misc/lv_style.c ****     }
 458:..\..\..\arduinoLCD\test\Pain Drain\libraries\lvgl\src\misc/lv_style.c ****     else if(style->prop_cnt == 1) {
 1285              		.loc 1 458 0
 1286 00a6 012D     		cmp	r5, #1
 1287 00a8 24D1     		bne	.L97
 1288              	.LBB44:
 459:..\..\..\arduinoLCD\test\Pain Drain\libraries\lvgl\src\misc/lv_style.c ****         if(LV_STYLE_PROP_ID_MASK(style->prop1) == prop_id) {
 1289              		.loc 1 459 0
 1290 00aa 9B04     		lsls	r3, r3, #18
 1291 00ac 9B0C     		lsrs	r3, r3, #18
 1292 00ae BB42     		cmp	r3, r7
ARM GAS  C:\Users\haske\AppData\Local\Temp\ccdHxW38.s 			page 53


 1293 00b0 06D1     		bne	.L98
 460:..\..\..\arduinoLCD\test\Pain Drain\libraries\lvgl\src\misc/lv_style.c ****             value_adjustment_helper(prop_and_meta, value, &style->prop1, &style->v_p.value1);
 1294              		.loc 1 460 0
 1295 00b2 021D     		adds	r2, r0, #4
 1296 00b4 0300     		movs	r3, r0
 1297 00b6 0299     		ldr	r1, [sp, #8]
 1298              	.LVL131:
 1299 00b8 0198     		ldr	r0, [sp, #4]
 1300              	.LVL132:
 1301 00ba 039C     		ldr	r4, [sp, #12]
 1302 00bc A047     		blx	r4
 1303              	.LVL133:
 461:..\..\..\arduinoLCD\test\Pain Drain\libraries\lvgl\src\misc/lv_style.c ****             return;
 1304              		.loc 1 461 0
 1305 00be 29E0     		b	.L88
 1306              	.LVL134:
 1307              	.L98:
 462:..\..\..\arduinoLCD\test\Pain Drain\libraries\lvgl\src\misc/lv_style.c ****         }
 463:..\..\..\arduinoLCD\test\Pain Drain\libraries\lvgl\src\misc/lv_style.c ****         size_t size = (style->prop_cnt + 1) * (sizeof(lv_style_value_t) + sizeof(uint16_t));
 1308              		.loc 1 463 0
 1309 00c0 6B1C     		adds	r3, r5, #1
 1310 00c2 5A00     		lsls	r2, r3, #1
 1311 00c4 D318     		adds	r3, r2, r3
 1312 00c6 5800     		lsls	r0, r3, #1
 1313              	.LVL135:
 464:..\..\..\arduinoLCD\test\Pain Drain\libraries\lvgl\src\misc/lv_style.c ****         uint8_t * values_and_props = lv_mem_alloc(size);
 1314              		.loc 1 464 0
 1315 00c8 FFF7FEFF 		bl	lv_mem_alloc
 1316              	.LVL136:
 465:..\..\..\arduinoLCD\test\Pain Drain\libraries\lvgl\src\misc/lv_style.c ****         if(values_and_props == NULL) return;
 1317              		.loc 1 465 0
 1318 00cc 0028     		cmp	r0, #0
 1319 00ce 21D0     		beq	.L88
 466:..\..\..\arduinoLCD\test\Pain Drain\libraries\lvgl\src\misc/lv_style.c ****         lv_style_value_t value_tmp = style->v_p.value1;
 1320              		.loc 1 466 0
 1321 00d0 3268     		ldr	r2, [r6]
 1322              	.LVL137:
 467:..\..\..\arduinoLCD\test\Pain Drain\libraries\lvgl\src\misc/lv_style.c ****         style->v_p.values_and_props = values_and_props;
 1323              		.loc 1 467 0
 1324 00d2 3060     		str	r0, [r6]
 468:..\..\..\arduinoLCD\test\Pain Drain\libraries\lvgl\src\misc/lv_style.c ****         style->prop_cnt++;
 1325              		.loc 1 468 0
 1326 00d4 F179     		ldrb	r1, [r6, #7]
 1327 00d6 4B1C     		adds	r3, r1, #1
 1328 00d8 D9B2     		uxtb	r1, r3
 1329 00da F171     		strb	r1, [r6, #7]
 469:..\..\..\arduinoLCD\test\Pain Drain\libraries\lvgl\src\misc/lv_style.c **** 
 470:..\..\..\arduinoLCD\test\Pain Drain\libraries\lvgl\src\misc/lv_style.c ****         uint8_t * tmp = values_and_props + style->prop_cnt * sizeof(lv_style_value_t);
 1330              		.loc 1 470 0
 1331 00dc 8900     		lsls	r1, r1, #2
 1332              	.LVL138:
 471:..\..\..\arduinoLCD\test\Pain Drain\libraries\lvgl\src\misc/lv_style.c ****         uint16_t * props = (uint16_t *)tmp;
 472:..\..\..\arduinoLCD\test\Pain Drain\libraries\lvgl\src\misc/lv_style.c ****         lv_style_value_t * values = (lv_style_value_t *)values_and_props;
 473:..\..\..\arduinoLCD\test\Pain Drain\libraries\lvgl\src\misc/lv_style.c ****         props[0] = style->prop1;
 1333              		.loc 1 473 0
 1334 00de B388     		ldrh	r3, [r6, #4]
 1335 00e0 4352     		strh	r3, [r0, r1]
ARM GAS  C:\Users\haske\AppData\Local\Temp\ccdHxW38.s 			page 54


 474:..\..\..\arduinoLCD\test\Pain Drain\libraries\lvgl\src\misc/lv_style.c ****         values[0] = value_tmp;
 1336              		.loc 1 474 0
 1337 00e2 0300     		movs	r3, r0
 1338              	.LVL139:
 1339 00e4 04C3     		stmia	r3!, {r2}
 475:..\..\..\arduinoLCD\test\Pain Drain\libraries\lvgl\src\misc/lv_style.c ****         value_adjustment_helper(prop_and_meta, value, &props[1], &values[1]);
 1340              		.loc 1 475 0
 1341 00e6 0231     		adds	r1, r1, #2
 1342              	.LVL140:
 1343 00e8 4218     		adds	r2, r0, r1
 1344              	.LVL141:
 1345 00ea 0299     		ldr	r1, [sp, #8]
 1346              	.LVL142:
 1347 00ec 0198     		ldr	r0, [sp, #4]
 1348              	.LVL143:
 1349 00ee 039C     		ldr	r4, [sp, #12]
 1350 00f0 A047     		blx	r4
 1351              	.LVL144:
 1352              	.LBE44:
 1353 00f2 07E0     		b	.L96
 1354              	.LVL145:
 1355              	.L97:
 476:..\..\..\arduinoLCD\test\Pain Drain\libraries\lvgl\src\misc/lv_style.c ****     }
 477:..\..\..\arduinoLCD\test\Pain Drain\libraries\lvgl\src\misc/lv_style.c ****     else {
 478:..\..\..\arduinoLCD\test\Pain Drain\libraries\lvgl\src\misc/lv_style.c ****         style->prop_cnt = 1;
 1356              		.loc 1 478 0
 1357 00f4 0123     		movs	r3, #1
 1358 00f6 C371     		strb	r3, [r0, #7]
 479:..\..\..\arduinoLCD\test\Pain Drain\libraries\lvgl\src\misc/lv_style.c ****         value_adjustment_helper(prop_and_meta, value, &style->prop1, &style->v_p.value1);
 1359              		.loc 1 479 0
 1360 00f8 021D     		adds	r2, r0, #4
 1361 00fa 0300     		movs	r3, r0
 1362 00fc 0299     		ldr	r1, [sp, #8]
 1363              	.LVL146:
 1364 00fe 0198     		ldr	r0, [sp, #4]
 1365              	.LVL147:
 1366 0100 039C     		ldr	r4, [sp, #12]
 1367 0102 A047     		blx	r4
 1368              	.LVL148:
 1369              	.L96:
 480:..\..\..\arduinoLCD\test\Pain Drain\libraries\lvgl\src\misc/lv_style.c ****     }
 481:..\..\..\arduinoLCD\test\Pain Drain\libraries\lvgl\src\misc/lv_style.c **** 
 482:..\..\..\arduinoLCD\test\Pain Drain\libraries\lvgl\src\misc/lv_style.c ****     uint8_t group = _lv_style_get_prop_group(prop_id);
 1370              		.loc 1 482 0
 1371 0104 3800     		movs	r0, r7
 1372 0106 FFF7FEFF 		bl	_lv_style_get_prop_group
 1373              	.LVL149:
 483:..\..\..\arduinoLCD\test\Pain Drain\libraries\lvgl\src\misc/lv_style.c ****     style->has_group |= 1 << group;
 1374              		.loc 1 483 0
 1375 010a 0123     		movs	r3, #1
 1376 010c 8340     		lsls	r3, r3, r0
 1377 010e B279     		ldrb	r2, [r6, #6]
 1378 0110 1343     		orrs	r3, r2
 1379 0112 B371     		strb	r3, [r6, #6]
 1380              	.LVL150:
 1381              	.L88:
 484:..\..\..\arduinoLCD\test\Pain Drain\libraries\lvgl\src\misc/lv_style.c **** }
ARM GAS  C:\Users\haske\AppData\Local\Temp\ccdHxW38.s 			page 55


 1382              		.loc 1 484 0
 1383 0114 05B0     		add	sp, sp, #20
 1384              		@ sp needed
 1385              	.LVL151:
 1386 0116 F0BD     		pop	{r4, r5, r6, r7, pc}
 1387              	.L101:
 1388              		.align	2
 1389              	.L100:
 1390 0118 FFFF0000 		.word	65535
 1391 011c FFFFFF7F 		.word	2147483647
 1392 0120 FFFFFF3F 		.word	1073741823
 1393              		.cfi_endproc
 1394              	.LFE71:
 1395              		.size	lv_style_set_prop_internal, .-lv_style_set_prop_internal
 1396              		.section	.text.lv_style_set_prop,"ax",%progbits
 1397              		.align	2
 1398              		.global	lv_style_set_prop
 1399              		.code	16
 1400              		.thumb_func
 1401              		.type	lv_style_set_prop, %function
 1402              	lv_style_set_prop:
 1403              	.LFB61:
 283:..\..\..\arduinoLCD\test\Pain Drain\libraries\lvgl\src\misc/lv_style.c ****     lv_style_set_prop_internal(style, prop, value, lv_style_set_prop_helper);
 1404              		.loc 1 283 0
 1405              		.cfi_startproc
 1406              		@ args = 0, pretend = 0, frame = 0
 1407              		@ frame_needed = 0, uses_anonymous_args = 0
 1408              	.LVL152:
 1409 0000 10B5     		push	{r4, lr}
 1410              		.cfi_def_cfa_offset 8
 1411              		.cfi_offset 4, -8
 1412              		.cfi_offset 14, -4
 284:..\..\..\arduinoLCD\test\Pain Drain\libraries\lvgl\src\misc/lv_style.c **** }
 1413              		.loc 1 284 0
 1414 0002 024B     		ldr	r3, .L103
 1415 0004 FFF7FEFF 		bl	lv_style_set_prop_internal
 1416              	.LVL153:
 285:..\..\..\arduinoLCD\test\Pain Drain\libraries\lvgl\src\misc/lv_style.c **** 
 1417              		.loc 1 285 0
 1418              		@ sp needed
 1419 0008 10BD     		pop	{r4, pc}
 1420              	.L104:
 1421 000a C046     		.align	2
 1422              	.L103:
 1423 000c 00000000 		.word	lv_style_set_prop_helper
 1424              		.cfi_endproc
 1425              	.LFE61:
 1426              		.size	lv_style_set_prop, .-lv_style_set_prop
 1427              		.section	.text.lv_style_set_prop_meta,"ax",%progbits
 1428              		.align	2
 1429              		.global	lv_style_set_prop_meta
 1430              		.code	16
 1431              		.thumb_func
 1432              		.type	lv_style_set_prop_meta, %function
 1433              	lv_style_set_prop_meta:
 1434              	.LFB62:
 288:..\..\..\arduinoLCD\test\Pain Drain\libraries\lvgl\src\misc/lv_style.c ****     lv_style_set_prop_internal(style, prop | meta, null_style_value, lv_style_set_prop_meta_helper)
ARM GAS  C:\Users\haske\AppData\Local\Temp\ccdHxW38.s 			page 56


 1435              		.loc 1 288 0
 1436              		.cfi_startproc
 1437              		@ args = 0, pretend = 0, frame = 0
 1438              		@ frame_needed = 0, uses_anonymous_args = 0
 1439              	.LVL154:
 1440 0000 10B5     		push	{r4, lr}
 1441              		.cfi_def_cfa_offset 8
 1442              		.cfi_offset 4, -8
 1443              		.cfi_offset 14, -4
 289:..\..\..\arduinoLCD\test\Pain Drain\libraries\lvgl\src\misc/lv_style.c **** }
 1444              		.loc 1 289 0
 1445 0002 044B     		ldr	r3, .L106
 1446 0004 1C68     		ldr	r4, [r3]
 1447 0006 1143     		orrs	r1, r2
 1448              	.LVL155:
 1449 0008 034B     		ldr	r3, .L106+4
 1450 000a 2200     		movs	r2, r4
 1451              	.LVL156:
 1452 000c FFF7FEFF 		bl	lv_style_set_prop_internal
 1453              	.LVL157:
 290:..\..\..\arduinoLCD\test\Pain Drain\libraries\lvgl\src\misc/lv_style.c **** 
 1454              		.loc 1 290 0
 1455              		@ sp needed
 1456 0010 10BD     		pop	{r4, pc}
 1457              	.L107:
 1458 0012 C046     		.align	2
 1459              	.L106:
 1460 0014 A8010000 		.word	.LANCHOR2
 1461 0018 00000000 		.word	lv_style_set_prop_meta_helper
 1462              		.cfi_endproc
 1463              	.LFE62:
 1464              		.size	lv_style_set_prop_meta, .-lv_style_set_prop_meta
 1465              		.section	.text._lv_style_prop_lookup_flags,"ax",%progbits
 1466              		.align	2
 1467              		.global	_lv_style_prop_lookup_flags
 1468              		.code	16
 1469              		.thumb_func
 1470              		.type	_lv_style_prop_lookup_flags, %function
 1471              	_lv_style_prop_lookup_flags:
 1472              	.LFB68:
 380:..\..\..\arduinoLCD\test\Pain Drain\libraries\lvgl\src\misc/lv_style.c ****     extern const uint8_t _lv_style_builtin_prop_flag_lookup_table[];
 1473              		.loc 1 380 0
 1474              		.cfi_startproc
 1475              		@ args = 0, pretend = 0, frame = 0
 1476              		@ frame_needed = 0, uses_anonymous_args = 0
 1477              		@ link register save eliminated.
 1478              	.LVL158:
 383:..\..\..\arduinoLCD\test\Pain Drain\libraries\lvgl\src\misc/lv_style.c ****     if(prop == LV_STYLE_PROP_INV) return 0;
 1479              		.loc 1 383 0
 1480 0000 0F4B     		ldr	r3, .L115
 1481 0002 9842     		cmp	r0, r3
 1482 0004 13D0     		beq	.L111
 384:..\..\..\arduinoLCD\test\Pain Drain\libraries\lvgl\src\misc/lv_style.c **** 
 1483              		.loc 1 384 0
 1484 0006 0028     		cmp	r0, #0
 1485 0008 13D0     		beq	.L112
 386:..\..\..\arduinoLCD\test\Pain Drain\libraries\lvgl\src\misc/lv_style.c ****         return _lv_style_builtin_prop_flag_lookup_table[prop];
ARM GAS  C:\Users\haske\AppData\Local\Temp\ccdHxW38.s 			page 57


 1486              		.loc 1 386 0
 1487 000a 6F28     		cmp	r0, #111
 1488 000c 03D8     		bhi	.L110
 387:..\..\..\arduinoLCD\test\Pain Drain\libraries\lvgl\src\misc/lv_style.c ****     prop -= _LV_STYLE_NUM_BUILT_IN_PROPS;
 1489              		.loc 1 387 0
 1490 000e 0D4B     		ldr	r3, .L115+4
 1491 0010 1818     		adds	r0, r3, r0
 1492              	.LVL159:
 1493 0012 0079     		ldrb	r0, [r0, #4]
 1494 0014 12E0     		b	.L109
 1495              	.LVL160:
 1496              	.L110:
 388:..\..\..\arduinoLCD\test\Pain Drain\libraries\lvgl\src\misc/lv_style.c ****     if(LV_GC_ROOT(_lv_style_custom_prop_flag_lookup_table) != NULL && prop < _lv_style_custom_prop_
 1497              		.loc 1 388 0
 1498 0016 7038     		subs	r0, r0, #112
 1499              	.LVL161:
 1500 0018 80B2     		uxth	r0, r0
 1501              	.LVL162:
 389:..\..\..\arduinoLCD\test\Pain Drain\libraries\lvgl\src\misc/lv_style.c ****         return LV_GC_ROOT(_lv_style_custom_prop_flag_lookup_table)[prop];
 1502              		.loc 1 389 0
 1503 001a 0B4B     		ldr	r3, .L115+8
 1504 001c 1B68     		ldr	r3, [r3]
 1505 001e 002B     		cmp	r3, #0
 1506 0020 09D0     		beq	.L113
 389:..\..\..\arduinoLCD\test\Pain Drain\libraries\lvgl\src\misc/lv_style.c ****         return LV_GC_ROOT(_lv_style_custom_prop_flag_lookup_table)[prop];
 1507              		.loc 1 389 0 is_stmt 0 discriminator 1
 1508 0022 0A4A     		ldr	r2, .L115+12
 1509 0024 1268     		ldr	r2, [r2]
 1510 0026 9042     		cmp	r0, r2
 1511 0028 07D2     		bcs	.L114
 390:..\..\..\arduinoLCD\test\Pain Drain\libraries\lvgl\src\misc/lv_style.c ****     return 0;
 1512              		.loc 1 390 0 is_stmt 1
 1513 002a 185C     		ldrb	r0, [r3, r0]
 1514              	.LVL163:
 1515 002c 06E0     		b	.L109
 1516              	.LVL164:
 1517              	.L111:
 383:..\..\..\arduinoLCD\test\Pain Drain\libraries\lvgl\src\misc/lv_style.c ****     if(prop == LV_STYLE_PROP_INV) return 0;
 1518              		.loc 1 383 0
 1519 002e 1F20     		movs	r0, #31
 1520              	.LVL165:
 1521 0030 04E0     		b	.L109
 1522              	.LVL166:
 1523              	.L112:
 384:..\..\..\arduinoLCD\test\Pain Drain\libraries\lvgl\src\misc/lv_style.c **** 
 1524              		.loc 1 384 0
 1525 0032 0020     		movs	r0, #0
 1526              	.LVL167:
 1527 0034 02E0     		b	.L109
 1528              	.LVL168:
 1529              	.L113:
 391:..\..\..\arduinoLCD\test\Pain Drain\libraries\lvgl\src\misc/lv_style.c **** }
 1530              		.loc 1 391 0
 1531 0036 0020     		movs	r0, #0
 1532              	.LVL169:
 1533 0038 00E0     		b	.L109
 1534              	.LVL170:
ARM GAS  C:\Users\haske\AppData\Local\Temp\ccdHxW38.s 			page 58


 1535              	.L114:
 1536 003a 0020     		movs	r0, #0
 1537              	.LVL171:
 1538              	.L109:
 392:..\..\..\arduinoLCD\test\Pain Drain\libraries\lvgl\src\misc/lv_style.c **** 
 1539              		.loc 1 392 0
 1540              		@ sp needed
 1541 003c 7047     		bx	lr
 1542              	.L116:
 1543 003e C046     		.align	2
 1544              	.L115:
 1545 0040 FFFF0000 		.word	65535
 1546 0044 A8010000 		.word	.LANCHOR2
 1547 0048 00000000 		.word	_lv_style_custom_prop_flag_lookup_table
 1548 004c 00000000 		.word	.LANCHOR0
 1549              		.cfi_endproc
 1550              	.LFE68:
 1551              		.size	_lv_style_prop_lookup_flags, .-_lv_style_prop_lookup_flags
 1552              		.global	_lv_style_custom_prop_flag_lookup_table_size
 1553              		.global	_lv_style_builtin_prop_flag_lookup_table
 1554              		.section	.rodata
 1555              		.align	2
 1556              		.set	.LANCHOR2,. + 0
 1557              		.type	null_style_value, %object
 1558              		.size	null_style_value, 4
 1559              	null_style_value:
 1560 01a8 00000000 		.space	4
 1561              		.type	_lv_style_builtin_prop_flag_lookup_table, %object
 1562              		.size	_lv_style_builtin_prop_flag_lookup_table, 112
 1563              	_lv_style_builtin_prop_flag_lookup_table:
 1564 01ac 00       		.space	1
 1565 01ad 04       		.byte	4
 1566 01ae 04       		.byte	4
 1567 01af 04       		.byte	4
 1568 01b0 04       		.byte	4
 1569 01b1 04       		.byte	4
 1570 01b2 04       		.byte	4
 1571 01b3 04       		.byte	4
 1572 01b4 04       		.byte	4
 1573 01b5 04       		.byte	4
 1574 01b6 04       		.byte	4
 1575 01b7 00       		.byte	0
 1576 01b8 00000000 		.space	4
 1577 01bc 06       		.byte	6
 1578 01bd 06       		.byte	6
 1579 01be 06       		.byte	6
 1580 01bf 06       		.byte	6
 1581 01c0 06       		.byte	6
 1582 01c1 06       		.byte	6
 1583 01c2 05       		.byte	5
 1584 01c3 00       		.byte	0
 1585 01c4 00000000 		.space	8
 1585      00000000 
 1586 01cc 00       		.byte	0
 1587 01cd 00       		.byte	0
 1588 01ce 00       		.byte	0
 1589 01cf 00       		.byte	0
ARM GAS  C:\Users\haske\AppData\Local\Temp\ccdHxW38.s 			page 59


 1590 01d0 00       		.byte	0
 1591 01d1 00       		.byte	0
 1592 01d2 00       		.byte	0
 1593 01d3 00       		.byte	0
 1594 01d4 02       		.byte	2
 1595 01d5 00       		.byte	0
 1596 01d6 00       		.byte	0
 1597 01d7 00       		.byte	0
 1598 01d8 00       		.byte	0
 1599 01d9 000000   		.space	3
 1600 01dc 00       		.byte	0
 1601 01dd 00       		.byte	0
 1602 01de 04       		.byte	4
 1603 01df 00       		.byte	0
 1604 01e0 00       		.byte	0
 1605 01e1 02       		.byte	2
 1606 01e2 00       		.byte	0
 1607 01e3 02       		.byte	2
 1608 01e4 02       		.byte	2
 1609 01e5 00000000 		.space	7
 1609      000000
 1610 01ec 02       		.byte	2
 1611 01ed 02       		.byte	2
 1612 01ee 02       		.byte	2
 1613 01ef 02       		.byte	2
 1614 01f0 00       		.byte	0
 1615 01f1 02       		.byte	2
 1616 01f2 00       		.byte	0
 1617 01f3 00       		.byte	0
 1618 01f4 00       		.byte	0
 1619 01f5 02       		.byte	2
 1620 01f6 00       		.byte	0
 1621 01f7 00       		.byte	0
 1622 01f8 00       		.byte	0
 1623 01f9 00       		.byte	0
 1624 01fa 00       		.byte	0
 1625 01fb 00       		.space	1
 1626 01fc 02       		.byte	2
 1627 01fd 00       		.byte	0
 1628 01fe 00       		.byte	0
 1629 01ff 00       		.byte	0
 1630 0200 00       		.byte	0
 1631 0201 01       		.byte	1
 1632 0202 01       		.byte	1
 1633 0203 05       		.byte	5
 1634 0204 05       		.byte	5
 1635 0205 05       		.byte	5
 1636 0206 01       		.byte	1
 1637 0207 05       		.byte	5
 1638 0208 00000000 		.space	4
 1639 020c 10       		.byte	16
 1640 020d 01       		.byte	1
 1641 020e 01       		.byte	1
 1642 020f 00       		.space	1
 1643 0210 00       		.byte	0
 1644 0211 00       		.byte	0
 1645 0212 00       		.byte	0
ARM GAS  C:\Users\haske\AppData\Local\Temp\ccdHxW38.s 			page 60


 1646 0213 10       		.byte	16
 1647 0214 02       		.byte	2
 1648 0215 02       		.byte	2
 1649 0216 0C       		.byte	12
 1650 0217 0C       		.byte	12
 1651 0218 12       		.byte	18
 1652 0219 12       		.byte	18
 1653 021a 0000     		.space	2
 1654              		.data
 1655              		.align	1
 1656              		.set	.LANCHOR1,. + 0
 1657              		.type	last_custom_prop_id, %object
 1658              		.size	last_custom_prop_id, 2
 1659              	last_custom_prop_id:
 1660 0000 6F00     		.short	111
 1661              		.bss
 1662              		.align	2
 1663              		.set	.LANCHOR0,. + 0
 1664              		.type	_lv_style_custom_prop_flag_lookup_table_size, %object
 1665              		.size	_lv_style_custom_prop_flag_lookup_table_size, 4
 1666              	_lv_style_custom_prop_flag_lookup_table_size:
 1667 0000 00000000 		.space	4
 1668              		.text
 1669              	.Letext0:
 1670              		.file 4 "c:\\program files (x86)\\cypress\\psoc creator\\4.4\\psoc creator\\import\\gnu\\arm\\5.4.
 1671              		.file 5 "c:\\program files (x86)\\cypress\\psoc creator\\4.4\\psoc creator\\import\\gnu\\arm\\5.4.
 1672              		.file 6 "c:\\program files (x86)\\cypress\\psoc creator\\4.4\\psoc creator\\import\\gnu\\arm\\5.4.
 1673              		.file 7 "c:\\projects\\paindrain\\arduinolcd\\test\\pain drain\\libraries\\lvgl\\src\\misc\\lv_are
 1674              		.file 8 "..\\..\\..\\arduinoLCD\\test\\Pain Drain\\libraries\\lvgl\\src\\misc\\../font/lv_font.h"
 1675              		.file 9 "..\\..\\..\\arduinoLCD\\test\\Pain Drain\\libraries\\lvgl\\src\\misc\\lv_anim.h"
 1676              		.file 10 "..\\..\\..\\arduinoLCD\\test\\Pain Drain\\libraries\\lvgl\\src\\misc\\../misc/lv_gc.h"
 1677              		.file 11 "..\\..\\..\\arduinoLCD\\test\\Pain Drain\\libraries\\lvgl\\src\\misc\\lv_mem.h"
 1678              		.section	.debug_info,"",%progbits
 1679              	.Ldebug_info0:
 1680 0000 2D130000 		.4byte	0x132d
 1681 0004 0400     		.2byte	0x4
 1682 0006 00000000 		.4byte	.Ldebug_abbrev0
 1683 000a 04       		.byte	0x4
 1684 000b 01       		.uleb128 0x1
 1685 000c A9040000 		.4byte	.LASF257
 1686 0010 0C       		.byte	0xc
 1687 0011 B3030000 		.4byte	.LASF258
 1688 0015 510F0000 		.4byte	.LASF259
 1689 0019 B0000000 		.4byte	.Ldebug_ranges0+0xb0
 1690 001d 00000000 		.4byte	0
 1691 0021 00000000 		.4byte	.Ldebug_line0
 1692 0025 02       		.uleb128 0x2
 1693 0026 2F0C0000 		.4byte	.LASF0
 1694 002a 04       		.byte	0x4
 1695 002b 1B       		.byte	0x1b
 1696 002c 30000000 		.4byte	0x30
 1697 0030 03       		.uleb128 0x3
 1698 0031 01       		.byte	0x1
 1699 0032 06       		.byte	0x6
 1700 0033 0E030000 		.4byte	.LASF2
 1701 0037 02       		.uleb128 0x2
 1702 0038 5C010000 		.4byte	.LASF1
ARM GAS  C:\Users\haske\AppData\Local\Temp\ccdHxW38.s 			page 61


 1703 003c 04       		.byte	0x4
 1704 003d 1D       		.byte	0x1d
 1705 003e 42000000 		.4byte	0x42
 1706 0042 03       		.uleb128 0x3
 1707 0043 01       		.byte	0x1
 1708 0044 08       		.byte	0x8
 1709 0045 A5030000 		.4byte	.LASF3
 1710 0049 02       		.uleb128 0x2
 1711 004a 6F0D0000 		.4byte	.LASF4
 1712 004e 04       		.byte	0x4
 1713 004f 29       		.byte	0x29
 1714 0050 54000000 		.4byte	0x54
 1715 0054 03       		.uleb128 0x3
 1716 0055 02       		.byte	0x2
 1717 0056 05       		.byte	0x5
 1718 0057 520E0000 		.4byte	.LASF5
 1719 005b 02       		.uleb128 0x2
 1720 005c C2050000 		.4byte	.LASF6
 1721 0060 04       		.byte	0x4
 1722 0061 2B       		.byte	0x2b
 1723 0062 66000000 		.4byte	0x66
 1724 0066 03       		.uleb128 0x3
 1725 0067 02       		.byte	0x2
 1726 0068 07       		.byte	0x7
 1727 0069 82100000 		.4byte	.LASF7
 1728 006d 02       		.uleb128 0x2
 1729 006e DC100000 		.4byte	.LASF8
 1730 0072 04       		.byte	0x4
 1731 0073 3F       		.byte	0x3f
 1732 0074 78000000 		.4byte	0x78
 1733 0078 03       		.uleb128 0x3
 1734 0079 04       		.byte	0x4
 1735 007a 05       		.byte	0x5
 1736 007b 18020000 		.4byte	.LASF9
 1737 007f 02       		.uleb128 0x2
 1738 0080 12090000 		.4byte	.LASF10
 1739 0084 04       		.byte	0x4
 1740 0085 41       		.byte	0x41
 1741 0086 8A000000 		.4byte	0x8a
 1742 008a 03       		.uleb128 0x3
 1743 008b 04       		.byte	0x4
 1744 008c 07       		.byte	0x7
 1745 008d E7070000 		.4byte	.LASF11
 1746 0091 03       		.uleb128 0x3
 1747 0092 08       		.byte	0x8
 1748 0093 05       		.byte	0x5
 1749 0094 1D090000 		.4byte	.LASF12
 1750 0098 03       		.uleb128 0x3
 1751 0099 08       		.byte	0x8
 1752 009a 07       		.byte	0x7
 1753 009b 3D0C0000 		.4byte	.LASF13
 1754 009f 04       		.uleb128 0x4
 1755 00a0 04       		.byte	0x4
 1756 00a1 05       		.byte	0x5
 1757 00a2 696E7400 		.ascii	"int\000"
 1758 00a6 03       		.uleb128 0x3
 1759 00a7 04       		.byte	0x4
ARM GAS  C:\Users\haske\AppData\Local\Temp\ccdHxW38.s 			page 62


 1760 00a8 07       		.byte	0x7
 1761 00a9 450A0000 		.4byte	.LASF14
 1762 00ad 02       		.uleb128 0x2
 1763 00ae 09000000 		.4byte	.LASF15
 1764 00b2 05       		.byte	0x5
 1765 00b3 14       		.byte	0x14
 1766 00b4 25000000 		.4byte	0x25
 1767 00b8 02       		.uleb128 0x2
 1768 00b9 1A030000 		.4byte	.LASF16
 1769 00bd 05       		.byte	0x5
 1770 00be 18       		.byte	0x18
 1771 00bf 37000000 		.4byte	0x37
 1772 00c3 02       		.uleb128 0x2
 1773 00c4 C10E0000 		.4byte	.LASF17
 1774 00c8 05       		.byte	0x5
 1775 00c9 20       		.byte	0x20
 1776 00ca 49000000 		.4byte	0x49
 1777 00ce 02       		.uleb128 0x2
 1778 00cf 7F0C0000 		.4byte	.LASF18
 1779 00d3 05       		.byte	0x5
 1780 00d4 24       		.byte	0x24
 1781 00d5 5B000000 		.4byte	0x5b
 1782 00d9 02       		.uleb128 0x2
 1783 00da 67000000 		.4byte	.LASF19
 1784 00de 05       		.byte	0x5
 1785 00df 2C       		.byte	0x2c
 1786 00e0 6D000000 		.4byte	0x6d
 1787 00e4 02       		.uleb128 0x2
 1788 00e5 11100000 		.4byte	.LASF20
 1789 00e9 05       		.byte	0x5
 1790 00ea 30       		.byte	0x30
 1791 00eb 7F000000 		.4byte	0x7f
 1792 00ef 02       		.uleb128 0x2
 1793 00f0 1D000000 		.4byte	.LASF21
 1794 00f4 06       		.byte	0x6
 1795 00f5 D8       		.byte	0xd8
 1796 00f6 A6000000 		.4byte	0xa6
 1797 00fa 03       		.uleb128 0x3
 1798 00fb 08       		.byte	0x8
 1799 00fc 04       		.byte	0x4
 1800 00fd 690B0000 		.4byte	.LASF22
 1801 0101 02       		.uleb128 0x2
 1802 0102 95100000 		.4byte	.LASF23
 1803 0106 07       		.byte	0x7
 1804 0107 1B       		.byte	0x1b
 1805 0108 C3000000 		.4byte	0xc3
 1806 010c 05       		.uleb128 0x5
 1807 010d 10       		.byte	0x10
 1808 010e 08       		.byte	0x8
 1809 010f 29       		.byte	0x29
 1810 0110 7B010000 		.4byte	0x17b
 1811 0114 06       		.uleb128 0x6
 1812 0115 32080000 		.4byte	.LASF24
 1813 0119 08       		.byte	0x8
 1814 011a 2B       		.byte	0x2b
 1815 011b 03020000 		.4byte	0x203
 1816 011f 00       		.byte	0
ARM GAS  C:\Users\haske\AppData\Local\Temp\ccdHxW38.s 			page 63


 1817 0120 06       		.uleb128 0x6
 1818 0121 24000000 		.4byte	.LASF25
 1819 0125 08       		.byte	0x8
 1820 0126 2C       		.byte	0x2c
 1821 0127 CE000000 		.4byte	0xce
 1822 012b 04       		.byte	0x4
 1823 012c 06       		.uleb128 0x6
 1824 012d 4C0E0000 		.4byte	.LASF26
 1825 0131 08       		.byte	0x8
 1826 0132 2D       		.byte	0x2d
 1827 0133 CE000000 		.4byte	0xce
 1828 0137 06       		.byte	0x6
 1829 0138 06       		.uleb128 0x6
 1830 0139 260E0000 		.4byte	.LASF27
 1831 013d 08       		.byte	0x8
 1832 013e 2E       		.byte	0x2e
 1833 013f CE000000 		.4byte	0xce
 1834 0143 08       		.byte	0x8
 1835 0144 06       		.uleb128 0x6
 1836 0145 58040000 		.4byte	.LASF28
 1837 0149 08       		.byte	0x8
 1838 014a 2F       		.byte	0x2f
 1839 014b C3000000 		.4byte	0xc3
 1840 014f 0A       		.byte	0xa
 1841 0150 06       		.uleb128 0x6
 1842 0151 5E040000 		.4byte	.LASF29
 1843 0155 08       		.byte	0x8
 1844 0156 30       		.byte	0x30
 1845 0157 C3000000 		.4byte	0xc3
 1846 015b 0C       		.byte	0xc
 1847 015c 07       		.uleb128 0x7
 1848 015d 62707000 		.ascii	"bpp\000"
 1849 0161 08       		.byte	0x8
 1850 0162 31       		.byte	0x31
 1851 0163 B8000000 		.4byte	0xb8
 1852 0167 01       		.byte	0x1
 1853 0168 04       		.byte	0x4
 1854 0169 04       		.byte	0x4
 1855 016a 0E       		.byte	0xe
 1856 016b 08       		.uleb128 0x8
 1857 016c 17110000 		.4byte	.LASF30
 1858 0170 08       		.byte	0x8
 1859 0171 32       		.byte	0x32
 1860 0172 B8000000 		.4byte	0xb8
 1861 0176 01       		.byte	0x1
 1862 0177 01       		.byte	0x1
 1863 0178 03       		.byte	0x3
 1864 0179 0E       		.byte	0xe
 1865 017a 00       		.byte	0
 1866 017b 09       		.uleb128 0x9
 1867 017c 07090000 		.4byte	.LASF64
 1868 0180 1C       		.byte	0x1c
 1869 0181 08       		.byte	0x8
 1870 0182 40       		.byte	0x40
 1871 0183 03020000 		.4byte	0x203
 1872 0187 06       		.uleb128 0x6
 1873 0188 CE100000 		.4byte	.LASF31
ARM GAS  C:\Users\haske\AppData\Local\Temp\ccdHxW38.s 			page 64


 1874 018c 08       		.byte	0x8
 1875 018d 42       		.byte	0x42
 1876 018e 44020000 		.4byte	0x244
 1877 0192 00       		.byte	0
 1878 0193 06       		.uleb128 0x6
 1879 0194 57030000 		.4byte	.LASF32
 1880 0198 08       		.byte	0x8
 1881 0199 45       		.byte	0x45
 1882 019a 69020000 		.4byte	0x269
 1883 019e 04       		.byte	0x4
 1884 019f 06       		.uleb128 0x6
 1885 01a0 79000000 		.4byte	.LASF33
 1886 01a4 08       		.byte	0x8
 1887 01a5 48       		.byte	0x48
 1888 01a6 01010000 		.4byte	0x101
 1889 01aa 08       		.byte	0x8
 1890 01ab 06       		.uleb128 0x6
 1891 01ac 5C0E0000 		.4byte	.LASF34
 1892 01b0 08       		.byte	0x8
 1893 01b1 49       		.byte	0x49
 1894 01b2 01010000 		.4byte	0x101
 1895 01b6 0A       		.byte	0xa
 1896 01b7 08       		.uleb128 0x8
 1897 01b8 DD0B0000 		.4byte	.LASF35
 1898 01bc 08       		.byte	0x8
 1899 01bd 4A       		.byte	0x4a
 1900 01be B8000000 		.4byte	0xb8
 1901 01c2 01       		.byte	0x1
 1902 01c3 02       		.byte	0x2
 1903 01c4 06       		.byte	0x6
 1904 01c5 0C       		.byte	0xc
 1905 01c6 06       		.uleb128 0x6
 1906 01c7 70050000 		.4byte	.LASF36
 1907 01cb 08       		.byte	0x8
 1908 01cc 4C       		.byte	0x4c
 1909 01cd AD000000 		.4byte	0xad
 1910 01d1 0D       		.byte	0xd
 1911 01d2 06       		.uleb128 0x6
 1912 01d3 D8090000 		.4byte	.LASF37
 1913 01d7 08       		.byte	0x8
 1914 01d8 4D       		.byte	0x4d
 1915 01d9 AD000000 		.4byte	0xad
 1916 01dd 0E       		.byte	0xe
 1917 01de 0A       		.uleb128 0xa
 1918 01df 64736300 		.ascii	"dsc\000"
 1919 01e3 08       		.byte	0x8
 1920 01e4 4F       		.byte	0x4f
 1921 01e5 6F020000 		.4byte	0x26f
 1922 01e9 10       		.byte	0x10
 1923 01ea 06       		.uleb128 0x6
 1924 01eb 9C060000 		.4byte	.LASF38
 1925 01ef 08       		.byte	0x8
 1926 01f0 50       		.byte	0x50
 1927 01f1 03020000 		.4byte	0x203
 1928 01f5 14       		.byte	0x14
 1929 01f6 06       		.uleb128 0x6
 1930 01f7 B7100000 		.4byte	.LASF39
ARM GAS  C:\Users\haske\AppData\Local\Temp\ccdHxW38.s 			page 65


 1931 01fb 08       		.byte	0x8
 1932 01fc 52       		.byte	0x52
 1933 01fd 76020000 		.4byte	0x276
 1934 0201 18       		.byte	0x18
 1935 0202 00       		.byte	0
 1936 0203 0B       		.uleb128 0xb
 1937 0204 04       		.byte	0x4
 1938 0205 09020000 		.4byte	0x209
 1939 0209 0C       		.uleb128 0xc
 1940 020a 7B010000 		.4byte	0x17b
 1941 020e 02       		.uleb128 0x2
 1942 020f D10A0000 		.4byte	.LASF40
 1943 0213 08       		.byte	0x8
 1944 0214 33       		.byte	0x33
 1945 0215 0C010000 		.4byte	0x10c
 1946 0219 0D       		.uleb128 0xd
 1947 021a 37020000 		.4byte	0x237
 1948 021e 37020000 		.4byte	0x237
 1949 0222 0E       		.uleb128 0xe
 1950 0223 03020000 		.4byte	0x203
 1951 0227 0E       		.uleb128 0xe
 1952 0228 3E020000 		.4byte	0x23e
 1953 022c 0E       		.uleb128 0xe
 1954 022d E4000000 		.4byte	0xe4
 1955 0231 0E       		.uleb128 0xe
 1956 0232 E4000000 		.4byte	0xe4
 1957 0236 00       		.byte	0
 1958 0237 03       		.uleb128 0x3
 1959 0238 01       		.byte	0x1
 1960 0239 02       		.byte	0x2
 1961 023a 79040000 		.4byte	.LASF41
 1962 023e 0B       		.uleb128 0xb
 1963 023f 04       		.byte	0x4
 1964 0240 0E020000 		.4byte	0x20e
 1965 0244 0B       		.uleb128 0xb
 1966 0245 04       		.byte	0x4
 1967 0246 19020000 		.4byte	0x219
 1968 024a 0D       		.uleb128 0xd
 1969 024b 5E020000 		.4byte	0x25e
 1970 024f 5E020000 		.4byte	0x25e
 1971 0253 0E       		.uleb128 0xe
 1972 0254 03020000 		.4byte	0x203
 1973 0258 0E       		.uleb128 0xe
 1974 0259 E4000000 		.4byte	0xe4
 1975 025d 00       		.byte	0
 1976 025e 0B       		.uleb128 0xb
 1977 025f 04       		.byte	0x4
 1978 0260 64020000 		.4byte	0x264
 1979 0264 0C       		.uleb128 0xc
 1980 0265 B8000000 		.4byte	0xb8
 1981 0269 0B       		.uleb128 0xb
 1982 026a 04       		.byte	0x4
 1983 026b 4A020000 		.4byte	0x24a
 1984 026f 0B       		.uleb128 0xb
 1985 0270 04       		.byte	0x4
 1986 0271 75020000 		.4byte	0x275
 1987 0275 0F       		.uleb128 0xf
ARM GAS  C:\Users\haske\AppData\Local\Temp\ccdHxW38.s 			page 66


 1988 0276 10       		.uleb128 0x10
 1989 0277 04       		.byte	0x4
 1990 0278 02       		.uleb128 0x2
 1991 0279 55100000 		.4byte	.LASF42
 1992 027d 08       		.byte	0x8
 1993 027e 54       		.byte	0x54
 1994 027f 7B010000 		.4byte	0x17b
 1995 0283 03       		.uleb128 0x3
 1996 0284 04       		.byte	0x4
 1997 0285 07       		.byte	0x7
 1998 0286 2A000000 		.4byte	.LASF43
 1999 028a 03       		.uleb128 0x3
 2000 028b 01       		.byte	0x1
 2001 028c 08       		.byte	0x8
 2002 028d 41050000 		.4byte	.LASF44
 2003 0291 11       		.uleb128 0x11
 2004 0292 01       		.byte	0x1
 2005 0293 42000000 		.4byte	0x42
 2006 0297 02       		.byte	0x2
 2007 0298 29       		.byte	0x29
 2008 0299 EC020000 		.4byte	0x2ec
 2009 029d 12       		.uleb128 0x12
 2010 029e 000A0000 		.4byte	.LASF45
 2011 02a2 00       		.byte	0
 2012 02a3 12       		.uleb128 0x12
 2013 02a4 54080000 		.4byte	.LASF46
 2014 02a8 00       		.byte	0
 2015 02a9 12       		.uleb128 0x12
 2016 02aa 040D0000 		.4byte	.LASF47
 2017 02ae 19       		.byte	0x19
 2018 02af 12       		.uleb128 0x12
 2019 02b0 B00D0000 		.4byte	.LASF48
 2020 02b4 33       		.byte	0x33
 2021 02b5 12       		.uleb128 0x12
 2022 02b6 EE0D0000 		.4byte	.LASF49
 2023 02ba 4C       		.byte	0x4c
 2024 02bb 12       		.uleb128 0x12
 2025 02bc B70E0000 		.4byte	.LASF50
 2026 02c0 66       		.byte	0x66
 2027 02c1 12       		.uleb128 0x12
 2028 02c2 320F0000 		.4byte	.LASF51
 2029 02c6 7F       		.byte	0x7f
 2030 02c7 12       		.uleb128 0x12
 2031 02c8 07100000 		.4byte	.LASF52
 2032 02cc 99       		.byte	0x99
 2033 02cd 12       		.uleb128 0x12
 2034 02ce 5F100000 		.4byte	.LASF53
 2035 02d2 B2       		.byte	0xb2
 2036 02d3 12       		.uleb128 0x12
 2037 02d4 F1100000 		.4byte	.LASF54
 2038 02d8 CC       		.byte	0xcc
 2039 02d9 12       		.uleb128 0x12
 2040 02da 3B110000 		.4byte	.LASF55
 2041 02de E5       		.byte	0xe5
 2042 02df 12       		.uleb128 0x12
 2043 02e0 100B0000 		.4byte	.LASF56
 2044 02e4 FF       		.byte	0xff
ARM GAS  C:\Users\haske\AppData\Local\Temp\ccdHxW38.s 			page 67


 2045 02e5 12       		.uleb128 0x12
 2046 02e6 E30B0000 		.4byte	.LASF57
 2047 02ea FF       		.byte	0xff
 2048 02eb 00       		.byte	0
 2049 02ec 05       		.uleb128 0x5
 2050 02ed 02       		.byte	0x2
 2051 02ee 02       		.byte	0x2
 2052 02ef D1       		.byte	0xd1
 2053 02f0 22030000 		.4byte	0x322
 2054 02f4 08       		.uleb128 0x8
 2055 02f5 71030000 		.4byte	.LASF58
 2056 02f9 02       		.byte	0x2
 2057 02fa D3       		.byte	0xd3
 2058 02fb CE000000 		.4byte	0xce
 2059 02ff 02       		.byte	0x2
 2060 0300 05       		.byte	0x5
 2061 0301 0B       		.byte	0xb
 2062 0302 00       		.byte	0
 2063 0303 08       		.uleb128 0x8
 2064 0304 4F100000 		.4byte	.LASF59
 2065 0308 02       		.byte	0x2
 2066 0309 D4       		.byte	0xd4
 2067 030a CE000000 		.4byte	0xce
 2068 030e 02       		.byte	0x2
 2069 030f 06       		.byte	0x6
 2070 0310 05       		.byte	0x5
 2071 0311 00       		.byte	0
 2072 0312 07       		.uleb128 0x7
 2073 0313 72656400 		.ascii	"red\000"
 2074 0317 02       		.byte	0x2
 2075 0318 D5       		.byte	0xd5
 2076 0319 CE000000 		.4byte	0xce
 2077 031d 02       		.byte	0x2
 2078 031e 05       		.byte	0x5
 2079 031f 00       		.byte	0
 2080 0320 00       		.byte	0
 2081 0321 00       		.byte	0
 2082 0322 13       		.uleb128 0x13
 2083 0323 02       		.byte	0x2
 2084 0324 02       		.byte	0x2
 2085 0325 D0       		.byte	0xd0
 2086 0326 40030000 		.4byte	0x340
 2087 032a 14       		.uleb128 0x14
 2088 032b 636800   		.ascii	"ch\000"
 2089 032e 02       		.byte	0x2
 2090 032f DC       		.byte	0xdc
 2091 0330 EC020000 		.4byte	0x2ec
 2092 0334 15       		.uleb128 0x15
 2093 0335 AB0D0000 		.4byte	.LASF60
 2094 0339 02       		.byte	0x2
 2095 033a DD       		.byte	0xdd
 2096 033b CE000000 		.4byte	0xce
 2097 033f 00       		.byte	0
 2098 0340 02       		.uleb128 0x2
 2099 0341 3F0E0000 		.4byte	.LASF61
 2100 0345 02       		.byte	0x2
 2101 0346 DE       		.byte	0xde
ARM GAS  C:\Users\haske\AppData\Local\Temp\ccdHxW38.s 			page 68


 2102 0347 22030000 		.4byte	0x322
 2103 034b 02       		.uleb128 0x2
 2104 034c A60C0000 		.4byte	.LASF62
 2105 0350 02       		.byte	0x2
 2106 0351 EB       		.byte	0xeb
 2107 0352 40030000 		.4byte	0x340
 2108 0356 02       		.uleb128 0x2
 2109 0357 520A0000 		.4byte	.LASF63
 2110 035b 09       		.byte	0x9
 2111 035c 2E       		.byte	0x2e
 2112 035d 61030000 		.4byte	0x361
 2113 0361 0B       		.uleb128 0xb
 2114 0362 04       		.byte	0x4
 2115 0363 67030000 		.4byte	0x367
 2116 0367 0D       		.uleb128 0xd
 2117 0368 D9000000 		.4byte	0xd9
 2118 036c 76030000 		.4byte	0x376
 2119 0370 0E       		.uleb128 0xe
 2120 0371 76030000 		.4byte	0x376
 2121 0375 00       		.byte	0
 2122 0376 0B       		.uleb128 0xb
 2123 0377 04       		.byte	0x4
 2124 0378 91040000 		.4byte	0x491
 2125 037c 09       		.uleb128 0x9
 2126 037d FB100000 		.4byte	.LASF65
 2127 0381 44       		.byte	0x44
 2128 0382 09       		.byte	0x9
 2129 0383 49       		.byte	0x49
 2130 0384 91040000 		.4byte	0x491
 2131 0388 0A       		.uleb128 0xa
 2132 0389 76617200 		.ascii	"var\000"
 2133 038d 09       		.byte	0x9
 2134 038e 4A       		.byte	0x4a
 2135 038f 76020000 		.4byte	0x276
 2136 0393 00       		.byte	0
 2137 0394 06       		.uleb128 0x6
 2138 0395 FC0C0000 		.4byte	.LASF66
 2139 0399 09       		.byte	0x9
 2140 039a 4B       		.byte	0x4b
 2141 039b 96040000 		.4byte	0x496
 2142 039f 04       		.byte	0x4
 2143 03a0 06       		.uleb128 0x6
 2144 03a1 68030000 		.4byte	.LASF67
 2145 03a5 09       		.byte	0x9
 2146 03a6 4C       		.byte	0x4c
 2147 03a7 D9040000 		.4byte	0x4d9
 2148 03ab 08       		.byte	0x8
 2149 03ac 06       		.uleb128 0x6
 2150 03ad 5C060000 		.4byte	.LASF68
 2151 03b1 09       		.byte	0x9
 2152 03b2 4D       		.byte	0x4d
 2153 03b3 BD040000 		.4byte	0x4bd
 2154 03b7 0C       		.byte	0xc
 2155 03b8 06       		.uleb128 0x6
 2156 03b9 E6100000 		.4byte	.LASF69
 2157 03bd 09       		.byte	0x9
 2158 03be 4E       		.byte	0x4e
ARM GAS  C:\Users\haske\AppData\Local\Temp\ccdHxW38.s 			page 69


 2159 03bf 04050000 		.4byte	0x504
 2160 03c3 10       		.byte	0x10
 2161 03c4 06       		.uleb128 0x6
 2162 03c5 280B0000 		.4byte	.LASF70
 2163 03c9 09       		.byte	0x9
 2164 03ca 4F       		.byte	0x4f
 2165 03cb E4040000 		.4byte	0x4e4
 2166 03cf 14       		.byte	0x14
 2167 03d0 06       		.uleb128 0x6
 2168 03d1 B7100000 		.4byte	.LASF39
 2169 03d5 09       		.byte	0x9
 2170 03d6 51       		.byte	0x51
 2171 03d7 76020000 		.4byte	0x276
 2172 03db 18       		.byte	0x18
 2173 03dc 06       		.uleb128 0x6
 2174 03dd 85000000 		.4byte	.LASF71
 2175 03e1 09       		.byte	0x9
 2176 03e2 53       		.byte	0x53
 2177 03e3 56030000 		.4byte	0x356
 2178 03e7 1C       		.byte	0x1c
 2179 03e8 06       		.uleb128 0x6
 2180 03e9 8A030000 		.4byte	.LASF72
 2181 03ed 09       		.byte	0x9
 2182 03ee 54       		.byte	0x54
 2183 03ef D9000000 		.4byte	0xd9
 2184 03f3 20       		.byte	0x20
 2185 03f4 06       		.uleb128 0x6
 2186 03f5 370A0000 		.4byte	.LASF73
 2187 03f9 09       		.byte	0x9
 2188 03fa 55       		.byte	0x55
 2189 03fb D9000000 		.4byte	0xd9
 2190 03ff 24       		.byte	0x24
 2191 0400 06       		.uleb128 0x6
 2192 0401 9C0C0000 		.4byte	.LASF74
 2193 0405 09       		.byte	0x9
 2194 0406 56       		.byte	0x56
 2195 0407 D9000000 		.4byte	0xd9
 2196 040b 28       		.byte	0x28
 2197 040c 06       		.uleb128 0x6
 2198 040d C00D0000 		.4byte	.LASF75
 2199 0411 09       		.byte	0x9
 2200 0412 57       		.byte	0x57
 2201 0413 D9000000 		.4byte	0xd9
 2202 0417 2C       		.byte	0x2c
 2203 0418 06       		.uleb128 0x6
 2204 0419 900F0000 		.4byte	.LASF76
 2205 041d 09       		.byte	0x9
 2206 041e 58       		.byte	0x58
 2207 041f D9000000 		.4byte	0xd9
 2208 0423 30       		.byte	0x30
 2209 0424 06       		.uleb128 0x6
 2210 0425 5F070000 		.4byte	.LASF77
 2211 0429 09       		.byte	0x9
 2212 042a 59       		.byte	0x59
 2213 042b E4000000 		.4byte	0xe4
 2214 042f 34       		.byte	0x34
 2215 0430 06       		.uleb128 0x6
ARM GAS  C:\Users\haske\AppData\Local\Temp\ccdHxW38.s 			page 70


 2216 0431 370D0000 		.4byte	.LASF78
 2217 0435 09       		.byte	0x9
 2218 0436 5A       		.byte	0x5a
 2219 0437 E4000000 		.4byte	0xe4
 2220 043b 38       		.byte	0x38
 2221 043c 06       		.uleb128 0x6
 2222 043d 1B0B0000 		.4byte	.LASF79
 2223 0441 09       		.byte	0x9
 2224 0442 5B       		.byte	0x5b
 2225 0443 E4000000 		.4byte	0xe4
 2226 0447 3C       		.byte	0x3c
 2227 0448 06       		.uleb128 0x6
 2228 0449 F00B0000 		.4byte	.LASF80
 2229 044d 09       		.byte	0x9
 2230 044e 5C       		.byte	0x5c
 2231 044f CE000000 		.4byte	0xce
 2232 0453 40       		.byte	0x40
 2233 0454 08       		.uleb128 0x8
 2234 0455 C7020000 		.4byte	.LASF81
 2235 0459 09       		.byte	0x9
 2236 045a 5D       		.byte	0x5d
 2237 045b B8000000 		.4byte	0xb8
 2238 045f 01       		.byte	0x1
 2239 0460 01       		.byte	0x1
 2240 0461 07       		.byte	0x7
 2241 0462 42       		.byte	0x42
 2242 0463 08       		.uleb128 0x8
 2243 0464 C1100000 		.4byte	.LASF82
 2244 0468 09       		.byte	0x9
 2245 0469 60       		.byte	0x60
 2246 046a B8000000 		.4byte	0xb8
 2247 046e 01       		.byte	0x1
 2248 046f 01       		.byte	0x1
 2249 0470 06       		.byte	0x6
 2250 0471 42       		.byte	0x42
 2251 0472 08       		.uleb128 0x8
 2252 0473 89010000 		.4byte	.LASF83
 2253 0477 09       		.byte	0x9
 2254 0478 61       		.byte	0x61
 2255 0479 B8000000 		.4byte	0xb8
 2256 047d 01       		.byte	0x1
 2257 047e 01       		.byte	0x1
 2258 047f 05       		.byte	0x5
 2259 0480 42       		.byte	0x42
 2260 0481 08       		.uleb128 0x8
 2261 0482 6E080000 		.4byte	.LASF84
 2262 0486 09       		.byte	0x9
 2263 0487 62       		.byte	0x62
 2264 0488 B8000000 		.4byte	0xb8
 2265 048c 01       		.byte	0x1
 2266 048d 01       		.byte	0x1
 2267 048e 04       		.byte	0x4
 2268 048f 42       		.byte	0x42
 2269 0490 00       		.byte	0
 2270 0491 0C       		.uleb128 0xc
 2271 0492 7C030000 		.4byte	0x37c
 2272 0496 02       		.uleb128 0x2
ARM GAS  C:\Users\haske\AppData\Local\Temp\ccdHxW38.s 			page 71


 2273 0497 46050000 		.4byte	.LASF85
 2274 049b 09       		.byte	0x9
 2275 049c 36       		.byte	0x36
 2276 049d A1040000 		.4byte	0x4a1
 2277 04a1 0B       		.uleb128 0xb
 2278 04a2 04       		.byte	0x4
 2279 04a3 A7040000 		.4byte	0x4a7
 2280 04a7 16       		.uleb128 0x16
 2281 04a8 B7040000 		.4byte	0x4b7
 2282 04ac 0E       		.uleb128 0xe
 2283 04ad 76020000 		.4byte	0x276
 2284 04b1 0E       		.uleb128 0xe
 2285 04b2 D9000000 		.4byte	0xd9
 2286 04b6 00       		.byte	0
 2287 04b7 0B       		.uleb128 0xb
 2288 04b8 04       		.byte	0x4
 2289 04b9 7C030000 		.4byte	0x37c
 2290 04bd 02       		.uleb128 0x2
 2291 04be 39070000 		.4byte	.LASF86
 2292 04c2 09       		.byte	0x9
 2293 04c3 3D       		.byte	0x3d
 2294 04c4 C8040000 		.4byte	0x4c8
 2295 04c8 0B       		.uleb128 0xb
 2296 04c9 04       		.byte	0x4
 2297 04ca CE040000 		.4byte	0x4ce
 2298 04ce 16       		.uleb128 0x16
 2299 04cf D9040000 		.4byte	0x4d9
 2300 04d3 0E       		.uleb128 0xe
 2301 04d4 B7040000 		.4byte	0x4b7
 2302 04d8 00       		.byte	0
 2303 04d9 02       		.uleb128 0x2
 2304 04da 2C0E0000 		.4byte	.LASF87
 2305 04de 09       		.byte	0x9
 2306 04df 40       		.byte	0x40
 2307 04e0 C8040000 		.4byte	0x4c8
 2308 04e4 02       		.uleb128 0x2
 2309 04e5 AD000000 		.4byte	.LASF88
 2310 04e9 09       		.byte	0x9
 2311 04ea 43       		.byte	0x43
 2312 04eb EF040000 		.4byte	0x4ef
 2313 04ef 0B       		.uleb128 0xb
 2314 04f0 04       		.byte	0x4
 2315 04f1 F5040000 		.4byte	0x4f5
 2316 04f5 0D       		.uleb128 0xd
 2317 04f6 D9000000 		.4byte	0xd9
 2318 04fa 04050000 		.4byte	0x504
 2319 04fe 0E       		.uleb128 0xe
 2320 04ff B7040000 		.4byte	0x4b7
 2321 0503 00       		.byte	0
 2322 0504 02       		.uleb128 0x2
 2323 0505 640A0000 		.4byte	.LASF89
 2324 0509 09       		.byte	0x9
 2325 050a 46       		.byte	0x46
 2326 050b C8040000 		.4byte	0x4c8
 2327 050f 11       		.uleb128 0x11
 2328 0510 01       		.byte	0x1
 2329 0511 42000000 		.4byte	0x42
ARM GAS  C:\Users\haske\AppData\Local\Temp\ccdHxW38.s 			page 72


 2330 0515 03       		.byte	0x3
 2331 0516 70       		.byte	0x70
 2332 0517 46050000 		.4byte	0x546
 2333 051b 12       		.uleb128 0x12
 2334 051c 880C0000 		.4byte	.LASF90
 2335 0520 00       		.byte	0
 2336 0521 12       		.uleb128 0x12
 2337 0522 F1080000 		.4byte	.LASF91
 2338 0526 01       		.byte	0x1
 2339 0527 12       		.uleb128 0x12
 2340 0528 C90E0000 		.4byte	.LASF92
 2341 052c 02       		.byte	0x2
 2342 052d 12       		.uleb128 0x12
 2343 052e F9070000 		.4byte	.LASF93
 2344 0532 04       		.byte	0x4
 2345 0533 12       		.uleb128 0x12
 2346 0534 2D030000 		.4byte	.LASF94
 2347 0538 08       		.byte	0x8
 2348 0539 12       		.uleb128 0x12
 2349 053a 120E0000 		.4byte	.LASF95
 2350 053e 0F       		.byte	0xf
 2351 053f 12       		.uleb128 0x12
 2352 0540 37100000 		.4byte	.LASF96
 2353 0544 10       		.byte	0x10
 2354 0545 00       		.byte	0
 2355 0546 13       		.uleb128 0x13
 2356 0547 04       		.byte	0x4
 2357 0548 03       		.byte	0x3
 2358 0549 A7       		.byte	0xa7
 2359 054a 70050000 		.4byte	0x570
 2360 054e 14       		.uleb128 0x14
 2361 054f 6E756D00 		.ascii	"num\000"
 2362 0553 03       		.byte	0x3
 2363 0554 A8       		.byte	0xa8
 2364 0555 D9000000 		.4byte	0xd9
 2365 0559 14       		.uleb128 0x14
 2366 055a 70747200 		.ascii	"ptr\000"
 2367 055e 03       		.byte	0x3
 2368 055f A9       		.byte	0xa9
 2369 0560 6F020000 		.4byte	0x26f
 2370 0564 15       		.uleb128 0x15
 2371 0565 BA0D0000 		.4byte	.LASF97
 2372 0569 03       		.byte	0x3
 2373 056a AA       		.byte	0xaa
 2374 056b 4B030000 		.4byte	0x34b
 2375 056f 00       		.byte	0
 2376 0570 02       		.uleb128 0x2
 2377 0571 790A0000 		.4byte	.LASF98
 2378 0575 03       		.byte	0x3
 2379 0576 AB       		.byte	0xab
 2380 0577 46050000 		.4byte	0x546
 2381 057b 11       		.uleb128 0x11
 2382 057c 02       		.byte	0x2
 2383 057d 66000000 		.4byte	0x66
 2384 0581 03       		.byte	0x3
 2385 0582 B2       		.byte	0xb2
 2386 0583 A0070000 		.4byte	0x7a0
ARM GAS  C:\Users\haske\AppData\Local\Temp\ccdHxW38.s 			page 73


 2387 0587 12       		.uleb128 0x12
 2388 0588 F8060000 		.4byte	.LASF99
 2389 058c 00       		.byte	0
 2390 058d 12       		.uleb128 0x12
 2391 058e B70C0000 		.4byte	.LASF100
 2392 0592 01       		.byte	0x1
 2393 0593 12       		.uleb128 0x12
 2394 0594 C60C0000 		.4byte	.LASF101
 2395 0598 02       		.byte	0x2
 2396 0599 12       		.uleb128 0x12
 2397 059a 76010000 		.4byte	.LASF102
 2398 059e 03       		.byte	0x3
 2399 059f 12       		.uleb128 0x12
 2400 05a0 C4000000 		.4byte	.LASF103
 2401 05a4 04       		.byte	0x4
 2402 05a5 12       		.uleb128 0x12
 2403 05a6 A30F0000 		.4byte	.LASF104
 2404 05aa 05       		.byte	0x5
 2405 05ab 12       		.uleb128 0x12
 2406 05ac DA0D0000 		.4byte	.LASF105
 2407 05b0 06       		.byte	0x6
 2408 05b1 12       		.uleb128 0x12
 2409 05b2 CC0F0000 		.4byte	.LASF106
 2410 05b6 07       		.byte	0x7
 2411 05b7 12       		.uleb128 0x12
 2412 05b8 D70F0000 		.4byte	.LASF107
 2413 05bc 08       		.byte	0x8
 2414 05bd 12       		.uleb128 0x12
 2415 05be 96030000 		.4byte	.LASF108
 2416 05c2 09       		.byte	0x9
 2417 05c3 12       		.uleb128 0x12
 2418 05c4 AF0A0000 		.4byte	.LASF109
 2419 05c8 0A       		.byte	0xa
 2420 05c9 12       		.uleb128 0x12
 2421 05ca 66010000 		.4byte	.LASF110
 2422 05ce 0B       		.byte	0xb
 2423 05cf 12       		.uleb128 0x12
 2424 05d0 F90E0000 		.4byte	.LASF111
 2425 05d4 10       		.byte	0x10
 2426 05d5 12       		.uleb128 0x12
 2427 05d6 6E070000 		.4byte	.LASF112
 2428 05da 11       		.byte	0x11
 2429 05db 12       		.uleb128 0x12
 2430 05dc 7E080000 		.4byte	.LASF113
 2431 05e0 12       		.byte	0x12
 2432 05e1 12       		.uleb128 0x12
 2433 05e2 F3010000 		.4byte	.LASF114
 2434 05e6 13       		.byte	0x13
 2435 05e7 12       		.uleb128 0x12
 2436 05e8 5D080000 		.4byte	.LASF115
 2437 05ec 14       		.byte	0x14
 2438 05ed 12       		.uleb128 0x12
 2439 05ee 23010000 		.4byte	.LASF116
 2440 05f2 15       		.byte	0x15
 2441 05f3 12       		.uleb128 0x12
 2442 05f4 83050000 		.4byte	.LASF117
 2443 05f8 16       		.byte	0x16
ARM GAS  C:\Users\haske\AppData\Local\Temp\ccdHxW38.s 			page 74


 2444 05f9 12       		.uleb128 0x12
 2445 05fa FB0A0000 		.4byte	.LASF118
 2446 05fe 17       		.byte	0x17
 2447 05ff 12       		.uleb128 0x12
 2448 0600 DB050000 		.4byte	.LASF119
 2449 0604 20       		.byte	0x20
 2450 0605 12       		.uleb128 0x12
 2451 0606 91070000 		.4byte	.LASF120
 2452 060a 21       		.byte	0x21
 2453 060b 12       		.uleb128 0x12
 2454 060c 20100000 		.4byte	.LASF121
 2455 0610 22       		.byte	0x22
 2456 0611 12       		.uleb128 0x12
 2457 0612 42030000 		.4byte	.LASF122
 2458 0616 23       		.byte	0x23
 2459 0617 12       		.uleb128 0x12
 2460 0618 D4000000 		.4byte	.LASF123
 2461 061c 24       		.byte	0x24
 2462 061d 12       		.uleb128 0x12
 2463 061e 540C0000 		.4byte	.LASF124
 2464 0622 25       		.byte	0x25
 2465 0623 12       		.uleb128 0x12
 2466 0624 06110000 		.4byte	.LASF125
 2467 0628 26       		.byte	0x26
 2468 0629 12       		.uleb128 0x12
 2469 062a 44010000 		.4byte	.LASF126
 2470 062e 27       		.byte	0x27
 2471 062f 12       		.uleb128 0x12
 2472 0630 0E0D0000 		.4byte	.LASF127
 2473 0634 28       		.byte	0x28
 2474 0635 12       		.uleb128 0x12
 2475 0636 0A0F0000 		.4byte	.LASF128
 2476 063a 29       		.byte	0x29
 2477 063b 12       		.uleb128 0x12
 2478 063c 93010000 		.4byte	.LASF129
 2479 0640 2A       		.byte	0x2a
 2480 0641 12       		.uleb128 0x12
 2481 0642 6F020000 		.4byte	.LASF130
 2482 0646 2B       		.byte	0x2b
 2483 0647 12       		.uleb128 0x12
 2484 0648 8B020000 		.4byte	.LASF131
 2485 064c 2C       		.byte	0x2c
 2486 064d 12       		.uleb128 0x12
 2487 064e 190C0000 		.4byte	.LASF132
 2488 0652 30       		.byte	0x30
 2489 0653 12       		.uleb128 0x12
 2490 0654 A1020000 		.4byte	.LASF133
 2491 0658 31       		.byte	0x31
 2492 0659 12       		.uleb128 0x12
 2493 065a 07010000 		.4byte	.LASF134
 2494 065e 32       		.byte	0x32
 2495 065f 12       		.uleb128 0x12
 2496 0660 6A0C0000 		.4byte	.LASF135
 2497 0664 33       		.byte	0x33
 2498 0665 12       		.uleb128 0x12
 2499 0666 B70F0000 		.4byte	.LASF136
 2500 066a 34       		.byte	0x34
ARM GAS  C:\Users\haske\AppData\Local\Temp\ccdHxW38.s 			page 75


 2501 066b 12       		.uleb128 0x12
 2502 066c E1060000 		.4byte	.LASF137
 2503 0670 35       		.byte	0x35
 2504 0671 12       		.uleb128 0x12
 2505 0672 A0100000 		.4byte	.LASF138
 2506 0676 36       		.byte	0x36
 2507 0677 12       		.uleb128 0x12
 2508 0678 95050000 		.4byte	.LASF139
 2509 067c 37       		.byte	0x37
 2510 067d 12       		.uleb128 0x12
 2511 067e 26110000 		.4byte	.LASF140
 2512 0682 38       		.byte	0x38
 2513 0683 12       		.uleb128 0x12
 2514 0684 E50A0000 		.4byte	.LASF141
 2515 0688 40       		.byte	0x40
 2516 0689 12       		.uleb128 0x12
 2517 068a E60C0000 		.4byte	.LASF142
 2518 068e 41       		.byte	0x41
 2519 068f 12       		.uleb128 0x12
 2520 0690 90080000 		.4byte	.LASF143
 2521 0694 42       		.byte	0x42
 2522 0695 12       		.uleb128 0x12
 2523 0696 CA060000 		.4byte	.LASF144
 2524 069a 43       		.byte	0x43
 2525 069b 12       		.uleb128 0x12
 2526 069c E1020000 		.4byte	.LASF145
 2527 06a0 44       		.byte	0x44
 2528 06a1 12       		.uleb128 0x12
 2529 06a2 C5010000 		.4byte	.LASF146
 2530 06a6 45       		.byte	0x45
 2531 06a7 12       		.uleb128 0x12
 2532 06a8 BE070000 		.4byte	.LASF147
 2533 06ac 46       		.byte	0x46
 2534 06ad 12       		.uleb128 0x12
 2535 06ae 30040000 		.4byte	.LASF148
 2536 06b2 47       		.byte	0x47
 2537 06b3 12       		.uleb128 0x12
 2538 06b4 ED050000 		.4byte	.LASF149
 2539 06b8 48       		.byte	0x48
 2540 06b9 12       		.uleb128 0x12
 2541 06ba 1E0F0000 		.4byte	.LASF150
 2542 06be 49       		.byte	0x49
 2543 06bf 12       		.uleb128 0x12
 2544 06c0 2B060000 		.4byte	.LASF151
 2545 06c4 4A       		.byte	0x4a
 2546 06c5 12       		.uleb128 0x12
 2547 06c6 33000000 		.4byte	.LASF152
 2548 06ca 4B       		.byte	0x4b
 2549 06cb 12       		.uleb128 0x12
 2550 06cc E20F0000 		.4byte	.LASF153
 2551 06d0 4C       		.byte	0x4c
 2552 06d1 12       		.uleb128 0x12
 2553 06d2 40080000 		.4byte	.LASF154
 2554 06d6 4D       		.byte	0x4d
 2555 06d7 12       		.uleb128 0x12
 2556 06d8 A1070000 		.4byte	.LASF155
 2557 06dc 4E       		.byte	0x4e
ARM GAS  C:\Users\haske\AppData\Local\Temp\ccdHxW38.s 			page 76


 2558 06dd 12       		.uleb128 0x12
 2559 06de 45040000 		.4byte	.LASF156
 2560 06e2 50       		.byte	0x50
 2561 06e3 12       		.uleb128 0x12
 2562 06e4 0E0A0000 		.4byte	.LASF157
 2563 06e8 51       		.byte	0x51
 2564 06e9 12       		.uleb128 0x12
 2565 06ea A40E0000 		.4byte	.LASF158
 2566 06ee 52       		.byte	0x52
 2567 06ef 12       		.uleb128 0x12
 2568 06f0 56000000 		.4byte	.LASF159
 2569 06f4 53       		.byte	0x53
 2570 06f5 12       		.uleb128 0x12
 2571 06f6 450D0000 		.4byte	.LASF160
 2572 06fa 54       		.byte	0x54
 2573 06fb 12       		.uleb128 0x12
 2574 06fc 230A0000 		.4byte	.LASF161
 2575 0700 55       		.byte	0x55
 2576 0701 12       		.uleb128 0x12
 2577 0702 0D080000 		.4byte	.LASF162
 2578 0706 56       		.byte	0x56
 2579 0707 12       		.uleb128 0x12
 2580 0708 790D0000 		.4byte	.LASF163
 2581 070c 57       		.byte	0x57
 2582 070d 12       		.uleb128 0x12
 2583 070e 45110000 		.4byte	.LASF164
 2584 0712 58       		.byte	0x58
 2585 0713 12       		.uleb128 0x12
 2586 0714 0A070000 		.4byte	.LASF165
 2587 0718 59       		.byte	0x59
 2588 0719 12       		.uleb128 0x12
 2589 071a EC090000 		.4byte	.LASF166
 2590 071e 5A       		.byte	0x5a
 2591 071f 12       		.uleb128 0x12
 2592 0720 DD080000 		.4byte	.LASF167
 2593 0724 5B       		.byte	0x5b
 2594 0725 12       		.uleb128 0x12
 2595 0726 10000000 		.4byte	.LASF168
 2596 072a 60       		.byte	0x60
 2597 072b 12       		.uleb128 0x12
 2598 072c BE090000 		.4byte	.LASF169
 2599 0730 61       		.byte	0x61
 2600 0731 12       		.uleb128 0x12
 2601 0732 4F0B0000 		.4byte	.LASF170
 2602 0736 62       		.byte	0x62
 2603 0737 12       		.uleb128 0x12
 2604 0738 AC080000 		.4byte	.LASF171
 2605 073c 63       		.byte	0x63
 2606 073d 12       		.uleb128 0x12
 2607 073e 4C070000 		.4byte	.LASF172
 2608 0742 64       		.byte	0x64
 2609 0743 12       		.uleb128 0x12
 2610 0744 B6060000 		.4byte	.LASF173
 2611 0748 65       		.byte	0x65
 2612 0749 12       		.uleb128 0x12
 2613 074a 21020000 		.4byte	.LASF174
 2614 074e 66       		.byte	0x66
ARM GAS  C:\Users\haske\AppData\Local\Temp\ccdHxW38.s 			page 77


 2615 074f 12       		.uleb128 0x12
 2616 0750 06060000 		.4byte	.LASF175
 2617 0754 67       		.byte	0x67
 2618 0755 12       		.uleb128 0x12
 2619 0756 6A060000 		.4byte	.LASF176
 2620 075a 68       		.byte	0x68
 2621 075b 12       		.uleb128 0x12
 2622 075c D9010000 		.4byte	.LASF177
 2623 0760 69       		.byte	0x69
 2624 0761 12       		.uleb128 0x12
 2625 0762 7F040000 		.4byte	.LASF178
 2626 0766 6A       		.byte	0x6a
 2627 0767 12       		.uleb128 0x12
 2628 0768 94040000 		.4byte	.LASF179
 2629 076c 6B       		.byte	0x6b
 2630 076d 12       		.uleb128 0x12
 2631 076e CF070000 		.4byte	.LASF180
 2632 0772 6C       		.byte	0x6c
 2633 0773 12       		.uleb128 0x12
 2634 0774 90090000 		.4byte	.LASF181
 2635 0778 6D       		.byte	0x6d
 2636 0779 12       		.uleb128 0x12
 2637 077a FA030000 		.4byte	.LASF182
 2638 077e 6E       		.byte	0x6e
 2639 077f 12       		.uleb128 0x12
 2640 0780 15040000 		.4byte	.LASF183
 2641 0784 6F       		.byte	0x6f
 2642 0785 12       		.uleb128 0x12
 2643 0786 EA000000 		.4byte	.LASF184
 2644 078a 6F       		.byte	0x6f
 2645 078b 12       		.uleb128 0x12
 2646 078c DC0E0000 		.4byte	.LASF185
 2647 0790 70       		.byte	0x70
 2648 0791 17       		.uleb128 0x17
 2649 0792 8C0D0000 		.4byte	.LASF186
 2650 0796 FFFF     		.2byte	0xffff
 2651 0798 17       		.uleb128 0x17
 2652 0799 950A0000 		.4byte	.LASF187
 2653 079d FFFF     		.2byte	0xffff
 2654 079f 00       		.byte	0
 2655 07a0 18       		.uleb128 0x18
 2656 07a1 83060000 		.4byte	.LASF188
 2657 07a5 03       		.byte	0x3
 2658 07a6 1C01     		.2byte	0x11c
 2659 07a8 7B050000 		.4byte	0x57b
 2660 07ac 19       		.uleb128 0x19
 2661 07ad 01       		.byte	0x1
 2662 07ae 42000000 		.4byte	0x42
 2663 07b2 03       		.byte	0x3
 2664 07b3 1E01     		.2byte	0x11e
 2665 07b5 CC070000 		.4byte	0x7cc
 2666 07b9 12       		.uleb128 0x12
 2667 07ba A90B0000 		.4byte	.LASF189
 2668 07be 00       		.byte	0
 2669 07bf 12       		.uleb128 0x12
 2670 07c0 1F080000 		.4byte	.LASF190
 2671 07c4 01       		.byte	0x1
ARM GAS  C:\Users\haske\AppData\Local\Temp\ccdHxW38.s 			page 78


 2672 07c5 12       		.uleb128 0x12
 2673 07c6 A9090000 		.4byte	.LASF191
 2674 07ca 02       		.byte	0x2
 2675 07cb 00       		.byte	0
 2676 07cc 18       		.uleb128 0x18
 2677 07cd 8D000000 		.4byte	.LASF192
 2678 07d1 03       		.byte	0x3
 2679 07d2 2401     		.2byte	0x124
 2680 07d4 B8000000 		.4byte	0xb8
 2681 07d8 1A       		.uleb128 0x1a
 2682 07d9 14       		.byte	0x14
 2683 07da 03       		.byte	0x3
 2684 07db 2901     		.2byte	0x129
 2685 07dd 23080000 		.4byte	0x823
 2686 07e1 1B       		.uleb128 0x1b
 2687 07e2 1A100000 		.4byte	.LASF193
 2688 07e6 03       		.byte	0x3
 2689 07e7 2A01     		.2byte	0x12a
 2690 07e9 23080000 		.4byte	0x823
 2691 07ed 00       		.byte	0
 2692 07ee 1B       		.uleb128 0x1b
 2693 07ef B7100000 		.4byte	.LASF39
 2694 07f3 03       		.byte	0x3
 2695 07f4 2C01     		.2byte	0x12c
 2696 07f6 76020000 		.4byte	0x276
 2697 07fa 04       		.byte	0x4
 2698 07fb 1B       		.uleb128 0x1b
 2699 07fc 93060000 		.4byte	.LASF194
 2700 0800 03       		.byte	0x3
 2701 0801 2E01     		.2byte	0x12e
 2702 0803 56030000 		.4byte	0x356
 2703 0807 08       		.byte	0x8
 2704 0808 1B       		.uleb128 0x1b
 2705 0809 C00D0000 		.4byte	.LASF75
 2706 080d 03       		.byte	0x3
 2707 080e 2F01     		.2byte	0x12f
 2708 0810 E4000000 		.4byte	0xe4
 2709 0814 0C       		.byte	0xc
 2710 0815 1B       		.uleb128 0x1b
 2711 0816 1D010000 		.4byte	.LASF195
 2712 081a 03       		.byte	0x3
 2713 081b 3001     		.2byte	0x130
 2714 081d E4000000 		.4byte	0xe4
 2715 0821 10       		.byte	0x10
 2716 0822 00       		.byte	0
 2717 0823 0B       		.uleb128 0xb
 2718 0824 04       		.byte	0x4
 2719 0825 29080000 		.4byte	0x829
 2720 0829 0C       		.uleb128 0xc
 2721 082a A0070000 		.4byte	0x7a0
 2722 082e 18       		.uleb128 0x18
 2723 082f 350B0000 		.4byte	.LASF196
 2724 0833 03       		.byte	0x3
 2725 0834 3101     		.2byte	0x131
 2726 0836 D8070000 		.4byte	0x7d8
 2727 083a 1A       		.uleb128 0x1a
 2728 083b 08       		.byte	0x8
ARM GAS  C:\Users\haske\AppData\Local\Temp\ccdHxW38.s 			page 79


 2729 083c 03       		.byte	0x3
 2730 083d 3601     		.2byte	0x136
 2731 083f 5E080000 		.4byte	0x85e
 2732 0843 1B       		.uleb128 0x1b
 2733 0844 1A060000 		.4byte	.LASF197
 2734 0848 03       		.byte	0x3
 2735 0849 3701     		.2byte	0x137
 2736 084b A0070000 		.4byte	0x7a0
 2737 084f 00       		.byte	0
 2738 0850 1B       		.uleb128 0x1b
 2739 0851 3B050000 		.4byte	.LASF198
 2740 0855 03       		.byte	0x3
 2741 0856 3801     		.2byte	0x138
 2742 0858 70050000 		.4byte	0x570
 2743 085c 04       		.byte	0x4
 2744 085d 00       		.byte	0
 2745 085e 18       		.uleb128 0x18
 2746 085f 23070000 		.4byte	.LASF199
 2747 0863 03       		.byte	0x3
 2748 0864 3901     		.2byte	0x139
 2749 0866 3A080000 		.4byte	0x83a
 2750 086a 1C       		.uleb128 0x1c
 2751 086b 04       		.byte	0x4
 2752 086c 03       		.byte	0x3
 2753 086d 4601     		.2byte	0x146
 2754 086f 98080000 		.4byte	0x898
 2755 0873 1D       		.uleb128 0x1d
 2756 0874 5A0D0000 		.4byte	.LASF200
 2757 0878 03       		.byte	0x3
 2758 0879 4701     		.2byte	0x147
 2759 087b 70050000 		.4byte	0x570
 2760 087f 1D       		.uleb128 0x1d
 2761 0880 A5060000 		.4byte	.LASF201
 2762 0884 03       		.byte	0x3
 2763 0885 4801     		.2byte	0x148
 2764 0887 98080000 		.4byte	0x898
 2765 088b 1D       		.uleb128 0x1d
 2766 088c 1F060000 		.4byte	.LASF202
 2767 0890 03       		.byte	0x3
 2768 0891 4901     		.2byte	0x149
 2769 0893 9E080000 		.4byte	0x89e
 2770 0897 00       		.byte	0
 2771 0898 0B       		.uleb128 0xb
 2772 0899 04       		.byte	0x4
 2773 089a B8000000 		.4byte	0xb8
 2774 089e 0B       		.uleb128 0xb
 2775 089f 04       		.byte	0x4
 2776 08a0 A4080000 		.4byte	0x8a4
 2777 08a4 0C       		.uleb128 0xc
 2778 08a5 5E080000 		.4byte	0x85e
 2779 08a9 1A       		.uleb128 0x1a
 2780 08aa 08       		.byte	0x8
 2781 08ab 03       		.byte	0x3
 2782 08ac 3E01     		.2byte	0x13e
 2783 08ae E7080000 		.4byte	0x8e7
 2784 08b2 1E       		.uleb128 0x1e
 2785 08b3 765F7000 		.ascii	"v_p\000"
ARM GAS  C:\Users\haske\AppData\Local\Temp\ccdHxW38.s 			page 80


 2786 08b7 03       		.byte	0x3
 2787 08b8 4A01     		.2byte	0x14a
 2788 08ba 6A080000 		.4byte	0x86a
 2789 08be 00       		.byte	0
 2790 08bf 1B       		.uleb128 0x1b
 2791 08c0 8A0F0000 		.4byte	.LASF203
 2792 08c4 03       		.byte	0x3
 2793 08c5 4C01     		.2byte	0x14c
 2794 08c7 CE000000 		.4byte	0xce
 2795 08cb 04       		.byte	0x4
 2796 08cc 1B       		.uleb128 0x1b
 2797 08cd 6F000000 		.4byte	.LASF204
 2798 08d1 03       		.byte	0x3
 2799 08d2 4D01     		.2byte	0x14d
 2800 08d4 B8000000 		.4byte	0xb8
 2801 08d8 06       		.byte	0x6
 2802 08d9 1B       		.uleb128 0x1b
 2803 08da 00000000 		.4byte	.LASF205
 2804 08de 03       		.byte	0x3
 2805 08df 4E01     		.2byte	0x14e
 2806 08e1 B8000000 		.4byte	0xb8
 2807 08e5 07       		.byte	0x7
 2808 08e6 00       		.byte	0
 2809 08e7 18       		.uleb128 0x18
 2810 08e8 B3070000 		.4byte	.LASF206
 2811 08ec 03       		.byte	0x3
 2812 08ed 4F01     		.2byte	0x14f
 2813 08ef A9080000 		.4byte	0x8a9
 2814 08f3 0B       		.uleb128 0xb
 2815 08f4 04       		.byte	0x4
 2816 08f5 CE000000 		.4byte	0xce
 2817 08f9 1F       		.uleb128 0x1f
 2818 08fa 610D0000 		.4byte	.LASF230
 2819 08fe 02       		.byte	0x2
 2820 08ff 4C02     		.2byte	0x24c
 2821 0901 4B030000 		.4byte	0x34b
 2822 0905 03       		.byte	0x3
 2823 0906 29090000 		.4byte	0x929
 2824 090a 20       		.uleb128 0x20
 2825 090b 7200     		.ascii	"r\000"
 2826 090d 02       		.byte	0x2
 2827 090e 4C02     		.2byte	0x24c
 2828 0910 B8000000 		.4byte	0xb8
 2829 0914 20       		.uleb128 0x20
 2830 0915 6700     		.ascii	"g\000"
 2831 0917 02       		.byte	0x2
 2832 0918 4C02     		.2byte	0x24c
 2833 091a B8000000 		.4byte	0xb8
 2834 091e 20       		.uleb128 0x20
 2835 091f 6200     		.ascii	"b\000"
 2836 0921 02       		.byte	0x2
 2837 0922 4C02     		.2byte	0x24c
 2838 0924 B8000000 		.4byte	0xb8
 2839 0928 00       		.byte	0
 2840 0929 21       		.uleb128 0x21
 2841 092a 82070000 		.4byte	.LASF207
 2842 092e 02       		.byte	0x2
ARM GAS  C:\Users\haske\AppData\Local\Temp\ccdHxW38.s 			page 81


 2843 092f B102     		.2byte	0x2b1
 2844 0931 4B030000 		.4byte	0x34b
 2845 0935 03       		.byte	0x3
 2846 0936 21       		.uleb128 0x21
 2847 0937 2B090000 		.4byte	.LASF208
 2848 093b 02       		.byte	0x2
 2849 093c B502     		.2byte	0x2b5
 2850 093e 4B030000 		.4byte	0x34b
 2851 0942 03       		.byte	0x3
 2852 0943 22       		.uleb128 0x22
 2853 0944 69100000 		.4byte	.LASF211
 2854 0948 01       		.byte	0x1
 2855 0949 8E01     		.2byte	0x18e
 2856 094b 00000000 		.4byte	.LFB69
 2857 094f 06000000 		.4byte	.LFE69-.LFB69
 2858 0953 01       		.uleb128 0x1
 2859 0954 9C       		.byte	0x9c
 2860 0955 92090000 		.4byte	0x992
 2861 0959 23       		.uleb128 0x23
 2862 095a 1A060000 		.4byte	.LASF197
 2863 095e 01       		.byte	0x1
 2864 095f 8E01     		.2byte	0x18e
 2865 0961 A0070000 		.4byte	0x7a0
 2866 0965 01       		.uleb128 0x1
 2867 0966 50       		.byte	0x50
 2868 0967 23       		.uleb128 0x23
 2869 0968 3B050000 		.4byte	.LASF198
 2870 096c 01       		.byte	0x1
 2871 096d 8E01     		.2byte	0x18e
 2872 096f 70050000 		.4byte	0x570
 2873 0973 01       		.uleb128 0x1
 2874 0974 51       		.byte	0x51
 2875 0975 23       		.uleb128 0x23
 2876 0976 37010000 		.4byte	.LASF209
 2877 097a 01       		.byte	0x1
 2878 097b 8E01     		.2byte	0x18e
 2879 097d F3080000 		.4byte	0x8f3
 2880 0981 01       		.uleb128 0x1
 2881 0982 52       		.byte	0x52
 2882 0983 23       		.uleb128 0x23
 2883 0984 CD050000 		.4byte	.LASF210
 2884 0988 01       		.byte	0x1
 2885 0989 8F01     		.2byte	0x18f
 2886 098b 92090000 		.4byte	0x992
 2887 098f 01       		.uleb128 0x1
 2888 0990 53       		.byte	0x53
 2889 0991 00       		.byte	0
 2890 0992 0B       		.uleb128 0xb
 2891 0993 04       		.byte	0x4
 2892 0994 70050000 		.4byte	0x570
 2893 0998 22       		.uleb128 0x22
 2894 0999 FB0B0000 		.4byte	.LASF212
 2895 099d 01       		.byte	0x1
 2896 099e 9501     		.2byte	0x195
 2897 09a0 00000000 		.4byte	.LFB70
 2898 09a4 04000000 		.4byte	.LFE70-.LFB70
 2899 09a8 01       		.uleb128 0x1
ARM GAS  C:\Users\haske\AppData\Local\Temp\ccdHxW38.s 			page 82


 2900 09a9 9C       		.byte	0x9c
 2901 09aa E7090000 		.4byte	0x9e7
 2902 09ae 23       		.uleb128 0x23
 2903 09af 1A060000 		.4byte	.LASF197
 2904 09b3 01       		.byte	0x1
 2905 09b4 9501     		.2byte	0x195
 2906 09b6 A0070000 		.4byte	0x7a0
 2907 09ba 01       		.uleb128 0x1
 2908 09bb 50       		.byte	0x50
 2909 09bc 23       		.uleb128 0x23
 2910 09bd 3B050000 		.4byte	.LASF198
 2911 09c1 01       		.byte	0x1
 2912 09c2 9501     		.2byte	0x195
 2913 09c4 70050000 		.4byte	0x570
 2914 09c8 01       		.uleb128 0x1
 2915 09c9 51       		.byte	0x51
 2916 09ca 23       		.uleb128 0x23
 2917 09cb 37010000 		.4byte	.LASF209
 2918 09cf 01       		.byte	0x1
 2919 09d0 9501     		.2byte	0x195
 2920 09d2 F3080000 		.4byte	0x8f3
 2921 09d6 01       		.uleb128 0x1
 2922 09d7 52       		.byte	0x52
 2923 09d8 23       		.uleb128 0x23
 2924 09d9 CD050000 		.4byte	.LASF210
 2925 09dd 01       		.byte	0x1
 2926 09de 9601     		.2byte	0x196
 2927 09e0 92090000 		.4byte	0x992
 2928 09e4 01       		.uleb128 0x1
 2929 09e5 53       		.byte	0x53
 2930 09e6 00       		.byte	0
 2931 09e7 24       		.uleb128 0x24
 2932 09e8 D3020000 		.4byte	.LASF214
 2933 09ec 01       		.byte	0x1
 2934 09ed 96       		.byte	0x96
 2935 09ee 00000000 		.4byte	.LFB56
 2936 09f2 0A000000 		.4byte	.LFE56-.LFB56
 2937 09f6 01       		.uleb128 0x1
 2938 09f7 9C       		.byte	0x9c
 2939 09f8 220A0000 		.4byte	0xa22
 2940 09fc 25       		.uleb128 0x25
 2941 09fd A30B0000 		.4byte	.LASF213
 2942 0a01 01       		.byte	0x1
 2943 0a02 96       		.byte	0x96
 2944 0a03 220A0000 		.4byte	0xa22
 2945 0a07 00000000 		.4byte	.LLST0
 2946 0a0b 26       		.uleb128 0x26
 2947 0a0c 08000000 		.4byte	.LVL3
 2948 0a10 04130000 		.4byte	0x1304
 2949 0a14 27       		.uleb128 0x27
 2950 0a15 01       		.uleb128 0x1
 2951 0a16 50       		.byte	0x50
 2952 0a17 03       		.uleb128 0x3
 2953 0a18 F3       		.byte	0xf3
 2954 0a19 01       		.uleb128 0x1
 2955 0a1a 50       		.byte	0x50
 2956 0a1b 27       		.uleb128 0x27
ARM GAS  C:\Users\haske\AppData\Local\Temp\ccdHxW38.s 			page 83


 2957 0a1c 01       		.uleb128 0x1
 2958 0a1d 51       		.byte	0x51
 2959 0a1e 01       		.uleb128 0x1
 2960 0a1f 38       		.byte	0x38
 2961 0a20 00       		.byte	0
 2962 0a21 00       		.byte	0
 2963 0a22 0B       		.uleb128 0xb
 2964 0a23 04       		.byte	0x4
 2965 0a24 E7080000 		.4byte	0x8e7
 2966 0a28 24       		.uleb128 0x24
 2967 0a29 64040000 		.4byte	.LASF215
 2968 0a2d 01       		.byte	0x1
 2969 0a2e A4       		.byte	0xa4
 2970 0a2f 00000000 		.4byte	.LFB57
 2971 0a33 28000000 		.4byte	.LFE57-.LFB57
 2972 0a37 01       		.uleb128 0x1
 2973 0a38 9C       		.byte	0x9c
 2974 0a39 6B0A0000 		.4byte	0xa6b
 2975 0a3d 25       		.uleb128 0x25
 2976 0a3e A30B0000 		.4byte	.LASF213
 2977 0a42 01       		.byte	0x1
 2978 0a43 A4       		.byte	0xa4
 2979 0a44 220A0000 		.4byte	0xa22
 2980 0a48 21000000 		.4byte	.LLST1
 2981 0a4c 28       		.uleb128 0x28
 2982 0a4d 18000000 		.4byte	.LVL6
 2983 0a51 0F130000 		.4byte	0x130f
 2984 0a55 26       		.uleb128 0x26
 2985 0a56 20000000 		.4byte	.LVL7
 2986 0a5a 04130000 		.4byte	0x1304
 2987 0a5e 27       		.uleb128 0x27
 2988 0a5f 01       		.uleb128 0x1
 2989 0a60 50       		.byte	0x50
 2990 0a61 02       		.uleb128 0x2
 2991 0a62 74       		.byte	0x74
 2992 0a63 00       		.sleb128 0
 2993 0a64 27       		.uleb128 0x27
 2994 0a65 01       		.uleb128 0x1
 2995 0a66 51       		.byte	0x51
 2996 0a67 01       		.uleb128 0x1
 2997 0a68 38       		.byte	0x38
 2998 0a69 00       		.byte	0
 2999 0a6a 00       		.byte	0
 3000 0a6b 29       		.uleb128 0x29
 3001 0a6c 59050000 		.4byte	.LASF220
 3002 0a70 01       		.byte	0x1
 3003 0a71 B4       		.byte	0xb4
 3004 0a72 A0070000 		.4byte	0x7a0
 3005 0a76 00000000 		.4byte	.LFB58
 3006 0a7a 7C000000 		.4byte	.LFE58-.LFB58
 3007 0a7e 01       		.uleb128 0x1
 3008 0a7f 9C       		.byte	0x9c
 3009 0a80 D70A0000 		.4byte	0xad7
 3010 0a84 25       		.uleb128 0x25
 3011 0a85 AA0A0000 		.4byte	.LASF216
 3012 0a89 01       		.byte	0x1
 3013 0a8a B4       		.byte	0xb4
ARM GAS  C:\Users\haske\AppData\Local\Temp\ccdHxW38.s 			page 84


 3014 0a8b B8000000 		.4byte	0xb8
 3015 0a8f 4D000000 		.4byte	.LLST2
 3016 0a93 2A       		.uleb128 0x2a
 3017 0a94 B4050000 		.4byte	.LASF217
 3018 0a98 01       		.byte	0x1
 3019 0a99 C3       		.byte	0xc3
 3020 0a9a EF000000 		.4byte	0xef
 3021 0a9e 6E000000 		.4byte	.LLST3
 3022 0aa2 2B       		.uleb128 0x2b
 3023 0aa3 00000000 		.4byte	.Ldebug_ranges0+0
 3024 0aa7 2A       		.uleb128 0x2a
 3025 0aa8 73040000 		.4byte	.LASF218
 3026 0aac 01       		.byte	0x1
 3027 0aad C8       		.byte	0xc8
 3028 0aae 98080000 		.4byte	0x898
 3029 0ab2 A4000000 		.4byte	.LLST4
 3030 0ab6 2A       		.uleb128 0x2a
 3031 0ab7 B10C0000 		.4byte	.LASF219
 3032 0abb 01       		.byte	0x1
 3033 0abc C9       		.byte	0xc9
 3034 0abd 98080000 		.4byte	0x898
 3035 0ac1 B7000000 		.4byte	.LLST5
 3036 0ac5 26       		.uleb128 0x26
 3037 0ac6 40000000 		.4byte	.LVL15
 3038 0aca 1A130000 		.4byte	0x131a
 3039 0ace 27       		.uleb128 0x27
 3040 0acf 01       		.uleb128 0x1
 3041 0ad0 51       		.byte	0x51
 3042 0ad1 02       		.uleb128 0x2
 3043 0ad2 74       		.byte	0x74
 3044 0ad3 00       		.sleb128 0
 3045 0ad4 00       		.byte	0
 3046 0ad5 00       		.byte	0
 3047 0ad6 00       		.byte	0
 3048 0ad7 2C       		.uleb128 0x2c
 3049 0ad8 35020000 		.4byte	.LASF260
 3050 0adc 01       		.byte	0x1
 3051 0add D8       		.byte	0xd8
 3052 0ade A0070000 		.4byte	0x7a0
 3053 0ae2 00000000 		.4byte	.LFB59
 3054 0ae6 10000000 		.4byte	.LFE59-.LFB59
 3055 0aea 01       		.uleb128 0x1
 3056 0aeb 9C       		.byte	0x9c
 3057 0aec 29       		.uleb128 0x29
 3058 0aed 220D0000 		.4byte	.LASF221
 3059 0af1 01       		.byte	0x1
 3060 0af2 DD       		.byte	0xdd
 3061 0af3 37020000 		.4byte	0x237
 3062 0af7 00000000 		.4byte	.LFB60
 3063 0afb 14010000 		.4byte	.LFE60-.LFB60
 3064 0aff 01       		.uleb128 0x1
 3065 0b00 9C       		.byte	0x9c
 3066 0b01 E10B0000 		.4byte	0xbe1
 3067 0b05 25       		.uleb128 0x25
 3068 0b06 A30B0000 		.4byte	.LASF213
 3069 0b0a 01       		.byte	0x1
 3070 0b0b DD       		.byte	0xdd
ARM GAS  C:\Users\haske\AppData\Local\Temp\ccdHxW38.s 			page 85


 3071 0b0c 220A0000 		.4byte	0xa22
 3072 0b10 D5000000 		.4byte	.LLST6
 3073 0b14 25       		.uleb128 0x25
 3074 0b15 1A060000 		.4byte	.LASF197
 3075 0b19 01       		.byte	0x1
 3076 0b1a DD       		.byte	0xdd
 3077 0b1b A0070000 		.4byte	0x7a0
 3078 0b1f 59010000 		.4byte	.LLST7
 3079 0b23 2D       		.uleb128 0x2d
 3080 0b24 746D7000 		.ascii	"tmp\000"
 3081 0b28 01       		.byte	0x1
 3082 0b29 F1       		.byte	0xf1
 3083 0b2a 98080000 		.4byte	0x898
 3084 0b2e 93010000 		.4byte	.LLST8
 3085 0b32 2A       		.uleb128 0x2a
 3086 0b33 AA050000 		.4byte	.LASF222
 3087 0b37 01       		.byte	0x1
 3088 0b38 F2       		.byte	0xf2
 3089 0b39 F3080000 		.4byte	0x8f3
 3090 0b3d 0C020000 		.4byte	.LLST9
 3091 0b41 2D       		.uleb128 0x2d
 3092 0b42 6900     		.ascii	"i\000"
 3093 0b44 01       		.byte	0x1
 3094 0b45 F3       		.byte	0xf3
 3095 0b46 E4000000 		.4byte	0xe4
 3096 0b4a 55020000 		.4byte	.LLST10
 3097 0b4e 2B       		.uleb128 0x2b
 3098 0b4f 18000000 		.4byte	.Ldebug_ranges0+0x18
 3099 0b53 2A       		.uleb128 0x2a
 3100 0b54 22030000 		.4byte	.LASF223
 3101 0b58 01       		.byte	0x1
 3102 0b59 F6       		.byte	0xf6
 3103 0b5a 92090000 		.4byte	0x992
 3104 0b5e AE020000 		.4byte	.LLST11
 3105 0b62 2E       		.uleb128 0x2e
 3106 0b63 30000000 		.4byte	.Ldebug_ranges0+0x30
 3107 0b67 CF0B0000 		.4byte	0xbcf
 3108 0b6b 2A       		.uleb128 0x2a
 3109 0b6c 380C0000 		.4byte	.LASF224
 3110 0b70 01       		.byte	0x1
 3111 0b71 FE       		.byte	0xfe
 3112 0b72 EF000000 		.4byte	0xef
 3113 0b76 CC020000 		.4byte	.LLST12
 3114 0b7a 2A       		.uleb128 0x2a
 3115 0b7b 750B0000 		.4byte	.LASF225
 3116 0b7f 01       		.byte	0x1
 3117 0b80 FF       		.byte	0xff
 3118 0b81 98080000 		.4byte	0x898
 3119 0b85 07030000 		.4byte	.LLST13
 3120 0b89 2F       		.uleb128 0x2f
 3121 0b8a 990F0000 		.4byte	.LASF226
 3122 0b8e 01       		.byte	0x1
 3123 0b8f 0501     		.2byte	0x105
 3124 0b91 F3080000 		.4byte	0x8f3
 3125 0b95 30030000 		.4byte	.LLST14
 3126 0b99 2F       		.uleb128 0x2f
 3127 0b9a 8A0A0000 		.4byte	.LASF227
ARM GAS  C:\Users\haske\AppData\Local\Temp\ccdHxW38.s 			page 86


 3128 0b9e 01       		.byte	0x1
 3129 0b9f 0601     		.2byte	0x106
 3130 0ba1 92090000 		.4byte	0x992
 3131 0ba5 68030000 		.4byte	.LLST15
 3132 0ba9 30       		.uleb128 0x30
 3133 0baa 6A00     		.ascii	"j\000"
 3134 0bac 01       		.byte	0x1
 3135 0bad 0801     		.2byte	0x108
 3136 0baf E4000000 		.4byte	0xe4
 3137 0bb3 86030000 		.4byte	.LLST16
 3138 0bb7 26       		.uleb128 0x26
 3139 0bb8 8C000000 		.4byte	.LVL28
 3140 0bbc 25130000 		.4byte	0x1325
 3141 0bc0 27       		.uleb128 0x27
 3142 0bc1 01       		.uleb128 0x1
 3143 0bc2 50       		.byte	0x50
 3144 0bc3 09       		.uleb128 0x9
 3145 0bc4 78       		.byte	0x78
 3146 0bc5 7F       		.sleb128 -1
 3147 0bc6 78       		.byte	0x78
 3148 0bc7 7F       		.sleb128 -1
 3149 0bc8 31       		.byte	0x31
 3150 0bc9 24       		.byte	0x24
 3151 0bca 22       		.byte	0x22
 3152 0bcb 31       		.byte	0x31
 3153 0bcc 24       		.byte	0x24
 3154 0bcd 00       		.byte	0
 3155 0bce 00       		.byte	0
 3156 0bcf 26       		.uleb128 0x26
 3157 0bd0 E6000000 		.4byte	.LVL37
 3158 0bd4 0F130000 		.4byte	0x130f
 3159 0bd8 27       		.uleb128 0x27
 3160 0bd9 01       		.uleb128 0x1
 3161 0bda 50       		.byte	0x50
 3162 0bdb 02       		.uleb128 0x2
 3163 0bdc 74       		.byte	0x74
 3164 0bdd 00       		.sleb128 0
 3165 0bde 00       		.byte	0
 3166 0bdf 00       		.byte	0
 3167 0be0 00       		.byte	0
 3168 0be1 31       		.uleb128 0x31
 3169 0be2 C00B0000 		.4byte	.LASF228
 3170 0be6 01       		.byte	0x1
 3171 0be7 2901     		.2byte	0x129
 3172 0be9 00000000 		.4byte	.LFB64
 3173 0bed 2C000000 		.4byte	.LFE64-.LFB64
 3174 0bf1 01       		.uleb128 0x1
 3175 0bf2 9C       		.byte	0x9c
 3176 0bf3 6A0C0000 		.4byte	0xc6a
 3177 0bf7 32       		.uleb128 0x32
 3178 0bf8 747200   		.ascii	"tr\000"
 3179 0bfb 01       		.byte	0x1
 3180 0bfc 2901     		.2byte	0x129
 3181 0bfe 6A0C0000 		.4byte	0xc6a
 3182 0c02 A5030000 		.4byte	.LLST17
 3183 0c06 33       		.uleb128 0x33
 3184 0c07 1A100000 		.4byte	.LASF193
ARM GAS  C:\Users\haske\AppData\Local\Temp\ccdHxW38.s 			page 87


 3185 0c0b 01       		.byte	0x1
 3186 0c0c 2901     		.2byte	0x129
 3187 0c0e 23080000 		.4byte	0x823
 3188 0c12 D1030000 		.4byte	.LLST18
 3189 0c16 33       		.uleb128 0x33
 3190 0c17 85000000 		.4byte	.LASF71
 3191 0c1b 01       		.byte	0x1
 3192 0c1c 2A01     		.2byte	0x12a
 3193 0c1e 56030000 		.4byte	0x356
 3194 0c22 FC030000 		.4byte	.LLST19
 3195 0c26 33       		.uleb128 0x33
 3196 0c27 C00D0000 		.4byte	.LASF75
 3197 0c2b 01       		.byte	0x1
 3198 0c2c 2A01     		.2byte	0x12a
 3199 0c2e E4000000 		.4byte	0xe4
 3200 0c32 28040000 		.4byte	.LLST20
 3201 0c36 23       		.uleb128 0x23
 3202 0c37 1D010000 		.4byte	.LASF195
 3203 0c3b 01       		.byte	0x1
 3204 0c3c 2A01     		.2byte	0x12a
 3205 0c3e E4000000 		.4byte	0xe4
 3206 0c42 02       		.uleb128 0x2
 3207 0c43 91       		.byte	0x91
 3208 0c44 00       		.sleb128 0
 3209 0c45 23       		.uleb128 0x23
 3210 0c46 B7100000 		.4byte	.LASF39
 3211 0c4a 01       		.byte	0x1
 3212 0c4b 2A01     		.2byte	0x12a
 3213 0c4d 76020000 		.4byte	0x276
 3214 0c51 02       		.uleb128 0x2
 3215 0c52 91       		.byte	0x91
 3216 0c53 04       		.sleb128 4
 3217 0c54 26       		.uleb128 0x26
 3218 0c55 10000000 		.4byte	.LVL51
 3219 0c59 04130000 		.4byte	0x1304
 3220 0c5d 27       		.uleb128 0x27
 3221 0c5e 01       		.uleb128 0x1
 3222 0c5f 50       		.byte	0x50
 3223 0c60 02       		.uleb128 0x2
 3224 0c61 74       		.byte	0x74
 3225 0c62 00       		.sleb128 0
 3226 0c63 27       		.uleb128 0x27
 3227 0c64 01       		.uleb128 0x1
 3228 0c65 51       		.byte	0x51
 3229 0c66 01       		.uleb128 0x1
 3230 0c67 44       		.byte	0x44
 3231 0c68 00       		.byte	0
 3232 0c69 00       		.byte	0
 3233 0c6a 0B       		.uleb128 0xb
 3234 0c6b 04       		.byte	0x4
 3235 0c6c 2E080000 		.4byte	0x82e
 3236 0c70 34       		.uleb128 0x34
 3237 0c71 F80D0000 		.4byte	.LASF229
 3238 0c75 01       		.byte	0x1
 3239 0c76 3801     		.2byte	0x138
 3240 0c78 70050000 		.4byte	0x570
 3241 0c7c 00000000 		.4byte	.LFB65
ARM GAS  C:\Users\haske\AppData\Local\Temp\ccdHxW38.s 			page 88


 3242 0c80 54000000 		.4byte	.LFE65-.LFB65
 3243 0c84 01       		.uleb128 0x1
 3244 0c85 9C       		.byte	0x9c
 3245 0c86 E80C0000 		.4byte	0xce8
 3246 0c8a 33       		.uleb128 0x33
 3247 0c8b 1A060000 		.4byte	.LASF197
 3248 0c8f 01       		.byte	0x1
 3249 0c90 3801     		.2byte	0x138
 3250 0c92 A0070000 		.4byte	0x7a0
 3251 0c96 55040000 		.4byte	.LLST21
 3252 0c9a 2F       		.uleb128 0x2f
 3253 0c9b 3B050000 		.4byte	.LASF198
 3254 0c9f 01       		.byte	0x1
 3255 0ca0 3A01     		.2byte	0x13a
 3256 0ca2 70050000 		.4byte	0x570
 3257 0ca6 76040000 		.4byte	.LLST22
 3258 0caa 35       		.uleb128 0x35
 3259 0cab 29090000 		.4byte	0x929
 3260 0caf 16000000 		.4byte	.LBB20
 3261 0cb3 14000000 		.4byte	.LBE20-.LBB20
 3262 0cb7 01       		.byte	0x1
 3263 0cb8 4001     		.2byte	0x140
 3264 0cba 35       		.uleb128 0x35
 3265 0cbb F9080000 		.4byte	0x8f9
 3266 0cbf 16000000 		.4byte	.LBB21
 3267 0cc3 14000000 		.4byte	.LBE21-.LBB21
 3268 0cc7 02       		.byte	0x2
 3269 0cc8 B302     		.2byte	0x2b3
 3270 0cca 36       		.uleb128 0x36
 3271 0ccb 1E090000 		.4byte	0x91e
 3272 0ccf 89040000 		.4byte	.LLST23
 3273 0cd3 36       		.uleb128 0x36
 3274 0cd4 14090000 		.4byte	0x914
 3275 0cd8 89040000 		.4byte	.LLST23
 3276 0cdc 36       		.uleb128 0x36
 3277 0cdd 0A090000 		.4byte	0x90a
 3278 0ce1 89040000 		.4byte	.LLST23
 3279 0ce5 00       		.byte	0
 3280 0ce6 00       		.byte	0
 3281 0ce7 00       		.byte	0
 3282 0ce8 1F       		.uleb128 0x1f
 3283 0ce9 AB010000 		.4byte	.LASF231
 3284 0ced 03       		.byte	0x3
 3285 0cee C001     		.2byte	0x1c0
 3286 0cf0 CC070000 		.4byte	0x7cc
 3287 0cf4 03       		.byte	0x3
 3288 0cf5 880D0000 		.4byte	0xd88
 3289 0cf9 37       		.uleb128 0x37
 3290 0cfa A30B0000 		.4byte	.LASF213
 3291 0cfe 03       		.byte	0x3
 3292 0cff C001     		.2byte	0x1c0
 3293 0d01 880D0000 		.4byte	0xd88
 3294 0d05 37       		.uleb128 0x37
 3295 0d06 1A060000 		.4byte	.LASF197
 3296 0d0a 03       		.byte	0x3
 3297 0d0b C001     		.2byte	0x1c0
 3298 0d0d A0070000 		.4byte	0x7a0
ARM GAS  C:\Users\haske\AppData\Local\Temp\ccdHxW38.s 			page 89


 3299 0d11 37       		.uleb128 0x37
 3300 0d12 3B050000 		.4byte	.LASF198
 3301 0d16 03       		.byte	0x3
 3302 0d17 C101     		.2byte	0x1c1
 3303 0d19 92090000 		.4byte	0x992
 3304 0d1d 38       		.uleb128 0x38
 3305 0d1e 470D0000 		.4byte	0xd47
 3306 0d22 39       		.uleb128 0x39
 3307 0d23 460F0000 		.4byte	.LASF232
 3308 0d27 03       		.byte	0x3
 3309 0d28 C401     		.2byte	0x1c4
 3310 0d2a 9E080000 		.4byte	0x89e
 3311 0d2e 3A       		.uleb128 0x3a
 3312 0d2f 6900     		.ascii	"i\000"
 3313 0d31 03       		.byte	0x3
 3314 0d32 C501     		.2byte	0x1c5
 3315 0d34 E4000000 		.4byte	0xe4
 3316 0d38 3B       		.uleb128 0x3b
 3317 0d39 39       		.uleb128 0x39
 3318 0d3a D5080000 		.4byte	.LASF233
 3319 0d3e 03       		.byte	0x3
 3320 0d3f C801     		.2byte	0x1c8
 3321 0d41 A0070000 		.4byte	0x7a0
 3322 0d45 00       		.byte	0
 3323 0d46 00       		.byte	0
 3324 0d47 3B       		.uleb128 0x3b
 3325 0d48 3A       		.uleb128 0x3a
 3326 0d49 746D7000 		.ascii	"tmp\000"
 3327 0d4d 03       		.byte	0x3
 3328 0d4e D601     		.2byte	0x1d6
 3329 0d50 98080000 		.4byte	0x898
 3330 0d54 39       		.uleb128 0x39
 3331 0d55 1A100000 		.4byte	.LASF193
 3332 0d59 03       		.byte	0x3
 3333 0d5a D701     		.2byte	0x1d7
 3334 0d5c F3080000 		.4byte	0x8f3
 3335 0d60 3A       		.uleb128 0x3a
 3336 0d61 6900     		.ascii	"i\000"
 3337 0d63 03       		.byte	0x3
 3338 0d64 D801     		.2byte	0x1d8
 3339 0d66 E4000000 		.4byte	0xe4
 3340 0d6a 3B       		.uleb128 0x3b
 3341 0d6b 39       		.uleb128 0x39
 3342 0d6c D5080000 		.4byte	.LASF233
 3343 0d70 03       		.byte	0x3
 3344 0d71 DA01     		.2byte	0x1da
 3345 0d73 A0070000 		.4byte	0x7a0
 3346 0d77 3B       		.uleb128 0x3b
 3347 0d78 39       		.uleb128 0x39
 3348 0d79 C50D0000 		.4byte	.LASF234
 3349 0d7d 03       		.byte	0x3
 3350 0d7e E101     		.2byte	0x1e1
 3351 0d80 92090000 		.4byte	0x992
 3352 0d84 00       		.byte	0
 3353 0d85 00       		.byte	0
 3354 0d86 00       		.byte	0
 3355 0d87 00       		.byte	0
ARM GAS  C:\Users\haske\AppData\Local\Temp\ccdHxW38.s 			page 90


 3356 0d88 0B       		.uleb128 0xb
 3357 0d89 04       		.byte	0x4
 3358 0d8a 8E0D0000 		.4byte	0xd8e
 3359 0d8e 0C       		.uleb128 0xc
 3360 0d8f E7080000 		.4byte	0x8e7
 3361 0d93 34       		.uleb128 0x34
 3362 0d94 B5020000 		.4byte	.LASF235
 3363 0d98 01       		.byte	0x1
 3364 0d99 2401     		.2byte	0x124
 3365 0d9b CC070000 		.4byte	0x7cc
 3366 0d9f 00000000 		.4byte	.LFB63
 3367 0da3 D4000000 		.4byte	.LFE63-.LFB63
 3368 0da7 01       		.uleb128 0x1
 3369 0da8 9C       		.byte	0x9c
 3370 0da9 A20E0000 		.4byte	0xea2
 3371 0dad 33       		.uleb128 0x33
 3372 0dae A30B0000 		.4byte	.LASF213
 3373 0db2 01       		.byte	0x1
 3374 0db3 2401     		.2byte	0x124
 3375 0db5 880D0000 		.4byte	0xd88
 3376 0db9 9E040000 		.4byte	.LLST26
 3377 0dbd 33       		.uleb128 0x33
 3378 0dbe 1A060000 		.4byte	.LASF197
 3379 0dc2 01       		.byte	0x1
 3380 0dc3 2401     		.2byte	0x124
 3381 0dc5 A0070000 		.4byte	0x7a0
 3382 0dc9 28050000 		.4byte	.LLST27
 3383 0dcd 33       		.uleb128 0x33
 3384 0dce 3B050000 		.4byte	.LASF198
 3385 0dd2 01       		.byte	0x1
 3386 0dd3 2401     		.2byte	0x124
 3387 0dd5 92090000 		.4byte	0x992
 3388 0dd9 AD050000 		.4byte	.LLST28
 3389 0ddd 35       		.uleb128 0x35
 3390 0dde E80C0000 		.4byte	0xce8
 3391 0de2 06000000 		.4byte	.LBB30
 3392 0de6 C6000000 		.4byte	.LBE30-.LBB30
 3393 0dea 01       		.byte	0x1
 3394 0deb 2601     		.2byte	0x126
 3395 0ded 36       		.uleb128 0x36
 3396 0dee 110D0000 		.4byte	0xd11
 3397 0df2 D9050000 		.4byte	.LLST29
 3398 0df6 36       		.uleb128 0x36
 3399 0df7 050D0000 		.4byte	0xd05
 3400 0dfb F7050000 		.4byte	.LLST30
 3401 0dff 36       		.uleb128 0x36
 3402 0e00 F90C0000 		.4byte	0xcf9
 3403 0e04 6E060000 		.4byte	.LLST31
 3404 0e08 2E       		.uleb128 0x2e
 3405 0e09 48000000 		.4byte	.Ldebug_ranges0+0x48
 3406 0e0d 430E0000 		.4byte	0xe43
 3407 0e11 3C       		.uleb128 0x3c
 3408 0e12 220D0000 		.4byte	0xd22
 3409 0e16 EA060000 		.4byte	.LLST32
 3410 0e1a 3C       		.uleb128 0x3c
 3411 0e1b 2E0D0000 		.4byte	0xd2e
 3412 0e1f 13070000 		.4byte	.LLST33
ARM GAS  C:\Users\haske\AppData\Local\Temp\ccdHxW38.s 			page 91


 3413 0e23 2B       		.uleb128 0x2b
 3414 0e24 68000000 		.4byte	.Ldebug_ranges0+0x68
 3415 0e28 3C       		.uleb128 0x3c
 3416 0e29 390D0000 		.4byte	0xd39
 3417 0e2d 3C070000 		.4byte	.LLST34
 3418 0e31 26       		.uleb128 0x26
 3419 0e32 32000000 		.4byte	.LVL69
 3420 0e36 700C0000 		.4byte	0xc70
 3421 0e3a 27       		.uleb128 0x27
 3422 0e3b 01       		.uleb128 0x1
 3423 0e3c 50       		.byte	0x50
 3424 0e3d 02       		.uleb128 0x2
 3425 0e3e 75       		.byte	0x75
 3426 0e3f 00       		.sleb128 0
 3427 0e40 00       		.byte	0
 3428 0e41 00       		.byte	0
 3429 0e42 00       		.byte	0
 3430 0e43 2E       		.uleb128 0x2e
 3431 0e44 80000000 		.4byte	.Ldebug_ranges0+0x80
 3432 0e48 970E0000 		.4byte	0xe97
 3433 0e4c 3C       		.uleb128 0x3c
 3434 0e4d 480D0000 		.4byte	0xd48
 3435 0e51 5A070000 		.4byte	.LLST35
 3436 0e55 3C       		.uleb128 0x3c
 3437 0e56 540D0000 		.4byte	0xd54
 3438 0e5a 5A070000 		.4byte	.LLST35
 3439 0e5e 3C       		.uleb128 0x3c
 3440 0e5f 600D0000 		.4byte	0xd60
 3441 0e63 82070000 		.4byte	.LLST37
 3442 0e67 2B       		.uleb128 0x2b
 3443 0e68 98000000 		.4byte	.Ldebug_ranges0+0x98
 3444 0e6c 3C       		.uleb128 0x3c
 3445 0e6d 6B0D0000 		.4byte	0xd6b
 3446 0e71 C2070000 		.4byte	.LLST38
 3447 0e75 3D       		.uleb128 0x3d
 3448 0e76 86000000 		.4byte	.LBB38
 3449 0e7a 06000000 		.4byte	.LBE38-.LBB38
 3450 0e7e 8C0E0000 		.4byte	0xe8c
 3451 0e82 3C       		.uleb128 0x3c
 3452 0e83 780D0000 		.4byte	0xd78
 3453 0e87 07080000 		.4byte	.LLST39
 3454 0e8b 00       		.byte	0
 3455 0e8c 28       		.uleb128 0x28
 3456 0e8d 80000000 		.4byte	.LVL82
 3457 0e91 700C0000 		.4byte	0xc70
 3458 0e95 00       		.byte	0
 3459 0e96 00       		.byte	0
 3460 0e97 28       		.uleb128 0x28
 3461 0e98 B0000000 		.4byte	.LVL89
 3462 0e9c 700C0000 		.4byte	0xc70
 3463 0ea0 00       		.byte	0
 3464 0ea1 00       		.byte	0
 3465 0ea2 34       		.uleb128 0x34
 3466 0ea3 BF0A0000 		.4byte	.LASF236
 3467 0ea7 01       		.byte	0x1
 3468 0ea8 6D01     		.2byte	0x16d
 3469 0eaa 37020000 		.4byte	0x237
ARM GAS  C:\Users\haske\AppData\Local\Temp\ccdHxW38.s 			page 92


 3470 0eae 00000000 		.4byte	.LFB66
 3471 0eb2 0A000000 		.4byte	.LFE66-.LFB66
 3472 0eb6 01       		.uleb128 0x1
 3473 0eb7 9C       		.byte	0x9c
 3474 0eb8 CD0E0000 		.4byte	0xecd
 3475 0ebc 33       		.uleb128 0x33
 3476 0ebd A30B0000 		.4byte	.LASF213
 3477 0ec1 01       		.byte	0x1
 3478 0ec2 6D01     		.2byte	0x16d
 3479 0ec4 880D0000 		.4byte	0xd88
 3480 0ec8 1A080000 		.4byte	.LLST40
 3481 0ecc 00       		.byte	0
 3482 0ecd 34       		.uleb128 0x34
 3483 0ece 8A0B0000 		.4byte	.LASF237
 3484 0ed2 01       		.byte	0x1
 3485 0ed3 7401     		.2byte	0x174
 3486 0ed5 B8000000 		.4byte	0xb8
 3487 0ed9 00000000 		.4byte	.LFB67
 3488 0edd 10000000 		.4byte	.LFE67-.LFB67
 3489 0ee1 01       		.uleb128 0x1
 3490 0ee2 9C       		.byte	0x9c
 3491 0ee3 080F0000 		.4byte	0xf08
 3492 0ee7 33       		.uleb128 0x33
 3493 0ee8 1A060000 		.4byte	.LASF197
 3494 0eec 01       		.byte	0x1
 3495 0eed 7401     		.2byte	0x174
 3496 0eef A0070000 		.4byte	0x7a0
 3497 0ef3 3B080000 		.4byte	.LLST41
 3498 0ef7 2F       		.uleb128 0x2f
 3499 0ef8 A6080000 		.4byte	.LASF238
 3500 0efc 01       		.byte	0x1
 3501 0efd 7601     		.2byte	0x176
 3502 0eff CE000000 		.4byte	0xce
 3503 0f03 5C080000 		.4byte	.LLST42
 3504 0f07 00       		.byte	0
 3505 0f08 22       		.uleb128 0x22
 3506 0f09 BA080000 		.4byte	.LASF239
 3507 0f0d 01       		.byte	0x1
 3508 0f0e 9D01     		.2byte	0x19d
 3509 0f10 00000000 		.4byte	.LFB71
 3510 0f14 24010000 		.4byte	.LFE71-.LFB71
 3511 0f18 01       		.uleb128 0x1
 3512 0f19 9C       		.byte	0x9c
 3513 0f1a 5B110000 		.4byte	0x115b
 3514 0f1e 33       		.uleb128 0x33
 3515 0f1f A30B0000 		.4byte	.LASF213
 3516 0f23 01       		.byte	0x1
 3517 0f24 9D01     		.2byte	0x19d
 3518 0f26 220A0000 		.4byte	0xa22
 3519 0f2a 6F080000 		.4byte	.LLST43
 3520 0f2e 33       		.uleb128 0x33
 3521 0f2f CC0D0000 		.4byte	.LASF240
 3522 0f33 01       		.byte	0x1
 3523 0f34 9D01     		.2byte	0x19d
 3524 0f36 A0070000 		.4byte	0x7a0
 3525 0f3a DD080000 		.4byte	.LLST44
 3526 0f3e 33       		.uleb128 0x33
ARM GAS  C:\Users\haske\AppData\Local\Temp\ccdHxW38.s 			page 93


 3527 0f3f 3B050000 		.4byte	.LASF198
 3528 0f43 01       		.byte	0x1
 3529 0f44 9D01     		.2byte	0x19d
 3530 0f46 70050000 		.4byte	0x570
 3531 0f4a 49090000 		.4byte	.LLST45
 3532 0f4e 33       		.uleb128 0x33
 3533 0f4f 44060000 		.4byte	.LASF241
 3534 0f53 01       		.byte	0x1
 3535 0f54 9E01     		.2byte	0x19e
 3536 0f56 75110000 		.4byte	0x1175
 3537 0f5a 5C090000 		.4byte	.LLST46
 3538 0f5e 2F       		.uleb128 0x2f
 3539 0f5f D5080000 		.4byte	.LASF233
 3540 0f63 01       		.byte	0x1
 3541 0f64 A701     		.2byte	0x1a7
 3542 0f66 A0070000 		.4byte	0x7a0
 3543 0f6a 7B090000 		.4byte	.LLST47
 3544 0f6e 2F       		.uleb128 0x2f
 3545 0f6f A6080000 		.4byte	.LASF238
 3546 0f73 01       		.byte	0x1
 3547 0f74 E201     		.2byte	0x1e2
 3548 0f76 B8000000 		.4byte	0xb8
 3549 0f7a 8E090000 		.4byte	.LLST48
 3550 0f7e 3D       		.uleb128 0x3d
 3551 0f7f 20000000 		.4byte	.LBB42
 3552 0f83 84000000 		.4byte	.LBE42-.LBB42
 3553 0f87 59100000 		.4byte	0x1059
 3554 0f8b 30       		.uleb128 0x30
 3555 0f8c 746D7000 		.ascii	"tmp\000"
 3556 0f90 01       		.byte	0x1
 3557 0f91 AA01     		.2byte	0x1aa
 3558 0f93 98080000 		.4byte	0x898
 3559 0f97 A1090000 		.4byte	.LLST49
 3560 0f9b 2F       		.uleb128 0x2f
 3561 0f9c 1A100000 		.4byte	.LASF193
 3562 0fa0 01       		.byte	0x1
 3563 0fa1 AB01     		.2byte	0x1ab
 3564 0fa3 F3080000 		.4byte	0x8f3
 3565 0fa7 A1090000 		.4byte	.LLST49
 3566 0fab 30       		.uleb128 0x30
 3567 0fac 6900     		.ascii	"i\000"
 3568 0fae 01       		.byte	0x1
 3569 0faf AC01     		.2byte	0x1ac
 3570 0fb1 D9000000 		.4byte	0xd9
 3571 0fb5 200A0000 		.4byte	.LLST51
 3572 0fb9 2F       		.uleb128 0x2f
 3573 0fba 380C0000 		.4byte	.LASF224
 3574 0fbe 01       		.byte	0x1
 3575 0fbf B501     		.2byte	0x1b5
 3576 0fc1 EF000000 		.4byte	0xef
 3577 0fc5 550A0000 		.4byte	.LLST52
 3578 0fc9 2F       		.uleb128 0x2f
 3579 0fca A5060000 		.4byte	.LASF201
 3580 0fce 01       		.byte	0x1
 3581 0fcf B601     		.2byte	0x1b6
 3582 0fd1 98080000 		.4byte	0x898
 3583 0fd5 7C0A0000 		.4byte	.LLST53
ARM GAS  C:\Users\haske\AppData\Local\Temp\ccdHxW38.s 			page 94


 3584 0fd9 2F       		.uleb128 0x2f
 3585 0fda C50D0000 		.4byte	.LASF234
 3586 0fde 01       		.byte	0x1
 3587 0fdf C501     		.2byte	0x1c5
 3588 0fe1 92090000 		.4byte	0x992
 3589 0fe5 8F0A0000 		.4byte	.LLST54
 3590 0fe9 3D       		.uleb128 0x3d
 3591 0fea 3A000000 		.4byte	.LBB43
 3592 0fee 0E000000 		.4byte	.LBE43-.LBB43
 3593 0ff2 1F100000 		.4byte	0x101f
 3594 0ff6 2F       		.uleb128 0x2f
 3595 0ff7 C50D0000 		.4byte	.LASF234
 3596 0ffb 01       		.byte	0x1
 3597 0ffc AF01     		.2byte	0x1af
 3598 0ffe 92090000 		.4byte	0x992
 3599 1002 A20A0000 		.4byte	.LLST55
 3600 1006 3E       		.uleb128 0x3e
 3601 1007 46000000 		.4byte	.LVL115
 3602 100b 02       		.uleb128 0x2
 3603 100c 74       		.byte	0x74
 3604 100d 00       		.sleb128 0
 3605 100e 27       		.uleb128 0x27
 3606 100f 01       		.uleb128 0x1
 3607 1010 50       		.byte	0x50
 3608 1011 04       		.uleb128 0x4
 3609 1012 91       		.byte	0x91
 3610 1013 5C       		.sleb128 -36
 3611 1014 94       		.byte	0x94
 3612 1015 02       		.byte	0x2
 3613 1016 27       		.uleb128 0x27
 3614 1017 01       		.uleb128 0x1
 3615 1018 51       		.byte	0x51
 3616 1019 03       		.uleb128 0x3
 3617 101a 91       		.byte	0x91
 3618 101b 60       		.sleb128 -32
 3619 101c 06       		.byte	0x6
 3620 101d 00       		.byte	0
 3621 101e 00       		.byte	0
 3622 101f 3F       		.uleb128 0x3f
 3623 1020 5C000000 		.4byte	.LVL121
 3624 1024 1A130000 		.4byte	0x131a
 3625 1028 40100000 		.4byte	0x1040
 3626 102c 27       		.uleb128 0x27
 3627 102d 01       		.uleb128 0x1
 3628 102e 50       		.byte	0x50
 3629 102f 02       		.uleb128 0x2
 3630 1030 74       		.byte	0x74
 3631 1031 00       		.sleb128 0
 3632 1032 27       		.uleb128 0x27
 3633 1033 01       		.uleb128 0x1
 3634 1034 51       		.byte	0x51
 3635 1035 09       		.uleb128 0x9
 3636 1036 75       		.byte	0x75
 3637 1037 01       		.sleb128 1
 3638 1038 75       		.byte	0x75
 3639 1039 01       		.sleb128 1
 3640 103a 31       		.byte	0x31
ARM GAS  C:\Users\haske\AppData\Local\Temp\ccdHxW38.s 			page 95


 3641 103b 24       		.byte	0x24
 3642 103c 22       		.byte	0x22
 3643 103d 31       		.byte	0x31
 3644 103e 24       		.byte	0x24
 3645 103f 00       		.byte	0
 3646 1040 3E       		.uleb128 0x3e
 3647 1041 A4000000 		.4byte	.LVL129
 3648 1045 02       		.uleb128 0x2
 3649 1046 74       		.byte	0x74
 3650 1047 00       		.sleb128 0
 3651 1048 27       		.uleb128 0x27
 3652 1049 01       		.uleb128 0x1
 3653 104a 50       		.byte	0x50
 3654 104b 04       		.uleb128 0x4
 3655 104c 91       		.byte	0x91
 3656 104d 5C       		.sleb128 -36
 3657 104e 94       		.byte	0x94
 3658 104f 02       		.byte	0x2
 3659 1050 27       		.uleb128 0x27
 3660 1051 01       		.uleb128 0x1
 3661 1052 51       		.byte	0x51
 3662 1053 03       		.uleb128 0x3
 3663 1054 91       		.byte	0x91
 3664 1055 60       		.sleb128 -32
 3665 1056 06       		.byte	0x6
 3666 1057 00       		.byte	0
 3667 1058 00       		.byte	0
 3668 1059 3D       		.uleb128 0x3d
 3669 105a AA000000 		.4byte	.LBB44
 3670 105e 48000000 		.4byte	.LBE44-.LBB44
 3671 1062 22110000 		.4byte	0x1122
 3672 1066 2F       		.uleb128 0x2f
 3673 1067 380C0000 		.4byte	.LASF224
 3674 106b 01       		.byte	0x1
 3675 106c CF01     		.2byte	0x1cf
 3676 106e EF000000 		.4byte	0xef
 3677 1072 C10A0000 		.4byte	.LLST56
 3678 1076 2F       		.uleb128 0x2f
 3679 1077 A5060000 		.4byte	.LASF201
 3680 107b 01       		.byte	0x1
 3681 107c D001     		.2byte	0x1d0
 3682 107e 98080000 		.4byte	0x898
 3683 1082 E80A0000 		.4byte	.LLST57
 3684 1086 2F       		.uleb128 0x2f
 3685 1087 3C0F0000 		.4byte	.LASF242
 3686 108b 01       		.byte	0x1
 3687 108c D201     		.2byte	0x1d2
 3688 108e 70050000 		.4byte	0x570
 3689 1092 080B0000 		.4byte	.LLST58
 3690 1096 30       		.uleb128 0x30
 3691 1097 746D7000 		.ascii	"tmp\000"
 3692 109b 01       		.byte	0x1
 3693 109c D601     		.2byte	0x1d6
 3694 109e 98080000 		.4byte	0x898
 3695 10a2 1B0B0000 		.4byte	.LLST59
 3696 10a6 2F       		.uleb128 0x2f
 3697 10a7 1A100000 		.4byte	.LASF193
ARM GAS  C:\Users\haske\AppData\Local\Temp\ccdHxW38.s 			page 96


 3698 10ab 01       		.byte	0x1
 3699 10ac D701     		.2byte	0x1d7
 3700 10ae F3080000 		.4byte	0x8f3
 3701 10b2 1B0B0000 		.4byte	.LLST59
 3702 10b6 2F       		.uleb128 0x2f
 3703 10b7 C50D0000 		.4byte	.LASF234
 3704 10bb 01       		.byte	0x1
 3705 10bc D801     		.2byte	0x1d8
 3706 10be 92090000 		.4byte	0x992
 3707 10c2 450B0000 		.4byte	.LLST61
 3708 10c6 40       		.uleb128 0x40
 3709 10c7 BE000000 		.4byte	.LVL133
 3710 10cb 02       		.uleb128 0x2
 3711 10cc 74       		.byte	0x74
 3712 10cd 00       		.sleb128 0
 3713 10ce EE100000 		.4byte	0x10ee
 3714 10d2 27       		.uleb128 0x27
 3715 10d3 01       		.uleb128 0x1
 3716 10d4 50       		.byte	0x50
 3717 10d5 04       		.uleb128 0x4
 3718 10d6 91       		.byte	0x91
 3719 10d7 5C       		.sleb128 -36
 3720 10d8 94       		.byte	0x94
 3721 10d9 02       		.byte	0x2
 3722 10da 27       		.uleb128 0x27
 3723 10db 01       		.uleb128 0x1
 3724 10dc 51       		.byte	0x51
 3725 10dd 03       		.uleb128 0x3
 3726 10de 91       		.byte	0x91
 3727 10df 60       		.sleb128 -32
 3728 10e0 06       		.byte	0x6
 3729 10e1 27       		.uleb128 0x27
 3730 10e2 01       		.uleb128 0x1
 3731 10e3 52       		.byte	0x52
 3732 10e4 02       		.uleb128 0x2
 3733 10e5 76       		.byte	0x76
 3734 10e6 04       		.sleb128 4
 3735 10e7 27       		.uleb128 0x27
 3736 10e8 01       		.uleb128 0x1
 3737 10e9 53       		.byte	0x53
 3738 10ea 02       		.uleb128 0x2
 3739 10eb 76       		.byte	0x76
 3740 10ec 00       		.sleb128 0
 3741 10ed 00       		.byte	0
 3742 10ee 3F       		.uleb128 0x3f
 3743 10ef CC000000 		.4byte	.LVL136
 3744 10f3 25130000 		.4byte	0x1325
 3745 10f7 09110000 		.4byte	0x1109
 3746 10fb 27       		.uleb128 0x27
 3747 10fc 01       		.uleb128 0x1
 3748 10fd 50       		.byte	0x50
 3749 10fe 09       		.uleb128 0x9
 3750 10ff 75       		.byte	0x75
 3751 1100 01       		.sleb128 1
 3752 1101 75       		.byte	0x75
 3753 1102 01       		.sleb128 1
 3754 1103 31       		.byte	0x31
ARM GAS  C:\Users\haske\AppData\Local\Temp\ccdHxW38.s 			page 97


 3755 1104 24       		.byte	0x24
 3756 1105 22       		.byte	0x22
 3757 1106 31       		.byte	0x31
 3758 1107 24       		.byte	0x24
 3759 1108 00       		.byte	0
 3760 1109 3E       		.uleb128 0x3e
 3761 110a F2000000 		.4byte	.LVL144
 3762 110e 02       		.uleb128 0x2
 3763 110f 74       		.byte	0x74
 3764 1110 00       		.sleb128 0
 3765 1111 27       		.uleb128 0x27
 3766 1112 01       		.uleb128 0x1
 3767 1113 50       		.byte	0x50
 3768 1114 04       		.uleb128 0x4
 3769 1115 91       		.byte	0x91
 3770 1116 5C       		.sleb128 -36
 3771 1117 94       		.byte	0x94
 3772 1118 02       		.byte	0x2
 3773 1119 27       		.uleb128 0x27
 3774 111a 01       		.uleb128 0x1
 3775 111b 51       		.byte	0x51
 3776 111c 03       		.uleb128 0x3
 3777 111d 91       		.byte	0x91
 3778 111e 60       		.sleb128 -32
 3779 111f 06       		.byte	0x6
 3780 1120 00       		.byte	0
 3781 1121 00       		.byte	0
 3782 1122 40       		.uleb128 0x40
 3783 1123 04010000 		.4byte	.LVL148
 3784 1127 02       		.uleb128 0x2
 3785 1128 74       		.byte	0x74
 3786 1129 00       		.sleb128 0
 3787 112a 4A110000 		.4byte	0x114a
 3788 112e 27       		.uleb128 0x27
 3789 112f 01       		.uleb128 0x1
 3790 1130 50       		.byte	0x50
 3791 1131 04       		.uleb128 0x4
 3792 1132 91       		.byte	0x91
 3793 1133 5C       		.sleb128 -36
 3794 1134 94       		.byte	0x94
 3795 1135 02       		.byte	0x2
 3796 1136 27       		.uleb128 0x27
 3797 1137 01       		.uleb128 0x1
 3798 1138 51       		.byte	0x51
 3799 1139 03       		.uleb128 0x3
 3800 113a 91       		.byte	0x91
 3801 113b 60       		.sleb128 -32
 3802 113c 06       		.byte	0x6
 3803 113d 27       		.uleb128 0x27
 3804 113e 01       		.uleb128 0x1
 3805 113f 52       		.byte	0x52
 3806 1140 02       		.uleb128 0x2
 3807 1141 76       		.byte	0x76
 3808 1142 04       		.sleb128 4
 3809 1143 27       		.uleb128 0x27
 3810 1144 01       		.uleb128 0x1
 3811 1145 53       		.byte	0x53
ARM GAS  C:\Users\haske\AppData\Local\Temp\ccdHxW38.s 			page 98


 3812 1146 02       		.uleb128 0x2
 3813 1147 76       		.byte	0x76
 3814 1148 00       		.sleb128 0
 3815 1149 00       		.byte	0
 3816 114a 26       		.uleb128 0x26
 3817 114b 0A010000 		.4byte	.LVL149
 3818 114f CD0E0000 		.4byte	0xecd
 3819 1153 27       		.uleb128 0x27
 3820 1154 01       		.uleb128 0x1
 3821 1155 50       		.byte	0x50
 3822 1156 02       		.uleb128 0x2
 3823 1157 77       		.byte	0x77
 3824 1158 00       		.sleb128 0
 3825 1159 00       		.byte	0
 3826 115a 00       		.byte	0
 3827 115b 16       		.uleb128 0x16
 3828 115c 75110000 		.4byte	0x1175
 3829 1160 0E       		.uleb128 0xe
 3830 1161 A0070000 		.4byte	0x7a0
 3831 1165 0E       		.uleb128 0xe
 3832 1166 70050000 		.4byte	0x570
 3833 116a 0E       		.uleb128 0xe
 3834 116b F3080000 		.4byte	0x8f3
 3835 116f 0E       		.uleb128 0xe
 3836 1170 92090000 		.4byte	0x992
 3837 1174 00       		.byte	0
 3838 1175 0B       		.uleb128 0xb
 3839 1176 04       		.byte	0x4
 3840 1177 5B110000 		.4byte	0x115b
 3841 117b 31       		.uleb128 0x31
 3842 117c 06020000 		.4byte	.LASF243
 3843 1180 01       		.byte	0x1
 3844 1181 1A01     		.2byte	0x11a
 3845 1183 00000000 		.4byte	.LFB61
 3846 1187 10000000 		.4byte	.LFE61-.LFB61
 3847 118b 01       		.uleb128 0x1
 3848 118c 9C       		.byte	0x9c
 3849 118d DC110000 		.4byte	0x11dc
 3850 1191 33       		.uleb128 0x33
 3851 1192 A30B0000 		.4byte	.LASF213
 3852 1196 01       		.byte	0x1
 3853 1197 1A01     		.2byte	0x11a
 3854 1199 220A0000 		.4byte	0xa22
 3855 119d 650B0000 		.4byte	.LLST62
 3856 11a1 33       		.uleb128 0x33
 3857 11a2 1A060000 		.4byte	.LASF197
 3858 11a6 01       		.byte	0x1
 3859 11a7 1A01     		.2byte	0x11a
 3860 11a9 A0070000 		.4byte	0x7a0
 3861 11ad 860B0000 		.4byte	.LLST63
 3862 11b1 33       		.uleb128 0x33
 3863 11b2 3B050000 		.4byte	.LASF198
 3864 11b6 01       		.byte	0x1
 3865 11b7 1A01     		.2byte	0x11a
 3866 11b9 70050000 		.4byte	0x570
 3867 11bd A70B0000 		.4byte	.LLST64
 3868 11c1 26       		.uleb128 0x26
ARM GAS  C:\Users\haske\AppData\Local\Temp\ccdHxW38.s 			page 99


 3869 11c2 08000000 		.4byte	.LVL153
 3870 11c6 080F0000 		.4byte	0xf08
 3871 11ca 27       		.uleb128 0x27
 3872 11cb 01       		.uleb128 0x1
 3873 11cc 50       		.byte	0x50
 3874 11cd 03       		.uleb128 0x3
 3875 11ce F3       		.byte	0xf3
 3876 11cf 01       		.uleb128 0x1
 3877 11d0 50       		.byte	0x50
 3878 11d1 27       		.uleb128 0x27
 3879 11d2 01       		.uleb128 0x1
 3880 11d3 53       		.byte	0x53
 3881 11d4 05       		.uleb128 0x5
 3882 11d5 03       		.byte	0x3
 3883 11d6 00000000 		.4byte	lv_style_set_prop_helper
 3884 11da 00       		.byte	0
 3885 11db 00       		.byte	0
 3886 11dc 31       		.uleb128 0x31
 3887 11dd F7020000 		.4byte	.LASF244
 3888 11e1 01       		.byte	0x1
 3889 11e2 1F01     		.2byte	0x11f
 3890 11e4 00000000 		.4byte	.LFB62
 3891 11e8 1C000000 		.4byte	.LFE62-.LFB62
 3892 11ec 01       		.uleb128 0x1
 3893 11ed 9C       		.byte	0x9c
 3894 11ee 43120000 		.4byte	0x1243
 3895 11f2 33       		.uleb128 0x33
 3896 11f3 A30B0000 		.4byte	.LASF213
 3897 11f7 01       		.byte	0x1
 3898 11f8 1F01     		.2byte	0x11f
 3899 11fa 220A0000 		.4byte	0xa22
 3900 11fe BA0B0000 		.4byte	.LLST65
 3901 1202 33       		.uleb128 0x33
 3902 1203 1A060000 		.4byte	.LASF197
 3903 1207 01       		.byte	0x1
 3904 1208 1F01     		.2byte	0x11f
 3905 120a A0070000 		.4byte	0x7a0
 3906 120e DB0B0000 		.4byte	.LLST66
 3907 1212 33       		.uleb128 0x33
 3908 1213 65060000 		.4byte	.LASF245
 3909 1217 01       		.byte	0x1
 3910 1218 1F01     		.2byte	0x11f
 3911 121a CE000000 		.4byte	0xce
 3912 121e FC0B0000 		.4byte	.LLST67
 3913 1222 26       		.uleb128 0x26
 3914 1223 10000000 		.4byte	.LVL157
 3915 1227 080F0000 		.4byte	0xf08
 3916 122b 27       		.uleb128 0x27
 3917 122c 01       		.uleb128 0x1
 3918 122d 50       		.byte	0x50
 3919 122e 03       		.uleb128 0x3
 3920 122f F3       		.byte	0xf3
 3921 1230 01       		.uleb128 0x1
 3922 1231 50       		.byte	0x50
 3923 1232 27       		.uleb128 0x27
 3924 1233 01       		.uleb128 0x1
 3925 1234 52       		.byte	0x52
ARM GAS  C:\Users\haske\AppData\Local\Temp\ccdHxW38.s 			page 100


 3926 1235 02       		.uleb128 0x2
 3927 1236 74       		.byte	0x74
 3928 1237 00       		.sleb128 0
 3929 1238 27       		.uleb128 0x27
 3930 1239 01       		.uleb128 0x1
 3931 123a 53       		.byte	0x53
 3932 123b 05       		.uleb128 0x5
 3933 123c 03       		.byte	0x3
 3934 123d 00000000 		.4byte	lv_style_set_prop_meta_helper
 3935 1241 00       		.byte	0
 3936 1242 00       		.byte	0
 3937 1243 34       		.uleb128 0x34
 3938 1244 53020000 		.4byte	.LASF246
 3939 1248 01       		.byte	0x1
 3940 1249 7B01     		.2byte	0x17b
 3941 124b B8000000 		.4byte	0xb8
 3942 124f 00000000 		.4byte	.LFB68
 3943 1253 50000000 		.4byte	.LFE68-.LFB68
 3944 1257 01       		.uleb128 0x1
 3945 1258 9C       		.byte	0x9c
 3946 1259 86120000 		.4byte	0x1286
 3947 125d 33       		.uleb128 0x33
 3948 125e 1A060000 		.4byte	.LASF197
 3949 1262 01       		.byte	0x1
 3950 1263 7B01     		.2byte	0x17b
 3951 1265 A0070000 		.4byte	0x7a0
 3952 1269 1D0C0000 		.4byte	.LLST68
 3953 126d 41       		.uleb128 0x41
 3954 126e 67090000 		.4byte	.LASF247
 3955 1272 01       		.byte	0x1
 3956 1273 7D01     		.2byte	0x17d
 3957 1275 96120000 		.4byte	0x1296
 3958 1279 41       		.uleb128 0x41
 3959 127a 3A090000 		.4byte	.LASF248
 3960 127e 01       		.byte	0x1
 3961 127f 7E01     		.2byte	0x17e
 3962 1281 E4000000 		.4byte	0xe4
 3963 1285 00       		.byte	0
 3964 1286 42       		.uleb128 0x42
 3965 1287 64020000 		.4byte	0x264
 3966 128b 96120000 		.4byte	0x1296
 3967 128f 43       		.uleb128 0x43
 3968 1290 83020000 		.4byte	0x283
 3969 1294 6F       		.byte	0x6f
 3970 1295 00       		.byte	0
 3971 1296 0C       		.uleb128 0xc
 3972 1297 86120000 		.4byte	0x1286
 3973 129b 44       		.uleb128 0x44
 3974 129c 76030000 		.4byte	.LASF249
 3975 12a0 01       		.byte	0x1
 3976 12a1 8B       		.byte	0x8b
 3977 12a2 CE000000 		.4byte	0xce
 3978 12a6 05       		.uleb128 0x5
 3979 12a7 03       		.byte	0x3
 3980 12a8 00000000 		.4byte	last_custom_prop_id
 3981 12ac 44       		.uleb128 0x44
 3982 12ad 9C000000 		.4byte	.LASF250
ARM GAS  C:\Users\haske\AppData\Local\Temp\ccdHxW38.s 			page 101


 3983 12b1 01       		.byte	0x1
 3984 12b2 8C       		.byte	0x8c
 3985 12b3 BD120000 		.4byte	0x12bd
 3986 12b7 05       		.uleb128 0x5
 3987 12b8 03       		.byte	0x3
 3988 12b9 A8010000 		.4byte	null_style_value
 3989 12bd 0C       		.uleb128 0xc
 3990 12be 70050000 		.4byte	0x570
 3991 12c2 45       		.uleb128 0x45
 3992 12c3 660E0000 		.4byte	.LASF251
 3993 12c7 08       		.byte	0x8
 3994 12c8 94       		.byte	0x94
 3995 12c9 CD120000 		.4byte	0x12cd
 3996 12cd 0C       		.uleb128 0xc
 3997 12ce 78020000 		.4byte	0x278
 3998 12d2 45       		.uleb128 0x45
 3999 12d3 7C0E0000 		.4byte	.LASF252
 4000 12d7 0A       		.byte	0xa
 4001 12d8 4C       		.byte	0x4c
 4002 12d9 98080000 		.4byte	0x898
 4003 12dd 46       		.uleb128 0x46
 4004 12de 67090000 		.4byte	.LASF247
 4005 12e2 01       		.byte	0x1
 4006 12e3 26       		.byte	0x26
 4007 12e4 EE120000 		.4byte	0x12ee
 4008 12e8 05       		.uleb128 0x5
 4009 12e9 03       		.byte	0x3
 4010 12ea 00000000 		.4byte	_lv_style_builtin_prop_flag_lookup_table
 4011 12ee 0C       		.uleb128 0xc
 4012 12ef 86120000 		.4byte	0x1286
 4013 12f3 46       		.uleb128 0x46
 4014 12f4 3A090000 		.4byte	.LASF248
 4015 12f8 01       		.byte	0x1
 4016 12f9 85       		.byte	0x85
 4017 12fa E4000000 		.4byte	0xe4
 4018 12fe 05       		.uleb128 0x5
 4019 12ff 03       		.byte	0x3
 4020 1300 00000000 		.4byte	_lv_style_custom_prop_flag_lookup_table_size
 4021 1304 47       		.uleb128 0x47
 4022 1305 D90C0000 		.4byte	.LASF253
 4023 1309 D90C0000 		.4byte	.LASF253
 4024 130d 0B       		.byte	0xb
 4025 130e DE       		.byte	0xde
 4026 130f 47       		.uleb128 0x47
 4027 1310 4A000000 		.4byte	.LASF254
 4028 1314 4A000000 		.4byte	.LASF254
 4029 1318 0B       		.byte	0xb
 4030 1319 50       		.byte	0x50
 4031 131a 47       		.uleb128 0x47
 4032 131b F80F0000 		.4byte	.LASF255
 4033 131f F80F0000 		.4byte	.LASF255
 4034 1323 0B       		.byte	0xb
 4035 1324 59       		.byte	0x59
 4036 1325 47       		.uleb128 0x47
 4037 1326 9E0D0000 		.4byte	.LASF256
 4038 132a 9E0D0000 		.4byte	.LASF256
 4039 132e 0B       		.byte	0xb
ARM GAS  C:\Users\haske\AppData\Local\Temp\ccdHxW38.s 			page 102


 4040 132f 4A       		.byte	0x4a
 4041 1330 00       		.byte	0
 4042              		.section	.debug_abbrev,"",%progbits
 4043              	.Ldebug_abbrev0:
 4044 0000 01       		.uleb128 0x1
 4045 0001 11       		.uleb128 0x11
 4046 0002 01       		.byte	0x1
 4047 0003 25       		.uleb128 0x25
 4048 0004 0E       		.uleb128 0xe
 4049 0005 13       		.uleb128 0x13
 4050 0006 0B       		.uleb128 0xb
 4051 0007 03       		.uleb128 0x3
 4052 0008 0E       		.uleb128 0xe
 4053 0009 1B       		.uleb128 0x1b
 4054 000a 0E       		.uleb128 0xe
 4055 000b 55       		.uleb128 0x55
 4056 000c 17       		.uleb128 0x17
 4057 000d 11       		.uleb128 0x11
 4058 000e 01       		.uleb128 0x1
 4059 000f 10       		.uleb128 0x10
 4060 0010 17       		.uleb128 0x17
 4061 0011 00       		.byte	0
 4062 0012 00       		.byte	0
 4063 0013 02       		.uleb128 0x2
 4064 0014 16       		.uleb128 0x16
 4065 0015 00       		.byte	0
 4066 0016 03       		.uleb128 0x3
 4067 0017 0E       		.uleb128 0xe
 4068 0018 3A       		.uleb128 0x3a
 4069 0019 0B       		.uleb128 0xb
 4070 001a 3B       		.uleb128 0x3b
 4071 001b 0B       		.uleb128 0xb
 4072 001c 49       		.uleb128 0x49
 4073 001d 13       		.uleb128 0x13
 4074 001e 00       		.byte	0
 4075 001f 00       		.byte	0
 4076 0020 03       		.uleb128 0x3
 4077 0021 24       		.uleb128 0x24
 4078 0022 00       		.byte	0
 4079 0023 0B       		.uleb128 0xb
 4080 0024 0B       		.uleb128 0xb
 4081 0025 3E       		.uleb128 0x3e
 4082 0026 0B       		.uleb128 0xb
 4083 0027 03       		.uleb128 0x3
 4084 0028 0E       		.uleb128 0xe
 4085 0029 00       		.byte	0
 4086 002a 00       		.byte	0
 4087 002b 04       		.uleb128 0x4
 4088 002c 24       		.uleb128 0x24
 4089 002d 00       		.byte	0
 4090 002e 0B       		.uleb128 0xb
 4091 002f 0B       		.uleb128 0xb
 4092 0030 3E       		.uleb128 0x3e
 4093 0031 0B       		.uleb128 0xb
 4094 0032 03       		.uleb128 0x3
 4095 0033 08       		.uleb128 0x8
 4096 0034 00       		.byte	0
ARM GAS  C:\Users\haske\AppData\Local\Temp\ccdHxW38.s 			page 103


 4097 0035 00       		.byte	0
 4098 0036 05       		.uleb128 0x5
 4099 0037 13       		.uleb128 0x13
 4100 0038 01       		.byte	0x1
 4101 0039 0B       		.uleb128 0xb
 4102 003a 0B       		.uleb128 0xb
 4103 003b 3A       		.uleb128 0x3a
 4104 003c 0B       		.uleb128 0xb
 4105 003d 3B       		.uleb128 0x3b
 4106 003e 0B       		.uleb128 0xb
 4107 003f 01       		.uleb128 0x1
 4108 0040 13       		.uleb128 0x13
 4109 0041 00       		.byte	0
 4110 0042 00       		.byte	0
 4111 0043 06       		.uleb128 0x6
 4112 0044 0D       		.uleb128 0xd
 4113 0045 00       		.byte	0
 4114 0046 03       		.uleb128 0x3
 4115 0047 0E       		.uleb128 0xe
 4116 0048 3A       		.uleb128 0x3a
 4117 0049 0B       		.uleb128 0xb
 4118 004a 3B       		.uleb128 0x3b
 4119 004b 0B       		.uleb128 0xb
 4120 004c 49       		.uleb128 0x49
 4121 004d 13       		.uleb128 0x13
 4122 004e 38       		.uleb128 0x38
 4123 004f 0B       		.uleb128 0xb
 4124 0050 00       		.byte	0
 4125 0051 00       		.byte	0
 4126 0052 07       		.uleb128 0x7
 4127 0053 0D       		.uleb128 0xd
 4128 0054 00       		.byte	0
 4129 0055 03       		.uleb128 0x3
 4130 0056 08       		.uleb128 0x8
 4131 0057 3A       		.uleb128 0x3a
 4132 0058 0B       		.uleb128 0xb
 4133 0059 3B       		.uleb128 0x3b
 4134 005a 0B       		.uleb128 0xb
 4135 005b 49       		.uleb128 0x49
 4136 005c 13       		.uleb128 0x13
 4137 005d 0B       		.uleb128 0xb
 4138 005e 0B       		.uleb128 0xb
 4139 005f 0D       		.uleb128 0xd
 4140 0060 0B       		.uleb128 0xb
 4141 0061 0C       		.uleb128 0xc
 4142 0062 0B       		.uleb128 0xb
 4143 0063 38       		.uleb128 0x38
 4144 0064 0B       		.uleb128 0xb
 4145 0065 00       		.byte	0
 4146 0066 00       		.byte	0
 4147 0067 08       		.uleb128 0x8
 4148 0068 0D       		.uleb128 0xd
 4149 0069 00       		.byte	0
 4150 006a 03       		.uleb128 0x3
 4151 006b 0E       		.uleb128 0xe
 4152 006c 3A       		.uleb128 0x3a
 4153 006d 0B       		.uleb128 0xb
ARM GAS  C:\Users\haske\AppData\Local\Temp\ccdHxW38.s 			page 104


 4154 006e 3B       		.uleb128 0x3b
 4155 006f 0B       		.uleb128 0xb
 4156 0070 49       		.uleb128 0x49
 4157 0071 13       		.uleb128 0x13
 4158 0072 0B       		.uleb128 0xb
 4159 0073 0B       		.uleb128 0xb
 4160 0074 0D       		.uleb128 0xd
 4161 0075 0B       		.uleb128 0xb
 4162 0076 0C       		.uleb128 0xc
 4163 0077 0B       		.uleb128 0xb
 4164 0078 38       		.uleb128 0x38
 4165 0079 0B       		.uleb128 0xb
 4166 007a 00       		.byte	0
 4167 007b 00       		.byte	0
 4168 007c 09       		.uleb128 0x9
 4169 007d 13       		.uleb128 0x13
 4170 007e 01       		.byte	0x1
 4171 007f 03       		.uleb128 0x3
 4172 0080 0E       		.uleb128 0xe
 4173 0081 0B       		.uleb128 0xb
 4174 0082 0B       		.uleb128 0xb
 4175 0083 3A       		.uleb128 0x3a
 4176 0084 0B       		.uleb128 0xb
 4177 0085 3B       		.uleb128 0x3b
 4178 0086 0B       		.uleb128 0xb
 4179 0087 01       		.uleb128 0x1
 4180 0088 13       		.uleb128 0x13
 4181 0089 00       		.byte	0
 4182 008a 00       		.byte	0
 4183 008b 0A       		.uleb128 0xa
 4184 008c 0D       		.uleb128 0xd
 4185 008d 00       		.byte	0
 4186 008e 03       		.uleb128 0x3
 4187 008f 08       		.uleb128 0x8
 4188 0090 3A       		.uleb128 0x3a
 4189 0091 0B       		.uleb128 0xb
 4190 0092 3B       		.uleb128 0x3b
 4191 0093 0B       		.uleb128 0xb
 4192 0094 49       		.uleb128 0x49
 4193 0095 13       		.uleb128 0x13
 4194 0096 38       		.uleb128 0x38
 4195 0097 0B       		.uleb128 0xb
 4196 0098 00       		.byte	0
 4197 0099 00       		.byte	0
 4198 009a 0B       		.uleb128 0xb
 4199 009b 0F       		.uleb128 0xf
 4200 009c 00       		.byte	0
 4201 009d 0B       		.uleb128 0xb
 4202 009e 0B       		.uleb128 0xb
 4203 009f 49       		.uleb128 0x49
 4204 00a0 13       		.uleb128 0x13
 4205 00a1 00       		.byte	0
 4206 00a2 00       		.byte	0
 4207 00a3 0C       		.uleb128 0xc
 4208 00a4 26       		.uleb128 0x26
 4209 00a5 00       		.byte	0
 4210 00a6 49       		.uleb128 0x49
ARM GAS  C:\Users\haske\AppData\Local\Temp\ccdHxW38.s 			page 105


 4211 00a7 13       		.uleb128 0x13
 4212 00a8 00       		.byte	0
 4213 00a9 00       		.byte	0
 4214 00aa 0D       		.uleb128 0xd
 4215 00ab 15       		.uleb128 0x15
 4216 00ac 01       		.byte	0x1
 4217 00ad 27       		.uleb128 0x27
 4218 00ae 19       		.uleb128 0x19
 4219 00af 49       		.uleb128 0x49
 4220 00b0 13       		.uleb128 0x13
 4221 00b1 01       		.uleb128 0x1
 4222 00b2 13       		.uleb128 0x13
 4223 00b3 00       		.byte	0
 4224 00b4 00       		.byte	0
 4225 00b5 0E       		.uleb128 0xe
 4226 00b6 05       		.uleb128 0x5
 4227 00b7 00       		.byte	0
 4228 00b8 49       		.uleb128 0x49
 4229 00b9 13       		.uleb128 0x13
 4230 00ba 00       		.byte	0
 4231 00bb 00       		.byte	0
 4232 00bc 0F       		.uleb128 0xf
 4233 00bd 26       		.uleb128 0x26
 4234 00be 00       		.byte	0
 4235 00bf 00       		.byte	0
 4236 00c0 00       		.byte	0
 4237 00c1 10       		.uleb128 0x10
 4238 00c2 0F       		.uleb128 0xf
 4239 00c3 00       		.byte	0
 4240 00c4 0B       		.uleb128 0xb
 4241 00c5 0B       		.uleb128 0xb
 4242 00c6 00       		.byte	0
 4243 00c7 00       		.byte	0
 4244 00c8 11       		.uleb128 0x11
 4245 00c9 04       		.uleb128 0x4
 4246 00ca 01       		.byte	0x1
 4247 00cb 0B       		.uleb128 0xb
 4248 00cc 0B       		.uleb128 0xb
 4249 00cd 49       		.uleb128 0x49
 4250 00ce 13       		.uleb128 0x13
 4251 00cf 3A       		.uleb128 0x3a
 4252 00d0 0B       		.uleb128 0xb
 4253 00d1 3B       		.uleb128 0x3b
 4254 00d2 0B       		.uleb128 0xb
 4255 00d3 01       		.uleb128 0x1
 4256 00d4 13       		.uleb128 0x13
 4257 00d5 00       		.byte	0
 4258 00d6 00       		.byte	0
 4259 00d7 12       		.uleb128 0x12
 4260 00d8 28       		.uleb128 0x28
 4261 00d9 00       		.byte	0
 4262 00da 03       		.uleb128 0x3
 4263 00db 0E       		.uleb128 0xe
 4264 00dc 1C       		.uleb128 0x1c
 4265 00dd 0B       		.uleb128 0xb
 4266 00de 00       		.byte	0
 4267 00df 00       		.byte	0
ARM GAS  C:\Users\haske\AppData\Local\Temp\ccdHxW38.s 			page 106


 4268 00e0 13       		.uleb128 0x13
 4269 00e1 17       		.uleb128 0x17
 4270 00e2 01       		.byte	0x1
 4271 00e3 0B       		.uleb128 0xb
 4272 00e4 0B       		.uleb128 0xb
 4273 00e5 3A       		.uleb128 0x3a
 4274 00e6 0B       		.uleb128 0xb
 4275 00e7 3B       		.uleb128 0x3b
 4276 00e8 0B       		.uleb128 0xb
 4277 00e9 01       		.uleb128 0x1
 4278 00ea 13       		.uleb128 0x13
 4279 00eb 00       		.byte	0
 4280 00ec 00       		.byte	0
 4281 00ed 14       		.uleb128 0x14
 4282 00ee 0D       		.uleb128 0xd
 4283 00ef 00       		.byte	0
 4284 00f0 03       		.uleb128 0x3
 4285 00f1 08       		.uleb128 0x8
 4286 00f2 3A       		.uleb128 0x3a
 4287 00f3 0B       		.uleb128 0xb
 4288 00f4 3B       		.uleb128 0x3b
 4289 00f5 0B       		.uleb128 0xb
 4290 00f6 49       		.uleb128 0x49
 4291 00f7 13       		.uleb128 0x13
 4292 00f8 00       		.byte	0
 4293 00f9 00       		.byte	0
 4294 00fa 15       		.uleb128 0x15
 4295 00fb 0D       		.uleb128 0xd
 4296 00fc 00       		.byte	0
 4297 00fd 03       		.uleb128 0x3
 4298 00fe 0E       		.uleb128 0xe
 4299 00ff 3A       		.uleb128 0x3a
 4300 0100 0B       		.uleb128 0xb
 4301 0101 3B       		.uleb128 0x3b
 4302 0102 0B       		.uleb128 0xb
 4303 0103 49       		.uleb128 0x49
 4304 0104 13       		.uleb128 0x13
 4305 0105 00       		.byte	0
 4306 0106 00       		.byte	0
 4307 0107 16       		.uleb128 0x16
 4308 0108 15       		.uleb128 0x15
 4309 0109 01       		.byte	0x1
 4310 010a 27       		.uleb128 0x27
 4311 010b 19       		.uleb128 0x19
 4312 010c 01       		.uleb128 0x1
 4313 010d 13       		.uleb128 0x13
 4314 010e 00       		.byte	0
 4315 010f 00       		.byte	0
 4316 0110 17       		.uleb128 0x17
 4317 0111 28       		.uleb128 0x28
 4318 0112 00       		.byte	0
 4319 0113 03       		.uleb128 0x3
 4320 0114 0E       		.uleb128 0xe
 4321 0115 1C       		.uleb128 0x1c
 4322 0116 05       		.uleb128 0x5
 4323 0117 00       		.byte	0
 4324 0118 00       		.byte	0
ARM GAS  C:\Users\haske\AppData\Local\Temp\ccdHxW38.s 			page 107


 4325 0119 18       		.uleb128 0x18
 4326 011a 16       		.uleb128 0x16
 4327 011b 00       		.byte	0
 4328 011c 03       		.uleb128 0x3
 4329 011d 0E       		.uleb128 0xe
 4330 011e 3A       		.uleb128 0x3a
 4331 011f 0B       		.uleb128 0xb
 4332 0120 3B       		.uleb128 0x3b
 4333 0121 05       		.uleb128 0x5
 4334 0122 49       		.uleb128 0x49
 4335 0123 13       		.uleb128 0x13
 4336 0124 00       		.byte	0
 4337 0125 00       		.byte	0
 4338 0126 19       		.uleb128 0x19
 4339 0127 04       		.uleb128 0x4
 4340 0128 01       		.byte	0x1
 4341 0129 0B       		.uleb128 0xb
 4342 012a 0B       		.uleb128 0xb
 4343 012b 49       		.uleb128 0x49
 4344 012c 13       		.uleb128 0x13
 4345 012d 3A       		.uleb128 0x3a
 4346 012e 0B       		.uleb128 0xb
 4347 012f 3B       		.uleb128 0x3b
 4348 0130 05       		.uleb128 0x5
 4349 0131 01       		.uleb128 0x1
 4350 0132 13       		.uleb128 0x13
 4351 0133 00       		.byte	0
 4352 0134 00       		.byte	0
 4353 0135 1A       		.uleb128 0x1a
 4354 0136 13       		.uleb128 0x13
 4355 0137 01       		.byte	0x1
 4356 0138 0B       		.uleb128 0xb
 4357 0139 0B       		.uleb128 0xb
 4358 013a 3A       		.uleb128 0x3a
 4359 013b 0B       		.uleb128 0xb
 4360 013c 3B       		.uleb128 0x3b
 4361 013d 05       		.uleb128 0x5
 4362 013e 01       		.uleb128 0x1
 4363 013f 13       		.uleb128 0x13
 4364 0140 00       		.byte	0
 4365 0141 00       		.byte	0
 4366 0142 1B       		.uleb128 0x1b
 4367 0143 0D       		.uleb128 0xd
 4368 0144 00       		.byte	0
 4369 0145 03       		.uleb128 0x3
 4370 0146 0E       		.uleb128 0xe
 4371 0147 3A       		.uleb128 0x3a
 4372 0148 0B       		.uleb128 0xb
 4373 0149 3B       		.uleb128 0x3b
 4374 014a 05       		.uleb128 0x5
 4375 014b 49       		.uleb128 0x49
 4376 014c 13       		.uleb128 0x13
 4377 014d 38       		.uleb128 0x38
 4378 014e 0B       		.uleb128 0xb
 4379 014f 00       		.byte	0
 4380 0150 00       		.byte	0
 4381 0151 1C       		.uleb128 0x1c
ARM GAS  C:\Users\haske\AppData\Local\Temp\ccdHxW38.s 			page 108


 4382 0152 17       		.uleb128 0x17
 4383 0153 01       		.byte	0x1
 4384 0154 0B       		.uleb128 0xb
 4385 0155 0B       		.uleb128 0xb
 4386 0156 3A       		.uleb128 0x3a
 4387 0157 0B       		.uleb128 0xb
 4388 0158 3B       		.uleb128 0x3b
 4389 0159 05       		.uleb128 0x5
 4390 015a 01       		.uleb128 0x1
 4391 015b 13       		.uleb128 0x13
 4392 015c 00       		.byte	0
 4393 015d 00       		.byte	0
 4394 015e 1D       		.uleb128 0x1d
 4395 015f 0D       		.uleb128 0xd
 4396 0160 00       		.byte	0
 4397 0161 03       		.uleb128 0x3
 4398 0162 0E       		.uleb128 0xe
 4399 0163 3A       		.uleb128 0x3a
 4400 0164 0B       		.uleb128 0xb
 4401 0165 3B       		.uleb128 0x3b
 4402 0166 05       		.uleb128 0x5
 4403 0167 49       		.uleb128 0x49
 4404 0168 13       		.uleb128 0x13
 4405 0169 00       		.byte	0
 4406 016a 00       		.byte	0
 4407 016b 1E       		.uleb128 0x1e
 4408 016c 0D       		.uleb128 0xd
 4409 016d 00       		.byte	0
 4410 016e 03       		.uleb128 0x3
 4411 016f 08       		.uleb128 0x8
 4412 0170 3A       		.uleb128 0x3a
 4413 0171 0B       		.uleb128 0xb
 4414 0172 3B       		.uleb128 0x3b
 4415 0173 05       		.uleb128 0x5
 4416 0174 49       		.uleb128 0x49
 4417 0175 13       		.uleb128 0x13
 4418 0176 38       		.uleb128 0x38
 4419 0177 0B       		.uleb128 0xb
 4420 0178 00       		.byte	0
 4421 0179 00       		.byte	0
 4422 017a 1F       		.uleb128 0x1f
 4423 017b 2E       		.uleb128 0x2e
 4424 017c 01       		.byte	0x1
 4425 017d 03       		.uleb128 0x3
 4426 017e 0E       		.uleb128 0xe
 4427 017f 3A       		.uleb128 0x3a
 4428 0180 0B       		.uleb128 0xb
 4429 0181 3B       		.uleb128 0x3b
 4430 0182 05       		.uleb128 0x5
 4431 0183 27       		.uleb128 0x27
 4432 0184 19       		.uleb128 0x19
 4433 0185 49       		.uleb128 0x49
 4434 0186 13       		.uleb128 0x13
 4435 0187 20       		.uleb128 0x20
 4436 0188 0B       		.uleb128 0xb
 4437 0189 01       		.uleb128 0x1
 4438 018a 13       		.uleb128 0x13
ARM GAS  C:\Users\haske\AppData\Local\Temp\ccdHxW38.s 			page 109


 4439 018b 00       		.byte	0
 4440 018c 00       		.byte	0
 4441 018d 20       		.uleb128 0x20
 4442 018e 05       		.uleb128 0x5
 4443 018f 00       		.byte	0
 4444 0190 03       		.uleb128 0x3
 4445 0191 08       		.uleb128 0x8
 4446 0192 3A       		.uleb128 0x3a
 4447 0193 0B       		.uleb128 0xb
 4448 0194 3B       		.uleb128 0x3b
 4449 0195 05       		.uleb128 0x5
 4450 0196 49       		.uleb128 0x49
 4451 0197 13       		.uleb128 0x13
 4452 0198 00       		.byte	0
 4453 0199 00       		.byte	0
 4454 019a 21       		.uleb128 0x21
 4455 019b 2E       		.uleb128 0x2e
 4456 019c 00       		.byte	0
 4457 019d 03       		.uleb128 0x3
 4458 019e 0E       		.uleb128 0xe
 4459 019f 3A       		.uleb128 0x3a
 4460 01a0 0B       		.uleb128 0xb
 4461 01a1 3B       		.uleb128 0x3b
 4462 01a2 05       		.uleb128 0x5
 4463 01a3 27       		.uleb128 0x27
 4464 01a4 19       		.uleb128 0x19
 4465 01a5 49       		.uleb128 0x49
 4466 01a6 13       		.uleb128 0x13
 4467 01a7 20       		.uleb128 0x20
 4468 01a8 0B       		.uleb128 0xb
 4469 01a9 00       		.byte	0
 4470 01aa 00       		.byte	0
 4471 01ab 22       		.uleb128 0x22
 4472 01ac 2E       		.uleb128 0x2e
 4473 01ad 01       		.byte	0x1
 4474 01ae 03       		.uleb128 0x3
 4475 01af 0E       		.uleb128 0xe
 4476 01b0 3A       		.uleb128 0x3a
 4477 01b1 0B       		.uleb128 0xb
 4478 01b2 3B       		.uleb128 0x3b
 4479 01b3 05       		.uleb128 0x5
 4480 01b4 27       		.uleb128 0x27
 4481 01b5 19       		.uleb128 0x19
 4482 01b6 11       		.uleb128 0x11
 4483 01b7 01       		.uleb128 0x1
 4484 01b8 12       		.uleb128 0x12
 4485 01b9 06       		.uleb128 0x6
 4486 01ba 40       		.uleb128 0x40
 4487 01bb 18       		.uleb128 0x18
 4488 01bc 9742     		.uleb128 0x2117
 4489 01be 19       		.uleb128 0x19
 4490 01bf 01       		.uleb128 0x1
 4491 01c0 13       		.uleb128 0x13
 4492 01c1 00       		.byte	0
 4493 01c2 00       		.byte	0
 4494 01c3 23       		.uleb128 0x23
 4495 01c4 05       		.uleb128 0x5
ARM GAS  C:\Users\haske\AppData\Local\Temp\ccdHxW38.s 			page 110


 4496 01c5 00       		.byte	0
 4497 01c6 03       		.uleb128 0x3
 4498 01c7 0E       		.uleb128 0xe
 4499 01c8 3A       		.uleb128 0x3a
 4500 01c9 0B       		.uleb128 0xb
 4501 01ca 3B       		.uleb128 0x3b
 4502 01cb 05       		.uleb128 0x5
 4503 01cc 49       		.uleb128 0x49
 4504 01cd 13       		.uleb128 0x13
 4505 01ce 02       		.uleb128 0x2
 4506 01cf 18       		.uleb128 0x18
 4507 01d0 00       		.byte	0
 4508 01d1 00       		.byte	0
 4509 01d2 24       		.uleb128 0x24
 4510 01d3 2E       		.uleb128 0x2e
 4511 01d4 01       		.byte	0x1
 4512 01d5 3F       		.uleb128 0x3f
 4513 01d6 19       		.uleb128 0x19
 4514 01d7 03       		.uleb128 0x3
 4515 01d8 0E       		.uleb128 0xe
 4516 01d9 3A       		.uleb128 0x3a
 4517 01da 0B       		.uleb128 0xb
 4518 01db 3B       		.uleb128 0x3b
 4519 01dc 0B       		.uleb128 0xb
 4520 01dd 27       		.uleb128 0x27
 4521 01de 19       		.uleb128 0x19
 4522 01df 11       		.uleb128 0x11
 4523 01e0 01       		.uleb128 0x1
 4524 01e1 12       		.uleb128 0x12
 4525 01e2 06       		.uleb128 0x6
 4526 01e3 40       		.uleb128 0x40
 4527 01e4 18       		.uleb128 0x18
 4528 01e5 9742     		.uleb128 0x2117
 4529 01e7 19       		.uleb128 0x19
 4530 01e8 01       		.uleb128 0x1
 4531 01e9 13       		.uleb128 0x13
 4532 01ea 00       		.byte	0
 4533 01eb 00       		.byte	0
 4534 01ec 25       		.uleb128 0x25
 4535 01ed 05       		.uleb128 0x5
 4536 01ee 00       		.byte	0
 4537 01ef 03       		.uleb128 0x3
 4538 01f0 0E       		.uleb128 0xe
 4539 01f1 3A       		.uleb128 0x3a
 4540 01f2 0B       		.uleb128 0xb
 4541 01f3 3B       		.uleb128 0x3b
 4542 01f4 0B       		.uleb128 0xb
 4543 01f5 49       		.uleb128 0x49
 4544 01f6 13       		.uleb128 0x13
 4545 01f7 02       		.uleb128 0x2
 4546 01f8 17       		.uleb128 0x17
 4547 01f9 00       		.byte	0
 4548 01fa 00       		.byte	0
 4549 01fb 26       		.uleb128 0x26
 4550 01fc 898201   		.uleb128 0x4109
 4551 01ff 01       		.byte	0x1
 4552 0200 11       		.uleb128 0x11
ARM GAS  C:\Users\haske\AppData\Local\Temp\ccdHxW38.s 			page 111


 4553 0201 01       		.uleb128 0x1
 4554 0202 31       		.uleb128 0x31
 4555 0203 13       		.uleb128 0x13
 4556 0204 00       		.byte	0
 4557 0205 00       		.byte	0
 4558 0206 27       		.uleb128 0x27
 4559 0207 8A8201   		.uleb128 0x410a
 4560 020a 00       		.byte	0
 4561 020b 02       		.uleb128 0x2
 4562 020c 18       		.uleb128 0x18
 4563 020d 9142     		.uleb128 0x2111
 4564 020f 18       		.uleb128 0x18
 4565 0210 00       		.byte	0
 4566 0211 00       		.byte	0
 4567 0212 28       		.uleb128 0x28
 4568 0213 898201   		.uleb128 0x4109
 4569 0216 00       		.byte	0
 4570 0217 11       		.uleb128 0x11
 4571 0218 01       		.uleb128 0x1
 4572 0219 31       		.uleb128 0x31
 4573 021a 13       		.uleb128 0x13
 4574 021b 00       		.byte	0
 4575 021c 00       		.byte	0
 4576 021d 29       		.uleb128 0x29
 4577 021e 2E       		.uleb128 0x2e
 4578 021f 01       		.byte	0x1
 4579 0220 3F       		.uleb128 0x3f
 4580 0221 19       		.uleb128 0x19
 4581 0222 03       		.uleb128 0x3
 4582 0223 0E       		.uleb128 0xe
 4583 0224 3A       		.uleb128 0x3a
 4584 0225 0B       		.uleb128 0xb
 4585 0226 3B       		.uleb128 0x3b
 4586 0227 0B       		.uleb128 0xb
 4587 0228 27       		.uleb128 0x27
 4588 0229 19       		.uleb128 0x19
 4589 022a 49       		.uleb128 0x49
 4590 022b 13       		.uleb128 0x13
 4591 022c 11       		.uleb128 0x11
 4592 022d 01       		.uleb128 0x1
 4593 022e 12       		.uleb128 0x12
 4594 022f 06       		.uleb128 0x6
 4595 0230 40       		.uleb128 0x40
 4596 0231 18       		.uleb128 0x18
 4597 0232 9742     		.uleb128 0x2117
 4598 0234 19       		.uleb128 0x19
 4599 0235 01       		.uleb128 0x1
 4600 0236 13       		.uleb128 0x13
 4601 0237 00       		.byte	0
 4602 0238 00       		.byte	0
 4603 0239 2A       		.uleb128 0x2a
 4604 023a 34       		.uleb128 0x34
 4605 023b 00       		.byte	0
 4606 023c 03       		.uleb128 0x3
 4607 023d 0E       		.uleb128 0xe
 4608 023e 3A       		.uleb128 0x3a
 4609 023f 0B       		.uleb128 0xb
ARM GAS  C:\Users\haske\AppData\Local\Temp\ccdHxW38.s 			page 112


 4610 0240 3B       		.uleb128 0x3b
 4611 0241 0B       		.uleb128 0xb
 4612 0242 49       		.uleb128 0x49
 4613 0243 13       		.uleb128 0x13
 4614 0244 02       		.uleb128 0x2
 4615 0245 17       		.uleb128 0x17
 4616 0246 00       		.byte	0
 4617 0247 00       		.byte	0
 4618 0248 2B       		.uleb128 0x2b
 4619 0249 0B       		.uleb128 0xb
 4620 024a 01       		.byte	0x1
 4621 024b 55       		.uleb128 0x55
 4622 024c 17       		.uleb128 0x17
 4623 024d 00       		.byte	0
 4624 024e 00       		.byte	0
 4625 024f 2C       		.uleb128 0x2c
 4626 0250 2E       		.uleb128 0x2e
 4627 0251 00       		.byte	0
 4628 0252 3F       		.uleb128 0x3f
 4629 0253 19       		.uleb128 0x19
 4630 0254 03       		.uleb128 0x3
 4631 0255 0E       		.uleb128 0xe
 4632 0256 3A       		.uleb128 0x3a
 4633 0257 0B       		.uleb128 0xb
 4634 0258 3B       		.uleb128 0x3b
 4635 0259 0B       		.uleb128 0xb
 4636 025a 27       		.uleb128 0x27
 4637 025b 19       		.uleb128 0x19
 4638 025c 49       		.uleb128 0x49
 4639 025d 13       		.uleb128 0x13
 4640 025e 11       		.uleb128 0x11
 4641 025f 01       		.uleb128 0x1
 4642 0260 12       		.uleb128 0x12
 4643 0261 06       		.uleb128 0x6
 4644 0262 40       		.uleb128 0x40
 4645 0263 18       		.uleb128 0x18
 4646 0264 9742     		.uleb128 0x2117
 4647 0266 19       		.uleb128 0x19
 4648 0267 00       		.byte	0
 4649 0268 00       		.byte	0
 4650 0269 2D       		.uleb128 0x2d
 4651 026a 34       		.uleb128 0x34
 4652 026b 00       		.byte	0
 4653 026c 03       		.uleb128 0x3
 4654 026d 08       		.uleb128 0x8
 4655 026e 3A       		.uleb128 0x3a
 4656 026f 0B       		.uleb128 0xb
 4657 0270 3B       		.uleb128 0x3b
 4658 0271 0B       		.uleb128 0xb
 4659 0272 49       		.uleb128 0x49
 4660 0273 13       		.uleb128 0x13
 4661 0274 02       		.uleb128 0x2
 4662 0275 17       		.uleb128 0x17
 4663 0276 00       		.byte	0
 4664 0277 00       		.byte	0
 4665 0278 2E       		.uleb128 0x2e
 4666 0279 0B       		.uleb128 0xb
ARM GAS  C:\Users\haske\AppData\Local\Temp\ccdHxW38.s 			page 113


 4667 027a 01       		.byte	0x1
 4668 027b 55       		.uleb128 0x55
 4669 027c 17       		.uleb128 0x17
 4670 027d 01       		.uleb128 0x1
 4671 027e 13       		.uleb128 0x13
 4672 027f 00       		.byte	0
 4673 0280 00       		.byte	0
 4674 0281 2F       		.uleb128 0x2f
 4675 0282 34       		.uleb128 0x34
 4676 0283 00       		.byte	0
 4677 0284 03       		.uleb128 0x3
 4678 0285 0E       		.uleb128 0xe
 4679 0286 3A       		.uleb128 0x3a
 4680 0287 0B       		.uleb128 0xb
 4681 0288 3B       		.uleb128 0x3b
 4682 0289 05       		.uleb128 0x5
 4683 028a 49       		.uleb128 0x49
 4684 028b 13       		.uleb128 0x13
 4685 028c 02       		.uleb128 0x2
 4686 028d 17       		.uleb128 0x17
 4687 028e 00       		.byte	0
 4688 028f 00       		.byte	0
 4689 0290 30       		.uleb128 0x30
 4690 0291 34       		.uleb128 0x34
 4691 0292 00       		.byte	0
 4692 0293 03       		.uleb128 0x3
 4693 0294 08       		.uleb128 0x8
 4694 0295 3A       		.uleb128 0x3a
 4695 0296 0B       		.uleb128 0xb
 4696 0297 3B       		.uleb128 0x3b
 4697 0298 05       		.uleb128 0x5
 4698 0299 49       		.uleb128 0x49
 4699 029a 13       		.uleb128 0x13
 4700 029b 02       		.uleb128 0x2
 4701 029c 17       		.uleb128 0x17
 4702 029d 00       		.byte	0
 4703 029e 00       		.byte	0
 4704 029f 31       		.uleb128 0x31
 4705 02a0 2E       		.uleb128 0x2e
 4706 02a1 01       		.byte	0x1
 4707 02a2 3F       		.uleb128 0x3f
 4708 02a3 19       		.uleb128 0x19
 4709 02a4 03       		.uleb128 0x3
 4710 02a5 0E       		.uleb128 0xe
 4711 02a6 3A       		.uleb128 0x3a
 4712 02a7 0B       		.uleb128 0xb
 4713 02a8 3B       		.uleb128 0x3b
 4714 02a9 05       		.uleb128 0x5
 4715 02aa 27       		.uleb128 0x27
 4716 02ab 19       		.uleb128 0x19
 4717 02ac 11       		.uleb128 0x11
 4718 02ad 01       		.uleb128 0x1
 4719 02ae 12       		.uleb128 0x12
 4720 02af 06       		.uleb128 0x6
 4721 02b0 40       		.uleb128 0x40
 4722 02b1 18       		.uleb128 0x18
 4723 02b2 9742     		.uleb128 0x2117
ARM GAS  C:\Users\haske\AppData\Local\Temp\ccdHxW38.s 			page 114


 4724 02b4 19       		.uleb128 0x19
 4725 02b5 01       		.uleb128 0x1
 4726 02b6 13       		.uleb128 0x13
 4727 02b7 00       		.byte	0
 4728 02b8 00       		.byte	0
 4729 02b9 32       		.uleb128 0x32
 4730 02ba 05       		.uleb128 0x5
 4731 02bb 00       		.byte	0
 4732 02bc 03       		.uleb128 0x3
 4733 02bd 08       		.uleb128 0x8
 4734 02be 3A       		.uleb128 0x3a
 4735 02bf 0B       		.uleb128 0xb
 4736 02c0 3B       		.uleb128 0x3b
 4737 02c1 05       		.uleb128 0x5
 4738 02c2 49       		.uleb128 0x49
 4739 02c3 13       		.uleb128 0x13
 4740 02c4 02       		.uleb128 0x2
 4741 02c5 17       		.uleb128 0x17
 4742 02c6 00       		.byte	0
 4743 02c7 00       		.byte	0
 4744 02c8 33       		.uleb128 0x33
 4745 02c9 05       		.uleb128 0x5
 4746 02ca 00       		.byte	0
 4747 02cb 03       		.uleb128 0x3
 4748 02cc 0E       		.uleb128 0xe
 4749 02cd 3A       		.uleb128 0x3a
 4750 02ce 0B       		.uleb128 0xb
 4751 02cf 3B       		.uleb128 0x3b
 4752 02d0 05       		.uleb128 0x5
 4753 02d1 49       		.uleb128 0x49
 4754 02d2 13       		.uleb128 0x13
 4755 02d3 02       		.uleb128 0x2
 4756 02d4 17       		.uleb128 0x17
 4757 02d5 00       		.byte	0
 4758 02d6 00       		.byte	0
 4759 02d7 34       		.uleb128 0x34
 4760 02d8 2E       		.uleb128 0x2e
 4761 02d9 01       		.byte	0x1
 4762 02da 3F       		.uleb128 0x3f
 4763 02db 19       		.uleb128 0x19
 4764 02dc 03       		.uleb128 0x3
 4765 02dd 0E       		.uleb128 0xe
 4766 02de 3A       		.uleb128 0x3a
 4767 02df 0B       		.uleb128 0xb
 4768 02e0 3B       		.uleb128 0x3b
 4769 02e1 05       		.uleb128 0x5
 4770 02e2 27       		.uleb128 0x27
 4771 02e3 19       		.uleb128 0x19
 4772 02e4 49       		.uleb128 0x49
 4773 02e5 13       		.uleb128 0x13
 4774 02e6 11       		.uleb128 0x11
 4775 02e7 01       		.uleb128 0x1
 4776 02e8 12       		.uleb128 0x12
 4777 02e9 06       		.uleb128 0x6
 4778 02ea 40       		.uleb128 0x40
 4779 02eb 18       		.uleb128 0x18
 4780 02ec 9742     		.uleb128 0x2117
ARM GAS  C:\Users\haske\AppData\Local\Temp\ccdHxW38.s 			page 115


 4781 02ee 19       		.uleb128 0x19
 4782 02ef 01       		.uleb128 0x1
 4783 02f0 13       		.uleb128 0x13
 4784 02f1 00       		.byte	0
 4785 02f2 00       		.byte	0
 4786 02f3 35       		.uleb128 0x35
 4787 02f4 1D       		.uleb128 0x1d
 4788 02f5 01       		.byte	0x1
 4789 02f6 31       		.uleb128 0x31
 4790 02f7 13       		.uleb128 0x13
 4791 02f8 11       		.uleb128 0x11
 4792 02f9 01       		.uleb128 0x1
 4793 02fa 12       		.uleb128 0x12
 4794 02fb 06       		.uleb128 0x6
 4795 02fc 58       		.uleb128 0x58
 4796 02fd 0B       		.uleb128 0xb
 4797 02fe 59       		.uleb128 0x59
 4798 02ff 05       		.uleb128 0x5
 4799 0300 00       		.byte	0
 4800 0301 00       		.byte	0
 4801 0302 36       		.uleb128 0x36
 4802 0303 05       		.uleb128 0x5
 4803 0304 00       		.byte	0
 4804 0305 31       		.uleb128 0x31
 4805 0306 13       		.uleb128 0x13
 4806 0307 02       		.uleb128 0x2
 4807 0308 17       		.uleb128 0x17
 4808 0309 00       		.byte	0
 4809 030a 00       		.byte	0
 4810 030b 37       		.uleb128 0x37
 4811 030c 05       		.uleb128 0x5
 4812 030d 00       		.byte	0
 4813 030e 03       		.uleb128 0x3
 4814 030f 0E       		.uleb128 0xe
 4815 0310 3A       		.uleb128 0x3a
 4816 0311 0B       		.uleb128 0xb
 4817 0312 3B       		.uleb128 0x3b
 4818 0313 05       		.uleb128 0x5
 4819 0314 49       		.uleb128 0x49
 4820 0315 13       		.uleb128 0x13
 4821 0316 00       		.byte	0
 4822 0317 00       		.byte	0
 4823 0318 38       		.uleb128 0x38
 4824 0319 0B       		.uleb128 0xb
 4825 031a 01       		.byte	0x1
 4826 031b 01       		.uleb128 0x1
 4827 031c 13       		.uleb128 0x13
 4828 031d 00       		.byte	0
 4829 031e 00       		.byte	0
 4830 031f 39       		.uleb128 0x39
 4831 0320 34       		.uleb128 0x34
 4832 0321 00       		.byte	0
 4833 0322 03       		.uleb128 0x3
 4834 0323 0E       		.uleb128 0xe
 4835 0324 3A       		.uleb128 0x3a
 4836 0325 0B       		.uleb128 0xb
 4837 0326 3B       		.uleb128 0x3b
ARM GAS  C:\Users\haske\AppData\Local\Temp\ccdHxW38.s 			page 116


 4838 0327 05       		.uleb128 0x5
 4839 0328 49       		.uleb128 0x49
 4840 0329 13       		.uleb128 0x13
 4841 032a 00       		.byte	0
 4842 032b 00       		.byte	0
 4843 032c 3A       		.uleb128 0x3a
 4844 032d 34       		.uleb128 0x34
 4845 032e 00       		.byte	0
 4846 032f 03       		.uleb128 0x3
 4847 0330 08       		.uleb128 0x8
 4848 0331 3A       		.uleb128 0x3a
 4849 0332 0B       		.uleb128 0xb
 4850 0333 3B       		.uleb128 0x3b
 4851 0334 05       		.uleb128 0x5
 4852 0335 49       		.uleb128 0x49
 4853 0336 13       		.uleb128 0x13
 4854 0337 00       		.byte	0
 4855 0338 00       		.byte	0
 4856 0339 3B       		.uleb128 0x3b
 4857 033a 0B       		.uleb128 0xb
 4858 033b 01       		.byte	0x1
 4859 033c 00       		.byte	0
 4860 033d 00       		.byte	0
 4861 033e 3C       		.uleb128 0x3c
 4862 033f 34       		.uleb128 0x34
 4863 0340 00       		.byte	0
 4864 0341 31       		.uleb128 0x31
 4865 0342 13       		.uleb128 0x13
 4866 0343 02       		.uleb128 0x2
 4867 0344 17       		.uleb128 0x17
 4868 0345 00       		.byte	0
 4869 0346 00       		.byte	0
 4870 0347 3D       		.uleb128 0x3d
 4871 0348 0B       		.uleb128 0xb
 4872 0349 01       		.byte	0x1
 4873 034a 11       		.uleb128 0x11
 4874 034b 01       		.uleb128 0x1
 4875 034c 12       		.uleb128 0x12
 4876 034d 06       		.uleb128 0x6
 4877 034e 01       		.uleb128 0x1
 4878 034f 13       		.uleb128 0x13
 4879 0350 00       		.byte	0
 4880 0351 00       		.byte	0
 4881 0352 3E       		.uleb128 0x3e
 4882 0353 898201   		.uleb128 0x4109
 4883 0356 01       		.byte	0x1
 4884 0357 11       		.uleb128 0x11
 4885 0358 01       		.uleb128 0x1
 4886 0359 9342     		.uleb128 0x2113
 4887 035b 18       		.uleb128 0x18
 4888 035c 00       		.byte	0
 4889 035d 00       		.byte	0
 4890 035e 3F       		.uleb128 0x3f
 4891 035f 898201   		.uleb128 0x4109
 4892 0362 01       		.byte	0x1
 4893 0363 11       		.uleb128 0x11
 4894 0364 01       		.uleb128 0x1
ARM GAS  C:\Users\haske\AppData\Local\Temp\ccdHxW38.s 			page 117


 4895 0365 31       		.uleb128 0x31
 4896 0366 13       		.uleb128 0x13
 4897 0367 01       		.uleb128 0x1
 4898 0368 13       		.uleb128 0x13
 4899 0369 00       		.byte	0
 4900 036a 00       		.byte	0
 4901 036b 40       		.uleb128 0x40
 4902 036c 898201   		.uleb128 0x4109
 4903 036f 01       		.byte	0x1
 4904 0370 11       		.uleb128 0x11
 4905 0371 01       		.uleb128 0x1
 4906 0372 9342     		.uleb128 0x2113
 4907 0374 18       		.uleb128 0x18
 4908 0375 01       		.uleb128 0x1
 4909 0376 13       		.uleb128 0x13
 4910 0377 00       		.byte	0
 4911 0378 00       		.byte	0
 4912 0379 41       		.uleb128 0x41
 4913 037a 34       		.uleb128 0x34
 4914 037b 00       		.byte	0
 4915 037c 03       		.uleb128 0x3
 4916 037d 0E       		.uleb128 0xe
 4917 037e 3A       		.uleb128 0x3a
 4918 037f 0B       		.uleb128 0xb
 4919 0380 3B       		.uleb128 0x3b
 4920 0381 05       		.uleb128 0x5
 4921 0382 49       		.uleb128 0x49
 4922 0383 13       		.uleb128 0x13
 4923 0384 3F       		.uleb128 0x3f
 4924 0385 19       		.uleb128 0x19
 4925 0386 3C       		.uleb128 0x3c
 4926 0387 19       		.uleb128 0x19
 4927 0388 00       		.byte	0
 4928 0389 00       		.byte	0
 4929 038a 42       		.uleb128 0x42
 4930 038b 01       		.uleb128 0x1
 4931 038c 01       		.byte	0x1
 4932 038d 49       		.uleb128 0x49
 4933 038e 13       		.uleb128 0x13
 4934 038f 01       		.uleb128 0x1
 4935 0390 13       		.uleb128 0x13
 4936 0391 00       		.byte	0
 4937 0392 00       		.byte	0
 4938 0393 43       		.uleb128 0x43
 4939 0394 21       		.uleb128 0x21
 4940 0395 00       		.byte	0
 4941 0396 49       		.uleb128 0x49
 4942 0397 13       		.uleb128 0x13
 4943 0398 2F       		.uleb128 0x2f
 4944 0399 0B       		.uleb128 0xb
 4945 039a 00       		.byte	0
 4946 039b 00       		.byte	0
 4947 039c 44       		.uleb128 0x44
 4948 039d 34       		.uleb128 0x34
 4949 039e 00       		.byte	0
 4950 039f 03       		.uleb128 0x3
 4951 03a0 0E       		.uleb128 0xe
ARM GAS  C:\Users\haske\AppData\Local\Temp\ccdHxW38.s 			page 118


 4952 03a1 3A       		.uleb128 0x3a
 4953 03a2 0B       		.uleb128 0xb
 4954 03a3 3B       		.uleb128 0x3b
 4955 03a4 0B       		.uleb128 0xb
 4956 03a5 49       		.uleb128 0x49
 4957 03a6 13       		.uleb128 0x13
 4958 03a7 02       		.uleb128 0x2
 4959 03a8 18       		.uleb128 0x18
 4960 03a9 00       		.byte	0
 4961 03aa 00       		.byte	0
 4962 03ab 45       		.uleb128 0x45
 4963 03ac 34       		.uleb128 0x34
 4964 03ad 00       		.byte	0
 4965 03ae 03       		.uleb128 0x3
 4966 03af 0E       		.uleb128 0xe
 4967 03b0 3A       		.uleb128 0x3a
 4968 03b1 0B       		.uleb128 0xb
 4969 03b2 3B       		.uleb128 0x3b
 4970 03b3 0B       		.uleb128 0xb
 4971 03b4 49       		.uleb128 0x49
 4972 03b5 13       		.uleb128 0x13
 4973 03b6 3F       		.uleb128 0x3f
 4974 03b7 19       		.uleb128 0x19
 4975 03b8 3C       		.uleb128 0x3c
 4976 03b9 19       		.uleb128 0x19
 4977 03ba 00       		.byte	0
 4978 03bb 00       		.byte	0
 4979 03bc 46       		.uleb128 0x46
 4980 03bd 34       		.uleb128 0x34
 4981 03be 00       		.byte	0
 4982 03bf 03       		.uleb128 0x3
 4983 03c0 0E       		.uleb128 0xe
 4984 03c1 3A       		.uleb128 0x3a
 4985 03c2 0B       		.uleb128 0xb
 4986 03c3 3B       		.uleb128 0x3b
 4987 03c4 0B       		.uleb128 0xb
 4988 03c5 49       		.uleb128 0x49
 4989 03c6 13       		.uleb128 0x13
 4990 03c7 3F       		.uleb128 0x3f
 4991 03c8 19       		.uleb128 0x19
 4992 03c9 02       		.uleb128 0x2
 4993 03ca 18       		.uleb128 0x18
 4994 03cb 00       		.byte	0
 4995 03cc 00       		.byte	0
 4996 03cd 47       		.uleb128 0x47
 4997 03ce 2E       		.uleb128 0x2e
 4998 03cf 00       		.byte	0
 4999 03d0 3F       		.uleb128 0x3f
 5000 03d1 19       		.uleb128 0x19
 5001 03d2 3C       		.uleb128 0x3c
 5002 03d3 19       		.uleb128 0x19
 5003 03d4 6E       		.uleb128 0x6e
 5004 03d5 0E       		.uleb128 0xe
 5005 03d6 03       		.uleb128 0x3
 5006 03d7 0E       		.uleb128 0xe
 5007 03d8 3A       		.uleb128 0x3a
 5008 03d9 0B       		.uleb128 0xb
ARM GAS  C:\Users\haske\AppData\Local\Temp\ccdHxW38.s 			page 119


 5009 03da 3B       		.uleb128 0x3b
 5010 03db 0B       		.uleb128 0xb
 5011 03dc 00       		.byte	0
 5012 03dd 00       		.byte	0
 5013 03de 00       		.byte	0
 5014              		.section	.debug_loc,"",%progbits
 5015              	.Ldebug_loc0:
 5016              	.LLST0:
 5017 0000 00000000 		.4byte	.LVL2
 5018 0004 07000000 		.4byte	.LVL3-1
 5019 0008 0100     		.2byte	0x1
 5020 000a 50       		.byte	0x50
 5021 000b 07000000 		.4byte	.LVL3-1
 5022 000f 0A000000 		.4byte	.LFE56
 5023 0013 0400     		.2byte	0x4
 5024 0015 F3       		.byte	0xf3
 5025 0016 01       		.uleb128 0x1
 5026 0017 50       		.byte	0x50
 5027 0018 9F       		.byte	0x9f
 5028 0019 00000000 		.4byte	0
 5029 001d 00000000 		.4byte	0
 5030              	.LLST1:
 5031 0021 00000000 		.4byte	.LVL4
 5032 0025 14000000 		.4byte	.LVL5
 5033 0029 0100     		.2byte	0x1
 5034 002b 50       		.byte	0x50
 5035 002c 14000000 		.4byte	.LVL5
 5036 0030 20000000 		.4byte	.LVL8
 5037 0034 0100     		.2byte	0x1
 5038 0036 54       		.byte	0x54
 5039 0037 20000000 		.4byte	.LVL8
 5040 003b 28000000 		.4byte	.LFE57
 5041 003f 0400     		.2byte	0x4
 5042 0041 F3       		.byte	0xf3
 5043 0042 01       		.uleb128 0x1
 5044 0043 50       		.byte	0x50
 5045 0044 9F       		.byte	0x9f
 5046 0045 00000000 		.4byte	0
 5047 0049 00000000 		.4byte	0
 5048              	.LLST2:
 5049 004d 00000000 		.4byte	.LVL9
 5050 0051 08000000 		.4byte	.LVL10
 5051 0055 0100     		.2byte	0x1
 5052 0057 50       		.byte	0x50
 5053 0058 08000000 		.4byte	.LVL10
 5054 005c 7C000000 		.4byte	.LFE58
 5055 0060 0400     		.2byte	0x4
 5056 0062 F3       		.byte	0xf3
 5057 0063 01       		.uleb128 0x1
 5058 0064 50       		.byte	0x50
 5059 0065 9F       		.byte	0x9f
 5060 0066 00000000 		.4byte	0
 5061 006a 00000000 		.4byte	0
 5062              	.LLST3:
 5063 006e 28000000 		.4byte	.LVL11
 5064 0072 32000000 		.4byte	.LVL12
 5065 0076 0100     		.2byte	0x1
ARM GAS  C:\Users\haske\AppData\Local\Temp\ccdHxW38.s 			page 120


 5066 0078 54       		.byte	0x54
 5067 0079 32000000 		.4byte	.LVL12
 5068 007d 36000000 		.4byte	.LVL13
 5069 0081 0300     		.2byte	0x3
 5070 0083 74       		.byte	0x74
 5071 0084 61       		.sleb128 -31
 5072 0085 9F       		.byte	0x9f
 5073 0086 36000000 		.4byte	.LVL13
 5074 008a 68000000 		.4byte	.LVL17
 5075 008e 0100     		.2byte	0x1
 5076 0090 54       		.byte	0x54
 5077 0091 6C000000 		.4byte	.LVL18
 5078 0095 6E000000 		.4byte	.LVL19
 5079 0099 0100     		.2byte	0x1
 5080 009b 54       		.byte	0x54
 5081 009c 00000000 		.4byte	0
 5082 00a0 00000000 		.4byte	0
 5083              	.LLST4:
 5084 00a4 3A000000 		.4byte	.LVL14
 5085 00a8 3F000000 		.4byte	.LVL15-1
 5086 00ac 0100     		.2byte	0x1
 5087 00ae 50       		.byte	0x50
 5088 00af 00000000 		.4byte	0
 5089 00b3 00000000 		.4byte	0
 5090              	.LLST5:
 5091 00b7 40000000 		.4byte	.LVL15
 5092 00bb 4C000000 		.4byte	.LVL16
 5093 00bf 0100     		.2byte	0x1
 5094 00c1 50       		.byte	0x50
 5095 00c2 6C000000 		.4byte	.LVL18
 5096 00c6 6E000000 		.4byte	.LVL19
 5097 00ca 0100     		.2byte	0x1
 5098 00cc 50       		.byte	0x50
 5099 00cd 00000000 		.4byte	0
 5100 00d1 00000000 		.4byte	0
 5101              	.LLST6:
 5102 00d5 00000000 		.4byte	.LVL20
 5103 00d9 36000000 		.4byte	.LVL21
 5104 00dd 0100     		.2byte	0x1
 5105 00df 50       		.byte	0x50
 5106 00e0 36000000 		.4byte	.LVL21
 5107 00e4 38000000 		.4byte	.LVL22
 5108 00e8 0100     		.2byte	0x1
 5109 00ea 57       		.byte	0x57
 5110 00eb 38000000 		.4byte	.LVL22
 5111 00ef 46000000 		.4byte	.LVL25
 5112 00f3 0100     		.2byte	0x1
 5113 00f5 50       		.byte	0x50
 5114 00f6 46000000 		.4byte	.LVL25
 5115 00fa F4000000 		.4byte	.LVL40
 5116 00fe 0100     		.2byte	0x1
 5117 0100 57       		.byte	0x57
 5118 0101 F4000000 		.4byte	.LVL40
 5119 0105 F6000000 		.4byte	.LVL41
 5120 0109 0100     		.2byte	0x1
 5121 010b 50       		.byte	0x50
 5122 010c F6000000 		.4byte	.LVL41
ARM GAS  C:\Users\haske\AppData\Local\Temp\ccdHxW38.s 			page 121


 5123 0110 F8000000 		.4byte	.LVL42
 5124 0114 0100     		.2byte	0x1
 5125 0116 57       		.byte	0x57
 5126 0117 F8000000 		.4byte	.LVL42
 5127 011b FA000000 		.4byte	.LVL43
 5128 011f 0100     		.2byte	0x1
 5129 0121 50       		.byte	0x50
 5130 0122 FA000000 		.4byte	.LVL43
 5131 0126 FC000000 		.4byte	.LVL44
 5132 012a 0100     		.2byte	0x1
 5133 012c 57       		.byte	0x57
 5134 012d FC000000 		.4byte	.LVL44
 5135 0131 FE000000 		.4byte	.LVL45
 5136 0135 0100     		.2byte	0x1
 5137 0137 50       		.byte	0x50
 5138 0138 FE000000 		.4byte	.LVL45
 5139 013c 04010000 		.4byte	.LVL48
 5140 0140 0100     		.2byte	0x1
 5141 0142 57       		.byte	0x57
 5142 0143 04010000 		.4byte	.LVL48
 5143 0147 14010000 		.4byte	.LFE60
 5144 014b 0400     		.2byte	0x4
 5145 014d F3       		.byte	0xf3
 5146 014e 01       		.uleb128 0x1
 5147 014f 50       		.byte	0x50
 5148 0150 9F       		.byte	0x9f
 5149 0151 00000000 		.4byte	0
 5150 0155 00000000 		.4byte	0
 5151              	.LLST7:
 5152 0159 00000000 		.4byte	.LVL20
 5153 015d 3C000000 		.4byte	.LVL23
 5154 0161 0100     		.2byte	0x1
 5155 0163 51       		.byte	0x51
 5156 0164 3C000000 		.4byte	.LVL23
 5157 0168 F4000000 		.4byte	.LVL40
 5158 016c 0400     		.2byte	0x4
 5159 016e F3       		.byte	0xf3
 5160 016f 01       		.uleb128 0x1
 5161 0170 51       		.byte	0x51
 5162 0171 9F       		.byte	0x9f
 5163 0172 F4000000 		.4byte	.LVL40
 5164 0176 00010000 		.4byte	.LVL46
 5165 017a 0100     		.2byte	0x1
 5166 017c 51       		.byte	0x51
 5167 017d 00010000 		.4byte	.LVL46
 5168 0181 14010000 		.4byte	.LFE60
 5169 0185 0400     		.2byte	0x4
 5170 0187 F3       		.byte	0xf3
 5171 0188 01       		.uleb128 0x1
 5172 0189 51       		.byte	0x51
 5173 018a 9F       		.byte	0x9f
 5174 018b 00000000 		.4byte	0
 5175 018f 00000000 		.4byte	0
 5176              	.LLST8:
 5177 0193 42000000 		.4byte	.LVL24
 5178 0197 46000000 		.4byte	.LVL25
 5179 019b 0100     		.2byte	0x1
ARM GAS  C:\Users\haske\AppData\Local\Temp\ccdHxW38.s 			page 122


 5180 019d 53       		.byte	0x53
 5181 019e 46000000 		.4byte	.LVL25
 5182 01a2 8B000000 		.4byte	.LVL28-1
 5183 01a6 0100     		.2byte	0x1
 5184 01a8 5C       		.byte	0x5c
 5185 01a9 8B000000 		.4byte	.LVL28-1
 5186 01ad A0000000 		.4byte	.LVL30
 5187 01b1 0600     		.2byte	0x6
 5188 01b3 74       		.byte	0x74
 5189 01b4 00       		.sleb128 0
 5190 01b5 76       		.byte	0x76
 5191 01b6 00       		.sleb128 0
 5192 01b7 22       		.byte	0x22
 5193 01b8 9F       		.byte	0x9f
 5194 01b9 A0000000 		.4byte	.LVL30
 5195 01bd A4000000 		.4byte	.LVL31
 5196 01c1 0600     		.2byte	0x6
 5197 01c3 70       		.byte	0x70
 5198 01c4 00       		.sleb128 0
 5199 01c5 73       		.byte	0x73
 5200 01c6 00       		.sleb128 0
 5201 01c7 22       		.byte	0x22
 5202 01c8 9F       		.byte	0x9f
 5203 01c9 A4000000 		.4byte	.LVL31
 5204 01cd A8000000 		.4byte	.LVL32
 5205 01d1 0600     		.2byte	0x6
 5206 01d3 70       		.byte	0x70
 5207 01d4 00       		.sleb128 0
 5208 01d5 78       		.byte	0x78
 5209 01d6 00       		.sleb128 0
 5210 01d7 22       		.byte	0x22
 5211 01d8 9F       		.byte	0x9f
 5212 01d9 A8000000 		.4byte	.LVL32
 5213 01dd E0000000 		.4byte	.LVL36
 5214 01e1 0600     		.2byte	0x6
 5215 01e3 7C       		.byte	0x7c
 5216 01e4 00       		.sleb128 0
 5217 01e5 78       		.byte	0x78
 5218 01e6 00       		.sleb128 0
 5219 01e7 22       		.byte	0x22
 5220 01e8 9F       		.byte	0x9f
 5221 01e9 EA000000 		.4byte	.LVL38
 5222 01ed F4000000 		.4byte	.LVL40
 5223 01f1 0100     		.2byte	0x1
 5224 01f3 5C       		.byte	0x5c
 5225 01f4 00010000 		.4byte	.LVL46
 5226 01f8 02010000 		.4byte	.LVL47
 5227 01fc 0600     		.2byte	0x6
 5228 01fe 74       		.byte	0x74
 5229 01ff 00       		.sleb128 0
 5230 0200 76       		.byte	0x76
 5231 0201 00       		.sleb128 0
 5232 0202 22       		.byte	0x22
 5233 0203 9F       		.byte	0x9f
 5234 0204 00000000 		.4byte	0
 5235 0208 00000000 		.4byte	0
 5236              	.LLST9:
ARM GAS  C:\Users\haske\AppData\Local\Temp\ccdHxW38.s 			page 123


 5237 020c 42000000 		.4byte	.LVL24
 5238 0210 46000000 		.4byte	.LVL25
 5239 0214 0100     		.2byte	0x1
 5240 0216 53       		.byte	0x53
 5241 0217 46000000 		.4byte	.LVL25
 5242 021b 8B000000 		.4byte	.LVL28-1
 5243 021f 0100     		.2byte	0x1
 5244 0221 5C       		.byte	0x5c
 5245 0222 8B000000 		.4byte	.LVL28-1
 5246 0226 EA000000 		.4byte	.LVL38
 5247 022a 0600     		.2byte	0x6
 5248 022c 74       		.byte	0x74
 5249 022d 00       		.sleb128 0
 5250 022e 76       		.byte	0x76
 5251 022f 00       		.sleb128 0
 5252 0230 22       		.byte	0x22
 5253 0231 9F       		.byte	0x9f
 5254 0232 EA000000 		.4byte	.LVL38
 5255 0236 F4000000 		.4byte	.LVL40
 5256 023a 0100     		.2byte	0x1
 5257 023c 5C       		.byte	0x5c
 5258 023d 00010000 		.4byte	.LVL46
 5259 0241 02010000 		.4byte	.LVL47
 5260 0245 0600     		.2byte	0x6
 5261 0247 74       		.byte	0x74
 5262 0248 00       		.sleb128 0
 5263 0249 76       		.byte	0x76
 5264 024a 00       		.sleb128 0
 5265 024b 22       		.byte	0x22
 5266 024c 9F       		.byte	0x9f
 5267 024d 00000000 		.4byte	0
 5268 0251 00000000 		.4byte	0
 5269              	.LLST10:
 5270 0255 42000000 		.4byte	.LVL24
 5271 0259 46000000 		.4byte	.LVL25
 5272 025d 0200     		.2byte	0x2
 5273 025f 30       		.byte	0x30
 5274 0260 9F       		.byte	0x9f
 5275 0261 46000000 		.4byte	.LVL25
 5276 0265 8B000000 		.4byte	.LVL28-1
 5277 0269 0100     		.2byte	0x1
 5278 026b 52       		.byte	0x52
 5279 026c A0000000 		.4byte	.LVL30
 5280 0270 A8000000 		.4byte	.LVL32
 5281 0274 0200     		.2byte	0x2
 5282 0276 30       		.byte	0x30
 5283 0277 9F       		.byte	0x9f
 5284 0278 A8000000 		.4byte	.LVL32
 5285 027c C6000000 		.4byte	.LVL33
 5286 0280 0100     		.2byte	0x1
 5287 0282 5A       		.byte	0x5a
 5288 0283 C6000000 		.4byte	.LVL33
 5289 0287 D8000000 		.4byte	.LVL34
 5290 028b 0300     		.2byte	0x3
 5291 028d 7A       		.byte	0x7a
 5292 028e 01       		.sleb128 1
 5293 028f 9F       		.byte	0x9f
ARM GAS  C:\Users\haske\AppData\Local\Temp\ccdHxW38.s 			page 124


 5294 0290 D8000000 		.4byte	.LVL34
 5295 0294 E0000000 		.4byte	.LVL36
 5296 0298 0100     		.2byte	0x1
 5297 029a 5A       		.byte	0x5a
 5298 029b EA000000 		.4byte	.LVL38
 5299 029f F4000000 		.4byte	.LVL40
 5300 02a3 0100     		.2byte	0x1
 5301 02a5 52       		.byte	0x52
 5302 02a6 00000000 		.4byte	0
 5303 02aa 00000000 		.4byte	0
 5304              	.LLST11:
 5305 02ae 54000000 		.4byte	.LVL26
 5306 02b2 EA000000 		.4byte	.LVL38
 5307 02b6 0100     		.2byte	0x1
 5308 02b8 54       		.byte	0x54
 5309 02b9 00010000 		.4byte	.LVL46
 5310 02bd 02010000 		.4byte	.LVL47
 5311 02c1 0100     		.2byte	0x1
 5312 02c3 54       		.byte	0x54
 5313 02c4 00000000 		.4byte	0
 5314 02c8 00000000 		.4byte	0
 5315              	.LLST12:
 5316 02cc 88000000 		.4byte	.LVL27
 5317 02d0 8B000000 		.4byte	.LVL28-1
 5318 02d4 0100     		.2byte	0x1
 5319 02d6 50       		.byte	0x50
 5320 02d7 8B000000 		.4byte	.LVL28-1
 5321 02db A0000000 		.4byte	.LVL30
 5322 02df 0A00     		.2byte	0xa
 5323 02e1 78       		.byte	0x78
 5324 02e2 7F       		.sleb128 -1
 5325 02e3 78       		.byte	0x78
 5326 02e4 7F       		.sleb128 -1
 5327 02e5 31       		.byte	0x31
 5328 02e6 24       		.byte	0x24
 5329 02e7 22       		.byte	0x22
 5330 02e8 31       		.byte	0x31
 5331 02e9 24       		.byte	0x24
 5332 02ea 9F       		.byte	0x9f
 5333 02eb 00010000 		.4byte	.LVL46
 5334 02ef 02010000 		.4byte	.LVL47
 5335 02f3 0A00     		.2byte	0xa
 5336 02f5 78       		.byte	0x78
 5337 02f6 7F       		.sleb128 -1
 5338 02f7 78       		.byte	0x78
 5339 02f8 7F       		.sleb128 -1
 5340 02f9 31       		.byte	0x31
 5341 02fa 24       		.byte	0x24
 5342 02fb 22       		.byte	0x22
 5343 02fc 31       		.byte	0x31
 5344 02fd 24       		.byte	0x24
 5345 02fe 9F       		.byte	0x9f
 5346 02ff 00000000 		.4byte	0
 5347 0303 00000000 		.4byte	0
 5348              	.LLST13:
 5349 0307 8E000000 		.4byte	.LVL29
 5350 030b A8000000 		.4byte	.LVL32
ARM GAS  C:\Users\haske\AppData\Local\Temp\ccdHxW38.s 			page 125


 5351 030f 0100     		.2byte	0x1
 5352 0311 50       		.byte	0x50
 5353 0312 A8000000 		.4byte	.LVL32
 5354 0316 E0000000 		.4byte	.LVL36
 5355 031a 0100     		.2byte	0x1
 5356 031c 5C       		.byte	0x5c
 5357 031d 00010000 		.4byte	.LVL46
 5358 0321 02010000 		.4byte	.LVL47
 5359 0325 0100     		.2byte	0x1
 5360 0327 50       		.byte	0x50
 5361 0328 00000000 		.4byte	0
 5362 032c 00000000 		.4byte	0
 5363              	.LLST14:
 5364 0330 A0000000 		.4byte	.LVL30
 5365 0334 A4000000 		.4byte	.LVL31
 5366 0338 0600     		.2byte	0x6
 5367 033a 70       		.byte	0x70
 5368 033b 00       		.sleb128 0
 5369 033c 73       		.byte	0x73
 5370 033d 00       		.sleb128 0
 5371 033e 22       		.byte	0x22
 5372 033f 9F       		.byte	0x9f
 5373 0340 A4000000 		.4byte	.LVL31
 5374 0344 A8000000 		.4byte	.LVL32
 5375 0348 0600     		.2byte	0x6
 5376 034a 70       		.byte	0x70
 5377 034b 00       		.sleb128 0
 5378 034c 78       		.byte	0x78
 5379 034d 00       		.sleb128 0
 5380 034e 22       		.byte	0x22
 5381 034f 9F       		.byte	0x9f
 5382 0350 A8000000 		.4byte	.LVL32
 5383 0354 E0000000 		.4byte	.LVL36
 5384 0358 0600     		.2byte	0x6
 5385 035a 7C       		.byte	0x7c
 5386 035b 00       		.sleb128 0
 5387 035c 78       		.byte	0x78
 5388 035d 00       		.sleb128 0
 5389 035e 22       		.byte	0x22
 5390 035f 9F       		.byte	0x9f
 5391 0360 00000000 		.4byte	0
 5392 0364 00000000 		.4byte	0
 5393              	.LLST15:
 5394 0368 A0000000 		.4byte	.LVL30
 5395 036c A8000000 		.4byte	.LVL32
 5396 0370 0100     		.2byte	0x1
 5397 0372 50       		.byte	0x50
 5398 0373 A8000000 		.4byte	.LVL32
 5399 0377 E0000000 		.4byte	.LVL36
 5400 037b 0100     		.2byte	0x1
 5401 037d 5C       		.byte	0x5c
 5402 037e 00000000 		.4byte	0
 5403 0382 00000000 		.4byte	0
 5404              	.LLST16:
 5405 0386 A0000000 		.4byte	.LVL30
 5406 038a A8000000 		.4byte	.LVL32
 5407 038e 0200     		.2byte	0x2
ARM GAS  C:\Users\haske\AppData\Local\Temp\ccdHxW38.s 			page 126


 5408 0390 30       		.byte	0x30
 5409 0391 9F       		.byte	0x9f
 5410 0392 A8000000 		.4byte	.LVL32
 5411 0396 E0000000 		.4byte	.LVL36
 5412 039a 0100     		.2byte	0x1
 5413 039c 52       		.byte	0x52
 5414 039d 00000000 		.4byte	0
 5415 03a1 00000000 		.4byte	0
 5416              	.LLST17:
 5417 03a5 00000000 		.4byte	.LVL49
 5418 03a9 0F000000 		.4byte	.LVL51-1
 5419 03ad 0100     		.2byte	0x1
 5420 03af 50       		.byte	0x50
 5421 03b0 0F000000 		.4byte	.LVL51-1
 5422 03b4 24000000 		.4byte	.LVL53
 5423 03b8 0100     		.2byte	0x1
 5424 03ba 54       		.byte	0x54
 5425 03bb 24000000 		.4byte	.LVL53
 5426 03bf 2C000000 		.4byte	.LFE64
 5427 03c3 0400     		.2byte	0x4
 5428 03c5 F3       		.byte	0xf3
 5429 03c6 01       		.uleb128 0x1
 5430 03c7 50       		.byte	0x50
 5431 03c8 9F       		.byte	0x9f
 5432 03c9 00000000 		.4byte	0
 5433 03cd 00000000 		.4byte	0
 5434              	.LLST18:
 5435 03d1 00000000 		.4byte	.LVL49
 5436 03d5 0C000000 		.4byte	.LVL50
 5437 03d9 0100     		.2byte	0x1
 5438 03db 51       		.byte	0x51
 5439 03dc 0C000000 		.4byte	.LVL50
 5440 03e0 24000000 		.4byte	.LVL55
 5441 03e4 0100     		.2byte	0x1
 5442 03e6 57       		.byte	0x57
 5443 03e7 24000000 		.4byte	.LVL55
 5444 03eb 2C000000 		.4byte	.LFE64
 5445 03ef 0300     		.2byte	0x3
 5446 03f1 F3       		.byte	0xf3
 5447 03f2 01       		.uleb128 0x1
 5448 03f3 50       		.byte	0x50
 5449 03f4 00000000 		.4byte	0
 5450 03f8 00000000 		.4byte	0
 5451              	.LLST19:
 5452 03fc 00000000 		.4byte	.LVL49
 5453 0400 0F000000 		.4byte	.LVL51-1
 5454 0404 0100     		.2byte	0x1
 5455 0406 52       		.byte	0x52
 5456 0407 0F000000 		.4byte	.LVL51-1
 5457 040b 18000000 		.4byte	.LVL52
 5458 040f 0100     		.2byte	0x1
 5459 0411 55       		.byte	0x55
 5460 0412 18000000 		.4byte	.LVL52
 5461 0416 2C000000 		.4byte	.LFE64
 5462 041a 0400     		.2byte	0x4
 5463 041c F3       		.byte	0xf3
 5464 041d 01       		.uleb128 0x1
ARM GAS  C:\Users\haske\AppData\Local\Temp\ccdHxW38.s 			page 127


 5465 041e 52       		.byte	0x52
 5466 041f 9F       		.byte	0x9f
 5467 0420 00000000 		.4byte	0
 5468 0424 00000000 		.4byte	0
 5469              	.LLST20:
 5470 0428 00000000 		.4byte	.LVL49
 5471 042c 0F000000 		.4byte	.LVL51-1
 5472 0430 0100     		.2byte	0x1
 5473 0432 53       		.byte	0x53
 5474 0433 0F000000 		.4byte	.LVL51-1
 5475 0437 24000000 		.4byte	.LVL54
 5476 043b 0100     		.2byte	0x1
 5477 043d 56       		.byte	0x56
 5478 043e 24000000 		.4byte	.LVL54
 5479 0442 2C000000 		.4byte	.LFE64
 5480 0446 0500     		.2byte	0x5
 5481 0448 F3       		.byte	0xf3
 5482 0449 01       		.uleb128 0x1
 5483 044a 50       		.byte	0x50
 5484 044b 23       		.byte	0x23
 5485 044c 0C       		.uleb128 0xc
 5486 044d 00000000 		.4byte	0
 5487 0451 00000000 		.4byte	0
 5488              	.LLST21:
 5489 0455 00000000 		.4byte	.LVL56
 5490 0459 02000000 		.4byte	.LVL57
 5491 045d 0100     		.2byte	0x1
 5492 045f 50       		.byte	0x50
 5493 0460 02000000 		.4byte	.LVL57
 5494 0464 54000000 		.4byte	.LFE65
 5495 0468 0400     		.2byte	0x4
 5496 046a F3       		.byte	0xf3
 5497 046b 01       		.uleb128 0x1
 5498 046c 50       		.byte	0x50
 5499 046d 9F       		.byte	0x9f
 5500 046e 00000000 		.4byte	0
 5501 0472 00000000 		.4byte	0
 5502              	.LLST22:
 5503 0476 12000000 		.4byte	.LVL58
 5504 047a 14000000 		.4byte	.LVL59
 5505 047e 0100     		.2byte	0x1
 5506 0480 50       		.byte	0x50
 5507 0481 00000000 		.4byte	0
 5508 0485 00000000 		.4byte	0
 5509              	.LLST23:
 5510 0489 16000000 		.4byte	.LVL60
 5511 048d 22000000 		.4byte	.LVL61
 5512 0491 0300     		.2byte	0x3
 5513 0493 09       		.byte	0x9
 5514 0494 FF       		.byte	0xff
 5515 0495 9F       		.byte	0x9f
 5516 0496 00000000 		.4byte	0
 5517 049a 00000000 		.4byte	0
 5518              	.LLST26:
 5519 049e 00000000 		.4byte	.LVL62
 5520 04a2 10000000 		.4byte	.LVL65
 5521 04a6 0100     		.2byte	0x1
ARM GAS  C:\Users\haske\AppData\Local\Temp\ccdHxW38.s 			page 128


 5522 04a8 50       		.byte	0x50
 5523 04a9 10000000 		.4byte	.LVL65
 5524 04ad 44000000 		.4byte	.LVL73
 5525 04b1 0100     		.2byte	0x1
 5526 04b3 56       		.byte	0x56
 5527 04b4 44000000 		.4byte	.LVL73
 5528 04b8 46000000 		.4byte	.LVL74
 5529 04bc 0100     		.2byte	0x1
 5530 04be 50       		.byte	0x50
 5531 04bf 46000000 		.4byte	.LVL74
 5532 04c3 50000000 		.4byte	.LVL75
 5533 04c7 0100     		.2byte	0x1
 5534 04c9 56       		.byte	0x56
 5535 04ca 50000000 		.4byte	.LVL75
 5536 04ce 52000000 		.4byte	.LVL76
 5537 04d2 0100     		.2byte	0x1
 5538 04d4 50       		.byte	0x50
 5539 04d5 52000000 		.4byte	.LVL76
 5540 04d9 5E000000 		.4byte	.LVL77
 5541 04dd 0100     		.2byte	0x1
 5542 04df 56       		.byte	0x56
 5543 04e0 5E000000 		.4byte	.LVL77
 5544 04e4 9A000000 		.4byte	.LVL88
 5545 04e8 0400     		.2byte	0x4
 5546 04ea F3       		.byte	0xf3
 5547 04eb 01       		.uleb128 0x1
 5548 04ec 50       		.byte	0x50
 5549 04ed 9F       		.byte	0x9f
 5550 04ee 9A000000 		.4byte	.LVL88
 5551 04f2 C2000000 		.4byte	.LVL92
 5552 04f6 0100     		.2byte	0x1
 5553 04f8 56       		.byte	0x56
 5554 04f9 C2000000 		.4byte	.LVL92
 5555 04fd C6000000 		.4byte	.LVL94
 5556 0501 0400     		.2byte	0x4
 5557 0503 F3       		.byte	0xf3
 5558 0504 01       		.uleb128 0x1
 5559 0505 50       		.byte	0x50
 5560 0506 9F       		.byte	0x9f
 5561 0507 C6000000 		.4byte	.LVL94
 5562 050b CC000000 		.4byte	.LVL95
 5563 050f 0100     		.2byte	0x1
 5564 0511 56       		.byte	0x56
 5565 0512 CC000000 		.4byte	.LVL95
 5566 0516 D4000000 		.4byte	.LFE63
 5567 051a 0400     		.2byte	0x4
 5568 051c F3       		.byte	0xf3
 5569 051d 01       		.uleb128 0x1
 5570 051e 50       		.byte	0x50
 5571 051f 9F       		.byte	0x9f
 5572 0520 00000000 		.4byte	0
 5573 0524 00000000 		.4byte	0
 5574              	.LLST27:
 5575 0528 00000000 		.4byte	.LVL62
 5576 052c 31000000 		.4byte	.LVL69-1
 5577 0530 0100     		.2byte	0x1
 5578 0532 51       		.byte	0x51
ARM GAS  C:\Users\haske\AppData\Local\Temp\ccdHxW38.s 			page 129


 5579 0533 31000000 		.4byte	.LVL69-1
 5580 0537 38000000 		.4byte	.LVL70
 5581 053b 0400     		.2byte	0x4
 5582 053d F3       		.byte	0xf3
 5583 053e 01       		.uleb128 0x1
 5584 053f 51       		.byte	0x51
 5585 0540 9F       		.byte	0x9f
 5586 0541 38000000 		.4byte	.LVL70
 5587 0545 74000000 		.4byte	.LVL81
 5588 0549 0100     		.2byte	0x1
 5589 054b 51       		.byte	0x51
 5590 054c 74000000 		.4byte	.LVL81
 5591 0550 90000000 		.4byte	.LVL86
 5592 0554 0400     		.2byte	0x4
 5593 0556 F3       		.byte	0xf3
 5594 0557 01       		.uleb128 0x1
 5595 0558 51       		.byte	0x51
 5596 0559 9F       		.byte	0x9f
 5597 055a 90000000 		.4byte	.LVL86
 5598 055e AF000000 		.4byte	.LVL89-1
 5599 0562 0100     		.2byte	0x1
 5600 0564 51       		.byte	0x51
 5601 0565 AF000000 		.4byte	.LVL89-1
 5602 0569 B6000000 		.4byte	.LVL90
 5603 056d 0400     		.2byte	0x4
 5604 056f F3       		.byte	0xf3
 5605 0570 01       		.uleb128 0x1
 5606 0571 51       		.byte	0x51
 5607 0572 9F       		.byte	0x9f
 5608 0573 B6000000 		.4byte	.LVL90
 5609 0577 C2000000 		.4byte	.LVL92
 5610 057b 0100     		.2byte	0x1
 5611 057d 51       		.byte	0x51
 5612 057e C2000000 		.4byte	.LVL92
 5613 0582 C6000000 		.4byte	.LVL94
 5614 0586 0400     		.2byte	0x4
 5615 0588 F3       		.byte	0xf3
 5616 0589 01       		.uleb128 0x1
 5617 058a 51       		.byte	0x51
 5618 058b 9F       		.byte	0x9f
 5619 058c C6000000 		.4byte	.LVL94
 5620 0590 CC000000 		.4byte	.LVL95
 5621 0594 0100     		.2byte	0x1
 5622 0596 51       		.byte	0x51
 5623 0597 CC000000 		.4byte	.LVL95
 5624 059b D4000000 		.4byte	.LFE63
 5625 059f 0400     		.2byte	0x4
 5626 05a1 F3       		.byte	0xf3
 5627 05a2 01       		.uleb128 0x1
 5628 05a3 51       		.byte	0x51
 5629 05a4 9F       		.byte	0x9f
 5630 05a5 00000000 		.4byte	0
 5631 05a9 00000000 		.4byte	0
 5632              	.LLST28:
 5633 05ad 00000000 		.4byte	.LVL62
 5634 05b1 0A000000 		.4byte	.LVL64
 5635 05b5 0100     		.2byte	0x1
ARM GAS  C:\Users\haske\AppData\Local\Temp\ccdHxW38.s 			page 130


 5636 05b7 52       		.byte	0x52
 5637 05b8 0A000000 		.4byte	.LVL64
 5638 05bc CC000000 		.4byte	.LVL96
 5639 05c0 0100     		.2byte	0x1
 5640 05c2 54       		.byte	0x54
 5641 05c3 CC000000 		.4byte	.LVL96
 5642 05c7 D4000000 		.4byte	.LFE63
 5643 05cb 0400     		.2byte	0x4
 5644 05cd F3       		.byte	0xf3
 5645 05ce 01       		.uleb128 0x1
 5646 05cf 52       		.byte	0x52
 5647 05d0 9F       		.byte	0x9f
 5648 05d1 00000000 		.4byte	0
 5649 05d5 00000000 		.4byte	0
 5650              	.LLST29:
 5651 05d9 06000000 		.4byte	.LVL63
 5652 05dd 0A000000 		.4byte	.LVL64
 5653 05e1 0100     		.2byte	0x1
 5654 05e3 52       		.byte	0x52
 5655 05e4 0A000000 		.4byte	.LVL64
 5656 05e8 CC000000 		.4byte	.LVL95
 5657 05ec 0100     		.2byte	0x1
 5658 05ee 54       		.byte	0x54
 5659 05ef 00000000 		.4byte	0
 5660 05f3 00000000 		.4byte	0
 5661              	.LLST30:
 5662 05f7 06000000 		.4byte	.LVL63
 5663 05fb 31000000 		.4byte	.LVL69-1
 5664 05ff 0100     		.2byte	0x1
 5665 0601 51       		.byte	0x51
 5666 0602 31000000 		.4byte	.LVL69-1
 5667 0606 38000000 		.4byte	.LVL70
 5668 060a 0400     		.2byte	0x4
 5669 060c F3       		.byte	0xf3
 5670 060d 01       		.uleb128 0x1
 5671 060e 51       		.byte	0x51
 5672 060f 9F       		.byte	0x9f
 5673 0610 38000000 		.4byte	.LVL70
 5674 0614 74000000 		.4byte	.LVL81
 5675 0618 0100     		.2byte	0x1
 5676 061a 51       		.byte	0x51
 5677 061b 74000000 		.4byte	.LVL81
 5678 061f 90000000 		.4byte	.LVL86
 5679 0623 0400     		.2byte	0x4
 5680 0625 F3       		.byte	0xf3
 5681 0626 01       		.uleb128 0x1
 5682 0627 51       		.byte	0x51
 5683 0628 9F       		.byte	0x9f
 5684 0629 90000000 		.4byte	.LVL86
 5685 062d AF000000 		.4byte	.LVL89-1
 5686 0631 0100     		.2byte	0x1
 5687 0633 51       		.byte	0x51
 5688 0634 AF000000 		.4byte	.LVL89-1
 5689 0638 B6000000 		.4byte	.LVL90
 5690 063c 0400     		.2byte	0x4
 5691 063e F3       		.byte	0xf3
 5692 063f 01       		.uleb128 0x1
ARM GAS  C:\Users\haske\AppData\Local\Temp\ccdHxW38.s 			page 131


 5693 0640 51       		.byte	0x51
 5694 0641 9F       		.byte	0x9f
 5695 0642 B6000000 		.4byte	.LVL90
 5696 0646 C2000000 		.4byte	.LVL92
 5697 064a 0100     		.2byte	0x1
 5698 064c 51       		.byte	0x51
 5699 064d C2000000 		.4byte	.LVL92
 5700 0651 C6000000 		.4byte	.LVL94
 5701 0655 0400     		.2byte	0x4
 5702 0657 F3       		.byte	0xf3
 5703 0658 01       		.uleb128 0x1
 5704 0659 51       		.byte	0x51
 5705 065a 9F       		.byte	0x9f
 5706 065b C6000000 		.4byte	.LVL94
 5707 065f CC000000 		.4byte	.LVL95
 5708 0663 0100     		.2byte	0x1
 5709 0665 51       		.byte	0x51
 5710 0666 00000000 		.4byte	0
 5711 066a 00000000 		.4byte	0
 5712              	.LLST31:
 5713 066e 06000000 		.4byte	.LVL63
 5714 0672 10000000 		.4byte	.LVL65
 5715 0676 0100     		.2byte	0x1
 5716 0678 50       		.byte	0x50
 5717 0679 10000000 		.4byte	.LVL65
 5718 067d 44000000 		.4byte	.LVL73
 5719 0681 0100     		.2byte	0x1
 5720 0683 56       		.byte	0x56
 5721 0684 44000000 		.4byte	.LVL73
 5722 0688 46000000 		.4byte	.LVL74
 5723 068c 0100     		.2byte	0x1
 5724 068e 50       		.byte	0x50
 5725 068f 46000000 		.4byte	.LVL74
 5726 0693 50000000 		.4byte	.LVL75
 5727 0697 0100     		.2byte	0x1
 5728 0699 56       		.byte	0x56
 5729 069a 50000000 		.4byte	.LVL75
 5730 069e 52000000 		.4byte	.LVL76
 5731 06a2 0100     		.2byte	0x1
 5732 06a4 50       		.byte	0x50
 5733 06a5 52000000 		.4byte	.LVL76
 5734 06a9 5E000000 		.4byte	.LVL77
 5735 06ad 0100     		.2byte	0x1
 5736 06af 56       		.byte	0x56
 5737 06b0 5E000000 		.4byte	.LVL77
 5738 06b4 9A000000 		.4byte	.LVL88
 5739 06b8 0400     		.2byte	0x4
 5740 06ba F3       		.byte	0xf3
 5741 06bb 01       		.uleb128 0x1
 5742 06bc 50       		.byte	0x50
 5743 06bd 9F       		.byte	0x9f
 5744 06be 9A000000 		.4byte	.LVL88
 5745 06c2 C2000000 		.4byte	.LVL92
 5746 06c6 0100     		.2byte	0x1
 5747 06c8 56       		.byte	0x56
 5748 06c9 C2000000 		.4byte	.LVL92
 5749 06cd C6000000 		.4byte	.LVL94
ARM GAS  C:\Users\haske\AppData\Local\Temp\ccdHxW38.s 			page 132


 5750 06d1 0400     		.2byte	0x4
 5751 06d3 F3       		.byte	0xf3
 5752 06d4 01       		.uleb128 0x1
 5753 06d5 50       		.byte	0x50
 5754 06d6 9F       		.byte	0x9f
 5755 06d7 C6000000 		.4byte	.LVL94
 5756 06db CC000000 		.4byte	.LVL95
 5757 06df 0100     		.2byte	0x1
 5758 06e1 56       		.byte	0x56
 5759 06e2 00000000 		.4byte	0
 5760 06e6 00000000 		.4byte	0
 5761              	.LLST32:
 5762 06ea 18000000 		.4byte	.LVL66
 5763 06ee 31000000 		.4byte	.LVL69-1
 5764 06f2 0100     		.2byte	0x1
 5765 06f4 52       		.byte	0x52
 5766 06f5 38000000 		.4byte	.LVL70
 5767 06f9 44000000 		.4byte	.LVL73
 5768 06fd 0100     		.2byte	0x1
 5769 06ff 52       		.byte	0x52
 5770 0700 BE000000 		.4byte	.LVL91
 5771 0704 C2000000 		.4byte	.LVL92
 5772 0708 0100     		.2byte	0x1
 5773 070a 52       		.byte	0x52
 5774 070b 00000000 		.4byte	0
 5775 070f 00000000 		.4byte	0
 5776              	.LLST33:
 5777 0713 10000000 		.4byte	.LVL65
 5778 0717 24000000 		.4byte	.LVL68
 5779 071b 0100     		.2byte	0x1
 5780 071d 53       		.byte	0x53
 5781 071e 40000000 		.4byte	.LVL71
 5782 0722 44000000 		.4byte	.LVL73
 5783 0726 0100     		.2byte	0x1
 5784 0728 53       		.byte	0x53
 5785 0729 46000000 		.4byte	.LVL74
 5786 072d 50000000 		.4byte	.LVL75
 5787 0731 0100     		.2byte	0x1
 5788 0733 53       		.byte	0x53
 5789 0734 00000000 		.4byte	0
 5790 0738 00000000 		.4byte	0
 5791              	.LLST34:
 5792 073c 1E000000 		.4byte	.LVL67
 5793 0740 44000000 		.4byte	.LVL73
 5794 0744 0100     		.2byte	0x1
 5795 0746 55       		.byte	0x55
 5796 0747 BE000000 		.4byte	.LVL91
 5797 074b C2000000 		.4byte	.LVL92
 5798 074f 0100     		.2byte	0x1
 5799 0751 55       		.byte	0x55
 5800 0752 00000000 		.4byte	0
 5801 0756 00000000 		.4byte	0
 5802              	.LLST35:
 5803 075a 60000000 		.4byte	.LVL78
 5804 075e 9A000000 		.4byte	.LVL88
 5805 0762 0600     		.2byte	0x6
 5806 0764 77       		.byte	0x77
ARM GAS  C:\Users\haske\AppData\Local\Temp\ccdHxW38.s 			page 133


 5807 0765 00       		.sleb128 0
 5808 0766 75       		.byte	0x75
 5809 0767 00       		.sleb128 0
 5810 0768 22       		.byte	0x22
 5811 0769 9F       		.byte	0x9f
 5812 076a C2000000 		.4byte	.LVL92
 5813 076e C6000000 		.4byte	.LVL94
 5814 0772 0600     		.2byte	0x6
 5815 0774 77       		.byte	0x77
 5816 0775 00       		.sleb128 0
 5817 0776 75       		.byte	0x75
 5818 0777 00       		.sleb128 0
 5819 0778 22       		.byte	0x22
 5820 0779 9F       		.byte	0x9f
 5821 077a 00000000 		.4byte	0
 5822 077e 00000000 		.4byte	0
 5823              	.LLST37:
 5824 0782 60000000 		.4byte	.LVL78
 5825 0786 64000000 		.4byte	.LVL79
 5826 078a 0200     		.2byte	0x2
 5827 078c 30       		.byte	0x30
 5828 078d 9F       		.byte	0x9f
 5829 078e 64000000 		.4byte	.LVL79
 5830 0792 7F000000 		.4byte	.LVL82-1
 5831 0796 0100     		.2byte	0x1
 5832 0798 53       		.byte	0x53
 5833 0799 86000000 		.4byte	.LVL83
 5834 079d 88000000 		.4byte	.LVL84
 5835 07a1 0100     		.2byte	0x1
 5836 07a3 53       		.byte	0x53
 5837 07a4 90000000 		.4byte	.LVL86
 5838 07a8 9A000000 		.4byte	.LVL88
 5839 07ac 0100     		.2byte	0x1
 5840 07ae 53       		.byte	0x53
 5841 07af C2000000 		.4byte	.LVL92
 5842 07b3 C6000000 		.4byte	.LVL94
 5843 07b7 0100     		.2byte	0x1
 5844 07b9 53       		.byte	0x53
 5845 07ba 00000000 		.4byte	0
 5846 07be 00000000 		.4byte	0
 5847              	.LLST38:
 5848 07c2 6E000000 		.4byte	.LVL80
 5849 07c6 7F000000 		.4byte	.LVL82-1
 5850 07ca 0100     		.2byte	0x1
 5851 07cc 50       		.byte	0x50
 5852 07cd 86000000 		.4byte	.LVL83
 5853 07d1 8E000000 		.4byte	.LVL85
 5854 07d5 0100     		.2byte	0x1
 5855 07d7 50       		.byte	0x50
 5856 07d8 90000000 		.4byte	.LVL86
 5857 07dc 92000000 		.4byte	.LVL87
 5858 07e0 0100     		.2byte	0x1
 5859 07e2 50       		.byte	0x50
 5860 07e3 C2000000 		.4byte	.LVL92
 5861 07e7 C4000000 		.4byte	.LVL93
 5862 07eb 0100     		.2byte	0x1
 5863 07ed 50       		.byte	0x50
ARM GAS  C:\Users\haske\AppData\Local\Temp\ccdHxW38.s 			page 134


 5864 07ee C4000000 		.4byte	.LVL93
 5865 07f2 C6000000 		.4byte	.LVL94
 5866 07f6 0700     		.2byte	0x7
 5867 07f8 72       		.byte	0x72
 5868 07f9 00       		.sleb128 0
 5869 07fa 42       		.byte	0x42
 5870 07fb 24       		.byte	0x24
 5871 07fc 42       		.byte	0x42
 5872 07fd 25       		.byte	0x25
 5873 07fe 9F       		.byte	0x9f
 5874 07ff 00000000 		.4byte	0
 5875 0803 00000000 		.4byte	0
 5876              	.LLST39:
 5877 0807 86000000 		.4byte	.LVL83
 5878 080b 90000000 		.4byte	.LVL86
 5879 080f 0100     		.2byte	0x1
 5880 0811 57       		.byte	0x57
 5881 0812 00000000 		.4byte	0
 5882 0816 00000000 		.4byte	0
 5883              	.LLST40:
 5884 081a 00000000 		.4byte	.LVL97
 5885 081e 02000000 		.4byte	.LVL98
 5886 0822 0100     		.2byte	0x1
 5887 0824 50       		.byte	0x50
 5888 0825 02000000 		.4byte	.LVL98
 5889 0829 0A000000 		.4byte	.LFE66
 5890 082d 0400     		.2byte	0x4
 5891 082f F3       		.byte	0xf3
 5892 0830 01       		.uleb128 0x1
 5893 0831 50       		.byte	0x50
 5894 0832 9F       		.byte	0x9f
 5895 0833 00000000 		.4byte	0
 5896 0837 00000000 		.4byte	0
 5897              	.LLST41:
 5898 083b 00000000 		.4byte	.LVL99
 5899 083f 02000000 		.4byte	.LVL100
 5900 0843 0100     		.2byte	0x1
 5901 0845 50       		.byte	0x50
 5902 0846 02000000 		.4byte	.LVL100
 5903 084a 10000000 		.4byte	.LFE67
 5904 084e 0400     		.2byte	0x4
 5905 0850 F3       		.byte	0xf3
 5906 0851 01       		.uleb128 0x1
 5907 0852 50       		.byte	0x50
 5908 0853 9F       		.byte	0x9f
 5909 0854 00000000 		.4byte	0
 5910 0858 00000000 		.4byte	0
 5911              	.LLST42:
 5912 085c 06000000 		.4byte	.LVL101
 5913 0860 0E000000 		.4byte	.LVL103
 5914 0864 0100     		.2byte	0x1
 5915 0866 50       		.byte	0x50
 5916 0867 00000000 		.4byte	0
 5917 086b 00000000 		.4byte	0
 5918              	.LLST43:
 5919 086f 00000000 		.4byte	.LVL104
 5920 0873 26000000 		.4byte	.LVL109
ARM GAS  C:\Users\haske\AppData\Local\Temp\ccdHxW38.s 			page 135


 5921 0877 0100     		.2byte	0x1
 5922 0879 50       		.byte	0x50
 5923 087a 26000000 		.4byte	.LVL109
 5924 087e A6000000 		.4byte	.LVL130
 5925 0882 0100     		.2byte	0x1
 5926 0884 56       		.byte	0x56
 5927 0885 A6000000 		.4byte	.LVL130
 5928 0889 BA000000 		.4byte	.LVL132
 5929 088d 0100     		.2byte	0x1
 5930 088f 50       		.byte	0x50
 5931 0890 BA000000 		.4byte	.LVL132
 5932 0894 C0000000 		.4byte	.LVL134
 5933 0898 0100     		.2byte	0x1
 5934 089a 56       		.byte	0x56
 5935 089b C0000000 		.4byte	.LVL134
 5936 089f C8000000 		.4byte	.LVL135
 5937 08a3 0100     		.2byte	0x1
 5938 08a5 50       		.byte	0x50
 5939 08a6 C8000000 		.4byte	.LVL135
 5940 08aa F4000000 		.4byte	.LVL145
 5941 08ae 0100     		.2byte	0x1
 5942 08b0 56       		.byte	0x56
 5943 08b1 F4000000 		.4byte	.LVL145
 5944 08b5 00010000 		.4byte	.LVL147
 5945 08b9 0100     		.2byte	0x1
 5946 08bb 50       		.byte	0x50
 5947 08bc 00010000 		.4byte	.LVL147
 5948 08c0 16010000 		.4byte	.LVL151
 5949 08c4 0100     		.2byte	0x1
 5950 08c6 56       		.byte	0x56
 5951 08c7 16010000 		.4byte	.LVL151
 5952 08cb 24010000 		.4byte	.LFE71
 5953 08cf 0400     		.2byte	0x4
 5954 08d1 F3       		.byte	0xf3
 5955 08d2 01       		.uleb128 0x1
 5956 08d3 50       		.byte	0x50
 5957 08d4 9F       		.byte	0x9f
 5958 08d5 00000000 		.4byte	0
 5959 08d9 00000000 		.4byte	0
 5960              	.LLST44:
 5961 08dd 00000000 		.4byte	.LVL104
 5962 08e1 28000000 		.4byte	.LVL110
 5963 08e5 0100     		.2byte	0x1
 5964 08e7 51       		.byte	0x51
 5965 08e8 28000000 		.4byte	.LVL110
 5966 08ec A6000000 		.4byte	.LVL130
 5967 08f0 0400     		.2byte	0x4
 5968 08f2 F3       		.byte	0xf3
 5969 08f3 01       		.uleb128 0x1
 5970 08f4 51       		.byte	0x51
 5971 08f5 9F       		.byte	0x9f
 5972 08f6 A6000000 		.4byte	.LVL130
 5973 08fa B8000000 		.4byte	.LVL131
 5974 08fe 0100     		.2byte	0x1
 5975 0900 51       		.byte	0x51
 5976 0901 B8000000 		.4byte	.LVL131
 5977 0905 C0000000 		.4byte	.LVL134
ARM GAS  C:\Users\haske\AppData\Local\Temp\ccdHxW38.s 			page 136


 5978 0909 0400     		.2byte	0x4
 5979 090b F3       		.byte	0xf3
 5980 090c 01       		.uleb128 0x1
 5981 090d 51       		.byte	0x51
 5982 090e 9F       		.byte	0x9f
 5983 090f C0000000 		.4byte	.LVL134
 5984 0913 CB000000 		.4byte	.LVL136-1
 5985 0917 0100     		.2byte	0x1
 5986 0919 51       		.byte	0x51
 5987 091a CB000000 		.4byte	.LVL136-1
 5988 091e F4000000 		.4byte	.LVL145
 5989 0922 0400     		.2byte	0x4
 5990 0924 F3       		.byte	0xf3
 5991 0925 01       		.uleb128 0x1
 5992 0926 51       		.byte	0x51
 5993 0927 9F       		.byte	0x9f
 5994 0928 F4000000 		.4byte	.LVL145
 5995 092c FE000000 		.4byte	.LVL146
 5996 0930 0100     		.2byte	0x1
 5997 0932 51       		.byte	0x51
 5998 0933 FE000000 		.4byte	.LVL146
 5999 0937 24010000 		.4byte	.LFE71
 6000 093b 0400     		.2byte	0x4
 6001 093d F3       		.byte	0xf3
 6002 093e 01       		.uleb128 0x1
 6003 093f 51       		.byte	0x51
 6004 0940 9F       		.byte	0x9f
 6005 0941 00000000 		.4byte	0
 6006 0945 00000000 		.4byte	0
 6007              	.LLST45:
 6008 0949 00000000 		.4byte	.LVL104
 6009 094d 10000000 		.4byte	.LVL106
 6010 0951 0100     		.2byte	0x1
 6011 0953 52       		.byte	0x52
 6012 0954 00000000 		.4byte	0
 6013 0958 00000000 		.4byte	0
 6014              	.LLST46:
 6015 095c 00000000 		.4byte	.LVL104
 6016 0960 0E000000 		.4byte	.LVL105
 6017 0964 0100     		.2byte	0x1
 6018 0966 53       		.byte	0x53
 6019 0967 0E000000 		.4byte	.LVL105
 6020 096b 24010000 		.4byte	.LFE71
 6021 096f 0200     		.2byte	0x2
 6022 0971 91       		.byte	0x91
 6023 0972 64       		.sleb128 -28
 6024 0973 00000000 		.4byte	0
 6025 0977 00000000 		.4byte	0
 6026              	.LLST47:
 6027 097b 1A000000 		.4byte	.LVL107
 6028 097f 14010000 		.4byte	.LVL150
 6029 0983 0100     		.2byte	0x1
 6030 0985 57       		.byte	0x57
 6031 0986 00000000 		.4byte	0
 6032 098a 00000000 		.4byte	0
 6033              	.LLST48:
 6034 098e 0A010000 		.4byte	.LVL149
ARM GAS  C:\Users\haske\AppData\Local\Temp\ccdHxW38.s 			page 137


 6035 0992 14010000 		.4byte	.LVL150
 6036 0996 0100     		.2byte	0x1
 6037 0998 50       		.byte	0x50
 6038 0999 00000000 		.4byte	0
 6039 099d 00000000 		.4byte	0
 6040              	.LLST49:
 6041 09a1 24000000 		.4byte	.LVL108
 6042 09a5 3C000000 		.4byte	.LVL112
 6043 09a9 0600     		.2byte	0x6
 6044 09ab 74       		.byte	0x74
 6045 09ac 00       		.sleb128 0
 6046 09ad 73       		.byte	0x73
 6047 09ae 00       		.sleb128 0
 6048 09af 22       		.byte	0x22
 6049 09b0 9F       		.byte	0x9f
 6050 09b1 3C000000 		.4byte	.LVL112
 6051 09b5 44000000 		.4byte	.LVL114
 6052 09b9 0800     		.2byte	0x8
 6053 09bb 75       		.byte	0x75
 6054 09bc 00       		.sleb128 0
 6055 09bd 32       		.byte	0x32
 6056 09be 24       		.byte	0x24
 6057 09bf 74       		.byte	0x74
 6058 09c0 00       		.sleb128 0
 6059 09c1 22       		.byte	0x22
 6060 09c2 9F       		.byte	0x9f
 6061 09c3 44000000 		.4byte	.LVL114
 6062 09c7 45000000 		.4byte	.LVL115-1
 6063 09cb 0900     		.2byte	0x9
 6064 09cd 75       		.byte	0x75
 6065 09ce 00       		.sleb128 0
 6066 09cf 32       		.byte	0x32
 6067 09d0 24       		.byte	0x24
 6068 09d1 76       		.byte	0x76
 6069 09d2 00       		.sleb128 0
 6070 09d3 06       		.byte	0x6
 6071 09d4 22       		.byte	0x22
 6072 09d5 9F       		.byte	0x9f
 6073 09d6 48000000 		.4byte	.LVL116
 6074 09da 50000000 		.4byte	.LVL118
 6075 09de 0600     		.2byte	0x6
 6076 09e0 74       		.byte	0x74
 6077 09e1 00       		.sleb128 0
 6078 09e2 73       		.byte	0x73
 6079 09e3 00       		.sleb128 0
 6080 09e4 22       		.byte	0x22
 6081 09e5 9F       		.byte	0x9f
 6082 09e6 50000000 		.4byte	.LVL118
 6083 09ea 66000000 		.4byte	.LVL122
 6084 09ee 0800     		.2byte	0x8
 6085 09f0 75       		.byte	0x75
 6086 09f1 00       		.sleb128 0
 6087 09f2 32       		.byte	0x32
 6088 09f3 24       		.byte	0x24
 6089 09f4 74       		.byte	0x74
 6090 09f5 00       		.sleb128 0
 6091 09f6 22       		.byte	0x22
ARM GAS  C:\Users\haske\AppData\Local\Temp\ccdHxW38.s 			page 138


 6092 09f7 9F       		.byte	0x9f
 6093 09f8 66000000 		.4byte	.LVL122
 6094 09fc 88000000 		.4byte	.LVL126
 6095 0a00 0600     		.2byte	0x6
 6096 0a02 70       		.byte	0x70
 6097 0a03 00       		.sleb128 0
 6098 0a04 72       		.byte	0x72
 6099 0a05 00       		.sleb128 0
 6100 0a06 22       		.byte	0x22
 6101 0a07 9F       		.byte	0x9f
 6102 0a08 88000000 		.4byte	.LVL126
 6103 0a0c 9E000000 		.4byte	.LVL127
 6104 0a10 0600     		.2byte	0x6
 6105 0a12 70       		.byte	0x70
 6106 0a13 00       		.sleb128 0
 6107 0a14 71       		.byte	0x71
 6108 0a15 00       		.sleb128 0
 6109 0a16 22       		.byte	0x22
 6110 0a17 9F       		.byte	0x9f
 6111 0a18 00000000 		.4byte	0
 6112 0a1c 00000000 		.4byte	0
 6113              	.LLST51:
 6114 0a20 26000000 		.4byte	.LVL109
 6115 0a24 42000000 		.4byte	.LVL113
 6116 0a28 0100     		.2byte	0x1
 6117 0a2a 50       		.byte	0x50
 6118 0a2b 42000000 		.4byte	.LVL113
 6119 0a2f 48000000 		.4byte	.LVL116
 6120 0a33 0200     		.2byte	0x2
 6121 0a35 7D       		.byte	0x7d
 6122 0a36 00       		.sleb128 0
 6123 0a37 48000000 		.4byte	.LVL116
 6124 0a3b 58000000 		.4byte	.LVL120
 6125 0a3f 0100     		.2byte	0x1
 6126 0a41 50       		.byte	0x50
 6127 0a42 68000000 		.4byte	.LVL123
 6128 0a46 88000000 		.4byte	.LVL126
 6129 0a4a 0100     		.2byte	0x1
 6130 0a4c 51       		.byte	0x51
 6131 0a4d 00000000 		.4byte	0
 6132 0a51 00000000 		.4byte	0
 6133              	.LLST52:
 6134 0a55 56000000 		.4byte	.LVL119
 6135 0a59 5B000000 		.4byte	.LVL121-1
 6136 0a5d 0100     		.2byte	0x1
 6137 0a5f 51       		.byte	0x51
 6138 0a60 5B000000 		.4byte	.LVL121-1
 6139 0a64 6A000000 		.4byte	.LVL124
 6140 0a68 0A00     		.2byte	0xa
 6141 0a6a 75       		.byte	0x75
 6142 0a6b 01       		.sleb128 1
 6143 0a6c 75       		.byte	0x75
 6144 0a6d 01       		.sleb128 1
 6145 0a6e 31       		.byte	0x31
 6146 0a6f 24       		.byte	0x24
 6147 0a70 22       		.byte	0x22
 6148 0a71 31       		.byte	0x31
ARM GAS  C:\Users\haske\AppData\Local\Temp\ccdHxW38.s 			page 139


 6149 0a72 24       		.byte	0x24
 6150 0a73 9F       		.byte	0x9f
 6151 0a74 00000000 		.4byte	0
 6152 0a78 00000000 		.4byte	0
 6153              	.LLST53:
 6154 0a7c 5C000000 		.4byte	.LVL121
 6155 0a80 A0000000 		.4byte	.LVL128
 6156 0a84 0100     		.2byte	0x1
 6157 0a86 50       		.byte	0x50
 6158 0a87 00000000 		.4byte	0
 6159 0a8b 00000000 		.4byte	0
 6160              	.LLST54:
 6161 0a8f 88000000 		.4byte	.LVL126
 6162 0a93 A0000000 		.4byte	.LVL128
 6163 0a97 0100     		.2byte	0x1
 6164 0a99 50       		.byte	0x50
 6165 0a9a 00000000 		.4byte	0
 6166 0a9e 00000000 		.4byte	0
 6167              	.LLST55:
 6168 0aa2 3A000000 		.4byte	.LVL111
 6169 0aa6 44000000 		.4byte	.LVL114
 6170 0aaa 0100     		.2byte	0x1
 6171 0aac 54       		.byte	0x54
 6172 0aad 44000000 		.4byte	.LVL114
 6173 0ab1 45000000 		.4byte	.LVL115-1
 6174 0ab5 0200     		.2byte	0x2
 6175 0ab7 76       		.byte	0x76
 6176 0ab8 00       		.sleb128 0
 6177 0ab9 00000000 		.4byte	0
 6178 0abd 00000000 		.4byte	0
 6179              	.LLST56:
 6180 0ac1 C8000000 		.4byte	.LVL135
 6181 0ac5 CB000000 		.4byte	.LVL136-1
 6182 0ac9 0100     		.2byte	0x1
 6183 0acb 50       		.byte	0x50
 6184 0acc CB000000 		.4byte	.LVL136-1
 6185 0ad0 F4000000 		.4byte	.LVL145
 6186 0ad4 0A00     		.2byte	0xa
 6187 0ad6 75       		.byte	0x75
 6188 0ad7 01       		.sleb128 1
 6189 0ad8 75       		.byte	0x75
 6190 0ad9 01       		.sleb128 1
 6191 0ada 31       		.byte	0x31
 6192 0adb 24       		.byte	0x24
 6193 0adc 22       		.byte	0x22
 6194 0add 31       		.byte	0x31
 6195 0ade 24       		.byte	0x24
 6196 0adf 9F       		.byte	0x9f
 6197 0ae0 00000000 		.4byte	0
 6198 0ae4 00000000 		.4byte	0
 6199              	.LLST57:
 6200 0ae8 CC000000 		.4byte	.LVL136
 6201 0aec EE000000 		.4byte	.LVL143
 6202 0af0 0100     		.2byte	0x1
 6203 0af2 50       		.byte	0x50
 6204 0af3 EE000000 		.4byte	.LVL143
 6205 0af7 F1000000 		.4byte	.LVL144-1
ARM GAS  C:\Users\haske\AppData\Local\Temp\ccdHxW38.s 			page 140


 6206 0afb 0300     		.2byte	0x3
 6207 0afd 73       		.byte	0x73
 6208 0afe 7C       		.sleb128 -4
 6209 0aff 9F       		.byte	0x9f
 6210 0b00 00000000 		.4byte	0
 6211 0b04 00000000 		.4byte	0
 6212              	.LLST58:
 6213 0b08 E4000000 		.4byte	.LVL139
 6214 0b0c EA000000 		.4byte	.LVL141
 6215 0b10 0100     		.2byte	0x1
 6216 0b12 52       		.byte	0x52
 6217 0b13 00000000 		.4byte	0
 6218 0b17 00000000 		.4byte	0
 6219              	.LLST59:
 6220 0b1b DE000000 		.4byte	.LVL138
 6221 0b1f E8000000 		.4byte	.LVL140
 6222 0b23 0600     		.2byte	0x6
 6223 0b25 70       		.byte	0x70
 6224 0b26 00       		.sleb128 0
 6225 0b27 71       		.byte	0x71
 6226 0b28 00       		.sleb128 0
 6227 0b29 22       		.byte	0x22
 6228 0b2a 9F       		.byte	0x9f
 6229 0b2b E8000000 		.4byte	.LVL140
 6230 0b2f EC000000 		.4byte	.LVL142
 6231 0b33 0800     		.2byte	0x8
 6232 0b35 70       		.byte	0x70
 6233 0b36 00       		.sleb128 0
 6234 0b37 71       		.byte	0x71
 6235 0b38 00       		.sleb128 0
 6236 0b39 22       		.byte	0x22
 6237 0b3a 32       		.byte	0x32
 6238 0b3b 1C       		.byte	0x1c
 6239 0b3c 9F       		.byte	0x9f
 6240 0b3d 00000000 		.4byte	0
 6241 0b41 00000000 		.4byte	0
 6242              	.LLST61:
 6243 0b45 DE000000 		.4byte	.LVL138
 6244 0b49 EE000000 		.4byte	.LVL143
 6245 0b4d 0100     		.2byte	0x1
 6246 0b4f 50       		.byte	0x50
 6247 0b50 EE000000 		.4byte	.LVL143
 6248 0b54 F1000000 		.4byte	.LVL144-1
 6249 0b58 0300     		.2byte	0x3
 6250 0b5a 73       		.byte	0x73
 6251 0b5b 7C       		.sleb128 -4
 6252 0b5c 9F       		.byte	0x9f
 6253 0b5d 00000000 		.4byte	0
 6254 0b61 00000000 		.4byte	0
 6255              	.LLST62:
 6256 0b65 00000000 		.4byte	.LVL152
 6257 0b69 07000000 		.4byte	.LVL153-1
 6258 0b6d 0100     		.2byte	0x1
 6259 0b6f 50       		.byte	0x50
 6260 0b70 07000000 		.4byte	.LVL153-1
 6261 0b74 10000000 		.4byte	.LFE61
 6262 0b78 0400     		.2byte	0x4
ARM GAS  C:\Users\haske\AppData\Local\Temp\ccdHxW38.s 			page 141


 6263 0b7a F3       		.byte	0xf3
 6264 0b7b 01       		.uleb128 0x1
 6265 0b7c 50       		.byte	0x50
 6266 0b7d 9F       		.byte	0x9f
 6267 0b7e 00000000 		.4byte	0
 6268 0b82 00000000 		.4byte	0
 6269              	.LLST63:
 6270 0b86 00000000 		.4byte	.LVL152
 6271 0b8a 07000000 		.4byte	.LVL153-1
 6272 0b8e 0100     		.2byte	0x1
 6273 0b90 51       		.byte	0x51
 6274 0b91 07000000 		.4byte	.LVL153-1
 6275 0b95 10000000 		.4byte	.LFE61
 6276 0b99 0400     		.2byte	0x4
 6277 0b9b F3       		.byte	0xf3
 6278 0b9c 01       		.uleb128 0x1
 6279 0b9d 51       		.byte	0x51
 6280 0b9e 9F       		.byte	0x9f
 6281 0b9f 00000000 		.4byte	0
 6282 0ba3 00000000 		.4byte	0
 6283              	.LLST64:
 6284 0ba7 00000000 		.4byte	.LVL152
 6285 0bab 07000000 		.4byte	.LVL153-1
 6286 0baf 0100     		.2byte	0x1
 6287 0bb1 52       		.byte	0x52
 6288 0bb2 00000000 		.4byte	0
 6289 0bb6 00000000 		.4byte	0
 6290              	.LLST65:
 6291 0bba 00000000 		.4byte	.LVL154
 6292 0bbe 0F000000 		.4byte	.LVL157-1
 6293 0bc2 0100     		.2byte	0x1
 6294 0bc4 50       		.byte	0x50
 6295 0bc5 0F000000 		.4byte	.LVL157-1
 6296 0bc9 1C000000 		.4byte	.LFE62
 6297 0bcd 0400     		.2byte	0x4
 6298 0bcf F3       		.byte	0xf3
 6299 0bd0 01       		.uleb128 0x1
 6300 0bd1 50       		.byte	0x50
 6301 0bd2 9F       		.byte	0x9f
 6302 0bd3 00000000 		.4byte	0
 6303 0bd7 00000000 		.4byte	0
 6304              	.LLST66:
 6305 0bdb 00000000 		.4byte	.LVL154
 6306 0bdf 08000000 		.4byte	.LVL155
 6307 0be3 0100     		.2byte	0x1
 6308 0be5 51       		.byte	0x51
 6309 0be6 08000000 		.4byte	.LVL155
 6310 0bea 1C000000 		.4byte	.LFE62
 6311 0bee 0400     		.2byte	0x4
 6312 0bf0 F3       		.byte	0xf3
 6313 0bf1 01       		.uleb128 0x1
 6314 0bf2 51       		.byte	0x51
 6315 0bf3 9F       		.byte	0x9f
 6316 0bf4 00000000 		.4byte	0
 6317 0bf8 00000000 		.4byte	0
 6318              	.LLST67:
 6319 0bfc 00000000 		.4byte	.LVL154
ARM GAS  C:\Users\haske\AppData\Local\Temp\ccdHxW38.s 			page 142


 6320 0c00 0C000000 		.4byte	.LVL156
 6321 0c04 0100     		.2byte	0x1
 6322 0c06 52       		.byte	0x52
 6323 0c07 0C000000 		.4byte	.LVL156
 6324 0c0b 1C000000 		.4byte	.LFE62
 6325 0c0f 0400     		.2byte	0x4
 6326 0c11 F3       		.byte	0xf3
 6327 0c12 01       		.uleb128 0x1
 6328 0c13 52       		.byte	0x52
 6329 0c14 9F       		.byte	0x9f
 6330 0c15 00000000 		.4byte	0
 6331 0c19 00000000 		.4byte	0
 6332              	.LLST68:
 6333 0c1d 00000000 		.4byte	.LVL158
 6334 0c21 12000000 		.4byte	.LVL159
 6335 0c25 0100     		.2byte	0x1
 6336 0c27 50       		.byte	0x50
 6337 0c28 12000000 		.4byte	.LVL159
 6338 0c2c 16000000 		.4byte	.LVL160
 6339 0c30 0400     		.2byte	0x4
 6340 0c32 F3       		.byte	0xf3
 6341 0c33 01       		.uleb128 0x1
 6342 0c34 50       		.byte	0x50
 6343 0c35 9F       		.byte	0x9f
 6344 0c36 16000000 		.4byte	.LVL160
 6345 0c3a 18000000 		.4byte	.LVL161
 6346 0c3e 0100     		.2byte	0x1
 6347 0c40 50       		.byte	0x50
 6348 0c41 18000000 		.4byte	.LVL161
 6349 0c45 1A000000 		.4byte	.LVL162
 6350 0c49 0400     		.2byte	0x4
 6351 0c4b F3       		.byte	0xf3
 6352 0c4c 01       		.uleb128 0x1
 6353 0c4d 50       		.byte	0x50
 6354 0c4e 9F       		.byte	0x9f
 6355 0c4f 1A000000 		.4byte	.LVL162
 6356 0c53 2C000000 		.4byte	.LVL163
 6357 0c57 0100     		.2byte	0x1
 6358 0c59 50       		.byte	0x50
 6359 0c5a 2E000000 		.4byte	.LVL164
 6360 0c5e 30000000 		.4byte	.LVL165
 6361 0c62 0100     		.2byte	0x1
 6362 0c64 50       		.byte	0x50
 6363 0c65 30000000 		.4byte	.LVL165
 6364 0c69 32000000 		.4byte	.LVL166
 6365 0c6d 0400     		.2byte	0x4
 6366 0c6f F3       		.byte	0xf3
 6367 0c70 01       		.uleb128 0x1
 6368 0c71 50       		.byte	0x50
 6369 0c72 9F       		.byte	0x9f
 6370 0c73 32000000 		.4byte	.LVL166
 6371 0c77 34000000 		.4byte	.LVL167
 6372 0c7b 0100     		.2byte	0x1
 6373 0c7d 50       		.byte	0x50
 6374 0c7e 34000000 		.4byte	.LVL167
 6375 0c82 36000000 		.4byte	.LVL168
 6376 0c86 0400     		.2byte	0x4
ARM GAS  C:\Users\haske\AppData\Local\Temp\ccdHxW38.s 			page 143


 6377 0c88 F3       		.byte	0xf3
 6378 0c89 01       		.uleb128 0x1
 6379 0c8a 50       		.byte	0x50
 6380 0c8b 9F       		.byte	0x9f
 6381 0c8c 36000000 		.4byte	.LVL168
 6382 0c90 38000000 		.4byte	.LVL169
 6383 0c94 0100     		.2byte	0x1
 6384 0c96 50       		.byte	0x50
 6385 0c97 3A000000 		.4byte	.LVL170
 6386 0c9b 3C000000 		.4byte	.LVL171
 6387 0c9f 0100     		.2byte	0x1
 6388 0ca1 50       		.byte	0x50
 6389 0ca2 00000000 		.4byte	0
 6390 0ca6 00000000 		.4byte	0
 6391              		.section	.debug_aranges,"",%progbits
 6392 0000 94000000 		.4byte	0x94
 6393 0004 0200     		.2byte	0x2
 6394 0006 00000000 		.4byte	.Ldebug_info0
 6395 000a 04       		.byte	0x4
 6396 000b 00       		.byte	0
 6397 000c 0000     		.2byte	0
 6398 000e 0000     		.2byte	0
 6399 0010 00000000 		.4byte	.LFB69
 6400 0014 06000000 		.4byte	.LFE69-.LFB69
 6401 0018 00000000 		.4byte	.LFB70
 6402 001c 04000000 		.4byte	.LFE70-.LFB70
 6403 0020 00000000 		.4byte	.LFB56
 6404 0024 0A000000 		.4byte	.LFE56-.LFB56
 6405 0028 00000000 		.4byte	.LFB57
 6406 002c 28000000 		.4byte	.LFE57-.LFB57
 6407 0030 00000000 		.4byte	.LFB58
 6408 0034 7C000000 		.4byte	.LFE58-.LFB58
 6409 0038 00000000 		.4byte	.LFB59
 6410 003c 10000000 		.4byte	.LFE59-.LFB59
 6411 0040 00000000 		.4byte	.LFB60
 6412 0044 14010000 		.4byte	.LFE60-.LFB60
 6413 0048 00000000 		.4byte	.LFB64
 6414 004c 2C000000 		.4byte	.LFE64-.LFB64
 6415 0050 00000000 		.4byte	.LFB65
 6416 0054 54000000 		.4byte	.LFE65-.LFB65
 6417 0058 00000000 		.4byte	.LFB63
 6418 005c D4000000 		.4byte	.LFE63-.LFB63
 6419 0060 00000000 		.4byte	.LFB66
 6420 0064 0A000000 		.4byte	.LFE66-.LFB66
 6421 0068 00000000 		.4byte	.LFB67
 6422 006c 10000000 		.4byte	.LFE67-.LFB67
 6423 0070 00000000 		.4byte	.LFB71
 6424 0074 24010000 		.4byte	.LFE71-.LFB71
 6425 0078 00000000 		.4byte	.LFB61
 6426 007c 10000000 		.4byte	.LFE61-.LFB61
 6427 0080 00000000 		.4byte	.LFB62
 6428 0084 1C000000 		.4byte	.LFE62-.LFB62
 6429 0088 00000000 		.4byte	.LFB68
 6430 008c 50000000 		.4byte	.LFE68-.LFB68
 6431 0090 00000000 		.4byte	0
 6432 0094 00000000 		.4byte	0
 6433              		.section	.debug_ranges,"",%progbits
ARM GAS  C:\Users\haske\AppData\Local\Temp\ccdHxW38.s 			page 144


 6434              	.Ldebug_ranges0:
 6435 0000 30000000 		.4byte	.LBB14
 6436 0004 4C000000 		.4byte	.LBE14
 6437 0008 6C000000 		.4byte	.LBB15
 6438 000c 6E000000 		.4byte	.LBE15
 6439 0010 00000000 		.4byte	0
 6440 0014 00000000 		.4byte	0
 6441 0018 54000000 		.4byte	.LBB16
 6442 001c EA000000 		.4byte	.LBE16
 6443 0020 00010000 		.4byte	.LBB19
 6444 0024 02010000 		.4byte	.LBE19
 6445 0028 00000000 		.4byte	0
 6446 002c 00000000 		.4byte	0
 6447 0030 7E000000 		.4byte	.LBB17
 6448 0034 E0000000 		.4byte	.LBE17
 6449 0038 00010000 		.4byte	.LBB18
 6450 003c 02010000 		.4byte	.LBE18
 6451 0040 00000000 		.4byte	0
 6452 0044 00000000 		.4byte	0
 6453 0048 10000000 		.4byte	.LBB32
 6454 004c 44000000 		.4byte	.LBE32
 6455 0050 46000000 		.4byte	.LBB35
 6456 0054 50000000 		.4byte	.LBE35
 6457 0058 BE000000 		.4byte	.LBB40
 6458 005c C2000000 		.4byte	.LBE40
 6459 0060 00000000 		.4byte	0
 6460 0064 00000000 		.4byte	0
 6461 0068 10000000 		.4byte	.LBB33
 6462 006c 40000000 		.4byte	.LBE33
 6463 0070 BE000000 		.4byte	.LBB34
 6464 0074 C2000000 		.4byte	.LBE34
 6465 0078 00000000 		.4byte	0
 6466 007c 00000000 		.4byte	0
 6467 0080 5A000000 		.4byte	.LBB36
 6468 0084 96000000 		.4byte	.LBE36
 6469 0088 C2000000 		.4byte	.LBB41
 6470 008c C6000000 		.4byte	.LBE41
 6471 0090 00000000 		.4byte	0
 6472 0094 00000000 		.4byte	0
 6473 0098 64000000 		.4byte	.LBB37
 6474 009c 90000000 		.4byte	.LBE37
 6475 00a0 C2000000 		.4byte	.LBB39
 6476 00a4 C6000000 		.4byte	.LBE39
 6477 00a8 00000000 		.4byte	0
 6478 00ac 00000000 		.4byte	0
 6479 00b0 00000000 		.4byte	.LFB69
 6480 00b4 06000000 		.4byte	.LFE69
 6481 00b8 00000000 		.4byte	.LFB70
 6482 00bc 04000000 		.4byte	.LFE70
 6483 00c0 00000000 		.4byte	.LFB56
 6484 00c4 0A000000 		.4byte	.LFE56
 6485 00c8 00000000 		.4byte	.LFB57
 6486 00cc 28000000 		.4byte	.LFE57
 6487 00d0 00000000 		.4byte	.LFB58
 6488 00d4 7C000000 		.4byte	.LFE58
 6489 00d8 00000000 		.4byte	.LFB59
 6490 00dc 10000000 		.4byte	.LFE59
ARM GAS  C:\Users\haske\AppData\Local\Temp\ccdHxW38.s 			page 145


 6491 00e0 00000000 		.4byte	.LFB60
 6492 00e4 14010000 		.4byte	.LFE60
 6493 00e8 00000000 		.4byte	.LFB64
 6494 00ec 2C000000 		.4byte	.LFE64
 6495 00f0 00000000 		.4byte	.LFB65
 6496 00f4 54000000 		.4byte	.LFE65
 6497 00f8 00000000 		.4byte	.LFB63
 6498 00fc D4000000 		.4byte	.LFE63
 6499 0100 00000000 		.4byte	.LFB66
 6500 0104 0A000000 		.4byte	.LFE66
 6501 0108 00000000 		.4byte	.LFB67
 6502 010c 10000000 		.4byte	.LFE67
 6503 0110 00000000 		.4byte	.LFB71
 6504 0114 24010000 		.4byte	.LFE71
 6505 0118 00000000 		.4byte	.LFB61
 6506 011c 10000000 		.4byte	.LFE61
 6507 0120 00000000 		.4byte	.LFB62
 6508 0124 1C000000 		.4byte	.LFE62
 6509 0128 00000000 		.4byte	.LFB68
 6510 012c 50000000 		.4byte	.LFE68
 6511 0130 00000000 		.4byte	0
 6512 0134 00000000 		.4byte	0
 6513              		.section	.debug_line,"",%progbits
 6514              	.Ldebug_line0:
 6515 0000 70050000 		.section	.debug_str,"MS",%progbits,1
 6515      02000703 
 6515      00000201 
 6515      FB0E0D00 
 6515      01010101 
 6516              	.LASF205:
 6517 0000 70726F70 		.ascii	"prop_cnt\000"
 6517      5F636E74 
 6517      00
 6518              	.LASF15:
 6519 0009 696E7438 		.ascii	"int8_t\000"
 6519      5F7400
 6520              	.LASF168:
 6521 0010 4C565F53 		.ascii	"LV_STYLE_OPA\000"
 6521      54594C45 
 6521      5F4F5041 
 6521      00
 6522              	.LASF21:
 6523 001d 73697A65 		.ascii	"size_t\000"
 6523      5F7400
 6524              	.LASF25:
 6525 0024 6164765F 		.ascii	"adv_w\000"
 6525      7700
 6526              	.LASF43:
 6527 002a 73697A65 		.ascii	"sizetype\000"
 6527      74797065 
 6527      00
 6528              	.LASF152:
 6529 0033 4C565F53 		.ascii	"LV_STYLE_LINE_DASH_GAP\000"
 6529      54594C45 
 6529      5F4C494E 
 6529      455F4441 
 6529      53485F47 
ARM GAS  C:\Users\haske\AppData\Local\Temp\ccdHxW38.s 			page 146


 6530              	.LASF254:
 6531 004a 6C765F6D 		.ascii	"lv_mem_free\000"
 6531      656D5F66 
 6531      72656500 
 6532              	.LASF159:
 6533 0056 4C565F53 		.ascii	"LV_STYLE_ARC_OPA\000"
 6533      54594C45 
 6533      5F415243 
 6533      5F4F5041 
 6533      00
 6534              	.LASF19:
 6535 0067 696E7433 		.ascii	"int32_t\000"
 6535      325F7400 
 6536              	.LASF204:
 6537 006f 6861735F 		.ascii	"has_group\000"
 6537      67726F75 
 6537      7000
 6538              	.LASF33:
 6539 0079 6C696E65 		.ascii	"line_height\000"
 6539      5F686569 
 6539      67687400 
 6540              	.LASF71:
 6541 0085 70617468 		.ascii	"path_cb\000"
 6541      5F636200 
 6542              	.LASF192:
 6543 008d 6C765F73 		.ascii	"lv_style_res_t\000"
 6543      74796C65 
 6543      5F726573 
 6543      5F7400
 6544              	.LASF250:
 6545 009c 6E756C6C 		.ascii	"null_style_value\000"
 6545      5F737479 
 6545      6C655F76 
 6545      616C7565 
 6545      00
 6546              	.LASF88:
 6547 00ad 6C765F61 		.ascii	"lv_anim_get_value_cb_t\000"
 6547      6E696D5F 
 6547      6765745F 
 6547      76616C75 
 6547      655F6362 
 6548              	.LASF103:
 6549 00c4 4C565F53 		.ascii	"LV_STYLE_HEIGHT\000"
 6549      54594C45 
 6549      5F484549 
 6549      47485400 
 6550              	.LASF123:
 6551 00d4 4C565F53 		.ascii	"LV_STYLE_BG_MAIN_STOP\000"
 6551      54594C45 
 6551      5F42475F 
 6551      4D41494E 
 6551      5F53544F 
 6552              	.LASF184:
 6553 00ea 5F4C565F 		.ascii	"_LV_STYLE_LAST_BUILT_IN_PROP\000"
 6553      5354594C 
 6553      455F4C41 
 6553      53545F42 
ARM GAS  C:\Users\haske\AppData\Local\Temp\ccdHxW38.s 			page 147


 6553      55494C54 
 6554              	.LASF134:
 6555 0107 4C565F53 		.ascii	"LV_STYLE_BORDER_WIDTH\000"
 6555      54594C45 
 6555      5F424F52 
 6555      4445525F 
 6555      57494454 
 6556              	.LASF195:
 6557 011d 64656C61 		.ascii	"delay\000"
 6557      7900
 6558              	.LASF116:
 6559 0123 4C565F53 		.ascii	"LV_STYLE_PAD_COLUMN\000"
 6559      54594C45 
 6559      5F504144 
 6559      5F434F4C 
 6559      554D4E00 
 6560              	.LASF209:
 6561 0137 70726F70 		.ascii	"prop_storage\000"
 6561      5F73746F 
 6561      72616765 
 6561      00
 6562              	.LASF126:
 6563 0144 4C565F53 		.ascii	"LV_STYLE_BG_DITHER_MODE\000"
 6563      54594C45 
 6563      5F42475F 
 6563      44495448 
 6563      45525F4D 
 6564              	.LASF1:
 6565 015c 5F5F7569 		.ascii	"__uint8_t\000"
 6565      6E74385F 
 6565      7400
 6566              	.LASF110:
 6567 0166 4C565F53 		.ascii	"LV_STYLE_RADIUS\000"
 6567      54594C45 
 6567      5F524144 
 6567      49555300 
 6568              	.LASF102:
 6569 0176 4C565F53 		.ascii	"LV_STYLE_MAX_WIDTH\000"
 6569      54594C45 
 6569      5F4D4158 
 6569      5F574944 
 6569      544800
 6570              	.LASF83:
 6571 0189 72756E5F 		.ascii	"run_round\000"
 6571      726F756E 
 6571      6400
 6572              	.LASF129:
 6573 0193 4C565F53 		.ascii	"LV_STYLE_BG_IMG_RECOLOR\000"
 6573      54594C45 
 6573      5F42475F 
 6573      494D475F 
 6573      5245434F 
 6574              	.LASF231:
 6575 01ab 6C765F73 		.ascii	"lv_style_get_prop_inlined\000"
 6575      74796C65 
 6575      5F676574 
 6575      5F70726F 
ARM GAS  C:\Users\haske\AppData\Local\Temp\ccdHxW38.s 			page 148


 6575      705F696E 
 6576              	.LASF146:
 6577 01c5 4C565F53 		.ascii	"LV_STYLE_SHADOW_OPA\000"
 6577      54594C45 
 6577      5F534841 
 6577      444F575F 
 6577      4F504100 
 6578              	.LASF177:
 6579 01d9 4C565F53 		.ascii	"LV_STYLE_TRANSFORM_HEIGHT\000"
 6579      54594C45 
 6579      5F545241 
 6579      4E53464F 
 6579      524D5F48 
 6580              	.LASF114:
 6581 01f3 4C565F53 		.ascii	"LV_STYLE_PAD_RIGHT\000"
 6581      54594C45 
 6581      5F504144 
 6581      5F524947 
 6581      485400
 6582              	.LASF243:
 6583 0206 6C765F73 		.ascii	"lv_style_set_prop\000"
 6583      74796C65 
 6583      5F736574 
 6583      5F70726F 
 6583      7000
 6584              	.LASF9:
 6585 0218 6C6F6E67 		.ascii	"long int\000"
 6585      20696E74 
 6585      00
 6586              	.LASF174:
 6587 0221 4C565F53 		.ascii	"LV_STYLE_TRANSITION\000"
 6587      54594C45 
 6587      5F545241 
 6587      4E534954 
 6587      494F4E00 
 6588              	.LASF260:
 6589 0235 6C765F73 		.ascii	"lv_style_get_num_custom_props\000"
 6589      74796C65 
 6589      5F676574 
 6589      5F6E756D 
 6589      5F637573 
 6590              	.LASF246:
 6591 0253 5F6C765F 		.ascii	"_lv_style_prop_lookup_flags\000"
 6591      7374796C 
 6591      655F7072 
 6591      6F705F6C 
 6591      6F6F6B75 
 6592              	.LASF130:
 6593 026f 4C565F53 		.ascii	"LV_STYLE_BG_IMG_RECOLOR_OPA\000"
 6593      54594C45 
 6593      5F42475F 
 6593      494D475F 
 6593      5245434F 
 6594              	.LASF131:
 6595 028b 4C565F53 		.ascii	"LV_STYLE_BG_IMG_TILED\000"
 6595      54594C45 
 6595      5F42475F 
ARM GAS  C:\Users\haske\AppData\Local\Temp\ccdHxW38.s 			page 149


 6595      494D475F 
 6595      54494C45 
 6596              	.LASF133:
 6597 02a1 4C565F53 		.ascii	"LV_STYLE_BORDER_OPA\000"
 6597      54594C45 
 6597      5F424F52 
 6597      4445525F 
 6597      4F504100 
 6598              	.LASF235:
 6599 02b5 6C765F73 		.ascii	"lv_style_get_prop\000"
 6599      74796C65 
 6599      5F676574 
 6599      5F70726F 
 6599      7000
 6600              	.LASF81:
 6601 02c7 6561726C 		.ascii	"early_apply\000"
 6601      795F6170 
 6601      706C7900 
 6602              	.LASF214:
 6603 02d3 6C765F73 		.ascii	"lv_style_init\000"
 6603      74796C65 
 6603      5F696E69 
 6603      7400
 6604              	.LASF145:
 6605 02e1 4C565F53 		.ascii	"LV_STYLE_SHADOW_COLOR\000"
 6605      54594C45 
 6605      5F534841 
 6605      444F575F 
 6605      434F4C4F 
 6606              	.LASF244:
 6607 02f7 6C765F73 		.ascii	"lv_style_set_prop_meta\000"
 6607      74796C65 
 6607      5F736574 
 6607      5F70726F 
 6607      705F6D65 
 6608              	.LASF2:
 6609 030e 7369676E 		.ascii	"signed char\000"
 6609      65642063 
 6609      68617200 
 6610              	.LASF16:
 6611 031a 75696E74 		.ascii	"uint8_t\000"
 6611      385F7400 
 6612              	.LASF223:
 6613 0322 6F6C645F 		.ascii	"old_values\000"
 6613      76616C75 
 6613      657300
 6614              	.LASF94:
 6615 032d 4C565F42 		.ascii	"LV_BORDER_SIDE_RIGHT\000"
 6615      4F524445 
 6615      525F5349 
 6615      44455F52 
 6615      49474854 
 6616              	.LASF122:
 6617 0342 4C565F53 		.ascii	"LV_STYLE_BG_GRAD_DIR\000"
 6617      54594C45 
 6617      5F42475F 
 6617      47524144 
ARM GAS  C:\Users\haske\AppData\Local\Temp\ccdHxW38.s 			page 150


 6617      5F444952 
 6618              	.LASF32:
 6619 0357 6765745F 		.ascii	"get_glyph_bitmap\000"
 6619      676C7970 
 6619      685F6269 
 6619      746D6170 
 6619      00
 6620              	.LASF67:
 6621 0368 73746172 		.ascii	"start_cb\000"
 6621      745F6362 
 6621      00
 6622              	.LASF58:
 6623 0371 626C7565 		.ascii	"blue\000"
 6623      00
 6624              	.LASF249:
 6625 0376 6C617374 		.ascii	"last_custom_prop_id\000"
 6625      5F637573 
 6625      746F6D5F 
 6625      70726F70 
 6625      5F696400 
 6626              	.LASF72:
 6627 038a 73746172 		.ascii	"start_value\000"
 6627      745F7661 
 6627      6C756500 
 6628              	.LASF108:
 6629 0396 4C565F53 		.ascii	"LV_STYLE_ALIGN\000"
 6629      54594C45 
 6629      5F414C49 
 6629      474E00
 6630              	.LASF3:
 6631 03a5 756E7369 		.ascii	"unsigned char\000"
 6631      676E6564 
 6631      20636861 
 6631      7200
 6632              	.LASF258:
 6633 03b3 2E2E5C2E 		.ascii	"..\\..\\..\\arduinoLCD\\test\\Pain Drain\\libraries"
 6633      2E5C2E2E 
 6633      5C617264 
 6633      75696E6F 
 6633      4C43445C 
 6634 03e0 5C6C7667 		.ascii	"\\lvgl\\src\\misc\\lv_style.c\000"
 6634      6C5C7372 
 6634      635C6D69 
 6634      73635C6C 
 6634      765F7374 
 6635              	.LASF182:
 6636 03fa 4C565F53 		.ascii	"LV_STYLE_TRANSFORM_PIVOT_X\000"
 6636      54594C45 
 6636      5F545241 
 6636      4E53464F 
 6636      524D5F50 
 6637              	.LASF183:
 6638 0415 4C565F53 		.ascii	"LV_STYLE_TRANSFORM_PIVOT_Y\000"
 6638      54594C45 
 6638      5F545241 
 6638      4E53464F 
 6638      524D5F50 
ARM GAS  C:\Users\haske\AppData\Local\Temp\ccdHxW38.s 			page 151


 6639              	.LASF148:
 6640 0430 4C565F53 		.ascii	"LV_STYLE_IMG_RECOLOR\000"
 6640      54594C45 
 6640      5F494D47 
 6640      5F524543 
 6640      4F4C4F52 
 6641              	.LASF156:
 6642 0445 4C565F53 		.ascii	"LV_STYLE_ARC_WIDTH\000"
 6642      54594C45 
 6642      5F415243 
 6642      5F574944 
 6642      544800
 6643              	.LASF28:
 6644 0458 6F66735F 		.ascii	"ofs_x\000"
 6644      7800
 6645              	.LASF29:
 6646 045e 6F66735F 		.ascii	"ofs_y\000"
 6646      7900
 6647              	.LASF215:
 6648 0464 6C765F73 		.ascii	"lv_style_reset\000"
 6648      74796C65 
 6648      5F726573 
 6648      657400
 6649              	.LASF218:
 6650 0473 6F6C645F 		.ascii	"old_p\000"
 6650      7000
 6651              	.LASF41:
 6652 0479 5F426F6F 		.ascii	"_Bool\000"
 6652      6C00
 6653              	.LASF178:
 6654 047f 4C565F53 		.ascii	"LV_STYLE_TRANSLATE_X\000"
 6654      54594C45 
 6654      5F545241 
 6654      4E534C41 
 6654      54455F58 
 6655              	.LASF179:
 6656 0494 4C565F53 		.ascii	"LV_STYLE_TRANSLATE_Y\000"
 6656      54594C45 
 6656      5F545241 
 6656      4E534C41 
 6656      54455F59 
 6657              	.LASF257:
 6658 04a9 474E5520 		.ascii	"GNU C11 5.4.1 20160609 (release) [ARM/embedded-5-br"
 6658      43313120 
 6658      352E342E 
 6658      31203230 
 6658      31363036 
 6659 04dc 616E6368 		.ascii	"anch revision 237715] -mcpu=cortex-m0plus -mthumb -"
 6659      20726576 
 6659      6973696F 
 6659      6E203233 
 6659      37373135 
 6660 050f 67202D4F 		.ascii	"g -Og -ffunction-sections -ffat-lto-objects\000"
 6660      67202D66 
 6660      66756E63 
 6660      74696F6E 
 6660      2D736563 
ARM GAS  C:\Users\haske\AppData\Local\Temp\ccdHxW38.s 			page 152


 6661              	.LASF198:
 6662 053b 76616C75 		.ascii	"value\000"
 6662      6500
 6663              	.LASF44:
 6664 0541 63686172 		.ascii	"char\000"
 6664      00
 6665              	.LASF85:
 6666 0546 6C765F61 		.ascii	"lv_anim_exec_xcb_t\000"
 6666      6E696D5F 
 6666      65786563 
 6666      5F786362 
 6666      5F7400
 6667              	.LASF220:
 6668 0559 6C765F73 		.ascii	"lv_style_register_prop\000"
 6668      74796C65 
 6668      5F726567 
 6668      69737465 
 6668      725F7072 
 6669              	.LASF36:
 6670 0570 756E6465 		.ascii	"underline_position\000"
 6670      726C696E 
 6670      655F706F 
 6670      73697469 
 6670      6F6E00
 6671              	.LASF117:
 6672 0583 4C565F53 		.ascii	"LV_STYLE_BASE_DIR\000"
 6672      54594C45 
 6672      5F424153 
 6672      455F4449 
 6672      5200
 6673              	.LASF139:
 6674 0595 4C565F53 		.ascii	"LV_STYLE_OUTLINE_OPA\000"
 6674      54594C45 
 6674      5F4F5554 
 6674      4C494E45 
 6674      5F4F5041 
 6675              	.LASF222:
 6676 05aa 6F6C645F 		.ascii	"old_props\000"
 6676      70726F70 
 6676      7300
 6677              	.LASF217:
 6678 05b4 72657175 		.ascii	"required_size\000"
 6678      69726564 
 6678      5F73697A 
 6678      6500
 6679              	.LASF6:
 6680 05c2 5F5F7569 		.ascii	"__uint16_t\000"
 6680      6E743136 
 6680      5F7400
 6681              	.LASF210:
 6682 05cd 76616C75 		.ascii	"value_storage\000"
 6682      655F7374 
 6682      6F726167 
 6682      6500
 6683              	.LASF119:
 6684 05db 4C565F53 		.ascii	"LV_STYLE_BG_COLOR\000"
 6684      54594C45 
ARM GAS  C:\Users\haske\AppData\Local\Temp\ccdHxW38.s 			page 153


 6684      5F42475F 
 6684      434F4C4F 
 6684      5200
 6685              	.LASF149:
 6686 05ed 4C565F53 		.ascii	"LV_STYLE_IMG_RECOLOR_OPA\000"
 6686      54594C45 
 6686      5F494D47 
 6686      5F524543 
 6686      4F4C4F52 
 6687              	.LASF175:
 6688 0606 4C565F53 		.ascii	"LV_STYLE_BLEND_MODE\000"
 6688      54594C45 
 6688      5F424C45 
 6688      4E445F4D 
 6688      4F444500 
 6689              	.LASF197:
 6690 061a 70726F70 		.ascii	"prop\000"
 6690      00
 6691              	.LASF202:
 6692 061f 636F6E73 		.ascii	"const_props\000"
 6692      745F7072 
 6692      6F707300 
 6693              	.LASF151:
 6694 062b 4C565F53 		.ascii	"LV_STYLE_LINE_DASH_WIDTH\000"
 6694      54594C45 
 6694      5F4C494E 
 6694      455F4441 
 6694      53485F57 
 6695              	.LASF241:
 6696 0644 76616C75 		.ascii	"value_adjustment_helper\000"
 6696      655F6164 
 6696      6A757374 
 6696      6D656E74 
 6696      5F68656C 
 6697              	.LASF68:
 6698 065c 72656164 		.ascii	"ready_cb\000"
 6698      795F6362 
 6698      00
 6699              	.LASF245:
 6700 0665 6D657461 		.ascii	"meta\000"
 6700      00
 6701              	.LASF176:
 6702 066a 4C565F53 		.ascii	"LV_STYLE_TRANSFORM_WIDTH\000"
 6702      54594C45 
 6702      5F545241 
 6702      4E53464F 
 6702      524D5F57 
 6703              	.LASF188:
 6704 0683 6C765F73 		.ascii	"lv_style_prop_t\000"
 6704      74796C65 
 6704      5F70726F 
 6704      705F7400 
 6705              	.LASF194:
 6706 0693 70617468 		.ascii	"path_xcb\000"
 6706      5F786362 
 6706      00
 6707              	.LASF38:
ARM GAS  C:\Users\haske\AppData\Local\Temp\ccdHxW38.s 			page 154


 6708 069c 66616C6C 		.ascii	"fallback\000"
 6708      6261636B 
 6708      00
 6709              	.LASF201:
 6710 06a5 76616C75 		.ascii	"values_and_props\000"
 6710      65735F61 
 6710      6E645F70 
 6710      726F7073 
 6710      00
 6711              	.LASF173:
 6712 06b6 4C565F53 		.ascii	"LV_STYLE_ANIM_SPEED\000"
 6712      54594C45 
 6712      5F414E49 
 6712      4D5F5350 
 6712      45454400 
 6713              	.LASF144:
 6714 06ca 4C565F53 		.ascii	"LV_STYLE_SHADOW_SPREAD\000"
 6714      54594C45 
 6714      5F534841 
 6714      444F575F 
 6714      53505245 
 6715              	.LASF137:
 6716 06e1 4C565F53 		.ascii	"LV_STYLE_OUTLINE_WIDTH\000"
 6716      54594C45 
 6716      5F4F5554 
 6716      4C494E45 
 6716      5F574944 
 6717              	.LASF99:
 6718 06f8 4C565F53 		.ascii	"LV_STYLE_PROP_INV\000"
 6718      54594C45 
 6718      5F50524F 
 6718      505F494E 
 6718      5600
 6719              	.LASF165:
 6720 070a 4C565F53 		.ascii	"LV_STYLE_TEXT_LINE_SPACE\000"
 6720      54594C45 
 6720      5F544558 
 6720      545F4C49 
 6720      4E455F53 
 6721              	.LASF199:
 6722 0723 6C765F73 		.ascii	"lv_style_const_prop_t\000"
 6722      74796C65 
 6722      5F636F6E 
 6722      73745F70 
 6722      726F705F 
 6723              	.LASF86:
 6724 0739 6C765F61 		.ascii	"lv_anim_ready_cb_t\000"
 6724      6E696D5F 
 6724      72656164 
 6724      795F6362 
 6724      5F7400
 6725              	.LASF172:
 6726 074c 4C565F53 		.ascii	"LV_STYLE_ANIM_TIME\000"
 6726      54594C45 
 6726      5F414E49 
 6726      4D5F5449 
 6726      4D4500
ARM GAS  C:\Users\haske\AppData\Local\Temp\ccdHxW38.s 			page 155


 6727              	.LASF77:
 6728 075f 706C6179 		.ascii	"playback_delay\000"
 6728      6261636B 
 6728      5F64656C 
 6728      617900
 6729              	.LASF112:
 6730 076e 4C565F53 		.ascii	"LV_STYLE_PAD_BOTTOM\000"
 6730      54594C45 
 6730      5F504144 
 6730      5F424F54 
 6730      544F4D00 
 6731              	.LASF207:
 6732 0782 6C765F63 		.ascii	"lv_color_white\000"
 6732      6F6C6F72 
 6732      5F776869 
 6732      746500
 6733              	.LASF120:
 6734 0791 4C565F53 		.ascii	"LV_STYLE_BG_OPA\000"
 6734      54594C45 
 6734      5F42475F 
 6734      4F504100 
 6735              	.LASF155:
 6736 07a1 4C565F53 		.ascii	"LV_STYLE_LINE_OPA\000"
 6736      54594C45 
 6736      5F4C494E 
 6736      455F4F50 
 6736      4100
 6737              	.LASF206:
 6738 07b3 6C765F73 		.ascii	"lv_style_t\000"
 6738      74796C65 
 6738      5F7400
 6739              	.LASF147:
 6740 07be 4C565F53 		.ascii	"LV_STYLE_IMG_OPA\000"
 6740      54594C45 
 6740      5F494D47 
 6740      5F4F5041 
 6740      00
 6741              	.LASF180:
 6742 07cf 4C565F53 		.ascii	"LV_STYLE_TRANSFORM_ZOOM\000"
 6742      54594C45 
 6742      5F545241 
 6742      4E53464F 
 6742      524D5F5A 
 6743              	.LASF11:
 6744 07e7 6C6F6E67 		.ascii	"long unsigned int\000"
 6744      20756E73 
 6744      69676E65 
 6744      6420696E 
 6744      7400
 6745              	.LASF93:
 6746 07f9 4C565F42 		.ascii	"LV_BORDER_SIDE_LEFT\000"
 6746      4F524445 
 6746      525F5349 
 6746      44455F4C 
 6746      45465400 
 6747              	.LASF162:
 6748 080d 4C565F53 		.ascii	"LV_STYLE_TEXT_OPA\000"
ARM GAS  C:\Users\haske\AppData\Local\Temp\ccdHxW38.s 			page 156


 6748      54594C45 
 6748      5F544558 
 6748      545F4F50 
 6748      4100
 6749              	.LASF190:
 6750 081f 4C565F53 		.ascii	"LV_STYLE_RES_FOUND\000"
 6750      54594C45 
 6750      5F524553 
 6750      5F464F55 
 6750      4E4400
 6751              	.LASF24:
 6752 0832 7265736F 		.ascii	"resolved_font\000"
 6752      6C766564 
 6752      5F666F6E 
 6752      7400
 6753              	.LASF154:
 6754 0840 4C565F53 		.ascii	"LV_STYLE_LINE_COLOR\000"
 6754      54594C45 
 6754      5F4C494E 
 6754      455F434F 
 6754      4C4F5200 
 6755              	.LASF46:
 6756 0854 4C565F4F 		.ascii	"LV_OPA_0\000"
 6756      50415F30 
 6756      00
 6757              	.LASF115:
 6758 085d 4C565F53 		.ascii	"LV_STYLE_PAD_ROW\000"
 6758      54594C45 
 6758      5F504144 
 6758      5F524F57 
 6758      00
 6759              	.LASF84:
 6760 086e 73746172 		.ascii	"start_cb_called\000"
 6760      745F6362 
 6760      5F63616C 
 6760      6C656400 
 6761              	.LASF113:
 6762 087e 4C565F53 		.ascii	"LV_STYLE_PAD_LEFT\000"
 6762      54594C45 
 6762      5F504144 
 6762      5F4C4546 
 6762      5400
 6763              	.LASF143:
 6764 0890 4C565F53 		.ascii	"LV_STYLE_SHADOW_OFS_Y\000"
 6764      54594C45 
 6764      5F534841 
 6764      444F575F 
 6764      4F46535F 
 6765              	.LASF238:
 6766 08a6 67726F75 		.ascii	"group\000"
 6766      7000
 6767              	.LASF171:
 6768 08ac 4C565F53 		.ascii	"LV_STYLE_ANIM\000"
 6768      54594C45 
 6768      5F414E49 
 6768      4D00
 6769              	.LASF239:
ARM GAS  C:\Users\haske\AppData\Local\Temp\ccdHxW38.s 			page 157


 6770 08ba 6C765F73 		.ascii	"lv_style_set_prop_internal\000"
 6770      74796C65 
 6770      5F736574 
 6770      5F70726F 
 6770      705F696E 
 6771              	.LASF233:
 6772 08d5 70726F70 		.ascii	"prop_id\000"
 6772      5F696400 
 6773              	.LASF167:
 6774 08dd 4C565F53 		.ascii	"LV_STYLE_TEXT_ALIGN\000"
 6774      54594C45 
 6774      5F544558 
 6774      545F414C 
 6774      49474E00 
 6775              	.LASF91:
 6776 08f1 4C565F42 		.ascii	"LV_BORDER_SIDE_BOTTOM\000"
 6776      4F524445 
 6776      525F5349 
 6776      44455F42 
 6776      4F54544F 
 6777              	.LASF64:
 6778 0907 5F6C765F 		.ascii	"_lv_font_t\000"
 6778      666F6E74 
 6778      5F7400
 6779              	.LASF10:
 6780 0912 5F5F7569 		.ascii	"__uint32_t\000"
 6780      6E743332 
 6780      5F7400
 6781              	.LASF12:
 6782 091d 6C6F6E67 		.ascii	"long long int\000"
 6782      206C6F6E 
 6782      6720696E 
 6782      7400
 6783              	.LASF208:
 6784 092b 6C765F63 		.ascii	"lv_color_black\000"
 6784      6F6C6F72 
 6784      5F626C61 
 6784      636B00
 6785              	.LASF248:
 6786 093a 5F6C765F 		.ascii	"_lv_style_custom_prop_flag_lookup_table_size\000"
 6786      7374796C 
 6786      655F6375 
 6786      73746F6D 
 6786      5F70726F 
 6787              	.LASF247:
 6788 0967 5F6C765F 		.ascii	"_lv_style_builtin_prop_flag_lookup_table\000"
 6788      7374796C 
 6788      655F6275 
 6788      696C7469 
 6788      6E5F7072 
 6789              	.LASF181:
 6790 0990 4C565F53 		.ascii	"LV_STYLE_TRANSFORM_ANGLE\000"
 6790      54594C45 
 6790      5F545241 
 6790      4E53464F 
 6790      524D5F41 
 6791              	.LASF191:
ARM GAS  C:\Users\haske\AppData\Local\Temp\ccdHxW38.s 			page 158


 6792 09a9 4C565F53 		.ascii	"LV_STYLE_RES_INHERIT\000"
 6792      54594C45 
 6792      5F524553 
 6792      5F494E48 
 6792      45524954 
 6793              	.LASF169:
 6794 09be 4C565F53 		.ascii	"LV_STYLE_COLOR_FILTER_DSC\000"
 6794      54594C45 
 6794      5F434F4C 
 6794      4F525F46 
 6794      494C5445 
 6795              	.LASF37:
 6796 09d8 756E6465 		.ascii	"underline_thickness\000"
 6796      726C696E 
 6796      655F7468 
 6796      69636B6E 
 6796      65737300 
 6797              	.LASF166:
 6798 09ec 4C565F53 		.ascii	"LV_STYLE_TEXT_DECOR\000"
 6798      54594C45 
 6798      5F544558 
 6798      545F4445 
 6798      434F5200 
 6799              	.LASF45:
 6800 0a00 4C565F4F 		.ascii	"LV_OPA_TRANSP\000"
 6800      50415F54 
 6800      52414E53 
 6800      5000
 6801              	.LASF157:
 6802 0a0e 4C565F53 		.ascii	"LV_STYLE_ARC_ROUNDED\000"
 6802      54594C45 
 6802      5F415243 
 6802      5F524F55 
 6802      4E444544 
 6803              	.LASF161:
 6804 0a23 4C565F53 		.ascii	"LV_STYLE_TEXT_COLOR\000"
 6804      54594C45 
 6804      5F544558 
 6804      545F434F 
 6804      4C4F5200 
 6805              	.LASF73:
 6806 0a37 63757272 		.ascii	"current_value\000"
 6806      656E745F 
 6806      76616C75 
 6806      6500
 6807              	.LASF14:
 6808 0a45 756E7369 		.ascii	"unsigned int\000"
 6808      676E6564 
 6808      20696E74 
 6808      00
 6809              	.LASF63:
 6810 0a52 6C765F61 		.ascii	"lv_anim_path_cb_t\000"
 6810      6E696D5F 
 6810      70617468 
 6810      5F63625F 
 6810      7400
 6811              	.LASF89:
ARM GAS  C:\Users\haske\AppData\Local\Temp\ccdHxW38.s 			page 159


 6812 0a64 6C765F61 		.ascii	"lv_anim_deleted_cb_t\000"
 6812      6E696D5F 
 6812      64656C65 
 6812      7465645F 
 6812      63625F74 
 6813              	.LASF98:
 6814 0a79 6C765F73 		.ascii	"lv_style_value_t\000"
 6814      74796C65 
 6814      5F76616C 
 6814      75655F74 
 6814      00
 6815              	.LASF227:
 6816 0a8a 6E65775F 		.ascii	"new_values\000"
 6816      76616C75 
 6816      657300
 6817              	.LASF187:
 6818 0a95 5F4C565F 		.ascii	"_LV_STYLE_PROP_CONST\000"
 6818      5354594C 
 6818      455F5052 
 6818      4F505F43 
 6818      4F4E5354 
 6819              	.LASF216:
 6820 0aaa 666C6167 		.ascii	"flag\000"
 6820      00
 6821              	.LASF109:
 6822 0aaf 4C565F53 		.ascii	"LV_STYLE_LAYOUT\000"
 6822      54594C45 
 6822      5F4C4159 
 6822      4F555400 
 6823              	.LASF236:
 6824 0abf 6C765F73 		.ascii	"lv_style_is_empty\000"
 6824      74796C65 
 6824      5F69735F 
 6824      656D7074 
 6824      7900
 6825              	.LASF40:
 6826 0ad1 6C765F66 		.ascii	"lv_font_glyph_dsc_t\000"
 6826      6F6E745F 
 6826      676C7970 
 6826      685F6473 
 6826      635F7400 
 6827              	.LASF141:
 6828 0ae5 4C565F53 		.ascii	"LV_STYLE_SHADOW_WIDTH\000"
 6828      54594C45 
 6828      5F534841 
 6828      444F575F 
 6828      57494454 
 6829              	.LASF118:
 6830 0afb 4C565F53 		.ascii	"LV_STYLE_CLIP_CORNER\000"
 6830      54594C45 
 6830      5F434C49 
 6830      505F434F 
 6830      524E4552 
 6831              	.LASF56:
 6832 0b10 4C565F4F 		.ascii	"LV_OPA_100\000"
 6832      50415F31 
 6832      303000
ARM GAS  C:\Users\haske\AppData\Local\Temp\ccdHxW38.s 			page 160


 6833              	.LASF79:
 6834 0b1b 72657065 		.ascii	"repeat_delay\000"
 6834      61745F64 
 6834      656C6179 
 6834      00
 6835              	.LASF70:
 6836 0b28 6765745F 		.ascii	"get_value_cb\000"
 6836      76616C75 
 6836      655F6362 
 6836      00
 6837              	.LASF196:
 6838 0b35 6C765F73 		.ascii	"lv_style_transition_dsc_t\000"
 6838      74796C65 
 6838      5F747261 
 6838      6E736974 
 6838      696F6E5F 
 6839              	.LASF170:
 6840 0b4f 4C565F53 		.ascii	"LV_STYLE_COLOR_FILTER_OPA\000"
 6840      54594C45 
 6840      5F434F4C 
 6840      4F525F46 
 6840      494C5445 
 6841              	.LASF22:
 6842 0b69 6C6F6E67 		.ascii	"long double\000"
 6842      20646F75 
 6842      626C6500 
 6843              	.LASF225:
 6844 0b75 6E65775F 		.ascii	"new_values_and_props\000"
 6844      76616C75 
 6844      65735F61 
 6844      6E645F70 
 6844      726F7073 
 6845              	.LASF237:
 6846 0b8a 5F6C765F 		.ascii	"_lv_style_get_prop_group\000"
 6846      7374796C 
 6846      655F6765 
 6846      745F7072 
 6846      6F705F67 
 6847              	.LASF213:
 6848 0ba3 7374796C 		.ascii	"style\000"
 6848      6500
 6849              	.LASF189:
 6850 0ba9 4C565F53 		.ascii	"LV_STYLE_RES_NOT_FOUND\000"
 6850      54594C45 
 6850      5F524553 
 6850      5F4E4F54 
 6850      5F464F55 
 6851              	.LASF228:
 6852 0bc0 6C765F73 		.ascii	"lv_style_transition_dsc_init\000"
 6852      74796C65 
 6852      5F747261 
 6852      6E736974 
 6852      696F6E5F 
 6853              	.LASF35:
 6854 0bdd 73756270 		.ascii	"subpx\000"
 6854      7800
 6855              	.LASF57:
ARM GAS  C:\Users\haske\AppData\Local\Temp\ccdHxW38.s 			page 161


 6856 0be3 4C565F4F 		.ascii	"LV_OPA_COVER\000"
 6856      50415F43 
 6856      4F564552 
 6856      00
 6857              	.LASF80:
 6858 0bf0 72657065 		.ascii	"repeat_cnt\000"
 6858      61745F63 
 6858      6E7400
 6859              	.LASF212:
 6860 0bfb 6C765F73 		.ascii	"lv_style_set_prop_meta_helper\000"
 6860      74796C65 
 6860      5F736574 
 6860      5F70726F 
 6860      705F6D65 
 6861              	.LASF132:
 6862 0c19 4C565F53 		.ascii	"LV_STYLE_BORDER_COLOR\000"
 6862      54594C45 
 6862      5F424F52 
 6862      4445525F 
 6862      434F4C4F 
 6863              	.LASF0:
 6864 0c2f 5F5F696E 		.ascii	"__int8_t\000"
 6864      74385F74 
 6864      00
 6865              	.LASF224:
 6866 0c38 73697A65 		.ascii	"size\000"
 6866      00
 6867              	.LASF13:
 6868 0c3d 6C6F6E67 		.ascii	"long long unsigned int\000"
 6868      206C6F6E 
 6868      6720756E 
 6868      7369676E 
 6868      65642069 
 6869              	.LASF124:
 6870 0c54 4C565F53 		.ascii	"LV_STYLE_BG_GRAD_STOP\000"
 6870      54594C45 
 6870      5F42475F 
 6870      47524144 
 6870      5F53544F 
 6871              	.LASF135:
 6872 0c6a 4C565F53 		.ascii	"LV_STYLE_BORDER_SIDE\000"
 6872      54594C45 
 6872      5F424F52 
 6872      4445525F 
 6872      53494445 
 6873              	.LASF18:
 6874 0c7f 75696E74 		.ascii	"uint16_t\000"
 6874      31365F74 
 6874      00
 6875              	.LASF90:
 6876 0c88 4C565F42 		.ascii	"LV_BORDER_SIDE_NONE\000"
 6876      4F524445 
 6876      525F5349 
 6876      44455F4E 
 6876      4F4E4500 
 6877              	.LASF74:
 6878 0c9c 656E645F 		.ascii	"end_value\000"
ARM GAS  C:\Users\haske\AppData\Local\Temp\ccdHxW38.s 			page 162


 6878      76616C75 
 6878      6500
 6879              	.LASF62:
 6880 0ca6 6C765F63 		.ascii	"lv_color_t\000"
 6880      6F6C6F72 
 6880      5F7400
 6881              	.LASF219:
 6882 0cb1 6E65775F 		.ascii	"new_p\000"
 6882      7000
 6883              	.LASF100:
 6884 0cb7 4C565F53 		.ascii	"LV_STYLE_WIDTH\000"
 6884      54594C45 
 6884      5F574944 
 6884      544800
 6885              	.LASF101:
 6886 0cc6 4C565F53 		.ascii	"LV_STYLE_MIN_WIDTH\000"
 6886      54594C45 
 6886      5F4D494E 
 6886      5F574944 
 6886      544800
 6887              	.LASF253:
 6888 0cd9 6C765F6D 		.ascii	"lv_memset_00\000"
 6888      656D7365 
 6888      745F3030 
 6888      00
 6889              	.LASF142:
 6890 0ce6 4C565F53 		.ascii	"LV_STYLE_SHADOW_OFS_X\000"
 6890      54594C45 
 6890      5F534841 
 6890      444F575F 
 6890      4F46535F 
 6891              	.LASF66:
 6892 0cfc 65786563 		.ascii	"exec_cb\000"
 6892      5F636200 
 6893              	.LASF47:
 6894 0d04 4C565F4F 		.ascii	"LV_OPA_10\000"
 6894      50415F31 
 6894      3000
 6895              	.LASF127:
 6896 0d0e 4C565F53 		.ascii	"LV_STYLE_BG_IMG_SRC\000"
 6896      54594C45 
 6896      5F42475F 
 6896      494D475F 
 6896      53524300 
 6897              	.LASF221:
 6898 0d22 6C765F73 		.ascii	"lv_style_remove_prop\000"
 6898      74796C65 
 6898      5F72656D 
 6898      6F76655F 
 6898      70726F70 
 6899              	.LASF78:
 6900 0d37 706C6179 		.ascii	"playback_time\000"
 6900      6261636B 
 6900      5F74696D 
 6900      6500
 6901              	.LASF160:
 6902 0d45 4C565F53 		.ascii	"LV_STYLE_ARC_IMG_SRC\000"
ARM GAS  C:\Users\haske\AppData\Local\Temp\ccdHxW38.s 			page 163


 6902      54594C45 
 6902      5F415243 
 6902      5F494D47 
 6902      5F535243 
 6903              	.LASF200:
 6904 0d5a 76616C75 		.ascii	"value1\000"
 6904      653100
 6905              	.LASF230:
 6906 0d61 6C765F63 		.ascii	"lv_color_make\000"
 6906      6F6C6F72 
 6906      5F6D616B 
 6906      6500
 6907              	.LASF4:
 6908 0d6f 5F5F696E 		.ascii	"__int16_t\000"
 6908      7431365F 
 6908      7400
 6909              	.LASF163:
 6910 0d79 4C565F53 		.ascii	"LV_STYLE_TEXT_FONT\000"
 6910      54594C45 
 6910      5F544558 
 6910      545F464F 
 6910      4E5400
 6911              	.LASF186:
 6912 0d8c 4C565F53 		.ascii	"LV_STYLE_PROP_ANY\000"
 6912      54594C45 
 6912      5F50524F 
 6912      505F414E 
 6912      5900
 6913              	.LASF256:
 6914 0d9e 6C765F6D 		.ascii	"lv_mem_alloc\000"
 6914      656D5F61 
 6914      6C6C6F63 
 6914      00
 6915              	.LASF60:
 6916 0dab 66756C6C 		.ascii	"full\000"
 6916      00
 6917              	.LASF48:
 6918 0db0 4C565F4F 		.ascii	"LV_OPA_20\000"
 6918      50415F32 
 6918      3000
 6919              	.LASF97:
 6920 0dba 636F6C6F 		.ascii	"color\000"
 6920      7200
 6921              	.LASF75:
 6922 0dc0 74696D65 		.ascii	"time\000"
 6922      00
 6923              	.LASF234:
 6924 0dc5 76616C75 		.ascii	"values\000"
 6924      657300
 6925              	.LASF240:
 6926 0dcc 70726F70 		.ascii	"prop_and_meta\000"
 6926      5F616E64 
 6926      5F6D6574 
 6926      6100
 6927              	.LASF105:
 6928 0dda 4C565F53 		.ascii	"LV_STYLE_MAX_HEIGHT\000"
 6928      54594C45 
ARM GAS  C:\Users\haske\AppData\Local\Temp\ccdHxW38.s 			page 164


 6928      5F4D4158 
 6928      5F484549 
 6928      47485400 
 6929              	.LASF49:
 6930 0dee 4C565F4F 		.ascii	"LV_OPA_30\000"
 6930      50415F33 
 6930      3000
 6931              	.LASF229:
 6932 0df8 6C765F73 		.ascii	"lv_style_prop_get_default\000"
 6932      74796C65 
 6932      5F70726F 
 6932      705F6765 
 6932      745F6465 
 6933              	.LASF95:
 6934 0e12 4C565F42 		.ascii	"LV_BORDER_SIDE_FULL\000"
 6934      4F524445 
 6934      525F5349 
 6934      44455F46 
 6934      554C4C00 
 6935              	.LASF27:
 6936 0e26 626F785F 		.ascii	"box_h\000"
 6936      6800
 6937              	.LASF87:
 6938 0e2c 6C765F61 		.ascii	"lv_anim_start_cb_t\000"
 6938      6E696D5F 
 6938      73746172 
 6938      745F6362 
 6938      5F7400
 6939              	.LASF61:
 6940 0e3f 6C765F63 		.ascii	"lv_color16_t\000"
 6940      6F6C6F72 
 6940      31365F74 
 6940      00
 6941              	.LASF26:
 6942 0e4c 626F785F 		.ascii	"box_w\000"
 6942      7700
 6943              	.LASF5:
 6944 0e52 73686F72 		.ascii	"short int\000"
 6944      7420696E 
 6944      7400
 6945              	.LASF34:
 6946 0e5c 62617365 		.ascii	"base_line\000"
 6946      5F6C696E 
 6946      6500
 6947              	.LASF251:
 6948 0e66 6C765F66 		.ascii	"lv_font_montserrat_14\000"
 6948      6F6E745F 
 6948      6D6F6E74 
 6948      73657272 
 6948      61745F31 
 6949              	.LASF252:
 6950 0e7c 5F6C765F 		.ascii	"_lv_style_custom_prop_flag_lookup_table\000"
 6950      7374796C 
 6950      655F6375 
 6950      73746F6D 
 6950      5F70726F 
 6951              	.LASF158:
ARM GAS  C:\Users\haske\AppData\Local\Temp\ccdHxW38.s 			page 165


 6952 0ea4 4C565F53 		.ascii	"LV_STYLE_ARC_COLOR\000"
 6952      54594C45 
 6952      5F415243 
 6952      5F434F4C 
 6952      4F5200
 6953              	.LASF50:
 6954 0eb7 4C565F4F 		.ascii	"LV_OPA_40\000"
 6954      50415F34 
 6954      3000
 6955              	.LASF17:
 6956 0ec1 696E7431 		.ascii	"int16_t\000"
 6956      365F7400 
 6957              	.LASF92:
 6958 0ec9 4C565F42 		.ascii	"LV_BORDER_SIDE_TOP\000"
 6958      4F524445 
 6958      525F5349 
 6958      44455F54 
 6958      4F5000
 6959              	.LASF185:
 6960 0edc 5F4C565F 		.ascii	"_LV_STYLE_NUM_BUILT_IN_PROPS\000"
 6960      5354594C 
 6960      455F4E55 
 6960      4D5F4255 
 6960      494C545F 
 6961              	.LASF111:
 6962 0ef9 4C565F53 		.ascii	"LV_STYLE_PAD_TOP\000"
 6962      54594C45 
 6962      5F504144 
 6962      5F544F50 
 6962      00
 6963              	.LASF128:
 6964 0f0a 4C565F53 		.ascii	"LV_STYLE_BG_IMG_OPA\000"
 6964      54594C45 
 6964      5F42475F 
 6964      494D475F 
 6964      4F504100 
 6965              	.LASF150:
 6966 0f1e 4C565F53 		.ascii	"LV_STYLE_LINE_WIDTH\000"
 6966      54594C45 
 6966      5F4C494E 
 6966      455F5749 
 6966      44544800 
 6967              	.LASF51:
 6968 0f32 4C565F4F 		.ascii	"LV_OPA_50\000"
 6968      50415F35 
 6968      3000
 6969              	.LASF242:
 6970 0f3c 76616C75 		.ascii	"value_tmp\000"
 6970      655F746D 
 6970      7000
 6971              	.LASF232:
 6972 0f46 636F6E73 		.ascii	"const_prop\000"
 6972      745F7072 
 6972      6F7000
 6973              	.LASF259:
 6974 0f51 433A5C50 		.ascii	"C:\\Projects\\PainDrain\\firmware\\PainDrain\\PainD"
 6974      726F6A65 
ARM GAS  C:\Users\haske\AppData\Local\Temp\ccdHxW38.s 			page 166


 6974      6374735C 
 6974      5061696E 
 6974      44726169 
 6975 0f7f 7261696E 		.ascii	"rain.cydsn\000"
 6975      2E637964 
 6975      736E00
 6976              	.LASF203:
 6977 0f8a 70726F70 		.ascii	"prop1\000"
 6977      3100
 6978              	.LASF76:
 6979 0f90 6163745F 		.ascii	"act_time\000"
 6979      74696D65 
 6979      00
 6980              	.LASF226:
 6981 0f99 6E65775F 		.ascii	"new_props\000"
 6981      70726F70 
 6981      7300
 6982              	.LASF104:
 6983 0fa3 4C565F53 		.ascii	"LV_STYLE_MIN_HEIGHT\000"
 6983      54594C45 
 6983      5F4D494E 
 6983      5F484549 
 6983      47485400 
 6984              	.LASF136:
 6985 0fb7 4C565F53 		.ascii	"LV_STYLE_BORDER_POST\000"
 6985      54594C45 
 6985      5F424F52 
 6985      4445525F 
 6985      504F5354 
 6986              	.LASF106:
 6987 0fcc 4C565F53 		.ascii	"LV_STYLE_X\000"
 6987      54594C45 
 6987      5F5800
 6988              	.LASF107:
 6989 0fd7 4C565F53 		.ascii	"LV_STYLE_Y\000"
 6989      54594C45 
 6989      5F5900
 6990              	.LASF153:
 6991 0fe2 4C565F53 		.ascii	"LV_STYLE_LINE_ROUNDED\000"
 6991      54594C45 
 6991      5F4C494E 
 6991      455F524F 
 6991      554E4445 
 6992              	.LASF255:
 6993 0ff8 6C765F6D 		.ascii	"lv_mem_realloc\000"
 6993      656D5F72 
 6993      65616C6C 
 6993      6F6300
 6994              	.LASF52:
 6995 1007 4C565F4F 		.ascii	"LV_OPA_60\000"
 6995      50415F36 
 6995      3000
 6996              	.LASF20:
 6997 1011 75696E74 		.ascii	"uint32_t\000"
 6997      33325F74 
 6997      00
 6998              	.LASF193:
ARM GAS  C:\Users\haske\AppData\Local\Temp\ccdHxW38.s 			page 167


 6999 101a 70726F70 		.ascii	"props\000"
 6999      7300
 7000              	.LASF121:
 7001 1020 4C565F53 		.ascii	"LV_STYLE_BG_GRAD_COLOR\000"
 7001      54594C45 
 7001      5F42475F 
 7001      47524144 
 7001      5F434F4C 
 7002              	.LASF96:
 7003 1037 4C565F42 		.ascii	"LV_BORDER_SIDE_INTERNAL\000"
 7003      4F524445 
 7003      525F5349 
 7003      44455F49 
 7003      4E544552 
 7004              	.LASF59:
 7005 104f 67726565 		.ascii	"green\000"
 7005      6E00
 7006              	.LASF42:
 7007 1055 6C765F66 		.ascii	"lv_font_t\000"
 7007      6F6E745F 
 7007      7400
 7008              	.LASF53:
 7009 105f 4C565F4F 		.ascii	"LV_OPA_70\000"
 7009      50415F37 
 7009      3000
 7010              	.LASF211:
 7011 1069 6C765F73 		.ascii	"lv_style_set_prop_helper\000"
 7011      74796C65 
 7011      5F736574 
 7011      5F70726F 
 7011      705F6865 
 7012              	.LASF7:
 7013 1082 73686F72 		.ascii	"short unsigned int\000"
 7013      7420756E 
 7013      7369676E 
 7013      65642069 
 7013      6E7400
 7014              	.LASF23:
 7015 1095 6C765F63 		.ascii	"lv_coord_t\000"
 7015      6F6F7264 
 7015      5F7400
 7016              	.LASF138:
 7017 10a0 4C565F53 		.ascii	"LV_STYLE_OUTLINE_COLOR\000"
 7017      54594C45 
 7017      5F4F5554 
 7017      4C494E45 
 7017      5F434F4C 
 7018              	.LASF39:
 7019 10b7 75736572 		.ascii	"user_data\000"
 7019      5F646174 
 7019      6100
 7020              	.LASF82:
 7021 10c1 706C6179 		.ascii	"playback_now\000"
 7021      6261636B 
 7021      5F6E6F77 
 7021      00
 7022              	.LASF31:
ARM GAS  C:\Users\haske\AppData\Local\Temp\ccdHxW38.s 			page 168


 7023 10ce 6765745F 		.ascii	"get_glyph_dsc\000"
 7023      676C7970 
 7023      685F6473 
 7023      6300
 7024              	.LASF8:
 7025 10dc 5F5F696E 		.ascii	"__int32_t\000"
 7025      7433325F 
 7025      7400
 7026              	.LASF69:
 7027 10e6 64656C65 		.ascii	"deleted_cb\000"
 7027      7465645F 
 7027      636200
 7028              	.LASF54:
 7029 10f1 4C565F4F 		.ascii	"LV_OPA_80\000"
 7029      50415F38 
 7029      3000
 7030              	.LASF65:
 7031 10fb 5F6C765F 		.ascii	"_lv_anim_t\000"
 7031      616E696D 
 7031      5F7400
 7032              	.LASF125:
 7033 1106 4C565F53 		.ascii	"LV_STYLE_BG_GRAD\000"
 7033      54594C45 
 7033      5F42475F 
 7033      47524144 
 7033      00
 7034              	.LASF30:
 7035 1117 69735F70 		.ascii	"is_placeholder\000"
 7035      6C616365 
 7035      686F6C64 
 7035      657200
 7036              	.LASF140:
 7037 1126 4C565F53 		.ascii	"LV_STYLE_OUTLINE_PAD\000"
 7037      54594C45 
 7037      5F4F5554 
 7037      4C494E45 
 7037      5F504144 
 7038              	.LASF55:
 7039 113b 4C565F4F 		.ascii	"LV_OPA_90\000"
 7039      50415F39 
 7039      3000
 7040              	.LASF164:
 7041 1145 4C565F53 		.ascii	"LV_STYLE_TEXT_LETTER_SPACE\000"
 7041      54594C45 
 7041      5F544558 
 7041      545F4C45 
 7041      54544552 
 7042              		.ident	"GCC: (GNU Tools for ARM Embedded Processors) 5.4.1 20160609 (release) [ARM/embedded-5-bran
