ARM GAS  C:\Users\haske\AppData\Local\Temp\ccEbAwQn.s 			page 1


   1              		.syntax unified
   2              		.cpu cortex-m0plus
   3              		.fpu softvfp
   4              		.eabi_attribute 20, 1
   5              		.eabi_attribute 21, 1
   6              		.eabi_attribute 23, 3
   7              		.eabi_attribute 24, 1
   8              		.eabi_attribute 25, 1
   9              		.eabi_attribute 26, 1
  10              		.eabi_attribute 30, 1
  11              		.eabi_attribute 34, 0
  12              		.eabi_attribute 18, 4
  13              		.thumb
  14              		.syntax unified
  15              		.file	"lv_spinbox.c"
  16              		.text
  17              	.Ltext0:
  18              		.cfi_sections	.debug_frame
  19              		.global	__aeabi_idiv
  20              		.section	.text.lv_spinbox_updatevalue,"ax",%progbits
  21              		.align	2
  22              		.code	16
  23              		.thumb_func
  24              		.type	lv_spinbox_updatevalue, %function
  25              	lv_spinbox_updatevalue:
  26              	.LFB219:
  27              		.file 1 "..\\..\\..\\arduinoLCD\\test\\Pain Drain\\libraries\\lvgl\\src\\extra\\widgets\\spinbox\\
   1:..\..\..\arduinoLCD\test\Pain Drain\libraries\lvgl\src\extra\widgets\spinbox/lv_spinbox.c **** /**
   2:..\..\..\arduinoLCD\test\Pain Drain\libraries\lvgl\src\extra\widgets\spinbox/lv_spinbox.c ****  * @file lv_spinbox.c
   3:..\..\..\arduinoLCD\test\Pain Drain\libraries\lvgl\src\extra\widgets\spinbox/lv_spinbox.c ****  *
   4:..\..\..\arduinoLCD\test\Pain Drain\libraries\lvgl\src\extra\widgets\spinbox/lv_spinbox.c ****  */
   5:..\..\..\arduinoLCD\test\Pain Drain\libraries\lvgl\src\extra\widgets\spinbox/lv_spinbox.c **** 
   6:..\..\..\arduinoLCD\test\Pain Drain\libraries\lvgl\src\extra\widgets\spinbox/lv_spinbox.c **** /*********************
   7:..\..\..\arduinoLCD\test\Pain Drain\libraries\lvgl\src\extra\widgets\spinbox/lv_spinbox.c ****  *      INCLUDES
   8:..\..\..\arduinoLCD\test\Pain Drain\libraries\lvgl\src\extra\widgets\spinbox/lv_spinbox.c ****  *********************/
   9:..\..\..\arduinoLCD\test\Pain Drain\libraries\lvgl\src\extra\widgets\spinbox/lv_spinbox.c **** #include "lv_spinbox.h"
  10:..\..\..\arduinoLCD\test\Pain Drain\libraries\lvgl\src\extra\widgets\spinbox/lv_spinbox.c **** #if LV_USE_SPINBOX
  11:..\..\..\arduinoLCD\test\Pain Drain\libraries\lvgl\src\extra\widgets\spinbox/lv_spinbox.c **** 
  12:..\..\..\arduinoLCD\test\Pain Drain\libraries\lvgl\src\extra\widgets\spinbox/lv_spinbox.c **** #include "../../../misc/lv_assert.h"
  13:..\..\..\arduinoLCD\test\Pain Drain\libraries\lvgl\src\extra\widgets\spinbox/lv_spinbox.c **** 
  14:..\..\..\arduinoLCD\test\Pain Drain\libraries\lvgl\src\extra\widgets\spinbox/lv_spinbox.c **** /*********************
  15:..\..\..\arduinoLCD\test\Pain Drain\libraries\lvgl\src\extra\widgets\spinbox/lv_spinbox.c ****  *      DEFINES
  16:..\..\..\arduinoLCD\test\Pain Drain\libraries\lvgl\src\extra\widgets\spinbox/lv_spinbox.c ****  *********************/
  17:..\..\..\arduinoLCD\test\Pain Drain\libraries\lvgl\src\extra\widgets\spinbox/lv_spinbox.c **** #define MY_CLASS    &lv_spinbox_class
  18:..\..\..\arduinoLCD\test\Pain Drain\libraries\lvgl\src\extra\widgets\spinbox/lv_spinbox.c **** 
  19:..\..\..\arduinoLCD\test\Pain Drain\libraries\lvgl\src\extra\widgets\spinbox/lv_spinbox.c **** /**********************
  20:..\..\..\arduinoLCD\test\Pain Drain\libraries\lvgl\src\extra\widgets\spinbox/lv_spinbox.c ****  *      TYPEDEFS
  21:..\..\..\arduinoLCD\test\Pain Drain\libraries\lvgl\src\extra\widgets\spinbox/lv_spinbox.c ****  **********************/
  22:..\..\..\arduinoLCD\test\Pain Drain\libraries\lvgl\src\extra\widgets\spinbox/lv_spinbox.c **** 
  23:..\..\..\arduinoLCD\test\Pain Drain\libraries\lvgl\src\extra\widgets\spinbox/lv_spinbox.c **** /**********************
  24:..\..\..\arduinoLCD\test\Pain Drain\libraries\lvgl\src\extra\widgets\spinbox/lv_spinbox.c ****  *  STATIC PROTOTYPES
  25:..\..\..\arduinoLCD\test\Pain Drain\libraries\lvgl\src\extra\widgets\spinbox/lv_spinbox.c ****  **********************/
  26:..\..\..\arduinoLCD\test\Pain Drain\libraries\lvgl\src\extra\widgets\spinbox/lv_spinbox.c **** 
  27:..\..\..\arduinoLCD\test\Pain Drain\libraries\lvgl\src\extra\widgets\spinbox/lv_spinbox.c **** static void lv_spinbox_constructor(const lv_obj_class_t * class_p, lv_obj_t * obj);
  28:..\..\..\arduinoLCD\test\Pain Drain\libraries\lvgl\src\extra\widgets\spinbox/lv_spinbox.c **** static void lv_spinbox_event(const lv_obj_class_t * class_p, lv_event_t * e);
  29:..\..\..\arduinoLCD\test\Pain Drain\libraries\lvgl\src\extra\widgets\spinbox/lv_spinbox.c **** static void lv_spinbox_updatevalue(lv_obj_t * obj);
  30:..\..\..\arduinoLCD\test\Pain Drain\libraries\lvgl\src\extra\widgets\spinbox/lv_spinbox.c **** 
ARM GAS  C:\Users\haske\AppData\Local\Temp\ccEbAwQn.s 			page 2


  31:..\..\..\arduinoLCD\test\Pain Drain\libraries\lvgl\src\extra\widgets\spinbox/lv_spinbox.c **** /**********************
  32:..\..\..\arduinoLCD\test\Pain Drain\libraries\lvgl\src\extra\widgets\spinbox/lv_spinbox.c ****  *  STATIC VARIABLES
  33:..\..\..\arduinoLCD\test\Pain Drain\libraries\lvgl\src\extra\widgets\spinbox/lv_spinbox.c ****  **********************/
  34:..\..\..\arduinoLCD\test\Pain Drain\libraries\lvgl\src\extra\widgets\spinbox/lv_spinbox.c **** const lv_obj_class_t lv_spinbox_class = {
  35:..\..\..\arduinoLCD\test\Pain Drain\libraries\lvgl\src\extra\widgets\spinbox/lv_spinbox.c ****     .constructor_cb = lv_spinbox_constructor,
  36:..\..\..\arduinoLCD\test\Pain Drain\libraries\lvgl\src\extra\widgets\spinbox/lv_spinbox.c ****     .event_cb = lv_spinbox_event,
  37:..\..\..\arduinoLCD\test\Pain Drain\libraries\lvgl\src\extra\widgets\spinbox/lv_spinbox.c ****     .width_def = LV_DPI_DEF,
  38:..\..\..\arduinoLCD\test\Pain Drain\libraries\lvgl\src\extra\widgets\spinbox/lv_spinbox.c ****     .instance_size = sizeof(lv_spinbox_t),
  39:..\..\..\arduinoLCD\test\Pain Drain\libraries\lvgl\src\extra\widgets\spinbox/lv_spinbox.c ****     .editable = LV_OBJ_CLASS_EDITABLE_TRUE,
  40:..\..\..\arduinoLCD\test\Pain Drain\libraries\lvgl\src\extra\widgets\spinbox/lv_spinbox.c ****     .base_class = &lv_textarea_class
  41:..\..\..\arduinoLCD\test\Pain Drain\libraries\lvgl\src\extra\widgets\spinbox/lv_spinbox.c **** };
  42:..\..\..\arduinoLCD\test\Pain Drain\libraries\lvgl\src\extra\widgets\spinbox/lv_spinbox.c **** /**********************
  43:..\..\..\arduinoLCD\test\Pain Drain\libraries\lvgl\src\extra\widgets\spinbox/lv_spinbox.c ****  *      MACROS
  44:..\..\..\arduinoLCD\test\Pain Drain\libraries\lvgl\src\extra\widgets\spinbox/lv_spinbox.c ****  **********************/
  45:..\..\..\arduinoLCD\test\Pain Drain\libraries\lvgl\src\extra\widgets\spinbox/lv_spinbox.c **** 
  46:..\..\..\arduinoLCD\test\Pain Drain\libraries\lvgl\src\extra\widgets\spinbox/lv_spinbox.c **** /**********************
  47:..\..\..\arduinoLCD\test\Pain Drain\libraries\lvgl\src\extra\widgets\spinbox/lv_spinbox.c ****  *   GLOBAL FUNCTIONS
  48:..\..\..\arduinoLCD\test\Pain Drain\libraries\lvgl\src\extra\widgets\spinbox/lv_spinbox.c ****  **********************/
  49:..\..\..\arduinoLCD\test\Pain Drain\libraries\lvgl\src\extra\widgets\spinbox/lv_spinbox.c **** 
  50:..\..\..\arduinoLCD\test\Pain Drain\libraries\lvgl\src\extra\widgets\spinbox/lv_spinbox.c **** lv_obj_t * lv_spinbox_create(lv_obj_t * parent)
  51:..\..\..\arduinoLCD\test\Pain Drain\libraries\lvgl\src\extra\widgets\spinbox/lv_spinbox.c **** {
  52:..\..\..\arduinoLCD\test\Pain Drain\libraries\lvgl\src\extra\widgets\spinbox/lv_spinbox.c ****     LV_LOG_INFO("begin");
  53:..\..\..\arduinoLCD\test\Pain Drain\libraries\lvgl\src\extra\widgets\spinbox/lv_spinbox.c ****     lv_obj_t * obj = lv_obj_class_create_obj(MY_CLASS, parent);
  54:..\..\..\arduinoLCD\test\Pain Drain\libraries\lvgl\src\extra\widgets\spinbox/lv_spinbox.c ****     lv_obj_class_init_obj(obj);
  55:..\..\..\arduinoLCD\test\Pain Drain\libraries\lvgl\src\extra\widgets\spinbox/lv_spinbox.c ****     return obj;
  56:..\..\..\arduinoLCD\test\Pain Drain\libraries\lvgl\src\extra\widgets\spinbox/lv_spinbox.c **** }
  57:..\..\..\arduinoLCD\test\Pain Drain\libraries\lvgl\src\extra\widgets\spinbox/lv_spinbox.c **** 
  58:..\..\..\arduinoLCD\test\Pain Drain\libraries\lvgl\src\extra\widgets\spinbox/lv_spinbox.c **** /*=====================
  59:..\..\..\arduinoLCD\test\Pain Drain\libraries\lvgl\src\extra\widgets\spinbox/lv_spinbox.c ****  * Setter functions
  60:..\..\..\arduinoLCD\test\Pain Drain\libraries\lvgl\src\extra\widgets\spinbox/lv_spinbox.c ****  *====================*/
  61:..\..\..\arduinoLCD\test\Pain Drain\libraries\lvgl\src\extra\widgets\spinbox/lv_spinbox.c **** 
  62:..\..\..\arduinoLCD\test\Pain Drain\libraries\lvgl\src\extra\widgets\spinbox/lv_spinbox.c **** /**
  63:..\..\..\arduinoLCD\test\Pain Drain\libraries\lvgl\src\extra\widgets\spinbox/lv_spinbox.c ****  * Set spinbox value
  64:..\..\..\arduinoLCD\test\Pain Drain\libraries\lvgl\src\extra\widgets\spinbox/lv_spinbox.c ****  * @param obj pointer to spinbox
  65:..\..\..\arduinoLCD\test\Pain Drain\libraries\lvgl\src\extra\widgets\spinbox/lv_spinbox.c ****  * @param i value to be set
  66:..\..\..\arduinoLCD\test\Pain Drain\libraries\lvgl\src\extra\widgets\spinbox/lv_spinbox.c ****  */
  67:..\..\..\arduinoLCD\test\Pain Drain\libraries\lvgl\src\extra\widgets\spinbox/lv_spinbox.c **** void lv_spinbox_set_value(lv_obj_t * obj, int32_t i)
  68:..\..\..\arduinoLCD\test\Pain Drain\libraries\lvgl\src\extra\widgets\spinbox/lv_spinbox.c **** {
  69:..\..\..\arduinoLCD\test\Pain Drain\libraries\lvgl\src\extra\widgets\spinbox/lv_spinbox.c ****     LV_ASSERT_OBJ(obj, MY_CLASS);
  70:..\..\..\arduinoLCD\test\Pain Drain\libraries\lvgl\src\extra\widgets\spinbox/lv_spinbox.c ****     lv_spinbox_t * spinbox = (lv_spinbox_t *)obj;
  71:..\..\..\arduinoLCD\test\Pain Drain\libraries\lvgl\src\extra\widgets\spinbox/lv_spinbox.c **** 
  72:..\..\..\arduinoLCD\test\Pain Drain\libraries\lvgl\src\extra\widgets\spinbox/lv_spinbox.c ****     if(i > spinbox->range_max) i = spinbox->range_max;
  73:..\..\..\arduinoLCD\test\Pain Drain\libraries\lvgl\src\extra\widgets\spinbox/lv_spinbox.c ****     if(i < spinbox->range_min) i = spinbox->range_min;
  74:..\..\..\arduinoLCD\test\Pain Drain\libraries\lvgl\src\extra\widgets\spinbox/lv_spinbox.c **** 
  75:..\..\..\arduinoLCD\test\Pain Drain\libraries\lvgl\src\extra\widgets\spinbox/lv_spinbox.c ****     spinbox->value = i;
  76:..\..\..\arduinoLCD\test\Pain Drain\libraries\lvgl\src\extra\widgets\spinbox/lv_spinbox.c **** 
  77:..\..\..\arduinoLCD\test\Pain Drain\libraries\lvgl\src\extra\widgets\spinbox/lv_spinbox.c ****     lv_spinbox_updatevalue(obj);
  78:..\..\..\arduinoLCD\test\Pain Drain\libraries\lvgl\src\extra\widgets\spinbox/lv_spinbox.c **** }
  79:..\..\..\arduinoLCD\test\Pain Drain\libraries\lvgl\src\extra\widgets\spinbox/lv_spinbox.c **** 
  80:..\..\..\arduinoLCD\test\Pain Drain\libraries\lvgl\src\extra\widgets\spinbox/lv_spinbox.c **** /**
  81:..\..\..\arduinoLCD\test\Pain Drain\libraries\lvgl\src\extra\widgets\spinbox/lv_spinbox.c ****  * Set spinbox rollover function
  82:..\..\..\arduinoLCD\test\Pain Drain\libraries\lvgl\src\extra\widgets\spinbox/lv_spinbox.c ****  * @param spinbox pointer to spinbox
  83:..\..\..\arduinoLCD\test\Pain Drain\libraries\lvgl\src\extra\widgets\spinbox/lv_spinbox.c ****  * @param b true or false to enable or disable (default)
  84:..\..\..\arduinoLCD\test\Pain Drain\libraries\lvgl\src\extra\widgets\spinbox/lv_spinbox.c ****  */
  85:..\..\..\arduinoLCD\test\Pain Drain\libraries\lvgl\src\extra\widgets\spinbox/lv_spinbox.c **** void lv_spinbox_set_rollover(lv_obj_t * obj, bool b)
  86:..\..\..\arduinoLCD\test\Pain Drain\libraries\lvgl\src\extra\widgets\spinbox/lv_spinbox.c **** {
  87:..\..\..\arduinoLCD\test\Pain Drain\libraries\lvgl\src\extra\widgets\spinbox/lv_spinbox.c ****     LV_ASSERT_OBJ(obj, MY_CLASS);
ARM GAS  C:\Users\haske\AppData\Local\Temp\ccEbAwQn.s 			page 3


  88:..\..\..\arduinoLCD\test\Pain Drain\libraries\lvgl\src\extra\widgets\spinbox/lv_spinbox.c ****     lv_spinbox_t * spinbox = (lv_spinbox_t *)obj;
  89:..\..\..\arduinoLCD\test\Pain Drain\libraries\lvgl\src\extra\widgets\spinbox/lv_spinbox.c **** 
  90:..\..\..\arduinoLCD\test\Pain Drain\libraries\lvgl\src\extra\widgets\spinbox/lv_spinbox.c ****     spinbox->rollover = b;
  91:..\..\..\arduinoLCD\test\Pain Drain\libraries\lvgl\src\extra\widgets\spinbox/lv_spinbox.c **** }
  92:..\..\..\arduinoLCD\test\Pain Drain\libraries\lvgl\src\extra\widgets\spinbox/lv_spinbox.c **** 
  93:..\..\..\arduinoLCD\test\Pain Drain\libraries\lvgl\src\extra\widgets\spinbox/lv_spinbox.c **** /**
  94:..\..\..\arduinoLCD\test\Pain Drain\libraries\lvgl\src\extra\widgets\spinbox/lv_spinbox.c ****  * Set spinbox digit format (digit count and decimal format)
  95:..\..\..\arduinoLCD\test\Pain Drain\libraries\lvgl\src\extra\widgets\spinbox/lv_spinbox.c ****  * @param spinbox pointer to spinbox
  96:..\..\..\arduinoLCD\test\Pain Drain\libraries\lvgl\src\extra\widgets\spinbox/lv_spinbox.c ****  * @param digit_count number of digit excluding the decimal separator and the sign
  97:..\..\..\arduinoLCD\test\Pain Drain\libraries\lvgl\src\extra\widgets\spinbox/lv_spinbox.c ****  * @param separator_position number of digit before the decimal point. If 0, decimal point is not
  98:..\..\..\arduinoLCD\test\Pain Drain\libraries\lvgl\src\extra\widgets\spinbox/lv_spinbox.c ****  * shown
  99:..\..\..\arduinoLCD\test\Pain Drain\libraries\lvgl\src\extra\widgets\spinbox/lv_spinbox.c ****  */
 100:..\..\..\arduinoLCD\test\Pain Drain\libraries\lvgl\src\extra\widgets\spinbox/lv_spinbox.c **** void lv_spinbox_set_digit_format(lv_obj_t * obj, uint8_t digit_count, uint8_t separator_position)
 101:..\..\..\arduinoLCD\test\Pain Drain\libraries\lvgl\src\extra\widgets\spinbox/lv_spinbox.c **** {
 102:..\..\..\arduinoLCD\test\Pain Drain\libraries\lvgl\src\extra\widgets\spinbox/lv_spinbox.c ****     LV_ASSERT_OBJ(obj, MY_CLASS);
 103:..\..\..\arduinoLCD\test\Pain Drain\libraries\lvgl\src\extra\widgets\spinbox/lv_spinbox.c ****     lv_spinbox_t * spinbox = (lv_spinbox_t *)obj;
 104:..\..\..\arduinoLCD\test\Pain Drain\libraries\lvgl\src\extra\widgets\spinbox/lv_spinbox.c **** 
 105:..\..\..\arduinoLCD\test\Pain Drain\libraries\lvgl\src\extra\widgets\spinbox/lv_spinbox.c ****     if(digit_count > LV_SPINBOX_MAX_DIGIT_COUNT) digit_count = LV_SPINBOX_MAX_DIGIT_COUNT;
 106:..\..\..\arduinoLCD\test\Pain Drain\libraries\lvgl\src\extra\widgets\spinbox/lv_spinbox.c **** 
 107:..\..\..\arduinoLCD\test\Pain Drain\libraries\lvgl\src\extra\widgets\spinbox/lv_spinbox.c ****     if(separator_position >= digit_count) separator_position = 0;
 108:..\..\..\arduinoLCD\test\Pain Drain\libraries\lvgl\src\extra\widgets\spinbox/lv_spinbox.c **** 
 109:..\..\..\arduinoLCD\test\Pain Drain\libraries\lvgl\src\extra\widgets\spinbox/lv_spinbox.c ****     if(digit_count < LV_SPINBOX_MAX_DIGIT_COUNT) {
 110:..\..\..\arduinoLCD\test\Pain Drain\libraries\lvgl\src\extra\widgets\spinbox/lv_spinbox.c ****         int64_t max_val = lv_pow(10, digit_count);
 111:..\..\..\arduinoLCD\test\Pain Drain\libraries\lvgl\src\extra\widgets\spinbox/lv_spinbox.c ****         if(spinbox->range_max > max_val - 1) spinbox->range_max = max_val - 1;
 112:..\..\..\arduinoLCD\test\Pain Drain\libraries\lvgl\src\extra\widgets\spinbox/lv_spinbox.c ****         if(spinbox->range_min < - max_val  + 1) spinbox->range_min = - max_val  + 1;
 113:..\..\..\arduinoLCD\test\Pain Drain\libraries\lvgl\src\extra\widgets\spinbox/lv_spinbox.c ****     }
 114:..\..\..\arduinoLCD\test\Pain Drain\libraries\lvgl\src\extra\widgets\spinbox/lv_spinbox.c **** 
 115:..\..\..\arduinoLCD\test\Pain Drain\libraries\lvgl\src\extra\widgets\spinbox/lv_spinbox.c ****     spinbox->digit_count   = digit_count;
 116:..\..\..\arduinoLCD\test\Pain Drain\libraries\lvgl\src\extra\widgets\spinbox/lv_spinbox.c ****     spinbox->dec_point_pos = separator_position;
 117:..\..\..\arduinoLCD\test\Pain Drain\libraries\lvgl\src\extra\widgets\spinbox/lv_spinbox.c **** 
 118:..\..\..\arduinoLCD\test\Pain Drain\libraries\lvgl\src\extra\widgets\spinbox/lv_spinbox.c ****     lv_spinbox_updatevalue(obj);
 119:..\..\..\arduinoLCD\test\Pain Drain\libraries\lvgl\src\extra\widgets\spinbox/lv_spinbox.c **** }
 120:..\..\..\arduinoLCD\test\Pain Drain\libraries\lvgl\src\extra\widgets\spinbox/lv_spinbox.c **** 
 121:..\..\..\arduinoLCD\test\Pain Drain\libraries\lvgl\src\extra\widgets\spinbox/lv_spinbox.c **** /**
 122:..\..\..\arduinoLCD\test\Pain Drain\libraries\lvgl\src\extra\widgets\spinbox/lv_spinbox.c ****  * Set spinbox step
 123:..\..\..\arduinoLCD\test\Pain Drain\libraries\lvgl\src\extra\widgets\spinbox/lv_spinbox.c ****  * @param spinbox pointer to spinbox
 124:..\..\..\arduinoLCD\test\Pain Drain\libraries\lvgl\src\extra\widgets\spinbox/lv_spinbox.c ****  * @param step steps on increment/decrement
 125:..\..\..\arduinoLCD\test\Pain Drain\libraries\lvgl\src\extra\widgets\spinbox/lv_spinbox.c ****  */
 126:..\..\..\arduinoLCD\test\Pain Drain\libraries\lvgl\src\extra\widgets\spinbox/lv_spinbox.c **** void lv_spinbox_set_step(lv_obj_t * obj, uint32_t step)
 127:..\..\..\arduinoLCD\test\Pain Drain\libraries\lvgl\src\extra\widgets\spinbox/lv_spinbox.c **** {
 128:..\..\..\arduinoLCD\test\Pain Drain\libraries\lvgl\src\extra\widgets\spinbox/lv_spinbox.c ****     LV_ASSERT_OBJ(obj, MY_CLASS);
 129:..\..\..\arduinoLCD\test\Pain Drain\libraries\lvgl\src\extra\widgets\spinbox/lv_spinbox.c ****     lv_spinbox_t * spinbox = (lv_spinbox_t *)obj;
 130:..\..\..\arduinoLCD\test\Pain Drain\libraries\lvgl\src\extra\widgets\spinbox/lv_spinbox.c **** 
 131:..\..\..\arduinoLCD\test\Pain Drain\libraries\lvgl\src\extra\widgets\spinbox/lv_spinbox.c ****     spinbox->step = step;
 132:..\..\..\arduinoLCD\test\Pain Drain\libraries\lvgl\src\extra\widgets\spinbox/lv_spinbox.c ****     lv_spinbox_updatevalue(obj);
 133:..\..\..\arduinoLCD\test\Pain Drain\libraries\lvgl\src\extra\widgets\spinbox/lv_spinbox.c **** }
 134:..\..\..\arduinoLCD\test\Pain Drain\libraries\lvgl\src\extra\widgets\spinbox/lv_spinbox.c **** 
 135:..\..\..\arduinoLCD\test\Pain Drain\libraries\lvgl\src\extra\widgets\spinbox/lv_spinbox.c **** /**
 136:..\..\..\arduinoLCD\test\Pain Drain\libraries\lvgl\src\extra\widgets\spinbox/lv_spinbox.c ****  * Set spinbox value range
 137:..\..\..\arduinoLCD\test\Pain Drain\libraries\lvgl\src\extra\widgets\spinbox/lv_spinbox.c ****  * @param spinbox pointer to spinbox
 138:..\..\..\arduinoLCD\test\Pain Drain\libraries\lvgl\src\extra\widgets\spinbox/lv_spinbox.c ****  * @param range_min maximum value, inclusive
 139:..\..\..\arduinoLCD\test\Pain Drain\libraries\lvgl\src\extra\widgets\spinbox/lv_spinbox.c ****  * @param range_max minimum value, inclusive
 140:..\..\..\arduinoLCD\test\Pain Drain\libraries\lvgl\src\extra\widgets\spinbox/lv_spinbox.c ****  */
 141:..\..\..\arduinoLCD\test\Pain Drain\libraries\lvgl\src\extra\widgets\spinbox/lv_spinbox.c **** void lv_spinbox_set_range(lv_obj_t * obj, int32_t range_min, int32_t range_max)
 142:..\..\..\arduinoLCD\test\Pain Drain\libraries\lvgl\src\extra\widgets\spinbox/lv_spinbox.c **** {
 143:..\..\..\arduinoLCD\test\Pain Drain\libraries\lvgl\src\extra\widgets\spinbox/lv_spinbox.c ****     LV_ASSERT_OBJ(obj, MY_CLASS);
 144:..\..\..\arduinoLCD\test\Pain Drain\libraries\lvgl\src\extra\widgets\spinbox/lv_spinbox.c ****     lv_spinbox_t * spinbox = (lv_spinbox_t *)obj;
ARM GAS  C:\Users\haske\AppData\Local\Temp\ccEbAwQn.s 			page 4


 145:..\..\..\arduinoLCD\test\Pain Drain\libraries\lvgl\src\extra\widgets\spinbox/lv_spinbox.c **** 
 146:..\..\..\arduinoLCD\test\Pain Drain\libraries\lvgl\src\extra\widgets\spinbox/lv_spinbox.c ****     spinbox->range_max = range_max;
 147:..\..\..\arduinoLCD\test\Pain Drain\libraries\lvgl\src\extra\widgets\spinbox/lv_spinbox.c ****     spinbox->range_min = range_min;
 148:..\..\..\arduinoLCD\test\Pain Drain\libraries\lvgl\src\extra\widgets\spinbox/lv_spinbox.c **** 
 149:..\..\..\arduinoLCD\test\Pain Drain\libraries\lvgl\src\extra\widgets\spinbox/lv_spinbox.c ****     if(spinbox->value > spinbox->range_max) spinbox->value = spinbox->range_max;
 150:..\..\..\arduinoLCD\test\Pain Drain\libraries\lvgl\src\extra\widgets\spinbox/lv_spinbox.c ****     if(spinbox->value < spinbox->range_min) spinbox->value = spinbox->range_min;
 151:..\..\..\arduinoLCD\test\Pain Drain\libraries\lvgl\src\extra\widgets\spinbox/lv_spinbox.c **** 
 152:..\..\..\arduinoLCD\test\Pain Drain\libraries\lvgl\src\extra\widgets\spinbox/lv_spinbox.c ****     lv_spinbox_updatevalue(obj);
 153:..\..\..\arduinoLCD\test\Pain Drain\libraries\lvgl\src\extra\widgets\spinbox/lv_spinbox.c **** }
 154:..\..\..\arduinoLCD\test\Pain Drain\libraries\lvgl\src\extra\widgets\spinbox/lv_spinbox.c **** 
 155:..\..\..\arduinoLCD\test\Pain Drain\libraries\lvgl\src\extra\widgets\spinbox/lv_spinbox.c **** /**
 156:..\..\..\arduinoLCD\test\Pain Drain\libraries\lvgl\src\extra\widgets\spinbox/lv_spinbox.c ****  * Set cursor position to a specific digit for edition
 157:..\..\..\arduinoLCD\test\Pain Drain\libraries\lvgl\src\extra\widgets\spinbox/lv_spinbox.c ****  * @param spinbox pointer to spinbox
 158:..\..\..\arduinoLCD\test\Pain Drain\libraries\lvgl\src\extra\widgets\spinbox/lv_spinbox.c ****  * @param pos selected position in spinbox
 159:..\..\..\arduinoLCD\test\Pain Drain\libraries\lvgl\src\extra\widgets\spinbox/lv_spinbox.c ****  */
 160:..\..\..\arduinoLCD\test\Pain Drain\libraries\lvgl\src\extra\widgets\spinbox/lv_spinbox.c **** void lv_spinbox_set_cursor_pos(lv_obj_t * obj, uint8_t pos)
 161:..\..\..\arduinoLCD\test\Pain Drain\libraries\lvgl\src\extra\widgets\spinbox/lv_spinbox.c **** {
 162:..\..\..\arduinoLCD\test\Pain Drain\libraries\lvgl\src\extra\widgets\spinbox/lv_spinbox.c ****     LV_ASSERT_OBJ(obj, MY_CLASS);
 163:..\..\..\arduinoLCD\test\Pain Drain\libraries\lvgl\src\extra\widgets\spinbox/lv_spinbox.c ****     lv_spinbox_t * spinbox = (lv_spinbox_t *)obj;
 164:..\..\..\arduinoLCD\test\Pain Drain\libraries\lvgl\src\extra\widgets\spinbox/lv_spinbox.c ****     int32_t step_limit;
 165:..\..\..\arduinoLCD\test\Pain Drain\libraries\lvgl\src\extra\widgets\spinbox/lv_spinbox.c ****     step_limit       = LV_MAX(spinbox->range_max, (spinbox->range_min < 0 ? (-spinbox->range_min) :
 166:..\..\..\arduinoLCD\test\Pain Drain\libraries\lvgl\src\extra\widgets\spinbox/lv_spinbox.c ****     int32_t new_step = spinbox->step * lv_pow(10, pos);
 167:..\..\..\arduinoLCD\test\Pain Drain\libraries\lvgl\src\extra\widgets\spinbox/lv_spinbox.c ****     if(pos <= 0) spinbox->step = 1;
 168:..\..\..\arduinoLCD\test\Pain Drain\libraries\lvgl\src\extra\widgets\spinbox/lv_spinbox.c ****     else if(new_step <= step_limit) spinbox->step = new_step;
 169:..\..\..\arduinoLCD\test\Pain Drain\libraries\lvgl\src\extra\widgets\spinbox/lv_spinbox.c **** 
 170:..\..\..\arduinoLCD\test\Pain Drain\libraries\lvgl\src\extra\widgets\spinbox/lv_spinbox.c ****     lv_spinbox_updatevalue(obj);
 171:..\..\..\arduinoLCD\test\Pain Drain\libraries\lvgl\src\extra\widgets\spinbox/lv_spinbox.c **** }
 172:..\..\..\arduinoLCD\test\Pain Drain\libraries\lvgl\src\extra\widgets\spinbox/lv_spinbox.c **** 
 173:..\..\..\arduinoLCD\test\Pain Drain\libraries\lvgl\src\extra\widgets\spinbox/lv_spinbox.c **** /**
 174:..\..\..\arduinoLCD\test\Pain Drain\libraries\lvgl\src\extra\widgets\spinbox/lv_spinbox.c ****  * Set direction of digit step when clicking an encoder button while in editing mode
 175:..\..\..\arduinoLCD\test\Pain Drain\libraries\lvgl\src\extra\widgets\spinbox/lv_spinbox.c ****  * @param spinbox pointer to spinbox
 176:..\..\..\arduinoLCD\test\Pain Drain\libraries\lvgl\src\extra\widgets\spinbox/lv_spinbox.c ****  * @param direction the direction (LV_DIR_RIGHT or LV_DIR_LEFT)
 177:..\..\..\arduinoLCD\test\Pain Drain\libraries\lvgl\src\extra\widgets\spinbox/lv_spinbox.c ****  */
 178:..\..\..\arduinoLCD\test\Pain Drain\libraries\lvgl\src\extra\widgets\spinbox/lv_spinbox.c **** void lv_spinbox_set_digit_step_direction(lv_obj_t * obj, lv_dir_t direction)
 179:..\..\..\arduinoLCD\test\Pain Drain\libraries\lvgl\src\extra\widgets\spinbox/lv_spinbox.c **** {
 180:..\..\..\arduinoLCD\test\Pain Drain\libraries\lvgl\src\extra\widgets\spinbox/lv_spinbox.c ****     LV_ASSERT_OBJ(obj, MY_CLASS);
 181:..\..\..\arduinoLCD\test\Pain Drain\libraries\lvgl\src\extra\widgets\spinbox/lv_spinbox.c ****     lv_spinbox_t * spinbox = (lv_spinbox_t *)obj;
 182:..\..\..\arduinoLCD\test\Pain Drain\libraries\lvgl\src\extra\widgets\spinbox/lv_spinbox.c ****     spinbox->digit_step_dir = direction;
 183:..\..\..\arduinoLCD\test\Pain Drain\libraries\lvgl\src\extra\widgets\spinbox/lv_spinbox.c **** 
 184:..\..\..\arduinoLCD\test\Pain Drain\libraries\lvgl\src\extra\widgets\spinbox/lv_spinbox.c ****     lv_spinbox_updatevalue(obj);
 185:..\..\..\arduinoLCD\test\Pain Drain\libraries\lvgl\src\extra\widgets\spinbox/lv_spinbox.c **** }
 186:..\..\..\arduinoLCD\test\Pain Drain\libraries\lvgl\src\extra\widgets\spinbox/lv_spinbox.c **** /*=====================
 187:..\..\..\arduinoLCD\test\Pain Drain\libraries\lvgl\src\extra\widgets\spinbox/lv_spinbox.c ****  * Getter functions
 188:..\..\..\arduinoLCD\test\Pain Drain\libraries\lvgl\src\extra\widgets\spinbox/lv_spinbox.c ****  *====================*/
 189:..\..\..\arduinoLCD\test\Pain Drain\libraries\lvgl\src\extra\widgets\spinbox/lv_spinbox.c **** 
 190:..\..\..\arduinoLCD\test\Pain Drain\libraries\lvgl\src\extra\widgets\spinbox/lv_spinbox.c **** /**
 191:..\..\..\arduinoLCD\test\Pain Drain\libraries\lvgl\src\extra\widgets\spinbox/lv_spinbox.c ****  * Get the spinbox numeral value (user has to convert to float according to its digit format)
 192:..\..\..\arduinoLCD\test\Pain Drain\libraries\lvgl\src\extra\widgets\spinbox/lv_spinbox.c ****  * @param obj pointer to spinbox
 193:..\..\..\arduinoLCD\test\Pain Drain\libraries\lvgl\src\extra\widgets\spinbox/lv_spinbox.c ****  * @return value integer value of the spinbox
 194:..\..\..\arduinoLCD\test\Pain Drain\libraries\lvgl\src\extra\widgets\spinbox/lv_spinbox.c ****  */
 195:..\..\..\arduinoLCD\test\Pain Drain\libraries\lvgl\src\extra\widgets\spinbox/lv_spinbox.c **** int32_t lv_spinbox_get_value(lv_obj_t * obj)
 196:..\..\..\arduinoLCD\test\Pain Drain\libraries\lvgl\src\extra\widgets\spinbox/lv_spinbox.c **** {
 197:..\..\..\arduinoLCD\test\Pain Drain\libraries\lvgl\src\extra\widgets\spinbox/lv_spinbox.c ****     LV_ASSERT_OBJ(obj, MY_CLASS);
 198:..\..\..\arduinoLCD\test\Pain Drain\libraries\lvgl\src\extra\widgets\spinbox/lv_spinbox.c ****     lv_spinbox_t * spinbox = (lv_spinbox_t *)obj;
 199:..\..\..\arduinoLCD\test\Pain Drain\libraries\lvgl\src\extra\widgets\spinbox/lv_spinbox.c **** 
 200:..\..\..\arduinoLCD\test\Pain Drain\libraries\lvgl\src\extra\widgets\spinbox/lv_spinbox.c ****     return spinbox->value;
 201:..\..\..\arduinoLCD\test\Pain Drain\libraries\lvgl\src\extra\widgets\spinbox/lv_spinbox.c **** }
ARM GAS  C:\Users\haske\AppData\Local\Temp\ccEbAwQn.s 			page 5


 202:..\..\..\arduinoLCD\test\Pain Drain\libraries\lvgl\src\extra\widgets\spinbox/lv_spinbox.c **** /**
 203:..\..\..\arduinoLCD\test\Pain Drain\libraries\lvgl\src\extra\widgets\spinbox/lv_spinbox.c ****  * Get the spinbox step value (user has to convert to float according to its digit format)
 204:..\..\..\arduinoLCD\test\Pain Drain\libraries\lvgl\src\extra\widgets\spinbox/lv_spinbox.c ****  * @param obj pointer to spinbox
 205:..\..\..\arduinoLCD\test\Pain Drain\libraries\lvgl\src\extra\widgets\spinbox/lv_spinbox.c ****  * @return value integer step value of the spinbox
 206:..\..\..\arduinoLCD\test\Pain Drain\libraries\lvgl\src\extra\widgets\spinbox/lv_spinbox.c ****  */
 207:..\..\..\arduinoLCD\test\Pain Drain\libraries\lvgl\src\extra\widgets\spinbox/lv_spinbox.c **** int32_t lv_spinbox_get_step(lv_obj_t * obj)
 208:..\..\..\arduinoLCD\test\Pain Drain\libraries\lvgl\src\extra\widgets\spinbox/lv_spinbox.c **** {
 209:..\..\..\arduinoLCD\test\Pain Drain\libraries\lvgl\src\extra\widgets\spinbox/lv_spinbox.c ****     LV_ASSERT_OBJ(obj, MY_CLASS);
 210:..\..\..\arduinoLCD\test\Pain Drain\libraries\lvgl\src\extra\widgets\spinbox/lv_spinbox.c ****     lv_spinbox_t * spinbox = (lv_spinbox_t *)obj;
 211:..\..\..\arduinoLCD\test\Pain Drain\libraries\lvgl\src\extra\widgets\spinbox/lv_spinbox.c **** 
 212:..\..\..\arduinoLCD\test\Pain Drain\libraries\lvgl\src\extra\widgets\spinbox/lv_spinbox.c ****     return spinbox->step;
 213:..\..\..\arduinoLCD\test\Pain Drain\libraries\lvgl\src\extra\widgets\spinbox/lv_spinbox.c **** }
 214:..\..\..\arduinoLCD\test\Pain Drain\libraries\lvgl\src\extra\widgets\spinbox/lv_spinbox.c **** 
 215:..\..\..\arduinoLCD\test\Pain Drain\libraries\lvgl\src\extra\widgets\spinbox/lv_spinbox.c **** /*=====================
 216:..\..\..\arduinoLCD\test\Pain Drain\libraries\lvgl\src\extra\widgets\spinbox/lv_spinbox.c ****  * Other functions
 217:..\..\..\arduinoLCD\test\Pain Drain\libraries\lvgl\src\extra\widgets\spinbox/lv_spinbox.c ****  *====================*/
 218:..\..\..\arduinoLCD\test\Pain Drain\libraries\lvgl\src\extra\widgets\spinbox/lv_spinbox.c **** 
 219:..\..\..\arduinoLCD\test\Pain Drain\libraries\lvgl\src\extra\widgets\spinbox/lv_spinbox.c **** /**
 220:..\..\..\arduinoLCD\test\Pain Drain\libraries\lvgl\src\extra\widgets\spinbox/lv_spinbox.c ****  * Select next lower digit for edition
 221:..\..\..\arduinoLCD\test\Pain Drain\libraries\lvgl\src\extra\widgets\spinbox/lv_spinbox.c ****  * @param obj pointer to spinbox
 222:..\..\..\arduinoLCD\test\Pain Drain\libraries\lvgl\src\extra\widgets\spinbox/lv_spinbox.c ****  */
 223:..\..\..\arduinoLCD\test\Pain Drain\libraries\lvgl\src\extra\widgets\spinbox/lv_spinbox.c **** void lv_spinbox_step_next(lv_obj_t * obj)
 224:..\..\..\arduinoLCD\test\Pain Drain\libraries\lvgl\src\extra\widgets\spinbox/lv_spinbox.c **** {
 225:..\..\..\arduinoLCD\test\Pain Drain\libraries\lvgl\src\extra\widgets\spinbox/lv_spinbox.c ****     LV_ASSERT_OBJ(obj, MY_CLASS);
 226:..\..\..\arduinoLCD\test\Pain Drain\libraries\lvgl\src\extra\widgets\spinbox/lv_spinbox.c ****     lv_spinbox_t * spinbox = (lv_spinbox_t *)obj;
 227:..\..\..\arduinoLCD\test\Pain Drain\libraries\lvgl\src\extra\widgets\spinbox/lv_spinbox.c **** 
 228:..\..\..\arduinoLCD\test\Pain Drain\libraries\lvgl\src\extra\widgets\spinbox/lv_spinbox.c ****     int32_t new_step = spinbox->step / 10;
 229:..\..\..\arduinoLCD\test\Pain Drain\libraries\lvgl\src\extra\widgets\spinbox/lv_spinbox.c ****     if((new_step) > 0)
 230:..\..\..\arduinoLCD\test\Pain Drain\libraries\lvgl\src\extra\widgets\spinbox/lv_spinbox.c ****         spinbox->step = new_step;
 231:..\..\..\arduinoLCD\test\Pain Drain\libraries\lvgl\src\extra\widgets\spinbox/lv_spinbox.c ****     else
 232:..\..\..\arduinoLCD\test\Pain Drain\libraries\lvgl\src\extra\widgets\spinbox/lv_spinbox.c ****         spinbox->step = 1;
 233:..\..\..\arduinoLCD\test\Pain Drain\libraries\lvgl\src\extra\widgets\spinbox/lv_spinbox.c **** 
 234:..\..\..\arduinoLCD\test\Pain Drain\libraries\lvgl\src\extra\widgets\spinbox/lv_spinbox.c ****     lv_spinbox_updatevalue(obj);
 235:..\..\..\arduinoLCD\test\Pain Drain\libraries\lvgl\src\extra\widgets\spinbox/lv_spinbox.c **** }
 236:..\..\..\arduinoLCD\test\Pain Drain\libraries\lvgl\src\extra\widgets\spinbox/lv_spinbox.c **** 
 237:..\..\..\arduinoLCD\test\Pain Drain\libraries\lvgl\src\extra\widgets\spinbox/lv_spinbox.c **** /**
 238:..\..\..\arduinoLCD\test\Pain Drain\libraries\lvgl\src\extra\widgets\spinbox/lv_spinbox.c ****  * Select next higher digit for edition
 239:..\..\..\arduinoLCD\test\Pain Drain\libraries\lvgl\src\extra\widgets\spinbox/lv_spinbox.c ****  * @param obj pointer to spinbox
 240:..\..\..\arduinoLCD\test\Pain Drain\libraries\lvgl\src\extra\widgets\spinbox/lv_spinbox.c ****  */
 241:..\..\..\arduinoLCD\test\Pain Drain\libraries\lvgl\src\extra\widgets\spinbox/lv_spinbox.c **** void lv_spinbox_step_prev(lv_obj_t * obj)
 242:..\..\..\arduinoLCD\test\Pain Drain\libraries\lvgl\src\extra\widgets\spinbox/lv_spinbox.c **** {
 243:..\..\..\arduinoLCD\test\Pain Drain\libraries\lvgl\src\extra\widgets\spinbox/lv_spinbox.c ****     LV_ASSERT_OBJ(obj, MY_CLASS);
 244:..\..\..\arduinoLCD\test\Pain Drain\libraries\lvgl\src\extra\widgets\spinbox/lv_spinbox.c ****     lv_spinbox_t * spinbox = (lv_spinbox_t *)obj;
 245:..\..\..\arduinoLCD\test\Pain Drain\libraries\lvgl\src\extra\widgets\spinbox/lv_spinbox.c ****     int32_t step_limit;
 246:..\..\..\arduinoLCD\test\Pain Drain\libraries\lvgl\src\extra\widgets\spinbox/lv_spinbox.c ****     step_limit       = LV_MAX(spinbox->range_max, (spinbox->range_min < 0 ? (-spinbox->range_min) :
 247:..\..\..\arduinoLCD\test\Pain Drain\libraries\lvgl\src\extra\widgets\spinbox/lv_spinbox.c ****     int32_t new_step = spinbox->step * 10;
 248:..\..\..\arduinoLCD\test\Pain Drain\libraries\lvgl\src\extra\widgets\spinbox/lv_spinbox.c ****     if(new_step <= step_limit) spinbox->step = new_step;
 249:..\..\..\arduinoLCD\test\Pain Drain\libraries\lvgl\src\extra\widgets\spinbox/lv_spinbox.c **** 
 250:..\..\..\arduinoLCD\test\Pain Drain\libraries\lvgl\src\extra\widgets\spinbox/lv_spinbox.c ****     lv_spinbox_updatevalue(obj);
 251:..\..\..\arduinoLCD\test\Pain Drain\libraries\lvgl\src\extra\widgets\spinbox/lv_spinbox.c **** }
 252:..\..\..\arduinoLCD\test\Pain Drain\libraries\lvgl\src\extra\widgets\spinbox/lv_spinbox.c **** 
 253:..\..\..\arduinoLCD\test\Pain Drain\libraries\lvgl\src\extra\widgets\spinbox/lv_spinbox.c **** /**
 254:..\..\..\arduinoLCD\test\Pain Drain\libraries\lvgl\src\extra\widgets\spinbox/lv_spinbox.c ****  * Get spinbox rollover function status
 255:..\..\..\arduinoLCD\test\Pain Drain\libraries\lvgl\src\extra\widgets\spinbox/lv_spinbox.c ****  * @param obj pointer to spinbox
 256:..\..\..\arduinoLCD\test\Pain Drain\libraries\lvgl\src\extra\widgets\spinbox/lv_spinbox.c ****  */
 257:..\..\..\arduinoLCD\test\Pain Drain\libraries\lvgl\src\extra\widgets\spinbox/lv_spinbox.c **** bool lv_spinbox_get_rollover(lv_obj_t * obj)
 258:..\..\..\arduinoLCD\test\Pain Drain\libraries\lvgl\src\extra\widgets\spinbox/lv_spinbox.c **** {
ARM GAS  C:\Users\haske\AppData\Local\Temp\ccEbAwQn.s 			page 6


 259:..\..\..\arduinoLCD\test\Pain Drain\libraries\lvgl\src\extra\widgets\spinbox/lv_spinbox.c ****     LV_ASSERT_OBJ(obj, MY_CLASS);
 260:..\..\..\arduinoLCD\test\Pain Drain\libraries\lvgl\src\extra\widgets\spinbox/lv_spinbox.c ****     lv_spinbox_t * spinbox = (lv_spinbox_t *)obj;
 261:..\..\..\arduinoLCD\test\Pain Drain\libraries\lvgl\src\extra\widgets\spinbox/lv_spinbox.c **** 
 262:..\..\..\arduinoLCD\test\Pain Drain\libraries\lvgl\src\extra\widgets\spinbox/lv_spinbox.c ****     return spinbox->rollover;
 263:..\..\..\arduinoLCD\test\Pain Drain\libraries\lvgl\src\extra\widgets\spinbox/lv_spinbox.c **** }
 264:..\..\..\arduinoLCD\test\Pain Drain\libraries\lvgl\src\extra\widgets\spinbox/lv_spinbox.c **** 
 265:..\..\..\arduinoLCD\test\Pain Drain\libraries\lvgl\src\extra\widgets\spinbox/lv_spinbox.c **** /**
 266:..\..\..\arduinoLCD\test\Pain Drain\libraries\lvgl\src\extra\widgets\spinbox/lv_spinbox.c ****  * Increment spinbox value by one step
 267:..\..\..\arduinoLCD\test\Pain Drain\libraries\lvgl\src\extra\widgets\spinbox/lv_spinbox.c ****  * @param obj pointer to spinbox
 268:..\..\..\arduinoLCD\test\Pain Drain\libraries\lvgl\src\extra\widgets\spinbox/lv_spinbox.c ****  */
 269:..\..\..\arduinoLCD\test\Pain Drain\libraries\lvgl\src\extra\widgets\spinbox/lv_spinbox.c **** void lv_spinbox_increment(lv_obj_t * obj)
 270:..\..\..\arduinoLCD\test\Pain Drain\libraries\lvgl\src\extra\widgets\spinbox/lv_spinbox.c **** {
 271:..\..\..\arduinoLCD\test\Pain Drain\libraries\lvgl\src\extra\widgets\spinbox/lv_spinbox.c ****     LV_ASSERT_OBJ(obj, MY_CLASS);
 272:..\..\..\arduinoLCD\test\Pain Drain\libraries\lvgl\src\extra\widgets\spinbox/lv_spinbox.c ****     lv_spinbox_t * spinbox = (lv_spinbox_t *)obj;
 273:..\..\..\arduinoLCD\test\Pain Drain\libraries\lvgl\src\extra\widgets\spinbox/lv_spinbox.c **** 
 274:..\..\..\arduinoLCD\test\Pain Drain\libraries\lvgl\src\extra\widgets\spinbox/lv_spinbox.c ****     if(spinbox->value + spinbox->step <= spinbox->range_max) {
 275:..\..\..\arduinoLCD\test\Pain Drain\libraries\lvgl\src\extra\widgets\spinbox/lv_spinbox.c ****         /*Special mode when zero crossing*/
 276:..\..\..\arduinoLCD\test\Pain Drain\libraries\lvgl\src\extra\widgets\spinbox/lv_spinbox.c ****         if((spinbox->value + spinbox->step) > 0 && spinbox->value < 0) spinbox->value = -spinbox->v
 277:..\..\..\arduinoLCD\test\Pain Drain\libraries\lvgl\src\extra\widgets\spinbox/lv_spinbox.c ****         spinbox->value += spinbox->step;
 278:..\..\..\arduinoLCD\test\Pain Drain\libraries\lvgl\src\extra\widgets\spinbox/lv_spinbox.c **** 
 279:..\..\..\arduinoLCD\test\Pain Drain\libraries\lvgl\src\extra\widgets\spinbox/lv_spinbox.c ****     }
 280:..\..\..\arduinoLCD\test\Pain Drain\libraries\lvgl\src\extra\widgets\spinbox/lv_spinbox.c ****     else {
 281:..\..\..\arduinoLCD\test\Pain Drain\libraries\lvgl\src\extra\widgets\spinbox/lv_spinbox.c ****         // Rollover?
 282:..\..\..\arduinoLCD\test\Pain Drain\libraries\lvgl\src\extra\widgets\spinbox/lv_spinbox.c ****         if((spinbox->rollover) && (spinbox->value == spinbox->range_max))
 283:..\..\..\arduinoLCD\test\Pain Drain\libraries\lvgl\src\extra\widgets\spinbox/lv_spinbox.c ****             spinbox->value = spinbox->range_min;
 284:..\..\..\arduinoLCD\test\Pain Drain\libraries\lvgl\src\extra\widgets\spinbox/lv_spinbox.c ****         else
 285:..\..\..\arduinoLCD\test\Pain Drain\libraries\lvgl\src\extra\widgets\spinbox/lv_spinbox.c ****             spinbox->value = spinbox->range_max;
 286:..\..\..\arduinoLCD\test\Pain Drain\libraries\lvgl\src\extra\widgets\spinbox/lv_spinbox.c ****     }
 287:..\..\..\arduinoLCD\test\Pain Drain\libraries\lvgl\src\extra\widgets\spinbox/lv_spinbox.c **** 
 288:..\..\..\arduinoLCD\test\Pain Drain\libraries\lvgl\src\extra\widgets\spinbox/lv_spinbox.c ****     lv_spinbox_updatevalue(obj);
 289:..\..\..\arduinoLCD\test\Pain Drain\libraries\lvgl\src\extra\widgets\spinbox/lv_spinbox.c **** }
 290:..\..\..\arduinoLCD\test\Pain Drain\libraries\lvgl\src\extra\widgets\spinbox/lv_spinbox.c **** 
 291:..\..\..\arduinoLCD\test\Pain Drain\libraries\lvgl\src\extra\widgets\spinbox/lv_spinbox.c **** /**
 292:..\..\..\arduinoLCD\test\Pain Drain\libraries\lvgl\src\extra\widgets\spinbox/lv_spinbox.c ****  * Decrement spinbox value by one step
 293:..\..\..\arduinoLCD\test\Pain Drain\libraries\lvgl\src\extra\widgets\spinbox/lv_spinbox.c ****  * @param obj pointer to spinbox
 294:..\..\..\arduinoLCD\test\Pain Drain\libraries\lvgl\src\extra\widgets\spinbox/lv_spinbox.c ****  */
 295:..\..\..\arduinoLCD\test\Pain Drain\libraries\lvgl\src\extra\widgets\spinbox/lv_spinbox.c **** void lv_spinbox_decrement(lv_obj_t * obj)
 296:..\..\..\arduinoLCD\test\Pain Drain\libraries\lvgl\src\extra\widgets\spinbox/lv_spinbox.c **** {
 297:..\..\..\arduinoLCD\test\Pain Drain\libraries\lvgl\src\extra\widgets\spinbox/lv_spinbox.c ****     LV_ASSERT_OBJ(obj, MY_CLASS);
 298:..\..\..\arduinoLCD\test\Pain Drain\libraries\lvgl\src\extra\widgets\spinbox/lv_spinbox.c ****     lv_spinbox_t * spinbox = (lv_spinbox_t *)obj;
 299:..\..\..\arduinoLCD\test\Pain Drain\libraries\lvgl\src\extra\widgets\spinbox/lv_spinbox.c **** 
 300:..\..\..\arduinoLCD\test\Pain Drain\libraries\lvgl\src\extra\widgets\spinbox/lv_spinbox.c ****     if(spinbox->value - spinbox->step >= spinbox->range_min) {
 301:..\..\..\arduinoLCD\test\Pain Drain\libraries\lvgl\src\extra\widgets\spinbox/lv_spinbox.c ****         /*Special mode when zero crossing*/
 302:..\..\..\arduinoLCD\test\Pain Drain\libraries\lvgl\src\extra\widgets\spinbox/lv_spinbox.c ****         if((spinbox->value - spinbox->step) < 0 && spinbox->value > 0) spinbox->value = -spinbox->v
 303:..\..\..\arduinoLCD\test\Pain Drain\libraries\lvgl\src\extra\widgets\spinbox/lv_spinbox.c ****         spinbox->value -= spinbox->step;
 304:..\..\..\arduinoLCD\test\Pain Drain\libraries\lvgl\src\extra\widgets\spinbox/lv_spinbox.c ****     }
 305:..\..\..\arduinoLCD\test\Pain Drain\libraries\lvgl\src\extra\widgets\spinbox/lv_spinbox.c ****     else {
 306:..\..\..\arduinoLCD\test\Pain Drain\libraries\lvgl\src\extra\widgets\spinbox/lv_spinbox.c ****         /*Rollover?*/
 307:..\..\..\arduinoLCD\test\Pain Drain\libraries\lvgl\src\extra\widgets\spinbox/lv_spinbox.c ****         if((spinbox->rollover) && (spinbox->value == spinbox->range_min))
 308:..\..\..\arduinoLCD\test\Pain Drain\libraries\lvgl\src\extra\widgets\spinbox/lv_spinbox.c ****             spinbox->value = spinbox->range_max;
 309:..\..\..\arduinoLCD\test\Pain Drain\libraries\lvgl\src\extra\widgets\spinbox/lv_spinbox.c ****         else
 310:..\..\..\arduinoLCD\test\Pain Drain\libraries\lvgl\src\extra\widgets\spinbox/lv_spinbox.c ****             spinbox->value = spinbox->range_min;
 311:..\..\..\arduinoLCD\test\Pain Drain\libraries\lvgl\src\extra\widgets\spinbox/lv_spinbox.c ****     }
 312:..\..\..\arduinoLCD\test\Pain Drain\libraries\lvgl\src\extra\widgets\spinbox/lv_spinbox.c **** 
 313:..\..\..\arduinoLCD\test\Pain Drain\libraries\lvgl\src\extra\widgets\spinbox/lv_spinbox.c ****     lv_spinbox_updatevalue(obj);
 314:..\..\..\arduinoLCD\test\Pain Drain\libraries\lvgl\src\extra\widgets\spinbox/lv_spinbox.c **** }
 315:..\..\..\arduinoLCD\test\Pain Drain\libraries\lvgl\src\extra\widgets\spinbox/lv_spinbox.c **** 
ARM GAS  C:\Users\haske\AppData\Local\Temp\ccEbAwQn.s 			page 7


 316:..\..\..\arduinoLCD\test\Pain Drain\libraries\lvgl\src\extra\widgets\spinbox/lv_spinbox.c **** /**********************
 317:..\..\..\arduinoLCD\test\Pain Drain\libraries\lvgl\src\extra\widgets\spinbox/lv_spinbox.c ****  *   STATIC FUNCTIONS
 318:..\..\..\arduinoLCD\test\Pain Drain\libraries\lvgl\src\extra\widgets\spinbox/lv_spinbox.c ****  **********************/
 319:..\..\..\arduinoLCD\test\Pain Drain\libraries\lvgl\src\extra\widgets\spinbox/lv_spinbox.c **** 
 320:..\..\..\arduinoLCD\test\Pain Drain\libraries\lvgl\src\extra\widgets\spinbox/lv_spinbox.c **** static void lv_spinbox_constructor(const lv_obj_class_t * class_p, lv_obj_t * obj)
 321:..\..\..\arduinoLCD\test\Pain Drain\libraries\lvgl\src\extra\widgets\spinbox/lv_spinbox.c **** {
 322:..\..\..\arduinoLCD\test\Pain Drain\libraries\lvgl\src\extra\widgets\spinbox/lv_spinbox.c ****     LV_UNUSED(class_p);
 323:..\..\..\arduinoLCD\test\Pain Drain\libraries\lvgl\src\extra\widgets\spinbox/lv_spinbox.c ****     LV_LOG_TRACE("begin");
 324:..\..\..\arduinoLCD\test\Pain Drain\libraries\lvgl\src\extra\widgets\spinbox/lv_spinbox.c **** 
 325:..\..\..\arduinoLCD\test\Pain Drain\libraries\lvgl\src\extra\widgets\spinbox/lv_spinbox.c ****     lv_spinbox_t * spinbox = (lv_spinbox_t *)obj;
 326:..\..\..\arduinoLCD\test\Pain Drain\libraries\lvgl\src\extra\widgets\spinbox/lv_spinbox.c **** 
 327:..\..\..\arduinoLCD\test\Pain Drain\libraries\lvgl\src\extra\widgets\spinbox/lv_spinbox.c ****     /*Initialize the allocated 'ext'*/
 328:..\..\..\arduinoLCD\test\Pain Drain\libraries\lvgl\src\extra\widgets\spinbox/lv_spinbox.c ****     spinbox->value              = 0;
 329:..\..\..\arduinoLCD\test\Pain Drain\libraries\lvgl\src\extra\widgets\spinbox/lv_spinbox.c ****     spinbox->dec_point_pos      = 0;
 330:..\..\..\arduinoLCD\test\Pain Drain\libraries\lvgl\src\extra\widgets\spinbox/lv_spinbox.c ****     spinbox->digit_count        = 5;
 331:..\..\..\arduinoLCD\test\Pain Drain\libraries\lvgl\src\extra\widgets\spinbox/lv_spinbox.c ****     spinbox->step               = 1;
 332:..\..\..\arduinoLCD\test\Pain Drain\libraries\lvgl\src\extra\widgets\spinbox/lv_spinbox.c ****     spinbox->range_max          = 99999;
 333:..\..\..\arduinoLCD\test\Pain Drain\libraries\lvgl\src\extra\widgets\spinbox/lv_spinbox.c ****     spinbox->range_min          = -99999;
 334:..\..\..\arduinoLCD\test\Pain Drain\libraries\lvgl\src\extra\widgets\spinbox/lv_spinbox.c ****     spinbox->rollover           = false;
 335:..\..\..\arduinoLCD\test\Pain Drain\libraries\lvgl\src\extra\widgets\spinbox/lv_spinbox.c ****     spinbox->digit_step_dir     = LV_DIR_RIGHT;
 336:..\..\..\arduinoLCD\test\Pain Drain\libraries\lvgl\src\extra\widgets\spinbox/lv_spinbox.c **** 
 337:..\..\..\arduinoLCD\test\Pain Drain\libraries\lvgl\src\extra\widgets\spinbox/lv_spinbox.c ****     lv_textarea_set_one_line(obj, true);
 338:..\..\..\arduinoLCD\test\Pain Drain\libraries\lvgl\src\extra\widgets\spinbox/lv_spinbox.c ****     lv_textarea_set_cursor_click_pos(obj, true);
 339:..\..\..\arduinoLCD\test\Pain Drain\libraries\lvgl\src\extra\widgets\spinbox/lv_spinbox.c **** 
 340:..\..\..\arduinoLCD\test\Pain Drain\libraries\lvgl\src\extra\widgets\spinbox/lv_spinbox.c ****     lv_spinbox_updatevalue(obj);
 341:..\..\..\arduinoLCD\test\Pain Drain\libraries\lvgl\src\extra\widgets\spinbox/lv_spinbox.c **** 
 342:..\..\..\arduinoLCD\test\Pain Drain\libraries\lvgl\src\extra\widgets\spinbox/lv_spinbox.c ****     LV_LOG_TRACE("Spinbox constructor finished");
 343:..\..\..\arduinoLCD\test\Pain Drain\libraries\lvgl\src\extra\widgets\spinbox/lv_spinbox.c **** }
 344:..\..\..\arduinoLCD\test\Pain Drain\libraries\lvgl\src\extra\widgets\spinbox/lv_spinbox.c **** 
 345:..\..\..\arduinoLCD\test\Pain Drain\libraries\lvgl\src\extra\widgets\spinbox/lv_spinbox.c **** static void lv_spinbox_event(const lv_obj_class_t * class_p, lv_event_t * e)
 346:..\..\..\arduinoLCD\test\Pain Drain\libraries\lvgl\src\extra\widgets\spinbox/lv_spinbox.c **** {
 347:..\..\..\arduinoLCD\test\Pain Drain\libraries\lvgl\src\extra\widgets\spinbox/lv_spinbox.c ****     LV_UNUSED(class_p);
 348:..\..\..\arduinoLCD\test\Pain Drain\libraries\lvgl\src\extra\widgets\spinbox/lv_spinbox.c **** 
 349:..\..\..\arduinoLCD\test\Pain Drain\libraries\lvgl\src\extra\widgets\spinbox/lv_spinbox.c ****     /*Call the ancestor's event handler*/
 350:..\..\..\arduinoLCD\test\Pain Drain\libraries\lvgl\src\extra\widgets\spinbox/lv_spinbox.c ****     lv_res_t res = LV_RES_OK;
 351:..\..\..\arduinoLCD\test\Pain Drain\libraries\lvgl\src\extra\widgets\spinbox/lv_spinbox.c ****     res = lv_obj_event_base(MY_CLASS, e);
 352:..\..\..\arduinoLCD\test\Pain Drain\libraries\lvgl\src\extra\widgets\spinbox/lv_spinbox.c ****     if(res != LV_RES_OK) return;
 353:..\..\..\arduinoLCD\test\Pain Drain\libraries\lvgl\src\extra\widgets\spinbox/lv_spinbox.c **** 
 354:..\..\..\arduinoLCD\test\Pain Drain\libraries\lvgl\src\extra\widgets\spinbox/lv_spinbox.c ****     lv_event_code_t code = lv_event_get_code(e);
 355:..\..\..\arduinoLCD\test\Pain Drain\libraries\lvgl\src\extra\widgets\spinbox/lv_spinbox.c ****     lv_obj_t * obj = lv_event_get_target(e);
 356:..\..\..\arduinoLCD\test\Pain Drain\libraries\lvgl\src\extra\widgets\spinbox/lv_spinbox.c ****     lv_spinbox_t * spinbox = (lv_spinbox_t *)obj;
 357:..\..\..\arduinoLCD\test\Pain Drain\libraries\lvgl\src\extra\widgets\spinbox/lv_spinbox.c ****     if(code == LV_EVENT_RELEASED) {
 358:..\..\..\arduinoLCD\test\Pain Drain\libraries\lvgl\src\extra\widgets\spinbox/lv_spinbox.c ****         /*If released with an ENCODER then move to the next digit*/
 359:..\..\..\arduinoLCD\test\Pain Drain\libraries\lvgl\src\extra\widgets\spinbox/lv_spinbox.c ****         lv_indev_t * indev = lv_indev_get_act();
 360:..\..\..\arduinoLCD\test\Pain Drain\libraries\lvgl\src\extra\widgets\spinbox/lv_spinbox.c ****         if(lv_indev_get_type(indev) == LV_INDEV_TYPE_ENCODER) {
 361:..\..\..\arduinoLCD\test\Pain Drain\libraries\lvgl\src\extra\widgets\spinbox/lv_spinbox.c ****             if(lv_group_get_editing(lv_obj_get_group(obj))) {
 362:..\..\..\arduinoLCD\test\Pain Drain\libraries\lvgl\src\extra\widgets\spinbox/lv_spinbox.c ****                 if(spinbox->digit_count > 1) {
 363:..\..\..\arduinoLCD\test\Pain Drain\libraries\lvgl\src\extra\widgets\spinbox/lv_spinbox.c ****                     if(spinbox->digit_step_dir == LV_DIR_RIGHT) {
 364:..\..\..\arduinoLCD\test\Pain Drain\libraries\lvgl\src\extra\widgets\spinbox/lv_spinbox.c ****                         if(spinbox->step > 1) {
 365:..\..\..\arduinoLCD\test\Pain Drain\libraries\lvgl\src\extra\widgets\spinbox/lv_spinbox.c ****                             lv_spinbox_step_next(obj);
 366:..\..\..\arduinoLCD\test\Pain Drain\libraries\lvgl\src\extra\widgets\spinbox/lv_spinbox.c ****                         }
 367:..\..\..\arduinoLCD\test\Pain Drain\libraries\lvgl\src\extra\widgets\spinbox/lv_spinbox.c ****                         else {
 368:..\..\..\arduinoLCD\test\Pain Drain\libraries\lvgl\src\extra\widgets\spinbox/lv_spinbox.c ****                             /*Restart from the MSB*/
 369:..\..\..\arduinoLCD\test\Pain Drain\libraries\lvgl\src\extra\widgets\spinbox/lv_spinbox.c ****                             spinbox->step = lv_pow(10, spinbox->digit_count - 2);
 370:..\..\..\arduinoLCD\test\Pain Drain\libraries\lvgl\src\extra\widgets\spinbox/lv_spinbox.c ****                             lv_spinbox_step_prev(obj);
 371:..\..\..\arduinoLCD\test\Pain Drain\libraries\lvgl\src\extra\widgets\spinbox/lv_spinbox.c ****                         }
 372:..\..\..\arduinoLCD\test\Pain Drain\libraries\lvgl\src\extra\widgets\spinbox/lv_spinbox.c ****                     }
ARM GAS  C:\Users\haske\AppData\Local\Temp\ccEbAwQn.s 			page 8


 373:..\..\..\arduinoLCD\test\Pain Drain\libraries\lvgl\src\extra\widgets\spinbox/lv_spinbox.c ****                     else {
 374:..\..\..\arduinoLCD\test\Pain Drain\libraries\lvgl\src\extra\widgets\spinbox/lv_spinbox.c ****                         if(spinbox->step < lv_pow(10, spinbox->digit_count - 1)) {
 375:..\..\..\arduinoLCD\test\Pain Drain\libraries\lvgl\src\extra\widgets\spinbox/lv_spinbox.c ****                             lv_spinbox_step_prev(obj);
 376:..\..\..\arduinoLCD\test\Pain Drain\libraries\lvgl\src\extra\widgets\spinbox/lv_spinbox.c ****                         }
 377:..\..\..\arduinoLCD\test\Pain Drain\libraries\lvgl\src\extra\widgets\spinbox/lv_spinbox.c ****                         else {
 378:..\..\..\arduinoLCD\test\Pain Drain\libraries\lvgl\src\extra\widgets\spinbox/lv_spinbox.c ****                             /*Restart from the LSB*/
 379:..\..\..\arduinoLCD\test\Pain Drain\libraries\lvgl\src\extra\widgets\spinbox/lv_spinbox.c ****                             spinbox->step = 10;
 380:..\..\..\arduinoLCD\test\Pain Drain\libraries\lvgl\src\extra\widgets\spinbox/lv_spinbox.c ****                             lv_spinbox_step_next(obj);
 381:..\..\..\arduinoLCD\test\Pain Drain\libraries\lvgl\src\extra\widgets\spinbox/lv_spinbox.c ****                         }
 382:..\..\..\arduinoLCD\test\Pain Drain\libraries\lvgl\src\extra\widgets\spinbox/lv_spinbox.c ****                     }
 383:..\..\..\arduinoLCD\test\Pain Drain\libraries\lvgl\src\extra\widgets\spinbox/lv_spinbox.c ****                 }
 384:..\..\..\arduinoLCD\test\Pain Drain\libraries\lvgl\src\extra\widgets\spinbox/lv_spinbox.c ****             }
 385:..\..\..\arduinoLCD\test\Pain Drain\libraries\lvgl\src\extra\widgets\spinbox/lv_spinbox.c ****         }
 386:..\..\..\arduinoLCD\test\Pain Drain\libraries\lvgl\src\extra\widgets\spinbox/lv_spinbox.c ****         /*The cursor has been positioned to a digit.
 387:..\..\..\arduinoLCD\test\Pain Drain\libraries\lvgl\src\extra\widgets\spinbox/lv_spinbox.c ****          * Set `step` accordingly*/
 388:..\..\..\arduinoLCD\test\Pain Drain\libraries\lvgl\src\extra\widgets\spinbox/lv_spinbox.c ****         else {
 389:..\..\..\arduinoLCD\test\Pain Drain\libraries\lvgl\src\extra\widgets\spinbox/lv_spinbox.c ****             const char * txt = lv_textarea_get_text(obj);
 390:..\..\..\arduinoLCD\test\Pain Drain\libraries\lvgl\src\extra\widgets\spinbox/lv_spinbox.c ****             size_t txt_len = strlen(txt);
 391:..\..\..\arduinoLCD\test\Pain Drain\libraries\lvgl\src\extra\widgets\spinbox/lv_spinbox.c **** 
 392:..\..\..\arduinoLCD\test\Pain Drain\libraries\lvgl\src\extra\widgets\spinbox/lv_spinbox.c ****             if(txt[spinbox->ta.cursor.pos] == '.') {
 393:..\..\..\arduinoLCD\test\Pain Drain\libraries\lvgl\src\extra\widgets\spinbox/lv_spinbox.c ****                 lv_textarea_cursor_left(obj);
 394:..\..\..\arduinoLCD\test\Pain Drain\libraries\lvgl\src\extra\widgets\spinbox/lv_spinbox.c ****             }
 395:..\..\..\arduinoLCD\test\Pain Drain\libraries\lvgl\src\extra\widgets\spinbox/lv_spinbox.c ****             else if(spinbox->ta.cursor.pos == (uint32_t)txt_len) {
 396:..\..\..\arduinoLCD\test\Pain Drain\libraries\lvgl\src\extra\widgets\spinbox/lv_spinbox.c ****                 lv_textarea_set_cursor_pos(obj, txt_len - 1);
 397:..\..\..\arduinoLCD\test\Pain Drain\libraries\lvgl\src\extra\widgets\spinbox/lv_spinbox.c ****             }
 398:..\..\..\arduinoLCD\test\Pain Drain\libraries\lvgl\src\extra\widgets\spinbox/lv_spinbox.c ****             else if(spinbox->ta.cursor.pos == 0 && spinbox->range_min < 0) {
 399:..\..\..\arduinoLCD\test\Pain Drain\libraries\lvgl\src\extra\widgets\spinbox/lv_spinbox.c ****                 lv_textarea_set_cursor_pos(obj, 1);
 400:..\..\..\arduinoLCD\test\Pain Drain\libraries\lvgl\src\extra\widgets\spinbox/lv_spinbox.c ****             }
 401:..\..\..\arduinoLCD\test\Pain Drain\libraries\lvgl\src\extra\widgets\spinbox/lv_spinbox.c **** 
 402:..\..\..\arduinoLCD\test\Pain Drain\libraries\lvgl\src\extra\widgets\spinbox/lv_spinbox.c ****             size_t len = spinbox->digit_count - 1;
 403:..\..\..\arduinoLCD\test\Pain Drain\libraries\lvgl\src\extra\widgets\spinbox/lv_spinbox.c ****             uint16_t cp = spinbox->ta.cursor.pos;
 404:..\..\..\arduinoLCD\test\Pain Drain\libraries\lvgl\src\extra\widgets\spinbox/lv_spinbox.c **** 
 405:..\..\..\arduinoLCD\test\Pain Drain\libraries\lvgl\src\extra\widgets\spinbox/lv_spinbox.c ****             if(spinbox->ta.cursor.pos > spinbox->dec_point_pos && spinbox->dec_point_pos != 0) cp--
 406:..\..\..\arduinoLCD\test\Pain Drain\libraries\lvgl\src\extra\widgets\spinbox/lv_spinbox.c ****             uint32_t pos = len - cp;
 407:..\..\..\arduinoLCD\test\Pain Drain\libraries\lvgl\src\extra\widgets\spinbox/lv_spinbox.c **** 
 408:..\..\..\arduinoLCD\test\Pain Drain\libraries\lvgl\src\extra\widgets\spinbox/lv_spinbox.c ****             if(spinbox->range_min < 0) pos++;
 409:..\..\..\arduinoLCD\test\Pain Drain\libraries\lvgl\src\extra\widgets\spinbox/lv_spinbox.c **** 
 410:..\..\..\arduinoLCD\test\Pain Drain\libraries\lvgl\src\extra\widgets\spinbox/lv_spinbox.c ****             spinbox->step = 1;
 411:..\..\..\arduinoLCD\test\Pain Drain\libraries\lvgl\src\extra\widgets\spinbox/lv_spinbox.c ****             uint16_t i;
 412:..\..\..\arduinoLCD\test\Pain Drain\libraries\lvgl\src\extra\widgets\spinbox/lv_spinbox.c ****             for(i = 0; i < pos; i++) spinbox->step *= 10;
 413:..\..\..\arduinoLCD\test\Pain Drain\libraries\lvgl\src\extra\widgets\spinbox/lv_spinbox.c ****         }
 414:..\..\..\arduinoLCD\test\Pain Drain\libraries\lvgl\src\extra\widgets\spinbox/lv_spinbox.c ****     }
 415:..\..\..\arduinoLCD\test\Pain Drain\libraries\lvgl\src\extra\widgets\spinbox/lv_spinbox.c ****     else if(code == LV_EVENT_KEY) {
 416:..\..\..\arduinoLCD\test\Pain Drain\libraries\lvgl\src\extra\widgets\spinbox/lv_spinbox.c ****         lv_indev_type_t indev_type = lv_indev_get_type(lv_indev_get_act());
 417:..\..\..\arduinoLCD\test\Pain Drain\libraries\lvgl\src\extra\widgets\spinbox/lv_spinbox.c **** 
 418:..\..\..\arduinoLCD\test\Pain Drain\libraries\lvgl\src\extra\widgets\spinbox/lv_spinbox.c ****         uint32_t c = *((uint32_t *)lv_event_get_param(e)); /*uint32_t because can be UTF-8*/
 419:..\..\..\arduinoLCD\test\Pain Drain\libraries\lvgl\src\extra\widgets\spinbox/lv_spinbox.c ****         if(c == LV_KEY_RIGHT) {
 420:..\..\..\arduinoLCD\test\Pain Drain\libraries\lvgl\src\extra\widgets\spinbox/lv_spinbox.c ****             if(indev_type == LV_INDEV_TYPE_ENCODER)
 421:..\..\..\arduinoLCD\test\Pain Drain\libraries\lvgl\src\extra\widgets\spinbox/lv_spinbox.c ****                 lv_spinbox_increment(obj);
 422:..\..\..\arduinoLCD\test\Pain Drain\libraries\lvgl\src\extra\widgets\spinbox/lv_spinbox.c ****             else
 423:..\..\..\arduinoLCD\test\Pain Drain\libraries\lvgl\src\extra\widgets\spinbox/lv_spinbox.c ****                 lv_spinbox_step_next(obj);
 424:..\..\..\arduinoLCD\test\Pain Drain\libraries\lvgl\src\extra\widgets\spinbox/lv_spinbox.c ****         }
 425:..\..\..\arduinoLCD\test\Pain Drain\libraries\lvgl\src\extra\widgets\spinbox/lv_spinbox.c ****         else if(c == LV_KEY_LEFT) {
 426:..\..\..\arduinoLCD\test\Pain Drain\libraries\lvgl\src\extra\widgets\spinbox/lv_spinbox.c ****             if(indev_type == LV_INDEV_TYPE_ENCODER)
 427:..\..\..\arduinoLCD\test\Pain Drain\libraries\lvgl\src\extra\widgets\spinbox/lv_spinbox.c ****                 lv_spinbox_decrement(obj);
 428:..\..\..\arduinoLCD\test\Pain Drain\libraries\lvgl\src\extra\widgets\spinbox/lv_spinbox.c ****             else
 429:..\..\..\arduinoLCD\test\Pain Drain\libraries\lvgl\src\extra\widgets\spinbox/lv_spinbox.c ****                 lv_spinbox_step_prev(obj);
ARM GAS  C:\Users\haske\AppData\Local\Temp\ccEbAwQn.s 			page 9


 430:..\..\..\arduinoLCD\test\Pain Drain\libraries\lvgl\src\extra\widgets\spinbox/lv_spinbox.c ****         }
 431:..\..\..\arduinoLCD\test\Pain Drain\libraries\lvgl\src\extra\widgets\spinbox/lv_spinbox.c ****         else if(c == LV_KEY_UP) {
 432:..\..\..\arduinoLCD\test\Pain Drain\libraries\lvgl\src\extra\widgets\spinbox/lv_spinbox.c ****             lv_spinbox_increment(obj);
 433:..\..\..\arduinoLCD\test\Pain Drain\libraries\lvgl\src\extra\widgets\spinbox/lv_spinbox.c ****         }
 434:..\..\..\arduinoLCD\test\Pain Drain\libraries\lvgl\src\extra\widgets\spinbox/lv_spinbox.c ****         else if(c == LV_KEY_DOWN) {
 435:..\..\..\arduinoLCD\test\Pain Drain\libraries\lvgl\src\extra\widgets\spinbox/lv_spinbox.c ****             lv_spinbox_decrement(obj);
 436:..\..\..\arduinoLCD\test\Pain Drain\libraries\lvgl\src\extra\widgets\spinbox/lv_spinbox.c ****         }
 437:..\..\..\arduinoLCD\test\Pain Drain\libraries\lvgl\src\extra\widgets\spinbox/lv_spinbox.c ****         else {
 438:..\..\..\arduinoLCD\test\Pain Drain\libraries\lvgl\src\extra\widgets\spinbox/lv_spinbox.c ****             lv_textarea_add_char(obj, c);
 439:..\..\..\arduinoLCD\test\Pain Drain\libraries\lvgl\src\extra\widgets\spinbox/lv_spinbox.c ****         }
 440:..\..\..\arduinoLCD\test\Pain Drain\libraries\lvgl\src\extra\widgets\spinbox/lv_spinbox.c ****     }
 441:..\..\..\arduinoLCD\test\Pain Drain\libraries\lvgl\src\extra\widgets\spinbox/lv_spinbox.c **** }
 442:..\..\..\arduinoLCD\test\Pain Drain\libraries\lvgl\src\extra\widgets\spinbox/lv_spinbox.c **** 
 443:..\..\..\arduinoLCD\test\Pain Drain\libraries\lvgl\src\extra\widgets\spinbox/lv_spinbox.c **** static void lv_spinbox_updatevalue(lv_obj_t * obj)
 444:..\..\..\arduinoLCD\test\Pain Drain\libraries\lvgl\src\extra\widgets\spinbox/lv_spinbox.c **** {
  28              		.loc 1 444 0
  29              		.cfi_startproc
  30              		@ args = 0, pretend = 0, frame = 40
  31              		@ frame_needed = 0, uses_anonymous_args = 0
  32              	.LVL0:
  33 0000 F0B5     		push	{r4, r5, r6, r7, lr}
  34              		.cfi_def_cfa_offset 20
  35              		.cfi_offset 4, -20
  36              		.cfi_offset 5, -16
  37              		.cfi_offset 6, -12
  38              		.cfi_offset 7, -8
  39              		.cfi_offset 14, -4
  40 0002 4746     		mov	r7, r8
  41 0004 80B4     		push	{r7}
  42              		.cfi_def_cfa_offset 24
  43              		.cfi_offset 8, -24
  44 0006 8AB0     		sub	sp, sp, #40
  45              		.cfi_def_cfa_offset 64
  46 0008 0600     		movs	r6, r0
  47              	.LVL1:
 445:..\..\..\arduinoLCD\test\Pain Drain\libraries\lvgl\src\extra\widgets\spinbox/lv_spinbox.c ****     lv_spinbox_t * spinbox = (lv_spinbox_t *)obj;
 446:..\..\..\arduinoLCD\test\Pain Drain\libraries\lvgl\src\extra\widgets\spinbox/lv_spinbox.c **** 
 447:..\..\..\arduinoLCD\test\Pain Drain\libraries\lvgl\src\extra\widgets\spinbox/lv_spinbox.c ****     char buf[LV_SPINBOX_MAX_DIGIT_COUNT + 8];
 448:..\..\..\arduinoLCD\test\Pain Drain\libraries\lvgl\src\extra\widgets\spinbox/lv_spinbox.c ****     lv_memset_00(buf, sizeof(buf));
  48              		.loc 1 448 0
  49 000a 1221     		movs	r1, #18
  50 000c 05A8     		add	r0, sp, #20
  51              	.LVL2:
  52 000e FFF7FEFF 		bl	lv_memset_00
  53              	.LVL3:
 449:..\..\..\arduinoLCD\test\Pain Drain\libraries\lvgl\src\extra\widgets\spinbox/lv_spinbox.c ****     char * buf_p = buf;
 450:..\..\..\arduinoLCD\test\Pain Drain\libraries\lvgl\src\extra\widgets\spinbox/lv_spinbox.c ****     uint8_t cur_shift_left = 0;
 451:..\..\..\arduinoLCD\test\Pain Drain\libraries\lvgl\src\extra\widgets\spinbox/lv_spinbox.c **** 
 452:..\..\..\arduinoLCD\test\Pain Drain\libraries\lvgl\src\extra\widgets\spinbox/lv_spinbox.c ****     if(spinbox->range_min < 0) {  // hide sign if there are only positive values
  54              		.loc 1 452 0
  55 0012 F36E     		ldr	r3, [r6, #108]
  56 0014 002B     		cmp	r3, #0
  57 0016 0CDA     		bge	.L19
 453:..\..\..\arduinoLCD\test\Pain Drain\libraries\lvgl\src\extra\widgets\spinbox/lv_spinbox.c ****         /*Add the sign*/
 454:..\..\..\arduinoLCD\test\Pain Drain\libraries\lvgl\src\extra\widgets\spinbox/lv_spinbox.c ****         (*buf_p) = spinbox->value >= 0 ? '+' : '-';
  58              		.loc 1 454 0
  59 0018 736E     		ldr	r3, [r6, #100]
ARM GAS  C:\Users\haske\AppData\Local\Temp\ccEbAwQn.s 			page 10


  60 001a 002B     		cmp	r3, #0
  61 001c 01DB     		blt	.L20
  62 001e 2B22     		movs	r2, #43
  63 0020 00E0     		b	.L3
  64              	.L20:
  65 0022 2D22     		movs	r2, #45
  66              	.L3:
  67              		.loc 1 454 0 is_stmt 0 discriminator 4
  68 0024 05AB     		add	r3, sp, #20
  69              	.LVL4:
  70 0026 1A70     		strb	r2, [r3]
  71              	.LVL5:
 450:..\..\..\arduinoLCD\test\Pain Drain\libraries\lvgl\src\extra\widgets\spinbox/lv_spinbox.c **** 
  72              		.loc 1 450 0 is_stmt 1 discriminator 4
  73 0028 0023     		movs	r3, #0
  74 002a 9846     		mov	r8, r3
 455:..\..\..\arduinoLCD\test\Pain Drain\libraries\lvgl\src\extra\widgets\spinbox/lv_spinbox.c ****         buf_p++;
  75              		.loc 1 455 0 discriminator 4
  76 002c 1524     		movs	r4, #21
  77 002e 6C44     		add	r4, r4, sp
  78 0030 02E0     		b	.L2
  79              	.LVL6:
  80              	.L19:
 456:..\..\..\arduinoLCD\test\Pain Drain\libraries\lvgl\src\extra\widgets\spinbox/lv_spinbox.c ****     }
 457:..\..\..\arduinoLCD\test\Pain Drain\libraries\lvgl\src\extra\widgets\spinbox/lv_spinbox.c ****     else {
 458:..\..\..\arduinoLCD\test\Pain Drain\libraries\lvgl\src\extra\widgets\spinbox/lv_spinbox.c ****         /*Cursor need shift to left*/
 459:..\..\..\arduinoLCD\test\Pain Drain\libraries\lvgl\src\extra\widgets\spinbox/lv_spinbox.c ****         cur_shift_left++;
  81              		.loc 1 459 0
  82 0032 0123     		movs	r3, #1
  83 0034 9846     		mov	r8, r3
 449:..\..\..\arduinoLCD\test\Pain Drain\libraries\lvgl\src\extra\widgets\spinbox/lv_spinbox.c ****     uint8_t cur_shift_left = 0;
  84              		.loc 1 449 0
  85 0036 05AC     		add	r4, sp, #20
  86              	.LVL7:
  87              	.L2:
 460:..\..\..\arduinoLCD\test\Pain Drain\libraries\lvgl\src\extra\widgets\spinbox/lv_spinbox.c ****     }
 461:..\..\..\arduinoLCD\test\Pain Drain\libraries\lvgl\src\extra\widgets\spinbox/lv_spinbox.c **** 
 462:..\..\..\arduinoLCD\test\Pain Drain\libraries\lvgl\src\extra\widgets\spinbox/lv_spinbox.c ****     int32_t i;
 463:..\..\..\arduinoLCD\test\Pain Drain\libraries\lvgl\src\extra\widgets\spinbox/lv_spinbox.c ****     char digits[LV_SPINBOX_MAX_DIGIT_COUNT + 4];
 464:..\..\..\arduinoLCD\test\Pain Drain\libraries\lvgl\src\extra\widgets\spinbox/lv_spinbox.c ****     /*Convert the numbers to string (the sign is already handled so always covert positive number)*
 465:..\..\..\arduinoLCD\test\Pain Drain\libraries\lvgl\src\extra\widgets\spinbox/lv_spinbox.c ****     lv_snprintf(digits, sizeof(digits), "%" LV_PRId32, LV_ABS(spinbox->value));
  88              		.loc 1 465 0
  89 0038 736E     		ldr	r3, [r6, #100]
  90 003a DA17     		asrs	r2, r3, #31
  91 003c 9B18     		adds	r3, r3, r2
  92 003e 5340     		eors	r3, r2
  93 0040 344A     		ldr	r2, .L21
  94 0042 0E21     		movs	r1, #14
  95 0044 01A8     		add	r0, sp, #4
  96 0046 FFF7FEFF 		bl	lv_snprintf
  97              	.LVL8:
 466:..\..\..\arduinoLCD\test\Pain Drain\libraries\lvgl\src\extra\widgets\spinbox/lv_spinbox.c **** 
 467:..\..\..\arduinoLCD\test\Pain Drain\libraries\lvgl\src\extra\widgets\spinbox/lv_spinbox.c ****     /*Add leading zeros*/
 468:..\..\..\arduinoLCD\test\Pain Drain\libraries\lvgl\src\extra\widgets\spinbox/lv_spinbox.c ****     int lz_cnt = spinbox->digit_count - (int)strlen(digits);
  98              		.loc 1 468 0
  99 004a 7423     		movs	r3, #116
 100 004c F55C     		ldrb	r5, [r6, r3]
ARM GAS  C:\Users\haske\AppData\Local\Temp\ccEbAwQn.s 			page 11


 101 004e 2D07     		lsls	r5, r5, #28
 102 0050 2D0F     		lsrs	r5, r5, #28
 103 0052 01A8     		add	r0, sp, #4
 104 0054 FFF7FEFF 		bl	strlen
 105              	.LVL9:
 106 0058 2A1A     		subs	r2, r5, r0
 107              	.LVL10:
 469:..\..\..\arduinoLCD\test\Pain Drain\libraries\lvgl\src\extra\widgets\spinbox/lv_spinbox.c ****     if(lz_cnt > 0) {
 108              		.loc 1 469 0
 109 005a 002A     		cmp	r2, #0
 110 005c 11DD     		ble	.L4
 470:..\..\..\arduinoLCD\test\Pain Drain\libraries\lvgl\src\extra\widgets\spinbox/lv_spinbox.c ****         for(i = (uint16_t)strlen(digits); i >= 0; i--) {
 111              		.loc 1 470 0
 112 005e 0004     		lsls	r0, r0, #16
 113 0060 000C     		lsrs	r0, r0, #16
 114              	.LVL11:
 115 0062 04E0     		b	.L5
 116              	.L6:
 471:..\..\..\arduinoLCD\test\Pain Drain\libraries\lvgl\src\extra\widgets\spinbox/lv_spinbox.c ****             digits[i + lz_cnt] = digits[i];
 117              		.loc 1 471 0 discriminator 3
 118 0064 8118     		adds	r1, r0, r2
 119 0066 01AB     		add	r3, sp, #4
 120 0068 1F5C     		ldrb	r7, [r3, r0]
 121 006a 5F54     		strb	r7, [r3, r1]
 470:..\..\..\arduinoLCD\test\Pain Drain\libraries\lvgl\src\extra\widgets\spinbox/lv_spinbox.c ****         for(i = (uint16_t)strlen(digits); i >= 0; i--) {
 122              		.loc 1 470 0 discriminator 3
 123 006c 0138     		subs	r0, r0, #1
 124              	.LVL12:
 125              	.L5:
 470:..\..\..\arduinoLCD\test\Pain Drain\libraries\lvgl\src\extra\widgets\spinbox/lv_spinbox.c ****         for(i = (uint16_t)strlen(digits); i >= 0; i--) {
 126              		.loc 1 470 0 is_stmt 0 discriminator 1
 127 006e 0028     		cmp	r0, #0
 128 0070 F8DA     		bge	.L6
 129 0072 0023     		movs	r3, #0
 130 0074 03E0     		b	.L7
 131              	.LVL13:
 132              	.L8:
 472:..\..\..\arduinoLCD\test\Pain Drain\libraries\lvgl\src\extra\widgets\spinbox/lv_spinbox.c ****         }
 473:..\..\..\arduinoLCD\test\Pain Drain\libraries\lvgl\src\extra\widgets\spinbox/lv_spinbox.c ****         for(i = 0; i < lz_cnt; i++) {
 474:..\..\..\arduinoLCD\test\Pain Drain\libraries\lvgl\src\extra\widgets\spinbox/lv_spinbox.c ****             digits[i] = '0';
 133              		.loc 1 474 0 is_stmt 1 discriminator 3
 134 0076 3020     		movs	r0, #48
 135 0078 01A9     		add	r1, sp, #4
 136 007a C854     		strb	r0, [r1, r3]
 473:..\..\..\arduinoLCD\test\Pain Drain\libraries\lvgl\src\extra\widgets\spinbox/lv_spinbox.c ****             digits[i] = '0';
 137              		.loc 1 473 0 discriminator 3
 138 007c 0133     		adds	r3, r3, #1
 139              	.LVL14:
 140              	.L7:
 473:..\..\..\arduinoLCD\test\Pain Drain\libraries\lvgl\src\extra\widgets\spinbox/lv_spinbox.c ****             digits[i] = '0';
 141              		.loc 1 473 0 is_stmt 0 discriminator 1
 142 007e 9342     		cmp	r3, r2
 143 0080 F9DB     		blt	.L8
 144              	.LVL15:
 145              	.L4:
 475:..\..\..\arduinoLCD\test\Pain Drain\libraries\lvgl\src\extra\widgets\spinbox/lv_spinbox.c ****         }
 476:..\..\..\arduinoLCD\test\Pain Drain\libraries\lvgl\src\extra\widgets\spinbox/lv_spinbox.c ****     }
ARM GAS  C:\Users\haske\AppData\Local\Temp\ccEbAwQn.s 			page 12


 477:..\..\..\arduinoLCD\test\Pain Drain\libraries\lvgl\src\extra\widgets\spinbox/lv_spinbox.c **** 
 478:..\..\..\arduinoLCD\test\Pain Drain\libraries\lvgl\src\extra\widgets\spinbox/lv_spinbox.c ****     int32_t intDigits;
 479:..\..\..\arduinoLCD\test\Pain Drain\libraries\lvgl\src\extra\widgets\spinbox/lv_spinbox.c ****     intDigits = (spinbox->dec_point_pos == 0) ? spinbox->digit_count : spinbox->dec_point_pos;
 146              		.loc 1 479 0 is_stmt 1
 147 0082 7423     		movs	r3, #116
 148 0084 F35C     		ldrb	r3, [r6, r3]
 149 0086 0F22     		movs	r2, #15
 150              	.LVL16:
 151 0088 9343     		bics	r3, r2
 152 008a 02D0     		beq	.L9
 153              		.loc 1 479 0 is_stmt 0 discriminator 2
 154 008c 7423     		movs	r3, #116
 155 008e F55C     		ldrb	r5, [r6, r3]
 156 0090 2D09     		lsrs	r5, r5, #4
 157              	.L9:
 158              	.LVL17:
 480:..\..\..\arduinoLCD\test\Pain Drain\libraries\lvgl\src\extra\widgets\spinbox/lv_spinbox.c **** 
 481:..\..\..\arduinoLCD\test\Pain Drain\libraries\lvgl\src\extra\widgets\spinbox/lv_spinbox.c ****     /*Add the decimal part*/
 482:..\..\..\arduinoLCD\test\Pain Drain\libraries\lvgl\src\extra\widgets\spinbox/lv_spinbox.c ****     for(i = 0; i < intDigits && digits[i] != '\0'; i++) {
 159              		.loc 1 482 0 is_stmt 1 discriminator 4
 160 0092 0023     		movs	r3, #0
 161 0094 02E0     		b	.L10
 162              	.LVL18:
 163              	.L12:
 483:..\..\..\arduinoLCD\test\Pain Drain\libraries\lvgl\src\extra\widgets\spinbox/lv_spinbox.c ****         (*buf_p) = digits[i];
 164              		.loc 1 483 0 discriminator 4
 165 0096 2270     		strb	r2, [r4]
 484:..\..\..\arduinoLCD\test\Pain Drain\libraries\lvgl\src\extra\widgets\spinbox/lv_spinbox.c ****         buf_p++;
 166              		.loc 1 484 0 discriminator 4
 167 0098 0134     		adds	r4, r4, #1
 168              	.LVL19:
 482:..\..\..\arduinoLCD\test\Pain Drain\libraries\lvgl\src\extra\widgets\spinbox/lv_spinbox.c ****         (*buf_p) = digits[i];
 169              		.loc 1 482 0 discriminator 4
 170 009a 0133     		adds	r3, r3, #1
 171              	.LVL20:
 172              	.L10:
 482:..\..\..\arduinoLCD\test\Pain Drain\libraries\lvgl\src\extra\widgets\spinbox/lv_spinbox.c ****         (*buf_p) = digits[i];
 173              		.loc 1 482 0 is_stmt 0 discriminator 1
 174 009c AB42     		cmp	r3, r5
 175 009e 03DA     		bge	.L11
 482:..\..\..\arduinoLCD\test\Pain Drain\libraries\lvgl\src\extra\widgets\spinbox/lv_spinbox.c ****         (*buf_p) = digits[i];
 176              		.loc 1 482 0 discriminator 3
 177 00a0 01AA     		add	r2, sp, #4
 178 00a2 D25C     		ldrb	r2, [r2, r3]
 179 00a4 002A     		cmp	r2, #0
 180 00a6 F6D1     		bne	.L12
 181              	.L11:
 485:..\..\..\arduinoLCD\test\Pain Drain\libraries\lvgl\src\extra\widgets\spinbox/lv_spinbox.c ****     }
 486:..\..\..\arduinoLCD\test\Pain Drain\libraries\lvgl\src\extra\widgets\spinbox/lv_spinbox.c **** 
 487:..\..\..\arduinoLCD\test\Pain Drain\libraries\lvgl\src\extra\widgets\spinbox/lv_spinbox.c ****     if(spinbox->dec_point_pos != 0) {
 182              		.loc 1 487 0 is_stmt 1
 183 00a8 7422     		movs	r2, #116
 184 00aa B25C     		ldrb	r2, [r6, r2]
 185 00ac 0F21     		movs	r1, #15
 186 00ae 8A43     		bics	r2, r1
 187 00b0 10D0     		beq	.L13
 488:..\..\..\arduinoLCD\test\Pain Drain\libraries\lvgl\src\extra\widgets\spinbox/lv_spinbox.c ****         /*Insert the decimal point*/
ARM GAS  C:\Users\haske\AppData\Local\Temp\ccEbAwQn.s 			page 13


 489:..\..\..\arduinoLCD\test\Pain Drain\libraries\lvgl\src\extra\widgets\spinbox/lv_spinbox.c ****         (*buf_p) = '.';
 188              		.loc 1 489 0
 189 00b2 2E22     		movs	r2, #46
 190 00b4 2270     		strb	r2, [r4]
 490:..\..\..\arduinoLCD\test\Pain Drain\libraries\lvgl\src\extra\widgets\spinbox/lv_spinbox.c ****         buf_p++;
 191              		.loc 1 490 0
 192 00b6 0134     		adds	r4, r4, #1
 193              	.LVL21:
 491:..\..\..\arduinoLCD\test\Pain Drain\libraries\lvgl\src\extra\widgets\spinbox/lv_spinbox.c **** 
 492:..\..\..\arduinoLCD\test\Pain Drain\libraries\lvgl\src\extra\widgets\spinbox/lv_spinbox.c ****         for(/*Leave i*/; i < spinbox->digit_count && digits[i] != '\0'; i++) {
 194              		.loc 1 492 0
 195 00b8 02E0     		b	.L14
 196              	.L15:
 493:..\..\..\arduinoLCD\test\Pain Drain\libraries\lvgl\src\extra\widgets\spinbox/lv_spinbox.c ****             (*buf_p) = digits[i];
 197              		.loc 1 493 0 discriminator 3
 198 00ba 2270     		strb	r2, [r4]
 494:..\..\..\arduinoLCD\test\Pain Drain\libraries\lvgl\src\extra\widgets\spinbox/lv_spinbox.c ****             buf_p++;
 199              		.loc 1 494 0 discriminator 3
 200 00bc 0134     		adds	r4, r4, #1
 201              	.LVL22:
 492:..\..\..\arduinoLCD\test\Pain Drain\libraries\lvgl\src\extra\widgets\spinbox/lv_spinbox.c ****             (*buf_p) = digits[i];
 202              		.loc 1 492 0 discriminator 3
 203 00be 0133     		adds	r3, r3, #1
 204              	.LVL23:
 205              	.L14:
 492:..\..\..\arduinoLCD\test\Pain Drain\libraries\lvgl\src\extra\widgets\spinbox/lv_spinbox.c ****             (*buf_p) = digits[i];
 206              		.loc 1 492 0 is_stmt 0 discriminator 1
 207 00c0 7422     		movs	r2, #116
 208 00c2 B25C     		ldrb	r2, [r6, r2]
 209 00c4 1207     		lsls	r2, r2, #28
 210 00c6 120F     		lsrs	r2, r2, #28
 211 00c8 9342     		cmp	r3, r2
 212 00ca 03DA     		bge	.L13
 492:..\..\..\arduinoLCD\test\Pain Drain\libraries\lvgl\src\extra\widgets\spinbox/lv_spinbox.c ****             (*buf_p) = digits[i];
 213              		.loc 1 492 0 discriminator 2
 214 00cc 01AA     		add	r2, sp, #4
 215 00ce D25C     		ldrb	r2, [r2, r3]
 216 00d0 002A     		cmp	r2, #0
 217 00d2 F2D1     		bne	.L15
 218              	.L13:
 495:..\..\..\arduinoLCD\test\Pain Drain\libraries\lvgl\src\extra\widgets\spinbox/lv_spinbox.c ****         }
 496:..\..\..\arduinoLCD\test\Pain Drain\libraries\lvgl\src\extra\widgets\spinbox/lv_spinbox.c ****     }
 497:..\..\..\arduinoLCD\test\Pain Drain\libraries\lvgl\src\extra\widgets\spinbox/lv_spinbox.c **** 
 498:..\..\..\arduinoLCD\test\Pain Drain\libraries\lvgl\src\extra\widgets\spinbox/lv_spinbox.c ****     /*Refresh the text*/
 499:..\..\..\arduinoLCD\test\Pain Drain\libraries\lvgl\src\extra\widgets\spinbox/lv_spinbox.c ****     lv_textarea_set_text(obj, (char *)buf);
 219              		.loc 1 499 0 is_stmt 1
 220 00d4 05A9     		add	r1, sp, #20
 221 00d6 3000     		movs	r0, r6
 222 00d8 FFF7FEFF 		bl	lv_textarea_set_text
 223              	.LVL24:
 500:..\..\..\arduinoLCD\test\Pain Drain\libraries\lvgl\src\extra\widgets\spinbox/lv_spinbox.c **** 
 501:..\..\..\arduinoLCD\test\Pain Drain\libraries\lvgl\src\extra\widgets\spinbox/lv_spinbox.c ****     /*Set the cursor position*/
 502:..\..\..\arduinoLCD\test\Pain Drain\libraries\lvgl\src\extra\widgets\spinbox/lv_spinbox.c ****     int32_t step    = spinbox->step;
 224              		.loc 1 502 0
 225 00dc 306F     		ldr	r0, [r6, #112]
 226              	.LVL25:
 503:..\..\..\arduinoLCD\test\Pain Drain\libraries\lvgl\src\extra\widgets\spinbox/lv_spinbox.c ****     uint8_t cur_pos = (uint8_t)spinbox->digit_count;
ARM GAS  C:\Users\haske\AppData\Local\Temp\ccEbAwQn.s 			page 14


 227              		.loc 1 503 0
 228 00de 7423     		movs	r3, #116
 229 00e0 F45C     		ldrb	r4, [r6, r3]
 230              	.LVL26:
 231 00e2 2407     		lsls	r4, r4, #28
 232 00e4 240F     		lsrs	r4, r4, #28
 233              	.LVL27:
 504:..\..\..\arduinoLCD\test\Pain Drain\libraries\lvgl\src\extra\widgets\spinbox/lv_spinbox.c ****     while(step >= 10) {
 234              		.loc 1 504 0
 235 00e6 04E0     		b	.L16
 236              	.LVL28:
 237              	.L17:
 505:..\..\..\arduinoLCD\test\Pain Drain\libraries\lvgl\src\extra\widgets\spinbox/lv_spinbox.c ****         step /= 10;
 238              		.loc 1 505 0
 239 00e8 0A21     		movs	r1, #10
 240 00ea FFF7FEFF 		bl	__aeabi_idiv
 241              	.LVL29:
 506:..\..\..\arduinoLCD\test\Pain Drain\libraries\lvgl\src\extra\widgets\spinbox/lv_spinbox.c ****         cur_pos--;
 242              		.loc 1 506 0
 243 00ee 013C     		subs	r4, r4, #1
 244              	.LVL30:
 245 00f0 E4B2     		uxtb	r4, r4
 246              	.LVL31:
 247              	.L16:
 504:..\..\..\arduinoLCD\test\Pain Drain\libraries\lvgl\src\extra\widgets\spinbox/lv_spinbox.c ****     while(step >= 10) {
 248              		.loc 1 504 0
 249 00f2 0928     		cmp	r0, #9
 250 00f4 F8DC     		bgt	.L17
 507:..\..\..\arduinoLCD\test\Pain Drain\libraries\lvgl\src\extra\widgets\spinbox/lv_spinbox.c ****     }
 508:..\..\..\arduinoLCD\test\Pain Drain\libraries\lvgl\src\extra\widgets\spinbox/lv_spinbox.c **** 
 509:..\..\..\arduinoLCD\test\Pain Drain\libraries\lvgl\src\extra\widgets\spinbox/lv_spinbox.c ****     if(cur_pos > intDigits) cur_pos++; /*Skip the decimal point*/
 251              		.loc 1 509 0
 252 00f6 A542     		cmp	r5, r4
 253 00f8 01DA     		bge	.L18
 254              		.loc 1 509 0 is_stmt 0 discriminator 1
 255 00fa 0134     		adds	r4, r4, #1
 256              	.LVL32:
 257 00fc E4B2     		uxtb	r4, r4
 258              	.LVL33:
 259              	.L18:
 510:..\..\..\arduinoLCD\test\Pain Drain\libraries\lvgl\src\extra\widgets\spinbox/lv_spinbox.c **** 
 511:..\..\..\arduinoLCD\test\Pain Drain\libraries\lvgl\src\extra\widgets\spinbox/lv_spinbox.c ****     cur_pos -= cur_shift_left;
 260              		.loc 1 511 0 is_stmt 1
 261 00fe 4346     		mov	r3, r8
 262 0100 E41A     		subs	r4, r4, r3
 263              	.LVL34:
 264 0102 E1B2     		uxtb	r1, r4
 265              	.LVL35:
 512:..\..\..\arduinoLCD\test\Pain Drain\libraries\lvgl\src\extra\widgets\spinbox/lv_spinbox.c **** 
 513:..\..\..\arduinoLCD\test\Pain Drain\libraries\lvgl\src\extra\widgets\spinbox/lv_spinbox.c ****     lv_textarea_set_cursor_pos(obj, cur_pos);
 266              		.loc 1 513 0
 267 0104 3000     		movs	r0, r6
 268              	.LVL36:
 269 0106 FFF7FEFF 		bl	lv_textarea_set_cursor_pos
 270              	.LVL37:
 514:..\..\..\arduinoLCD\test\Pain Drain\libraries\lvgl\src\extra\widgets\spinbox/lv_spinbox.c **** }
 271              		.loc 1 514 0
ARM GAS  C:\Users\haske\AppData\Local\Temp\ccEbAwQn.s 			page 15


 272 010a 0AB0     		add	sp, sp, #40
 273              		@ sp needed
 274              	.LVL38:
 275              	.LVL39:
 276              	.LVL40:
 277              	.LVL41:
 278 010c 04BC     		pop	{r2}
 279 010e 9046     		mov	r8, r2
 280 0110 F0BD     		pop	{r4, r5, r6, r7, pc}
 281              	.L22:
 282 0112 C046     		.align	2
 283              	.L21:
 284 0114 00000000 		.word	.LC0
 285              		.cfi_endproc
 286              	.LFE219:
 287              		.size	lv_spinbox_updatevalue, .-lv_spinbox_updatevalue
 288              		.section	.text.lv_spinbox_constructor,"ax",%progbits
 289              		.align	2
 290              		.code	16
 291              		.thumb_func
 292              		.type	lv_spinbox_constructor, %function
 293              	lv_spinbox_constructor:
 294              	.LFB217:
 321:..\..\..\arduinoLCD\test\Pain Drain\libraries\lvgl\src\extra\widgets\spinbox/lv_spinbox.c ****     LV_UNUSED(class_p);
 295              		.loc 1 321 0
 296              		.cfi_startproc
 297              		@ args = 0, pretend = 0, frame = 0
 298              		@ frame_needed = 0, uses_anonymous_args = 0
 299              	.LVL42:
 300 0000 10B5     		push	{r4, lr}
 301              		.cfi_def_cfa_offset 8
 302              		.cfi_offset 4, -8
 303              		.cfi_offset 14, -4
 304 0002 0C00     		movs	r4, r1
 305              	.LVL43:
 328:..\..\..\arduinoLCD\test\Pain Drain\libraries\lvgl\src\extra\widgets\spinbox/lv_spinbox.c ****     spinbox->dec_point_pos      = 0;
 306              		.loc 1 328 0
 307 0004 0023     		movs	r3, #0
 308 0006 4B66     		str	r3, [r1, #100]
 330:..\..\..\arduinoLCD\test\Pain Drain\libraries\lvgl\src\extra\widgets\spinbox/lv_spinbox.c ****     spinbox->step               = 1;
 309              		.loc 1 330 0
 310 0008 0522     		movs	r2, #5
 311 000a 7433     		adds	r3, r3, #116
 312 000c CA54     		strb	r2, [r1, r3]
 331:..\..\..\arduinoLCD\test\Pain Drain\libraries\lvgl\src\extra\widgets\spinbox/lv_spinbox.c ****     spinbox->range_max          = 99999;
 313              		.loc 1 331 0
 314 000e 043A     		subs	r2, r2, #4
 315 0010 0A67     		str	r2, [r1, #112]
 332:..\..\..\arduinoLCD\test\Pain Drain\libraries\lvgl\src\extra\widgets\spinbox/lv_spinbox.c ****     spinbox->range_min          = -99999;
 316              		.loc 1 332 0
 317 0012 0C4B     		ldr	r3, .L24
 318 0014 8B66     		str	r3, [r1, #104]
 333:..\..\..\arduinoLCD\test\Pain Drain\libraries\lvgl\src\extra\widgets\spinbox/lv_spinbox.c ****     spinbox->rollover           = false;
 319              		.loc 1 333 0
 320 0016 0C4B     		ldr	r3, .L24+4
 321 0018 CB66     		str	r3, [r1, #108]
 334:..\..\..\arduinoLCD\test\Pain Drain\libraries\lvgl\src\extra\widgets\spinbox/lv_spinbox.c ****     spinbox->digit_step_dir     = LV_DIR_RIGHT;
ARM GAS  C:\Users\haske\AppData\Local\Temp\ccEbAwQn.s 			page 16


 322              		.loc 1 334 0
 323 001a 7431     		adds	r1, r1, #116
 324              	.LVL44:
 325 001c 4B78     		ldrb	r3, [r1, #1]
 335:..\..\..\arduinoLCD\test\Pain Drain\libraries\lvgl\src\extra\widgets\spinbox/lv_spinbox.c **** 
 326              		.loc 1 335 0
 327 001e 9343     		bics	r3, r2
 328 0020 0532     		adds	r2, r2, #5
 329 0022 9343     		bics	r3, r2
 330 0024 0422     		movs	r2, #4
 331 0026 1343     		orrs	r3, r2
 332 0028 4B70     		strb	r3, [r1, #1]
 337:..\..\..\arduinoLCD\test\Pain Drain\libraries\lvgl\src\extra\widgets\spinbox/lv_spinbox.c ****     lv_textarea_set_cursor_click_pos(obj, true);
 333              		.loc 1 337 0
 334 002a 0121     		movs	r1, #1
 335 002c 2000     		movs	r0, r4
 336              	.LVL45:
 337 002e FFF7FEFF 		bl	lv_textarea_set_one_line
 338              	.LVL46:
 338:..\..\..\arduinoLCD\test\Pain Drain\libraries\lvgl\src\extra\widgets\spinbox/lv_spinbox.c **** 
 339              		.loc 1 338 0
 340 0032 0121     		movs	r1, #1
 341 0034 2000     		movs	r0, r4
 342 0036 FFF7FEFF 		bl	lv_textarea_set_cursor_click_pos
 343              	.LVL47:
 340:..\..\..\arduinoLCD\test\Pain Drain\libraries\lvgl\src\extra\widgets\spinbox/lv_spinbox.c **** 
 344              		.loc 1 340 0
 345 003a 2000     		movs	r0, r4
 346 003c FFF7FEFF 		bl	lv_spinbox_updatevalue
 347              	.LVL48:
 343:..\..\..\arduinoLCD\test\Pain Drain\libraries\lvgl\src\extra\widgets\spinbox/lv_spinbox.c **** 
 348              		.loc 1 343 0
 349              		@ sp needed
 350              	.LVL49:
 351 0040 10BD     		pop	{r4, pc}
 352              	.L25:
 353 0042 C046     		.align	2
 354              	.L24:
 355 0044 9F860100 		.word	99999
 356 0048 6179FEFF 		.word	-99999
 357              		.cfi_endproc
 358              	.LFE217:
 359              		.size	lv_spinbox_constructor, .-lv_spinbox_constructor
 360              		.section	.text.lv_spinbox_create,"ax",%progbits
 361              		.align	2
 362              		.global	lv_spinbox_create
 363              		.code	16
 364              		.thumb_func
 365              		.type	lv_spinbox_create, %function
 366              	lv_spinbox_create:
 367              	.LFB202:
  51:..\..\..\arduinoLCD\test\Pain Drain\libraries\lvgl\src\extra\widgets\spinbox/lv_spinbox.c ****     LV_LOG_INFO("begin");
 368              		.loc 1 51 0
 369              		.cfi_startproc
 370              		@ args = 0, pretend = 0, frame = 0
 371              		@ frame_needed = 0, uses_anonymous_args = 0
 372              	.LVL50:
ARM GAS  C:\Users\haske\AppData\Local\Temp\ccEbAwQn.s 			page 17


 373 0000 10B5     		push	{r4, lr}
 374              		.cfi_def_cfa_offset 8
 375              		.cfi_offset 4, -8
 376              		.cfi_offset 14, -4
 377 0002 0100     		movs	r1, r0
  53:..\..\..\arduinoLCD\test\Pain Drain\libraries\lvgl\src\extra\widgets\spinbox/lv_spinbox.c ****     lv_obj_class_init_obj(obj);
 378              		.loc 1 53 0
 379 0004 0348     		ldr	r0, .L27
 380              	.LVL51:
 381 0006 FFF7FEFF 		bl	lv_obj_class_create_obj
 382              	.LVL52:
 383 000a 0400     		movs	r4, r0
 384              	.LVL53:
  54:..\..\..\arduinoLCD\test\Pain Drain\libraries\lvgl\src\extra\widgets\spinbox/lv_spinbox.c ****     return obj;
 385              		.loc 1 54 0
 386 000c FFF7FEFF 		bl	lv_obj_class_init_obj
 387              	.LVL54:
  56:..\..\..\arduinoLCD\test\Pain Drain\libraries\lvgl\src\extra\widgets\spinbox/lv_spinbox.c **** 
 388              		.loc 1 56 0
 389 0010 2000     		movs	r0, r4
 390              		@ sp needed
 391              	.LVL55:
 392 0012 10BD     		pop	{r4, pc}
 393              	.L28:
 394              		.align	2
 395              	.L27:
 396 0014 00000000 		.word	.LANCHOR0
 397              		.cfi_endproc
 398              	.LFE202:
 399              		.size	lv_spinbox_create, .-lv_spinbox_create
 400              		.section	.text.lv_spinbox_set_value,"ax",%progbits
 401              		.align	2
 402              		.global	lv_spinbox_set_value
 403              		.code	16
 404              		.thumb_func
 405              		.type	lv_spinbox_set_value, %function
 406              	lv_spinbox_set_value:
 407              	.LFB203:
  68:..\..\..\arduinoLCD\test\Pain Drain\libraries\lvgl\src\extra\widgets\spinbox/lv_spinbox.c ****     LV_ASSERT_OBJ(obj, MY_CLASS);
 408              		.loc 1 68 0
 409              		.cfi_startproc
 410              		@ args = 0, pretend = 0, frame = 0
 411              		@ frame_needed = 0, uses_anonymous_args = 0
 412              	.LVL56:
 413 0000 10B5     		push	{r4, lr}
 414              		.cfi_def_cfa_offset 8
 415              		.cfi_offset 4, -8
 416              		.cfi_offset 14, -4
 417              	.LVL57:
  72:..\..\..\arduinoLCD\test\Pain Drain\libraries\lvgl\src\extra\widgets\spinbox/lv_spinbox.c ****     if(i < spinbox->range_min) i = spinbox->range_min;
 418              		.loc 1 72 0
 419 0002 836E     		ldr	r3, [r0, #104]
 420 0004 8B42     		cmp	r3, r1
 421 0006 00DB     		blt	.L30
 422 0008 0B00     		movs	r3, r1
 423              	.L30:
 424              	.LVL58:
ARM GAS  C:\Users\haske\AppData\Local\Temp\ccEbAwQn.s 			page 18


  73:..\..\..\arduinoLCD\test\Pain Drain\libraries\lvgl\src\extra\widgets\spinbox/lv_spinbox.c **** 
 425              		.loc 1 73 0
 426 000a C26E     		ldr	r2, [r0, #108]
 427 000c 9342     		cmp	r3, r2
 428 000e 00DB     		blt	.L31
 429 0010 1A00     		movs	r2, r3
 430              	.L31:
 431              	.LVL59:
  75:..\..\..\arduinoLCD\test\Pain Drain\libraries\lvgl\src\extra\widgets\spinbox/lv_spinbox.c **** 
 432              		.loc 1 75 0
 433 0012 4266     		str	r2, [r0, #100]
  77:..\..\..\arduinoLCD\test\Pain Drain\libraries\lvgl\src\extra\widgets\spinbox/lv_spinbox.c **** }
 434              		.loc 1 77 0
 435 0014 FFF7FEFF 		bl	lv_spinbox_updatevalue
 436              	.LVL60:
  78:..\..\..\arduinoLCD\test\Pain Drain\libraries\lvgl\src\extra\widgets\spinbox/lv_spinbox.c **** 
 437              		.loc 1 78 0
 438              		@ sp needed
 439 0018 10BD     		pop	{r4, pc}
 440              		.cfi_endproc
 441              	.LFE203:
 442              		.size	lv_spinbox_set_value, .-lv_spinbox_set_value
 443 001a C046     		.section	.text.lv_spinbox_set_rollover,"ax",%progbits
 444              		.align	2
 445              		.global	lv_spinbox_set_rollover
 446              		.code	16
 447              		.thumb_func
 448              		.type	lv_spinbox_set_rollover, %function
 449              	lv_spinbox_set_rollover:
 450              	.LFB204:
  86:..\..\..\arduinoLCD\test\Pain Drain\libraries\lvgl\src\extra\widgets\spinbox/lv_spinbox.c ****     LV_ASSERT_OBJ(obj, MY_CLASS);
 451              		.loc 1 86 0
 452              		.cfi_startproc
 453              		@ args = 0, pretend = 0, frame = 0
 454              		@ frame_needed = 0, uses_anonymous_args = 0
 455              		@ link register save eliminated.
 456              	.LVL61:
  90:..\..\..\arduinoLCD\test\Pain Drain\libraries\lvgl\src\extra\widgets\spinbox/lv_spinbox.c **** }
 457              		.loc 1 90 0
 458 0000 7430     		adds	r0, r0, #116
 459              	.LVL62:
 460 0002 0123     		movs	r3, #1
 461 0004 1940     		ands	r1, r3
 462              	.LVL63:
 463 0006 4378     		ldrb	r3, [r0, #1]
 464 0008 0122     		movs	r2, #1
 465 000a 9343     		bics	r3, r2
 466 000c 1943     		orrs	r1, r3
 467 000e 4170     		strb	r1, [r0, #1]
  91:..\..\..\arduinoLCD\test\Pain Drain\libraries\lvgl\src\extra\widgets\spinbox/lv_spinbox.c **** 
 468              		.loc 1 91 0
 469              		@ sp needed
 470 0010 7047     		bx	lr
 471              		.cfi_endproc
 472              	.LFE204:
 473              		.size	lv_spinbox_set_rollover, .-lv_spinbox_set_rollover
 474 0012 C046     		.section	.text.lv_spinbox_set_digit_format,"ax",%progbits
ARM GAS  C:\Users\haske\AppData\Local\Temp\ccEbAwQn.s 			page 19


 475              		.align	2
 476              		.global	lv_spinbox_set_digit_format
 477              		.code	16
 478              		.thumb_func
 479              		.type	lv_spinbox_set_digit_format, %function
 480              	lv_spinbox_set_digit_format:
 481              	.LFB205:
 101:..\..\..\arduinoLCD\test\Pain Drain\libraries\lvgl\src\extra\widgets\spinbox/lv_spinbox.c ****     LV_ASSERT_OBJ(obj, MY_CLASS);
 482              		.loc 1 101 0
 483              		.cfi_startproc
 484              		@ args = 0, pretend = 0, frame = 0
 485              		@ frame_needed = 0, uses_anonymous_args = 0
 486              	.LVL64:
 487 0000 F8B5     		push	{r3, r4, r5, r6, r7, lr}
 488              		.cfi_def_cfa_offset 24
 489              		.cfi_offset 3, -24
 490              		.cfi_offset 4, -20
 491              		.cfi_offset 5, -16
 492              		.cfi_offset 6, -12
 493              		.cfi_offset 7, -8
 494              		.cfi_offset 14, -4
 495 0002 0600     		movs	r6, r0
 496 0004 0C00     		movs	r4, r1
 497 0006 1500     		movs	r5, r2
 498              	.LVL65:
 105:..\..\..\arduinoLCD\test\Pain Drain\libraries\lvgl\src\extra\widgets\spinbox/lv_spinbox.c **** 
 499              		.loc 1 105 0
 500 0008 0A29     		cmp	r1, #10
 501 000a 00D9     		bls	.L34
 502 000c 0A24     		movs	r4, #10
 503              	.L34:
 504              	.LVL66:
 107:..\..\..\arduinoLCD\test\Pain Drain\libraries\lvgl\src\extra\widgets\spinbox/lv_spinbox.c **** 
 505              		.loc 1 107 0
 506 000e AC42     		cmp	r4, r5
 507 0010 00D8     		bhi	.L35
 508 0012 0025     		movs	r5, #0
 509              	.L35:
 510              	.LVL67:
 109:..\..\..\arduinoLCD\test\Pain Drain\libraries\lvgl\src\extra\widgets\spinbox/lv_spinbox.c ****         int64_t max_val = lv_pow(10, digit_count);
 511              		.loc 1 109 0
 512 0014 092C     		cmp	r4, #9
 513 0016 22D8     		bhi	.L36
 514              	.LBB2:
 110:..\..\..\arduinoLCD\test\Pain Drain\libraries\lvgl\src\extra\widgets\spinbox/lv_spinbox.c ****         if(spinbox->range_max > max_val - 1) spinbox->range_max = max_val - 1;
 515              		.loc 1 110 0
 516 0018 62B2     		sxtb	r2, r4
 517 001a 0A20     		movs	r0, #10
 518              	.LVL68:
 519 001c 0021     		movs	r1, #0
 520 001e FFF7FEFF 		bl	lv_pow
 521              	.LVL69:
 111:..\..\..\arduinoLCD\test\Pain Drain\libraries\lvgl\src\extra\widgets\spinbox/lv_spinbox.c ****         if(spinbox->range_min < - max_val  + 1) spinbox->range_min = - max_val  + 1;
 522              		.loc 1 111 0
 523 0022 B36E     		ldr	r3, [r6, #104]
 524 0024 9C46     		mov	ip, r3
 525 0026 DF17     		asrs	r7, r3, #31
ARM GAS  C:\Users\haske\AppData\Local\Temp\ccEbAwQn.s 			page 20


 526 0028 0122     		movs	r2, #1
 527 002a 5242     		rsbs	r2, r2, #0
 528 002c D317     		asrs	r3, r2, #31
 529 002e 1218     		adds	r2, r2, r0
 530 0030 4B41     		adcs	r3, r3, r1
 531 0032 9F42     		cmp	r7, r3
 532 0034 02DC     		bgt	.L42
 533 0036 03D1     		bne	.L37
 534 0038 9445     		cmp	ip, r2
 535 003a 01D9     		bls	.L37
 536              	.L42:
 111:..\..\..\arduinoLCD\test\Pain Drain\libraries\lvgl\src\extra\widgets\spinbox/lv_spinbox.c ****         if(spinbox->range_min < - max_val  + 1) spinbox->range_min = - max_val  + 1;
 537              		.loc 1 111 0 is_stmt 0 discriminator 1
 538 003c 431E     		subs	r3, r0, #1
 539 003e B366     		str	r3, [r6, #104]
 540              	.L37:
 112:..\..\..\arduinoLCD\test\Pain Drain\libraries\lvgl\src\extra\widgets\spinbox/lv_spinbox.c ****     }
 541              		.loc 1 112 0 is_stmt 1
 542 0040 F36E     		ldr	r3, [r6, #108]
 543 0042 9C46     		mov	ip, r3
 544 0044 DF17     		asrs	r7, r3, #31
 545 0046 0122     		movs	r2, #1
 546 0048 0023     		movs	r3, #0
 547 004a 121A     		subs	r2, r2, r0
 548 004c 8B41     		sbcs	r3, r3, r1
 549 004e BB42     		cmp	r3, r7
 550 0050 02DC     		bgt	.L43
 551 0052 04D1     		bne	.L36
 552 0054 6245     		cmp	r2, ip
 553 0056 02D9     		bls	.L36
 554              	.L43:
 112:..\..\..\arduinoLCD\test\Pain Drain\libraries\lvgl\src\extra\widgets\spinbox/lv_spinbox.c ****     }
 555              		.loc 1 112 0 is_stmt 0 discriminator 1
 556 0058 0123     		movs	r3, #1
 557 005a 181A     		subs	r0, r3, r0
 558              	.LVL70:
 559 005c F066     		str	r0, [r6, #108]
 560              	.L36:
 561              	.LBE2:
 115:..\..\..\arduinoLCD\test\Pain Drain\libraries\lvgl\src\extra\widgets\spinbox/lv_spinbox.c ****     spinbox->dec_point_pos = separator_position;
 562              		.loc 1 115 0 is_stmt 1
 563 005e 7422     		movs	r2, #116
 564 0060 0F21     		movs	r1, #15
 565 0062 2300     		movs	r3, r4
 566 0064 0B40     		ands	r3, r1
 567 0066 B45C     		ldrb	r4, [r6, r2]
 568              	.LVL71:
 569 0068 0F20     		movs	r0, #15
 570 006a 8443     		bics	r4, r0
 116:..\..\..\arduinoLCD\test\Pain Drain\libraries\lvgl\src\extra\widgets\spinbox/lv_spinbox.c **** 
 571              		.loc 1 116 0
 572 006c 2D01     		lsls	r5, r5, #4
 573              	.LVL72:
 574 006e 1C43     		orrs	r4, r3
 575 0070 0C40     		ands	r4, r1
 576 0072 2C43     		orrs	r4, r5
 577 0074 B454     		strb	r4, [r6, r2]
ARM GAS  C:\Users\haske\AppData\Local\Temp\ccEbAwQn.s 			page 21


 118:..\..\..\arduinoLCD\test\Pain Drain\libraries\lvgl\src\extra\widgets\spinbox/lv_spinbox.c **** }
 578              		.loc 1 118 0
 579 0076 3000     		movs	r0, r6
 580 0078 FFF7FEFF 		bl	lv_spinbox_updatevalue
 581              	.LVL73:
 119:..\..\..\arduinoLCD\test\Pain Drain\libraries\lvgl\src\extra\widgets\spinbox/lv_spinbox.c **** 
 582              		.loc 1 119 0
 583              		@ sp needed
 584              	.LVL74:
 585 007c F8BD     		pop	{r3, r4, r5, r6, r7, pc}
 586              		.cfi_endproc
 587              	.LFE205:
 588              		.size	lv_spinbox_set_digit_format, .-lv_spinbox_set_digit_format
 589 007e C046     		.section	.text.lv_spinbox_set_step,"ax",%progbits
 590              		.align	2
 591              		.global	lv_spinbox_set_step
 592              		.code	16
 593              		.thumb_func
 594              		.type	lv_spinbox_set_step, %function
 595              	lv_spinbox_set_step:
 596              	.LFB206:
 127:..\..\..\arduinoLCD\test\Pain Drain\libraries\lvgl\src\extra\widgets\spinbox/lv_spinbox.c ****     LV_ASSERT_OBJ(obj, MY_CLASS);
 597              		.loc 1 127 0
 598              		.cfi_startproc
 599              		@ args = 0, pretend = 0, frame = 0
 600              		@ frame_needed = 0, uses_anonymous_args = 0
 601              	.LVL75:
 602 0000 10B5     		push	{r4, lr}
 603              		.cfi_def_cfa_offset 8
 604              		.cfi_offset 4, -8
 605              		.cfi_offset 14, -4
 606              	.LVL76:
 131:..\..\..\arduinoLCD\test\Pain Drain\libraries\lvgl\src\extra\widgets\spinbox/lv_spinbox.c ****     lv_spinbox_updatevalue(obj);
 607              		.loc 1 131 0
 608 0002 0167     		str	r1, [r0, #112]
 132:..\..\..\arduinoLCD\test\Pain Drain\libraries\lvgl\src\extra\widgets\spinbox/lv_spinbox.c **** }
 609              		.loc 1 132 0
 610 0004 FFF7FEFF 		bl	lv_spinbox_updatevalue
 611              	.LVL77:
 133:..\..\..\arduinoLCD\test\Pain Drain\libraries\lvgl\src\extra\widgets\spinbox/lv_spinbox.c **** 
 612              		.loc 1 133 0
 613              		@ sp needed
 614 0008 10BD     		pop	{r4, pc}
 615              		.cfi_endproc
 616              	.LFE206:
 617              		.size	lv_spinbox_set_step, .-lv_spinbox_set_step
 618 000a C046     		.section	.text.lv_spinbox_set_range,"ax",%progbits
 619              		.align	2
 620              		.global	lv_spinbox_set_range
 621              		.code	16
 622              		.thumb_func
 623              		.type	lv_spinbox_set_range, %function
 624              	lv_spinbox_set_range:
 625              	.LFB207:
 142:..\..\..\arduinoLCD\test\Pain Drain\libraries\lvgl\src\extra\widgets\spinbox/lv_spinbox.c ****     LV_ASSERT_OBJ(obj, MY_CLASS);
 626              		.loc 1 142 0
 627              		.cfi_startproc
ARM GAS  C:\Users\haske\AppData\Local\Temp\ccEbAwQn.s 			page 22


 628              		@ args = 0, pretend = 0, frame = 0
 629              		@ frame_needed = 0, uses_anonymous_args = 0
 630              	.LVL78:
 631 0000 10B5     		push	{r4, lr}
 632              		.cfi_def_cfa_offset 8
 633              		.cfi_offset 4, -8
 634              		.cfi_offset 14, -4
 635              	.LVL79:
 146:..\..\..\arduinoLCD\test\Pain Drain\libraries\lvgl\src\extra\widgets\spinbox/lv_spinbox.c ****     spinbox->range_min = range_min;
 636              		.loc 1 146 0
 637 0002 8266     		str	r2, [r0, #104]
 147:..\..\..\arduinoLCD\test\Pain Drain\libraries\lvgl\src\extra\widgets\spinbox/lv_spinbox.c **** 
 638              		.loc 1 147 0
 639 0004 C166     		str	r1, [r0, #108]
 149:..\..\..\arduinoLCD\test\Pain Drain\libraries\lvgl\src\extra\widgets\spinbox/lv_spinbox.c ****     if(spinbox->value < spinbox->range_min) spinbox->value = spinbox->range_min;
 640              		.loc 1 149 0
 641 0006 436E     		ldr	r3, [r0, #100]
 642 0008 9A42     		cmp	r2, r3
 643 000a 00DA     		bge	.L46
 149:..\..\..\arduinoLCD\test\Pain Drain\libraries\lvgl\src\extra\widgets\spinbox/lv_spinbox.c ****     if(spinbox->value < spinbox->range_min) spinbox->value = spinbox->range_min;
 644              		.loc 1 149 0 is_stmt 0 discriminator 1
 645 000c 4266     		str	r2, [r0, #100]
 646              	.L46:
 150:..\..\..\arduinoLCD\test\Pain Drain\libraries\lvgl\src\extra\widgets\spinbox/lv_spinbox.c **** 
 647              		.loc 1 150 0 is_stmt 1
 648 000e 436E     		ldr	r3, [r0, #100]
 649 0010 9942     		cmp	r1, r3
 650 0012 00DD     		ble	.L47
 150:..\..\..\arduinoLCD\test\Pain Drain\libraries\lvgl\src\extra\widgets\spinbox/lv_spinbox.c **** 
 651              		.loc 1 150 0 is_stmt 0 discriminator 1
 652 0014 4166     		str	r1, [r0, #100]
 653              	.L47:
 152:..\..\..\arduinoLCD\test\Pain Drain\libraries\lvgl\src\extra\widgets\spinbox/lv_spinbox.c **** }
 654              		.loc 1 152 0 is_stmt 1
 655 0016 FFF7FEFF 		bl	lv_spinbox_updatevalue
 656              	.LVL80:
 153:..\..\..\arduinoLCD\test\Pain Drain\libraries\lvgl\src\extra\widgets\spinbox/lv_spinbox.c **** 
 657              		.loc 1 153 0
 658              		@ sp needed
 659 001a 10BD     		pop	{r4, pc}
 660              		.cfi_endproc
 661              	.LFE207:
 662              		.size	lv_spinbox_set_range, .-lv_spinbox_set_range
 663              		.section	.text.lv_spinbox_set_cursor_pos,"ax",%progbits
 664              		.align	2
 665              		.global	lv_spinbox_set_cursor_pos
 666              		.code	16
 667              		.thumb_func
 668              		.type	lv_spinbox_set_cursor_pos, %function
 669              	lv_spinbox_set_cursor_pos:
 670              	.LFB208:
 161:..\..\..\arduinoLCD\test\Pain Drain\libraries\lvgl\src\extra\widgets\spinbox/lv_spinbox.c ****     LV_ASSERT_OBJ(obj, MY_CLASS);
 671              		.loc 1 161 0
 672              		.cfi_startproc
 673              		@ args = 0, pretend = 0, frame = 0
 674              		@ frame_needed = 0, uses_anonymous_args = 0
 675              	.LVL81:
ARM GAS  C:\Users\haske\AppData\Local\Temp\ccEbAwQn.s 			page 23


 676 0000 F8B5     		push	{r3, r4, r5, r6, r7, lr}
 677              		.cfi_def_cfa_offset 24
 678              		.cfi_offset 3, -24
 679              		.cfi_offset 4, -20
 680              		.cfi_offset 5, -16
 681              		.cfi_offset 6, -12
 682              		.cfi_offset 7, -8
 683              		.cfi_offset 14, -4
 684 0002 0400     		movs	r4, r0
 685 0004 0E00     		movs	r6, r1
 686              	.LVL82:
 165:..\..\..\arduinoLCD\test\Pain Drain\libraries\lvgl\src\extra\widgets\spinbox/lv_spinbox.c ****     int32_t new_step = spinbox->step * lv_pow(10, pos);
 687              		.loc 1 165 0
 688 0006 836E     		ldr	r3, [r0, #104]
 689 0008 C26E     		ldr	r2, [r0, #108]
 690 000a D117     		asrs	r1, r2, #31
 691              	.LVL83:
 692 000c 5518     		adds	r5, r2, r1
 693 000e 4D40     		eors	r5, r1
 694 0010 9D42     		cmp	r5, r3
 695 0012 00DA     		bge	.L49
 696 0014 1D00     		movs	r5, r3
 697              	.L49:
 698              	.LVL84:
 166:..\..\..\arduinoLCD\test\Pain Drain\libraries\lvgl\src\extra\widgets\spinbox/lv_spinbox.c ****     if(pos <= 0) spinbox->step = 1;
 699              		.loc 1 166 0
 700 0016 276F     		ldr	r7, [r4, #112]
 701 0018 72B2     		sxtb	r2, r6
 702 001a 0A20     		movs	r0, #10
 703              	.LVL85:
 704 001c 0021     		movs	r1, #0
 705 001e FFF7FEFF 		bl	lv_pow
 706              	.LVL86:
 707 0022 7843     		muls	r0, r7
 708              	.LVL87:
 167:..\..\..\arduinoLCD\test\Pain Drain\libraries\lvgl\src\extra\widgets\spinbox/lv_spinbox.c ****     else if(new_step <= step_limit) spinbox->step = new_step;
 709              		.loc 1 167 0
 710 0024 002E     		cmp	r6, #0
 711 0026 02D1     		bne	.L50
 167:..\..\..\arduinoLCD\test\Pain Drain\libraries\lvgl\src\extra\widgets\spinbox/lv_spinbox.c ****     else if(new_step <= step_limit) spinbox->step = new_step;
 712              		.loc 1 167 0 is_stmt 0 discriminator 1
 713 0028 0123     		movs	r3, #1
 714 002a 2367     		str	r3, [r4, #112]
 715 002c 02E0     		b	.L51
 716              	.L50:
 168:..\..\..\arduinoLCD\test\Pain Drain\libraries\lvgl\src\extra\widgets\spinbox/lv_spinbox.c **** 
 717              		.loc 1 168 0 is_stmt 1
 718 002e 8542     		cmp	r5, r0
 719 0030 00DB     		blt	.L51
 168:..\..\..\arduinoLCD\test\Pain Drain\libraries\lvgl\src\extra\widgets\spinbox/lv_spinbox.c **** 
 720              		.loc 1 168 0 is_stmt 0 discriminator 1
 721 0032 2067     		str	r0, [r4, #112]
 722              	.L51:
 170:..\..\..\arduinoLCD\test\Pain Drain\libraries\lvgl\src\extra\widgets\spinbox/lv_spinbox.c **** }
 723              		.loc 1 170 0 is_stmt 1
 724 0034 2000     		movs	r0, r4
 725              	.LVL88:
ARM GAS  C:\Users\haske\AppData\Local\Temp\ccEbAwQn.s 			page 24


 726 0036 FFF7FEFF 		bl	lv_spinbox_updatevalue
 727              	.LVL89:
 171:..\..\..\arduinoLCD\test\Pain Drain\libraries\lvgl\src\extra\widgets\spinbox/lv_spinbox.c **** 
 728              		.loc 1 171 0
 729              		@ sp needed
 730              	.LVL90:
 731              	.LVL91:
 732 003a F8BD     		pop	{r3, r4, r5, r6, r7, pc}
 733              		.cfi_endproc
 734              	.LFE208:
 735              		.size	lv_spinbox_set_cursor_pos, .-lv_spinbox_set_cursor_pos
 736              		.section	.text.lv_spinbox_set_digit_step_direction,"ax",%progbits
 737              		.align	2
 738              		.global	lv_spinbox_set_digit_step_direction
 739              		.code	16
 740              		.thumb_func
 741              		.type	lv_spinbox_set_digit_step_direction, %function
 742              	lv_spinbox_set_digit_step_direction:
 743              	.LFB209:
 179:..\..\..\arduinoLCD\test\Pain Drain\libraries\lvgl\src\extra\widgets\spinbox/lv_spinbox.c ****     LV_ASSERT_OBJ(obj, MY_CLASS);
 744              		.loc 1 179 0
 745              		.cfi_startproc
 746              		@ args = 0, pretend = 0, frame = 0
 747              		@ frame_needed = 0, uses_anonymous_args = 0
 748              	.LVL92:
 749 0000 10B5     		push	{r4, lr}
 750              		.cfi_def_cfa_offset 8
 751              		.cfi_offset 4, -8
 752              		.cfi_offset 14, -4
 753              	.LVL93:
 182:..\..\..\arduinoLCD\test\Pain Drain\libraries\lvgl\src\extra\widgets\spinbox/lv_spinbox.c **** 
 754              		.loc 1 182 0
 755 0002 0200     		movs	r2, r0
 756 0004 7432     		adds	r2, r2, #116
 757 0006 0323     		movs	r3, #3
 758 0008 1940     		ands	r1, r3
 759              	.LVL94:
 760 000a 4B00     		lsls	r3, r1, #1
 761 000c 5178     		ldrb	r1, [r2, #1]
 762 000e 0624     		movs	r4, #6
 763 0010 A143     		bics	r1, r4
 764 0012 1943     		orrs	r1, r3
 765 0014 5170     		strb	r1, [r2, #1]
 184:..\..\..\arduinoLCD\test\Pain Drain\libraries\lvgl\src\extra\widgets\spinbox/lv_spinbox.c **** }
 766              		.loc 1 184 0
 767 0016 FFF7FEFF 		bl	lv_spinbox_updatevalue
 768              	.LVL95:
 185:..\..\..\arduinoLCD\test\Pain Drain\libraries\lvgl\src\extra\widgets\spinbox/lv_spinbox.c **** /*=====================
 769              		.loc 1 185 0
 770              		@ sp needed
 771 001a 10BD     		pop	{r4, pc}
 772              		.cfi_endproc
 773              	.LFE209:
 774              		.size	lv_spinbox_set_digit_step_direction, .-lv_spinbox_set_digit_step_direction
 775              		.section	.text.lv_spinbox_get_value,"ax",%progbits
 776              		.align	2
 777              		.global	lv_spinbox_get_value
ARM GAS  C:\Users\haske\AppData\Local\Temp\ccEbAwQn.s 			page 25


 778              		.code	16
 779              		.thumb_func
 780              		.type	lv_spinbox_get_value, %function
 781              	lv_spinbox_get_value:
 782              	.LFB210:
 196:..\..\..\arduinoLCD\test\Pain Drain\libraries\lvgl\src\extra\widgets\spinbox/lv_spinbox.c ****     LV_ASSERT_OBJ(obj, MY_CLASS);
 783              		.loc 1 196 0
 784              		.cfi_startproc
 785              		@ args = 0, pretend = 0, frame = 0
 786              		@ frame_needed = 0, uses_anonymous_args = 0
 787              		@ link register save eliminated.
 788              	.LVL96:
 200:..\..\..\arduinoLCD\test\Pain Drain\libraries\lvgl\src\extra\widgets\spinbox/lv_spinbox.c **** }
 789              		.loc 1 200 0
 790 0000 406E     		ldr	r0, [r0, #100]
 791              	.LVL97:
 201:..\..\..\arduinoLCD\test\Pain Drain\libraries\lvgl\src\extra\widgets\spinbox/lv_spinbox.c **** /**
 792              		.loc 1 201 0
 793              		@ sp needed
 794 0002 7047     		bx	lr
 795              		.cfi_endproc
 796              	.LFE210:
 797              		.size	lv_spinbox_get_value, .-lv_spinbox_get_value
 798              		.section	.text.lv_spinbox_get_step,"ax",%progbits
 799              		.align	2
 800              		.global	lv_spinbox_get_step
 801              		.code	16
 802              		.thumb_func
 803              		.type	lv_spinbox_get_step, %function
 804              	lv_spinbox_get_step:
 805              	.LFB211:
 208:..\..\..\arduinoLCD\test\Pain Drain\libraries\lvgl\src\extra\widgets\spinbox/lv_spinbox.c ****     LV_ASSERT_OBJ(obj, MY_CLASS);
 806              		.loc 1 208 0
 807              		.cfi_startproc
 808              		@ args = 0, pretend = 0, frame = 0
 809              		@ frame_needed = 0, uses_anonymous_args = 0
 810              		@ link register save eliminated.
 811              	.LVL98:
 212:..\..\..\arduinoLCD\test\Pain Drain\libraries\lvgl\src\extra\widgets\spinbox/lv_spinbox.c **** }
 812              		.loc 1 212 0
 813 0000 006F     		ldr	r0, [r0, #112]
 814              	.LVL99:
 213:..\..\..\arduinoLCD\test\Pain Drain\libraries\lvgl\src\extra\widgets\spinbox/lv_spinbox.c **** 
 815              		.loc 1 213 0
 816              		@ sp needed
 817 0002 7047     		bx	lr
 818              		.cfi_endproc
 819              	.LFE211:
 820              		.size	lv_spinbox_get_step, .-lv_spinbox_get_step
 821              		.section	.text.lv_spinbox_step_next,"ax",%progbits
 822              		.align	2
 823              		.global	lv_spinbox_step_next
 824              		.code	16
 825              		.thumb_func
 826              		.type	lv_spinbox_step_next, %function
 827              	lv_spinbox_step_next:
 828              	.LFB212:
ARM GAS  C:\Users\haske\AppData\Local\Temp\ccEbAwQn.s 			page 26


 224:..\..\..\arduinoLCD\test\Pain Drain\libraries\lvgl\src\extra\widgets\spinbox/lv_spinbox.c ****     LV_ASSERT_OBJ(obj, MY_CLASS);
 829              		.loc 1 224 0
 830              		.cfi_startproc
 831              		@ args = 0, pretend = 0, frame = 0
 832              		@ frame_needed = 0, uses_anonymous_args = 0
 833              	.LVL100:
 834 0000 10B5     		push	{r4, lr}
 835              		.cfi_def_cfa_offset 8
 836              		.cfi_offset 4, -8
 837              		.cfi_offset 14, -4
 838 0002 0400     		movs	r4, r0
 839              	.LVL101:
 228:..\..\..\arduinoLCD\test\Pain Drain\libraries\lvgl\src\extra\widgets\spinbox/lv_spinbox.c ****     if((new_step) > 0)
 840              		.loc 1 228 0
 841 0004 0A21     		movs	r1, #10
 842 0006 006F     		ldr	r0, [r0, #112]
 843              	.LVL102:
 844 0008 FFF7FEFF 		bl	__aeabi_idiv
 845              	.LVL103:
 229:..\..\..\arduinoLCD\test\Pain Drain\libraries\lvgl\src\extra\widgets\spinbox/lv_spinbox.c ****         spinbox->step = new_step;
 846              		.loc 1 229 0
 847 000c 0028     		cmp	r0, #0
 848 000e 01DD     		ble	.L56
 230:..\..\..\arduinoLCD\test\Pain Drain\libraries\lvgl\src\extra\widgets\spinbox/lv_spinbox.c ****     else
 849              		.loc 1 230 0
 850 0010 2067     		str	r0, [r4, #112]
 851 0012 01E0     		b	.L57
 852              	.L56:
 232:..\..\..\arduinoLCD\test\Pain Drain\libraries\lvgl\src\extra\widgets\spinbox/lv_spinbox.c **** 
 853              		.loc 1 232 0
 854 0014 0123     		movs	r3, #1
 855 0016 2367     		str	r3, [r4, #112]
 856              	.L57:
 234:..\..\..\arduinoLCD\test\Pain Drain\libraries\lvgl\src\extra\widgets\spinbox/lv_spinbox.c **** }
 857              		.loc 1 234 0
 858 0018 2000     		movs	r0, r4
 859              	.LVL104:
 860 001a FFF7FEFF 		bl	lv_spinbox_updatevalue
 861              	.LVL105:
 235:..\..\..\arduinoLCD\test\Pain Drain\libraries\lvgl\src\extra\widgets\spinbox/lv_spinbox.c **** 
 862              		.loc 1 235 0
 863              		@ sp needed
 864              	.LVL106:
 865 001e 10BD     		pop	{r4, pc}
 866              		.cfi_endproc
 867              	.LFE212:
 868              		.size	lv_spinbox_step_next, .-lv_spinbox_step_next
 869              		.section	.text.lv_spinbox_step_prev,"ax",%progbits
 870              		.align	2
 871              		.global	lv_spinbox_step_prev
 872              		.code	16
 873              		.thumb_func
 874              		.type	lv_spinbox_step_prev, %function
 875              	lv_spinbox_step_prev:
 876              	.LFB213:
 242:..\..\..\arduinoLCD\test\Pain Drain\libraries\lvgl\src\extra\widgets\spinbox/lv_spinbox.c ****     LV_ASSERT_OBJ(obj, MY_CLASS);
 877              		.loc 1 242 0
ARM GAS  C:\Users\haske\AppData\Local\Temp\ccEbAwQn.s 			page 27


 878              		.cfi_startproc
 879              		@ args = 0, pretend = 0, frame = 0
 880              		@ frame_needed = 0, uses_anonymous_args = 0
 881              	.LVL107:
 882 0000 10B5     		push	{r4, lr}
 883              		.cfi_def_cfa_offset 8
 884              		.cfi_offset 4, -8
 885              		.cfi_offset 14, -4
 886              	.LVL108:
 246:..\..\..\arduinoLCD\test\Pain Drain\libraries\lvgl\src\extra\widgets\spinbox/lv_spinbox.c ****     int32_t new_step = spinbox->step * 10;
 887              		.loc 1 246 0
 888 0002 836E     		ldr	r3, [r0, #104]
 889 0004 C26E     		ldr	r2, [r0, #108]
 890 0006 D117     		asrs	r1, r2, #31
 891 0008 5218     		adds	r2, r2, r1
 892 000a 4A40     		eors	r2, r1
 893 000c 9A42     		cmp	r2, r3
 894 000e 00DA     		bge	.L59
 895 0010 1A00     		movs	r2, r3
 896              	.L59:
 897              	.LVL109:
 247:..\..\..\arduinoLCD\test\Pain Drain\libraries\lvgl\src\extra\widgets\spinbox/lv_spinbox.c ****     if(new_step <= step_limit) spinbox->step = new_step;
 898              		.loc 1 247 0
 899 0012 036F     		ldr	r3, [r0, #112]
 900 0014 9900     		lsls	r1, r3, #2
 901 0016 CB18     		adds	r3, r1, r3
 902 0018 5900     		lsls	r1, r3, #1
 903              	.LVL110:
 248:..\..\..\arduinoLCD\test\Pain Drain\libraries\lvgl\src\extra\widgets\spinbox/lv_spinbox.c **** 
 904              		.loc 1 248 0
 905 001a 8A42     		cmp	r2, r1
 906 001c 00DB     		blt	.L60
 248:..\..\..\arduinoLCD\test\Pain Drain\libraries\lvgl\src\extra\widgets\spinbox/lv_spinbox.c **** 
 907              		.loc 1 248 0 is_stmt 0 discriminator 1
 908 001e 0167     		str	r1, [r0, #112]
 909              	.L60:
 250:..\..\..\arduinoLCD\test\Pain Drain\libraries\lvgl\src\extra\widgets\spinbox/lv_spinbox.c **** }
 910              		.loc 1 250 0 is_stmt 1
 911 0020 FFF7FEFF 		bl	lv_spinbox_updatevalue
 912              	.LVL111:
 251:..\..\..\arduinoLCD\test\Pain Drain\libraries\lvgl\src\extra\widgets\spinbox/lv_spinbox.c **** 
 913              		.loc 1 251 0
 914              		@ sp needed
 915 0024 10BD     		pop	{r4, pc}
 916              		.cfi_endproc
 917              	.LFE213:
 918              		.size	lv_spinbox_step_prev, .-lv_spinbox_step_prev
 919 0026 C046     		.section	.text.lv_spinbox_get_rollover,"ax",%progbits
 920              		.align	2
 921              		.global	lv_spinbox_get_rollover
 922              		.code	16
 923              		.thumb_func
 924              		.type	lv_spinbox_get_rollover, %function
 925              	lv_spinbox_get_rollover:
 926              	.LFB214:
 258:..\..\..\arduinoLCD\test\Pain Drain\libraries\lvgl\src\extra\widgets\spinbox/lv_spinbox.c ****     LV_ASSERT_OBJ(obj, MY_CLASS);
 927              		.loc 1 258 0
ARM GAS  C:\Users\haske\AppData\Local\Temp\ccEbAwQn.s 			page 28


 928              		.cfi_startproc
 929              		@ args = 0, pretend = 0, frame = 0
 930              		@ frame_needed = 0, uses_anonymous_args = 0
 931              		@ link register save eliminated.
 932              	.LVL112:
 262:..\..\..\arduinoLCD\test\Pain Drain\libraries\lvgl\src\extra\widgets\spinbox/lv_spinbox.c **** }
 933              		.loc 1 262 0
 934 0000 7523     		movs	r3, #117
 935 0002 C05C     		ldrb	r0, [r0, r3]
 936              	.LVL113:
 937 0004 C007     		lsls	r0, r0, #31
 938 0006 C00F     		lsrs	r0, r0, #31
 939 0008 C0B2     		uxtb	r0, r0
 263:..\..\..\arduinoLCD\test\Pain Drain\libraries\lvgl\src\extra\widgets\spinbox/lv_spinbox.c **** 
 940              		.loc 1 263 0
 941              		@ sp needed
 942 000a 7047     		bx	lr
 943              		.cfi_endproc
 944              	.LFE214:
 945              		.size	lv_spinbox_get_rollover, .-lv_spinbox_get_rollover
 946              		.section	.text.lv_spinbox_increment,"ax",%progbits
 947              		.align	2
 948              		.global	lv_spinbox_increment
 949              		.code	16
 950              		.thumb_func
 951              		.type	lv_spinbox_increment, %function
 952              	lv_spinbox_increment:
 953              	.LFB215:
 270:..\..\..\arduinoLCD\test\Pain Drain\libraries\lvgl\src\extra\widgets\spinbox/lv_spinbox.c ****     LV_ASSERT_OBJ(obj, MY_CLASS);
 954              		.loc 1 270 0
 955              		.cfi_startproc
 956              		@ args = 0, pretend = 0, frame = 0
 957              		@ frame_needed = 0, uses_anonymous_args = 0
 958              	.LVL114:
 959 0000 10B5     		push	{r4, lr}
 960              		.cfi_def_cfa_offset 8
 961              		.cfi_offset 4, -8
 962              		.cfi_offset 14, -4
 963              	.LVL115:
 274:..\..\..\arduinoLCD\test\Pain Drain\libraries\lvgl\src\extra\widgets\spinbox/lv_spinbox.c ****         /*Special mode when zero crossing*/
 964              		.loc 1 274 0
 965 0002 426E     		ldr	r2, [r0, #100]
 966 0004 036F     		ldr	r3, [r0, #112]
 967 0006 D418     		adds	r4, r2, r3
 968 0008 816E     		ldr	r1, [r0, #104]
 969 000a 8C42     		cmp	r4, r1
 970 000c 0ADC     		bgt	.L63
 276:..\..\..\arduinoLCD\test\Pain Drain\libraries\lvgl\src\extra\widgets\spinbox/lv_spinbox.c ****         spinbox->value += spinbox->step;
 971              		.loc 1 276 0
 972 000e 002C     		cmp	r4, #0
 973 0010 03DD     		ble	.L64
 276:..\..\..\arduinoLCD\test\Pain Drain\libraries\lvgl\src\extra\widgets\spinbox/lv_spinbox.c ****         spinbox->value += spinbox->step;
 974              		.loc 1 276 0 is_stmt 0 discriminator 1
 975 0012 002A     		cmp	r2, #0
 976 0014 01DA     		bge	.L64
 276:..\..\..\arduinoLCD\test\Pain Drain\libraries\lvgl\src\extra\widgets\spinbox/lv_spinbox.c ****         spinbox->value += spinbox->step;
 977              		.loc 1 276 0 discriminator 2
ARM GAS  C:\Users\haske\AppData\Local\Temp\ccEbAwQn.s 			page 29


 978 0016 5242     		rsbs	r2, r2, #0
 979 0018 4266     		str	r2, [r0, #100]
 980              	.L64:
 277:..\..\..\arduinoLCD\test\Pain Drain\libraries\lvgl\src\extra\widgets\spinbox/lv_spinbox.c **** 
 981              		.loc 1 277 0 is_stmt 1
 982 001a 426E     		ldr	r2, [r0, #100]
 983 001c 9446     		mov	ip, r2
 984 001e 6344     		add	r3, r3, ip
 985 0020 4366     		str	r3, [r0, #100]
 986 0022 09E0     		b	.L65
 987              	.L63:
 282:..\..\..\arduinoLCD\test\Pain Drain\libraries\lvgl\src\extra\widgets\spinbox/lv_spinbox.c ****             spinbox->value = spinbox->range_min;
 988              		.loc 1 282 0
 989 0024 7523     		movs	r3, #117
 990 0026 C35C     		ldrb	r3, [r0, r3]
 991 0028 DB07     		lsls	r3, r3, #31
 992 002a 04D5     		bpl	.L66
 282:..\..\..\arduinoLCD\test\Pain Drain\libraries\lvgl\src\extra\widgets\spinbox/lv_spinbox.c ****             spinbox->value = spinbox->range_min;
 993              		.loc 1 282 0 is_stmt 0 discriminator 1
 994 002c 8A42     		cmp	r2, r1
 995 002e 02D1     		bne	.L66
 283:..\..\..\arduinoLCD\test\Pain Drain\libraries\lvgl\src\extra\widgets\spinbox/lv_spinbox.c ****         else
 996              		.loc 1 283 0 is_stmt 1
 997 0030 C36E     		ldr	r3, [r0, #108]
 998 0032 4366     		str	r3, [r0, #100]
 999 0034 00E0     		b	.L65
 1000              	.L66:
 285:..\..\..\arduinoLCD\test\Pain Drain\libraries\lvgl\src\extra\widgets\spinbox/lv_spinbox.c ****     }
 1001              		.loc 1 285 0
 1002 0036 4166     		str	r1, [r0, #100]
 1003              	.L65:
 288:..\..\..\arduinoLCD\test\Pain Drain\libraries\lvgl\src\extra\widgets\spinbox/lv_spinbox.c **** }
 1004              		.loc 1 288 0
 1005 0038 FFF7FEFF 		bl	lv_spinbox_updatevalue
 1006              	.LVL116:
 289:..\..\..\arduinoLCD\test\Pain Drain\libraries\lvgl\src\extra\widgets\spinbox/lv_spinbox.c **** 
 1007              		.loc 1 289 0
 1008              		@ sp needed
 1009 003c 10BD     		pop	{r4, pc}
 1010              		.cfi_endproc
 1011              	.LFE215:
 1012              		.size	lv_spinbox_increment, .-lv_spinbox_increment
 1013 003e C046     		.section	.text.lv_spinbox_decrement,"ax",%progbits
 1014              		.align	2
 1015              		.global	lv_spinbox_decrement
 1016              		.code	16
 1017              		.thumb_func
 1018              		.type	lv_spinbox_decrement, %function
 1019              	lv_spinbox_decrement:
 1020              	.LFB216:
 296:..\..\..\arduinoLCD\test\Pain Drain\libraries\lvgl\src\extra\widgets\spinbox/lv_spinbox.c ****     LV_ASSERT_OBJ(obj, MY_CLASS);
 1021              		.loc 1 296 0
 1022              		.cfi_startproc
 1023              		@ args = 0, pretend = 0, frame = 0
 1024              		@ frame_needed = 0, uses_anonymous_args = 0
 1025              	.LVL117:
 1026 0000 10B5     		push	{r4, lr}
ARM GAS  C:\Users\haske\AppData\Local\Temp\ccEbAwQn.s 			page 30


 1027              		.cfi_def_cfa_offset 8
 1028              		.cfi_offset 4, -8
 1029              		.cfi_offset 14, -4
 1030              	.LVL118:
 300:..\..\..\arduinoLCD\test\Pain Drain\libraries\lvgl\src\extra\widgets\spinbox/lv_spinbox.c ****         /*Special mode when zero crossing*/
 1031              		.loc 1 300 0
 1032 0002 436E     		ldr	r3, [r0, #100]
 1033 0004 016F     		ldr	r1, [r0, #112]
 1034 0006 5C1A     		subs	r4, r3, r1
 1035 0008 C26E     		ldr	r2, [r0, #108]
 1036 000a 9442     		cmp	r4, r2
 1037 000c 09DB     		blt	.L68
 302:..\..\..\arduinoLCD\test\Pain Drain\libraries\lvgl\src\extra\widgets\spinbox/lv_spinbox.c ****         spinbox->value -= spinbox->step;
 1038              		.loc 1 302 0
 1039 000e 002C     		cmp	r4, #0
 1040 0010 03DA     		bge	.L69
 302:..\..\..\arduinoLCD\test\Pain Drain\libraries\lvgl\src\extra\widgets\spinbox/lv_spinbox.c ****         spinbox->value -= spinbox->step;
 1041              		.loc 1 302 0 is_stmt 0 discriminator 1
 1042 0012 002B     		cmp	r3, #0
 1043 0014 01DD     		ble	.L69
 302:..\..\..\arduinoLCD\test\Pain Drain\libraries\lvgl\src\extra\widgets\spinbox/lv_spinbox.c ****         spinbox->value -= spinbox->step;
 1044              		.loc 1 302 0 discriminator 2
 1045 0016 5B42     		rsbs	r3, r3, #0
 1046 0018 4366     		str	r3, [r0, #100]
 1047              	.L69:
 303:..\..\..\arduinoLCD\test\Pain Drain\libraries\lvgl\src\extra\widgets\spinbox/lv_spinbox.c ****     }
 1048              		.loc 1 303 0 is_stmt 1
 1049 001a 436E     		ldr	r3, [r0, #100]
 1050 001c 591A     		subs	r1, r3, r1
 1051 001e 4166     		str	r1, [r0, #100]
 1052 0020 09E0     		b	.L70
 1053              	.L68:
 307:..\..\..\arduinoLCD\test\Pain Drain\libraries\lvgl\src\extra\widgets\spinbox/lv_spinbox.c ****             spinbox->value = spinbox->range_max;
 1054              		.loc 1 307 0
 1055 0022 7521     		movs	r1, #117
 1056 0024 415C     		ldrb	r1, [r0, r1]
 1057 0026 C907     		lsls	r1, r1, #31
 1058 0028 04D5     		bpl	.L71
 307:..\..\..\arduinoLCD\test\Pain Drain\libraries\lvgl\src\extra\widgets\spinbox/lv_spinbox.c ****             spinbox->value = spinbox->range_max;
 1059              		.loc 1 307 0 is_stmt 0 discriminator 1
 1060 002a 9342     		cmp	r3, r2
 1061 002c 02D1     		bne	.L71
 308:..\..\..\arduinoLCD\test\Pain Drain\libraries\lvgl\src\extra\widgets\spinbox/lv_spinbox.c ****         else
 1062              		.loc 1 308 0 is_stmt 1
 1063 002e 836E     		ldr	r3, [r0, #104]
 1064 0030 4366     		str	r3, [r0, #100]
 1065 0032 00E0     		b	.L70
 1066              	.L71:
 310:..\..\..\arduinoLCD\test\Pain Drain\libraries\lvgl\src\extra\widgets\spinbox/lv_spinbox.c ****     }
 1067              		.loc 1 310 0
 1068 0034 4266     		str	r2, [r0, #100]
 1069              	.L70:
 313:..\..\..\arduinoLCD\test\Pain Drain\libraries\lvgl\src\extra\widgets\spinbox/lv_spinbox.c **** }
 1070              		.loc 1 313 0
 1071 0036 FFF7FEFF 		bl	lv_spinbox_updatevalue
 1072              	.LVL119:
 314:..\..\..\arduinoLCD\test\Pain Drain\libraries\lvgl\src\extra\widgets\spinbox/lv_spinbox.c **** 
ARM GAS  C:\Users\haske\AppData\Local\Temp\ccEbAwQn.s 			page 31


 1073              		.loc 1 314 0
 1074              		@ sp needed
 1075 003a 10BD     		pop	{r4, pc}
 1076              		.cfi_endproc
 1077              	.LFE216:
 1078              		.size	lv_spinbox_decrement, .-lv_spinbox_decrement
 1079              		.section	.text.lv_spinbox_event,"ax",%progbits
 1080              		.align	2
 1081              		.code	16
 1082              		.thumb_func
 1083              		.type	lv_spinbox_event, %function
 1084              	lv_spinbox_event:
 1085              	.LFB218:
 346:..\..\..\arduinoLCD\test\Pain Drain\libraries\lvgl\src\extra\widgets\spinbox/lv_spinbox.c ****     LV_UNUSED(class_p);
 1086              		.loc 1 346 0
 1087              		.cfi_startproc
 1088              		@ args = 0, pretend = 0, frame = 0
 1089              		@ frame_needed = 0, uses_anonymous_args = 0
 1090              	.LVL120:
 1091 0000 70B5     		push	{r4, r5, r6, lr}
 1092              		.cfi_def_cfa_offset 16
 1093              		.cfi_offset 4, -16
 1094              		.cfi_offset 5, -12
 1095              		.cfi_offset 6, -8
 1096              		.cfi_offset 14, -4
 1097 0002 0C00     		movs	r4, r1
 1098              	.LVL121:
 351:..\..\..\arduinoLCD\test\Pain Drain\libraries\lvgl\src\extra\widgets\spinbox/lv_spinbox.c ****     if(res != LV_RES_OK) return;
 1099              		.loc 1 351 0
 1100 0004 6448     		ldr	r0, .L94
 1101              	.LVL122:
 1102 0006 FFF7FEFF 		bl	lv_obj_event_base
 1103              	.LVL123:
 352:..\..\..\arduinoLCD\test\Pain Drain\libraries\lvgl\src\extra\widgets\spinbox/lv_spinbox.c **** 
 1104              		.loc 1 352 0
 1105 000a 0128     		cmp	r0, #1
 1106 000c 00D0     		beq	.LCB1057
 1107 000e C2E0     		b	.L72	@long jump
 1108              	.LCB1057:
 354:..\..\..\arduinoLCD\test\Pain Drain\libraries\lvgl\src\extra\widgets\spinbox/lv_spinbox.c ****     lv_obj_t * obj = lv_event_get_target(e);
 1109              		.loc 1 354 0
 1110 0010 2000     		movs	r0, r4
 1111              	.LVL124:
 1112 0012 FFF7FEFF 		bl	lv_event_get_code
 1113              	.LVL125:
 1114 0016 0500     		movs	r5, r0
 1115              	.LVL126:
 355:..\..\..\arduinoLCD\test\Pain Drain\libraries\lvgl\src\extra\widgets\spinbox/lv_spinbox.c ****     lv_spinbox_t * spinbox = (lv_spinbox_t *)obj;
 1116              		.loc 1 355 0
 1117 0018 2000     		movs	r0, r4
 1118              	.LVL127:
 1119 001a FFF7FEFF 		bl	lv_event_get_target
 1120              	.LVL128:
 1121 001e 0600     		movs	r6, r0
 1122              	.LVL129:
 357:..\..\..\arduinoLCD\test\Pain Drain\libraries\lvgl\src\extra\widgets\spinbox/lv_spinbox.c ****         /*If released with an ENCODER then move to the next digit*/
 1123              		.loc 1 357 0
ARM GAS  C:\Users\haske\AppData\Local\Temp\ccEbAwQn.s 			page 32


 1124 0020 082D     		cmp	r5, #8
 1125 0022 00D0     		beq	.LCB1072
 1126 0024 85E0     		b	.L74	@long jump
 1127              	.LCB1072:
 1128              	.LBB3:
 359:..\..\..\arduinoLCD\test\Pain Drain\libraries\lvgl\src\extra\widgets\spinbox/lv_spinbox.c ****         if(lv_indev_get_type(indev) == LV_INDEV_TYPE_ENCODER) {
 1129              		.loc 1 359 0
 1130 0026 FFF7FEFF 		bl	lv_indev_get_act
 1131              	.LVL130:
 360:..\..\..\arduinoLCD\test\Pain Drain\libraries\lvgl\src\extra\widgets\spinbox/lv_spinbox.c ****             if(lv_group_get_editing(lv_obj_get_group(obj))) {
 1132              		.loc 1 360 0
 1133 002a FFF7FEFF 		bl	lv_indev_get_type
 1134              	.LVL131:
 1135 002e 0428     		cmp	r0, #4
 1136 0030 3DD1     		bne	.L75
 361:..\..\..\arduinoLCD\test\Pain Drain\libraries\lvgl\src\extra\widgets\spinbox/lv_spinbox.c ****                 if(spinbox->digit_count > 1) {
 1137              		.loc 1 361 0
 1138 0032 3000     		movs	r0, r6
 1139 0034 FFF7FEFF 		bl	lv_obj_get_group
 1140              	.LVL132:
 1141 0038 FFF7FEFF 		bl	lv_group_get_editing
 1142              	.LVL133:
 1143 003c 0028     		cmp	r0, #0
 1144 003e 00D1     		bne	.LCB1090
 1145 0040 A9E0     		b	.L72	@long jump
 1146              	.LCB1090:
 362:..\..\..\arduinoLCD\test\Pain Drain\libraries\lvgl\src\extra\widgets\spinbox/lv_spinbox.c ****                     if(spinbox->digit_step_dir == LV_DIR_RIGHT) {
 1147              		.loc 1 362 0
 1148 0042 7423     		movs	r3, #116
 1149 0044 F35C     		ldrb	r3, [r6, r3]
 1150 0046 1B07     		lsls	r3, r3, #28
 1151 0048 1B0F     		lsrs	r3, r3, #28
 1152 004a 012B     		cmp	r3, #1
 1153 004c 00DC     		bgt	.LCB1097
 1154 004e A2E0     		b	.L72	@long jump
 1155              	.LCB1097:
 363:..\..\..\arduinoLCD\test\Pain Drain\libraries\lvgl\src\extra\widgets\spinbox/lv_spinbox.c ****                         if(spinbox->step > 1) {
 1156              		.loc 1 363 0
 1157 0050 7522     		movs	r2, #117
 1158 0052 B25C     		ldrb	r2, [r6, r2]
 1159 0054 0621     		movs	r1, #6
 1160 0056 0A40     		ands	r2, r1
 1161 0058 042A     		cmp	r2, #4
 1162 005a 11D1     		bne	.L76
 364:..\..\..\arduinoLCD\test\Pain Drain\libraries\lvgl\src\extra\widgets\spinbox/lv_spinbox.c ****                             lv_spinbox_step_next(obj);
 1163              		.loc 1 364 0
 1164 005c 326F     		ldr	r2, [r6, #112]
 1165 005e 012A     		cmp	r2, #1
 1166 0060 03DD     		ble	.L77
 365:..\..\..\arduinoLCD\test\Pain Drain\libraries\lvgl\src\extra\widgets\spinbox/lv_spinbox.c ****                         }
 1167              		.loc 1 365 0
 1168 0062 3000     		movs	r0, r6
 1169 0064 FFF7FEFF 		bl	lv_spinbox_step_next
 1170              	.LVL134:
 1171 0068 95E0     		b	.L72
 1172              	.L77:
 369:..\..\..\arduinoLCD\test\Pain Drain\libraries\lvgl\src\extra\widgets\spinbox/lv_spinbox.c ****                             lv_spinbox_step_prev(obj);
ARM GAS  C:\Users\haske\AppData\Local\Temp\ccEbAwQn.s 			page 33


 1173              		.loc 1 369 0
 1174 006a 023B     		subs	r3, r3, #2
 1175 006c 5AB2     		sxtb	r2, r3
 1176 006e 0A20     		movs	r0, #10
 1177 0070 0021     		movs	r1, #0
 1178 0072 FFF7FEFF 		bl	lv_pow
 1179              	.LVL135:
 1180 0076 3067     		str	r0, [r6, #112]
 370:..\..\..\arduinoLCD\test\Pain Drain\libraries\lvgl\src\extra\widgets\spinbox/lv_spinbox.c ****                         }
 1181              		.loc 1 370 0
 1182 0078 3000     		movs	r0, r6
 1183 007a FFF7FEFF 		bl	lv_spinbox_step_prev
 1184              	.LVL136:
 1185 007e 8AE0     		b	.L72
 1186              	.L76:
 374:..\..\..\arduinoLCD\test\Pain Drain\libraries\lvgl\src\extra\widgets\spinbox/lv_spinbox.c ****                             lv_spinbox_step_prev(obj);
 1187              		.loc 1 374 0
 1188 0080 346F     		ldr	r4, [r6, #112]
 1189              	.LVL137:
 1190 0082 E517     		asrs	r5, r4, #31
 1191              	.LVL138:
 1192 0084 013B     		subs	r3, r3, #1
 1193 0086 5AB2     		sxtb	r2, r3
 1194 0088 0A20     		movs	r0, #10
 1195 008a 0021     		movs	r1, #0
 1196 008c FFF7FEFF 		bl	lv_pow
 1197              	.LVL139:
 1198 0090 A942     		cmp	r1, r5
 1199 0092 02DC     		bgt	.L93
 1200 0094 05D1     		bne	.L78
 1201 0096 A042     		cmp	r0, r4
 1202 0098 03D9     		bls	.L78
 1203              	.L93:
 375:..\..\..\arduinoLCD\test\Pain Drain\libraries\lvgl\src\extra\widgets\spinbox/lv_spinbox.c ****                         }
 1204              		.loc 1 375 0
 1205 009a 3000     		movs	r0, r6
 1206 009c FFF7FEFF 		bl	lv_spinbox_step_prev
 1207              	.LVL140:
 1208 00a0 79E0     		b	.L72
 1209              	.L78:
 379:..\..\..\arduinoLCD\test\Pain Drain\libraries\lvgl\src\extra\widgets\spinbox/lv_spinbox.c ****                             lv_spinbox_step_next(obj);
 1210              		.loc 1 379 0
 1211 00a2 0A23     		movs	r3, #10
 1212 00a4 3367     		str	r3, [r6, #112]
 380:..\..\..\arduinoLCD\test\Pain Drain\libraries\lvgl\src\extra\widgets\spinbox/lv_spinbox.c ****                         }
 1213              		.loc 1 380 0
 1214 00a6 3000     		movs	r0, r6
 1215 00a8 FFF7FEFF 		bl	lv_spinbox_step_next
 1216              	.LVL141:
 1217 00ac 73E0     		b	.L72
 1218              	.LVL142:
 1219              	.L75:
 1220              	.LBB4:
 389:..\..\..\arduinoLCD\test\Pain Drain\libraries\lvgl\src\extra\widgets\spinbox/lv_spinbox.c ****             size_t txt_len = strlen(txt);
 1221              		.loc 1 389 0
 1222 00ae 3000     		movs	r0, r6
 1223 00b0 FFF7FEFF 		bl	lv_textarea_get_text
ARM GAS  C:\Users\haske\AppData\Local\Temp\ccEbAwQn.s 			page 34


 1224              	.LVL143:
 1225 00b4 0400     		movs	r4, r0
 1226              	.LVL144:
 390:..\..\..\arduinoLCD\test\Pain Drain\libraries\lvgl\src\extra\widgets\spinbox/lv_spinbox.c **** 
 1227              		.loc 1 390 0
 1228 00b6 FFF7FEFF 		bl	strlen
 1229              	.LVL145:
 392:..\..\..\arduinoLCD\test\Pain Drain\libraries\lvgl\src\extra\widgets\spinbox/lv_spinbox.c ****                 lv_textarea_cursor_left(obj);
 1230              		.loc 1 392 0
 1231 00ba 736C     		ldr	r3, [r6, #68]
 1232 00bc E25C     		ldrb	r2, [r4, r3]
 1233 00be 2E2A     		cmp	r2, #46
 1234 00c0 03D1     		bne	.L80
 393:..\..\..\arduinoLCD\test\Pain Drain\libraries\lvgl\src\extra\widgets\spinbox/lv_spinbox.c ****             }
 1235              		.loc 1 393 0
 1236 00c2 3000     		movs	r0, r6
 1237              	.LVL146:
 1238 00c4 FFF7FEFF 		bl	lv_textarea_cursor_left
 1239              	.LVL147:
 1240 00c8 0FE0     		b	.L81
 1241              	.LVL148:
 1242              	.L80:
 395:..\..\..\arduinoLCD\test\Pain Drain\libraries\lvgl\src\extra\widgets\spinbox/lv_spinbox.c ****                 lv_textarea_set_cursor_pos(obj, txt_len - 1);
 1243              		.loc 1 395 0
 1244 00ca 9842     		cmp	r0, r3
 1245 00cc 04D1     		bne	.L82
 396:..\..\..\arduinoLCD\test\Pain Drain\libraries\lvgl\src\extra\widgets\spinbox/lv_spinbox.c ****             }
 1246              		.loc 1 396 0
 1247 00ce 411E     		subs	r1, r0, #1
 1248 00d0 3000     		movs	r0, r6
 1249              	.LVL149:
 1250 00d2 FFF7FEFF 		bl	lv_textarea_set_cursor_pos
 1251              	.LVL150:
 1252 00d6 08E0     		b	.L81
 1253              	.LVL151:
 1254              	.L82:
 398:..\..\..\arduinoLCD\test\Pain Drain\libraries\lvgl\src\extra\widgets\spinbox/lv_spinbox.c ****                 lv_textarea_set_cursor_pos(obj, 1);
 1255              		.loc 1 398 0
 1256 00d8 002B     		cmp	r3, #0
 1257 00da 06D1     		bne	.L81
 398:..\..\..\arduinoLCD\test\Pain Drain\libraries\lvgl\src\extra\widgets\spinbox/lv_spinbox.c ****                 lv_textarea_set_cursor_pos(obj, 1);
 1258              		.loc 1 398 0 is_stmt 0 discriminator 1
 1259 00dc F36E     		ldr	r3, [r6, #108]
 1260 00de 002B     		cmp	r3, #0
 1261 00e0 03DA     		bge	.L81
 399:..\..\..\arduinoLCD\test\Pain Drain\libraries\lvgl\src\extra\widgets\spinbox/lv_spinbox.c ****             }
 1262              		.loc 1 399 0 is_stmt 1
 1263 00e2 0121     		movs	r1, #1
 1264 00e4 3000     		movs	r0, r6
 1265              	.LVL152:
 1266 00e6 FFF7FEFF 		bl	lv_textarea_set_cursor_pos
 1267              	.LVL153:
 1268              	.L81:
 402:..\..\..\arduinoLCD\test\Pain Drain\libraries\lvgl\src\extra\widgets\spinbox/lv_spinbox.c ****             uint16_t cp = spinbox->ta.cursor.pos;
 1269              		.loc 1 402 0
 1270 00ea 7423     		movs	r3, #116
 1271 00ec F25C     		ldrb	r2, [r6, r3]
ARM GAS  C:\Users\haske\AppData\Local\Temp\ccEbAwQn.s 			page 35


 1272 00ee 1007     		lsls	r0, r2, #28
 1273 00f0 000F     		lsrs	r0, r0, #28
 1274 00f2 431E     		subs	r3, r0, #1
 1275              	.LVL154:
 403:..\..\..\arduinoLCD\test\Pain Drain\libraries\lvgl\src\extra\widgets\spinbox/lv_spinbox.c **** 
 1276              		.loc 1 403 0
 1277 00f4 716C     		ldr	r1, [r6, #68]
 1278 00f6 88B2     		uxth	r0, r1
 1279              	.LVL155:
 405:..\..\..\arduinoLCD\test\Pain Drain\libraries\lvgl\src\extra\widgets\spinbox/lv_spinbox.c ****             uint32_t pos = len - cp;
 1280              		.loc 1 405 0
 1281 00f8 1209     		lsrs	r2, r2, #4
 1282 00fa 9142     		cmp	r1, r2
 1283 00fc 06D9     		bls	.L83
 405:..\..\..\arduinoLCD\test\Pain Drain\libraries\lvgl\src\extra\widgets\spinbox/lv_spinbox.c ****             uint32_t pos = len - cp;
 1284              		.loc 1 405 0 is_stmt 0 discriminator 1
 1285 00fe 7422     		movs	r2, #116
 1286 0100 B25C     		ldrb	r2, [r6, r2]
 1287 0102 0F21     		movs	r1, #15
 1288 0104 8A43     		bics	r2, r1
 1289 0106 01D0     		beq	.L83
 405:..\..\..\arduinoLCD\test\Pain Drain\libraries\lvgl\src\extra\widgets\spinbox/lv_spinbox.c ****             uint32_t pos = len - cp;
 1290              		.loc 1 405 0 discriminator 2
 1291 0108 0138     		subs	r0, r0, #1
 1292              	.LVL156:
 1293 010a 80B2     		uxth	r0, r0
 1294              	.LVL157:
 1295              	.L83:
 406:..\..\..\arduinoLCD\test\Pain Drain\libraries\lvgl\src\extra\widgets\spinbox/lv_spinbox.c **** 
 1296              		.loc 1 406 0 is_stmt 1
 1297 010c 181A     		subs	r0, r3, r0
 1298              	.LVL158:
 408:..\..\..\arduinoLCD\test\Pain Drain\libraries\lvgl\src\extra\widgets\spinbox/lv_spinbox.c **** 
 1299              		.loc 1 408 0
 1300 010e F36E     		ldr	r3, [r6, #108]
 1301              	.LVL159:
 1302 0110 002B     		cmp	r3, #0
 1303 0112 00DA     		bge	.L84
 408:..\..\..\arduinoLCD\test\Pain Drain\libraries\lvgl\src\extra\widgets\spinbox/lv_spinbox.c **** 
 1304              		.loc 1 408 0 is_stmt 0 discriminator 1
 1305 0114 0130     		adds	r0, r0, #1
 1306              	.LVL160:
 1307              	.L84:
 410:..\..\..\arduinoLCD\test\Pain Drain\libraries\lvgl\src\extra\widgets\spinbox/lv_spinbox.c ****             uint16_t i;
 1308              		.loc 1 410 0 is_stmt 1
 1309 0116 0123     		movs	r3, #1
 1310 0118 3367     		str	r3, [r6, #112]
 1311              	.LVL161:
 412:..\..\..\arduinoLCD\test\Pain Drain\libraries\lvgl\src\extra\widgets\spinbox/lv_spinbox.c ****         }
 1312              		.loc 1 412 0
 1313 011a 0022     		movs	r2, #0
 1314 011c 06E0     		b	.L85
 1315              	.LVL162:
 1316              	.L86:
 412:..\..\..\arduinoLCD\test\Pain Drain\libraries\lvgl\src\extra\widgets\spinbox/lv_spinbox.c ****         }
 1317              		.loc 1 412 0 is_stmt 0 discriminator 3
 1318 011e 336F     		ldr	r3, [r6, #112]
ARM GAS  C:\Users\haske\AppData\Local\Temp\ccEbAwQn.s 			page 36


 1319 0120 9900     		lsls	r1, r3, #2
 1320 0122 CB18     		adds	r3, r1, r3
 1321 0124 5900     		lsls	r1, r3, #1
 1322 0126 3167     		str	r1, [r6, #112]
 1323 0128 0132     		adds	r2, r2, #1
 1324              	.LVL163:
 1325 012a 92B2     		uxth	r2, r2
 1326              	.LVL164:
 1327              	.L85:
 412:..\..\..\arduinoLCD\test\Pain Drain\libraries\lvgl\src\extra\widgets\spinbox/lv_spinbox.c ****         }
 1328              		.loc 1 412 0 discriminator 1
 1329 012c 9042     		cmp	r0, r2
 1330 012e F6D8     		bhi	.L86
 1331 0130 31E0     		b	.L72
 1332              	.LVL165:
 1333              	.L74:
 1334              	.LBE4:
 1335              	.LBE3:
 415:..\..\..\arduinoLCD\test\Pain Drain\libraries\lvgl\src\extra\widgets\spinbox/lv_spinbox.c ****         lv_indev_type_t indev_type = lv_indev_get_type(lv_indev_get_act());
 1336              		.loc 1 415 0 is_stmt 1
 1337 0132 0D2D     		cmp	r5, #13
 1338 0134 2FD1     		bne	.L72
 1339              	.LBB5:
 416:..\..\..\arduinoLCD\test\Pain Drain\libraries\lvgl\src\extra\widgets\spinbox/lv_spinbox.c **** 
 1340              		.loc 1 416 0
 1341 0136 FFF7FEFF 		bl	lv_indev_get_act
 1342              	.LVL166:
 1343 013a FFF7FEFF 		bl	lv_indev_get_type
 1344              	.LVL167:
 1345 013e 0500     		movs	r5, r0
 1346              	.LVL168:
 418:..\..\..\arduinoLCD\test\Pain Drain\libraries\lvgl\src\extra\widgets\spinbox/lv_spinbox.c ****         if(c == LV_KEY_RIGHT) {
 1347              		.loc 1 418 0
 1348 0140 2000     		movs	r0, r4
 1349              	.LVL169:
 1350 0142 FFF7FEFF 		bl	lv_event_get_param
 1351              	.LVL170:
 1352 0146 0168     		ldr	r1, [r0]
 1353              	.LVL171:
 419:..\..\..\arduinoLCD\test\Pain Drain\libraries\lvgl\src\extra\widgets\spinbox/lv_spinbox.c ****             if(indev_type == LV_INDEV_TYPE_ENCODER)
 1354              		.loc 1 419 0
 1355 0148 1329     		cmp	r1, #19
 1356 014a 09D1     		bne	.L87
 420:..\..\..\arduinoLCD\test\Pain Drain\libraries\lvgl\src\extra\widgets\spinbox/lv_spinbox.c ****                 lv_spinbox_increment(obj);
 1357              		.loc 1 420 0
 1358 014c 042D     		cmp	r5, #4
 1359 014e 03D1     		bne	.L88
 421:..\..\..\arduinoLCD\test\Pain Drain\libraries\lvgl\src\extra\widgets\spinbox/lv_spinbox.c ****             else
 1360              		.loc 1 421 0
 1361 0150 3000     		movs	r0, r6
 1362 0152 FFF7FEFF 		bl	lv_spinbox_increment
 1363              	.LVL172:
 1364 0156 1EE0     		b	.L72
 1365              	.LVL173:
 1366              	.L88:
 423:..\..\..\arduinoLCD\test\Pain Drain\libraries\lvgl\src\extra\widgets\spinbox/lv_spinbox.c ****         }
 1367              		.loc 1 423 0
ARM GAS  C:\Users\haske\AppData\Local\Temp\ccEbAwQn.s 			page 37


 1368 0158 3000     		movs	r0, r6
 1369 015a FFF7FEFF 		bl	lv_spinbox_step_next
 1370              	.LVL174:
 1371 015e 1AE0     		b	.L72
 1372              	.LVL175:
 1373              	.L87:
 425:..\..\..\arduinoLCD\test\Pain Drain\libraries\lvgl\src\extra\widgets\spinbox/lv_spinbox.c ****             if(indev_type == LV_INDEV_TYPE_ENCODER)
 1374              		.loc 1 425 0
 1375 0160 1429     		cmp	r1, #20
 1376 0162 09D1     		bne	.L89
 426:..\..\..\arduinoLCD\test\Pain Drain\libraries\lvgl\src\extra\widgets\spinbox/lv_spinbox.c ****                 lv_spinbox_decrement(obj);
 1377              		.loc 1 426 0
 1378 0164 042D     		cmp	r5, #4
 1379 0166 03D1     		bne	.L90
 427:..\..\..\arduinoLCD\test\Pain Drain\libraries\lvgl\src\extra\widgets\spinbox/lv_spinbox.c ****             else
 1380              		.loc 1 427 0
 1381 0168 3000     		movs	r0, r6
 1382 016a FFF7FEFF 		bl	lv_spinbox_decrement
 1383              	.LVL176:
 1384 016e 12E0     		b	.L72
 1385              	.LVL177:
 1386              	.L90:
 429:..\..\..\arduinoLCD\test\Pain Drain\libraries\lvgl\src\extra\widgets\spinbox/lv_spinbox.c ****         }
 1387              		.loc 1 429 0
 1388 0170 3000     		movs	r0, r6
 1389 0172 FFF7FEFF 		bl	lv_spinbox_step_prev
 1390              	.LVL178:
 1391 0176 0EE0     		b	.L72
 1392              	.LVL179:
 1393              	.L89:
 431:..\..\..\arduinoLCD\test\Pain Drain\libraries\lvgl\src\extra\widgets\spinbox/lv_spinbox.c ****             lv_spinbox_increment(obj);
 1394              		.loc 1 431 0
 1395 0178 1129     		cmp	r1, #17
 1396 017a 03D1     		bne	.L91
 432:..\..\..\arduinoLCD\test\Pain Drain\libraries\lvgl\src\extra\widgets\spinbox/lv_spinbox.c ****         }
 1397              		.loc 1 432 0
 1398 017c 3000     		movs	r0, r6
 1399 017e FFF7FEFF 		bl	lv_spinbox_increment
 1400              	.LVL180:
 1401 0182 08E0     		b	.L72
 1402              	.LVL181:
 1403              	.L91:
 434:..\..\..\arduinoLCD\test\Pain Drain\libraries\lvgl\src\extra\widgets\spinbox/lv_spinbox.c ****             lv_spinbox_decrement(obj);
 1404              		.loc 1 434 0
 1405 0184 1229     		cmp	r1, #18
 1406 0186 03D1     		bne	.L92
 435:..\..\..\arduinoLCD\test\Pain Drain\libraries\lvgl\src\extra\widgets\spinbox/lv_spinbox.c ****         }
 1407              		.loc 1 435 0
 1408 0188 3000     		movs	r0, r6
 1409 018a FFF7FEFF 		bl	lv_spinbox_decrement
 1410              	.LVL182:
 1411 018e 02E0     		b	.L72
 1412              	.LVL183:
 1413              	.L92:
 438:..\..\..\arduinoLCD\test\Pain Drain\libraries\lvgl\src\extra\widgets\spinbox/lv_spinbox.c ****         }
 1414              		.loc 1 438 0
 1415 0190 3000     		movs	r0, r6
ARM GAS  C:\Users\haske\AppData\Local\Temp\ccEbAwQn.s 			page 38


 1416 0192 FFF7FEFF 		bl	lv_textarea_add_char
 1417              	.LVL184:
 1418              	.L72:
 1419              	.LBE5:
 441:..\..\..\arduinoLCD\test\Pain Drain\libraries\lvgl\src\extra\widgets\spinbox/lv_spinbox.c **** 
 1420              		.loc 1 441 0
 1421              		@ sp needed
 1422 0196 70BD     		pop	{r4, r5, r6, pc}
 1423              	.L95:
 1424              		.align	2
 1425              	.L94:
 1426 0198 00000000 		.word	.LANCHOR0
 1427              		.cfi_endproc
 1428              	.LFE218:
 1429              		.size	lv_spinbox_event, .-lv_spinbox_event
 1430              		.global	lv_spinbox_class
 1431              		.section	.rodata
 1432              		.align	2
 1433              		.set	.LANCHOR0,. + 0
 1434              		.type	lv_spinbox_class, %object
 1435              		.size	lv_spinbox_class, 28
 1436              	lv_spinbox_class:
 1437 0000 00000000 		.word	lv_textarea_class
 1438 0004 00000000 		.word	lv_spinbox_constructor
 1439 0008 00000000 		.space	8
 1439      00000000 
 1440 0010 00000000 		.word	lv_spinbox_event
 1441 0014 8200     		.short	130
 1442 0016 0000     		.space	2
 1443 0018 81       		.byte	129
 1444 0019 07       		.byte	7
 1445 001a 00       		.byte	0
 1446 001b 00       		.space	1
 1447              		.section	.rodata.str1.4,"aMS",%progbits,1
 1448              		.align	2
 1449              	.LC0:
 1450 0000 256C6400 		.ascii	"%ld\000"
 1451              		.text
 1452              	.Letext0:
 1453              		.file 2 "c:\\program files (x86)\\cypress\\psoc creator\\4.4\\psoc creator\\import\\gnu\\arm\\5.4.
 1454              		.file 3 "c:\\program files (x86)\\cypress\\psoc creator\\4.4\\psoc creator\\import\\gnu\\arm\\5.4.
 1455              		.file 4 "c:\\projects\\paindrain\\arduinolcd\\test\\pain drain\\libraries\\lvgl\\src/misc/lv_types
 1456              		.file 5 "c:\\projects\\paindrain\\arduinolcd\\test\\pain drain\\libraries\\lvgl\\src/misc/lv_timer
 1457              		.file 6 "c:\\program files (x86)\\cypress\\psoc creator\\4.4\\psoc creator\\import\\gnu\\arm\\5.4.
 1458              		.file 7 "c:\\projects\\paindrain\\arduinolcd\\test\\pain drain\\libraries\\lvgl\\src\\misc\\lv_are
 1459              		.file 8 "c:\\projects\\paindrain\\arduinolcd\\test\\pain drain\\libraries\\lvgl\\src\\font\\lv_fon
 1460              		.file 9 "c:\\projects\\paindrain\\arduinolcd\\test\\pain drain\\libraries\\lvgl\\src\\misc\\lv_col
 1461              		.file 10 "c:\\projects\\paindrain\\arduinolcd\\test\\pain drain\\libraries\\lvgl\\src\\misc\\lv_tx
 1462              		.file 11 "c:\\projects\\paindrain\\arduinolcd\\test\\pain drain\\libraries\\lvgl\\src\\misc\\lv_bi
 1463              		.file 12 "c:\\projects\\paindrain\\arduinolcd\\test\\pain drain\\libraries\\lvgl\\src\\misc\\lv_st
 1464              		.file 13 "c:\\projects\\paindrain\\arduinolcd\\test\\pain drain\\libraries\\lvgl\\src\\draw\\lv_im
 1465              		.file 14 "c:\\projects\\paindrain\\arduinolcd\\test\\pain drain\\libraries\\lvgl\\src/core/lv_obj.
 1466              		.file 15 "c:\\projects\\paindrain\\arduinolcd\\test\\pain drain\\libraries\\lvgl\\src\\draw\\lv_dr
 1467              		.file 16 "c:\\projects\\paindrain\\arduinolcd\\test\\pain drain\\libraries\\lvgl\\src\\draw\\lv_dr
 1468              		.file 17 "c:\\projects\\paindrain\\arduinolcd\\test\\pain drain\\libraries\\lvgl\\src\\draw\\lv_dr
 1469              		.file 18 "c:\\projects\\paindrain\\arduinolcd\\test\\pain drain\\libraries\\lvgl\\src\\draw\\lv_dr
 1470              		.file 19 "c:\\projects\\paindrain\\arduinolcd\\test\\pain drain\\libraries\\lvgl\\src\\draw\\lv_dr
ARM GAS  C:\Users\haske\AppData\Local\Temp\ccEbAwQn.s 			page 39


 1471              		.file 20 "c:\\projects\\paindrain\\arduinolcd\\test\\pain drain\\libraries\\lvgl\\src\\draw\\lv_dr
 1472              		.file 21 "c:\\projects\\paindrain\\arduinolcd\\test\\pain drain\\libraries\\lvgl\\src\\draw\\lv_dr
 1473              		.file 22 "c:\\projects\\paindrain\\arduinolcd\\test\\pain drain\\libraries\\lvgl\\src\\misc\\lv_ll
 1474              		.file 23 "c:\\projects\\paindrain\\arduinolcd\\test\\pain drain\\libraries\\lvgl\\src/hal/lv_hal_d
 1475              		.file 24 "c:\\projects\\paindrain\\arduinolcd\\test\\pain drain\\libraries\\lvgl\\src/core/lv_them
 1476              		.file 25 "c:\\projects\\paindrain\\arduinolcd\\test\\pain drain\\libraries\\lvgl\\src/hal/lv_hal_i
 1477              		.file 26 "c:\\projects\\paindrain\\arduinolcd\\test\\pain drain\\libraries\\lvgl\\src/core/lv_grou
 1478              		.file 27 "c:\\projects\\paindrain\\arduinolcd\\test\\pain drain\\libraries\\lvgl\\src/core/lv_obj_
 1479              		.file 28 "c:\\projects\\paindrain\\arduinolcd\\test\\pain drain\\libraries\\lvgl\\src/core/lv_obj_
 1480              		.file 29 "c:\\projects\\paindrain\\arduinolcd\\test\\pain drain\\libraries\\lvgl\\src/core/lv_obj_
 1481              		.file 30 "c:\\projects\\paindrain\\arduinolcd\\test\\pain drain\\libraries\\lvgl\\src/core/lv_even
 1482              		.file 31 "c:\\projects\\paindrain\\arduinolcd\\test\\pain drain\\libraries\\lvgl\\src/widgets/lv_b
 1483              		.file 32 "c:\\projects\\paindrain\\arduinolcd\\test\\pain drain\\libraries\\lvgl\\src/widgets/lv_t
 1484              		.file 33 "c:\\projects\\paindrain\\arduinolcd\\test\\pain drain\\libraries\\lvgl\\src/extra/widget
 1485              		.file 34 "..\\..\\..\\arduinoLCD\\test\\Pain Drain\\libraries\\lvgl\\src\\extra\\widgets\\spinbox\
 1486              		.file 35 "c:\\projects\\paindrain\\arduinolcd\\test\\pain drain\\libraries\\lvgl\\src/extra/layout
 1487              		.file 36 "c:\\projects\\paindrain\\arduinolcd\\test\\pain drain\\libraries\\lvgl\\src/extra/layout
 1488              		.file 37 "c:\\projects\\paindrain\\arduinolcd\\test\\pain drain\\libraries\\lvgl\\src/misc/lv_mem.
 1489              		.file 38 "c:\\projects\\paindrain\\arduinolcd\\test\\pain drain\\libraries\\lvgl\\src/misc/lv_prin
 1490              		.file 39 "c:\\program files (x86)\\cypress\\psoc creator\\4.4\\psoc creator\\import\\gnu\\arm\\5.4
 1491              		.file 40 "c:\\projects\\paindrain\\arduinolcd\\test\\pain drain\\libraries\\lvgl\\src/misc/lv_math
 1492              		.file 41 "c:\\projects\\paindrain\\arduinolcd\\test\\pain drain\\libraries\\lvgl\\src/core/lv_inde