ARM GAS  C:\Users\haske\AppData\Local\Temp\ccdHxW38.s 			page 1


   1              		.syntax unified
   2              		.cpu cortex-m0plus
   3              		.fpu softvfp
   4              		.eabi_attribute 20, 1
   5              		.eabi_attribute 21, 1
   6              		.eabi_attribute 23, 3
   7              		.eabi_attribute 24, 1
   8              		.eabi_attribute 25, 1
   9              		.eabi_attribute 26, 1
  10              		.eabi_attribute 30, 1
  11              		.eabi_attribute 34, 0
  12              		.eabi_attribute 18, 4
  13              		.thumb
  14              		.syntax unified
  15              		.file	"lv_style.c"
  16              		.text
  17              	.Ltext0:
  18              		.cfi_sections	.debug_frame
  19              		.section	.text.lv_style_set_prop_helper,"ax",%progbits
  20              		.align	2
  21              		.code	16
  22              		.thumb_func
  23              		.type	lv_style_set_prop_helper, %function
  24              	lv_style_set_prop_helper:
  25              	.LFB69:
  26              		.file 1 "..\\..\\..\\arduinoLCD\\test\\Pain Drain\\libraries\\lvgl\\src\\misc\\lv_style.c"
   1:..\..\..\arduinoLCD\test\Pain Drain\libraries\lvgl\src\misc/lv_style.c **** /**
   2:..\..\..\arduinoLCD\test\Pain Drain\libraries\lvgl\src\misc/lv_style.c ****  * @file lv_style.c
   3:..\..\..\arduinoLCD\test\Pain Drain\libraries\lvgl\src\misc/lv_style.c ****  *
   4:..\..\..\arduinoLCD\test\Pain Drain\libraries\lvgl\src\misc/lv_style.c ****  */
   5:..\..\..\arduinoLCD\test\Pain Drain\libraries\lvgl\src\misc/lv_style.c **** 
   6:..\..\..\arduinoLCD\test\Pain Drain\libraries\lvgl\src\misc/lv_style.c **** /*********************
   7:..\..\..\arduinoLCD\test\Pain Drain\libraries\lvgl\src\misc/lv_style.c ****  *      INCLUDES
   8:..\..\..\arduinoLCD\test\Pain Drain\libraries\lvgl\src\misc/lv_style.c ****  *********************/
   9:..\..\..\arduinoLCD\test\Pain Drain\libraries\lvgl\src\misc/lv_style.c **** #include "lv_style.h"
  10:..\..\..\arduinoLCD\test\Pain Drain\libraries\lvgl\src\misc/lv_style.c **** #include "../misc/lv_gc.h"
  11:..\..\..\arduinoLCD\test\Pain Drain\libraries\lvgl\src\misc/lv_style.c **** #include "../misc/lv_mem.h"
  12:..\..\..\arduinoLCD\test\Pain Drain\libraries\lvgl\src\misc/lv_style.c **** #include "lv_assert.h"
  13:..\..\..\arduinoLCD\test\Pain Drain\libraries\lvgl\src\misc/lv_style.c **** #include "lv_types.h"
  14:..\..\..\arduinoLCD\test\Pain Drain\libraries\lvgl\src\misc/lv_style.c **** 
  15:..\..\..\arduinoLCD\test\Pain Drain\libraries\lvgl\src\misc/lv_style.c **** /*********************
  16:..\..\..\arduinoLCD\test\Pain Drain\libraries\lvgl\src\misc/lv_style.c ****  *      DEFINES
  17:..\..\..\arduinoLCD\test\Pain Drain\libraries\lvgl\src\misc/lv_style.c ****  *********************/
  18:..\..\..\arduinoLCD\test\Pain Drain\libraries\lvgl\src\misc/lv_style.c **** 
  19:..\..\..\arduinoLCD\test\Pain Drain\libraries\lvgl\src\misc/lv_style.c **** /**********************
  20:..\..\..\arduinoLCD\test\Pain Drain\libraries\lvgl\src\misc/lv_style.c ****  *      TYPEDEFS
  21:..\..\..\arduinoLCD\test\Pain Drain\libraries\lvgl\src\misc/lv_style.c ****  **********************/
  22:..\..\..\arduinoLCD\test\Pain Drain\libraries\lvgl\src\misc/lv_style.c **** 
  23:..\..\..\arduinoLCD\test\Pain Drain\libraries\lvgl\src\misc/lv_style.c **** /**********************
  24:..\..\..\arduinoLCD\test\Pain Drain\libraries\lvgl\src\misc/lv_style.c ****  *  STATIC PROTOTYPES
  25:..\..\..\arduinoLCD\test\Pain Drain\libraries\lvgl\src\misc/lv_style.c ****  **********************/
  26:..\..\..\arduinoLCD\test\Pain Drain\libraries\lvgl\src\misc/lv_style.c **** 
  27:..\..\..\arduinoLCD\test\Pain Drain\libraries\lvgl\src\misc/lv_style.c **** static void lv_style_set_prop_internal(lv_style_t * style, lv_style_prop_t prop_and_meta, lv_style_
  28:..\..\..\arduinoLCD\test\Pain Drain\libraries\lvgl\src\misc/lv_style.c ****                                        void (*value_adjustment_helper)(lv_style_prop_t, lv_style_va
  29:..\..\..\arduinoLCD\test\Pain Drain\libraries\lvgl\src\misc/lv_style.c **** static void lv_style_set_prop_helper(lv_style_prop_t prop, lv_style_value_t value, uint16_t * prop_
  30:..\..\..\arduinoLCD\test\Pain Drain\libraries\lvgl\src\misc/lv_style.c ****                                      lv_style_value_t * value_storage);
  31:..\..\..\arduinoLCD\test\Pain Drain\libraries\lvgl\src\misc/lv_style.c **** static void lv_style_set_prop_meta_helper(lv_style_prop_t prop, lv_style_value_t value, uint16_t * 
ARM GAS  C:\Users\haske\AppData\Local\Temp\ccdHxW38.s 			page 2


  32:..\..\..\arduinoLCD\test\Pain Drain\libraries\lvgl\src\misc/lv_style.c ****                                           lv_style_value_t * value_storage);
  33:..\..\..\arduinoLCD\test\Pain Drain\libraries\lvgl\src\misc/lv_style.c **** 
  34:..\..\..\arduinoLCD\test\Pain Drain\libraries\lvgl\src\misc/lv_style.c **** /**********************
  35:..\..\..\arduinoLCD\test\Pain Drain\libraries\lvgl\src\misc/lv_style.c ****  *  GLOBAL VARIABLES
  36:..\..\..\arduinoLCD\test\Pain Drain\libraries\lvgl\src\misc/lv_style.c ****  **********************/
  37:..\..\..\arduinoLCD\test\Pain Drain\libraries\lvgl\src\misc/lv_style.c **** 
  38:..\..\..\arduinoLCD\test\Pain Drain\libraries\lvgl\src\misc/lv_style.c **** const uint8_t _lv_style_builtin_prop_flag_lookup_table[_LV_STYLE_NUM_BUILT_IN_PROPS] = {
  39:..\..\..\arduinoLCD\test\Pain Drain\libraries\lvgl\src\misc/lv_style.c ****     [LV_STYLE_WIDTH] =                    LV_STYLE_PROP_LAYOUT_REFR,
  40:..\..\..\arduinoLCD\test\Pain Drain\libraries\lvgl\src\misc/lv_style.c ****     [LV_STYLE_MIN_WIDTH] =                LV_STYLE_PROP_LAYOUT_REFR,
  41:..\..\..\arduinoLCD\test\Pain Drain\libraries\lvgl\src\misc/lv_style.c ****     [LV_STYLE_MAX_WIDTH] =                LV_STYLE_PROP_LAYOUT_REFR,
  42:..\..\..\arduinoLCD\test\Pain Drain\libraries\lvgl\src\misc/lv_style.c ****     [LV_STYLE_HEIGHT] =                   LV_STYLE_PROP_LAYOUT_REFR,
  43:..\..\..\arduinoLCD\test\Pain Drain\libraries\lvgl\src\misc/lv_style.c ****     [LV_STYLE_MIN_HEIGHT] =               LV_STYLE_PROP_LAYOUT_REFR,
  44:..\..\..\arduinoLCD\test\Pain Drain\libraries\lvgl\src\misc/lv_style.c ****     [LV_STYLE_MAX_HEIGHT] =               LV_STYLE_PROP_LAYOUT_REFR,
  45:..\..\..\arduinoLCD\test\Pain Drain\libraries\lvgl\src\misc/lv_style.c ****     [LV_STYLE_X] =                        LV_STYLE_PROP_LAYOUT_REFR,
  46:..\..\..\arduinoLCD\test\Pain Drain\libraries\lvgl\src\misc/lv_style.c ****     [LV_STYLE_Y] =                        LV_STYLE_PROP_LAYOUT_REFR,
  47:..\..\..\arduinoLCD\test\Pain Drain\libraries\lvgl\src\misc/lv_style.c ****     [LV_STYLE_ALIGN] =                    LV_STYLE_PROP_LAYOUT_REFR,
  48:..\..\..\arduinoLCD\test\Pain Drain\libraries\lvgl\src\misc/lv_style.c ****     [LV_STYLE_TRANSFORM_WIDTH] =           LV_STYLE_PROP_EXT_DRAW,
  49:..\..\..\arduinoLCD\test\Pain Drain\libraries\lvgl\src\misc/lv_style.c ****     [LV_STYLE_TRANSFORM_HEIGHT] =          LV_STYLE_PROP_EXT_DRAW,
  50:..\..\..\arduinoLCD\test\Pain Drain\libraries\lvgl\src\misc/lv_style.c ****     [LV_STYLE_TRANSLATE_X] =               LV_STYLE_PROP_LAYOUT_REFR | LV_STYLE_PROP_PARENT_LAYOUT_
  51:..\..\..\arduinoLCD\test\Pain Drain\libraries\lvgl\src\misc/lv_style.c ****     [LV_STYLE_TRANSLATE_Y] =               LV_STYLE_PROP_LAYOUT_REFR | LV_STYLE_PROP_PARENT_LAYOUT_
  52:..\..\..\arduinoLCD\test\Pain Drain\libraries\lvgl\src\misc/lv_style.c ****     [LV_STYLE_TRANSFORM_ZOOM] =            LV_STYLE_PROP_EXT_DRAW | LV_STYLE_PROP_LAYER_REFR,
  53:..\..\..\arduinoLCD\test\Pain Drain\libraries\lvgl\src\misc/lv_style.c ****     [LV_STYLE_TRANSFORM_ANGLE] =           LV_STYLE_PROP_EXT_DRAW | LV_STYLE_PROP_LAYER_REFR,
  54:..\..\..\arduinoLCD\test\Pain Drain\libraries\lvgl\src\misc/lv_style.c **** 
  55:..\..\..\arduinoLCD\test\Pain Drain\libraries\lvgl\src\misc/lv_style.c ****     [LV_STYLE_PAD_TOP] =                   LV_STYLE_PROP_EXT_DRAW | LV_STYLE_PROP_LAYOUT_REFR,
  56:..\..\..\arduinoLCD\test\Pain Drain\libraries\lvgl\src\misc/lv_style.c ****     [LV_STYLE_PAD_BOTTOM] =                LV_STYLE_PROP_EXT_DRAW | LV_STYLE_PROP_LAYOUT_REFR,
  57:..\..\..\arduinoLCD\test\Pain Drain\libraries\lvgl\src\misc/lv_style.c ****     [LV_STYLE_PAD_LEFT] =                  LV_STYLE_PROP_EXT_DRAW | LV_STYLE_PROP_LAYOUT_REFR,
  58:..\..\..\arduinoLCD\test\Pain Drain\libraries\lvgl\src\misc/lv_style.c ****     [LV_STYLE_PAD_RIGHT] =                 LV_STYLE_PROP_EXT_DRAW | LV_STYLE_PROP_LAYOUT_REFR,
  59:..\..\..\arduinoLCD\test\Pain Drain\libraries\lvgl\src\misc/lv_style.c ****     [LV_STYLE_PAD_ROW] =                   LV_STYLE_PROP_EXT_DRAW | LV_STYLE_PROP_LAYOUT_REFR,
  60:..\..\..\arduinoLCD\test\Pain Drain\libraries\lvgl\src\misc/lv_style.c ****     [LV_STYLE_PAD_COLUMN] =                LV_STYLE_PROP_EXT_DRAW | LV_STYLE_PROP_LAYOUT_REFR,
  61:..\..\..\arduinoLCD\test\Pain Drain\libraries\lvgl\src\misc/lv_style.c **** 
  62:..\..\..\arduinoLCD\test\Pain Drain\libraries\lvgl\src\misc/lv_style.c ****     [LV_STYLE_BG_COLOR] = 0,
  63:..\..\..\arduinoLCD\test\Pain Drain\libraries\lvgl\src\misc/lv_style.c ****     [LV_STYLE_BG_OPA] = 0,
  64:..\..\..\arduinoLCD\test\Pain Drain\libraries\lvgl\src\misc/lv_style.c ****     [LV_STYLE_BG_GRAD_COLOR] = 0,
  65:..\..\..\arduinoLCD\test\Pain Drain\libraries\lvgl\src\misc/lv_style.c ****     [LV_STYLE_BG_GRAD_DIR] = 0,
  66:..\..\..\arduinoLCD\test\Pain Drain\libraries\lvgl\src\misc/lv_style.c ****     [LV_STYLE_BG_MAIN_STOP] = 0,
  67:..\..\..\arduinoLCD\test\Pain Drain\libraries\lvgl\src\misc/lv_style.c ****     [LV_STYLE_BG_GRAD_STOP] = 0,
  68:..\..\..\arduinoLCD\test\Pain Drain\libraries\lvgl\src\misc/lv_style.c ****     [LV_STYLE_BG_GRAD] = 0,
  69:..\..\..\arduinoLCD\test\Pain Drain\libraries\lvgl\src\misc/lv_style.c ****     [LV_STYLE_BG_DITHER_MODE] = 0,
  70:..\..\..\arduinoLCD\test\Pain Drain\libraries\lvgl\src\misc/lv_style.c **** 
  71:..\..\..\arduinoLCD\test\Pain Drain\libraries\lvgl\src\misc/lv_style.c ****     [LV_STYLE_BG_IMG_SRC] =                LV_STYLE_PROP_EXT_DRAW,
  72:..\..\..\arduinoLCD\test\Pain Drain\libraries\lvgl\src\misc/lv_style.c ****     [LV_STYLE_BG_IMG_OPA] = 0,
  73:..\..\..\arduinoLCD\test\Pain Drain\libraries\lvgl\src\misc/lv_style.c ****     [LV_STYLE_BG_IMG_RECOLOR] = 0,
  74:..\..\..\arduinoLCD\test\Pain Drain\libraries\lvgl\src\misc/lv_style.c ****     [LV_STYLE_BG_IMG_RECOLOR_OPA] = 0,
  75:..\..\..\arduinoLCD\test\Pain Drain\libraries\lvgl\src\misc/lv_style.c ****     [LV_STYLE_BG_IMG_TILED] = 0,
  76:..\..\..\arduinoLCD\test\Pain Drain\libraries\lvgl\src\misc/lv_style.c **** 
  77:..\..\..\arduinoLCD\test\Pain Drain\libraries\lvgl\src\misc/lv_style.c ****     [LV_STYLE_BORDER_COLOR] = 0,
  78:..\..\..\arduinoLCD\test\Pain Drain\libraries\lvgl\src\misc/lv_style.c ****     [LV_STYLE_BORDER_OPA] = 0,
  79:..\..\..\arduinoLCD\test\Pain Drain\libraries\lvgl\src\misc/lv_style.c ****     [LV_STYLE_BORDER_WIDTH] =              LV_STYLE_PROP_LAYOUT_REFR,
  80:..\..\..\arduinoLCD\test\Pain Drain\libraries\lvgl\src\misc/lv_style.c ****     [LV_STYLE_BORDER_SIDE] = 0,
  81:..\..\..\arduinoLCD\test\Pain Drain\libraries\lvgl\src\misc/lv_style.c ****     [LV_STYLE_BORDER_POST] = 0,
  82:..\..\..\arduinoLCD\test\Pain Drain\libraries\lvgl\src\misc/lv_style.c **** 
  83:..\..\..\arduinoLCD\test\Pain Drain\libraries\lvgl\src\misc/lv_style.c ****     [LV_STYLE_OUTLINE_WIDTH] =             LV_STYLE_PROP_EXT_DRAW,
  84:..\..\..\arduinoLCD\test\Pain Drain\libraries\lvgl\src\misc/lv_style.c ****     [LV_STYLE_OUTLINE_COLOR] = 0,
  85:..\..\..\arduinoLCD\test\Pain Drain\libraries\lvgl\src\misc/lv_style.c ****     [LV_STYLE_OUTLINE_OPA] =               LV_STYLE_PROP_EXT_DRAW,
  86:..\..\..\arduinoLCD\test\Pain Drain\libraries\lvgl\src\misc/lv_style.c ****     [LV_STYLE_OUTLINE_PAD] =               LV_STYLE_PROP_EXT_DRAW,
  87:..\..\..\arduinoLCD\test\Pain Drain\libraries\lvgl\src\misc/lv_style.c **** 
  88:..\..\..\arduinoLCD\test\Pain Drain\libraries\lvgl\src\misc/lv_style.c ****     [LV_STYLE_SHADOW_WIDTH] =              LV_STYLE_PROP_EXT_DRAW,
ARM GAS  C:\Users\haske\AppData\Local\Temp\ccdHxW38.s 			page 3


  89:..\..\..\arduinoLCD\test\Pain Drain\libraries\lvgl\src\misc/lv_style.c ****     [LV_STYLE_SHADOW_OFS_X] =              LV_STYLE_PROP_EXT_DRAW,
  90:..\..\..\arduinoLCD\test\Pain Drain\libraries\lvgl\src\misc/lv_style.c ****     [LV_STYLE_SHADOW_OFS_Y] =              LV_STYLE_PROP_EXT_DRAW,
  91:..\..\..\arduinoLCD\test\Pain Drain\libraries\lvgl\src\misc/lv_style.c ****     [LV_STYLE_SHADOW_SPREAD] =             LV_STYLE_PROP_EXT_DRAW,
  92:..\..\..\arduinoLCD\test\Pain Drain\libraries\lvgl\src\misc/lv_style.c ****     [LV_STYLE_SHADOW_COLOR] = 0,
  93:..\..\..\arduinoLCD\test\Pain Drain\libraries\lvgl\src\misc/lv_style.c ****     [LV_STYLE_SHADOW_OPA] =                LV_STYLE_PROP_EXT_DRAW,
  94:..\..\..\arduinoLCD\test\Pain Drain\libraries\lvgl\src\misc/lv_style.c **** 
  95:..\..\..\arduinoLCD\test\Pain Drain\libraries\lvgl\src\misc/lv_style.c ****     [LV_STYLE_IMG_OPA] = 0,
  96:..\..\..\arduinoLCD\test\Pain Drain\libraries\lvgl\src\misc/lv_style.c ****     [LV_STYLE_IMG_RECOLOR] = 0,
  97:..\..\..\arduinoLCD\test\Pain Drain\libraries\lvgl\src\misc/lv_style.c ****     [LV_STYLE_IMG_RECOLOR_OPA] = 0,
  98:..\..\..\arduinoLCD\test\Pain Drain\libraries\lvgl\src\misc/lv_style.c **** 
  99:..\..\..\arduinoLCD\test\Pain Drain\libraries\lvgl\src\misc/lv_style.c ****     [LV_STYLE_LINE_WIDTH] =                LV_STYLE_PROP_EXT_DRAW,
 100:..\..\..\arduinoLCD\test\Pain Drain\libraries\lvgl\src\misc/lv_style.c ****     [LV_STYLE_LINE_DASH_WIDTH] = 0,
 101:..\..\..\arduinoLCD\test\Pain Drain\libraries\lvgl\src\misc/lv_style.c ****     [LV_STYLE_LINE_DASH_GAP] = 0,
 102:..\..\..\arduinoLCD\test\Pain Drain\libraries\lvgl\src\misc/lv_style.c ****     [LV_STYLE_LINE_ROUNDED] = 0,
 103:..\..\..\arduinoLCD\test\Pain Drain\libraries\lvgl\src\misc/lv_style.c ****     [LV_STYLE_LINE_COLOR] = 0,
 104:..\..\..\arduinoLCD\test\Pain Drain\libraries\lvgl\src\misc/lv_style.c ****     [LV_STYLE_LINE_OPA] = 0,
 105:..\..\..\arduinoLCD\test\Pain Drain\libraries\lvgl\src\misc/lv_style.c **** 
 106:..\..\..\arduinoLCD\test\Pain Drain\libraries\lvgl\src\misc/lv_style.c ****     [LV_STYLE_ARC_WIDTH] =                 LV_STYLE_PROP_EXT_DRAW,
 107:..\..\..\arduinoLCD\test\Pain Drain\libraries\lvgl\src\misc/lv_style.c ****     [LV_STYLE_ARC_ROUNDED] = 0,
 108:..\..\..\arduinoLCD\test\Pain Drain\libraries\lvgl\src\misc/lv_style.c ****     [LV_STYLE_ARC_COLOR] = 0,
 109:..\..\..\arduinoLCD\test\Pain Drain\libraries\lvgl\src\misc/lv_style.c ****     [LV_STYLE_ARC_OPA] = 0,
 110:..\..\..\arduinoLCD\test\Pain Drain\libraries\lvgl\src\misc/lv_style.c ****     [LV_STYLE_ARC_IMG_SRC] = 0,
 111:..\..\..\arduinoLCD\test\Pain Drain\libraries\lvgl\src\misc/lv_style.c **** 
 112:..\..\..\arduinoLCD\test\Pain Drain\libraries\lvgl\src\misc/lv_style.c ****     [LV_STYLE_TEXT_COLOR] =                LV_STYLE_PROP_INHERIT,
 113:..\..\..\arduinoLCD\test\Pain Drain\libraries\lvgl\src\misc/lv_style.c ****     [LV_STYLE_TEXT_OPA] =                  LV_STYLE_PROP_INHERIT,
 114:..\..\..\arduinoLCD\test\Pain Drain\libraries\lvgl\src\misc/lv_style.c ****     [LV_STYLE_TEXT_FONT] =                 LV_STYLE_PROP_INHERIT | LV_STYLE_PROP_LAYOUT_REFR,
 115:..\..\..\arduinoLCD\test\Pain Drain\libraries\lvgl\src\misc/lv_style.c ****     [LV_STYLE_TEXT_LETTER_SPACE] =         LV_STYLE_PROP_INHERIT | LV_STYLE_PROP_LAYOUT_REFR,
 116:..\..\..\arduinoLCD\test\Pain Drain\libraries\lvgl\src\misc/lv_style.c ****     [LV_STYLE_TEXT_LINE_SPACE] =           LV_STYLE_PROP_INHERIT | LV_STYLE_PROP_LAYOUT_REFR,
 117:..\..\..\arduinoLCD\test\Pain Drain\libraries\lvgl\src\misc/lv_style.c ****     [LV_STYLE_TEXT_DECOR] =                LV_STYLE_PROP_INHERIT,
 118:..\..\..\arduinoLCD\test\Pain Drain\libraries\lvgl\src\misc/lv_style.c ****     [LV_STYLE_TEXT_ALIGN] =                LV_STYLE_PROP_INHERIT | LV_STYLE_PROP_LAYOUT_REFR,
 119:..\..\..\arduinoLCD\test\Pain Drain\libraries\lvgl\src\misc/lv_style.c **** 
 120:..\..\..\arduinoLCD\test\Pain Drain\libraries\lvgl\src\misc/lv_style.c ****     [LV_STYLE_RADIUS] = 0,
 121:..\..\..\arduinoLCD\test\Pain Drain\libraries\lvgl\src\misc/lv_style.c ****     [LV_STYLE_CLIP_CORNER] = 0,
 122:..\..\..\arduinoLCD\test\Pain Drain\libraries\lvgl\src\misc/lv_style.c ****     [LV_STYLE_OPA] =                       LV_STYLE_PROP_LAYER_REFR,
 123:..\..\..\arduinoLCD\test\Pain Drain\libraries\lvgl\src\misc/lv_style.c ****     [LV_STYLE_COLOR_FILTER_DSC] =          LV_STYLE_PROP_INHERIT,
 124:..\..\..\arduinoLCD\test\Pain Drain\libraries\lvgl\src\misc/lv_style.c ****     [LV_STYLE_COLOR_FILTER_OPA] =          LV_STYLE_PROP_INHERIT,
 125:..\..\..\arduinoLCD\test\Pain Drain\libraries\lvgl\src\misc/lv_style.c ****     [LV_STYLE_ANIM_TIME] = 0,
 126:..\..\..\arduinoLCD\test\Pain Drain\libraries\lvgl\src\misc/lv_style.c ****     [LV_STYLE_ANIM_SPEED] = 0,
 127:..\..\..\arduinoLCD\test\Pain Drain\libraries\lvgl\src\misc/lv_style.c ****     [LV_STYLE_TRANSITION] = 0,
 128:..\..\..\arduinoLCD\test\Pain Drain\libraries\lvgl\src\misc/lv_style.c ****     [LV_STYLE_BLEND_MODE] =                LV_STYLE_PROP_LAYER_REFR,
 129:..\..\..\arduinoLCD\test\Pain Drain\libraries\lvgl\src\misc/lv_style.c ****     [LV_STYLE_LAYOUT] =                    LV_STYLE_PROP_LAYOUT_REFR,
 130:..\..\..\arduinoLCD\test\Pain Drain\libraries\lvgl\src\misc/lv_style.c ****     [LV_STYLE_BASE_DIR] =                  LV_STYLE_PROP_INHERIT | LV_STYLE_PROP_LAYOUT_REFR,
 131:..\..\..\arduinoLCD\test\Pain Drain\libraries\lvgl\src\misc/lv_style.c **** };
 132:..\..\..\arduinoLCD\test\Pain Drain\libraries\lvgl\src\misc/lv_style.c **** 
 133:..\..\..\arduinoLCD\test\Pain Drain\libraries\lvgl\src\misc/lv_style.c **** uint32_t _lv_style_custom_prop_flag_lookup_table_size = 0;
 134:..\..\..\arduinoLCD\test\Pain Drain\libraries\lvgl\src\misc/lv_style.c **** 
 135:..\..\..\arduinoLCD\test\Pain Drain\libraries\lvgl\src\misc/lv_style.c **** /**********************
 136:..\..\..\arduinoLCD\test\Pain Drain\libraries\lvgl\src\misc/lv_style.c ****  *  STATIC VARIABLES
 137:..\..\..\arduinoLCD\test\Pain Drain\libraries\lvgl\src\misc/lv_style.c ****  **********************/
 138:..\..\..\arduinoLCD\test\Pain Drain\libraries\lvgl\src\misc/lv_style.c **** 
 139:..\..\..\arduinoLCD\test\Pain Drain\libraries\lvgl\src\misc/lv_style.c **** static uint16_t last_custom_prop_id = (uint16_t)_LV_STYLE_LAST_BUILT_IN_PROP;
 140:..\..\..\arduinoLCD\test\Pain Drain\libraries\lvgl\src\misc/lv_style.c **** static const lv_style_value_t null_style_value = { .num = 0 };
 141:..\..\..\arduinoLCD\test\Pain Drain\libraries\lvgl\src\misc/lv_style.c **** 
 142:..\..\..\arduinoLCD\test\Pain Drain\libraries\lvgl\src\misc/lv_style.c **** /**********************
 143:..\..\..\arduinoLCD\test\Pain Drain\libraries\lvgl\src\misc/lv_style.c ****  *      MACROS
 144:..\..\..\arduinoLCD\test\Pain Drain\libraries\lvgl\src\misc/lv_style.c ****  **********************/
 145:..\..\..\arduinoLCD\test\Pain Drain\libraries\lvgl\src\misc/lv_style.c **** 
ARM GAS  C:\Users\haske\AppData\Local\Temp\ccdHxW38.s 			page 4


 146:..\..\..\arduinoLCD\test\Pain Drain\libraries\lvgl\src\misc/lv_style.c **** /**********************
 147:..\..\..\arduinoLCD\test\Pain Drain\libraries\lvgl\src\misc/lv_style.c ****  *   GLOBAL FUNCTIONS
 148:..\..\..\arduinoLCD\test\Pain Drain\libraries\lvgl\src\misc/lv_style.c ****  **********************/
 149:..\..\..\arduinoLCD\test\Pain Drain\libraries\lvgl\src\misc/lv_style.c **** 
 150:..\..\..\arduinoLCD\test\Pain Drain\libraries\lvgl\src\misc/lv_style.c **** void lv_style_init(lv_style_t * style)
 151:..\..\..\arduinoLCD\test\Pain Drain\libraries\lvgl\src\misc/lv_style.c **** {
 152:..\..\..\arduinoLCD\test\Pain Drain\libraries\lvgl\src\misc/lv_style.c **** #if LV_USE_ASSERT_STYLE
 153:..\..\..\arduinoLCD\test\Pain Drain\libraries\lvgl\src\misc/lv_style.c ****     if(style->sentinel == LV_STYLE_SENTINEL_VALUE && style->prop_cnt > 1) {
 154:..\..\..\arduinoLCD\test\Pain Drain\libraries\lvgl\src\misc/lv_style.c ****         LV_LOG_WARN("Style might be already inited. (Potential memory leak)");
 155:..\..\..\arduinoLCD\test\Pain Drain\libraries\lvgl\src\misc/lv_style.c ****     }
 156:..\..\..\arduinoLCD\test\Pain Drain\libraries\lvgl\src\misc/lv_style.c **** #endif
 157:..\..\..\arduinoLCD\test\Pain Drain\libraries\lvgl\src\misc/lv_style.c **** 
 158:..\..\..\arduinoLCD\test\Pain Drain\libraries\lvgl\src\misc/lv_style.c ****     lv_memset_00(style, sizeof(lv_style_t));
 159:..\..\..\arduinoLCD\test\Pain Drain\libraries\lvgl\src\misc/lv_style.c **** #if LV_USE_ASSERT_STYLE
 160:..\..\..\arduinoLCD\test\Pain Drain\libraries\lvgl\src\misc/lv_style.c ****     style->sentinel = LV_STYLE_SENTINEL_VALUE;
 161:..\..\..\arduinoLCD\test\Pain Drain\libraries\lvgl\src\misc/lv_style.c **** #endif
 162:..\..\..\arduinoLCD\test\Pain Drain\libraries\lvgl\src\misc/lv_style.c **** }
 163:..\..\..\arduinoLCD\test\Pain Drain\libraries\lvgl\src\misc/lv_style.c **** 
 164:..\..\..\arduinoLCD\test\Pain Drain\libraries\lvgl\src\misc/lv_style.c **** void lv_style_reset(lv_style_t * style)
 165:..\..\..\arduinoLCD\test\Pain Drain\libraries\lvgl\src\misc/lv_style.c **** {
 166:..\..\..\arduinoLCD\test\Pain Drain\libraries\lvgl\src\misc/lv_style.c ****     LV_ASSERT_STYLE(style);
 167:..\..\..\arduinoLCD\test\Pain Drain\libraries\lvgl\src\misc/lv_style.c **** 
 168:..\..\..\arduinoLCD\test\Pain Drain\libraries\lvgl\src\misc/lv_style.c ****     if(style->prop1 == LV_STYLE_PROP_ANY) {
 169:..\..\..\arduinoLCD\test\Pain Drain\libraries\lvgl\src\misc/lv_style.c ****         LV_LOG_ERROR("Cannot reset const style");
 170:..\..\..\arduinoLCD\test\Pain Drain\libraries\lvgl\src\misc/lv_style.c ****         return;
 171:..\..\..\arduinoLCD\test\Pain Drain\libraries\lvgl\src\misc/lv_style.c ****     }
 172:..\..\..\arduinoLCD\test\Pain Drain\libraries\lvgl\src\misc/lv_style.c **** 
 173:..\..\..\arduinoLCD\test\Pain Drain\libraries\lvgl\src\misc/lv_style.c ****     if(style->prop_cnt > 1) lv_mem_free(style->v_p.values_and_props);
 174:..\..\..\arduinoLCD\test\Pain Drain\libraries\lvgl\src\misc/lv_style.c ****     lv_memset_00(style, sizeof(lv_style_t));
 175:..\..\..\arduinoLCD\test\Pain Drain\libraries\lvgl\src\misc/lv_style.c **** #if LV_USE_ASSERT_STYLE
 176:..\..\..\arduinoLCD\test\Pain Drain\libraries\lvgl\src\misc/lv_style.c ****     style->sentinel = LV_STYLE_SENTINEL_VALUE;
 177:..\..\..\arduinoLCD\test\Pain Drain\libraries\lvgl\src\misc/lv_style.c **** #endif
 178:..\..\..\arduinoLCD\test\Pain Drain\libraries\lvgl\src\misc/lv_style.c **** }
 179:..\..\..\arduinoLCD\test\Pain Drain\libraries\lvgl\src\misc/lv_style.c **** 
 180:..\..\..\arduinoLCD\test\Pain Drain\libraries\lvgl\src\misc/lv_style.c **** lv_style_prop_t lv_style_register_prop(uint8_t flag)
 181:..\..\..\arduinoLCD\test\Pain Drain\libraries\lvgl\src\misc/lv_style.c **** {
 182:..\..\..\arduinoLCD\test\Pain Drain\libraries\lvgl\src\misc/lv_style.c ****     if(LV_GC_ROOT(_lv_style_custom_prop_flag_lookup_table) == NULL) {
 183:..\..\..\arduinoLCD\test\Pain Drain\libraries\lvgl\src\misc/lv_style.c ****         _lv_style_custom_prop_flag_lookup_table_size = 0;
 184:..\..\..\arduinoLCD\test\Pain Drain\libraries\lvgl\src\misc/lv_style.c ****         last_custom_prop_id = (uint16_t)_LV_STYLE_LAST_BUILT_IN_PROP;
 185:..\..\..\arduinoLCD\test\Pain Drain\libraries\lvgl\src\misc/lv_style.c ****     }
 186:..\..\..\arduinoLCD\test\Pain Drain\libraries\lvgl\src\misc/lv_style.c **** 
 187:..\..\..\arduinoLCD\test\Pain Drain\libraries\lvgl\src\misc/lv_style.c ****     if(((last_custom_prop_id + 1) & LV_STYLE_PROP_META_MASK) != 0) {
 188:..\..\..\arduinoLCD\test\Pain Drain\libraries\lvgl\src\misc/lv_style.c ****         LV_LOG_ERROR("No more custom property IDs available");
 189:..\..\..\arduinoLCD\test\Pain Drain\libraries\lvgl\src\misc/lv_style.c ****         return LV_STYLE_PROP_INV;
 190:..\..\..\arduinoLCD\test\Pain Drain\libraries\lvgl\src\misc/lv_style.c ****     }
 191:..\..\..\arduinoLCD\test\Pain Drain\libraries\lvgl\src\misc/lv_style.c **** 
 192:..\..\..\arduinoLCD\test\Pain Drain\libraries\lvgl\src\misc/lv_style.c ****     /*
 193:..\..\..\arduinoLCD\test\Pain Drain\libraries\lvgl\src\misc/lv_style.c ****      * Allocate the lookup table if it's not yet available.
 194:..\..\..\arduinoLCD\test\Pain Drain\libraries\lvgl\src\misc/lv_style.c ****      */
 195:..\..\..\arduinoLCD\test\Pain Drain\libraries\lvgl\src\misc/lv_style.c ****     size_t required_size = (last_custom_prop_id + 1 - _LV_STYLE_LAST_BUILT_IN_PROP);
 196:..\..\..\arduinoLCD\test\Pain Drain\libraries\lvgl\src\misc/lv_style.c ****     if(_lv_style_custom_prop_flag_lookup_table_size < required_size) {
 197:..\..\..\arduinoLCD\test\Pain Drain\libraries\lvgl\src\misc/lv_style.c ****         /* Round required_size up to the nearest 32-byte value */
 198:..\..\..\arduinoLCD\test\Pain Drain\libraries\lvgl\src\misc/lv_style.c ****         required_size = (required_size + 31) & ~31;
 199:..\..\..\arduinoLCD\test\Pain Drain\libraries\lvgl\src\misc/lv_style.c ****         LV_ASSERT_MSG(required_size > 0, "required size has become 0?");
 200:..\..\..\arduinoLCD\test\Pain Drain\libraries\lvgl\src\misc/lv_style.c ****         uint8_t * old_p = LV_GC_ROOT(_lv_style_custom_prop_flag_lookup_table);
 201:..\..\..\arduinoLCD\test\Pain Drain\libraries\lvgl\src\misc/lv_style.c ****         uint8_t * new_p = lv_mem_realloc(old_p, required_size * sizeof(uint8_t));
 202:..\..\..\arduinoLCD\test\Pain Drain\libraries\lvgl\src\misc/lv_style.c ****         if(new_p == NULL) {
ARM GAS  C:\Users\haske\AppData\Local\Temp\ccdHxW38.s 			page 5


 203:..\..\..\arduinoLCD\test\Pain Drain\libraries\lvgl\src\misc/lv_style.c ****             LV_LOG_ERROR("Unable to allocate space for custom property lookup table");
 204:..\..\..\arduinoLCD\test\Pain Drain\libraries\lvgl\src\misc/lv_style.c ****             return LV_STYLE_PROP_INV;
 205:..\..\..\arduinoLCD\test\Pain Drain\libraries\lvgl\src\misc/lv_style.c ****         }
 206:..\..\..\arduinoLCD\test\Pain Drain\libraries\lvgl\src\misc/lv_style.c ****         LV_GC_ROOT(_lv_style_custom_prop_flag_lookup_table) = new_p;
 207:..\..\..\arduinoLCD\test\Pain Drain\libraries\lvgl\src\misc/lv_style.c ****         _lv_style_custom_prop_flag_lookup_table_size = required_size;
 208:..\..\..\arduinoLCD\test\Pain Drain\libraries\lvgl\src\misc/lv_style.c ****     }
 209:..\..\..\arduinoLCD\test\Pain Drain\libraries\lvgl\src\misc/lv_style.c ****     last_custom_prop_id++;
 210:..\..\..\arduinoLCD\test\Pain Drain\libraries\lvgl\src\misc/lv_style.c ****     /* This should never happen - we should bail out above */
 211:..\..\..\arduinoLCD\test\Pain Drain\libraries\lvgl\src\misc/lv_style.c ****     LV_ASSERT_NULL(LV_GC_ROOT(_lv_style_custom_prop_flag_lookup_table));
 212:..\..\..\arduinoLCD\test\Pain Drain\libraries\lvgl\src\misc/lv_style.c ****     LV_GC_ROOT(_lv_style_custom_prop_flag_lookup_table)[last_custom_prop_id - _LV_STYLE_NUM_BUILT_I
 213:..\..\..\arduinoLCD\test\Pain Drain\libraries\lvgl\src\misc/lv_style.c ****     return last_custom_prop_id;
 214:..\..\..\arduinoLCD\test\Pain Drain\libraries\lvgl\src\misc/lv_style.c **** }
 215:..\..\..\arduinoLCD\test\Pain Drain\libraries\lvgl\src\misc/lv_style.c **** 
 216:..\..\..\arduinoLCD\test\Pain Drain\libraries\lvgl\src\misc/lv_style.c **** lv_style_prop_t lv_style_get_num_custom_props(void)
 217:..\..\..\arduinoLCD\test\Pain Drain\libraries\lvgl\src\misc/lv_style.c **** {
 218:..\..\..\arduinoLCD\test\Pain Drain\libraries\lvgl\src\misc/lv_style.c ****     return last_custom_prop_id - _LV_STYLE_LAST_BUILT_IN_PROP;
 219:..\..\..\arduinoLCD\test\Pain Drain\libraries\lvgl\src\misc/lv_style.c **** }
 220:..\..\..\arduinoLCD\test\Pain Drain\libraries\lvgl\src\misc/lv_style.c **** 
 221:..\..\..\arduinoLCD\test\Pain Drain\libraries\lvgl\src\misc/lv_style.c **** bool lv_style_remove_prop(lv_style_t * style, lv_style_prop_t prop)
 222:..\..\..\arduinoLCD\test\Pain Drain\libraries\lvgl\src\misc/lv_style.c **** {
 223:..\..\..\arduinoLCD\test\Pain Drain\libraries\lvgl\src\misc/lv_style.c ****     LV_ASSERT_STYLE(style);
 224:..\..\..\arduinoLCD\test\Pain Drain\libraries\lvgl\src\misc/lv_style.c **** 
 225:..\..\..\arduinoLCD\test\Pain Drain\libraries\lvgl\src\misc/lv_style.c ****     if(style->prop1 == LV_STYLE_PROP_ANY) {
 226:..\..\..\arduinoLCD\test\Pain Drain\libraries\lvgl\src\misc/lv_style.c ****         LV_LOG_ERROR("Cannot remove prop from const style");
 227:..\..\..\arduinoLCD\test\Pain Drain\libraries\lvgl\src\misc/lv_style.c ****         return false;
 228:..\..\..\arduinoLCD\test\Pain Drain\libraries\lvgl\src\misc/lv_style.c ****     }
 229:..\..\..\arduinoLCD\test\Pain Drain\libraries\lvgl\src\misc/lv_style.c **** 
 230:..\..\..\arduinoLCD\test\Pain Drain\libraries\lvgl\src\misc/lv_style.c ****     if(style->prop_cnt == 0)  return false;
 231:..\..\..\arduinoLCD\test\Pain Drain\libraries\lvgl\src\misc/lv_style.c **** 
 232:..\..\..\arduinoLCD\test\Pain Drain\libraries\lvgl\src\misc/lv_style.c ****     if(style->prop_cnt == 1) {
 233:..\..\..\arduinoLCD\test\Pain Drain\libraries\lvgl\src\misc/lv_style.c ****         if(LV_STYLE_PROP_ID_MASK(style->prop1) == prop) {
 234:..\..\..\arduinoLCD\test\Pain Drain\libraries\lvgl\src\misc/lv_style.c ****             style->prop1 = LV_STYLE_PROP_INV;
 235:..\..\..\arduinoLCD\test\Pain Drain\libraries\lvgl\src\misc/lv_style.c ****             style->prop_cnt = 0;
 236:..\..\..\arduinoLCD\test\Pain Drain\libraries\lvgl\src\misc/lv_style.c ****             return true;
 237:..\..\..\arduinoLCD\test\Pain Drain\libraries\lvgl\src\misc/lv_style.c ****         }
 238:..\..\..\arduinoLCD\test\Pain Drain\libraries\lvgl\src\misc/lv_style.c ****         return false;
 239:..\..\..\arduinoLCD\test\Pain Drain\libraries\lvgl\src\misc/lv_style.c ****     }
 240:..\..\..\arduinoLCD\test\Pain Drain\libraries\lvgl\src\misc/lv_style.c **** 
 241:..\..\..\arduinoLCD\test\Pain Drain\libraries\lvgl\src\misc/lv_style.c ****     uint8_t * tmp = style->v_p.values_and_props + style->prop_cnt * sizeof(lv_style_value_t);
 242:..\..\..\arduinoLCD\test\Pain Drain\libraries\lvgl\src\misc/lv_style.c ****     uint16_t * old_props = (uint16_t *)tmp;
 243:..\..\..\arduinoLCD\test\Pain Drain\libraries\lvgl\src\misc/lv_style.c ****     uint32_t i;
 244:..\..\..\arduinoLCD\test\Pain Drain\libraries\lvgl\src\misc/lv_style.c ****     for(i = 0; i < style->prop_cnt; i++) {
 245:..\..\..\arduinoLCD\test\Pain Drain\libraries\lvgl\src\misc/lv_style.c ****         if(LV_STYLE_PROP_ID_MASK(old_props[i]) == prop) {
 246:..\..\..\arduinoLCD\test\Pain Drain\libraries\lvgl\src\misc/lv_style.c ****             lv_style_value_t * old_values = (lv_style_value_t *)style->v_p.values_and_props;
 247:..\..\..\arduinoLCD\test\Pain Drain\libraries\lvgl\src\misc/lv_style.c **** 
 248:..\..\..\arduinoLCD\test\Pain Drain\libraries\lvgl\src\misc/lv_style.c ****             if(style->prop_cnt == 2) {
 249:..\..\..\arduinoLCD\test\Pain Drain\libraries\lvgl\src\misc/lv_style.c ****                 style->prop_cnt = 1;
 250:..\..\..\arduinoLCD\test\Pain Drain\libraries\lvgl\src\misc/lv_style.c ****                 style->prop1 = i == 0 ? old_props[1] : old_props[0];
 251:..\..\..\arduinoLCD\test\Pain Drain\libraries\lvgl\src\misc/lv_style.c ****                 style->v_p.value1 = i == 0 ? old_values[1] : old_values[0];
 252:..\..\..\arduinoLCD\test\Pain Drain\libraries\lvgl\src\misc/lv_style.c ****             }
 253:..\..\..\arduinoLCD\test\Pain Drain\libraries\lvgl\src\misc/lv_style.c ****             else {
 254:..\..\..\arduinoLCD\test\Pain Drain\libraries\lvgl\src\misc/lv_style.c ****                 size_t size = (style->prop_cnt - 1) * (sizeof(lv_style_value_t) + sizeof(uint16_t))
 255:..\..\..\arduinoLCD\test\Pain Drain\libraries\lvgl\src\misc/lv_style.c ****                 uint8_t * new_values_and_props = lv_mem_alloc(size);
 256:..\..\..\arduinoLCD\test\Pain Drain\libraries\lvgl\src\misc/lv_style.c ****                 if(new_values_and_props == NULL) return false;
 257:..\..\..\arduinoLCD\test\Pain Drain\libraries\lvgl\src\misc/lv_style.c ****                 style->v_p.values_and_props = new_values_and_props;
 258:..\..\..\arduinoLCD\test\Pain Drain\libraries\lvgl\src\misc/lv_style.c ****                 style->prop_cnt--;
 259:..\..\..\arduinoLCD\test\Pain Drain\libraries\lvgl\src\misc/lv_style.c **** 
ARM GAS  C:\Users\haske\AppData\Local\Temp\ccdHxW38.s 			page 6


 260:..\..\..\arduinoLCD\test\Pain Drain\libraries\lvgl\src\misc/lv_style.c ****                 tmp = new_values_and_props + style->prop_cnt * sizeof(lv_style_value_t);
 261:..\..\..\arduinoLCD\test\Pain Drain\libraries\lvgl\src\misc/lv_style.c ****                 uint16_t * new_props = (uint16_t *)tmp;
 262:..\..\..\arduinoLCD\test\Pain Drain\libraries\lvgl\src\misc/lv_style.c ****                 lv_style_value_t * new_values = (lv_style_value_t *)new_values_and_props;
 263:..\..\..\arduinoLCD\test\Pain Drain\libraries\lvgl\src\misc/lv_style.c **** 
 264:..\..\..\arduinoLCD\test\Pain Drain\libraries\lvgl\src\misc/lv_style.c ****                 uint32_t j;
 265:..\..\..\arduinoLCD\test\Pain Drain\libraries\lvgl\src\misc/lv_style.c ****                 for(i = j = 0; j <= style->prop_cnt;
 266:..\..\..\arduinoLCD\test\Pain Drain\libraries\lvgl\src\misc/lv_style.c ****                     j++) { /*<=: because prop_cnt already reduced but all the old props. needs to b
 267:..\..\..\arduinoLCD\test\Pain Drain\libraries\lvgl\src\misc/lv_style.c ****                     if(old_props[j] != prop) {
 268:..\..\..\arduinoLCD\test\Pain Drain\libraries\lvgl\src\misc/lv_style.c ****                         new_values[i] = old_values[j];
 269:..\..\..\arduinoLCD\test\Pain Drain\libraries\lvgl\src\misc/lv_style.c ****                         new_props[i++] = old_props[j];
 270:..\..\..\arduinoLCD\test\Pain Drain\libraries\lvgl\src\misc/lv_style.c ****                     }
 271:..\..\..\arduinoLCD\test\Pain Drain\libraries\lvgl\src\misc/lv_style.c ****                 }
 272:..\..\..\arduinoLCD\test\Pain Drain\libraries\lvgl\src\misc/lv_style.c ****             }
 273:..\..\..\arduinoLCD\test\Pain Drain\libraries\lvgl\src\misc/lv_style.c **** 
 274:..\..\..\arduinoLCD\test\Pain Drain\libraries\lvgl\src\misc/lv_style.c ****             lv_mem_free(old_values);
 275:..\..\..\arduinoLCD\test\Pain Drain\libraries\lvgl\src\misc/lv_style.c ****             return true;
 276:..\..\..\arduinoLCD\test\Pain Drain\libraries\lvgl\src\misc/lv_style.c ****         }
 277:..\..\..\arduinoLCD\test\Pain Drain\libraries\lvgl\src\misc/lv_style.c ****     }
 278:..\..\..\arduinoLCD\test\Pain Drain\libraries\lvgl\src\misc/lv_style.c **** 
 279:..\..\..\arduinoLCD\test\Pain Drain\libraries\lvgl\src\misc/lv_style.c ****     return false;
 280:..\..\..\arduinoLCD\test\Pain Drain\libraries\lvgl\src\misc/lv_style.c **** }
 281:..\..\..\arduinoLCD\test\Pain Drain\libraries\lvgl\src\misc/lv_style.c **** 
 282:..\..\..\arduinoLCD\test\Pain Drain\libraries\lvgl\src\misc/lv_style.c **** void lv_style_set_prop(lv_style_t * style, lv_style_prop_t prop, lv_style_value_t value)
 283:..\..\..\arduinoLCD\test\Pain Drain\libraries\lvgl\src\misc/lv_style.c **** {
 284:..\..\..\arduinoLCD\test\Pain Drain\libraries\lvgl\src\misc/lv_style.c ****     lv_style_set_prop_internal(style, prop, value, lv_style_set_prop_helper);
 285:..\..\..\arduinoLCD\test\Pain Drain\libraries\lvgl\src\misc/lv_style.c **** }
 286:..\..\..\arduinoLCD\test\Pain Drain\libraries\lvgl\src\misc/lv_style.c **** 
 287:..\..\..\arduinoLCD\test\Pain Drain\libraries\lvgl\src\misc/lv_style.c **** void lv_style_set_prop_meta(lv_style_t * style, lv_style_prop_t prop, uint16_t meta)
 288:..\..\..\arduinoLCD\test\Pain Drain\libraries\lvgl\src\misc/lv_style.c **** {
 289:..\..\..\arduinoLCD\test\Pain Drain\libraries\lvgl\src\misc/lv_style.c ****     lv_style_set_prop_internal(style, prop | meta, null_style_value, lv_style_set_prop_meta_helper)
 290:..\..\..\arduinoLCD\test\Pain Drain\libraries\lvgl\src\misc/lv_style.c **** }
 291:..\..\..\arduinoLCD\test\Pain Drain\libraries\lvgl\src\misc/lv_style.c **** 
 292:..\..\..\arduinoLCD\test\Pain Drain\libraries\lvgl\src\misc/lv_style.c **** lv_style_res_t lv_style_get_prop(const lv_style_t * style, lv_style_prop_t prop, lv_style_value_t *
 293:..\..\..\arduinoLCD\test\Pain Drain\libraries\lvgl\src\misc/lv_style.c **** {
 294:..\..\..\arduinoLCD\test\Pain Drain\libraries\lvgl\src\misc/lv_style.c ****     return lv_style_get_prop_inlined(style, prop, value);
 295:..\..\..\arduinoLCD\test\Pain Drain\libraries\lvgl\src\misc/lv_style.c **** }
 296:..\..\..\arduinoLCD\test\Pain Drain\libraries\lvgl\src\misc/lv_style.c **** 
 297:..\..\..\arduinoLCD\test\Pain Drain\libraries\lvgl\src\misc/lv_style.c **** void lv_style_transition_dsc_init(lv_style_transition_dsc_t * tr, const lv_style_prop_t props[],
 298:..\..\..\arduinoLCD\test\Pain Drain\libraries\lvgl\src\misc/lv_style.c ****                                   lv_anim_path_cb_t path_cb, uint32_t time, uint32_t delay, void * 
 299:..\..\..\arduinoLCD\test\Pain Drain\libraries\lvgl\src\misc/lv_style.c **** {
 300:..\..\..\arduinoLCD\test\Pain Drain\libraries\lvgl\src\misc/lv_style.c ****     lv_memset_00(tr, sizeof(lv_style_transition_dsc_t));
 301:..\..\..\arduinoLCD\test\Pain Drain\libraries\lvgl\src\misc/lv_style.c ****     tr->props = props;
 302:..\..\..\arduinoLCD\test\Pain Drain\libraries\lvgl\src\misc/lv_style.c ****     tr->path_xcb = path_cb == NULL ? lv_anim_path_linear : path_cb;
 303:..\..\..\arduinoLCD\test\Pain Drain\libraries\lvgl\src\misc/lv_style.c ****     tr->time = time;
 304:..\..\..\arduinoLCD\test\Pain Drain\libraries\lvgl\src\misc/lv_style.c ****     tr->delay = delay;
 305:..\..\..\arduinoLCD\test\Pain Drain\libraries\lvgl\src\misc/lv_style.c **** #if LV_USE_USER_DATA
 306:..\..\..\arduinoLCD\test\Pain Drain\libraries\lvgl\src\misc/lv_style.c ****     tr->user_data = user_data;
 307:..\..\..\arduinoLCD\test\Pain Drain\libraries\lvgl\src\misc/lv_style.c **** #else
 308:..\..\..\arduinoLCD\test\Pain Drain\libraries\lvgl\src\misc/lv_style.c ****     LV_UNUSED(user_data);
 309:..\..\..\arduinoLCD\test\Pain Drain\libraries\lvgl\src\misc/lv_style.c **** #endif
 310:..\..\..\arduinoLCD\test\Pain Drain\libraries\lvgl\src\misc/lv_style.c **** }
 311:..\..\..\arduinoLCD\test\Pain Drain\libraries\lvgl\src\misc/lv_style.c **** 
 312:..\..\..\arduinoLCD\test\Pain Drain\libraries\lvgl\src\misc/lv_style.c **** lv_style_value_t lv_style_prop_get_default(lv_style_prop_t prop)
 313:..\..\..\arduinoLCD\test\Pain Drain\libraries\lvgl\src\misc/lv_style.c **** {
 314:..\..\..\arduinoLCD\test\Pain Drain\libraries\lvgl\src\misc/lv_style.c ****     lv_style_value_t value;
 315:..\..\..\arduinoLCD\test\Pain Drain\libraries\lvgl\src\misc/lv_style.c ****     switch(prop) {
 316:..\..\..\arduinoLCD\test\Pain Drain\libraries\lvgl\src\misc/lv_style.c ****         case LV_STYLE_TRANSFORM_ZOOM:
ARM GAS  C:\Users\haske\AppData\Local\Temp\ccdHxW38.s 			page 7


 317:..\..\..\arduinoLCD\test\Pain Drain\libraries\lvgl\src\misc/lv_style.c ****             value.num = LV_IMG_ZOOM_NONE;
 318:..\..\..\arduinoLCD\test\Pain Drain\libraries\lvgl\src\misc/lv_style.c ****             break;
 319:..\..\..\arduinoLCD\test\Pain Drain\libraries\lvgl\src\misc/lv_style.c ****         case LV_STYLE_BG_COLOR:
 320:..\..\..\arduinoLCD\test\Pain Drain\libraries\lvgl\src\misc/lv_style.c ****             value.color = lv_color_white();
 321:..\..\..\arduinoLCD\test\Pain Drain\libraries\lvgl\src\misc/lv_style.c ****             break;
 322:..\..\..\arduinoLCD\test\Pain Drain\libraries\lvgl\src\misc/lv_style.c ****         case LV_STYLE_BG_GRAD_COLOR:
 323:..\..\..\arduinoLCD\test\Pain Drain\libraries\lvgl\src\misc/lv_style.c ****         case LV_STYLE_BORDER_COLOR:
 324:..\..\..\arduinoLCD\test\Pain Drain\libraries\lvgl\src\misc/lv_style.c ****         case LV_STYLE_SHADOW_COLOR:
 325:..\..\..\arduinoLCD\test\Pain Drain\libraries\lvgl\src\misc/lv_style.c ****         case LV_STYLE_OUTLINE_COLOR:
 326:..\..\..\arduinoLCD\test\Pain Drain\libraries\lvgl\src\misc/lv_style.c ****         case LV_STYLE_ARC_COLOR:
 327:..\..\..\arduinoLCD\test\Pain Drain\libraries\lvgl\src\misc/lv_style.c ****         case LV_STYLE_LINE_COLOR:
 328:..\..\..\arduinoLCD\test\Pain Drain\libraries\lvgl\src\misc/lv_style.c ****         case LV_STYLE_TEXT_COLOR:
 329:..\..\..\arduinoLCD\test\Pain Drain\libraries\lvgl\src\misc/lv_style.c ****         case LV_STYLE_IMG_RECOLOR:
 330:..\..\..\arduinoLCD\test\Pain Drain\libraries\lvgl\src\misc/lv_style.c ****             value.color = lv_color_black();
 331:..\..\..\arduinoLCD\test\Pain Drain\libraries\lvgl\src\misc/lv_style.c ****             break;
 332:..\..\..\arduinoLCD\test\Pain Drain\libraries\lvgl\src\misc/lv_style.c ****         case LV_STYLE_OPA:
 333:..\..\..\arduinoLCD\test\Pain Drain\libraries\lvgl\src\misc/lv_style.c ****         case LV_STYLE_BORDER_OPA:
 334:..\..\..\arduinoLCD\test\Pain Drain\libraries\lvgl\src\misc/lv_style.c ****         case LV_STYLE_TEXT_OPA:
 335:..\..\..\arduinoLCD\test\Pain Drain\libraries\lvgl\src\misc/lv_style.c ****         case LV_STYLE_IMG_OPA:
 336:..\..\..\arduinoLCD\test\Pain Drain\libraries\lvgl\src\misc/lv_style.c ****         case LV_STYLE_BG_IMG_OPA:
 337:..\..\..\arduinoLCD\test\Pain Drain\libraries\lvgl\src\misc/lv_style.c ****         case LV_STYLE_OUTLINE_OPA:
 338:..\..\..\arduinoLCD\test\Pain Drain\libraries\lvgl\src\misc/lv_style.c ****         case LV_STYLE_SHADOW_OPA:
 339:..\..\..\arduinoLCD\test\Pain Drain\libraries\lvgl\src\misc/lv_style.c ****         case LV_STYLE_LINE_OPA:
 340:..\..\..\arduinoLCD\test\Pain Drain\libraries\lvgl\src\misc/lv_style.c ****         case LV_STYLE_ARC_OPA:
 341:..\..\..\arduinoLCD\test\Pain Drain\libraries\lvgl\src\misc/lv_style.c ****             value.num = LV_OPA_COVER;
 342:..\..\..\arduinoLCD\test\Pain Drain\libraries\lvgl\src\misc/lv_style.c ****             break;
 343:..\..\..\arduinoLCD\test\Pain Drain\libraries\lvgl\src\misc/lv_style.c ****         case LV_STYLE_BG_GRAD_STOP:
 344:..\..\..\arduinoLCD\test\Pain Drain\libraries\lvgl\src\misc/lv_style.c ****             value.num = 255;
 345:..\..\..\arduinoLCD\test\Pain Drain\libraries\lvgl\src\misc/lv_style.c ****             break;
 346:..\..\..\arduinoLCD\test\Pain Drain\libraries\lvgl\src\misc/lv_style.c ****         case LV_STYLE_BORDER_SIDE:
 347:..\..\..\arduinoLCD\test\Pain Drain\libraries\lvgl\src\misc/lv_style.c ****             value.num = LV_BORDER_SIDE_FULL;
 348:..\..\..\arduinoLCD\test\Pain Drain\libraries\lvgl\src\misc/lv_style.c ****             break;
 349:..\..\..\arduinoLCD\test\Pain Drain\libraries\lvgl\src\misc/lv_style.c ****         case LV_STYLE_TEXT_FONT:
 350:..\..\..\arduinoLCD\test\Pain Drain\libraries\lvgl\src\misc/lv_style.c ****             value.ptr = LV_FONT_DEFAULT;
 351:..\..\..\arduinoLCD\test\Pain Drain\libraries\lvgl\src\misc/lv_style.c ****             break;
 352:..\..\..\arduinoLCD\test\Pain Drain\libraries\lvgl\src\misc/lv_style.c ****         case LV_STYLE_MAX_WIDTH:
 353:..\..\..\arduinoLCD\test\Pain Drain\libraries\lvgl\src\misc/lv_style.c ****         case LV_STYLE_MAX_HEIGHT:
 354:..\..\..\arduinoLCD\test\Pain Drain\libraries\lvgl\src\misc/lv_style.c ****             value.num = LV_COORD_MAX;
 355:..\..\..\arduinoLCD\test\Pain Drain\libraries\lvgl\src\misc/lv_style.c ****             break;
 356:..\..\..\arduinoLCD\test\Pain Drain\libraries\lvgl\src\misc/lv_style.c ****         default:
 357:..\..\..\arduinoLCD\test\Pain Drain\libraries\lvgl\src\misc/lv_style.c ****             value.ptr = NULL;
 358:..\..\..\arduinoLCD\test\Pain Drain\libraries\lvgl\src\misc/lv_style.c ****             value.num = 0;
 359:..\..\..\arduinoLCD\test\Pain Drain\libraries\lvgl\src\misc/lv_style.c ****             break;
 360:..\..\..\arduinoLCD\test\Pain Drain\libraries\lvgl\src\misc/lv_style.c ****     }
 361:..\..\..\arduinoLCD\test\Pain Drain\libraries\lvgl\src\misc/lv_style.c **** 
 362:..\..\..\arduinoLCD\test\Pain Drain\libraries\lvgl\src\misc/lv_style.c ****     return value;
 363:..\..\..\arduinoLCD\test\Pain Drain\libraries\lvgl\src\misc/lv_style.c **** }
 364:..\..\..\arduinoLCD\test\Pain Drain\libraries\lvgl\src\misc/lv_style.c **** 
 365:..\..\..\arduinoLCD\test\Pain Drain\libraries\lvgl\src\misc/lv_style.c **** bool lv_style_is_empty(const lv_style_t * style)
 366:..\..\..\arduinoLCD\test\Pain Drain\libraries\lvgl\src\misc/lv_style.c **** {
 367:..\..\..\arduinoLCD\test\Pain Drain\libraries\lvgl\src\misc/lv_style.c ****     LV_ASSERT_STYLE(style);
 368:..\..\..\arduinoLCD\test\Pain Drain\libraries\lvgl\src\misc/lv_style.c **** 
 369:..\..\..\arduinoLCD\test\Pain Drain\libraries\lvgl\src\misc/lv_style.c ****     return style->prop_cnt == 0 ? true : false;
 370:..\..\..\arduinoLCD\test\Pain Drain\libraries\lvgl\src\misc/lv_style.c **** }
 371:..\..\..\arduinoLCD\test\Pain Drain\libraries\lvgl\src\misc/lv_style.c **** 
 372:..\..\..\arduinoLCD\test\Pain Drain\libraries\lvgl\src\misc/lv_style.c **** uint8_t _lv_style_get_prop_group(lv_style_prop_t prop)
 373:..\..\..\arduinoLCD\test\Pain Drain\libraries\lvgl\src\misc/lv_style.c **** {
ARM GAS  C:\Users\haske\AppData\Local\Temp\ccdHxW38.s 			page 8


 374:..\..\..\arduinoLCD\test\Pain Drain\libraries\lvgl\src\misc/lv_style.c ****     uint16_t group = (prop & 0x1FF) >> 4;
 375:..\..\..\arduinoLCD\test\Pain Drain\libraries\lvgl\src\misc/lv_style.c ****     if(group > 7) group = 7;    /*The MSB marks all the custom properties*/
 376:..\..\..\arduinoLCD\test\Pain Drain\libraries\lvgl\src\misc/lv_style.c ****     return (uint8_t)group;
 377:..\..\..\arduinoLCD\test\Pain Drain\libraries\lvgl\src\misc/lv_style.c **** }
 378:..\..\..\arduinoLCD\test\Pain Drain\libraries\lvgl\src\misc/lv_style.c **** 
 379:..\..\..\arduinoLCD\test\Pain Drain\libraries\lvgl\src\misc/lv_style.c **** uint8_t _lv_style_prop_lookup_flags(lv_style_prop_t prop)
 380:..\..\..\arduinoLCD\test\Pain Drain\libraries\lvgl\src\misc/lv_style.c **** {
 381:..\..\..\arduinoLCD\test\Pain Drain\libraries\lvgl\src\misc/lv_style.c ****     extern const uint8_t _lv_style_builtin_prop_flag_lookup_table[];
 382:..\..\..\arduinoLCD\test\Pain Drain\libraries\lvgl\src\misc/lv_style.c ****     extern uint32_t _lv_style_custom_prop_flag_lookup_table_size;
 383:..\..\..\arduinoLCD\test\Pain Drain\libraries\lvgl\src\misc/lv_style.c ****     if(prop == LV_STYLE_PROP_ANY) return LV_STYLE_PROP_ALL; /*Any prop can have any flags*/
 384:..\..\..\arduinoLCD\test\Pain Drain\libraries\lvgl\src\misc/lv_style.c ****     if(prop == LV_STYLE_PROP_INV) return 0;
 385:..\..\..\arduinoLCD\test\Pain Drain\libraries\lvgl\src\misc/lv_style.c **** 
 386:..\..\..\arduinoLCD\test\Pain Drain\libraries\lvgl\src\misc/lv_style.c ****     if(prop < _LV_STYLE_NUM_BUILT_IN_PROPS)
 387:..\..\..\arduinoLCD\test\Pain Drain\libraries\lvgl\src\misc/lv_style.c ****         return _lv_style_builtin_prop_flag_lookup_table[prop];
 388:..\..\..\arduinoLCD\test\Pain Drain\libraries\lvgl\src\misc/lv_style.c ****     prop -= _LV_STYLE_NUM_BUILT_IN_PROPS;
 389:..\..\..\arduinoLCD\test\Pain Drain\libraries\lvgl\src\misc/lv_style.c ****     if(LV_GC_ROOT(_lv_style_custom_prop_flag_lookup_table) != NULL && prop < _lv_style_custom_prop_
 390:..\..\..\arduinoLCD\test\Pain Drain\libraries\lvgl\src\misc/lv_style.c ****         return LV_GC_ROOT(_lv_style_custom_prop_flag_lookup_table)[prop];
 391:..\..\..\arduinoLCD\test\Pain Drain\libraries\lvgl\src\misc/lv_style.c ****     return 0;
 392:..\..\..\arduinoLCD\test\Pain Drain\libraries\lvgl\src\misc/lv_style.c **** }
 393:..\..\..\arduinoLCD\test\Pain Drain\libraries\lvgl\src\misc/lv_style.c **** 
 394:..\..\..\arduinoLCD\test\Pain Drain\libraries\lvgl\src\misc/lv_style.c **** /**********************
 395:..\..\..\arduinoLCD\test\Pain Drain\libraries\lvgl\src\misc/lv_style.c ****  *   STATIC FUNCTIONS
 396:..\..\..\arduinoLCD\test\Pain Drain\libraries\lvgl\src\misc/lv_style.c ****  **********************/
 397:..\..\..\arduinoLCD\test\Pain Drain\libraries\lvgl\src\misc/lv_style.c **** 
 398:..\..\..\arduinoLCD\test\Pain Drain\libraries\lvgl\src\misc/lv_style.c **** static void lv_style_set_prop_helper(lv_style_prop_t prop, lv_style_value_t value, uint16_t * prop_
 399:..\..\..\arduinoLCD\test\Pain Drain\libraries\lvgl\src\misc/lv_style.c ****                                      lv_style_value_t * value_storage)
 400:..\..\..\arduinoLCD\test\Pain Drain\libraries\lvgl\src\misc/lv_style.c **** {
  27              		.loc 1 400 0
  28              		.cfi_startproc
  29              		@ args = 0, pretend = 0, frame = 0
  30              		@ frame_needed = 0, uses_anonymous_args = 0
  31              		@ link register save eliminated.
  32              	.LVL0:
 401:..\..\..\arduinoLCD\test\Pain Drain\libraries\lvgl\src\misc/lv_style.c ****     *prop_storage = prop;
  33              		.loc 1 401 0
  34 0000 1080     		strh	r0, [r2]
 402:..\..\..\arduinoLCD\test\Pain Drain\libraries\lvgl\src\misc/lv_style.c ****     *value_storage = value;
  35              		.loc 1 402 0
  36 0002 1960     		str	r1, [r3]
 403:..\..\..\arduinoLCD\test\Pain Drain\libraries\lvgl\src\misc/lv_style.c **** }
  37              		.loc 1 403 0
  38              		@ sp needed
  39 0004 7047     		bx	lr
  40              		.cfi_endproc
  41              	.LFE69:
  42              		.size	lv_style_set_prop_helper, .-lv_style_set_prop_helper
  43              		.section	.text.lv_style_set_prop_meta_helper,"ax",%progbits
  44              		.align	2
  45              		.code	16
  46              		.thumb_func
  47              		.type	lv_style_set_prop_meta_helper, %function
  48              	lv_style_set_prop_meta_helper:
  49              	.LFB70:
 404:..\..\..\arduinoLCD\test\Pain Drain\libraries\lvgl\src\misc/lv_style.c **** 
 405:..\..\..\arduinoLCD\test\Pain Drain\libraries\lvgl\src\misc/lv_style.c **** static void lv_style_set_prop_meta_helper(lv_style_prop_t prop, lv_style_value_t value, uint16_t * 
 406:..\..\..\arduinoLCD\test\Pain Drain\libraries\lvgl\src\misc/lv_style.c ****                                           lv_style_value_t * value_storage)
 407:..\..\..\arduinoLCD\test\Pain Drain\libraries\lvgl\src\misc/lv_style.c **** {
ARM GAS  C:\Users\haske\AppData\Local\Temp\ccdHxW38.s 			page 9


  50              		.loc 1 407 0
  51              		.cfi_startproc
  52              		@ args = 0, pretend = 0, frame = 0
  53              		@ frame_needed = 0, uses_anonymous_args = 0
  54              		@ link register save eliminated.
  55              	.LVL1:
 408:..\..\..\arduinoLCD\test\Pain Drain\libraries\lvgl\src\misc/lv_style.c ****     LV_UNUSED(value);
 409:..\..\..\arduinoLCD\test\Pain Drain\libraries\lvgl\src\misc/lv_style.c ****     LV_UNUSED(value_storage);
 410:..\..\..\arduinoLCD\test\Pain Drain\libraries\lvgl\src\misc/lv_style.c ****     *prop_storage = prop; /* meta is OR-ed into the prop ID already */
  56              		.loc 1 410 0
  57 0000 1080     		strh	r0, [r2]
 411:..\..\..\arduinoLCD\test\Pain Drain\libraries\lvgl\src\misc/lv_style.c **** }
  58              		.loc 1 411 0
  59              		@ sp needed
  60 0002 7047     		bx	lr
  61              		.cfi_endproc
  62              	.LFE70:
  63              		.size	lv_style_set_prop_meta_helper, .-lv_style_set_prop_meta_helper
  64              		.section	.text.lv_style_init,"ax",%progbits
  65              		.align	2
  66              		.global	lv_style_init
  67              		.code	16
  68              		.thumb_func
  69              		.type	lv_style_init, %function
  70              	lv_style_init:
  71              	.LFB56:
 151:..\..\..\arduinoLCD\test\Pain Drain\libraries\lvgl\src\misc/lv_style.c **** #if LV_USE_ASSERT_STYLE
  72              		.loc 1 151 0
  73              		.cfi_startproc
  74              		@ args = 0, pretend = 0, frame = 0
  75              		@ frame_needed = 0, uses_anonymous_args = 0
  76              	.LVL2:
  77 0000 10B5     		push	{r4, lr}
  78              		.cfi_def_cfa_offset 8
  79              		.cfi_offset 4, -8
  80              		.cfi_offset 14, -4
 158:..\..\..\arduinoLCD\test\Pain Drain\libraries\lvgl\src\misc/lv_style.c **** #if LV_USE_ASSERT_STYLE
  81              		.loc 1 158 0
  82 0002 0821     		movs	r1, #8
  83 0004 FFF7FEFF 		bl	lv_memset_00
  84              	.LVL3:
 162:..\..\..\arduinoLCD\test\Pain Drain\libraries\lvgl\src\misc/lv_style.c **** 
  85              		.loc 1 162 0
  86              		@ sp needed
  87 0008 10BD     		pop	{r4, pc}
  88              		.cfi_endproc
  89              	.LFE56:
  90              		.size	lv_style_init, .-lv_style_init
  91 000a C046     		.section	.text.lv_style_reset,"ax",%progbits
  92              		.align	2
  93              		.global	lv_style_reset
  94              		.code	16
  95              		.thumb_func
  96              		.type	lv_style_reset, %function
  97              	lv_style_reset:
  98              	.LFB57:
 165:..\..\..\arduinoLCD\test\Pain Drain\libraries\lvgl\src\misc/lv_style.c ****     LV_ASSERT_STYLE(style);
ARM GAS  C:\Users\haske\AppData\Local\Temp\ccdHxW38.s 			page 10


  99              		.loc 1 165 0
 100              		.cfi_startproc
 101              		@ args = 0, pretend = 0, frame = 0
 102              		@ frame_needed = 0, uses_anonymous_args = 0
 103              	.LVL4:
 104 0000 10B5     		push	{r4, lr}
 105              		.cfi_def_cfa_offset 8
 106              		.cfi_offset 4, -8
 107              		.cfi_offset 14, -4
 108 0002 0400     		movs	r4, r0
 168:..\..\..\arduinoLCD\test\Pain Drain\libraries\lvgl\src\misc/lv_style.c ****         LV_LOG_ERROR("Cannot reset const style");
 109              		.loc 1 168 0
 110 0004 8288     		ldrh	r2, [r0, #4]
 111 0006 074B     		ldr	r3, .L7
 112 0008 9A42     		cmp	r2, r3
 113 000a 09D0     		beq	.L4
 173:..\..\..\arduinoLCD\test\Pain Drain\libraries\lvgl\src\misc/lv_style.c ****     lv_memset_00(style, sizeof(lv_style_t));
 114              		.loc 1 173 0
 115 000c C379     		ldrb	r3, [r0, #7]
 116 000e 012B     		cmp	r3, #1
 117 0010 02D9     		bls	.L6
 173:..\..\..\arduinoLCD\test\Pain Drain\libraries\lvgl\src\misc/lv_style.c ****     lv_memset_00(style, sizeof(lv_style_t));
 118              		.loc 1 173 0 is_stmt 0 discriminator 1
 119 0012 0068     		ldr	r0, [r0]
 120              	.LVL5:
 121 0014 FFF7FEFF 		bl	lv_mem_free
 122              	.LVL6:
 123              	.L6:
 174:..\..\..\arduinoLCD\test\Pain Drain\libraries\lvgl\src\misc/lv_style.c **** #if LV_USE_ASSERT_STYLE
 124              		.loc 1 174 0 is_stmt 1
 125 0018 0821     		movs	r1, #8
 126 001a 2000     		movs	r0, r4
 127 001c FFF7FEFF 		bl	lv_memset_00
 128              	.LVL7:
 129              	.L4:
 178:..\..\..\arduinoLCD\test\Pain Drain\libraries\lvgl\src\misc/lv_style.c **** 
 130              		.loc 1 178 0
 131              		@ sp needed
 132              	.LVL8:
 133 0020 10BD     		pop	{r4, pc}
 134              	.L8:
 135 0022 C046     		.align	2
 136              	.L7:
 137 0024 FFFF0000 		.word	65535
 138              		.cfi_endproc
 139              	.LFE57:
 140              		.size	lv_style_reset, .-lv_style_reset
 141              		.section	.text.lv_style_register_prop,"ax",%progbits
 142              		.align	2
 143              		.global	lv_style_register_prop
 144              		.code	16
 145              		.thumb_func
 146              		.type	lv_style_register_prop, %function
 147              	lv_style_register_prop:
 148              	.LFB58:
 181:..\..\..\arduinoLCD\test\Pain Drain\libraries\lvgl\src\misc/lv_style.c ****     if(LV_GC_ROOT(_lv_style_custom_prop_flag_lookup_table) == NULL) {
 149              		.loc 1 181 0
ARM GAS  C:\Users\haske\AppData\Local\Temp\ccdHxW38.s 			page 11


 150              		.cfi_startproc
 151              		@ args = 0, pretend = 0, frame = 0
 152              		@ frame_needed = 0, uses_anonymous_args = 0
 153              	.LVL9:
 154 0000 70B5     		push	{r4, r5, r6, lr}
 155              		.cfi_def_cfa_offset 16
 156              		.cfi_offset 4, -16
 157              		.cfi_offset 5, -12
 158              		.cfi_offset 6, -8
 159              		.cfi_offset 14, -4
 160 0002 0500     		movs	r5, r0
 182:..\..\..\arduinoLCD\test\Pain Drain\libraries\lvgl\src\misc/lv_style.c ****         _lv_style_custom_prop_flag_lookup_table_size = 0;
 161              		.loc 1 182 0
 162 0004 1A4B     		ldr	r3, .L19
 163 0006 1868     		ldr	r0, [r3]
 164              	.LVL10:
 165 0008 0028     		cmp	r0, #0
 166 000a 05D1     		bne	.L10
 183:..\..\..\arduinoLCD\test\Pain Drain\libraries\lvgl\src\misc/lv_style.c ****         last_custom_prop_id = (uint16_t)_LV_STYLE_LAST_BUILT_IN_PROP;
 167              		.loc 1 183 0
 168 000c 0022     		movs	r2, #0
 169 000e 194B     		ldr	r3, .L19+4
 170 0010 1A60     		str	r2, [r3]
 184:..\..\..\arduinoLCD\test\Pain Drain\libraries\lvgl\src\misc/lv_style.c ****     }
 171              		.loc 1 184 0
 172 0012 6F32     		adds	r2, r2, #111
 173 0014 184B     		ldr	r3, .L19+8
 174 0016 1A80     		strh	r2, [r3]
 175              	.L10:
 187:..\..\..\arduinoLCD\test\Pain Drain\libraries\lvgl\src\misc/lv_style.c ****         LV_LOG_ERROR("No more custom property IDs available");
 176              		.loc 1 187 0
 177 0018 174B     		ldr	r3, .L19+8
 178 001a 1C88     		ldrh	r4, [r3]
 179 001c 621C     		adds	r2, r4, #1
 180 001e C023     		movs	r3, #192
 181 0020 1B02     		lsls	r3, r3, #8
 182 0022 1A42     		tst	r2, r3
 183 0024 20D1     		bne	.L17
 195:..\..\..\arduinoLCD\test\Pain Drain\libraries\lvgl\src\misc/lv_style.c ****     if(_lv_style_custom_prop_flag_lookup_table_size < required_size) {
 184              		.loc 1 195 0
 185 0026 6E3C     		subs	r4, r4, #110
 186              	.LVL11:
 196:..\..\..\arduinoLCD\test\Pain Drain\libraries\lvgl\src\misc/lv_style.c ****         /* Round required_size up to the nearest 32-byte value */
 187              		.loc 1 196 0
 188 0028 124B     		ldr	r3, .L19+4
 189 002a 1B68     		ldr	r3, [r3]
 190 002c 9C42     		cmp	r4, r3
 191 002e 0DD9     		bls	.L12
 192              	.LBB14:
 198:..\..\..\arduinoLCD\test\Pain Drain\libraries\lvgl\src\misc/lv_style.c ****         LV_ASSERT_MSG(required_size > 0, "required size has become 0?");
 193              		.loc 1 198 0
 194 0030 1F34     		adds	r4, r4, #31
 195              	.LVL12:
 196 0032 1F23     		movs	r3, #31
 197 0034 9C43     		bics	r4, r3
 198              	.LVL13:
 199:..\..\..\arduinoLCD\test\Pain Drain\libraries\lvgl\src\misc/lv_style.c ****         uint8_t * old_p = LV_GC_ROOT(_lv_style_custom_prop_flag_lookup_table);
ARM GAS  C:\Users\haske\AppData\Local\Temp\ccdHxW38.s 			page 12


 199              		.loc 1 199 0
 200 0036 00D1     		bne	.L13
 201              	.L14:
 202 0038 FEE7     		b	.L14
 203              	.L13:
 204              	.LVL14:
 201:..\..\..\arduinoLCD\test\Pain Drain\libraries\lvgl\src\misc/lv_style.c ****         if(new_p == NULL) {
 205              		.loc 1 201 0
 206 003a 2100     		movs	r1, r4
 207 003c FFF7FEFF 		bl	lv_mem_realloc
 208              	.LVL15:
 202:..\..\..\arduinoLCD\test\Pain Drain\libraries\lvgl\src\misc/lv_style.c ****             LV_LOG_ERROR("Unable to allocate space for custom property lookup table");
 209              		.loc 1 202 0
 210 0040 0028     		cmp	r0, #0
 211 0042 13D0     		beq	.L18
 206:..\..\..\arduinoLCD\test\Pain Drain\libraries\lvgl\src\misc/lv_style.c ****         _lv_style_custom_prop_flag_lookup_table_size = required_size;
 212              		.loc 1 206 0
 213 0044 0A4B     		ldr	r3, .L19
 214 0046 1860     		str	r0, [r3]
 207:..\..\..\arduinoLCD\test\Pain Drain\libraries\lvgl\src\misc/lv_style.c ****     }
 215              		.loc 1 207 0
 216 0048 0A4B     		ldr	r3, .L19+4
 217 004a 1C60     		str	r4, [r3]
 218              	.LVL16:
 219              	.L12:
 220              	.LBE14:
 209:..\..\..\arduinoLCD\test\Pain Drain\libraries\lvgl\src\misc/lv_style.c ****     /* This should never happen - we should bail out above */
 221              		.loc 1 209 0
 222 004c 0A4B     		ldr	r3, .L19+8
 223 004e 1888     		ldrh	r0, [r3]
 224 0050 0130     		adds	r0, r0, #1
 225 0052 80B2     		uxth	r0, r0
 226 0054 1880     		strh	r0, [r3]
 211:..\..\..\arduinoLCD\test\Pain Drain\libraries\lvgl\src\misc/lv_style.c ****     LV_GC_ROOT(_lv_style_custom_prop_flag_lookup_table)[last_custom_prop_id - _LV_STYLE_NUM_BUILT_I
 227              		.loc 1 211 0
 228 0056 064B     		ldr	r3, .L19
 229 0058 1B68     		ldr	r3, [r3]
 230 005a 002B     		cmp	r3, #0
 231 005c 00D1     		bne	.L15
 232              	.L16:
 233 005e FEE7     		b	.L16
 234              	.L15:
 212:..\..\..\arduinoLCD\test\Pain Drain\libraries\lvgl\src\misc/lv_style.c ****     return last_custom_prop_id;
 235              		.loc 1 212 0
 236 0060 0200     		movs	r2, r0
 237 0062 703A     		subs	r2, r2, #112
 238 0064 9D54     		strb	r5, [r3, r2]
 213:..\..\..\arduinoLCD\test\Pain Drain\libraries\lvgl\src\misc/lv_style.c **** }
 239              		.loc 1 213 0
 240 0066 02E0     		b	.L11
 241              	.LVL17:
 242              	.L17:
 189:..\..\..\arduinoLCD\test\Pain Drain\libraries\lvgl\src\misc/lv_style.c ****     }
 243              		.loc 1 189 0
 244 0068 0020     		movs	r0, #0
 245 006a 00E0     		b	.L11
 246              	.LVL18:
ARM GAS  C:\Users\haske\AppData\Local\Temp\ccdHxW38.s 			page 13


 247              	.L18:
 248              	.LBB15:
 204:..\..\..\arduinoLCD\test\Pain Drain\libraries\lvgl\src\misc/lv_style.c ****         }
 249              		.loc 1 204 0
 250 006c 0020     		movs	r0, #0
 251              	.LVL19:
 252              	.L11:
 253              	.LBE15:
 214:..\..\..\arduinoLCD\test\Pain Drain\libraries\lvgl\src\misc/lv_style.c **** 
 254              		.loc 1 214 0
 255              		@ sp needed
 256 006e 70BD     		pop	{r4, r5, r6, pc}
 257              	.L20:
 258              		.align	2
 259              	.L19:
 260 0070 00000000 		.word	_lv_style_custom_prop_flag_lookup_table
 261 0074 00000000 		.word	.LANCHOR0
 262 0078 00000000 		.word	.LANCHOR1
 263              		.cfi_endproc
 264              	.LFE58:
 265              		.size	lv_style_register_prop, .-lv_style_register_prop
 266              		.section	.text.lv_style_get_num_custom_props,"ax",%progbits
 267              		.align	2
 268              		.global	lv_style_get_num_custom_props
 269              		.code	16
 270              		.thumb_func
 271              		.type	lv_style_get_num_custom_props, %function
 272              	lv_style_get_num_custom_props:
 273              	.LFB59:
 217:..\..\..\arduinoLCD\test\Pain Drain\libraries\lvgl\src\misc/lv_style.c ****     return last_custom_prop_id - _LV_STYLE_LAST_BUILT_IN_PROP;
 274              		.loc 1 217 0
 275              		.cfi_startproc
 276              		@ args = 0, pretend = 0, frame = 0
 277              		@ frame_needed = 0, uses_anonymous_args = 0
 278              		@ link register save eliminated.
 218:..\..\..\arduinoLCD\test\Pain Drain\libraries\lvgl\src\misc/lv_style.c **** }
 279              		.loc 1 218 0
 280 0000 024B     		ldr	r3, .L22
 281 0002 1888     		ldrh	r0, [r3]
 282 0004 6F38     		subs	r0, r0, #111
 283 0006 80B2     		uxth	r0, r0
 219:..\..\..\arduinoLCD\test\Pain Drain\libraries\lvgl\src\misc/lv_style.c **** 
 284              		.loc 1 219 0
 285              		@ sp needed
 286 0008 7047     		bx	lr
 287              	.L23:
 288 000a C046     		.align	2
 289              	.L22:
 290 000c 00000000 		.word	.LANCHOR1
 291              		.cfi_endproc
 292              	.LFE59:
 293              		.size	lv_style_get_num_custom_props, .-lv_style_get_num_custom_props
 294              		.section	.text.lv_style_remove_prop,"ax",%progbits
 295              		.align	2
 296              		.global	lv_style_remove_prop
 297              		.code	16
 298              		.thumb_func
ARM GAS  C:\Users\haske\AppData\Local\Temp\ccdHxW38.s 			page 14


 299              		.type	lv_style_remove_prop, %function
 300              	lv_style_remove_prop:
 301              	.LFB60:
 222:..\..\..\arduinoLCD\test\Pain Drain\libraries\lvgl\src\misc/lv_style.c ****     LV_ASSERT_STYLE(style);
 302              		.loc 1 222 0
 303              		.cfi_startproc
 304              		@ args = 0, pretend = 0, frame = 8
 305              		@ frame_needed = 0, uses_anonymous_args = 0
 306              	.LVL20:
 307 0000 F0B5     		push	{r4, r5, r6, r7, lr}
 308              		.cfi_def_cfa_offset 20
 309              		.cfi_offset 4, -20
 310              		.cfi_offset 5, -16
 311              		.cfi_offset 6, -12
 312              		.cfi_offset 7, -8
 313              		.cfi_offset 14, -4
 314 0002 5F46     		mov	r7, fp
 315 0004 5646     		mov	r6, r10
 316 0006 4D46     		mov	r5, r9
 317 0008 4446     		mov	r4, r8
 318 000a F0B4     		push	{r4, r5, r6, r7}
 319              		.cfi_def_cfa_offset 36
 320              		.cfi_offset 8, -36
 321              		.cfi_offset 9, -32
 322              		.cfi_offset 10, -28
 323              		.cfi_offset 11, -24
 324 000c 83B0     		sub	sp, sp, #12
 325              		.cfi_def_cfa_offset 48
 326 000e 0700     		movs	r7, r0
 327 0010 0D00     		movs	r5, r1
 225:..\..\..\arduinoLCD\test\Pain Drain\libraries\lvgl\src\misc/lv_style.c ****         LV_LOG_ERROR("Cannot remove prop from const style");
 328              		.loc 1 225 0
 329 0012 8388     		ldrh	r3, [r0, #4]
 330 0014 3E4A     		ldr	r2, .L42
 331 0016 9342     		cmp	r3, r2
 332 0018 6CD0     		beq	.L38
 230:..\..\..\arduinoLCD\test\Pain Drain\libraries\lvgl\src\misc/lv_style.c **** 
 333              		.loc 1 230 0
 334 001a C279     		ldrb	r2, [r0, #7]
 335 001c 9046     		mov	r8, r2
 336 001e 002A     		cmp	r2, #0
 337 0020 6AD0     		beq	.L39
 232:..\..\..\arduinoLCD\test\Pain Drain\libraries\lvgl\src\misc/lv_style.c ****         if(LV_STYLE_PROP_ID_MASK(style->prop1) == prop) {
 338              		.loc 1 232 0
 339 0022 012A     		cmp	r2, #1
 340 0024 08D1     		bne	.L26
 233:..\..\..\arduinoLCD\test\Pain Drain\libraries\lvgl\src\misc/lv_style.c ****             style->prop1 = LV_STYLE_PROP_INV;
 341              		.loc 1 233 0
 342 0026 9B04     		lsls	r3, r3, #18
 343 0028 9B0C     		lsrs	r3, r3, #18
 344 002a 8B42     		cmp	r3, r1
 345 002c 66D1     		bne	.L40
 234:..\..\..\arduinoLCD\test\Pain Drain\libraries\lvgl\src\misc/lv_style.c ****             style->prop_cnt = 0;
 346              		.loc 1 234 0
 347 002e 0023     		movs	r3, #0
 348 0030 8380     		strh	r3, [r0, #4]
 235:..\..\..\arduinoLCD\test\Pain Drain\libraries\lvgl\src\misc/lv_style.c ****             return true;
ARM GAS  C:\Users\haske\AppData\Local\Temp\ccdHxW38.s 			page 15


 349              		.loc 1 235 0
 350 0032 C371     		strb	r3, [r0, #7]
 236:..\..\..\arduinoLCD\test\Pain Drain\libraries\lvgl\src\misc/lv_style.c ****         }
 351              		.loc 1 236 0
 352 0034 0120     		movs	r0, #1
 353              	.LVL21:
 354 0036 64E0     		b	.L25
 355              	.LVL22:
 356              	.L26:
 241:..\..\..\arduinoLCD\test\Pain Drain\libraries\lvgl\src\misc/lv_style.c ****     uint16_t * old_props = (uint16_t *)tmp;
 357              		.loc 1 241 0
 358 0038 0468     		ldr	r4, [r0]
 359 003a 1100     		movs	r1, r2
 360              	.LVL23:
 361 003c 9600     		lsls	r6, r2, #2
 362 003e A319     		adds	r3, r4, r6
 363 0040 9C46     		mov	ip, r3
 364              	.LVL24:
 244:..\..\..\arduinoLCD\test\Pain Drain\libraries\lvgl\src\misc/lv_style.c ****         if(LV_STYLE_PROP_ID_MASK(old_props[i]) == prop) {
 365              		.loc 1 244 0
 366 0042 0022     		movs	r2, #0
 367 0044 52E0     		b	.L27
 368              	.LVL25:
 369              	.L37:
 245:..\..\..\arduinoLCD\test\Pain Drain\libraries\lvgl\src\misc/lv_style.c ****             lv_style_value_t * old_values = (lv_style_value_t *)style->v_p.values_and_props;
 370              		.loc 1 245 0
 371 0046 5300     		lsls	r3, r2, #1
 372 0048 A019     		adds	r0, r4, r6
 373 004a C35A     		ldrh	r3, [r0, r3]
 374 004c 9B04     		lsls	r3, r3, #18
 375 004e 9B0C     		lsrs	r3, r3, #18
 376 0050 AB42     		cmp	r3, r5
 377 0052 4AD1     		bne	.L28
 378              	.LVL26:
 379              	.LBB16:
 248:..\..\..\arduinoLCD\test\Pain Drain\libraries\lvgl\src\misc/lv_style.c ****                 style->prop_cnt = 1;
 380              		.loc 1 248 0
 381 0054 4346     		mov	r3, r8
 382 0056 022B     		cmp	r3, #2
 383 0058 11D1     		bne	.L29
 249:..\..\..\arduinoLCD\test\Pain Drain\libraries\lvgl\src\misc/lv_style.c ****                 style->prop1 = i == 0 ? old_props[1] : old_props[0];
 384              		.loc 1 249 0
 385 005a 013B     		subs	r3, r3, #1
 386 005c FB71     		strb	r3, [r7, #7]
 250:..\..\..\arduinoLCD\test\Pain Drain\libraries\lvgl\src\misc/lv_style.c ****                 style->v_p.value1 = i == 0 ? old_values[1] : old_values[0];
 387              		.loc 1 250 0
 388 005e 002A     		cmp	r2, #0
 389 0060 02D1     		bne	.L30
 250:..\..\..\arduinoLCD\test\Pain Drain\libraries\lvgl\src\misc/lv_style.c ****                 style->v_p.value1 = i == 0 ? old_values[1] : old_values[0];
 390              		.loc 1 250 0 is_stmt 0 discriminator 1
 391 0062 6346     		mov	r3, ip
 392 0064 5B88     		ldrh	r3, [r3, #2]
 393 0066 01E0     		b	.L31
 394              	.L30:
 250:..\..\..\arduinoLCD\test\Pain Drain\libraries\lvgl\src\misc/lv_style.c ****                 style->v_p.value1 = i == 0 ? old_values[1] : old_values[0];
 395              		.loc 1 250 0 discriminator 2
 396 0068 6346     		mov	r3, ip
ARM GAS  C:\Users\haske\AppData\Local\Temp\ccdHxW38.s 			page 16


 397 006a 1B88     		ldrh	r3, [r3]
 398              	.L31:
 250:..\..\..\arduinoLCD\test\Pain Drain\libraries\lvgl\src\misc/lv_style.c ****                 style->v_p.value1 = i == 0 ? old_values[1] : old_values[0];
 399              		.loc 1 250 0 discriminator 4
 400 006c BB80     		strh	r3, [r7, #4]
 251:..\..\..\arduinoLCD\test\Pain Drain\libraries\lvgl\src\misc/lv_style.c ****             }
 401              		.loc 1 251 0 is_stmt 1 discriminator 4
 402 006e 002A     		cmp	r2, #0
 403 0070 02D1     		bne	.L32
 251:..\..\..\arduinoLCD\test\Pain Drain\libraries\lvgl\src\misc/lv_style.c ****             }
 404              		.loc 1 251 0 is_stmt 0 discriminator 1
 405 0072 6368     		ldr	r3, [r4, #4]
 406 0074 3B60     		str	r3, [r7]
 407 0076 33E0     		b	.L33
 408              	.L32:
 251:..\..\..\arduinoLCD\test\Pain Drain\libraries\lvgl\src\misc/lv_style.c ****             }
 409              		.loc 1 251 0 discriminator 2
 410 0078 2368     		ldr	r3, [r4]
 411 007a 3B60     		str	r3, [r7]
 412 007c 30E0     		b	.L33
 413              	.L29:
 414              	.LBB17:
 254:..\..\..\arduinoLCD\test\Pain Drain\libraries\lvgl\src\misc/lv_style.c ****                 uint8_t * new_values_and_props = lv_mem_alloc(size);
 415              		.loc 1 254 0 is_stmt 1
 416 007e 4046     		mov	r0, r8
 417 0080 0138     		subs	r0, r0, #1
 418 0082 4300     		lsls	r3, r0, #1
 419 0084 1B18     		adds	r3, r3, r0
 420 0086 5800     		lsls	r0, r3, #1
 421              	.LVL27:
 255:..\..\..\arduinoLCD\test\Pain Drain\libraries\lvgl\src\misc/lv_style.c ****                 if(new_values_and_props == NULL) return false;
 422              		.loc 1 255 0
 423 0088 FFF7FEFF 		bl	lv_mem_alloc
 424              	.LVL28:
 425 008c 8446     		mov	ip, r0
 426              	.LVL29:
 256:..\..\..\arduinoLCD\test\Pain Drain\libraries\lvgl\src\misc/lv_style.c ****                 style->v_p.values_and_props = new_values_and_props;
 427              		.loc 1 256 0
 428 008e 0028     		cmp	r0, #0
 429 0090 36D0     		beq	.L41
 257:..\..\..\arduinoLCD\test\Pain Drain\libraries\lvgl\src\misc/lv_style.c ****                 style->prop_cnt--;
 430              		.loc 1 257 0
 431 0092 3860     		str	r0, [r7]
 258:..\..\..\arduinoLCD\test\Pain Drain\libraries\lvgl\src\misc/lv_style.c **** 
 432              		.loc 1 258 0
 433 0094 FB79     		ldrb	r3, [r7, #7]
 434 0096 013B     		subs	r3, r3, #1
 435 0098 DBB2     		uxtb	r3, r3
 436 009a FB71     		strb	r3, [r7, #7]
 260:..\..\..\arduinoLCD\test\Pain Drain\libraries\lvgl\src\misc/lv_style.c ****                 uint16_t * new_props = (uint16_t *)tmp;
 437              		.loc 1 260 0
 438 009c 9B00     		lsls	r3, r3, #2
 439 009e 9846     		mov	r8, r3
 440              	.LVL30:
 265:..\..\..\arduinoLCD\test\Pain Drain\libraries\lvgl\src\misc/lv_style.c ****                     j++) { /*<=: because prop_cnt already reduced but all the old props. needs to b
 441              		.loc 1 265 0
 442 00a0 0022     		movs	r2, #0
ARM GAS  C:\Users\haske\AppData\Local\Temp\ccdHxW38.s 			page 17


 443 00a2 0023     		movs	r3, #0
 444              	.LVL31:
 445 00a4 9A46     		mov	r10, r3
 446 00a6 18E0     		b	.L34
 447              	.LVL32:
 448              	.L36:
 267:..\..\..\arduinoLCD\test\Pain Drain\libraries\lvgl\src\misc/lv_style.c ****                         new_values[i] = old_values[j];
 449              		.loc 1 267 0
 450 00a8 5300     		lsls	r3, r2, #1
 451 00aa F318     		adds	r3, r6, r3
 452 00ac E318     		adds	r3, r4, r3
 453 00ae 0193     		str	r3, [sp, #4]
 454 00b0 1888     		ldrh	r0, [r3]
 455 00b2 8542     		cmp	r5, r0
 456 00b4 10D0     		beq	.L35
 268:..\..\..\arduinoLCD\test\Pain Drain\libraries\lvgl\src\misc/lv_style.c ****                         new_props[i++] = old_props[j];
 457              		.loc 1 268 0
 458 00b6 5346     		mov	r3, r10
 459 00b8 9B00     		lsls	r3, r3, #2
 460 00ba 9100     		lsls	r1, r2, #2
 461 00bc 8946     		mov	r9, r1
 462 00be 6146     		mov	r1, ip
 463 00c0 4846     		mov	r0, r9
 464 00c2 2058     		ldr	r0, [r4, r0]
 465 00c4 C850     		str	r0, [r1, r3]
 466              	.LVL33:
 269:..\..\..\arduinoLCD\test\Pain Drain\libraries\lvgl\src\misc/lv_style.c ****                     }
 467              		.loc 1 269 0
 468 00c6 5346     		mov	r3, r10
 469 00c8 5800     		lsls	r0, r3, #1
 470 00ca 4044     		add	r0, r0, r8
 471 00cc 019B     		ldr	r3, [sp, #4]
 472 00ce 1B88     		ldrh	r3, [r3]
 473 00d0 0B52     		strh	r3, [r1, r0]
 474 00d2 0123     		movs	r3, #1
 475 00d4 9946     		mov	r9, r3
 476 00d6 CA44     		add	r10, r10, r9
 477              	.LVL34:
 478              	.L35:
 266:..\..\..\arduinoLCD\test\Pain Drain\libraries\lvgl\src\misc/lv_style.c ****                     if(old_props[j] != prop) {
 479              		.loc 1 266 0
 480 00d8 0132     		adds	r2, r2, #1
 481              	.LVL35:
 482              	.L34:
 265:..\..\..\arduinoLCD\test\Pain Drain\libraries\lvgl\src\misc/lv_style.c ****                     j++) { /*<=: because prop_cnt already reduced but all the old props. needs to b
 483              		.loc 1 265 0 discriminator 1
 484 00da FB79     		ldrb	r3, [r7, #7]
 485 00dc 9A42     		cmp	r2, r3
 486 00de E3D9     		bls	.L36
 487              	.LVL36:
 488              	.L33:
 489              	.LBE17:
 274:..\..\..\arduinoLCD\test\Pain Drain\libraries\lvgl\src\misc/lv_style.c ****             return true;
 490              		.loc 1 274 0
 491 00e0 2000     		movs	r0, r4
 492 00e2 FFF7FEFF 		bl	lv_mem_free
 493              	.LVL37:
ARM GAS  C:\Users\haske\AppData\Local\Temp\ccdHxW38.s 			page 18


 275:..\..\..\arduinoLCD\test\Pain Drain\libraries\lvgl\src\misc/lv_style.c ****         }
 494              		.loc 1 275 0
 495 00e6 0120     		movs	r0, #1
 496 00e8 0BE0     		b	.L25
 497              	.LVL38:
 498              	.L28:
 499              	.LBE16:
 244:..\..\..\arduinoLCD\test\Pain Drain\libraries\lvgl\src\misc/lv_style.c ****         if(LV_STYLE_PROP_ID_MASK(old_props[i]) == prop) {
 500              		.loc 1 244 0 discriminator 2
 501 00ea 0132     		adds	r2, r2, #1
 502              	.LVL39:
 503              	.L27:
 244:..\..\..\arduinoLCD\test\Pain Drain\libraries\lvgl\src\misc/lv_style.c ****         if(LV_STYLE_PROP_ID_MASK(old_props[i]) == prop) {
 504              		.loc 1 244 0 is_stmt 0 discriminator 1
 505 00ec 8A42     		cmp	r2, r1
 506 00ee AAD3     		bcc	.L37
 279:..\..\..\arduinoLCD\test\Pain Drain\libraries\lvgl\src\misc/lv_style.c **** }
 507              		.loc 1 279 0 is_stmt 1
 508 00f0 0020     		movs	r0, #0
 509 00f2 06E0     		b	.L25
 510              	.LVL40:
 511              	.L38:
 227:..\..\..\arduinoLCD\test\Pain Drain\libraries\lvgl\src\misc/lv_style.c ****     }
 512              		.loc 1 227 0
 513 00f4 0020     		movs	r0, #0
 514              	.LVL41:
 515 00f6 04E0     		b	.L25
 516              	.LVL42:
 517              	.L39:
 230:..\..\..\arduinoLCD\test\Pain Drain\libraries\lvgl\src\misc/lv_style.c **** 
 518              		.loc 1 230 0
 519 00f8 0020     		movs	r0, #0
 520              	.LVL43:
 521 00fa 02E0     		b	.L25
 522              	.LVL44:
 523              	.L40:
 238:..\..\..\arduinoLCD\test\Pain Drain\libraries\lvgl\src\misc/lv_style.c ****     }
 524              		.loc 1 238 0
 525 00fc 0020     		movs	r0, #0
 526              	.LVL45:
 527 00fe 00E0     		b	.L25
 528              	.LVL46:
 529              	.L41:
 530              	.LBB19:
 531              	.LBB18:
 256:..\..\..\arduinoLCD\test\Pain Drain\libraries\lvgl\src\misc/lv_style.c ****                 style->v_p.values_and_props = new_values_and_props;
 532              		.loc 1 256 0
 533 0100 0020     		movs	r0, #0
 534              	.LVL47:
 535              	.L25:
 536              	.LBE18:
 537              	.LBE19:
 280:..\..\..\arduinoLCD\test\Pain Drain\libraries\lvgl\src\misc/lv_style.c **** 
 538              		.loc 1 280 0
 539 0102 03B0     		add	sp, sp, #12
 540              		@ sp needed
 541              	.LVL48:
ARM GAS  C:\Users\haske\AppData\Local\Temp\ccdHxW38.s 			page 19


 542 0104 3CBC     		pop	{r2, r3, r4, r5}
 543 0106 9046     		mov	r8, r2
 544 0108 9946     		mov	r9, r3
 545 010a A246     		mov	r10, r4
 546 010c AB46     		mov	fp, r5
 547 010e F0BD     		pop	{r4, r5, r6, r7, pc}
 548              	.L43:
 549              		.align	2
 550              	.L42:
 551 0110 FFFF0000 		.word	65535
 552              		.cfi_endproc
 553              	.LFE60:
 554              		.size	lv_style_remove_prop, .-lv_style_remove_prop
 555              		.section	.text.lv_style_transition_dsc_init,"ax",%progbits
 556              		.align	2
 557              		.global	lv_style_transition_dsc_init
 558              		.code	16
 559              		.thumb_func
 560              		.type	lv_style_transition_dsc_init, %function
 561              	lv_style_transition_dsc_init:
 562              	.LFB64:
 299:..\..\..\arduinoLCD\test\Pain Drain\libraries\lvgl\src\misc/lv_style.c ****     lv_memset_00(tr, sizeof(lv_style_transition_dsc_t));
 563              		.loc 1 299 0
 564              		.cfi_startproc
 565              		@ args = 8, pretend = 0, frame = 0
 566              		@ frame_needed = 0, uses_anonymous_args = 0
 567              	.LVL49:
 568 0000 F8B5     		push	{r3, r4, r5, r6, r7, lr}
 569              		.cfi_def_cfa_offset 24
 570              		.cfi_offset 3, -24
 571              		.cfi_offset 4, -20
 572              		.cfi_offset 5, -16
 573              		.cfi_offset 6, -12
 574              		.cfi_offset 7, -8
 575              		.cfi_offset 14, -4
 576 0002 0400     		movs	r4, r0
 577 0004 0F00     		movs	r7, r1
 578 0006 1500     		movs	r5, r2
 579 0008 1E00     		movs	r6, r3
 300:..\..\..\arduinoLCD\test\Pain Drain\libraries\lvgl\src\misc/lv_style.c ****     tr->props = props;
 580              		.loc 1 300 0
 581 000a 1421     		movs	r1, #20
 582              	.LVL50:
 583 000c FFF7FEFF 		bl	lv_memset_00
 584              	.LVL51:
 301:..\..\..\arduinoLCD\test\Pain Drain\libraries\lvgl\src\misc/lv_style.c ****     tr->path_xcb = path_cb == NULL ? lv_anim_path_linear : path_cb;
 585              		.loc 1 301 0
 586 0010 2760     		str	r7, [r4]
 302:..\..\..\arduinoLCD\test\Pain Drain\libraries\lvgl\src\misc/lv_style.c ****     tr->time = time;
 587              		.loc 1 302 0
 588 0012 002D     		cmp	r5, #0
 589 0014 00D1     		bne	.L45
 590 0016 044D     		ldr	r5, .L47
 591              	.LVL52:
 592              	.L45:
 302:..\..\..\arduinoLCD\test\Pain Drain\libraries\lvgl\src\misc/lv_style.c ****     tr->time = time;
 593              		.loc 1 302 0 is_stmt 0 discriminator 4
ARM GAS  C:\Users\haske\AppData\Local\Temp\ccdHxW38.s 			page 20


 594 0018 A560     		str	r5, [r4, #8]
 303:..\..\..\arduinoLCD\test\Pain Drain\libraries\lvgl\src\misc/lv_style.c ****     tr->delay = delay;
 595              		.loc 1 303 0 is_stmt 1 discriminator 4
 596 001a E660     		str	r6, [r4, #12]
 304:..\..\..\arduinoLCD\test\Pain Drain\libraries\lvgl\src\misc/lv_style.c **** #if LV_USE_USER_DATA
 597              		.loc 1 304 0 discriminator 4
 598 001c 069B     		ldr	r3, [sp, #24]
 599 001e 2361     		str	r3, [r4, #16]
 306:..\..\..\arduinoLCD\test\Pain Drain\libraries\lvgl\src\misc/lv_style.c **** #else
 600              		.loc 1 306 0 discriminator 4
 601 0020 079B     		ldr	r3, [sp, #28]
 602 0022 6360     		str	r3, [r4, #4]
 310:..\..\..\arduinoLCD\test\Pain Drain\libraries\lvgl\src\misc/lv_style.c **** 
 603              		.loc 1 310 0 discriminator 4
 604              		@ sp needed
 605              	.LVL53:
 606              	.LVL54:
 607              	.LVL55:
 608 0024 F8BD     		pop	{r3, r4, r5, r6, r7, pc}
 609              	.L48:
 610 0026 C046     		.align	2
 611              	.L47:
 612 0028 00000000 		.word	lv_anim_path_linear
 613              		.cfi_endproc
 614              	.LFE64:
 615              		.size	lv_style_transition_dsc_init, .-lv_style_transition_dsc_init
 616              		.section	.text.lv_style_prop_get_default,"ax",%progbits
 617              		.align	2
 618              		.global	lv_style_prop_get_default
 619              		.code	16
 620              		.thumb_func
 621              		.type	lv_style_prop_get_default, %function
 622              	lv_style_prop_get_default:
 623              	.LFB65:
 313:..\..\..\arduinoLCD\test\Pain Drain\libraries\lvgl\src\misc/lv_style.c ****     lv_style_value_t value;
 624              		.loc 1 313 0
 625              		.cfi_startproc
 626              		@ args = 0, pretend = 0, frame = 0
 627              		@ frame_needed = 0, uses_anonymous_args = 0
 628              		@ link register save eliminated.
 629              	.LVL56:
 315:..\..\..\arduinoLCD\test\Pain Drain\libraries\lvgl\src\misc/lv_style.c ****         case LV_STYLE_TRANSFORM_ZOOM:
 630              		.loc 1 315 0
 631 0000 0338     		subs	r0, r0, #3
 632              	.LVL57:
 633 0002 83B2     		uxth	r3, r0
 634 0004 692B     		cmp	r3, #105
 635 0006 1AD8     		bhi	.L50
 636 0008 9800     		lsls	r0, r3, #2
 637 000a 0E4B     		ldr	r3, .L61
 638 000c 1B58     		ldr	r3, [r3, r0]
 639 000e 9F46     		mov	pc, r3
 640              		.section	.rodata
 641              		.align	2
 642              	.L52:
 643 0000 3A000000 		.word	.L51
 644 0004 3E000000 		.word	.L50
ARM GAS  C:\Users\haske\AppData\Local\Temp\ccdHxW38.s 			page 21


 645 0008 3E000000 		.word	.L50
 646 000c 3A000000 		.word	.L51
 647 0010 3E000000 		.word	.L50
 648 0014 3E000000 		.word	.L50
 649 0018 3E000000 		.word	.L50
 650 001c 3E000000 		.word	.L50
 651 0020 3E000000 		.word	.L50
 652 0024 3E000000 		.word	.L50
 653 0028 3E000000 		.word	.L50
 654 002c 3E000000 		.word	.L50
 655 0030 3E000000 		.word	.L50
 656 0034 3E000000 		.word	.L50
 657 0038 3E000000 		.word	.L50
 658 003c 3E000000 		.word	.L50
 659 0040 3E000000 		.word	.L50
 660 0044 3E000000 		.word	.L50
 661 0048 3E000000 		.word	.L50
 662 004c 3E000000 		.word	.L50
 663 0050 3E000000 		.word	.L50
 664 0054 3E000000 		.word	.L50
 665 0058 3E000000 		.word	.L50
 666 005c 3E000000 		.word	.L50
 667 0060 3E000000 		.word	.L50
 668 0064 3E000000 		.word	.L50
 669 0068 3E000000 		.word	.L50
 670 006c 3E000000 		.word	.L50
 671 0070 3E000000 		.word	.L50
 672 0074 16000000 		.word	.L53
 673 0078 3E000000 		.word	.L50
 674 007c 26000000 		.word	.L54
 675 0080 3E000000 		.word	.L50
 676 0084 3E000000 		.word	.L50
 677 0088 2E000000 		.word	.L55
 678 008c 3E000000 		.word	.L50
 679 0090 3E000000 		.word	.L50
 680 0094 3E000000 		.word	.L50
 681 0098 2A000000 		.word	.L56
 682 009c 3E000000 		.word	.L50
 683 00a0 3E000000 		.word	.L50
 684 00a4 3E000000 		.word	.L50
 685 00a8 3E000000 		.word	.L50
 686 00ac 3E000000 		.word	.L50
 687 00b0 3E000000 		.word	.L50
 688 00b4 26000000 		.word	.L54
 689 00b8 2A000000 		.word	.L56
 690 00bc 3E000000 		.word	.L50
 691 00c0 32000000 		.word	.L57
 692 00c4 3E000000 		.word	.L50
 693 00c8 3E000000 		.word	.L50
 694 00cc 26000000 		.word	.L54
 695 00d0 2A000000 		.word	.L56
 696 00d4 3E000000 		.word	.L50
 697 00d8 3E000000 		.word	.L50
 698 00dc 3E000000 		.word	.L50
 699 00e0 3E000000 		.word	.L50
 700 00e4 3E000000 		.word	.L50
 701 00e8 3E000000 		.word	.L50
ARM GAS  C:\Users\haske\AppData\Local\Temp\ccdHxW38.s 			page 22


 702 00ec 3E000000 		.word	.L50
 703 00f0 3E000000 		.word	.L50
 704 00f4 3E000000 		.word	.L50
 705 00f8 3E000000 		.word	.L50
 706 00fc 3E000000 		.word	.L50
 707 0100 3E000000 		.word	.L50
 708 0104 26000000 		.word	.L54
 709 0108 2A000000 		.word	.L56
 710 010c 2A000000 		.word	.L56
 711 0110 26000000 		.word	.L54
 712 0114 3E000000 		.word	.L50
 713 0118 3E000000 		.word	.L50
 714 011c 3E000000 		.word	.L50
 715 0120 3E000000 		.word	.L50
 716 0124 3E000000 		.word	.L50
 717 0128 26000000 		.word	.L54
 718 012c 2A000000 		.word	.L56
 719 0130 3E000000 		.word	.L50
 720 0134 3E000000 		.word	.L50
 721 0138 3E000000 		.word	.L50
 722 013c 26000000 		.word	.L54
 723 0140 2A000000 		.word	.L56
 724 0144 3E000000 		.word	.L50
 725 0148 26000000 		.word	.L54
 726 014c 2A000000 		.word	.L56
 727 0150 36000000 		.word	.L58
 728 0154 3E000000 		.word	.L50
 729 0158 3E000000 		.word	.L50
 730 015c 3E000000 		.word	.L50
 731 0160 3E000000 		.word	.L50
 732 0164 3E000000 		.word	.L50
 733 0168 3E000000 		.word	.L50
 734 016c 3E000000 		.word	.L50
 735 0170 3E000000 		.word	.L50
 736 0174 2A000000 		.word	.L56
 737 0178 3E000000 		.word	.L50
 738 017c 3E000000 		.word	.L50
 739 0180 3E000000 		.word	.L50
 740 0184 3E000000 		.word	.L50
 741 0188 3E000000 		.word	.L50
 742 018c 3E000000 		.word	.L50
 743 0190 3E000000 		.word	.L50
 744 0194 3E000000 		.word	.L50
 745 0198 3E000000 		.word	.L50
 746 019c 3E000000 		.word	.L50
 747 01a0 3E000000 		.word	.L50
 748 01a4 10000000 		.word	.L59
 749              		.section	.text.lv_style_prop_get_default
 750              	.L59:
 317:..\..\..\arduinoLCD\test\Pain Drain\libraries\lvgl\src\misc/lv_style.c ****             break;
 751              		.loc 1 317 0
 752 0010 8020     		movs	r0, #128
 753              	.LVL58:
 754 0012 4000     		lsls	r0, r0, #1
 755              	.LVL59:
 318:..\..\..\arduinoLCD\test\Pain Drain\libraries\lvgl\src\misc/lv_style.c ****         case LV_STYLE_BG_COLOR:
 756              		.loc 1 318 0
ARM GAS  C:\Users\haske\AppData\Local\Temp\ccdHxW38.s 			page 23


 757 0014 14E0     		b	.L60
 758              	.L53:
 759              	.LVL60:
 760              	.LBB20:
 761              	.LBB21:
 762              	.LBB22:
 763              		.file 2 "..\\..\\..\\arduinoLCD\\test\\Pain Drain\\libraries\\lvgl\\src\\misc\\lv_color.h"
   1:..\..\..\arduinoLCD\test\Pain Drain\libraries\lvgl\src\misc/lv_color.h **** /**
   2:..\..\..\arduinoLCD\test\Pain Drain\libraries\lvgl\src\misc/lv_color.h ****  * @file lv_color.h
   3:..\..\..\arduinoLCD\test\Pain Drain\libraries\lvgl\src\misc/lv_color.h ****  *
   4:..\..\..\arduinoLCD\test\Pain Drain\libraries\lvgl\src\misc/lv_color.h ****  */
   5:..\..\..\arduinoLCD\test\Pain Drain\libraries\lvgl\src\misc/lv_color.h **** 
   6:..\..\..\arduinoLCD\test\Pain Drain\libraries\lvgl\src\misc/lv_color.h **** #ifndef LV_COLOR_H
   7:..\..\..\arduinoLCD\test\Pain Drain\libraries\lvgl\src\misc/lv_color.h **** #define LV_COLOR_H
   8:..\..\..\arduinoLCD\test\Pain Drain\libraries\lvgl\src\misc/lv_color.h **** 
   9:..\..\..\arduinoLCD\test\Pain Drain\libraries\lvgl\src\misc/lv_color.h **** #ifdef __cplusplus
  10:..\..\..\arduinoLCD\test\Pain Drain\libraries\lvgl\src\misc/lv_color.h **** extern "C" {
  11:..\..\..\arduinoLCD\test\Pain Drain\libraries\lvgl\src\misc/lv_color.h **** #endif
  12:..\..\..\arduinoLCD\test\Pain Drain\libraries\lvgl\src\misc/lv_color.h **** 
  13:..\..\..\arduinoLCD\test\Pain Drain\libraries\lvgl\src\misc/lv_color.h **** /*********************
  14:..\..\..\arduinoLCD\test\Pain Drain\libraries\lvgl\src\misc/lv_color.h ****  *      INCLUDES
  15:..\..\..\arduinoLCD\test\Pain Drain\libraries\lvgl\src\misc/lv_color.h ****  *********************/
  16:..\..\..\arduinoLCD\test\Pain Drain\libraries\lvgl\src\misc/lv_color.h **** #include "../lv_conf_internal.h"
  17:..\..\..\arduinoLCD\test\Pain Drain\libraries\lvgl\src\misc/lv_color.h **** #include "lv_assert.h"
  18:..\..\..\arduinoLCD\test\Pain Drain\libraries\lvgl\src\misc/lv_color.h **** #include "lv_math.h"
  19:..\..\..\arduinoLCD\test\Pain Drain\libraries\lvgl\src\misc/lv_color.h **** #include "lv_types.h"
  20:..\..\..\arduinoLCD\test\Pain Drain\libraries\lvgl\src\misc/lv_color.h **** 
  21:..\..\..\arduinoLCD\test\Pain Drain\libraries\lvgl\src\misc/lv_color.h **** /*Error checking*/
  22:..\..\..\arduinoLCD\test\Pain Drain\libraries\lvgl\src\misc/lv_color.h **** #if LV_COLOR_DEPTH == 24
  23:..\..\..\arduinoLCD\test\Pain Drain\libraries\lvgl\src\misc/lv_color.h **** #error "LV_COLOR_DEPTH 24 is deprecated. Use LV_COLOR_DEPTH 32 instead (lv_conf.h)"
  24:..\..\..\arduinoLCD\test\Pain Drain\libraries\lvgl\src\misc/lv_color.h **** #endif
  25:..\..\..\arduinoLCD\test\Pain Drain\libraries\lvgl\src\misc/lv_color.h **** 
  26:..\..\..\arduinoLCD\test\Pain Drain\libraries\lvgl\src\misc/lv_color.h **** #if LV_COLOR_DEPTH != 16 && LV_COLOR_16_SWAP != 0
  27:..\..\..\arduinoLCD\test\Pain Drain\libraries\lvgl\src\misc/lv_color.h **** #error "LV_COLOR_16_SWAP requires LV_COLOR_DEPTH == 16. Set it in lv_conf.h"
  28:..\..\..\arduinoLCD\test\Pain Drain\libraries\lvgl\src\misc/lv_color.h **** #endif
  29:..\..\..\arduinoLCD\test\Pain Drain\libraries\lvgl\src\misc/lv_color.h **** 
  30:..\..\..\arduinoLCD\test\Pain Drain\libraries\lvgl\src\misc/lv_color.h **** #include <stdint.h>
  31:..\..\..\arduinoLCD\test\Pain Drain\libraries\lvgl\src\misc/lv_color.h **** 
  32:..\..\..\arduinoLCD\test\Pain Drain\libraries\lvgl\src\misc/lv_color.h **** /*********************
  33:..\..\..\arduinoLCD\test\Pain Drain\libraries\lvgl\src\misc/lv_color.h ****  *      DEFINES
  34:..\..\..\arduinoLCD\test\Pain Drain\libraries\lvgl\src\misc/lv_color.h ****  *********************/
  35:..\..\..\arduinoLCD\test\Pain Drain\libraries\lvgl\src\misc/lv_color.h **** LV_EXPORT_CONST_INT(LV_COLOR_DEPTH);
  36:..\..\..\arduinoLCD\test\Pain Drain\libraries\lvgl\src\misc/lv_color.h **** LV_EXPORT_CONST_INT(LV_COLOR_16_SWAP);
  37:..\..\..\arduinoLCD\test\Pain Drain\libraries\lvgl\src\misc/lv_color.h **** 
  38:..\..\..\arduinoLCD\test\Pain Drain\libraries\lvgl\src\misc/lv_color.h **** /**
  39:..\..\..\arduinoLCD\test\Pain Drain\libraries\lvgl\src\misc/lv_color.h ****  * Opacity percentages.
  40:..\..\..\arduinoLCD\test\Pain Drain\libraries\lvgl\src\misc/lv_color.h ****  */
  41:..\..\..\arduinoLCD\test\Pain Drain\libraries\lvgl\src\misc/lv_color.h **** enum {
  42:..\..\..\arduinoLCD\test\Pain Drain\libraries\lvgl\src\misc/lv_color.h ****     LV_OPA_TRANSP = 0,
  43:..\..\..\arduinoLCD\test\Pain Drain\libraries\lvgl\src\misc/lv_color.h ****     LV_OPA_0      = 0,
  44:..\..\..\arduinoLCD\test\Pain Drain\libraries\lvgl\src\misc/lv_color.h ****     LV_OPA_10     = 25,
  45:..\..\..\arduinoLCD\test\Pain Drain\libraries\lvgl\src\misc/lv_color.h ****     LV_OPA_20     = 51,
  46:..\..\..\arduinoLCD\test\Pain Drain\libraries\lvgl\src\misc/lv_color.h ****     LV_OPA_30     = 76,
  47:..\..\..\arduinoLCD\test\Pain Drain\libraries\lvgl\src\misc/lv_color.h ****     LV_OPA_40     = 102,
  48:..\..\..\arduinoLCD\test\Pain Drain\libraries\lvgl\src\misc/lv_color.h ****     LV_OPA_50     = 127,
  49:..\..\..\arduinoLCD\test\Pain Drain\libraries\lvgl\src\misc/lv_color.h ****     LV_OPA_60     = 153,
  50:..\..\..\arduinoLCD\test\Pain Drain\libraries\lvgl\src\misc/lv_color.h ****     LV_OPA_70     = 178,
ARM GAS  C:\Users\haske\AppData\Local\Temp\ccdHxW38.s 			page 24


  51:..\..\..\arduinoLCD\test\Pain Drain\libraries\lvgl\src\misc/lv_color.h ****     LV_OPA_80     = 204,
  52:..\..\..\arduinoLCD\test\Pain Drain\libraries\lvgl\src\misc/lv_color.h ****     LV_OPA_90     = 229,
  53:..\..\..\arduinoLCD\test\Pain Drain\libraries\lvgl\src\misc/lv_color.h ****     LV_OPA_100    = 255,
  54:..\..\..\arduinoLCD\test\Pain Drain\libraries\lvgl\src\misc/lv_color.h ****     LV_OPA_COVER  = 255,
  55:..\..\..\arduinoLCD\test\Pain Drain\libraries\lvgl\src\misc/lv_color.h **** };
  56:..\..\..\arduinoLCD\test\Pain Drain\libraries\lvgl\src\misc/lv_color.h **** 
  57:..\..\..\arduinoLCD\test\Pain Drain\libraries\lvgl\src\misc/lv_color.h **** #define LV_OPA_MIN 2    /*Opacities below this will be transparent*/
  58:..\..\..\arduinoLCD\test\Pain Drain\libraries\lvgl\src\misc/lv_color.h **** #define LV_OPA_MAX 253  /*Opacities above this will fully cover*/
  59:..\..\..\arduinoLCD\test\Pain Drain\libraries\lvgl\src\misc/lv_color.h **** 
  60:..\..\..\arduinoLCD\test\Pain Drain\libraries\lvgl\src\misc/lv_color.h **** #if LV_COLOR_DEPTH == 1
  61:..\..\..\arduinoLCD\test\Pain Drain\libraries\lvgl\src\misc/lv_color.h **** #define LV_COLOR_SIZE 8
  62:..\..\..\arduinoLCD\test\Pain Drain\libraries\lvgl\src\misc/lv_color.h **** #elif LV_COLOR_DEPTH == 8
  63:..\..\..\arduinoLCD\test\Pain Drain\libraries\lvgl\src\misc/lv_color.h **** #define LV_COLOR_SIZE 8
  64:..\..\..\arduinoLCD\test\Pain Drain\libraries\lvgl\src\misc/lv_color.h **** #elif LV_COLOR_DEPTH == 16
  65:..\..\..\arduinoLCD\test\Pain Drain\libraries\lvgl\src\misc/lv_color.h **** #define LV_COLOR_SIZE 16
  66:..\..\..\arduinoLCD\test\Pain Drain\libraries\lvgl\src\misc/lv_color.h **** #elif LV_COLOR_DEPTH == 32
  67:..\..\..\arduinoLCD\test\Pain Drain\libraries\lvgl\src\misc/lv_color.h **** #define LV_COLOR_SIZE 32
  68:..\..\..\arduinoLCD\test\Pain Drain\libraries\lvgl\src\misc/lv_color.h **** #else
  69:..\..\..\arduinoLCD\test\Pain Drain\libraries\lvgl\src\misc/lv_color.h **** #error "Invalid LV_COLOR_DEPTH in lv_conf.h! Set it to 1, 8, 16 or 32!"
  70:..\..\..\arduinoLCD\test\Pain Drain\libraries\lvgl\src\misc/lv_color.h **** #endif
  71:..\..\..\arduinoLCD\test\Pain Drain\libraries\lvgl\src\misc/lv_color.h **** 
  72:..\..\..\arduinoLCD\test\Pain Drain\libraries\lvgl\src\misc/lv_color.h **** #if defined(__cplusplus) && !defined(_LV_COLOR_HAS_MODERN_CPP)
  73:..\..\..\arduinoLCD\test\Pain Drain\libraries\lvgl\src\misc/lv_color.h **** /**
  74:..\..\..\arduinoLCD\test\Pain Drain\libraries\lvgl\src\misc/lv_color.h **** * MSVC compiler's definition of the __cplusplus indicating 199711L regardless to C++ standard versi
  75:..\..\..\arduinoLCD\test\Pain Drain\libraries\lvgl\src\misc/lv_color.h **** * see https://devblogs.microsoft.com/cppblog/msvc-now-correctly-reports-cplusplus
  76:..\..\..\arduinoLCD\test\Pain Drain\libraries\lvgl\src\misc/lv_color.h **** * so we use _MSC_VER macro instead of __cplusplus
  77:..\..\..\arduinoLCD\test\Pain Drain\libraries\lvgl\src\misc/lv_color.h **** */
  78:..\..\..\arduinoLCD\test\Pain Drain\libraries\lvgl\src\misc/lv_color.h **** #ifdef _MSC_VER
  79:..\..\..\arduinoLCD\test\Pain Drain\libraries\lvgl\src\misc/lv_color.h **** #if _MSC_VER >= 1900 /*Visual Studio 2015*/
  80:..\..\..\arduinoLCD\test\Pain Drain\libraries\lvgl\src\misc/lv_color.h **** #define _LV_COLOR_HAS_MODERN_CPP 1
  81:..\..\..\arduinoLCD\test\Pain Drain\libraries\lvgl\src\misc/lv_color.h **** #endif
  82:..\..\..\arduinoLCD\test\Pain Drain\libraries\lvgl\src\misc/lv_color.h **** #else
  83:..\..\..\arduinoLCD\test\Pain Drain\libraries\lvgl\src\misc/lv_color.h **** #if __cplusplus >= 201103L
  84:..\..\..\arduinoLCD\test\Pain Drain\libraries\lvgl\src\misc/lv_color.h **** #define _LV_COLOR_HAS_MODERN_CPP 1
  85:..\..\..\arduinoLCD\test\Pain Drain\libraries\lvgl\src\misc/lv_color.h **** #endif
  86:..\..\..\arduinoLCD\test\Pain Drain\libraries\lvgl\src\misc/lv_color.h **** #endif
  87:..\..\..\arduinoLCD\test\Pain Drain\libraries\lvgl\src\misc/lv_color.h **** #endif /*__cplusplus*/
  88:..\..\..\arduinoLCD\test\Pain Drain\libraries\lvgl\src\misc/lv_color.h **** 
  89:..\..\..\arduinoLCD\test\Pain Drain\libraries\lvgl\src\misc/lv_color.h **** #ifndef _LV_COLOR_HAS_MODERN_CPP
  90:..\..\..\arduinoLCD\test\Pain Drain\libraries\lvgl\src\misc/lv_color.h **** #define _LV_COLOR_HAS_MODERN_CPP 0
  91:..\..\..\arduinoLCD\test\Pain Drain\libraries\lvgl\src\misc/lv_color.h **** #endif
  92:..\..\..\arduinoLCD\test\Pain Drain\libraries\lvgl\src\misc/lv_color.h **** 
  93:..\..\..\arduinoLCD\test\Pain Drain\libraries\lvgl\src\misc/lv_color.h **** #if _LV_COLOR_HAS_MODERN_CPP
  94:..\..\..\arduinoLCD\test\Pain Drain\libraries\lvgl\src\misc/lv_color.h **** /*Fix msvc compiler error C4576 inside C++ code*/
  95:..\..\..\arduinoLCD\test\Pain Drain\libraries\lvgl\src\misc/lv_color.h **** #define _LV_COLOR_MAKE_TYPE_HELPER lv_color_t
  96:..\..\..\arduinoLCD\test\Pain Drain\libraries\lvgl\src\misc/lv_color.h **** #else
  97:..\..\..\arduinoLCD\test\Pain Drain\libraries\lvgl\src\misc/lv_color.h **** #define _LV_COLOR_MAKE_TYPE_HELPER (lv_color_t)
  98:..\..\..\arduinoLCD\test\Pain Drain\libraries\lvgl\src\misc/lv_color.h **** #endif
  99:..\..\..\arduinoLCD\test\Pain Drain\libraries\lvgl\src\misc/lv_color.h **** 
 100:..\..\..\arduinoLCD\test\Pain Drain\libraries\lvgl\src\misc/lv_color.h **** /*---------------------------------------
 101:..\..\..\arduinoLCD\test\Pain Drain\libraries\lvgl\src\misc/lv_color.h ****  * Macros for all existing color depths
 102:..\..\..\arduinoLCD\test\Pain Drain\libraries\lvgl\src\misc/lv_color.h ****  * to set/get values of the color channels
 103:..\..\..\arduinoLCD\test\Pain Drain\libraries\lvgl\src\misc/lv_color.h ****  *------------------------------------------*/
 104:..\..\..\arduinoLCD\test\Pain Drain\libraries\lvgl\src\misc/lv_color.h **** # define LV_COLOR_SET_R1(c, v) (c).ch.red = (uint8_t)((v) & 0x1)
 105:..\..\..\arduinoLCD\test\Pain Drain\libraries\lvgl\src\misc/lv_color.h **** # define LV_COLOR_SET_G1(c, v) (c).ch.green = (uint8_t)((v) & 0x1)
 106:..\..\..\arduinoLCD\test\Pain Drain\libraries\lvgl\src\misc/lv_color.h **** # define LV_COLOR_SET_B1(c, v) (c).ch.blue = (uint8_t)((v) & 0x1)
 107:..\..\..\arduinoLCD\test\Pain Drain\libraries\lvgl\src\misc/lv_color.h **** # define LV_COLOR_SET_A1(c, v) do {} while(0)
ARM GAS  C:\Users\haske\AppData\Local\Temp\ccdHxW38.s 			page 25


 108:..\..\..\arduinoLCD\test\Pain Drain\libraries\lvgl\src\misc/lv_color.h **** 
 109:..\..\..\arduinoLCD\test\Pain Drain\libraries\lvgl\src\misc/lv_color.h **** # define LV_COLOR_GET_R1(c) (c).ch.red
 110:..\..\..\arduinoLCD\test\Pain Drain\libraries\lvgl\src\misc/lv_color.h **** # define LV_COLOR_GET_G1(c) (c).ch.green
 111:..\..\..\arduinoLCD\test\Pain Drain\libraries\lvgl\src\misc/lv_color.h **** # define LV_COLOR_GET_B1(c) (c).ch.blue
 112:..\..\..\arduinoLCD\test\Pain Drain\libraries\lvgl\src\misc/lv_color.h **** # define LV_COLOR_GET_A1(c) 0xFF
 113:..\..\..\arduinoLCD\test\Pain Drain\libraries\lvgl\src\misc/lv_color.h **** 
 114:..\..\..\arduinoLCD\test\Pain Drain\libraries\lvgl\src\misc/lv_color.h **** # define _LV_COLOR_ZERO_INITIALIZER1 {0x00}
 115:..\..\..\arduinoLCD\test\Pain Drain\libraries\lvgl\src\misc/lv_color.h **** # define LV_COLOR_MAKE1(r8, g8, b8)  {(uint8_t)((b8 >> 7) | (g8 >> 7) | (r8 >> 7))}
 116:..\..\..\arduinoLCD\test\Pain Drain\libraries\lvgl\src\misc/lv_color.h **** 
 117:..\..\..\arduinoLCD\test\Pain Drain\libraries\lvgl\src\misc/lv_color.h **** # define LV_COLOR_SET_R8(c, v) (c).ch.red = (uint8_t)((v) & 0x7U)
 118:..\..\..\arduinoLCD\test\Pain Drain\libraries\lvgl\src\misc/lv_color.h **** # define LV_COLOR_SET_G8(c, v) (c).ch.green = (uint8_t)((v) & 0x7U)
 119:..\..\..\arduinoLCD\test\Pain Drain\libraries\lvgl\src\misc/lv_color.h **** # define LV_COLOR_SET_B8(c, v) (c).ch.blue = (uint8_t)((v) & 0x3U)
 120:..\..\..\arduinoLCD\test\Pain Drain\libraries\lvgl\src\misc/lv_color.h **** # define LV_COLOR_SET_A8(c, v) do {} while(0)
 121:..\..\..\arduinoLCD\test\Pain Drain\libraries\lvgl\src\misc/lv_color.h **** 
 122:..\..\..\arduinoLCD\test\Pain Drain\libraries\lvgl\src\misc/lv_color.h **** # define LV_COLOR_GET_R8(c) (c).ch.red
 123:..\..\..\arduinoLCD\test\Pain Drain\libraries\lvgl\src\misc/lv_color.h **** # define LV_COLOR_GET_G8(c) (c).ch.green
 124:..\..\..\arduinoLCD\test\Pain Drain\libraries\lvgl\src\misc/lv_color.h **** # define LV_COLOR_GET_B8(c) (c).ch.blue
 125:..\..\..\arduinoLCD\test\Pain Drain\libraries\lvgl\src\misc/lv_color.h **** # define LV_COLOR_GET_A8(c) 0xFF
 126:..\..\..\arduinoLCD\test\Pain Drain\libraries\lvgl\src\misc/lv_color.h **** 
 127:..\..\..\arduinoLCD\test\Pain Drain\libraries\lvgl\src\misc/lv_color.h **** # define _LV_COLOR_ZERO_INITIALIZER8 {{0x00, 0x00, 0x00}}
 128:..\..\..\arduinoLCD\test\Pain Drain\libraries\lvgl\src\misc/lv_color.h **** # define LV_COLOR_MAKE8(r8, g8, b8) {{(uint8_t)((b8 >> 6) & 0x3U), (uint8_t)((g8 >> 5) & 0x7U), (ui
 129:..\..\..\arduinoLCD\test\Pain Drain\libraries\lvgl\src\misc/lv_color.h **** 
 130:..\..\..\arduinoLCD\test\Pain Drain\libraries\lvgl\src\misc/lv_color.h **** # define LV_COLOR_SET_R16(c, v) (c).ch.red = (uint8_t)((v) & 0x1FU)
 131:..\..\..\arduinoLCD\test\Pain Drain\libraries\lvgl\src\misc/lv_color.h **** #if LV_COLOR_16_SWAP == 0
 132:..\..\..\arduinoLCD\test\Pain Drain\libraries\lvgl\src\misc/lv_color.h **** # define LV_COLOR_SET_G16(c, v) (c).ch.green = (uint8_t)((v) & 0x3FU)
 133:..\..\..\arduinoLCD\test\Pain Drain\libraries\lvgl\src\misc/lv_color.h **** #else
 134:..\..\..\arduinoLCD\test\Pain Drain\libraries\lvgl\src\misc/lv_color.h **** # define LV_COLOR_SET_G16(c, v) {(c).ch.green_h = (uint8_t)(((v) >> 3) & 0x7); (c).ch.green_l = (ui
 135:..\..\..\arduinoLCD\test\Pain Drain\libraries\lvgl\src\misc/lv_color.h **** #endif
 136:..\..\..\arduinoLCD\test\Pain Drain\libraries\lvgl\src\misc/lv_color.h **** # define LV_COLOR_SET_B16(c, v) (c).ch.blue = (uint8_t)((v) & 0x1FU)
 137:..\..\..\arduinoLCD\test\Pain Drain\libraries\lvgl\src\misc/lv_color.h **** # define LV_COLOR_SET_A16(c, v) do {} while(0)
 138:..\..\..\arduinoLCD\test\Pain Drain\libraries\lvgl\src\misc/lv_color.h **** 
 139:..\..\..\arduinoLCD\test\Pain Drain\libraries\lvgl\src\misc/lv_color.h **** # define LV_COLOR_GET_R16(c) (c).ch.red
 140:..\..\..\arduinoLCD\test\Pain Drain\libraries\lvgl\src\misc/lv_color.h **** #if LV_COLOR_16_SWAP == 0
 141:..\..\..\arduinoLCD\test\Pain Drain\libraries\lvgl\src\misc/lv_color.h **** # define LV_COLOR_GET_G16(c) (c).ch.green
 142:..\..\..\arduinoLCD\test\Pain Drain\libraries\lvgl\src\misc/lv_color.h **** #else
 143:..\..\..\arduinoLCD\test\Pain Drain\libraries\lvgl\src\misc/lv_color.h **** # define LV_COLOR_GET_G16(c) (((c).ch.green_h << 3) + (c).ch.green_l)
 144:..\..\..\arduinoLCD\test\Pain Drain\libraries\lvgl\src\misc/lv_color.h **** #endif
 145:..\..\..\arduinoLCD\test\Pain Drain\libraries\lvgl\src\misc/lv_color.h **** # define LV_COLOR_GET_B16(c) (c).ch.blue
 146:..\..\..\arduinoLCD\test\Pain Drain\libraries\lvgl\src\misc/lv_color.h **** # define LV_COLOR_GET_A16(c) 0xFF
 147:..\..\..\arduinoLCD\test\Pain Drain\libraries\lvgl\src\misc/lv_color.h **** 
 148:..\..\..\arduinoLCD\test\Pain Drain\libraries\lvgl\src\misc/lv_color.h **** #if LV_COLOR_16_SWAP == 0
 149:..\..\..\arduinoLCD\test\Pain Drain\libraries\lvgl\src\misc/lv_color.h **** # define _LV_COLOR_ZERO_INITIALIZER16  {{0x00, 0x00, 0x00}}
 150:..\..\..\arduinoLCD\test\Pain Drain\libraries\lvgl\src\misc/lv_color.h **** # define LV_COLOR_MAKE16(r8, g8, b8) {{(uint8_t)((b8 >> 3) & 0x1FU), (uint8_t)((g8 >> 2) & 0x3FU), 
 151:..\..\..\arduinoLCD\test\Pain Drain\libraries\lvgl\src\misc/lv_color.h **** #else
 152:..\..\..\arduinoLCD\test\Pain Drain\libraries\lvgl\src\misc/lv_color.h **** # define _LV_COLOR_ZERO_INITIALIZER16 {{0x00, 0x00, 0x00, 0x00}}
 153:..\..\..\arduinoLCD\test\Pain Drain\libraries\lvgl\src\misc/lv_color.h **** # define LV_COLOR_MAKE16(r8, g8, b8) {{(uint8_t)((g8 >> 5) & 0x7U), (uint8_t)((r8 >> 3) & 0x1FU), (
 154:..\..\..\arduinoLCD\test\Pain Drain\libraries\lvgl\src\misc/lv_color.h **** #endif
 155:..\..\..\arduinoLCD\test\Pain Drain\libraries\lvgl\src\misc/lv_color.h **** 
 156:..\..\..\arduinoLCD\test\Pain Drain\libraries\lvgl\src\misc/lv_color.h **** # define LV_COLOR_SET_R32(c, v) (c).ch.red = (uint8_t)((v) & 0xFF)
 157:..\..\..\arduinoLCD\test\Pain Drain\libraries\lvgl\src\misc/lv_color.h **** # define LV_COLOR_SET_G32(c, v) (c).ch.green = (uint8_t)((v) & 0xFF)
 158:..\..\..\arduinoLCD\test\Pain Drain\libraries\lvgl\src\misc/lv_color.h **** # define LV_COLOR_SET_B32(c, v) (c).ch.blue = (uint8_t)((v) & 0xFF)
 159:..\..\..\arduinoLCD\test\Pain Drain\libraries\lvgl\src\misc/lv_color.h **** # define LV_COLOR_SET_A32(c, v) (c).ch.alpha = (uint8_t)((v) & 0xFF)
 160:..\..\..\arduinoLCD\test\Pain Drain\libraries\lvgl\src\misc/lv_color.h **** 
 161:..\..\..\arduinoLCD\test\Pain Drain\libraries\lvgl\src\misc/lv_color.h **** # define LV_COLOR_GET_R32(c) (c).ch.red
 162:..\..\..\arduinoLCD\test\Pain Drain\libraries\lvgl\src\misc/lv_color.h **** # define LV_COLOR_GET_G32(c) (c).ch.green
 163:..\..\..\arduinoLCD\test\Pain Drain\libraries\lvgl\src\misc/lv_color.h **** # define LV_COLOR_GET_B32(c) (c).ch.blue
 164:..\..\..\arduinoLCD\test\Pain Drain\libraries\lvgl\src\misc/lv_color.h **** # define LV_COLOR_GET_A32(c) (c).ch.alpha
ARM GAS  C:\Users\haske\AppData\Local\Temp\ccdHxW38.s 			page 26


 165:..\..\..\arduinoLCD\test\Pain Drain\libraries\lvgl\src\misc/lv_color.h **** 
 166:..\..\..\arduinoLCD\test\Pain Drain\libraries\lvgl\src\misc/lv_color.h **** # define _LV_COLOR_ZERO_INITIALIZER32  {{0x00, 0x00, 0x00, 0x00}}
 167:..\..\..\arduinoLCD\test\Pain Drain\libraries\lvgl\src\misc/lv_color.h **** # define LV_COLOR_MAKE32(r8, g8, b8) {{b8, g8, r8, 0xff}} /*Fix 0xff alpha*/
 168:..\..\..\arduinoLCD\test\Pain Drain\libraries\lvgl\src\misc/lv_color.h **** 
 169:..\..\..\arduinoLCD\test\Pain Drain\libraries\lvgl\src\misc/lv_color.h **** /*---------------------------------------
 170:..\..\..\arduinoLCD\test\Pain Drain\libraries\lvgl\src\misc/lv_color.h ****  * Macros for the current color depth
 171:..\..\..\arduinoLCD\test\Pain Drain\libraries\lvgl\src\misc/lv_color.h ****  * to set/get values of the color channels
 172:..\..\..\arduinoLCD\test\Pain Drain\libraries\lvgl\src\misc/lv_color.h ****  *------------------------------------------*/
 173:..\..\..\arduinoLCD\test\Pain Drain\libraries\lvgl\src\misc/lv_color.h **** #define LV_COLOR_SET_R(c, v) LV_CONCAT(LV_COLOR_SET_R, LV_COLOR_DEPTH)(c, v)
 174:..\..\..\arduinoLCD\test\Pain Drain\libraries\lvgl\src\misc/lv_color.h **** #define LV_COLOR_SET_G(c, v) LV_CONCAT(LV_COLOR_SET_G, LV_COLOR_DEPTH)(c, v)
 175:..\..\..\arduinoLCD\test\Pain Drain\libraries\lvgl\src\misc/lv_color.h **** #define LV_COLOR_SET_B(c, v) LV_CONCAT(LV_COLOR_SET_B, LV_COLOR_DEPTH)(c, v)
 176:..\..\..\arduinoLCD\test\Pain Drain\libraries\lvgl\src\misc/lv_color.h **** #define LV_COLOR_SET_A(c, v) LV_CONCAT(LV_COLOR_SET_A, LV_COLOR_DEPTH)(c, v)
 177:..\..\..\arduinoLCD\test\Pain Drain\libraries\lvgl\src\misc/lv_color.h **** 
 178:..\..\..\arduinoLCD\test\Pain Drain\libraries\lvgl\src\misc/lv_color.h **** #define LV_COLOR_GET_R(c) LV_CONCAT(LV_COLOR_GET_R, LV_COLOR_DEPTH)(c)
 179:..\..\..\arduinoLCD\test\Pain Drain\libraries\lvgl\src\misc/lv_color.h **** #define LV_COLOR_GET_G(c) LV_CONCAT(LV_COLOR_GET_G, LV_COLOR_DEPTH)(c)
 180:..\..\..\arduinoLCD\test\Pain Drain\libraries\lvgl\src\misc/lv_color.h **** #define LV_COLOR_GET_B(c) LV_CONCAT(LV_COLOR_GET_B, LV_COLOR_DEPTH)(c)
 181:..\..\..\arduinoLCD\test\Pain Drain\libraries\lvgl\src\misc/lv_color.h **** #define LV_COLOR_GET_A(c) LV_CONCAT(LV_COLOR_GET_A, LV_COLOR_DEPTH)(c)
 182:..\..\..\arduinoLCD\test\Pain Drain\libraries\lvgl\src\misc/lv_color.h **** 
 183:..\..\..\arduinoLCD\test\Pain Drain\libraries\lvgl\src\misc/lv_color.h **** #define _LV_COLOR_ZERO_INITIALIZER LV_CONCAT(_LV_COLOR_ZERO_INITIALIZER, LV_COLOR_DEPTH)
 184:..\..\..\arduinoLCD\test\Pain Drain\libraries\lvgl\src\misc/lv_color.h **** #define LV_COLOR_MAKE(r8, g8, b8) LV_CONCAT(LV_COLOR_MAKE, LV_COLOR_DEPTH)(r8, g8, b8)
 185:..\..\..\arduinoLCD\test\Pain Drain\libraries\lvgl\src\misc/lv_color.h **** 
 186:..\..\..\arduinoLCD\test\Pain Drain\libraries\lvgl\src\misc/lv_color.h **** /**********************
 187:..\..\..\arduinoLCD\test\Pain Drain\libraries\lvgl\src\misc/lv_color.h ****  *      TYPEDEFS
 188:..\..\..\arduinoLCD\test\Pain Drain\libraries\lvgl\src\misc/lv_color.h ****  **********************/
 189:..\..\..\arduinoLCD\test\Pain Drain\libraries\lvgl\src\misc/lv_color.h **** 
 190:..\..\..\arduinoLCD\test\Pain Drain\libraries\lvgl\src\misc/lv_color.h **** typedef union {
 191:..\..\..\arduinoLCD\test\Pain Drain\libraries\lvgl\src\misc/lv_color.h ****     uint8_t full; /*must be declared first to set all bits of byte via initializer list*/
 192:..\..\..\arduinoLCD\test\Pain Drain\libraries\lvgl\src\misc/lv_color.h ****     union {
 193:..\..\..\arduinoLCD\test\Pain Drain\libraries\lvgl\src\misc/lv_color.h ****         uint8_t blue : 1;
 194:..\..\..\arduinoLCD\test\Pain Drain\libraries\lvgl\src\misc/lv_color.h ****         uint8_t green : 1;
 195:..\..\..\arduinoLCD\test\Pain Drain\libraries\lvgl\src\misc/lv_color.h ****         uint8_t red : 1;
 196:..\..\..\arduinoLCD\test\Pain Drain\libraries\lvgl\src\misc/lv_color.h ****     } ch;
 197:..\..\..\arduinoLCD\test\Pain Drain\libraries\lvgl\src\misc/lv_color.h **** } lv_color1_t;
 198:..\..\..\arduinoLCD\test\Pain Drain\libraries\lvgl\src\misc/lv_color.h **** 
 199:..\..\..\arduinoLCD\test\Pain Drain\libraries\lvgl\src\misc/lv_color.h **** typedef union {
 200:..\..\..\arduinoLCD\test\Pain Drain\libraries\lvgl\src\misc/lv_color.h ****     struct {
 201:..\..\..\arduinoLCD\test\Pain Drain\libraries\lvgl\src\misc/lv_color.h ****         uint8_t blue : 2;
 202:..\..\..\arduinoLCD\test\Pain Drain\libraries\lvgl\src\misc/lv_color.h ****         uint8_t green : 3;
 203:..\..\..\arduinoLCD\test\Pain Drain\libraries\lvgl\src\misc/lv_color.h ****         uint8_t red : 3;
 204:..\..\..\arduinoLCD\test\Pain Drain\libraries\lvgl\src\misc/lv_color.h ****     } ch;
 205:..\..\..\arduinoLCD\test\Pain Drain\libraries\lvgl\src\misc/lv_color.h ****     uint8_t full;
 206:..\..\..\arduinoLCD\test\Pain Drain\libraries\lvgl\src\misc/lv_color.h **** } lv_color8_t;
 207:..\..\..\arduinoLCD\test\Pain Drain\libraries\lvgl\src\misc/lv_color.h **** 
 208:..\..\..\arduinoLCD\test\Pain Drain\libraries\lvgl\src\misc/lv_color.h **** typedef union {
 209:..\..\..\arduinoLCD\test\Pain Drain\libraries\lvgl\src\misc/lv_color.h ****     struct {
 210:..\..\..\arduinoLCD\test\Pain Drain\libraries\lvgl\src\misc/lv_color.h **** #if LV_COLOR_16_SWAP == 0
 211:..\..\..\arduinoLCD\test\Pain Drain\libraries\lvgl\src\misc/lv_color.h ****         uint16_t blue : 5;
 212:..\..\..\arduinoLCD\test\Pain Drain\libraries\lvgl\src\misc/lv_color.h ****         uint16_t green : 6;
 213:..\..\..\arduinoLCD\test\Pain Drain\libraries\lvgl\src\misc/lv_color.h ****         uint16_t red : 5;
 214:..\..\..\arduinoLCD\test\Pain Drain\libraries\lvgl\src\misc/lv_color.h **** #else
 215:..\..\..\arduinoLCD\test\Pain Drain\libraries\lvgl\src\misc/lv_color.h ****         uint16_t green_h : 3;
 216:..\..\..\arduinoLCD\test\Pain Drain\libraries\lvgl\src\misc/lv_color.h ****         uint16_t red : 5;
 217:..\..\..\arduinoLCD\test\Pain Drain\libraries\lvgl\src\misc/lv_color.h ****         uint16_t blue : 5;
 218:..\..\..\arduinoLCD\test\Pain Drain\libraries\lvgl\src\misc/lv_color.h ****         uint16_t green_l : 3;
 219:..\..\..\arduinoLCD\test\Pain Drain\libraries\lvgl\src\misc/lv_color.h **** #endif
 220:..\..\..\arduinoLCD\test\Pain Drain\libraries\lvgl\src\misc/lv_color.h ****     } ch;
 221:..\..\..\arduinoLCD\test\Pain Drain\libraries\lvgl\src\misc/lv_color.h ****     uint16_t full;
ARM GAS  C:\Users\haske\AppData\Local\Temp\ccdHxW38.s 			page 27


 222:..\..\..\arduinoLCD\test\Pain Drain\libraries\lvgl\src\misc/lv_color.h **** } lv_color16_t;
 223:..\..\..\arduinoLCD\test\Pain Drain\libraries\lvgl\src\misc/lv_color.h **** 
 224:..\..\..\arduinoLCD\test\Pain Drain\libraries\lvgl\src\misc/lv_color.h **** typedef union {
 225:..\..\..\arduinoLCD\test\Pain Drain\libraries\lvgl\src\misc/lv_color.h ****     struct {
 226:..\..\..\arduinoLCD\test\Pain Drain\libraries\lvgl\src\misc/lv_color.h ****         uint8_t blue;
 227:..\..\..\arduinoLCD\test\Pain Drain\libraries\lvgl\src\misc/lv_color.h ****         uint8_t green;
 228:..\..\..\arduinoLCD\test\Pain Drain\libraries\lvgl\src\misc/lv_color.h ****         uint8_t red;
 229:..\..\..\arduinoLCD\test\Pain Drain\libraries\lvgl\src\misc/lv_color.h ****         uint8_t alpha;
 230:..\..\..\arduinoLCD\test\Pain Drain\libraries\lvgl\src\misc/lv_color.h ****     } ch;
 231:..\..\..\arduinoLCD\test\Pain Drain\libraries\lvgl\src\misc/lv_color.h ****     uint32_t full;
 232:..\..\..\arduinoLCD\test\Pain Drain\libraries\lvgl\src\misc/lv_color.h **** } lv_color32_t;
 233:..\..\..\arduinoLCD\test\Pain Drain\libraries\lvgl\src\misc/lv_color.h **** 
 234:..\..\..\arduinoLCD\test\Pain Drain\libraries\lvgl\src\misc/lv_color.h **** typedef LV_CONCAT3(uint, LV_COLOR_SIZE, _t) lv_color_int_t;
 235:..\..\..\arduinoLCD\test\Pain Drain\libraries\lvgl\src\misc/lv_color.h **** typedef LV_CONCAT3(lv_color, LV_COLOR_DEPTH, _t) lv_color_t;
 236:..\..\..\arduinoLCD\test\Pain Drain\libraries\lvgl\src\misc/lv_color.h **** 
 237:..\..\..\arduinoLCD\test\Pain Drain\libraries\lvgl\src\misc/lv_color.h **** typedef struct {
 238:..\..\..\arduinoLCD\test\Pain Drain\libraries\lvgl\src\misc/lv_color.h ****     uint16_t h;
 239:..\..\..\arduinoLCD\test\Pain Drain\libraries\lvgl\src\misc/lv_color.h ****     uint8_t s;
 240:..\..\..\arduinoLCD\test\Pain Drain\libraries\lvgl\src\misc/lv_color.h ****     uint8_t v;
 241:..\..\..\arduinoLCD\test\Pain Drain\libraries\lvgl\src\misc/lv_color.h **** } lv_color_hsv_t;
 242:..\..\..\arduinoLCD\test\Pain Drain\libraries\lvgl\src\misc/lv_color.h **** 
 243:..\..\..\arduinoLCD\test\Pain Drain\libraries\lvgl\src\misc/lv_color.h **** //! @cond Doxygen_Suppress
 244:..\..\..\arduinoLCD\test\Pain Drain\libraries\lvgl\src\misc/lv_color.h **** /*No idea where the guard is required but else throws warnings in the docs*/
 245:..\..\..\arduinoLCD\test\Pain Drain\libraries\lvgl\src\misc/lv_color.h **** typedef uint8_t lv_opa_t;
 246:..\..\..\arduinoLCD\test\Pain Drain\libraries\lvgl\src\misc/lv_color.h **** //! @endcond
 247:..\..\..\arduinoLCD\test\Pain Drain\libraries\lvgl\src\misc/lv_color.h **** 
 248:..\..\..\arduinoLCD\test\Pain Drain\libraries\lvgl\src\misc/lv_color.h **** struct _lv_color_filter_dsc_t;
 249:..\..\..\arduinoLCD\test\Pain Drain\libraries\lvgl\src\misc/lv_color.h **** 
 250:..\..\..\arduinoLCD\test\Pain Drain\libraries\lvgl\src\misc/lv_color.h **** typedef lv_color_t (*lv_color_filter_cb_t)(const struct _lv_color_filter_dsc_t *, lv_color_t, lv_op
 251:..\..\..\arduinoLCD\test\Pain Drain\libraries\lvgl\src\misc/lv_color.h **** 
 252:..\..\..\arduinoLCD\test\Pain Drain\libraries\lvgl\src\misc/lv_color.h **** typedef struct _lv_color_filter_dsc_t {
 253:..\..\..\arduinoLCD\test\Pain Drain\libraries\lvgl\src\misc/lv_color.h ****     lv_color_filter_cb_t filter_cb;
 254:..\..\..\arduinoLCD\test\Pain Drain\libraries\lvgl\src\misc/lv_color.h ****     void * user_data;
 255:..\..\..\arduinoLCD\test\Pain Drain\libraries\lvgl\src\misc/lv_color.h **** } lv_color_filter_dsc_t;
 256:..\..\..\arduinoLCD\test\Pain Drain\libraries\lvgl\src\misc/lv_color.h **** 
 257:..\..\..\arduinoLCD\test\Pain Drain\libraries\lvgl\src\misc/lv_color.h **** 
 258:..\..\..\arduinoLCD\test\Pain Drain\libraries\lvgl\src\misc/lv_color.h **** typedef enum {
 259:..\..\..\arduinoLCD\test\Pain Drain\libraries\lvgl\src\misc/lv_color.h ****     LV_PALETTE_RED,
 260:..\..\..\arduinoLCD\test\Pain Drain\libraries\lvgl\src\misc/lv_color.h ****     LV_PALETTE_PINK,
 261:..\..\..\arduinoLCD\test\Pain Drain\libraries\lvgl\src\misc/lv_color.h ****     LV_PALETTE_PURPLE,
 262:..\..\..\arduinoLCD\test\Pain Drain\libraries\lvgl\src\misc/lv_color.h ****     LV_PALETTE_DEEP_PURPLE,
 263:..\..\..\arduinoLCD\test\Pain Drain\libraries\lvgl\src\misc/lv_color.h ****     LV_PALETTE_INDIGO,
 264:..\..\..\arduinoLCD\test\Pain Drain\libraries\lvgl\src\misc/lv_color.h ****     LV_PALETTE_BLUE,
 265:..\..\..\arduinoLCD\test\Pain Drain\libraries\lvgl\src\misc/lv_color.h ****     LV_PALETTE_LIGHT_BLUE,
 266:..\..\..\arduinoLCD\test\Pain Drain\libraries\lvgl\src\misc/lv_color.h ****     LV_PALETTE_CYAN,
 267:..\..\..\arduinoLCD\test\Pain Drain\libraries\lvgl\src\misc/lv_color.h ****     LV_PALETTE_TEAL,
 268:..\..\..\arduinoLCD\test\Pain Drain\libraries\lvgl\src\misc/lv_color.h ****     LV_PALETTE_GREEN,
 269:..\..\..\arduinoLCD\test\Pain Drain\libraries\lvgl\src\misc/lv_color.h ****     LV_PALETTE_LIGHT_GREEN,
 270:..\..\..\arduinoLCD\test\Pain Drain\libraries\lvgl\src\misc/lv_color.h ****     LV_PALETTE_LIME,
 271:..\..\..\arduinoLCD\test\Pain Drain\libraries\lvgl\src\misc/lv_color.h ****     LV_PALETTE_YELLOW,
 272:..\..\..\arduinoLCD\test\Pain Drain\libraries\lvgl\src\misc/lv_color.h ****     LV_PALETTE_AMBER,
 273:..\..\..\arduinoLCD\test\Pain Drain\libraries\lvgl\src\misc/lv_color.h ****     LV_PALETTE_ORANGE,
 274:..\..\..\arduinoLCD\test\Pain Drain\libraries\lvgl\src\misc/lv_color.h ****     LV_PALETTE_DEEP_ORANGE,
 275:..\..\..\arduinoLCD\test\Pain Drain\libraries\lvgl\src\misc/lv_color.h ****     LV_PALETTE_BROWN,
 276:..\..\..\arduinoLCD\test\Pain Drain\libraries\lvgl\src\misc/lv_color.h ****     LV_PALETTE_BLUE_GREY,
 277:..\..\..\arduinoLCD\test\Pain Drain\libraries\lvgl\src\misc/lv_color.h ****     LV_PALETTE_GREY,
 278:..\..\..\arduinoLCD\test\Pain Drain\libraries\lvgl\src\misc/lv_color.h ****     _LV_PALETTE_LAST,
ARM GAS  C:\Users\haske\AppData\Local\Temp\ccdHxW38.s 			page 28


 279:..\..\..\arduinoLCD\test\Pain Drain\libraries\lvgl\src\misc/lv_color.h ****     LV_PALETTE_NONE = 0xff,
 280:..\..\..\arduinoLCD\test\Pain Drain\libraries\lvgl\src\misc/lv_color.h **** } lv_palette_t;
 281:..\..\..\arduinoLCD\test\Pain Drain\libraries\lvgl\src\misc/lv_color.h **** 
 282:..\..\..\arduinoLCD\test\Pain Drain\libraries\lvgl\src\misc/lv_color.h **** /**********************
 283:..\..\..\arduinoLCD\test\Pain Drain\libraries\lvgl\src\misc/lv_color.h ****  * GLOBAL PROTOTYPES
 284:..\..\..\arduinoLCD\test\Pain Drain\libraries\lvgl\src\misc/lv_color.h ****  **********************/
 285:..\..\..\arduinoLCD\test\Pain Drain\libraries\lvgl\src\misc/lv_color.h **** 
 286:..\..\..\arduinoLCD\test\Pain Drain\libraries\lvgl\src\misc/lv_color.h **** /*In color conversations:
 287:..\..\..\arduinoLCD\test\Pain Drain\libraries\lvgl\src\misc/lv_color.h ****  * - When converting to bigger color type the LSB weight of 1 LSB is calculated
 288:..\..\..\arduinoLCD\test\Pain Drain\libraries\lvgl\src\misc/lv_color.h ****  *   E.g. 16 bit Red has 5 bits
 289:..\..\..\arduinoLCD\test\Pain Drain\libraries\lvgl\src\misc/lv_color.h ****  *         8 bit Red has 3 bits
 290:..\..\..\arduinoLCD\test\Pain Drain\libraries\lvgl\src\misc/lv_color.h ****  *        ----------------------
 291:..\..\..\arduinoLCD\test\Pain Drain\libraries\lvgl\src\misc/lv_color.h ****  *        8 bit red LSB = (2^5 - 1) / (2^3 - 1) = 31 / 7 = 4
 292:..\..\..\arduinoLCD\test\Pain Drain\libraries\lvgl\src\misc/lv_color.h ****  *
 293:..\..\..\arduinoLCD\test\Pain Drain\libraries\lvgl\src\misc/lv_color.h ****  * - When calculating to smaller color type simply shift out the LSBs
 294:..\..\..\arduinoLCD\test\Pain Drain\libraries\lvgl\src\misc/lv_color.h ****  *   E.g.  8 bit Red has 3 bits
 295:..\..\..\arduinoLCD\test\Pain Drain\libraries\lvgl\src\misc/lv_color.h ****  *        16 bit Red has 5 bits
 296:..\..\..\arduinoLCD\test\Pain Drain\libraries\lvgl\src\misc/lv_color.h ****  *        ----------------------
 297:..\..\..\arduinoLCD\test\Pain Drain\libraries\lvgl\src\misc/lv_color.h ****  *         Shift right with 5 - 3 = 2
 298:..\..\..\arduinoLCD\test\Pain Drain\libraries\lvgl\src\misc/lv_color.h ****  */
 299:..\..\..\arduinoLCD\test\Pain Drain\libraries\lvgl\src\misc/lv_color.h **** static inline uint8_t lv_color_to1(lv_color_t color)
 300:..\..\..\arduinoLCD\test\Pain Drain\libraries\lvgl\src\misc/lv_color.h **** {
 301:..\..\..\arduinoLCD\test\Pain Drain\libraries\lvgl\src\misc/lv_color.h **** #if LV_COLOR_DEPTH == 1
 302:..\..\..\arduinoLCD\test\Pain Drain\libraries\lvgl\src\misc/lv_color.h ****     return color.full;
 303:..\..\..\arduinoLCD\test\Pain Drain\libraries\lvgl\src\misc/lv_color.h **** #elif LV_COLOR_DEPTH == 8
 304:..\..\..\arduinoLCD\test\Pain Drain\libraries\lvgl\src\misc/lv_color.h ****     if((LV_COLOR_GET_R(color) & 0x4) || (LV_COLOR_GET_G(color) & 0x4) || (LV_COLOR_GET_B(color) & 0
 305:..\..\..\arduinoLCD\test\Pain Drain\libraries\lvgl\src\misc/lv_color.h ****         return 1;
 306:..\..\..\arduinoLCD\test\Pain Drain\libraries\lvgl\src\misc/lv_color.h ****     }
 307:..\..\..\arduinoLCD\test\Pain Drain\libraries\lvgl\src\misc/lv_color.h ****     else {
 308:..\..\..\arduinoLCD\test\Pain Drain\libraries\lvgl\src\misc/lv_color.h ****         return 0;
 309:..\..\..\arduinoLCD\test\Pain Drain\libraries\lvgl\src\misc/lv_color.h ****     }
 310:..\..\..\arduinoLCD\test\Pain Drain\libraries\lvgl\src\misc/lv_color.h **** #elif LV_COLOR_DEPTH == 16
 311:..\..\..\arduinoLCD\test\Pain Drain\libraries\lvgl\src\misc/lv_color.h ****     if((LV_COLOR_GET_R(color) & 0x10) || (LV_COLOR_GET_G(color) & 0x20) || (LV_COLOR_GET_B(color) &
 312:..\..\..\arduinoLCD\test\Pain Drain\libraries\lvgl\src\misc/lv_color.h ****         return 1;
 313:..\..\..\arduinoLCD\test\Pain Drain\libraries\lvgl\src\misc/lv_color.h ****     }
 314:..\..\..\arduinoLCD\test\Pain Drain\libraries\lvgl\src\misc/lv_color.h ****     else {
 315:..\..\..\arduinoLCD\test\Pain Drain\libraries\lvgl\src\misc/lv_color.h ****         return 0;
 316:..\..\..\arduinoLCD\test\Pain Drain\libraries\lvgl\src\misc/lv_color.h ****     }
 317:..\..\..\arduinoLCD\test\Pain Drain\libraries\lvgl\src\misc/lv_color.h **** #elif LV_COLOR_DEPTH == 32
 318:..\..\..\arduinoLCD\test\Pain Drain\libraries\lvgl\src\misc/lv_color.h ****     if((LV_COLOR_GET_R(color) & 0x80) || (LV_COLOR_GET_G(color) & 0x80) || (LV_COLOR_GET_B(color) &
 319:..\..\..\arduinoLCD\test\Pain Drain\libraries\lvgl\src\misc/lv_color.h ****         return 1;
 320:..\..\..\arduinoLCD\test\Pain Drain\libraries\lvgl\src\misc/lv_color.h ****     }
 321:..\..\..\arduinoLCD\test\Pain Drain\libraries\lvgl\src\misc/lv_color.h ****     else {
 322:..\..\..\arduinoLCD\test\Pain Drain\libraries\lvgl\src\misc/lv_color.h ****         return 0;
 323:..\..\..\arduinoLCD\test\Pain Drain\libraries\lvgl\src\misc/lv_color.h ****     }
 324:..\..\..\arduinoLCD\test\Pain Drain\libraries\lvgl\src\misc/lv_color.h **** #endif
 325:..\..\..\arduinoLCD\test\Pain Drain\libraries\lvgl\src\misc/lv_color.h **** }
 326:..\..\..\arduinoLCD\test\Pain Drain\libraries\lvgl\src\misc/lv_color.h **** 
 327:..\..\..\arduinoLCD\test\Pain Drain\libraries\lvgl\src\misc/lv_color.h **** static inline uint8_t lv_color_to8(lv_color_t color)
 328:..\..\..\arduinoLCD\test\Pain Drain\libraries\lvgl\src\misc/lv_color.h **** {
 329:..\..\..\arduinoLCD\test\Pain Drain\libraries\lvgl\src\misc/lv_color.h **** #if LV_COLOR_DEPTH == 1
 330:..\..\..\arduinoLCD\test\Pain Drain\libraries\lvgl\src\misc/lv_color.h ****     if(color.full == 0)
 331:..\..\..\arduinoLCD\test\Pain Drain\libraries\lvgl\src\misc/lv_color.h ****         return 0;
 332:..\..\..\arduinoLCD\test\Pain Drain\libraries\lvgl\src\misc/lv_color.h ****     else
 333:..\..\..\arduinoLCD\test\Pain Drain\libraries\lvgl\src\misc/lv_color.h ****         return 0xFF;
 334:..\..\..\arduinoLCD\test\Pain Drain\libraries\lvgl\src\misc/lv_color.h **** #elif LV_COLOR_DEPTH == 8
 335:..\..\..\arduinoLCD\test\Pain Drain\libraries\lvgl\src\misc/lv_color.h ****     return color.full;
ARM GAS  C:\Users\haske\AppData\Local\Temp\ccdHxW38.s 			page 29


 336:..\..\..\arduinoLCD\test\Pain Drain\libraries\lvgl\src\misc/lv_color.h **** #elif LV_COLOR_DEPTH == 16
 337:..\..\..\arduinoLCD\test\Pain Drain\libraries\lvgl\src\misc/lv_color.h ****     lv_color8_t ret;
 338:..\..\..\arduinoLCD\test\Pain Drain\libraries\lvgl\src\misc/lv_color.h ****     LV_COLOR_SET_R8(ret, LV_COLOR_GET_R(color) >> 2); /*5 - 3  = 2*/
 339:..\..\..\arduinoLCD\test\Pain Drain\libraries\lvgl\src\misc/lv_color.h ****     LV_COLOR_SET_G8(ret, LV_COLOR_GET_G(color) >> 3); /*6 - 3  = 3*/
 340:..\..\..\arduinoLCD\test\Pain Drain\libraries\lvgl\src\misc/lv_color.h ****     LV_COLOR_SET_B8(ret, LV_COLOR_GET_B(color) >> 3); /*5 - 2  = 3*/
 341:..\..\..\arduinoLCD\test\Pain Drain\libraries\lvgl\src\misc/lv_color.h ****     return ret.full;
 342:..\..\..\arduinoLCD\test\Pain Drain\libraries\lvgl\src\misc/lv_color.h **** #elif LV_COLOR_DEPTH == 32
 343:..\..\..\arduinoLCD\test\Pain Drain\libraries\lvgl\src\misc/lv_color.h ****     lv_color8_t ret;
 344:..\..\..\arduinoLCD\test\Pain Drain\libraries\lvgl\src\misc/lv_color.h ****     LV_COLOR_SET_R8(ret, LV_COLOR_GET_R(color) >> 5); /*8 - 3  = 5*/
 345:..\..\..\arduinoLCD\test\Pain Drain\libraries\lvgl\src\misc/lv_color.h ****     LV_COLOR_SET_G8(ret, LV_COLOR_GET_G(color) >> 5); /*8 - 3  = 5*/
 346:..\..\..\arduinoLCD\test\Pain Drain\libraries\lvgl\src\misc/lv_color.h ****     LV_COLOR_SET_B8(ret, LV_COLOR_GET_B(color) >> 6); /*8 - 2  = 6*/
 347:..\..\..\arduinoLCD\test\Pain Drain\libraries\lvgl\src\misc/lv_color.h ****     return ret.full;
 348:..\..\..\arduinoLCD\test\Pain Drain\libraries\lvgl\src\misc/lv_color.h **** #endif
 349:..\..\..\arduinoLCD\test\Pain Drain\libraries\lvgl\src\misc/lv_color.h **** }
 350:..\..\..\arduinoLCD\test\Pain Drain\libraries\lvgl\src\misc/lv_color.h **** 
 351:..\..\..\arduinoLCD\test\Pain Drain\libraries\lvgl\src\misc/lv_color.h **** static inline uint16_t lv_color_to16(lv_color_t color)
 352:..\..\..\arduinoLCD\test\Pain Drain\libraries\lvgl\src\misc/lv_color.h **** {
 353:..\..\..\arduinoLCD\test\Pain Drain\libraries\lvgl\src\misc/lv_color.h **** #if LV_COLOR_DEPTH == 1
 354:..\..\..\arduinoLCD\test\Pain Drain\libraries\lvgl\src\misc/lv_color.h ****     if(color.full == 0)
 355:..\..\..\arduinoLCD\test\Pain Drain\libraries\lvgl\src\misc/lv_color.h ****         return 0;
 356:..\..\..\arduinoLCD\test\Pain Drain\libraries\lvgl\src\misc/lv_color.h ****     else
 357:..\..\..\arduinoLCD\test\Pain Drain\libraries\lvgl\src\misc/lv_color.h ****         return 0xFFFF;
 358:..\..\..\arduinoLCD\test\Pain Drain\libraries\lvgl\src\misc/lv_color.h **** #elif LV_COLOR_DEPTH == 8
 359:..\..\..\arduinoLCD\test\Pain Drain\libraries\lvgl\src\misc/lv_color.h ****     lv_color16_t ret;
 360:..\..\..\arduinoLCD\test\Pain Drain\libraries\lvgl\src\misc/lv_color.h ****     LV_COLOR_SET_R16(ret, LV_COLOR_GET_R(color) * 4);  /*(2^5 - 1)/(2^3 - 1) = 31/7 = 4*/
 361:..\..\..\arduinoLCD\test\Pain Drain\libraries\lvgl\src\misc/lv_color.h ****     LV_COLOR_SET_G16(ret, LV_COLOR_GET_G(color) * 9);  /*(2^6 - 1)/(2^3 - 1) = 63/7 = 9*/
 362:..\..\..\arduinoLCD\test\Pain Drain\libraries\lvgl\src\misc/lv_color.h ****     LV_COLOR_SET_B16(ret, LV_COLOR_GET_B(color) * 10); /*(2^5 - 1)/(2^2 - 1) = 31/3 = 10*/
 363:..\..\..\arduinoLCD\test\Pain Drain\libraries\lvgl\src\misc/lv_color.h ****     return ret.full;
 364:..\..\..\arduinoLCD\test\Pain Drain\libraries\lvgl\src\misc/lv_color.h **** #elif LV_COLOR_DEPTH == 16
 365:..\..\..\arduinoLCD\test\Pain Drain\libraries\lvgl\src\misc/lv_color.h ****     return color.full;
 366:..\..\..\arduinoLCD\test\Pain Drain\libraries\lvgl\src\misc/lv_color.h **** #elif LV_COLOR_DEPTH == 32
 367:..\..\..\arduinoLCD\test\Pain Drain\libraries\lvgl\src\misc/lv_color.h ****     lv_color16_t ret;
 368:..\..\..\arduinoLCD\test\Pain Drain\libraries\lvgl\src\misc/lv_color.h ****     LV_COLOR_SET_R16(ret, LV_COLOR_GET_R(color) >> 3); /*8 - 5  = 3*/
 369:..\..\..\arduinoLCD\test\Pain Drain\libraries\lvgl\src\misc/lv_color.h ****     LV_COLOR_SET_G16(ret, LV_COLOR_GET_G(color) >> 2); /*8 - 6  = 2*/
 370:..\..\..\arduinoLCD\test\Pain Drain\libraries\lvgl\src\misc/lv_color.h ****     LV_COLOR_SET_B16(ret, LV_COLOR_GET_B(color) >> 3); /*8 - 5  = 3*/
 371:..\..\..\arduinoLCD\test\Pain Drain\libraries\lvgl\src\misc/lv_color.h ****     return ret.full;
 372:..\..\..\arduinoLCD\test\Pain Drain\libraries\lvgl\src\misc/lv_color.h **** #endif
 373:..\..\..\arduinoLCD\test\Pain Drain\libraries\lvgl\src\misc/lv_color.h **** }
 374:..\..\..\arduinoLCD\test\Pain Drain\libraries\lvgl\src\misc/lv_color.h **** 
 375:..\..\..\arduinoLCD\test\Pain Drain\libraries\lvgl\src\misc/lv_color.h **** static inline uint32_t lv_color_to32(lv_color_t color)
 376:..\..\..\arduinoLCD\test\Pain Drain\libraries\lvgl\src\misc/lv_color.h **** {
 377:..\..\..\arduinoLCD\test\Pain Drain\libraries\lvgl\src\misc/lv_color.h **** #if LV_COLOR_DEPTH == 1
 378:..\..\..\arduinoLCD\test\Pain Drain\libraries\lvgl\src\misc/lv_color.h ****     if(color.full == 0)
 379:..\..\..\arduinoLCD\test\Pain Drain\libraries\lvgl\src\misc/lv_color.h ****         return 0xFF000000;
 380:..\..\..\arduinoLCD\test\Pain Drain\libraries\lvgl\src\misc/lv_color.h ****     else
 381:..\..\..\arduinoLCD\test\Pain Drain\libraries\lvgl\src\misc/lv_color.h ****         return 0xFFFFFFFF;
 382:..\..\..\arduinoLCD\test\Pain Drain\libraries\lvgl\src\misc/lv_color.h **** #elif LV_COLOR_DEPTH == 8
 383:..\..\..\arduinoLCD\test\Pain Drain\libraries\lvgl\src\misc/lv_color.h ****     lv_color32_t ret;
 384:..\..\..\arduinoLCD\test\Pain Drain\libraries\lvgl\src\misc/lv_color.h ****     LV_COLOR_SET_R32(ret, LV_COLOR_GET_R(color) * 36); /*(2^8 - 1)/(2^3 - 1) = 255/7 = 36*/
 385:..\..\..\arduinoLCD\test\Pain Drain\libraries\lvgl\src\misc/lv_color.h ****     LV_COLOR_SET_G32(ret, LV_COLOR_GET_G(color) * 36); /*(2^8 - 1)/(2^3 - 1) = 255/7 = 36*/
 386:..\..\..\arduinoLCD\test\Pain Drain\libraries\lvgl\src\misc/lv_color.h ****     LV_COLOR_SET_B32(ret, LV_COLOR_GET_B(color) * 85); /*(2^8 - 1)/(2^2 - 1) = 255/3 = 85*/
 387:..\..\..\arduinoLCD\test\Pain Drain\libraries\lvgl\src\misc/lv_color.h ****     LV_COLOR_SET_A32(ret, 0xFF);
 388:..\..\..\arduinoLCD\test\Pain Drain\libraries\lvgl\src\misc/lv_color.h ****     return ret.full;
 389:..\..\..\arduinoLCD\test\Pain Drain\libraries\lvgl\src\misc/lv_color.h **** #elif LV_COLOR_DEPTH == 16
 390:..\..\..\arduinoLCD\test\Pain Drain\libraries\lvgl\src\misc/lv_color.h ****     /**
 391:..\..\..\arduinoLCD\test\Pain Drain\libraries\lvgl\src\misc/lv_color.h ****      * The floating point math for conversion is:
 392:..\..\..\arduinoLCD\test\Pain Drain\libraries\lvgl\src\misc/lv_color.h ****      *  valueto = valuefrom * ( (2^bitsto - 1) / (float)(2^bitsfrom - 1) )
ARM GAS  C:\Users\haske\AppData\Local\Temp\ccdHxW38.s 			page 30


 393:..\..\..\arduinoLCD\test\Pain Drain\libraries\lvgl\src\misc/lv_color.h ****      * The faster integer math for conversion is:
 394:..\..\..\arduinoLCD\test\Pain Drain\libraries\lvgl\src\misc/lv_color.h ****      *  valueto = ( valuefrom * multiplier + adder ) >> divisor
 395:..\..\..\arduinoLCD\test\Pain Drain\libraries\lvgl\src\misc/lv_color.h ****      *   multiplier = FLOOR( ( (2^bitsto - 1) << divisor ) / (float)(2^bitsfrom - 1) )
 396:..\..\..\arduinoLCD\test\Pain Drain\libraries\lvgl\src\misc/lv_color.h ****      *
 397:..\..\..\arduinoLCD\test\Pain Drain\libraries\lvgl\src\misc/lv_color.h ****      * Find the first divisor where ( adder >> divisor ) <= 0
 398:..\..\..\arduinoLCD\test\Pain Drain\libraries\lvgl\src\misc/lv_color.h ****      *
 399:..\..\..\arduinoLCD\test\Pain Drain\libraries\lvgl\src\misc/lv_color.h ****      * 5-bit to 8-bit: ( 31 * multiplier + adder ) >> divisor = 255
 400:..\..\..\arduinoLCD\test\Pain Drain\libraries\lvgl\src\misc/lv_color.h ****      * divisor  multiplier  adder  min (0)  max (31)
 401:..\..\..\arduinoLCD\test\Pain Drain\libraries\lvgl\src\misc/lv_color.h ****      *       0           8      7        7       255
 402:..\..\..\arduinoLCD\test\Pain Drain\libraries\lvgl\src\misc/lv_color.h ****      *       1          16     14        7       255
 403:..\..\..\arduinoLCD\test\Pain Drain\libraries\lvgl\src\misc/lv_color.h ****      *       2          32     28        7       255
 404:..\..\..\arduinoLCD\test\Pain Drain\libraries\lvgl\src\misc/lv_color.h ****      *       3          65     25        3       255
 405:..\..\..\arduinoLCD\test\Pain Drain\libraries\lvgl\src\misc/lv_color.h ****      *       4         131     19        1       255
 406:..\..\..\arduinoLCD\test\Pain Drain\libraries\lvgl\src\misc/lv_color.h ****      *       5         263      7        0       255
 407:..\..\..\arduinoLCD\test\Pain Drain\libraries\lvgl\src\misc/lv_color.h ****      *
 408:..\..\..\arduinoLCD\test\Pain Drain\libraries\lvgl\src\misc/lv_color.h ****      * 6-bit to 8-bit: 255 = ( 63 * multiplier + adder ) >> divisor
 409:..\..\..\arduinoLCD\test\Pain Drain\libraries\lvgl\src\misc/lv_color.h ****      * divisor  multiplier  adder  min (0)  max (63)
 410:..\..\..\arduinoLCD\test\Pain Drain\libraries\lvgl\src\misc/lv_color.h ****      *       0           4      3        3       255
 411:..\..\..\arduinoLCD\test\Pain Drain\libraries\lvgl\src\misc/lv_color.h ****      *       1           8      6        3       255
 412:..\..\..\arduinoLCD\test\Pain Drain\libraries\lvgl\src\misc/lv_color.h ****      *       2          16     12        3       255
 413:..\..\..\arduinoLCD\test\Pain Drain\libraries\lvgl\src\misc/lv_color.h ****      *       3          32     24        3       255
 414:..\..\..\arduinoLCD\test\Pain Drain\libraries\lvgl\src\misc/lv_color.h ****      *       4          64     48        3       255
 415:..\..\..\arduinoLCD\test\Pain Drain\libraries\lvgl\src\misc/lv_color.h ****      *       5         129     33        1       255
 416:..\..\..\arduinoLCD\test\Pain Drain\libraries\lvgl\src\misc/lv_color.h ****      *       6         259      3        0       255
 417:..\..\..\arduinoLCD\test\Pain Drain\libraries\lvgl\src\misc/lv_color.h ****      */
 418:..\..\..\arduinoLCD\test\Pain Drain\libraries\lvgl\src\misc/lv_color.h **** 
 419:..\..\..\arduinoLCD\test\Pain Drain\libraries\lvgl\src\misc/lv_color.h ****     lv_color32_t ret;
 420:..\..\..\arduinoLCD\test\Pain Drain\libraries\lvgl\src\misc/lv_color.h ****     LV_COLOR_SET_R32(ret, (LV_COLOR_GET_R(color) * 263 + 7) >> 5);
 421:..\..\..\arduinoLCD\test\Pain Drain\libraries\lvgl\src\misc/lv_color.h ****     LV_COLOR_SET_G32(ret, (LV_COLOR_GET_G(color) * 259 + 3) >> 6);
 422:..\..\..\arduinoLCD\test\Pain Drain\libraries\lvgl\src\misc/lv_color.h ****     LV_COLOR_SET_B32(ret, (LV_COLOR_GET_B(color) * 263 + 7) >> 5);
 423:..\..\..\arduinoLCD\test\Pain Drain\libraries\lvgl\src\misc/lv_color.h ****     LV_COLOR_SET_A32(ret, 0xFF);
 424:..\..\..\arduinoLCD\test\Pain Drain\libraries\lvgl\src\misc/lv_color.h ****     return ret.full;
 425:..\..\..\arduinoLCD\test\Pain Drain\libraries\lvgl\src\misc/lv_color.h **** #elif LV_COLOR_DEPTH == 32
 426:..\..\..\arduinoLCD\test\Pain Drain\libraries\lvgl\src\misc/lv_color.h ****     return color.full;
 427:..\..\..\arduinoLCD\test\Pain Drain\libraries\lvgl\src\misc/lv_color.h **** #endif
 428:..\..\..\arduinoLCD\test\Pain Drain\libraries\lvgl\src\misc/lv_color.h **** }
 429:..\..\..\arduinoLCD\test\Pain Drain\libraries\lvgl\src\misc/lv_color.h **** 
 430:..\..\..\arduinoLCD\test\Pain Drain\libraries\lvgl\src\misc/lv_color.h **** //! @cond Doxygen_Suppress
 431:..\..\..\arduinoLCD\test\Pain Drain\libraries\lvgl\src\misc/lv_color.h **** 
 432:..\..\..\arduinoLCD\test\Pain Drain\libraries\lvgl\src\misc/lv_color.h **** /**
 433:..\..\..\arduinoLCD\test\Pain Drain\libraries\lvgl\src\misc/lv_color.h ****  * Mix two colors with a given ratio.
 434:..\..\..\arduinoLCD\test\Pain Drain\libraries\lvgl\src\misc/lv_color.h ****  * @param c1 the first color to mix (usually the foreground)
 435:..\..\..\arduinoLCD\test\Pain Drain\libraries\lvgl\src\misc/lv_color.h ****  * @param c2 the second color to mix (usually the background)
 436:..\..\..\arduinoLCD\test\Pain Drain\libraries\lvgl\src\misc/lv_color.h ****  * @param mix The ratio of the colors. 0: full `c2`, 255: full `c1`, 127: half `c1` and half`c2`
 437:..\..\..\arduinoLCD\test\Pain Drain\libraries\lvgl\src\misc/lv_color.h ****  * @return the mixed color
 438:..\..\..\arduinoLCD\test\Pain Drain\libraries\lvgl\src\misc/lv_color.h ****  */
 439:..\..\..\arduinoLCD\test\Pain Drain\libraries\lvgl\src\misc/lv_color.h **** LV_ATTRIBUTE_FAST_MEM static inline lv_color_t lv_color_mix(lv_color_t c1, lv_color_t c2, uint8_t m
 440:..\..\..\arduinoLCD\test\Pain Drain\libraries\lvgl\src\misc/lv_color.h **** {
 441:..\..\..\arduinoLCD\test\Pain Drain\libraries\lvgl\src\misc/lv_color.h ****     lv_color_t ret;
 442:..\..\..\arduinoLCD\test\Pain Drain\libraries\lvgl\src\misc/lv_color.h **** 
 443:..\..\..\arduinoLCD\test\Pain Drain\libraries\lvgl\src\misc/lv_color.h **** #if LV_COLOR_DEPTH == 16 && LV_COLOR_16_SWAP == 0 && LV_COLOR_MIX_ROUND_OFS == 0
 444:..\..\..\arduinoLCD\test\Pain Drain\libraries\lvgl\src\misc/lv_color.h ****     /*Source: https://stackoverflow.com/a/50012418/1999969*/
 445:..\..\..\arduinoLCD\test\Pain Drain\libraries\lvgl\src\misc/lv_color.h ****     mix = (uint32_t)((uint32_t)mix + 4) >> 3;
 446:..\..\..\arduinoLCD\test\Pain Drain\libraries\lvgl\src\misc/lv_color.h ****     uint32_t bg = (uint32_t)((uint32_t)c2.full | ((uint32_t)c2.full << 16)) &
 447:..\..\..\arduinoLCD\test\Pain Drain\libraries\lvgl\src\misc/lv_color.h ****                   0x7E0F81F; /*0b00000111111000001111100000011111*/
 448:..\..\..\arduinoLCD\test\Pain Drain\libraries\lvgl\src\misc/lv_color.h ****     uint32_t fg = (uint32_t)((uint32_t)c1.full | ((uint32_t)c1.full << 16)) & 0x7E0F81F;
 449:..\..\..\arduinoLCD\test\Pain Drain\libraries\lvgl\src\misc/lv_color.h ****     uint32_t result = ((((fg - bg) * mix) >> 5) + bg) & 0x7E0F81F;
ARM GAS  C:\Users\haske\AppData\Local\Temp\ccdHxW38.s 			page 31


 450:..\..\..\arduinoLCD\test\Pain Drain\libraries\lvgl\src\misc/lv_color.h ****     ret.full = (uint16_t)((result >> 16) | result);
 451:..\..\..\arduinoLCD\test\Pain Drain\libraries\lvgl\src\misc/lv_color.h **** #elif LV_COLOR_DEPTH != 1
 452:..\..\..\arduinoLCD\test\Pain Drain\libraries\lvgl\src\misc/lv_color.h ****     /*LV_COLOR_DEPTH == 8, 16 or 32*/
 453:..\..\..\arduinoLCD\test\Pain Drain\libraries\lvgl\src\misc/lv_color.h ****     LV_COLOR_SET_R(ret, LV_UDIV255((uint16_t)LV_COLOR_GET_R(c1) * mix + LV_COLOR_GET_R(c2) *
 454:..\..\..\arduinoLCD\test\Pain Drain\libraries\lvgl\src\misc/lv_color.h ****                                    (255 - mix) + LV_COLOR_MIX_ROUND_OFS));
 455:..\..\..\arduinoLCD\test\Pain Drain\libraries\lvgl\src\misc/lv_color.h ****     LV_COLOR_SET_G(ret, LV_UDIV255((uint16_t)LV_COLOR_GET_G(c1) * mix + LV_COLOR_GET_G(c2) *
 456:..\..\..\arduinoLCD\test\Pain Drain\libraries\lvgl\src\misc/lv_color.h ****                                    (255 - mix) + LV_COLOR_MIX_ROUND_OFS));
 457:..\..\..\arduinoLCD\test\Pain Drain\libraries\lvgl\src\misc/lv_color.h ****     LV_COLOR_SET_B(ret, LV_UDIV255((uint16_t)LV_COLOR_GET_B(c1) * mix + LV_COLOR_GET_B(c2) *
 458:..\..\..\arduinoLCD\test\Pain Drain\libraries\lvgl\src\misc/lv_color.h ****                                    (255 - mix) + LV_COLOR_MIX_ROUND_OFS));
 459:..\..\..\arduinoLCD\test\Pain Drain\libraries\lvgl\src\misc/lv_color.h ****     LV_COLOR_SET_A(ret, 0xFF);
 460:..\..\..\arduinoLCD\test\Pain Drain\libraries\lvgl\src\misc/lv_color.h **** #else
 461:..\..\..\arduinoLCD\test\Pain Drain\libraries\lvgl\src\misc/lv_color.h ****     /*LV_COLOR_DEPTH == 1*/
 462:..\..\..\arduinoLCD\test\Pain Drain\libraries\lvgl\src\misc/lv_color.h ****     ret.full = mix > LV_OPA_50 ? c1.full : c2.full;
 463:..\..\..\arduinoLCD\test\Pain Drain\libraries\lvgl\src\misc/lv_color.h **** #endif
 464:..\..\..\arduinoLCD\test\Pain Drain\libraries\lvgl\src\misc/lv_color.h **** 
 465:..\..\..\arduinoLCD\test\Pain Drain\libraries\lvgl\src\misc/lv_color.h ****     return ret;
 466:..\..\..\arduinoLCD\test\Pain Drain\libraries\lvgl\src\misc/lv_color.h **** }
 467:..\..\..\arduinoLCD\test\Pain Drain\libraries\lvgl\src\misc/lv_color.h **** 
 468:..\..\..\arduinoLCD\test\Pain Drain\libraries\lvgl\src\misc/lv_color.h **** LV_ATTRIBUTE_FAST_MEM static inline void lv_color_premult(lv_color_t c, uint8_t mix, uint16_t * out
 469:..\..\..\arduinoLCD\test\Pain Drain\libraries\lvgl\src\misc/lv_color.h **** {
 470:..\..\..\arduinoLCD\test\Pain Drain\libraries\lvgl\src\misc/lv_color.h **** #if LV_COLOR_DEPTH != 1
 471:..\..\..\arduinoLCD\test\Pain Drain\libraries\lvgl\src\misc/lv_color.h ****     out[0] = (uint16_t)LV_COLOR_GET_R(c) * mix;
 472:..\..\..\arduinoLCD\test\Pain Drain\libraries\lvgl\src\misc/lv_color.h ****     out[1] = (uint16_t)LV_COLOR_GET_G(c) * mix;
 473:..\..\..\arduinoLCD\test\Pain Drain\libraries\lvgl\src\misc/lv_color.h ****     out[2] = (uint16_t)LV_COLOR_GET_B(c) * mix;
 474:..\..\..\arduinoLCD\test\Pain Drain\libraries\lvgl\src\misc/lv_color.h **** #else
 475:..\..\..\arduinoLCD\test\Pain Drain\libraries\lvgl\src\misc/lv_color.h ****     (void) mix;
 476:..\..\..\arduinoLCD\test\Pain Drain\libraries\lvgl\src\misc/lv_color.h ****     /*Pre-multiplication can't be used with 1 bpp*/
 477:..\..\..\arduinoLCD\test\Pain Drain\libraries\lvgl\src\misc/lv_color.h ****     out[0] = LV_COLOR_GET_R(c);
 478:..\..\..\arduinoLCD\test\Pain Drain\libraries\lvgl\src\misc/lv_color.h ****     out[1] = LV_COLOR_GET_G(c);
 479:..\..\..\arduinoLCD\test\Pain Drain\libraries\lvgl\src\misc/lv_color.h ****     out[2] = LV_COLOR_GET_B(c);
 480:..\..\..\arduinoLCD\test\Pain Drain\libraries\lvgl\src\misc/lv_color.h **** #endif
 481:..\..\..\arduinoLCD\test\Pain Drain\libraries\lvgl\src\misc/lv_color.h **** 
 482:..\..\..\arduinoLCD\test\Pain Drain\libraries\lvgl\src\misc/lv_color.h **** }
 483:..\..\..\arduinoLCD\test\Pain Drain\libraries\lvgl\src\misc/lv_color.h **** 
 484:..\..\..\arduinoLCD\test\Pain Drain\libraries\lvgl\src\misc/lv_color.h **** /**
 485:..\..\..\arduinoLCD\test\Pain Drain\libraries\lvgl\src\misc/lv_color.h ****  * Mix two colors with a given ratio. It runs faster then `lv_color_mix` but requires some pre comp
 486:..\..\..\arduinoLCD\test\Pain Drain\libraries\lvgl\src\misc/lv_color.h ****  * @param premult_c1 The first color. Should be preprocessed with `lv_color_premult(c1)`
 487:..\..\..\arduinoLCD\test\Pain Drain\libraries\lvgl\src\misc/lv_color.h ****  * @param c2 The second color. As it is no pre computation required on it
 488:..\..\..\arduinoLCD\test\Pain Drain\libraries\lvgl\src\misc/lv_color.h ****  * @param mix The ratio of the colors. 0: full `c1`, 255: full `c2`, 127: half `c1` and half `c2`.
 489:..\..\..\arduinoLCD\test\Pain Drain\libraries\lvgl\src\misc/lv_color.h ****  *            Should be modified like mix = `255 - mix`
 490:..\..\..\arduinoLCD\test\Pain Drain\libraries\lvgl\src\misc/lv_color.h ****  * @return the mixed color
 491:..\..\..\arduinoLCD\test\Pain Drain\libraries\lvgl\src\misc/lv_color.h ****  * @note 255 won't give clearly `c1`.
 492:..\..\..\arduinoLCD\test\Pain Drain\libraries\lvgl\src\misc/lv_color.h ****  */
 493:..\..\..\arduinoLCD\test\Pain Drain\libraries\lvgl\src\misc/lv_color.h **** LV_ATTRIBUTE_FAST_MEM static inline lv_color_t lv_color_mix_premult(uint16_t * premult_c1, lv_color
 494:..\..\..\arduinoLCD\test\Pain Drain\libraries\lvgl\src\misc/lv_color.h **** {
 495:..\..\..\arduinoLCD\test\Pain Drain\libraries\lvgl\src\misc/lv_color.h ****     lv_color_t ret;
 496:..\..\..\arduinoLCD\test\Pain Drain\libraries\lvgl\src\misc/lv_color.h **** #if LV_COLOR_DEPTH != 1
 497:..\..\..\arduinoLCD\test\Pain Drain\libraries\lvgl\src\misc/lv_color.h ****     /*LV_COLOR_DEPTH == 8 or 32*/
 498:..\..\..\arduinoLCD\test\Pain Drain\libraries\lvgl\src\misc/lv_color.h ****     LV_COLOR_SET_R(ret, LV_UDIV255(premult_c1[0] + LV_COLOR_GET_R(c2) * mix + LV_COLOR_MIX_ROUND_OF
 499:..\..\..\arduinoLCD\test\Pain Drain\libraries\lvgl\src\misc/lv_color.h ****     LV_COLOR_SET_G(ret, LV_UDIV255(premult_c1[1] + LV_COLOR_GET_G(c2) * mix + LV_COLOR_MIX_ROUND_OF
 500:..\..\..\arduinoLCD\test\Pain Drain\libraries\lvgl\src\misc/lv_color.h ****     LV_COLOR_SET_B(ret, LV_UDIV255(premult_c1[2] + LV_COLOR_GET_B(c2) * mix + LV_COLOR_MIX_ROUND_OF
 501:..\..\..\arduinoLCD\test\Pain Drain\libraries\lvgl\src\misc/lv_color.h ****     LV_COLOR_SET_A(ret, 0xFF);
 502:..\..\..\arduinoLCD\test\Pain Drain\libraries\lvgl\src\misc/lv_color.h **** #else
 503:..\..\..\arduinoLCD\test\Pain Drain\libraries\lvgl\src\misc/lv_color.h ****     /*LV_COLOR_DEPTH == 1*/
 504:..\..\..\arduinoLCD\test\Pain Drain\libraries\lvgl\src\misc/lv_color.h ****     /*Restore color1*/
 505:..\..\..\arduinoLCD\test\Pain Drain\libraries\lvgl\src\misc/lv_color.h ****     lv_color_t c1;
 506:..\..\..\arduinoLCD\test\Pain Drain\libraries\lvgl\src\misc/lv_color.h ****     LV_COLOR_SET_R(c1, premult_c1[0]);
ARM GAS  C:\Users\haske\AppData\Local\Temp\ccdHxW38.s 			page 32


 507:..\..\..\arduinoLCD\test\Pain Drain\libraries\lvgl\src\misc/lv_color.h ****     LV_COLOR_SET_G(c1, premult_c1[1]);
 508:..\..\..\arduinoLCD\test\Pain Drain\libraries\lvgl\src\misc/lv_color.h ****     LV_COLOR_SET_B(c1, premult_c1[2]);
 509:..\..\..\arduinoLCD\test\Pain Drain\libraries\lvgl\src\misc/lv_color.h ****     ret.full = mix > LV_OPA_50 ? c2.full : c1.full;
 510:..\..\..\arduinoLCD\test\Pain Drain\libraries\lvgl\src\misc/lv_color.h **** #endif
 511:..\..\..\arduinoLCD\test\Pain Drain\libraries\lvgl\src\misc/lv_color.h **** 
 512:..\..\..\arduinoLCD\test\Pain Drain\libraries\lvgl\src\misc/lv_color.h ****     return ret;
 513:..\..\..\arduinoLCD\test\Pain Drain\libraries\lvgl\src\misc/lv_color.h **** }
 514:..\..\..\arduinoLCD\test\Pain Drain\libraries\lvgl\src\misc/lv_color.h **** 
 515:..\..\..\arduinoLCD\test\Pain Drain\libraries\lvgl\src\misc/lv_color.h **** /**
 516:..\..\..\arduinoLCD\test\Pain Drain\libraries\lvgl\src\misc/lv_color.h ****  * Mix two colors. Both color can have alpha value.
 517:..\..\..\arduinoLCD\test\Pain Drain\libraries\lvgl\src\misc/lv_color.h ****  * @param bg_color background color
 518:..\..\..\arduinoLCD\test\Pain Drain\libraries\lvgl\src\misc/lv_color.h ****  * @param bg_opa alpha of the background color
 519:..\..\..\arduinoLCD\test\Pain Drain\libraries\lvgl\src\misc/lv_color.h ****  * @param fg_color foreground color
 520:..\..\..\arduinoLCD\test\Pain Drain\libraries\lvgl\src\misc/lv_color.h ****  * @param fg_opa alpha of the foreground color
 521:..\..\..\arduinoLCD\test\Pain Drain\libraries\lvgl\src\misc/lv_color.h ****  * @param res_color the result color
 522:..\..\..\arduinoLCD\test\Pain Drain\libraries\lvgl\src\misc/lv_color.h ****  * @param res_opa the result opacity
 523:..\..\..\arduinoLCD\test\Pain Drain\libraries\lvgl\src\misc/lv_color.h ****  */
 524:..\..\..\arduinoLCD\test\Pain Drain\libraries\lvgl\src\misc/lv_color.h **** LV_ATTRIBUTE_FAST_MEM static inline void lv_color_mix_with_alpha(lv_color_t bg_color, lv_opa_t bg_o
 525:..\..\..\arduinoLCD\test\Pain Drain\libraries\lvgl\src\misc/lv_color.h ****                                                                  lv_color_t fg_color, lv_opa_t fg_o
 526:..\..\..\arduinoLCD\test\Pain Drain\libraries\lvgl\src\misc/lv_color.h ****                                                                  lv_color_t * res_color, lv_opa_t *
 527:..\..\..\arduinoLCD\test\Pain Drain\libraries\lvgl\src\misc/lv_color.h **** {
 528:..\..\..\arduinoLCD\test\Pain Drain\libraries\lvgl\src\misc/lv_color.h ****     /*Pick the foreground if it's fully opaque or the Background is fully transparent*/
 529:..\..\..\arduinoLCD\test\Pain Drain\libraries\lvgl\src\misc/lv_color.h ****     if(fg_opa >= LV_OPA_MAX || bg_opa <= LV_OPA_MIN) {
 530:..\..\..\arduinoLCD\test\Pain Drain\libraries\lvgl\src\misc/lv_color.h ****         res_color->full = fg_color.full;
 531:..\..\..\arduinoLCD\test\Pain Drain\libraries\lvgl\src\misc/lv_color.h ****         *res_opa = fg_opa;
 532:..\..\..\arduinoLCD\test\Pain Drain\libraries\lvgl\src\misc/lv_color.h ****     }
 533:..\..\..\arduinoLCD\test\Pain Drain\libraries\lvgl\src\misc/lv_color.h ****     /*Transparent foreground: use the Background*/
 534:..\..\..\arduinoLCD\test\Pain Drain\libraries\lvgl\src\misc/lv_color.h ****     else if(fg_opa <= LV_OPA_MIN) {
 535:..\..\..\arduinoLCD\test\Pain Drain\libraries\lvgl\src\misc/lv_color.h ****         res_color->full = bg_color.full;
 536:..\..\..\arduinoLCD\test\Pain Drain\libraries\lvgl\src\misc/lv_color.h ****         *res_opa = bg_opa;
 537:..\..\..\arduinoLCD\test\Pain Drain\libraries\lvgl\src\misc/lv_color.h ****     }
 538:..\..\..\arduinoLCD\test\Pain Drain\libraries\lvgl\src\misc/lv_color.h ****     /*Opaque background: use simple mix*/
 539:..\..\..\arduinoLCD\test\Pain Drain\libraries\lvgl\src\misc/lv_color.h ****     else if(bg_opa >= LV_OPA_MAX) {
 540:..\..\..\arduinoLCD\test\Pain Drain\libraries\lvgl\src\misc/lv_color.h ****         *res_color = lv_color_mix(fg_color, bg_color, fg_opa);
 541:..\..\..\arduinoLCD\test\Pain Drain\libraries\lvgl\src\misc/lv_color.h ****         *res_opa = LV_OPA_COVER;
 542:..\..\..\arduinoLCD\test\Pain Drain\libraries\lvgl\src\misc/lv_color.h ****     }
 543:..\..\..\arduinoLCD\test\Pain Drain\libraries\lvgl\src\misc/lv_color.h ****     /*Both colors have alpha. Expensive calculation need to be applied*/
 544:..\..\..\arduinoLCD\test\Pain Drain\libraries\lvgl\src\misc/lv_color.h ****     else {
 545:..\..\..\arduinoLCD\test\Pain Drain\libraries\lvgl\src\misc/lv_color.h ****         /*Save the parameters and the result. If they will be asked again don't compute again*/
 546:..\..\..\arduinoLCD\test\Pain Drain\libraries\lvgl\src\misc/lv_color.h ****         static lv_opa_t fg_opa_save     = 0;
 547:..\..\..\arduinoLCD\test\Pain Drain\libraries\lvgl\src\misc/lv_color.h ****         static lv_opa_t bg_opa_save     = 0;
 548:..\..\..\arduinoLCD\test\Pain Drain\libraries\lvgl\src\misc/lv_color.h ****         static lv_color_t fg_color_save = _LV_COLOR_ZERO_INITIALIZER;
 549:..\..\..\arduinoLCD\test\Pain Drain\libraries\lvgl\src\misc/lv_color.h ****         static lv_color_t bg_color_save = _LV_COLOR_ZERO_INITIALIZER;
 550:..\..\..\arduinoLCD\test\Pain Drain\libraries\lvgl\src\misc/lv_color.h ****         static lv_color_t res_color_saved = _LV_COLOR_ZERO_INITIALIZER;
 551:..\..\..\arduinoLCD\test\Pain Drain\libraries\lvgl\src\misc/lv_color.h ****         static lv_opa_t res_opa_saved = 0;
 552:..\..\..\arduinoLCD\test\Pain Drain\libraries\lvgl\src\misc/lv_color.h **** 
 553:..\..\..\arduinoLCD\test\Pain Drain\libraries\lvgl\src\misc/lv_color.h ****         if(fg_opa != fg_opa_save || bg_opa != bg_opa_save || fg_color.full != fg_color_save.full ||
 554:..\..\..\arduinoLCD\test\Pain Drain\libraries\lvgl\src\misc/lv_color.h ****            bg_color.full != bg_color_save.full) {
 555:..\..\..\arduinoLCD\test\Pain Drain\libraries\lvgl\src\misc/lv_color.h ****             fg_opa_save        = fg_opa;
 556:..\..\..\arduinoLCD\test\Pain Drain\libraries\lvgl\src\misc/lv_color.h ****             bg_opa_save        = bg_opa;
 557:..\..\..\arduinoLCD\test\Pain Drain\libraries\lvgl\src\misc/lv_color.h ****             fg_color_save.full = fg_color.full;
 558:..\..\..\arduinoLCD\test\Pain Drain\libraries\lvgl\src\misc/lv_color.h ****             bg_color_save.full = bg_color.full;
 559:..\..\..\arduinoLCD\test\Pain Drain\libraries\lvgl\src\misc/lv_color.h ****             /*Info:
 560:..\..\..\arduinoLCD\test\Pain Drain\libraries\lvgl\src\misc/lv_color.h ****              * https://en.wikipedia.org/wiki/Alpha_compositing#Analytical_derivation_of_the_over_op
 561:..\..\..\arduinoLCD\test\Pain Drain\libraries\lvgl\src\misc/lv_color.h ****             res_opa_saved = 255 - ((uint16_t)((uint16_t)(255 - fg_opa) * (255 - bg_opa)) >> 8);
 562:..\..\..\arduinoLCD\test\Pain Drain\libraries\lvgl\src\misc/lv_color.h ****             LV_ASSERT(res_opa_saved != 0);
 563:..\..\..\arduinoLCD\test\Pain Drain\libraries\lvgl\src\misc/lv_color.h ****             lv_opa_t ratio = (uint16_t)((uint16_t)fg_opa * 255) / res_opa_saved;
ARM GAS  C:\Users\haske\AppData\Local\Temp\ccdHxW38.s 			page 33


 564:..\..\..\arduinoLCD\test\Pain Drain\libraries\lvgl\src\misc/lv_color.h ****             res_color_saved = lv_color_mix(fg_color, bg_color, ratio);
 565:..\..\..\arduinoLCD\test\Pain Drain\libraries\lvgl\src\misc/lv_color.h **** 
 566:..\..\..\arduinoLCD\test\Pain Drain\libraries\lvgl\src\misc/lv_color.h ****         }
 567:..\..\..\arduinoLCD\test\Pain Drain\libraries\lvgl\src\misc/lv_color.h **** 
 568:..\..\..\arduinoLCD\test\Pain Drain\libraries\lvgl\src\misc/lv_color.h ****         res_color->full = res_color_saved.full;
 569:..\..\..\arduinoLCD\test\Pain Drain\libraries\lvgl\src\misc/lv_color.h ****         *res_opa = res_opa_saved;
 570:..\..\..\arduinoLCD\test\Pain Drain\libraries\lvgl\src\misc/lv_color.h ****     }
 571:..\..\..\arduinoLCD\test\Pain Drain\libraries\lvgl\src\misc/lv_color.h **** }
 572:..\..\..\arduinoLCD\test\Pain Drain\libraries\lvgl\src\misc/lv_color.h **** 
 573:..\..\..\arduinoLCD\test\Pain Drain\libraries\lvgl\src\misc/lv_color.h **** //! @endcond
 574:..\..\..\arduinoLCD\test\Pain Drain\libraries\lvgl\src\misc/lv_color.h **** 
 575:..\..\..\arduinoLCD\test\Pain Drain\libraries\lvgl\src\misc/lv_color.h **** /**
 576:..\..\..\arduinoLCD\test\Pain Drain\libraries\lvgl\src\misc/lv_color.h ****  * Get the brightness of a color
 577:..\..\..\arduinoLCD\test\Pain Drain\libraries\lvgl\src\misc/lv_color.h ****  * @param color a color
 578:..\..\..\arduinoLCD\test\Pain Drain\libraries\lvgl\src\misc/lv_color.h ****  * @return the brightness [0..255]
 579:..\..\..\arduinoLCD\test\Pain Drain\libraries\lvgl\src\misc/lv_color.h ****  */
 580:..\..\..\arduinoLCD\test\Pain Drain\libraries\lvgl\src\misc/lv_color.h **** static inline uint8_t lv_color_brightness(lv_color_t color)
 581:..\..\..\arduinoLCD\test\Pain Drain\libraries\lvgl\src\misc/lv_color.h **** {
 582:..\..\..\arduinoLCD\test\Pain Drain\libraries\lvgl\src\misc/lv_color.h ****     lv_color32_t c32;
 583:..\..\..\arduinoLCD\test\Pain Drain\libraries\lvgl\src\misc/lv_color.h ****     c32.full        = lv_color_to32(color);
 584:..\..\..\arduinoLCD\test\Pain Drain\libraries\lvgl\src\misc/lv_color.h ****     uint16_t bright = (uint16_t)(3u * LV_COLOR_GET_R32(c32) + LV_COLOR_GET_B32(c32) + 4u * LV_COLOR
 585:..\..\..\arduinoLCD\test\Pain Drain\libraries\lvgl\src\misc/lv_color.h ****     return (uint8_t)(bright >> 3);
 586:..\..\..\arduinoLCD\test\Pain Drain\libraries\lvgl\src\misc/lv_color.h **** }
 587:..\..\..\arduinoLCD\test\Pain Drain\libraries\lvgl\src\misc/lv_color.h **** 
 588:..\..\..\arduinoLCD\test\Pain Drain\libraries\lvgl\src\misc/lv_color.h **** static inline lv_color_t lv_color_make(uint8_t r, uint8_t g, uint8_t b)
 589:..\..\..\arduinoLCD\test\Pain Drain\libraries\lvgl\src\misc/lv_color.h **** {
 590:..\..\..\arduinoLCD\test\Pain Drain\libraries\lvgl\src\misc/lv_color.h ****     return _LV_COLOR_MAKE_TYPE_HELPER LV_COLOR_MAKE(r, g, b);
 764              		.loc 2 590 0
 765 0016 FC20     		movs	r0, #252
 766 0018 C000     		lsls	r0, r0, #3
 767 001a 1F23     		movs	r3, #31
 768 001c 1843     		orrs	r0, r3
 769 001e 0A4B     		ldr	r3, .L61+4
 770 0020 1843     		orrs	r0, r3
 771              	.LVL61:
 772 0022 80B2     		uxth	r0, r0
 773 0024 0CE0     		b	.L60
 774              	.L54:
 775 0026 0020     		movs	r0, #0
 776 0028 0AE0     		b	.L60
 777              	.L56:
 778              	.LBE22:
 779              	.LBE21:
 780              	.LBE20:
 341:..\..\..\arduinoLCD\test\Pain Drain\libraries\lvgl\src\misc/lv_style.c ****             break;
 781              		.loc 1 341 0
 782 002a FF20     		movs	r0, #255
 342:..\..\..\arduinoLCD\test\Pain Drain\libraries\lvgl\src\misc/lv_style.c ****         case LV_STYLE_BG_GRAD_STOP:
 783              		.loc 1 342 0
 784 002c 08E0     		b	.L60
 785              	.L55:
 344:..\..\..\arduinoLCD\test\Pain Drain\libraries\lvgl\src\misc/lv_style.c ****             break;
 786              		.loc 1 344 0
 787 002e FF20     		movs	r0, #255
 345:..\..\..\arduinoLCD\test\Pain Drain\libraries\lvgl\src\misc/lv_style.c ****         case LV_STYLE_BORDER_SIDE:
 788              		.loc 1 345 0
 789 0030 06E0     		b	.L60
ARM GAS  C:\Users\haske\AppData\Local\Temp\ccdHxW38.s 			page 34


 790              	.L57:
 347:..\..\..\arduinoLCD\test\Pain Drain\libraries\lvgl\src\misc/lv_style.c ****             break;
 791              		.loc 1 347 0
 792 0032 0F20     		movs	r0, #15
 348:..\..\..\arduinoLCD\test\Pain Drain\libraries\lvgl\src\misc/lv_style.c ****         case LV_STYLE_TEXT_FONT:
 793              		.loc 1 348 0
 794 0034 04E0     		b	.L60
 795              	.L58:
 350:..\..\..\arduinoLCD\test\Pain Drain\libraries\lvgl\src\misc/lv_style.c ****             break;
 796              		.loc 1 350 0
 797 0036 0548     		ldr	r0, .L61+8
 351:..\..\..\arduinoLCD\test\Pain Drain\libraries\lvgl\src\misc/lv_style.c ****         case LV_STYLE_MAX_WIDTH:
 798              		.loc 1 351 0
 799 0038 02E0     		b	.L60
 800              	.L51:
 354:..\..\..\arduinoLCD\test\Pain Drain\libraries\lvgl\src\misc/lv_style.c ****             break;
 801              		.loc 1 354 0
 802 003a 0548     		ldr	r0, .L61+12
 355:..\..\..\arduinoLCD\test\Pain Drain\libraries\lvgl\src\misc/lv_style.c ****         default:
 803              		.loc 1 355 0
 804 003c 00E0     		b	.L60
 805              	.L50:
 357:..\..\..\arduinoLCD\test\Pain Drain\libraries\lvgl\src\misc/lv_style.c ****             value.num = 0;
 806              		.loc 1 357 0
 807 003e 0020     		movs	r0, #0
 808              	.L60:
 363:..\..\..\arduinoLCD\test\Pain Drain\libraries\lvgl\src\misc/lv_style.c **** 
 809              		.loc 1 363 0
 810              		@ sp needed
 811 0040 7047     		bx	lr
 812              	.L62:
 813 0042 C046     		.align	2
 814              	.L61:
 815 0044 00000000 		.word	.L52
 816 0048 00F8FFFF 		.word	-2048
 817 004c 00000000 		.word	lv_font_montserrat_14
 818 0050 FF1F0000 		.word	8191
 819              		.cfi_endproc
 820              	.LFE65:
 821              		.size	lv_style_prop_get_default, .-lv_style_prop_get_default
 822              		.section	.text.lv_style_get_prop,"ax",%progbits
 823              		.align	2
 824              		.global	lv_style_get_prop
 825              		.code	16
 826              		.thumb_func
 827              		.type	lv_style_get_prop, %function
 828              	lv_style_get_prop:
 829              	.LFB63:
 293:..\..\..\arduinoLCD\test\Pain Drain\libraries\lvgl\src\misc/lv_style.c ****     return lv_style_get_prop_inlined(style, prop, value);
 830              		.loc 1 293 0
 831              		.cfi_startproc
 832              		@ args = 0, pretend = 0, frame = 0
 833              		@ frame_needed = 0, uses_anonymous_args = 0
 834              	.LVL62:
 835 0000 F8B5     		push	{r3, r4, r5, r6, r7, lr}
 836              		.cfi_def_cfa_offset 24
 837              		.cfi_offset 3, -24
ARM GAS  C:\Users\haske\AppData\Local\Temp\ccdHxW38.s 			page 35


 838              		.cfi_offset 4, -20
 839              		.cfi_offset 5, -16
 840              		.cfi_offset 6, -12
 841              		.cfi_offset 7, -8
 842              		.cfi_offset 14, -4
 843 0002 0600     		movs	r6, r0
 844 0004 1400     		movs	r4, r2
 845              	.LVL63:
 846              	.LBB30:
 847              	.LBB31:
 848              		.file 3 "..\\..\\..\\arduinoLCD\\test\\Pain Drain\\libraries\\lvgl\\src\\misc\\lv_style.h"
   1:..\..\..\arduinoLCD\test\Pain Drain\libraries\lvgl\src\misc/lv_style.h **** /**
   2:..\..\..\arduinoLCD\test\Pain Drain\libraries\lvgl\src\misc/lv_style.h ****  * @file lv_style.h
   3:..\..\..\arduinoLCD\test\Pain Drain\libraries\lvgl\src\misc/lv_style.h ****  *
   4:..\..\..\arduinoLCD\test\Pain Drain\libraries\lvgl\src\misc/lv_style.h ****  */
   5:..\..\..\arduinoLCD\test\Pain Drain\libraries\lvgl\src\misc/lv_style.h **** 
   6:..\..\..\arduinoLCD\test\Pain Drain\libraries\lvgl\src\misc/lv_style.h **** #ifndef LV_STYLE_H
   7:..\..\..\arduinoLCD\test\Pain Drain\libraries\lvgl\src\misc/lv_style.h **** #define LV_STYLE_H
   8:..\..\..\arduinoLCD\test\Pain Drain\libraries\lvgl\src\misc/lv_style.h **** 
   9:..\..\..\arduinoLCD\test\Pain Drain\libraries\lvgl\src\misc/lv_style.h **** #ifdef __cplusplus
  10:..\..\..\arduinoLCD\test\Pain Drain\libraries\lvgl\src\misc/lv_style.h **** extern "C" {
  11:..\..\..\arduinoLCD\test\Pain Drain\libraries\lvgl\src\misc/lv_style.h **** #endif
  12:..\..\..\arduinoLCD\test\Pain Drain\libraries\lvgl\src\misc/lv_style.h **** 
  13:..\..\..\arduinoLCD\test\Pain Drain\libraries\lvgl\src\misc/lv_style.h **** /*********************
  14:..\..\..\arduinoLCD\test\Pain Drain\libraries\lvgl\src\misc/lv_style.h ****  *      INCLUDES
  15:..\..\..\arduinoLCD\test\Pain Drain\libraries\lvgl\src\misc/lv_style.h ****  *********************/
  16:..\..\..\arduinoLCD\test\Pain Drain\libraries\lvgl\src\misc/lv_style.h **** #include <stdbool.h>
  17:..\..\..\arduinoLCD\test\Pain Drain\libraries\lvgl\src\misc/lv_style.h **** #include <stdint.h>
  18:..\..\..\arduinoLCD\test\Pain Drain\libraries\lvgl\src\misc/lv_style.h **** #include "../font/lv_font.h"
  19:..\..\..\arduinoLCD\test\Pain Drain\libraries\lvgl\src\misc/lv_style.h **** #include "lv_color.h"
  20:..\..\..\arduinoLCD\test\Pain Drain\libraries\lvgl\src\misc/lv_style.h **** #include "lv_area.h"
  21:..\..\..\arduinoLCD\test\Pain Drain\libraries\lvgl\src\misc/lv_style.h **** #include "lv_anim.h"
  22:..\..\..\arduinoLCD\test\Pain Drain\libraries\lvgl\src\misc/lv_style.h **** #include "lv_txt.h"
  23:..\..\..\arduinoLCD\test\Pain Drain\libraries\lvgl\src\misc/lv_style.h **** #include "lv_types.h"
  24:..\..\..\arduinoLCD\test\Pain Drain\libraries\lvgl\src\misc/lv_style.h **** #include "lv_assert.h"
  25:..\..\..\arduinoLCD\test\Pain Drain\libraries\lvgl\src\misc/lv_style.h **** #include "lv_bidi.h"
  26:..\..\..\arduinoLCD\test\Pain Drain\libraries\lvgl\src\misc/lv_style.h **** 
  27:..\..\..\arduinoLCD\test\Pain Drain\libraries\lvgl\src\misc/lv_style.h **** /*********************
  28:..\..\..\arduinoLCD\test\Pain Drain\libraries\lvgl\src\misc/lv_style.h ****  *      DEFINES
  29:..\..\..\arduinoLCD\test\Pain Drain\libraries\lvgl\src\misc/lv_style.h ****  *********************/
  30:..\..\..\arduinoLCD\test\Pain Drain\libraries\lvgl\src\misc/lv_style.h **** 
  31:..\..\..\arduinoLCD\test\Pain Drain\libraries\lvgl\src\misc/lv_style.h **** #define LV_STYLE_SENTINEL_VALUE     0xAABBCCDD
  32:..\..\..\arduinoLCD\test\Pain Drain\libraries\lvgl\src\misc/lv_style.h **** 
  33:..\..\..\arduinoLCD\test\Pain Drain\libraries\lvgl\src\misc/lv_style.h **** /**
  34:..\..\..\arduinoLCD\test\Pain Drain\libraries\lvgl\src\misc/lv_style.h ****  * Flags for style behavior
  35:..\..\..\arduinoLCD\test\Pain Drain\libraries\lvgl\src\misc/lv_style.h ****  *
  36:..\..\..\arduinoLCD\test\Pain Drain\libraries\lvgl\src\misc/lv_style.h ****  * The rest of the flags will have _FLAG added to their name in v9.
  37:..\..\..\arduinoLCD\test\Pain Drain\libraries\lvgl\src\misc/lv_style.h ****  */
  38:..\..\..\arduinoLCD\test\Pain Drain\libraries\lvgl\src\misc/lv_style.h **** #define LV_STYLE_PROP_FLAG_NONE             (0)
  39:..\..\..\arduinoLCD\test\Pain Drain\libraries\lvgl\src\misc/lv_style.h **** #define LV_STYLE_PROP_INHERIT               (1 << 0)  /*Inherited*/
  40:..\..\..\arduinoLCD\test\Pain Drain\libraries\lvgl\src\misc/lv_style.h **** #define LV_STYLE_PROP_EXT_DRAW              (1 << 1)  /*Requires ext. draw size update when changed
  41:..\..\..\arduinoLCD\test\Pain Drain\libraries\lvgl\src\misc/lv_style.h **** #define LV_STYLE_PROP_LAYOUT_REFR           (1 << 2)  /*Requires layout update when changed*/
  42:..\..\..\arduinoLCD\test\Pain Drain\libraries\lvgl\src\misc/lv_style.h **** #define LV_STYLE_PROP_PARENT_LAYOUT_REFR    (1 << 3)  /*Requires layout update on parent when chang
  43:..\..\..\arduinoLCD\test\Pain Drain\libraries\lvgl\src\misc/lv_style.h **** #define LV_STYLE_PROP_LAYER_REFR            (1 << 4)  /*Affects layer handling*/
  44:..\..\..\arduinoLCD\test\Pain Drain\libraries\lvgl\src\misc/lv_style.h **** #define LV_STYLE_PROP_ALL                   (0x1F)     /*Indicating all flags*/
  45:..\..\..\arduinoLCD\test\Pain Drain\libraries\lvgl\src\misc/lv_style.h **** 
  46:..\..\..\arduinoLCD\test\Pain Drain\libraries\lvgl\src\misc/lv_style.h **** /**
ARM GAS  C:\Users\haske\AppData\Local\Temp\ccdHxW38.s 			page 36


  47:..\..\..\arduinoLCD\test\Pain Drain\libraries\lvgl\src\misc/lv_style.h ****  * Other constants
  48:..\..\..\arduinoLCD\test\Pain Drain\libraries\lvgl\src\misc/lv_style.h ****  */
  49:..\..\..\arduinoLCD\test\Pain Drain\libraries\lvgl\src\misc/lv_style.h **** #define LV_IMG_ZOOM_NONE            256        /*Value for not zooming the image*/
  50:..\..\..\arduinoLCD\test\Pain Drain\libraries\lvgl\src\misc/lv_style.h **** LV_EXPORT_CONST_INT(LV_IMG_ZOOM_NONE);
  51:..\..\..\arduinoLCD\test\Pain Drain\libraries\lvgl\src\misc/lv_style.h **** 
  52:..\..\..\arduinoLCD\test\Pain Drain\libraries\lvgl\src\misc/lv_style.h **** // *INDENT-OFF*
  53:..\..\..\arduinoLCD\test\Pain Drain\libraries\lvgl\src\misc/lv_style.h **** #if LV_USE_ASSERT_STYLE
  54:..\..\..\arduinoLCD\test\Pain Drain\libraries\lvgl\src\misc/lv_style.h **** #define LV_STYLE_CONST_INIT(var_name, prop_array)                       \
  55:..\..\..\arduinoLCD\test\Pain Drain\libraries\lvgl\src\misc/lv_style.h ****     const lv_style_t var_name = {                                       \
  56:..\..\..\arduinoLCD\test\Pain Drain\libraries\lvgl\src\misc/lv_style.h ****         .sentinel = LV_STYLE_SENTINEL_VALUE,                            \
  57:..\..\..\arduinoLCD\test\Pain Drain\libraries\lvgl\src\misc/lv_style.h ****         .v_p = { .const_props = prop_array },                           \
  58:..\..\..\arduinoLCD\test\Pain Drain\libraries\lvgl\src\misc/lv_style.h ****         .has_group = 0xFF,                                              \
  59:..\..\..\arduinoLCD\test\Pain Drain\libraries\lvgl\src\misc/lv_style.h ****         .prop1 = LV_STYLE_PROP_ANY,                                     \
  60:..\..\..\arduinoLCD\test\Pain Drain\libraries\lvgl\src\misc/lv_style.h ****         .prop_cnt = (sizeof(prop_array) / sizeof((prop_array)[0])),     \
  61:..\..\..\arduinoLCD\test\Pain Drain\libraries\lvgl\src\misc/lv_style.h ****     }
  62:..\..\..\arduinoLCD\test\Pain Drain\libraries\lvgl\src\misc/lv_style.h **** #else
  63:..\..\..\arduinoLCD\test\Pain Drain\libraries\lvgl\src\misc/lv_style.h **** #define LV_STYLE_CONST_INIT(var_name, prop_array)                       \
  64:..\..\..\arduinoLCD\test\Pain Drain\libraries\lvgl\src\misc/lv_style.h ****     const lv_style_t var_name = {                                       \
  65:..\..\..\arduinoLCD\test\Pain Drain\libraries\lvgl\src\misc/lv_style.h ****         .v_p = { .const_props = prop_array },                           \
  66:..\..\..\arduinoLCD\test\Pain Drain\libraries\lvgl\src\misc/lv_style.h ****         .has_group = 0xFF,                                              \
  67:..\..\..\arduinoLCD\test\Pain Drain\libraries\lvgl\src\misc/lv_style.h ****         .prop1 = LV_STYLE_PROP_ANY,                                     \
  68:..\..\..\arduinoLCD\test\Pain Drain\libraries\lvgl\src\misc/lv_style.h ****         .prop_cnt = (sizeof(prop_array) / sizeof((prop_array)[0])),     \
  69:..\..\..\arduinoLCD\test\Pain Drain\libraries\lvgl\src\misc/lv_style.h ****     }
  70:..\..\..\arduinoLCD\test\Pain Drain\libraries\lvgl\src\misc/lv_style.h **** #endif
  71:..\..\..\arduinoLCD\test\Pain Drain\libraries\lvgl\src\misc/lv_style.h **** // *INDENT-ON*
  72:..\..\..\arduinoLCD\test\Pain Drain\libraries\lvgl\src\misc/lv_style.h **** 
  73:..\..\..\arduinoLCD\test\Pain Drain\libraries\lvgl\src\misc/lv_style.h **** #define LV_STYLE_PROP_META_INHERIT 0x8000
  74:..\..\..\arduinoLCD\test\Pain Drain\libraries\lvgl\src\misc/lv_style.h **** #define LV_STYLE_PROP_META_INITIAL 0x4000
  75:..\..\..\arduinoLCD\test\Pain Drain\libraries\lvgl\src\misc/lv_style.h **** #define LV_STYLE_PROP_META_MASK (LV_STYLE_PROP_META_INHERIT | LV_STYLE_PROP_META_INITIAL)
  76:..\..\..\arduinoLCD\test\Pain Drain\libraries\lvgl\src\misc/lv_style.h **** 
  77:..\..\..\arduinoLCD\test\Pain Drain\libraries\lvgl\src\misc/lv_style.h **** #define LV_STYLE_PROP_ID_MASK(prop) ((lv_style_prop_t)((prop) & ~LV_STYLE_PROP_META_MASK))
  78:..\..\..\arduinoLCD\test\Pain Drain\libraries\lvgl\src\misc/lv_style.h **** 
  79:..\..\..\arduinoLCD\test\Pain Drain\libraries\lvgl\src\misc/lv_style.h **** /**********************
  80:..\..\..\arduinoLCD\test\Pain Drain\libraries\lvgl\src\misc/lv_style.h ****  *      TYPEDEFS
  81:..\..\..\arduinoLCD\test\Pain Drain\libraries\lvgl\src\misc/lv_style.h ****  **********************/
  82:..\..\..\arduinoLCD\test\Pain Drain\libraries\lvgl\src\misc/lv_style.h **** 
  83:..\..\..\arduinoLCD\test\Pain Drain\libraries\lvgl\src\misc/lv_style.h **** /**
  84:..\..\..\arduinoLCD\test\Pain Drain\libraries\lvgl\src\misc/lv_style.h ****  * Possible options how to blend opaque drawings
  85:..\..\..\arduinoLCD\test\Pain Drain\libraries\lvgl\src\misc/lv_style.h ****  */
  86:..\..\..\arduinoLCD\test\Pain Drain\libraries\lvgl\src\misc/lv_style.h **** enum {
  87:..\..\..\arduinoLCD\test\Pain Drain\libraries\lvgl\src\misc/lv_style.h ****     LV_BLEND_MODE_NORMAL,     /**< Simply mix according to the opacity value*/
  88:..\..\..\arduinoLCD\test\Pain Drain\libraries\lvgl\src\misc/lv_style.h ****     LV_BLEND_MODE_ADDITIVE,   /**< Add the respective color channels*/
  89:..\..\..\arduinoLCD\test\Pain Drain\libraries\lvgl\src\misc/lv_style.h ****     LV_BLEND_MODE_SUBTRACTIVE,/**< Subtract the foreground from the background*/
  90:..\..\..\arduinoLCD\test\Pain Drain\libraries\lvgl\src\misc/lv_style.h ****     LV_BLEND_MODE_MULTIPLY,   /**< Multiply the foreground and background*/
  91:..\..\..\arduinoLCD\test\Pain Drain\libraries\lvgl\src\misc/lv_style.h ****     LV_BLEND_MODE_REPLACE,    /**< Replace background with foreground in the area*/
  92:..\..\..\arduinoLCD\test\Pain Drain\libraries\lvgl\src\misc/lv_style.h **** };
  93:..\..\..\arduinoLCD\test\Pain Drain\libraries\lvgl\src\misc/lv_style.h **** 
  94:..\..\..\arduinoLCD\test\Pain Drain\libraries\lvgl\src\misc/lv_style.h **** typedef uint8_t lv_blend_mode_t;
  95:..\..\..\arduinoLCD\test\Pain Drain\libraries\lvgl\src\misc/lv_style.h **** 
  96:..\..\..\arduinoLCD\test\Pain Drain\libraries\lvgl\src\misc/lv_style.h **** /**
  97:..\..\..\arduinoLCD\test\Pain Drain\libraries\lvgl\src\misc/lv_style.h ****  * Some options to apply decorations on texts.
  98:..\..\..\arduinoLCD\test\Pain Drain\libraries\lvgl\src\misc/lv_style.h ****  * 'OR'ed values can be used.
  99:..\..\..\arduinoLCD\test\Pain Drain\libraries\lvgl\src\misc/lv_style.h ****  */
 100:..\..\..\arduinoLCD\test\Pain Drain\libraries\lvgl\src\misc/lv_style.h **** enum {
 101:..\..\..\arduinoLCD\test\Pain Drain\libraries\lvgl\src\misc/lv_style.h ****     LV_TEXT_DECOR_NONE          = 0x00,
 102:..\..\..\arduinoLCD\test\Pain Drain\libraries\lvgl\src\misc/lv_style.h ****     LV_TEXT_DECOR_UNDERLINE     = 0x01,
 103:..\..\..\arduinoLCD\test\Pain Drain\libraries\lvgl\src\misc/lv_style.h ****     LV_TEXT_DECOR_STRIKETHROUGH = 0x02,
ARM GAS  C:\Users\haske\AppData\Local\Temp\ccdHxW38.s 			page 37


 104:..\..\..\arduinoLCD\test\Pain Drain\libraries\lvgl\src\misc/lv_style.h **** };
 105:..\..\..\arduinoLCD\test\Pain Drain\libraries\lvgl\src\misc/lv_style.h **** 
 106:..\..\..\arduinoLCD\test\Pain Drain\libraries\lvgl\src\misc/lv_style.h **** typedef uint8_t lv_text_decor_t;
 107:..\..\..\arduinoLCD\test\Pain Drain\libraries\lvgl\src\misc/lv_style.h **** 
 108:..\..\..\arduinoLCD\test\Pain Drain\libraries\lvgl\src\misc/lv_style.h **** /**
 109:..\..\..\arduinoLCD\test\Pain Drain\libraries\lvgl\src\misc/lv_style.h ****  * Selects on which sides border should be drawn
 110:..\..\..\arduinoLCD\test\Pain Drain\libraries\lvgl\src\misc/lv_style.h ****  * 'OR'ed values can be used.
 111:..\..\..\arduinoLCD\test\Pain Drain\libraries\lvgl\src\misc/lv_style.h ****  */
 112:..\..\..\arduinoLCD\test\Pain Drain\libraries\lvgl\src\misc/lv_style.h **** enum {
 113:..\..\..\arduinoLCD\test\Pain Drain\libraries\lvgl\src\misc/lv_style.h ****     LV_BORDER_SIDE_NONE     = 0x00,
 114:..\..\..\arduinoLCD\test\Pain Drain\libraries\lvgl\src\misc/lv_style.h ****     LV_BORDER_SIDE_BOTTOM   = 0x01,
 115:..\..\..\arduinoLCD\test\Pain Drain\libraries\lvgl\src\misc/lv_style.h ****     LV_BORDER_SIDE_TOP      = 0x02,
 116:..\..\..\arduinoLCD\test\Pain Drain\libraries\lvgl\src\misc/lv_style.h ****     LV_BORDER_SIDE_LEFT     = 0x04,
 117:..\..\..\arduinoLCD\test\Pain Drain\libraries\lvgl\src\misc/lv_style.h ****     LV_BORDER_SIDE_RIGHT    = 0x08,
 118:..\..\..\arduinoLCD\test\Pain Drain\libraries\lvgl\src\misc/lv_style.h ****     LV_BORDER_SIDE_FULL     = 0x0F,
 119:..\..\..\arduinoLCD\test\Pain Drain\libraries\lvgl\src\misc/lv_style.h ****     LV_BORDER_SIDE_INTERNAL = 0x10, /**< FOR matrix-like objects (e.g. Button matrix)*/
 120:..\..\..\arduinoLCD\test\Pain Drain\libraries\lvgl\src\misc/lv_style.h **** };
 121:..\..\..\arduinoLCD\test\Pain Drain\libraries\lvgl\src\misc/lv_style.h **** typedef uint8_t lv_border_side_t;
 122:..\..\..\arduinoLCD\test\Pain Drain\libraries\lvgl\src\misc/lv_style.h **** 
 123:..\..\..\arduinoLCD\test\Pain Drain\libraries\lvgl\src\misc/lv_style.h **** /**
 124:..\..\..\arduinoLCD\test\Pain Drain\libraries\lvgl\src\misc/lv_style.h ****  * The direction of the gradient.
 125:..\..\..\arduinoLCD\test\Pain Drain\libraries\lvgl\src\misc/lv_style.h ****  */
 126:..\..\..\arduinoLCD\test\Pain Drain\libraries\lvgl\src\misc/lv_style.h **** enum {
 127:..\..\..\arduinoLCD\test\Pain Drain\libraries\lvgl\src\misc/lv_style.h ****     LV_GRAD_DIR_NONE, /**< No gradient (the `grad_color` property is ignored)*/
 128:..\..\..\arduinoLCD\test\Pain Drain\libraries\lvgl\src\misc/lv_style.h ****     LV_GRAD_DIR_VER,  /**< Vertical (top to bottom) gradient*/
 129:..\..\..\arduinoLCD\test\Pain Drain\libraries\lvgl\src\misc/lv_style.h ****     LV_GRAD_DIR_HOR,  /**< Horizontal (left to right) gradient*/
 130:..\..\..\arduinoLCD\test\Pain Drain\libraries\lvgl\src\misc/lv_style.h **** };
 131:..\..\..\arduinoLCD\test\Pain Drain\libraries\lvgl\src\misc/lv_style.h **** 
 132:..\..\..\arduinoLCD\test\Pain Drain\libraries\lvgl\src\misc/lv_style.h **** typedef uint8_t lv_grad_dir_t;
 133:..\..\..\arduinoLCD\test\Pain Drain\libraries\lvgl\src\misc/lv_style.h **** 
 134:..\..\..\arduinoLCD\test\Pain Drain\libraries\lvgl\src\misc/lv_style.h **** /**
 135:..\..\..\arduinoLCD\test\Pain Drain\libraries\lvgl\src\misc/lv_style.h ****  * The dithering algorithm for the gradient
 136:..\..\..\arduinoLCD\test\Pain Drain\libraries\lvgl\src\misc/lv_style.h ****  * Depends on LV_DITHER_GRADIENT
 137:..\..\..\arduinoLCD\test\Pain Drain\libraries\lvgl\src\misc/lv_style.h ****  */
 138:..\..\..\arduinoLCD\test\Pain Drain\libraries\lvgl\src\misc/lv_style.h **** enum {
 139:..\..\..\arduinoLCD\test\Pain Drain\libraries\lvgl\src\misc/lv_style.h ****     LV_DITHER_NONE,     /**< No dithering, colors are just quantized to the output resolution*/
 140:..\..\..\arduinoLCD\test\Pain Drain\libraries\lvgl\src\misc/lv_style.h ****     LV_DITHER_ORDERED,  /**< Ordered dithering. Faster to compute and use less memory but lower qua
 141:..\..\..\arduinoLCD\test\Pain Drain\libraries\lvgl\src\misc/lv_style.h ****     LV_DITHER_ERR_DIFF, /**< Error diffusion mode. Slower to compute and use more memory but give h
 142:..\..\..\arduinoLCD\test\Pain Drain\libraries\lvgl\src\misc/lv_style.h **** };
 143:..\..\..\arduinoLCD\test\Pain Drain\libraries\lvgl\src\misc/lv_style.h **** 
 144:..\..\..\arduinoLCD\test\Pain Drain\libraries\lvgl\src\misc/lv_style.h **** typedef uint8_t lv_dither_mode_t;
 145:..\..\..\arduinoLCD\test\Pain Drain\libraries\lvgl\src\misc/lv_style.h **** 
 146:..\..\..\arduinoLCD\test\Pain Drain\libraries\lvgl\src\misc/lv_style.h **** /** A gradient stop definition.
 147:..\..\..\arduinoLCD\test\Pain Drain\libraries\lvgl\src\misc/lv_style.h ****  *  This matches a color and a position in a virtual 0-255 scale.
 148:..\..\..\arduinoLCD\test\Pain Drain\libraries\lvgl\src\misc/lv_style.h ****  */
 149:..\..\..\arduinoLCD\test\Pain Drain\libraries\lvgl\src\misc/lv_style.h **** typedef struct {
 150:..\..\..\arduinoLCD\test\Pain Drain\libraries\lvgl\src\misc/lv_style.h ****     lv_color_t color;   /**< The stop color */
 151:..\..\..\arduinoLCD\test\Pain Drain\libraries\lvgl\src\misc/lv_style.h ****     uint8_t    frac;    /**< The stop position in 1/255 unit */
 152:..\..\..\arduinoLCD\test\Pain Drain\libraries\lvgl\src\misc/lv_style.h **** } lv_gradient_stop_t;
 153:..\..\..\arduinoLCD\test\Pain Drain\libraries\lvgl\src\misc/lv_style.h **** 
 154:..\..\..\arduinoLCD\test\Pain Drain\libraries\lvgl\src\misc/lv_style.h **** /** A descriptor of a gradient. */
 155:..\..\..\arduinoLCD\test\Pain Drain\libraries\lvgl\src\misc/lv_style.h **** typedef struct {
 156:..\..\..\arduinoLCD\test\Pain Drain\libraries\lvgl\src\misc/lv_style.h ****     lv_gradient_stop_t   stops[LV_GRADIENT_MAX_STOPS]; /**< A gradient stop array */
 157:..\..\..\arduinoLCD\test\Pain Drain\libraries\lvgl\src\misc/lv_style.h ****     uint8_t              stops_count;                  /**< The number of used stops in the array *
 158:..\..\..\arduinoLCD\test\Pain Drain\libraries\lvgl\src\misc/lv_style.h ****     lv_grad_dir_t        dir : 3;                      /**< The gradient direction.
 159:..\..\..\arduinoLCD\test\Pain Drain\libraries\lvgl\src\misc/lv_style.h ****                                                         * Any of LV_GRAD_DIR_HOR, LV_GRAD_DIR_VER, 
 160:..\..\..\arduinoLCD\test\Pain Drain\libraries\lvgl\src\misc/lv_style.h ****     lv_dither_mode_t     dither : 3;                   /**< Whether to dither the gradient or not.
ARM GAS  C:\Users\haske\AppData\Local\Temp\ccdHxW38.s 			page 38


 161:..\..\..\arduinoLCD\test\Pain Drain\libraries\lvgl\src\misc/lv_style.h ****                                                         * Any of LV_DITHER_NONE, LV_DITHER_ORDERED,
 162:..\..\..\arduinoLCD\test\Pain Drain\libraries\lvgl\src\misc/lv_style.h **** } lv_grad_dsc_t;
 163:..\..\..\arduinoLCD\test\Pain Drain\libraries\lvgl\src\misc/lv_style.h **** 
 164:..\..\..\arduinoLCD\test\Pain Drain\libraries\lvgl\src\misc/lv_style.h **** /**
 165:..\..\..\arduinoLCD\test\Pain Drain\libraries\lvgl\src\misc/lv_style.h ****  * A common type to handle all the property types in the same way.
 166:..\..\..\arduinoLCD\test\Pain Drain\libraries\lvgl\src\misc/lv_style.h ****  */
 167:..\..\..\arduinoLCD\test\Pain Drain\libraries\lvgl\src\misc/lv_style.h **** typedef union {
 168:..\..\..\arduinoLCD\test\Pain Drain\libraries\lvgl\src\misc/lv_style.h ****     int32_t num;         /**< Number integer number (opacity, enums, booleans or "normal" numbers)*
 169:..\..\..\arduinoLCD\test\Pain Drain\libraries\lvgl\src\misc/lv_style.h ****     const void * ptr;    /**< Constant pointers  (font, cone text, etc)*/
 170:..\..\..\arduinoLCD\test\Pain Drain\libraries\lvgl\src\misc/lv_style.h ****     lv_color_t color;    /**< Colors*/
 171:..\..\..\arduinoLCD\test\Pain Drain\libraries\lvgl\src\misc/lv_style.h **** } lv_style_value_t;
 172:..\..\..\arduinoLCD\test\Pain Drain\libraries\lvgl\src\misc/lv_style.h **** 
 173:..\..\..\arduinoLCD\test\Pain Drain\libraries\lvgl\src\misc/lv_style.h **** /**
 174:..\..\..\arduinoLCD\test\Pain Drain\libraries\lvgl\src\misc/lv_style.h ****  * Enumeration of all built in style properties
 175:..\..\..\arduinoLCD\test\Pain Drain\libraries\lvgl\src\misc/lv_style.h ****  *
 176:..\..\..\arduinoLCD\test\Pain Drain\libraries\lvgl\src\misc/lv_style.h ****  * Props are split into groups of 16. When adding a new prop to a group, ensure it does not overflo
 177:..\..\..\arduinoLCD\test\Pain Drain\libraries\lvgl\src\misc/lv_style.h ****  */
 178:..\..\..\arduinoLCD\test\Pain Drain\libraries\lvgl\src\misc/lv_style.h **** typedef enum {
 179:..\..\..\arduinoLCD\test\Pain Drain\libraries\lvgl\src\misc/lv_style.h ****     LV_STYLE_PROP_INV               = 0,
 180:..\..\..\arduinoLCD\test\Pain Drain\libraries\lvgl\src\misc/lv_style.h **** 
 181:..\..\..\arduinoLCD\test\Pain Drain\libraries\lvgl\src\misc/lv_style.h ****     /*Group 0*/
 182:..\..\..\arduinoLCD\test\Pain Drain\libraries\lvgl\src\misc/lv_style.h ****     LV_STYLE_WIDTH                  = 1,
 183:..\..\..\arduinoLCD\test\Pain Drain\libraries\lvgl\src\misc/lv_style.h ****     LV_STYLE_MIN_WIDTH              = 2,
 184:..\..\..\arduinoLCD\test\Pain Drain\libraries\lvgl\src\misc/lv_style.h ****     LV_STYLE_MAX_WIDTH              = 3,
 185:..\..\..\arduinoLCD\test\Pain Drain\libraries\lvgl\src\misc/lv_style.h ****     LV_STYLE_HEIGHT                 = 4,
 186:..\..\..\arduinoLCD\test\Pain Drain\libraries\lvgl\src\misc/lv_style.h ****     LV_STYLE_MIN_HEIGHT             = 5,
 187:..\..\..\arduinoLCD\test\Pain Drain\libraries\lvgl\src\misc/lv_style.h ****     LV_STYLE_MAX_HEIGHT             = 6,
 188:..\..\..\arduinoLCD\test\Pain Drain\libraries\lvgl\src\misc/lv_style.h ****     LV_STYLE_X                      = 7,
 189:..\..\..\arduinoLCD\test\Pain Drain\libraries\lvgl\src\misc/lv_style.h ****     LV_STYLE_Y                      = 8,
 190:..\..\..\arduinoLCD\test\Pain Drain\libraries\lvgl\src\misc/lv_style.h ****     LV_STYLE_ALIGN                  = 9,
 191:..\..\..\arduinoLCD\test\Pain Drain\libraries\lvgl\src\misc/lv_style.h ****     LV_STYLE_LAYOUT                 = 10,
 192:..\..\..\arduinoLCD\test\Pain Drain\libraries\lvgl\src\misc/lv_style.h ****     LV_STYLE_RADIUS                 = 11,
 193:..\..\..\arduinoLCD\test\Pain Drain\libraries\lvgl\src\misc/lv_style.h **** 
 194:..\..\..\arduinoLCD\test\Pain Drain\libraries\lvgl\src\misc/lv_style.h ****     /*Group 1*/
 195:..\..\..\arduinoLCD\test\Pain Drain\libraries\lvgl\src\misc/lv_style.h ****     LV_STYLE_PAD_TOP                = 16,
 196:..\..\..\arduinoLCD\test\Pain Drain\libraries\lvgl\src\misc/lv_style.h ****     LV_STYLE_PAD_BOTTOM             = 17,
 197:..\..\..\arduinoLCD\test\Pain Drain\libraries\lvgl\src\misc/lv_style.h ****     LV_STYLE_PAD_LEFT               = 18,
 198:..\..\..\arduinoLCD\test\Pain Drain\libraries\lvgl\src\misc/lv_style.h ****     LV_STYLE_PAD_RIGHT              = 19,
 199:..\..\..\arduinoLCD\test\Pain Drain\libraries\lvgl\src\misc/lv_style.h ****     LV_STYLE_PAD_ROW                = 20,
 200:..\..\..\arduinoLCD\test\Pain Drain\libraries\lvgl\src\misc/lv_style.h ****     LV_STYLE_PAD_COLUMN             = 21,
 201:..\..\..\arduinoLCD\test\Pain Drain\libraries\lvgl\src\misc/lv_style.h ****     LV_STYLE_BASE_DIR               = 22,
 202:..\..\..\arduinoLCD\test\Pain Drain\libraries\lvgl\src\misc/lv_style.h ****     LV_STYLE_CLIP_CORNER            = 23,
 203:..\..\..\arduinoLCD\test\Pain Drain\libraries\lvgl\src\misc/lv_style.h **** 
 204:..\..\..\arduinoLCD\test\Pain Drain\libraries\lvgl\src\misc/lv_style.h ****     /*Group 2*/
 205:..\..\..\arduinoLCD\test\Pain Drain\libraries\lvgl\src\misc/lv_style.h ****     LV_STYLE_BG_COLOR               = 32,
 206:..\..\..\arduinoLCD\test\Pain Drain\libraries\lvgl\src\misc/lv_style.h ****     LV_STYLE_BG_OPA                 = 33,
 207:..\..\..\arduinoLCD\test\Pain Drain\libraries\lvgl\src\misc/lv_style.h ****     LV_STYLE_BG_GRAD_COLOR          = 34,
 208:..\..\..\arduinoLCD\test\Pain Drain\libraries\lvgl\src\misc/lv_style.h ****     LV_STYLE_BG_GRAD_DIR            = 35,
 209:..\..\..\arduinoLCD\test\Pain Drain\libraries\lvgl\src\misc/lv_style.h ****     LV_STYLE_BG_MAIN_STOP           = 36,
 210:..\..\..\arduinoLCD\test\Pain Drain\libraries\lvgl\src\misc/lv_style.h ****     LV_STYLE_BG_GRAD_STOP           = 37,
 211:..\..\..\arduinoLCD\test\Pain Drain\libraries\lvgl\src\misc/lv_style.h ****     LV_STYLE_BG_GRAD                = 38,
 212:..\..\..\arduinoLCD\test\Pain Drain\libraries\lvgl\src\misc/lv_style.h ****     LV_STYLE_BG_DITHER_MODE         = 39,
 213:..\..\..\arduinoLCD\test\Pain Drain\libraries\lvgl\src\misc/lv_style.h ****     LV_STYLE_BG_IMG_SRC             = 40,
 214:..\..\..\arduinoLCD\test\Pain Drain\libraries\lvgl\src\misc/lv_style.h ****     LV_STYLE_BG_IMG_OPA             = 41,
 215:..\..\..\arduinoLCD\test\Pain Drain\libraries\lvgl\src\misc/lv_style.h ****     LV_STYLE_BG_IMG_RECOLOR         = 42,
 216:..\..\..\arduinoLCD\test\Pain Drain\libraries\lvgl\src\misc/lv_style.h ****     LV_STYLE_BG_IMG_RECOLOR_OPA     = 43,
 217:..\..\..\arduinoLCD\test\Pain Drain\libraries\lvgl\src\misc/lv_style.h ****     LV_STYLE_BG_IMG_TILED           = 44,
ARM GAS  C:\Users\haske\AppData\Local\Temp\ccdHxW38.s 			page 39


 218:..\..\..\arduinoLCD\test\Pain Drain\libraries\lvgl\src\misc/lv_style.h **** 
 219:..\..\..\arduinoLCD\test\Pain Drain\libraries\lvgl\src\misc/lv_style.h ****     /*Group 3*/
 220:..\..\..\arduinoLCD\test\Pain Drain\libraries\lvgl\src\misc/lv_style.h ****     LV_STYLE_BORDER_COLOR           = 48,
 221:..\..\..\arduinoLCD\test\Pain Drain\libraries\lvgl\src\misc/lv_style.h ****     LV_STYLE_BORDER_OPA             = 49,
 222:..\..\..\arduinoLCD\test\Pain Drain\libraries\lvgl\src\misc/lv_style.h ****     LV_STYLE_BORDER_WIDTH           = 50,
 223:..\..\..\arduinoLCD\test\Pain Drain\libraries\lvgl\src\misc/lv_style.h ****     LV_STYLE_BORDER_SIDE            = 51,
 224:..\..\..\arduinoLCD\test\Pain Drain\libraries\lvgl\src\misc/lv_style.h ****     LV_STYLE_BORDER_POST            = 52,
 225:..\..\..\arduinoLCD\test\Pain Drain\libraries\lvgl\src\misc/lv_style.h ****     LV_STYLE_OUTLINE_WIDTH          = 53,
 226:..\..\..\arduinoLCD\test\Pain Drain\libraries\lvgl\src\misc/lv_style.h ****     LV_STYLE_OUTLINE_COLOR          = 54,
 227:..\..\..\arduinoLCD\test\Pain Drain\libraries\lvgl\src\misc/lv_style.h ****     LV_STYLE_OUTLINE_OPA            = 55,
 228:..\..\..\arduinoLCD\test\Pain Drain\libraries\lvgl\src\misc/lv_style.h ****     LV_STYLE_OUTLINE_PAD            = 56,
 229:..\..\..\arduinoLCD\test\Pain Drain\libraries\lvgl\src\misc/lv_style.h **** 
 230:..\..\..\arduinoLCD\test\Pain Drain\libraries\lvgl\src\misc/lv_style.h ****     /*Group 4*/
 231:..\..\..\arduinoLCD\test\Pain Drain\libraries\lvgl\src\misc/lv_style.h ****     LV_STYLE_SHADOW_WIDTH           = 64,
 232:..\..\..\arduinoLCD\test\Pain Drain\libraries\lvgl\src\misc/lv_style.h ****     LV_STYLE_SHADOW_OFS_X           = 65,
 233:..\..\..\arduinoLCD\test\Pain Drain\libraries\lvgl\src\misc/lv_style.h ****     LV_STYLE_SHADOW_OFS_Y           = 66,
 234:..\..\..\arduinoLCD\test\Pain Drain\libraries\lvgl\src\misc/lv_style.h ****     LV_STYLE_SHADOW_SPREAD          = 67,
 235:..\..\..\arduinoLCD\test\Pain Drain\libraries\lvgl\src\misc/lv_style.h ****     LV_STYLE_SHADOW_COLOR           = 68,
 236:..\..\..\arduinoLCD\test\Pain Drain\libraries\lvgl\src\misc/lv_style.h ****     LV_STYLE_SHADOW_OPA             = 69,
 237:..\..\..\arduinoLCD\test\Pain Drain\libraries\lvgl\src\misc/lv_style.h ****     LV_STYLE_IMG_OPA                = 70,
 238:..\..\..\arduinoLCD\test\Pain Drain\libraries\lvgl\src\misc/lv_style.h ****     LV_STYLE_IMG_RECOLOR            = 71,
 239:..\..\..\arduinoLCD\test\Pain Drain\libraries\lvgl\src\misc/lv_style.h ****     LV_STYLE_IMG_RECOLOR_OPA        = 72,
 240:..\..\..\arduinoLCD\test\Pain Drain\libraries\lvgl\src\misc/lv_style.h ****     LV_STYLE_LINE_WIDTH             = 73,
 241:..\..\..\arduinoLCD\test\Pain Drain\libraries\lvgl\src\misc/lv_style.h ****     LV_STYLE_LINE_DASH_WIDTH        = 74,
 242:..\..\..\arduinoLCD\test\Pain Drain\libraries\lvgl\src\misc/lv_style.h ****     LV_STYLE_LINE_DASH_GAP          = 75,
 243:..\..\..\arduinoLCD\test\Pain Drain\libraries\lvgl\src\misc/lv_style.h ****     LV_STYLE_LINE_ROUNDED           = 76,
 244:..\..\..\arduinoLCD\test\Pain Drain\libraries\lvgl\src\misc/lv_style.h ****     LV_STYLE_LINE_COLOR             = 77,
 245:..\..\..\arduinoLCD\test\Pain Drain\libraries\lvgl\src\misc/lv_style.h ****     LV_STYLE_LINE_OPA               = 78,
 246:..\..\..\arduinoLCD\test\Pain Drain\libraries\lvgl\src\misc/lv_style.h **** 
 247:..\..\..\arduinoLCD\test\Pain Drain\libraries\lvgl\src\misc/lv_style.h ****     /*Group 5*/
 248:..\..\..\arduinoLCD\test\Pain Drain\libraries\lvgl\src\misc/lv_style.h ****     LV_STYLE_ARC_WIDTH              = 80,
 249:..\..\..\arduinoLCD\test\Pain Drain\libraries\lvgl\src\misc/lv_style.h ****     LV_STYLE_ARC_ROUNDED            = 81,
 250:..\..\..\arduinoLCD\test\Pain Drain\libraries\lvgl\src\misc/lv_style.h ****     LV_STYLE_ARC_COLOR              = 82,
 251:..\..\..\arduinoLCD\test\Pain Drain\libraries\lvgl\src\misc/lv_style.h ****     LV_STYLE_ARC_OPA                = 83,
 252:..\..\..\arduinoLCD\test\Pain Drain\libraries\lvgl\src\misc/lv_style.h ****     LV_STYLE_ARC_IMG_SRC            = 84,
 253:..\..\..\arduinoLCD\test\Pain Drain\libraries\lvgl\src\misc/lv_style.h ****     LV_STYLE_TEXT_COLOR             = 85,
 254:..\..\..\arduinoLCD\test\Pain Drain\libraries\lvgl\src\misc/lv_style.h ****     LV_STYLE_TEXT_OPA               = 86,
 255:..\..\..\arduinoLCD\test\Pain Drain\libraries\lvgl\src\misc/lv_style.h ****     LV_STYLE_TEXT_FONT              = 87,
 256:..\..\..\arduinoLCD\test\Pain Drain\libraries\lvgl\src\misc/lv_style.h ****     LV_STYLE_TEXT_LETTER_SPACE      = 88,
 257:..\..\..\arduinoLCD\test\Pain Drain\libraries\lvgl\src\misc/lv_style.h ****     LV_STYLE_TEXT_LINE_SPACE        = 89,
 258:..\..\..\arduinoLCD\test\Pain Drain\libraries\lvgl\src\misc/lv_style.h ****     LV_STYLE_TEXT_DECOR             = 90,
 259:..\..\..\arduinoLCD\test\Pain Drain\libraries\lvgl\src\misc/lv_style.h ****     LV_STYLE_TEXT_ALIGN             = 91,
 260:..\..\..\arduinoLCD\test\Pain Drain\libraries\lvgl\src\misc/lv_style.h **** 
 261:..\..\..\arduinoLCD\test\Pain Drain\libraries\lvgl\src\misc/lv_style.h ****     /*Group 6*/
 262:..\..\..\arduinoLCD\test\Pain Drain\libraries\lvgl\src\misc/lv_style.h ****     LV_STYLE_OPA                    = 96,
 263:..\..\..\arduinoLCD\test\Pain Drain\libraries\lvgl\src\misc/lv_style.h ****     LV_STYLE_COLOR_FILTER_DSC       = 97,
 264:..\..\..\arduinoLCD\test\Pain Drain\libraries\lvgl\src\misc/lv_style.h ****     LV_STYLE_COLOR_FILTER_OPA       = 98,
 265:..\..\..\arduinoLCD\test\Pain Drain\libraries\lvgl\src\misc/lv_style.h ****     LV_STYLE_ANIM                   = 99,
 266:..\..\..\arduinoLCD\test\Pain Drain\libraries\lvgl\src\misc/lv_style.h ****     LV_STYLE_ANIM_TIME              = 100,
 267:..\..\..\arduinoLCD\test\Pain Drain\libraries\lvgl\src\misc/lv_style.h ****     LV_STYLE_ANIM_SPEED             = 101,
 268:..\..\..\arduinoLCD\test\Pain Drain\libraries\lvgl\src\misc/lv_style.h ****     LV_STYLE_TRANSITION             = 102,
 269:..\..\..\arduinoLCD\test\Pain Drain\libraries\lvgl\src\misc/lv_style.h ****     LV_STYLE_BLEND_MODE             = 103,
 270:..\..\..\arduinoLCD\test\Pain Drain\libraries\lvgl\src\misc/lv_style.h ****     LV_STYLE_TRANSFORM_WIDTH        = 104,
 271:..\..\..\arduinoLCD\test\Pain Drain\libraries\lvgl\src\misc/lv_style.h ****     LV_STYLE_TRANSFORM_HEIGHT       = 105,
 272:..\..\..\arduinoLCD\test\Pain Drain\libraries\lvgl\src\misc/lv_style.h ****     LV_STYLE_TRANSLATE_X            = 106,
 273:..\..\..\arduinoLCD\test\Pain Drain\libraries\lvgl\src\misc/lv_style.h ****     LV_STYLE_TRANSLATE_Y            = 107,
 274:..\..\..\arduinoLCD\test\Pain Drain\libraries\lvgl\src\misc/lv_style.h ****     LV_STYLE_TRANSFORM_ZOOM         = 108,
ARM GAS  C:\Users\haske\AppData\Local\Temp\ccdHxW38.s 			page 40


 275:..\..\..\arduinoLCD\test\Pain Drain\libraries\lvgl\src\misc/lv_style.h ****     LV_STYLE_TRANSFORM_ANGLE        = 109,
 276:..\..\..\arduinoLCD\test\Pain Drain\libraries\lvgl\src\misc/lv_style.h ****     LV_STYLE_TRANSFORM_PIVOT_X      = 110,
 277:..\..\..\arduinoLCD\test\Pain Drain\libraries\lvgl\src\misc/lv_style.h ****     LV_STYLE_TRANSFORM_PIVOT_Y      = 111,
 278:..\..\..\arduinoLCD\test\Pain Drain\libraries\lvgl\src\misc/lv_style.h **** 
 279:..\..\..\arduinoLCD\test\Pain Drain\libraries\lvgl\src\misc/lv_style.h ****     _LV_STYLE_LAST_BUILT_IN_PROP     = 111,
 280:..\..\..\arduinoLCD\test\Pain Drain\libraries\lvgl\src\misc/lv_style.h ****     _LV_STYLE_NUM_BUILT_IN_PROPS     = _LV_STYLE_LAST_BUILT_IN_PROP + 1,
 281:..\..\..\arduinoLCD\test\Pain Drain\libraries\lvgl\src\misc/lv_style.h **** 
 282:..\..\..\arduinoLCD\test\Pain Drain\libraries\lvgl\src\misc/lv_style.h ****     LV_STYLE_PROP_ANY                = 0xFFFF,
 283:..\..\..\arduinoLCD\test\Pain Drain\libraries\lvgl\src\misc/lv_style.h ****     _LV_STYLE_PROP_CONST             = 0xFFFF /* magic value for const styles */
 284:..\..\..\arduinoLCD\test\Pain Drain\libraries\lvgl\src\misc/lv_style.h **** } lv_style_prop_t;
 285:..\..\..\arduinoLCD\test\Pain Drain\libraries\lvgl\src\misc/lv_style.h **** 
 286:..\..\..\arduinoLCD\test\Pain Drain\libraries\lvgl\src\misc/lv_style.h **** enum {
 287:..\..\..\arduinoLCD\test\Pain Drain\libraries\lvgl\src\misc/lv_style.h ****     LV_STYLE_RES_NOT_FOUND,
 288:..\..\..\arduinoLCD\test\Pain Drain\libraries\lvgl\src\misc/lv_style.h ****     LV_STYLE_RES_FOUND,
 289:..\..\..\arduinoLCD\test\Pain Drain\libraries\lvgl\src\misc/lv_style.h ****     LV_STYLE_RES_INHERIT
 290:..\..\..\arduinoLCD\test\Pain Drain\libraries\lvgl\src\misc/lv_style.h **** };
 291:..\..\..\arduinoLCD\test\Pain Drain\libraries\lvgl\src\misc/lv_style.h **** 
 292:..\..\..\arduinoLCD\test\Pain Drain\libraries\lvgl\src\misc/lv_style.h **** typedef uint8_t lv_style_res_t;
 293:..\..\..\arduinoLCD\test\Pain Drain\libraries\lvgl\src\misc/lv_style.h **** 
 294:..\..\..\arduinoLCD\test\Pain Drain\libraries\lvgl\src\misc/lv_style.h **** /**
 295:..\..\..\arduinoLCD\test\Pain Drain\libraries\lvgl\src\misc/lv_style.h ****  * Descriptor for style transitions
 296:..\..\..\arduinoLCD\test\Pain Drain\libraries\lvgl\src\misc/lv_style.h ****  */
 297:..\..\..\arduinoLCD\test\Pain Drain\libraries\lvgl\src\misc/lv_style.h **** typedef struct {
 298:..\..\..\arduinoLCD\test\Pain Drain\libraries\lvgl\src\misc/lv_style.h ****     const lv_style_prop_t * props; /**< An array with the properties to animate.*/
 299:..\..\..\arduinoLCD\test\Pain Drain\libraries\lvgl\src\misc/lv_style.h **** #if LV_USE_USER_DATA
 300:..\..\..\arduinoLCD\test\Pain Drain\libraries\lvgl\src\misc/lv_style.h ****     void * user_data;              /**< A custom user data that will be passed to the animation's u
 301:..\..\..\arduinoLCD\test\Pain Drain\libraries\lvgl\src\misc/lv_style.h **** #endif
 302:..\..\..\arduinoLCD\test\Pain Drain\libraries\lvgl\src\misc/lv_style.h ****     lv_anim_path_cb_t path_xcb;     /**< A path for the animation.*/
 303:..\..\..\arduinoLCD\test\Pain Drain\libraries\lvgl\src\misc/lv_style.h ****     uint32_t time;                 /**< Duration of the transition in [ms]*/
 304:..\..\..\arduinoLCD\test\Pain Drain\libraries\lvgl\src\misc/lv_style.h ****     uint32_t delay;                /**< Delay before the transition in [ms]*/
 305:..\..\..\arduinoLCD\test\Pain Drain\libraries\lvgl\src\misc/lv_style.h **** } lv_style_transition_dsc_t;
 306:..\..\..\arduinoLCD\test\Pain Drain\libraries\lvgl\src\misc/lv_style.h **** 
 307:..\..\..\arduinoLCD\test\Pain Drain\libraries\lvgl\src\misc/lv_style.h **** /**
 308:..\..\..\arduinoLCD\test\Pain Drain\libraries\lvgl\src\misc/lv_style.h ****  * Descriptor of a constant style property.
 309:..\..\..\arduinoLCD\test\Pain Drain\libraries\lvgl\src\misc/lv_style.h ****  */
 310:..\..\..\arduinoLCD\test\Pain Drain\libraries\lvgl\src\misc/lv_style.h **** typedef struct {
 311:..\..\..\arduinoLCD\test\Pain Drain\libraries\lvgl\src\misc/lv_style.h ****     lv_style_prop_t prop;
 312:..\..\..\arduinoLCD\test\Pain Drain\libraries\lvgl\src\misc/lv_style.h ****     lv_style_value_t value;
 313:..\..\..\arduinoLCD\test\Pain Drain\libraries\lvgl\src\misc/lv_style.h **** } lv_style_const_prop_t;
 314:..\..\..\arduinoLCD\test\Pain Drain\libraries\lvgl\src\misc/lv_style.h **** 
 315:..\..\..\arduinoLCD\test\Pain Drain\libraries\lvgl\src\misc/lv_style.h **** /**
 316:..\..\..\arduinoLCD\test\Pain Drain\libraries\lvgl\src\misc/lv_style.h ****  * Descriptor of a style (a collection of properties and values).
 317:..\..\..\arduinoLCD\test\Pain Drain\libraries\lvgl\src\misc/lv_style.h ****  */
 318:..\..\..\arduinoLCD\test\Pain Drain\libraries\lvgl\src\misc/lv_style.h **** typedef struct {
 319:..\..\..\arduinoLCD\test\Pain Drain\libraries\lvgl\src\misc/lv_style.h **** 
 320:..\..\..\arduinoLCD\test\Pain Drain\libraries\lvgl\src\misc/lv_style.h **** #if LV_USE_ASSERT_STYLE
 321:..\..\..\arduinoLCD\test\Pain Drain\libraries\lvgl\src\misc/lv_style.h ****     uint32_t sentinel;
 322:..\..\..\arduinoLCD\test\Pain Drain\libraries\lvgl\src\misc/lv_style.h **** #endif
 323:..\..\..\arduinoLCD\test\Pain Drain\libraries\lvgl\src\misc/lv_style.h **** 
 324:..\..\..\arduinoLCD\test\Pain Drain\libraries\lvgl\src\misc/lv_style.h ****     /*If there is only one property store it directly.
 325:..\..\..\arduinoLCD\test\Pain Drain\libraries\lvgl\src\misc/lv_style.h ****      *For more properties allocate an array*/
 326:..\..\..\arduinoLCD\test\Pain Drain\libraries\lvgl\src\misc/lv_style.h ****     union {
 327:..\..\..\arduinoLCD\test\Pain Drain\libraries\lvgl\src\misc/lv_style.h ****         lv_style_value_t value1;
 328:..\..\..\arduinoLCD\test\Pain Drain\libraries\lvgl\src\misc/lv_style.h ****         uint8_t * values_and_props;
 329:..\..\..\arduinoLCD\test\Pain Drain\libraries\lvgl\src\misc/lv_style.h ****         const lv_style_const_prop_t * const_props;
 330:..\..\..\arduinoLCD\test\Pain Drain\libraries\lvgl\src\misc/lv_style.h ****     } v_p;
 331:..\..\..\arduinoLCD\test\Pain Drain\libraries\lvgl\src\misc/lv_style.h **** 
ARM GAS  C:\Users\haske\AppData\Local\Temp\ccdHxW38.s 			page 41


 332:..\..\..\arduinoLCD\test\Pain Drain\libraries\lvgl\src\misc/lv_style.h ****     uint16_t prop1;
 333:..\..\..\arduinoLCD\test\Pain Drain\libraries\lvgl\src\misc/lv_style.h ****     uint8_t has_group;
 334:..\..\..\arduinoLCD\test\Pain Drain\libraries\lvgl\src\misc/lv_style.h ****     uint8_t prop_cnt;
 335:..\..\..\arduinoLCD\test\Pain Drain\libraries\lvgl\src\misc/lv_style.h **** } lv_style_t;
 336:..\..\..\arduinoLCD\test\Pain Drain\libraries\lvgl\src\misc/lv_style.h **** 
 337:..\..\..\arduinoLCD\test\Pain Drain\libraries\lvgl\src\misc/lv_style.h **** /**********************
 338:..\..\..\arduinoLCD\test\Pain Drain\libraries\lvgl\src\misc/lv_style.h ****  * GLOBAL PROTOTYPES
 339:..\..\..\arduinoLCD\test\Pain Drain\libraries\lvgl\src\misc/lv_style.h ****  **********************/
 340:..\..\..\arduinoLCD\test\Pain Drain\libraries\lvgl\src\misc/lv_style.h **** 
 341:..\..\..\arduinoLCD\test\Pain Drain\libraries\lvgl\src\misc/lv_style.h **** 
 342:..\..\..\arduinoLCD\test\Pain Drain\libraries\lvgl\src\misc/lv_style.h **** /**
 343:..\..\..\arduinoLCD\test\Pain Drain\libraries\lvgl\src\misc/lv_style.h ****  * Initialize a style
 344:..\..\..\arduinoLCD\test\Pain Drain\libraries\lvgl\src\misc/lv_style.h ****  * @param style pointer to a style to initialize
 345:..\..\..\arduinoLCD\test\Pain Drain\libraries\lvgl\src\misc/lv_style.h ****  * @note Do not call `lv_style_init` on styles that already have some properties
 346:..\..\..\arduinoLCD\test\Pain Drain\libraries\lvgl\src\misc/lv_style.h ****  *       because this function won't free the used memory, just sets a default state for the style.
 347:..\..\..\arduinoLCD\test\Pain Drain\libraries\lvgl\src\misc/lv_style.h ****  *       In other words be sure to initialize styles only once!
 348:..\..\..\arduinoLCD\test\Pain Drain\libraries\lvgl\src\misc/lv_style.h ****  */
 349:..\..\..\arduinoLCD\test\Pain Drain\libraries\lvgl\src\misc/lv_style.h **** void lv_style_init(lv_style_t * style);
 350:..\..\..\arduinoLCD\test\Pain Drain\libraries\lvgl\src\misc/lv_style.h **** 
 351:..\..\..\arduinoLCD\test\Pain Drain\libraries\lvgl\src\misc/lv_style.h **** /**
 352:..\..\..\arduinoLCD\test\Pain Drain\libraries\lvgl\src\misc/lv_style.h ****  * Clear all properties from a style and free all allocated memories.
 353:..\..\..\arduinoLCD\test\Pain Drain\libraries\lvgl\src\misc/lv_style.h ****  * @param style pointer to a style
 354:..\..\..\arduinoLCD\test\Pain Drain\libraries\lvgl\src\misc/lv_style.h ****  */
 355:..\..\..\arduinoLCD\test\Pain Drain\libraries\lvgl\src\misc/lv_style.h **** void lv_style_reset(lv_style_t * style);
 356:..\..\..\arduinoLCD\test\Pain Drain\libraries\lvgl\src\misc/lv_style.h **** 
 357:..\..\..\arduinoLCD\test\Pain Drain\libraries\lvgl\src\misc/lv_style.h **** /**
 358:..\..\..\arduinoLCD\test\Pain Drain\libraries\lvgl\src\misc/lv_style.h ****  * Register a new style property for custom usage
 359:..\..\..\arduinoLCD\test\Pain Drain\libraries\lvgl\src\misc/lv_style.h ****  * @return a new property ID, or LV_STYLE_PROP_INV if there are no more available.
 360:..\..\..\arduinoLCD\test\Pain Drain\libraries\lvgl\src\misc/lv_style.h ****  * @example
 361:..\..\..\arduinoLCD\test\Pain Drain\libraries\lvgl\src\misc/lv_style.h ****  * lv_style_prop_t MY_PROP;
 362:..\..\..\arduinoLCD\test\Pain Drain\libraries\lvgl\src\misc/lv_style.h ****  * static inline void lv_style_set_my_prop(lv_style_t * style, lv_color_t value) {
 363:..\..\..\arduinoLCD\test\Pain Drain\libraries\lvgl\src\misc/lv_style.h ****  * lv_style_value_t v = {.color = value}; lv_style_set_prop(style, MY_PROP, v); }
 364:..\..\..\arduinoLCD\test\Pain Drain\libraries\lvgl\src\misc/lv_style.h ****  *
 365:..\..\..\arduinoLCD\test\Pain Drain\libraries\lvgl\src\misc/lv_style.h ****  * ...
 366:..\..\..\arduinoLCD\test\Pain Drain\libraries\lvgl\src\misc/lv_style.h ****  * MY_PROP = lv_style_register_prop();
 367:..\..\..\arduinoLCD\test\Pain Drain\libraries\lvgl\src\misc/lv_style.h ****  * ...
 368:..\..\..\arduinoLCD\test\Pain Drain\libraries\lvgl\src\misc/lv_style.h ****  * lv_style_set_my_prop(&style1, lv_palette_main(LV_PALETTE_RED));
 369:..\..\..\arduinoLCD\test\Pain Drain\libraries\lvgl\src\misc/lv_style.h ****  */
 370:..\..\..\arduinoLCD\test\Pain Drain\libraries\lvgl\src\misc/lv_style.h **** lv_style_prop_t lv_style_register_prop(uint8_t flag);
 371:..\..\..\arduinoLCD\test\Pain Drain\libraries\lvgl\src\misc/lv_style.h **** 
 372:..\..\..\arduinoLCD\test\Pain Drain\libraries\lvgl\src\misc/lv_style.h **** /**
 373:..\..\..\arduinoLCD\test\Pain Drain\libraries\lvgl\src\misc/lv_style.h ****  * Get the number of custom properties that have been registered thus far.
 374:..\..\..\arduinoLCD\test\Pain Drain\libraries\lvgl\src\misc/lv_style.h ****  */
 375:..\..\..\arduinoLCD\test\Pain Drain\libraries\lvgl\src\misc/lv_style.h **** lv_style_prop_t lv_style_get_num_custom_props(void);
 376:..\..\..\arduinoLCD\test\Pain Drain\libraries\lvgl\src\misc/lv_style.h **** 
 377:..\..\..\arduinoLCD\test\Pain Drain\libraries\lvgl\src\misc/lv_style.h **** /**
 378:..\..\..\arduinoLCD\test\Pain Drain\libraries\lvgl\src\misc/lv_style.h ****  * Remove a property from a style
 379:..\..\..\arduinoLCD\test\Pain Drain\libraries\lvgl\src\misc/lv_style.h ****  * @param style pointer to a style
 380:..\..\..\arduinoLCD\test\Pain Drain\libraries\lvgl\src\misc/lv_style.h ****  * @param prop  a style property ORed with a state.
 381:..\..\..\arduinoLCD\test\Pain Drain\libraries\lvgl\src\misc/lv_style.h ****  * @return true: the property was found and removed; false: the property wasn't found
 382:..\..\..\arduinoLCD\test\Pain Drain\libraries\lvgl\src\misc/lv_style.h ****  */
 383:..\..\..\arduinoLCD\test\Pain Drain\libraries\lvgl\src\misc/lv_style.h **** bool lv_style_remove_prop(lv_style_t * style, lv_style_prop_t prop);
 384:..\..\..\arduinoLCD\test\Pain Drain\libraries\lvgl\src\misc/lv_style.h **** 
 385:..\..\..\arduinoLCD\test\Pain Drain\libraries\lvgl\src\misc/lv_style.h **** /**
 386:..\..\..\arduinoLCD\test\Pain Drain\libraries\lvgl\src\misc/lv_style.h ****  * Set the value of property in a style.
 387:..\..\..\arduinoLCD\test\Pain Drain\libraries\lvgl\src\misc/lv_style.h ****  * This function shouldn't be used directly by the user.
 388:..\..\..\arduinoLCD\test\Pain Drain\libraries\lvgl\src\misc/lv_style.h ****  * Instead use `lv_style_set_<prop_name>()`. E.g. `lv_style_set_bg_color()`
ARM GAS  C:\Users\haske\AppData\Local\Temp\ccdHxW38.s 			page 42


 389:..\..\..\arduinoLCD\test\Pain Drain\libraries\lvgl\src\misc/lv_style.h ****  * @param style pointer to style
 390:..\..\..\arduinoLCD\test\Pain Drain\libraries\lvgl\src\misc/lv_style.h ****  * @param prop the ID of a property (e.g. `LV_STYLE_BG_COLOR`)
 391:..\..\..\arduinoLCD\test\Pain Drain\libraries\lvgl\src\misc/lv_style.h ****  * @param value `lv_style_value_t` variable in which a field is set according to the type of `prop`
 392:..\..\..\arduinoLCD\test\Pain Drain\libraries\lvgl\src\misc/lv_style.h ****  */
 393:..\..\..\arduinoLCD\test\Pain Drain\libraries\lvgl\src\misc/lv_style.h **** void lv_style_set_prop(lv_style_t * style, lv_style_prop_t prop, lv_style_value_t value);
 394:..\..\..\arduinoLCD\test\Pain Drain\libraries\lvgl\src\misc/lv_style.h **** 
 395:..\..\..\arduinoLCD\test\Pain Drain\libraries\lvgl\src\misc/lv_style.h **** /**
 396:..\..\..\arduinoLCD\test\Pain Drain\libraries\lvgl\src\misc/lv_style.h ****  * Set a special meta state for a property in a style.
 397:..\..\..\arduinoLCD\test\Pain Drain\libraries\lvgl\src\misc/lv_style.h ****  * This function shouldn't be used directly by the user.
 398:..\..\..\arduinoLCD\test\Pain Drain\libraries\lvgl\src\misc/lv_style.h ****  * @param style pointer to style
 399:..\..\..\arduinoLCD\test\Pain Drain\libraries\lvgl\src\misc/lv_style.h ****  * @param prop the ID of a property (e.g. `LV_STYLE_BG_COLOR`)
 400:..\..\..\arduinoLCD\test\Pain Drain\libraries\lvgl\src\misc/lv_style.h ****  * @param meta the meta value to attach to the property in the style
 401:..\..\..\arduinoLCD\test\Pain Drain\libraries\lvgl\src\misc/lv_style.h ****  */
 402:..\..\..\arduinoLCD\test\Pain Drain\libraries\lvgl\src\misc/lv_style.h **** void lv_style_set_prop_meta(lv_style_t * style, lv_style_prop_t prop, uint16_t meta);
 403:..\..\..\arduinoLCD\test\Pain Drain\libraries\lvgl\src\misc/lv_style.h **** 
 404:..\..\..\arduinoLCD\test\Pain Drain\libraries\lvgl\src\misc/lv_style.h **** /**
 405:..\..\..\arduinoLCD\test\Pain Drain\libraries\lvgl\src\misc/lv_style.h ****  * Get the value of a property
 406:..\..\..\arduinoLCD\test\Pain Drain\libraries\lvgl\src\misc/lv_style.h ****  * @param style pointer to a style
 407:..\..\..\arduinoLCD\test\Pain Drain\libraries\lvgl\src\misc/lv_style.h ****  * @param prop  the ID of a property
 408:..\..\..\arduinoLCD\test\Pain Drain\libraries\lvgl\src\misc/lv_style.h ****  * @param value pointer to a `lv_style_value_t` variable to store the value
 409:..\..\..\arduinoLCD\test\Pain Drain\libraries\lvgl\src\misc/lv_style.h ****  * @return LV_RES_INV: the property wasn't found in the style (`value` is unchanged)
 410:..\..\..\arduinoLCD\test\Pain Drain\libraries\lvgl\src\misc/lv_style.h ****  *         LV_RES_OK: the property was fond, and `value` is set accordingly
 411:..\..\..\arduinoLCD\test\Pain Drain\libraries\lvgl\src\misc/lv_style.h ****  * @note For performance reasons there are no sanity check on `style`
 412:..\..\..\arduinoLCD\test\Pain Drain\libraries\lvgl\src\misc/lv_style.h ****  */
 413:..\..\..\arduinoLCD\test\Pain Drain\libraries\lvgl\src\misc/lv_style.h **** lv_style_res_t lv_style_get_prop(const lv_style_t * style, lv_style_prop_t prop, lv_style_value_t *
 414:..\..\..\arduinoLCD\test\Pain Drain\libraries\lvgl\src\misc/lv_style.h **** 
 415:..\..\..\arduinoLCD\test\Pain Drain\libraries\lvgl\src\misc/lv_style.h **** /**
 416:..\..\..\arduinoLCD\test\Pain Drain\libraries\lvgl\src\misc/lv_style.h ****  * Initialize a transition descriptor.
 417:..\..\..\arduinoLCD\test\Pain Drain\libraries\lvgl\src\misc/lv_style.h ****  * @param tr        pointer to a transition descriptor to initialize
 418:..\..\..\arduinoLCD\test\Pain Drain\libraries\lvgl\src\misc/lv_style.h ****  * @param props     an array with the properties to transition. The last element must be zero.
 419:..\..\..\arduinoLCD\test\Pain Drain\libraries\lvgl\src\misc/lv_style.h ****  * @param path_cb   an animation path (ease) callback. If `NULL` liner path will be used.
 420:..\..\..\arduinoLCD\test\Pain Drain\libraries\lvgl\src\misc/lv_style.h ****  * @param time      duration of the transition in [ms]
 421:..\..\..\arduinoLCD\test\Pain Drain\libraries\lvgl\src\misc/lv_style.h ****  * @param delay     delay before the transition in [ms]
 422:..\..\..\arduinoLCD\test\Pain Drain\libraries\lvgl\src\misc/lv_style.h ****  * @param user_data any custom data that will be saved in the transition animation and will be avai
 423:..\..\..\arduinoLCD\test\Pain Drain\libraries\lvgl\src\misc/lv_style.h ****  * @example
 424:..\..\..\arduinoLCD\test\Pain Drain\libraries\lvgl\src\misc/lv_style.h ****  * const static lv_style_prop_t trans_props[] = { LV_STYLE_BG_OPA, LV_STYLE_BG_COLOR, 0 };
 425:..\..\..\arduinoLCD\test\Pain Drain\libraries\lvgl\src\misc/lv_style.h ****  *  static lv_style_transition_dsc_t trans1;
 426:..\..\..\arduinoLCD\test\Pain Drain\libraries\lvgl\src\misc/lv_style.h ****  *  lv_style_transition_dsc_init(&trans1, trans_props, NULL, 300, 0, NULL);
 427:..\..\..\arduinoLCD\test\Pain Drain\libraries\lvgl\src\misc/lv_style.h ****  */
 428:..\..\..\arduinoLCD\test\Pain Drain\libraries\lvgl\src\misc/lv_style.h **** void lv_style_transition_dsc_init(lv_style_transition_dsc_t * tr, const lv_style_prop_t props[],
 429:..\..\..\arduinoLCD\test\Pain Drain\libraries\lvgl\src\misc/lv_style.h ****                                   lv_anim_path_cb_t path_cb, uint32_t time, uint32_t delay, void * 
 430:..\..\..\arduinoLCD\test\Pain Drain\libraries\lvgl\src\misc/lv_style.h **** 
 431:..\..\..\arduinoLCD\test\Pain Drain\libraries\lvgl\src\misc/lv_style.h **** /**
 432:..\..\..\arduinoLCD\test\Pain Drain\libraries\lvgl\src\misc/lv_style.h ****  * Get the default value of a property
 433:..\..\..\arduinoLCD\test\Pain Drain\libraries\lvgl\src\misc/lv_style.h ****  * @param prop the ID of a property
 434:..\..\..\arduinoLCD\test\Pain Drain\libraries\lvgl\src\misc/lv_style.h ****  * @return the default value
 435:..\..\..\arduinoLCD\test\Pain Drain\libraries\lvgl\src\misc/lv_style.h ****  */
 436:..\..\..\arduinoLCD\test\Pain Drain\libraries\lvgl\src\misc/lv_style.h **** lv_style_value_t lv_style_prop_get_default(lv_style_prop_t prop);
 437:..\..\..\arduinoLCD\test\Pain Drain\libraries\lvgl\src\misc/lv_style.h **** 
 438:..\..\..\arduinoLCD\test\Pain Drain\libraries\lvgl\src\misc/lv_style.h **** /**
 439:..\..\..\arduinoLCD\test\Pain Drain\libraries\lvgl\src\misc/lv_style.h ****  * Get the value of a property
 440:..\..\..\arduinoLCD\test\Pain Drain\libraries\lvgl\src\misc/lv_style.h ****  * @param style pointer to a style
 441:..\..\..\arduinoLCD\test\Pain Drain\libraries\lvgl\src\misc/lv_style.h ****  * @param prop  the ID of a property
 442:..\..\..\arduinoLCD\test\Pain Drain\libraries\lvgl\src\misc/lv_style.h ****  * @param value pointer to a `lv_style_value_t` variable to store the value
 443:..\..\..\arduinoLCD\test\Pain Drain\libraries\lvgl\src\misc/lv_style.h ****  * @return LV_RES_INV: the property wasn't found in the style (`value` is unchanged)
 444:..\..\..\arduinoLCD\test\Pain Drain\libraries\lvgl\src\misc/lv_style.h ****  *         LV_RES_OK: the property was fond, and `value` is set accordingly
 445:..\..\..\arduinoLCD\test\Pain Drain\libraries\lvgl\src\misc/lv_style.h ****  * @note For performance reasons there are no sanity check on `style`
ARM GAS  C:\Users\haske\AppData\Local\Temp\ccdHxW38.s 			page 43


 446:..\..\..\arduinoLCD\test\Pain Drain\libraries\lvgl\src\misc/lv_style.h ****  * @note This function is the same as ::lv_style_get_prop but inlined. Use it only on performance c
 447:..\..\..\arduinoLCD\test\Pain Drain\libraries\lvgl\src\misc/lv_style.h ****  */
 448:..\..\..\arduinoLCD\test\Pain Drain\libraries\lvgl\src\misc/lv_style.h **** static inline lv_style_res_t lv_style_get_prop_inlined(const lv_style_t * style, lv_style_prop_t pr
 449:..\..\..\arduinoLCD\test\Pain Drain\libraries\lvgl\src\misc/lv_style.h ****                                                        lv_style_value_t * value)
 450:..\..\..\arduinoLCD\test\Pain Drain\libraries\lvgl\src\misc/lv_style.h **** {
 451:..\..\..\arduinoLCD\test\Pain Drain\libraries\lvgl\src\misc/lv_style.h ****     if(style->prop1 == LV_STYLE_PROP_ANY) {
 849              		.loc 3 451 0
 850 0006 8388     		ldrh	r3, [r0, #4]
 851 0008 314A     		ldr	r2, .L82
 852              	.LVL64:
 853 000a 9342     		cmp	r3, r2
 854 000c 20D1     		bne	.L81
 855 000e 19E0     		b	.L76
 856              	.LVL65:
 857              	.L69:
 858              	.LBB32:
 859              	.LBB33:
 452:..\..\..\arduinoLCD\test\Pain Drain\libraries\lvgl\src\misc/lv_style.h ****         const lv_style_const_prop_t * const_prop;
 453:..\..\..\arduinoLCD\test\Pain Drain\libraries\lvgl\src\misc/lv_style.h ****         uint32_t i;
 454:..\..\..\arduinoLCD\test\Pain Drain\libraries\lvgl\src\misc/lv_style.h ****         for(i = 0; i < style->prop_cnt; i++) {
 455:..\..\..\arduinoLCD\test\Pain Drain\libraries\lvgl\src\misc/lv_style.h ****             const_prop = style->v_p.const_props + i;
 860              		.loc 3 455 0
 861 0010 DA00     		lsls	r2, r3, #3
 862 0012 3068     		ldr	r0, [r6]
 863 0014 8446     		mov	ip, r0
 864 0016 6244     		add	r2, r2, ip
 865              	.LVL66:
 456:..\..\..\arduinoLCD\test\Pain Drain\libraries\lvgl\src\misc/lv_style.h ****             lv_style_prop_t prop_id = LV_STYLE_PROP_ID_MASK(const_prop->prop);
 866              		.loc 3 456 0
 867 0018 1088     		ldrh	r0, [r2]
 868 001a 8504     		lsls	r5, r0, #18
 869 001c AD0C     		lsrs	r5, r5, #18
 870              	.LVL67:
 457:..\..\..\arduinoLCD\test\Pain Drain\libraries\lvgl\src\misc/lv_style.h ****             if(prop_id == prop) {
 871              		.loc 3 457 0
 872 001e A942     		cmp	r1, r5
 873 0020 0ED1     		bne	.L66
 458:..\..\..\arduinoLCD\test\Pain Drain\libraries\lvgl\src\misc/lv_style.h ****                 if(const_prop->prop & LV_STYLE_PROP_META_INHERIT)
 874              		.loc 3 458 0
 875 0022 03B2     		sxth	r3, r0
 876              	.LVL68:
 877 0024 002B     		cmp	r3, #0
 878 0026 4ADB     		blt	.L77
 459:..\..\..\arduinoLCD\test\Pain Drain\libraries\lvgl\src\misc/lv_style.h ****                     return LV_STYLE_RES_INHERIT;
 460:..\..\..\arduinoLCD\test\Pain Drain\libraries\lvgl\src\misc/lv_style.h ****                 *value = (const_prop->prop & LV_STYLE_PROP_META_INITIAL) ? lv_style_prop_get_defaul
 879              		.loc 3 460 0
 880 0028 4304     		lsls	r3, r0, #17
 881 002a 05D5     		bpl	.L68
 882 002c 2800     		movs	r0, r5
 883 002e FFF7FEFF 		bl	lv_style_prop_get_default
 884              	.LVL69:
 885 0032 2060     		str	r0, [r4]
 461:..\..\..\arduinoLCD\test\Pain Drain\libraries\lvgl\src\misc/lv_style.h ****                 return LV_STYLE_RES_FOUND;
 886              		.loc 3 461 0
 887 0034 0120     		movs	r0, #1
 888 0036 49E0     		b	.L67
 889              	.LVL70:
ARM GAS  C:\Users\haske\AppData\Local\Temp\ccdHxW38.s 			page 44


 890              	.L68:
 460:..\..\..\arduinoLCD\test\Pain Drain\libraries\lvgl\src\misc/lv_style.h ****                 return LV_STYLE_RES_FOUND;
 891              		.loc 3 460 0
 892 0038 5368     		ldr	r3, [r2, #4]
 893 003a 2360     		str	r3, [r4]
 894              		.loc 3 461 0
 895 003c 0120     		movs	r0, #1
 896 003e 45E0     		b	.L67
 897              	.LVL71:
 898              	.L66:
 899              	.LBE33:
 454:..\..\..\arduinoLCD\test\Pain Drain\libraries\lvgl\src\misc/lv_style.h ****             const_prop = style->v_p.const_props + i;
 900              		.loc 3 454 0
 901 0040 0133     		adds	r3, r3, #1
 902              	.LVL72:
 903 0042 00E0     		b	.L64
 904              	.LVL73:
 905              	.L76:
 906              	.LBE32:
 451:..\..\..\arduinoLCD\test\Pain Drain\libraries\lvgl\src\misc/lv_style.h ****         const lv_style_const_prop_t * const_prop;
 907              		.loc 3 451 0
 908 0044 0023     		movs	r3, #0
 909              	.LVL74:
 910              	.L64:
 911              	.LBB35:
 454:..\..\..\arduinoLCD\test\Pain Drain\libraries\lvgl\src\misc/lv_style.h ****             const_prop = style->v_p.const_props + i;
 912              		.loc 3 454 0
 913 0046 F279     		ldrb	r2, [r6, #7]
 914 0048 9342     		cmp	r3, r2
 915 004a E1D3     		bcc	.L69
 462:..\..\..\arduinoLCD\test\Pain Drain\libraries\lvgl\src\misc/lv_style.h ****             }
 463:..\..\..\arduinoLCD\test\Pain Drain\libraries\lvgl\src\misc/lv_style.h ****         }
 464:..\..\..\arduinoLCD\test\Pain Drain\libraries\lvgl\src\misc/lv_style.h ****         return LV_STYLE_RES_NOT_FOUND;
 916              		.loc 3 464 0
 917 004c 0020     		movs	r0, #0
 918 004e 3DE0     		b	.L67
 919              	.LVL75:
 920              	.L81:
 921              	.LBE35:
 465:..\..\..\arduinoLCD\test\Pain Drain\libraries\lvgl\src\misc/lv_style.h ****     }
 466:..\..\..\arduinoLCD\test\Pain Drain\libraries\lvgl\src\misc/lv_style.h **** 
 467:..\..\..\arduinoLCD\test\Pain Drain\libraries\lvgl\src\misc/lv_style.h ****     if(style->prop_cnt == 0) return LV_STYLE_RES_NOT_FOUND;
 922              		.loc 3 467 0
 923 0050 C079     		ldrb	r0, [r0, #7]
 924              	.LVL76:
 925 0052 0028     		cmp	r0, #0
 926 0054 3AD0     		beq	.L67
 468:..\..\..\arduinoLCD\test\Pain Drain\libraries\lvgl\src\misc/lv_style.h **** 
 469:..\..\..\arduinoLCD\test\Pain Drain\libraries\lvgl\src\misc/lv_style.h ****     if(style->prop_cnt > 1) {
 927              		.loc 3 469 0
 928 0056 0128     		cmp	r0, #1
 929 0058 1FD9     		bls	.L70
 930              	.LBB36:
 470:..\..\..\arduinoLCD\test\Pain Drain\libraries\lvgl\src\misc/lv_style.h ****         uint8_t * tmp = style->v_p.values_and_props + style->prop_cnt * sizeof(lv_style_value_t);
 931              		.loc 3 470 0
 932 005a 3768     		ldr	r7, [r6]
 933 005c 0600     		movs	r6, r0
ARM GAS  C:\Users\haske\AppData\Local\Temp\ccdHxW38.s 			page 45


 934              	.LVL77:
 935 005e 8500     		lsls	r5, r0, #2
 936              	.LVL78:
 471:..\..\..\arduinoLCD\test\Pain Drain\libraries\lvgl\src\misc/lv_style.h ****         uint16_t * props = (uint16_t *)tmp;
 472:..\..\..\arduinoLCD\test\Pain Drain\libraries\lvgl\src\misc/lv_style.h ****         uint32_t i;
 473:..\..\..\arduinoLCD\test\Pain Drain\libraries\lvgl\src\misc/lv_style.h ****         for(i = 0; i < style->prop_cnt; i++) {
 937              		.loc 3 473 0
 938 0060 0023     		movs	r3, #0
 939 0062 16E0     		b	.L71
 940              	.LVL79:
 941              	.L74:
 942              	.LBB37:
 474:..\..\..\arduinoLCD\test\Pain Drain\libraries\lvgl\src\misc/lv_style.h ****             lv_style_prop_t prop_id = LV_STYLE_PROP_ID_MASK(props[i]);
 943              		.loc 3 474 0
 944 0064 5A00     		lsls	r2, r3, #1
 945 0066 AA18     		adds	r2, r5, r2
 946 0068 BA5A     		ldrh	r2, [r7, r2]
 947 006a 9004     		lsls	r0, r2, #18
 948 006c 800C     		lsrs	r0, r0, #18
 949              	.LVL80:
 475:..\..\..\arduinoLCD\test\Pain Drain\libraries\lvgl\src\misc/lv_style.h ****             if(prop_id == prop) {
 950              		.loc 3 475 0
 951 006e 8142     		cmp	r1, r0
 952 0070 0ED1     		bne	.L72
 476:..\..\..\arduinoLCD\test\Pain Drain\libraries\lvgl\src\misc/lv_style.h ****                 if(props[i] & LV_STYLE_PROP_META_INHERIT)
 953              		.loc 3 476 0
 954 0072 11B2     		sxth	r1, r2
 955              	.LVL81:
 956 0074 0029     		cmp	r1, #0
 957 0076 24DB     		blt	.L78
 477:..\..\..\arduinoLCD\test\Pain Drain\libraries\lvgl\src\misc/lv_style.h ****                     return LV_STYLE_RES_INHERIT;
 478:..\..\..\arduinoLCD\test\Pain Drain\libraries\lvgl\src\misc/lv_style.h ****                 if(props[i] & LV_STYLE_PROP_META_INITIAL)
 958              		.loc 3 478 0
 959 0078 5204     		lsls	r2, r2, #17
 960 007a 04D5     		bpl	.L73
 479:..\..\..\arduinoLCD\test\Pain Drain\libraries\lvgl\src\misc/lv_style.h ****                     *value = lv_style_prop_get_default(prop_id);
 961              		.loc 3 479 0
 962 007c FFF7FEFF 		bl	lv_style_prop_get_default
 963              	.LVL82:
 964 0080 2060     		str	r0, [r4]
 480:..\..\..\arduinoLCD\test\Pain Drain\libraries\lvgl\src\misc/lv_style.h ****                 else {
 481:..\..\..\arduinoLCD\test\Pain Drain\libraries\lvgl\src\misc/lv_style.h ****                     lv_style_value_t * values = (lv_style_value_t *)style->v_p.values_and_props;
 482:..\..\..\arduinoLCD\test\Pain Drain\libraries\lvgl\src\misc/lv_style.h ****                     *value = values[i];
 483:..\..\..\arduinoLCD\test\Pain Drain\libraries\lvgl\src\misc/lv_style.h ****                 }
 484:..\..\..\arduinoLCD\test\Pain Drain\libraries\lvgl\src\misc/lv_style.h ****                 return LV_STYLE_RES_FOUND;
 965              		.loc 3 484 0
 966 0082 0120     		movs	r0, #1
 967 0084 22E0     		b	.L67
 968              	.LVL83:
 969              	.L73:
 970              	.LBB38:
 482:..\..\..\arduinoLCD\test\Pain Drain\libraries\lvgl\src\misc/lv_style.h ****                 }
 971              		.loc 3 482 0
 972 0086 9B00     		lsls	r3, r3, #2
 973              	.LVL84:
 974 0088 FB58     		ldr	r3, [r7, r3]
 975 008a 2360     		str	r3, [r4]
ARM GAS  C:\Users\haske\AppData\Local\Temp\ccdHxW38.s 			page 46


 976              	.LBE38:
 977              		.loc 3 484 0
 978 008c 0120     		movs	r0, #1
 979              	.LVL85:
 980 008e 1DE0     		b	.L67
 981              	.LVL86:
 982              	.L72:
 983              	.LBE37:
 473:..\..\..\arduinoLCD\test\Pain Drain\libraries\lvgl\src\misc/lv_style.h ****             lv_style_prop_t prop_id = LV_STYLE_PROP_ID_MASK(props[i]);
 984              		.loc 3 473 0
 985 0090 0133     		adds	r3, r3, #1
 986              	.LVL87:
 987              	.L71:
 988 0092 9E42     		cmp	r6, r3
 989 0094 E6D8     		bhi	.L74
 990              	.LBE36:
 485:..\..\..\arduinoLCD\test\Pain Drain\libraries\lvgl\src\misc/lv_style.h ****             }
 486:..\..\..\arduinoLCD\test\Pain Drain\libraries\lvgl\src\misc/lv_style.h ****         }
 487:..\..\..\arduinoLCD\test\Pain Drain\libraries\lvgl\src\misc/lv_style.h ****     }
 488:..\..\..\arduinoLCD\test\Pain Drain\libraries\lvgl\src\misc/lv_style.h ****     else if(LV_STYLE_PROP_ID_MASK(style->prop1) == prop) {
 489:..\..\..\arduinoLCD\test\Pain Drain\libraries\lvgl\src\misc/lv_style.h ****         if(style->prop1 & LV_STYLE_PROP_META_INHERIT)
 490:..\..\..\arduinoLCD\test\Pain Drain\libraries\lvgl\src\misc/lv_style.h ****             return LV_STYLE_RES_INHERIT;
 491:..\..\..\arduinoLCD\test\Pain Drain\libraries\lvgl\src\misc/lv_style.h ****         *value = (style->prop1 & LV_STYLE_PROP_META_INITIAL) ? lv_style_prop_get_default(LV_STYLE_P
 492:..\..\..\arduinoLCD\test\Pain Drain\libraries\lvgl\src\misc/lv_style.h ****                                                                                              style-
 493:..\..\..\arduinoLCD\test\Pain Drain\libraries\lvgl\src\misc/lv_style.h ****         return LV_STYLE_RES_FOUND;
 494:..\..\..\arduinoLCD\test\Pain Drain\libraries\lvgl\src\misc/lv_style.h ****     }
 495:..\..\..\arduinoLCD\test\Pain Drain\libraries\lvgl\src\misc/lv_style.h ****     return LV_STYLE_RES_NOT_FOUND;
 991              		.loc 3 495 0
 992 0096 0020     		movs	r0, #0
 993 0098 18E0     		b	.L67
 994              	.LVL88:
 995              	.L70:
 996 009a 9804     		lsls	r0, r3, #18
 997 009c 800C     		lsrs	r0, r0, #18
 488:..\..\..\arduinoLCD\test\Pain Drain\libraries\lvgl\src\misc/lv_style.h ****         if(style->prop1 & LV_STYLE_PROP_META_INHERIT)
 998              		.loc 3 488 0
 999 009e 8842     		cmp	r0, r1
 1000 00a0 11D1     		bne	.L79
 489:..\..\..\arduinoLCD\test\Pain Drain\libraries\lvgl\src\misc/lv_style.h ****             return LV_STYLE_RES_INHERIT;
 1001              		.loc 3 489 0
 1002 00a2 1AB2     		sxth	r2, r3
 1003 00a4 002A     		cmp	r2, #0
 1004 00a6 10DB     		blt	.L80
 491:..\..\..\arduinoLCD\test\Pain Drain\libraries\lvgl\src\misc/lv_style.h ****                                                                                              style-
 1005              		.loc 3 491 0
 1006 00a8 5B04     		lsls	r3, r3, #17
 1007 00aa 04D5     		bpl	.L75
 1008 00ac FFF7FEFF 		bl	lv_style_prop_get_default
 1009              	.LVL89:
 1010 00b0 2060     		str	r0, [r4]
 493:..\..\..\arduinoLCD\test\Pain Drain\libraries\lvgl\src\misc/lv_style.h ****     }
 1011              		.loc 3 493 0
 1012 00b2 0120     		movs	r0, #1
 1013 00b4 0AE0     		b	.L67
 1014              	.LVL90:
 1015              	.L75:
 491:..\..\..\arduinoLCD\test\Pain Drain\libraries\lvgl\src\misc/lv_style.h ****                                                                                              style-
ARM GAS  C:\Users\haske\AppData\Local\Temp\ccdHxW38.s 			page 47


 1016              		.loc 3 491 0
 1017 00b6 3368     		ldr	r3, [r6]
 1018 00b8 2360     		str	r3, [r4]
 493:..\..\..\arduinoLCD\test\Pain Drain\libraries\lvgl\src\misc/lv_style.h ****     }
 1019              		.loc 3 493 0
 1020 00ba 0120     		movs	r0, #1
 1021 00bc 06E0     		b	.L67
 1022              	.LVL91:
 1023              	.L77:
 1024              	.LBB40:
 1025              	.LBB34:
 459:..\..\..\arduinoLCD\test\Pain Drain\libraries\lvgl\src\misc/lv_style.h ****                 *value = (const_prop->prop & LV_STYLE_PROP_META_INITIAL) ? lv_style_prop_get_defaul
 1026              		.loc 3 459 0
 1027 00be 0220     		movs	r0, #2
 1028 00c0 04E0     		b	.L67
 1029              	.LVL92:
 1030              	.L78:
 1031              	.LBE34:
 1032              	.LBE40:
 1033              	.LBB41:
 1034              	.LBB39:
 477:..\..\..\arduinoLCD\test\Pain Drain\libraries\lvgl\src\misc/lv_style.h ****                 if(props[i] & LV_STYLE_PROP_META_INITIAL)
 1035              		.loc 3 477 0
 1036 00c2 0220     		movs	r0, #2
 1037              	.LVL93:
 1038 00c4 02E0     		b	.L67
 1039              	.LVL94:
 1040              	.L79:
 1041              	.LBE39:
 1042              	.LBE41:
 1043              		.loc 3 495 0
 1044 00c6 0020     		movs	r0, #0
 1045 00c8 00E0     		b	.L67
 1046              	.L80:
 490:..\..\..\arduinoLCD\test\Pain Drain\libraries\lvgl\src\misc/lv_style.h ****         *value = (style->prop1 & LV_STYLE_PROP_META_INITIAL) ? lv_style_prop_get_default(LV_STYLE_P
 1047              		.loc 3 490 0
 1048 00ca 0220     		movs	r0, #2
 1049              	.LVL95:
 1050              	.L67:
 1051              	.LBE31:
 1052              	.LBE30:
 295:..\..\..\arduinoLCD\test\Pain Drain\libraries\lvgl\src\misc/lv_style.c **** 
 1053              		.loc 1 295 0
 1054              		@ sp needed
 1055              	.LVL96:
 1056 00cc F8BD     		pop	{r3, r4, r5, r6, r7, pc}
 1057              	.L83:
 1058 00ce C046     		.align	2
 1059              	.L82:
 1060 00d0 FFFF0000 		.word	65535
 1061              		.cfi_endproc
 1062              	.LFE63:
 1063              		.size	lv_style_get_prop, .-lv_style_get_prop
 1064              		.section	.text.lv_style_is_empty,"ax",%progbits
 1065              		.align	2
 1066              		.global	lv_style_is_empty
 1067              		.code	16
ARM GAS  C:\Users\haske\AppData\Local\Temp\ccdHxW38.s 			page 48


 1068              		.thumb_func
 1069              		.type	lv_style_is_empty, %function
 1070              	lv_style_is_empty:
 1071              	.LFB66:
 366:..\..\..\arduinoLCD\test\Pain Drain\libraries\lvgl\src\misc/lv_style.c ****     LV_ASSERT_STYLE(style);
 1072              		.loc 1 366 0
 1073              		.cfi_startproc
 1074              		@ args = 0, pretend = 0, frame = 0
 1075              		@ frame_needed = 0, uses_anonymous_args = 0
 1076              		@ link register save eliminated.
 1077              	.LVL97:
 369:..\..\..\arduinoLCD\test\Pain Drain\libraries\lvgl\src\misc/lv_style.c **** }
 1078              		.loc 1 369 0
 1079 0000 C079     		ldrb	r0, [r0, #7]
 1080              	.LVL98:
 1081 0002 4342     		rsbs	r3, r0, #0
 1082 0004 5841     		adcs	r0, r0, r3
 1083 0006 C0B2     		uxtb	r0, r0
 370:..\..\..\arduinoLCD\test\Pain Drain\libraries\lvgl\src\misc/lv_style.c **** 
 1084              		.loc 1 370 0
 1085              		@ sp needed
 1086 0008 7047     		bx	lr
 1087              		.cfi_endproc
 1088              	.LFE66:
 1089              		.size	lv_style_is_empty, .-lv_style_is_empty
 1090 000a C046     		.section	.text._lv_style_get_prop_group,"ax",%progbits
 1091              		.align	2
 1092              		.global	_lv_style_get_prop_group
 1093              		.code	16
 1094              		.thumb_func
 1095              		.type	_lv_style_get_prop_group, %function
 1096              	_lv_style_get_prop_group:
 1097              	.LFB67:
 373:..\..\..\arduinoLCD\test\Pain Drain\libraries\lvgl\src\misc/lv_style.c ****     uint16_t group = (prop & 0x1FF) >> 4;
 1098              		.loc 1 373 0
 1099              		.cfi_startproc
 1100              		@ args = 0, pretend = 0, frame = 0
 1101              		@ frame_needed = 0, uses_anonymous_args = 0
 1102              		@ link register save eliminated.
 1103              	.LVL99:
 374:..\..\..\arduinoLCD\test\Pain Drain\libraries\lvgl\src\misc/lv_style.c ****     if(group > 7) group = 7;    /*The MSB marks all the custom properties*/
 1104              		.loc 1 374 0
 1105 0000 0011     		asrs	r0, r0, #4
 1106              	.LVL100:
 1107 0002 1F23     		movs	r3, #31
 1108 0004 1840     		ands	r0, r3
 1109              	.LVL101:
 375:..\..\..\arduinoLCD\test\Pain Drain\libraries\lvgl\src\misc/lv_style.c ****     return (uint8_t)group;
 1110              		.loc 1 375 0
 1111 0006 0728     		cmp	r0, #7
 1112 0008 00D9     		bls	.L86
 1113 000a 0720     		movs	r0, #7
 1114              	.LVL102:
 1115              	.L86:
 376:..\..\..\arduinoLCD\test\Pain Drain\libraries\lvgl\src\misc/lv_style.c **** }
 1116              		.loc 1 376 0
 1117 000c C0B2     		uxtb	r0, r0
ARM GAS  C:\Users\haske\AppData\Local\Temp\ccdHxW38.s 			page 49


 1118              	.LVL103:
 377:..\..\..\arduinoLCD\test\Pain Drain\libraries\lvgl\src\misc/lv_style.c **** 
 1119              		.loc 1 377 0
 1120              		@ sp needed
 1121 000e 7047     		bx	lr
 1122              		.cfi_endproc
 1123              	.LFE67:
 1124              		.size	_lv_style_get_prop_group, .-_lv_style_get_prop_group
 1125              		.section	.text.lv_style_set_prop_internal,"ax",%progbits
 1126              		.align	2
 1127              		.code	16
 1128              		.thumb_func
 1129              		.type	lv_style_set_prop_internal, %function
 1130              	lv_style_set_prop_internal:
 1131              	.LFB71:
 412:..\..\..\arduinoLCD\test\Pain Drain\libraries\lvgl\src\misc/lv_style.c **** 
 413:..\..\..\arduinoLCD\test\Pain Drain\libraries\lvgl\src\misc/lv_style.c **** static void lv_style_set_prop_internal(lv_style_t * style, lv_style_prop_t prop_and_meta, lv_style_
 414:..\..\..\arduinoLCD\test\Pain Drain\libraries\lvgl\src\misc/lv_style.c ****                                        void (*value_adjustment_helper)(lv_style_prop_t, lv_style_va
 415:..\..\..\arduinoLCD\test\Pain Drain\libraries\lvgl\src\misc/lv_style.c **** {
 1132              		.loc 1 415 0
 1133              		.cfi_startproc
 1134              		@ args = 0, pretend = 0, frame = 16
 1135              		@ frame_needed = 0, uses_anonymous_args = 0
 1136              	.LVL104:
 1137 0000 F0B5     		push	{r4, r5, r6, r7, lr}
 1138              		.cfi_def_cfa_offset 20
 1139              		.cfi_offset 4, -20
 1140              		.cfi_offset 5, -16
 1141              		.cfi_offset 6, -12
 1142              		.cfi_offset 7, -8
 1143              		.cfi_offset 14, -4
 1144 0002 85B0     		sub	sp, sp, #20
 1145              		.cfi_def_cfa_offset 40
 1146 0004 0600     		movs	r6, r0
 1147 0006 0191     		str	r1, [sp, #4]
 1148 0008 0292     		str	r2, [sp, #8]
 1149 000a 0393     		str	r3, [sp, #12]
 416:..\..\..\arduinoLCD\test\Pain Drain\libraries\lvgl\src\misc/lv_style.c ****     LV_ASSERT_STYLE(style);
 417:..\..\..\arduinoLCD\test\Pain Drain\libraries\lvgl\src\misc/lv_style.c **** 
 418:..\..\..\arduinoLCD\test\Pain Drain\libraries\lvgl\src\misc/lv_style.c ****     if(style->prop1 == LV_STYLE_PROP_ANY) {
 1150              		.loc 1 418 0
 1151 000c 8388     		ldrh	r3, [r0, #4]
 1152              	.LVL105:
 1153 000e 424A     		ldr	r2, .L100
 1154              	.LVL106:
 1155 0010 9342     		cmp	r3, r2
 1156 0012 00D1     		bne	.LCB1181
 1157 0014 7EE0     		b	.L88	@long jump
 1158              	.LCB1181:
 419:..\..\..\arduinoLCD\test\Pain Drain\libraries\lvgl\src\misc/lv_style.c ****         LV_LOG_ERROR("Cannot set property of constant style");
 420:..\..\..\arduinoLCD\test\Pain Drain\libraries\lvgl\src\misc/lv_style.c ****         return;
 421:..\..\..\arduinoLCD\test\Pain Drain\libraries\lvgl\src\misc/lv_style.c ****     }
 422:..\..\..\arduinoLCD\test\Pain Drain\libraries\lvgl\src\misc/lv_style.c **** 
 423:..\..\..\arduinoLCD\test\Pain Drain\libraries\lvgl\src\misc/lv_style.c ****     lv_style_prop_t prop_id = LV_STYLE_PROP_ID_MASK(prop_and_meta);
 1159              		.loc 1 423 0
 1160 0016 8F04     		lsls	r7, r1, #18
 1161 0018 BF0C     		lsrs	r7, r7, #18
ARM GAS  C:\Users\haske\AppData\Local\Temp\ccdHxW38.s 			page 50


 1162              	.LVL107:
 424:..\..\..\arduinoLCD\test\Pain Drain\libraries\lvgl\src\misc/lv_style.c **** 
 425:..\..\..\arduinoLCD\test\Pain Drain\libraries\lvgl\src\misc/lv_style.c ****     if(style->prop_cnt > 1) {
 1163              		.loc 1 425 0
 1164 001a C579     		ldrb	r5, [r0, #7]
 1165 001c 012D     		cmp	r5, #1
 1166 001e 42D9     		bls	.L90
 1167              	.LBB42:
 426:..\..\..\arduinoLCD\test\Pain Drain\libraries\lvgl\src\misc/lv_style.c ****         uint8_t * tmp = style->v_p.values_and_props + style->prop_cnt * sizeof(lv_style_value_t);
 1168              		.loc 1 426 0
 1169 0020 0468     		ldr	r4, [r0]
 1170 0022 AB00     		lsls	r3, r5, #2
 1171              	.LVL108:
 427:..\..\..\arduinoLCD\test\Pain Drain\libraries\lvgl\src\misc/lv_style.c ****         uint16_t * props = (uint16_t *)tmp;
 428:..\..\..\arduinoLCD\test\Pain Drain\libraries\lvgl\src\misc/lv_style.c ****         int32_t i;
 429:..\..\..\arduinoLCD\test\Pain Drain\libraries\lvgl\src\misc/lv_style.c ****         for(i = style->prop_cnt - 1; i >= 0; i--) {
 1172              		.loc 1 429 0
 1173 0024 681E     		subs	r0, r5, #1
 1174              	.LVL109:
 1175 0026 10E0     		b	.L91
 1176              	.LVL110:
 1177              	.L93:
 430:..\..\..\arduinoLCD\test\Pain Drain\libraries\lvgl\src\misc/lv_style.c ****             if(LV_STYLE_PROP_ID_MASK(props[i]) == prop_id) {
 1178              		.loc 1 430 0
 1179 0028 0090     		str	r0, [sp]
 1180 002a 4200     		lsls	r2, r0, #1
 1181 002c 9A18     		adds	r2, r3, r2
 1182 002e A218     		adds	r2, r4, r2
 1183 0030 1188     		ldrh	r1, [r2]
 1184 0032 8904     		lsls	r1, r1, #18
 1185 0034 890C     		lsrs	r1, r1, #18
 1186 0036 B942     		cmp	r1, r7
 1187 0038 06D1     		bne	.L92
 1188              	.LVL111:
 1189              	.LBB43:
 431:..\..\..\arduinoLCD\test\Pain Drain\libraries\lvgl\src\misc/lv_style.c ****                 lv_style_value_t * values = (lv_style_value_t *)style->v_p.values_and_props;
 432:..\..\..\arduinoLCD\test\Pain Drain\libraries\lvgl\src\misc/lv_style.c ****                 value_adjustment_helper(prop_and_meta, value, &props[i], &values[i]);
 1190              		.loc 1 432 0
 1191 003a 8300     		lsls	r3, r0, #2
 1192              	.LVL112:
 1193 003c E318     		adds	r3, r4, r3
 1194 003e 0299     		ldr	r1, [sp, #8]
 1195 0040 0198     		ldr	r0, [sp, #4]
 1196              	.LVL113:
 1197 0042 039C     		ldr	r4, [sp, #12]
 1198              	.LVL114:
 1199 0044 A047     		blx	r4
 1200              	.LVL115:
 433:..\..\..\arduinoLCD\test\Pain Drain\libraries\lvgl\src\misc/lv_style.c ****                 return;
 1201              		.loc 1 433 0
 1202 0046 65E0     		b	.L88
 1203              	.LVL116:
 1204              	.L92:
 1205              	.LBE43:
 429:..\..\..\arduinoLCD\test\Pain Drain\libraries\lvgl\src\misc/lv_style.c ****             if(LV_STYLE_PROP_ID_MASK(props[i]) == prop_id) {
 1206              		.loc 1 429 0 discriminator 2
 1207 0048 0138     		subs	r0, r0, #1
ARM GAS  C:\Users\haske\AppData\Local\Temp\ccdHxW38.s 			page 51


 1208              	.LVL117:
 1209              	.L91:
 429:..\..\..\arduinoLCD\test\Pain Drain\libraries\lvgl\src\misc/lv_style.c ****             if(LV_STYLE_PROP_ID_MASK(props[i]) == prop_id) {
 1210              		.loc 1 429 0 is_stmt 0 discriminator 1
 1211 004a 0028     		cmp	r0, #0
 1212 004c ECDA     		bge	.L93
 434:..\..\..\arduinoLCD\test\Pain Drain\libraries\lvgl\src\misc/lv_style.c ****             }
 435:..\..\..\arduinoLCD\test\Pain Drain\libraries\lvgl\src\misc/lv_style.c ****         }
 436:..\..\..\arduinoLCD\test\Pain Drain\libraries\lvgl\src\misc/lv_style.c **** 
 437:..\..\..\arduinoLCD\test\Pain Drain\libraries\lvgl\src\misc/lv_style.c ****         size_t size = (style->prop_cnt + 1) * (sizeof(lv_style_value_t) + sizeof(uint16_t));
 1213              		.loc 1 437 0 is_stmt 1
 1214 004e 6B1C     		adds	r3, r5, #1
 1215              	.LVL118:
 1216 0050 5A00     		lsls	r2, r3, #1
 1217 0052 D318     		adds	r3, r2, r3
 1218 0054 5900     		lsls	r1, r3, #1
 1219              	.LVL119:
 438:..\..\..\arduinoLCD\test\Pain Drain\libraries\lvgl\src\misc/lv_style.c ****         uint8_t * values_and_props = lv_mem_realloc(style->v_p.values_and_props, size);
 1220              		.loc 1 438 0
 1221 0056 2000     		movs	r0, r4
 1222              	.LVL120:
 1223 0058 FFF7FEFF 		bl	lv_mem_realloc
 1224              	.LVL121:
 439:..\..\..\arduinoLCD\test\Pain Drain\libraries\lvgl\src\misc/lv_style.c ****         if(values_and_props == NULL) return;
 1225              		.loc 1 439 0
 1226 005c 0028     		cmp	r0, #0
 1227 005e 59D0     		beq	.L88
 440:..\..\..\arduinoLCD\test\Pain Drain\libraries\lvgl\src\misc/lv_style.c ****         style->v_p.values_and_props = values_and_props;
 1228              		.loc 1 440 0
 1229 0060 3060     		str	r0, [r6]
 441:..\..\..\arduinoLCD\test\Pain Drain\libraries\lvgl\src\misc/lv_style.c **** 
 442:..\..\..\arduinoLCD\test\Pain Drain\libraries\lvgl\src\misc/lv_style.c ****         tmp = values_and_props + style->prop_cnt * sizeof(lv_style_value_t);
 1230              		.loc 1 442 0
 1231 0062 F179     		ldrb	r1, [r6, #7]
 1232 0064 8A00     		lsls	r2, r1, #2
 1233              	.LVL122:
 443:..\..\..\arduinoLCD\test\Pain Drain\libraries\lvgl\src\misc/lv_style.c ****         props = (uint16_t *)tmp;
 444:..\..\..\arduinoLCD\test\Pain Drain\libraries\lvgl\src\misc/lv_style.c ****         /*Shift all props to make place for the value before them*/
 445:..\..\..\arduinoLCD\test\Pain Drain\libraries\lvgl\src\misc/lv_style.c ****         for(i = style->prop_cnt - 1; i >= 0; i--) {
 1234              		.loc 1 445 0
 1235 0066 0139     		subs	r1, r1, #1
 1236              	.LVL123:
 1237 0068 07E0     		b	.L94
 1238              	.LVL124:
 1239              	.L95:
 446:..\..\..\arduinoLCD\test\Pain Drain\libraries\lvgl\src\misc/lv_style.c ****             props[i + sizeof(lv_style_value_t) / sizeof(uint16_t)] = props[i];
 1240              		.loc 1 446 0 discriminator 3
 1241 006a 8B1C     		adds	r3, r1, #2
 1242 006c 5B00     		lsls	r3, r3, #1
 1243 006e D318     		adds	r3, r2, r3
 1244 0070 4C00     		lsls	r4, r1, #1
 1245 0072 8518     		adds	r5, r0, r2
 1246 0074 2C5B     		ldrh	r4, [r5, r4]
 1247 0076 C452     		strh	r4, [r0, r3]
 445:..\..\..\arduinoLCD\test\Pain Drain\libraries\lvgl\src\misc/lv_style.c ****             props[i + sizeof(lv_style_value_t) / sizeof(uint16_t)] = props[i];
 1248              		.loc 1 445 0 discriminator 3
 1249 0078 0139     		subs	r1, r1, #1
ARM GAS  C:\Users\haske\AppData\Local\Temp\ccdHxW38.s 			page 52


 1250              	.LVL125:
 1251              	.L94:
 445:..\..\..\arduinoLCD\test\Pain Drain\libraries\lvgl\src\misc/lv_style.c ****             props[i + sizeof(lv_style_value_t) / sizeof(uint16_t)] = props[i];
 1252              		.loc 1 445 0 is_stmt 0 discriminator 1
 1253 007a 0029     		cmp	r1, #0
 1254 007c F5DA     		bge	.L95
 447:..\..\..\arduinoLCD\test\Pain Drain\libraries\lvgl\src\misc/lv_style.c ****         }
 448:..\..\..\arduinoLCD\test\Pain Drain\libraries\lvgl\src\misc/lv_style.c ****         style->prop_cnt++;
 1255              		.loc 1 448 0 is_stmt 1
 1256 007e F379     		ldrb	r3, [r6, #7]
 1257 0080 0133     		adds	r3, r3, #1
 1258 0082 DBB2     		uxtb	r3, r3
 1259 0084 F371     		strb	r3, [r6, #7]
 449:..\..\..\arduinoLCD\test\Pain Drain\libraries\lvgl\src\misc/lv_style.c **** 
 450:..\..\..\arduinoLCD\test\Pain Drain\libraries\lvgl\src\misc/lv_style.c ****         /*Go to the new position wit the props*/
 451:..\..\..\arduinoLCD\test\Pain Drain\libraries\lvgl\src\misc/lv_style.c ****         tmp = values_and_props + style->prop_cnt * sizeof(lv_style_value_t);
 1260              		.loc 1 451 0
 1261 0086 9900     		lsls	r1, r3, #2
 1262              	.LVL126:
 452:..\..\..\arduinoLCD\test\Pain Drain\libraries\lvgl\src\misc/lv_style.c ****         props = (uint16_t *)tmp;
 453:..\..\..\arduinoLCD\test\Pain Drain\libraries\lvgl\src\misc/lv_style.c ****         lv_style_value_t * values = (lv_style_value_t *)values_and_props;
 454:..\..\..\arduinoLCD\test\Pain Drain\libraries\lvgl\src\misc/lv_style.c **** 
 455:..\..\..\arduinoLCD\test\Pain Drain\libraries\lvgl\src\misc/lv_style.c ****         /*Set the new property and value*/
 456:..\..\..\arduinoLCD\test\Pain Drain\libraries\lvgl\src\misc/lv_style.c ****         value_adjustment_helper(prop_and_meta, value, &props[style->prop_cnt - 1], &values[style->p
 1263              		.loc 1 456 0
 1264 0088 244A     		ldr	r2, .L100+4
 1265 008a 9A18     		adds	r2, r3, r2
 1266 008c 5200     		lsls	r2, r2, #1
 1267 008e 244C     		ldr	r4, .L100+8
 1268 0090 A446     		mov	ip, r4
 1269 0092 6344     		add	r3, r3, ip
 1270 0094 9B00     		lsls	r3, r3, #2
 1271 0096 C318     		adds	r3, r0, r3
 1272 0098 8A18     		adds	r2, r1, r2
 1273 009a 8218     		adds	r2, r0, r2
 1274 009c 0299     		ldr	r1, [sp, #8]
 1275              	.LVL127:
 1276 009e 0198     		ldr	r0, [sp, #4]
 1277              	.LVL128:
 1278 00a0 039C     		ldr	r4, [sp, #12]
 1279 00a2 A047     		blx	r4
 1280              	.LVL129:
 1281              	.LBE42:
 1282 00a4 2EE0     		b	.L96
 1283              	.LVL130:
 1284              	.L90:
 457:..\..\..\arduinoLCD\test\Pain Drain\libraries\lvgl\src\misc/lv_style.c ****     }
 458:..\..\..\arduinoLCD\test\Pain Drain\libraries\lvgl\src\misc/lv_style.c ****     else if(style->prop_cnt == 1) {
 1285              		.loc 1 458 0
 1286 00a6 012D     		cmp	r5, #1
 1287 00a8 24D1     		bne	.L97
 1288              	.LBB44:
 459:..\..\..\arduinoLCD\test\Pain Drain\libraries\lvgl\src\misc/lv_style.c ****         if(LV_STYLE_PROP_ID_MASK(style->prop1) == prop_id) {
 1289              		.loc 1 459 0
 1290 00aa 9B04     		lsls	r3, r3, #18
 1291 00ac 9B0C     		lsrs	r3, r3, #18
 1292 00ae BB42     		cmp	r3, r7
ARM GAS  C:\Users\haske\AppData\Local\Temp\ccdHxW38.s 			page 53


 1293 00b0 06D1     		bne	.L98
 460:..\..\..\arduinoLCD\test\Pain Drain\libraries\lvgl\src\misc/lv_style.c ****             value_adjustment_helper(prop_and_meta, value, &style->prop1, &style->v_p.value1);
 1294              		.loc 1 460 0
 1295 00b2 021D     		adds	r2, r0, #4
 1296 00b4 0300     		movs	r3, r0
 1297 00b6 0299     		ldr	r1, [sp, #8]
 1298              	.LVL131:
 1299 00b8 0198     		ldr	r0, [sp, #4]
 1300              	.LVL132:
 1301 00ba 039C     		ldr	r4, [sp, #12]
 1302 00bc A047     		blx	r4
 1303              	.LVL133:
 461:..\..\..\arduinoLCD\test\Pain Drain\libraries\lvgl\src\misc/lv_style.c ****             return;
 1304              		.loc 1 461 0
 1305 00be 29E0     		b	.L88
 1306              	.LVL134:
 1307              	.L98:
 462:..\..\..\arduinoLCD\test\Pain Drain\libraries\lvgl\src\misc/lv_style.c ****         }
 463:..\..\..\arduinoLCD\test\Pain Drain\libraries\lvgl\src\misc/lv_style.c ****         size_t size = (style->prop_cnt + 1) * (sizeof(lv_style_value_t) + sizeof(uint16_t));
 1308              		.loc 1 463 0
 1309 00c0 6B1C     		adds	r3, r5, #1
 1310 00c2 5A00     		lsls	r2, r3, #1
 1311 00c4 D318     		adds	r3, r2, r3
 1312 00c6 5800     		lsls	r0, r3, #1
 1313              	.LVL135:
 464:..\..\..\arduinoLCD\test\Pain Drain\libraries\lvgl\src\misc/lv_style.c ****         uint8_t * values_and_props = lv_mem_alloc(size);
 1314              		.loc 1 464 0
 1315 00c8 FFF7FEFF 		bl	lv_mem_alloc
 1316              	.LVL136:
 465:..\..\..\arduinoLCD\test\Pain Drain\libraries\lvgl\src\misc/lv_style.c ****         if(values_and_props == NULL) return;
 1317              		.loc 1 465 0
 1318 00cc 0028     		cmp	r0, #0
 1319 00ce 21D0     		beq	.L88
 466:..\..\..\arduinoLCD\test\Pain Drain\libraries\lvgl\src\misc/lv_style.c ****         lv_style_value_t value_tmp = style->v_p.value1;
 1320              		.loc 1 466 0
 1321 00d0 3268     		ldr	r2, [r6]
 1322              	.LVL137:
 467:..\..\..\arduinoLCD\test\Pain Drain\libraries\lvgl\src\misc/lv_style.c ****         style->v_p.values_and_props = values_and_props;
 1323              		.loc 1 467 0
 1324 00d2 3060     		str	r0, [r6]
 468:..\..\..\arduinoLCD\test\Pain Drain\libraries\lvgl\src\misc/lv_style.c ****         style->prop_cnt++;
 1325              		.loc 1 468 0
 1326 00d4 F179     		ldrb	r1, [r6, #7]
 1327 00d6 4B1C     		adds	r3, r1, #1
 1328 00d8 D9B2     		uxtb	r1, r3
 1329 00da F171     		strb	r1, [r6, #7]
 469:..\..\..\arduinoLCD\test\Pain Drain\libraries\lvgl\src\misc/lv_style.c **** 
 470:..\..\..\arduinoLCD\test\Pain Drain\libraries\lvgl\src\misc/lv_style.c ****         uint8_t * tmp = values_and_props + style->prop_cnt * sizeof(lv_style_value_t);
 1330              		.loc 1 470 0
 1331 00dc 8900     		lsls	r1, r1, #2
 1332              	.LVL138:
 471:..\..\..\arduinoLCD\test\Pain Drain\libraries\lvgl\src\misc/lv_style.c ****         uint16_t * props = (uint16_t *)tmp;
 472:..\..\..\arduinoLCD\test\Pain Drain\libraries\lvgl\src\misc/lv_style.c ****         lv_style_value_t * values = (lv_style_value_t *)values_and_props;
 473:..\..\..\arduinoLCD\test\Pain Drain\libraries\lvgl\src\misc/lv_style.c ****         props[0] = style->prop1;
 1333              		.loc 1 473 0
 1334 00de B388     		ldrh	r3, [r6, #4]
 1335 00e0 4352     		strh	r3, [r0, r1]
ARM GAS  C:\Users\haske\AppData\Local\Temp\ccdHxW38.s 			page 54


 474:..\..\..\arduinoLCD\test\Pain Drain\libraries\lvgl\src\misc/lv_style.c ****         values[0] = value_tmp;
 1336              		.loc 1 474 0
 1337 00e2 0300     		movs	r3, r0
 1338              	.LVL139:
 1339 00e4 04C3     		stmia	r3!, {r2}
 475:..\..\..\arduinoLCD\test\Pain Drain\libraries\lvgl\src\misc/lv_style.c ****         value_adjustment_helper(prop_and_meta, value, &props[1], &values[1]);
 1340              		.loc 1 475 0
 1341 00e6 0231     		adds	r1, r1, #2
 1342              	.LVL140:
 1343 00e8 4218     		adds	r2, r0, r1
 1344              	.LVL141:
 1345 00ea 0299     		ldr	r1, [sp, #8]
 1346              	.LVL142:
 1347 00ec 0198     		ldr	r0, [sp, #4]
 1348              	.LVL143:
 1349 00ee 039C     		ldr	r4, [sp, #12]
 1350 00f0 A047     		blx	r4
 1351              	.LVL144:
 1352              	.LBE44:
 1353 00f2 07E0     		b	.L96
 1354              	.LVL145:
 1355              	.L97:
 476:..\..\..\arduinoLCD\test\Pain Drain\libraries\lvgl\src\misc/lv_style.c ****     }
 477:..\..\..\arduinoLCD\test\Pain Drain\libraries\lvgl\src\misc/lv_style.c ****     else {
 478:..\..\..\arduinoLCD\test\Pain Drain\libraries\lvgl\src\misc/lv_style.c ****         style->prop_cnt = 1;
 1356              		.loc 1 478 0
 1357 00f4 0123     		movs	r3, #1
 1358 00f6 C371     		strb	r3, [r0, #7]
 479:..\..\..\arduinoLCD\test\Pain Drain\libraries\lvgl\src\misc/lv_style.c ****         value_adjustment_helper(prop_and_meta, value, &style->prop1, &style->v_p.value1);
 1359              		.loc 1 479 0
 1360 00f8 021D     		adds	r2, r0, #4
 1361 00fa 0300     		movs	r3, r0
 1362 00fc 0299     		ldr	r1, [sp, #8]
 1363              	.LVL146:
 1364 00fe 0198     		ldr	r0, [sp, #4]
 1365              	.LVL147:
 1366 0100 039C     		ldr	r4, [sp, #12]
 1367 0102 A047     		blx	r4
 1368              	.LVL148:
 1369              	.L96:
 480:..\..\..\arduinoLCD\test\Pain Drain\libraries\lvgl\src\misc/lv_style.c ****     }
 481:..\..\..\arduinoLCD\test\Pain Drain\libraries\lvgl\src\misc/lv_style.c **** 
 482:..\..\..\arduinoLCD\test\Pain Drain\libraries\lvgl\src\misc/lv_style.c ****     uint8_t group = _lv_style_get_prop_group(prop_id);
 1370              		.loc 1 482 0
 1371 0104 3800     		movs	r0, r7
 1372 0106 FFF7FEFF 		bl	_lv_style_get_prop_group
 1373              	.LVL149:
 483:..\..\..\arduinoLCD\test\Pain Drain\libraries\lvgl\src\misc/lv_style.c ****     style->has_group |= 1 << group;
 1374              		.loc 1 483 0
 1375 010a 0123     		movs	r3, #1
 1376 010c 8340     		lsls	r3, r3, r0
 1377 010e B279     		ldrb	r2, [r6, #6]
 1378 0110 1343     		orrs	r3, r2
 1379 0112 B371     		strb	r3, [r6, #6]
 1380              	.LVL150:
 1381              	.L88:
