ARM GAS  C:\Users\haske\AppData\Local\Temp\ccb2zsXg.s 			page 1


   1              		.syntax unified
   2              		.cpu cortex-m0plus
   3              		.fpu softvfp
   4              		.eabi_attribute 20, 1
   5              		.eabi_attribute 21, 1
   6              		.eabi_attribute 23, 3
   7              		.eabi_attribute 24, 1
   8              		.eabi_attribute 25, 1
   9              		.eabi_attribute 26, 1
  10              		.eabi_attribute 30, 1
  11              		.eabi_attribute 34, 0
  12              		.eabi_attribute 18, 4
  13              		.thumb
  14              		.syntax unified
  15              		.file	"lv_style_gen.c"
  16              		.text
  17              	.Ltext0:
  18              		.cfi_sections	.debug_frame
  19              		.section	.text.lv_style_set_width,"ax",%progbits
  20              		.align	2
  21              		.global	lv_style_set_width
  22              		.code	16
  23              		.thumb_func
  24              		.type	lv_style_set_width, %function
  25              	lv_style_set_width:
  26              	.LFB54:
  27              		.file 1 "..\\..\\..\\arduinoLCD\\test\\Pain Drain\\libraries\\lvgl\\src\\misc\\lv_style_gen.c"
   1:..\..\..\arduinoLCD\test\Pain Drain\libraries\lvgl\src\misc/lv_style_gen.c **** #include "lv_style.h"
   2:..\..\..\arduinoLCD\test\Pain Drain\libraries\lvgl\src\misc/lv_style_gen.c **** 
   3:..\..\..\arduinoLCD\test\Pain Drain\libraries\lvgl\src\misc/lv_style_gen.c **** void lv_style_set_width(lv_style_t * style, lv_coord_t value)
   4:..\..\..\arduinoLCD\test\Pain Drain\libraries\lvgl\src\misc/lv_style_gen.c **** {
  28              		.loc 1 4 0
  29              		.cfi_startproc
  30              		@ args = 0, pretend = 0, frame = 0
  31              		@ frame_needed = 0, uses_anonymous_args = 0
  32              	.LVL0:
  33 0000 10B5     		push	{r4, lr}
  34              		.cfi_def_cfa_offset 8
  35              		.cfi_offset 4, -8
  36              		.cfi_offset 14, -4
  37 0002 0A00     		movs	r2, r1
   5:..\..\..\arduinoLCD\test\Pain Drain\libraries\lvgl\src\misc/lv_style_gen.c ****     lv_style_value_t v = {
   6:..\..\..\arduinoLCD\test\Pain Drain\libraries\lvgl\src\misc/lv_style_gen.c ****         .num = (int32_t)value
   7:..\..\..\arduinoLCD\test\Pain Drain\libraries\lvgl\src\misc/lv_style_gen.c ****     };
   8:..\..\..\arduinoLCD\test\Pain Drain\libraries\lvgl\src\misc/lv_style_gen.c ****     lv_style_set_prop(style, LV_STYLE_WIDTH, v);
  38              		.loc 1 8 0
  39 0004 0121     		movs	r1, #1
  40              	.LVL1:
  41 0006 FFF7FEFF 		bl	lv_style_set_prop
  42              	.LVL2:
   9:..\..\..\arduinoLCD\test\Pain Drain\libraries\lvgl\src\misc/lv_style_gen.c **** }
  43              		.loc 1 9 0
  44              		@ sp needed
  45 000a 10BD     		pop	{r4, pc}
  46              		.cfi_endproc
  47              	.LFE54:
  48              		.size	lv_style_set_width, .-lv_style_set_width
ARM GAS  C:\Users\haske\AppData\Local\Temp\ccb2zsXg.s 			page 2


  49              		.section	.text.lv_style_set_min_width,"ax",%progbits
  50              		.align	2
  51              		.global	lv_style_set_min_width
  52              		.code	16
  53              		.thumb_func
  54              		.type	lv_style_set_min_width, %function
  55              	lv_style_set_min_width:
  56              	.LFB55:
  10:..\..\..\arduinoLCD\test\Pain Drain\libraries\lvgl\src\misc/lv_style_gen.c **** 
  11:..\..\..\arduinoLCD\test\Pain Drain\libraries\lvgl\src\misc/lv_style_gen.c **** void lv_style_set_min_width(lv_style_t * style, lv_coord_t value)
  12:..\..\..\arduinoLCD\test\Pain Drain\libraries\lvgl\src\misc/lv_style_gen.c **** {
  57              		.loc 1 12 0
  58              		.cfi_startproc
  59              		@ args = 0, pretend = 0, frame = 0
  60              		@ frame_needed = 0, uses_anonymous_args = 0
  61              	.LVL3:
  62 0000 10B5     		push	{r4, lr}
  63              		.cfi_def_cfa_offset 8
  64              		.cfi_offset 4, -8
  65              		.cfi_offset 14, -4
  66 0002 0A00     		movs	r2, r1
  13:..\..\..\arduinoLCD\test\Pain Drain\libraries\lvgl\src\misc/lv_style_gen.c ****     lv_style_value_t v = {
  14:..\..\..\arduinoLCD\test\Pain Drain\libraries\lvgl\src\misc/lv_style_gen.c ****         .num = (int32_t)value
  15:..\..\..\arduinoLCD\test\Pain Drain\libraries\lvgl\src\misc/lv_style_gen.c ****     };
  16:..\..\..\arduinoLCD\test\Pain Drain\libraries\lvgl\src\misc/lv_style_gen.c ****     lv_style_set_prop(style, LV_STYLE_MIN_WIDTH, v);
  67              		.loc 1 16 0
  68 0004 0221     		movs	r1, #2
  69              	.LVL4:
  70 0006 FFF7FEFF 		bl	lv_style_set_prop
  71              	.LVL5:
  17:..\..\..\arduinoLCD\test\Pain Drain\libraries\lvgl\src\misc/lv_style_gen.c **** }
  72              		.loc 1 17 0
  73              		@ sp needed
  74 000a 10BD     		pop	{r4, pc}
  75              		.cfi_endproc
  76              	.LFE55:
  77              		.size	lv_style_set_min_width, .-lv_style_set_min_width
  78              		.section	.text.lv_style_set_max_width,"ax",%progbits
  79              		.align	2
  80              		.global	lv_style_set_max_width
  81              		.code	16
  82              		.thumb_func
  83              		.type	lv_style_set_max_width, %function
  84              	lv_style_set_max_width:
  85              	.LFB56:
  18:..\..\..\arduinoLCD\test\Pain Drain\libraries\lvgl\src\misc/lv_style_gen.c **** 
  19:..\..\..\arduinoLCD\test\Pain Drain\libraries\lvgl\src\misc/lv_style_gen.c **** void lv_style_set_max_width(lv_style_t * style, lv_coord_t value)
  20:..\..\..\arduinoLCD\test\Pain Drain\libraries\lvgl\src\misc/lv_style_gen.c **** {
  86              		.loc 1 20 0
  87              		.cfi_startproc
  88              		@ args = 0, pretend = 0, frame = 0
  89              		@ frame_needed = 0, uses_anonymous_args = 0
  90              	.LVL6:
  91 0000 10B5     		push	{r4, lr}
  92              		.cfi_def_cfa_offset 8
  93              		.cfi_offset 4, -8
  94              		.cfi_offset 14, -4
ARM GAS  C:\Users\haske\AppData\Local\Temp\ccb2zsXg.s 			page 3


  95 0002 0A00     		movs	r2, r1
  21:..\..\..\arduinoLCD\test\Pain Drain\libraries\lvgl\src\misc/lv_style_gen.c ****     lv_style_value_t v = {
  22:..\..\..\arduinoLCD\test\Pain Drain\libraries\lvgl\src\misc/lv_style_gen.c ****         .num = (int32_t)value
  23:..\..\..\arduinoLCD\test\Pain Drain\libraries\lvgl\src\misc/lv_style_gen.c ****     };
  24:..\..\..\arduinoLCD\test\Pain Drain\libraries\lvgl\src\misc/lv_style_gen.c ****     lv_style_set_prop(style, LV_STYLE_MAX_WIDTH, v);
  96              		.loc 1 24 0
  97 0004 0321     		movs	r1, #3
  98              	.LVL7:
  99 0006 FFF7FEFF 		bl	lv_style_set_prop
 100              	.LVL8:
  25:..\..\..\arduinoLCD\test\Pain Drain\libraries\lvgl\src\misc/lv_style_gen.c **** }
 101              		.loc 1 25 0
 102              		@ sp needed
 103 000a 10BD     		pop	{r4, pc}
 104              		.cfi_endproc
 105              	.LFE56:
 106              		.size	lv_style_set_max_width, .-lv_style_set_max_width
 107              		.section	.text.lv_style_set_height,"ax",%progbits
 108              		.align	2
 109              		.global	lv_style_set_height
 110              		.code	16
 111              		.thumb_func
 112              		.type	lv_style_set_height, %function
 113              	lv_style_set_height:
 114              	.LFB57:
  26:..\..\..\arduinoLCD\test\Pain Drain\libraries\lvgl\src\misc/lv_style_gen.c **** 
  27:..\..\..\arduinoLCD\test\Pain Drain\libraries\lvgl\src\misc/lv_style_gen.c **** void lv_style_set_height(lv_style_t * style, lv_coord_t value)
  28:..\..\..\arduinoLCD\test\Pain Drain\libraries\lvgl\src\misc/lv_style_gen.c **** {
 115              		.loc 1 28 0
 116              		.cfi_startproc
 117              		@ args = 0, pretend = 0, frame = 0
 118              		@ frame_needed = 0, uses_anonymous_args = 0
 119              	.LVL9:
 120 0000 10B5     		push	{r4, lr}
 121              		.cfi_def_cfa_offset 8
 122              		.cfi_offset 4, -8
 123              		.cfi_offset 14, -4
 124 0002 0A00     		movs	r2, r1
  29:..\..\..\arduinoLCD\test\Pain Drain\libraries\lvgl\src\misc/lv_style_gen.c ****     lv_style_value_t v = {
  30:..\..\..\arduinoLCD\test\Pain Drain\libraries\lvgl\src\misc/lv_style_gen.c ****         .num = (int32_t)value
  31:..\..\..\arduinoLCD\test\Pain Drain\libraries\lvgl\src\misc/lv_style_gen.c ****     };
  32:..\..\..\arduinoLCD\test\Pain Drain\libraries\lvgl\src\misc/lv_style_gen.c ****     lv_style_set_prop(style, LV_STYLE_HEIGHT, v);
 125              		.loc 1 32 0
 126 0004 0421     		movs	r1, #4
 127              	.LVL10:
 128 0006 FFF7FEFF 		bl	lv_style_set_prop
 129              	.LVL11:
  33:..\..\..\arduinoLCD\test\Pain Drain\libraries\lvgl\src\misc/lv_style_gen.c **** }
 130              		.loc 1 33 0
 131              		@ sp needed
 132 000a 10BD     		pop	{r4, pc}
 133              		.cfi_endproc
 134              	.LFE57:
 135              		.size	lv_style_set_height, .-lv_style_set_height
 136              		.section	.text.lv_style_set_min_height,"ax",%progbits
 137              		.align	2
 138              		.global	lv_style_set_min_height
ARM GAS  C:\Users\haske\AppData\Local\Temp\ccb2zsXg.s 			page 4


 139              		.code	16
 140              		.thumb_func
 141              		.type	lv_style_set_min_height, %function
 142              	lv_style_set_min_height:
 143              	.LFB58:
  34:..\..\..\arduinoLCD\test\Pain Drain\libraries\lvgl\src\misc/lv_style_gen.c **** 
  35:..\..\..\arduinoLCD\test\Pain Drain\libraries\lvgl\src\misc/lv_style_gen.c **** void lv_style_set_min_height(lv_style_t * style, lv_coord_t value)
  36:..\..\..\arduinoLCD\test\Pain Drain\libraries\lvgl\src\misc/lv_style_gen.c **** {
 144              		.loc 1 36 0
 145              		.cfi_startproc
 146              		@ args = 0, pretend = 0, frame = 0
 147              		@ frame_needed = 0, uses_anonymous_args = 0
 148              	.LVL12:
 149 0000 10B5     		push	{r4, lr}
 150              		.cfi_def_cfa_offset 8
 151              		.cfi_offset 4, -8
 152              		.cfi_offset 14, -4
 153 0002 0A00     		movs	r2, r1
  37:..\..\..\arduinoLCD\test\Pain Drain\libraries\lvgl\src\misc/lv_style_gen.c ****     lv_style_value_t v = {
  38:..\..\..\arduinoLCD\test\Pain Drain\libraries\lvgl\src\misc/lv_style_gen.c ****         .num = (int32_t)value
  39:..\..\..\arduinoLCD\test\Pain Drain\libraries\lvgl\src\misc/lv_style_gen.c ****     };
  40:..\..\..\arduinoLCD\test\Pain Drain\libraries\lvgl\src\misc/lv_style_gen.c ****     lv_style_set_prop(style, LV_STYLE_MIN_HEIGHT, v);
 154              		.loc 1 40 0
 155 0004 0521     		movs	r1, #5
 156              	.LVL13:
 157 0006 FFF7FEFF 		bl	lv_style_set_prop
 158              	.LVL14:
  41:..\..\..\arduinoLCD\test\Pain Drain\libraries\lvgl\src\misc/lv_style_gen.c **** }
 159              		.loc 1 41 0
 160              		@ sp needed
 161 000a 10BD     		pop	{r4, pc}
 162              		.cfi_endproc
 163              	.LFE58:
 164              		.size	lv_style_set_min_height, .-lv_style_set_min_height
 165              		.section	.text.lv_style_set_max_height,"ax",%progbits
 166              		.align	2
 167              		.global	lv_style_set_max_height
 168              		.code	16
 169              		.thumb_func
 170              		.type	lv_style_set_max_height, %function
 171              	lv_style_set_max_height:
 172              	.LFB59:
  42:..\..\..\arduinoLCD\test\Pain Drain\libraries\lvgl\src\misc/lv_style_gen.c **** 
  43:..\..\..\arduinoLCD\test\Pain Drain\libraries\lvgl\src\misc/lv_style_gen.c **** void lv_style_set_max_height(lv_style_t * style, lv_coord_t value)
  44:..\..\..\arduinoLCD\test\Pain Drain\libraries\lvgl\src\misc/lv_style_gen.c **** {
 173              		.loc 1 44 0
 174              		.cfi_startproc
 175              		@ args = 0, pretend = 0, frame = 0
 176              		@ frame_needed = 0, uses_anonymous_args = 0
 177              	.LVL15:
 178 0000 10B5     		push	{r4, lr}
 179              		.cfi_def_cfa_offset 8
 180              		.cfi_offset 4, -8
 181              		.cfi_offset 14, -4
 182 0002 0A00     		movs	r2, r1
  45:..\..\..\arduinoLCD\test\Pain Drain\libraries\lvgl\src\misc/lv_style_gen.c ****     lv_style_value_t v = {
  46:..\..\..\arduinoLCD\test\Pain Drain\libraries\lvgl\src\misc/lv_style_gen.c ****         .num = (int32_t)value
ARM GAS  C:\Users\haske\AppData\Local\Temp\ccb2zsXg.s 			page 5


  47:..\..\..\arduinoLCD\test\Pain Drain\libraries\lvgl\src\misc/lv_style_gen.c ****     };
  48:..\..\..\arduinoLCD\test\Pain Drain\libraries\lvgl\src\misc/lv_style_gen.c ****     lv_style_set_prop(style, LV_STYLE_MAX_HEIGHT, v);
 183              		.loc 1 48 0
 184 0004 0621     		movs	r1, #6
 185              	.LVL16:
 186 0006 FFF7FEFF 		bl	lv_style_set_prop
 187              	.LVL17:
  49:..\..\..\arduinoLCD\test\Pain Drain\libraries\lvgl\src\misc/lv_style_gen.c **** }
 188              		.loc 1 49 0
 189              		@ sp needed
 190 000a 10BD     		pop	{r4, pc}
 191              		.cfi_endproc
 192              	.LFE59:
 193              		.size	lv_style_set_max_height, .-lv_style_set_max_height
 194              		.section	.text.lv_style_set_x,"ax",%progbits
 195              		.align	2
 196              		.global	lv_style_set_x
 197              		.code	16
 198              		.thumb_func
 199              		.type	lv_style_set_x, %function
 200              	lv_style_set_x:
 201              	.LFB60:
  50:..\..\..\arduinoLCD\test\Pain Drain\libraries\lvgl\src\misc/lv_style_gen.c **** 
  51:..\..\..\arduinoLCD\test\Pain Drain\libraries\lvgl\src\misc/lv_style_gen.c **** void lv_style_set_x(lv_style_t * style, lv_coord_t value)
  52:..\..\..\arduinoLCD\test\Pain Drain\libraries\lvgl\src\misc/lv_style_gen.c **** {
 202              		.loc 1 52 0
 203              		.cfi_startproc
 204              		@ args = 0, pretend = 0, frame = 0
 205              		@ frame_needed = 0, uses_anonymous_args = 0
 206              	.LVL18:
 207 0000 10B5     		push	{r4, lr}
 208              		.cfi_def_cfa_offset 8
 209              		.cfi_offset 4, -8
 210              		.cfi_offset 14, -4
 211 0002 0A00     		movs	r2, r1
  53:..\..\..\arduinoLCD\test\Pain Drain\libraries\lvgl\src\misc/lv_style_gen.c ****     lv_style_value_t v = {
  54:..\..\..\arduinoLCD\test\Pain Drain\libraries\lvgl\src\misc/lv_style_gen.c ****         .num = (int32_t)value
  55:..\..\..\arduinoLCD\test\Pain Drain\libraries\lvgl\src\misc/lv_style_gen.c ****     };
  56:..\..\..\arduinoLCD\test\Pain Drain\libraries\lvgl\src\misc/lv_style_gen.c ****     lv_style_set_prop(style, LV_STYLE_X, v);
 212              		.loc 1 56 0
 213 0004 0721     		movs	r1, #7
 214              	.LVL19:
 215 0006 FFF7FEFF 		bl	lv_style_set_prop
 216              	.LVL20:
  57:..\..\..\arduinoLCD\test\Pain Drain\libraries\lvgl\src\misc/lv_style_gen.c **** }
 217              		.loc 1 57 0
 218              		@ sp needed
 219 000a 10BD     		pop	{r4, pc}
 220              		.cfi_endproc
 221              	.LFE60:
 222              		.size	lv_style_set_x, .-lv_style_set_x
 223              		.section	.text.lv_style_set_y,"ax",%progbits
 224              		.align	2
 225              		.global	lv_style_set_y
 226              		.code	16
 227              		.thumb_func
 228              		.type	lv_style_set_y, %function
ARM GAS  C:\Users\haske\AppData\Local\Temp\ccb2zsXg.s 			page 6


 229              	lv_style_set_y:
 230              	.LFB61:
  58:..\..\..\arduinoLCD\test\Pain Drain\libraries\lvgl\src\misc/lv_style_gen.c **** 
  59:..\..\..\arduinoLCD\test\Pain Drain\libraries\lvgl\src\misc/lv_style_gen.c **** void lv_style_set_y(lv_style_t * style, lv_coord_t value)
  60:..\..\..\arduinoLCD\test\Pain Drain\libraries\lvgl\src\misc/lv_style_gen.c **** {
 231              		.loc 1 60 0
 232              		.cfi_startproc
 233              		@ args = 0, pretend = 0, frame = 0
 234              		@ frame_needed = 0, uses_anonymous_args = 0
 235              	.LVL21:
 236 0000 10B5     		push	{r4, lr}
 237              		.cfi_def_cfa_offset 8
 238              		.cfi_offset 4, -8
 239              		.cfi_offset 14, -4
 240 0002 0A00     		movs	r2, r1
  61:..\..\..\arduinoLCD\test\Pain Drain\libraries\lvgl\src\misc/lv_style_gen.c ****     lv_style_value_t v = {
  62:..\..\..\arduinoLCD\test\Pain Drain\libraries\lvgl\src\misc/lv_style_gen.c ****         .num = (int32_t)value
  63:..\..\..\arduinoLCD\test\Pain Drain\libraries\lvgl\src\misc/lv_style_gen.c ****     };
  64:..\..\..\arduinoLCD\test\Pain Drain\libraries\lvgl\src\misc/lv_style_gen.c ****     lv_style_set_prop(style, LV_STYLE_Y, v);
 241              		.loc 1 64 0
 242 0004 0821     		movs	r1, #8
 243              	.LVL22:
 244 0006 FFF7FEFF 		bl	lv_style_set_prop
 245              	.LVL23:
  65:..\..\..\arduinoLCD\test\Pain Drain\libraries\lvgl\src\misc/lv_style_gen.c **** }
 246              		.loc 1 65 0
 247              		@ sp needed
 248 000a 10BD     		pop	{r4, pc}
 249              		.cfi_endproc
 250              	.LFE61:
 251              		.size	lv_style_set_y, .-lv_style_set_y
 252              		.section	.text.lv_style_set_align,"ax",%progbits
 253              		.align	2
 254              		.global	lv_style_set_align
 255              		.code	16
 256              		.thumb_func
 257              		.type	lv_style_set_align, %function
 258              	lv_style_set_align:
 259              	.LFB62:
  66:..\..\..\arduinoLCD\test\Pain Drain\libraries\lvgl\src\misc/lv_style_gen.c **** 
  67:..\..\..\arduinoLCD\test\Pain Drain\libraries\lvgl\src\misc/lv_style_gen.c **** void lv_style_set_align(lv_style_t * style, lv_align_t value)
  68:..\..\..\arduinoLCD\test\Pain Drain\libraries\lvgl\src\misc/lv_style_gen.c **** {
 260              		.loc 1 68 0
 261              		.cfi_startproc
 262              		@ args = 0, pretend = 0, frame = 0
 263              		@ frame_needed = 0, uses_anonymous_args = 0
 264              	.LVL24:
 265 0000 10B5     		push	{r4, lr}
 266              		.cfi_def_cfa_offset 8
 267              		.cfi_offset 4, -8
 268              		.cfi_offset 14, -4
 269 0002 0A00     		movs	r2, r1
  69:..\..\..\arduinoLCD\test\Pain Drain\libraries\lvgl\src\misc/lv_style_gen.c ****     lv_style_value_t v = {
  70:..\..\..\arduinoLCD\test\Pain Drain\libraries\lvgl\src\misc/lv_style_gen.c ****         .num = (int32_t)value
  71:..\..\..\arduinoLCD\test\Pain Drain\libraries\lvgl\src\misc/lv_style_gen.c ****     };
  72:..\..\..\arduinoLCD\test\Pain Drain\libraries\lvgl\src\misc/lv_style_gen.c ****     lv_style_set_prop(style, LV_STYLE_ALIGN, v);
 270              		.loc 1 72 0
ARM GAS  C:\Users\haske\AppData\Local\Temp\ccb2zsXg.s 			page 7


 271 0004 0921     		movs	r1, #9
 272              	.LVL25:
 273 0006 FFF7FEFF 		bl	lv_style_set_prop
 274              	.LVL26:
  73:..\..\..\arduinoLCD\test\Pain Drain\libraries\lvgl\src\misc/lv_style_gen.c **** }
 275              		.loc 1 73 0
 276              		@ sp needed
 277 000a 10BD     		pop	{r4, pc}
 278              		.cfi_endproc
 279              	.LFE62:
 280              		.size	lv_style_set_align, .-lv_style_set_align
 281              		.section	.text.lv_style_set_transform_width,"ax",%progbits
 282              		.align	2
 283              		.global	lv_style_set_transform_width
 284              		.code	16
 285              		.thumb_func
 286              		.type	lv_style_set_transform_width, %function
 287              	lv_style_set_transform_width:
 288              	.LFB63:
  74:..\..\..\arduinoLCD\test\Pain Drain\libraries\lvgl\src\misc/lv_style_gen.c **** 
  75:..\..\..\arduinoLCD\test\Pain Drain\libraries\lvgl\src\misc/lv_style_gen.c **** void lv_style_set_transform_width(lv_style_t * style, lv_coord_t value)
  76:..\..\..\arduinoLCD\test\Pain Drain\libraries\lvgl\src\misc/lv_style_gen.c **** {
 289              		.loc 1 76 0
 290              		.cfi_startproc
 291              		@ args = 0, pretend = 0, frame = 0
 292              		@ frame_needed = 0, uses_anonymous_args = 0
 293              	.LVL27:
 294 0000 10B5     		push	{r4, lr}
 295              		.cfi_def_cfa_offset 8
 296              		.cfi_offset 4, -8
 297              		.cfi_offset 14, -4
 298 0002 0A00     		movs	r2, r1
  77:..\..\..\arduinoLCD\test\Pain Drain\libraries\lvgl\src\misc/lv_style_gen.c ****     lv_style_value_t v = {
  78:..\..\..\arduinoLCD\test\Pain Drain\libraries\lvgl\src\misc/lv_style_gen.c ****         .num = (int32_t)value
  79:..\..\..\arduinoLCD\test\Pain Drain\libraries\lvgl\src\misc/lv_style_gen.c ****     };
  80:..\..\..\arduinoLCD\test\Pain Drain\libraries\lvgl\src\misc/lv_style_gen.c ****     lv_style_set_prop(style, LV_STYLE_TRANSFORM_WIDTH, v);
 299              		.loc 1 80 0
 300 0004 6821     		movs	r1, #104
 301              	.LVL28:
 302 0006 FFF7FEFF 		bl	lv_style_set_prop
 303              	.LVL29:
  81:..\..\..\arduinoLCD\test\Pain Drain\libraries\lvgl\src\misc/lv_style_gen.c **** }
 304              		.loc 1 81 0
 305              		@ sp needed
 306 000a 10BD     		pop	{r4, pc}
 307              		.cfi_endproc
 308              	.LFE63:
 309              		.size	lv_style_set_transform_width, .-lv_style_set_transform_width
 310              		.section	.text.lv_style_set_transform_height,"ax",%progbits
 311              		.align	2
 312              		.global	lv_style_set_transform_height
 313              		.code	16
 314              		.thumb_func
 315              		.type	lv_style_set_transform_height, %function
 316              	lv_style_set_transform_height:
 317              	.LFB64:
  82:..\..\..\arduinoLCD\test\Pain Drain\libraries\lvgl\src\misc/lv_style_gen.c **** 
ARM GAS  C:\Users\haske\AppData\Local\Temp\ccb2zsXg.s 			page 8


  83:..\..\..\arduinoLCD\test\Pain Drain\libraries\lvgl\src\misc/lv_style_gen.c **** void lv_style_set_transform_height(lv_style_t * style, lv_coord_t value)
  84:..\..\..\arduinoLCD\test\Pain Drain\libraries\lvgl\src\misc/lv_style_gen.c **** {
 318              		.loc 1 84 0
 319              		.cfi_startproc
 320              		@ args = 0, pretend = 0, frame = 0
 321              		@ frame_needed = 0, uses_anonymous_args = 0
 322              	.LVL30:
 323 0000 10B5     		push	{r4, lr}
 324              		.cfi_def_cfa_offset 8
 325              		.cfi_offset 4, -8
 326              		.cfi_offset 14, -4
 327 0002 0A00     		movs	r2, r1
  85:..\..\..\arduinoLCD\test\Pain Drain\libraries\lvgl\src\misc/lv_style_gen.c ****     lv_style_value_t v = {
  86:..\..\..\arduinoLCD\test\Pain Drain\libraries\lvgl\src\misc/lv_style_gen.c ****         .num = (int32_t)value
  87:..\..\..\arduinoLCD\test\Pain Drain\libraries\lvgl\src\misc/lv_style_gen.c ****     };
  88:..\..\..\arduinoLCD\test\Pain Drain\libraries\lvgl\src\misc/lv_style_gen.c ****     lv_style_set_prop(style, LV_STYLE_TRANSFORM_HEIGHT, v);
 328              		.loc 1 88 0
 329 0004 6921     		movs	r1, #105
 330              	.LVL31:
 331 0006 FFF7FEFF 		bl	lv_style_set_prop
 332              	.LVL32:
  89:..\..\..\arduinoLCD\test\Pain Drain\libraries\lvgl\src\misc/lv_style_gen.c **** }
 333              		.loc 1 89 0
 334              		@ sp needed
 335 000a 10BD     		pop	{r4, pc}
 336              		.cfi_endproc
 337              	.LFE64:
 338              		.size	lv_style_set_transform_height, .-lv_style_set_transform_height
 339              		.section	.text.lv_style_set_translate_x,"ax",%progbits
 340              		.align	2
 341              		.global	lv_style_set_translate_x
 342              		.code	16
 343              		.thumb_func
 344              		.type	lv_style_set_translate_x, %function
 345              	lv_style_set_translate_x:
 346              	.LFB65:
  90:..\..\..\arduinoLCD\test\Pain Drain\libraries\lvgl\src\misc/lv_style_gen.c **** 
  91:..\..\..\arduinoLCD\test\Pain Drain\libraries\lvgl\src\misc/lv_style_gen.c **** void lv_style_set_translate_x(lv_style_t * style, lv_coord_t value)
  92:..\..\..\arduinoLCD\test\Pain Drain\libraries\lvgl\src\misc/lv_style_gen.c **** {
 347              		.loc 1 92 0
 348              		.cfi_startproc
 349              		@ args = 0, pretend = 0, frame = 0
 350              		@ frame_needed = 0, uses_anonymous_args = 0
 351              	.LVL33:
 352 0000 10B5     		push	{r4, lr}
 353              		.cfi_def_cfa_offset 8
 354              		.cfi_offset 4, -8
 355              		.cfi_offset 14, -4
 356 0002 0A00     		movs	r2, r1
  93:..\..\..\arduinoLCD\test\Pain Drain\libraries\lvgl\src\misc/lv_style_gen.c ****     lv_style_value_t v = {
  94:..\..\..\arduinoLCD\test\Pain Drain\libraries\lvgl\src\misc/lv_style_gen.c ****         .num = (int32_t)value
  95:..\..\..\arduinoLCD\test\Pain Drain\libraries\lvgl\src\misc/lv_style_gen.c ****     };
  96:..\..\..\arduinoLCD\test\Pain Drain\libraries\lvgl\src\misc/lv_style_gen.c ****     lv_style_set_prop(style, LV_STYLE_TRANSLATE_X, v);
 357              		.loc 1 96 0
 358 0004 6A21     		movs	r1, #106
 359              	.LVL34:
 360 0006 FFF7FEFF 		bl	lv_style_set_prop
ARM GAS  C:\Users\haske\AppData\Local\Temp\ccb2zsXg.s 			page 9


 361              	.LVL35:
  97:..\..\..\arduinoLCD\test\Pain Drain\libraries\lvgl\src\misc/lv_style_gen.c **** }
 362              		.loc 1 97 0
 363              		@ sp needed
 364 000a 10BD     		pop	{r4, pc}
 365              		.cfi_endproc
 366              	.LFE65:
 367              		.size	lv_style_set_translate_x, .-lv_style_set_translate_x
 368              		.section	.text.lv_style_set_translate_y,"ax",%progbits
 369              		.align	2
 370              		.global	lv_style_set_translate_y
 371              		.code	16
 372              		.thumb_func
 373              		.type	lv_style_set_translate_y, %function
 374              	lv_style_set_translate_y:
 375              	.LFB66:
  98:..\..\..\arduinoLCD\test\Pain Drain\libraries\lvgl\src\misc/lv_style_gen.c **** 
  99:..\..\..\arduinoLCD\test\Pain Drain\libraries\lvgl\src\misc/lv_style_gen.c **** void lv_style_set_translate_y(lv_style_t * style, lv_coord_t value)
 100:..\..\..\arduinoLCD\test\Pain Drain\libraries\lvgl\src\misc/lv_style_gen.c **** {
 376              		.loc 1 100 0
 377              		.cfi_startproc
 378              		@ args = 0, pretend = 0, frame = 0
 379              		@ frame_needed = 0, uses_anonymous_args = 0
 380              	.LVL36:
 381 0000 10B5     		push	{r4, lr}
 382              		.cfi_def_cfa_offset 8
 383              		.cfi_offset 4, -8
 384              		.cfi_offset 14, -4
 385 0002 0A00     		movs	r2, r1
 101:..\..\..\arduinoLCD\test\Pain Drain\libraries\lvgl\src\misc/lv_style_gen.c ****     lv_style_value_t v = {
 102:..\..\..\arduinoLCD\test\Pain Drain\libraries\lvgl\src\misc/lv_style_gen.c ****         .num = (int32_t)value
 103:..\..\..\arduinoLCD\test\Pain Drain\libraries\lvgl\src\misc/lv_style_gen.c ****     };
 104:..\..\..\arduinoLCD\test\Pain Drain\libraries\lvgl\src\misc/lv_style_gen.c ****     lv_style_set_prop(style, LV_STYLE_TRANSLATE_Y, v);
 386              		.loc 1 104 0
 387 0004 6B21     		movs	r1, #107
 388              	.LVL37:
 389 0006 FFF7FEFF 		bl	lv_style_set_prop
 390              	.LVL38:
 105:..\..\..\arduinoLCD\test\Pain Drain\libraries\lvgl\src\misc/lv_style_gen.c **** }
 391              		.loc 1 105 0
 392              		@ sp needed
 393 000a 10BD     		pop	{r4, pc}
 394              		.cfi_endproc
 395              	.LFE66:
 396              		.size	lv_style_set_translate_y, .-lv_style_set_translate_y
 397              		.section	.text.lv_style_set_transform_zoom,"ax",%progbits
 398              		.align	2
 399              		.global	lv_style_set_transform_zoom
 400              		.code	16
 401              		.thumb_func
 402              		.type	lv_style_set_transform_zoom, %function
 403              	lv_style_set_transform_zoom:
 404              	.LFB67:
 106:..\..\..\arduinoLCD\test\Pain Drain\libraries\lvgl\src\misc/lv_style_gen.c **** 
 107:..\..\..\arduinoLCD\test\Pain Drain\libraries\lvgl\src\misc/lv_style_gen.c **** void lv_style_set_transform_zoom(lv_style_t * style, lv_coord_t value)
 108:..\..\..\arduinoLCD\test\Pain Drain\libraries\lvgl\src\misc/lv_style_gen.c **** {
 405              		.loc 1 108 0
ARM GAS  C:\Users\haske\AppData\Local\Temp\ccb2zsXg.s 			page 10


 406              		.cfi_startproc
 407              		@ args = 0, pretend = 0, frame = 0
 408              		@ frame_needed = 0, uses_anonymous_args = 0
 409              	.LVL39:
 410 0000 10B5     		push	{r4, lr}
 411              		.cfi_def_cfa_offset 8
 412              		.cfi_offset 4, -8
 413              		.cfi_offset 14, -4
 414 0002 0A00     		movs	r2, r1
 109:..\..\..\arduinoLCD\test\Pain Drain\libraries\lvgl\src\misc/lv_style_gen.c ****     lv_style_value_t v = {
 110:..\..\..\arduinoLCD\test\Pain Drain\libraries\lvgl\src\misc/lv_style_gen.c ****         .num = (int32_t)value
 111:..\..\..\arduinoLCD\test\Pain Drain\libraries\lvgl\src\misc/lv_style_gen.c ****     };
 112:..\..\..\arduinoLCD\test\Pain Drain\libraries\lvgl\src\misc/lv_style_gen.c ****     lv_style_set_prop(style, LV_STYLE_TRANSFORM_ZOOM, v);
 415              		.loc 1 112 0
 416 0004 6C21     		movs	r1, #108
 417              	.LVL40:
 418 0006 FFF7FEFF 		bl	lv_style_set_prop
 419              	.LVL41:
 113:..\..\..\arduinoLCD\test\Pain Drain\libraries\lvgl\src\misc/lv_style_gen.c **** }
 420              		.loc 1 113 0
 421              		@ sp needed
 422 000a 10BD     		pop	{r4, pc}
 423              		.cfi_endproc
 424              	.LFE67:
 425              		.size	lv_style_set_transform_zoom, .-lv_style_set_transform_zoom
 426              		.section	.text.lv_style_set_transform_angle,"ax",%progbits
 427              		.align	2
 428              		.global	lv_style_set_transform_angle
 429              		.code	16
 430              		.thumb_func
 431              		.type	lv_style_set_transform_angle, %function
 432              	lv_style_set_transform_angle:
 433              	.LFB68:
 114:..\..\..\arduinoLCD\test\Pain Drain\libraries\lvgl\src\misc/lv_style_gen.c **** 
 115:..\..\..\arduinoLCD\test\Pain Drain\libraries\lvgl\src\misc/lv_style_gen.c **** void lv_style_set_transform_angle(lv_style_t * style, lv_coord_t value)
 116:..\..\..\arduinoLCD\test\Pain Drain\libraries\lvgl\src\misc/lv_style_gen.c **** {
 434              		.loc 1 116 0
 435              		.cfi_startproc
 436              		@ args = 0, pretend = 0, frame = 0
 437              		@ frame_needed = 0, uses_anonymous_args = 0
 438              	.LVL42:
 439 0000 10B5     		push	{r4, lr}
 440              		.cfi_def_cfa_offset 8
 441              		.cfi_offset 4, -8
 442              		.cfi_offset 14, -4
 443 0002 0A00     		movs	r2, r1
 117:..\..\..\arduinoLCD\test\Pain Drain\libraries\lvgl\src\misc/lv_style_gen.c ****     lv_style_value_t v = {
 118:..\..\..\arduinoLCD\test\Pain Drain\libraries\lvgl\src\misc/lv_style_gen.c ****         .num = (int32_t)value
 119:..\..\..\arduinoLCD\test\Pain Drain\libraries\lvgl\src\misc/lv_style_gen.c ****     };
 120:..\..\..\arduinoLCD\test\Pain Drain\libraries\lvgl\src\misc/lv_style_gen.c ****     lv_style_set_prop(style, LV_STYLE_TRANSFORM_ANGLE, v);
 444              		.loc 1 120 0
 445 0004 6D21     		movs	r1, #109
 446              	.LVL43:
 447 0006 FFF7FEFF 		bl	lv_style_set_prop
 448              	.LVL44:
 121:..\..\..\arduinoLCD\test\Pain Drain\libraries\lvgl\src\misc/lv_style_gen.c **** }
 449              		.loc 1 121 0
ARM GAS  C:\Users\haske\AppData\Local\Temp\ccb2zsXg.s 			page 11


 450              		@ sp needed
 451 000a 10BD     		pop	{r4, pc}
 452              		.cfi_endproc
 453              	.LFE68:
 454              		.size	lv_style_set_transform_angle, .-lv_style_set_transform_angle
 455              		.section	.text.lv_style_set_transform_pivot_x,"ax",%progbits
 456              		.align	2
 457              		.global	lv_style_set_transform_pivot_x
 458              		.code	16
 459              		.thumb_func
 460              		.type	lv_style_set_transform_pivot_x, %function
 461              	lv_style_set_transform_pivot_x:
 462              	.LFB69:
 122:..\..\..\arduinoLCD\test\Pain Drain\libraries\lvgl\src\misc/lv_style_gen.c **** 
 123:..\..\..\arduinoLCD\test\Pain Drain\libraries\lvgl\src\misc/lv_style_gen.c **** void lv_style_set_transform_pivot_x(lv_style_t * style, lv_coord_t value)
 124:..\..\..\arduinoLCD\test\Pain Drain\libraries\lvgl\src\misc/lv_style_gen.c **** {
 463              		.loc 1 124 0
 464              		.cfi_startproc
 465              		@ args = 0, pretend = 0, frame = 0
 466              		@ frame_needed = 0, uses_anonymous_args = 0
 467              	.LVL45:
 468 0000 10B5     		push	{r4, lr}
 469              		.cfi_def_cfa_offset 8
 470              		.cfi_offset 4, -8
 471              		.cfi_offset 14, -4
 472 0002 0A00     		movs	r2, r1
 125:..\..\..\arduinoLCD\test\Pain Drain\libraries\lvgl\src\misc/lv_style_gen.c ****     lv_style_value_t v = {
 126:..\..\..\arduinoLCD\test\Pain Drain\libraries\lvgl\src\misc/lv_style_gen.c ****         .num = (int32_t)value
 127:..\..\..\arduinoLCD\test\Pain Drain\libraries\lvgl\src\misc/lv_style_gen.c ****     };
 128:..\..\..\arduinoLCD\test\Pain Drain\libraries\lvgl\src\misc/lv_style_gen.c ****     lv_style_set_prop(style, LV_STYLE_TRANSFORM_PIVOT_X, v);
 473              		.loc 1 128 0
 474 0004 6E21     		movs	r1, #110
 475              	.LVL46:
 476 0006 FFF7FEFF 		bl	lv_style_set_prop
 477              	.LVL47:
 129:..\..\..\arduinoLCD\test\Pain Drain\libraries\lvgl\src\misc/lv_style_gen.c **** }
 478              		.loc 1 129 0
 479              		@ sp needed
 480 000a 10BD     		pop	{r4, pc}
 481              		.cfi_endproc
 482              	.LFE69:
 483              		.size	lv_style_set_transform_pivot_x, .-lv_style_set_transform_pivot_x
 484              		.section	.text.lv_style_set_transform_pivot_y,"ax",%progbits
 485              		.align	2
 486              		.global	lv_style_set_transform_pivot_y
 487              		.code	16
 488              		.thumb_func
 489              		.type	lv_style_set_transform_pivot_y, %function
 490              	lv_style_set_transform_pivot_y:
 491              	.LFB70:
 130:..\..\..\arduinoLCD\test\Pain Drain\libraries\lvgl\src\misc/lv_style_gen.c **** 
 131:..\..\..\arduinoLCD\test\Pain Drain\libraries\lvgl\src\misc/lv_style_gen.c **** void lv_style_set_transform_pivot_y(lv_style_t * style, lv_coord_t value)
 132:..\..\..\arduinoLCD\test\Pain Drain\libraries\lvgl\src\misc/lv_style_gen.c **** {
 492              		.loc 1 132 0
 493              		.cfi_startproc
 494              		@ args = 0, pretend = 0, frame = 0
 495              		@ frame_needed = 0, uses_anonymous_args = 0
ARM GAS  C:\Users\haske\AppData\Local\Temp\ccb2zsXg.s 			page 12


 496              	.LVL48:
 497 0000 10B5     		push	{r4, lr}
 498              		.cfi_def_cfa_offset 8
 499              		.cfi_offset 4, -8
 500              		.cfi_offset 14, -4
 501 0002 0A00     		movs	r2, r1
 133:..\..\..\arduinoLCD\test\Pain Drain\libraries\lvgl\src\misc/lv_style_gen.c ****     lv_style_value_t v = {
 134:..\..\..\arduinoLCD\test\Pain Drain\libraries\lvgl\src\misc/lv_style_gen.c ****         .num = (int32_t)value
 135:..\..\..\arduinoLCD\test\Pain Drain\libraries\lvgl\src\misc/lv_style_gen.c ****     };
 136:..\..\..\arduinoLCD\test\Pain Drain\libraries\lvgl\src\misc/lv_style_gen.c ****     lv_style_set_prop(style, LV_STYLE_TRANSFORM_PIVOT_Y, v);
 502              		.loc 1 136 0
 503 0004 6F21     		movs	r1, #111
 504              	.LVL49:
 505 0006 FFF7FEFF 		bl	lv_style_set_prop
 506              	.LVL50:
 137:..\..\..\arduinoLCD\test\Pain Drain\libraries\lvgl\src\misc/lv_style_gen.c **** }
 507              		.loc 1 137 0
 508              		@ sp needed
 509 000a 10BD     		pop	{r4, pc}
 510              		.cfi_endproc
 511              	.LFE70:
 512              		.size	lv_style_set_transform_pivot_y, .-lv_style_set_transform_pivot_y
 513              		.section	.text.lv_style_set_pad_top,"ax",%progbits
 514              		.align	2
 515              		.global	lv_style_set_pad_top
 516              		.code	16
 517              		.thumb_func
 518              		.type	lv_style_set_pad_top, %function
 519              	lv_style_set_pad_top:
 520              	.LFB71:
 138:..\..\..\arduinoLCD\test\Pain Drain\libraries\lvgl\src\misc/lv_style_gen.c **** 
 139:..\..\..\arduinoLCD\test\Pain Drain\libraries\lvgl\src\misc/lv_style_gen.c **** void lv_style_set_pad_top(lv_style_t * style, lv_coord_t value)
 140:..\..\..\arduinoLCD\test\Pain Drain\libraries\lvgl\src\misc/lv_style_gen.c **** {
 521              		.loc 1 140 0
 522              		.cfi_startproc
 523              		@ args = 0, pretend = 0, frame = 0
 524              		@ frame_needed = 0, uses_anonymous_args = 0
 525              	.LVL51:
 526 0000 10B5     		push	{r4, lr}
 527              		.cfi_def_cfa_offset 8
 528              		.cfi_offset 4, -8
 529              		.cfi_offset 14, -4
 530 0002 0A00     		movs	r2, r1
 141:..\..\..\arduinoLCD\test\Pain Drain\libraries\lvgl\src\misc/lv_style_gen.c ****     lv_style_value_t v = {
 142:..\..\..\arduinoLCD\test\Pain Drain\libraries\lvgl\src\misc/lv_style_gen.c ****         .num = (int32_t)value
 143:..\..\..\arduinoLCD\test\Pain Drain\libraries\lvgl\src\misc/lv_style_gen.c ****     };
 144:..\..\..\arduinoLCD\test\Pain Drain\libraries\lvgl\src\misc/lv_style_gen.c ****     lv_style_set_prop(style, LV_STYLE_PAD_TOP, v);
 531              		.loc 1 144 0
 532 0004 1021     		movs	r1, #16
 533              	.LVL52:
 534 0006 FFF7FEFF 		bl	lv_style_set_prop
 535              	.LVL53:
 145:..\..\..\arduinoLCD\test\Pain Drain\libraries\lvgl\src\misc/lv_style_gen.c **** }
 536              		.loc 1 145 0
 537              		@ sp needed
 538 000a 10BD     		pop	{r4, pc}
 539              		.cfi_endproc
ARM GAS  C:\Users\haske\AppData\Local\Temp\ccb2zsXg.s 			page 13


 540              	.LFE71:
 541              		.size	lv_style_set_pad_top, .-lv_style_set_pad_top
 542              		.section	.text.lv_style_set_pad_bottom,"ax",%progbits
 543              		.align	2
 544              		.global	lv_style_set_pad_bottom
 545              		.code	16
 546              		.thumb_func
 547              		.type	lv_style_set_pad_bottom, %function
 548              	lv_style_set_pad_bottom:
 549              	.LFB72:
 146:..\..\..\arduinoLCD\test\Pain Drain\libraries\lvgl\src\misc/lv_style_gen.c **** 
 147:..\..\..\arduinoLCD\test\Pain Drain\libraries\lvgl\src\misc/lv_style_gen.c **** void lv_style_set_pad_bottom(lv_style_t * style, lv_coord_t value)
 148:..\..\..\arduinoLCD\test\Pain Drain\libraries\lvgl\src\misc/lv_style_gen.c **** {
 550              		.loc 1 148 0
 551              		.cfi_startproc
 552              		@ args = 0, pretend = 0, frame = 0
 553              		@ frame_needed = 0, uses_anonymous_args = 0
 554              	.LVL54:
 555 0000 10B5     		push	{r4, lr}
 556              		.cfi_def_cfa_offset 8
 557              		.cfi_offset 4, -8
 558              		.cfi_offset 14, -4
 559 0002 0A00     		movs	r2, r1
 149:..\..\..\arduinoLCD\test\Pain Drain\libraries\lvgl\src\misc/lv_style_gen.c ****     lv_style_value_t v = {
 150:..\..\..\arduinoLCD\test\Pain Drain\libraries\lvgl\src\misc/lv_style_gen.c ****         .num = (int32_t)value
 151:..\..\..\arduinoLCD\test\Pain Drain\libraries\lvgl\src\misc/lv_style_gen.c ****     };
 152:..\..\..\arduinoLCD\test\Pain Drain\libraries\lvgl\src\misc/lv_style_gen.c ****     lv_style_set_prop(style, LV_STYLE_PAD_BOTTOM, v);
 560              		.loc 1 152 0
 561 0004 1121     		movs	r1, #17
 562              	.LVL55:
 563 0006 FFF7FEFF 		bl	lv_style_set_prop
 564              	.LVL56:
 153:..\..\..\arduinoLCD\test\Pain Drain\libraries\lvgl\src\misc/lv_style_gen.c **** }
 565              		.loc 1 153 0
 566              		@ sp needed
 567 000a 10BD     		pop	{r4, pc}
 568              		.cfi_endproc
 569              	.LFE72:
 570              		.size	lv_style_set_pad_bottom, .-lv_style_set_pad_bottom
 571              		.section	.text.lv_style_set_pad_left,"ax",%progbits
 572              		.align	2
 573              		.global	lv_style_set_pad_left
 574              		.code	16
 575              		.thumb_func
 576              		.type	lv_style_set_pad_left, %function
 577              	lv_style_set_pad_left:
 578              	.LFB73:
 154:..\..\..\arduinoLCD\test\Pain Drain\libraries\lvgl\src\misc/lv_style_gen.c **** 
 155:..\..\..\arduinoLCD\test\Pain Drain\libraries\lvgl\src\misc/lv_style_gen.c **** void lv_style_set_pad_left(lv_style_t * style, lv_coord_t value)
 156:..\..\..\arduinoLCD\test\Pain Drain\libraries\lvgl\src\misc/lv_style_gen.c **** {
 579              		.loc 1 156 0
 580              		.cfi_startproc
 581              		@ args = 0, pretend = 0, frame = 0
 582              		@ frame_needed = 0, uses_anonymous_args = 0
 583              	.LVL57:
 584 0000 10B5     		push	{r4, lr}
 585              		.cfi_def_cfa_offset 8
ARM GAS  C:\Users\haske\AppData\Local\Temp\ccb2zsXg.s 			page 14


 586              		.cfi_offset 4, -8
 587              		.cfi_offset 14, -4
 588 0002 0A00     		movs	r2, r1
 157:..\..\..\arduinoLCD\test\Pain Drain\libraries\lvgl\src\misc/lv_style_gen.c ****     lv_style_value_t v = {
 158:..\..\..\arduinoLCD\test\Pain Drain\libraries\lvgl\src\misc/lv_style_gen.c ****         .num = (int32_t)value
 159:..\..\..\arduinoLCD\test\Pain Drain\libraries\lvgl\src\misc/lv_style_gen.c ****     };
 160:..\..\..\arduinoLCD\test\Pain Drain\libraries\lvgl\src\misc/lv_style_gen.c ****     lv_style_set_prop(style, LV_STYLE_PAD_LEFT, v);
 589              		.loc 1 160 0
 590 0004 1221     		movs	r1, #18
 591              	.LVL58:
 592 0006 FFF7FEFF 		bl	lv_style_set_prop
 593              	.LVL59:
 161:..\..\..\arduinoLCD\test\Pain Drain\libraries\lvgl\src\misc/lv_style_gen.c **** }
 594              		.loc 1 161 0
 595              		@ sp needed
 596 000a 10BD     		pop	{r4, pc}
 597              		.cfi_endproc
 598              	.LFE73:
 599              		.size	lv_style_set_pad_left, .-lv_style_set_pad_left
 600              		.section	.text.lv_style_set_pad_right,"ax",%progbits
 601              		.align	2
 602              		.global	lv_style_set_pad_right
 603              		.code	16
 604              		.thumb_func
 605              		.type	lv_style_set_pad_right, %function
 606              	lv_style_set_pad_right:
 607              	.LFB74:
 162:..\..\..\arduinoLCD\test\Pain Drain\libraries\lvgl\src\misc/lv_style_gen.c **** 
 163:..\..\..\arduinoLCD\test\Pain Drain\libraries\lvgl\src\misc/lv_style_gen.c **** void lv_style_set_pad_right(lv_style_t * style, lv_coord_t value)
 164:..\..\..\arduinoLCD\test\Pain Drain\libraries\lvgl\src\misc/lv_style_gen.c **** {
 608              		.loc 1 164 0
 609              		.cfi_startproc
 610              		@ args = 0, pretend = 0, frame = 0
 611              		@ frame_needed = 0, uses_anonymous_args = 0
 612              	.LVL60:
 613 0000 10B5     		push	{r4, lr}
 614              		.cfi_def_cfa_offset 8
 615              		.cfi_offset 4, -8
 616              		.cfi_offset 14, -4
 617 0002 0A00     		movs	r2, r1
 165:..\..\..\arduinoLCD\test\Pain Drain\libraries\lvgl\src\misc/lv_style_gen.c ****     lv_style_value_t v = {
 166:..\..\..\arduinoLCD\test\Pain Drain\libraries\lvgl\src\misc/lv_style_gen.c ****         .num = (int32_t)value
 167:..\..\..\arduinoLCD\test\Pain Drain\libraries\lvgl\src\misc/lv_style_gen.c ****     };
 168:..\..\..\arduinoLCD\test\Pain Drain\libraries\lvgl\src\misc/lv_style_gen.c ****     lv_style_set_prop(style, LV_STYLE_PAD_RIGHT, v);
 618              		.loc 1 168 0
 619 0004 1321     		movs	r1, #19
 620              	.LVL61:
 621 0006 FFF7FEFF 		bl	lv_style_set_prop
 622              	.LVL62:
 169:..\..\..\arduinoLCD\test\Pain Drain\libraries\lvgl\src\misc/lv_style_gen.c **** }
 623              		.loc 1 169 0
 624              		@ sp needed
 625 000a 10BD     		pop	{r4, pc}
 626              		.cfi_endproc
 627              	.LFE74:
 628              		.size	lv_style_set_pad_right, .-lv_style_set_pad_right
 629              		.section	.text.lv_style_set_pad_row,"ax",%progbits
ARM GAS  C:\Users\haske\AppData\Local\Temp\ccb2zsXg.s 			page 15


 630              		.align	2
 631              		.global	lv_style_set_pad_row
 632              		.code	16
 633              		.thumb_func
 634              		.type	lv_style_set_pad_row, %function
 635              	lv_style_set_pad_row:
 636              	.LFB75:
 170:..\..\..\arduinoLCD\test\Pain Drain\libraries\lvgl\src\misc/lv_style_gen.c **** 
 171:..\..\..\arduinoLCD\test\Pain Drain\libraries\lvgl\src\misc/lv_style_gen.c **** void lv_style_set_pad_row(lv_style_t * style, lv_coord_t value)
 172:..\..\..\arduinoLCD\test\Pain Drain\libraries\lvgl\src\misc/lv_style_gen.c **** {
 637              		.loc 1 172 0
 638              		.cfi_startproc
 639              		@ args = 0, pretend = 0, frame = 0
 640              		@ frame_needed = 0, uses_anonymous_args = 0
 641              	.LVL63:
 642 0000 10B5     		push	{r4, lr}
 643              		.cfi_def_cfa_offset 8
 644              		.cfi_offset 4, -8
 645              		.cfi_offset 14, -4
 646 0002 0A00     		movs	r2, r1
 173:..\..\..\arduinoLCD\test\Pain Drain\libraries\lvgl\src\misc/lv_style_gen.c ****     lv_style_value_t v = {
 174:..\..\..\arduinoLCD\test\Pain Drain\libraries\lvgl\src\misc/lv_style_gen.c ****         .num = (int32_t)value
 175:..\..\..\arduinoLCD\test\Pain Drain\libraries\lvgl\src\misc/lv_style_gen.c ****     };
 176:..\..\..\arduinoLCD\test\Pain Drain\libraries\lvgl\src\misc/lv_style_gen.c ****     lv_style_set_prop(style, LV_STYLE_PAD_ROW, v);
 647              		.loc 1 176 0
 648 0004 1421     		movs	r1, #20
 649              	.LVL64:
 650 0006 FFF7FEFF 		bl	lv_style_set_prop
 651              	.LVL65:
 177:..\..\..\arduinoLCD\test\Pain Drain\libraries\lvgl\src\misc/lv_style_gen.c **** }
 652              		.loc 1 177 0
 653              		@ sp needed
 654 000a 10BD     		pop	{r4, pc}
 655              		.cfi_endproc
 656              	.LFE75:
 657              		.size	lv_style_set_pad_row, .-lv_style_set_pad_row
 658              		.section	.text.lv_style_set_pad_column,"ax",%progbits
 659              		.align	2
 660              		.global	lv_style_set_pad_column
 661              		.code	16
 662              		.thumb_func
 663              		.type	lv_style_set_pad_column, %function
 664              	lv_style_set_pad_column:
 665              	.LFB76:
 178:..\..\..\arduinoLCD\test\Pain Drain\libraries\lvgl\src\misc/lv_style_gen.c **** 
 179:..\..\..\arduinoLCD\test\Pain Drain\libraries\lvgl\src\misc/lv_style_gen.c **** void lv_style_set_pad_column(lv_style_t * style, lv_coord_t value)
 180:..\..\..\arduinoLCD\test\Pain Drain\libraries\lvgl\src\misc/lv_style_gen.c **** {
 666              		.loc 1 180 0
 667              		.cfi_startproc
 668              		@ args = 0, pretend = 0, frame = 0
 669              		@ frame_needed = 0, uses_anonymous_args = 0
 670              	.LVL66:
 671 0000 10B5     		push	{r4, lr}
 672              		.cfi_def_cfa_offset 8
 673              		.cfi_offset 4, -8
 674              		.cfi_offset 14, -4
 675 0002 0A00     		movs	r2, r1
ARM GAS  C:\Users\haske\AppData\Local\Temp\ccb2zsXg.s 			page 16


 181:..\..\..\arduinoLCD\test\Pain Drain\libraries\lvgl\src\misc/lv_style_gen.c ****     lv_style_value_t v = {
 182:..\..\..\arduinoLCD\test\Pain Drain\libraries\lvgl\src\misc/lv_style_gen.c ****         .num = (int32_t)value
 183:..\..\..\arduinoLCD\test\Pain Drain\libraries\lvgl\src\misc/lv_style_gen.c ****     };
 184:..\..\..\arduinoLCD\test\Pain Drain\libraries\lvgl\src\misc/lv_style_gen.c ****     lv_style_set_prop(style, LV_STYLE_PAD_COLUMN, v);
 676              		.loc 1 184 0
 677 0004 1521     		movs	r1, #21
 678              	.LVL67:
 679 0006 FFF7FEFF 		bl	lv_style_set_prop
 680              	.LVL68:
 185:..\..\..\arduinoLCD\test\Pain Drain\libraries\lvgl\src\misc/lv_style_gen.c **** }
 681              		.loc 1 185 0
 682              		@ sp needed
 683 000a 10BD     		pop	{r4, pc}
 684              		.cfi_endproc
 685              	.LFE76:
 686              		.size	lv_style_set_pad_column, .-lv_style_set_pad_column
 687              		.section	.text.lv_style_set_bg_color,"ax",%progbits
 688              		.align	2
 689              		.global	lv_style_set_bg_color
 690              		.code	16
 691              		.thumb_func
 692              		.type	lv_style_set_bg_color, %function
 693              	lv_style_set_bg_color:
 694              	.LFB77:
 186:..\..\..\arduinoLCD\test\Pain Drain\libraries\lvgl\src\misc/lv_style_gen.c **** 
 187:..\..\..\arduinoLCD\test\Pain Drain\libraries\lvgl\src\misc/lv_style_gen.c **** void lv_style_set_bg_color(lv_style_t * style, lv_color_t value)
 188:..\..\..\arduinoLCD\test\Pain Drain\libraries\lvgl\src\misc/lv_style_gen.c **** {
 695              		.loc 1 188 0
 696              		.cfi_startproc
 697              		@ args = 0, pretend = 0, frame = 0
 698              		@ frame_needed = 0, uses_anonymous_args = 0
 699              	.LVL69:
 700 0000 10B5     		push	{r4, lr}
 701              		.cfi_def_cfa_offset 8
 702              		.cfi_offset 4, -8
 703              		.cfi_offset 14, -4
 189:..\..\..\arduinoLCD\test\Pain Drain\libraries\lvgl\src\misc/lv_style_gen.c ****     lv_style_value_t v = {
 704              		.loc 1 189 0
 705 0002 8AB2     		uxth	r2, r1
 706              	.LVL70:
 190:..\..\..\arduinoLCD\test\Pain Drain\libraries\lvgl\src\misc/lv_style_gen.c ****         .color = value
 191:..\..\..\arduinoLCD\test\Pain Drain\libraries\lvgl\src\misc/lv_style_gen.c ****     };
 192:..\..\..\arduinoLCD\test\Pain Drain\libraries\lvgl\src\misc/lv_style_gen.c ****     lv_style_set_prop(style, LV_STYLE_BG_COLOR, v);
 707              		.loc 1 192 0
 708 0004 2021     		movs	r1, #32
 709 0006 FFF7FEFF 		bl	lv_style_set_prop
 710              	.LVL71:
 193:..\..\..\arduinoLCD\test\Pain Drain\libraries\lvgl\src\misc/lv_style_gen.c **** }
 711              		.loc 1 193 0
 712              		@ sp needed
 713 000a 10BD     		pop	{r4, pc}
 714              		.cfi_endproc
 715              	.LFE77:
 716              		.size	lv_style_set_bg_color, .-lv_style_set_bg_color
 717              		.section	.text.lv_style_set_bg_opa,"ax",%progbits
 718              		.align	2
 719              		.global	lv_style_set_bg_opa
ARM GAS  C:\Users\haske\AppData\Local\Temp\ccb2zsXg.s 			page 17


 720              		.code	16
 721              		.thumb_func
 722              		.type	lv_style_set_bg_opa, %function
 723              	lv_style_set_bg_opa:
 724              	.LFB78:
 194:..\..\..\arduinoLCD\test\Pain Drain\libraries\lvgl\src\misc/lv_style_gen.c **** 
 195:..\..\..\arduinoLCD\test\Pain Drain\libraries\lvgl\src\misc/lv_style_gen.c **** void lv_style_set_bg_opa(lv_style_t * style, lv_opa_t value)
 196:..\..\..\arduinoLCD\test\Pain Drain\libraries\lvgl\src\misc/lv_style_gen.c **** {
 725              		.loc 1 196 0
 726              		.cfi_startproc
 727              		@ args = 0, pretend = 0, frame = 0
 728              		@ frame_needed = 0, uses_anonymous_args = 0
 729              	.LVL72:
 730 0000 10B5     		push	{r4, lr}
 731              		.cfi_def_cfa_offset 8
 732              		.cfi_offset 4, -8
 733              		.cfi_offset 14, -4
 734 0002 0A00     		movs	r2, r1
 197:..\..\..\arduinoLCD\test\Pain Drain\libraries\lvgl\src\misc/lv_style_gen.c ****     lv_style_value_t v = {
 198:..\..\..\arduinoLCD\test\Pain Drain\libraries\lvgl\src\misc/lv_style_gen.c ****         .num = (int32_t)value
 199:..\..\..\arduinoLCD\test\Pain Drain\libraries\lvgl\src\misc/lv_style_gen.c ****     };
 200:..\..\..\arduinoLCD\test\Pain Drain\libraries\lvgl\src\misc/lv_style_gen.c ****     lv_style_set_prop(style, LV_STYLE_BG_OPA, v);
 735              		.loc 1 200 0
 736 0004 2121     		movs	r1, #33
 737              	.LVL73:
 738 0006 FFF7FEFF 		bl	lv_style_set_prop
 739              	.LVL74:
 201:..\..\..\arduinoLCD\test\Pain Drain\libraries\lvgl\src\misc/lv_style_gen.c **** }
 740              		.loc 1 201 0
 741              		@ sp needed
 742 000a 10BD     		pop	{r4, pc}
 743              		.cfi_endproc
 744              	.LFE78:
 745              		.size	lv_style_set_bg_opa, .-lv_style_set_bg_opa
 746              		.section	.text.lv_style_set_bg_grad_color,"ax",%progbits
 747              		.align	2
 748              		.global	lv_style_set_bg_grad_color
 749              		.code	16
 750              		.thumb_func
 751              		.type	lv_style_set_bg_grad_color, %function
 752              	lv_style_set_bg_grad_color:
 753              	.LFB79:
 202:..\..\..\arduinoLCD\test\Pain Drain\libraries\lvgl\src\misc/lv_style_gen.c **** 
 203:..\..\..\arduinoLCD\test\Pain Drain\libraries\lvgl\src\misc/lv_style_gen.c **** void lv_style_set_bg_grad_color(lv_style_t * style, lv_color_t value)
 204:..\..\..\arduinoLCD\test\Pain Drain\libraries\lvgl\src\misc/lv_style_gen.c **** {
 754              		.loc 1 204 0
 755              		.cfi_startproc
 756              		@ args = 0, pretend = 0, frame = 0
 757              		@ frame_needed = 0, uses_anonymous_args = 0
 758              	.LVL75:
 759 0000 10B5     		push	{r4, lr}
 760              		.cfi_def_cfa_offset 8
 761              		.cfi_offset 4, -8
 762              		.cfi_offset 14, -4
 205:..\..\..\arduinoLCD\test\Pain Drain\libraries\lvgl\src\misc/lv_style_gen.c ****     lv_style_value_t v = {
 763              		.loc 1 205 0
 764 0002 8AB2     		uxth	r2, r1
ARM GAS  C:\Users\haske\AppData\Local\Temp\ccb2zsXg.s 			page 18


 765              	.LVL76:
 206:..\..\..\arduinoLCD\test\Pain Drain\libraries\lvgl\src\misc/lv_style_gen.c ****         .color = value
 207:..\..\..\arduinoLCD\test\Pain Drain\libraries\lvgl\src\misc/lv_style_gen.c ****     };
 208:..\..\..\arduinoLCD\test\Pain Drain\libraries\lvgl\src\misc/lv_style_gen.c ****     lv_style_set_prop(style, LV_STYLE_BG_GRAD_COLOR, v);
 766              		.loc 1 208 0
 767 0004 2221     		movs	r1, #34
 768 0006 FFF7FEFF 		bl	lv_style_set_prop
 769              	.LVL77:
 209:..\..\..\arduinoLCD\test\Pain Drain\libraries\lvgl\src\misc/lv_style_gen.c **** }
 770              		.loc 1 209 0
 771              		@ sp needed
 772 000a 10BD     		pop	{r4, pc}
 773              		.cfi_endproc
 774              	.LFE79:
 775              		.size	lv_style_set_bg_grad_color, .-lv_style_set_bg_grad_color
 776              		.section	.text.lv_style_set_bg_grad_dir,"ax",%progbits
 777              		.align	2
 778              		.global	lv_style_set_bg_grad_dir
 779              		.code	16
 780              		.thumb_func
 781              		.type	lv_style_set_bg_grad_dir, %function
 782              	lv_style_set_bg_grad_dir:
 783              	.LFB80:
 210:..\..\..\arduinoLCD\test\Pain Drain\libraries\lvgl\src\misc/lv_style_gen.c **** 
 211:..\..\..\arduinoLCD\test\Pain Drain\libraries\lvgl\src\misc/lv_style_gen.c **** void lv_style_set_bg_grad_dir(lv_style_t * style, lv_grad_dir_t value)
 212:..\..\..\arduinoLCD\test\Pain Drain\libraries\lvgl\src\misc/lv_style_gen.c **** {
 784              		.loc 1 212 0
 785              		.cfi_startproc
 786              		@ args = 0, pretend = 0, frame = 0
 787              		@ frame_needed = 0, uses_anonymous_args = 0
 788              	.LVL78:
 789 0000 10B5     		push	{r4, lr}
 790              		.cfi_def_cfa_offset 8
 791              		.cfi_offset 4, -8
 792              		.cfi_offset 14, -4
 793 0002 0A00     		movs	r2, r1
 213:..\..\..\arduinoLCD\test\Pain Drain\libraries\lvgl\src\misc/lv_style_gen.c ****     lv_style_value_t v = {
 214:..\..\..\arduinoLCD\test\Pain Drain\libraries\lvgl\src\misc/lv_style_gen.c ****         .num = (int32_t)value
 215:..\..\..\arduinoLCD\test\Pain Drain\libraries\lvgl\src\misc/lv_style_gen.c ****     };
 216:..\..\..\arduinoLCD\test\Pain Drain\libraries\lvgl\src\misc/lv_style_gen.c ****     lv_style_set_prop(style, LV_STYLE_BG_GRAD_DIR, v);
 794              		.loc 1 216 0
 795 0004 2321     		movs	r1, #35
 796              	.LVL79:
 797 0006 FFF7FEFF 		bl	lv_style_set_prop
 798              	.LVL80:
 217:..\..\..\arduinoLCD\test\Pain Drain\libraries\lvgl\src\misc/lv_style_gen.c **** }
 799              		.loc 1 217 0
 800              		@ sp needed
 801 000a 10BD     		pop	{r4, pc}
 802              		.cfi_endproc
 803              	.LFE80:
 804              		.size	lv_style_set_bg_grad_dir, .-lv_style_set_bg_grad_dir
 805              		.section	.text.lv_style_set_bg_main_stop,"ax",%progbits
 806              		.align	2
 807              		.global	lv_style_set_bg_main_stop
 808              		.code	16
 809              		.thumb_func
ARM GAS  C:\Users\haske\AppData\Local\Temp\ccb2zsXg.s 			page 19


 810              		.type	lv_style_set_bg_main_stop, %function
 811              	lv_style_set_bg_main_stop:
 812              	.LFB81:
 218:..\..\..\arduinoLCD\test\Pain Drain\libraries\lvgl\src\misc/lv_style_gen.c **** 
 219:..\..\..\arduinoLCD\test\Pain Drain\libraries\lvgl\src\misc/lv_style_gen.c **** void lv_style_set_bg_main_stop(lv_style_t * style, lv_coord_t value)
 220:..\..\..\arduinoLCD\test\Pain Drain\libraries\lvgl\src\misc/lv_style_gen.c **** {
 813              		.loc 1 220 0
 814              		.cfi_startproc
 815              		@ args = 0, pretend = 0, frame = 0
 816              		@ frame_needed = 0, uses_anonymous_args = 0
 817              	.LVL81:
 818 0000 10B5     		push	{r4, lr}
 819              		.cfi_def_cfa_offset 8
 820              		.cfi_offset 4, -8
 821              		.cfi_offset 14, -4
 822 0002 0A00     		movs	r2, r1
 221:..\..\..\arduinoLCD\test\Pain Drain\libraries\lvgl\src\misc/lv_style_gen.c ****     lv_style_value_t v = {
 222:..\..\..\arduinoLCD\test\Pain Drain\libraries\lvgl\src\misc/lv_style_gen.c ****         .num = (int32_t)value
 223:..\..\..\arduinoLCD\test\Pain Drain\libraries\lvgl\src\misc/lv_style_gen.c ****     };
 224:..\..\..\arduinoLCD\test\Pain Drain\libraries\lvgl\src\misc/lv_style_gen.c ****     lv_style_set_prop(style, LV_STYLE_BG_MAIN_STOP, v);
 823              		.loc 1 224 0
 824 0004 2421     		movs	r1, #36
 825              	.LVL82:
 826 0006 FFF7FEFF 		bl	lv_style_set_prop
 827              	.LVL83:
 225:..\..\..\arduinoLCD\test\Pain Drain\libraries\lvgl\src\misc/lv_style_gen.c **** }
 828              		.loc 1 225 0
 829              		@ sp needed
 830 000a 10BD     		pop	{r4, pc}
 831              		.cfi_endproc
 832              	.LFE81:
 833              		.size	lv_style_set_bg_main_stop, .-lv_style_set_bg_main_stop
 834              		.section	.text.lv_style_set_bg_grad_stop,"ax",%progbits
 835              		.align	2
 836              		.global	lv_style_set_bg_grad_stop
 837              		.code	16
 838              		.thumb_func
 839              		.type	lv_style_set_bg_grad_stop, %function
 840              	lv_style_set_bg_grad_stop:
 841              	.LFB82:
 226:..\..\..\arduinoLCD\test\Pain Drain\libraries\lvgl\src\misc/lv_style_gen.c **** 
 227:..\..\..\arduinoLCD\test\Pain Drain\libraries\lvgl\src\misc/lv_style_gen.c **** void lv_style_set_bg_grad_stop(lv_style_t * style, lv_coord_t value)
 228:..\..\..\arduinoLCD\test\Pain Drain\libraries\lvgl\src\misc/lv_style_gen.c **** {
 842              		.loc 1 228 0
 843              		.cfi_startproc
 844              		@ args = 0, pretend = 0, frame = 0
 845              		@ frame_needed = 0, uses_anonymous_args = 0
 846              	.LVL84:
 847 0000 10B5     		push	{r4, lr}
 848              		.cfi_def_cfa_offset 8
 849              		.cfi_offset 4, -8
 850              		.cfi_offset 14, -4
 851 0002 0A00     		movs	r2, r1
 229:..\..\..\arduinoLCD\test\Pain Drain\libraries\lvgl\src\misc/lv_style_gen.c ****     lv_style_value_t v = {
 230:..\..\..\arduinoLCD\test\Pain Drain\libraries\lvgl\src\misc/lv_style_gen.c ****         .num = (int32_t)value
 231:..\..\..\arduinoLCD\test\Pain Drain\libraries\lvgl\src\misc/lv_style_gen.c ****     };
 232:..\..\..\arduinoLCD\test\Pain Drain\libraries\lvgl\src\misc/lv_style_gen.c ****     lv_style_set_prop(style, LV_STYLE_BG_GRAD_STOP, v);
ARM GAS  C:\Users\haske\AppData\Local\Temp\ccb2zsXg.s 			page 20


 852              		.loc 1 232 0
 853 0004 2521     		movs	r1, #37
 854              	.LVL85:
 855 0006 FFF7FEFF 		bl	lv_style_set_prop
 856              	.LVL86:
 233:..\..\..\arduinoLCD\test\Pain Drain\libraries\lvgl\src\misc/lv_style_gen.c **** }
 857              		.loc 1 233 0
 858              		@ sp needed
 859 000a 10BD     		pop	{r4, pc}
 860              		.cfi_endproc
 861              	.LFE82:
 862              		.size	lv_style_set_bg_grad_stop, .-lv_style_set_bg_grad_stop
 863              		.section	.text.lv_style_set_bg_grad,"ax",%progbits
 864              		.align	2
 865              		.global	lv_style_set_bg_grad
 866              		.code	16
 867              		.thumb_func
 868              		.type	lv_style_set_bg_grad, %function
 869              	lv_style_set_bg_grad:
 870              	.LFB83:
 234:..\..\..\arduinoLCD\test\Pain Drain\libraries\lvgl\src\misc/lv_style_gen.c **** 
 235:..\..\..\arduinoLCD\test\Pain Drain\libraries\lvgl\src\misc/lv_style_gen.c **** void lv_style_set_bg_grad(lv_style_t * style, const lv_grad_dsc_t * value)
 236:..\..\..\arduinoLCD\test\Pain Drain\libraries\lvgl\src\misc/lv_style_gen.c **** {
 871              		.loc 1 236 0
 872              		.cfi_startproc
 873              		@ args = 0, pretend = 0, frame = 0
 874              		@ frame_needed = 0, uses_anonymous_args = 0
 875              	.LVL87:
 876 0000 10B5     		push	{r4, lr}
 877              		.cfi_def_cfa_offset 8
 878              		.cfi_offset 4, -8
 879              		.cfi_offset 14, -4
 880 0002 0A00     		movs	r2, r1
 237:..\..\..\arduinoLCD\test\Pain Drain\libraries\lvgl\src\misc/lv_style_gen.c ****     lv_style_value_t v = {
 238:..\..\..\arduinoLCD\test\Pain Drain\libraries\lvgl\src\misc/lv_style_gen.c ****         .ptr = value
 239:..\..\..\arduinoLCD\test\Pain Drain\libraries\lvgl\src\misc/lv_style_gen.c ****     };
 240:..\..\..\arduinoLCD\test\Pain Drain\libraries\lvgl\src\misc/lv_style_gen.c ****     lv_style_set_prop(style, LV_STYLE_BG_GRAD, v);
 881              		.loc 1 240 0
 882 0004 2621     		movs	r1, #38
 883              	.LVL88:
 884 0006 FFF7FEFF 		bl	lv_style_set_prop
 885              	.LVL89:
 241:..\..\..\arduinoLCD\test\Pain Drain\libraries\lvgl\src\misc/lv_style_gen.c **** }
 886              		.loc 1 241 0
 887              		@ sp needed
 888 000a 10BD     		pop	{r4, pc}
 889              		.cfi_endproc
 890              	.LFE83:
 891              		.size	lv_style_set_bg_grad, .-lv_style_set_bg_grad
 892              		.section	.text.lv_style_set_bg_dither_mode,"ax",%progbits
 893              		.align	2
 894              		.global	lv_style_set_bg_dither_mode
 895              		.code	16
 896              		.thumb_func
 897              		.type	lv_style_set_bg_dither_mode, %function
 898              	lv_style_set_bg_dither_mode:
 899              	.LFB84:
ARM GAS  C:\Users\haske\AppData\Local\Temp\ccb2zsXg.s 			page 21


 242:..\..\..\arduinoLCD\test\Pain Drain\libraries\lvgl\src\misc/lv_style_gen.c **** 
 243:..\..\..\arduinoLCD\test\Pain Drain\libraries\lvgl\src\misc/lv_style_gen.c **** void lv_style_set_bg_dither_mode(lv_style_t * style, lv_dither_mode_t value)
 244:..\..\..\arduinoLCD\test\Pain Drain\libraries\lvgl\src\misc/lv_style_gen.c **** {
 900              		.loc 1 244 0
 901              		.cfi_startproc
 902              		@ args = 0, pretend = 0, frame = 0
 903              		@ frame_needed = 0, uses_anonymous_args = 0
 904              	.LVL90:
 905 0000 10B5     		push	{r4, lr}
 906              		.cfi_def_cfa_offset 8
 907              		.cfi_offset 4, -8
 908              		.cfi_offset 14, -4
 909 0002 0A00     		movs	r2, r1
 245:..\..\..\arduinoLCD\test\Pain Drain\libraries\lvgl\src\misc/lv_style_gen.c ****     lv_style_value_t v = {
 246:..\..\..\arduinoLCD\test\Pain Drain\libraries\lvgl\src\misc/lv_style_gen.c ****         .num = (int32_t)value
 247:..\..\..\arduinoLCD\test\Pain Drain\libraries\lvgl\src\misc/lv_style_gen.c ****     };
 248:..\..\..\arduinoLCD\test\Pain Drain\libraries\lvgl\src\misc/lv_style_gen.c ****     lv_style_set_prop(style, LV_STYLE_BG_DITHER_MODE, v);
 910              		.loc 1 248 0
 911 0004 2721     		movs	r1, #39
 912              	.LVL91:
 913 0006 FFF7FEFF 		bl	lv_style_set_prop
 914              	.LVL92:
 249:..\..\..\arduinoLCD\test\Pain Drain\libraries\lvgl\src\misc/lv_style_gen.c **** }
 915              		.loc 1 249 0
 916              		@ sp needed
 917 000a 10BD     		pop	{r4, pc}
 918              		.cfi_endproc
 919              	.LFE84:
 920              		.size	lv_style_set_bg_dither_mode, .-lv_style_set_bg_dither_mode
 921              		.section	.text.lv_style_set_bg_img_src,"ax",%progbits
 922              		.align	2
 923              		.global	lv_style_set_bg_img_src
 924              		.code	16
 925              		.thumb_func
 926              		.type	lv_style_set_bg_img_src, %function
 927              	lv_style_set_bg_img_src:
 928              	.LFB85:
 250:..\..\..\arduinoLCD\test\Pain Drain\libraries\lvgl\src\misc/lv_style_gen.c **** 
 251:..\..\..\arduinoLCD\test\Pain Drain\libraries\lvgl\src\misc/lv_style_gen.c **** void lv_style_set_bg_img_src(lv_style_t * style, const void * value)
 252:..\..\..\arduinoLCD\test\Pain Drain\libraries\lvgl\src\misc/lv_style_gen.c **** {
 929              		.loc 1 252 0
 930              		.cfi_startproc
 931              		@ args = 0, pretend = 0, frame = 0
 932              		@ frame_needed = 0, uses_anonymous_args = 0
 933              	.LVL93:
 934 0000 10B5     		push	{r4, lr}
 935              		.cfi_def_cfa_offset 8
 936              		.cfi_offset 4, -8
 937              		.cfi_offset 14, -4
 938 0002 0A00     		movs	r2, r1
 253:..\..\..\arduinoLCD\test\Pain Drain\libraries\lvgl\src\misc/lv_style_gen.c ****     lv_style_value_t v = {
 254:..\..\..\arduinoLCD\test\Pain Drain\libraries\lvgl\src\misc/lv_style_gen.c ****         .ptr = value
 255:..\..\..\arduinoLCD\test\Pain Drain\libraries\lvgl\src\misc/lv_style_gen.c ****     };
 256:..\..\..\arduinoLCD\test\Pain Drain\libraries\lvgl\src\misc/lv_style_gen.c ****     lv_style_set_prop(style, LV_STYLE_BG_IMG_SRC, v);
 939              		.loc 1 256 0
 940 0004 2821     		movs	r1, #40
 941              	.LVL94:
ARM GAS  C:\Users\haske\AppData\Local\Temp\ccb2zsXg.s 			page 22


 942 0006 FFF7FEFF 		bl	lv_style_set_prop
 943              	.LVL95:
 257:..\..\..\arduinoLCD\test\Pain Drain\libraries\lvgl\src\misc/lv_style_gen.c **** }
 944              		.loc 1 257 0
 945              		@ sp needed
 946 000a 10BD     		pop	{r4, pc}
 947              		.cfi_endproc
 948              	.LFE85:
 949              		.size	lv_style_set_bg_img_src, .-lv_style_set_bg_img_src
 950              		.section	.text.lv_style_set_bg_img_opa,"ax",%progbits
 951              		.align	2
 952              		.global	lv_style_set_bg_img_opa
 953              		.code	16
 954              		.thumb_func
 955              		.type	lv_style_set_bg_img_opa, %function
 956              	lv_style_set_bg_img_opa:
 957              	.LFB86:
 258:..\..\..\arduinoLCD\test\Pain Drain\libraries\lvgl\src\misc/lv_style_gen.c **** 
 259:..\..\..\arduinoLCD\test\Pain Drain\libraries\lvgl\src\misc/lv_style_gen.c **** void lv_style_set_bg_img_opa(lv_style_t * style, lv_opa_t value)
 260:..\..\..\arduinoLCD\test\Pain Drain\libraries\lvgl\src\misc/lv_style_gen.c **** {
 958              		.loc 1 260 0
 959              		.cfi_startproc
 960              		@ args = 0, pretend = 0, frame = 0
 961              		@ frame_needed = 0, uses_anonymous_args = 0
 962              	.LVL96:
 963 0000 10B5     		push	{r4, lr}
 964              		.cfi_def_cfa_offset 8
 965              		.cfi_offset 4, -8
 966              		.cfi_offset 14, -4
 967 0002 0A00     		movs	r2, r1
 261:..\..\..\arduinoLCD\test\Pain Drain\libraries\lvgl\src\misc/lv_style_gen.c ****     lv_style_value_t v = {
 262:..\..\..\arduinoLCD\test\Pain Drain\libraries\lvgl\src\misc/lv_style_gen.c ****         .num = (int32_t)value
 263:..\..\..\arduinoLCD\test\Pain Drain\libraries\lvgl\src\misc/lv_style_gen.c ****     };
 264:..\..\..\arduinoLCD\test\Pain Drain\libraries\lvgl\src\misc/lv_style_gen.c ****     lv_style_set_prop(style, LV_STYLE_BG_IMG_OPA, v);
 968              		.loc 1 264 0
 969 0004 2921     		movs	r1, #41
 970              	.LVL97:
 971 0006 FFF7FEFF 		bl	lv_style_set_prop
 972              	.LVL98:
 265:..\..\..\arduinoLCD\test\Pain Drain\libraries\lvgl\src\misc/lv_style_gen.c **** }
 973              		.loc 1 265 0
 974              		@ sp needed
 975 000a 10BD     		pop	{r4, pc}
 976              		.cfi_endproc
 977              	.LFE86:
 978              		.size	lv_style_set_bg_img_opa, .-lv_style_set_bg_img_opa
 979              		.section	.text.lv_style_set_bg_img_recolor,"ax",%progbits
 980              		.align	2
 981              		.global	lv_style_set_bg_img_recolor
 982              		.code	16
 983              		.thumb_func
 984              		.type	lv_style_set_bg_img_recolor, %function
 985              	lv_style_set_bg_img_recolor:
 986              	.LFB87:
 266:..\..\..\arduinoLCD\test\Pain Drain\libraries\lvgl\src\misc/lv_style_gen.c **** 
 267:..\..\..\arduinoLCD\test\Pain Drain\libraries\lvgl\src\misc/lv_style_gen.c **** void lv_style_set_bg_img_recolor(lv_style_t * style, lv_color_t value)
 268:..\..\..\arduinoLCD\test\Pain Drain\libraries\lvgl\src\misc/lv_style_gen.c **** {
ARM GAS  C:\Users\haske\AppData\Local\Temp\ccb2zsXg.s 			page 23


 987              		.loc 1 268 0
 988              		.cfi_startproc
 989              		@ args = 0, pretend = 0, frame = 0
 990              		@ frame_needed = 0, uses_anonymous_args = 0
 991              	.LVL99:
 992 0000 10B5     		push	{r4, lr}
 993              		.cfi_def_cfa_offset 8
 994              		.cfi_offset 4, -8
 995              		.cfi_offset 14, -4
 269:..\..\..\arduinoLCD\test\Pain Drain\libraries\lvgl\src\misc/lv_style_gen.c ****     lv_style_value_t v = {
 996              		.loc 1 269 0
 997 0002 8AB2     		uxth	r2, r1
 998              	.LVL100:
 270:..\..\..\arduinoLCD\test\Pain Drain\libraries\lvgl\src\misc/lv_style_gen.c ****         .color = value
 271:..\..\..\arduinoLCD\test\Pain Drain\libraries\lvgl\src\misc/lv_style_gen.c ****     };
 272:..\..\..\arduinoLCD\test\Pain Drain\libraries\lvgl\src\misc/lv_style_gen.c ****     lv_style_set_prop(style, LV_STYLE_BG_IMG_RECOLOR, v);
 999              		.loc 1 272 0
 1000 0004 2A21     		movs	r1, #42
 1001 0006 FFF7FEFF 		bl	lv_style_set_prop
 1002              	.LVL101:
 273:..\..\..\arduinoLCD\test\Pain Drain\libraries\lvgl\src\misc/lv_style_gen.c **** }
 1003              		.loc 1 273 0
 1004              		@ sp needed
 1005 000a 10BD     		pop	{r4, pc}
 1006              		.cfi_endproc
 1007              	.LFE87:
 1008              		.size	lv_style_set_bg_img_recolor, .-lv_style_set_bg_img_recolor
 1009              		.section	.text.lv_style_set_bg_img_recolor_opa,"ax",%progbits
 1010              		.align	2
 1011              		.global	lv_style_set_bg_img_recolor_opa
 1012              		.code	16
 1013              		.thumb_func
 1014              		.type	lv_style_set_bg_img_recolor_opa, %function
 1015              	lv_style_set_bg_img_recolor_opa:
 1016              	.LFB88:
 274:..\..\..\arduinoLCD\test\Pain Drain\libraries\lvgl\src\misc/lv_style_gen.c **** 
 275:..\..\..\arduinoLCD\test\Pain Drain\libraries\lvgl\src\misc/lv_style_gen.c **** void lv_style_set_bg_img_recolor_opa(lv_style_t * style, lv_opa_t value)
 276:..\..\..\arduinoLCD\test\Pain Drain\libraries\lvgl\src\misc/lv_style_gen.c **** {
 1017              		.loc 1 276 0
 1018              		.cfi_startproc
 1019              		@ args = 0, pretend = 0, frame = 0
 1020              		@ frame_needed = 0, uses_anonymous_args = 0
 1021              	.LVL102:
 1022 0000 10B5     		push	{r4, lr}
 1023              		.cfi_def_cfa_offset 8
 1024              		.cfi_offset 4, -8
 1025              		.cfi_offset 14, -4
 1026 0002 0A00     		movs	r2, r1
 277:..\..\..\arduinoLCD\test\Pain Drain\libraries\lvgl\src\misc/lv_style_gen.c ****     lv_style_value_t v = {
 278:..\..\..\arduinoLCD\test\Pain Drain\libraries\lvgl\src\misc/lv_style_gen.c ****         .num = (int32_t)value
 279:..\..\..\arduinoLCD\test\Pain Drain\libraries\lvgl\src\misc/lv_style_gen.c ****     };
 280:..\..\..\arduinoLCD\test\Pain Drain\libraries\lvgl\src\misc/lv_style_gen.c ****     lv_style_set_prop(style, LV_STYLE_BG_IMG_RECOLOR_OPA, v);
 1027              		.loc 1 280 0
 1028 0004 2B21     		movs	r1, #43
 1029              	.LVL103:
 1030 0006 FFF7FEFF 		bl	lv_style_set_prop
 1031              	.LVL104:
ARM GAS  C:\Users\haske\AppData\Local\Temp\ccb2zsXg.s 			page 24


 281:..\..\..\arduinoLCD\test\Pain Drain\libraries\lvgl\src\misc/lv_style_gen.c **** }
 1032              		.loc 1 281 0
 1033              		@ sp needed
 1034 000a 10BD     		pop	{r4, pc}
 1035              		.cfi_endproc
 1036              	.LFE88:
 1037              		.size	lv_style_set_bg_img_recolor_opa, .-lv_style_set_bg_img_recolor_opa
 1038              		.section	.text.lv_style_set_bg_img_tiled,"ax",%progbits
 1039              		.align	2
 1040              		.global	lv_style_set_bg_img_tiled
 1041              		.code	16
 1042              		.thumb_func
 1043              		.type	lv_style_set_bg_img_tiled, %function
 1044              	lv_style_set_bg_img_tiled:
 1045              	.LFB89:
 282:..\..\..\arduinoLCD\test\Pain Drain\libraries\lvgl\src\misc/lv_style_gen.c **** 
 283:..\..\..\arduinoLCD\test\Pain Drain\libraries\lvgl\src\misc/lv_style_gen.c **** void lv_style_set_bg_img_tiled(lv_style_t * style, bool value)
 284:..\..\..\arduinoLCD\test\Pain Drain\libraries\lvgl\src\misc/lv_style_gen.c **** {
 1046              		.loc 1 284 0
 1047              		.cfi_startproc
 1048              		@ args = 0, pretend = 0, frame = 0
 1049              		@ frame_needed = 0, uses_anonymous_args = 0
 1050              	.LVL105:
 1051 0000 10B5     		push	{r4, lr}
 1052              		.cfi_def_cfa_offset 8
 1053              		.cfi_offset 4, -8
 1054              		.cfi_offset 14, -4
 1055 0002 0A00     		movs	r2, r1
 285:..\..\..\arduinoLCD\test\Pain Drain\libraries\lvgl\src\misc/lv_style_gen.c ****     lv_style_value_t v = {
 286:..\..\..\arduinoLCD\test\Pain Drain\libraries\lvgl\src\misc/lv_style_gen.c ****         .num = (int32_t)value
 287:..\..\..\arduinoLCD\test\Pain Drain\libraries\lvgl\src\misc/lv_style_gen.c ****     };
 288:..\..\..\arduinoLCD\test\Pain Drain\libraries\lvgl\src\misc/lv_style_gen.c ****     lv_style_set_prop(style, LV_STYLE_BG_IMG_TILED, v);
 1056              		.loc 1 288 0
 1057 0004 2C21     		movs	r1, #44
 1058              	.LVL106:
 1059 0006 FFF7FEFF 		bl	lv_style_set_prop
 1060              	.LVL107:
 289:..\..\..\arduinoLCD\test\Pain Drain\libraries\lvgl\src\misc/lv_style_gen.c **** }
 1061              		.loc 1 289 0
 1062              		@ sp needed
 1063 000a 10BD     		pop	{r4, pc}
 1064              		.cfi_endproc
 1065              	.LFE89:
 1066              		.size	lv_style_set_bg_img_tiled, .-lv_style_set_bg_img_tiled
 1067              		.section	.text.lv_style_set_border_color,"ax",%progbits
 1068              		.align	2
 1069              		.global	lv_style_set_border_color
 1070              		.code	16
 1071              		.thumb_func
 1072              		.type	lv_style_set_border_color, %function
 1073              	lv_style_set_border_color:
 1074              	.LFB90:
 290:..\..\..\arduinoLCD\test\Pain Drain\libraries\lvgl\src\misc/lv_style_gen.c **** 
 291:..\..\..\arduinoLCD\test\Pain Drain\libraries\lvgl\src\misc/lv_style_gen.c **** void lv_style_set_border_color(lv_style_t * style, lv_color_t value)
 292:..\..\..\arduinoLCD\test\Pain Drain\libraries\lvgl\src\misc/lv_style_gen.c **** {
 1075              		.loc 1 292 0
 1076              		.cfi_startproc
ARM GAS  C:\Users\haske\AppData\Local\Temp\ccb2zsXg.s 			page 25


 1077              		@ args = 0, pretend = 0, frame = 0
 1078              		@ frame_needed = 0, uses_anonymous_args = 0
 1079              	.LVL108:
 1080 0000 10B5     		push	{r4, lr}
 1081              		.cfi_def_cfa_offset 8
 1082              		.cfi_offset 4, -8
 1083              		.cfi_offset 14, -4
 293:..\..\..\arduinoLCD\test\Pain Drain\libraries\lvgl\src\misc/lv_style_gen.c ****     lv_style_value_t v = {
 1084              		.loc 1 293 0
 1085 0002 8AB2     		uxth	r2, r1
 1086              	.LVL109:
 294:..\..\..\arduinoLCD\test\Pain Drain\libraries\lvgl\src\misc/lv_style_gen.c ****         .color = value
 295:..\..\..\arduinoLCD\test\Pain Drain\libraries\lvgl\src\misc/lv_style_gen.c ****     };
 296:..\..\..\arduinoLCD\test\Pain Drain\libraries\lvgl\src\misc/lv_style_gen.c ****     lv_style_set_prop(style, LV_STYLE_BORDER_COLOR, v);
 1087              		.loc 1 296 0
 1088 0004 3021     		movs	r1, #48
 1089 0006 FFF7FEFF 		bl	lv_style_set_prop
 1090              	.LVL110:
 297:..\..\..\arduinoLCD\test\Pain Drain\libraries\lvgl\src\misc/lv_style_gen.c **** }
 1091              		.loc 1 297 0
 1092              		@ sp needed
 1093 000a 10BD     		pop	{r4, pc}
 1094              		.cfi_endproc
 1095              	.LFE90:
 1096              		.size	lv_style_set_border_color, .-lv_style_set_border_color
 1097              		.section	.text.lv_style_set_border_opa,"ax",%progbits
 1098              		.align	2
 1099              		.global	lv_style_set_border_opa
 1100              		.code	16
 1101              		.thumb_func
 1102              		.type	lv_style_set_border_opa, %function
 1103              	lv_style_set_border_opa:
 1104              	.LFB91:
 298:..\..\..\arduinoLCD\test\Pain Drain\libraries\lvgl\src\misc/lv_style_gen.c **** 
 299:..\..\..\arduinoLCD\test\Pain Drain\libraries\lvgl\src\misc/lv_style_gen.c **** void lv_style_set_border_opa(lv_style_t * style, lv_opa_t value)
 300:..\..\..\arduinoLCD\test\Pain Drain\libraries\lvgl\src\misc/lv_style_gen.c **** {
 1105              		.loc 1 300 0
 1106              		.cfi_startproc
 1107              		@ args = 0, pretend = 0, frame = 0
 1108              		@ frame_needed = 0, uses_anonymous_args = 0
 1109              	.LVL111:
 1110 0000 10B5     		push	{r4, lr}
 1111              		.cfi_def_cfa_offset 8
 1112              		.cfi_offset 4, -8
 1113              		.cfi_offset 14, -4
 1114 0002 0A00     		movs	r2, r1
 301:..\..\..\arduinoLCD\test\Pain Drain\libraries\lvgl\src\misc/lv_style_gen.c ****     lv_style_value_t v = {
 302:..\..\..\arduinoLCD\test\Pain Drain\libraries\lvgl\src\misc/lv_style_gen.c ****         .num = (int32_t)value
 303:..\..\..\arduinoLCD\test\Pain Drain\libraries\lvgl\src\misc/lv_style_gen.c ****     };
 304:..\..\..\arduinoLCD\test\Pain Drain\libraries\lvgl\src\misc/lv_style_gen.c ****     lv_style_set_prop(style, LV_STYLE_BORDER_OPA, v);
 1115              		.loc 1 304 0
 1116 0004 3121     		movs	r1, #49
 1117              	.LVL112:
 1118 0006 FFF7FEFF 		bl	lv_style_set_prop
 1119              	.LVL113:
 305:..\..\..\arduinoLCD\test\Pain Drain\libraries\lvgl\src\misc/lv_style_gen.c **** }
 1120              		.loc 1 305 0
ARM GAS  C:\Users\haske\AppData\Local\Temp\ccb2zsXg.s 			page 26


 1121              		@ sp needed
 1122 000a 10BD     		pop	{r4, pc}
 1123              		.cfi_endproc
 1124              	.LFE91:
 1125              		.size	lv_style_set_border_opa, .-lv_style_set_border_opa
 1126              		.section	.text.lv_style_set_border_width,"ax",%progbits
 1127              		.align	2
 1128              		.global	lv_style_set_border_width
 1129              		.code	16
 1130              		.thumb_func
 1131              		.type	lv_style_set_border_width, %function
 1132              	lv_style_set_border_width:
 1133              	.LFB92:
 306:..\..\..\arduinoLCD\test\Pain Drain\libraries\lvgl\src\misc/lv_style_gen.c **** 
 307:..\..\..\arduinoLCD\test\Pain Drain\libraries\lvgl\src\misc/lv_style_gen.c **** void lv_style_set_border_width(lv_style_t * style, lv_coord_t value)
 308:..\..\..\arduinoLCD\test\Pain Drain\libraries\lvgl\src\misc/lv_style_gen.c **** {
 1134              		.loc 1 308 0
 1135              		.cfi_startproc
 1136              		@ args = 0, pretend = 0, frame = 0
 1137              		@ frame_needed = 0, uses_anonymous_args = 0
 1138              	.LVL114:
 1139 0000 10B5     		push	{r4, lr}
 1140              		.cfi_def_cfa_offset 8
 1141              		.cfi_offset 4, -8
 1142              		.cfi_offset 14, -4
 1143 0002 0A00     		movs	r2, r1
 309:..\..\..\arduinoLCD\test\Pain Drain\libraries\lvgl\src\misc/lv_style_gen.c ****     lv_style_value_t v = {
 310:..\..\..\arduinoLCD\test\Pain Drain\libraries\lvgl\src\misc/lv_style_gen.c ****         .num = (int32_t)value
 311:..\..\..\arduinoLCD\test\Pain Drain\libraries\lvgl\src\misc/lv_style_gen.c ****     };
 312:..\..\..\arduinoLCD\test\Pain Drain\libraries\lvgl\src\misc/lv_style_gen.c ****     lv_style_set_prop(style, LV_STYLE_BORDER_WIDTH, v);
 1144              		.loc 1 312 0
 1145 0004 3221     		movs	r1, #50
 1146              	.LVL115:
 1147 0006 FFF7FEFF 		bl	lv_style_set_prop
 1148              	.LVL116:
 313:..\..\..\arduinoLCD\test\Pain Drain\libraries\lvgl\src\misc/lv_style_gen.c **** }
 1149              		.loc 1 313 0
 1150              		@ sp needed
 1151 000a 10BD     		pop	{r4, pc}
 1152              		.cfi_endproc
 1153              	.LFE92:
 1154              		.size	lv_style_set_border_width, .-lv_style_set_border_width
 1155              		.section	.text.lv_style_set_border_side,"ax",%progbits
 1156              		.align	2
 1157              		.global	lv_style_set_border_side
 1158              		.code	16
 1159              		.thumb_func
 1160              		.type	lv_style_set_border_side, %function
 1161              	lv_style_set_border_side:
 1162              	.LFB93:
 314:..\..\..\arduinoLCD\test\Pain Drain\libraries\lvgl\src\misc/lv_style_gen.c **** 
 315:..\..\..\arduinoLCD\test\Pain Drain\libraries\lvgl\src\misc/lv_style_gen.c **** void lv_style_set_border_side(lv_style_t * style, lv_border_side_t value)
 316:..\..\..\arduinoLCD\test\Pain Drain\libraries\lvgl\src\misc/lv_style_gen.c **** {
 1163              		.loc 1 316 0
 1164              		.cfi_startproc
 1165              		@ args = 0, pretend = 0, frame = 0
 1166              		@ frame_needed = 0, uses_anonymous_args = 0
ARM GAS  C:\Users\haske\AppData\Local\Temp\ccb2zsXg.s 			page 27


 1167              	.LVL117:
 1168 0000 10B5     		push	{r4, lr}
 1169              		.cfi_def_cfa_offset 8
 1170              		.cfi_offset 4, -8
 1171              		.cfi_offset 14, -4
 1172 0002 0A00     		movs	r2, r1
 317:..\..\..\arduinoLCD\test\Pain Drain\libraries\lvgl\src\misc/lv_style_gen.c ****     lv_style_value_t v = {
 318:..\..\..\arduinoLCD\test\Pain Drain\libraries\lvgl\src\misc/lv_style_gen.c ****         .num = (int32_t)value
 319:..\..\..\arduinoLCD\test\Pain Drain\libraries\lvgl\src\misc/lv_style_gen.c ****     };
 320:..\..\..\arduinoLCD\test\Pain Drain\libraries\lvgl\src\misc/lv_style_gen.c ****     lv_style_set_prop(style, LV_STYLE_BORDER_SIDE, v);
 1173              		.loc 1 320 0
 1174 0004 3321     		movs	r1, #51
 1175              	.LVL118:
 1176 0006 FFF7FEFF 		bl	lv_style_set_prop
 1177              	.LVL119:
 321:..\..\..\arduinoLCD\test\Pain Drain\libraries\lvgl\src\misc/lv_style_gen.c **** }
 1178              		.loc 1 321 0
 1179              		@ sp needed
 1180 000a 10BD     		pop	{r4, pc}
 1181              		.cfi_endproc
 1182              	.LFE93:
 1183              		.size	lv_style_set_border_side, .-lv_style_set_border_side
 1184              		.section	.text.lv_style_set_border_post,"ax",%progbits
 1185              		.align	2
 1186              		.global	lv_style_set_border_post
 1187              		.code	16
 1188              		.thumb_func
 1189              		.type	lv_style_set_border_post, %function
 1190              	lv_style_set_border_post:
 1191              	.LFB94:
 322:..\..\..\arduinoLCD\test\Pain Drain\libraries\lvgl\src\misc/lv_style_gen.c **** 
 323:..\..\..\arduinoLCD\test\Pain Drain\libraries\lvgl\src\misc/lv_style_gen.c **** void lv_style_set_border_post(lv_style_t * style, bool value)
 324:..\..\..\arduinoLCD\test\Pain Drain\libraries\lvgl\src\misc/lv_style_gen.c **** {
 1192              		.loc 1 324 0
 1193              		.cfi_startproc
 1194              		@ args = 0, pretend = 0, frame = 0
 1195              		@ frame_needed = 0, uses_anonymous_args = 0
 1196              	.LVL120:
 1197 0000 10B5     		push	{r4, lr}
 1198              		.cfi_def_cfa_offset 8
 1199              		.cfi_offset 4, -8
 1200              		.cfi_offset 14, -4
 1201 0002 0A00     		movs	r2, r1
 325:..\..\..\arduinoLCD\test\Pain Drain\libraries\lvgl\src\misc/lv_style_gen.c ****     lv_style_value_t v = {
 326:..\..\..\arduinoLCD\test\Pain Drain\libraries\lvgl\src\misc/lv_style_gen.c ****         .num = (int32_t)value
 327:..\..\..\arduinoLCD\test\Pain Drain\libraries\lvgl\src\misc/lv_style_gen.c ****     };
 328:..\..\..\arduinoLCD\test\Pain Drain\libraries\lvgl\src\misc/lv_style_gen.c ****     lv_style_set_prop(style, LV_STYLE_BORDER_POST, v);
 1202              		.loc 1 328 0
 1203 0004 3421     		movs	r1, #52
 1204              	.LVL121:
 1205 0006 FFF7FEFF 		bl	lv_style_set_prop
 1206              	.LVL122:
 329:..\..\..\arduinoLCD\test\Pain Drain\libraries\lvgl\src\misc/lv_style_gen.c **** }
 1207              		.loc 1 329 0
 1208              		@ sp needed
 1209 000a 10BD     		pop	{r4, pc}
 1210              		.cfi_endproc
ARM GAS  C:\Users\haske\AppData\Local\Temp\ccb2zsXg.s 			page 28


 1211              	.LFE94:
 1212              		.size	lv_style_set_border_post, .-lv_style_set_border_post
 1213              		.section	.text.lv_style_set_outline_width,"ax",%progbits
 1214              		.align	2
 1215              		.global	lv_style_set_outline_width
 1216              		.code	16
 1217              		.thumb_func
 1218              		.type	lv_style_set_outline_width, %function
 1219              	lv_style_set_outline_width:
 1220              	.LFB95:
 330:..\..\..\arduinoLCD\test\Pain Drain\libraries\lvgl\src\misc/lv_style_gen.c **** 
 331:..\..\..\arduinoLCD\test\Pain Drain\libraries\lvgl\src\misc/lv_style_gen.c **** void lv_style_set_outline_width(lv_style_t * style, lv_coord_t value)
 332:..\..\..\arduinoLCD\test\Pain Drain\libraries\lvgl\src\misc/lv_style_gen.c **** {
 1221              		.loc 1 332 0
 1222              		.cfi_startproc
 1223              		@ args = 0, pretend = 0, frame = 0
 1224              		@ frame_needed = 0, uses_anonymous_args = 0
 1225              	.LVL123:
 1226 0000 10B5     		push	{r4, lr}
 1227              		.cfi_def_cfa_offset 8
 1228              		.cfi_offset 4, -8
 1229              		.cfi_offset 14, -4
 1230 0002 0A00     		movs	r2, r1
 333:..\..\..\arduinoLCD\test\Pain Drain\libraries\lvgl\src\misc/lv_style_gen.c ****     lv_style_value_t v = {
 334:..\..\..\arduinoLCD\test\Pain Drain\libraries\lvgl\src\misc/lv_style_gen.c ****         .num = (int32_t)value
 335:..\..\..\arduinoLCD\test\Pain Drain\libraries\lvgl\src\misc/lv_style_gen.c ****     };
 336:..\..\..\arduinoLCD\test\Pain Drain\libraries\lvgl\src\misc/lv_style_gen.c ****     lv_style_set_prop(style, LV_STYLE_OUTLINE_WIDTH, v);
 1231              		.loc 1 336 0
 1232 0004 3521     		movs	r1, #53
 1233              	.LVL124:
 1234 0006 FFF7FEFF 		bl	lv_style_set_prop
 1235              	.LVL125:
 337:..\..\..\arduinoLCD\test\Pain Drain\libraries\lvgl\src\misc/lv_style_gen.c **** }
 1236              		.loc 1 337 0
 1237              		@ sp needed
 1238 000a 10BD     		pop	{r4, pc}
 1239              		.cfi_endproc
 1240              	.LFE95:
 1241              		.size	lv_style_set_outline_width, .-lv_style_set_outline_width
 1242              		.section	.text.lv_style_set_outline_color,"ax",%progbits
 1243              		.align	2
 1244              		.global	lv_style_set_outline_color
 1245              		.code	16
 1246              		.thumb_func
 1247              		.type	lv_style_set_outline_color, %function
 1248              	lv_style_set_outline_color:
 1249              	.LFB96:
 338:..\..\..\arduinoLCD\test\Pain Drain\libraries\lvgl\src\misc/lv_style_gen.c **** 
 339:..\..\..\arduinoLCD\test\Pain Drain\libraries\lvgl\src\misc/lv_style_gen.c **** void lv_style_set_outline_color(lv_style_t * style, lv_color_t value)
 340:..\..\..\arduinoLCD\test\Pain Drain\libraries\lvgl\src\misc/lv_style_gen.c **** {
 1250              		.loc 1 340 0
 1251              		.cfi_startproc
 1252              		@ args = 0, pretend = 0, frame = 0
 1253              		@ frame_needed = 0, uses_anonymous_args = 0
 1254              	.LVL126:
 1255 0000 10B5     		push	{r4, lr}
 1256              		.cfi_def_cfa_offset 8
ARM GAS  C:\Users\haske\AppData\Local\Temp\ccb2zsXg.s 			page 29


 1257              		.cfi_offset 4, -8
 1258              		.cfi_offset 14, -4
 341:..\..\..\arduinoLCD\test\Pain Drain\libraries\lvgl\src\misc/lv_style_gen.c ****     lv_style_value_t v = {
 1259              		.loc 1 341 0
 1260 0002 8AB2     		uxth	r2, r1
 1261              	.LVL127:
 342:..\..\..\arduinoLCD\test\Pain Drain\libraries\lvgl\src\misc/lv_style_gen.c ****         .color = value
 343:..\..\..\arduinoLCD\test\Pain Drain\libraries\lvgl\src\misc/lv_style_gen.c ****     };
 344:..\..\..\arduinoLCD\test\Pain Drain\libraries\lvgl\src\misc/lv_style_gen.c ****     lv_style_set_prop(style, LV_STYLE_OUTLINE_COLOR, v);
 1262              		.loc 1 344 0
 1263 0004 3621     		movs	r1, #54
 1264 0006 FFF7FEFF 		bl	lv_style_set_prop
 1265              	.LVL128:
 345:..\..\..\arduinoLCD\test\Pain Drain\libraries\lvgl\src\misc/lv_style_gen.c **** }
 1266              		.loc 1 345 0
 1267              		@ sp needed
 1268 000a 10BD     		pop	{r4, pc}
 1269              		.cfi_endproc
 1270              	.LFE96:
 1271              		.size	lv_style_set_outline_color, .-lv_style_set_outline_color
 1272              		.section	.text.lv_style_set_outline_opa,"ax",%progbits
 1273              		.align	2
 1274              		.global	lv_style_set_outline_opa
 1275              		.code	16
 1276              		.thumb_func
 1277              		.type	lv_style_set_outline_opa, %function
 1278              	lv_style_set_outline_opa:
 1279              	.LFB97:
 346:..\..\..\arduinoLCD\test\Pain Drain\libraries\lvgl\src\misc/lv_style_gen.c **** 
 347:..\..\..\arduinoLCD\test\Pain Drain\libraries\lvgl\src\misc/lv_style_gen.c **** void lv_style_set_outline_opa(lv_style_t * style, lv_opa_t value)
 348:..\..\..\arduinoLCD\test\Pain Drain\libraries\lvgl\src\misc/lv_style_gen.c **** {
 1280              		.loc 1 348 0
 1281              		.cfi_startproc
 1282              		@ args = 0, pretend = 0, frame = 0
 1283              		@ frame_needed = 0, uses_anonymous_args = 0
 1284              	.LVL129:
 1285 0000 10B5     		push	{r4, lr}
 1286              		.cfi_def_cfa_offset 8
 1287              		.cfi_offset 4, -8
 1288              		.cfi_offset 14, -4
 1289 0002 0A00     		movs	r2, r1
 349:..\..\..\arduinoLCD\test\Pain Drain\libraries\lvgl\src\misc/lv_style_gen.c ****     lv_style_value_t v = {
 350:..\..\..\arduinoLCD\test\Pain Drain\libraries\lvgl\src\misc/lv_style_gen.c ****         .num = (int32_t)value
 351:..\..\..\arduinoLCD\test\Pain Drain\libraries\lvgl\src\misc/lv_style_gen.c ****     };
 352:..\..\..\arduinoLCD\test\Pain Drain\libraries\lvgl\src\misc/lv_style_gen.c ****     lv_style_set_prop(style, LV_STYLE_OUTLINE_OPA, v);
 1290              		.loc 1 352 0
 1291 0004 3721     		movs	r1, #55
 1292              	.LVL130:
 1293 0006 FFF7FEFF 		bl	lv_style_set_prop
 1294              	.LVL131:
 353:..\..\..\arduinoLCD\test\Pain Drain\libraries\lvgl\src\misc/lv_style_gen.c **** }
 1295              		.loc 1 353 0
 1296              		@ sp needed
 1297 000a 10BD     		pop	{r4, pc}
 1298              		.cfi_endproc
 1299              	.LFE97:
 1300              		.size	lv_style_set_outline_opa, .-lv_style_set_outline_opa
ARM GAS  C:\Users\haske\AppData\Local\Temp\ccb2zsXg.s 			page 30


 1301              		.section	.text.lv_style_set_outline_pad,"ax",%progbits
 1302              		.align	2
 1303              		.global	lv_style_set_outline_pad
 1304              		.code	16
 1305              		.thumb_func
 1306              		.type	lv_style_set_outline_pad, %function
 1307              	lv_style_set_outline_pad:
 1308              	.LFB98:
 354:..\..\..\arduinoLCD\test\Pain Drain\libraries\lvgl\src\misc/lv_style_gen.c **** 
 355:..\..\..\arduinoLCD\test\Pain Drain\libraries\lvgl\src\misc/lv_style_gen.c **** void lv_style_set_outline_pad(lv_style_t * style, lv_coord_t value)
 356:..\..\..\arduinoLCD\test\Pain Drain\libraries\lvgl\src\misc/lv_style_gen.c **** {
 1309              		.loc 1 356 0
 1310              		.cfi_startproc
 1311              		@ args = 0, pretend = 0, frame = 0
 1312              		@ frame_needed = 0, uses_anonymous_args = 0
 1313              	.LVL132:
 1314 0000 10B5     		push	{r4, lr}
 1315              		.cfi_def_cfa_offset 8
 1316              		.cfi_offset 4, -8
 1317              		.cfi_offset 14, -4
 1318 0002 0A00     		movs	r2, r1
 357:..\..\..\arduinoLCD\test\Pain Drain\libraries\lvgl\src\misc/lv_style_gen.c ****     lv_style_value_t v = {
 358:..\..\..\arduinoLCD\test\Pain Drain\libraries\lvgl\src\misc/lv_style_gen.c ****         .num = (int32_t)value
 359:..\..\..\arduinoLCD\test\Pain Drain\libraries\lvgl\src\misc/lv_style_gen.c ****     };
 360:..\..\..\arduinoLCD\test\Pain Drain\libraries\lvgl\src\misc/lv_style_gen.c ****     lv_style_set_prop(style, LV_STYLE_OUTLINE_PAD, v);
 1319              		.loc 1 360 0
 1320 0004 3821     		movs	r1, #56
 1321              	.LVL133:
 1322 0006 FFF7FEFF 		bl	lv_style_set_prop
 1323              	.LVL134:
 361:..\..\..\arduinoLCD\test\Pain Drain\libraries\lvgl\src\misc/lv_style_gen.c **** }
 1324              		.loc 1 361 0
 1325              		@ sp needed
 1326 000a 10BD     		pop	{r4, pc}
 1327              		.cfi_endproc
 1328              	.LFE98:
 1329              		.size	lv_style_set_outline_pad, .-lv_style_set_outline_pad
 1330              		.section	.text.lv_style_set_shadow_width,"ax",%progbits
 1331              		.align	2
 1332              		.global	lv_style_set_shadow_width
 1333              		.code	16
 1334              		.thumb_func
 1335              		.type	lv_style_set_shadow_width, %function
 1336              	lv_style_set_shadow_width:
 1337              	.LFB99:
 362:..\..\..\arduinoLCD\test\Pain Drain\libraries\lvgl\src\misc/lv_style_gen.c **** 
 363:..\..\..\arduinoLCD\test\Pain Drain\libraries\lvgl\src\misc/lv_style_gen.c **** void lv_style_set_shadow_width(lv_style_t * style, lv_coord_t value)
 364:..\..\..\arduinoLCD\test\Pain Drain\libraries\lvgl\src\misc/lv_style_gen.c **** {
 1338              		.loc 1 364 0
 1339              		.cfi_startproc
 1340              		@ args = 0, pretend = 0, frame = 0
 1341              		@ frame_needed = 0, uses_anonymous_args = 0
 1342              	.LVL135:
 1343 0000 10B5     		push	{r4, lr}
 1344              		.cfi_def_cfa_offset 8
 1345              		.cfi_offset 4, -8
 1346              		.cfi_offset 14, -4
ARM GAS  C:\Users\haske\AppData\Local\Temp\ccb2zsXg.s 			page 31


 1347 0002 0A00     		movs	r2, r1
 365:..\..\..\arduinoLCD\test\Pain Drain\libraries\lvgl\src\misc/lv_style_gen.c ****     lv_style_value_t v = {
 366:..\..\..\arduinoLCD\test\Pain Drain\libraries\lvgl\src\misc/lv_style_gen.c ****         .num = (int32_t)value
 367:..\..\..\arduinoLCD\test\Pain Drain\libraries\lvgl\src\misc/lv_style_gen.c ****     };
 368:..\..\..\arduinoLCD\test\Pain Drain\libraries\lvgl\src\misc/lv_style_gen.c ****     lv_style_set_prop(style, LV_STYLE_SHADOW_WIDTH, v);
 1348              		.loc 1 368 0
 1349 0004 4021     		movs	r1, #64
 1350              	.LVL136:
 1351 0006 FFF7FEFF 		bl	lv_style_set_prop
 1352              	.LVL137:
 369:..\..\..\arduinoLCD\test\Pain Drain\libraries\lvgl\src\misc/lv_style_gen.c **** }
 1353              		.loc 1 369 0
 1354              		@ sp needed
 1355 000a 10BD     		pop	{r4, pc}
 1356              		.cfi_endproc
 1357              	.LFE99:
 1358              		.size	lv_style_set_shadow_width, .-lv_style_set_shadow_width
 1359              		.section	.text.lv_style_set_shadow_ofs_x,"ax",%progbits
 1360              		.align	2
 1361              		.global	lv_style_set_shadow_ofs_x
 1362              		.code	16
 1363              		.thumb_func
 1364              		.type	lv_style_set_shadow_ofs_x, %function
 1365              	lv_style_set_shadow_ofs_x:
 1366              	.LFB100:
 370:..\..\..\arduinoLCD\test\Pain Drain\libraries\lvgl\src\misc/lv_style_gen.c **** 
 371:..\..\..\arduinoLCD\test\Pain Drain\libraries\lvgl\src\misc/lv_style_gen.c **** void lv_style_set_shadow_ofs_x(lv_style_t * style, lv_coord_t value)
 372:..\..\..\arduinoLCD\test\Pain Drain\libraries\lvgl\src\misc/lv_style_gen.c **** {
 1367              		.loc 1 372 0
 1368              		.cfi_startproc
 1369              		@ args = 0, pretend = 0, frame = 0
 1370              		@ frame_needed = 0, uses_anonymous_args = 0
 1371              	.LVL138:
 1372 0000 10B5     		push	{r4, lr}
 1373              		.cfi_def_cfa_offset 8
 1374              		.cfi_offset 4, -8
 1375              		.cfi_offset 14, -4
 1376 0002 0A00     		movs	r2, r1
 373:..\..\..\arduinoLCD\test\Pain Drain\libraries\lvgl\src\misc/lv_style_gen.c ****     lv_style_value_t v = {
 374:..\..\..\arduinoLCD\test\Pain Drain\libraries\lvgl\src\misc/lv_style_gen.c ****         .num = (int32_t)value
 375:..\..\..\arduinoLCD\test\Pain Drain\libraries\lvgl\src\misc/lv_style_gen.c ****     };
 376:..\..\..\arduinoLCD\test\Pain Drain\libraries\lvgl\src\misc/lv_style_gen.c ****     lv_style_set_prop(style, LV_STYLE_SHADOW_OFS_X, v);
 1377              		.loc 1 376 0
 1378 0004 4121     		movs	r1, #65
 1379              	.LVL139:
 1380 0006 FFF7FEFF 		bl	lv_style_set_prop
 1381              	.LVL140:
 377:..\..\..\arduinoLCD\test\Pain Drain\libraries\lvgl\src\misc/lv_style_gen.c **** }
 1382              		.loc 1 377 0
 1383              		@ sp needed
 1384 000a 10BD     		pop	{r4, pc}
 1385              		.cfi_endproc
 1386              	.LFE100:
 1387              		.size	lv_style_set_shadow_ofs_x, .-lv_style_set_shadow_ofs_x
 1388              		.section	.text.lv_style_set_shadow_ofs_y,"ax",%progbits
 1389              		.align	2
 1390              		.global	lv_style_set_shadow_ofs_y
ARM GAS  C:\Users\haske\AppData\Local\Temp\ccb2zsXg.s 			page 32


 1391              		.code	16
 1392              		.thumb_func
 1393              		.type	lv_style_set_shadow_ofs_y, %function
 1394              	lv_style_set_shadow_ofs_y:
 1395              	.LFB101:
 378:..\..\..\arduinoLCD\test\Pain Drain\libraries\lvgl\src\misc/lv_style_gen.c **** 
 379:..\..\..\arduinoLCD\test\Pain Drain\libraries\lvgl\src\misc/lv_style_gen.c **** void lv_style_set_shadow_ofs_y(lv_style_t * style, lv_coord_t value)
 380:..\..\..\arduinoLCD\test\Pain Drain\libraries\lvgl\src\misc/lv_style_gen.c **** {
 1396              		.loc 1 380 0
 1397              		.cfi_startproc
 1398              		@ args = 0, pretend = 0, frame = 0
 1399              		@ frame_needed = 0, uses_anonymous_args = 0
 1400              	.LVL141:
 1401 0000 10B5     		push	{r4, lr}
 1402              		.cfi_def_cfa_offset 8
 1403              		.cfi_offset 4, -8
 1404              		.cfi_offset 14, -4
 1405 0002 0A00     		movs	r2, r1
 381:..\..\..\arduinoLCD\test\Pain Drain\libraries\lvgl\src\misc/lv_style_gen.c ****     lv_style_value_t v = {
 382:..\..\..\arduinoLCD\test\Pain Drain\libraries\lvgl\src\misc/lv_style_gen.c ****         .num = (int32_t)value
 383:..\..\..\arduinoLCD\test\Pain Drain\libraries\lvgl\src\misc/lv_style_gen.c ****     };
 384:..\..\..\arduinoLCD\test\Pain Drain\libraries\lvgl\src\misc/lv_style_gen.c ****     lv_style_set_prop(style, LV_STYLE_SHADOW_OFS_Y, v);
 1406              		.loc 1 384 0
 1407 0004 4221     		movs	r1, #66
 1408              	.LVL142:
 1409 0006 FFF7FEFF 		bl	lv_style_set_prop
 1410              	.LVL143:
 385:..\..\..\arduinoLCD\test\Pain Drain\libraries\lvgl\src\misc/lv_style_gen.c **** }
 1411              		.loc 1 385 0
 1412              		@ sp needed
 1413 000a 10BD     		pop	{r4, pc}
 1414              		.cfi_endproc
 1415              	.LFE101:
 1416              		.size	lv_style_set_shadow_ofs_y, .-lv_style_set_shadow_ofs_y
 1417              		.section	.text.lv_style_set_shadow_spread,"ax",%progbits
 1418              		.align	2
 1419              		.global	lv_style_set_shadow_spread
 1420              		.code	16
 1421              		.thumb_func
 1422              		.type	lv_style_set_shadow_spread, %function
 1423              	lv_style_set_shadow_spread:
 1424              	.LFB102:
 386:..\..\..\arduinoLCD\test\Pain Drain\libraries\lvgl\src\misc/lv_style_gen.c **** 
 387:..\..\..\arduinoLCD\test\Pain Drain\libraries\lvgl\src\misc/lv_style_gen.c **** void lv_style_set_shadow_spread(lv_style_t * style, lv_coord_t value)
 388:..\..\..\arduinoLCD\test\Pain Drain\libraries\lvgl\src\misc/lv_style_gen.c **** {
 1425              		.loc 1 388 0
 1426              		.cfi_startproc
 1427              		@ args = 0, pretend = 0, frame = 0
 1428              		@ frame_needed = 0, uses_anonymous_args = 0
 1429              	.LVL144:
 1430 0000 10B5     		push	{r4, lr}
 1431              		.cfi_def_cfa_offset 8
 1432              		.cfi_offset 4, -8
 1433              		.cfi_offset 14, -4
 1434 0002 0A00     		movs	r2, r1
 389:..\..\..\arduinoLCD\test\Pain Drain\libraries\lvgl\src\misc/lv_style_gen.c ****     lv_style_value_t v = {
 390:..\..\..\arduinoLCD\test\Pain Drain\libraries\lvgl\src\misc/lv_style_gen.c ****         .num = (int32_t)value
ARM GAS  C:\Users\haske\AppData\Local\Temp\ccb2zsXg.s 			page 33


 391:..\..\..\arduinoLCD\test\Pain Drain\libraries\lvgl\src\misc/lv_style_gen.c ****     };
 392:..\..\..\arduinoLCD\test\Pain Drain\libraries\lvgl\src\misc/lv_style_gen.c ****     lv_style_set_prop(style, LV_STYLE_SHADOW_SPREAD, v);
 1435              		.loc 1 392 0
 1436 0004 4321     		movs	r1, #67
 1437              	.LVL145:
 1438 0006 FFF7FEFF 		bl	lv_style_set_prop
 1439              	.LVL146:
 393:..\..\..\arduinoLCD\test\Pain Drain\libraries\lvgl\src\misc/lv_style_gen.c **** }
 1440              		.loc 1 393 0
 1441              		@ sp needed
 1442 000a 10BD     		pop	{r4, pc}
 1443              		.cfi_endproc
 1444              	.LFE102:
 1445              		.size	lv_style_set_shadow_spread, .-lv_style_set_shadow_spread
 1446              		.section	.text.lv_style_set_shadow_color,"ax",%progbits
 1447              		.align	2
 1448              		.global	lv_style_set_shadow_color
 1449              		.code	16
 1450              		.thumb_func
 1451              		.type	lv_style_set_shadow_color, %function
 1452              	lv_style_set_shadow_color:
 1453              	.LFB103:
 394:..\..\..\arduinoLCD\test\Pain Drain\libraries\lvgl\src\misc/lv_style_gen.c **** 
 395:..\..\..\arduinoLCD\test\Pain Drain\libraries\lvgl\src\misc/lv_style_gen.c **** void lv_style_set_shadow_color(lv_style_t * style, lv_color_t value)
 396:..\..\..\arduinoLCD\test\Pain Drain\libraries\lvgl\src\misc/lv_style_gen.c **** {
 1454              		.loc 1 396 0
 1455              		.cfi_startproc
 1456              		@ args = 0, pretend = 0, frame = 0
 1457              		@ frame_needed = 0, uses_anonymous_args = 0
 1458              	.LVL147:
 1459 0000 10B5     		push	{r4, lr}
 1460              		.cfi_def_cfa_offset 8
 1461              		.cfi_offset 4, -8
 1462              		.cfi_offset 14, -4
 397:..\..\..\arduinoLCD\test\Pain Drain\libraries\lvgl\src\misc/lv_style_gen.c ****     lv_style_value_t v = {
 1463              		.loc 1 397 0
 1464 0002 8AB2     		uxth	r2, r1
 1465              	.LVL148:
 398:..\..\..\arduinoLCD\test\Pain Drain\libraries\lvgl\src\misc/lv_style_gen.c ****         .color = value
 399:..\..\..\arduinoLCD\test\Pain Drain\libraries\lvgl\src\misc/lv_style_gen.c ****     };
 400:..\..\..\arduinoLCD\test\Pain Drain\libraries\lvgl\src\misc/lv_style_gen.c ****     lv_style_set_prop(style, LV_STYLE_SHADOW_COLOR, v);
 1466              		.loc 1 400 0
 1467 0004 4421     		movs	r1, #68
 1468 0006 FFF7FEFF 		bl	lv_style_set_prop
 1469              	.LVL149:
 401:..\..\..\arduinoLCD\test\Pain Drain\libraries\lvgl\src\misc/lv_style_gen.c **** }
 1470              		.loc 1 401 0
 1471              		@ sp needed
 1472 000a 10BD     		pop	{r4, pc}
 1473              		.cfi_endproc
 1474              	.LFE103:
 1475              		.size	lv_style_set_shadow_color, .-lv_style_set_shadow_color
 1476              		.section	.text.lv_style_set_shadow_opa,"ax",%progbits
 1477              		.align	2
 1478              		.global	lv_style_set_shadow_opa
 1479              		.code	16
 1480              		.thumb_func
ARM GAS  C:\Users\haske\AppData\Local\Temp\ccb2zsXg.s 			page 34


 1481              		.type	lv_style_set_shadow_opa, %function
 1482              	lv_style_set_shadow_opa:
 1483              	.LFB104:
 402:..\..\..\arduinoLCD\test\Pain Drain\libraries\lvgl\src\misc/lv_style_gen.c **** 
 403:..\..\..\arduinoLCD\test\Pain Drain\libraries\lvgl\src\misc/lv_style_gen.c **** void lv_style_set_shadow_opa(lv_style_t * style, lv_opa_t value)
 404:..\..\..\arduinoLCD\test\Pain Drain\libraries\lvgl\src\misc/lv_style_gen.c **** {
 1484              		.loc 1 404 0
 1485              		.cfi_startproc
 1486              		@ args = 0, pretend = 0, frame = 0
 1487              		@ frame_needed = 0, uses_anonymous_args = 0
 1488              	.LVL150:
 1489 0000 10B5     		push	{r4, lr}
 1490              		.cfi_def_cfa_offset 8
 1491              		.cfi_offset 4, -8
 1492              		.cfi_offset 14, -4
 1493 0002 0A00     		movs	r2, r1
 405:..\..\..\arduinoLCD\test\Pain Drain\libraries\lvgl\src\misc/lv_style_gen.c ****     lv_style_value_t v = {
 406:..\..\..\arduinoLCD\test\Pain Drain\libraries\lvgl\src\misc/lv_style_gen.c ****         .num = (int32_t)value
 407:..\..\..\arduinoLCD\test\Pain Drain\libraries\lvgl\src\misc/lv_style_gen.c ****     };
 408:..\..\..\arduinoLCD\test\Pain Drain\libraries\lvgl\src\misc/lv_style_gen.c ****     lv_style_set_prop(style, LV_STYLE_SHADOW_OPA, v);
 1494              		.loc 1 408 0
 1495 0004 4521     		movs	r1, #69
 1496              	.LVL151:
 1497 0006 FFF7FEFF 		bl	lv_style_set_prop
 1498              	.LVL152:
 409:..\..\..\arduinoLCD\test\Pain Drain\libraries\lvgl\src\misc/lv_style_gen.c **** }
 1499              		.loc 1 409 0
 1500              		@ sp needed
 1501 000a 10BD     		pop	{r4, pc}
 1502              		.cfi_endproc
 1503              	.LFE104:
 1504              		.size	lv_style_set_shadow_opa, .-lv_style_set_shadow_opa
 1505              		.section	.text.lv_style_set_img_opa,"ax",%progbits
 1506              		.align	2
 1507              		.global	lv_style_set_img_opa
 1508              		.code	16
 1509              		.thumb_func
 1510              		.type	lv_style_set_img_opa, %function
 1511              	lv_style_set_img_opa:
 1512              	.LFB105:
 410:..\..\..\arduinoLCD\test\Pain Drain\libraries\lvgl\src\misc/lv_style_gen.c **** 
 411:..\..\..\arduinoLCD\test\Pain Drain\libraries\lvgl\src\misc/lv_style_gen.c **** void lv_style_set_img_opa(lv_style_t * style, lv_opa_t value)
 412:..\..\..\arduinoLCD\test\Pain Drain\libraries\lvgl\src\misc/lv_style_gen.c **** {
 1513              		.loc 1 412 0
 1514              		.cfi_startproc
 1515              		@ args = 0, pretend = 0, frame = 0
 1516              		@ frame_needed = 0, uses_anonymous_args = 0
 1517              	.LVL153:
 1518 0000 10B5     		push	{r4, lr}
 1519              		.cfi_def_cfa_offset 8
 1520              		.cfi_offset 4, -8
 1521              		.cfi_offset 14, -4
 1522 0002 0A00     		movs	r2, r1
 413:..\..\..\arduinoLCD\test\Pain Drain\libraries\lvgl\src\misc/lv_style_gen.c ****     lv_style_value_t v = {
 414:..\..\..\arduinoLCD\test\Pain Drain\libraries\lvgl\src\misc/lv_style_gen.c ****         .num = (int32_t)value
 415:..\..\..\arduinoLCD\test\Pain Drain\libraries\lvgl\src\misc/lv_style_gen.c ****     };
 416:..\..\..\arduinoLCD\test\Pain Drain\libraries\lvgl\src\misc/lv_style_gen.c ****     lv_style_set_prop(style, LV_STYLE_IMG_OPA, v);
ARM GAS  C:\Users\haske\AppData\Local\Temp\ccb2zsXg.s 			page 35


 1523              		.loc 1 416 0
 1524 0004 4621     		movs	r1, #70
 1525              	.LVL154:
 1526 0006 FFF7FEFF 		bl	lv_style_set_prop
 1527              	.LVL155:
 417:..\..\..\arduinoLCD\test\Pain Drain\libraries\lvgl\src\misc/lv_style_gen.c **** }
 1528              		.loc 1 417 0
 1529              		@ sp needed
 1530 000a 10BD     		pop	{r4, pc}
 1531              		.cfi_endproc
 1532              	.LFE105:
 1533              		.size	lv_style_set_img_opa, .-lv_style_set_img_opa
 1534              		.section	.text.lv_style_set_img_recolor,"ax",%progbits
 1535              		.align	2
 1536              		.global	lv_style_set_img_recolor
 1537              		.code	16
 1538              		.thumb_func
 1539              		.type	lv_style_set_img_recolor, %function
 1540              	lv_style_set_img_recolor:
 1541              	.LFB106:
 418:..\..\..\arduinoLCD\test\Pain Drain\libraries\lvgl\src\misc/lv_style_gen.c **** 
 419:..\..\..\arduinoLCD\test\Pain Drain\libraries\lvgl\src\misc/lv_style_gen.c **** void lv_style_set_img_recolor(lv_style_t * style, lv_color_t value)
 420:..\..\..\arduinoLCD\test\Pain Drain\libraries\lvgl\src\misc/lv_style_gen.c **** {
 1542              		.loc 1 420 0
 1543              		.cfi_startproc
 1544              		@ args = 0, pretend = 0, frame = 0
 1545              		@ frame_needed = 0, uses_anonymous_args = 0
 1546              	.LVL156:
 1547 0000 10B5     		push	{r4, lr}
 1548              		.cfi_def_cfa_offset 8
 1549              		.cfi_offset 4, -8
 1550              		.cfi_offset 14, -4
 421:..\..\..\arduinoLCD\test\Pain Drain\libraries\lvgl\src\misc/lv_style_gen.c ****     lv_style_value_t v = {
 1551              		.loc 1 421 0
 1552 0002 8AB2     		uxth	r2, r1
 1553              	.LVL157:
 422:..\..\..\arduinoLCD\test\Pain Drain\libraries\lvgl\src\misc/lv_style_gen.c ****         .color = value
 423:..\..\..\arduinoLCD\test\Pain Drain\libraries\lvgl\src\misc/lv_style_gen.c ****     };
 424:..\..\..\arduinoLCD\test\Pain Drain\libraries\lvgl\src\misc/lv_style_gen.c ****     lv_style_set_prop(style, LV_STYLE_IMG_RECOLOR, v);
 1554              		.loc 1 424 0
 1555 0004 4721     		movs	r1, #71
 1556 0006 FFF7FEFF 		bl	lv_style_set_prop
 1557              	.LVL158:
 425:..\..\..\arduinoLCD\test\Pain Drain\libraries\lvgl\src\misc/lv_style_gen.c **** }
 1558              		.loc 1 425 0
 1559              		@ sp needed
 1560 000a 10BD     		pop	{r4, pc}
 1561              		.cfi_endproc
 1562              	.LFE106:
 1563              		.size	lv_style_set_img_recolor, .-lv_style_set_img_recolor
 1564              		.section	.text.lv_style_set_img_recolor_opa,"ax",%progbits
 1565              		.align	2
 1566              		.global	lv_style_set_img_recolor_opa
 1567              		.code	16
 1568              		.thumb_func
 1569              		.type	lv_style_set_img_recolor_opa, %function
 1570              	lv_style_set_img_recolor_opa:
ARM GAS  C:\Users\haske\AppData\Local\Temp\ccb2zsXg.s 			page 36


 1571              	.LFB107:
 426:..\..\..\arduinoLCD\test\Pain Drain\libraries\lvgl\src\misc/lv_style_gen.c **** 
 427:..\..\..\arduinoLCD\test\Pain Drain\libraries\lvgl\src\misc/lv_style_gen.c **** void lv_style_set_img_recolor_opa(lv_style_t * style, lv_opa_t value)
 428:..\..\..\arduinoLCD\test\Pain Drain\libraries\lvgl\src\misc/lv_style_gen.c **** {
 1572              		.loc 1 428 0
 1573              		.cfi_startproc
 1574              		@ args = 0, pretend = 0, frame = 0
 1575              		@ frame_needed = 0, uses_anonymous_args = 0
 1576              	.LVL159:
 1577 0000 10B5     		push	{r4, lr}
 1578              		.cfi_def_cfa_offset 8
 1579              		.cfi_offset 4, -8
 1580              		.cfi_offset 14, -4
 1581 0002 0A00     		movs	r2, r1
 429:..\..\..\arduinoLCD\test\Pain Drain\libraries\lvgl\src\misc/lv_style_gen.c ****     lv_style_value_t v = {
 430:..\..\..\arduinoLCD\test\Pain Drain\libraries\lvgl\src\misc/lv_style_gen.c ****         .num = (int32_t)value
 431:..\..\..\arduinoLCD\test\Pain Drain\libraries\lvgl\src\misc/lv_style_gen.c ****     };
 432:..\..\..\arduinoLCD\test\Pain Drain\libraries\lvgl\src\misc/lv_style_gen.c ****     lv_style_set_prop(style, LV_STYLE_IMG_RECOLOR_OPA, v);
 1582              		.loc 1 432 0
 1583 0004 4821     		movs	r1, #72
 1584              	.LVL160:
 1585 0006 FFF7FEFF 		bl	lv_style_set_prop
 1586              	.LVL161:
 433:..\..\..\arduinoLCD\test\Pain Drain\libraries\lvgl\src\misc/lv_style_gen.c **** }
 1587              		.loc 1 433 0
 1588              		@ sp needed
 1589 000a 10BD     		pop	{r4, pc}
 1590              		.cfi_endproc
 1591              	.LFE107:
 1592              		.size	lv_style_set_img_recolor_opa, .-lv_style_set_img_recolor_opa
 1593              		.section	.text.lv_style_set_line_width,"ax",%progbits
 1594              		.align	2
 1595              		.global	lv_style_set_line_width
 1596              		.code	16
 1597              		.thumb_func
 1598              		.type	lv_style_set_line_width, %function
 1599              	lv_style_set_line_width:
 1600              	.LFB108:
 434:..\..\..\arduinoLCD\test\Pain Drain\libraries\lvgl\src\misc/lv_style_gen.c **** 
 435:..\..\..\arduinoLCD\test\Pain Drain\libraries\lvgl\src\misc/lv_style_gen.c **** void lv_style_set_line_width(lv_style_t * style, lv_coord_t value)
 436:..\..\..\arduinoLCD\test\Pain Drain\libraries\lvgl\src\misc/lv_style_gen.c **** {
 1601              		.loc 1 436 0
 1602              		.cfi_startproc
 1603              		@ args = 0, pretend = 0, frame = 0
 1604              		@ frame_needed = 0, uses_anonymous_args = 0
 1605              	.LVL162:
 1606 0000 10B5     		push	{r4, lr}
 1607              		.cfi_def_cfa_offset 8
 1608              		.cfi_offset 4, -8
 1609              		.cfi_offset 14, -4
 1610 0002 0A00     		movs	r2, r1
 437:..\..\..\arduinoLCD\test\Pain Drain\libraries\lvgl\src\misc/lv_style_gen.c ****     lv_style_value_t v = {
 438:..\..\..\arduinoLCD\test\Pain Drain\libraries\lvgl\src\misc/lv_style_gen.c ****         .num = (int32_t)value
 439:..\..\..\arduinoLCD\test\Pain Drain\libraries\lvgl\src\misc/lv_style_gen.c ****     };
 440:..\..\..\arduinoLCD\test\Pain Drain\libraries\lvgl\src\misc/lv_style_gen.c ****     lv_style_set_prop(style, LV_STYLE_LINE_WIDTH, v);
 1611              		.loc 1 440 0
 1612 0004 4921     		movs	r1, #73
ARM GAS  C:\Users\haske\AppData\Local\Temp\ccb2zsXg.s 			page 37


 1613              	.LVL163:
 1614 0006 FFF7FEFF 		bl	lv_style_set_prop
 1615              	.LVL164:
 441:..\..\..\arduinoLCD\test\Pain Drain\libraries\lvgl\src\misc/lv_style_gen.c **** }
 1616              		.loc 1 441 0
 1617              		@ sp needed
 1618 000a 10BD     		pop	{r4, pc}
 1619              		.cfi_endproc
 1620              	.LFE108:
 1621              		.size	lv_style_set_line_width, .-lv_style_set_line_width
 1622              		.section	.text.lv_style_set_line_dash_width,"ax",%progbits
 1623              		.align	2
 1624              		.global	lv_style_set_line_dash_width
 1625              		.code	16
 1626              		.thumb_func
 1627              		.type	lv_style_set_line_dash_width, %function
 1628              	lv_style_set_line_dash_width:
 1629              	.LFB109:
 442:..\..\..\arduinoLCD\test\Pain Drain\libraries\lvgl\src\misc/lv_style_gen.c **** 
 443:..\..\..\arduinoLCD\test\Pain Drain\libraries\lvgl\src\misc/lv_style_gen.c **** void lv_style_set_line_dash_width(lv_style_t * style, lv_coord_t value)
 444:..\..\..\arduinoLCD\test\Pain Drain\libraries\lvgl\src\misc/lv_style_gen.c **** {
 1630              		.loc 1 444 0
 1631              		.cfi_startproc
 1632              		@ args = 0, pretend = 0, frame = 0
 1633              		@ frame_needed = 0, uses_anonymous_args = 0
 1634              	.LVL165:
 1635 0000 10B5     		push	{r4, lr}
 1636              		.cfi_def_cfa_offset 8
 1637              		.cfi_offset 4, -8
 1638              		.cfi_offset 14, -4
 1639 0002 0A00     		movs	r2, r1
 445:..\..\..\arduinoLCD\test\Pain Drain\libraries\lvgl\src\misc/lv_style_gen.c ****     lv_style_value_t v = {
 446:..\..\..\arduinoLCD\test\Pain Drain\libraries\lvgl\src\misc/lv_style_gen.c ****         .num = (int32_t)value
 447:..\..\..\arduinoLCD\test\Pain Drain\libraries\lvgl\src\misc/lv_style_gen.c ****     };
 448:..\..\..\arduinoLCD\test\Pain Drain\libraries\lvgl\src\misc/lv_style_gen.c ****     lv_style_set_prop(style, LV_STYLE_LINE_DASH_WIDTH, v);
 1640              		.loc 1 448 0
 1641 0004 4A21     		movs	r1, #74
 1642              	.LVL166:
 1643 0006 FFF7FEFF 		bl	lv_style_set_prop
 1644              	.LVL167:
 449:..\..\..\arduinoLCD\test\Pain Drain\libraries\lvgl\src\misc/lv_style_gen.c **** }
 1645              		.loc 1 449 0
 1646              		@ sp needed
 1647 000a 10BD     		pop	{r4, pc}
 1648              		.cfi_endproc
 1649              	.LFE109:
 1650              		.size	lv_style_set_line_dash_width, .-lv_style_set_line_dash_width
 1651              		.section	.text.lv_style_set_line_dash_gap,"ax",%progbits
 1652              		.align	2
 1653              		.global	lv_style_set_line_dash_gap
 1654              		.code	16
 1655              		.thumb_func
 1656              		.type	lv_style_set_line_dash_gap, %function
 1657              	lv_style_set_line_dash_gap:
 1658              	.LFB110:
 450:..\..\..\arduinoLCD\test\Pain Drain\libraries\lvgl\src\misc/lv_style_gen.c **** 
 451:..\..\..\arduinoLCD\test\Pain Drain\libraries\lvgl\src\misc/lv_style_gen.c **** void lv_style_set_line_dash_gap(lv_style_t * style, lv_coord_t value)
ARM GAS  C:\Users\haske\AppData\Local\Temp\ccb2zsXg.s 			page 38


 452:..\..\..\arduinoLCD\test\Pain Drain\libraries\lvgl\src\misc/lv_style_gen.c **** {
 1659              		.loc 1 452 0
 1660              		.cfi_startproc
 1661              		@ args = 0, pretend = 0, frame = 0
 1662              		@ frame_needed = 0, uses_anonymous_args = 0
 1663              	.LVL168:
 1664 0000 10B5     		push	{r4, lr}
 1665              		.cfi_def_cfa_offset 8
 1666              		.cfi_offset 4, -8
 1667              		.cfi_offset 14, -4
 1668 0002 0A00     		movs	r2, r1
 453:..\..\..\arduinoLCD\test\Pain Drain\libraries\lvgl\src\misc/lv_style_gen.c ****     lv_style_value_t v = {
 454:..\..\..\arduinoLCD\test\Pain Drain\libraries\lvgl\src\misc/lv_style_gen.c ****         .num = (int32_t)value
 455:..\..\..\arduinoLCD\test\Pain Drain\libraries\lvgl\src\misc/lv_style_gen.c ****     };
 456:..\..\..\arduinoLCD\test\Pain Drain\libraries\lvgl\src\misc/lv_style_gen.c ****     lv_style_set_prop(style, LV_STYLE_LINE_DASH_GAP, v);
 1669              		.loc 1 456 0
 1670 0004 4B21     		movs	r1, #75
 1671              	.LVL169:
 1672 0006 FFF7FEFF 		bl	lv_style_set_prop
 1673              	.LVL170:
 457:..\..\..\arduinoLCD\test\Pain Drain\libraries\lvgl\src\misc/lv_style_gen.c **** }
 1674              		.loc 1 457 0
 1675              		@ sp needed
 1676 000a 10BD     		pop	{r4, pc}
 1677              		.cfi_endproc
 1678              	.LFE110:
 1679              		.size	lv_style_set_line_dash_gap, .-lv_style_set_line_dash_gap
 1680              		.section	.text.lv_style_set_line_rounded,"ax",%progbits
 1681              		.align	2
 1682              		.global	lv_style_set_line_rounded
 1683              		.code	16
 1684              		.thumb_func
 1685              		.type	lv_style_set_line_rounded, %function
 1686              	lv_style_set_line_rounded:
 1687              	.LFB111:
 458:..\..\..\arduinoLCD\test\Pain Drain\libraries\lvgl\src\misc/lv_style_gen.c **** 
 459:..\..\..\arduinoLCD\test\Pain Drain\libraries\lvgl\src\misc/lv_style_gen.c **** void lv_style_set_line_rounded(lv_style_t * style, bool value)
 460:..\..\..\arduinoLCD\test\Pain Drain\libraries\lvgl\src\misc/lv_style_gen.c **** {
 1688              		.loc 1 460 0
 1689              		.cfi_startproc
 1690              		@ args = 0, pretend = 0, frame = 0
 1691              		@ frame_needed = 0, uses_anonymous_args = 0
 1692              	.LVL171:
 1693 0000 10B5     		push	{r4, lr}
 1694              		.cfi_def_cfa_offset 8
 1695              		.cfi_offset 4, -8
 1696              		.cfi_offset 14, -4
 1697 0002 0A00     		movs	r2, r1
 461:..\..\..\arduinoLCD\test\Pain Drain\libraries\lvgl\src\misc/lv_style_gen.c ****     lv_style_value_t v = {
 462:..\..\..\arduinoLCD\test\Pain Drain\libraries\lvgl\src\misc/lv_style_gen.c ****         .num = (int32_t)value
 463:..\..\..\arduinoLCD\test\Pain Drain\libraries\lvgl\src\misc/lv_style_gen.c ****     };
 464:..\..\..\arduinoLCD\test\Pain Drain\libraries\lvgl\src\misc/lv_style_gen.c ****     lv_style_set_prop(style, LV_STYLE_LINE_ROUNDED, v);
 1698              		.loc 1 464 0
 1699 0004 4C21     		movs	r1, #76
 1700              	.LVL172:
 1701 0006 FFF7FEFF 		bl	lv_style_set_prop
 1702              	.LVL173:
ARM GAS  C:\Users\haske\AppData\Local\Temp\ccb2zsXg.s 			page 39


 465:..\..\..\arduinoLCD\test\Pain Drain\libraries\lvgl\src\misc/lv_style_gen.c **** }
 1703              		.loc 1 465 0
 1704              		@ sp needed
 1705 000a 10BD     		pop	{r4, pc}
 1706              		.cfi_endproc
 1707              	.LFE111:
 1708              		.size	lv_style_set_line_rounded, .-lv_style_set_line_rounded
 1709              		.section	.text.lv_style_set_line_color,"ax",%progbits
 1710              		.align	2
 1711              		.global	lv_style_set_line_color
 1712              		.code	16
 1713              		.thumb_func
 1714              		.type	lv_style_set_line_color, %function
 1715              	lv_style_set_line_color:
 1716              	.LFB112:
 466:..\..\..\arduinoLCD\test\Pain Drain\libraries\lvgl\src\misc/lv_style_gen.c **** 
 467:..\..\..\arduinoLCD\test\Pain Drain\libraries\lvgl\src\misc/lv_style_gen.c **** void lv_style_set_line_color(lv_style_t * style, lv_color_t value)
 468:..\..\..\arduinoLCD\test\Pain Drain\libraries\lvgl\src\misc/lv_style_gen.c **** {
 1717              		.loc 1 468 0
 1718              		.cfi_startproc
 1719              		@ args = 0, pretend = 0, frame = 0
 1720              		@ frame_needed = 0, uses_anonymous_args = 0
 1721              	.LVL174:
 1722 0000 10B5     		push	{r4, lr}
 1723              		.cfi_def_cfa_offset 8
 1724              		.cfi_offset 4, -8
 1725              		.cfi_offset 14, -4
 469:..\..\..\arduinoLCD\test\Pain Drain\libraries\lvgl\src\misc/lv_style_gen.c ****     lv_style_value_t v = {
 1726              		.loc 1 469 0
 1727 0002 8AB2     		uxth	r2, r1
 1728              	.LVL175:
 470:..\..\..\arduinoLCD\test\Pain Drain\libraries\lvgl\src\misc/lv_style_gen.c ****         .color = value
 471:..\..\..\arduinoLCD\test\Pain Drain\libraries\lvgl\src\misc/lv_style_gen.c ****     };
 472:..\..\..\arduinoLCD\test\Pain Drain\libraries\lvgl\src\misc/lv_style_gen.c ****     lv_style_set_prop(style, LV_STYLE_LINE_COLOR, v);
 1729              		.loc 1 472 0
 1730 0004 4D21     		movs	r1, #77
 1731 0006 FFF7FEFF 		bl	lv_style_set_prop
 1732              	.LVL176:
 473:..\..\..\arduinoLCD\test\Pain Drain\libraries\lvgl\src\misc/lv_style_gen.c **** }
 1733              		.loc 1 473 0
 1734              		@ sp needed
 1735 000a 10BD     		pop	{r4, pc}
 1736              		.cfi_endproc
 1737              	.LFE112:
 1738              		.size	lv_style_set_line_color, .-lv_style_set_line_color
 1739              		.section	.text.lv_style_set_line_opa,"ax",%progbits
 1740              		.align	2
 1741              		.global	lv_style_set_line_opa
 1742              		.code	16
 1743              		.thumb_func
 1744              		.type	lv_style_set_line_opa, %function
 1745              	lv_style_set_line_opa:
 1746              	.LFB113:
 474:..\..\..\arduinoLCD\test\Pain Drain\libraries\lvgl\src\misc/lv_style_gen.c **** 
 475:..\..\..\arduinoLCD\test\Pain Drain\libraries\lvgl\src\misc/lv_style_gen.c **** void lv_style_set_line_opa(lv_style_t * style, lv_opa_t value)
 476:..\..\..\arduinoLCD\test\Pain Drain\libraries\lvgl\src\misc/lv_style_gen.c **** {
 1747              		.loc 1 476 0
ARM GAS  C:\Users\haske\AppData\Local\Temp\ccb2zsXg.s 			page 40


 1748              		.cfi_startproc
 1749              		@ args = 0, pretend = 0, frame = 0
 1750              		@ frame_needed = 0, uses_anonymous_args = 0
 1751              	.LVL177:
 1752 0000 10B5     		push	{r4, lr}
 1753              		.cfi_def_cfa_offset 8
 1754              		.cfi_offset 4, -8
 1755              		.cfi_offset 14, -4
 1756 0002 0A00     		movs	r2, r1
 477:..\..\..\arduinoLCD\test\Pain Drain\libraries\lvgl\src\misc/lv_style_gen.c ****     lv_style_value_t v = {
 478:..\..\..\arduinoLCD\test\Pain Drain\libraries\lvgl\src\misc/lv_style_gen.c ****         .num = (int32_t)value
 479:..\..\..\arduinoLCD\test\Pain Drain\libraries\lvgl\src\misc/lv_style_gen.c ****     };
 480:..\..\..\arduinoLCD\test\Pain Drain\libraries\lvgl\src\misc/lv_style_gen.c ****     lv_style_set_prop(style, LV_STYLE_LINE_OPA, v);
 1757              		.loc 1 480 0
 1758 0004 4E21     		movs	r1, #78
 1759              	.LVL178:
 1760 0006 FFF7FEFF 		bl	lv_style_set_prop
 1761              	.LVL179:
 481:..\..\..\arduinoLCD\test\Pain Drain\libraries\lvgl\src\misc/lv_style_gen.c **** }
 1762              		.loc 1 481 0
 1763              		@ sp needed
 1764 000a 10BD     		pop	{r4, pc}
 1765              		.cfi_endproc
 1766              	.LFE113:
 1767              		.size	lv_style_set_line_opa, .-lv_style_set_line_opa
 1768              		.section	.text.lv_style_set_arc_width,"ax",%progbits
 1769              		.align	2
 1770              		.global	lv_style_set_arc_width
 1771              		.code	16
 1772              		.thumb_func
 1773              		.type	lv_style_set_arc_width, %function
 1774              	lv_style_set_arc_width:
 1775              	.LFB114:
 482:..\..\..\arduinoLCD\test\Pain Drain\libraries\lvgl\src\misc/lv_style_gen.c **** 
 483:..\..\..\arduinoLCD\test\Pain Drain\libraries\lvgl\src\misc/lv_style_gen.c **** void lv_style_set_arc_width(lv_style_t * style, lv_coord_t value)
 484:..\..\..\arduinoLCD\test\Pain Drain\libraries\lvgl\src\misc/lv_style_gen.c **** {
 1776              		.loc 1 484 0
 1777              		.cfi_startproc
 1778              		@ args = 0, pretend = 0, frame = 0
 1779              		@ frame_needed = 0, uses_anonymous_args = 0
 1780              	.LVL180:
 1781 0000 10B5     		push	{r4, lr}
 1782              		.cfi_def_cfa_offset 8
 1783              		.cfi_offset 4, -8
 1784              		.cfi_offset 14, -4
 1785 0002 0A00     		movs	r2, r1
 485:..\..\..\arduinoLCD\test\Pain Drain\libraries\lvgl\src\misc/lv_style_gen.c ****     lv_style_value_t v = {
 486:..\..\..\arduinoLCD\test\Pain Drain\libraries\lvgl\src\misc/lv_style_gen.c ****         .num = (int32_t)value
 487:..\..\..\arduinoLCD\test\Pain Drain\libraries\lvgl\src\misc/lv_style_gen.c ****     };
 488:..\..\..\arduinoLCD\test\Pain Drain\libraries\lvgl\src\misc/lv_style_gen.c ****     lv_style_set_prop(style, LV_STYLE_ARC_WIDTH, v);
 1786              		.loc 1 488 0
 1787 0004 5021     		movs	r1, #80
 1788              	.LVL181:
 1789 0006 FFF7FEFF 		bl	lv_style_set_prop
 1790              	.LVL182:
 489:..\..\..\arduinoLCD\test\Pain Drain\libraries\lvgl\src\misc/lv_style_gen.c **** }
 1791              		.loc 1 489 0
ARM GAS  C:\Users\haske\AppData\Local\Temp\ccb2zsXg.s 			page 41


 1792              		@ sp needed
 1793 000a 10BD     		pop	{r4, pc}
 1794              		.cfi_endproc
 1795              	.LFE114:
 1796              		.size	lv_style_set_arc_width, .-lv_style_set_arc_width
 1797              		.section	.text.lv_style_set_arc_rounded,"ax",%progbits
 1798              		.align	2
 1799              		.global	lv_style_set_arc_rounded
 1800              		.code	16
 1801              		.thumb_func
 1802              		.type	lv_style_set_arc_rounded, %function
 1803              	lv_style_set_arc_rounded:
 1804              	.LFB115:
 490:..\..\..\arduinoLCD\test\Pain Drain\libraries\lvgl\src\misc/lv_style_gen.c **** 
 491:..\..\..\arduinoLCD\test\Pain Drain\libraries\lvgl\src\misc/lv_style_gen.c **** void lv_style_set_arc_rounded(lv_style_t * style, bool value)
 492:..\..\..\arduinoLCD\test\Pain Drain\libraries\lvgl\src\misc/lv_style_gen.c **** {
 1805              		.loc 1 492 0
 1806              		.cfi_startproc
 1807              		@ args = 0, pretend = 0, frame = 0
 1808              		@ frame_needed = 0, uses_anonymous_args = 0
 1809              	.LVL183:
 1810 0000 10B5     		push	{r4, lr}
 1811              		.cfi_def_cfa_offset 8
 1812              		.cfi_offset 4, -8
 1813              		.cfi_offset 14, -4
 1814 0002 0A00     		movs	r2, r1
 493:..\..\..\arduinoLCD\test\Pain Drain\libraries\lvgl\src\misc/lv_style_gen.c ****     lv_style_value_t v = {
 494:..\..\..\arduinoLCD\test\Pain Drain\libraries\lvgl\src\misc/lv_style_gen.c ****         .num = (int32_t)value
 495:..\..\..\arduinoLCD\test\Pain Drain\libraries\lvgl\src\misc/lv_style_gen.c ****     };
 496:..\..\..\arduinoLCD\test\Pain Drain\libraries\lvgl\src\misc/lv_style_gen.c ****     lv_style_set_prop(style, LV_STYLE_ARC_ROUNDED, v);
 1815              		.loc 1 496 0
 1816 0004 5121     		movs	r1, #81
 1817              	.LVL184:
 1818 0006 FFF7FEFF 		bl	lv_style_set_prop
 1819              	.LVL185:
 497:..\..\..\arduinoLCD\test\Pain Drain\libraries\lvgl\src\misc/lv_style_gen.c **** }
 1820              		.loc 1 497 0
 1821              		@ sp needed
 1822 000a 10BD     		pop	{r4, pc}
 1823              		.cfi_endproc
 1824              	.LFE115:
 1825              		.size	lv_style_set_arc_rounded, .-lv_style_set_arc_rounded
 1826              		.section	.text.lv_style_set_arc_color,"ax",%progbits
 1827              		.align	2
 1828              		.global	lv_style_set_arc_color
 1829              		.code	16
 1830              		.thumb_func
 1831              		.type	lv_style_set_arc_color, %function
 1832              	lv_style_set_arc_color:
 1833              	.LFB116:
 498:..\..\..\arduinoLCD\test\Pain Drain\libraries\lvgl\src\misc/lv_style_gen.c **** 
 499:..\..\..\arduinoLCD\test\Pain Drain\libraries\lvgl\src\misc/lv_style_gen.c **** void lv_style_set_arc_color(lv_style_t * style, lv_color_t value)
 500:..\..\..\arduinoLCD\test\Pain Drain\libraries\lvgl\src\misc/lv_style_gen.c **** {
 1834              		.loc 1 500 0
 1835              		.cfi_startproc
 1836              		@ args = 0, pretend = 0, frame = 0
 1837              		@ frame_needed = 0, uses_anonymous_args = 0
ARM GAS  C:\Users\haske\AppData\Local\Temp\ccb2zsXg.s 			page 42


 1838              	.LVL186:
 1839 0000 10B5     		push	{r4, lr}
 1840              		.cfi_def_cfa_offset 8
 1841              		.cfi_offset 4, -8
 1842              		.cfi_offset 14, -4
 501:..\..\..\arduinoLCD\test\Pain Drain\libraries\lvgl\src\misc/lv_style_gen.c ****     lv_style_value_t v = {
 1843              		.loc 1 501 0
 1844 0002 8AB2     		uxth	r2, r1
 1845              	.LVL187:
 502:..\..\..\arduinoLCD\test\Pain Drain\libraries\lvgl\src\misc/lv_style_gen.c ****         .color = value
 503:..\..\..\arduinoLCD\test\Pain Drain\libraries\lvgl\src\misc/lv_style_gen.c ****     };
 504:..\..\..\arduinoLCD\test\Pain Drain\libraries\lvgl\src\misc/lv_style_gen.c ****     lv_style_set_prop(style, LV_STYLE_ARC_COLOR, v);
 1846              		.loc 1 504 0
 1847 0004 5221     		movs	r1, #82
 1848 0006 FFF7FEFF 		bl	lv_style_set_prop
 1849              	.LVL188:
 505:..\..\..\arduinoLCD\test\Pain Drain\libraries\lvgl\src\misc/lv_style_gen.c **** }
 1850              		.loc 1 505 0
 1851              		@ sp needed
 1852 000a 10BD     		pop	{r4, pc}
 1853              		.cfi_endproc
 1854              	.LFE116:
 1855              		.size	lv_style_set_arc_color, .-lv_style_set_arc_color
 1856              		.section	.text.lv_style_set_arc_opa,"ax",%progbits
 1857              		.align	2
 1858              		.global	lv_style_set_arc_opa
 1859              		.code	16
 1860              		.thumb_func
 1861              		.type	lv_style_set_arc_opa, %function
 1862              	lv_style_set_arc_opa:
 1863              	.LFB117:
 506:..\..\..\arduinoLCD\test\Pain Drain\libraries\lvgl\src\misc/lv_style_gen.c **** 
 507:..\..\..\arduinoLCD\test\Pain Drain\libraries\lvgl\src\misc/lv_style_gen.c **** void lv_style_set_arc_opa(lv_style_t * style, lv_opa_t value)
 508:..\..\..\arduinoLCD\test\Pain Drain\libraries\lvgl\src\misc/lv_style_gen.c **** {
 1864              		.loc 1 508 0
 1865              		.cfi_startproc
 1866              		@ args = 0, pretend = 0, frame = 0
 1867              		@ frame_needed = 0, uses_anonymous_args = 0
 1868              	.LVL189:
 1869 0000 10B5     		push	{r4, lr}
 1870              		.cfi_def_cfa_offset 8
 1871              		.cfi_offset 4, -8
 1872              		.cfi_offset 14, -4
 1873 0002 0A00     		movs	r2, r1
 509:..\..\..\arduinoLCD\test\Pain Drain\libraries\lvgl\src\misc/lv_style_gen.c ****     lv_style_value_t v = {
 510:..\..\..\arduinoLCD\test\Pain Drain\libraries\lvgl\src\misc/lv_style_gen.c ****         .num = (int32_t)value
 511:..\..\..\arduinoLCD\test\Pain Drain\libraries\lvgl\src\misc/lv_style_gen.c ****     };
 512:..\..\..\arduinoLCD\test\Pain Drain\libraries\lvgl\src\misc/lv_style_gen.c ****     lv_style_set_prop(style, LV_STYLE_ARC_OPA, v);
 1874              		.loc 1 512 0
 1875 0004 5321     		movs	r1, #83
 1876              	.LVL190:
 1877 0006 FFF7FEFF 		bl	lv_style_set_prop
 1878              	.LVL191:
 513:..\..\..\arduinoLCD\test\Pain Drain\libraries\lvgl\src\misc/lv_style_gen.c **** }
 1879              		.loc 1 513 0
 1880              		@ sp needed
 1881 000a 10BD     		pop	{r4, pc}
ARM GAS  C:\Users\haske\AppData\Local\Temp\ccb2zsXg.s 			page 43


 1882              		.cfi_endproc
 1883              	.LFE117:
 1884              		.size	lv_style_set_arc_opa, .-lv_style_set_arc_opa
 1885              		.section	.text.lv_style_set_arc_img_src,"ax",%progbits
 1886              		.align	2
 1887              		.global	lv_style_set_arc_img_src
 1888              		.code	16
 1889              		.thumb_func
 1890              		.type	lv_style_set_arc_img_src, %function
 1891              	lv_style_set_arc_img_src:
 1892              	.LFB118:
 514:..\..\..\arduinoLCD\test\Pain Drain\libraries\lvgl\src\misc/lv_style_gen.c **** 
 515:..\..\..\arduinoLCD\test\Pain Drain\libraries\lvgl\src\misc/lv_style_gen.c **** void lv_style_set_arc_img_src(lv_style_t * style, const void * value)
 516:..\..\..\arduinoLCD\test\Pain Drain\libraries\lvgl\src\misc/lv_style_gen.c **** {
 1893              		.loc 1 516 0
 1894              		.cfi_startproc
 1895              		@ args = 0, pretend = 0, frame = 0
 1896              		@ frame_needed = 0, uses_anonymous_args = 0
 1897              	.LVL192:
 1898 0000 10B5     		push	{r4, lr}
 1899              		.cfi_def_cfa_offset 8
 1900              		.cfi_offset 4, -8
 1901              		.cfi_offset 14, -4
 1902 0002 0A00     		movs	r2, r1
 517:..\..\..\arduinoLCD\test\Pain Drain\libraries\lvgl\src\misc/lv_style_gen.c ****     lv_style_value_t v = {
 518:..\..\..\arduinoLCD\test\Pain Drain\libraries\lvgl\src\misc/lv_style_gen.c ****         .ptr = value
 519:..\..\..\arduinoLCD\test\Pain Drain\libraries\lvgl\src\misc/lv_style_gen.c ****     };
 520:..\..\..\arduinoLCD\test\Pain Drain\libraries\lvgl\src\misc/lv_style_gen.c ****     lv_style_set_prop(style, LV_STYLE_ARC_IMG_SRC, v);
 1903              		.loc 1 520 0
 1904 0004 5421     		movs	r1, #84
 1905              	.LVL193:
 1906 0006 FFF7FEFF 		bl	lv_style_set_prop
 1907              	.LVL194:
 521:..\..\..\arduinoLCD\test\Pain Drain\libraries\lvgl\src\misc/lv_style_gen.c **** }
 1908              		.loc 1 521 0
 1909              		@ sp needed
 1910 000a 10BD     		pop	{r4, pc}
 1911              		.cfi_endproc
 1912              	.LFE118:
 1913              		.size	lv_style_set_arc_img_src, .-lv_style_set_arc_img_src
 1914              		.section	.text.lv_style_set_text_color,"ax",%progbits
 1915              		.align	2
 1916              		.global	lv_style_set_text_color
 1917              		.code	16
 1918              		.thumb_func
 1919              		.type	lv_style_set_text_color, %function
 1920              	lv_style_set_text_color:
 1921              	.LFB119:
 522:..\..\..\arduinoLCD\test\Pain Drain\libraries\lvgl\src\misc/lv_style_gen.c **** 
 523:..\..\..\arduinoLCD\test\Pain Drain\libraries\lvgl\src\misc/lv_style_gen.c **** void lv_style_set_text_color(lv_style_t * style, lv_color_t value)
 524:..\..\..\arduinoLCD\test\Pain Drain\libraries\lvgl\src\misc/lv_style_gen.c **** {
 1922              		.loc 1 524 0
 1923              		.cfi_startproc
 1924              		@ args = 0, pretend = 0, frame = 0
 1925              		@ frame_needed = 0, uses_anonymous_args = 0
 1926              	.LVL195:
 1927 0000 10B5     		push	{r4, lr}
ARM GAS  C:\Users\haske\AppData\Local\Temp\ccb2zsXg.s 			page 44


 1928              		.cfi_def_cfa_offset 8
 1929              		.cfi_offset 4, -8
 1930              		.cfi_offset 14, -4
 525:..\..\..\arduinoLCD\test\Pain Drain\libraries\lvgl\src\misc/lv_style_gen.c ****     lv_style_value_t v = {
 1931              		.loc 1 525 0
 1932 0002 8AB2     		uxth	r2, r1
 1933              	.LVL196:
 526:..\..\..\arduinoLCD\test\Pain Drain\libraries\lvgl\src\misc/lv_style_gen.c ****         .color = value
 527:..\..\..\arduinoLCD\test\Pain Drain\libraries\lvgl\src\misc/lv_style_gen.c ****     };
 528:..\..\..\arduinoLCD\test\Pain Drain\libraries\lvgl\src\misc/lv_style_gen.c ****     lv_style_set_prop(style, LV_STYLE_TEXT_COLOR, v);
 1934              		.loc 1 528 0
 1935 0004 5521     		movs	r1, #85
 1936 0006 FFF7FEFF 		bl	lv_style_set_prop
 1937              	.LVL197:
 529:..\..\..\arduinoLCD\test\Pain Drain\libraries\lvgl\src\misc/lv_style_gen.c **** }
 1938              		.loc 1 529 0
 1939              		@ sp needed
 1940 000a 10BD     		pop	{r4, pc}
 1941              		.cfi_endproc
 1942              	.LFE119:
 1943              		.size	lv_style_set_text_color, .-lv_style_set_text_color
 1944              		.section	.text.lv_style_set_text_opa,"ax",%progbits
 1945              		.align	2
 1946              		.global	lv_style_set_text_opa
 1947              		.code	16
 1948              		.thumb_func
 1949              		.type	lv_style_set_text_opa, %function
 1950              	lv_style_set_text_opa:
 1951              	.LFB120:
 530:..\..\..\arduinoLCD\test\Pain Drain\libraries\lvgl\src\misc/lv_style_gen.c **** 
 531:..\..\..\arduinoLCD\test\Pain Drain\libraries\lvgl\src\misc/lv_style_gen.c **** void lv_style_set_text_opa(lv_style_t * style, lv_opa_t value)
 532:..\..\..\arduinoLCD\test\Pain Drain\libraries\lvgl\src\misc/lv_style_gen.c **** {
 1952              		.loc 1 532 0
 1953              		.cfi_startproc
 1954              		@ args = 0, pretend = 0, frame = 0
 1955              		@ frame_needed = 0, uses_anonymous_args = 0
 1956              	.LVL198:
 1957 0000 10B5     		push	{r4, lr}
 1958              		.cfi_def_cfa_offset 8
 1959              		.cfi_offset 4, -8
 1960              		.cfi_offset 14, -4
 1961 0002 0A00     		movs	r2, r1
 533:..\..\..\arduinoLCD\test\Pain Drain\libraries\lvgl\src\misc/lv_style_gen.c ****     lv_style_value_t v = {
 534:..\..\..\arduinoLCD\test\Pain Drain\libraries\lvgl\src\misc/lv_style_gen.c ****         .num = (int32_t)value
 535:..\..\..\arduinoLCD\test\Pain Drain\libraries\lvgl\src\misc/lv_style_gen.c ****     };
 536:..\..\..\arduinoLCD\test\Pain Drain\libraries\lvgl\src\misc/lv_style_gen.c ****     lv_style_set_prop(style, LV_STYLE_TEXT_OPA, v);
 1962              		.loc 1 536 0
 1963 0004 5621     		movs	r1, #86
 1964              	.LVL199:
 1965 0006 FFF7FEFF 		bl	lv_style_set_prop
 1966              	.LVL200:
 537:..\..\..\arduinoLCD\test\Pain Drain\libraries\lvgl\src\misc/lv_style_gen.c **** }
 1967              		.loc 1 537 0
 1968              		@ sp needed
 1969 000a 10BD     		pop	{r4, pc}
 1970              		.cfi_endproc
 1971              	.LFE120:
ARM GAS  C:\Users\haske\AppData\Local\Temp\ccb2zsXg.s 			page 45


 1972              		.size	lv_style_set_text_opa, .-lv_style_set_text_opa
 1973              		.section	.text.lv_style_set_text_font,"ax",%progbits
 1974              		.align	2
 1975              		.global	lv_style_set_text_font
 1976              		.code	16
 1977              		.thumb_func
 1978              		.type	lv_style_set_text_font, %function
 1979              	lv_style_set_text_font:
 1980              	.LFB121:
 538:..\..\..\arduinoLCD\test\Pain Drain\libraries\lvgl\src\misc/lv_style_gen.c **** 
 539:..\..\..\arduinoLCD\test\Pain Drain\libraries\lvgl\src\misc/lv_style_gen.c **** void lv_style_set_text_font(lv_style_t * style, const lv_font_t * value)
 540:..\..\..\arduinoLCD\test\Pain Drain\libraries\lvgl\src\misc/lv_style_gen.c **** {
 1981              		.loc 1 540 0
 1982              		.cfi_startproc
 1983              		@ args = 0, pretend = 0, frame = 0
 1984              		@ frame_needed = 0, uses_anonymous_args = 0
 1985              	.LVL201:
 1986 0000 10B5     		push	{r4, lr}
 1987              		.cfi_def_cfa_offset 8
 1988              		.cfi_offset 4, -8
 1989              		.cfi_offset 14, -4
 1990 0002 0A00     		movs	r2, r1
 541:..\..\..\arduinoLCD\test\Pain Drain\libraries\lvgl\src\misc/lv_style_gen.c ****     lv_style_value_t v = {
 542:..\..\..\arduinoLCD\test\Pain Drain\libraries\lvgl\src\misc/lv_style_gen.c ****         .ptr = value
 543:..\..\..\arduinoLCD\test\Pain Drain\libraries\lvgl\src\misc/lv_style_gen.c ****     };
 544:..\..\..\arduinoLCD\test\Pain Drain\libraries\lvgl\src\misc/lv_style_gen.c ****     lv_style_set_prop(style, LV_STYLE_TEXT_FONT, v);
 1991              		.loc 1 544 0
 1992 0004 5721     		movs	r1, #87
 1993              	.LVL202:
 1994 0006 FFF7FEFF 		bl	lv_style_set_prop
 1995              	.LVL203:
 545:..\..\..\arduinoLCD\test\Pain Drain\libraries\lvgl\src\misc/lv_style_gen.c **** }
 1996              		.loc 1 545 0
 1997              		@ sp needed
 1998 000a 10BD     		pop	{r4, pc}
 1999              		.cfi_endproc
 2000              	.LFE121:
 2001              		.size	lv_style_set_text_font, .-lv_style_set_text_font
 2002              		.section	.text.lv_style_set_text_letter_space,"ax",%progbits
 2003              		.align	2
 2004              		.global	lv_style_set_text_letter_space
 2005              		.code	16
 2006              		.thumb_func
 2007              		.type	lv_style_set_text_letter_space, %function
 2008              	lv_style_set_text_letter_space:
 2009              	.LFB122:
 546:..\..\..\arduinoLCD\test\Pain Drain\libraries\lvgl\src\misc/lv_style_gen.c **** 
 547:..\..\..\arduinoLCD\test\Pain Drain\libraries\lvgl\src\misc/lv_style_gen.c **** void lv_style_set_text_letter_space(lv_style_t * style, lv_coord_t value)
 548:..\..\..\arduinoLCD\test\Pain Drain\libraries\lvgl\src\misc/lv_style_gen.c **** {
 2010              		.loc 1 548 0
 2011              		.cfi_startproc
 2012              		@ args = 0, pretend = 0, frame = 0
 2013              		@ frame_needed = 0, uses_anonymous_args = 0
 2014              	.LVL204:
 2015 0000 10B5     		push	{r4, lr}
 2016              		.cfi_def_cfa_offset 8
 2017              		.cfi_offset 4, -8
ARM GAS  C:\Users\haske\AppData\Local\Temp\ccb2zsXg.s 			page 46


 2018              		.cfi_offset 14, -4
 2019 0002 0A00     		movs	r2, r1
 549:..\..\..\arduinoLCD\test\Pain Drain\libraries\lvgl\src\misc/lv_style_gen.c ****     lv_style_value_t v = {
 550:..\..\..\arduinoLCD\test\Pain Drain\libraries\lvgl\src\misc/lv_style_gen.c ****         .num = (int32_t)value
 551:..\..\..\arduinoLCD\test\Pain Drain\libraries\lvgl\src\misc/lv_style_gen.c ****     };
 552:..\..\..\arduinoLCD\test\Pain Drain\libraries\lvgl\src\misc/lv_style_gen.c ****     lv_style_set_prop(style, LV_STYLE_TEXT_LETTER_SPACE, v);
 2020              		.loc 1 552 0
 2021 0004 5821     		movs	r1, #88
 2022              	.LVL205:
 2023 0006 FFF7FEFF 		bl	lv_style_set_prop
 2024              	.LVL206:
 553:..\..\..\arduinoLCD\test\Pain Drain\libraries\lvgl\src\misc/lv_style_gen.c **** }
 2025              		.loc 1 553 0
 2026              		@ sp needed
 2027 000a 10BD     		pop	{r4, pc}
 2028              		.cfi_endproc
 2029              	.LFE122:
 2030              		.size	lv_style_set_text_letter_space, .-lv_style_set_text_letter_space
 2031              		.section	.text.lv_style_set_text_line_space,"ax",%progbits
 2032              		.align	2
 2033              		.global	lv_style_set_text_line_space
 2034              		.code	16
 2035              		.thumb_func
 2036              		.type	lv_style_set_text_line_space, %function
 2037              	lv_style_set_text_line_space:
 2038              	.LFB123:
 554:..\..\..\arduinoLCD\test\Pain Drain\libraries\lvgl\src\misc/lv_style_gen.c **** 
 555:..\..\..\arduinoLCD\test\Pain Drain\libraries\lvgl\src\misc/lv_style_gen.c **** void lv_style_set_text_line_space(lv_style_t * style, lv_coord_t value)
 556:..\..\..\arduinoLCD\test\Pain Drain\libraries\lvgl\src\misc/lv_style_gen.c **** {
 2039              		.loc 1 556 0
 2040              		.cfi_startproc
 2041              		@ args = 0, pretend = 0, frame = 0
 2042              		@ frame_needed = 0, uses_anonymous_args = 0
 2043              	.LVL207:
 2044 0000 10B5     		push	{r4, lr}
 2045              		.cfi_def_cfa_offset 8
 2046              		.cfi_offset 4, -8
 2047              		.cfi_offset 14, -4
 2048 0002 0A00     		movs	r2, r1
 557:..\..\..\arduinoLCD\test\Pain Drain\libraries\lvgl\src\misc/lv_style_gen.c ****     lv_style_value_t v = {
 558:..\..\..\arduinoLCD\test\Pain Drain\libraries\lvgl\src\misc/lv_style_gen.c ****         .num = (int32_t)value
 559:..\..\..\arduinoLCD\test\Pain Drain\libraries\lvgl\src\misc/lv_style_gen.c ****     };
 560:..\..\..\arduinoLCD\test\Pain Drain\libraries\lvgl\src\misc/lv_style_gen.c ****     lv_style_set_prop(style, LV_STYLE_TEXT_LINE_SPACE, v);
 2049              		.loc 1 560 0
 2050 0004 5921     		movs	r1, #89
 2051              	.LVL208:
 2052 0006 FFF7FEFF 		bl	lv_style_set_prop
 2053              	.LVL209:
 561:..\..\..\arduinoLCD\test\Pain Drain\libraries\lvgl\src\misc/lv_style_gen.c **** }
 2054              		.loc 1 561 0
 2055              		@ sp needed
 2056 000a 10BD     		pop	{r4, pc}
 2057              		.cfi_endproc
 2058              	.LFE123:
 2059              		.size	lv_style_set_text_line_space, .-lv_style_set_text_line_space
 2060              		.section	.text.lv_style_set_text_decor,"ax",%progbits
 2061              		.align	2
ARM GAS  C:\Users\haske\AppData\Local\Temp\ccb2zsXg.s 			page 47


 2062              		.global	lv_style_set_text_decor
 2063              		.code	16
 2064              		.thumb_func
 2065              		.type	lv_style_set_text_decor, %function
 2066              	lv_style_set_text_decor:
 2067              	.LFB124:
 562:..\..\..\arduinoLCD\test\Pain Drain\libraries\lvgl\src\misc/lv_style_gen.c **** 
 563:..\..\..\arduinoLCD\test\Pain Drain\libraries\lvgl\src\misc/lv_style_gen.c **** void lv_style_set_text_decor(lv_style_t * style, lv_text_decor_t value)
 564:..\..\..\arduinoLCD\test\Pain Drain\libraries\lvgl\src\misc/lv_style_gen.c **** {
 2068              		.loc 1 564 0
 2069              		.cfi_startproc
 2070              		@ args = 0, pretend = 0, frame = 0
 2071              		@ frame_needed = 0, uses_anonymous_args = 0
 2072              	.LVL210:
 2073 0000 10B5     		push	{r4, lr}
 2074              		.cfi_def_cfa_offset 8
 2075              		.cfi_offset 4, -8
 2076              		.cfi_offset 14, -4
 2077 0002 0A00     		movs	r2, r1
 565:..\..\..\arduinoLCD\test\Pain Drain\libraries\lvgl\src\misc/lv_style_gen.c ****     lv_style_value_t v = {
 566:..\..\..\arduinoLCD\test\Pain Drain\libraries\lvgl\src\misc/lv_style_gen.c ****         .num = (int32_t)value
 567:..\..\..\arduinoLCD\test\Pain Drain\libraries\lvgl\src\misc/lv_style_gen.c ****     };
 568:..\..\..\arduinoLCD\test\Pain Drain\libraries\lvgl\src\misc/lv_style_gen.c ****     lv_style_set_prop(style, LV_STYLE_TEXT_DECOR, v);
 2078              		.loc 1 568 0
 2079 0004 5A21     		movs	r1, #90
 2080              	.LVL211:
 2081 0006 FFF7FEFF 		bl	lv_style_set_prop
 2082              	.LVL212:
 569:..\..\..\arduinoLCD\test\Pain Drain\libraries\lvgl\src\misc/lv_style_gen.c **** }
 2083              		.loc 1 569 0
 2084              		@ sp needed
 2085 000a 10BD     		pop	{r4, pc}
 2086              		.cfi_endproc
 2087              	.LFE124:
 2088              		.size	lv_style_set_text_decor, .-lv_style_set_text_decor
 2089              		.section	.text.lv_style_set_text_align,"ax",%progbits
 2090              		.align	2
 2091              		.global	lv_style_set_text_align
 2092              		.code	16
 2093              		.thumb_func
 2094              		.type	lv_style_set_text_align, %function
 2095              	lv_style_set_text_align:
 2096              	.LFB125:
 570:..\..\..\arduinoLCD\test\Pain Drain\libraries\lvgl\src\misc/lv_style_gen.c **** 
 571:..\..\..\arduinoLCD\test\Pain Drain\libraries\lvgl\src\misc/lv_style_gen.c **** void lv_style_set_text_align(lv_style_t * style, lv_text_align_t value)
 572:..\..\..\arduinoLCD\test\Pain Drain\libraries\lvgl\src\misc/lv_style_gen.c **** {
 2097              		.loc 1 572 0
 2098              		.cfi_startproc
 2099              		@ args = 0, pretend = 0, frame = 0
 2100              		@ frame_needed = 0, uses_anonymous_args = 0
 2101              	.LVL213:
 2102 0000 10B5     		push	{r4, lr}
 2103              		.cfi_def_cfa_offset 8
 2104              		.cfi_offset 4, -8
 2105              		.cfi_offset 14, -4
 2106 0002 0A00     		movs	r2, r1
 573:..\..\..\arduinoLCD\test\Pain Drain\libraries\lvgl\src\misc/lv_style_gen.c ****     lv_style_value_t v = {
ARM GAS  C:\Users\haske\AppData\Local\Temp\ccb2zsXg.s 			page 48


 574:..\..\..\arduinoLCD\test\Pain Drain\libraries\lvgl\src\misc/lv_style_gen.c ****         .num = (int32_t)value
 575:..\..\..\arduinoLCD\test\Pain Drain\libraries\lvgl\src\misc/lv_style_gen.c ****     };
 576:..\..\..\arduinoLCD\test\Pain Drain\libraries\lvgl\src\misc/lv_style_gen.c ****     lv_style_set_prop(style, LV_STYLE_TEXT_ALIGN, v);
 2107              		.loc 1 576 0
 2108 0004 5B21     		movs	r1, #91
 2109              	.LVL214:
 2110 0006 FFF7FEFF 		bl	lv_style_set_prop
 2111              	.LVL215:
 577:..\..\..\arduinoLCD\test\Pain Drain\libraries\lvgl\src\misc/lv_style_gen.c **** }
 2112              		.loc 1 577 0
 2113              		@ sp needed
 2114 000a 10BD     		pop	{r4, pc}
 2115              		.cfi_endproc
 2116              	.LFE125:
 2117              		.size	lv_style_set_text_align, .-lv_style_set_text_align
 2118              		.section	.text.lv_style_set_radius,"ax",%progbits
 2119              		.align	2
 2120              		.global	lv_style_set_radius
 2121              		.code	16
 2122              		.thumb_func
 2123              		.type	lv_style_set_radius, %function
 2124              	lv_style_set_radius:
 2125              	.LFB126:
 578:..\..\..\arduinoLCD\test\Pain Drain\libraries\lvgl\src\misc/lv_style_gen.c **** 
 579:..\..\..\arduinoLCD\test\Pain Drain\libraries\lvgl\src\misc/lv_style_gen.c **** void lv_style_set_radius(lv_style_t * style, lv_coord_t value)
 580:..\..\..\arduinoLCD\test\Pain Drain\libraries\lvgl\src\misc/lv_style_gen.c **** {
 2126              		.loc 1 580 0
 2127              		.cfi_startproc
 2128              		@ args = 0, pretend = 0, frame = 0
 2129              		@ frame_needed = 0, uses_anonymous_args = 0
 2130              	.LVL216:
 2131 0000 10B5     		push	{r4, lr}
 2132              		.cfi_def_cfa_offset 8
 2133              		.cfi_offset 4, -8
 2134              		.cfi_offset 14, -4
 2135 0002 0A00     		movs	r2, r1
 581:..\..\..\arduinoLCD\test\Pain Drain\libraries\lvgl\src\misc/lv_style_gen.c ****     lv_style_value_t v = {
 582:..\..\..\arduinoLCD\test\Pain Drain\libraries\lvgl\src\misc/lv_style_gen.c ****         .num = (int32_t)value
 583:..\..\..\arduinoLCD\test\Pain Drain\libraries\lvgl\src\misc/lv_style_gen.c ****     };
 584:..\..\..\arduinoLCD\test\Pain Drain\libraries\lvgl\src\misc/lv_style_gen.c ****     lv_style_set_prop(style, LV_STYLE_RADIUS, v);
 2136              		.loc 1 584 0
 2137 0004 0B21     		movs	r1, #11
 2138              	.LVL217:
 2139 0006 FFF7FEFF 		bl	lv_style_set_prop
 2140              	.LVL218:
 585:..\..\..\arduinoLCD\test\Pain Drain\libraries\lvgl\src\misc/lv_style_gen.c **** }
 2141              		.loc 1 585 0
 2142              		@ sp needed
 2143 000a 10BD     		pop	{r4, pc}
 2144              		.cfi_endproc
 2145              	.LFE126:
 2146              		.size	lv_style_set_radius, .-lv_style_set_radius
 2147              		.section	.text.lv_style_set_clip_corner,"ax",%progbits
 2148              		.align	2
 2149              		.global	lv_style_set_clip_corner
 2150              		.code	16
 2151              		.thumb_func
ARM GAS  C:\Users\haske\AppData\Local\Temp\ccb2zsXg.s 			page 49


 2152              		.type	lv_style_set_clip_corner, %function
 2153              	lv_style_set_clip_corner:
 2154              	.LFB127:
 586:..\..\..\arduinoLCD\test\Pain Drain\libraries\lvgl\src\misc/lv_style_gen.c **** 
 587:..\..\..\arduinoLCD\test\Pain Drain\libraries\lvgl\src\misc/lv_style_gen.c **** void lv_style_set_clip_corner(lv_style_t * style, bool value)
 588:..\..\..\arduinoLCD\test\Pain Drain\libraries\lvgl\src\misc/lv_style_gen.c **** {
 2155              		.loc 1 588 0
 2156              		.cfi_startproc
 2157              		@ args = 0, pretend = 0, frame = 0
 2158              		@ frame_needed = 0, uses_anonymous_args = 0
 2159              	.LVL219:
 2160 0000 10B5     		push	{r4, lr}
 2161              		.cfi_def_cfa_offset 8
 2162              		.cfi_offset 4, -8
 2163              		.cfi_offset 14, -4
 2164 0002 0A00     		movs	r2, r1
 589:..\..\..\arduinoLCD\test\Pain Drain\libraries\lvgl\src\misc/lv_style_gen.c ****     lv_style_value_t v = {
 590:..\..\..\arduinoLCD\test\Pain Drain\libraries\lvgl\src\misc/lv_style_gen.c ****         .num = (int32_t)value
 591:..\..\..\arduinoLCD\test\Pain Drain\libraries\lvgl\src\misc/lv_style_gen.c ****     };
 592:..\..\..\arduinoLCD\test\Pain Drain\libraries\lvgl\src\misc/lv_style_gen.c ****     lv_style_set_prop(style, LV_STYLE_CLIP_CORNER, v);
 2165              		.loc 1 592 0
 2166 0004 1721     		movs	r1, #23
 2167              	.LVL220:
 2168 0006 FFF7FEFF 		bl	lv_style_set_prop
 2169              	.LVL221:
 593:..\..\..\arduinoLCD\test\Pain Drain\libraries\lvgl\src\misc/lv_style_gen.c **** }
 2170              		.loc 1 593 0
 2171              		@ sp needed
 2172 000a 10BD     		pop	{r4, pc}
 2173              		.cfi_endproc
 2174              	.LFE127:
 2175              		.size	lv_style_set_clip_corner, .-lv_style_set_clip_corner
 2176              		.section	.text.lv_style_set_opa,"ax",%progbits
 2177              		.align	2
 2178              		.global	lv_style_set_opa
 2179              		.code	16
 2180              		.thumb_func
 2181              		.type	lv_style_set_opa, %function
 2182              	lv_style_set_opa:
 2183              	.LFB128:
 594:..\..\..\arduinoLCD\test\Pain Drain\libraries\lvgl\src\misc/lv_style_gen.c **** 
 595:..\..\..\arduinoLCD\test\Pain Drain\libraries\lvgl\src\misc/lv_style_gen.c **** void lv_style_set_opa(lv_style_t * style, lv_opa_t value)
 596:..\..\..\arduinoLCD\test\Pain Drain\libraries\lvgl\src\misc/lv_style_gen.c **** {
 2184              		.loc 1 596 0
 2185              		.cfi_startproc
 2186              		@ args = 0, pretend = 0, frame = 0
 2187              		@ frame_needed = 0, uses_anonymous_args = 0
 2188              	.LVL222:
 2189 0000 10B5     		push	{r4, lr}
 2190              		.cfi_def_cfa_offset 8
 2191              		.cfi_offset 4, -8
 2192              		.cfi_offset 14, -4
 2193 0002 0A00     		movs	r2, r1
 597:..\..\..\arduinoLCD\test\Pain Drain\libraries\lvgl\src\misc/lv_style_gen.c ****     lv_style_value_t v = {
 598:..\..\..\arduinoLCD\test\Pain Drain\libraries\lvgl\src\misc/lv_style_gen.c ****         .num = (int32_t)value
 599:..\..\..\arduinoLCD\test\Pain Drain\libraries\lvgl\src\misc/lv_style_gen.c ****     };
 600:..\..\..\arduinoLCD\test\Pain Drain\libraries\lvgl\src\misc/lv_style_gen.c ****     lv_style_set_prop(style, LV_STYLE_OPA, v);
ARM GAS  C:\Users\haske\AppData\Local\Temp\ccb2zsXg.s 			page 50


 2194              		.loc 1 600 0
 2195 0004 6021     		movs	r1, #96
 2196              	.LVL223:
 2197 0006 FFF7FEFF 		bl	lv_style_set_prop
 2198              	.LVL224:
 601:..\..\..\arduinoLCD\test\Pain Drain\libraries\lvgl\src\misc/lv_style_gen.c **** }
 2199              		.loc 1 601 0
 2200              		@ sp needed
 2201 000a 10BD     		pop	{r4, pc}
 2202              		.cfi_endproc
 2203              	.LFE128:
 2204              		.size	lv_style_set_opa, .-lv_style_set_opa
 2205              		.section	.text.lv_style_set_color_filter_dsc,"ax",%progbits
 2206              		.align	2
 2207              		.global	lv_style_set_color_filter_dsc
 2208              		.code	16
 2209              		.thumb_func
 2210              		.type	lv_style_set_color_filter_dsc, %function
 2211              	lv_style_set_color_filter_dsc:
 2212              	.LFB129:
 602:..\..\..\arduinoLCD\test\Pain Drain\libraries\lvgl\src\misc/lv_style_gen.c **** 
 603:..\..\..\arduinoLCD\test\Pain Drain\libraries\lvgl\src\misc/lv_style_gen.c **** void lv_style_set_color_filter_dsc(lv_style_t * style, const lv_color_filter_dsc_t * value)
 604:..\..\..\arduinoLCD\test\Pain Drain\libraries\lvgl\src\misc/lv_style_gen.c **** {
 2213              		.loc 1 604 0
 2214              		.cfi_startproc
 2215              		@ args = 0, pretend = 0, frame = 0
 2216              		@ frame_needed = 0, uses_anonymous_args = 0
 2217              	.LVL225:
 2218 0000 10B5     		push	{r4, lr}
 2219              		.cfi_def_cfa_offset 8
 2220              		.cfi_offset 4, -8
 2221              		.cfi_offset 14, -4
 2222 0002 0A00     		movs	r2, r1
 605:..\..\..\arduinoLCD\test\Pain Drain\libraries\lvgl\src\misc/lv_style_gen.c ****     lv_style_value_t v = {
 606:..\..\..\arduinoLCD\test\Pain Drain\libraries\lvgl\src\misc/lv_style_gen.c ****         .ptr = value
 607:..\..\..\arduinoLCD\test\Pain Drain\libraries\lvgl\src\misc/lv_style_gen.c ****     };
 608:..\..\..\arduinoLCD\test\Pain Drain\libraries\lvgl\src\misc/lv_style_gen.c ****     lv_style_set_prop(style, LV_STYLE_COLOR_FILTER_DSC, v);
 2223              		.loc 1 608 0
 2224 0004 6121     		movs	r1, #97
 2225              	.LVL226:
 2226 0006 FFF7FEFF 		bl	lv_style_set_prop
 2227              	.LVL227:
 609:..\..\..\arduinoLCD\test\Pain Drain\libraries\lvgl\src\misc/lv_style_gen.c **** }
 2228              		.loc 1 609 0
 2229              		@ sp needed
 2230 000a 10BD     		pop	{r4, pc}
 2231              		.cfi_endproc
 2232              	.LFE129:
 2233              		.size	lv_style_set_color_filter_dsc, .-lv_style_set_color_filter_dsc
 2234              		.section	.text.lv_style_set_color_filter_opa,"ax",%progbits
 2235              		.align	2
 2236              		.global	lv_style_set_color_filter_opa
 2237              		.code	16
 2238              		.thumb_func
 2239              		.type	lv_style_set_color_filter_opa, %function
 2240              	lv_style_set_color_filter_opa:
 2241              	.LFB130:
ARM GAS  C:\Users\haske\AppData\Local\Temp\ccb2zsXg.s 			page 51


 610:..\..\..\arduinoLCD\test\Pain Drain\libraries\lvgl\src\misc/lv_style_gen.c **** 
 611:..\..\..\arduinoLCD\test\Pain Drain\libraries\lvgl\src\misc/lv_style_gen.c **** void lv_style_set_color_filter_opa(lv_style_t * style, lv_opa_t value)
 612:..\..\..\arduinoLCD\test\Pain Drain\libraries\lvgl\src\misc/lv_style_gen.c **** {
 2242              		.loc 1 612 0
 2243              		.cfi_startproc
 2244              		@ args = 0, pretend = 0, frame = 0
 2245              		@ frame_needed = 0, uses_anonymous_args = 0
 2246              	.LVL228:
 2247 0000 10B5     		push	{r4, lr}
 2248              		.cfi_def_cfa_offset 8
 2249              		.cfi_offset 4, -8
 2250              		.cfi_offset 14, -4
 2251 0002 0A00     		movs	r2, r1
 613:..\..\..\arduinoLCD\test\Pain Drain\libraries\lvgl\src\misc/lv_style_gen.c ****     lv_style_value_t v = {
 614:..\..\..\arduinoLCD\test\Pain Drain\libraries\lvgl\src\misc/lv_style_gen.c ****         .num = (int32_t)value
 615:..\..\..\arduinoLCD\test\Pain Drain\libraries\lvgl\src\misc/lv_style_gen.c ****     };
 616:..\..\..\arduinoLCD\test\Pain Drain\libraries\lvgl\src\misc/lv_style_gen.c ****     lv_style_set_prop(style, LV_STYLE_COLOR_FILTER_OPA, v);
 2252              		.loc 1 616 0
 2253 0004 6221     		movs	r1, #98
 2254              	.LVL229:
 2255 0006 FFF7FEFF 		bl	lv_style_set_prop
 2256              	.LVL230:
 617:..\..\..\arduinoLCD\test\Pain Drain\libraries\lvgl\src\misc/lv_style_gen.c **** }
 2257              		.loc 1 617 0
 2258              		@ sp needed
 2259 000a 10BD     		pop	{r4, pc}
 2260              		.cfi_endproc
 2261              	.LFE130:
 2262              		.size	lv_style_set_color_filter_opa, .-lv_style_set_color_filter_opa
 2263              		.section	.text.lv_style_set_anim,"ax",%progbits
 2264              		.align	2
 2265              		.global	lv_style_set_anim
 2266              		.code	16
 2267              		.thumb_func
 2268              		.type	lv_style_set_anim, %function
 2269              	lv_style_set_anim:
 2270              	.LFB131:
 618:..\..\..\arduinoLCD\test\Pain Drain\libraries\lvgl\src\misc/lv_style_gen.c **** 
 619:..\..\..\arduinoLCD\test\Pain Drain\libraries\lvgl\src\misc/lv_style_gen.c **** void lv_style_set_anim(lv_style_t * style, const lv_anim_t * value)
 620:..\..\..\arduinoLCD\test\Pain Drain\libraries\lvgl\src\misc/lv_style_gen.c **** {
 2271              		.loc 1 620 0
 2272              		.cfi_startproc
 2273              		@ args = 0, pretend = 0, frame = 0
 2274              		@ frame_needed = 0, uses_anonymous_args = 0
 2275              	.LVL231:
 2276 0000 10B5     		push	{r4, lr}
 2277              		.cfi_def_cfa_offset 8
 2278              		.cfi_offset 4, -8
 2279              		.cfi_offset 14, -4
 2280 0002 0A00     		movs	r2, r1
 621:..\..\..\arduinoLCD\test\Pain Drain\libraries\lvgl\src\misc/lv_style_gen.c ****     lv_style_value_t v = {
 622:..\..\..\arduinoLCD\test\Pain Drain\libraries\lvgl\src\misc/lv_style_gen.c ****         .ptr = value
 623:..\..\..\arduinoLCD\test\Pain Drain\libraries\lvgl\src\misc/lv_style_gen.c ****     };
 624:..\..\..\arduinoLCD\test\Pain Drain\libraries\lvgl\src\misc/lv_style_gen.c ****     lv_style_set_prop(style, LV_STYLE_ANIM, v);
 2281              		.loc 1 624 0
 2282 0004 6321     		movs	r1, #99
 2283              	.LVL232:
ARM GAS  C:\Users\haske\AppData\Local\Temp\ccb2zsXg.s 			page 52


 2284 0006 FFF7FEFF 		bl	lv_style_set_prop
 2285              	.LVL233:
 625:..\..\..\arduinoLCD\test\Pain Drain\libraries\lvgl\src\misc/lv_style_gen.c **** }
 2286              		.loc 1 625 0
 2287              		@ sp needed
 2288 000a 10BD     		pop	{r4, pc}
 2289              		.cfi_endproc
 2290              	.LFE131:
 2291              		.size	lv_style_set_anim, .-lv_style_set_anim
 2292              		.section	.text.lv_style_set_anim_time,"ax",%progbits
 2293              		.align	2
 2294              		.global	lv_style_set_anim_time
 2295              		.code	16
 2296              		.thumb_func
 2297              		.type	lv_style_set_anim_time, %function
 2298              	lv_style_set_anim_time:
 2299              	.LFB132:
 626:..\..\..\arduinoLCD\test\Pain Drain\libraries\lvgl\src\misc/lv_style_gen.c **** 
 627:..\..\..\arduinoLCD\test\Pain Drain\libraries\lvgl\src\misc/lv_style_gen.c **** void lv_style_set_anim_time(lv_style_t * style, uint32_t value)
 628:..\..\..\arduinoLCD\test\Pain Drain\libraries\lvgl\src\misc/lv_style_gen.c **** {
 2300              		.loc 1 628 0
 2301              		.cfi_startproc
 2302              		@ args = 0, pretend = 0, frame = 0
 2303              		@ frame_needed = 0, uses_anonymous_args = 0
 2304              	.LVL234:
 2305 0000 10B5     		push	{r4, lr}
 2306              		.cfi_def_cfa_offset 8
 2307              		.cfi_offset 4, -8
 2308              		.cfi_offset 14, -4
 2309 0002 0A00     		movs	r2, r1
 629:..\..\..\arduinoLCD\test\Pain Drain\libraries\lvgl\src\misc/lv_style_gen.c ****     lv_style_value_t v = {
 630:..\..\..\arduinoLCD\test\Pain Drain\libraries\lvgl\src\misc/lv_style_gen.c ****         .num = (int32_t)value
 631:..\..\..\arduinoLCD\test\Pain Drain\libraries\lvgl\src\misc/lv_style_gen.c ****     };
 632:..\..\..\arduinoLCD\test\Pain Drain\libraries\lvgl\src\misc/lv_style_gen.c ****     lv_style_set_prop(style, LV_STYLE_ANIM_TIME, v);
 2310              		.loc 1 632 0
 2311 0004 6421     		movs	r1, #100
 2312              	.LVL235:
 2313 0006 FFF7FEFF 		bl	lv_style_set_prop
 2314              	.LVL236:
 633:..\..\..\arduinoLCD\test\Pain Drain\libraries\lvgl\src\misc/lv_style_gen.c **** }
 2315              		.loc 1 633 0
 2316              		@ sp needed
 2317 000a 10BD     		pop	{r4, pc}
 2318              		.cfi_endproc
 2319              	.LFE132:
 2320              		.size	lv_style_set_anim_time, .-lv_style_set_anim_time
 2321              		.section	.text.lv_style_set_anim_speed,"ax",%progbits
 2322              		.align	2
 2323              		.global	lv_style_set_anim_speed
 2324              		.code	16
 2325              		.thumb_func
 2326              		.type	lv_style_set_anim_speed, %function
 2327              	lv_style_set_anim_speed:
 2328              	.LFB133:
 634:..\..\..\arduinoLCD\test\Pain Drain\libraries\lvgl\src\misc/lv_style_gen.c **** 
 635:..\..\..\arduinoLCD\test\Pain Drain\libraries\lvgl\src\misc/lv_style_gen.c **** void lv_style_set_anim_speed(lv_style_t * style, uint32_t value)
 636:..\..\..\arduinoLCD\test\Pain Drain\libraries\lvgl\src\misc/lv_style_gen.c **** {
ARM GAS  C:\Users\haske\AppData\Local\Temp\ccb2zsXg.s 			page 53


 2329              		.loc 1 636 0
 2330              		.cfi_startproc
 2331              		@ args = 0, pretend = 0, frame = 0
 2332              		@ frame_needed = 0, uses_anonymous_args = 0
 2333              	.LVL237:
 2334 0000 10B5     		push	{r4, lr}
 2335              		.cfi_def_cfa_offset 8
 2336              		.cfi_offset 4, -8
 2337              		.cfi_offset 14, -4
 2338 0002 0A00     		movs	r2, r1
 637:..\..\..\arduinoLCD\test\Pain Drain\libraries\lvgl\src\misc/lv_style_gen.c ****     lv_style_value_t v = {
 638:..\..\..\arduinoLCD\test\Pain Drain\libraries\lvgl\src\misc/lv_style_gen.c ****         .num = (int32_t)value
 639:..\..\..\arduinoLCD\test\Pain Drain\libraries\lvgl\src\misc/lv_style_gen.c ****     };
 640:..\..\..\arduinoLCD\test\Pain Drain\libraries\lvgl\src\misc/lv_style_gen.c ****     lv_style_set_prop(style, LV_STYLE_ANIM_SPEED, v);
 2339              		.loc 1 640 0
 2340 0004 6521     		movs	r1, #101
 2341              	.LVL238:
 2342 0006 FFF7FEFF 		bl	lv_style_set_prop
 2343              	.LVL239:
 641:..\..\..\arduinoLCD\test\Pain Drain\libraries\lvgl\src\misc/lv_style_gen.c **** }
 2344              		.loc 1 641 0
 2345              		@ sp needed
 2346 000a 10BD     		pop	{r4, pc}
 2347              		.cfi_endproc
 2348              	.LFE133:
 2349              		.size	lv_style_set_anim_speed, .-lv_style_set_anim_speed
 2350              		.section	.text.lv_style_set_transition,"ax",%progbits
 2351              		.align	2
 2352              		.global	lv_style_set_transition
 2353              		.code	16
 2354              		.thumb_func
 2355              		.type	lv_style_set_transition, %function
 2356              	lv_style_set_transition:
 2357              	.LFB134:
 642:..\..\..\arduinoLCD\test\Pain Drain\libraries\lvgl\src\misc/lv_style_gen.c **** 
 643:..\..\..\arduinoLCD\test\Pain Drain\libraries\lvgl\src\misc/lv_style_gen.c **** void lv_style_set_transition(lv_style_t * style, const lv_style_transition_dsc_t * value)
 644:..\..\..\arduinoLCD\test\Pain Drain\libraries\lvgl\src\misc/lv_style_gen.c **** {
 2358              		.loc 1 644 0
 2359              		.cfi_startproc
 2360              		@ args = 0, pretend = 0, frame = 0
 2361              		@ frame_needed = 0, uses_anonymous_args = 0
 2362              	.LVL240:
 2363 0000 10B5     		push	{r4, lr}
 2364              		.cfi_def_cfa_offset 8
 2365              		.cfi_offset 4, -8
 2366              		.cfi_offset 14, -4
 2367 0002 0A00     		movs	r2, r1
 645:..\..\..\arduinoLCD\test\Pain Drain\libraries\lvgl\src\misc/lv_style_gen.c ****     lv_style_value_t v = {
 646:..\..\..\arduinoLCD\test\Pain Drain\libraries\lvgl\src\misc/lv_style_gen.c ****         .ptr = value
 647:..\..\..\arduinoLCD\test\Pain Drain\libraries\lvgl\src\misc/lv_style_gen.c ****     };
 648:..\..\..\arduinoLCD\test\Pain Drain\libraries\lvgl\src\misc/lv_style_gen.c ****     lv_style_set_prop(style, LV_STYLE_TRANSITION, v);
 2368              		.loc 1 648 0
 2369 0004 6621     		movs	r1, #102
 2370              	.LVL241:
 2371 0006 FFF7FEFF 		bl	lv_style_set_prop
 2372              	.LVL242:
 649:..\..\..\arduinoLCD\test\Pain Drain\libraries\lvgl\src\misc/lv_style_gen.c **** }
ARM GAS  C:\Users\haske\AppData\Local\Temp\ccb2zsXg.s 			page 54


 2373              		.loc 1 649 0
 2374              		@ sp needed
 2375 000a 10BD     		pop	{r4, pc}
 2376              		.cfi_endproc
 2377              	.LFE134:
 2378              		.size	lv_style_set_transition, .-lv_style_set_transition
 2379              		.section	.text.lv_style_set_blend_mode,"ax",%progbits
 2380              		.align	2
 2381              		.global	lv_style_set_blend_mode
 2382              		.code	16
 2383              		.thumb_func
 2384              		.type	lv_style_set_blend_mode, %function
 2385              	lv_style_set_blend_mode:
 2386              	.LFB135:
 650:..\..\..\arduinoLCD\test\Pain Drain\libraries\lvgl\src\misc/lv_style_gen.c **** 
 651:..\..\..\arduinoLCD\test\Pain Drain\libraries\lvgl\src\misc/lv_style_gen.c **** void lv_style_set_blend_mode(lv_style_t * style, lv_blend_mode_t value)
 652:..\..\..\arduinoLCD\test\Pain Drain\libraries\lvgl\src\misc/lv_style_gen.c **** {
 2387              		.loc 1 652 0
 2388              		.cfi_startproc
 2389              		@ args = 0, pretend = 0, frame = 0
 2390              		@ frame_needed = 0, uses_anonymous_args = 0
 2391              	.LVL243:
 2392 0000 10B5     		push	{r4, lr}
 2393              		.cfi_def_cfa_offset 8
 2394              		.cfi_offset 4, -8
 2395              		.cfi_offset 14, -4
 2396 0002 0A00     		movs	r2, r1
 653:..\..\..\arduinoLCD\test\Pain Drain\libraries\lvgl\src\misc/lv_style_gen.c ****     lv_style_value_t v = {
 654:..\..\..\arduinoLCD\test\Pain Drain\libraries\lvgl\src\misc/lv_style_gen.c ****         .num = (int32_t)value
 655:..\..\..\arduinoLCD\test\Pain Drain\libraries\lvgl\src\misc/lv_style_gen.c ****     };
 656:..\..\..\arduinoLCD\test\Pain Drain\libraries\lvgl\src\misc/lv_style_gen.c ****     lv_style_set_prop(style, LV_STYLE_BLEND_MODE, v);
 2397              		.loc 1 656 0
 2398 0004 6721     		movs	r1, #103
 2399              	.LVL244:
 2400 0006 FFF7FEFF 		bl	lv_style_set_prop
 2401              	.LVL245:
 657:..\..\..\arduinoLCD\test\Pain Drain\libraries\lvgl\src\misc/lv_style_gen.c **** }
 2402              		.loc 1 657 0
 2403              		@ sp needed
 2404 000a 10BD     		pop	{r4, pc}
 2405              		.cfi_endproc
 2406              	.LFE135:
 2407              		.size	lv_style_set_blend_mode, .-lv_style_set_blend_mode
 2408              		.section	.text.lv_style_set_layout,"ax",%progbits
 2409              		.align	2
 2410              		.global	lv_style_set_layout
 2411              		.code	16
 2412              		.thumb_func
 2413              		.type	lv_style_set_layout, %function
 2414              	lv_style_set_layout:
 2415              	.LFB136:
 658:..\..\..\arduinoLCD\test\Pain Drain\libraries\lvgl\src\misc/lv_style_gen.c **** 
 659:..\..\..\arduinoLCD\test\Pain Drain\libraries\lvgl\src\misc/lv_style_gen.c **** void lv_style_set_layout(lv_style_t * style, uint16_t value)
 660:..\..\..\arduinoLCD\test\Pain Drain\libraries\lvgl\src\misc/lv_style_gen.c **** {
 2416              		.loc 1 660 0
 2417              		.cfi_startproc
 2418              		@ args = 0, pretend = 0, frame = 0
ARM GAS  C:\Users\haske\AppData\Local\Temp\ccb2zsXg.s 			page 55


 2419              		@ frame_needed = 0, uses_anonymous_args = 0
 2420              	.LVL246:
 2421 0000 10B5     		push	{r4, lr}
 2422              		.cfi_def_cfa_offset 8
 2423              		.cfi_offset 4, -8
 2424              		.cfi_offset 14, -4
 2425 0002 0A00     		movs	r2, r1
 661:..\..\..\arduinoLCD\test\Pain Drain\libraries\lvgl\src\misc/lv_style_gen.c ****     lv_style_value_t v = {
 662:..\..\..\arduinoLCD\test\Pain Drain\libraries\lvgl\src\misc/lv_style_gen.c ****         .num = (int32_t)value
 663:..\..\..\arduinoLCD\test\Pain Drain\libraries\lvgl\src\misc/lv_style_gen.c ****     };
 664:..\..\..\arduinoLCD\test\Pain Drain\libraries\lvgl\src\misc/lv_style_gen.c ****     lv_style_set_prop(style, LV_STYLE_LAYOUT, v);
 2426              		.loc 1 664 0
 2427 0004 0A21     		movs	r1, #10
 2428              	.LVL247:
 2429 0006 FFF7FEFF 		bl	lv_style_set_prop
 2430              	.LVL248:
 665:..\..\..\arduinoLCD\test\Pain Drain\libraries\lvgl\src\misc/lv_style_gen.c **** }
 2431              		.loc 1 665 0
 2432              		@ sp needed
 2433 000a 10BD     		pop	{r4, pc}
 2434              		.cfi_endproc
 2435              	.LFE136:
 2436              		.size	lv_style_set_layout, .-lv_style_set_layout
 2437              		.section	.text.lv_style_set_base_dir,"ax",%progbits
 2438              		.align	2
 2439              		.global	lv_style_set_base_dir
 2440              		.code	16
 2441              		.thumb_func
 2442              		.type	lv_style_set_base_dir, %function
 2443              	lv_style_set_base_dir:
 2444              	.LFB137:
 666:..\..\..\arduinoLCD\test\Pain Drain\libraries\lvgl\src\misc/lv_style_gen.c **** 
 667:..\..\..\arduinoLCD\test\Pain Drain\libraries\lvgl\src\misc/lv_style_gen.c **** void lv_style_set_base_dir(lv_style_t * style, lv_base_dir_t value)
 668:..\..\..\arduinoLCD\test\Pain Drain\libraries\lvgl\src\misc/lv_style_gen.c **** {
 2445              		.loc 1 668 0
 2446              		.cfi_startproc
 2447              		@ args = 0, pretend = 0, frame = 0
 2448              		@ frame_needed = 0, uses_anonymous_args = 0
 2449              	.LVL249:
 2450 0000 10B5     		push	{r4, lr}
 2451              		.cfi_def_cfa_offset 8
 2452              		.cfi_offset 4, -8
 2453              		.cfi_offset 14, -4
 2454 0002 0A00     		movs	r2, r1
 669:..\..\..\arduinoLCD\test\Pain Drain\libraries\lvgl\src\misc/lv_style_gen.c ****     lv_style_value_t v = {
 670:..\..\..\arduinoLCD\test\Pain Drain\libraries\lvgl\src\misc/lv_style_gen.c ****         .num = (int32_t)value
 671:..\..\..\arduinoLCD\test\Pain Drain\libraries\lvgl\src\misc/lv_style_gen.c ****     };
 672:..\..\..\arduinoLCD\test\Pain Drain\libraries\lvgl\src\misc/lv_style_gen.c ****     lv_style_set_prop(style, LV_STYLE_BASE_DIR, v);
 2455              		.loc 1 672 0
 2456 0004 1621     		movs	r1, #22
 2457              	.LVL250:
 2458 0006 FFF7FEFF 		bl	lv_style_set_prop
 2459              	.LVL251:
 673:..\..\..\arduinoLCD\test\Pain Drain\libraries\lvgl\src\misc/lv_style_gen.c **** }
 2460              		.loc 1 673 0
 2461              		@ sp needed
 2462 000a 10BD     		pop	{r4, pc}
ARM GAS  C:\Users\haske\AppData\Local\Temp\ccb2zsXg.s 			page 56


 2463              		.cfi_endproc
 2464              	.LFE137:
 2465              		.size	lv_style_set_base_dir, .-lv_style_set_base_dir
 2466              		.text
 2467              	.Letext0:
 2468              		.file 2 "c:\\program files (x86)\\cypress\\psoc creator\\4.4\\psoc creator\\import\\gnu\\arm\\5.4.
 2469              		.file 3 "c:\\program files (x86)\\cypress\\psoc creator\\4.4\\psoc creator\\import\\gnu\\arm\\5.4.
 2470              		.file 4 "c:\\projects\\paindrain\\arduinolcd\\test\\pain drain\\libraries\\lvgl\\src\\misc\\lv_are
 2471              		.file 5 "..\\..\\..\\arduinoLCD\\test\\Pain Drain\\libraries\\lvgl\\src\\misc\\../font/lv_font.h"
 2472              		.file 6 "..\\..\\..\\arduinoLCD\\test\\Pain Drain\\libraries\\lvgl\\src\\misc\\lv_color.h"
 2473              		.file 7 "..\\..\\..\\arduinoLCD\\test\\Pain Drain\\libraries\\lvgl\\src\\misc\\lv_anim.h"
 2474              		.file 8 "..\\..\\..\\arduinoLCD\\test\\Pain Drain\\libraries\\lvgl\\src\\misc\\lv_txt.h"
 2475              		.file 9 "..\\..\\..\\arduinoLCD\\test\\Pain Drain\\libraries\\lvgl\\src\\misc\\lv_bidi.h"
 2476              		.file 10 "..\\..\\..\\arduinoLCD\\test\\Pain Drain\\libraries\\lvgl\\src\\misc\\lv_style.h"
 2477              		.section	.debug_info,"",%progbits
 2478              	.Ldebug_info0:
 2479 0000 60260000 		.4byte	0x2660
 2480 0004 0400     		.2byte	0x4
 2481 0006 00000000 		.4byte	.Ldebug_abbrev0
 2482 000a 04       		.byte	0x4
 2483 000b 01       		.uleb128 0x1
 2484 000c 4A040000 		.4byte	.LASF287
 2485 0010 0C       		.byte	0xc
 2486 0011 66010000 		.4byte	.LASF288
 2487 0015 630B0000 		.4byte	.LASF289
 2488 0019 00000000 		.4byte	.Ldebug_ranges0+0
 2489 001d 00000000 		.4byte	0
 2490 0021 00000000 		.4byte	.Ldebug_line0
 2491 0025 02       		.uleb128 0x2
 2492 0026 840D0000 		.4byte	.LASF0
 2493 002a 02       		.byte	0x2
 2494 002b 1B       		.byte	0x1b
 2495 002c 30000000 		.4byte	0x30
 2496 0030 03       		.uleb128 0x3
 2497 0031 01       		.byte	0x1
 2498 0032 06       		.byte	0x6
 2499 0033 F7130000 		.4byte	.LASF2
 2500 0037 02       		.uleb128 0x2
 2501 0038 C2100000 		.4byte	.LASF1
 2502 003c 02       		.byte	0x2
 2503 003d 1D       		.byte	0x1d
 2504 003e 42000000 		.4byte	0x42
 2505 0042 03       		.uleb128 0x3
 2506 0043 01       		.byte	0x1
 2507 0044 08       		.byte	0x8
 2508 0045 40120000 		.4byte	.LASF3
 2509 0049 02       		.uleb128 0x2
 2510 004a E70B0000 		.4byte	.LASF4
 2511 004e 02       		.byte	0x2
 2512 004f 29       		.byte	0x29
 2513 0050 54000000 		.4byte	0x54
 2514 0054 03       		.uleb128 0x3
 2515 0055 02       		.byte	0x2
 2516 0056 05       		.byte	0x5
 2517 0057 F00E0000 		.4byte	.LASF5
 2518 005b 02       		.uleb128 0x2
 2519 005c D4050000 		.4byte	.LASF6
ARM GAS  C:\Users\haske\AppData\Local\Temp\ccb2zsXg.s 			page 57


 2520 0060 02       		.byte	0x2
 2521 0061 2B       		.byte	0x2b
 2522 0062 66000000 		.4byte	0x66
 2523 0066 03       		.uleb128 0x3
 2524 0067 02       		.byte	0x2
 2525 0068 07       		.byte	0x7
 2526 0069 12140000 		.4byte	.LASF7
 2527 006d 02       		.uleb128 0x2
 2528 006e 3E010000 		.4byte	.LASF8
 2529 0072 02       		.byte	0x2
 2530 0073 3F       		.byte	0x3f
 2531 0074 78000000 		.4byte	0x78
 2532 0078 03       		.uleb128 0x3
 2533 0079 04       		.byte	0x4
 2534 007a 05       		.byte	0x5
 2535 007b 430F0000 		.4byte	.LASF9
 2536 007f 02       		.uleb128 0x2
 2537 0080 4E120000 		.4byte	.LASF10
 2538 0084 02       		.byte	0x2
 2539 0085 41       		.byte	0x41
 2540 0086 8A000000 		.4byte	0x8a
 2541 008a 03       		.uleb128 0x3
 2542 008b 04       		.byte	0x4
 2543 008c 07       		.byte	0x7
 2544 008d 5A110000 		.4byte	.LASF11
 2545 0091 03       		.uleb128 0x3
 2546 0092 08       		.byte	0x8
 2547 0093 05       		.byte	0x5
 2548 0094 270B0000 		.4byte	.LASF12
 2549 0098 03       		.uleb128 0x3
 2550 0099 08       		.byte	0x8
 2551 009a 07       		.byte	0x7
 2552 009b 5A050000 		.4byte	.LASF13
 2553 009f 04       		.uleb128 0x4
 2554 00a0 04       		.byte	0x4
 2555 00a1 05       		.byte	0x5
 2556 00a2 696E7400 		.ascii	"int\000"
 2557 00a6 03       		.uleb128 0x3
 2558 00a7 04       		.byte	0x4
 2559 00a8 07       		.byte	0x7
 2560 00a9 BE000000 		.4byte	.LASF14
 2561 00ad 02       		.uleb128 0x2
 2562 00ae E7030000 		.4byte	.LASF15
 2563 00b2 03       		.byte	0x3
 2564 00b3 14       		.byte	0x14
 2565 00b4 25000000 		.4byte	0x25
 2566 00b8 02       		.uleb128 0x2
 2567 00b9 3C0A0000 		.4byte	.LASF16
 2568 00bd 03       		.byte	0x3
 2569 00be 18       		.byte	0x18
 2570 00bf 37000000 		.4byte	0x37
 2571 00c3 02       		.uleb128 0x2
 2572 00c4 49050000 		.4byte	.LASF17
 2573 00c8 03       		.byte	0x3
 2574 00c9 20       		.byte	0x20
 2575 00ca 49000000 		.4byte	0x49
 2576 00ce 02       		.uleb128 0x2
ARM GAS  C:\Users\haske\AppData\Local\Temp\ccb2zsXg.s 			page 58


 2577 00cf D90D0000 		.4byte	.LASF18
 2578 00d3 03       		.byte	0x3
 2579 00d4 24       		.byte	0x24
 2580 00d5 5B000000 		.4byte	0x5b
 2581 00d9 02       		.uleb128 0x2
 2582 00da B1110000 		.4byte	.LASF19
 2583 00de 03       		.byte	0x3
 2584 00df 2C       		.byte	0x2c
 2585 00e0 6D000000 		.4byte	0x6d
 2586 00e4 02       		.uleb128 0x2
 2587 00e5 DE030000 		.4byte	.LASF20
 2588 00e9 03       		.byte	0x3
 2589 00ea 30       		.byte	0x30
 2590 00eb 7F000000 		.4byte	0x7f
 2591 00ef 03       		.uleb128 0x3
 2592 00f0 08       		.byte	0x8
 2593 00f1 04       		.byte	0x4
 2594 00f2 B90D0000 		.4byte	.LASF21
 2595 00f6 02       		.uleb128 0x2
 2596 00f7 85100000 		.4byte	.LASF22
 2597 00fb 04       		.byte	0x4
 2598 00fc 1B       		.byte	0x1b
 2599 00fd C3000000 		.4byte	0xc3
 2600 0101 02       		.uleb128 0x2
 2601 0102 580B0000 		.4byte	.LASF23
 2602 0106 04       		.byte	0x4
 2603 0107 4C       		.byte	0x4c
 2604 0108 B8000000 		.4byte	0xb8
 2605 010c 05       		.uleb128 0x5
 2606 010d 10       		.byte	0x10
 2607 010e 05       		.byte	0x5
 2608 010f 29       		.byte	0x29
 2609 0110 7B010000 		.4byte	0x17b
 2610 0114 06       		.uleb128 0x6
 2611 0115 9B050000 		.4byte	.LASF24
 2612 0119 05       		.byte	0x5
 2613 011a 2B       		.byte	0x2b
 2614 011b 03020000 		.4byte	0x203
 2615 011f 00       		.byte	0
 2616 0120 06       		.uleb128 0x6
 2617 0121 AD150000 		.4byte	.LASF25
 2618 0125 05       		.byte	0x5
 2619 0126 2C       		.byte	0x2c
 2620 0127 CE000000 		.4byte	0xce
 2621 012b 04       		.byte	0x4
 2622 012c 06       		.uleb128 0x6
 2623 012d 4B110000 		.4byte	.LASF26
 2624 0131 05       		.byte	0x5
 2625 0132 2D       		.byte	0x2d
 2626 0133 CE000000 		.4byte	0xce
 2627 0137 06       		.byte	0x6
 2628 0138 06       		.uleb128 0x6
 2629 0139 03110000 		.4byte	.LASF27
 2630 013d 05       		.byte	0x5
 2631 013e 2E       		.byte	0x2e
 2632 013f CE000000 		.4byte	0xce
 2633 0143 08       		.byte	0x8
ARM GAS  C:\Users\haske\AppData\Local\Temp\ccb2zsXg.s 			page 59


 2634 0144 06       		.uleb128 0x6
 2635 0145 CB000000 		.4byte	.LASF28
 2636 0149 05       		.byte	0x5
 2637 014a 2F       		.byte	0x2f
 2638 014b C3000000 		.4byte	0xc3
 2639 014f 0A       		.byte	0xa
 2640 0150 06       		.uleb128 0x6
 2641 0151 D1000000 		.4byte	.LASF29
 2642 0155 05       		.byte	0x5
 2643 0156 30       		.byte	0x30
 2644 0157 C3000000 		.4byte	0xc3
 2645 015b 0C       		.byte	0xc
 2646 015c 07       		.uleb128 0x7
 2647 015d 62707000 		.ascii	"bpp\000"
 2648 0161 05       		.byte	0x5
 2649 0162 31       		.byte	0x31
 2650 0163 B8000000 		.4byte	0xb8
 2651 0167 01       		.byte	0x1
 2652 0168 04       		.byte	0x4
 2653 0169 04       		.byte	0x4
 2654 016a 0E       		.byte	0xe
 2655 016b 08       		.uleb128 0x8
 2656 016c 82140000 		.4byte	.LASF30
 2657 0170 05       		.byte	0x5
 2658 0171 32       		.byte	0x32
 2659 0172 B8000000 		.4byte	0xb8
 2660 0176 01       		.byte	0x1
 2661 0177 01       		.byte	0x1
 2662 0178 03       		.byte	0x3
 2663 0179 0E       		.byte	0xe
 2664 017a 00       		.byte	0
 2665 017b 09       		.uleb128 0x9
 2666 017c 6E0A0000 		.4byte	.LASF52
 2667 0180 1C       		.byte	0x1c
 2668 0181 05       		.byte	0x5
 2669 0182 40       		.byte	0x40
 2670 0183 03020000 		.4byte	0x203
 2671 0187 06       		.uleb128 0x6
 2672 0188 EA000000 		.4byte	.LASF31
 2673 018c 05       		.byte	0x5
 2674 018d 42       		.byte	0x42
 2675 018e 44020000 		.4byte	0x244
 2676 0192 00       		.byte	0
 2677 0193 06       		.uleb128 0x6
 2678 0194 91120000 		.4byte	.LASF32
 2679 0198 05       		.byte	0x5
 2680 0199 45       		.byte	0x45
 2681 019a 69020000 		.4byte	0x269
 2682 019e 04       		.byte	0x4
 2683 019f 06       		.uleb128 0x6
 2684 01a0 3B080000 		.4byte	.LASF33
 2685 01a4 05       		.byte	0x5
 2686 01a5 48       		.byte	0x48
 2687 01a6 F6000000 		.4byte	0xf6
 2688 01aa 08       		.byte	0x8
 2689 01ab 06       		.uleb128 0x6
 2690 01ac B9110000 		.4byte	.LASF34
ARM GAS  C:\Users\haske\AppData\Local\Temp\ccb2zsXg.s 			page 60


 2691 01b0 05       		.byte	0x5
 2692 01b1 49       		.byte	0x49
 2693 01b2 F6000000 		.4byte	0xf6
 2694 01b6 0A       		.byte	0xa
 2695 01b7 08       		.uleb128 0x8
 2696 01b8 520D0000 		.4byte	.LASF35
 2697 01bc 05       		.byte	0x5
 2698 01bd 4A       		.byte	0x4a
 2699 01be B8000000 		.4byte	0xb8
 2700 01c2 01       		.byte	0x1
 2701 01c3 02       		.byte	0x2
 2702 01c4 06       		.byte	0x6
 2703 01c5 0C       		.byte	0xc
 2704 01c6 06       		.uleb128 0x6
 2705 01c7 37040000 		.4byte	.LASF36
 2706 01cb 05       		.byte	0x5
 2707 01cc 4C       		.byte	0x4c
 2708 01cd AD000000 		.4byte	0xad
 2709 01d1 0D       		.byte	0xd
 2710 01d2 06       		.uleb128 0x6
 2711 01d3 3A030000 		.4byte	.LASF37
 2712 01d7 05       		.byte	0x5
 2713 01d8 4D       		.byte	0x4d
 2714 01d9 AD000000 		.4byte	0xad
 2715 01dd 0E       		.byte	0xe
 2716 01de 0A       		.uleb128 0xa
 2717 01df 64736300 		.ascii	"dsc\000"
 2718 01e3 05       		.byte	0x5
 2719 01e4 4F       		.byte	0x4f
 2720 01e5 6F020000 		.4byte	0x26f
 2721 01e9 10       		.byte	0x10
 2722 01ea 06       		.uleb128 0x6
 2723 01eb A2130000 		.4byte	.LASF38
 2724 01ef 05       		.byte	0x5
 2725 01f0 50       		.byte	0x50
 2726 01f1 03020000 		.4byte	0x203
 2727 01f5 14       		.byte	0x14
 2728 01f6 06       		.uleb128 0x6
 2729 01f7 E30A0000 		.4byte	.LASF39
 2730 01fb 05       		.byte	0x5
 2731 01fc 52       		.byte	0x52
 2732 01fd 76020000 		.4byte	0x276
 2733 0201 18       		.byte	0x18
 2734 0202 00       		.byte	0
 2735 0203 0B       		.uleb128 0xb
 2736 0204 04       		.byte	0x4
 2737 0205 09020000 		.4byte	0x209
 2738 0209 0C       		.uleb128 0xc
 2739 020a 7B010000 		.4byte	0x17b
 2740 020e 02       		.uleb128 0x2
 2741 020f DF090000 		.4byte	.LASF40
 2742 0213 05       		.byte	0x5
 2743 0214 33       		.byte	0x33
 2744 0215 0C010000 		.4byte	0x10c
 2745 0219 0D       		.uleb128 0xd
 2746 021a 37020000 		.4byte	0x237
 2747 021e 37020000 		.4byte	0x237
ARM GAS  C:\Users\haske\AppData\Local\Temp\ccb2zsXg.s 			page 61


 2748 0222 0E       		.uleb128 0xe
 2749 0223 03020000 		.4byte	0x203
 2750 0227 0E       		.uleb128 0xe
 2751 0228 3E020000 		.4byte	0x23e
 2752 022c 0E       		.uleb128 0xe
 2753 022d E4000000 		.4byte	0xe4
 2754 0231 0E       		.uleb128 0xe
 2755 0232 E4000000 		.4byte	0xe4
 2756 0236 00       		.byte	0
 2757 0237 03       		.uleb128 0x3
 2758 0238 01       		.byte	0x1
 2759 0239 02       		.byte	0x2
 2760 023a 51070000 		.4byte	.LASF41
 2761 023e 0B       		.uleb128 0xb
 2762 023f 04       		.byte	0x4
 2763 0240 0E020000 		.4byte	0x20e
 2764 0244 0B       		.uleb128 0xb
 2765 0245 04       		.byte	0x4
 2766 0246 19020000 		.4byte	0x219
 2767 024a 0D       		.uleb128 0xd
 2768 024b 5E020000 		.4byte	0x25e
 2769 024f 5E020000 		.4byte	0x25e
 2770 0253 0E       		.uleb128 0xe
 2771 0254 03020000 		.4byte	0x203
 2772 0258 0E       		.uleb128 0xe
 2773 0259 E4000000 		.4byte	0xe4
 2774 025d 00       		.byte	0
 2775 025e 0B       		.uleb128 0xb
 2776 025f 04       		.byte	0x4
 2777 0260 64020000 		.4byte	0x264
 2778 0264 0C       		.uleb128 0xc
 2779 0265 B8000000 		.4byte	0xb8
 2780 0269 0B       		.uleb128 0xb
 2781 026a 04       		.byte	0x4
 2782 026b 4A020000 		.4byte	0x24a
 2783 026f 0B       		.uleb128 0xb
 2784 0270 04       		.byte	0x4
 2785 0271 75020000 		.4byte	0x275
 2786 0275 0F       		.uleb128 0xf
 2787 0276 10       		.uleb128 0x10
 2788 0277 04       		.byte	0x4
 2789 0278 02       		.uleb128 0x2
 2790 0279 BC0E0000 		.4byte	.LASF42
 2791 027d 05       		.byte	0x5
 2792 027e 54       		.byte	0x54
 2793 027f 7B010000 		.4byte	0x17b
 2794 0283 03       		.uleb128 0x3
 2795 0284 04       		.byte	0x4
 2796 0285 07       		.byte	0x7
 2797 0286 B30E0000 		.4byte	.LASF43
 2798 028a 03       		.uleb128 0x3
 2799 028b 01       		.byte	0x1
 2800 028c 08       		.byte	0x8
 2801 028d EA080000 		.4byte	.LASF44
 2802 0291 05       		.uleb128 0x5
 2803 0292 02       		.byte	0x2
 2804 0293 06       		.byte	0x6
ARM GAS  C:\Users\haske\AppData\Local\Temp\ccb2zsXg.s 			page 62


 2805 0294 D1       		.byte	0xd1
 2806 0295 C7020000 		.4byte	0x2c7
 2807 0299 08       		.uleb128 0x8
 2808 029a 53100000 		.4byte	.LASF45
 2809 029e 06       		.byte	0x6
 2810 029f D3       		.byte	0xd3
 2811 02a0 CE000000 		.4byte	0xce
 2812 02a4 02       		.byte	0x2
 2813 02a5 05       		.byte	0x5
 2814 02a6 0B       		.byte	0xb
 2815 02a7 00       		.byte	0
 2816 02a8 08       		.uleb128 0x8
 2817 02a9 B30D0000 		.4byte	.LASF46
 2818 02ad 06       		.byte	0x6
 2819 02ae D4       		.byte	0xd4
 2820 02af CE000000 		.4byte	0xce
 2821 02b3 02       		.byte	0x2
 2822 02b4 06       		.byte	0x6
 2823 02b5 05       		.byte	0x5
 2824 02b6 00       		.byte	0
 2825 02b7 07       		.uleb128 0x7
 2826 02b8 72656400 		.ascii	"red\000"
 2827 02bc 06       		.byte	0x6
 2828 02bd D5       		.byte	0xd5
 2829 02be CE000000 		.4byte	0xce
 2830 02c2 02       		.byte	0x2
 2831 02c3 05       		.byte	0x5
 2832 02c4 00       		.byte	0
 2833 02c5 00       		.byte	0
 2834 02c6 00       		.byte	0
 2835 02c7 11       		.uleb128 0x11
 2836 02c8 02       		.byte	0x2
 2837 02c9 06       		.byte	0x6
 2838 02ca D0       		.byte	0xd0
 2839 02cb E5020000 		.4byte	0x2e5
 2840 02cf 12       		.uleb128 0x12
 2841 02d0 636800   		.ascii	"ch\000"
 2842 02d3 06       		.byte	0x6
 2843 02d4 DC       		.byte	0xdc
 2844 02d5 91020000 		.4byte	0x291
 2845 02d9 13       		.uleb128 0x13
 2846 02da 08000000 		.4byte	.LASF47
 2847 02de 06       		.byte	0x6
 2848 02df DD       		.byte	0xdd
 2849 02e0 CE000000 		.4byte	0xce
 2850 02e4 00       		.byte	0
 2851 02e5 02       		.uleb128 0x2
 2852 02e6 E20D0000 		.4byte	.LASF48
 2853 02ea 06       		.byte	0x6
 2854 02eb DE       		.byte	0xde
 2855 02ec C7020000 		.4byte	0x2c7
 2856 02f0 02       		.uleb128 0x2
 2857 02f1 580D0000 		.4byte	.LASF49
 2858 02f5 06       		.byte	0x6
 2859 02f6 EB       		.byte	0xeb
 2860 02f7 E5020000 		.4byte	0x2e5
 2861 02fb 02       		.uleb128 0x2
ARM GAS  C:\Users\haske\AppData\Local\Temp\ccb2zsXg.s 			page 63


 2862 02fc 150F0000 		.4byte	.LASF50
 2863 0300 06       		.byte	0x6
 2864 0301 F5       		.byte	0xf5
 2865 0302 B8000000 		.4byte	0xb8
 2866 0306 02       		.uleb128 0x2
 2867 0307 73060000 		.4byte	.LASF51
 2868 030b 06       		.byte	0x6
 2869 030c FA       		.byte	0xfa
 2870 030d 11030000 		.4byte	0x311
 2871 0311 0B       		.uleb128 0xb
 2872 0312 04       		.byte	0x4
 2873 0313 17030000 		.4byte	0x317
 2874 0317 0D       		.uleb128 0xd
 2875 0318 F0020000 		.4byte	0x2f0
 2876 031c 30030000 		.4byte	0x330
 2877 0320 0E       		.uleb128 0xe
 2878 0321 30030000 		.4byte	0x330
 2879 0325 0E       		.uleb128 0xe
 2880 0326 F0020000 		.4byte	0x2f0
 2881 032a 0E       		.uleb128 0xe
 2882 032b FB020000 		.4byte	0x2fb
 2883 032f 00       		.byte	0
 2884 0330 0B       		.uleb128 0xb
 2885 0331 04       		.byte	0x4
 2886 0332 5B030000 		.4byte	0x35b
 2887 0336 09       		.uleb128 0x9
 2888 0337 D3010000 		.4byte	.LASF53
 2889 033b 08       		.byte	0x8
 2890 033c 06       		.byte	0x6
 2891 033d FC       		.byte	0xfc
 2892 033e 5B030000 		.4byte	0x35b
 2893 0342 06       		.uleb128 0x6
 2894 0343 7B100000 		.4byte	.LASF54
 2895 0347 06       		.byte	0x6
 2896 0348 FD       		.byte	0xfd
 2897 0349 06030000 		.4byte	0x306
 2898 034d 00       		.byte	0
 2899 034e 06       		.uleb128 0x6
 2900 034f E30A0000 		.4byte	.LASF39
 2901 0353 06       		.byte	0x6
 2902 0354 FE       		.byte	0xfe
 2903 0355 76020000 		.4byte	0x276
 2904 0359 04       		.byte	0x4
 2905 035a 00       		.byte	0
 2906 035b 0C       		.uleb128 0xc
 2907 035c 36030000 		.4byte	0x336
 2908 0360 02       		.uleb128 0x2
 2909 0361 DF120000 		.4byte	.LASF55
 2910 0365 06       		.byte	0x6
 2911 0366 FF       		.byte	0xff
 2912 0367 36030000 		.4byte	0x336
 2913 036b 02       		.uleb128 0x2
 2914 036c DE0E0000 		.4byte	.LASF56
 2915 0370 07       		.byte	0x7
 2916 0371 2E       		.byte	0x2e
 2917 0372 76030000 		.4byte	0x376
 2918 0376 0B       		.uleb128 0xb
ARM GAS  C:\Users\haske\AppData\Local\Temp\ccb2zsXg.s 			page 64


 2919 0377 04       		.byte	0x4
 2920 0378 7C030000 		.4byte	0x37c
 2921 037c 0D       		.uleb128 0xd
 2922 037d D9000000 		.4byte	0xd9
 2923 0381 8B030000 		.4byte	0x38b
 2924 0385 0E       		.uleb128 0xe
 2925 0386 8B030000 		.4byte	0x38b
 2926 038a 00       		.byte	0
 2927 038b 0B       		.uleb128 0xb
 2928 038c 04       		.byte	0x4
 2929 038d A6040000 		.4byte	0x4a6
 2930 0391 09       		.uleb128 0x9
 2931 0392 4E030000 		.4byte	.LASF57
 2932 0396 44       		.byte	0x44
 2933 0397 07       		.byte	0x7
 2934 0398 49       		.byte	0x49
 2935 0399 A6040000 		.4byte	0x4a6
 2936 039d 0A       		.uleb128 0xa
 2937 039e 76617200 		.ascii	"var\000"
 2938 03a2 07       		.byte	0x7
 2939 03a3 4A       		.byte	0x4a
 2940 03a4 76020000 		.4byte	0x276
 2941 03a8 00       		.byte	0
 2942 03a9 06       		.uleb128 0x6
 2943 03aa 00000000 		.4byte	.LASF58
 2944 03ae 07       		.byte	0x7
 2945 03af 4B       		.byte	0x4b
 2946 03b0 AB040000 		.4byte	0x4ab
 2947 03b4 04       		.byte	0x4
 2948 03b5 06       		.uleb128 0x6
 2949 03b6 8A000000 		.4byte	.LASF59
 2950 03ba 07       		.byte	0x7
 2951 03bb 4C       		.byte	0x4c
 2952 03bc EE040000 		.4byte	0x4ee
 2953 03c0 08       		.byte	0x8
 2954 03c1 06       		.uleb128 0x6
 2955 03c2 5D010000 		.4byte	.LASF60
 2956 03c6 07       		.byte	0x7
 2957 03c7 4D       		.byte	0x4d
 2958 03c8 D2040000 		.4byte	0x4d2
 2959 03cc 0C       		.byte	0xc
 2960 03cd 06       		.uleb128 0x6
 2961 03ce 25140000 		.4byte	.LASF61
 2962 03d2 07       		.byte	0x7
 2963 03d3 4E       		.byte	0x4e
 2964 03d4 19050000 		.4byte	0x519
 2965 03d8 10       		.byte	0x10
 2966 03d9 06       		.uleb128 0x6
 2967 03da 770D0000 		.4byte	.LASF62
 2968 03de 07       		.byte	0x7
 2969 03df 4F       		.byte	0x4f
 2970 03e0 F9040000 		.4byte	0x4f9
 2971 03e4 14       		.byte	0x14
 2972 03e5 06       		.uleb128 0x6
 2973 03e6 E30A0000 		.4byte	.LASF39
 2974 03ea 07       		.byte	0x7
 2975 03eb 51       		.byte	0x51
ARM GAS  C:\Users\haske\AppData\Local\Temp\ccb2zsXg.s 			page 65


 2976 03ec 76020000 		.4byte	0x276
 2977 03f0 18       		.byte	0x18
 2978 03f1 06       		.uleb128 0x6
 2979 03f2 520C0000 		.4byte	.LASF63
 2980 03f6 07       		.byte	0x7
 2981 03f7 53       		.byte	0x53
 2982 03f8 6B030000 		.4byte	0x36b
 2983 03fc 1C       		.byte	0x1c
 2984 03fd 06       		.uleb128 0x6
 2985 03fe 0A040000 		.4byte	.LASF64
 2986 0402 07       		.byte	0x7
 2987 0403 54       		.byte	0x54
 2988 0404 D9000000 		.4byte	0xd9
 2989 0408 20       		.byte	0x20
 2990 0409 06       		.uleb128 0x6
 2991 040a 6E030000 		.4byte	.LASF65
 2992 040e 07       		.byte	0x7
 2993 040f 55       		.byte	0x55
 2994 0410 D9000000 		.4byte	0xd9
 2995 0414 24       		.byte	0x24
 2996 0415 06       		.uleb128 0x6
 2997 0416 270E0000 		.4byte	.LASF66
 2998 041a 07       		.byte	0x7
 2999 041b 56       		.byte	0x56
 3000 041c D9000000 		.4byte	0xd9
 3001 0420 28       		.byte	0x28
 3002 0421 06       		.uleb128 0x6
 3003 0422 12060000 		.4byte	.LASF67
 3004 0426 07       		.byte	0x7
 3005 0427 57       		.byte	0x57
 3006 0428 D9000000 		.4byte	0xd9
 3007 042c 2C       		.byte	0x2c
 3008 042d 06       		.uleb128 0x6
 3009 042e 51110000 		.4byte	.LASF68
 3010 0432 07       		.byte	0x7
 3011 0433 58       		.byte	0x58
 3012 0434 D9000000 		.4byte	0xd9
 3013 0438 30       		.byte	0x30
 3014 0439 06       		.uleb128 0x6
 3015 043a F4100000 		.4byte	.LASF69
 3016 043e 07       		.byte	0x7
 3017 043f 59       		.byte	0x59
 3018 0440 E4000000 		.4byte	0xe4
 3019 0444 34       		.byte	0x34
 3020 0445 06       		.uleb128 0x6
 3021 0446 BC0A0000 		.4byte	.LASF70
 3022 044a 07       		.byte	0x7
 3023 044b 5A       		.byte	0x5a
 3024 044c E4000000 		.4byte	0xe4
 3025 0450 38       		.byte	0x38
 3026 0451 06       		.uleb128 0x6
 3027 0452 D8080000 		.4byte	.LASF71
 3028 0456 07       		.byte	0x7
 3029 0457 5B       		.byte	0x5b
 3030 0458 E4000000 		.4byte	0xe4
 3031 045c 3C       		.byte	0x3c
 3032 045d 06       		.uleb128 0x6
ARM GAS  C:\Users\haske\AppData\Local\Temp\ccb2zsXg.s 			page 66


 3033 045e F5120000 		.4byte	.LASF72
 3034 0462 07       		.byte	0x7
 3035 0463 5C       		.byte	0x5c
 3036 0464 CE000000 		.4byte	0xce
 3037 0468 40       		.byte	0x40
 3038 0469 08       		.uleb128 0x8
 3039 046a 58100000 		.4byte	.LASF73
 3040 046e 07       		.byte	0x7
 3041 046f 5D       		.byte	0x5d
 3042 0470 B8000000 		.4byte	0xb8
 3043 0474 01       		.byte	0x1
 3044 0475 01       		.byte	0x1
 3045 0476 07       		.byte	0x7
 3046 0477 42       		.byte	0x42
 3047 0478 08       		.uleb128 0x8
 3048 0479 1E0F0000 		.4byte	.LASF74
 3049 047d 07       		.byte	0x7
 3050 047e 60       		.byte	0x60
 3051 047f B8000000 		.4byte	0xb8
 3052 0483 01       		.byte	0x1
 3053 0484 01       		.byte	0x1
 3054 0485 06       		.byte	0x6
 3055 0486 42       		.byte	0x42
 3056 0487 08       		.uleb128 0x8
 3057 0488 C9010000 		.4byte	.LASF75
 3058 048c 07       		.byte	0x7
 3059 048d 61       		.byte	0x61
 3060 048e B8000000 		.4byte	0xb8
 3061 0492 01       		.byte	0x1
 3062 0493 01       		.byte	0x1
 3063 0494 05       		.byte	0x5
 3064 0495 42       		.byte	0x42
 3065 0496 08       		.uleb128 0x8
 3066 0497 190C0000 		.4byte	.LASF76
 3067 049b 07       		.byte	0x7
 3068 049c 62       		.byte	0x62
 3069 049d B8000000 		.4byte	0xb8
 3070 04a1 01       		.byte	0x1
 3071 04a2 01       		.byte	0x1
 3072 04a3 04       		.byte	0x4
 3073 04a4 42       		.byte	0x42
 3074 04a5 00       		.byte	0
 3075 04a6 0C       		.uleb128 0xc
 3076 04a7 91030000 		.4byte	0x391
 3077 04ab 02       		.uleb128 0x2
 3078 04ac E9020000 		.4byte	.LASF77
 3079 04b0 07       		.byte	0x7
 3080 04b1 36       		.byte	0x36
 3081 04b2 B6040000 		.4byte	0x4b6
 3082 04b6 0B       		.uleb128 0xb
 3083 04b7 04       		.byte	0x4
 3084 04b8 BC040000 		.4byte	0x4bc
 3085 04bc 14       		.uleb128 0x14
 3086 04bd CC040000 		.4byte	0x4cc
 3087 04c1 0E       		.uleb128 0xe
 3088 04c2 76020000 		.4byte	0x276
 3089 04c6 0E       		.uleb128 0xe
ARM GAS  C:\Users\haske\AppData\Local\Temp\ccb2zsXg.s 			page 67


 3090 04c7 D9000000 		.4byte	0xd9
 3091 04cb 00       		.byte	0
 3092 04cc 0B       		.uleb128 0xb
 3093 04cd 04       		.byte	0x4
 3094 04ce 91030000 		.4byte	0x391
 3095 04d2 02       		.uleb128 0x2
 3096 04d3 60060000 		.4byte	.LASF78
 3097 04d7 07       		.byte	0x7
 3098 04d8 3D       		.byte	0x3d
 3099 04d9 DD040000 		.4byte	0x4dd
 3100 04dd 0B       		.uleb128 0xb
 3101 04de 04       		.byte	0x4
 3102 04df E3040000 		.4byte	0x4e3
 3103 04e3 14       		.uleb128 0x14
 3104 04e4 EE040000 		.4byte	0x4ee
 3105 04e8 0E       		.uleb128 0xe
 3106 04e9 CC040000 		.4byte	0x4cc
 3107 04ed 00       		.byte	0
 3108 04ee 02       		.uleb128 0x2
 3109 04ef 5A0E0000 		.4byte	.LASF79
 3110 04f3 07       		.byte	0x7
 3111 04f4 40       		.byte	0x40
 3112 04f5 DD040000 		.4byte	0x4dd
 3113 04f9 02       		.uleb128 0x2
 3114 04fa 840F0000 		.4byte	.LASF80
 3115 04fe 07       		.byte	0x7
 3116 04ff 43       		.byte	0x43
 3117 0500 04050000 		.4byte	0x504
 3118 0504 0B       		.uleb128 0xb
 3119 0505 04       		.byte	0x4
 3120 0506 0A050000 		.4byte	0x50a
 3121 050a 0D       		.uleb128 0xd
 3122 050b D9000000 		.4byte	0xd9
 3123 050f 19050000 		.4byte	0x519
 3124 0513 0E       		.uleb128 0xe
 3125 0514 CC040000 		.4byte	0x4cc
 3126 0518 00       		.byte	0
 3127 0519 02       		.uleb128 0x2
 3128 051a 3D0C0000 		.4byte	.LASF81
 3129 051e 07       		.byte	0x7
 3130 051f 46       		.byte	0x46
 3131 0520 DD040000 		.4byte	0x4dd
 3132 0524 02       		.uleb128 0x2
 3133 0525 19080000 		.4byte	.LASF82
 3134 0529 07       		.byte	0x7
 3135 052a 63       		.byte	0x63
 3136 052b 91030000 		.4byte	0x391
 3137 052f 02       		.uleb128 0x2
 3138 0530 41090000 		.4byte	.LASF83
 3139 0534 08       		.byte	0x8
 3140 0535 42       		.byte	0x42
 3141 0536 B8000000 		.4byte	0xb8
 3142 053a 02       		.uleb128 0x2
 3143 053b 310E0000 		.4byte	.LASF84
 3144 053f 09       		.byte	0x9
 3145 0540 2A       		.byte	0x2a
 3146 0541 B8000000 		.4byte	0xb8
ARM GAS  C:\Users\haske\AppData\Local\Temp\ccb2zsXg.s 			page 68


 3147 0545 02       		.uleb128 0x2
 3148 0546 FB070000 		.4byte	.LASF85
 3149 054a 0A       		.byte	0xa
 3150 054b 5E       		.byte	0x5e
 3151 054c B8000000 		.4byte	0xb8
 3152 0550 02       		.uleb128 0x2
 3153 0551 B3150000 		.4byte	.LASF86
 3154 0555 0A       		.byte	0xa
 3155 0556 6A       		.byte	0x6a
 3156 0557 B8000000 		.4byte	0xb8
 3157 055b 02       		.uleb128 0x2
 3158 055c ED140000 		.4byte	.LASF87
 3159 0560 0A       		.byte	0xa
 3160 0561 79       		.byte	0x79
 3161 0562 B8000000 		.4byte	0xb8
 3162 0566 02       		.uleb128 0x2
 3163 0567 600C0000 		.4byte	.LASF88
 3164 056b 0A       		.byte	0xa
 3165 056c 84       		.byte	0x84
 3166 056d B8000000 		.4byte	0xb8
 3167 0571 02       		.uleb128 0x2
 3168 0572 CC100000 		.4byte	.LASF89
 3169 0576 0A       		.byte	0xa
 3170 0577 90       		.byte	0x90
 3171 0578 B8000000 		.4byte	0xb8
 3172 057c 05       		.uleb128 0x5
 3173 057d 04       		.byte	0x4
 3174 057e 0A       		.byte	0xa
 3175 057f 95       		.byte	0x95
 3176 0580 9D050000 		.4byte	0x59d
 3177 0584 06       		.uleb128 0x6
 3178 0585 5A060000 		.4byte	.LASF90
 3179 0589 0A       		.byte	0xa
 3180 058a 96       		.byte	0x96
 3181 058b F0020000 		.4byte	0x2f0
 3182 058f 00       		.byte	0
 3183 0590 06       		.uleb128 0x6
 3184 0591 39010000 		.4byte	.LASF91
 3185 0595 0A       		.byte	0xa
 3186 0596 97       		.byte	0x97
 3187 0597 B8000000 		.4byte	0xb8
 3188 059b 02       		.byte	0x2
 3189 059c 00       		.byte	0
 3190 059d 02       		.uleb128 0x2
 3191 059e 9D060000 		.4byte	.LASF92
 3192 05a2 0A       		.byte	0xa
 3193 05a3 98       		.byte	0x98
 3194 05a4 7C050000 		.4byte	0x57c
 3195 05a8 05       		.uleb128 0x5
 3196 05a9 0A       		.byte	0xa
 3197 05aa 0A       		.byte	0xa
 3198 05ab 9B       		.byte	0x9b
 3199 05ac E7050000 		.4byte	0x5e7
 3200 05b0 06       		.uleb128 0x6
 3201 05b1 5A0C0000 		.4byte	.LASF93
 3202 05b5 0A       		.byte	0xa
 3203 05b6 9C       		.byte	0x9c
ARM GAS  C:\Users\haske\AppData\Local\Temp\ccb2zsXg.s 			page 69


 3204 05b7 E7050000 		.4byte	0x5e7
 3205 05bb 00       		.byte	0
 3206 05bc 06       		.uleb128 0x6
 3207 05bd 59120000 		.4byte	.LASF94
 3208 05c1 0A       		.byte	0xa
 3209 05c2 9D       		.byte	0x9d
 3210 05c3 B8000000 		.4byte	0xb8
 3211 05c7 08       		.byte	0x8
 3212 05c8 07       		.uleb128 0x7
 3213 05c9 64697200 		.ascii	"dir\000"
 3214 05cd 0A       		.byte	0xa
 3215 05ce 9E       		.byte	0x9e
 3216 05cf 66050000 		.4byte	0x566
 3217 05d3 01       		.byte	0x1
 3218 05d4 03       		.byte	0x3
 3219 05d5 05       		.byte	0x5
 3220 05d6 09       		.byte	0x9
 3221 05d7 08       		.uleb128 0x8
 3222 05d8 BB080000 		.4byte	.LASF95
 3223 05dc 0A       		.byte	0xa
 3224 05dd A0       		.byte	0xa0
 3225 05de 71050000 		.4byte	0x571
 3226 05e2 01       		.byte	0x1
 3227 05e3 03       		.byte	0x3
 3228 05e4 02       		.byte	0x2
 3229 05e5 09       		.byte	0x9
 3230 05e6 00       		.byte	0
 3231 05e7 15       		.uleb128 0x15
 3232 05e8 9D050000 		.4byte	0x59d
 3233 05ec F7050000 		.4byte	0x5f7
 3234 05f0 16       		.uleb128 0x16
 3235 05f1 83020000 		.4byte	0x283
 3236 05f5 01       		.byte	0x1
 3237 05f6 00       		.byte	0
 3238 05f7 02       		.uleb128 0x2
 3239 05f8 0B080000 		.4byte	.LASF96
 3240 05fc 0A       		.byte	0xa
 3241 05fd A2       		.byte	0xa2
 3242 05fe A8050000 		.4byte	0x5a8
 3243 0602 11       		.uleb128 0x11
 3244 0603 04       		.byte	0x4
 3245 0604 0A       		.byte	0xa
 3246 0605 A7       		.byte	0xa7
 3247 0606 2C060000 		.4byte	0x62c
 3248 060a 12       		.uleb128 0x12
 3249 060b 6E756D00 		.ascii	"num\000"
 3250 060f 0A       		.byte	0xa
 3251 0610 A8       		.byte	0xa8
 3252 0611 D9000000 		.4byte	0xd9
 3253 0615 12       		.uleb128 0x12
 3254 0616 70747200 		.ascii	"ptr\000"
 3255 061a 0A       		.byte	0xa
 3256 061b A9       		.byte	0xa9
 3257 061c 6F020000 		.4byte	0x26f
 3258 0620 13       		.uleb128 0x13
 3259 0621 5A060000 		.4byte	.LASF90
 3260 0625 0A       		.byte	0xa
ARM GAS  C:\Users\haske\AppData\Local\Temp\ccb2zsXg.s 			page 70


 3261 0626 AA       		.byte	0xaa
 3262 0627 F0020000 		.4byte	0x2f0
 3263 062b 00       		.byte	0
 3264 062c 02       		.uleb128 0x2
 3265 062d 880C0000 		.4byte	.LASF97
 3266 0631 0A       		.byte	0xa
 3267 0632 AB       		.byte	0xab
 3268 0633 02060000 		.4byte	0x602
 3269 0637 17       		.uleb128 0x17
 3270 0638 02       		.byte	0x2
 3271 0639 66000000 		.4byte	0x66
 3272 063d 0A       		.byte	0xa
 3273 063e B2       		.byte	0xb2
 3274 063f 5C080000 		.4byte	0x85c
 3275 0643 18       		.uleb128 0x18
 3276 0644 0D000000 		.4byte	.LASF98
 3277 0648 00       		.byte	0
 3278 0649 18       		.uleb128 0x18
 3279 064a 03140000 		.4byte	.LASF99
 3280 064e 01       		.byte	0x1
 3281 064f 18       		.uleb128 0x18
 3282 0650 73130000 		.4byte	.LASF100
 3283 0654 02       		.byte	0x2
 3284 0655 18       		.uleb128 0x18
 3285 0656 F10B0000 		.4byte	.LASF101
 3286 065a 03       		.byte	0x3
 3287 065b 18       		.uleb128 0x18
 3288 065c 67000000 		.4byte	.LASF102
 3289 0660 04       		.byte	0x4
 3290 0661 18       		.uleb128 0x18
 3291 0662 37110000 		.4byte	.LASF103
 3292 0666 05       		.byte	0x5
 3293 0667 18       		.uleb128 0x18
 3294 0668 4B020000 		.4byte	.LASF104
 3295 066c 06       		.byte	0x6
 3296 066d 18       		.uleb128 0x18
 3297 066e 0A0F0000 		.4byte	.LASF105
 3298 0672 07       		.byte	0x7
 3299 0673 18       		.uleb128 0x18
 3300 0674 7C030000 		.4byte	.LASF106
 3301 0678 08       		.byte	0x8
 3302 0679 18       		.uleb128 0x18
 3303 067a F3090000 		.4byte	.LASF107
 3304 067e 09       		.byte	0x9
 3305 067f 18       		.uleb128 0x18
 3306 0680 B0020000 		.4byte	.LASF108
 3307 0684 0A       		.byte	0xa
 3308 0685 18       		.uleb128 0x18
 3309 0686 FA0E0000 		.4byte	.LASF109
 3310 068a 0B       		.byte	0xb
 3311 068b 18       		.uleb128 0x18
 3312 068c 17060000 		.4byte	.LASF110
 3313 0690 10       		.byte	0x10
 3314 0691 18       		.uleb128 0x18
 3315 0692 11030000 		.4byte	.LASF111
 3316 0696 11       		.byte	0x11
 3317 0697 18       		.uleb128 0x18
ARM GAS  C:\Users\haske\AppData\Local\Temp\ccb2zsXg.s 			page 71


 3318 0698 D50B0000 		.4byte	.LASF112
 3319 069c 12       		.byte	0x12
 3320 069d 18       		.uleb128 0x18
 3321 069e A90A0000 		.4byte	.LASF113
 3322 06a2 13       		.byte	0x13
 3323 06a3 18       		.uleb128 0x18
 3324 06a4 470B0000 		.4byte	.LASF114
 3325 06a8 14       		.byte	0x14
 3326 06a9 18       		.uleb128 0x18
 3327 06aa 9F0E0000 		.4byte	.LASF115
 3328 06ae 15       		.byte	0x15
 3329 06af 18       		.uleb128 0x18
 3330 06b0 D8070000 		.4byte	.LASF116
 3331 06b4 16       		.byte	0x16
 3332 06b5 18       		.uleb128 0x18
 3333 06b6 44130000 		.4byte	.LASF117
 3334 06ba 17       		.byte	0x17
 3335 06bb 18       		.uleb128 0x18
 3336 06bc F8000000 		.4byte	.LASF118
 3337 06c0 20       		.byte	0x20
 3338 06c1 18       		.uleb128 0x18
 3339 06c2 1B150000 		.4byte	.LASF119
 3340 06c6 21       		.byte	0x21
 3341 06c7 18       		.uleb128 0x18
 3342 06c8 74080000 		.4byte	.LASF120
 3343 06cc 22       		.byte	0x22
 3344 06cd 18       		.uleb128 0x18
 3345 06ce 25030000 		.4byte	.LASF121
 3346 06d2 23       		.byte	0x23
 3347 06d3 18       		.uleb128 0x18
 3348 06d4 A5080000 		.4byte	.LASF122
 3349 06d8 24       		.byte	0x24
 3350 06d9 18       		.uleb128 0x18
 3351 06da 85050000 		.4byte	.LASF123
 3352 06de 25       		.byte	0x25
 3353 06df 18       		.uleb128 0x18
 3354 06e0 440A0000 		.4byte	.LASF124
 3355 06e4 26       		.byte	0x26
 3356 06e5 18       		.uleb128 0x18
 3357 06e6 39070000 		.4byte	.LASF125
 3358 06ea 27       		.byte	0x27
 3359 06eb 18       		.uleb128 0x18
 3360 06ec 47140000 		.4byte	.LASF126
 3361 06f0 28       		.byte	0x28
 3362 06f1 18       		.uleb128 0x18
 3363 06f2 DC040000 		.4byte	.LASF127
 3364 06f6 29       		.byte	0x29
 3365 06f7 18       		.uleb128 0x18
 3366 06f8 28120000 		.4byte	.LASF128
 3367 06fc 2A       		.byte	0x2a
 3368 06fd 18       		.uleb128 0x18
 3369 06fe 86130000 		.4byte	.LASF129
 3370 0702 2B       		.byte	0x2b
 3371 0703 18       		.uleb128 0x18
 3372 0704 91140000 		.4byte	.LASF130
 3373 0708 2C       		.byte	0x2c
 3374 0709 18       		.uleb128 0x18
ARM GAS  C:\Users\haske\AppData\Local\Temp\ccb2zsXg.s 			page 72


 3375 070a 5E080000 		.4byte	.LASF131
 3376 070e 30       		.byte	0x30
 3377 070f 18       		.uleb128 0x18
 3378 0710 46060000 		.4byte	.LASF132
 3379 0714 31       		.byte	0x31
 3380 0715 18       		.uleb128 0x18
 3381 0716 23010000 		.4byte	.LASF133
 3382 071a 32       		.byte	0x32
 3383 071b 18       		.uleb128 0x18
 3384 071c 040C0000 		.4byte	.LASF134
 3385 0720 33       		.byte	0x33
 3386 0721 18       		.uleb128 0x18
 3387 0722 87030000 		.4byte	.LASF135
 3388 0726 34       		.byte	0x34
 3389 0727 18       		.uleb128 0x18
 3390 0728 5F020000 		.4byte	.LASF136
 3391 072c 35       		.byte	0x35
 3392 072d 18       		.uleb128 0x18
 3393 072e A7140000 		.4byte	.LASF137
 3394 0732 36       		.byte	0x36
 3395 0733 18       		.uleb128 0x18
 3396 0734 59030000 		.4byte	.LASF138
 3397 0738 37       		.byte	0x37
 3398 0739 18       		.uleb128 0x18
 3399 073a F60C0000 		.4byte	.LASF139
 3400 073e 38       		.byte	0x38
 3401 073f 18       		.uleb128 0x18
 3402 0740 1F0D0000 		.4byte	.LASF140
 3403 0744 40       		.byte	0x40
 3404 0745 18       		.uleb128 0x18
 3405 0746 57070000 		.4byte	.LASF141
 3406 074a 41       		.byte	0x41
 3407 074b 18       		.uleb128 0x18
 3408 074c 6D070000 		.4byte	.LASF142
 3409 0750 42       		.byte	0x42
 3410 0751 18       		.uleb128 0x18
 3411 0752 30140000 		.4byte	.LASF143
 3412 0756 43       		.byte	0x43
 3413 0757 18       		.uleb128 0x18
 3414 0758 2E130000 		.4byte	.LASF144
 3415 075c 44       		.byte	0x44
 3416 075d 18       		.uleb128 0x18
 3417 075e 2D090000 		.4byte	.LASF145
 3418 0762 45       		.byte	0x45
 3419 0763 18       		.uleb128 0x18
 3420 0764 00100000 		.4byte	.LASF146
 3421 0768 46       		.byte	0x46
 3422 0769 18       		.uleb128 0x18
 3423 076a A9050000 		.4byte	.LASF147
 3424 076e 47       		.byte	0x47
 3425 076f 18       		.uleb128 0x18
 3426 0770 B0030000 		.4byte	.LASF148
 3427 0774 48       		.byte	0x48
 3428 0775 18       		.uleb128 0x18
 3429 0776 71050000 		.4byte	.LASF149
 3430 077a 49       		.byte	0x49
 3431 077b 18       		.uleb128 0x18
ARM GAS  C:\Users\haske\AppData\Local\Temp\ccb2zsXg.s 			page 73


 3432 077c CA0A0000 		.4byte	.LASF150
 3433 0780 4A       		.byte	0x4a
 3434 0781 18       		.uleb128 0x18
 3435 0782 64100000 		.4byte	.LASF151
 3436 0786 4B       		.byte	0x4b
 3437 0787 18       		.uleb128 0x18
 3438 0788 BE050000 		.4byte	.LASF152
 3439 078c 4C       		.byte	0x4c
 3440 078d 18       		.uleb128 0x18
 3441 078e 290C0000 		.4byte	.LASF153
 3442 0792 4D       		.byte	0x4d
 3443 0793 18       		.uleb128 0x18
 3444 0794 22050000 		.4byte	.LASF154
 3445 0798 4E       		.byte	0x4e
 3446 0799 18       		.uleb128 0x18
 3447 079a A00D0000 		.4byte	.LASF155
 3448 079e 50       		.byte	0x50
 3449 079f 18       		.uleb128 0x18
 3450 07a0 A9000000 		.4byte	.LASF156
 3451 07a4 51       		.byte	0x51
 3452 07a5 18       		.uleb128 0x18
 3453 07a6 77000000 		.4byte	.LASF157
 3454 07aa 52       		.byte	0x52
 3455 07ab 18       		.uleb128 0x18
 3456 07ac EA070000 		.4byte	.LASF158
 3457 07b0 53       		.byte	0x53
 3458 07b1 18       		.uleb128 0x18
 3459 07b2 88060000 		.4byte	.LASF159
 3460 07b6 54       		.byte	0x54
 3461 07b7 18       		.uleb128 0x18
 3462 07b8 B0060000 		.4byte	.LASF160
 3463 07bc 55       		.byte	0x55
 3464 07bd 18       		.uleb128 0x18
 3465 07be 11100000 		.4byte	.LASF161
 3466 07c2 56       		.byte	0x56
 3467 07c3 18       		.uleb128 0x18
 3468 07c4 85110000 		.4byte	.LASF162
 3469 07c8 57       		.byte	0x57
 3470 07c9 18       		.uleb128 0x18
 3471 07ca 90100000 		.4byte	.LASF163
 3472 07ce 58       		.byte	0x58
 3473 07cf 18       		.uleb128 0x18
 3474 07d0 05020000 		.4byte	.LASF164
 3475 07d4 59       		.byte	0x59
 3476 07d5 18       		.uleb128 0x18
 3477 07d6 C50D0000 		.4byte	.LASF165
 3478 07da 5A       		.byte	0x5a
 3479 07db 18       		.uleb128 0x18
 3480 07dc 990C0000 		.4byte	.LASF166
 3481 07e0 5B       		.byte	0x5b
 3482 07e1 18       		.uleb128 0x18
 3483 07e2 5B140000 		.4byte	.LASF167
 3484 07e6 60       		.byte	0x60
 3485 07e7 18       		.uleb128 0x18
 3486 07e8 8F0A0000 		.4byte	.LASF168
 3487 07ec 61       		.byte	0x61
 3488 07ed 18       		.uleb128 0x18
ARM GAS  C:\Users\haske\AppData\Local\Temp\ccb2zsXg.s 			page 74


 3489 07ee 8B080000 		.4byte	.LASF169
 3490 07f2 62       		.byte	0x62
 3491 07f3 18       		.uleb128 0x18
 3492 07f4 C0020000 		.4byte	.LASF170
 3493 07f8 63       		.byte	0x63
 3494 07f9 18       		.uleb128 0x18
 3495 07fa 8D0D0000 		.4byte	.LASF171
 3496 07fe 64       		.byte	0x64
 3497 07ff 18       		.uleb128 0x18
 3498 0800 6E0C0000 		.4byte	.LASF172
 3499 0804 65       		.byte	0x65
 3500 0805 18       		.uleb128 0x18
 3501 0806 630D0000 		.4byte	.LASF173
 3502 080a 66       		.byte	0x66
 3503 080b 18       		.uleb128 0x18
 3504 080c 49150000 		.4byte	.LASF174
 3505 0810 67       		.byte	0x67
 3506 0811 18       		.uleb128 0x18
 3507 0812 AD0C0000 		.4byte	.LASF175
 3508 0816 68       		.byte	0x68
 3509 0817 18       		.uleb128 0x18
 3510 0818 59130000 		.4byte	.LASF176
 3511 081c 69       		.byte	0x69
 3512 081d 18       		.uleb128 0x18
 3513 081e DF060000 		.4byte	.LASF177
 3514 0822 6A       		.byte	0x6a
 3515 0823 18       		.uleb128 0x18
 3516 0824 F4060000 		.4byte	.LASF178
 3517 0828 6B       		.byte	0x6b
 3518 0829 18       		.uleb128 0x18
 3519 082a 9C0B0000 		.4byte	.LASF179
 3520 082e 6C       		.byte	0x6c
 3521 082f 18       		.uleb128 0x18
 3522 0830 6C110000 		.4byte	.LASF180
 3523 0834 6D       		.byte	0x6d
 3524 0835 18       		.uleb128 0x18
 3525 0836 C3110000 		.4byte	.LASF181
 3526 083a 6E       		.byte	0x6e
 3527 083b 18       		.uleb128 0x18
 3528 083c DE110000 		.4byte	.LASF182
 3529 0840 6F       		.byte	0x6f
 3530 0841 18       		.uleb128 0x18
 3531 0842 93020000 		.4byte	.LASF183
 3532 0846 6F       		.byte	0x6f
 3533 0847 18       		.uleb128 0x18
 3534 0848 76020000 		.4byte	.LASF184
 3535 084c 70       		.byte	0x70
 3536 084d 19       		.uleb128 0x19
 3537 084e 7F120000 		.4byte	.LASF185
 3538 0852 FFFF     		.2byte	0xffff
 3539 0854 19       		.uleb128 0x19
 3540 0855 34050000 		.4byte	.LASF186
 3541 0859 FFFF     		.2byte	0xffff
 3542 085b 00       		.byte	0
 3543 085c 1A       		.uleb128 0x1a
 3544 085d DD140000 		.4byte	.LASF187
 3545 0861 0A       		.byte	0xa
ARM GAS  C:\Users\haske\AppData\Local\Temp\ccb2zsXg.s 			page 75


 3546 0862 1C01     		.2byte	0x11c
 3547 0864 37060000 		.4byte	0x637
 3548 0868 1B       		.uleb128 0x1b
 3549 0869 14       		.byte	0x14
 3550 086a 0A       		.byte	0xa
 3551 086b 2901     		.2byte	0x129
 3552 086d B3080000 		.4byte	0x8b3
 3553 0871 1C       		.uleb128 0x1c
 3554 0872 820C0000 		.4byte	.LASF188
 3555 0876 0A       		.byte	0xa
 3556 0877 2A01     		.2byte	0x12a
 3557 0879 B3080000 		.4byte	0x8b3
 3558 087d 00       		.byte	0
 3559 087e 1C       		.uleb128 0x1c
 3560 087f E30A0000 		.4byte	.LASF39
 3561 0883 0A       		.byte	0xa
 3562 0884 2C01     		.2byte	0x12c
 3563 0886 76020000 		.4byte	0x276
 3564 088a 04       		.byte	0x4
 3565 088b 1C       		.uleb128 0x1c
 3566 088c 2E040000 		.4byte	.LASF189
 3567 0890 0A       		.byte	0xa
 3568 0891 2E01     		.2byte	0x12e
 3569 0893 6B030000 		.4byte	0x36b
 3570 0897 08       		.byte	0x8
 3571 0898 1C       		.uleb128 0x1c
 3572 0899 12060000 		.4byte	.LASF67
 3573 089d 0A       		.byte	0xa
 3574 089e 2F01     		.2byte	0x12f
 3575 08a0 E4000000 		.4byte	0xe4
 3576 08a4 0C       		.byte	0xc
 3577 08a5 1C       		.uleb128 0x1c
 3578 08a6 7E0F0000 		.4byte	.LASF190
 3579 08aa 0A       		.byte	0xa
 3580 08ab 3001     		.2byte	0x130
 3581 08ad E4000000 		.4byte	0xe4
 3582 08b1 10       		.byte	0x10
 3583 08b2 00       		.byte	0
 3584 08b3 0B       		.uleb128 0xb
 3585 08b4 04       		.byte	0x4
 3586 08b5 B9080000 		.4byte	0x8b9
 3587 08b9 0C       		.uleb128 0xc
 3588 08ba 5C080000 		.4byte	0x85c
 3589 08be 1A       		.uleb128 0x1a
 3590 08bf B40B0000 		.4byte	.LASF191
 3591 08c3 0A       		.byte	0xa
 3592 08c4 3101     		.2byte	0x131
 3593 08c6 68080000 		.4byte	0x868
 3594 08ca 1B       		.uleb128 0x1b
 3595 08cb 08       		.byte	0x8
 3596 08cc 0A       		.byte	0xa
 3597 08cd 3601     		.2byte	0x136
 3598 08cf EE080000 		.4byte	0x8ee
 3599 08d3 1C       		.uleb128 0x1c
 3600 08d4 E5080000 		.4byte	.LASF192
 3601 08d8 0A       		.byte	0xa
 3602 08d9 3701     		.2byte	0x137
ARM GAS  C:\Users\haske\AppData\Local\Temp\ccb2zsXg.s 			page 76


 3603 08db 5C080000 		.4byte	0x85c
 3604 08df 00       		.byte	0
 3605 08e0 1C       		.uleb128 0x1c
 3606 08e1 28060000 		.4byte	.LASF193
 3607 08e5 0A       		.byte	0xa
 3608 08e6 3801     		.2byte	0x138
 3609 08e8 2C060000 		.4byte	0x62c
 3610 08ec 04       		.byte	0x4
 3611 08ed 00       		.byte	0
 3612 08ee 1A       		.uleb128 0x1a
 3613 08ef 23100000 		.4byte	.LASF194
 3614 08f3 0A       		.byte	0xa
 3615 08f4 3901     		.2byte	0x139
 3616 08f6 CA080000 		.4byte	0x8ca
 3617 08fa 1D       		.uleb128 0x1d
 3618 08fb 04       		.byte	0x4
 3619 08fc 0A       		.byte	0xa
 3620 08fd 4601     		.2byte	0x146
 3621 08ff 28090000 		.4byte	0x928
 3622 0903 1E       		.uleb128 0x1e
 3623 0904 CE0B0000 		.4byte	.LASF195
 3624 0908 0A       		.byte	0xa
 3625 0909 4701     		.2byte	0x147
 3626 090b 2C060000 		.4byte	0x62c
 3627 090f 1E       		.uleb128 0x1e
 3628 0910 AF0F0000 		.4byte	.LASF196
 3629 0914 0A       		.byte	0xa
 3630 0915 4801     		.2byte	0x148
 3631 0917 28090000 		.4byte	0x928
 3632 091b 1E       		.uleb128 0x1e
 3633 091c F40F0000 		.4byte	.LASF197
 3634 0920 0A       		.byte	0xa
 3635 0921 4901     		.2byte	0x149
 3636 0923 2E090000 		.4byte	0x92e
 3637 0927 00       		.byte	0
 3638 0928 0B       		.uleb128 0xb
 3639 0929 04       		.byte	0x4
 3640 092a B8000000 		.4byte	0xb8
 3641 092e 0B       		.uleb128 0xb
 3642 092f 04       		.byte	0x4
 3643 0930 34090000 		.4byte	0x934
 3644 0934 0C       		.uleb128 0xc
 3645 0935 EE080000 		.4byte	0x8ee
 3646 0939 1B       		.uleb128 0x1b
 3647 093a 08       		.byte	0x8
 3648 093b 0A       		.byte	0xa
 3649 093c 3E01     		.2byte	0x13e
 3650 093e 77090000 		.4byte	0x977
 3651 0942 1F       		.uleb128 0x1f
 3652 0943 765F7000 		.ascii	"v_p\000"
 3653 0947 0A       		.byte	0xa
 3654 0948 4A01     		.2byte	0x14a
 3655 094a FA080000 		.4byte	0x8fa
 3656 094e 00       		.byte	0
 3657 094f 1C       		.uleb128 0x1c
 3658 0950 5B090000 		.4byte	.LASF198
 3659 0954 0A       		.byte	0xa
ARM GAS  C:\Users\haske\AppData\Local\Temp\ccb2zsXg.s 			page 77


 3660 0955 4C01     		.2byte	0x14c
 3661 0957 CE000000 		.4byte	0xce
 3662 095b 04       		.byte	0x4
 3663 095c 1C       		.uleb128 0x1c
 3664 095d 51090000 		.4byte	.LASF199
 3665 0961 0A       		.byte	0xa
 3666 0962 4D01     		.2byte	0x14d
 3667 0964 B8000000 		.4byte	0xb8
 3668 0968 06       		.byte	0x6
 3669 0969 1C       		.uleb128 0x1c
 3670 096a 51050000 		.4byte	.LASF200
 3671 096e 0A       		.byte	0xa
 3672 096f 4E01     		.2byte	0x14e
 3673 0971 B8000000 		.4byte	0xb8
 3674 0975 07       		.byte	0x7
 3675 0976 00       		.byte	0
 3676 0977 1A       		.uleb128 0x1a
 3677 0978 5D150000 		.4byte	.LASF201
 3678 097c 0A       		.byte	0xa
 3679 097d 4F01     		.2byte	0x14f
 3680 097f 39090000 		.4byte	0x939
 3681 0983 20       		.uleb128 0x20
 3682 0984 D7000000 		.4byte	.LASF203
 3683 0988 01       		.byte	0x1
 3684 0989 03       		.byte	0x3
 3685 098a 00000000 		.4byte	.LFB54
 3686 098e 0C000000 		.4byte	.LFE54-.LFB54
 3687 0992 01       		.uleb128 0x1
 3688 0993 9C       		.byte	0x9c
 3689 0994 D6090000 		.4byte	0x9d6
 3690 0998 21       		.uleb128 0x21
 3691 0999 D9120000 		.4byte	.LASF202
 3692 099d 01       		.byte	0x1
 3693 099e 03       		.byte	0x3
 3694 099f D6090000 		.4byte	0x9d6
 3695 09a3 00000000 		.4byte	.LLST0
 3696 09a7 21       		.uleb128 0x21
 3697 09a8 28060000 		.4byte	.LASF193
 3698 09ac 01       		.byte	0x1
 3699 09ad 03       		.byte	0x3
 3700 09ae F6000000 		.4byte	0xf6
 3701 09b2 21000000 		.4byte	.LLST1
 3702 09b6 22       		.uleb128 0x22
 3703 09b7 7600     		.ascii	"v\000"
 3704 09b9 01       		.byte	0x1
 3705 09ba 05       		.byte	0x5
 3706 09bb 2C060000 		.4byte	0x62c
 3707 09bf 23       		.uleb128 0x23
 3708 09c0 0A000000 		.4byte	.LVL2
 3709 09c4 57260000 		.4byte	0x2657
 3710 09c8 24       		.uleb128 0x24
 3711 09c9 01       		.uleb128 0x1
 3712 09ca 50       		.byte	0x50
 3713 09cb 03       		.uleb128 0x3
 3714 09cc F3       		.byte	0xf3
 3715 09cd 01       		.uleb128 0x1
 3716 09ce 50       		.byte	0x50
ARM GAS  C:\Users\haske\AppData\Local\Temp\ccb2zsXg.s 			page 78


 3717 09cf 24       		.uleb128 0x24
 3718 09d0 01       		.uleb128 0x1
 3719 09d1 51       		.byte	0x51
 3720 09d2 01       		.uleb128 0x1
 3721 09d3 31       		.byte	0x31
 3722 09d4 00       		.byte	0
 3723 09d5 00       		.byte	0
 3724 09d6 0B       		.uleb128 0xb
 3725 09d7 04       		.byte	0x4
 3726 09d8 77090000 		.4byte	0x977
 3727 09dc 20       		.uleb128 0x20
 3728 09dd 34020000 		.4byte	.LASF204
 3729 09e1 01       		.byte	0x1
 3730 09e2 0B       		.byte	0xb
 3731 09e3 00000000 		.4byte	.LFB55
 3732 09e7 0C000000 		.4byte	.LFE55-.LFB55
 3733 09eb 01       		.uleb128 0x1
 3734 09ec 9C       		.byte	0x9c
 3735 09ed 2F0A0000 		.4byte	0xa2f
 3736 09f1 21       		.uleb128 0x21
 3737 09f2 D9120000 		.4byte	.LASF202
 3738 09f6 01       		.byte	0x1
 3739 09f7 0B       		.byte	0xb
 3740 09f8 D6090000 		.4byte	0x9d6
 3741 09fc 42000000 		.4byte	.LLST2
 3742 0a00 21       		.uleb128 0x21
 3743 0a01 28060000 		.4byte	.LASF193
 3744 0a05 01       		.byte	0x1
 3745 0a06 0B       		.byte	0xb
 3746 0a07 F6000000 		.4byte	0xf6
 3747 0a0b 63000000 		.4byte	.LLST3
 3748 0a0f 22       		.uleb128 0x22
 3749 0a10 7600     		.ascii	"v\000"
 3750 0a12 01       		.byte	0x1
 3751 0a13 0D       		.byte	0xd
 3752 0a14 2C060000 		.4byte	0x62c
 3753 0a18 23       		.uleb128 0x23
 3754 0a19 0A000000 		.4byte	.LVL5
 3755 0a1d 57260000 		.4byte	0x2657
 3756 0a21 24       		.uleb128 0x24
 3757 0a22 01       		.uleb128 0x1
 3758 0a23 50       		.byte	0x50
 3759 0a24 03       		.uleb128 0x3
 3760 0a25 F3       		.byte	0xf3
 3761 0a26 01       		.uleb128 0x1
 3762 0a27 50       		.byte	0x50
 3763 0a28 24       		.uleb128 0x24
 3764 0a29 01       		.uleb128 0x1
 3765 0a2a 51       		.byte	0x51
 3766 0a2b 01       		.uleb128 0x1
 3767 0a2c 32       		.byte	0x32
 3768 0a2d 00       		.byte	0
 3769 0a2e 00       		.byte	0
 3770 0a2f 20       		.uleb128 0x20
 3771 0a30 DD100000 		.4byte	.LASF205
 3772 0a34 01       		.byte	0x1
 3773 0a35 13       		.byte	0x13
ARM GAS  C:\Users\haske\AppData\Local\Temp\ccb2zsXg.s 			page 79


 3774 0a36 00000000 		.4byte	.LFB56
 3775 0a3a 0C000000 		.4byte	.LFE56-.LFB56
 3776 0a3e 01       		.uleb128 0x1
 3777 0a3f 9C       		.byte	0x9c
 3778 0a40 820A0000 		.4byte	0xa82
 3779 0a44 21       		.uleb128 0x21
 3780 0a45 D9120000 		.4byte	.LASF202
 3781 0a49 01       		.byte	0x1
 3782 0a4a 13       		.byte	0x13
 3783 0a4b D6090000 		.4byte	0x9d6
 3784 0a4f 84000000 		.4byte	.LLST4
 3785 0a53 21       		.uleb128 0x21
 3786 0a54 28060000 		.4byte	.LASF193
 3787 0a58 01       		.byte	0x1
 3788 0a59 13       		.byte	0x13
 3789 0a5a F6000000 		.4byte	0xf6
 3790 0a5e A5000000 		.4byte	.LLST5
 3791 0a62 22       		.uleb128 0x22
 3792 0a63 7600     		.ascii	"v\000"
 3793 0a65 01       		.byte	0x1
 3794 0a66 15       		.byte	0x15
 3795 0a67 2C060000 		.4byte	0x62c
 3796 0a6b 23       		.uleb128 0x23
 3797 0a6c 0A000000 		.4byte	.LVL8
 3798 0a70 57260000 		.4byte	0x2657
 3799 0a74 24       		.uleb128 0x24
 3800 0a75 01       		.uleb128 0x1
 3801 0a76 50       		.byte	0x50
 3802 0a77 03       		.uleb128 0x3
 3803 0a78 F3       		.byte	0xf3
 3804 0a79 01       		.uleb128 0x1
 3805 0a7a 50       		.byte	0x50
 3806 0a7b 24       		.uleb128 0x24
 3807 0a7c 01       		.uleb128 0x1
 3808 0a7d 51       		.byte	0x51
 3809 0a7e 01       		.uleb128 0x1
 3810 0a7f 33       		.byte	0x33
 3811 0a80 00       		.byte	0
 3812 0a81 00       		.byte	0
 3813 0a82 20       		.uleb128 0x20
 3814 0a83 0B0D0000 		.4byte	.LASF206
 3815 0a87 01       		.byte	0x1
 3816 0a88 1B       		.byte	0x1b
 3817 0a89 00000000 		.4byte	.LFB57
 3818 0a8d 0C000000 		.4byte	.LFE57-.LFB57
 3819 0a91 01       		.uleb128 0x1
 3820 0a92 9C       		.byte	0x9c
 3821 0a93 D50A0000 		.4byte	0xad5
 3822 0a97 21       		.uleb128 0x21
 3823 0a98 D9120000 		.4byte	.LASF202
 3824 0a9c 01       		.byte	0x1
 3825 0a9d 1B       		.byte	0x1b
 3826 0a9e D6090000 		.4byte	0x9d6
 3827 0aa2 C6000000 		.4byte	.LLST6
 3828 0aa6 21       		.uleb128 0x21
 3829 0aa7 28060000 		.4byte	.LASF193
 3830 0aab 01       		.byte	0x1
ARM GAS  C:\Users\haske\AppData\Local\Temp\ccb2zsXg.s 			page 80


 3831 0aac 1B       		.byte	0x1b
 3832 0aad F6000000 		.4byte	0xf6
 3833 0ab1 E7000000 		.4byte	.LLST7
 3834 0ab5 22       		.uleb128 0x22
 3835 0ab6 7600     		.ascii	"v\000"
 3836 0ab8 01       		.byte	0x1
 3837 0ab9 1D       		.byte	0x1d
 3838 0aba 2C060000 		.4byte	0x62c
 3839 0abe 23       		.uleb128 0x23
 3840 0abf 0A000000 		.4byte	.LVL11
 3841 0ac3 57260000 		.4byte	0x2657
 3842 0ac7 24       		.uleb128 0x24
 3843 0ac8 01       		.uleb128 0x1
 3844 0ac9 50       		.byte	0x50
 3845 0aca 03       		.uleb128 0x3
 3846 0acb F3       		.byte	0xf3
 3847 0acc 01       		.uleb128 0x1
 3848 0acd 50       		.byte	0x50
 3849 0ace 24       		.uleb128 0x24
 3850 0acf 01       		.uleb128 0x1
 3851 0ad0 51       		.byte	0x51
 3852 0ad1 01       		.uleb128 0x1
 3853 0ad2 34       		.byte	0x34
 3854 0ad3 00       		.byte	0
 3855 0ad4 00       		.byte	0
 3856 0ad5 20       		.uleb128 0x20
 3857 0ad6 21070000 		.4byte	.LASF207
 3858 0ada 01       		.byte	0x1
 3859 0adb 23       		.byte	0x23
 3860 0adc 00000000 		.4byte	.LFB58
 3861 0ae0 0C000000 		.4byte	.LFE58-.LFB58
 3862 0ae4 01       		.uleb128 0x1
 3863 0ae5 9C       		.byte	0x9c
 3864 0ae6 280B0000 		.4byte	0xb28
 3865 0aea 21       		.uleb128 0x21
 3866 0aeb D9120000 		.4byte	.LASF202
 3867 0aef 01       		.byte	0x1
 3868 0af0 23       		.byte	0x23
 3869 0af1 D6090000 		.4byte	0x9d6
 3870 0af5 08010000 		.4byte	.LLST8
 3871 0af9 21       		.uleb128 0x21
 3872 0afa 28060000 		.4byte	.LASF193
 3873 0afe 01       		.byte	0x1
 3874 0aff 23       		.byte	0x23
 3875 0b00 F6000000 		.4byte	0xf6
 3876 0b04 29010000 		.4byte	.LLST9
 3877 0b08 22       		.uleb128 0x22
 3878 0b09 7600     		.ascii	"v\000"
 3879 0b0b 01       		.byte	0x1
 3880 0b0c 25       		.byte	0x25
 3881 0b0d 2C060000 		.4byte	0x62c
 3882 0b11 23       		.uleb128 0x23
 3883 0b12 0A000000 		.4byte	.LVL14
 3884 0b16 57260000 		.4byte	0x2657
 3885 0b1a 24       		.uleb128 0x24
 3886 0b1b 01       		.uleb128 0x1
 3887 0b1c 50       		.byte	0x50
ARM GAS  C:\Users\haske\AppData\Local\Temp\ccb2zsXg.s 			page 81


 3888 0b1d 03       		.uleb128 0x3
 3889 0b1e F3       		.byte	0xf3
 3890 0b1f 01       		.uleb128 0x1
 3891 0b20 50       		.byte	0x50
 3892 0b21 24       		.uleb128 0x24
 3893 0b22 01       		.uleb128 0x1
 3894 0b23 51       		.byte	0x51
 3895 0b24 01       		.uleb128 0x1
 3896 0b25 35       		.byte	0x35
 3897 0b26 00       		.byte	0
 3898 0b27 00       		.byte	0
 3899 0b28 20       		.uleb128 0x20
 3900 0b29 660F0000 		.4byte	.LASF208
 3901 0b2d 01       		.byte	0x1
 3902 0b2e 2B       		.byte	0x2b
 3903 0b2f 00000000 		.4byte	.LFB59
 3904 0b33 0C000000 		.4byte	.LFE59-.LFB59
 3905 0b37 01       		.uleb128 0x1
 3906 0b38 9C       		.byte	0x9c
 3907 0b39 7B0B0000 		.4byte	0xb7b
 3908 0b3d 21       		.uleb128 0x21
 3909 0b3e D9120000 		.4byte	.LASF202
 3910 0b42 01       		.byte	0x1
 3911 0b43 2B       		.byte	0x2b
 3912 0b44 D6090000 		.4byte	0x9d6
 3913 0b48 4A010000 		.4byte	.LLST10
 3914 0b4c 21       		.uleb128 0x21
 3915 0b4d 28060000 		.4byte	.LASF193
 3916 0b51 01       		.byte	0x1
 3917 0b52 2B       		.byte	0x2b
 3918 0b53 F6000000 		.4byte	0xf6
 3919 0b57 6B010000 		.4byte	.LLST11
 3920 0b5b 22       		.uleb128 0x22
 3921 0b5c 7600     		.ascii	"v\000"
 3922 0b5e 01       		.byte	0x1
 3923 0b5f 2D       		.byte	0x2d
 3924 0b60 2C060000 		.4byte	0x62c
 3925 0b64 23       		.uleb128 0x23
 3926 0b65 0A000000 		.4byte	.LVL17
 3927 0b69 57260000 		.4byte	0x2657
 3928 0b6d 24       		.uleb128 0x24
 3929 0b6e 01       		.uleb128 0x1
 3930 0b6f 50       		.byte	0x50
 3931 0b70 03       		.uleb128 0x3
 3932 0b71 F3       		.byte	0xf3
 3933 0b72 01       		.uleb128 0x1
 3934 0b73 50       		.byte	0x50
 3935 0b74 24       		.uleb128 0x24
 3936 0b75 01       		.uleb128 0x1
 3937 0b76 51       		.byte	0x51
 3938 0b77 01       		.uleb128 0x1
 3939 0b78 36       		.byte	0x36
 3940 0b79 00       		.byte	0
 3941 0b7a 00       		.byte	0
 3942 0b7b 20       		.uleb128 0x20
 3943 0b7c 2B150000 		.4byte	.LASF209
 3944 0b80 01       		.byte	0x1
ARM GAS  C:\Users\haske\AppData\Local\Temp\ccb2zsXg.s 			page 82


 3945 0b81 33       		.byte	0x33
 3946 0b82 00000000 		.4byte	.LFB60
 3947 0b86 0C000000 		.4byte	.LFE60-.LFB60
 3948 0b8a 01       		.uleb128 0x1
 3949 0b8b 9C       		.byte	0x9c
 3950 0b8c CE0B0000 		.4byte	0xbce
 3951 0b90 21       		.uleb128 0x21
 3952 0b91 D9120000 		.4byte	.LASF202
 3953 0b95 01       		.byte	0x1
 3954 0b96 33       		.byte	0x33
 3955 0b97 D6090000 		.4byte	0x9d6
 3956 0b9b 8C010000 		.4byte	.LLST12
 3957 0b9f 21       		.uleb128 0x21
 3958 0ba0 28060000 		.4byte	.LASF193
 3959 0ba4 01       		.byte	0x1
 3960 0ba5 33       		.byte	0x33
 3961 0ba6 F6000000 		.4byte	0xf6
 3962 0baa AD010000 		.4byte	.LLST13
 3963 0bae 22       		.uleb128 0x22
 3964 0baf 7600     		.ascii	"v\000"
 3965 0bb1 01       		.byte	0x1
 3966 0bb2 35       		.byte	0x35
 3967 0bb3 2C060000 		.4byte	0x62c
 3968 0bb7 23       		.uleb128 0x23
 3969 0bb8 0A000000 		.4byte	.LVL20
 3970 0bbc 57260000 		.4byte	0x2657
 3971 0bc0 24       		.uleb128 0x24
 3972 0bc1 01       		.uleb128 0x1
 3973 0bc2 50       		.byte	0x50
 3974 0bc3 03       		.uleb128 0x3
 3975 0bc4 F3       		.byte	0xf3
 3976 0bc5 01       		.uleb128 0x1
 3977 0bc6 50       		.byte	0x50
 3978 0bc7 24       		.uleb128 0x24
 3979 0bc8 01       		.uleb128 0x1
 3980 0bc9 51       		.byte	0x51
 3981 0bca 01       		.uleb128 0x1
 3982 0bcb 37       		.byte	0x37
 3983 0bcc 00       		.byte	0
 3984 0bcd 00       		.byte	0
 3985 0bce 20       		.uleb128 0x20
 3986 0bcf 3A150000 		.4byte	.LASF210
 3987 0bd3 01       		.byte	0x1
 3988 0bd4 3B       		.byte	0x3b
 3989 0bd5 00000000 		.4byte	.LFB61
 3990 0bd9 0C000000 		.4byte	.LFE61-.LFB61
 3991 0bdd 01       		.uleb128 0x1
 3992 0bde 9C       		.byte	0x9c
 3993 0bdf 210C0000 		.4byte	0xc21
 3994 0be3 21       		.uleb128 0x21
 3995 0be4 D9120000 		.4byte	.LASF202
 3996 0be8 01       		.byte	0x1
 3997 0be9 3B       		.byte	0x3b
 3998 0bea D6090000 		.4byte	0x9d6
 3999 0bee CE010000 		.4byte	.LLST14
 4000 0bf2 21       		.uleb128 0x21
 4001 0bf3 28060000 		.4byte	.LASF193
ARM GAS  C:\Users\haske\AppData\Local\Temp\ccb2zsXg.s 			page 83


 4002 0bf7 01       		.byte	0x1
 4003 0bf8 3B       		.byte	0x3b
 4004 0bf9 F6000000 		.4byte	0xf6
 4005 0bfd EF010000 		.4byte	.LLST15
 4006 0c01 22       		.uleb128 0x22
 4007 0c02 7600     		.ascii	"v\000"
 4008 0c04 01       		.byte	0x1
 4009 0c05 3D       		.byte	0x3d
 4010 0c06 2C060000 		.4byte	0x62c
 4011 0c0a 23       		.uleb128 0x23
 4012 0c0b 0A000000 		.4byte	.LVL23
 4013 0c0f 57260000 		.4byte	0x2657
 4014 0c13 24       		.uleb128 0x24
 4015 0c14 01       		.uleb128 0x1
 4016 0c15 50       		.byte	0x50
 4017 0c16 03       		.uleb128 0x3
 4018 0c17 F3       		.byte	0xf3
 4019 0c18 01       		.uleb128 0x1
 4020 0c19 50       		.byte	0x50
 4021 0c1a 24       		.uleb128 0x24
 4022 0c1b 01       		.uleb128 0x1
 4023 0c1c 51       		.byte	0x51
 4024 0c1d 01       		.uleb128 0x1
 4025 0c1e 38       		.byte	0x38
 4026 0c1f 00       		.byte	0
 4027 0c20 00       		.byte	0
 4028 0c21 20       		.uleb128 0x20
 4029 0c22 68150000 		.4byte	.LASF211
 4030 0c26 01       		.byte	0x1
 4031 0c27 43       		.byte	0x43
 4032 0c28 00000000 		.4byte	.LFB62
 4033 0c2c 0C000000 		.4byte	.LFE62-.LFB62
 4034 0c30 01       		.uleb128 0x1
 4035 0c31 9C       		.byte	0x9c
 4036 0c32 740C0000 		.4byte	0xc74
 4037 0c36 21       		.uleb128 0x21
 4038 0c37 D9120000 		.4byte	.LASF202
 4039 0c3b 01       		.byte	0x1
 4040 0c3c 43       		.byte	0x43
 4041 0c3d D6090000 		.4byte	0x9d6
 4042 0c41 10020000 		.4byte	.LLST16
 4043 0c45 21       		.uleb128 0x21
 4044 0c46 28060000 		.4byte	.LASF193
 4045 0c4a 01       		.byte	0x1
 4046 0c4b 43       		.byte	0x43
 4047 0c4c 01010000 		.4byte	0x101
 4048 0c50 31020000 		.4byte	.LLST17
 4049 0c54 22       		.uleb128 0x22
 4050 0c55 7600     		.ascii	"v\000"
 4051 0c57 01       		.byte	0x1
 4052 0c58 45       		.byte	0x45
 4053 0c59 2C060000 		.4byte	0x62c
 4054 0c5d 23       		.uleb128 0x23
 4055 0c5e 0A000000 		.4byte	.LVL26
 4056 0c62 57260000 		.4byte	0x2657
 4057 0c66 24       		.uleb128 0x24
 4058 0c67 01       		.uleb128 0x1
ARM GAS  C:\Users\haske\AppData\Local\Temp\ccb2zsXg.s 			page 84


 4059 0c68 50       		.byte	0x50
 4060 0c69 03       		.uleb128 0x3
 4061 0c6a F3       		.byte	0xf3
 4062 0c6b 01       		.uleb128 0x1
 4063 0c6c 50       		.byte	0x50
 4064 0c6d 24       		.uleb128 0x24
 4065 0c6e 01       		.uleb128 0x1
 4066 0c6f 51       		.byte	0x51
 4067 0c70 01       		.uleb128 0x1
 4068 0c71 39       		.byte	0x39
 4069 0c72 00       		.byte	0
 4070 0c73 00       		.byte	0
 4071 0c74 20       		.uleb128 0x20
 4072 0c75 ED0A0000 		.4byte	.LASF212
 4073 0c79 01       		.byte	0x1
 4074 0c7a 4B       		.byte	0x4b
 4075 0c7b 00000000 		.4byte	.LFB63
 4076 0c7f 0C000000 		.4byte	.LFE63-.LFB63
 4077 0c83 01       		.uleb128 0x1
 4078 0c84 9C       		.byte	0x9c
 4079 0c85 C80C0000 		.4byte	0xcc8
 4080 0c89 21       		.uleb128 0x21
 4081 0c8a D9120000 		.4byte	.LASF202
 4082 0c8e 01       		.byte	0x1
 4083 0c8f 4B       		.byte	0x4b
 4084 0c90 D6090000 		.4byte	0x9d6
 4085 0c94 52020000 		.4byte	.LLST18
 4086 0c98 21       		.uleb128 0x21
 4087 0c99 28060000 		.4byte	.LASF193
 4088 0c9d 01       		.byte	0x1
 4089 0c9e 4B       		.byte	0x4b
 4090 0c9f F6000000 		.4byte	0xf6
 4091 0ca3 73020000 		.4byte	.LLST19
 4092 0ca7 22       		.uleb128 0x22
 4093 0ca8 7600     		.ascii	"v\000"
 4094 0caa 01       		.byte	0x1
 4095 0cab 4D       		.byte	0x4d
 4096 0cac 2C060000 		.4byte	0x62c
 4097 0cb0 23       		.uleb128 0x23
 4098 0cb1 0A000000 		.4byte	.LVL29
 4099 0cb5 57260000 		.4byte	0x2657
 4100 0cb9 24       		.uleb128 0x24
 4101 0cba 01       		.uleb128 0x1
 4102 0cbb 50       		.byte	0x50
 4103 0cbc 03       		.uleb128 0x3
 4104 0cbd F3       		.byte	0xf3
 4105 0cbe 01       		.uleb128 0x1
 4106 0cbf 50       		.byte	0x50
 4107 0cc0 24       		.uleb128 0x24
 4108 0cc1 01       		.uleb128 0x1
 4109 0cc2 51       		.byte	0x51
 4110 0cc3 02       		.uleb128 0x2
 4111 0cc4 08       		.byte	0x8
 4112 0cc5 68       		.byte	0x68
 4113 0cc6 00       		.byte	0
 4114 0cc7 00       		.byte	0
 4115 0cc8 20       		.uleb128 0x20
ARM GAS  C:\Users\haske\AppData\Local\Temp\ccb2zsXg.s 			page 85


 4116 0cc9 1E0A0000 		.4byte	.LASF213
 4117 0ccd 01       		.byte	0x1
 4118 0cce 53       		.byte	0x53
 4119 0ccf 00000000 		.4byte	.LFB64
 4120 0cd3 0C000000 		.4byte	.LFE64-.LFB64
 4121 0cd7 01       		.uleb128 0x1
 4122 0cd8 9C       		.byte	0x9c
 4123 0cd9 1C0D0000 		.4byte	0xd1c
 4124 0cdd 21       		.uleb128 0x21
 4125 0cde D9120000 		.4byte	.LASF202
 4126 0ce2 01       		.byte	0x1
 4127 0ce3 53       		.byte	0x53
 4128 0ce4 D6090000 		.4byte	0x9d6
 4129 0ce8 94020000 		.4byte	.LLST20
 4130 0cec 21       		.uleb128 0x21
 4131 0ced 28060000 		.4byte	.LASF193
 4132 0cf1 01       		.byte	0x1
 4133 0cf2 53       		.byte	0x53
 4134 0cf3 F6000000 		.4byte	0xf6
 4135 0cf7 B5020000 		.4byte	.LLST21
 4136 0cfb 22       		.uleb128 0x22
 4137 0cfc 7600     		.ascii	"v\000"
 4138 0cfe 01       		.byte	0x1
 4139 0cff 55       		.byte	0x55
 4140 0d00 2C060000 		.4byte	0x62c
 4141 0d04 23       		.uleb128 0x23
 4142 0d05 0A000000 		.4byte	.LVL32
 4143 0d09 57260000 		.4byte	0x2657
 4144 0d0d 24       		.uleb128 0x24
 4145 0d0e 01       		.uleb128 0x1
 4146 0d0f 50       		.byte	0x50
 4147 0d10 03       		.uleb128 0x3
 4148 0d11 F3       		.byte	0xf3
 4149 0d12 01       		.uleb128 0x1
 4150 0d13 50       		.byte	0x50
 4151 0d14 24       		.uleb128 0x24
 4152 0d15 01       		.uleb128 0x1
 4153 0d16 51       		.byte	0x51
 4154 0d17 02       		.uleb128 0x2
 4155 0d18 08       		.byte	0x8
 4156 0d19 69       		.byte	0x69
 4157 0d1a 00       		.byte	0
 4158 0d1b 00       		.byte	0
 4159 0d1c 20       		.uleb128 0x20
 4160 0d1d 7B150000 		.4byte	.LASF214
 4161 0d21 01       		.byte	0x1
 4162 0d22 5B       		.byte	0x5b
 4163 0d23 00000000 		.4byte	.LFB65
 4164 0d27 0C000000 		.4byte	.LFE65-.LFB65
 4165 0d2b 01       		.uleb128 0x1
 4166 0d2c 9C       		.byte	0x9c
 4167 0d2d 700D0000 		.4byte	0xd70
 4168 0d31 21       		.uleb128 0x21
 4169 0d32 D9120000 		.4byte	.LASF202
 4170 0d36 01       		.byte	0x1
 4171 0d37 5B       		.byte	0x5b
 4172 0d38 D6090000 		.4byte	0x9d6
ARM GAS  C:\Users\haske\AppData\Local\Temp\ccb2zsXg.s 			page 86


 4173 0d3c D6020000 		.4byte	.LLST22
 4174 0d40 21       		.uleb128 0x21
 4175 0d41 28060000 		.4byte	.LASF193
 4176 0d45 01       		.byte	0x1
 4177 0d46 5B       		.byte	0x5b
 4178 0d47 F6000000 		.4byte	0xf6
 4179 0d4b F7020000 		.4byte	.LLST23
 4180 0d4f 22       		.uleb128 0x22
 4181 0d50 7600     		.ascii	"v\000"
 4182 0d52 01       		.byte	0x1
 4183 0d53 5D       		.byte	0x5d
 4184 0d54 2C060000 		.4byte	0x62c
 4185 0d58 23       		.uleb128 0x23
 4186 0d59 0A000000 		.4byte	.LVL35
 4187 0d5d 57260000 		.4byte	0x2657
 4188 0d61 24       		.uleb128 0x24
 4189 0d62 01       		.uleb128 0x1
 4190 0d63 50       		.byte	0x50
 4191 0d64 03       		.uleb128 0x3
 4192 0d65 F3       		.byte	0xf3
 4193 0d66 01       		.uleb128 0x1
 4194 0d67 50       		.byte	0x50
 4195 0d68 24       		.uleb128 0x24
 4196 0d69 01       		.uleb128 0x1
 4197 0d6a 51       		.byte	0x51
 4198 0d6b 02       		.uleb128 0x2
 4199 0d6c 08       		.byte	0x8
 4200 0d6d 6A       		.byte	0x6a
 4201 0d6e 00       		.byte	0
 4202 0d6f 00       		.byte	0
 4203 0d70 20       		.uleb128 0x20
 4204 0d71 94150000 		.4byte	.LASF215
 4205 0d75 01       		.byte	0x1
 4206 0d76 63       		.byte	0x63
 4207 0d77 00000000 		.4byte	.LFB66
 4208 0d7b 0C000000 		.4byte	.LFE66-.LFB66
 4209 0d7f 01       		.uleb128 0x1
 4210 0d80 9C       		.byte	0x9c
 4211 0d81 C40D0000 		.4byte	0xdc4
 4212 0d85 21       		.uleb128 0x21
 4213 0d86 D9120000 		.4byte	.LASF202
 4214 0d8a 01       		.byte	0x1
 4215 0d8b 63       		.byte	0x63
 4216 0d8c D6090000 		.4byte	0x9d6
 4217 0d90 18030000 		.4byte	.LLST24
 4218 0d94 21       		.uleb128 0x21
 4219 0d95 28060000 		.4byte	.LASF193
 4220 0d99 01       		.byte	0x1
 4221 0d9a 63       		.byte	0x63
 4222 0d9b F6000000 		.4byte	0xf6
 4223 0d9f 39030000 		.4byte	.LLST25
 4224 0da3 22       		.uleb128 0x22
 4225 0da4 7600     		.ascii	"v\000"
 4226 0da6 01       		.byte	0x1
 4227 0da7 65       		.byte	0x65
 4228 0da8 2C060000 		.4byte	0x62c
 4229 0dac 23       		.uleb128 0x23
ARM GAS  C:\Users\haske\AppData\Local\Temp\ccb2zsXg.s 			page 87


 4230 0dad 0A000000 		.4byte	.LVL38
 4231 0db1 57260000 		.4byte	0x2657
 4232 0db5 24       		.uleb128 0x24
 4233 0db6 01       		.uleb128 0x1
 4234 0db7 50       		.byte	0x50
 4235 0db8 03       		.uleb128 0x3
 4236 0db9 F3       		.byte	0xf3
 4237 0dba 01       		.uleb128 0x1
 4238 0dbb 50       		.byte	0x50
 4239 0dbc 24       		.uleb128 0x24
 4240 0dbd 01       		.uleb128 0x1
 4241 0dbe 51       		.byte	0x51
 4242 0dbf 02       		.uleb128 0x2
 4243 0dc0 08       		.byte	0x8
 4244 0dc1 6B       		.byte	0x6b
 4245 0dc2 00       		.byte	0
 4246 0dc3 00       		.byte	0
 4247 0dc4 20       		.uleb128 0x20
 4248 0dc5 06050000 		.4byte	.LASF216
 4249 0dc9 01       		.byte	0x1
 4250 0dca 6B       		.byte	0x6b
 4251 0dcb 00000000 		.4byte	.LFB67
 4252 0dcf 0C000000 		.4byte	.LFE67-.LFB67
 4253 0dd3 01       		.uleb128 0x1
 4254 0dd4 9C       		.byte	0x9c
 4255 0dd5 180E0000 		.4byte	0xe18
 4256 0dd9 21       		.uleb128 0x21
 4257 0dda D9120000 		.4byte	.LASF202
 4258 0dde 01       		.byte	0x1
 4259 0ddf 6B       		.byte	0x6b
 4260 0de0 D6090000 		.4byte	0x9d6
 4261 0de4 5A030000 		.4byte	.LLST26
 4262 0de8 21       		.uleb128 0x21
 4263 0de9 28060000 		.4byte	.LASF193
 4264 0ded 01       		.byte	0x1
 4265 0dee 6B       		.byte	0x6b
 4266 0def F6000000 		.4byte	0xf6
 4267 0df3 7B030000 		.4byte	.LLST27
 4268 0df7 22       		.uleb128 0x22
 4269 0df8 7600     		.ascii	"v\000"
 4270 0dfa 01       		.byte	0x1
 4271 0dfb 6D       		.byte	0x6d
 4272 0dfc 2C060000 		.4byte	0x62c
 4273 0e00 23       		.uleb128 0x23
 4274 0e01 0A000000 		.4byte	.LVL41
 4275 0e05 57260000 		.4byte	0x2657
 4276 0e09 24       		.uleb128 0x24
 4277 0e0a 01       		.uleb128 0x1
 4278 0e0b 50       		.byte	0x50
 4279 0e0c 03       		.uleb128 0x3
 4280 0e0d F3       		.byte	0xf3
 4281 0e0e 01       		.uleb128 0x1
 4282 0e0f 50       		.byte	0x50
 4283 0e10 24       		.uleb128 0x24
 4284 0e11 01       		.uleb128 0x1
 4285 0e12 51       		.byte	0x51
 4286 0e13 02       		.uleb128 0x2
ARM GAS  C:\Users\haske\AppData\Local\Temp\ccb2zsXg.s 			page 88


 4287 0e14 08       		.byte	0x8
 4288 0e15 6C       		.byte	0x6c
 4289 0e16 00       		.byte	0
 4290 0e17 00       		.byte	0
 4291 0e18 20       		.uleb128 0x20
 4292 0e19 DA130000 		.4byte	.LASF217
 4293 0e1d 01       		.byte	0x1
 4294 0e1e 73       		.byte	0x73
 4295 0e1f 00000000 		.4byte	.LFB68
 4296 0e23 0C000000 		.4byte	.LFE68-.LFB68
 4297 0e27 01       		.uleb128 0x1
 4298 0e28 9C       		.byte	0x9c
 4299 0e29 6C0E0000 		.4byte	0xe6c
 4300 0e2d 21       		.uleb128 0x21
 4301 0e2e D9120000 		.4byte	.LASF202
 4302 0e32 01       		.byte	0x1
 4303 0e33 73       		.byte	0x73
 4304 0e34 D6090000 		.4byte	0x9d6
 4305 0e38 9C030000 		.4byte	.LLST28
 4306 0e3c 21       		.uleb128 0x21
 4307 0e3d 28060000 		.4byte	.LASF193
 4308 0e41 01       		.byte	0x1
 4309 0e42 73       		.byte	0x73
 4310 0e43 F6000000 		.4byte	0xf6
 4311 0e47 BD030000 		.4byte	.LLST29
 4312 0e4b 22       		.uleb128 0x22
 4313 0e4c 7600     		.ascii	"v\000"
 4314 0e4e 01       		.byte	0x1
 4315 0e4f 75       		.byte	0x75
 4316 0e50 2C060000 		.4byte	0x62c
 4317 0e54 23       		.uleb128 0x23
 4318 0e55 0A000000 		.4byte	.LVL44
 4319 0e59 57260000 		.4byte	0x2657
 4320 0e5d 24       		.uleb128 0x24
 4321 0e5e 01       		.uleb128 0x1
 4322 0e5f 50       		.byte	0x50
 4323 0e60 03       		.uleb128 0x3
 4324 0e61 F3       		.byte	0xf3
 4325 0e62 01       		.uleb128 0x1
 4326 0e63 50       		.byte	0x50
 4327 0e64 24       		.uleb128 0x24
 4328 0e65 01       		.uleb128 0x1
 4329 0e66 51       		.byte	0x51
 4330 0e67 02       		.uleb128 0x2
 4331 0e68 08       		.byte	0x8
 4332 0e69 6D       		.byte	0x6d
 4333 0e6a 00       		.byte	0
 4334 0e6b 00       		.byte	0
 4335 0e6c 20       		.uleb128 0x20
 4336 0e6d EF080000 		.4byte	.LASF218
 4337 0e71 01       		.byte	0x1
 4338 0e72 7B       		.byte	0x7b
 4339 0e73 00000000 		.4byte	.LFB69
 4340 0e77 0C000000 		.4byte	.LFE69-.LFB69
 4341 0e7b 01       		.uleb128 0x1
 4342 0e7c 9C       		.byte	0x9c
 4343 0e7d C00E0000 		.4byte	0xec0
ARM GAS  C:\Users\haske\AppData\Local\Temp\ccb2zsXg.s 			page 89


 4344 0e81 21       		.uleb128 0x21
 4345 0e82 D9120000 		.4byte	.LASF202
 4346 0e86 01       		.byte	0x1
 4347 0e87 7B       		.byte	0x7b
 4348 0e88 D6090000 		.4byte	0x9d6
 4349 0e8c DE030000 		.4byte	.LLST30
 4350 0e90 21       		.uleb128 0x21
 4351 0e91 28060000 		.4byte	.LASF193
 4352 0e95 01       		.byte	0x1
 4353 0e96 7B       		.byte	0x7b
 4354 0e97 F6000000 		.4byte	0xf6
 4355 0e9b FF030000 		.4byte	.LLST31
 4356 0e9f 22       		.uleb128 0x22
 4357 0ea0 7600     		.ascii	"v\000"
 4358 0ea2 01       		.byte	0x1
 4359 0ea3 7D       		.byte	0x7d
 4360 0ea4 2C060000 		.4byte	0x62c
 4361 0ea8 23       		.uleb128 0x23
 4362 0ea9 0A000000 		.4byte	.LVL47
 4363 0ead 57260000 		.4byte	0x2657
 4364 0eb1 24       		.uleb128 0x24
 4365 0eb2 01       		.uleb128 0x1
 4366 0eb3 50       		.byte	0x50
 4367 0eb4 03       		.uleb128 0x3
 4368 0eb5 F3       		.byte	0xf3
 4369 0eb6 01       		.uleb128 0x1
 4370 0eb7 50       		.byte	0x50
 4371 0eb8 24       		.uleb128 0x24
 4372 0eb9 01       		.uleb128 0x1
 4373 0eba 51       		.byte	0x51
 4374 0ebb 02       		.uleb128 0x2
 4375 0ebc 08       		.byte	0x8
 4376 0ebd 6E       		.byte	0x6e
 4377 0ebe 00       		.byte	0
 4378 0ebf 00       		.byte	0
 4379 0ec0 20       		.uleb128 0x20
 4380 0ec1 0E090000 		.4byte	.LASF219
 4381 0ec5 01       		.byte	0x1
 4382 0ec6 83       		.byte	0x83
 4383 0ec7 00000000 		.4byte	.LFB70
 4384 0ecb 0C000000 		.4byte	.LFE70-.LFB70
 4385 0ecf 01       		.uleb128 0x1
 4386 0ed0 9C       		.byte	0x9c
 4387 0ed1 140F0000 		.4byte	0xf14
 4388 0ed5 21       		.uleb128 0x21
 4389 0ed6 D9120000 		.4byte	.LASF202
 4390 0eda 01       		.byte	0x1
 4391 0edb 83       		.byte	0x83
 4392 0edc D6090000 		.4byte	0x9d6
 4393 0ee0 20040000 		.4byte	.LLST32
 4394 0ee4 21       		.uleb128 0x21
 4395 0ee5 28060000 		.4byte	.LASF193
 4396 0ee9 01       		.byte	0x1
 4397 0eea 83       		.byte	0x83
 4398 0eeb F6000000 		.4byte	0xf6
 4399 0eef 41040000 		.4byte	.LLST33
 4400 0ef3 22       		.uleb128 0x22
ARM GAS  C:\Users\haske\AppData\Local\Temp\ccb2zsXg.s 			page 90


 4401 0ef4 7600     		.ascii	"v\000"
 4402 0ef6 01       		.byte	0x1
 4403 0ef7 85       		.byte	0x85
 4404 0ef8 2C060000 		.4byte	0x62c
 4405 0efc 23       		.uleb128 0x23
 4406 0efd 0A000000 		.4byte	.LVL50
 4407 0f01 57260000 		.4byte	0x2657
 4408 0f05 24       		.uleb128 0x24
 4409 0f06 01       		.uleb128 0x1
 4410 0f07 50       		.byte	0x50
 4411 0f08 03       		.uleb128 0x3
 4412 0f09 F3       		.byte	0xf3
 4413 0f0a 01       		.uleb128 0x1
 4414 0f0b 50       		.byte	0x50
 4415 0f0c 24       		.uleb128 0x24
 4416 0f0d 01       		.uleb128 0x1
 4417 0f0e 51       		.byte	0x51
 4418 0f0f 02       		.uleb128 0x2
 4419 0f10 08       		.byte	0x8
 4420 0f11 6F       		.byte	0x6f
 4421 0f12 00       		.byte	0
 4422 0f13 00       		.byte	0
 4423 0f14 20       		.uleb128 0x20
 4424 0f15 19130000 		.4byte	.LASF220
 4425 0f19 01       		.byte	0x1
 4426 0f1a 8B       		.byte	0x8b
 4427 0f1b 00000000 		.4byte	.LFB71
 4428 0f1f 0C000000 		.4byte	.LFE71-.LFB71
 4429 0f23 01       		.uleb128 0x1
 4430 0f24 9C       		.byte	0x9c
 4431 0f25 670F0000 		.4byte	0xf67
 4432 0f29 21       		.uleb128 0x21
 4433 0f2a D9120000 		.4byte	.LASF202
 4434 0f2e 01       		.byte	0x1
 4435 0f2f 8B       		.byte	0x8b
 4436 0f30 D6090000 		.4byte	0x9d6
 4437 0f34 62040000 		.4byte	.LLST34
 4438 0f38 21       		.uleb128 0x21
 4439 0f39 28060000 		.4byte	.LASF193
 4440 0f3d 01       		.byte	0x1
 4441 0f3e 8B       		.byte	0x8b
 4442 0f3f F6000000 		.4byte	0xf6
 4443 0f43 83040000 		.4byte	.LLST35
 4444 0f47 22       		.uleb128 0x22
 4445 0f48 7600     		.ascii	"v\000"
 4446 0f4a 01       		.byte	0x1
 4447 0f4b 8D       		.byte	0x8d
 4448 0f4c 2C060000 		.4byte	0x62c
 4449 0f50 23       		.uleb128 0x23
 4450 0f51 0A000000 		.4byte	.LVL53
 4451 0f55 57260000 		.4byte	0x2657
 4452 0f59 24       		.uleb128 0x24
 4453 0f5a 01       		.uleb128 0x1
 4454 0f5b 50       		.byte	0x50
 4455 0f5c 03       		.uleb128 0x3
 4456 0f5d F3       		.byte	0xf3
 4457 0f5e 01       		.uleb128 0x1
ARM GAS  C:\Users\haske\AppData\Local\Temp\ccb2zsXg.s 			page 91


 4458 0f5f 50       		.byte	0x50
 4459 0f60 24       		.uleb128 0x24
 4460 0f61 01       		.uleb128 0x1
 4461 0f62 51       		.byte	0x51
 4462 0f63 01       		.uleb128 0x1
 4463 0f64 40       		.byte	0x40
 4464 0f65 00       		.byte	0
 4465 0f66 00       		.byte	0
 4466 0f67 20       		.uleb128 0x20
 4467 0f68 38000000 		.4byte	.LASF221
 4468 0f6c 01       		.byte	0x1
 4469 0f6d 93       		.byte	0x93
 4470 0f6e 00000000 		.4byte	.LFB72
 4471 0f72 0C000000 		.4byte	.LFE72-.LFB72
 4472 0f76 01       		.uleb128 0x1
 4473 0f77 9C       		.byte	0x9c
 4474 0f78 BA0F0000 		.4byte	0xfba
 4475 0f7c 21       		.uleb128 0x21
 4476 0f7d D9120000 		.4byte	.LASF202
 4477 0f81 01       		.byte	0x1
 4478 0f82 93       		.byte	0x93
 4479 0f83 D6090000 		.4byte	0x9d6
 4480 0f87 A4040000 		.4byte	.LLST36
 4481 0f8b 21       		.uleb128 0x21
 4482 0f8c 28060000 		.4byte	.LASF193
 4483 0f90 01       		.byte	0x1
 4484 0f91 93       		.byte	0x93
 4485 0f92 F6000000 		.4byte	0xf6
 4486 0f96 C5040000 		.4byte	.LLST37
 4487 0f9a 22       		.uleb128 0x22
 4488 0f9b 7600     		.ascii	"v\000"
 4489 0f9d 01       		.byte	0x1
 4490 0f9e 95       		.byte	0x95
 4491 0f9f 2C060000 		.4byte	0x62c
 4492 0fa3 23       		.uleb128 0x23
 4493 0fa4 0A000000 		.4byte	.LVL56
 4494 0fa8 57260000 		.4byte	0x2657
 4495 0fac 24       		.uleb128 0x24
 4496 0fad 01       		.uleb128 0x1
 4497 0fae 50       		.byte	0x50
 4498 0faf 03       		.uleb128 0x3
 4499 0fb0 F3       		.byte	0xf3
 4500 0fb1 01       		.uleb128 0x1
 4501 0fb2 50       		.byte	0x50
 4502 0fb3 24       		.uleb128 0x24
 4503 0fb4 01       		.uleb128 0x1
 4504 0fb5 51       		.byte	0x51
 4505 0fb6 01       		.uleb128 0x1
 4506 0fb7 41       		.byte	0x41
 4507 0fb8 00       		.byte	0
 4508 0fb9 00       		.byte	0
 4509 0fba 20       		.uleb128 0x20
 4510 0fbb C2080000 		.4byte	.LASF222
 4511 0fbf 01       		.byte	0x1
 4512 0fc0 9B       		.byte	0x9b
 4513 0fc1 00000000 		.4byte	.LFB73
 4514 0fc5 0C000000 		.4byte	.LFE73-.LFB73
ARM GAS  C:\Users\haske\AppData\Local\Temp\ccb2zsXg.s 			page 92


 4515 0fc9 01       		.uleb128 0x1
 4516 0fca 9C       		.byte	0x9c
 4517 0fcb 0D100000 		.4byte	0x100d
 4518 0fcf 21       		.uleb128 0x21
 4519 0fd0 D9120000 		.4byte	.LASF202
 4520 0fd4 01       		.byte	0x1
 4521 0fd5 9B       		.byte	0x9b
 4522 0fd6 D6090000 		.4byte	0x9d6
 4523 0fda E6040000 		.4byte	.LLST38
 4524 0fde 21       		.uleb128 0x21
 4525 0fdf 28060000 		.4byte	.LASF193
 4526 0fe3 01       		.byte	0x1
 4527 0fe4 9B       		.byte	0x9b
 4528 0fe5 F6000000 		.4byte	0xf6
 4529 0fe9 07050000 		.4byte	.LLST39
 4530 0fed 22       		.uleb128 0x22
 4531 0fee 7600     		.ascii	"v\000"
 4532 0ff0 01       		.byte	0x1
 4533 0ff1 9D       		.byte	0x9d
 4534 0ff2 2C060000 		.4byte	0x62c
 4535 0ff6 23       		.uleb128 0x23
 4536 0ff7 0A000000 		.4byte	.LVL59
 4537 0ffb 57260000 		.4byte	0x2657
 4538 0fff 24       		.uleb128 0x24
 4539 1000 01       		.uleb128 0x1
 4540 1001 50       		.byte	0x50
 4541 1002 03       		.uleb128 0x3
 4542 1003 F3       		.byte	0xf3
 4543 1004 01       		.uleb128 0x1
 4544 1005 50       		.byte	0x50
 4545 1006 24       		.uleb128 0x24
 4546 1007 01       		.uleb128 0x1
 4547 1008 51       		.byte	0x51
 4548 1009 01       		.uleb128 0x1
 4549 100a 42       		.byte	0x42
 4550 100b 00       		.byte	0
 4551 100c 00       		.byte	0
 4552 100d 20       		.uleb128 0x20
 4553 100e 09110000 		.4byte	.LASF223
 4554 1012 01       		.byte	0x1
 4555 1013 A3       		.byte	0xa3
 4556 1014 00000000 		.4byte	.LFB74
 4557 1018 0C000000 		.4byte	.LFE74-.LFB74
 4558 101c 01       		.uleb128 0x1
 4559 101d 9C       		.byte	0x9c
 4560 101e 60100000 		.4byte	0x1060
 4561 1022 21       		.uleb128 0x21
 4562 1023 D9120000 		.4byte	.LASF202
 4563 1027 01       		.byte	0x1
 4564 1028 A3       		.byte	0xa3
 4565 1029 D6090000 		.4byte	0x9d6
 4566 102d 28050000 		.4byte	.LLST40
 4567 1031 21       		.uleb128 0x21
 4568 1032 28060000 		.4byte	.LASF193
 4569 1036 01       		.byte	0x1
 4570 1037 A3       		.byte	0xa3
 4571 1038 F6000000 		.4byte	0xf6
ARM GAS  C:\Users\haske\AppData\Local\Temp\ccb2zsXg.s 			page 93


 4572 103c 49050000 		.4byte	.LLST41
 4573 1040 22       		.uleb128 0x22
 4574 1041 7600     		.ascii	"v\000"
 4575 1043 01       		.byte	0x1
 4576 1044 A5       		.byte	0xa5
 4577 1045 2C060000 		.4byte	0x62c
 4578 1049 23       		.uleb128 0x23
 4579 104a 0A000000 		.4byte	.LVL62
 4580 104e 57260000 		.4byte	0x2657
 4581 1052 24       		.uleb128 0x24
 4582 1053 01       		.uleb128 0x1
 4583 1054 50       		.byte	0x50
 4584 1055 03       		.uleb128 0x3
 4585 1056 F3       		.byte	0xf3
 4586 1057 01       		.uleb128 0x1
 4587 1058 50       		.byte	0x50
 4588 1059 24       		.uleb128 0x24
 4589 105a 01       		.uleb128 0x1
 4590 105b 51       		.byte	0x51
 4591 105c 01       		.uleb128 0x1
 4592 105d 43       		.byte	0x43
 4593 105e 00       		.byte	0
 4594 105f 00       		.byte	0
 4595 1060 20       		.uleb128 0x20
 4596 1061 48010000 		.4byte	.LASF224
 4597 1065 01       		.byte	0x1
 4598 1066 AB       		.byte	0xab
 4599 1067 00000000 		.4byte	.LFB75
 4600 106b 0C000000 		.4byte	.LFE75-.LFB75
 4601 106f 01       		.uleb128 0x1
 4602 1070 9C       		.byte	0x9c
 4603 1071 B3100000 		.4byte	0x10b3
 4604 1075 21       		.uleb128 0x21
 4605 1076 D9120000 		.4byte	.LASF202
 4606 107a 01       		.byte	0x1
 4607 107b AB       		.byte	0xab
 4608 107c D6090000 		.4byte	0x9d6
 4609 1080 6A050000 		.4byte	.LLST42
 4610 1084 21       		.uleb128 0x21
 4611 1085 28060000 		.4byte	.LASF193
 4612 1089 01       		.byte	0x1
 4613 108a AB       		.byte	0xab
 4614 108b F6000000 		.4byte	0xf6
 4615 108f 8B050000 		.4byte	.LLST43
 4616 1093 22       		.uleb128 0x22
 4617 1094 7600     		.ascii	"v\000"
 4618 1096 01       		.byte	0x1
 4619 1097 AD       		.byte	0xad
 4620 1098 2C060000 		.4byte	0x62c
 4621 109c 23       		.uleb128 0x23
 4622 109d 0A000000 		.4byte	.LVL65
 4623 10a1 57260000 		.4byte	0x2657
 4624 10a5 24       		.uleb128 0x24
 4625 10a6 01       		.uleb128 0x1
 4626 10a7 50       		.byte	0x50
 4627 10a8 03       		.uleb128 0x3
 4628 10a9 F3       		.byte	0xf3
ARM GAS  C:\Users\haske\AppData\Local\Temp\ccb2zsXg.s 			page 94


 4629 10aa 01       		.uleb128 0x1
 4630 10ab 50       		.byte	0x50
 4631 10ac 24       		.uleb128 0x24
 4632 10ad 01       		.uleb128 0x1
 4633 10ae 51       		.byte	0x51
 4634 10af 01       		.uleb128 0x1
 4635 10b0 44       		.byte	0x44
 4636 10b1 00       		.byte	0
 4637 10b2 00       		.byte	0
 4638 10b3 20       		.uleb128 0x20
 4639 10b4 16040000 		.4byte	.LASF225
 4640 10b8 01       		.byte	0x1
 4641 10b9 B3       		.byte	0xb3
 4642 10ba 00000000 		.4byte	.LFB76
 4643 10be 0C000000 		.4byte	.LFE76-.LFB76
 4644 10c2 01       		.uleb128 0x1
 4645 10c3 9C       		.byte	0x9c
 4646 10c4 06110000 		.4byte	0x1106
 4647 10c8 21       		.uleb128 0x21
 4648 10c9 D9120000 		.4byte	.LASF202
 4649 10cd 01       		.byte	0x1
 4650 10ce B3       		.byte	0xb3
 4651 10cf D6090000 		.4byte	0x9d6
 4652 10d3 AC050000 		.4byte	.LLST44
 4653 10d7 21       		.uleb128 0x21
 4654 10d8 28060000 		.4byte	.LASF193
 4655 10dc 01       		.byte	0x1
 4656 10dd B3       		.byte	0xb3
 4657 10de F6000000 		.4byte	0xf6
 4658 10e2 CD050000 		.4byte	.LLST45
 4659 10e6 22       		.uleb128 0x22
 4660 10e7 7600     		.ascii	"v\000"
 4661 10e9 01       		.byte	0x1
 4662 10ea B5       		.byte	0xb5
 4663 10eb 2C060000 		.4byte	0x62c
 4664 10ef 23       		.uleb128 0x23
 4665 10f0 0A000000 		.4byte	.LVL68
 4666 10f4 57260000 		.4byte	0x2657
 4667 10f8 24       		.uleb128 0x24
 4668 10f9 01       		.uleb128 0x1
 4669 10fa 50       		.byte	0x50
 4670 10fb 03       		.uleb128 0x3
 4671 10fc F3       		.byte	0xf3
 4672 10fd 01       		.uleb128 0x1
 4673 10fe 50       		.byte	0x50
 4674 10ff 24       		.uleb128 0x24
 4675 1100 01       		.uleb128 0x1
 4676 1101 51       		.byte	0x51
 4677 1102 01       		.uleb128 0x1
 4678 1103 45       		.byte	0x45
 4679 1104 00       		.byte	0
 4680 1105 00       		.byte	0
 4681 1106 20       		.uleb128 0x20
 4682 1107 790A0000 		.4byte	.LASF226
 4683 110b 01       		.byte	0x1
 4684 110c BB       		.byte	0xbb
 4685 110d 00000000 		.4byte	.LFB77
ARM GAS  C:\Users\haske\AppData\Local\Temp\ccb2zsXg.s 			page 95


 4686 1111 0C000000 		.4byte	.LFE77-.LFB77
 4687 1115 01       		.uleb128 0x1
 4688 1116 9C       		.byte	0x9c
 4689 1117 5A110000 		.4byte	0x115a
 4690 111b 21       		.uleb128 0x21
 4691 111c D9120000 		.4byte	.LASF202
 4692 1120 01       		.byte	0x1
 4693 1121 BB       		.byte	0xbb
 4694 1122 D6090000 		.4byte	0x9d6
 4695 1126 EE050000 		.4byte	.LLST46
 4696 112a 21       		.uleb128 0x21
 4697 112b 28060000 		.4byte	.LASF193
 4698 112f 01       		.byte	0x1
 4699 1130 BB       		.byte	0xbb
 4700 1131 F0020000 		.4byte	0x2f0
 4701 1135 0F060000 		.4byte	.LLST47
 4702 1139 22       		.uleb128 0x22
 4703 113a 7600     		.ascii	"v\000"
 4704 113c 01       		.byte	0x1
 4705 113d BD       		.byte	0xbd
 4706 113e 2C060000 		.4byte	0x62c
 4707 1142 23       		.uleb128 0x23
 4708 1143 0A000000 		.4byte	.LVL71
 4709 1147 57260000 		.4byte	0x2657
 4710 114b 24       		.uleb128 0x24
 4711 114c 01       		.uleb128 0x1
 4712 114d 50       		.byte	0x50
 4713 114e 03       		.uleb128 0x3
 4714 114f F3       		.byte	0xf3
 4715 1150 01       		.uleb128 0x1
 4716 1151 50       		.byte	0x50
 4717 1152 24       		.uleb128 0x24
 4718 1153 01       		.uleb128 0x1
 4719 1154 51       		.byte	0x51
 4720 1155 02       		.uleb128 0x2
 4721 1156 08       		.byte	0x8
 4722 1157 20       		.byte	0x20
 4723 1158 00       		.byte	0
 4724 1159 00       		.byte	0
 4725 115a 20       		.uleb128 0x20
 4726 115b 9C030000 		.4byte	.LASF227
 4727 115f 01       		.byte	0x1
 4728 1160 C3       		.byte	0xc3
 4729 1161 00000000 		.4byte	.LFB78
 4730 1165 0C000000 		.4byte	.LFE78-.LFB78
 4731 1169 01       		.uleb128 0x1
 4732 116a 9C       		.byte	0x9c
 4733 116b AE110000 		.4byte	0x11ae
 4734 116f 21       		.uleb128 0x21
 4735 1170 D9120000 		.4byte	.LASF202
 4736 1174 01       		.byte	0x1
 4737 1175 C3       		.byte	0xc3
 4738 1176 D6090000 		.4byte	0x9d6
 4739 117a 22060000 		.4byte	.LLST48
 4740 117e 21       		.uleb128 0x21
 4741 117f 28060000 		.4byte	.LASF193
 4742 1183 01       		.byte	0x1
ARM GAS  C:\Users\haske\AppData\Local\Temp\ccb2zsXg.s 			page 96


 4743 1184 C3       		.byte	0xc3
 4744 1185 FB020000 		.4byte	0x2fb
 4745 1189 43060000 		.4byte	.LLST49
 4746 118d 22       		.uleb128 0x22
 4747 118e 7600     		.ascii	"v\000"
 4748 1190 01       		.byte	0x1
 4749 1191 C5       		.byte	0xc5
 4750 1192 2C060000 		.4byte	0x62c
 4751 1196 23       		.uleb128 0x23
 4752 1197 0A000000 		.4byte	.LVL74
 4753 119b 57260000 		.4byte	0x2657
 4754 119f 24       		.uleb128 0x24
 4755 11a0 01       		.uleb128 0x1
 4756 11a1 50       		.byte	0x50
 4757 11a2 03       		.uleb128 0x3
 4758 11a3 F3       		.byte	0xf3
 4759 11a4 01       		.uleb128 0x1
 4760 11a5 50       		.byte	0x50
 4761 11a6 24       		.uleb128 0x24
 4762 11a7 01       		.uleb128 0x1
 4763 11a8 51       		.byte	0x51
 4764 11a9 02       		.uleb128 0x2
 4765 11aa 08       		.byte	0x8
 4766 11ab 21       		.byte	0x21
 4767 11ac 00       		.byte	0
 4768 11ad 00       		.byte	0
 4769 11ae 20       		.uleb128 0x20
 4770 11af 3F0E0000 		.4byte	.LASF228
 4771 11b3 01       		.byte	0x1
 4772 11b4 CB       		.byte	0xcb
 4773 11b5 00000000 		.4byte	.LFB79
 4774 11b9 0C000000 		.4byte	.LFE79-.LFB79
 4775 11bd 01       		.uleb128 0x1
 4776 11be 9C       		.byte	0x9c
 4777 11bf 02120000 		.4byte	0x1202
 4778 11c3 21       		.uleb128 0x21
 4779 11c4 D9120000 		.4byte	.LASF202
 4780 11c8 01       		.byte	0x1
 4781 11c9 CB       		.byte	0xcb
 4782 11ca D6090000 		.4byte	0x9d6
 4783 11ce 64060000 		.4byte	.LLST50
 4784 11d2 21       		.uleb128 0x21
 4785 11d3 28060000 		.4byte	.LASF193
 4786 11d7 01       		.byte	0x1
 4787 11d8 CB       		.byte	0xcb
 4788 11d9 F0020000 		.4byte	0x2f0
 4789 11dd 85060000 		.4byte	.LLST51
 4790 11e1 22       		.uleb128 0x22
 4791 11e2 7600     		.ascii	"v\000"
 4792 11e4 01       		.byte	0x1
 4793 11e5 CD       		.byte	0xcd
 4794 11e6 2C060000 		.4byte	0x62c
 4795 11ea 23       		.uleb128 0x23
 4796 11eb 0A000000 		.4byte	.LVL77
 4797 11ef 57260000 		.4byte	0x2657
 4798 11f3 24       		.uleb128 0x24
 4799 11f4 01       		.uleb128 0x1
ARM GAS  C:\Users\haske\AppData\Local\Temp\ccb2zsXg.s 			page 97


 4800 11f5 50       		.byte	0x50
 4801 11f6 03       		.uleb128 0x3
 4802 11f7 F3       		.byte	0xf3
 4803 11f8 01       		.uleb128 0x1
 4804 11f9 50       		.byte	0x50
 4805 11fa 24       		.uleb128 0x24
 4806 11fb 01       		.uleb128 0x1
 4807 11fc 51       		.byte	0x51
 4808 11fd 02       		.uleb128 0x2
 4809 11fe 08       		.byte	0x8
 4810 11ff 22       		.byte	0x22
 4811 1200 00       		.byte	0
 4812 1201 00       		.byte	0
 4813 1202 20       		.uleb128 0x20
 4814 1203 DF050000 		.4byte	.LASF229
 4815 1207 01       		.byte	0x1
 4816 1208 D3       		.byte	0xd3
 4817 1209 00000000 		.4byte	.LFB80
 4818 120d 0C000000 		.4byte	.LFE80-.LFB80
 4819 1211 01       		.uleb128 0x1
 4820 1212 9C       		.byte	0x9c
 4821 1213 56120000 		.4byte	0x1256
 4822 1217 21       		.uleb128 0x21
 4823 1218 D9120000 		.4byte	.LASF202
 4824 121c 01       		.byte	0x1
 4825 121d D3       		.byte	0xd3
 4826 121e D6090000 		.4byte	0x9d6
 4827 1222 98060000 		.4byte	.LLST52
 4828 1226 21       		.uleb128 0x21
 4829 1227 28060000 		.4byte	.LASF193
 4830 122b 01       		.byte	0x1
 4831 122c D3       		.byte	0xd3
 4832 122d 66050000 		.4byte	0x566
 4833 1231 B9060000 		.4byte	.LLST53
 4834 1235 22       		.uleb128 0x22
 4835 1236 7600     		.ascii	"v\000"
 4836 1238 01       		.byte	0x1
 4837 1239 D5       		.byte	0xd5
 4838 123a 2C060000 		.4byte	0x62c
 4839 123e 23       		.uleb128 0x23
 4840 123f 0A000000 		.4byte	.LVL80
 4841 1243 57260000 		.4byte	0x2657
 4842 1247 24       		.uleb128 0x24
 4843 1248 01       		.uleb128 0x1
 4844 1249 50       		.byte	0x50
 4845 124a 03       		.uleb128 0x3
 4846 124b F3       		.byte	0xf3
 4847 124c 01       		.uleb128 0x1
 4848 124d 50       		.byte	0x50
 4849 124e 24       		.uleb128 0x24
 4850 124f 01       		.uleb128 0x1
 4851 1250 51       		.byte	0x51
 4852 1251 02       		.uleb128 0x2
 4853 1252 08       		.byte	0x8
 4854 1253 23       		.byte	0x23
 4855 1254 00       		.byte	0
 4856 1255 00       		.byte	0
ARM GAS  C:\Users\haske\AppData\Local\Temp\ccb2zsXg.s 			page 98


 4857 1256 20       		.uleb128 0x20
 4858 1257 4C0F0000 		.4byte	.LASF230
 4859 125b 01       		.byte	0x1
 4860 125c DB       		.byte	0xdb
 4861 125d 00000000 		.4byte	.LFB81
 4862 1261 0C000000 		.4byte	.LFE81-.LFB81
 4863 1265 01       		.uleb128 0x1
 4864 1266 9C       		.byte	0x9c
 4865 1267 AA120000 		.4byte	0x12aa
 4866 126b 21       		.uleb128 0x21
 4867 126c D9120000 		.4byte	.LASF202
 4868 1270 01       		.byte	0x1
 4869 1271 DB       		.byte	0xdb
 4870 1272 D6090000 		.4byte	0x9d6
 4871 1276 DA060000 		.4byte	.LLST54
 4872 127a 21       		.uleb128 0x21
 4873 127b 28060000 		.4byte	.LASF193
 4874 127f 01       		.byte	0x1
 4875 1280 DB       		.byte	0xdb
 4876 1281 F6000000 		.4byte	0xf6
 4877 1285 FB060000 		.4byte	.LLST55
 4878 1289 22       		.uleb128 0x22
 4879 128a 7600     		.ascii	"v\000"
 4880 128c 01       		.byte	0x1
 4881 128d DD       		.byte	0xdd
 4882 128e 2C060000 		.4byte	0x62c
 4883 1292 23       		.uleb128 0x23
 4884 1293 0A000000 		.4byte	.LVL83
 4885 1297 57260000 		.4byte	0x2657
 4886 129b 24       		.uleb128 0x24
 4887 129c 01       		.uleb128 0x1
 4888 129d 50       		.byte	0x50
 4889 129e 03       		.uleb128 0x3
 4890 129f F3       		.byte	0xf3
 4891 12a0 01       		.uleb128 0x1
 4892 12a1 50       		.byte	0x50
 4893 12a2 24       		.uleb128 0x24
 4894 12a3 01       		.uleb128 0x1
 4895 12a4 51       		.byte	0x51
 4896 12a5 02       		.uleb128 0x2
 4897 12a6 08       		.byte	0x8
 4898 12a7 24       		.byte	0x24
 4899 12a8 00       		.byte	0
 4900 12a9 00       		.byte	0
 4901 12aa 20       		.uleb128 0x20
 4902 12ab 850E0000 		.4byte	.LASF231
 4903 12af 01       		.byte	0x1
 4904 12b0 E3       		.byte	0xe3
 4905 12b1 00000000 		.4byte	.LFB82
 4906 12b5 0C000000 		.4byte	.LFE82-.LFB82
 4907 12b9 01       		.uleb128 0x1
 4908 12ba 9C       		.byte	0x9c
 4909 12bb FE120000 		.4byte	0x12fe
 4910 12bf 21       		.uleb128 0x21
 4911 12c0 D9120000 		.4byte	.LASF202
 4912 12c4 01       		.byte	0x1
 4913 12c5 E3       		.byte	0xe3
ARM GAS  C:\Users\haske\AppData\Local\Temp\ccb2zsXg.s 			page 99


 4914 12c6 D6090000 		.4byte	0x9d6
 4915 12ca 1C070000 		.4byte	.LLST56
 4916 12ce 21       		.uleb128 0x21
 4917 12cf 28060000 		.4byte	.LASF193
 4918 12d3 01       		.byte	0x1
 4919 12d4 E3       		.byte	0xe3
 4920 12d5 F6000000 		.4byte	0xf6
 4921 12d9 3D070000 		.4byte	.LLST57
 4922 12dd 22       		.uleb128 0x22
 4923 12de 7600     		.ascii	"v\000"
 4924 12e0 01       		.byte	0x1
 4925 12e1 E5       		.byte	0xe5
 4926 12e2 2C060000 		.4byte	0x62c
 4927 12e6 23       		.uleb128 0x23
 4928 12e7 0A000000 		.4byte	.LVL86
 4929 12eb 57260000 		.4byte	0x2657
 4930 12ef 24       		.uleb128 0x24
 4931 12f0 01       		.uleb128 0x1
 4932 12f1 50       		.byte	0x50
 4933 12f2 03       		.uleb128 0x3
 4934 12f3 F3       		.byte	0xf3
 4935 12f4 01       		.uleb128 0x1
 4936 12f5 50       		.byte	0x50
 4937 12f6 24       		.uleb128 0x24
 4938 12f7 01       		.uleb128 0x1
 4939 12f8 51       		.byte	0x51
 4940 12f9 02       		.uleb128 0x2
 4941 12fa 08       		.byte	0x8
 4942 12fb 25       		.byte	0x25
 4943 12fc 00       		.byte	0
 4944 12fd 00       		.byte	0
 4945 12fe 20       		.uleb128 0x20
 4946 12ff AD070000 		.4byte	.LASF232
 4947 1303 01       		.byte	0x1
 4948 1304 EB       		.byte	0xeb
 4949 1305 00000000 		.4byte	.LFB83
 4950 1309 0C000000 		.4byte	.LFE83-.LFB83
 4951 130d 01       		.uleb128 0x1
 4952 130e 9C       		.byte	0x9c
 4953 130f 59130000 		.4byte	0x1359
 4954 1313 21       		.uleb128 0x21
 4955 1314 D9120000 		.4byte	.LASF202
 4956 1318 01       		.byte	0x1
 4957 1319 EB       		.byte	0xeb
 4958 131a D6090000 		.4byte	0x9d6
 4959 131e 5E070000 		.4byte	.LLST58
 4960 1322 21       		.uleb128 0x21
 4961 1323 28060000 		.4byte	.LASF193
 4962 1327 01       		.byte	0x1
 4963 1328 EB       		.byte	0xeb
 4964 1329 59130000 		.4byte	0x1359
 4965 132d 7F070000 		.4byte	.LLST59
 4966 1331 22       		.uleb128 0x22
 4967 1332 7600     		.ascii	"v\000"
 4968 1334 01       		.byte	0x1
 4969 1335 ED       		.byte	0xed
 4970 1336 2C060000 		.4byte	0x62c
ARM GAS  C:\Users\haske\AppData\Local\Temp\ccb2zsXg.s 			page 100


 4971 133a 23       		.uleb128 0x23
 4972 133b 0A000000 		.4byte	.LVL89
 4973 133f 57260000 		.4byte	0x2657
 4974 1343 24       		.uleb128 0x24
 4975 1344 01       		.uleb128 0x1
 4976 1345 50       		.byte	0x50
 4977 1346 03       		.uleb128 0x3
 4978 1347 F3       		.byte	0xf3
 4979 1348 01       		.uleb128 0x1
 4980 1349 50       		.byte	0x50
 4981 134a 24       		.uleb128 0x24
 4982 134b 01       		.uleb128 0x1
 4983 134c 51       		.byte	0x51
 4984 134d 02       		.uleb128 0x2
 4985 134e 08       		.byte	0x8
 4986 134f 26       		.byte	0x26
 4987 1350 24       		.uleb128 0x24
 4988 1351 01       		.uleb128 0x1
 4989 1352 52       		.byte	0x52
 4990 1353 03       		.uleb128 0x3
 4991 1354 F3       		.byte	0xf3
 4992 1355 01       		.uleb128 0x1
 4993 1356 51       		.byte	0x51
 4994 1357 00       		.byte	0
 4995 1358 00       		.byte	0
 4996 1359 0B       		.uleb128 0xb
 4997 135a 04       		.byte	0x4
 4998 135b 5F130000 		.4byte	0x135f
 4999 135f 0C       		.uleb128 0xc
 5000 1360 F7050000 		.4byte	0x5f7
 5001 1364 20       		.uleb128 0x20
 5002 1365 020A0000 		.4byte	.LASF233
 5003 1369 01       		.byte	0x1
 5004 136a F3       		.byte	0xf3
 5005 136b 00000000 		.4byte	.LFB84
 5006 136f 0C000000 		.4byte	.LFE84-.LFB84
 5007 1373 01       		.uleb128 0x1
 5008 1374 9C       		.byte	0x9c
 5009 1375 B8130000 		.4byte	0x13b8
 5010 1379 21       		.uleb128 0x21
 5011 137a D9120000 		.4byte	.LASF202
 5012 137e 01       		.byte	0x1
 5013 137f F3       		.byte	0xf3
 5014 1380 D6090000 		.4byte	0x9d6
 5015 1384 AB070000 		.4byte	.LLST60
 5016 1388 21       		.uleb128 0x21
 5017 1389 28060000 		.4byte	.LASF193
 5018 138d 01       		.byte	0x1
 5019 138e F3       		.byte	0xf3
 5020 138f 71050000 		.4byte	0x571
 5021 1393 CC070000 		.4byte	.LLST61
 5022 1397 22       		.uleb128 0x22
 5023 1398 7600     		.ascii	"v\000"
 5024 139a 01       		.byte	0x1
 5025 139b F5       		.byte	0xf5
 5026 139c 2C060000 		.4byte	0x62c
 5027 13a0 23       		.uleb128 0x23
ARM GAS  C:\Users\haske\AppData\Local\Temp\ccb2zsXg.s 			page 101


 5028 13a1 0A000000 		.4byte	.LVL92
 5029 13a5 57260000 		.4byte	0x2657
 5030 13a9 24       		.uleb128 0x24
 5031 13aa 01       		.uleb128 0x1
 5032 13ab 50       		.byte	0x50
 5033 13ac 03       		.uleb128 0x3
 5034 13ad F3       		.byte	0xf3
 5035 13ae 01       		.uleb128 0x1
 5036 13af 50       		.byte	0x50
 5037 13b0 24       		.uleb128 0x24
 5038 13b1 01       		.uleb128 0x1
 5039 13b2 51       		.byte	0x51
 5040 13b3 02       		.uleb128 0x2
 5041 13b4 08       		.byte	0x8
 5042 13b5 27       		.byte	0x27
 5043 13b6 00       		.byte	0
 5044 13b7 00       		.byte	0
 5045 13b8 20       		.uleb128 0x20
 5046 13b9 2E060000 		.4byte	.LASF234
 5047 13bd 01       		.byte	0x1
 5048 13be FB       		.byte	0xfb
 5049 13bf 00000000 		.4byte	.LFB85
 5050 13c3 0C000000 		.4byte	.LFE85-.LFB85
 5051 13c7 01       		.uleb128 0x1
 5052 13c8 9C       		.byte	0x9c
 5053 13c9 13140000 		.4byte	0x1413
 5054 13cd 21       		.uleb128 0x21
 5055 13ce D9120000 		.4byte	.LASF202
 5056 13d2 01       		.byte	0x1
 5057 13d3 FB       		.byte	0xfb
 5058 13d4 D6090000 		.4byte	0x9d6
 5059 13d8 ED070000 		.4byte	.LLST62
 5060 13dc 21       		.uleb128 0x21
 5061 13dd 28060000 		.4byte	.LASF193
 5062 13e1 01       		.byte	0x1
 5063 13e2 FB       		.byte	0xfb
 5064 13e3 6F020000 		.4byte	0x26f
 5065 13e7 0E080000 		.4byte	.LLST63
 5066 13eb 22       		.uleb128 0x22
 5067 13ec 7600     		.ascii	"v\000"
 5068 13ee 01       		.byte	0x1
 5069 13ef FD       		.byte	0xfd
 5070 13f0 2C060000 		.4byte	0x62c
 5071 13f4 23       		.uleb128 0x23
 5072 13f5 0A000000 		.4byte	.LVL95
 5073 13f9 57260000 		.4byte	0x2657
 5074 13fd 24       		.uleb128 0x24
 5075 13fe 01       		.uleb128 0x1
 5076 13ff 50       		.byte	0x50
 5077 1400 03       		.uleb128 0x3
 5078 1401 F3       		.byte	0xf3
 5079 1402 01       		.uleb128 0x1
 5080 1403 50       		.byte	0x50
 5081 1404 24       		.uleb128 0x24
 5082 1405 01       		.uleb128 0x1
 5083 1406 51       		.byte	0x51
 5084 1407 02       		.uleb128 0x2
ARM GAS  C:\Users\haske\AppData\Local\Temp\ccb2zsXg.s 			page 102


 5085 1408 08       		.byte	0x8
 5086 1409 28       		.byte	0x28
 5087 140a 24       		.uleb128 0x24
 5088 140b 01       		.uleb128 0x1
 5089 140c 52       		.byte	0x52
 5090 140d 03       		.uleb128 0x3
 5091 140e F3       		.byte	0xf3
 5092 140f 01       		.uleb128 0x1
 5093 1410 51       		.byte	0x51
 5094 1411 00       		.byte	0
 5095 1412 00       		.byte	0
 5096 1413 25       		.uleb128 0x25
 5097 1414 C60C0000 		.4byte	.LASF235
 5098 1418 01       		.byte	0x1
 5099 1419 0301     		.2byte	0x103
 5100 141b 00000000 		.4byte	.LFB86
 5101 141f 0C000000 		.4byte	.LFE86-.LFB86
 5102 1423 01       		.uleb128 0x1
 5103 1424 9C       		.byte	0x9c
 5104 1425 6B140000 		.4byte	0x146b
 5105 1429 26       		.uleb128 0x26
 5106 142a D9120000 		.4byte	.LASF202
 5107 142e 01       		.byte	0x1
 5108 142f 0301     		.2byte	0x103
 5109 1431 D6090000 		.4byte	0x9d6
 5110 1435 3A080000 		.4byte	.LLST64
 5111 1439 26       		.uleb128 0x26
 5112 143a 28060000 		.4byte	.LASF193
 5113 143e 01       		.byte	0x1
 5114 143f 0301     		.2byte	0x103
 5115 1441 FB020000 		.4byte	0x2fb
 5116 1445 5B080000 		.4byte	.LLST65
 5117 1449 27       		.uleb128 0x27
 5118 144a 7600     		.ascii	"v\000"
 5119 144c 01       		.byte	0x1
 5120 144d 0501     		.2byte	0x105
 5121 144f 2C060000 		.4byte	0x62c
 5122 1453 23       		.uleb128 0x23
 5123 1454 0A000000 		.4byte	.LVL98
 5124 1458 57260000 		.4byte	0x2657
 5125 145c 24       		.uleb128 0x24
 5126 145d 01       		.uleb128 0x1
 5127 145e 50       		.byte	0x50
 5128 145f 03       		.uleb128 0x3
 5129 1460 F3       		.byte	0xf3
 5130 1461 01       		.uleb128 0x1
 5131 1462 50       		.byte	0x50
 5132 1463 24       		.uleb128 0x24
 5133 1464 01       		.uleb128 0x1
 5134 1465 51       		.byte	0x51
 5135 1466 02       		.uleb128 0x2
 5136 1467 08       		.byte	0x8
 5137 1468 29       		.byte	0x29
 5138 1469 00       		.byte	0
 5139 146a 00       		.byte	0
 5140 146b 25       		.uleb128 0x25
 5141 146c EE030000 		.4byte	.LASF236
ARM GAS  C:\Users\haske\AppData\Local\Temp\ccb2zsXg.s 			page 103


 5142 1470 01       		.byte	0x1
 5143 1471 0B01     		.2byte	0x10b
 5144 1473 00000000 		.4byte	.LFB87
 5145 1477 0C000000 		.4byte	.LFE87-.LFB87
 5146 147b 01       		.uleb128 0x1
 5147 147c 9C       		.byte	0x9c
 5148 147d C3140000 		.4byte	0x14c3
 5149 1481 26       		.uleb128 0x26
 5150 1482 D9120000 		.4byte	.LASF202
 5151 1486 01       		.byte	0x1
 5152 1487 0B01     		.2byte	0x10b
 5153 1489 D6090000 		.4byte	0x9d6
 5154 148d 7C080000 		.4byte	.LLST66
 5155 1491 26       		.uleb128 0x26
 5156 1492 28060000 		.4byte	.LASF193
 5157 1496 01       		.byte	0x1
 5158 1497 0B01     		.2byte	0x10b
 5159 1499 F0020000 		.4byte	0x2f0
 5160 149d 9D080000 		.4byte	.LLST67
 5161 14a1 27       		.uleb128 0x27
 5162 14a2 7600     		.ascii	"v\000"
 5163 14a4 01       		.byte	0x1
 5164 14a5 0D01     		.2byte	0x10d
 5165 14a7 2C060000 		.4byte	0x62c
 5166 14ab 23       		.uleb128 0x23
 5167 14ac 0A000000 		.4byte	.LVL101
 5168 14b0 57260000 		.4byte	0x2657
 5169 14b4 24       		.uleb128 0x24
 5170 14b5 01       		.uleb128 0x1
 5171 14b6 50       		.byte	0x50
 5172 14b7 03       		.uleb128 0x3
 5173 14b8 F3       		.byte	0xf3
 5174 14b9 01       		.uleb128 0x1
 5175 14ba 50       		.byte	0x50
 5176 14bb 24       		.uleb128 0x24
 5177 14bc 01       		.uleb128 0x1
 5178 14bd 51       		.byte	0x51
 5179 14be 02       		.uleb128 0x2
 5180 14bf 08       		.byte	0x8
 5181 14c0 2A       		.byte	0x2a
 5182 14c1 00       		.byte	0
 5183 14c2 00       		.byte	0
 5184 14c3 25       		.uleb128 0x25
 5185 14c4 070E0000 		.4byte	.LASF237
 5186 14c8 01       		.byte	0x1
 5187 14c9 1301     		.2byte	0x113
 5188 14cb 00000000 		.4byte	.LFB88
 5189 14cf 0C000000 		.4byte	.LFE88-.LFB88
 5190 14d3 01       		.uleb128 0x1
 5191 14d4 9C       		.byte	0x9c
 5192 14d5 1B150000 		.4byte	0x151b
 5193 14d9 26       		.uleb128 0x26
 5194 14da D9120000 		.4byte	.LASF202
 5195 14de 01       		.byte	0x1
 5196 14df 1301     		.2byte	0x113
 5197 14e1 D6090000 		.4byte	0x9d6
 5198 14e5 B0080000 		.4byte	.LLST68
ARM GAS  C:\Users\haske\AppData\Local\Temp\ccb2zsXg.s 			page 104


 5199 14e9 26       		.uleb128 0x26
 5200 14ea 28060000 		.4byte	.LASF193
 5201 14ee 01       		.byte	0x1
 5202 14ef 1301     		.2byte	0x113
 5203 14f1 FB020000 		.4byte	0x2fb
 5204 14f5 D1080000 		.4byte	.LLST69
 5205 14f9 27       		.uleb128 0x27
 5206 14fa 7600     		.ascii	"v\000"
 5207 14fc 01       		.byte	0x1
 5208 14fd 1501     		.2byte	0x115
 5209 14ff 2C060000 		.4byte	0x62c
 5210 1503 23       		.uleb128 0x23
 5211 1504 0A000000 		.4byte	.LVL104
 5212 1508 57260000 		.4byte	0x2657
 5213 150c 24       		.uleb128 0x24
 5214 150d 01       		.uleb128 0x1
 5215 150e 50       		.byte	0x50
 5216 150f 03       		.uleb128 0x3
 5217 1510 F3       		.byte	0xf3
 5218 1511 01       		.uleb128 0x1
 5219 1512 50       		.byte	0x50
 5220 1513 24       		.uleb128 0x24
 5221 1514 01       		.uleb128 0x1
 5222 1515 51       		.byte	0x51
 5223 1516 02       		.uleb128 0x2
 5224 1517 08       		.byte	0x8
 5225 1518 2B       		.byte	0x2b
 5226 1519 00       		.byte	0
 5227 151a 00       		.byte	0
 5228 151b 25       		.uleb128 0x25
 5229 151c 39100000 		.4byte	.LASF238
 5230 1520 01       		.byte	0x1
 5231 1521 1B01     		.2byte	0x11b
 5232 1523 00000000 		.4byte	.LFB89
 5233 1527 0C000000 		.4byte	.LFE89-.LFB89
 5234 152b 01       		.uleb128 0x1
 5235 152c 9C       		.byte	0x9c
 5236 152d 73150000 		.4byte	0x1573
 5237 1531 26       		.uleb128 0x26
 5238 1532 D9120000 		.4byte	.LASF202
 5239 1536 01       		.byte	0x1
 5240 1537 1B01     		.2byte	0x11b
 5241 1539 D6090000 		.4byte	0x9d6
 5242 153d F2080000 		.4byte	.LLST70
 5243 1541 26       		.uleb128 0x26
 5244 1542 28060000 		.4byte	.LASF193
 5245 1546 01       		.byte	0x1
 5246 1547 1B01     		.2byte	0x11b
 5247 1549 37020000 		.4byte	0x237
 5248 154d 13090000 		.4byte	.LLST71
 5249 1551 27       		.uleb128 0x27
 5250 1552 7600     		.ascii	"v\000"
 5251 1554 01       		.byte	0x1
 5252 1555 1D01     		.2byte	0x11d
 5253 1557 2C060000 		.4byte	0x62c
 5254 155b 23       		.uleb128 0x23
 5255 155c 0A000000 		.4byte	.LVL107
ARM GAS  C:\Users\haske\AppData\Local\Temp\ccb2zsXg.s 			page 105


 5256 1560 57260000 		.4byte	0x2657
 5257 1564 24       		.uleb128 0x24
 5258 1565 01       		.uleb128 0x1
 5259 1566 50       		.byte	0x50
 5260 1567 03       		.uleb128 0x3
 5261 1568 F3       		.byte	0xf3
 5262 1569 01       		.uleb128 0x1
 5263 156a 50       		.byte	0x50
 5264 156b 24       		.uleb128 0x24
 5265 156c 01       		.uleb128 0x1
 5266 156d 51       		.byte	0x51
 5267 156e 02       		.uleb128 0x2
 5268 156f 08       		.byte	0x8
 5269 1570 2C       		.byte	0x2c
 5270 1571 00       		.byte	0
 5271 1572 00       		.byte	0
 5272 1573 25       		.uleb128 0x25
 5273 1574 61090000 		.4byte	.LASF239
 5274 1578 01       		.byte	0x1
 5275 1579 2301     		.2byte	0x123
 5276 157b 00000000 		.4byte	.LFB90
 5277 157f 0C000000 		.4byte	.LFE90-.LFB90
 5278 1583 01       		.uleb128 0x1
 5279 1584 9C       		.byte	0x9c
 5280 1585 CB150000 		.4byte	0x15cb
 5281 1589 26       		.uleb128 0x26
 5282 158a D9120000 		.4byte	.LASF202
 5283 158e 01       		.byte	0x1
 5284 158f 2301     		.2byte	0x123
 5285 1591 D6090000 		.4byte	0x9d6
 5286 1595 34090000 		.4byte	.LLST72
 5287 1599 26       		.uleb128 0x26
 5288 159a 28060000 		.4byte	.LASF193
 5289 159e 01       		.byte	0x1
 5290 159f 2301     		.2byte	0x123
 5291 15a1 F0020000 		.4byte	0x2f0
 5292 15a5 55090000 		.4byte	.LLST73
 5293 15a9 27       		.uleb128 0x27
 5294 15aa 7600     		.ascii	"v\000"
 5295 15ac 01       		.byte	0x1
 5296 15ad 2501     		.2byte	0x125
 5297 15af 2C060000 		.4byte	0x62c
 5298 15b3 23       		.uleb128 0x23
 5299 15b4 0A000000 		.4byte	.LVL110
 5300 15b8 57260000 		.4byte	0x2657
 5301 15bc 24       		.uleb128 0x24
 5302 15bd 01       		.uleb128 0x1
 5303 15be 50       		.byte	0x50
 5304 15bf 03       		.uleb128 0x3
 5305 15c0 F3       		.byte	0xf3
 5306 15c1 01       		.uleb128 0x1
 5307 15c2 50       		.byte	0x50
 5308 15c3 24       		.uleb128 0x24
 5309 15c4 01       		.uleb128 0x1
 5310 15c5 51       		.byte	0x51
 5311 15c6 02       		.uleb128 0x2
 5312 15c7 08       		.byte	0x8
ARM GAS  C:\Users\haske\AppData\Local\Temp\ccb2zsXg.s 			page 106


 5313 15c8 30       		.byte	0x30
 5314 15c9 00       		.byte	0
 5315 15ca 00       		.byte	0
 5316 15cb 25       		.uleb128 0x25
 5317 15cc 83070000 		.4byte	.LASF240
 5318 15d0 01       		.byte	0x1
 5319 15d1 2B01     		.2byte	0x12b
 5320 15d3 00000000 		.4byte	.LFB91
 5321 15d7 0C000000 		.4byte	.LFE91-.LFB91
 5322 15db 01       		.uleb128 0x1
 5323 15dc 9C       		.byte	0x9c
 5324 15dd 23160000 		.4byte	0x1623
 5325 15e1 26       		.uleb128 0x26
 5326 15e2 D9120000 		.4byte	.LASF202
 5327 15e6 01       		.byte	0x1
 5328 15e7 2B01     		.2byte	0x12b
 5329 15e9 D6090000 		.4byte	0x9d6
 5330 15ed 68090000 		.4byte	.LLST74
 5331 15f1 26       		.uleb128 0x26
 5332 15f2 28060000 		.4byte	.LASF193
 5333 15f6 01       		.byte	0x1
 5334 15f7 2B01     		.2byte	0x12b
 5335 15f9 FB020000 		.4byte	0x2fb
 5336 15fd 89090000 		.4byte	.LLST75
 5337 1601 27       		.uleb128 0x27
 5338 1602 7600     		.ascii	"v\000"
 5339 1604 01       		.byte	0x1
 5340 1605 2D01     		.2byte	0x12d
 5341 1607 2C060000 		.4byte	0x62c
 5342 160b 23       		.uleb128 0x23
 5343 160c 0A000000 		.4byte	.LVL113
 5344 1610 57260000 		.4byte	0x2657
 5345 1614 24       		.uleb128 0x24
 5346 1615 01       		.uleb128 0x1
 5347 1616 50       		.byte	0x50
 5348 1617 03       		.uleb128 0x3
 5349 1618 F3       		.byte	0xf3
 5350 1619 01       		.uleb128 0x1
 5351 161a 50       		.byte	0x50
 5352 161b 24       		.uleb128 0x24
 5353 161c 01       		.uleb128 0x1
 5354 161d 51       		.byte	0x51
 5355 161e 02       		.uleb128 0x2
 5356 161f 08       		.byte	0x8
 5357 1620 31       		.byte	0x31
 5358 1621 00       		.byte	0
 5359 1622 00       		.byte	0
 5360 1623 25       		.uleb128 0x25
 5361 1624 C5090000 		.4byte	.LASF241
 5362 1628 01       		.byte	0x1
 5363 1629 3301     		.2byte	0x133
 5364 162b 00000000 		.4byte	.LFB92
 5365 162f 0C000000 		.4byte	.LFE92-.LFB92
 5366 1633 01       		.uleb128 0x1
 5367 1634 9C       		.byte	0x9c
 5368 1635 7B160000 		.4byte	0x167b
 5369 1639 26       		.uleb128 0x26
ARM GAS  C:\Users\haske\AppData\Local\Temp\ccb2zsXg.s 			page 107


 5370 163a D9120000 		.4byte	.LASF202
 5371 163e 01       		.byte	0x1
 5372 163f 3301     		.2byte	0x133
 5373 1641 D6090000 		.4byte	0x9d6
 5374 1645 AA090000 		.4byte	.LLST76
 5375 1649 26       		.uleb128 0x26
 5376 164a 28060000 		.4byte	.LASF193
 5377 164e 01       		.byte	0x1
 5378 164f 3301     		.2byte	0x133
 5379 1651 F6000000 		.4byte	0xf6
 5380 1655 CB090000 		.4byte	.LLST77
 5381 1659 27       		.uleb128 0x27
 5382 165a 7600     		.ascii	"v\000"
 5383 165c 01       		.byte	0x1
 5384 165d 3501     		.2byte	0x135
 5385 165f 2C060000 		.4byte	0x62c
 5386 1663 23       		.uleb128 0x23
 5387 1664 0A000000 		.4byte	.LVL116
 5388 1668 57260000 		.4byte	0x2657
 5389 166c 24       		.uleb128 0x24
 5390 166d 01       		.uleb128 0x1
 5391 166e 50       		.byte	0x50
 5392 166f 03       		.uleb128 0x3
 5393 1670 F3       		.byte	0xf3
 5394 1671 01       		.uleb128 0x1
 5395 1672 50       		.byte	0x50
 5396 1673 24       		.uleb128 0x24
 5397 1674 01       		.uleb128 0x1
 5398 1675 51       		.byte	0x51
 5399 1676 02       		.uleb128 0x2
 5400 1677 08       		.byte	0x8
 5401 1678 32       		.byte	0x32
 5402 1679 00       		.byte	0
 5403 167a 00       		.byte	0
 5404 167b 25       		.uleb128 0x25
 5405 167c AC090000 		.4byte	.LASF242
 5406 1680 01       		.byte	0x1
 5407 1681 3B01     		.2byte	0x13b
 5408 1683 00000000 		.4byte	.LFB93
 5409 1687 0C000000 		.4byte	.LFE93-.LFB93
 5410 168b 01       		.uleb128 0x1
 5411 168c 9C       		.byte	0x9c
 5412 168d D3160000 		.4byte	0x16d3
 5413 1691 26       		.uleb128 0x26
 5414 1692 D9120000 		.4byte	.LASF202
 5415 1696 01       		.byte	0x1
 5416 1697 3B01     		.2byte	0x13b
 5417 1699 D6090000 		.4byte	0x9d6
 5418 169d EC090000 		.4byte	.LLST78
 5419 16a1 26       		.uleb128 0x26
 5420 16a2 28060000 		.4byte	.LASF193
 5421 16a6 01       		.byte	0x1
 5422 16a7 3B01     		.2byte	0x13b
 5423 16a9 5B050000 		.4byte	0x55b
 5424 16ad 0D0A0000 		.4byte	.LLST79
 5425 16b1 27       		.uleb128 0x27
 5426 16b2 7600     		.ascii	"v\000"
ARM GAS  C:\Users\haske\AppData\Local\Temp\ccb2zsXg.s 			page 108


 5427 16b4 01       		.byte	0x1
 5428 16b5 3D01     		.2byte	0x13d
 5429 16b7 2C060000 		.4byte	0x62c
 5430 16bb 23       		.uleb128 0x23
 5431 16bc 0A000000 		.4byte	.LVL119
 5432 16c0 57260000 		.4byte	0x2657
 5433 16c4 24       		.uleb128 0x24
 5434 16c5 01       		.uleb128 0x1
 5435 16c6 50       		.byte	0x50
 5436 16c7 03       		.uleb128 0x3
 5437 16c8 F3       		.byte	0xf3
 5438 16c9 01       		.uleb128 0x1
 5439 16ca 50       		.byte	0x50
 5440 16cb 24       		.uleb128 0x24
 5441 16cc 01       		.uleb128 0x1
 5442 16cd 51       		.byte	0x51
 5443 16ce 02       		.uleb128 0x2
 5444 16cf 08       		.byte	0x8
 5445 16d0 33       		.byte	0x33
 5446 16d1 00       		.byte	0
 5447 16d2 00       		.byte	0
 5448 16d3 25       		.uleb128 0x25
 5449 16d4 0A010000 		.4byte	.LASF243
 5450 16d8 01       		.byte	0x1
 5451 16d9 4301     		.2byte	0x143
 5452 16db 00000000 		.4byte	.LFB94
 5453 16df 0C000000 		.4byte	.LFE94-.LFB94
 5454 16e3 01       		.uleb128 0x1
 5455 16e4 9C       		.byte	0x9c
 5456 16e5 2B170000 		.4byte	0x172b
 5457 16e9 26       		.uleb128 0x26
 5458 16ea D9120000 		.4byte	.LASF202
 5459 16ee 01       		.byte	0x1
 5460 16ef 4301     		.2byte	0x143
 5461 16f1 D6090000 		.4byte	0x9d6
 5462 16f5 2E0A0000 		.4byte	.LLST80
 5463 16f9 26       		.uleb128 0x26
 5464 16fa 28060000 		.4byte	.LASF193
 5465 16fe 01       		.byte	0x1
 5466 16ff 4301     		.2byte	0x143
 5467 1701 37020000 		.4byte	0x237
 5468 1705 4F0A0000 		.4byte	.LLST81
 5469 1709 27       		.uleb128 0x27
 5470 170a 7600     		.ascii	"v\000"
 5471 170c 01       		.byte	0x1
 5472 170d 4501     		.2byte	0x145
 5473 170f 2C060000 		.4byte	0x62c
 5474 1713 23       		.uleb128 0x23
 5475 1714 0A000000 		.4byte	.LVL122
 5476 1718 57260000 		.4byte	0x2657
 5477 171c 24       		.uleb128 0x24
 5478 171d 01       		.uleb128 0x1
 5479 171e 50       		.byte	0x50
 5480 171f 03       		.uleb128 0x3
 5481 1720 F3       		.byte	0xf3
 5482 1721 01       		.uleb128 0x1
 5483 1722 50       		.byte	0x50
ARM GAS  C:\Users\haske\AppData\Local\Temp\ccb2zsXg.s 			page 109


 5484 1723 24       		.uleb128 0x24
 5485 1724 01       		.uleb128 0x1
 5486 1725 51       		.byte	0x51
 5487 1726 02       		.uleb128 0x2
 5488 1727 08       		.byte	0x8
 5489 1728 34       		.byte	0x34
 5490 1729 00       		.byte	0
 5491 172a 00       		.byte	0
 5492 172b 25       		.uleb128 0x25
 5493 172c 0D120000 		.4byte	.LASF244
 5494 1730 01       		.byte	0x1
 5495 1731 4B01     		.2byte	0x14b
 5496 1733 00000000 		.4byte	.LFB95
 5497 1737 0C000000 		.4byte	.LFE95-.LFB95
 5498 173b 01       		.uleb128 0x1
 5499 173c 9C       		.byte	0x9c
 5500 173d 83170000 		.4byte	0x1783
 5501 1741 26       		.uleb128 0x26
 5502 1742 D9120000 		.4byte	.LASF202
 5503 1746 01       		.byte	0x1
 5504 1747 4B01     		.2byte	0x14b
 5505 1749 D6090000 		.4byte	0x9d6
 5506 174d 700A0000 		.4byte	.LLST82
 5507 1751 26       		.uleb128 0x26
 5508 1752 28060000 		.4byte	.LASF193
 5509 1756 01       		.byte	0x1
 5510 1757 4B01     		.2byte	0x14b
 5511 1759 F6000000 		.4byte	0xf6
 5512 175d 910A0000 		.4byte	.LLST83
 5513 1761 27       		.uleb128 0x27
 5514 1762 7600     		.ascii	"v\000"
 5515 1764 01       		.byte	0x1
 5516 1765 4D01     		.2byte	0x14d
 5517 1767 2C060000 		.4byte	0x62c
 5518 176b 23       		.uleb128 0x23
 5519 176c 0A000000 		.4byte	.LVL125
 5520 1770 57260000 		.4byte	0x2657
 5521 1774 24       		.uleb128 0x24
 5522 1775 01       		.uleb128 0x1
 5523 1776 50       		.byte	0x50
 5524 1777 03       		.uleb128 0x3
 5525 1778 F3       		.byte	0xf3
 5526 1779 01       		.uleb128 0x1
 5527 177a 50       		.byte	0x50
 5528 177b 24       		.uleb128 0x24
 5529 177c 01       		.uleb128 0x1
 5530 177d 51       		.byte	0x51
 5531 177e 02       		.uleb128 0x2
 5532 177f 08       		.byte	0x8
 5533 1780 35       		.byte	0x35
 5534 1781 00       		.byte	0
 5535 1782 00       		.byte	0
 5536 1783 25       		.uleb128 0x25
 5537 1784 EA010000 		.4byte	.LASF245
 5538 1788 01       		.byte	0x1
 5539 1789 5301     		.2byte	0x153
 5540 178b 00000000 		.4byte	.LFB96
ARM GAS  C:\Users\haske\AppData\Local\Temp\ccb2zsXg.s 			page 110


 5541 178f 0C000000 		.4byte	.LFE96-.LFB96
 5542 1793 01       		.uleb128 0x1
 5543 1794 9C       		.byte	0x9c
 5544 1795 DB170000 		.4byte	0x17db
 5545 1799 26       		.uleb128 0x26
 5546 179a D9120000 		.4byte	.LASF202
 5547 179e 01       		.byte	0x1
 5548 179f 5301     		.2byte	0x153
 5549 17a1 D6090000 		.4byte	0x9d6
 5550 17a5 B20A0000 		.4byte	.LLST84
 5551 17a9 26       		.uleb128 0x26
 5552 17aa 28060000 		.4byte	.LASF193
 5553 17ae 01       		.byte	0x1
 5554 17af 5301     		.2byte	0x153
 5555 17b1 F0020000 		.4byte	0x2f0
 5556 17b5 D30A0000 		.4byte	.LLST85
 5557 17b9 27       		.uleb128 0x27
 5558 17ba 7600     		.ascii	"v\000"
 5559 17bc 01       		.byte	0x1
 5560 17bd 5501     		.2byte	0x155
 5561 17bf 2C060000 		.4byte	0x62c
 5562 17c3 23       		.uleb128 0x23
 5563 17c4 0A000000 		.4byte	.LVL128
 5564 17c8 57260000 		.4byte	0x2657
 5565 17cc 24       		.uleb128 0x24
 5566 17cd 01       		.uleb128 0x1
 5567 17ce 50       		.byte	0x50
 5568 17cf 03       		.uleb128 0x3
 5569 17d0 F3       		.byte	0xf3
 5570 17d1 01       		.uleb128 0x1
 5571 17d2 50       		.byte	0x50
 5572 17d3 24       		.uleb128 0x24
 5573 17d4 01       		.uleb128 0x1
 5574 17d5 51       		.byte	0x51
 5575 17d6 02       		.uleb128 0x2
 5576 17d7 08       		.byte	0x8
 5577 17d8 36       		.byte	0x36
 5578 17d9 00       		.byte	0
 5579 17da 00       		.byte	0
 5580 17db 25       		.uleb128 0x25
 5581 17dc 550A0000 		.4byte	.LASF246
 5582 17e0 01       		.byte	0x1
 5583 17e1 5B01     		.2byte	0x15b
 5584 17e3 00000000 		.4byte	.LFB97
 5585 17e7 0C000000 		.4byte	.LFE97-.LFB97
 5586 17eb 01       		.uleb128 0x1
 5587 17ec 9C       		.byte	0x9c
 5588 17ed 33180000 		.4byte	0x1833
 5589 17f1 26       		.uleb128 0x26
 5590 17f2 D9120000 		.4byte	.LASF202
 5591 17f6 01       		.byte	0x1
 5592 17f7 5B01     		.2byte	0x15b
 5593 17f9 D6090000 		.4byte	0x9d6
 5594 17fd E60A0000 		.4byte	.LLST86
 5595 1801 26       		.uleb128 0x26
 5596 1802 28060000 		.4byte	.LASF193
 5597 1806 01       		.byte	0x1
ARM GAS  C:\Users\haske\AppData\Local\Temp\ccb2zsXg.s 			page 111


 5598 1807 5B01     		.2byte	0x15b
 5599 1809 FB020000 		.4byte	0x2fb
 5600 180d 070B0000 		.4byte	.LLST87
 5601 1811 27       		.uleb128 0x27
 5602 1812 7600     		.ascii	"v\000"
 5603 1814 01       		.byte	0x1
 5604 1815 5D01     		.2byte	0x15d
 5605 1817 2C060000 		.4byte	0x62c
 5606 181b 23       		.uleb128 0x23
 5607 181c 0A000000 		.4byte	.LVL131
 5608 1820 57260000 		.4byte	0x2657
 5609 1824 24       		.uleb128 0x24
 5610 1825 01       		.uleb128 0x1
 5611 1826 50       		.byte	0x50
 5612 1827 03       		.uleb128 0x3
 5613 1828 F3       		.byte	0xf3
 5614 1829 01       		.uleb128 0x1
 5615 182a 50       		.byte	0x50
 5616 182b 24       		.uleb128 0x24
 5617 182c 01       		.uleb128 0x1
 5618 182d 51       		.byte	0x51
 5619 182e 02       		.uleb128 0x2
 5620 182f 08       		.byte	0x8
 5621 1830 37       		.byte	0x37
 5622 1831 00       		.byte	0
 5623 1832 00       		.byte	0
 5624 1833 25       		.uleb128 0x25
 5625 1834 00130000 		.4byte	.LASF247
 5626 1838 01       		.byte	0x1
 5627 1839 6301     		.2byte	0x163
 5628 183b 00000000 		.4byte	.LFB98
 5629 183f 0C000000 		.4byte	.LFE98-.LFB98
 5630 1843 01       		.uleb128 0x1
 5631 1844 9C       		.byte	0x9c
 5632 1845 8B180000 		.4byte	0x188b
 5633 1849 26       		.uleb128 0x26
 5634 184a D9120000 		.4byte	.LASF202
 5635 184e 01       		.byte	0x1
 5636 184f 6301     		.2byte	0x163
 5637 1851 D6090000 		.4byte	0x9d6
 5638 1855 280B0000 		.4byte	.LLST88
 5639 1859 26       		.uleb128 0x26
 5640 185a 28060000 		.4byte	.LASF193
 5641 185e 01       		.byte	0x1
 5642 185f 6301     		.2byte	0x163
 5643 1861 F6000000 		.4byte	0xf6
 5644 1865 490B0000 		.4byte	.LLST89
 5645 1869 27       		.uleb128 0x27
 5646 186a 7600     		.ascii	"v\000"
 5647 186c 01       		.byte	0x1
 5648 186d 6501     		.2byte	0x165
 5649 186f 2C060000 		.4byte	0x62c
 5650 1873 23       		.uleb128 0x23
 5651 1874 0A000000 		.4byte	.LVL134
 5652 1878 57260000 		.4byte	0x2657
 5653 187c 24       		.uleb128 0x24
 5654 187d 01       		.uleb128 0x1
ARM GAS  C:\Users\haske\AppData\Local\Temp\ccb2zsXg.s 			page 112


 5655 187e 50       		.byte	0x50
 5656 187f 03       		.uleb128 0x3
 5657 1880 F3       		.byte	0xf3
 5658 1881 01       		.uleb128 0x1
 5659 1882 50       		.byte	0x50
 5660 1883 24       		.uleb128 0x24
 5661 1884 01       		.uleb128 0x1
 5662 1885 51       		.byte	0x51
 5663 1886 02       		.uleb128 0x2
 5664 1887 08       		.byte	0x8
 5665 1888 38       		.byte	0x38
 5666 1889 00       		.byte	0
 5667 188a 00       		.byte	0
 5668 188b 25       		.uleb128 0x25
 5669 188c 68140000 		.4byte	.LASF248
 5670 1890 01       		.byte	0x1
 5671 1891 6B01     		.2byte	0x16b
 5672 1893 00000000 		.4byte	.LFB99
 5673 1897 0C000000 		.4byte	.LFE99-.LFB99
 5674 189b 01       		.uleb128 0x1
 5675 189c 9C       		.byte	0x9c
 5676 189d E3180000 		.4byte	0x18e3
 5677 18a1 26       		.uleb128 0x26
 5678 18a2 D9120000 		.4byte	.LASF202
 5679 18a6 01       		.byte	0x1
 5680 18a7 6B01     		.2byte	0x16b
 5681 18a9 D6090000 		.4byte	0x9d6
 5682 18ad 6A0B0000 		.4byte	.LLST90
 5683 18b1 26       		.uleb128 0x26
 5684 18b2 28060000 		.4byte	.LASF193
 5685 18b6 01       		.byte	0x1
 5686 18b7 6B01     		.2byte	0x16b
 5687 18b9 F6000000 		.4byte	0xf6
 5688 18bd 8B0B0000 		.4byte	.LLST91
 5689 18c1 27       		.uleb128 0x27
 5690 18c2 7600     		.ascii	"v\000"
 5691 18c4 01       		.byte	0x1
 5692 18c5 6D01     		.2byte	0x16d
 5693 18c7 2C060000 		.4byte	0x62c
 5694 18cb 23       		.uleb128 0x23
 5695 18cc 0A000000 		.4byte	.LVL137
 5696 18d0 57260000 		.4byte	0x2657
 5697 18d4 24       		.uleb128 0x24
 5698 18d5 01       		.uleb128 0x1
 5699 18d6 50       		.byte	0x50
 5700 18d7 03       		.uleb128 0x3
 5701 18d8 F3       		.byte	0xf3
 5702 18d9 01       		.uleb128 0x1
 5703 18da 50       		.byte	0x50
 5704 18db 24       		.uleb128 0x24
 5705 18dc 01       		.uleb128 0x1
 5706 18dd 51       		.byte	0x51
 5707 18de 02       		.uleb128 0x2
 5708 18df 08       		.byte	0x8
 5709 18e0 40       		.byte	0x40
 5710 18e1 00       		.byte	0
 5711 18e2 00       		.byte	0
ARM GAS  C:\Users\haske\AppData\Local\Temp\ccb2zsXg.s 			page 113


 5712 18e3 25       		.uleb128 0x25
 5713 18e4 C00F0000 		.4byte	.LASF249
 5714 18e8 01       		.byte	0x1
 5715 18e9 7301     		.2byte	0x173
 5716 18eb 00000000 		.4byte	.LFB100
 5717 18ef 0C000000 		.4byte	.LFE100-.LFB100
 5718 18f3 01       		.uleb128 0x1
 5719 18f4 9C       		.byte	0x9c
 5720 18f5 3B190000 		.4byte	0x193b
 5721 18f9 26       		.uleb128 0x26
 5722 18fa D9120000 		.4byte	.LASF202
 5723 18fe 01       		.byte	0x1
 5724 18ff 7301     		.2byte	0x173
 5725 1901 D6090000 		.4byte	0x9d6
 5726 1905 AC0B0000 		.4byte	.LLST92
 5727 1909 26       		.uleb128 0x26
 5728 190a 28060000 		.4byte	.LASF193
 5729 190e 01       		.byte	0x1
 5730 190f 7301     		.2byte	0x173
 5731 1911 F6000000 		.4byte	0xf6
 5732 1915 CD0B0000 		.4byte	.LLST93
 5733 1919 27       		.uleb128 0x27
 5734 191a 7600     		.ascii	"v\000"
 5735 191c 01       		.byte	0x1
 5736 191d 7501     		.2byte	0x175
 5737 191f 2C060000 		.4byte	0x62c
 5738 1923 23       		.uleb128 0x23
 5739 1924 0A000000 		.4byte	.LVL140
 5740 1928 57260000 		.4byte	0x2657
 5741 192c 24       		.uleb128 0x24
 5742 192d 01       		.uleb128 0x1
 5743 192e 50       		.byte	0x50
 5744 192f 03       		.uleb128 0x3
 5745 1930 F3       		.byte	0xf3
 5746 1931 01       		.uleb128 0x1
 5747 1932 50       		.byte	0x50
 5748 1933 24       		.uleb128 0x24
 5749 1934 01       		.uleb128 0x1
 5750 1935 51       		.byte	0x51
 5751 1936 02       		.uleb128 0x2
 5752 1937 08       		.byte	0x8
 5753 1938 41       		.byte	0x41
 5754 1939 00       		.byte	0
 5755 193a 00       		.byte	0
 5756 193b 25       		.uleb128 0x25
 5757 193c DA0F0000 		.4byte	.LASF250
 5758 1940 01       		.byte	0x1
 5759 1941 7B01     		.2byte	0x17b
 5760 1943 00000000 		.4byte	.LFB101
 5761 1947 0C000000 		.4byte	.LFE101-.LFB101
 5762 194b 01       		.uleb128 0x1
 5763 194c 9C       		.byte	0x9c
 5764 194d 93190000 		.4byte	0x1993
 5765 1951 26       		.uleb128 0x26
 5766 1952 D9120000 		.4byte	.LASF202
 5767 1956 01       		.byte	0x1
 5768 1957 7B01     		.2byte	0x17b
ARM GAS  C:\Users\haske\AppData\Local\Temp\ccb2zsXg.s 			page 114


 5769 1959 D6090000 		.4byte	0x9d6
 5770 195d EE0B0000 		.4byte	.LLST94
 5771 1961 26       		.uleb128 0x26
 5772 1962 28060000 		.4byte	.LASF193
 5773 1966 01       		.byte	0x1
 5774 1967 7B01     		.2byte	0x17b
 5775 1969 F6000000 		.4byte	0xf6
 5776 196d 0F0C0000 		.4byte	.LLST95
 5777 1971 27       		.uleb128 0x27
 5778 1972 7600     		.ascii	"v\000"
 5779 1974 01       		.byte	0x1
 5780 1975 7D01     		.2byte	0x17d
 5781 1977 2C060000 		.4byte	0x62c
 5782 197b 23       		.uleb128 0x23
 5783 197c 0A000000 		.4byte	.LVL143
 5784 1980 57260000 		.4byte	0x2657
 5785 1984 24       		.uleb128 0x24
 5786 1985 01       		.uleb128 0x1
 5787 1986 50       		.byte	0x50
 5788 1987 03       		.uleb128 0x3
 5789 1988 F3       		.byte	0xf3
 5790 1989 01       		.uleb128 0x1
 5791 198a 50       		.byte	0x50
 5792 198b 24       		.uleb128 0x24
 5793 198c 01       		.uleb128 0x1
 5794 198d 51       		.byte	0x51
 5795 198e 02       		.uleb128 0x2
 5796 198f 08       		.byte	0x8
 5797 1990 42       		.byte	0x42
 5798 1991 00       		.byte	0
 5799 1992 00       		.byte	0
 5800 1993 25       		.uleb128 0x25
 5801 1994 CE020000 		.4byte	.LASF251
 5802 1998 01       		.byte	0x1
 5803 1999 8301     		.2byte	0x183
 5804 199b 00000000 		.4byte	.LFB102
 5805 199f 0C000000 		.4byte	.LFE102-.LFB102
 5806 19a3 01       		.uleb128 0x1
 5807 19a4 9C       		.byte	0x9c
 5808 19a5 EB190000 		.4byte	0x19eb
 5809 19a9 26       		.uleb128 0x26
 5810 19aa D9120000 		.4byte	.LASF202
 5811 19ae 01       		.byte	0x1
 5812 19af 8301     		.2byte	0x183
 5813 19b1 D6090000 		.4byte	0x9d6
 5814 19b5 300C0000 		.4byte	.LLST96
 5815 19b9 26       		.uleb128 0x26
 5816 19ba 28060000 		.4byte	.LASF193
 5817 19be 01       		.byte	0x1
 5818 19bf 8301     		.2byte	0x183
 5819 19c1 F6000000 		.4byte	0xf6
 5820 19c5 510C0000 		.4byte	.LLST97
 5821 19c9 27       		.uleb128 0x27
 5822 19ca 7600     		.ascii	"v\000"
 5823 19cc 01       		.byte	0x1
 5824 19cd 8501     		.2byte	0x185
 5825 19cf 2C060000 		.4byte	0x62c
ARM GAS  C:\Users\haske\AppData\Local\Temp\ccb2zsXg.s 			page 115


 5826 19d3 23       		.uleb128 0x23
 5827 19d4 0A000000 		.4byte	.LVL146
 5828 19d8 57260000 		.4byte	0x2657
 5829 19dc 24       		.uleb128 0x24
 5830 19dd 01       		.uleb128 0x1
 5831 19de 50       		.byte	0x50
 5832 19df 03       		.uleb128 0x3
 5833 19e0 F3       		.byte	0xf3
 5834 19e1 01       		.uleb128 0x1
 5835 19e2 50       		.byte	0x50
 5836 19e3 24       		.uleb128 0x24
 5837 19e4 01       		.uleb128 0x1
 5838 19e5 51       		.byte	0x51
 5839 19e6 02       		.uleb128 0x2
 5840 19e7 08       		.byte	0x8
 5841 19e8 43       		.byte	0x43
 5842 19e9 00       		.byte	0
 5843 19ea 00       		.byte	0
 5844 19eb 25       		.uleb128 0x25
 5845 19ec F8050000 		.4byte	.LASF252
 5846 19f0 01       		.byte	0x1
 5847 19f1 8B01     		.2byte	0x18b
 5848 19f3 00000000 		.4byte	.LFB103
 5849 19f7 0C000000 		.4byte	.LFE103-.LFB103
 5850 19fb 01       		.uleb128 0x1
 5851 19fc 9C       		.byte	0x9c
 5852 19fd 431A0000 		.4byte	0x1a43
 5853 1a01 26       		.uleb128 0x26
 5854 1a02 D9120000 		.4byte	.LASF202
 5855 1a06 01       		.byte	0x1
 5856 1a07 8B01     		.2byte	0x18b
 5857 1a09 D6090000 		.4byte	0x9d6
 5858 1a0d 720C0000 		.4byte	.LLST98
 5859 1a11 26       		.uleb128 0x26
 5860 1a12 28060000 		.4byte	.LASF193
 5861 1a16 01       		.byte	0x1
 5862 1a17 8B01     		.2byte	0x18b
 5863 1a19 F0020000 		.4byte	0x2f0
 5864 1a1d 930C0000 		.4byte	.LLST99
 5865 1a21 27       		.uleb128 0x27
 5866 1a22 7600     		.ascii	"v\000"
 5867 1a24 01       		.byte	0x1
 5868 1a25 8D01     		.2byte	0x18d
 5869 1a27 2C060000 		.4byte	0x62c
 5870 1a2b 23       		.uleb128 0x23
 5871 1a2c 0A000000 		.4byte	.LVL149
 5872 1a30 57260000 		.4byte	0x2657
 5873 1a34 24       		.uleb128 0x24
 5874 1a35 01       		.uleb128 0x1
 5875 1a36 50       		.byte	0x50
 5876 1a37 03       		.uleb128 0x3
 5877 1a38 F3       		.byte	0xf3
 5878 1a39 01       		.uleb128 0x1
 5879 1a3a 50       		.byte	0x50
 5880 1a3b 24       		.uleb128 0x24
 5881 1a3c 01       		.uleb128 0x1
 5882 1a3d 51       		.byte	0x51
ARM GAS  C:\Users\haske\AppData\Local\Temp\ccb2zsXg.s 			page 116


 5883 1a3e 02       		.uleb128 0x2
 5884 1a3f 08       		.byte	0x8
 5885 1a40 44       		.byte	0x44
 5886 1a41 00       		.byte	0
 5887 1a42 00       		.byte	0
 5888 1a43 25       		.uleb128 0x25
 5889 1a44 94090000 		.4byte	.LASF253
 5890 1a48 01       		.byte	0x1
 5891 1a49 9301     		.2byte	0x193
 5892 1a4b 00000000 		.4byte	.LFB104
 5893 1a4f 0C000000 		.4byte	.LFE104-.LFB104
 5894 1a53 01       		.uleb128 0x1
 5895 1a54 9C       		.byte	0x9c
 5896 1a55 9B1A0000 		.4byte	0x1a9b
 5897 1a59 26       		.uleb128 0x26
 5898 1a5a D9120000 		.4byte	.LASF202
 5899 1a5e 01       		.byte	0x1
 5900 1a5f 9301     		.2byte	0x193
 5901 1a61 D6090000 		.4byte	0x9d6
 5902 1a65 A60C0000 		.4byte	.LLST100
 5903 1a69 26       		.uleb128 0x26
 5904 1a6a 28060000 		.4byte	.LASF193
 5905 1a6e 01       		.byte	0x1
 5906 1a6f 9301     		.2byte	0x193
 5907 1a71 FB020000 		.4byte	0x2fb
 5908 1a75 C70C0000 		.4byte	.LLST101
 5909 1a79 27       		.uleb128 0x27
 5910 1a7a 7600     		.ascii	"v\000"
 5911 1a7c 01       		.byte	0x1
 5912 1a7d 9501     		.2byte	0x195
 5913 1a7f 2C060000 		.4byte	0x62c
 5914 1a83 23       		.uleb128 0x23
 5915 1a84 0A000000 		.4byte	.LVL152
 5916 1a88 57260000 		.4byte	0x2657
 5917 1a8c 24       		.uleb128 0x24
 5918 1a8d 01       		.uleb128 0x1
 5919 1a8e 50       		.byte	0x50
 5920 1a8f 03       		.uleb128 0x3
 5921 1a90 F3       		.byte	0xf3
 5922 1a91 01       		.uleb128 0x1
 5923 1a92 50       		.byte	0x50
 5924 1a93 24       		.uleb128 0x24
 5925 1a94 01       		.uleb128 0x1
 5926 1a95 51       		.byte	0x51
 5927 1a96 02       		.uleb128 0x2
 5928 1a97 08       		.byte	0x8
 5929 1a98 45       		.byte	0x45
 5930 1a99 00       		.byte	0
 5931 1a9a 00       		.byte	0
 5932 1a9b 25       		.uleb128 0x25
 5933 1a9c C9030000 		.4byte	.LASF254
 5934 1aa0 01       		.byte	0x1
 5935 1aa1 9B01     		.2byte	0x19b
 5936 1aa3 00000000 		.4byte	.LFB105
 5937 1aa7 0C000000 		.4byte	.LFE105-.LFB105
 5938 1aab 01       		.uleb128 0x1
 5939 1aac 9C       		.byte	0x9c
ARM GAS  C:\Users\haske\AppData\Local\Temp\ccb2zsXg.s 			page 117


 5940 1aad F31A0000 		.4byte	0x1af3
 5941 1ab1 26       		.uleb128 0x26
 5942 1ab2 D9120000 		.4byte	.LASF202
 5943 1ab6 01       		.byte	0x1
 5944 1ab7 9B01     		.2byte	0x19b
 5945 1ab9 D6090000 		.4byte	0x9d6
 5946 1abd E80C0000 		.4byte	.LLST102
 5947 1ac1 26       		.uleb128 0x26
 5948 1ac2 28060000 		.4byte	.LASF193
 5949 1ac6 01       		.byte	0x1
 5950 1ac7 9B01     		.2byte	0x19b
 5951 1ac9 FB020000 		.4byte	0x2fb
 5952 1acd 090D0000 		.4byte	.LLST103
 5953 1ad1 27       		.uleb128 0x27
 5954 1ad2 7600     		.ascii	"v\000"
 5955 1ad4 01       		.byte	0x1
 5956 1ad5 9D01     		.2byte	0x19d
 5957 1ad7 2C060000 		.4byte	0x62c
 5958 1adb 23       		.uleb128 0x23
 5959 1adc 0A000000 		.4byte	.LVL155
 5960 1ae0 57260000 		.4byte	0x2657
 5961 1ae4 24       		.uleb128 0x24
 5962 1ae5 01       		.uleb128 0x1
 5963 1ae6 50       		.byte	0x50
 5964 1ae7 03       		.uleb128 0x3
 5965 1ae8 F3       		.byte	0xf3
 5966 1ae9 01       		.uleb128 0x1
 5967 1aea 50       		.byte	0x50
 5968 1aeb 24       		.uleb128 0x24
 5969 1aec 01       		.uleb128 0x1
 5970 1aed 51       		.byte	0x51
 5971 1aee 02       		.uleb128 0x2
 5972 1aef 08       		.byte	0x8
 5973 1af0 46       		.byte	0x46
 5974 1af1 00       		.byte	0
 5975 1af2 00       		.byte	0
 5976 1af3 25       		.uleb128 0x25
 5977 1af4 7B090000 		.4byte	.LASF255
 5978 1af8 01       		.byte	0x1
 5979 1af9 A301     		.2byte	0x1a3
 5980 1afb 00000000 		.4byte	.LFB106
 5981 1aff 0C000000 		.4byte	.LFE106-.LFB106
 5982 1b03 01       		.uleb128 0x1
 5983 1b04 9C       		.byte	0x9c
 5984 1b05 4B1B0000 		.4byte	0x1b4b
 5985 1b09 26       		.uleb128 0x26
 5986 1b0a D9120000 		.4byte	.LASF202
 5987 1b0e 01       		.byte	0x1
 5988 1b0f A301     		.2byte	0x1a3
 5989 1b11 D6090000 		.4byte	0x9d6
 5990 1b15 2A0D0000 		.4byte	.LLST104
 5991 1b19 26       		.uleb128 0x26
 5992 1b1a 28060000 		.4byte	.LASF193
 5993 1b1e 01       		.byte	0x1
 5994 1b1f A301     		.2byte	0x1a3
 5995 1b21 F0020000 		.4byte	0x2f0
 5996 1b25 4B0D0000 		.4byte	.LLST105
ARM GAS  C:\Users\haske\AppData\Local\Temp\ccb2zsXg.s 			page 118


 5997 1b29 27       		.uleb128 0x27
 5998 1b2a 7600     		.ascii	"v\000"
 5999 1b2c 01       		.byte	0x1
 6000 1b2d A501     		.2byte	0x1a5
 6001 1b2f 2C060000 		.4byte	0x62c
 6002 1b33 23       		.uleb128 0x23
 6003 1b34 0A000000 		.4byte	.LVL158
 6004 1b38 57260000 		.4byte	0x2657
 6005 1b3c 24       		.uleb128 0x24
 6006 1b3d 01       		.uleb128 0x1
 6007 1b3e 50       		.byte	0x50
 6008 1b3f 03       		.uleb128 0x3
 6009 1b40 F3       		.byte	0xf3
 6010 1b41 01       		.uleb128 0x1
 6011 1b42 50       		.byte	0x50
 6012 1b43 24       		.uleb128 0x24
 6013 1b44 01       		.uleb128 0x1
 6014 1b45 51       		.byte	0x51
 6015 1b46 02       		.uleb128 0x2
 6016 1b47 08       		.byte	0x8
 6017 1b48 47       		.byte	0x47
 6018 1b49 00       		.byte	0
 6019 1b4a 00       		.byte	0
 6020 1b4b 25       		.uleb128 0x25
 6021 1b4c 0A0B0000 		.4byte	.LASF256
 6022 1b50 01       		.byte	0x1
 6023 1b51 AB01     		.2byte	0x1ab
 6024 1b53 00000000 		.4byte	.LFB107
 6025 1b57 0C000000 		.4byte	.LFE107-.LFB107
 6026 1b5b 01       		.uleb128 0x1
 6027 1b5c 9C       		.byte	0x9c
 6028 1b5d A31B0000 		.4byte	0x1ba3
 6029 1b61 26       		.uleb128 0x26
 6030 1b62 D9120000 		.4byte	.LASF202
 6031 1b66 01       		.byte	0x1
 6032 1b67 AB01     		.2byte	0x1ab
 6033 1b69 D6090000 		.4byte	0x9d6
 6034 1b6d 5E0D0000 		.4byte	.LLST106
 6035 1b71 26       		.uleb128 0x26
 6036 1b72 28060000 		.4byte	.LASF193
 6037 1b76 01       		.byte	0x1
 6038 1b77 AB01     		.2byte	0x1ab
 6039 1b79 FB020000 		.4byte	0x2fb
 6040 1b7d 7F0D0000 		.4byte	.LLST107
 6041 1b81 27       		.uleb128 0x27
 6042 1b82 7600     		.ascii	"v\000"
 6043 1b84 01       		.byte	0x1
 6044 1b85 AD01     		.2byte	0x1ad
 6045 1b87 2C060000 		.4byte	0x62c
 6046 1b8b 23       		.uleb128 0x23
 6047 1b8c 0A000000 		.4byte	.LVL161
 6048 1b90 57260000 		.4byte	0x2657
 6049 1b94 24       		.uleb128 0x24
 6050 1b95 01       		.uleb128 0x1
 6051 1b96 50       		.byte	0x50
 6052 1b97 03       		.uleb128 0x3
 6053 1b98 F3       		.byte	0xf3
ARM GAS  C:\Users\haske\AppData\Local\Temp\ccb2zsXg.s 			page 119


 6054 1b99 01       		.uleb128 0x1
 6055 1b9a 50       		.byte	0x50
 6056 1b9b 24       		.uleb128 0x24
 6057 1b9c 01       		.uleb128 0x1
 6058 1b9d 51       		.byte	0x51
 6059 1b9e 02       		.uleb128 0x2
 6060 1b9f 08       		.byte	0x8
 6061 1ba0 48       		.byte	0x48
 6062 1ba1 00       		.byte	0
 6063 1ba2 00       		.byte	0
 6064 1ba3 25       		.uleb128 0x25
 6065 1ba4 23080000 		.4byte	.LASF257
 6066 1ba8 01       		.byte	0x1
 6067 1ba9 B301     		.2byte	0x1b3
 6068 1bab 00000000 		.4byte	.LFB108
 6069 1baf 0C000000 		.4byte	.LFE108-.LFB108
 6070 1bb3 01       		.uleb128 0x1
 6071 1bb4 9C       		.byte	0x9c
 6072 1bb5 FB1B0000 		.4byte	0x1bfb
 6073 1bb9 26       		.uleb128 0x26
 6074 1bba D9120000 		.4byte	.LASF202
 6075 1bbe 01       		.byte	0x1
 6076 1bbf B301     		.2byte	0x1b3
 6077 1bc1 D6090000 		.4byte	0x9d6
 6078 1bc5 A00D0000 		.4byte	.LLST108
 6079 1bc9 26       		.uleb128 0x26
 6080 1bca 28060000 		.4byte	.LASF193
 6081 1bce 01       		.byte	0x1
 6082 1bcf B301     		.2byte	0x1b3
 6083 1bd1 F6000000 		.4byte	0xf6
 6084 1bd5 C10D0000 		.4byte	.LLST109
 6085 1bd9 27       		.uleb128 0x27
 6086 1bda 7600     		.ascii	"v\000"
 6087 1bdc 01       		.byte	0x1
 6088 1bdd B501     		.2byte	0x1b5
 6089 1bdf 2C060000 		.4byte	0x62c
 6090 1be3 23       		.uleb128 0x23
 6091 1be4 0A000000 		.4byte	.LVL164
 6092 1be8 57260000 		.4byte	0x2657
 6093 1bec 24       		.uleb128 0x24
 6094 1bed 01       		.uleb128 0x1
 6095 1bee 50       		.byte	0x50
 6096 1bef 03       		.uleb128 0x3
 6097 1bf0 F3       		.byte	0xf3
 6098 1bf1 01       		.uleb128 0x1
 6099 1bf2 50       		.byte	0x50
 6100 1bf3 24       		.uleb128 0x24
 6101 1bf4 01       		.uleb128 0x1
 6102 1bf5 51       		.byte	0x51
 6103 1bf6 02       		.uleb128 0x2
 6104 1bf7 08       		.byte	0x8
 6105 1bf8 49       		.byte	0x49
 6106 1bf9 00       		.byte	0
 6107 1bfa 00       		.byte	0
 6108 1bfb 25       		.uleb128 0x25
 6109 1bfc FE140000 		.4byte	.LASF258
 6110 1c00 01       		.byte	0x1
ARM GAS  C:\Users\haske\AppData\Local\Temp\ccb2zsXg.s 			page 120


 6111 1c01 BB01     		.2byte	0x1bb
 6112 1c03 00000000 		.4byte	.LFB109
 6113 1c07 0C000000 		.4byte	.LFE109-.LFB109
 6114 1c0b 01       		.uleb128 0x1
 6115 1c0c 9C       		.byte	0x9c
 6116 1c0d 531C0000 		.4byte	0x1c53
 6117 1c11 26       		.uleb128 0x26
 6118 1c12 D9120000 		.4byte	.LASF202
 6119 1c16 01       		.byte	0x1
 6120 1c17 BB01     		.2byte	0x1bb
 6121 1c19 D6090000 		.4byte	0x9d6
 6122 1c1d E20D0000 		.4byte	.LLST110
 6123 1c21 26       		.uleb128 0x26
 6124 1c22 28060000 		.4byte	.LASF193
 6125 1c26 01       		.byte	0x1
 6126 1c27 BB01     		.2byte	0x1bb
 6127 1c29 F6000000 		.4byte	0xf6
 6128 1c2d 030E0000 		.4byte	.LLST111
 6129 1c31 27       		.uleb128 0x27
 6130 1c32 7600     		.ascii	"v\000"
 6131 1c34 01       		.byte	0x1
 6132 1c35 BD01     		.2byte	0x1bd
 6133 1c37 2C060000 		.4byte	0x62c
 6134 1c3b 23       		.uleb128 0x23
 6135 1c3c 0A000000 		.4byte	.LVL167
 6136 1c40 57260000 		.4byte	0x2657
 6137 1c44 24       		.uleb128 0x24
 6138 1c45 01       		.uleb128 0x1
 6139 1c46 50       		.byte	0x50
 6140 1c47 03       		.uleb128 0x3
 6141 1c48 F3       		.byte	0xf3
 6142 1c49 01       		.uleb128 0x1
 6143 1c4a 50       		.byte	0x50
 6144 1c4b 24       		.uleb128 0x24
 6145 1c4c 01       		.uleb128 0x1
 6146 1c4d 51       		.byte	0x51
 6147 1c4e 02       		.uleb128 0x2
 6148 1c4f 08       		.byte	0x8
 6149 1c50 4A       		.byte	0x4a
 6150 1c51 00       		.byte	0
 6151 1c52 00       		.byte	0
 6152 1c53 25       		.uleb128 0x25
 6153 1c54 C4060000 		.4byte	.LASF259
 6154 1c58 01       		.byte	0x1
 6155 1c59 C301     		.2byte	0x1c3
 6156 1c5b 00000000 		.4byte	.LFB110
 6157 1c5f 0C000000 		.4byte	.LFE110-.LFB110
 6158 1c63 01       		.uleb128 0x1
 6159 1c64 9C       		.byte	0x9c
 6160 1c65 AB1C0000 		.4byte	0x1cab
 6161 1c69 26       		.uleb128 0x26
 6162 1c6a D9120000 		.4byte	.LASF202
 6163 1c6e 01       		.byte	0x1
 6164 1c6f C301     		.2byte	0x1c3
 6165 1c71 D6090000 		.4byte	0x9d6
 6166 1c75 240E0000 		.4byte	.LLST112
 6167 1c79 26       		.uleb128 0x26
ARM GAS  C:\Users\haske\AppData\Local\Temp\ccb2zsXg.s 			page 121


 6168 1c7a 28060000 		.4byte	.LASF193
 6169 1c7e 01       		.byte	0x1
 6170 1c7f C301     		.2byte	0x1c3
 6171 1c81 F6000000 		.4byte	0xf6
 6172 1c85 450E0000 		.4byte	.LLST113
 6173 1c89 27       		.uleb128 0x27
 6174 1c8a 7600     		.ascii	"v\000"
 6175 1c8c 01       		.byte	0x1
 6176 1c8d C501     		.2byte	0x1c5
 6177 1c8f 2C060000 		.4byte	0x62c
 6178 1c93 23       		.uleb128 0x23
 6179 1c94 0A000000 		.4byte	.LVL170
 6180 1c98 57260000 		.4byte	0x2657
 6181 1c9c 24       		.uleb128 0x24
 6182 1c9d 01       		.uleb128 0x1
 6183 1c9e 50       		.byte	0x50
 6184 1c9f 03       		.uleb128 0x3
 6185 1ca0 F3       		.byte	0xf3
 6186 1ca1 01       		.uleb128 0x1
 6187 1ca2 50       		.byte	0x50
 6188 1ca3 24       		.uleb128 0x24
 6189 1ca4 01       		.uleb128 0x1
 6190 1ca5 51       		.byte	0x51
 6191 1ca6 02       		.uleb128 0x2
 6192 1ca7 08       		.byte	0x8
 6193 1ca8 4B       		.byte	0x4b
 6194 1ca9 00       		.byte	0
 6195 1caa 00       		.byte	0
 6196 1cab 25       		.uleb128 0x25
 6197 1cac 65120000 		.4byte	.LASF260
 6198 1cb0 01       		.byte	0x1
 6199 1cb1 CB01     		.2byte	0x1cb
 6200 1cb3 00000000 		.4byte	.LFB111
 6201 1cb7 0C000000 		.4byte	.LFE111-.LFB111
 6202 1cbb 01       		.uleb128 0x1
 6203 1cbc 9C       		.byte	0x9c
 6204 1cbd 031D0000 		.4byte	0x1d03
 6205 1cc1 26       		.uleb128 0x26
 6206 1cc2 D9120000 		.4byte	.LASF202
 6207 1cc6 01       		.byte	0x1
 6208 1cc7 CB01     		.2byte	0x1cb
 6209 1cc9 D6090000 		.4byte	0x9d6
 6210 1ccd 660E0000 		.4byte	.LLST114
 6211 1cd1 26       		.uleb128 0x26
 6212 1cd2 28060000 		.4byte	.LASF193
 6213 1cd6 01       		.byte	0x1
 6214 1cd7 CB01     		.2byte	0x1cb
 6215 1cd9 37020000 		.4byte	0x237
 6216 1cdd 870E0000 		.4byte	.LLST115
 6217 1ce1 27       		.uleb128 0x27
 6218 1ce2 7600     		.ascii	"v\000"
 6219 1ce4 01       		.byte	0x1
 6220 1ce5 CD01     		.2byte	0x1cd
 6221 1ce7 2C060000 		.4byte	0x62c
 6222 1ceb 23       		.uleb128 0x23
 6223 1cec 0A000000 		.4byte	.LVL173
 6224 1cf0 57260000 		.4byte	0x2657
ARM GAS  C:\Users\haske\AppData\Local\Temp\ccb2zsXg.s 			page 122


 6225 1cf4 24       		.uleb128 0x24
 6226 1cf5 01       		.uleb128 0x1
 6227 1cf6 50       		.byte	0x50
 6228 1cf7 03       		.uleb128 0x3
 6229 1cf8 F3       		.byte	0xf3
 6230 1cf9 01       		.uleb128 0x1
 6231 1cfa 50       		.byte	0x50
 6232 1cfb 24       		.uleb128 0x24
 6233 1cfc 01       		.uleb128 0x1
 6234 1cfd 51       		.byte	0x51
 6235 1cfe 02       		.uleb128 0x2
 6236 1cff 08       		.byte	0x8
 6237 1d00 4C       		.byte	0x4c
 6238 1d01 00       		.byte	0
 6239 1d02 00       		.byte	0
 6240 1d03 25       		.uleb128 0x25
 6241 1d04 C60E0000 		.4byte	.LASF261
 6242 1d08 01       		.byte	0x1
 6243 1d09 D301     		.2byte	0x1d3
 6244 1d0b 00000000 		.4byte	.LFB112
 6245 1d0f 0C000000 		.4byte	.LFE112-.LFB112
 6246 1d13 01       		.uleb128 0x1
 6247 1d14 9C       		.byte	0x9c
 6248 1d15 5B1D0000 		.4byte	0x1d5b
 6249 1d19 26       		.uleb128 0x26
 6250 1d1a D9120000 		.4byte	.LASF202
 6251 1d1e 01       		.byte	0x1
 6252 1d1f D301     		.2byte	0x1d3
 6253 1d21 D6090000 		.4byte	0x9d6
 6254 1d25 A80E0000 		.4byte	.LLST116
 6255 1d29 26       		.uleb128 0x26
 6256 1d2a 28060000 		.4byte	.LASF193
 6257 1d2e 01       		.byte	0x1
 6258 1d2f D301     		.2byte	0x1d3
 6259 1d31 F0020000 		.4byte	0x2f0
 6260 1d35 C90E0000 		.4byte	.LLST117
 6261 1d39 27       		.uleb128 0x27
 6262 1d3a 7600     		.ascii	"v\000"
 6263 1d3c 01       		.byte	0x1
 6264 1d3d D501     		.2byte	0x1d5
 6265 1d3f 2C060000 		.4byte	0x62c
 6266 1d43 23       		.uleb128 0x23
 6267 1d44 0A000000 		.4byte	.LVL176
 6268 1d48 57260000 		.4byte	0x2657
 6269 1d4c 24       		.uleb128 0x24
 6270 1d4d 01       		.uleb128 0x1
 6271 1d4e 50       		.byte	0x50
 6272 1d4f 03       		.uleb128 0x3
 6273 1d50 F3       		.byte	0xf3
 6274 1d51 01       		.uleb128 0x1
 6275 1d52 50       		.byte	0x50
 6276 1d53 24       		.uleb128 0x24
 6277 1d54 01       		.uleb128 0x1
 6278 1d55 51       		.byte	0x51
 6279 1d56 02       		.uleb128 0x2
 6280 1d57 08       		.byte	0x8
 6281 1d58 4D       		.byte	0x4d
ARM GAS  C:\Users\haske\AppData\Local\Temp\ccb2zsXg.s 			page 123


 6282 1d59 00       		.byte	0
 6283 1d5a 00       		.byte	0
 6284 1d5b 25       		.uleb128 0x25
 6285 1d5c F0040000 		.4byte	.LASF262
 6286 1d60 01       		.byte	0x1
 6287 1d61 DB01     		.2byte	0x1db
 6288 1d63 00000000 		.4byte	.LFB113
 6289 1d67 0C000000 		.4byte	.LFE113-.LFB113
 6290 1d6b 01       		.uleb128 0x1
 6291 1d6c 9C       		.byte	0x9c
 6292 1d6d B31D0000 		.4byte	0x1db3
 6293 1d71 26       		.uleb128 0x26
 6294 1d72 D9120000 		.4byte	.LASF202
 6295 1d76 01       		.byte	0x1
 6296 1d77 DB01     		.2byte	0x1db
 6297 1d79 D6090000 		.4byte	0x9d6
 6298 1d7d DC0E0000 		.4byte	.LLST118
 6299 1d81 26       		.uleb128 0x26
 6300 1d82 28060000 		.4byte	.LASF193
 6301 1d86 01       		.byte	0x1
 6302 1d87 DB01     		.2byte	0x1db
 6303 1d89 FB020000 		.4byte	0x2fb
 6304 1d8d FD0E0000 		.4byte	.LLST119
 6305 1d91 27       		.uleb128 0x27
 6306 1d92 7600     		.ascii	"v\000"
 6307 1d94 01       		.byte	0x1
 6308 1d95 DD01     		.2byte	0x1dd
 6309 1d97 2C060000 		.4byte	0x62c
 6310 1d9b 23       		.uleb128 0x23
 6311 1d9c 0A000000 		.4byte	.LVL179
 6312 1da0 57260000 		.4byte	0x2657
 6313 1da4 24       		.uleb128 0x24
 6314 1da5 01       		.uleb128 0x1
 6315 1da6 50       		.byte	0x50
 6316 1da7 03       		.uleb128 0x3
 6317 1da8 F3       		.byte	0xf3
 6318 1da9 01       		.uleb128 0x1
 6319 1daa 50       		.byte	0x50
 6320 1dab 24       		.uleb128 0x24
 6321 1dac 01       		.uleb128 0x1
 6322 1dad 51       		.byte	0x51
 6323 1dae 02       		.uleb128 0x2
 6324 1daf 08       		.byte	0x8
 6325 1db0 4E       		.byte	0x4e
 6326 1db1 00       		.byte	0
 6327 1db2 00       		.byte	0
 6328 1db3 25       		.uleb128 0x25
 6329 1db4 AB100000 		.4byte	.LASF263
 6330 1db8 01       		.byte	0x1
 6331 1db9 E301     		.2byte	0x1e3
 6332 1dbb 00000000 		.4byte	.LFB114
 6333 1dbf 0C000000 		.4byte	.LFE114-.LFB114
 6334 1dc3 01       		.uleb128 0x1
 6335 1dc4 9C       		.byte	0x9c
 6336 1dc5 0B1E0000 		.4byte	0x1e0b
 6337 1dc9 26       		.uleb128 0x26
 6338 1dca D9120000 		.4byte	.LASF202
ARM GAS  C:\Users\haske\AppData\Local\Temp\ccb2zsXg.s 			page 124


 6339 1dce 01       		.byte	0x1
 6340 1dcf E301     		.2byte	0x1e3
 6341 1dd1 D6090000 		.4byte	0x9d6
 6342 1dd5 1E0F0000 		.4byte	.LLST120
 6343 1dd9 26       		.uleb128 0x26
 6344 1dda 28060000 		.4byte	.LASF193
 6345 1dde 01       		.byte	0x1
 6346 1ddf E301     		.2byte	0x1e3
 6347 1de1 F6000000 		.4byte	0xf6
 6348 1de5 3F0F0000 		.4byte	.LLST121
 6349 1de9 27       		.uleb128 0x27
 6350 1dea 7600     		.ascii	"v\000"
 6351 1dec 01       		.byte	0x1
 6352 1ded E501     		.2byte	0x1e5
 6353 1def 2C060000 		.4byte	0x62c
 6354 1df3 23       		.uleb128 0x23
 6355 1df4 0A000000 		.4byte	.LVL182
 6356 1df8 57260000 		.4byte	0x2657
 6357 1dfc 24       		.uleb128 0x24
 6358 1dfd 01       		.uleb128 0x1
 6359 1dfe 50       		.byte	0x50
 6360 1dff 03       		.uleb128 0x3
 6361 1e00 F3       		.byte	0xf3
 6362 1e01 01       		.uleb128 0x1
 6363 1e02 50       		.byte	0x50
 6364 1e03 24       		.uleb128 0x24
 6365 1e04 01       		.uleb128 0x1
 6366 1e05 51       		.byte	0x51
 6367 1e06 02       		.uleb128 0x2
 6368 1e07 08       		.byte	0x8
 6369 1e08 50       		.byte	0x50
 6370 1e09 00       		.byte	0
 6371 1e0a 00       		.byte	0
 6372 1e0b 25       		.uleb128 0x25
 6373 1e0c A2120000 		.4byte	.LASF264
 6374 1e10 01       		.byte	0x1
 6375 1e11 EB01     		.2byte	0x1eb
 6376 1e13 00000000 		.4byte	.LFB115
 6377 1e17 0C000000 		.4byte	.LFE115-.LFB115
 6378 1e1b 01       		.uleb128 0x1
 6379 1e1c 9C       		.byte	0x9c
 6380 1e1d 631E0000 		.4byte	0x1e63
 6381 1e21 26       		.uleb128 0x26
 6382 1e22 D9120000 		.4byte	.LASF202
 6383 1e26 01       		.byte	0x1
 6384 1e27 EB01     		.2byte	0x1eb
 6385 1e29 D6090000 		.4byte	0x9d6
 6386 1e2d 600F0000 		.4byte	.LLST122
 6387 1e31 26       		.uleb128 0x26
 6388 1e32 28060000 		.4byte	.LASF193
 6389 1e36 01       		.byte	0x1
 6390 1e37 EB01     		.2byte	0x1eb
 6391 1e39 37020000 		.4byte	0x237
 6392 1e3d 810F0000 		.4byte	.LLST123
 6393 1e41 27       		.uleb128 0x27
 6394 1e42 7600     		.ascii	"v\000"
 6395 1e44 01       		.byte	0x1
ARM GAS  C:\Users\haske\AppData\Local\Temp\ccb2zsXg.s 			page 125


 6396 1e45 ED01     		.2byte	0x1ed
 6397 1e47 2C060000 		.4byte	0x62c
 6398 1e4b 23       		.uleb128 0x23
 6399 1e4c 0A000000 		.4byte	.LVL185
 6400 1e50 57260000 		.4byte	0x2657
 6401 1e54 24       		.uleb128 0x24
 6402 1e55 01       		.uleb128 0x1
 6403 1e56 50       		.byte	0x50
 6404 1e57 03       		.uleb128 0x3
 6405 1e58 F3       		.byte	0xf3
 6406 1e59 01       		.uleb128 0x1
 6407 1e5a 50       		.byte	0x50
 6408 1e5b 24       		.uleb128 0x24
 6409 1e5c 01       		.uleb128 0x1
 6410 1e5d 51       		.byte	0x51
 6411 1e5e 02       		.uleb128 0x2
 6412 1e5f 08       		.byte	0x8
 6413 1e60 51       		.byte	0x51
 6414 1e61 00       		.byte	0
 6415 1e62 00       		.byte	0
 6416 1e63 25       		.uleb128 0x25
 6417 1e64 50000000 		.4byte	.LASF265
 6418 1e68 01       		.byte	0x1
 6419 1e69 F301     		.2byte	0x1f3
 6420 1e6b 00000000 		.4byte	.LFB116
 6421 1e6f 0C000000 		.4byte	.LFE116-.LFB116
 6422 1e73 01       		.uleb128 0x1
 6423 1e74 9C       		.byte	0x9c
 6424 1e75 BB1E0000 		.4byte	0x1ebb
 6425 1e79 26       		.uleb128 0x26
 6426 1e7a D9120000 		.4byte	.LASF202
 6427 1e7e 01       		.byte	0x1
 6428 1e7f F301     		.2byte	0x1f3
 6429 1e81 D6090000 		.4byte	0x9d6
 6430 1e85 A20F0000 		.4byte	.LLST124
 6431 1e89 26       		.uleb128 0x26
 6432 1e8a 28060000 		.4byte	.LASF193
 6433 1e8e 01       		.byte	0x1
 6434 1e8f F301     		.2byte	0x1f3
 6435 1e91 F0020000 		.4byte	0x2f0
 6436 1e95 C30F0000 		.4byte	.LLST125
 6437 1e99 27       		.uleb128 0x27
 6438 1e9a 7600     		.ascii	"v\000"
 6439 1e9c 01       		.byte	0x1
 6440 1e9d F501     		.2byte	0x1f5
 6441 1e9f 2C060000 		.4byte	0x62c
 6442 1ea3 23       		.uleb128 0x23
 6443 1ea4 0A000000 		.4byte	.LVL188
 6444 1ea8 57260000 		.4byte	0x2657
 6445 1eac 24       		.uleb128 0x24
 6446 1ead 01       		.uleb128 0x1
 6447 1eae 50       		.byte	0x50
 6448 1eaf 03       		.uleb128 0x3
 6449 1eb0 F3       		.byte	0xf3
 6450 1eb1 01       		.uleb128 0x1
 6451 1eb2 50       		.byte	0x50
 6452 1eb3 24       		.uleb128 0x24
ARM GAS  C:\Users\haske\AppData\Local\Temp\ccb2zsXg.s 			page 126


 6453 1eb4 01       		.uleb128 0x1
 6454 1eb5 51       		.byte	0x51
 6455 1eb6 02       		.uleb128 0x2
 6456 1eb7 08       		.byte	0x8
 6457 1eb8 52       		.byte	0x52
 6458 1eb9 00       		.byte	0
 6459 1eba 00       		.byte	0
 6460 1ebb 25       		.uleb128 0x25
 6461 1ebc FC020000 		.4byte	.LASF266
 6462 1ec0 01       		.byte	0x1
 6463 1ec1 FB01     		.2byte	0x1fb
 6464 1ec3 00000000 		.4byte	.LFB117
 6465 1ec7 0C000000 		.4byte	.LFE117-.LFB117
 6466 1ecb 01       		.uleb128 0x1
 6467 1ecc 9C       		.byte	0x9c
 6468 1ecd 131F0000 		.4byte	0x1f13
 6469 1ed1 26       		.uleb128 0x26
 6470 1ed2 D9120000 		.4byte	.LASF202
 6471 1ed6 01       		.byte	0x1
 6472 1ed7 FB01     		.2byte	0x1fb
 6473 1ed9 D6090000 		.4byte	0x9d6
 6474 1edd D60F0000 		.4byte	.LLST126
 6475 1ee1 26       		.uleb128 0x26
 6476 1ee2 28060000 		.4byte	.LASF193
 6477 1ee6 01       		.byte	0x1
 6478 1ee7 FB01     		.2byte	0x1fb
 6479 1ee9 FB020000 		.4byte	0x2fb
 6480 1eed F70F0000 		.4byte	.LLST127
 6481 1ef1 27       		.uleb128 0x27
 6482 1ef2 7600     		.ascii	"v\000"
 6483 1ef4 01       		.byte	0x1
 6484 1ef5 FD01     		.2byte	0x1fd
 6485 1ef7 2C060000 		.4byte	0x62c
 6486 1efb 23       		.uleb128 0x23
 6487 1efc 0A000000 		.4byte	.LVL191
 6488 1f00 57260000 		.4byte	0x2657
 6489 1f04 24       		.uleb128 0x24
 6490 1f05 01       		.uleb128 0x1
 6491 1f06 50       		.byte	0x50
 6492 1f07 03       		.uleb128 0x3
 6493 1f08 F3       		.byte	0xf3
 6494 1f09 01       		.uleb128 0x1
 6495 1f0a 50       		.byte	0x50
 6496 1f0b 24       		.uleb128 0x24
 6497 1f0c 01       		.uleb128 0x1
 6498 1f0d 51       		.byte	0x51
 6499 1f0e 02       		.uleb128 0x2
 6500 1f0f 08       		.byte	0x8
 6501 1f10 53       		.byte	0x53
 6502 1f11 00       		.byte	0
 6503 1f12 00       		.byte	0
 6504 1f13 25       		.uleb128 0x25
 6505 1f14 1F000000 		.4byte	.LASF267
 6506 1f18 01       		.byte	0x1
 6507 1f19 0302     		.2byte	0x203
 6508 1f1b 00000000 		.4byte	.LFB118
 6509 1f1f 0C000000 		.4byte	.LFE118-.LFB118
ARM GAS  C:\Users\haske\AppData\Local\Temp\ccb2zsXg.s 			page 127


 6510 1f23 01       		.uleb128 0x1
 6511 1f24 9C       		.byte	0x9c
 6512 1f25 721F0000 		.4byte	0x1f72
 6513 1f29 26       		.uleb128 0x26
 6514 1f2a D9120000 		.4byte	.LASF202
 6515 1f2e 01       		.byte	0x1
 6516 1f2f 0302     		.2byte	0x203
 6517 1f31 D6090000 		.4byte	0x9d6
 6518 1f35 18100000 		.4byte	.LLST128
 6519 1f39 26       		.uleb128 0x26
 6520 1f3a 28060000 		.4byte	.LASF193
 6521 1f3e 01       		.byte	0x1
 6522 1f3f 0302     		.2byte	0x203
 6523 1f41 6F020000 		.4byte	0x26f
 6524 1f45 39100000 		.4byte	.LLST129
 6525 1f49 27       		.uleb128 0x27
 6526 1f4a 7600     		.ascii	"v\000"
 6527 1f4c 01       		.byte	0x1
 6528 1f4d 0502     		.2byte	0x205
 6529 1f4f 2C060000 		.4byte	0x62c
 6530 1f53 23       		.uleb128 0x23
 6531 1f54 0A000000 		.4byte	.LVL194
 6532 1f58 57260000 		.4byte	0x2657
 6533 1f5c 24       		.uleb128 0x24
 6534 1f5d 01       		.uleb128 0x1
 6535 1f5e 50       		.byte	0x50
 6536 1f5f 03       		.uleb128 0x3
 6537 1f60 F3       		.byte	0xf3
 6538 1f61 01       		.uleb128 0x1
 6539 1f62 50       		.byte	0x50
 6540 1f63 24       		.uleb128 0x24
 6541 1f64 01       		.uleb128 0x1
 6542 1f65 51       		.byte	0x51
 6543 1f66 02       		.uleb128 0x2
 6544 1f67 08       		.byte	0x8
 6545 1f68 54       		.byte	0x54
 6546 1f69 24       		.uleb128 0x24
 6547 1f6a 01       		.uleb128 0x1
 6548 1f6b 52       		.byte	0x52
 6549 1f6c 03       		.uleb128 0x3
 6550 1f6d F3       		.byte	0xf3
 6551 1f6e 01       		.uleb128 0x1
 6552 1f6f 51       		.byte	0x51
 6553 1f70 00       		.byte	0
 6554 1f71 00       		.byte	0
 6555 1f72 25       		.uleb128 0x25
 6556 1f73 09070000 		.4byte	.LASF268
 6557 1f77 01       		.byte	0x1
 6558 1f78 0B02     		.2byte	0x20b
 6559 1f7a 00000000 		.4byte	.LFB119
 6560 1f7e 0C000000 		.4byte	.LFE119-.LFB119
 6561 1f82 01       		.uleb128 0x1
 6562 1f83 9C       		.byte	0x9c
 6563 1f84 CA1F0000 		.4byte	0x1fca
 6564 1f88 26       		.uleb128 0x26
 6565 1f89 D9120000 		.4byte	.LASF202
 6566 1f8d 01       		.byte	0x1
ARM GAS  C:\Users\haske\AppData\Local\Temp\ccb2zsXg.s 			page 128


 6567 1f8e 0B02     		.2byte	0x20b
 6568 1f90 D6090000 		.4byte	0x9d6
 6569 1f94 65100000 		.4byte	.LLST130
 6570 1f98 26       		.uleb128 0x26
 6571 1f99 28060000 		.4byte	.LASF193
 6572 1f9d 01       		.byte	0x1
 6573 1f9e 0B02     		.2byte	0x20b
 6574 1fa0 F0020000 		.4byte	0x2f0
 6575 1fa4 86100000 		.4byte	.LLST131
 6576 1fa8 27       		.uleb128 0x27
 6577 1fa9 7600     		.ascii	"v\000"
 6578 1fab 01       		.byte	0x1
 6579 1fac 0D02     		.2byte	0x20d
 6580 1fae 2C060000 		.4byte	0x62c
 6581 1fb2 23       		.uleb128 0x23
 6582 1fb3 0A000000 		.4byte	.LVL197
 6583 1fb7 57260000 		.4byte	0x2657
 6584 1fbb 24       		.uleb128 0x24
 6585 1fbc 01       		.uleb128 0x1
 6586 1fbd 50       		.byte	0x50
 6587 1fbe 03       		.uleb128 0x3
 6588 1fbf F3       		.byte	0xf3
 6589 1fc0 01       		.uleb128 0x1
 6590 1fc1 50       		.byte	0x50
 6591 1fc2 24       		.uleb128 0x24
 6592 1fc3 01       		.uleb128 0x1
 6593 1fc4 51       		.byte	0x51
 6594 1fc5 02       		.uleb128 0x2
 6595 1fc6 08       		.byte	0x8
 6596 1fc7 55       		.byte	0x55
 6597 1fc8 00       		.byte	0
 6598 1fc9 00       		.byte	0
 6599 1fca 25       		.uleb128 0x25
 6600 1fcb 1E020000 		.4byte	.LASF269
 6601 1fcf 01       		.byte	0x1
 6602 1fd0 1302     		.2byte	0x213
 6603 1fd2 00000000 		.4byte	.LFB120
 6604 1fd6 0C000000 		.4byte	.LFE120-.LFB120
 6605 1fda 01       		.uleb128 0x1
 6606 1fdb 9C       		.byte	0x9c
 6607 1fdc 22200000 		.4byte	0x2022
 6608 1fe0 26       		.uleb128 0x26
 6609 1fe1 D9120000 		.4byte	.LASF202
 6610 1fe5 01       		.byte	0x1
 6611 1fe6 1302     		.2byte	0x213
 6612 1fe8 D6090000 		.4byte	0x9d6
 6613 1fec 99100000 		.4byte	.LLST132
 6614 1ff0 26       		.uleb128 0x26
 6615 1ff1 28060000 		.4byte	.LASF193
 6616 1ff5 01       		.byte	0x1
 6617 1ff6 1302     		.2byte	0x213
 6618 1ff8 FB020000 		.4byte	0x2fb
 6619 1ffc BA100000 		.4byte	.LLST133
 6620 2000 27       		.uleb128 0x27
 6621 2001 7600     		.ascii	"v\000"
 6622 2003 01       		.byte	0x1
 6623 2004 1502     		.2byte	0x215
ARM GAS  C:\Users\haske\AppData\Local\Temp\ccb2zsXg.s 			page 129


 6624 2006 2C060000 		.4byte	0x62c
 6625 200a 23       		.uleb128 0x23
 6626 200b 0A000000 		.4byte	.LVL200
 6627 200f 57260000 		.4byte	0x2657
 6628 2013 24       		.uleb128 0x24
 6629 2014 01       		.uleb128 0x1
 6630 2015 50       		.byte	0x50
 6631 2016 03       		.uleb128 0x3
 6632 2017 F3       		.byte	0xf3
 6633 2018 01       		.uleb128 0x1
 6634 2019 50       		.byte	0x50
 6635 201a 24       		.uleb128 0x24
 6636 201b 01       		.uleb128 0x1
 6637 201c 51       		.byte	0x51
 6638 201d 02       		.uleb128 0x2
 6639 201e 08       		.byte	0x8
 6640 201f 56       		.byte	0x56
 6641 2020 00       		.byte	0
 6642 2021 00       		.byte	0
 6643 2022 25       		.uleb128 0x25
 6644 2023 20110000 		.4byte	.LASF270
 6645 2027 01       		.byte	0x1
 6646 2028 1B02     		.2byte	0x21b
 6647 202a 00000000 		.4byte	.LFB121
 6648 202e 0C000000 		.4byte	.LFE121-.LFB121
 6649 2032 01       		.uleb128 0x1
 6650 2033 9C       		.byte	0x9c
 6651 2034 81200000 		.4byte	0x2081
 6652 2038 26       		.uleb128 0x26
 6653 2039 D9120000 		.4byte	.LASF202
 6654 203d 01       		.byte	0x1
 6655 203e 1B02     		.2byte	0x21b
 6656 2040 D6090000 		.4byte	0x9d6
 6657 2044 DB100000 		.4byte	.LLST134
 6658 2048 26       		.uleb128 0x26
 6659 2049 28060000 		.4byte	.LASF193
 6660 204d 01       		.byte	0x1
 6661 204e 1B02     		.2byte	0x21b
 6662 2050 81200000 		.4byte	0x2081
 6663 2054 FC100000 		.4byte	.LLST135
 6664 2058 27       		.uleb128 0x27
 6665 2059 7600     		.ascii	"v\000"
 6666 205b 01       		.byte	0x1
 6667 205c 1D02     		.2byte	0x21d
 6668 205e 2C060000 		.4byte	0x62c
 6669 2062 23       		.uleb128 0x23
 6670 2063 0A000000 		.4byte	.LVL203
 6671 2067 57260000 		.4byte	0x2657
 6672 206b 24       		.uleb128 0x24
 6673 206c 01       		.uleb128 0x1
 6674 206d 50       		.byte	0x50
 6675 206e 03       		.uleb128 0x3
 6676 206f F3       		.byte	0xf3
 6677 2070 01       		.uleb128 0x1
 6678 2071 50       		.byte	0x50
 6679 2072 24       		.uleb128 0x24
 6680 2073 01       		.uleb128 0x1
ARM GAS  C:\Users\haske\AppData\Local\Temp\ccb2zsXg.s 			page 130


 6681 2074 51       		.byte	0x51
 6682 2075 02       		.uleb128 0x2
 6683 2076 08       		.byte	0x8
 6684 2077 57       		.byte	0x57
 6685 2078 24       		.uleb128 0x24
 6686 2079 01       		.uleb128 0x1
 6687 207a 52       		.byte	0x52
 6688 207b 03       		.uleb128 0x3
 6689 207c F3       		.byte	0xf3
 6690 207d 01       		.uleb128 0x1
 6691 207e 51       		.byte	0x51
 6692 207f 00       		.byte	0
 6693 2080 00       		.byte	0
 6694 2081 0B       		.uleb128 0xb
 6695 2082 04       		.byte	0x4
 6696 2083 87200000 		.4byte	0x2087
 6697 2087 0C       		.uleb128 0xc
 6698 2088 78020000 		.4byte	0x278
 6699 208c 25       		.uleb128 0x25
 6700 208d BE140000 		.4byte	.LASF271
 6701 2091 01       		.byte	0x1
 6702 2092 2302     		.2byte	0x223
 6703 2094 00000000 		.4byte	.LFB122
 6704 2098 0C000000 		.4byte	.LFE122-.LFB122
 6705 209c 01       		.uleb128 0x1
 6706 209d 9C       		.byte	0x9c
 6707 209e E4200000 		.4byte	0x20e4
 6708 20a2 26       		.uleb128 0x26
 6709 20a3 D9120000 		.4byte	.LASF202
 6710 20a7 01       		.byte	0x1
 6711 20a8 2302     		.2byte	0x223
 6712 20aa D6090000 		.4byte	0x9d6
 6713 20ae 28110000 		.4byte	.LLST136
 6714 20b2 26       		.uleb128 0x26
 6715 20b3 28060000 		.4byte	.LASF193
 6716 20b7 01       		.byte	0x1
 6717 20b8 2302     		.2byte	0x223
 6718 20ba F6000000 		.4byte	0xf6
 6719 20be 49110000 		.4byte	.LLST137
 6720 20c2 27       		.uleb128 0x27
 6721 20c3 7600     		.ascii	"v\000"
 6722 20c5 01       		.byte	0x1
 6723 20c6 2502     		.2byte	0x225
 6724 20c8 2C060000 		.4byte	0x62c
 6725 20cc 23       		.uleb128 0x23
 6726 20cd 0A000000 		.4byte	.LVL206
 6727 20d1 57260000 		.4byte	0x2657
 6728 20d5 24       		.uleb128 0x24
 6729 20d6 01       		.uleb128 0x1
 6730 20d7 50       		.byte	0x50
 6731 20d8 03       		.uleb128 0x3
 6732 20d9 F3       		.byte	0xf3
 6733 20da 01       		.uleb128 0x1
 6734 20db 50       		.byte	0x50
 6735 20dc 24       		.uleb128 0x24
 6736 20dd 01       		.uleb128 0x1
 6737 20de 51       		.byte	0x51
ARM GAS  C:\Users\haske\AppData\Local\Temp\ccb2zsXg.s 			page 131


 6738 20df 02       		.uleb128 0x2
 6739 20e0 08       		.byte	0x8
 6740 20e1 58       		.byte	0x58
 6741 20e2 00       		.byte	0
 6742 20e3 00       		.byte	0
 6743 20e4 25       		.uleb128 0x25
 6744 20e5 350D0000 		.4byte	.LASF272
 6745 20e9 01       		.byte	0x1
 6746 20ea 2B02     		.2byte	0x22b
 6747 20ec 00000000 		.4byte	.LFB123
 6748 20f0 0C000000 		.4byte	.LFE123-.LFB123
 6749 20f4 01       		.uleb128 0x1
 6750 20f5 9C       		.byte	0x9c
 6751 20f6 3C210000 		.4byte	0x213c
 6752 20fa 26       		.uleb128 0x26
 6753 20fb D9120000 		.4byte	.LASF202
 6754 20ff 01       		.byte	0x1
 6755 2100 2B02     		.2byte	0x22b
 6756 2102 D6090000 		.4byte	0x9d6
 6757 2106 6A110000 		.4byte	.LLST138
 6758 210a 26       		.uleb128 0x26
 6759 210b 28060000 		.4byte	.LASF193
 6760 210f 01       		.byte	0x1
 6761 2110 2B02     		.2byte	0x22b
 6762 2112 F6000000 		.4byte	0xf6
 6763 2116 8B110000 		.4byte	.LLST139
 6764 211a 27       		.uleb128 0x27
 6765 211b 7600     		.ascii	"v\000"
 6766 211d 01       		.byte	0x1
 6767 211e 2D02     		.2byte	0x22d
 6768 2120 2C060000 		.4byte	0x62c
 6769 2124 23       		.uleb128 0x23
 6770 2125 0A000000 		.4byte	.LVL209
 6771 2129 57260000 		.4byte	0x2657
 6772 212d 24       		.uleb128 0x24
 6773 212e 01       		.uleb128 0x1
 6774 212f 50       		.byte	0x50
 6775 2130 03       		.uleb128 0x3
 6776 2131 F3       		.byte	0xf3
 6777 2132 01       		.uleb128 0x1
 6778 2133 50       		.byte	0x50
 6779 2134 24       		.uleb128 0x24
 6780 2135 01       		.uleb128 0x1
 6781 2136 51       		.byte	0x51
 6782 2137 02       		.uleb128 0x2
 6783 2138 08       		.byte	0x8
 6784 2139 59       		.byte	0x59
 6785 213a 00       		.byte	0
 6786 213b 00       		.byte	0
 6787 213c 25       		.uleb128 0x25
 6788 213d 6D0E0000 		.4byte	.LASF273
 6789 2141 01       		.byte	0x1
 6790 2142 3302     		.2byte	0x233
 6791 2144 00000000 		.4byte	.LFB124
 6792 2148 0C000000 		.4byte	.LFE124-.LFB124
 6793 214c 01       		.uleb128 0x1
 6794 214d 9C       		.byte	0x9c
ARM GAS  C:\Users\haske\AppData\Local\Temp\ccb2zsXg.s 			page 132


 6795 214e 94210000 		.4byte	0x2194
 6796 2152 26       		.uleb128 0x26
 6797 2153 D9120000 		.4byte	.LASF202
 6798 2157 01       		.byte	0x1
 6799 2158 3302     		.2byte	0x233
 6800 215a D6090000 		.4byte	0x9d6
 6801 215e AC110000 		.4byte	.LLST140
 6802 2162 26       		.uleb128 0x26
 6803 2163 28060000 		.4byte	.LASF193
 6804 2167 01       		.byte	0x1
 6805 2168 3302     		.2byte	0x233
 6806 216a 50050000 		.4byte	0x550
 6807 216e CD110000 		.4byte	.LLST141
 6808 2172 27       		.uleb128 0x27
 6809 2173 7600     		.ascii	"v\000"
 6810 2175 01       		.byte	0x1
 6811 2176 3502     		.2byte	0x235
 6812 2178 2C060000 		.4byte	0x62c
 6813 217c 23       		.uleb128 0x23
 6814 217d 0A000000 		.4byte	.LVL212
 6815 2181 57260000 		.4byte	0x2657
 6816 2185 24       		.uleb128 0x24
 6817 2186 01       		.uleb128 0x1
 6818 2187 50       		.byte	0x50
 6819 2188 03       		.uleb128 0x3
 6820 2189 F3       		.byte	0xf3
 6821 218a 01       		.uleb128 0x1
 6822 218b 50       		.byte	0x50
 6823 218c 24       		.uleb128 0x24
 6824 218d 01       		.uleb128 0x1
 6825 218e 51       		.byte	0x51
 6826 218f 02       		.uleb128 0x2
 6827 2190 08       		.byte	0x8
 6828 2191 5A       		.byte	0x5a
 6829 2192 00       		.byte	0
 6830 2193 00       		.byte	0
 6831 2194 25       		.uleb128 0x25
 6832 2195 DE0C0000 		.4byte	.LASF274
 6833 2199 01       		.byte	0x1
 6834 219a 3B02     		.2byte	0x23b
 6835 219c 00000000 		.4byte	.LFB125
 6836 21a0 0C000000 		.4byte	.LFE125-.LFB125
 6837 21a4 01       		.uleb128 0x1
 6838 21a5 9C       		.byte	0x9c
 6839 21a6 EC210000 		.4byte	0x21ec
 6840 21aa 26       		.uleb128 0x26
 6841 21ab D9120000 		.4byte	.LASF202
 6842 21af 01       		.byte	0x1
 6843 21b0 3B02     		.2byte	0x23b
 6844 21b2 D6090000 		.4byte	0x9d6
 6845 21b6 EE110000 		.4byte	.LLST142
 6846 21ba 26       		.uleb128 0x26
 6847 21bb 28060000 		.4byte	.LASF193
 6848 21bf 01       		.byte	0x1
 6849 21c0 3B02     		.2byte	0x23b
 6850 21c2 2F050000 		.4byte	0x52f
 6851 21c6 0F120000 		.4byte	.LLST143
ARM GAS  C:\Users\haske\AppData\Local\Temp\ccb2zsXg.s 			page 133


 6852 21ca 27       		.uleb128 0x27
 6853 21cb 7600     		.ascii	"v\000"
 6854 21cd 01       		.byte	0x1
 6855 21ce 3D02     		.2byte	0x23d
 6856 21d0 2C060000 		.4byte	0x62c
 6857 21d4 23       		.uleb128 0x23
 6858 21d5 0A000000 		.4byte	.LVL215
 6859 21d9 57260000 		.4byte	0x2657
 6860 21dd 24       		.uleb128 0x24
 6861 21de 01       		.uleb128 0x1
 6862 21df 50       		.byte	0x50
 6863 21e0 03       		.uleb128 0x3
 6864 21e1 F3       		.byte	0xf3
 6865 21e2 01       		.uleb128 0x1
 6866 21e3 50       		.byte	0x50
 6867 21e4 24       		.uleb128 0x24
 6868 21e5 01       		.uleb128 0x1
 6869 21e6 51       		.byte	0x51
 6870 21e7 02       		.uleb128 0x2
 6871 21e8 08       		.byte	0x8
 6872 21e9 5B       		.byte	0x5b
 6873 21ea 00       		.byte	0
 6874 21eb 00       		.byte	0
 6875 21ec 25       		.uleb128 0x25
 6876 21ed F9110000 		.4byte	.LASF275
 6877 21f1 01       		.byte	0x1
 6878 21f2 4302     		.2byte	0x243
 6879 21f4 00000000 		.4byte	.LFB126
 6880 21f8 0C000000 		.4byte	.LFE126-.LFB126
 6881 21fc 01       		.uleb128 0x1
 6882 21fd 9C       		.byte	0x9c
 6883 21fe 43220000 		.4byte	0x2243
 6884 2202 26       		.uleb128 0x26
 6885 2203 D9120000 		.4byte	.LASF202
 6886 2207 01       		.byte	0x1
 6887 2208 4302     		.2byte	0x243
 6888 220a D6090000 		.4byte	0x9d6
 6889 220e 30120000 		.4byte	.LLST144
 6890 2212 26       		.uleb128 0x26
 6891 2213 28060000 		.4byte	.LASF193
 6892 2217 01       		.byte	0x1
 6893 2218 4302     		.2byte	0x243
 6894 221a F6000000 		.4byte	0xf6
 6895 221e 51120000 		.4byte	.LLST145
 6896 2222 27       		.uleb128 0x27
 6897 2223 7600     		.ascii	"v\000"
 6898 2225 01       		.byte	0x1
 6899 2226 4502     		.2byte	0x245
 6900 2228 2C060000 		.4byte	0x62c
 6901 222c 23       		.uleb128 0x23
 6902 222d 0A000000 		.4byte	.LVL218
 6903 2231 57260000 		.4byte	0x2657
 6904 2235 24       		.uleb128 0x24
 6905 2236 01       		.uleb128 0x1
 6906 2237 50       		.byte	0x50
 6907 2238 03       		.uleb128 0x3
 6908 2239 F3       		.byte	0xf3
ARM GAS  C:\Users\haske\AppData\Local\Temp\ccb2zsXg.s 			page 134


 6909 223a 01       		.uleb128 0x1
 6910 223b 50       		.byte	0x50
 6911 223c 24       		.uleb128 0x24
 6912 223d 01       		.uleb128 0x1
 6913 223e 51       		.byte	0x51
 6914 223f 01       		.uleb128 0x1
 6915 2240 3B       		.byte	0x3b
 6916 2241 00       		.byte	0
 6917 2242 00       		.byte	0
 6918 2243 25       		.uleb128 0x25
 6919 2244 98110000 		.4byte	.LASF276
 6920 2248 01       		.byte	0x1
 6921 2249 4B02     		.2byte	0x24b
 6922 224b 00000000 		.4byte	.LFB127
 6923 224f 0C000000 		.4byte	.LFE127-.LFB127
 6924 2253 01       		.uleb128 0x1
 6925 2254 9C       		.byte	0x9c
 6926 2255 9A220000 		.4byte	0x229a
 6927 2259 26       		.uleb128 0x26
 6928 225a D9120000 		.4byte	.LASF202
 6929 225e 01       		.byte	0x1
 6930 225f 4B02     		.2byte	0x24b
 6931 2261 D6090000 		.4byte	0x9d6
 6932 2265 72120000 		.4byte	.LLST146
 6933 2269 26       		.uleb128 0x26
 6934 226a 28060000 		.4byte	.LASF193
 6935 226e 01       		.byte	0x1
 6936 226f 4B02     		.2byte	0x24b
 6937 2271 37020000 		.4byte	0x237
 6938 2275 93120000 		.4byte	.LLST147
 6939 2279 27       		.uleb128 0x27
 6940 227a 7600     		.ascii	"v\000"
 6941 227c 01       		.byte	0x1
 6942 227d 4D02     		.2byte	0x24d
 6943 227f 2C060000 		.4byte	0x62c
 6944 2283 23       		.uleb128 0x23
 6945 2284 0A000000 		.4byte	.LVL221
 6946 2288 57260000 		.4byte	0x2657
 6947 228c 24       		.uleb128 0x24
 6948 228d 01       		.uleb128 0x1
 6949 228e 50       		.byte	0x50
 6950 228f 03       		.uleb128 0x3
 6951 2290 F3       		.byte	0xf3
 6952 2291 01       		.uleb128 0x1
 6953 2292 50       		.byte	0x50
 6954 2293 24       		.uleb128 0x24
 6955 2294 01       		.uleb128 0x1
 6956 2295 51       		.byte	0x51
 6957 2296 01       		.uleb128 0x1
 6958 2297 47       		.byte	0x47
 6959 2298 00       		.byte	0
 6960 2299 00       		.byte	0
 6961 229a 25       		.uleb128 0x25
 6962 229b AB130000 		.4byte	.LASF277
 6963 229f 01       		.byte	0x1
 6964 22a0 5302     		.2byte	0x253
 6965 22a2 00000000 		.4byte	.LFB128
ARM GAS  C:\Users\haske\AppData\Local\Temp\ccb2zsXg.s 			page 135


 6966 22a6 0C000000 		.4byte	.LFE128-.LFB128
 6967 22aa 01       		.uleb128 0x1
 6968 22ab 9C       		.byte	0x9c
 6969 22ac F2220000 		.4byte	0x22f2
 6970 22b0 26       		.uleb128 0x26
 6971 22b1 D9120000 		.4byte	.LASF202
 6972 22b5 01       		.byte	0x1
 6973 22b6 5302     		.2byte	0x253
 6974 22b8 D6090000 		.4byte	0x9d6
 6975 22bc B4120000 		.4byte	.LLST148
 6976 22c0 26       		.uleb128 0x26
 6977 22c1 28060000 		.4byte	.LASF193
 6978 22c5 01       		.byte	0x1
 6979 22c6 5302     		.2byte	0x253
 6980 22c8 FB020000 		.4byte	0x2fb
 6981 22cc D5120000 		.4byte	.LLST149
 6982 22d0 27       		.uleb128 0x27
 6983 22d1 7600     		.ascii	"v\000"
 6984 22d3 01       		.byte	0x1
 6985 22d4 5502     		.2byte	0x255
 6986 22d6 2C060000 		.4byte	0x62c
 6987 22da 23       		.uleb128 0x23
 6988 22db 0A000000 		.4byte	.LVL224
 6989 22df 57260000 		.4byte	0x2657
 6990 22e3 24       		.uleb128 0x24
 6991 22e4 01       		.uleb128 0x1
 6992 22e5 50       		.byte	0x50
 6993 22e6 03       		.uleb128 0x3
 6994 22e7 F3       		.byte	0xf3
 6995 22e8 01       		.uleb128 0x1
 6996 22e9 50       		.byte	0x50
 6997 22ea 24       		.uleb128 0x24
 6998 22eb 01       		.uleb128 0x1
 6999 22ec 51       		.byte	0x51
 7000 22ed 02       		.uleb128 0x2
 7001 22ee 08       		.byte	0x8
 7002 22ef 60       		.byte	0x60
 7003 22f0 00       		.byte	0
 7004 22f1 00       		.byte	0
 7005 22f2 25       		.uleb128 0x25
 7006 22f3 BB120000 		.4byte	.LASF278
 7007 22f7 01       		.byte	0x1
 7008 22f8 5B02     		.2byte	0x25b
 7009 22fa 00000000 		.4byte	.LFB129
 7010 22fe 0C000000 		.4byte	.LFE129-.LFB129
 7011 2302 01       		.uleb128 0x1
 7012 2303 9C       		.byte	0x9c
 7013 2304 51230000 		.4byte	0x2351
 7014 2308 26       		.uleb128 0x26
 7015 2309 D9120000 		.4byte	.LASF202
 7016 230d 01       		.byte	0x1
 7017 230e 5B02     		.2byte	0x25b
 7018 2310 D6090000 		.4byte	0x9d6
 7019 2314 F6120000 		.4byte	.LLST150
 7020 2318 26       		.uleb128 0x26
 7021 2319 28060000 		.4byte	.LASF193
 7022 231d 01       		.byte	0x1
ARM GAS  C:\Users\haske\AppData\Local\Temp\ccb2zsXg.s 			page 136


 7023 231e 5B02     		.2byte	0x25b
 7024 2320 51230000 		.4byte	0x2351
 7025 2324 17130000 		.4byte	.LLST151
 7026 2328 27       		.uleb128 0x27
 7027 2329 7600     		.ascii	"v\000"
 7028 232b 01       		.byte	0x1
 7029 232c 5D02     		.2byte	0x25d
 7030 232e 2C060000 		.4byte	0x62c
 7031 2332 23       		.uleb128 0x23
 7032 2333 0A000000 		.4byte	.LVL227
 7033 2337 57260000 		.4byte	0x2657
 7034 233b 24       		.uleb128 0x24
 7035 233c 01       		.uleb128 0x1
 7036 233d 50       		.byte	0x50
 7037 233e 03       		.uleb128 0x3
 7038 233f F3       		.byte	0xf3
 7039 2340 01       		.uleb128 0x1
 7040 2341 50       		.byte	0x50
 7041 2342 24       		.uleb128 0x24
 7042 2343 01       		.uleb128 0x1
 7043 2344 51       		.byte	0x51
 7044 2345 02       		.uleb128 0x2
 7045 2346 08       		.byte	0x8
 7046 2347 61       		.byte	0x61
 7047 2348 24       		.uleb128 0x24
 7048 2349 01       		.uleb128 0x1
 7049 234a 52       		.byte	0x52
 7050 234b 03       		.uleb128 0x3
 7051 234c F3       		.byte	0xf3
 7052 234d 01       		.uleb128 0x1
 7053 234e 51       		.byte	0x51
 7054 234f 00       		.byte	0
 7055 2350 00       		.byte	0
 7056 2351 0B       		.uleb128 0xb
 7057 2352 04       		.byte	0x4
 7058 2353 57230000 		.4byte	0x2357
 7059 2357 0C       		.uleb128 0xc
 7060 2358 60030000 		.4byte	0x360
 7061 235c 25       		.uleb128 0x25
 7062 235d BC130000 		.4byte	.LASF279
 7063 2361 01       		.byte	0x1
 7064 2362 6302     		.2byte	0x263
 7065 2364 00000000 		.4byte	.LFB130
 7066 2368 0C000000 		.4byte	.LFE130-.LFB130
 7067 236c 01       		.uleb128 0x1
 7068 236d 9C       		.byte	0x9c
 7069 236e B4230000 		.4byte	0x23b4
 7070 2372 26       		.uleb128 0x26
 7071 2373 D9120000 		.4byte	.LASF202
 7072 2377 01       		.byte	0x1
 7073 2378 6302     		.2byte	0x263
 7074 237a D6090000 		.4byte	0x9d6
 7075 237e 43130000 		.4byte	.LLST152
 7076 2382 26       		.uleb128 0x26
 7077 2383 28060000 		.4byte	.LASF193
 7078 2387 01       		.byte	0x1
 7079 2388 6302     		.2byte	0x263
ARM GAS  C:\Users\haske\AppData\Local\Temp\ccb2zsXg.s 			page 137


 7080 238a FB020000 		.4byte	0x2fb
 7081 238e 64130000 		.4byte	.LLST153
 7082 2392 27       		.uleb128 0x27
 7083 2393 7600     		.ascii	"v\000"
 7084 2395 01       		.byte	0x1
 7085 2396 6502     		.2byte	0x265
 7086 2398 2C060000 		.4byte	0x62c
 7087 239c 23       		.uleb128 0x23
 7088 239d 0A000000 		.4byte	.LVL230
 7089 23a1 57260000 		.4byte	0x2657
 7090 23a5 24       		.uleb128 0x24
 7091 23a6 01       		.uleb128 0x1
 7092 23a7 50       		.byte	0x50
 7093 23a8 03       		.uleb128 0x3
 7094 23a9 F3       		.byte	0xf3
 7095 23aa 01       		.uleb128 0x1
 7096 23ab 50       		.byte	0x50
 7097 23ac 24       		.uleb128 0x24
 7098 23ad 01       		.uleb128 0x1
 7099 23ae 51       		.byte	0x51
 7100 23af 02       		.uleb128 0x2
 7101 23b0 08       		.byte	0x8
 7102 23b1 62       		.byte	0x62
 7103 23b2 00       		.byte	0
 7104 23b3 00       		.byte	0
 7105 23b4 25       		.uleb128 0x25
 7106 23b5 9B070000 		.4byte	.LASF280
 7107 23b9 01       		.byte	0x1
 7108 23ba 6B02     		.2byte	0x26b
 7109 23bc 00000000 		.4byte	.LFB131
 7110 23c0 0C000000 		.4byte	.LFE131-.LFB131
 7111 23c4 01       		.uleb128 0x1
 7112 23c5 9C       		.byte	0x9c
 7113 23c6 13240000 		.4byte	0x2413
 7114 23ca 26       		.uleb128 0x26
 7115 23cb D9120000 		.4byte	.LASF202
 7116 23cf 01       		.byte	0x1
 7117 23d0 6B02     		.2byte	0x26b
 7118 23d2 D6090000 		.4byte	0x9d6
 7119 23d6 85130000 		.4byte	.LLST154
 7120 23da 26       		.uleb128 0x26
 7121 23db 28060000 		.4byte	.LASF193
 7122 23df 01       		.byte	0x1
 7123 23e0 6B02     		.2byte	0x26b
 7124 23e2 13240000 		.4byte	0x2413
 7125 23e6 A6130000 		.4byte	.LLST155
 7126 23ea 27       		.uleb128 0x27
 7127 23eb 7600     		.ascii	"v\000"
 7128 23ed 01       		.byte	0x1
 7129 23ee 6D02     		.2byte	0x26d
 7130 23f0 2C060000 		.4byte	0x62c
 7131 23f4 23       		.uleb128 0x23
 7132 23f5 0A000000 		.4byte	.LVL233
 7133 23f9 57260000 		.4byte	0x2657
 7134 23fd 24       		.uleb128 0x24
 7135 23fe 01       		.uleb128 0x1
 7136 23ff 50       		.byte	0x50
ARM GAS  C:\Users\haske\AppData\Local\Temp\ccb2zsXg.s 			page 138


 7137 2400 03       		.uleb128 0x3
 7138 2401 F3       		.byte	0xf3
 7139 2402 01       		.uleb128 0x1
 7140 2403 50       		.byte	0x50
 7141 2404 24       		.uleb128 0x24
 7142 2405 01       		.uleb128 0x1
 7143 2406 51       		.byte	0x51
 7144 2407 02       		.uleb128 0x2
 7145 2408 08       		.byte	0x8
 7146 2409 63       		.byte	0x63
 7147 240a 24       		.uleb128 0x24
 7148 240b 01       		.uleb128 0x1
 7149 240c 52       		.byte	0x52
 7150 240d 03       		.uleb128 0x3
 7151 240e F3       		.byte	0xf3
 7152 240f 01       		.uleb128 0x1
 7153 2410 51       		.byte	0x51
 7154 2411 00       		.byte	0
 7155 2412 00       		.byte	0
 7156 2413 0B       		.uleb128 0xb
 7157 2414 04       		.byte	0x4
 7158 2415 19240000 		.4byte	0x2419
 7159 2419 0C       		.uleb128 0xc
 7160 241a 24050000 		.4byte	0x524
 7161 241e 25       		.uleb128 0x25
 7162 241f 47080000 		.4byte	.LASF281
 7163 2423 01       		.byte	0x1
 7164 2424 7302     		.2byte	0x273
 7165 2426 00000000 		.4byte	.LFB132
 7166 242a 0C000000 		.4byte	.LFE132-.LFB132
 7167 242e 01       		.uleb128 0x1
 7168 242f 9C       		.byte	0x9c
 7169 2430 7D240000 		.4byte	0x247d
 7170 2434 26       		.uleb128 0x26
 7171 2435 D9120000 		.4byte	.LASF202
 7172 2439 01       		.byte	0x1
 7173 243a 7302     		.2byte	0x273
 7174 243c D6090000 		.4byte	0x9d6
 7175 2440 D2130000 		.4byte	.LLST156
 7176 2444 26       		.uleb128 0x26
 7177 2445 28060000 		.4byte	.LASF193
 7178 2449 01       		.byte	0x1
 7179 244a 7302     		.2byte	0x273
 7180 244c E4000000 		.4byte	0xe4
 7181 2450 F3130000 		.4byte	.LLST157
 7182 2454 27       		.uleb128 0x27
 7183 2455 7600     		.ascii	"v\000"
 7184 2457 01       		.byte	0x1
 7185 2458 7502     		.2byte	0x275
 7186 245a 2C060000 		.4byte	0x62c
 7187 245e 23       		.uleb128 0x23
 7188 245f 0A000000 		.4byte	.LVL236
 7189 2463 57260000 		.4byte	0x2657
 7190 2467 24       		.uleb128 0x24
 7191 2468 01       		.uleb128 0x1
 7192 2469 50       		.byte	0x50
 7193 246a 03       		.uleb128 0x3
ARM GAS  C:\Users\haske\AppData\Local\Temp\ccb2zsXg.s 			page 139


 7194 246b F3       		.byte	0xf3
 7195 246c 01       		.uleb128 0x1
 7196 246d 50       		.byte	0x50
 7197 246e 24       		.uleb128 0x24
 7198 246f 01       		.uleb128 0x1
 7199 2470 51       		.byte	0x51
 7200 2471 02       		.uleb128 0x2
 7201 2472 08       		.byte	0x8
 7202 2473 64       		.byte	0x64
 7203 2474 24       		.uleb128 0x24
 7204 2475 01       		.uleb128 0x1
 7205 2476 52       		.byte	0x52
 7206 2477 03       		.uleb128 0x3
 7207 2478 F3       		.byte	0xf3
 7208 2479 01       		.uleb128 0x1
 7209 247a 51       		.byte	0x51
 7210 247b 00       		.byte	0
 7211 247c 00       		.byte	0
 7212 247d 25       		.uleb128 0x25
 7213 247e 2B0F0000 		.4byte	.LASF282
 7214 2482 01       		.byte	0x1
 7215 2483 7B02     		.2byte	0x27b
 7216 2485 00000000 		.4byte	.LFB133
 7217 2489 0C000000 		.4byte	.LFE133-.LFB133
 7218 248d 01       		.uleb128 0x1
 7219 248e 9C       		.byte	0x9c
 7220 248f DC240000 		.4byte	0x24dc
 7221 2493 26       		.uleb128 0x26
 7222 2494 D9120000 		.4byte	.LASF202
 7223 2498 01       		.byte	0x1
 7224 2499 7B02     		.2byte	0x27b
 7225 249b D6090000 		.4byte	0x9d6
 7226 249f 1F140000 		.4byte	.LLST158
 7227 24a3 26       		.uleb128 0x26
 7228 24a4 28060000 		.4byte	.LASF193
 7229 24a8 01       		.byte	0x1
 7230 24a9 7B02     		.2byte	0x27b
 7231 24ab E4000000 		.4byte	0xe4
 7232 24af 40140000 		.4byte	.LLST159
 7233 24b3 27       		.uleb128 0x27
 7234 24b4 7600     		.ascii	"v\000"
 7235 24b6 01       		.byte	0x1
 7236 24b7 7D02     		.2byte	0x27d
 7237 24b9 2C060000 		.4byte	0x62c
 7238 24bd 23       		.uleb128 0x23
 7239 24be 0A000000 		.4byte	.LVL239
 7240 24c2 57260000 		.4byte	0x2657
 7241 24c6 24       		.uleb128 0x24
 7242 24c7 01       		.uleb128 0x1
 7243 24c8 50       		.byte	0x50
 7244 24c9 03       		.uleb128 0x3
 7245 24ca F3       		.byte	0xf3
 7246 24cb 01       		.uleb128 0x1
 7247 24cc 50       		.byte	0x50
 7248 24cd 24       		.uleb128 0x24
 7249 24ce 01       		.uleb128 0x1
 7250 24cf 51       		.byte	0x51
ARM GAS  C:\Users\haske\AppData\Local\Temp\ccb2zsXg.s 			page 140


 7251 24d0 02       		.uleb128 0x2
 7252 24d1 08       		.byte	0x8
 7253 24d2 65       		.byte	0x65
 7254 24d3 24       		.uleb128 0x24
 7255 24d4 01       		.uleb128 0x1
 7256 24d5 52       		.byte	0x52
 7257 24d6 03       		.uleb128 0x3
 7258 24d7 F3       		.byte	0xf3
 7259 24d8 01       		.uleb128 0x1
 7260 24d9 51       		.byte	0x51
 7261 24da 00       		.byte	0
 7262 24db 00       		.byte	0
 7263 24dc 25       		.uleb128 0x25
 7264 24dd B1010000 		.4byte	.LASF283
 7265 24e1 01       		.byte	0x1
 7266 24e2 8302     		.2byte	0x283
 7267 24e4 00000000 		.4byte	.LFB134
 7268 24e8 0C000000 		.4byte	.LFE134-.LFB134
 7269 24ec 01       		.uleb128 0x1
 7270 24ed 9C       		.byte	0x9c
 7271 24ee 3B250000 		.4byte	0x253b
 7272 24f2 26       		.uleb128 0x26
 7273 24f3 D9120000 		.4byte	.LASF202
 7274 24f7 01       		.byte	0x1
 7275 24f8 8302     		.2byte	0x283
 7276 24fa D6090000 		.4byte	0x9d6
 7277 24fe 6C140000 		.4byte	.LLST160
 7278 2502 26       		.uleb128 0x26
 7279 2503 28060000 		.4byte	.LASF193
 7280 2507 01       		.byte	0x1
 7281 2508 8302     		.2byte	0x283
 7282 250a 3B250000 		.4byte	0x253b
 7283 250e 8D140000 		.4byte	.LLST161
 7284 2512 27       		.uleb128 0x27
 7285 2513 7600     		.ascii	"v\000"
 7286 2515 01       		.byte	0x1
 7287 2516 8502     		.2byte	0x285
 7288 2518 2C060000 		.4byte	0x62c
 7289 251c 23       		.uleb128 0x23
 7290 251d 0A000000 		.4byte	.LVL242
 7291 2521 57260000 		.4byte	0x2657
 7292 2525 24       		.uleb128 0x24
 7293 2526 01       		.uleb128 0x1
 7294 2527 50       		.byte	0x50
 7295 2528 03       		.uleb128 0x3
 7296 2529 F3       		.byte	0xf3
 7297 252a 01       		.uleb128 0x1
 7298 252b 50       		.byte	0x50
 7299 252c 24       		.uleb128 0x24
 7300 252d 01       		.uleb128 0x1
 7301 252e 51       		.byte	0x51
 7302 252f 02       		.uleb128 0x2
 7303 2530 08       		.byte	0x8
 7304 2531 66       		.byte	0x66
 7305 2532 24       		.uleb128 0x24
 7306 2533 01       		.uleb128 0x1
 7307 2534 52       		.byte	0x52
ARM GAS  C:\Users\haske\AppData\Local\Temp\ccb2zsXg.s 			page 141


 7308 2535 03       		.uleb128 0x3
 7309 2536 F3       		.byte	0xf3
 7310 2537 01       		.uleb128 0x1
 7311 2538 51       		.byte	0x51
 7312 2539 00       		.byte	0
 7313 253a 00       		.byte	0
 7314 253b 0B       		.uleb128 0xb
 7315 253c 04       		.byte	0x4
 7316 253d 41250000 		.4byte	0x2541
 7317 2541 0C       		.uleb128 0xc
 7318 2542 BE080000 		.4byte	0x8be
 7319 2546 25       		.uleb128 0x25
 7320 2547 EF0D0000 		.4byte	.LASF284
 7321 254b 01       		.byte	0x1
 7322 254c 8B02     		.2byte	0x28b
 7323 254e 00000000 		.4byte	.LFB135
 7324 2552 0C000000 		.4byte	.LFE135-.LFB135
 7325 2556 01       		.uleb128 0x1
 7326 2557 9C       		.byte	0x9c
 7327 2558 9E250000 		.4byte	0x259e
 7328 255c 26       		.uleb128 0x26
 7329 255d D9120000 		.4byte	.LASF202
 7330 2561 01       		.byte	0x1
 7331 2562 8B02     		.2byte	0x28b
 7332 2564 D6090000 		.4byte	0x9d6
 7333 2568 B9140000 		.4byte	.LLST162
 7334 256c 26       		.uleb128 0x26
 7335 256d 28060000 		.4byte	.LASF193
 7336 2571 01       		.byte	0x1
 7337 2572 8B02     		.2byte	0x28b
 7338 2574 45050000 		.4byte	0x545
 7339 2578 DA140000 		.4byte	.LLST163
 7340 257c 27       		.uleb128 0x27
 7341 257d 7600     		.ascii	"v\000"
 7342 257f 01       		.byte	0x1
 7343 2580 8D02     		.2byte	0x28d
 7344 2582 2C060000 		.4byte	0x62c
 7345 2586 23       		.uleb128 0x23
 7346 2587 0A000000 		.4byte	.LVL245
 7347 258b 57260000 		.4byte	0x2657
 7348 258f 24       		.uleb128 0x24
 7349 2590 01       		.uleb128 0x1
 7350 2591 50       		.byte	0x50
 7351 2592 03       		.uleb128 0x3
 7352 2593 F3       		.byte	0xf3
 7353 2594 01       		.uleb128 0x1
 7354 2595 50       		.byte	0x50
 7355 2596 24       		.uleb128 0x24
 7356 2597 01       		.uleb128 0x1
 7357 2598 51       		.byte	0x51
 7358 2599 02       		.uleb128 0x2
 7359 259a 08       		.byte	0x8
 7360 259b 67       		.byte	0x67
 7361 259c 00       		.byte	0
 7362 259d 00       		.byte	0
 7363 259e 25       		.uleb128 0x25
 7364 259f 9B0F0000 		.4byte	.LASF285
ARM GAS  C:\Users\haske\AppData\Local\Temp\ccb2zsXg.s 			page 142


 7365 25a3 01       		.byte	0x1
 7366 25a4 9302     		.2byte	0x293
 7367 25a6 00000000 		.4byte	.LFB136
 7368 25aa 0C000000 		.4byte	.LFE136-.LFB136
 7369 25ae 01       		.uleb128 0x1
 7370 25af 9C       		.byte	0x9c
 7371 25b0 F5250000 		.4byte	0x25f5
 7372 25b4 26       		.uleb128 0x26
 7373 25b5 D9120000 		.4byte	.LASF202
 7374 25b9 01       		.byte	0x1
 7375 25ba 9302     		.2byte	0x293
 7376 25bc D6090000 		.4byte	0x9d6
 7377 25c0 FB140000 		.4byte	.LLST164
 7378 25c4 26       		.uleb128 0x26
 7379 25c5 28060000 		.4byte	.LASF193
 7380 25c9 01       		.byte	0x1
 7381 25ca 9302     		.2byte	0x293
 7382 25cc CE000000 		.4byte	0xce
 7383 25d0 1C150000 		.4byte	.LLST165
 7384 25d4 27       		.uleb128 0x27
 7385 25d5 7600     		.ascii	"v\000"
 7386 25d7 01       		.byte	0x1
 7387 25d8 9502     		.2byte	0x295
 7388 25da 2C060000 		.4byte	0x62c
 7389 25de 23       		.uleb128 0x23
 7390 25df 0A000000 		.4byte	.LVL248
 7391 25e3 57260000 		.4byte	0x2657
 7392 25e7 24       		.uleb128 0x24
 7393 25e8 01       		.uleb128 0x1
 7394 25e9 50       		.byte	0x50
 7395 25ea 03       		.uleb128 0x3
 7396 25eb F3       		.byte	0xf3
 7397 25ec 01       		.uleb128 0x1
 7398 25ed 50       		.byte	0x50
 7399 25ee 24       		.uleb128 0x24
 7400 25ef 01       		.uleb128 0x1
 7401 25f0 51       		.byte	0x51
 7402 25f1 01       		.uleb128 0x1
 7403 25f2 3A       		.byte	0x3a
 7404 25f3 00       		.byte	0
 7405 25f4 00       		.byte	0
 7406 25f5 25       		.uleb128 0x25
 7407 25f6 C2070000 		.4byte	.LASF286
 7408 25fa 01       		.byte	0x1
 7409 25fb 9B02     		.2byte	0x29b
 7410 25fd 00000000 		.4byte	.LFB137
 7411 2601 0C000000 		.4byte	.LFE137-.LFB137
 7412 2605 01       		.uleb128 0x1
 7413 2606 9C       		.byte	0x9c
 7414 2607 4C260000 		.4byte	0x264c
 7415 260b 26       		.uleb128 0x26
 7416 260c D9120000 		.4byte	.LASF202
 7417 2610 01       		.byte	0x1
 7418 2611 9B02     		.2byte	0x29b
 7419 2613 D6090000 		.4byte	0x9d6
 7420 2617 3D150000 		.4byte	.LLST166
 7421 261b 26       		.uleb128 0x26
ARM GAS  C:\Users\haske\AppData\Local\Temp\ccb2zsXg.s 			page 143


 7422 261c 28060000 		.4byte	.LASF193
 7423 2620 01       		.byte	0x1
 7424 2621 9B02     		.2byte	0x29b
 7425 2623 3A050000 		.4byte	0x53a
 7426 2627 5E150000 		.4byte	.LLST167
 7427 262b 27       		.uleb128 0x27
 7428 262c 7600     		.ascii	"v\000"
 7429 262e 01       		.byte	0x1
 7430 262f 9D02     		.2byte	0x29d
 7431 2631 2C060000 		.4byte	0x62c
 7432 2635 23       		.uleb128 0x23
 7433 2636 0A000000 		.4byte	.LVL251
 7434 263a 57260000 		.4byte	0x2657
 7435 263e 24       		.uleb128 0x24
 7436 263f 01       		.uleb128 0x1
 7437 2640 50       		.byte	0x50
 7438 2641 03       		.uleb128 0x3
 7439 2642 F3       		.byte	0xf3
 7440 2643 01       		.uleb128 0x1
 7441 2644 50       		.byte	0x50
 7442 2645 24       		.uleb128 0x24
 7443 2646 01       		.uleb128 0x1
 7444 2647 51       		.byte	0x51
 7445 2648 01       		.uleb128 0x1
 7446 2649 46       		.byte	0x46
 7447 264a 00       		.byte	0
 7448 264b 00       		.byte	0
 7449 264c 28       		.uleb128 0x28
 7450 264d 93000000 		.4byte	.LASF290
 7451 2651 05       		.byte	0x5
 7452 2652 94       		.byte	0x94
 7453 2653 87200000 		.4byte	0x2087
 7454 2657 29       		.uleb128 0x29
 7455 2658 350B0000 		.4byte	.LASF291
 7456 265c 350B0000 		.4byte	.LASF291
 7457 2660 0A       		.byte	0xa
 7458 2661 8901     		.2byte	0x189
 7459 2663 00       		.byte	0
 7460              		.section	.debug_abbrev,"",%progbits
 7461              	.Ldebug_abbrev0:
 7462 0000 01       		.uleb128 0x1
 7463 0001 11       		.uleb128 0x11
 7464 0002 01       		.byte	0x1
 7465 0003 25       		.uleb128 0x25
 7466 0004 0E       		.uleb128 0xe
 7467 0005 13       		.uleb128 0x13
 7468 0006 0B       		.uleb128 0xb
 7469 0007 03       		.uleb128 0x3
 7470 0008 0E       		.uleb128 0xe
 7471 0009 1B       		.uleb128 0x1b
 7472 000a 0E       		.uleb128 0xe
 7473 000b 55       		.uleb128 0x55
 7474 000c 17       		.uleb128 0x17
 7475 000d 11       		.uleb128 0x11
 7476 000e 01       		.uleb128 0x1
 7477 000f 10       		.uleb128 0x10
 7478 0010 17       		.uleb128 0x17
ARM GAS  C:\Users\haske\AppData\Local\Temp\ccb2zsXg.s 			page 144


 7479 0011 00       		.byte	0
 7480 0012 00       		.byte	0
 7481 0013 02       		.uleb128 0x2
 7482 0014 16       		.uleb128 0x16
 7483 0015 00       		.byte	0
 7484 0016 03       		.uleb128 0x3
 7485 0017 0E       		.uleb128 0xe
 7486 0018 3A       		.uleb128 0x3a
 7487 0019 0B       		.uleb128 0xb
 7488 001a 3B       		.uleb128 0x3b
 7489 001b 0B       		.uleb128 0xb
 7490 001c 49       		.uleb128 0x49
 7491 001d 13       		.uleb128 0x13
 7492 001e 00       		.byte	0
 7493 001f 00       		.byte	0
 7494 0020 03       		.uleb128 0x3
 7495 0021 24       		.uleb128 0x24
 7496 0022 00       		.byte	0
 7497 0023 0B       		.uleb128 0xb
 7498 0024 0B       		.uleb128 0xb
 7499 0025 3E       		.uleb128 0x3e
 7500 0026 0B       		.uleb128 0xb
 7501 0027 03       		.uleb128 0x3
 7502 0028 0E       		.uleb128 0xe
 7503 0029 00       		.byte	0
 7504 002a 00       		.byte	0
 7505 002b 04       		.uleb128 0x4
 7506 002c 24       		.uleb128 0x24
 7507 002d 00       		.byte	0
 7508 002e 0B       		.uleb128 0xb
 7509 002f 0B       		.uleb128 0xb
 7510 0030 3E       		.uleb128 0x3e
 7511 0031 0B       		.uleb128 0xb
 7512 0032 03       		.uleb128 0x3
 7513 0033 08       		.uleb128 0x8
 7514 0034 00       		.byte	0
 7515 0035 00       		.byte	0
 7516 0036 05       		.uleb128 0x5
 7517 0037 13       		.uleb128 0x13
 7518 0038 01       		.byte	0x1
 7519 0039 0B       		.uleb128 0xb
 7520 003a 0B       		.uleb128 0xb
 7521 003b 3A       		.uleb128 0x3a
 7522 003c 0B       		.uleb128 0xb
 7523 003d 3B       		.uleb128 0x3b
 7524 003e 0B       		.uleb128 0xb
 7525 003f 01       		.uleb128 0x1
 7526 0040 13       		.uleb128 0x13
 7527 0041 00       		.byte	0
 7528 0042 00       		.byte	0
 7529 0043 06       		.uleb128 0x6
 7530 0044 0D       		.uleb128 0xd
 7531 0045 00       		.byte	0
 7532 0046 03       		.uleb128 0x3
 7533 0047 0E       		.uleb128 0xe
 7534 0048 3A       		.uleb128 0x3a
 7535 0049 0B       		.uleb128 0xb
ARM GAS  C:\Users\haske\AppData\Local\Temp\ccb2zsXg.s 			page 145


 7536 004a 3B       		.uleb128 0x3b
 7537 004b 0B       		.uleb128 0xb
 7538 004c 49       		.uleb128 0x49
 7539 004d 13       		.uleb128 0x13
 7540 004e 38       		.uleb128 0x38
 7541 004f 0B       		.uleb128 0xb
 7542 0050 00       		.byte	0
 7543 0051 00       		.byte	0
 7544 0052 07       		.uleb128 0x7
 7545 0053 0D       		.uleb128 0xd
 7546 0054 00       		.byte	0
 7547 0055 03       		.uleb128 0x3
 7548 0056 08       		.uleb128 0x8
 7549 0057 3A       		.uleb128 0x3a
 7550 0058 0B       		.uleb128 0xb
 7551 0059 3B       		.uleb128 0x3b
 7552 005a 0B       		.uleb128 0xb
 7553 005b 49       		.uleb128 0x49
 7554 005c 13       		.uleb128 0x13
 7555 005d 0B       		.uleb128 0xb
 7556 005e 0B       		.uleb128 0xb
 7557 005f 0D       		.uleb128 0xd
 7558 0060 0B       		.uleb128 0xb
 7559 0061 0C       		.uleb128 0xc
 7560 0062 0B       		.uleb128 0xb
 7561 0063 38       		.uleb128 0x38
 7562 0064 0B       		.uleb128 0xb
 7563 0065 00       		.byte	0
 7564 0066 00       		.byte	0
 7565 0067 08       		.uleb128 0x8
 7566 0068 0D       		.uleb128 0xd
 7567 0069 00       		.byte	0
 7568 006a 03       		.uleb128 0x3
 7569 006b 0E       		.uleb128 0xe
 7570 006c 3A       		.uleb128 0x3a
 7571 006d 0B       		.uleb128 0xb
 7572 006e 3B       		.uleb128 0x3b
 7573 006f 0B       		.uleb128 0xb
 7574 0070 49       		.uleb128 0x49
 7575 0071 13       		.uleb128 0x13
 7576 0072 0B       		.uleb128 0xb
 7577 0073 0B       		.uleb128 0xb
 7578 0074 0D       		.uleb128 0xd
 7579 0075 0B       		.uleb128 0xb
 7580 0076 0C       		.uleb128 0xc
 7581 0077 0B       		.uleb128 0xb
 7582 0078 38       		.uleb128 0x38
 7583 0079 0B       		.uleb128 0xb
 7584 007a 00       		.byte	0
 7585 007b 00       		.byte	0
 7586 007c 09       		.uleb128 0x9
 7587 007d 13       		.uleb128 0x13
 7588 007e 01       		.byte	0x1
 7589 007f 03       		.uleb128 0x3
 7590 0080 0E       		.uleb128 0xe
 7591 0081 0B       		.uleb128 0xb
 7592 0082 0B       		.uleb128 0xb
ARM GAS  C:\Users\haske\AppData\Local\Temp\ccb2zsXg.s 			page 146


 7593 0083 3A       		.uleb128 0x3a
 7594 0084 0B       		.uleb128 0xb
 7595 0085 3B       		.uleb128 0x3b
 7596 0086 0B       		.uleb128 0xb
 7597 0087 01       		.uleb128 0x1
 7598 0088 13       		.uleb128 0x13
 7599 0089 00       		.byte	0
 7600 008a 00       		.byte	0
 7601 008b 0A       		.uleb128 0xa
 7602 008c 0D       		.uleb128 0xd
 7603 008d 00       		.byte	0
 7604 008e 03       		.uleb128 0x3
 7605 008f 08       		.uleb128 0x8
 7606 0090 3A       		.uleb128 0x3a
 7607 0091 0B       		.uleb128 0xb
 7608 0092 3B       		.uleb128 0x3b
 7609 0093 0B       		.uleb128 0xb
 7610 0094 49       		.uleb128 0x49
 7611 0095 13       		.uleb128 0x13
 7612 0096 38       		.uleb128 0x38
 7613 0097 0B       		.uleb128 0xb
 7614 0098 00       		.byte	0
 7615 0099 00       		.byte	0
 7616 009a 0B       		.uleb128 0xb
 7617 009b 0F       		.uleb128 0xf
 7618 009c 00       		.byte	0
 7619 009d 0B       		.uleb128 0xb
 7620 009e 0B       		.uleb128 0xb
 7621 009f 49       		.uleb128 0x49
 7622 00a0 13       		.uleb128 0x13
 7623 00a1 00       		.byte	0
 7624 00a2 00       		.byte	0
 7625 00a3 0C       		.uleb128 0xc
 7626 00a4 26       		.uleb128 0x26
 7627 00a5 00       		.byte	0
 7628 00a6 49       		.uleb128 0x49
 7629 00a7 13       		.uleb128 0x13
 7630 00a8 00       		.byte	0
 7631 00a9 00       		.byte	0
 7632 00aa 0D       		.uleb128 0xd
 7633 00ab 15       		.uleb128 0x15
 7634 00ac 01       		.byte	0x1
 7635 00ad 27       		.uleb128 0x27
 7636 00ae 19       		.uleb128 0x19
 7637 00af 49       		.uleb128 0x49
 7638 00b0 13       		.uleb128 0x13
 7639 00b1 01       		.uleb128 0x1
 7640 00b2 13       		.uleb128 0x13
 7641 00b3 00       		.byte	0
 7642 00b4 00       		.byte	0
 7643 00b5 0E       		.uleb128 0xe
 7644 00b6 05       		.uleb128 0x5
 7645 00b7 00       		.byte	0
 7646 00b8 49       		.uleb128 0x49
 7647 00b9 13       		.uleb128 0x13
 7648 00ba 00       		.byte	0
 7649 00bb 00       		.byte	0
ARM GAS  C:\Users\haske\AppData\Local\Temp\ccb2zsXg.s 			page 147


 7650 00bc 0F       		.uleb128 0xf
 7651 00bd 26       		.uleb128 0x26
 7652 00be 00       		.byte	0
 7653 00bf 00       		.byte	0
 7654 00c0 00       		.byte	0
 7655 00c1 10       		.uleb128 0x10
 7656 00c2 0F       		.uleb128 0xf
 7657 00c3 00       		.byte	0
 7658 00c4 0B       		.uleb128 0xb
 7659 00c5 0B       		.uleb128 0xb
 7660 00c6 00       		.byte	0
 7661 00c7 00       		.byte	0
 7662 00c8 11       		.uleb128 0x11
 7663 00c9 17       		.uleb128 0x17
 7664 00ca 01       		.byte	0x1
 7665 00cb 0B       		.uleb128 0xb
 7666 00cc 0B       		.uleb128 0xb
 7667 00cd 3A       		.uleb128 0x3a
 7668 00ce 0B       		.uleb128 0xb
 7669 00cf 3B       		.uleb128 0x3b
 7670 00d0 0B       		.uleb128 0xb
 7671 00d1 01       		.uleb128 0x1
 7672 00d2 13       		.uleb128 0x13
 7673 00d3 00       		.byte	0
 7674 00d4 00       		.byte	0
 7675 00d5 12       		.uleb128 0x12
 7676 00d6 0D       		.uleb128 0xd
 7677 00d7 00       		.byte	0
 7678 00d8 03       		.uleb128 0x3
 7679 00d9 08       		.uleb128 0x8
 7680 00da 3A       		.uleb128 0x3a
 7681 00db 0B       		.uleb128 0xb
 7682 00dc 3B       		.uleb128 0x3b
 7683 00dd 0B       		.uleb128 0xb
 7684 00de 49       		.uleb128 0x49
 7685 00df 13       		.uleb128 0x13
 7686 00e0 00       		.byte	0
 7687 00e1 00       		.byte	0
 7688 00e2 13       		.uleb128 0x13
 7689 00e3 0D       		.uleb128 0xd
 7690 00e4 00       		.byte	0
 7691 00e5 03       		.uleb128 0x3
 7692 00e6 0E       		.uleb128 0xe
 7693 00e7 3A       		.uleb128 0x3a
 7694 00e8 0B       		.uleb128 0xb
 7695 00e9 3B       		.uleb128 0x3b
 7696 00ea 0B       		.uleb128 0xb
 7697 00eb 49       		.uleb128 0x49
 7698 00ec 13       		.uleb128 0x13
 7699 00ed 00       		.byte	0
 7700 00ee 00       		.byte	0
 7701 00ef 14       		.uleb128 0x14
 7702 00f0 15       		.uleb128 0x15
 7703 00f1 01       		.byte	0x1
 7704 00f2 27       		.uleb128 0x27
 7705 00f3 19       		.uleb128 0x19
 7706 00f4 01       		.uleb128 0x1
ARM GAS  C:\Users\haske\AppData\Local\Temp\ccb2zsXg.s 			page 148


 7707 00f5 13       		.uleb128 0x13
 7708 00f6 00       		.byte	0
 7709 00f7 00       		.byte	0
 7710 00f8 15       		.uleb128 0x15
 7711 00f9 01       		.uleb128 0x1
 7712 00fa 01       		.byte	0x1
 7713 00fb 49       		.uleb128 0x49
 7714 00fc 13       		.uleb128 0x13
 7715 00fd 01       		.uleb128 0x1
 7716 00fe 13       		.uleb128 0x13
 7717 00ff 00       		.byte	0
 7718 0100 00       		.byte	0
 7719 0101 16       		.uleb128 0x16
 7720 0102 21       		.uleb128 0x21
 7721 0103 00       		.byte	0
 7722 0104 49       		.uleb128 0x49
 7723 0105 13       		.uleb128 0x13
 7724 0106 2F       		.uleb128 0x2f
 7725 0107 0B       		.uleb128 0xb
 7726 0108 00       		.byte	0
 7727 0109 00       		.byte	0
 7728 010a 17       		.uleb128 0x17
 7729 010b 04       		.uleb128 0x4
 7730 010c 01       		.byte	0x1
 7731 010d 0B       		.uleb128 0xb
 7732 010e 0B       		.uleb128 0xb
 7733 010f 49       		.uleb128 0x49
 7734 0110 13       		.uleb128 0x13
 7735 0111 3A       		.uleb128 0x3a
 7736 0112 0B       		.uleb128 0xb
 7737 0113 3B       		.uleb128 0x3b
 7738 0114 0B       		.uleb128 0xb
 7739 0115 01       		.uleb128 0x1
 7740 0116 13       		.uleb128 0x13
 7741 0117 00       		.byte	0
 7742 0118 00       		.byte	0
 7743 0119 18       		.uleb128 0x18
 7744 011a 28       		.uleb128 0x28
 7745 011b 00       		.byte	0
 7746 011c 03       		.uleb128 0x3
 7747 011d 0E       		.uleb128 0xe
 7748 011e 1C       		.uleb128 0x1c
 7749 011f 0B       		.uleb128 0xb
 7750 0120 00       		.byte	0
 7751 0121 00       		.byte	0
 7752 0122 19       		.uleb128 0x19
 7753 0123 28       		.uleb128 0x28
 7754 0124 00       		.byte	0
 7755 0125 03       		.uleb128 0x3
 7756 0126 0E       		.uleb128 0xe
 7757 0127 1C       		.uleb128 0x1c
 7758 0128 05       		.uleb128 0x5
 7759 0129 00       		.byte	0
 7760 012a 00       		.byte	0
 7761 012b 1A       		.uleb128 0x1a
 7762 012c 16       		.uleb128 0x16
 7763 012d 00       		.byte	0
ARM GAS  C:\Users\haske\AppData\Local\Temp\ccb2zsXg.s 			page 149


 7764 012e 03       		.uleb128 0x3
 7765 012f 0E       		.uleb128 0xe
 7766 0130 3A       		.uleb128 0x3a
 7767 0131 0B       		.uleb128 0xb
 7768 0132 3B       		.uleb128 0x3b
 7769 0133 05       		.uleb128 0x5
 7770 0134 49       		.uleb128 0x49
 7771 0135 13       		.uleb128 0x13
 7772 0136 00       		.byte	0
 7773 0137 00       		.byte	0
 7774 0138 1B       		.uleb128 0x1b
 7775 0139 13       		.uleb128 0x13
 7776 013a 01       		.byte	0x1
 7777 013b 0B       		.uleb128 0xb
 7778 013c 0B       		.uleb128 0xb
 7779 013d 3A       		.uleb128 0x3a
 7780 013e 0B       		.uleb128 0xb
 7781 013f 3B       		.uleb128 0x3b
 7782 0140 05       		.uleb128 0x5
 7783 0141 01       		.uleb128 0x1
 7784 0142 13       		.uleb128 0x13
 7785 0143 00       		.byte	0
 7786 0144 00       		.byte	0
 7787 0145 1C       		.uleb128 0x1c
 7788 0146 0D       		.uleb128 0xd
 7789 0147 00       		.byte	0
 7790 0148 03       		.uleb128 0x3
 7791 0149 0E       		.uleb128 0xe
 7792 014a 3A       		.uleb128 0x3a
 7793 014b 0B       		.uleb128 0xb
 7794 014c 3B       		.uleb128 0x3b
 7795 014d 05       		.uleb128 0x5
 7796 014e 49       		.uleb128 0x49
 7797 014f 13       		.uleb128 0x13
 7798 0150 38       		.uleb128 0x38
 7799 0151 0B       		.uleb128 0xb
 7800 0152 00       		.byte	0
 7801 0153 00       		.byte	0
 7802 0154 1D       		.uleb128 0x1d
 7803 0155 17       		.uleb128 0x17
 7804 0156 01       		.byte	0x1
 7805 0157 0B       		.uleb128 0xb
 7806 0158 0B       		.uleb128 0xb
 7807 0159 3A       		.uleb128 0x3a
 7808 015a 0B       		.uleb128 0xb
 7809 015b 3B       		.uleb128 0x3b
 7810 015c 05       		.uleb128 0x5
 7811 015d 01       		.uleb128 0x1
 7812 015e 13       		.uleb128 0x13
 7813 015f 00       		.byte	0
 7814 0160 00       		.byte	0
 7815 0161 1E       		.uleb128 0x1e
 7816 0162 0D       		.uleb128 0xd
 7817 0163 00       		.byte	0
 7818 0164 03       		.uleb128 0x3
 7819 0165 0E       		.uleb128 0xe
 7820 0166 3A       		.uleb128 0x3a
ARM GAS  C:\Users\haske\AppData\Local\Temp\ccb2zsXg.s 			page 150


 7821 0167 0B       		.uleb128 0xb
 7822 0168 3B       		.uleb128 0x3b
 7823 0169 05       		.uleb128 0x5
 7824 016a 49       		.uleb128 0x49
 7825 016b 13       		.uleb128 0x13
 7826 016c 00       		.byte	0
 7827 016d 00       		.byte	0
 7828 016e 1F       		.uleb128 0x1f
 7829 016f 0D       		.uleb128 0xd
 7830 0170 00       		.byte	0
 7831 0171 03       		.uleb128 0x3
 7832 0172 08       		.uleb128 0x8
 7833 0173 3A       		.uleb128 0x3a
 7834 0174 0B       		.uleb128 0xb
 7835 0175 3B       		.uleb128 0x3b
 7836 0176 05       		.uleb128 0x5
 7837 0177 49       		.uleb128 0x49
 7838 0178 13       		.uleb128 0x13
 7839 0179 38       		.uleb128 0x38
 7840 017a 0B       		.uleb128 0xb
 7841 017b 00       		.byte	0
 7842 017c 00       		.byte	0
 7843 017d 20       		.uleb128 0x20
 7844 017e 2E       		.uleb128 0x2e
 7845 017f 01       		.byte	0x1
 7846 0180 3F       		.uleb128 0x3f
 7847 0181 19       		.uleb128 0x19
 7848 0182 03       		.uleb128 0x3
 7849 0183 0E       		.uleb128 0xe
 7850 0184 3A       		.uleb128 0x3a
 7851 0185 0B       		.uleb128 0xb
 7852 0186 3B       		.uleb128 0x3b
 7853 0187 0B       		.uleb128 0xb
 7854 0188 27       		.uleb128 0x27
 7855 0189 19       		.uleb128 0x19
 7856 018a 11       		.uleb128 0x11
 7857 018b 01       		.uleb128 0x1
 7858 018c 12       		.uleb128 0x12
 7859 018d 06       		.uleb128 0x6
 7860 018e 40       		.uleb128 0x40
 7861 018f 18       		.uleb128 0x18
 7862 0190 9742     		.uleb128 0x2117
 7863 0192 19       		.uleb128 0x19
 7864 0193 01       		.uleb128 0x1
 7865 0194 13       		.uleb128 0x13
 7866 0195 00       		.byte	0
 7867 0196 00       		.byte	0
 7868 0197 21       		.uleb128 0x21
 7869 0198 05       		.uleb128 0x5
 7870 0199 00       		.byte	0
 7871 019a 03       		.uleb128 0x3
 7872 019b 0E       		.uleb128 0xe
 7873 019c 3A       		.uleb128 0x3a
 7874 019d 0B       		.uleb128 0xb
 7875 019e 3B       		.uleb128 0x3b
 7876 019f 0B       		.uleb128 0xb
 7877 01a0 49       		.uleb128 0x49
ARM GAS  C:\Users\haske\AppData\Local\Temp\ccb2zsXg.s 			page 151


 7878 01a1 13       		.uleb128 0x13
 7879 01a2 02       		.uleb128 0x2
 7880 01a3 17       		.uleb128 0x17
 7881 01a4 00       		.byte	0
 7882 01a5 00       		.byte	0
 7883 01a6 22       		.uleb128 0x22
 7884 01a7 34       		.uleb128 0x34
 7885 01a8 00       		.byte	0
 7886 01a9 03       		.uleb128 0x3
 7887 01aa 08       		.uleb128 0x8
 7888 01ab 3A       		.uleb128 0x3a
 7889 01ac 0B       		.uleb128 0xb
 7890 01ad 3B       		.uleb128 0x3b
 7891 01ae 0B       		.uleb128 0xb
 7892 01af 49       		.uleb128 0x49
 7893 01b0 13       		.uleb128 0x13
 7894 01b1 00       		.byte	0
 7895 01b2 00       		.byte	0
 7896 01b3 23       		.uleb128 0x23
 7897 01b4 898201   		.uleb128 0x4109
 7898 01b7 01       		.byte	0x1
 7899 01b8 11       		.uleb128 0x11
 7900 01b9 01       		.uleb128 0x1
 7901 01ba 31       		.uleb128 0x31
 7902 01bb 13       		.uleb128 0x13
 7903 01bc 00       		.byte	0
 7904 01bd 00       		.byte	0
 7905 01be 24       		.uleb128 0x24
 7906 01bf 8A8201   		.uleb128 0x410a
 7907 01c2 00       		.byte	0
 7908 01c3 02       		.uleb128 0x2
 7909 01c4 18       		.uleb128 0x18
 7910 01c5 9142     		.uleb128 0x2111
 7911 01c7 18       		.uleb128 0x18
 7912 01c8 00       		.byte	0
 7913 01c9 00       		.byte	0
 7914 01ca 25       		.uleb128 0x25
 7915 01cb 2E       		.uleb128 0x2e
 7916 01cc 01       		.byte	0x1
 7917 01cd 3F       		.uleb128 0x3f
 7918 01ce 19       		.uleb128 0x19
 7919 01cf 03       		.uleb128 0x3
 7920 01d0 0E       		.uleb128 0xe
 7921 01d1 3A       		.uleb128 0x3a
 7922 01d2 0B       		.uleb128 0xb
 7923 01d3 3B       		.uleb128 0x3b
 7924 01d4 05       		.uleb128 0x5
 7925 01d5 27       		.uleb128 0x27
 7926 01d6 19       		.uleb128 0x19
 7927 01d7 11       		.uleb128 0x11
 7928 01d8 01       		.uleb128 0x1
 7929 01d9 12       		.uleb128 0x12
 7930 01da 06       		.uleb128 0x6
 7931 01db 40       		.uleb128 0x40
 7932 01dc 18       		.uleb128 0x18
 7933 01dd 9742     		.uleb128 0x2117
 7934 01df 19       		.uleb128 0x19
ARM GAS  C:\Users\haske\AppData\Local\Temp\ccb2zsXg.s 			page 152


 7935 01e0 01       		.uleb128 0x1
 7936 01e1 13       		.uleb128 0x13
 7937 01e2 00       		.byte	0
 7938 01e3 00       		.byte	0
 7939 01e4 26       		.uleb128 0x26
 7940 01e5 05       		.uleb128 0x5
 7941 01e6 00       		.byte	0
 7942 01e7 03       		.uleb128 0x3
 7943 01e8 0E       		.uleb128 0xe
 7944 01e9 3A       		.uleb128 0x3a
 7945 01ea 0B       		.uleb128 0xb
 7946 01eb 3B       		.uleb128 0x3b
 7947 01ec 05       		.uleb128 0x5
 7948 01ed 49       		.uleb128 0x49
 7949 01ee 13       		.uleb128 0x13
 7950 01ef 02       		.uleb128 0x2
 7951 01f0 17       		.uleb128 0x17
 7952 01f1 00       		.byte	0
 7953 01f2 00       		.byte	0
 7954 01f3 27       		.uleb128 0x27
 7955 01f4 34       		.uleb128 0x34
 7956 01f5 00       		.byte	0
 7957 01f6 03       		.uleb128 0x3
 7958 01f7 08       		.uleb128 0x8
 7959 01f8 3A       		.uleb128 0x3a
 7960 01f9 0B       		.uleb128 0xb
 7961 01fa 3B       		.uleb128 0x3b
 7962 01fb 05       		.uleb128 0x5
 7963 01fc 49       		.uleb128 0x49
 7964 01fd 13       		.uleb128 0x13
 7965 01fe 00       		.byte	0
 7966 01ff 00       		.byte	0
 7967 0200 28       		.uleb128 0x28
 7968 0201 34       		.uleb128 0x34
 7969 0202 00       		.byte	0
 7970 0203 03       		.uleb128 0x3
 7971 0204 0E       		.uleb128 0xe
 7972 0205 3A       		.uleb128 0x3a
 7973 0206 0B       		.uleb128 0xb
 7974 0207 3B       		.uleb128 0x3b
 7975 0208 0B       		.uleb128 0xb
 7976 0209 49       		.uleb128 0x49
 7977 020a 13       		.uleb128 0x13
 7978 020b 3F       		.uleb128 0x3f
 7979 020c 19       		.uleb128 0x19
 7980 020d 3C       		.uleb128 0x3c
 7981 020e 19       		.uleb128 0x19
 7982 020f 00       		.byte	0
 7983 0210 00       		.byte	0
 7984 0211 29       		.uleb128 0x29
 7985 0212 2E       		.uleb128 0x2e
 7986 0213 00       		.byte	0
 7987 0214 3F       		.uleb128 0x3f
 7988 0215 19       		.uleb128 0x19
 7989 0216 3C       		.uleb128 0x3c
 7990 0217 19       		.uleb128 0x19
 7991 0218 6E       		.uleb128 0x6e
ARM GAS  C:\Users\haske\AppData\Local\Temp\ccb2zsXg.s 			page 153


 7992 0219 0E       		.uleb128 0xe
 7993 021a 03       		.uleb128 0x3
 7994 021b 0E       		.uleb128 0xe
 7995 021c 3A       		.uleb128 0x3a
 7996 021d 0B       		.uleb128 0xb
 7997 021e 3B       		.uleb128 0x3b
 7998 021f 05       		.uleb128 0x5
 7999 0220 00       		.byte	0
 8000 0221 00       		.byte	0
 8001 0222 00       		.byte	0
 8002              		.section	.debug_loc,"",%progbits
 8003              	.Ldebug_loc0:
 8004              	.LLST0:
 8005 0000 00000000 		.4byte	.LVL0
 8006 0004 09000000 		.4byte	.LVL2-1
 8007 0008 0100     		.2byte	0x1
 8008 000a 50       		.byte	0x50
 8009 000b 09000000 		.4byte	.LVL2-1
 8010 000f 0C000000 		.4byte	.LFE54
 8011 0013 0400     		.2byte	0x4
 8012 0015 F3       		.byte	0xf3
 8013 0016 01       		.uleb128 0x1
 8014 0017 50       		.byte	0x50
 8015 0018 9F       		.byte	0x9f
 8016 0019 00000000 		.4byte	0
 8017 001d 00000000 		.4byte	0
 8018              	.LLST1:
 8019 0021 00000000 		.4byte	.LVL0
 8020 0025 06000000 		.4byte	.LVL1
 8021 0029 0100     		.2byte	0x1
 8022 002b 51       		.byte	0x51
 8023 002c 06000000 		.4byte	.LVL1
 8024 0030 0C000000 		.4byte	.LFE54
 8025 0034 0400     		.2byte	0x4
 8026 0036 F3       		.byte	0xf3
 8027 0037 01       		.uleb128 0x1
 8028 0038 51       		.byte	0x51
 8029 0039 9F       		.byte	0x9f
 8030 003a 00000000 		.4byte	0
 8031 003e 00000000 		.4byte	0
 8032              	.LLST2:
 8033 0042 00000000 		.4byte	.LVL3
 8034 0046 09000000 		.4byte	.LVL5-1
 8035 004a 0100     		.2byte	0x1
 8036 004c 50       		.byte	0x50
 8037 004d 09000000 		.4byte	.LVL5-1
 8038 0051 0C000000 		.4byte	.LFE55
 8039 0055 0400     		.2byte	0x4
 8040 0057 F3       		.byte	0xf3
 8041 0058 01       		.uleb128 0x1
 8042 0059 50       		.byte	0x50
 8043 005a 9F       		.byte	0x9f
 8044 005b 00000000 		.4byte	0
 8045 005f 00000000 		.4byte	0
 8046              	.LLST3:
 8047 0063 00000000 		.4byte	.LVL3
 8048 0067 06000000 		.4byte	.LVL4
ARM GAS  C:\Users\haske\AppData\Local\Temp\ccb2zsXg.s 			page 154


 8049 006b 0100     		.2byte	0x1
 8050 006d 51       		.byte	0x51
 8051 006e 06000000 		.4byte	.LVL4
 8052 0072 0C000000 		.4byte	.LFE55
 8053 0076 0400     		.2byte	0x4
 8054 0078 F3       		.byte	0xf3
 8055 0079 01       		.uleb128 0x1
 8056 007a 51       		.byte	0x51
 8057 007b 9F       		.byte	0x9f
 8058 007c 00000000 		.4byte	0
 8059 0080 00000000 		.4byte	0
 8060              	.LLST4:
 8061 0084 00000000 		.4byte	.LVL6
 8062 0088 09000000 		.4byte	.LVL8-1
 8063 008c 0100     		.2byte	0x1
 8064 008e 50       		.byte	0x50
 8065 008f 09000000 		.4byte	.LVL8-1
 8066 0093 0C000000 		.4byte	.LFE56
 8067 0097 0400     		.2byte	0x4
 8068 0099 F3       		.byte	0xf3
 8069 009a 01       		.uleb128 0x1
 8070 009b 50       		.byte	0x50
 8071 009c 9F       		.byte	0x9f
 8072 009d 00000000 		.4byte	0
 8073 00a1 00000000 		.4byte	0
 8074              	.LLST5:
 8075 00a5 00000000 		.4byte	.LVL6
 8076 00a9 06000000 		.4byte	.LVL7
 8077 00ad 0100     		.2byte	0x1
 8078 00af 51       		.byte	0x51
 8079 00b0 06000000 		.4byte	.LVL7
 8080 00b4 0C000000 		.4byte	.LFE56
 8081 00b8 0400     		.2byte	0x4
 8082 00ba F3       		.byte	0xf3
 8083 00bb 01       		.uleb128 0x1
 8084 00bc 51       		.byte	0x51
 8085 00bd 9F       		.byte	0x9f
 8086 00be 00000000 		.4byte	0
 8087 00c2 00000000 		.4byte	0
 8088              	.LLST6:
 8089 00c6 00000000 		.4byte	.LVL9
 8090 00ca 09000000 		.4byte	.LVL11-1
 8091 00ce 0100     		.2byte	0x1
 8092 00d0 50       		.byte	0x50
 8093 00d1 09000000 		.4byte	.LVL11-1
 8094 00d5 0C000000 		.4byte	.LFE57
 8095 00d9 0400     		.2byte	0x4
 8096 00db F3       		.byte	0xf3
 8097 00dc 01       		.uleb128 0x1
 8098 00dd 50       		.byte	0x50
 8099 00de 9F       		.byte	0x9f
 8100 00df 00000000 		.4byte	0
 8101 00e3 00000000 		.4byte	0
 8102              	.LLST7:
 8103 00e7 00000000 		.4byte	.LVL9
 8104 00eb 06000000 		.4byte	.LVL10
 8105 00ef 0100     		.2byte	0x1
ARM GAS  C:\Users\haske\AppData\Local\Temp\ccb2zsXg.s 			page 155


 8106 00f1 51       		.byte	0x51
 8107 00f2 06000000 		.4byte	.LVL10
 8108 00f6 0C000000 		.4byte	.LFE57
 8109 00fa 0400     		.2byte	0x4
 8110 00fc F3       		.byte	0xf3
 8111 00fd 01       		.uleb128 0x1
 8112 00fe 51       		.byte	0x51
 8113 00ff 9F       		.byte	0x9f
 8114 0100 00000000 		.4byte	0
 8115 0104 00000000 		.4byte	0
 8116              	.LLST8:
 8117 0108 00000000 		.4byte	.LVL12
 8118 010c 09000000 		.4byte	.LVL14-1
 8119 0110 0100     		.2byte	0x1
 8120 0112 50       		.byte	0x50
 8121 0113 09000000 		.4byte	.LVL14-1
 8122 0117 0C000000 		.4byte	.LFE58
 8123 011b 0400     		.2byte	0x4
 8124 011d F3       		.byte	0xf3
 8125 011e 01       		.uleb128 0x1
 8126 011f 50       		.byte	0x50
 8127 0120 9F       		.byte	0x9f
 8128 0121 00000000 		.4byte	0
 8129 0125 00000000 		.4byte	0
 8130              	.LLST9:
 8131 0129 00000000 		.4byte	.LVL12
 8132 012d 06000000 		.4byte	.LVL13
 8133 0131 0100     		.2byte	0x1
 8134 0133 51       		.byte	0x51
 8135 0134 06000000 		.4byte	.LVL13
 8136 0138 0C000000 		.4byte	.LFE58
 8137 013c 0400     		.2byte	0x4
 8138 013e F3       		.byte	0xf3
 8139 013f 01       		.uleb128 0x1
 8140 0140 51       		.byte	0x51
 8141 0141 9F       		.byte	0x9f
 8142 0142 00000000 		.4byte	0
 8143 0146 00000000 		.4byte	0
 8144              	.LLST10:
 8145 014a 00000000 		.4byte	.LVL15
 8146 014e 09000000 		.4byte	.LVL17-1
 8147 0152 0100     		.2byte	0x1
 8148 0154 50       		.byte	0x50
 8149 0155 09000000 		.4byte	.LVL17-1
 8150 0159 0C000000 		.4byte	.LFE59
 8151 015d 0400     		.2byte	0x4
 8152 015f F3       		.byte	0xf3
 8153 0160 01       		.uleb128 0x1
 8154 0161 50       		.byte	0x50
 8155 0162 9F       		.byte	0x9f
 8156 0163 00000000 		.4byte	0
 8157 0167 00000000 		.4byte	0
 8158              	.LLST11:
 8159 016b 00000000 		.4byte	.LVL15
 8160 016f 06000000 		.4byte	.LVL16
 8161 0173 0100     		.2byte	0x1
 8162 0175 51       		.byte	0x51
ARM GAS  C:\Users\haske\AppData\Local\Temp\ccb2zsXg.s 			page 156


 8163 0176 06000000 		.4byte	.LVL16
 8164 017a 0C000000 		.4byte	.LFE59
 8165 017e 0400     		.2byte	0x4
 8166 0180 F3       		.byte	0xf3
 8167 0181 01       		.uleb128 0x1
 8168 0182 51       		.byte	0x51
 8169 0183 9F       		.byte	0x9f
 8170 0184 00000000 		.4byte	0
 8171 0188 00000000 		.4byte	0
 8172              	.LLST12:
 8173 018c 00000000 		.4byte	.LVL18
 8174 0190 09000000 		.4byte	.LVL20-1
 8175 0194 0100     		.2byte	0x1
 8176 0196 50       		.byte	0x50
 8177 0197 09000000 		.4byte	.LVL20-1
 8178 019b 0C000000 		.4byte	.LFE60
 8179 019f 0400     		.2byte	0x4
 8180 01a1 F3       		.byte	0xf3
 8181 01a2 01       		.uleb128 0x1
 8182 01a3 50       		.byte	0x50
 8183 01a4 9F       		.byte	0x9f
 8184 01a5 00000000 		.4byte	0
 8185 01a9 00000000 		.4byte	0
 8186              	.LLST13:
 8187 01ad 00000000 		.4byte	.LVL18
 8188 01b1 06000000 		.4byte	.LVL19
 8189 01b5 0100     		.2byte	0x1
 8190 01b7 51       		.byte	0x51
 8191 01b8 06000000 		.4byte	.LVL19
 8192 01bc 0C000000 		.4byte	.LFE60
 8193 01c0 0400     		.2byte	0x4
 8194 01c2 F3       		.byte	0xf3
 8195 01c3 01       		.uleb128 0x1
 8196 01c4 51       		.byte	0x51
 8197 01c5 9F       		.byte	0x9f
 8198 01c6 00000000 		.4byte	0
 8199 01ca 00000000 		.4byte	0
 8200              	.LLST14:
 8201 01ce 00000000 		.4byte	.LVL21
 8202 01d2 09000000 		.4byte	.LVL23-1
 8203 01d6 0100     		.2byte	0x1
 8204 01d8 50       		.byte	0x50
 8205 01d9 09000000 		.4byte	.LVL23-1
 8206 01dd 0C000000 		.4byte	.LFE61
 8207 01e1 0400     		.2byte	0x4
 8208 01e3 F3       		.byte	0xf3
 8209 01e4 01       		.uleb128 0x1
 8210 01e5 50       		.byte	0x50
 8211 01e6 9F       		.byte	0x9f
 8212 01e7 00000000 		.4byte	0
 8213 01eb 00000000 		.4byte	0
 8214              	.LLST15:
 8215 01ef 00000000 		.4byte	.LVL21
 8216 01f3 06000000 		.4byte	.LVL22
 8217 01f7 0100     		.2byte	0x1
 8218 01f9 51       		.byte	0x51
 8219 01fa 06000000 		.4byte	.LVL22
ARM GAS  C:\Users\haske\AppData\Local\Temp\ccb2zsXg.s 			page 157


 8220 01fe 0C000000 		.4byte	.LFE61
 8221 0202 0400     		.2byte	0x4
 8222 0204 F3       		.byte	0xf3
 8223 0205 01       		.uleb128 0x1
 8224 0206 51       		.byte	0x51
 8225 0207 9F       		.byte	0x9f
 8226 0208 00000000 		.4byte	0
 8227 020c 00000000 		.4byte	0
 8228              	.LLST16:
 8229 0210 00000000 		.4byte	.LVL24
 8230 0214 09000000 		.4byte	.LVL26-1
 8231 0218 0100     		.2byte	0x1
 8232 021a 50       		.byte	0x50
 8233 021b 09000000 		.4byte	.LVL26-1
 8234 021f 0C000000 		.4byte	.LFE62
 8235 0223 0400     		.2byte	0x4
 8236 0225 F3       		.byte	0xf3
 8237 0226 01       		.uleb128 0x1
 8238 0227 50       		.byte	0x50
 8239 0228 9F       		.byte	0x9f
 8240 0229 00000000 		.4byte	0
 8241 022d 00000000 		.4byte	0
 8242              	.LLST17:
 8243 0231 00000000 		.4byte	.LVL24
 8244 0235 06000000 		.4byte	.LVL25
 8245 0239 0100     		.2byte	0x1
 8246 023b 51       		.byte	0x51
 8247 023c 06000000 		.4byte	.LVL25
 8248 0240 0C000000 		.4byte	.LFE62
 8249 0244 0400     		.2byte	0x4
 8250 0246 F3       		.byte	0xf3
 8251 0247 01       		.uleb128 0x1
 8252 0248 51       		.byte	0x51
 8253 0249 9F       		.byte	0x9f
 8254 024a 00000000 		.4byte	0
 8255 024e 00000000 		.4byte	0
 8256              	.LLST18:
 8257 0252 00000000 		.4byte	.LVL27
 8258 0256 09000000 		.4byte	.LVL29-1
 8259 025a 0100     		.2byte	0x1
 8260 025c 50       		.byte	0x50
 8261 025d 09000000 		.4byte	.LVL29-1
 8262 0261 0C000000 		.4byte	.LFE63
 8263 0265 0400     		.2byte	0x4
 8264 0267 F3       		.byte	0xf3
 8265 0268 01       		.uleb128 0x1
 8266 0269 50       		.byte	0x50
 8267 026a 9F       		.byte	0x9f
 8268 026b 00000000 		.4byte	0
 8269 026f 00000000 		.4byte	0
 8270              	.LLST19:
 8271 0273 00000000 		.4byte	.LVL27
 8272 0277 06000000 		.4byte	.LVL28
 8273 027b 0100     		.2byte	0x1
 8274 027d 51       		.byte	0x51
 8275 027e 06000000 		.4byte	.LVL28
 8276 0282 0C000000 		.4byte	.LFE63
ARM GAS  C:\Users\haske\AppData\Local\Temp\ccb2zsXg.s 			page 158


 8277 0286 0400     		.2byte	0x4
 8278 0288 F3       		.byte	0xf3
 8279 0289 01       		.uleb128 0x1
 8280 028a 51       		.byte	0x51
 8281 028b 9F       		.byte	0x9f
 8282 028c 00000000 		.4byte	0
 8283 0290 00000000 		.4byte	0
 8284              	.LLST20:
 8285 0294 00000000 		.4byte	.LVL30
 8286 0298 09000000 		.4byte	.LVL32-1
 8287 029c 0100     		.2byte	0x1
 8288 029e 50       		.byte	0x50
 8289 029f 09000000 		.4byte	.LVL32-1
 8290 02a3 0C000000 		.4byte	.LFE64
 8291 02a7 0400     		.2byte	0x4
 8292 02a9 F3       		.byte	0xf3
 8293 02aa 01       		.uleb128 0x1
 8294 02ab 50       		.byte	0x50
 8295 02ac 9F       		.byte	0x9f
 8296 02ad 00000000 		.4byte	0
 8297 02b1 00000000 		.4byte	0
 8298              	.LLST21:
 8299 02b5 00000000 		.4byte	.LVL30
 8300 02b9 06000000 		.4byte	.LVL31
 8301 02bd 0100     		.2byte	0x1
 8302 02bf 51       		.byte	0x51
 8303 02c0 06000000 		.4byte	.LVL31
 8304 02c4 0C000000 		.4byte	.LFE64
 8305 02c8 0400     		.2byte	0x4
 8306 02ca F3       		.byte	0xf3
 8307 02cb 01       		.uleb128 0x1
 8308 02cc 51       		.byte	0x51
 8309 02cd 9F       		.byte	0x9f
 8310 02ce 00000000 		.4byte	0
 8311 02d2 00000000 		.4byte	0
 8312              	.LLST22:
 8313 02d6 00000000 		.4byte	.LVL33
 8314 02da 09000000 		.4byte	.LVL35-1
 8315 02de 0100     		.2byte	0x1
 8316 02e0 50       		.byte	0x50
 8317 02e1 09000000 		.4byte	.LVL35-1
 8318 02e5 0C000000 		.4byte	.LFE65
 8319 02e9 0400     		.2byte	0x4
 8320 02eb F3       		.byte	0xf3
 8321 02ec 01       		.uleb128 0x1
 8322 02ed 50       		.byte	0x50
 8323 02ee 9F       		.byte	0x9f
 8324 02ef 00000000 		.4byte	0
 8325 02f3 00000000 		.4byte	0
 8326              	.LLST23:
 8327 02f7 00000000 		.4byte	.LVL33
 8328 02fb 06000000 		.4byte	.LVL34
 8329 02ff 0100     		.2byte	0x1
 8330 0301 51       		.byte	0x51
 8331 0302 06000000 		.4byte	.LVL34
 8332 0306 0C000000 		.4byte	.LFE65
 8333 030a 0400     		.2byte	0x4
ARM GAS  C:\Users\haske\AppData\Local\Temp\ccb2zsXg.s 			page 159


 8334 030c F3       		.byte	0xf3
 8335 030d 01       		.uleb128 0x1
 8336 030e 51       		.byte	0x51
 8337 030f 9F       		.byte	0x9f
 8338 0310 00000000 		.4byte	0
 8339 0314 00000000 		.4byte	0
 8340              	.LLST24:
 8341 0318 00000000 		.4byte	.LVL36
 8342 031c 09000000 		.4byte	.LVL38-1
 8343 0320 0100     		.2byte	0x1
 8344 0322 50       		.byte	0x50
 8345 0323 09000000 		.4byte	.LVL38-1
 8346 0327 0C000000 		.4byte	.LFE66
 8347 032b 0400     		.2byte	0x4
 8348 032d F3       		.byte	0xf3
 8349 032e 01       		.uleb128 0x1
 8350 032f 50       		.byte	0x50
 8351 0330 9F       		.byte	0x9f
 8352 0331 00000000 		.4byte	0
 8353 0335 00000000 		.4byte	0
 8354              	.LLST25:
 8355 0339 00000000 		.4byte	.LVL36
 8356 033d 06000000 		.4byte	.LVL37
 8357 0341 0100     		.2byte	0x1
 8358 0343 51       		.byte	0x51
 8359 0344 06000000 		.4byte	.LVL37
 8360 0348 0C000000 		.4byte	.LFE66
 8361 034c 0400     		.2byte	0x4
 8362 034e F3       		.byte	0xf3
 8363 034f 01       		.uleb128 0x1
 8364 0350 51       		.byte	0x51
 8365 0351 9F       		.byte	0x9f
 8366 0352 00000000 		.4byte	0
 8367 0356 00000000 		.4byte	0
 8368              	.LLST26:
 8369 035a 00000000 		.4byte	.LVL39
 8370 035e 09000000 		.4byte	.LVL41-1
 8371 0362 0100     		.2byte	0x1
 8372 0364 50       		.byte	0x50
 8373 0365 09000000 		.4byte	.LVL41-1
 8374 0369 0C000000 		.4byte	.LFE67
 8375 036d 0400     		.2byte	0x4
 8376 036f F3       		.byte	0xf3
 8377 0370 01       		.uleb128 0x1
 8378 0371 50       		.byte	0x50
 8379 0372 9F       		.byte	0x9f
 8380 0373 00000000 		.4byte	0
 8381 0377 00000000 		.4byte	0
 8382              	.LLST27:
 8383 037b 00000000 		.4byte	.LVL39
 8384 037f 06000000 		.4byte	.LVL40
 8385 0383 0100     		.2byte	0x1
 8386 0385 51       		.byte	0x51
 8387 0386 06000000 		.4byte	.LVL40
 8388 038a 0C000000 		.4byte	.LFE67
 8389 038e 0400     		.2byte	0x4
 8390 0390 F3       		.byte	0xf3
ARM GAS  C:\Users\haske\AppData\Local\Temp\ccb2zsXg.s 			page 160


 8391 0391 01       		.uleb128 0x1
 8392 0392 51       		.byte	0x51
 8393 0393 9F       		.byte	0x9f
 8394 0394 00000000 		.4byte	0
 8395 0398 00000000 		.4byte	0
 8396              	.LLST28:
 8397 039c 00000000 		.4byte	.LVL42
 8398 03a0 09000000 		.4byte	.LVL44-1
 8399 03a4 0100     		.2byte	0x1
 8400 03a6 50       		.byte	0x50
 8401 03a7 09000000 		.4byte	.LVL44-1
 8402 03ab 0C000000 		.4byte	.LFE68
 8403 03af 0400     		.2byte	0x4
 8404 03b1 F3       		.byte	0xf3
 8405 03b2 01       		.uleb128 0x1
 8406 03b3 50       		.byte	0x50
 8407 03b4 9F       		.byte	0x9f
 8408 03b5 00000000 		.4byte	0
 8409 03b9 00000000 		.4byte	0
 8410              	.LLST29:
 8411 03bd 00000000 		.4byte	.LVL42
 8412 03c1 06000000 		.4byte	.LVL43
 8413 03c5 0100     		.2byte	0x1
 8414 03c7 51       		.byte	0x51
 8415 03c8 06000000 		.4byte	.LVL43
 8416 03cc 0C000000 		.4byte	.LFE68
 8417 03d0 0400     		.2byte	0x4
 8418 03d2 F3       		.byte	0xf3
 8419 03d3 01       		.uleb128 0x1
 8420 03d4 51       		.byte	0x51
 8421 03d5 9F       		.byte	0x9f
 8422 03d6 00000000 		.4byte	0
 8423 03da 00000000 		.4byte	0
 8424              	.LLST30:
 8425 03de 00000000 		.4byte	.LVL45
 8426 03e2 09000000 		.4byte	.LVL47-1
 8427 03e6 0100     		.2byte	0x1
 8428 03e8 50       		.byte	0x50
 8429 03e9 09000000 		.4byte	.LVL47-1
 8430 03ed 0C000000 		.4byte	.LFE69
 8431 03f1 0400     		.2byte	0x4
 8432 03f3 F3       		.byte	0xf3
 8433 03f4 01       		.uleb128 0x1
 8434 03f5 50       		.byte	0x50
 8435 03f6 9F       		.byte	0x9f
 8436 03f7 00000000 		.4byte	0
 8437 03fb 00000000 		.4byte	0
 8438              	.LLST31:
 8439 03ff 00000000 		.4byte	.LVL45
 8440 0403 06000000 		.4byte	.LVL46
 8441 0407 0100     		.2byte	0x1
 8442 0409 51       		.byte	0x51
 8443 040a 06000000 		.4byte	.LVL46
 8444 040e 0C000000 		.4byte	.LFE69
 8445 0412 0400     		.2byte	0x4
 8446 0414 F3       		.byte	0xf3
 8447 0415 01       		.uleb128 0x1
ARM GAS  C:\Users\haske\AppData\Local\Temp\ccb2zsXg.s 			page 161


 8448 0416 51       		.byte	0x51
 8449 0417 9F       		.byte	0x9f
 8450 0418 00000000 		.4byte	0
 8451 041c 00000000 		.4byte	0
 8452              	.LLST32:
 8453 0420 00000000 		.4byte	.LVL48
 8454 0424 09000000 		.4byte	.LVL50-1
 8455 0428 0100     		.2byte	0x1
 8456 042a 50       		.byte	0x50
 8457 042b 09000000 		.4byte	.LVL50-1
 8458 042f 0C000000 		.4byte	.LFE70
 8459 0433 0400     		.2byte	0x4
 8460 0435 F3       		.byte	0xf3
 8461 0436 01       		.uleb128 0x1
 8462 0437 50       		.byte	0x50
 8463 0438 9F       		.byte	0x9f
 8464 0439 00000000 		.4byte	0
 8465 043d 00000000 		.4byte	0
 8466              	.LLST33:
 8467 0441 00000000 		.4byte	.LVL48
 8468 0445 06000000 		.4byte	.LVL49
 8469 0449 0100     		.2byte	0x1
 8470 044b 51       		.byte	0x51
 8471 044c 06000000 		.4byte	.LVL49
 8472 0450 0C000000 		.4byte	.LFE70
 8473 0454 0400     		.2byte	0x4
 8474 0456 F3       		.byte	0xf3
 8475 0457 01       		.uleb128 0x1
 8476 0458 51       		.byte	0x51
 8477 0459 9F       		.byte	0x9f
 8478 045a 00000000 		.4byte	0
 8479 045e 00000000 		.4byte	0
 8480              	.LLST34:
 8481 0462 00000000 		.4byte	.LVL51
 8482 0466 09000000 		.4byte	.LVL53-1
 8483 046a 0100     		.2byte	0x1
 8484 046c 50       		.byte	0x50
 8485 046d 09000000 		.4byte	.LVL53-1
 8486 0471 0C000000 		.4byte	.LFE71
 8487 0475 0400     		.2byte	0x4
 8488 0477 F3       		.byte	0xf3
 8489 0478 01       		.uleb128 0x1
 8490 0479 50       		.byte	0x50
 8491 047a 9F       		.byte	0x9f
 8492 047b 00000000 		.4byte	0
 8493 047f 00000000 		.4byte	0
 8494              	.LLST35:
 8495 0483 00000000 		.4byte	.LVL51
 8496 0487 06000000 		.4byte	.LVL52
 8497 048b 0100     		.2byte	0x1
 8498 048d 51       		.byte	0x51
 8499 048e 06000000 		.4byte	.LVL52
 8500 0492 0C000000 		.4byte	.LFE71
 8501 0496 0400     		.2byte	0x4
 8502 0498 F3       		.byte	0xf3
 8503 0499 01       		.uleb128 0x1
 8504 049a 51       		.byte	0x51
ARM GAS  C:\Users\haske\AppData\Local\Temp\ccb2zsXg.s 			page 162


 8505 049b 9F       		.byte	0x9f
 8506 049c 00000000 		.4byte	0
 8507 04a0 00000000 		.4byte	0
 8508              	.LLST36:
 8509 04a4 00000000 		.4byte	.LVL54
 8510 04a8 09000000 		.4byte	.LVL56-1
 8511 04ac 0100     		.2byte	0x1
 8512 04ae 50       		.byte	0x50
 8513 04af 09000000 		.4byte	.LVL56-1
 8514 04b3 0C000000 		.4byte	.LFE72
 8515 04b7 0400     		.2byte	0x4
 8516 04b9 F3       		.byte	0xf3
 8517 04ba 01       		.uleb128 0x1
 8518 04bb 50       		.byte	0x50
 8519 04bc 9F       		.byte	0x9f
 8520 04bd 00000000 		.4byte	0
 8521 04c1 00000000 		.4byte	0
 8522              	.LLST37:
 8523 04c5 00000000 		.4byte	.LVL54
 8524 04c9 06000000 		.4byte	.LVL55
 8525 04cd 0100     		.2byte	0x1
 8526 04cf 51       		.byte	0x51
 8527 04d0 06000000 		.4byte	.LVL55
 8528 04d4 0C000000 		.4byte	.LFE72
 8529 04d8 0400     		.2byte	0x4
 8530 04da F3       		.byte	0xf3
 8531 04db 01       		.uleb128 0x1
 8532 04dc 51       		.byte	0x51
 8533 04dd 9F       		.byte	0x9f
 8534 04de 00000000 		.4byte	0
 8535 04e2 00000000 		.4byte	0
 8536              	.LLST38:
 8537 04e6 00000000 		.4byte	.LVL57
 8538 04ea 09000000 		.4byte	.LVL59-1
 8539 04ee 0100     		.2byte	0x1
 8540 04f0 50       		.byte	0x50
 8541 04f1 09000000 		.4byte	.LVL59-1
 8542 04f5 0C000000 		.4byte	.LFE73
 8543 04f9 0400     		.2byte	0x4
 8544 04fb F3       		.byte	0xf3
 8545 04fc 01       		.uleb128 0x1
 8546 04fd 50       		.byte	0x50
 8547 04fe 9F       		.byte	0x9f
 8548 04ff 00000000 		.4byte	0
 8549 0503 00000000 		.4byte	0
 8550              	.LLST39:
 8551 0507 00000000 		.4byte	.LVL57
 8552 050b 06000000 		.4byte	.LVL58
 8553 050f 0100     		.2byte	0x1
 8554 0511 51       		.byte	0x51
 8555 0512 06000000 		.4byte	.LVL58
 8556 0516 0C000000 		.4byte	.LFE73
 8557 051a 0400     		.2byte	0x4
 8558 051c F3       		.byte	0xf3
 8559 051d 01       		.uleb128 0x1
 8560 051e 51       		.byte	0x51
 8561 051f 9F       		.byte	0x9f
ARM GAS  C:\Users\haske\AppData\Local\Temp\ccb2zsXg.s 			page 163


 8562 0520 00000000 		.4byte	0
 8563 0524 00000000 		.4byte	0
 8564              	.LLST40:
 8565 0528 00000000 		.4byte	.LVL60
 8566 052c 09000000 		.4byte	.LVL62-1
 8567 0530 0100     		.2byte	0x1
 8568 0532 50       		.byte	0x50
 8569 0533 09000000 		.4byte	.LVL62-1
 8570 0537 0C000000 		.4byte	.LFE74
 8571 053b 0400     		.2byte	0x4
 8572 053d F3       		.byte	0xf3
 8573 053e 01       		.uleb128 0x1
 8574 053f 50       		.byte	0x50
 8575 0540 9F       		.byte	0x9f
 8576 0541 00000000 		.4byte	0
 8577 0545 00000000 		.4byte	0
 8578              	.LLST41:
 8579 0549 00000000 		.4byte	.LVL60
 8580 054d 06000000 		.4byte	.LVL61
 8581 0551 0100     		.2byte	0x1
 8582 0553 51       		.byte	0x51
 8583 0554 06000000 		.4byte	.LVL61
 8584 0558 0C000000 		.4byte	.LFE74
 8585 055c 0400     		.2byte	0x4
 8586 055e F3       		.byte	0xf3
 8587 055f 01       		.uleb128 0x1
 8588 0560 51       		.byte	0x51
 8589 0561 9F       		.byte	0x9f
 8590 0562 00000000 		.4byte	0
 8591 0566 00000000 		.4byte	0
 8592              	.LLST42:
 8593 056a 00000000 		.4byte	.LVL63
 8594 056e 09000000 		.4byte	.LVL65-1
 8595 0572 0100     		.2byte	0x1
 8596 0574 50       		.byte	0x50
 8597 0575 09000000 		.4byte	.LVL65-1
 8598 0579 0C000000 		.4byte	.LFE75
 8599 057d 0400     		.2byte	0x4
 8600 057f F3       		.byte	0xf3
 8601 0580 01       		.uleb128 0x1
 8602 0581 50       		.byte	0x50
 8603 0582 9F       		.byte	0x9f
 8604 0583 00000000 		.4byte	0
 8605 0587 00000000 		.4byte	0
 8606              	.LLST43:
 8607 058b 00000000 		.4byte	.LVL63
 8608 058f 06000000 		.4byte	.LVL64
 8609 0593 0100     		.2byte	0x1
 8610 0595 51       		.byte	0x51
 8611 0596 06000000 		.4byte	.LVL64
 8612 059a 0C000000 		.4byte	.LFE75
 8613 059e 0400     		.2byte	0x4
 8614 05a0 F3       		.byte	0xf3
 8615 05a1 01       		.uleb128 0x1
 8616 05a2 51       		.byte	0x51
 8617 05a3 9F       		.byte	0x9f
 8618 05a4 00000000 		.4byte	0
ARM GAS  C:\Users\haske\AppData\Local\Temp\ccb2zsXg.s 			page 164


 8619 05a8 00000000 		.4byte	0
 8620              	.LLST44:
 8621 05ac 00000000 		.4byte	.LVL66
 8622 05b0 09000000 		.4byte	.LVL68-1
 8623 05b4 0100     		.2byte	0x1
 8624 05b6 50       		.byte	0x50
 8625 05b7 09000000 		.4byte	.LVL68-1
 8626 05bb 0C000000 		.4byte	.LFE76
 8627 05bf 0400     		.2byte	0x4
 8628 05c1 F3       		.byte	0xf3
 8629 05c2 01       		.uleb128 0x1
 8630 05c3 50       		.byte	0x50
 8631 05c4 9F       		.byte	0x9f
 8632 05c5 00000000 		.4byte	0
 8633 05c9 00000000 		.4byte	0
 8634              	.LLST45:
 8635 05cd 00000000 		.4byte	.LVL66
 8636 05d1 06000000 		.4byte	.LVL67
 8637 05d5 0100     		.2byte	0x1
 8638 05d7 51       		.byte	0x51
 8639 05d8 06000000 		.4byte	.LVL67
 8640 05dc 0C000000 		.4byte	.LFE76
 8641 05e0 0400     		.2byte	0x4
 8642 05e2 F3       		.byte	0xf3
 8643 05e3 01       		.uleb128 0x1
 8644 05e4 51       		.byte	0x51
 8645 05e5 9F       		.byte	0x9f
 8646 05e6 00000000 		.4byte	0
 8647 05ea 00000000 		.4byte	0
 8648              	.LLST46:
 8649 05ee 00000000 		.4byte	.LVL69
 8650 05f2 09000000 		.4byte	.LVL71-1
 8651 05f6 0100     		.2byte	0x1
 8652 05f8 50       		.byte	0x50
 8653 05f9 09000000 		.4byte	.LVL71-1
 8654 05fd 0C000000 		.4byte	.LFE77
 8655 0601 0400     		.2byte	0x4
 8656 0603 F3       		.byte	0xf3
 8657 0604 01       		.uleb128 0x1
 8658 0605 50       		.byte	0x50
 8659 0606 9F       		.byte	0x9f
 8660 0607 00000000 		.4byte	0
 8661 060b 00000000 		.4byte	0
 8662              	.LLST47:
 8663 060f 00000000 		.4byte	.LVL69
 8664 0613 04000000 		.4byte	.LVL70
 8665 0617 0100     		.2byte	0x1
 8666 0619 51       		.byte	0x51
 8667 061a 00000000 		.4byte	0
 8668 061e 00000000 		.4byte	0
 8669              	.LLST48:
 8670 0622 00000000 		.4byte	.LVL72
 8671 0626 09000000 		.4byte	.LVL74-1
 8672 062a 0100     		.2byte	0x1
 8673 062c 50       		.byte	0x50
 8674 062d 09000000 		.4byte	.LVL74-1
 8675 0631 0C000000 		.4byte	.LFE78
ARM GAS  C:\Users\haske\AppData\Local\Temp\ccb2zsXg.s 			page 165


 8676 0635 0400     		.2byte	0x4
 8677 0637 F3       		.byte	0xf3
 8678 0638 01       		.uleb128 0x1
 8679 0639 50       		.byte	0x50
 8680 063a 9F       		.byte	0x9f
 8681 063b 00000000 		.4byte	0
 8682 063f 00000000 		.4byte	0
 8683              	.LLST49:
 8684 0643 00000000 		.4byte	.LVL72
 8685 0647 06000000 		.4byte	.LVL73
 8686 064b 0100     		.2byte	0x1
 8687 064d 51       		.byte	0x51
 8688 064e 06000000 		.4byte	.LVL73
 8689 0652 0C000000 		.4byte	.LFE78
 8690 0656 0400     		.2byte	0x4
 8691 0658 F3       		.byte	0xf3
 8692 0659 01       		.uleb128 0x1
 8693 065a 51       		.byte	0x51
 8694 065b 9F       		.byte	0x9f
 8695 065c 00000000 		.4byte	0
 8696 0660 00000000 		.4byte	0
 8697              	.LLST50:
 8698 0664 00000000 		.4byte	.LVL75
 8699 0668 09000000 		.4byte	.LVL77-1
 8700 066c 0100     		.2byte	0x1
 8701 066e 50       		.byte	0x50
 8702 066f 09000000 		.4byte	.LVL77-1
 8703 0673 0C000000 		.4byte	.LFE79
 8704 0677 0400     		.2byte	0x4
 8705 0679 F3       		.byte	0xf3
 8706 067a 01       		.uleb128 0x1
 8707 067b 50       		.byte	0x50
 8708 067c 9F       		.byte	0x9f
 8709 067d 00000000 		.4byte	0
 8710 0681 00000000 		.4byte	0
 8711              	.LLST51:
 8712 0685 00000000 		.4byte	.LVL75
 8713 0689 04000000 		.4byte	.LVL76
 8714 068d 0100     		.2byte	0x1
 8715 068f 51       		.byte	0x51
 8716 0690 00000000 		.4byte	0
 8717 0694 00000000 		.4byte	0
 8718              	.LLST52:
 8719 0698 00000000 		.4byte	.LVL78
 8720 069c 09000000 		.4byte	.LVL80-1
 8721 06a0 0100     		.2byte	0x1
 8722 06a2 50       		.byte	0x50
 8723 06a3 09000000 		.4byte	.LVL80-1
 8724 06a7 0C000000 		.4byte	.LFE80
 8725 06ab 0400     		.2byte	0x4
 8726 06ad F3       		.byte	0xf3
 8727 06ae 01       		.uleb128 0x1
 8728 06af 50       		.byte	0x50
 8729 06b0 9F       		.byte	0x9f
 8730 06b1 00000000 		.4byte	0
 8731 06b5 00000000 		.4byte	0
 8732              	.LLST53:
ARM GAS  C:\Users\haske\AppData\Local\Temp\ccb2zsXg.s 			page 166


 8733 06b9 00000000 		.4byte	.LVL78
 8734 06bd 06000000 		.4byte	.LVL79
 8735 06c1 0100     		.2byte	0x1
 8736 06c3 51       		.byte	0x51
 8737 06c4 06000000 		.4byte	.LVL79
 8738 06c8 0C000000 		.4byte	.LFE80
 8739 06cc 0400     		.2byte	0x4
 8740 06ce F3       		.byte	0xf3
 8741 06cf 01       		.uleb128 0x1
 8742 06d0 51       		.byte	0x51
 8743 06d1 9F       		.byte	0x9f
 8744 06d2 00000000 		.4byte	0
 8745 06d6 00000000 		.4byte	0
 8746              	.LLST54:
 8747 06da 00000000 		.4byte	.LVL81
 8748 06de 09000000 		.4byte	.LVL83-1
 8749 06e2 0100     		.2byte	0x1
 8750 06e4 50       		.byte	0x50
 8751 06e5 09000000 		.4byte	.LVL83-1
 8752 06e9 0C000000 		.4byte	.LFE81
 8753 06ed 0400     		.2byte	0x4
 8754 06ef F3       		.byte	0xf3
 8755 06f0 01       		.uleb128 0x1
 8756 06f1 50       		.byte	0x50
 8757 06f2 9F       		.byte	0x9f
 8758 06f3 00000000 		.4byte	0
 8759 06f7 00000000 		.4byte	0
 8760              	.LLST55:
 8761 06fb 00000000 		.4byte	.LVL81
 8762 06ff 06000000 		.4byte	.LVL82
 8763 0703 0100     		.2byte	0x1
 8764 0705 51       		.byte	0x51
 8765 0706 06000000 		.4byte	.LVL82
 8766 070a 0C000000 		.4byte	.LFE81
 8767 070e 0400     		.2byte	0x4
 8768 0710 F3       		.byte	0xf3
 8769 0711 01       		.uleb128 0x1
 8770 0712 51       		.byte	0x51
 8771 0713 9F       		.byte	0x9f
 8772 0714 00000000 		.4byte	0
 8773 0718 00000000 		.4byte	0
 8774              	.LLST56:
 8775 071c 00000000 		.4byte	.LVL84
 8776 0720 09000000 		.4byte	.LVL86-1
 8777 0724 0100     		.2byte	0x1
 8778 0726 50       		.byte	0x50
 8779 0727 09000000 		.4byte	.LVL86-1
 8780 072b 0C000000 		.4byte	.LFE82
 8781 072f 0400     		.2byte	0x4
 8782 0731 F3       		.byte	0xf3
 8783 0732 01       		.uleb128 0x1
 8784 0733 50       		.byte	0x50
 8785 0734 9F       		.byte	0x9f
 8786 0735 00000000 		.4byte	0
 8787 0739 00000000 		.4byte	0
 8788              	.LLST57:
 8789 073d 00000000 		.4byte	.LVL84
ARM GAS  C:\Users\haske\AppData\Local\Temp\ccb2zsXg.s 			page 167


 8790 0741 06000000 		.4byte	.LVL85
 8791 0745 0100     		.2byte	0x1
 8792 0747 51       		.byte	0x51
 8793 0748 06000000 		.4byte	.LVL85
 8794 074c 0C000000 		.4byte	.LFE82
 8795 0750 0400     		.2byte	0x4
 8796 0752 F3       		.byte	0xf3
 8797 0753 01       		.uleb128 0x1
 8798 0754 51       		.byte	0x51
 8799 0755 9F       		.byte	0x9f
 8800 0756 00000000 		.4byte	0
 8801 075a 00000000 		.4byte	0
 8802              	.LLST58:
 8803 075e 00000000 		.4byte	.LVL87
 8804 0762 09000000 		.4byte	.LVL89-1
 8805 0766 0100     		.2byte	0x1
 8806 0768 50       		.byte	0x50
 8807 0769 09000000 		.4byte	.LVL89-1
 8808 076d 0C000000 		.4byte	.LFE83
 8809 0771 0400     		.2byte	0x4
 8810 0773 F3       		.byte	0xf3
 8811 0774 01       		.uleb128 0x1
 8812 0775 50       		.byte	0x50
 8813 0776 9F       		.byte	0x9f
 8814 0777 00000000 		.4byte	0
 8815 077b 00000000 		.4byte	0
 8816              	.LLST59:
 8817 077f 00000000 		.4byte	.LVL87
 8818 0783 06000000 		.4byte	.LVL88
 8819 0787 0100     		.2byte	0x1
 8820 0789 51       		.byte	0x51
 8821 078a 06000000 		.4byte	.LVL88
 8822 078e 09000000 		.4byte	.LVL89-1
 8823 0792 0100     		.2byte	0x1
 8824 0794 52       		.byte	0x52
 8825 0795 09000000 		.4byte	.LVL89-1
 8826 0799 0C000000 		.4byte	.LFE83
 8827 079d 0400     		.2byte	0x4
 8828 079f F3       		.byte	0xf3
 8829 07a0 01       		.uleb128 0x1
 8830 07a1 51       		.byte	0x51
 8831 07a2 9F       		.byte	0x9f
 8832 07a3 00000000 		.4byte	0
 8833 07a7 00000000 		.4byte	0
 8834              	.LLST60:
 8835 07ab 00000000 		.4byte	.LVL90
 8836 07af 09000000 		.4byte	.LVL92-1
 8837 07b3 0100     		.2byte	0x1
 8838 07b5 50       		.byte	0x50
 8839 07b6 09000000 		.4byte	.LVL92-1
 8840 07ba 0C000000 		.4byte	.LFE84
 8841 07be 0400     		.2byte	0x4
 8842 07c0 F3       		.byte	0xf3
 8843 07c1 01       		.uleb128 0x1
 8844 07c2 50       		.byte	0x50
 8845 07c3 9F       		.byte	0x9f
 8846 07c4 00000000 		.4byte	0
ARM GAS  C:\Users\haske\AppData\Local\Temp\ccb2zsXg.s 			page 168


 8847 07c8 00000000 		.4byte	0
 8848              	.LLST61:
 8849 07cc 00000000 		.4byte	.LVL90
 8850 07d0 06000000 		.4byte	.LVL91
 8851 07d4 0100     		.2byte	0x1
 8852 07d6 51       		.byte	0x51
 8853 07d7 06000000 		.4byte	.LVL91
 8854 07db 0C000000 		.4byte	.LFE84
 8855 07df 0400     		.2byte	0x4
 8856 07e1 F3       		.byte	0xf3
 8857 07e2 01       		.uleb128 0x1
 8858 07e3 51       		.byte	0x51
 8859 07e4 9F       		.byte	0x9f
 8860 07e5 00000000 		.4byte	0
 8861 07e9 00000000 		.4byte	0
 8862              	.LLST62:
 8863 07ed 00000000 		.4byte	.LVL93
 8864 07f1 09000000 		.4byte	.LVL95-1
 8865 07f5 0100     		.2byte	0x1
 8866 07f7 50       		.byte	0x50
 8867 07f8 09000000 		.4byte	.LVL95-1
 8868 07fc 0C000000 		.4byte	.LFE85
 8869 0800 0400     		.2byte	0x4
 8870 0802 F3       		.byte	0xf3
 8871 0803 01       		.uleb128 0x1
 8872 0804 50       		.byte	0x50
 8873 0805 9F       		.byte	0x9f
 8874 0806 00000000 		.4byte	0
 8875 080a 00000000 		.4byte	0
 8876              	.LLST63:
 8877 080e 00000000 		.4byte	.LVL93
 8878 0812 06000000 		.4byte	.LVL94
 8879 0816 0100     		.2byte	0x1
 8880 0818 51       		.byte	0x51
 8881 0819 06000000 		.4byte	.LVL94
 8882 081d 09000000 		.4byte	.LVL95-1
 8883 0821 0100     		.2byte	0x1
 8884 0823 52       		.byte	0x52
 8885 0824 09000000 		.4byte	.LVL95-1
 8886 0828 0C000000 		.4byte	.LFE85
 8887 082c 0400     		.2byte	0x4
 8888 082e F3       		.byte	0xf3
 8889 082f 01       		.uleb128 0x1
 8890 0830 51       		.byte	0x51
 8891 0831 9F       		.byte	0x9f
 8892 0832 00000000 		.4byte	0
 8893 0836 00000000 		.4byte	0
 8894              	.LLST64:
 8895 083a 00000000 		.4byte	.LVL96
 8896 083e 09000000 		.4byte	.LVL98-1
 8897 0842 0100     		.2byte	0x1
 8898 0844 50       		.byte	0x50
 8899 0845 09000000 		.4byte	.LVL98-1
 8900 0849 0C000000 		.4byte	.LFE86
 8901 084d 0400     		.2byte	0x4
 8902 084f F3       		.byte	0xf3
 8903 0850 01       		.uleb128 0x1
ARM GAS  C:\Users\haske\AppData\Local\Temp\ccb2zsXg.s 			page 169


 8904 0851 50       		.byte	0x50
 8905 0852 9F       		.byte	0x9f
 8906 0853 00000000 		.4byte	0
 8907 0857 00000000 		.4byte	0
 8908              	.LLST65:
 8909 085b 00000000 		.4byte	.LVL96
 8910 085f 06000000 		.4byte	.LVL97
 8911 0863 0100     		.2byte	0x1
 8912 0865 51       		.byte	0x51
 8913 0866 06000000 		.4byte	.LVL97
 8914 086a 0C000000 		.4byte	.LFE86
 8915 086e 0400     		.2byte	0x4
 8916 0870 F3       		.byte	0xf3
 8917 0871 01       		.uleb128 0x1
 8918 0872 51       		.byte	0x51
 8919 0873 9F       		.byte	0x9f
 8920 0874 00000000 		.4byte	0
 8921 0878 00000000 		.4byte	0
 8922              	.LLST66:
 8923 087c 00000000 		.4byte	.LVL99
 8924 0880 09000000 		.4byte	.LVL101-1
 8925 0884 0100     		.2byte	0x1
 8926 0886 50       		.byte	0x50
 8927 0887 09000000 		.4byte	.LVL101-1
 8928 088b 0C000000 		.4byte	.LFE87
 8929 088f 0400     		.2byte	0x4
 8930 0891 F3       		.byte	0xf3
 8931 0892 01       		.uleb128 0x1
 8932 0893 50       		.byte	0x50
 8933 0894 9F       		.byte	0x9f
 8934 0895 00000000 		.4byte	0
 8935 0899 00000000 		.4byte	0
 8936              	.LLST67:
 8937 089d 00000000 		.4byte	.LVL99
 8938 08a1 04000000 		.4byte	.LVL100
 8939 08a5 0100     		.2byte	0x1
 8940 08a7 51       		.byte	0x51
 8941 08a8 00000000 		.4byte	0
 8942 08ac 00000000 		.4byte	0
 8943              	.LLST68:
 8944 08b0 00000000 		.4byte	.LVL102
 8945 08b4 09000000 		.4byte	.LVL104-1
 8946 08b8 0100     		.2byte	0x1
 8947 08ba 50       		.byte	0x50
 8948 08bb 09000000 		.4byte	.LVL104-1
 8949 08bf 0C000000 		.4byte	.LFE88
 8950 08c3 0400     		.2byte	0x4
 8951 08c5 F3       		.byte	0xf3
 8952 08c6 01       		.uleb128 0x1
 8953 08c7 50       		.byte	0x50
 8954 08c8 9F       		.byte	0x9f
 8955 08c9 00000000 		.4byte	0
 8956 08cd 00000000 		.4byte	0
 8957              	.LLST69:
 8958 08d1 00000000 		.4byte	.LVL102
 8959 08d5 06000000 		.4byte	.LVL103
 8960 08d9 0100     		.2byte	0x1
ARM GAS  C:\Users\haske\AppData\Local\Temp\ccb2zsXg.s 			page 170


 8961 08db 51       		.byte	0x51
 8962 08dc 06000000 		.4byte	.LVL103
 8963 08e0 0C000000 		.4byte	.LFE88
 8964 08e4 0400     		.2byte	0x4
 8965 08e6 F3       		.byte	0xf3
 8966 08e7 01       		.uleb128 0x1
 8967 08e8 51       		.byte	0x51
 8968 08e9 9F       		.byte	0x9f
 8969 08ea 00000000 		.4byte	0
 8970 08ee 00000000 		.4byte	0
 8971              	.LLST70:
 8972 08f2 00000000 		.4byte	.LVL105
 8973 08f6 09000000 		.4byte	.LVL107-1
 8974 08fa 0100     		.2byte	0x1
 8975 08fc 50       		.byte	0x50
 8976 08fd 09000000 		.4byte	.LVL107-1
 8977 0901 0C000000 		.4byte	.LFE89
 8978 0905 0400     		.2byte	0x4
 8979 0907 F3       		.byte	0xf3
 8980 0908 01       		.uleb128 0x1
 8981 0909 50       		.byte	0x50
 8982 090a 9F       		.byte	0x9f
 8983 090b 00000000 		.4byte	0
 8984 090f 00000000 		.4byte	0
 8985              	.LLST71:
 8986 0913 00000000 		.4byte	.LVL105
 8987 0917 06000000 		.4byte	.LVL106
 8988 091b 0100     		.2byte	0x1
 8989 091d 51       		.byte	0x51
 8990 091e 06000000 		.4byte	.LVL106
 8991 0922 0C000000 		.4byte	.LFE89
 8992 0926 0400     		.2byte	0x4
 8993 0928 F3       		.byte	0xf3
 8994 0929 01       		.uleb128 0x1
 8995 092a 51       		.byte	0x51
 8996 092b 9F       		.byte	0x9f
 8997 092c 00000000 		.4byte	0
 8998 0930 00000000 		.4byte	0
 8999              	.LLST72:
 9000 0934 00000000 		.4byte	.LVL108
 9001 0938 09000000 		.4byte	.LVL110-1
 9002 093c 0100     		.2byte	0x1
 9003 093e 50       		.byte	0x50
 9004 093f 09000000 		.4byte	.LVL110-1
 9005 0943 0C000000 		.4byte	.LFE90
 9006 0947 0400     		.2byte	0x4
 9007 0949 F3       		.byte	0xf3
 9008 094a 01       		.uleb128 0x1
 9009 094b 50       		.byte	0x50
 9010 094c 9F       		.byte	0x9f
 9011 094d 00000000 		.4byte	0
 9012 0951 00000000 		.4byte	0
 9013              	.LLST73:
 9014 0955 00000000 		.4byte	.LVL108
 9015 0959 04000000 		.4byte	.LVL109
 9016 095d 0100     		.2byte	0x1
 9017 095f 51       		.byte	0x51
ARM GAS  C:\Users\haske\AppData\Local\Temp\ccb2zsXg.s 			page 171


 9018 0960 00000000 		.4byte	0
 9019 0964 00000000 		.4byte	0
 9020              	.LLST74:
 9021 0968 00000000 		.4byte	.LVL111
 9022 096c 09000000 		.4byte	.LVL113-1
 9023 0970 0100     		.2byte	0x1
 9024 0972 50       		.byte	0x50
 9025 0973 09000000 		.4byte	.LVL113-1
 9026 0977 0C000000 		.4byte	.LFE91
 9027 097b 0400     		.2byte	0x4
 9028 097d F3       		.byte	0xf3
 9029 097e 01       		.uleb128 0x1
 9030 097f 50       		.byte	0x50
 9031 0980 9F       		.byte	0x9f
 9032 0981 00000000 		.4byte	0
 9033 0985 00000000 		.4byte	0
 9034              	.LLST75:
 9035 0989 00000000 		.4byte	.LVL111
 9036 098d 06000000 		.4byte	.LVL112
 9037 0991 0100     		.2byte	0x1
 9038 0993 51       		.byte	0x51
 9039 0994 06000000 		.4byte	.LVL112
 9040 0998 0C000000 		.4byte	.LFE91
 9041 099c 0400     		.2byte	0x4
 9042 099e F3       		.byte	0xf3
 9043 099f 01       		.uleb128 0x1
 9044 09a0 51       		.byte	0x51
 9045 09a1 9F       		.byte	0x9f
 9046 09a2 00000000 		.4byte	0
 9047 09a6 00000000 		.4byte	0
 9048              	.LLST76:
 9049 09aa 00000000 		.4byte	.LVL114
 9050 09ae 09000000 		.4byte	.LVL116-1
 9051 09b2 0100     		.2byte	0x1
 9052 09b4 50       		.byte	0x50
 9053 09b5 09000000 		.4byte	.LVL116-1
 9054 09b9 0C000000 		.4byte	.LFE92
 9055 09bd 0400     		.2byte	0x4
 9056 09bf F3       		.byte	0xf3
 9057 09c0 01       		.uleb128 0x1
 9058 09c1 50       		.byte	0x50
 9059 09c2 9F       		.byte	0x9f
 9060 09c3 00000000 		.4byte	0
 9061 09c7 00000000 		.4byte	0
 9062              	.LLST77:
 9063 09cb 00000000 		.4byte	.LVL114
 9064 09cf 06000000 		.4byte	.LVL115
 9065 09d3 0100     		.2byte	0x1
 9066 09d5 51       		.byte	0x51
 9067 09d6 06000000 		.4byte	.LVL115
 9068 09da 0C000000 		.4byte	.LFE92
 9069 09de 0400     		.2byte	0x4
 9070 09e0 F3       		.byte	0xf3
 9071 09e1 01       		.uleb128 0x1
 9072 09e2 51       		.byte	0x51
 9073 09e3 9F       		.byte	0x9f
 9074 09e4 00000000 		.4byte	0
ARM GAS  C:\Users\haske\AppData\Local\Temp\ccb2zsXg.s 			page 172


 9075 09e8 00000000 		.4byte	0
 9076              	.LLST78:
 9077 09ec 00000000 		.4byte	.LVL117
 9078 09f0 09000000 		.4byte	.LVL119-1
 9079 09f4 0100     		.2byte	0x1
 9080 09f6 50       		.byte	0x50
 9081 09f7 09000000 		.4byte	.LVL119-1
 9082 09fb 0C000000 		.4byte	.LFE93
 9083 09ff 0400     		.2byte	0x4
 9084 0a01 F3       		.byte	0xf3
 9085 0a02 01       		.uleb128 0x1
 9086 0a03 50       		.byte	0x50
 9087 0a04 9F       		.byte	0x9f
 9088 0a05 00000000 		.4byte	0
 9089 0a09 00000000 		.4byte	0
 9090              	.LLST79:
 9091 0a0d 00000000 		.4byte	.LVL117
 9092 0a11 06000000 		.4byte	.LVL118
 9093 0a15 0100     		.2byte	0x1
 9094 0a17 51       		.byte	0x51
 9095 0a18 06000000 		.4byte	.LVL118
 9096 0a1c 0C000000 		.4byte	.LFE93
 9097 0a20 0400     		.2byte	0x4
 9098 0a22 F3       		.byte	0xf3
 9099 0a23 01       		.uleb128 0x1
 9100 0a24 51       		.byte	0x51
 9101 0a25 9F       		.byte	0x9f
 9102 0a26 00000000 		.4byte	0
 9103 0a2a 00000000 		.4byte	0
 9104              	.LLST80:
 9105 0a2e 00000000 		.4byte	.LVL120
 9106 0a32 09000000 		.4byte	.LVL122-1
 9107 0a36 0100     		.2byte	0x1
 9108 0a38 50       		.byte	0x50
 9109 0a39 09000000 		.4byte	.LVL122-1
 9110 0a3d 0C000000 		.4byte	.LFE94
 9111 0a41 0400     		.2byte	0x4
 9112 0a43 F3       		.byte	0xf3
 9113 0a44 01       		.uleb128 0x1
 9114 0a45 50       		.byte	0x50
 9115 0a46 9F       		.byte	0x9f
 9116 0a47 00000000 		.4byte	0
 9117 0a4b 00000000 		.4byte	0
 9118              	.LLST81:
 9119 0a4f 00000000 		.4byte	.LVL120
 9120 0a53 06000000 		.4byte	.LVL121
 9121 0a57 0100     		.2byte	0x1
 9122 0a59 51       		.byte	0x51
 9123 0a5a 06000000 		.4byte	.LVL121
 9124 0a5e 0C000000 		.4byte	.LFE94
 9125 0a62 0400     		.2byte	0x4
 9126 0a64 F3       		.byte	0xf3
 9127 0a65 01       		.uleb128 0x1
 9128 0a66 51       		.byte	0x51
 9129 0a67 9F       		.byte	0x9f
 9130 0a68 00000000 		.4byte	0
 9131 0a6c 00000000 		.4byte	0
ARM GAS  C:\Users\haske\AppData\Local\Temp\ccb2zsXg.s 			page 173


 9132              	.LLST82:
 9133 0a70 00000000 		.4byte	.LVL123
 9134 0a74 09000000 		.4byte	.LVL125-1
 9135 0a78 0100     		.2byte	0x1
 9136 0a7a 50       		.byte	0x50
 9137 0a7b 09000000 		.4byte	.LVL125-1
 9138 0a7f 0C000000 		.4byte	.LFE95
 9139 0a83 0400     		.2byte	0x4
 9140 0a85 F3       		.byte	0xf3
 9141 0a86 01       		.uleb128 0x1
 9142 0a87 50       		.byte	0x50
 9143 0a88 9F       		.byte	0x9f
 9144 0a89 00000000 		.4byte	0
 9145 0a8d 00000000 		.4byte	0
 9146              	.LLST83:
 9147 0a91 00000000 		.4byte	.LVL123
 9148 0a95 06000000 		.4byte	.LVL124
 9149 0a99 0100     		.2byte	0x1
 9150 0a9b 51       		.byte	0x51
 9151 0a9c 06000000 		.4byte	.LVL124
 9152 0aa0 0C000000 		.4byte	.LFE95
 9153 0aa4 0400     		.2byte	0x4
 9154 0aa6 F3       		.byte	0xf3
 9155 0aa7 01       		.uleb128 0x1
 9156 0aa8 51       		.byte	0x51
 9157 0aa9 9F       		.byte	0x9f
 9158 0aaa 00000000 		.4byte	0
 9159 0aae 00000000 		.4byte	0
 9160              	.LLST84:
 9161 0ab2 00000000 		.4byte	.LVL126
 9162 0ab6 09000000 		.4byte	.LVL128-1
 9163 0aba 0100     		.2byte	0x1
 9164 0abc 50       		.byte	0x50
 9165 0abd 09000000 		.4byte	.LVL128-1
 9166 0ac1 0C000000 		.4byte	.LFE96
 9167 0ac5 0400     		.2byte	0x4
 9168 0ac7 F3       		.byte	0xf3
 9169 0ac8 01       		.uleb128 0x1
 9170 0ac9 50       		.byte	0x50
 9171 0aca 9F       		.byte	0x9f
 9172 0acb 00000000 		.4byte	0
 9173 0acf 00000000 		.4byte	0
 9174              	.LLST85:
 9175 0ad3 00000000 		.4byte	.LVL126
 9176 0ad7 04000000 		.4byte	.LVL127
 9177 0adb 0100     		.2byte	0x1
 9178 0add 51       		.byte	0x51
 9179 0ade 00000000 		.4byte	0
 9180 0ae2 00000000 		.4byte	0
 9181              	.LLST86:
 9182 0ae6 00000000 		.4byte	.LVL129
 9183 0aea 09000000 		.4byte	.LVL131-1
 9184 0aee 0100     		.2byte	0x1
 9185 0af0 50       		.byte	0x50
 9186 0af1 09000000 		.4byte	.LVL131-1
 9187 0af5 0C000000 		.4byte	.LFE97
 9188 0af9 0400     		.2byte	0x4
ARM GAS  C:\Users\haske\AppData\Local\Temp\ccb2zsXg.s 			page 174


 9189 0afb F3       		.byte	0xf3
 9190 0afc 01       		.uleb128 0x1
 9191 0afd 50       		.byte	0x50
 9192 0afe 9F       		.byte	0x9f
 9193 0aff 00000000 		.4byte	0
 9194 0b03 00000000 		.4byte	0
 9195              	.LLST87:
 9196 0b07 00000000 		.4byte	.LVL129
 9197 0b0b 06000000 		.4byte	.LVL130
 9198 0b0f 0100     		.2byte	0x1
 9199 0b11 51       		.byte	0x51
 9200 0b12 06000000 		.4byte	.LVL130
 9201 0b16 0C000000 		.4byte	.LFE97
 9202 0b1a 0400     		.2byte	0x4
 9203 0b1c F3       		.byte	0xf3
 9204 0b1d 01       		.uleb128 0x1
 9205 0b1e 51       		.byte	0x51
 9206 0b1f 9F       		.byte	0x9f
 9207 0b20 00000000 		.4byte	0
 9208 0b24 00000000 		.4byte	0
 9209              	.LLST88:
 9210 0b28 00000000 		.4byte	.LVL132
 9211 0b2c 09000000 		.4byte	.LVL134-1
 9212 0b30 0100     		.2byte	0x1
 9213 0b32 50       		.byte	0x50
 9214 0b33 09000000 		.4byte	.LVL134-1
 9215 0b37 0C000000 		.4byte	.LFE98
 9216 0b3b 0400     		.2byte	0x4
 9217 0b3d F3       		.byte	0xf3
 9218 0b3e 01       		.uleb128 0x1
 9219 0b3f 50       		.byte	0x50
 9220 0b40 9F       		.byte	0x9f
 9221 0b41 00000000 		.4byte	0
 9222 0b45 00000000 		.4byte	0
 9223              	.LLST89:
 9224 0b49 00000000 		.4byte	.LVL132
 9225 0b4d 06000000 		.4byte	.LVL133
 9226 0b51 0100     		.2byte	0x1
 9227 0b53 51       		.byte	0x51
 9228 0b54 06000000 		.4byte	.LVL133
 9229 0b58 0C000000 		.4byte	.LFE98
 9230 0b5c 0400     		.2byte	0x4
 9231 0b5e F3       		.byte	0xf3
 9232 0b5f 01       		.uleb128 0x1
 9233 0b60 51       		.byte	0x51
 9234 0b61 9F       		.byte	0x9f
 9235 0b62 00000000 		.4byte	0
 9236 0b66 00000000 		.4byte	0
 9237              	.LLST90:
 9238 0b6a 00000000 		.4byte	.LVL135
 9239 0b6e 09000000 		.4byte	.LVL137-1
 9240 0b72 0100     		.2byte	0x1
 9241 0b74 50       		.byte	0x50
 9242 0b75 09000000 		.4byte	.LVL137-1
 9243 0b79 0C000000 		.4byte	.LFE99
 9244 0b7d 0400     		.2byte	0x4
 9245 0b7f F3       		.byte	0xf3
ARM GAS  C:\Users\haske\AppData\Local\Temp\ccb2zsXg.s 			page 175


 9246 0b80 01       		.uleb128 0x1
 9247 0b81 50       		.byte	0x50
 9248 0b82 9F       		.byte	0x9f
 9249 0b83 00000000 		.4byte	0
 9250 0b87 00000000 		.4byte	0
 9251              	.LLST91:
 9252 0b8b 00000000 		.4byte	.LVL135
 9253 0b8f 06000000 		.4byte	.LVL136
 9254 0b93 0100     		.2byte	0x1
 9255 0b95 51       		.byte	0x51
 9256 0b96 06000000 		.4byte	.LVL136
 9257 0b9a 0C000000 		.4byte	.LFE99
 9258 0b9e 0400     		.2byte	0x4
 9259 0ba0 F3       		.byte	0xf3
 9260 0ba1 01       		.uleb128 0x1
 9261 0ba2 51       		.byte	0x51
 9262 0ba3 9F       		.byte	0x9f
 9263 0ba4 00000000 		.4byte	0
 9264 0ba8 00000000 		.4byte	0
 9265              	.LLST92:
 9266 0bac 00000000 		.4byte	.LVL138
 9267 0bb0 09000000 		.4byte	.LVL140-1
 9268 0bb4 0100     		.2byte	0x1
 9269 0bb6 50       		.byte	0x50
 9270 0bb7 09000000 		.4byte	.LVL140-1
 9271 0bbb 0C000000 		.4byte	.LFE100
 9272 0bbf 0400     		.2byte	0x4
 9273 0bc1 F3       		.byte	0xf3
 9274 0bc2 01       		.uleb128 0x1
 9275 0bc3 50       		.byte	0x50
 9276 0bc4 9F       		.byte	0x9f
 9277 0bc5 00000000 		.4byte	0
 9278 0bc9 00000000 		.4byte	0
 9279              	.LLST93:
 9280 0bcd 00000000 		.4byte	.LVL138
 9281 0bd1 06000000 		.4byte	.LVL139
 9282 0bd5 0100     		.2byte	0x1
 9283 0bd7 51       		.byte	0x51
 9284 0bd8 06000000 		.4byte	.LVL139
 9285 0bdc 0C000000 		.4byte	.LFE100
 9286 0be0 0400     		.2byte	0x4
 9287 0be2 F3       		.byte	0xf3
 9288 0be3 01       		.uleb128 0x1
 9289 0be4 51       		.byte	0x51
 9290 0be5 9F       		.byte	0x9f
 9291 0be6 00000000 		.4byte	0
 9292 0bea 00000000 		.4byte	0
 9293              	.LLST94:
 9294 0bee 00000000 		.4byte	.LVL141
 9295 0bf2 09000000 		.4byte	.LVL143-1
 9296 0bf6 0100     		.2byte	0x1
 9297 0bf8 50       		.byte	0x50
 9298 0bf9 09000000 		.4byte	.LVL143-1
 9299 0bfd 0C000000 		.4byte	.LFE101
 9300 0c01 0400     		.2byte	0x4
 9301 0c03 F3       		.byte	0xf3
 9302 0c04 01       		.uleb128 0x1
ARM GAS  C:\Users\haske\AppData\Local\Temp\ccb2zsXg.s 			page 176


 9303 0c05 50       		.byte	0x50
 9304 0c06 9F       		.byte	0x9f
 9305 0c07 00000000 		.4byte	0
 9306 0c0b 00000000 		.4byte	0
 9307              	.LLST95:
 9308 0c0f 00000000 		.4byte	.LVL141
 9309 0c13 06000000 		.4byte	.LVL142
 9310 0c17 0100     		.2byte	0x1
 9311 0c19 51       		.byte	0x51
 9312 0c1a 06000000 		.4byte	.LVL142
 9313 0c1e 0C000000 		.4byte	.LFE101
 9314 0c22 0400     		.2byte	0x4
 9315 0c24 F3       		.byte	0xf3
 9316 0c25 01       		.uleb128 0x1
 9317 0c26 51       		.byte	0x51
 9318 0c27 9F       		.byte	0x9f
 9319 0c28 00000000 		.4byte	0
 9320 0c2c 00000000 		.4byte	0
 9321              	.LLST96:
 9322 0c30 00000000 		.4byte	.LVL144
 9323 0c34 09000000 		.4byte	.LVL146-1
 9324 0c38 0100     		.2byte	0x1
 9325 0c3a 50       		.byte	0x50
 9326 0c3b 09000000 		.4byte	.LVL146-1
 9327 0c3f 0C000000 		.4byte	.LFE102
 9328 0c43 0400     		.2byte	0x4
 9329 0c45 F3       		.byte	0xf3
 9330 0c46 01       		.uleb128 0x1
 9331 0c47 50       		.byte	0x50
 9332 0c48 9F       		.byte	0x9f
 9333 0c49 00000000 		.4byte	0
 9334 0c4d 00000000 		.4byte	0
 9335              	.LLST97:
 9336 0c51 00000000 		.4byte	.LVL144
 9337 0c55 06000000 		.4byte	.LVL145
 9338 0c59 0100     		.2byte	0x1
 9339 0c5b 51       		.byte	0x51
 9340 0c5c 06000000 		.4byte	.LVL145
 9341 0c60 0C000000 		.4byte	.LFE102
 9342 0c64 0400     		.2byte	0x4
 9343 0c66 F3       		.byte	0xf3
 9344 0c67 01       		.uleb128 0x1
 9345 0c68 51       		.byte	0x51
 9346 0c69 9F       		.byte	0x9f
 9347 0c6a 00000000 		.4byte	0
 9348 0c6e 00000000 		.4byte	0
 9349              	.LLST98:
 9350 0c72 00000000 		.4byte	.LVL147
 9351 0c76 09000000 		.4byte	.LVL149-1
 9352 0c7a 0100     		.2byte	0x1
 9353 0c7c 50       		.byte	0x50
 9354 0c7d 09000000 		.4byte	.LVL149-1
 9355 0c81 0C000000 		.4byte	.LFE103
 9356 0c85 0400     		.2byte	0x4
 9357 0c87 F3       		.byte	0xf3
 9358 0c88 01       		.uleb128 0x1
 9359 0c89 50       		.byte	0x50
ARM GAS  C:\Users\haske\AppData\Local\Temp\ccb2zsXg.s 			page 177


 9360 0c8a 9F       		.byte	0x9f
 9361 0c8b 00000000 		.4byte	0
 9362 0c8f 00000000 		.4byte	0
 9363              	.LLST99:
 9364 0c93 00000000 		.4byte	.LVL147
 9365 0c97 04000000 		.4byte	.LVL148
 9366 0c9b 0100     		.2byte	0x1
 9367 0c9d 51       		.byte	0x51
 9368 0c9e 00000000 		.4byte	0
 9369 0ca2 00000000 		.4byte	0
 9370              	.LLST100:
 9371 0ca6 00000000 		.4byte	.LVL150
 9372 0caa 09000000 		.4byte	.LVL152-1
 9373 0cae 0100     		.2byte	0x1
 9374 0cb0 50       		.byte	0x50
 9375 0cb1 09000000 		.4byte	.LVL152-1
 9376 0cb5 0C000000 		.4byte	.LFE104
 9377 0cb9 0400     		.2byte	0x4
 9378 0cbb F3       		.byte	0xf3
 9379 0cbc 01       		.uleb128 0x1
 9380 0cbd 50       		.byte	0x50
 9381 0cbe 9F       		.byte	0x9f
 9382 0cbf 00000000 		.4byte	0
 9383 0cc3 00000000 		.4byte	0
 9384              	.LLST101:
 9385 0cc7 00000000 		.4byte	.LVL150
 9386 0ccb 06000000 		.4byte	.LVL151
 9387 0ccf 0100     		.2byte	0x1
 9388 0cd1 51       		.byte	0x51
 9389 0cd2 06000000 		.4byte	.LVL151
 9390 0cd6 0C000000 		.4byte	.LFE104
 9391 0cda 0400     		.2byte	0x4
 9392 0cdc F3       		.byte	0xf3
 9393 0cdd 01       		.uleb128 0x1
 9394 0cde 51       		.byte	0x51
 9395 0cdf 9F       		.byte	0x9f
 9396 0ce0 00000000 		.4byte	0
 9397 0ce4 00000000 		.4byte	0
 9398              	.LLST102:
 9399 0ce8 00000000 		.4byte	.LVL153
 9400 0cec 09000000 		.4byte	.LVL155-1
 9401 0cf0 0100     		.2byte	0x1
 9402 0cf2 50       		.byte	0x50
 9403 0cf3 09000000 		.4byte	.LVL155-1
 9404 0cf7 0C000000 		.4byte	.LFE105
 9405 0cfb 0400     		.2byte	0x4
 9406 0cfd F3       		.byte	0xf3
 9407 0cfe 01       		.uleb128 0x1
 9408 0cff 50       		.byte	0x50
 9409 0d00 9F       		.byte	0x9f
 9410 0d01 00000000 		.4byte	0
 9411 0d05 00000000 		.4byte	0
 9412              	.LLST103:
 9413 0d09 00000000 		.4byte	.LVL153
 9414 0d0d 06000000 		.4byte	.LVL154
 9415 0d11 0100     		.2byte	0x1
 9416 0d13 51       		.byte	0x51
ARM GAS  C:\Users\haske\AppData\Local\Temp\ccb2zsXg.s 			page 178


 9417 0d14 06000000 		.4byte	.LVL154
 9418 0d18 0C000000 		.4byte	.LFE105
 9419 0d1c 0400     		.2byte	0x4
 9420 0d1e F3       		.byte	0xf3
 9421 0d1f 01       		.uleb128 0x1
 9422 0d20 51       		.byte	0x51
 9423 0d21 9F       		.byte	0x9f
 9424 0d22 00000000 		.4byte	0
 9425 0d26 00000000 		.4byte	0
 9426              	.LLST104:
 9427 0d2a 00000000 		.4byte	.LVL156
 9428 0d2e 09000000 		.4byte	.LVL158-1
 9429 0d32 0100     		.2byte	0x1
 9430 0d34 50       		.byte	0x50
 9431 0d35 09000000 		.4byte	.LVL158-1
 9432 0d39 0C000000 		.4byte	.LFE106
 9433 0d3d 0400     		.2byte	0x4
 9434 0d3f F3       		.byte	0xf3
 9435 0d40 01       		.uleb128 0x1
 9436 0d41 50       		.byte	0x50
 9437 0d42 9F       		.byte	0x9f
 9438 0d43 00000000 		.4byte	0
 9439 0d47 00000000 		.4byte	0
 9440              	.LLST105:
 9441 0d4b 00000000 		.4byte	.LVL156
 9442 0d4f 04000000 		.4byte	.LVL157
 9443 0d53 0100     		.2byte	0x1
 9444 0d55 51       		.byte	0x51
 9445 0d56 00000000 		.4byte	0
 9446 0d5a 00000000 		.4byte	0
 9447              	.LLST106:
 9448 0d5e 00000000 		.4byte	.LVL159
 9449 0d62 09000000 		.4byte	.LVL161-1
 9450 0d66 0100     		.2byte	0x1
 9451 0d68 50       		.byte	0x50
 9452 0d69 09000000 		.4byte	.LVL161-1
 9453 0d6d 0C000000 		.4byte	.LFE107
 9454 0d71 0400     		.2byte	0x4
 9455 0d73 F3       		.byte	0xf3
 9456 0d74 01       		.uleb128 0x1
 9457 0d75 50       		.byte	0x50
 9458 0d76 9F       		.byte	0x9f
 9459 0d77 00000000 		.4byte	0
 9460 0d7b 00000000 		.4byte	0
 9461              	.LLST107:
 9462 0d7f 00000000 		.4byte	.LVL159
 9463 0d83 06000000 		.4byte	.LVL160
 9464 0d87 0100     		.2byte	0x1
 9465 0d89 51       		.byte	0x51
 9466 0d8a 06000000 		.4byte	.LVL160
 9467 0d8e 0C000000 		.4byte	.LFE107
 9468 0d92 0400     		.2byte	0x4
 9469 0d94 F3       		.byte	0xf3
 9470 0d95 01       		.uleb128 0x1
 9471 0d96 51       		.byte	0x51
 9472 0d97 9F       		.byte	0x9f
 9473 0d98 00000000 		.4byte	0
ARM GAS  C:\Users\haske\AppData\Local\Temp\ccb2zsXg.s 			page 179


 9474 0d9c 00000000 		.4byte	0
 9475              	.LLST108:
 9476 0da0 00000000 		.4byte	.LVL162
 9477 0da4 09000000 		.4byte	.LVL164-1
 9478 0da8 0100     		.2byte	0x1
 9479 0daa 50       		.byte	0x50
 9480 0dab 09000000 		.4byte	.LVL164-1
 9481 0daf 0C000000 		.4byte	.LFE108
 9482 0db3 0400     		.2byte	0x4
 9483 0db5 F3       		.byte	0xf3
 9484 0db6 01       		.uleb128 0x1
 9485 0db7 50       		.byte	0x50
 9486 0db8 9F       		.byte	0x9f
 9487 0db9 00000000 		.4byte	0
 9488 0dbd 00000000 		.4byte	0
 9489              	.LLST109:
 9490 0dc1 00000000 		.4byte	.LVL162
 9491 0dc5 06000000 		.4byte	.LVL163
 9492 0dc9 0100     		.2byte	0x1
 9493 0dcb 51       		.byte	0x51
 9494 0dcc 06000000 		.4byte	.LVL163
 9495 0dd0 0C000000 		.4byte	.LFE108
 9496 0dd4 0400     		.2byte	0x4
 9497 0dd6 F3       		.byte	0xf3
 9498 0dd7 01       		.uleb128 0x1
 9499 0dd8 51       		.byte	0x51
 9500 0dd9 9F       		.byte	0x9f
 9501 0dda 00000000 		.4byte	0
 9502 0dde 00000000 		.4byte	0
 9503              	.LLST110:
 9504 0de2 00000000 		.4byte	.LVL165
 9505 0de6 09000000 		.4byte	.LVL167-1
 9506 0dea 0100     		.2byte	0x1
 9507 0dec 50       		.byte	0x50
 9508 0ded 09000000 		.4byte	.LVL167-1
 9509 0df1 0C000000 		.4byte	.LFE109
 9510 0df5 0400     		.2byte	0x4
 9511 0df7 F3       		.byte	0xf3
 9512 0df8 01       		.uleb128 0x1
 9513 0df9 50       		.byte	0x50
 9514 0dfa 9F       		.byte	0x9f
 9515 0dfb 00000000 		.4byte	0
 9516 0dff 00000000 		.4byte	0
 9517              	.LLST111:
 9518 0e03 00000000 		.4byte	.LVL165
 9519 0e07 06000000 		.4byte	.LVL166
 9520 0e0b 0100     		.2byte	0x1
 9521 0e0d 51       		.byte	0x51
 9522 0e0e 06000000 		.4byte	.LVL166
 9523 0e12 0C000000 		.4byte	.LFE109
 9524 0e16 0400     		.2byte	0x4
 9525 0e18 F3       		.byte	0xf3
 9526 0e19 01       		.uleb128 0x1
 9527 0e1a 51       		.byte	0x51
 9528 0e1b 9F       		.byte	0x9f
 9529 0e1c 00000000 		.4byte	0
 9530 0e20 00000000 		.4byte	0
ARM GAS  C:\Users\haske\AppData\Local\Temp\ccb2zsXg.s 			page 180


 9531              	.LLST112:
 9532 0e24 00000000 		.4byte	.LVL168
 9533 0e28 09000000 		.4byte	.LVL170-1
 9534 0e2c 0100     		.2byte	0x1
 9535 0e2e 50       		.byte	0x50
 9536 0e2f 09000000 		.4byte	.LVL170-1
 9537 0e33 0C000000 		.4byte	.LFE110
 9538 0e37 0400     		.2byte	0x4
 9539 0e39 F3       		.byte	0xf3
 9540 0e3a 01       		.uleb128 0x1
 9541 0e3b 50       		.byte	0x50
 9542 0e3c 9F       		.byte	0x9f
 9543 0e3d 00000000 		.4byte	0
 9544 0e41 00000000 		.4byte	0
 9545              	.LLST113:
 9546 0e45 00000000 		.4byte	.LVL168
 9547 0e49 06000000 		.4byte	.LVL169
 9548 0e4d 0100     		.2byte	0x1
 9549 0e4f 51       		.byte	0x51
 9550 0e50 06000000 		.4byte	.LVL169
 9551 0e54 0C000000 		.4byte	.LFE110
 9552 0e58 0400     		.2byte	0x4
 9553 0e5a F3       		.byte	0xf3
 9554 0e5b 01       		.uleb128 0x1
 9555 0e5c 51       		.byte	0x51
 9556 0e5d 9F       		.byte	0x9f
 9557 0e5e 00000000 		.4byte	0
 9558 0e62 00000000 		.4byte	0
 9559              	.LLST114:
 9560 0e66 00000000 		.4byte	.LVL171
 9561 0e6a 09000000 		.4byte	.LVL173-1
 9562 0e6e 0100     		.2byte	0x1
 9563 0e70 50       		.byte	0x50
 9564 0e71 09000000 		.4byte	.LVL173-1
 9565 0e75 0C000000 		.4byte	.LFE111
 9566 0e79 0400     		.2byte	0x4
 9567 0e7b F3       		.byte	0xf3
 9568 0e7c 01       		.uleb128 0x1
 9569 0e7d 50       		.byte	0x50
 9570 0e7e 9F       		.byte	0x9f
 9571 0e7f 00000000 		.4byte	0
 9572 0e83 00000000 		.4byte	0
 9573              	.LLST115:
 9574 0e87 00000000 		.4byte	.LVL171
 9575 0e8b 06000000 		.4byte	.LVL172
 9576 0e8f 0100     		.2byte	0x1
 9577 0e91 51       		.byte	0x51
 9578 0e92 06000000 		.4byte	.LVL172
 9579 0e96 0C000000 		.4byte	.LFE111
 9580 0e9a 0400     		.2byte	0x4
 9581 0e9c F3       		.byte	0xf3
 9582 0e9d 01       		.uleb128 0x1
 9583 0e9e 51       		.byte	0x51
 9584 0e9f 9F       		.byte	0x9f
 9585 0ea0 00000000 		.4byte	0
 9586 0ea4 00000000 		.4byte	0
 9587              	.LLST116:
ARM GAS  C:\Users\haske\AppData\Local\Temp\ccb2zsXg.s 			page 181


 9588 0ea8 00000000 		.4byte	.LVL174
 9589 0eac 09000000 		.4byte	.LVL176-1
 9590 0eb0 0100     		.2byte	0x1
 9591 0eb2 50       		.byte	0x50
 9592 0eb3 09000000 		.4byte	.LVL176-1
 9593 0eb7 0C000000 		.4byte	.LFE112
 9594 0ebb 0400     		.2byte	0x4
 9595 0ebd F3       		.byte	0xf3
 9596 0ebe 01       		.uleb128 0x1
 9597 0ebf 50       		.byte	0x50
 9598 0ec0 9F       		.byte	0x9f
 9599 0ec1 00000000 		.4byte	0
 9600 0ec5 00000000 		.4byte	0
 9601              	.LLST117:
 9602 0ec9 00000000 		.4byte	.LVL174
 9603 0ecd 04000000 		.4byte	.LVL175
 9604 0ed1 0100     		.2byte	0x1
 9605 0ed3 51       		.byte	0x51
 9606 0ed4 00000000 		.4byte	0
 9607 0ed8 00000000 		.4byte	0
 9608              	.LLST118:
 9609 0edc 00000000 		.4byte	.LVL177
 9610 0ee0 09000000 		.4byte	.LVL179-1
 9611 0ee4 0100     		.2byte	0x1
 9612 0ee6 50       		.byte	0x50
 9613 0ee7 09000000 		.4byte	.LVL179-1
 9614 0eeb 0C000000 		.4byte	.LFE113
 9615 0eef 0400     		.2byte	0x4
 9616 0ef1 F3       		.byte	0xf3
 9617 0ef2 01       		.uleb128 0x1
 9618 0ef3 50       		.byte	0x50
 9619 0ef4 9F       		.byte	0x9f
 9620 0ef5 00000000 		.4byte	0
 9621 0ef9 00000000 		.4byte	0
 9622              	.LLST119:
 9623 0efd 00000000 		.4byte	.LVL177
 9624 0f01 06000000 		.4byte	.LVL178
 9625 0f05 0100     		.2byte	0x1
 9626 0f07 51       		.byte	0x51
 9627 0f08 06000000 		.4byte	.LVL178
 9628 0f0c 0C000000 		.4byte	.LFE113
 9629 0f10 0400     		.2byte	0x4
 9630 0f12 F3       		.byte	0xf3
 9631 0f13 01       		.uleb128 0x1
 9632 0f14 51       		.byte	0x51
 9633 0f15 9F       		.byte	0x9f
 9634 0f16 00000000 		.4byte	0
 9635 0f1a 00000000 		.4byte	0
 9636              	.LLST120:
 9637 0f1e 00000000 		.4byte	.LVL180
 9638 0f22 09000000 		.4byte	.LVL182-1
 9639 0f26 0100     		.2byte	0x1
 9640 0f28 50       		.byte	0x50
 9641 0f29 09000000 		.4byte	.LVL182-1
 9642 0f2d 0C000000 		.4byte	.LFE114
 9643 0f31 0400     		.2byte	0x4
 9644 0f33 F3       		.byte	0xf3
ARM GAS  C:\Users\haske\AppData\Local\Temp\ccb2zsXg.s 			page 182


 9645 0f34 01       		.uleb128 0x1
 9646 0f35 50       		.byte	0x50
 9647 0f36 9F       		.byte	0x9f
 9648 0f37 00000000 		.4byte	0
 9649 0f3b 00000000 		.4byte	0
 9650              	.LLST121:
 9651 0f3f 00000000 		.4byte	.LVL180
 9652 0f43 06000000 		.4byte	.LVL181
 9653 0f47 0100     		.2byte	0x1
 9654 0f49 51       		.byte	0x51
 9655 0f4a 06000000 		.4byte	.LVL181
 9656 0f4e 0C000000 		.4byte	.LFE114
 9657 0f52 0400     		.2byte	0x4
 9658 0f54 F3       		.byte	0xf3
 9659 0f55 01       		.uleb128 0x1
 9660 0f56 51       		.byte	0x51
 9661 0f57 9F       		.byte	0x9f
 9662 0f58 00000000 		.4byte	0
 9663 0f5c 00000000 		.4byte	0
 9664              	.LLST122:
 9665 0f60 00000000 		.4byte	.LVL183
 9666 0f64 09000000 		.4byte	.LVL185-1
 9667 0f68 0100     		.2byte	0x1
 9668 0f6a 50       		.byte	0x50
 9669 0f6b 09000000 		.4byte	.LVL185-1
 9670 0f6f 0C000000 		.4byte	.LFE115
 9671 0f73 0400     		.2byte	0x4
 9672 0f75 F3       		.byte	0xf3
 9673 0f76 01       		.uleb128 0x1
 9674 0f77 50       		.byte	0x50
 9675 0f78 9F       		.byte	0x9f
 9676 0f79 00000000 		.4byte	0
 9677 0f7d 00000000 		.4byte	0
 9678              	.LLST123:
 9679 0f81 00000000 		.4byte	.LVL183
 9680 0f85 06000000 		.4byte	.LVL184
 9681 0f89 0100     		.2byte	0x1
 9682 0f8b 51       		.byte	0x51
 9683 0f8c 06000000 		.4byte	.LVL184
 9684 0f90 0C000000 		.4byte	.LFE115
 9685 0f94 0400     		.2byte	0x4
 9686 0f96 F3       		.byte	0xf3
 9687 0f97 01       		.uleb128 0x1
 9688 0f98 51       		.byte	0x51
 9689 0f99 9F       		.byte	0x9f
 9690 0f9a 00000000 		.4byte	0
 9691 0f9e 00000000 		.4byte	0
 9692              	.LLST124:
 9693 0fa2 00000000 		.4byte	.LVL186
 9694 0fa6 09000000 		.4byte	.LVL188-1
 9695 0faa 0100     		.2byte	0x1
 9696 0fac 50       		.byte	0x50
 9697 0fad 09000000 		.4byte	.LVL188-1
 9698 0fb1 0C000000 		.4byte	.LFE116
 9699 0fb5 0400     		.2byte	0x4
 9700 0fb7 F3       		.byte	0xf3
 9701 0fb8 01       		.uleb128 0x1
ARM GAS  C:\Users\haske\AppData\Local\Temp\ccb2zsXg.s 			page 183


 9702 0fb9 50       		.byte	0x50
 9703 0fba 9F       		.byte	0x9f
 9704 0fbb 00000000 		.4byte	0
 9705 0fbf 00000000 		.4byte	0
 9706              	.LLST125:
 9707 0fc3 00000000 		.4byte	.LVL186
 9708 0fc7 04000000 		.4byte	.LVL187
 9709 0fcb 0100     		.2byte	0x1
 9710 0fcd 51       		.byte	0x51
 9711 0fce 00000000 		.4byte	0
 9712 0fd2 00000000 		.4byte	0
 9713              	.LLST126:
 9714 0fd6 00000000 		.4byte	.LVL189
 9715 0fda 09000000 		.4byte	.LVL191-1
 9716 0fde 0100     		.2byte	0x1
 9717 0fe0 50       		.byte	0x50
 9718 0fe1 09000000 		.4byte	.LVL191-1
 9719 0fe5 0C000000 		.4byte	.LFE117
 9720 0fe9 0400     		.2byte	0x4
 9721 0feb F3       		.byte	0xf3
 9722 0fec 01       		.uleb128 0x1
 9723 0fed 50       		.byte	0x50
 9724 0fee 9F       		.byte	0x9f
 9725 0fef 00000000 		.4byte	0
 9726 0ff3 00000000 		.4byte	0
 9727              	.LLST127:
 9728 0ff7 00000000 		.4byte	.LVL189
 9729 0ffb 06000000 		.4byte	.LVL190
 9730 0fff 0100     		.2byte	0x1
 9731 1001 51       		.byte	0x51
 9732 1002 06000000 		.4byte	.LVL190
 9733 1006 0C000000 		.4byte	.LFE117
 9734 100a 0400     		.2byte	0x4
 9735 100c F3       		.byte	0xf3
 9736 100d 01       		.uleb128 0x1
 9737 100e 51       		.byte	0x51
 9738 100f 9F       		.byte	0x9f
 9739 1010 00000000 		.4byte	0
 9740 1014 00000000 		.4byte	0
 9741              	.LLST128:
 9742 1018 00000000 		.4byte	.LVL192
 9743 101c 09000000 		.4byte	.LVL194-1
 9744 1020 0100     		.2byte	0x1
 9745 1022 50       		.byte	0x50
 9746 1023 09000000 		.4byte	.LVL194-1
 9747 1027 0C000000 		.4byte	.LFE118
 9748 102b 0400     		.2byte	0x4
 9749 102d F3       		.byte	0xf3
 9750 102e 01       		.uleb128 0x1
 9751 102f 50       		.byte	0x50
 9752 1030 9F       		.byte	0x9f
 9753 1031 00000000 		.4byte	0
 9754 1035 00000000 		.4byte	0
 9755              	.LLST129:
 9756 1039 00000000 		.4byte	.LVL192
 9757 103d 06000000 		.4byte	.LVL193
 9758 1041 0100     		.2byte	0x1
ARM GAS  C:\Users\haske\AppData\Local\Temp\ccb2zsXg.s 			page 184


 9759 1043 51       		.byte	0x51
 9760 1044 06000000 		.4byte	.LVL193
 9761 1048 09000000 		.4byte	.LVL194-1
 9762 104c 0100     		.2byte	0x1
 9763 104e 52       		.byte	0x52
 9764 104f 09000000 		.4byte	.LVL194-1
 9765 1053 0C000000 		.4byte	.LFE118
 9766 1057 0400     		.2byte	0x4
 9767 1059 F3       		.byte	0xf3
 9768 105a 01       		.uleb128 0x1
 9769 105b 51       		.byte	0x51
 9770 105c 9F       		.byte	0x9f
 9771 105d 00000000 		.4byte	0
 9772 1061 00000000 		.4byte	0
 9773              	.LLST130:
 9774 1065 00000000 		.4byte	.LVL195
 9775 1069 09000000 		.4byte	.LVL197-1
 9776 106d 0100     		.2byte	0x1
 9777 106f 50       		.byte	0x50
 9778 1070 09000000 		.4byte	.LVL197-1
 9779 1074 0C000000 		.4byte	.LFE119
 9780 1078 0400     		.2byte	0x4
 9781 107a F3       		.byte	0xf3
 9782 107b 01       		.uleb128 0x1
 9783 107c 50       		.byte	0x50
 9784 107d 9F       		.byte	0x9f
 9785 107e 00000000 		.4byte	0
 9786 1082 00000000 		.4byte	0
 9787              	.LLST131:
 9788 1086 00000000 		.4byte	.LVL195
 9789 108a 04000000 		.4byte	.LVL196
 9790 108e 0100     		.2byte	0x1
 9791 1090 51       		.byte	0x51
 9792 1091 00000000 		.4byte	0
 9793 1095 00000000 		.4byte	0
 9794              	.LLST132:
 9795 1099 00000000 		.4byte	.LVL198
 9796 109d 09000000 		.4byte	.LVL200-1
 9797 10a1 0100     		.2byte	0x1
 9798 10a3 50       		.byte	0x50
 9799 10a4 09000000 		.4byte	.LVL200-1
 9800 10a8 0C000000 		.4byte	.LFE120
 9801 10ac 0400     		.2byte	0x4
 9802 10ae F3       		.byte	0xf3
 9803 10af 01       		.uleb128 0x1
 9804 10b0 50       		.byte	0x50
 9805 10b1 9F       		.byte	0x9f
 9806 10b2 00000000 		.4byte	0
 9807 10b6 00000000 		.4byte	0
 9808              	.LLST133:
 9809 10ba 00000000 		.4byte	.LVL198
 9810 10be 06000000 		.4byte	.LVL199
 9811 10c2 0100     		.2byte	0x1
 9812 10c4 51       		.byte	0x51
 9813 10c5 06000000 		.4byte	.LVL199
 9814 10c9 0C000000 		.4byte	.LFE120
 9815 10cd 0400     		.2byte	0x4
ARM GAS  C:\Users\haske\AppData\Local\Temp\ccb2zsXg.s 			page 185


 9816 10cf F3       		.byte	0xf3
 9817 10d0 01       		.uleb128 0x1
 9818 10d1 51       		.byte	0x51
 9819 10d2 9F       		.byte	0x9f
 9820 10d3 00000000 		.4byte	0
 9821 10d7 00000000 		.4byte	0
 9822              	.LLST134:
 9823 10db 00000000 		.4byte	.LVL201
 9824 10df 09000000 		.4byte	.LVL203-1
 9825 10e3 0100     		.2byte	0x1
 9826 10e5 50       		.byte	0x50
 9827 10e6 09000000 		.4byte	.LVL203-1
 9828 10ea 0C000000 		.4byte	.LFE121
 9829 10ee 0400     		.2byte	0x4
 9830 10f0 F3       		.byte	0xf3
 9831 10f1 01       		.uleb128 0x1
 9832 10f2 50       		.byte	0x50
 9833 10f3 9F       		.byte	0x9f
 9834 10f4 00000000 		.4byte	0
 9835 10f8 00000000 		.4byte	0
 9836              	.LLST135:
 9837 10fc 00000000 		.4byte	.LVL201
 9838 1100 06000000 		.4byte	.LVL202
 9839 1104 0100     		.2byte	0x1
 9840 1106 51       		.byte	0x51
 9841 1107 06000000 		.4byte	.LVL202
 9842 110b 09000000 		.4byte	.LVL203-1
 9843 110f 0100     		.2byte	0x1
 9844 1111 52       		.byte	0x52
 9845 1112 09000000 		.4byte	.LVL203-1
 9846 1116 0C000000 		.4byte	.LFE121
 9847 111a 0400     		.2byte	0x4
 9848 111c F3       		.byte	0xf3
 9849 111d 01       		.uleb128 0x1
 9850 111e 51       		.byte	0x51
 9851 111f 9F       		.byte	0x9f
 9852 1120 00000000 		.4byte	0
 9853 1124 00000000 		.4byte	0
 9854              	.LLST136:
 9855 1128 00000000 		.4byte	.LVL204
 9856 112c 09000000 		.4byte	.LVL206-1
 9857 1130 0100     		.2byte	0x1
 9858 1132 50       		.byte	0x50
 9859 1133 09000000 		.4byte	.LVL206-1
 9860 1137 0C000000 		.4byte	.LFE122
 9861 113b 0400     		.2byte	0x4
 9862 113d F3       		.byte	0xf3
 9863 113e 01       		.uleb128 0x1
 9864 113f 50       		.byte	0x50
 9865 1140 9F       		.byte	0x9f
 9866 1141 00000000 		.4byte	0
 9867 1145 00000000 		.4byte	0
 9868              	.LLST137:
 9869 1149 00000000 		.4byte	.LVL204
 9870 114d 06000000 		.4byte	.LVL205
 9871 1151 0100     		.2byte	0x1
 9872 1153 51       		.byte	0x51
ARM GAS  C:\Users\haske\AppData\Local\Temp\ccb2zsXg.s 			page 186


 9873 1154 06000000 		.4byte	.LVL205
 9874 1158 0C000000 		.4byte	.LFE122
 9875 115c 0400     		.2byte	0x4
 9876 115e F3       		.byte	0xf3
 9877 115f 01       		.uleb128 0x1
 9878 1160 51       		.byte	0x51
 9879 1161 9F       		.byte	0x9f
 9880 1162 00000000 		.4byte	0
 9881 1166 00000000 		.4byte	0
 9882              	.LLST138:
 9883 116a 00000000 		.4byte	.LVL207
 9884 116e 09000000 		.4byte	.LVL209-1
 9885 1172 0100     		.2byte	0x1
 9886 1174 50       		.byte	0x50
 9887 1175 09000000 		.4byte	.LVL209-1
 9888 1179 0C000000 		.4byte	.LFE123
 9889 117d 0400     		.2byte	0x4
 9890 117f F3       		.byte	0xf3
 9891 1180 01       		.uleb128 0x1
 9892 1181 50       		.byte	0x50
 9893 1182 9F       		.byte	0x9f
 9894 1183 00000000 		.4byte	0
 9895 1187 00000000 		.4byte	0
 9896              	.LLST139:
 9897 118b 00000000 		.4byte	.LVL207
 9898 118f 06000000 		.4byte	.LVL208
 9899 1193 0100     		.2byte	0x1
 9900 1195 51       		.byte	0x51
 9901 1196 06000000 		.4byte	.LVL208
 9902 119a 0C000000 		.4byte	.LFE123
 9903 119e 0400     		.2byte	0x4
 9904 11a0 F3       		.byte	0xf3
 9905 11a1 01       		.uleb128 0x1
 9906 11a2 51       		.byte	0x51
 9907 11a3 9F       		.byte	0x9f
 9908 11a4 00000000 		.4byte	0
 9909 11a8 00000000 		.4byte	0
 9910              	.LLST140:
 9911 11ac 00000000 		.4byte	.LVL210
 9912 11b0 09000000 		.4byte	.LVL212-1
 9913 11b4 0100     		.2byte	0x1
 9914 11b6 50       		.byte	0x50
 9915 11b7 09000000 		.4byte	.LVL212-1
 9916 11bb 0C000000 		.4byte	.LFE124
 9917 11bf 0400     		.2byte	0x4
 9918 11c1 F3       		.byte	0xf3
 9919 11c2 01       		.uleb128 0x1
 9920 11c3 50       		.byte	0x50
 9921 11c4 9F       		.byte	0x9f
 9922 11c5 00000000 		.4byte	0
 9923 11c9 00000000 		.4byte	0
 9924              	.LLST141:
 9925 11cd 00000000 		.4byte	.LVL210
 9926 11d1 06000000 		.4byte	.LVL211
 9927 11d5 0100     		.2byte	0x1
 9928 11d7 51       		.byte	0x51
 9929 11d8 06000000 		.4byte	.LVL211
ARM GAS  C:\Users\haske\AppData\Local\Temp\ccb2zsXg.s 			page 187


 9930 11dc 0C000000 		.4byte	.LFE124
 9931 11e0 0400     		.2byte	0x4
 9932 11e2 F3       		.byte	0xf3
 9933 11e3 01       		.uleb128 0x1
 9934 11e4 51       		.byte	0x51
 9935 11e5 9F       		.byte	0x9f
 9936 11e6 00000000 		.4byte	0
 9937 11ea 00000000 		.4byte	0
 9938              	.LLST142:
 9939 11ee 00000000 		.4byte	.LVL213
 9940 11f2 09000000 		.4byte	.LVL215-1
 9941 11f6 0100     		.2byte	0x1
 9942 11f8 50       		.byte	0x50
 9943 11f9 09000000 		.4byte	.LVL215-1
 9944 11fd 0C000000 		.4byte	.LFE125
 9945 1201 0400     		.2byte	0x4
 9946 1203 F3       		.byte	0xf3
 9947 1204 01       		.uleb128 0x1
 9948 1205 50       		.byte	0x50
 9949 1206 9F       		.byte	0x9f
 9950 1207 00000000 		.4byte	0
 9951 120b 00000000 		.4byte	0
 9952              	.LLST143:
 9953 120f 00000000 		.4byte	.LVL213
 9954 1213 06000000 		.4byte	.LVL214
 9955 1217 0100     		.2byte	0x1
 9956 1219 51       		.byte	0x51
 9957 121a 06000000 		.4byte	.LVL214
 9958 121e 0C000000 		.4byte	.LFE125
 9959 1222 0400     		.2byte	0x4
 9960 1224 F3       		.byte	0xf3
 9961 1225 01       		.uleb128 0x1
 9962 1226 51       		.byte	0x51
 9963 1227 9F       		.byte	0x9f
 9964 1228 00000000 		.4byte	0
 9965 122c 00000000 		.4byte	0
 9966              	.LLST144:
 9967 1230 00000000 		.4byte	.LVL216
 9968 1234 09000000 		.4byte	.LVL218-1
 9969 1238 0100     		.2byte	0x1
 9970 123a 50       		.byte	0x50
 9971 123b 09000000 		.4byte	.LVL218-1
 9972 123f 0C000000 		.4byte	.LFE126
 9973 1243 0400     		.2byte	0x4
 9974 1245 F3       		.byte	0xf3
 9975 1246 01       		.uleb128 0x1
 9976 1247 50       		.byte	0x50
 9977 1248 9F       		.byte	0x9f
 9978 1249 00000000 		.4byte	0
 9979 124d 00000000 		.4byte	0
 9980              	.LLST145:
 9981 1251 00000000 		.4byte	.LVL216
 9982 1255 06000000 		.4byte	.LVL217
 9983 1259 0100     		.2byte	0x1
 9984 125b 51       		.byte	0x51
 9985 125c 06000000 		.4byte	.LVL217
 9986 1260 0C000000 		.4byte	.LFE126
ARM GAS  C:\Users\haske\AppData\Local\Temp\ccb2zsXg.s 			page 188


 9987 1264 0400     		.2byte	0x4
 9988 1266 F3       		.byte	0xf3
 9989 1267 01       		.uleb128 0x1
 9990 1268 51       		.byte	0x51
 9991 1269 9F       		.byte	0x9f
 9992 126a 00000000 		.4byte	0
 9993 126e 00000000 		.4byte	0
 9994              	.LLST146:
 9995 1272 00000000 		.4byte	.LVL219
 9996 1276 09000000 		.4byte	.LVL221-1
 9997 127a 0100     		.2byte	0x1
 9998 127c 50       		.byte	0x50
 9999 127d 09000000 		.4byte	.LVL221-1
 10000 1281 0C000000 		.4byte	.LFE127
 10001 1285 0400     		.2byte	0x4
 10002 1287 F3       		.byte	0xf3
 10003 1288 01       		.uleb128 0x1
 10004 1289 50       		.byte	0x50
 10005 128a 9F       		.byte	0x9f
 10006 128b 00000000 		.4byte	0
 10007 128f 00000000 		.4byte	0
 10008              	.LLST147:
 10009 1293 00000000 		.4byte	.LVL219
 10010 1297 06000000 		.4byte	.LVL220
 10011 129b 0100     		.2byte	0x1
 10012 129d 51       		.byte	0x51
 10013 129e 06000000 		.4byte	.LVL220
 10014 12a2 0C000000 		.4byte	.LFE127
 10015 12a6 0400     		.2byte	0x4
 10016 12a8 F3       		.byte	0xf3
 10017 12a9 01       		.uleb128 0x1
 10018 12aa 51       		.byte	0x51
 10019 12ab 9F       		.byte	0x9f
 10020 12ac 00000000 		.4byte	0
 10021 12b0 00000000 		.4byte	0
 10022              	.LLST148:
 10023 12b4 00000000 		.4byte	.LVL222
 10024 12b8 09000000 		.4byte	.LVL224-1
 10025 12bc 0100     		.2byte	0x1
 10026 12be 50       		.byte	0x50
 10027 12bf 09000000 		.4byte	.LVL224-1
 10028 12c3 0C000000 		.4byte	.LFE128
 10029 12c7 0400     		.2byte	0x4
 10030 12c9 F3       		.byte	0xf3
 10031 12ca 01       		.uleb128 0x1
 10032 12cb 50       		.byte	0x50
 10033 12cc 9F       		.byte	0x9f
 10034 12cd 00000000 		.4byte	0
 10035 12d1 00000000 		.4byte	0
 10036              	.LLST149:
 10037 12d5 00000000 		.4byte	.LVL222
 10038 12d9 06000000 		.4byte	.LVL223
 10039 12dd 0100     		.2byte	0x1
 10040 12df 51       		.byte	0x51
 10041 12e0 06000000 		.4byte	.LVL223
 10042 12e4 0C000000 		.4byte	.LFE128
 10043 12e8 0400     		.2byte	0x4
ARM GAS  C:\Users\haske\AppData\Local\Temp\ccb2zsXg.s 			page 189


 10044 12ea F3       		.byte	0xf3
 10045 12eb 01       		.uleb128 0x1
 10046 12ec 51       		.byte	0x51
 10047 12ed 9F       		.byte	0x9f
 10048 12ee 00000000 		.4byte	0
 10049 12f2 00000000 		.4byte	0
 10050              	.LLST150:
 10051 12f6 00000000 		.4byte	.LVL225
 10052 12fa 09000000 		.4byte	.LVL227-1
 10053 12fe 0100     		.2byte	0x1
 10054 1300 50       		.byte	0x50
 10055 1301 09000000 		.4byte	.LVL227-1
 10056 1305 0C000000 		.4byte	.LFE129
 10057 1309 0400     		.2byte	0x4
 10058 130b F3       		.byte	0xf3
 10059 130c 01       		.uleb128 0x1
 10060 130d 50       		.byte	0x50
 10061 130e 9F       		.byte	0x9f
 10062 130f 00000000 		.4byte	0
 10063 1313 00000000 		.4byte	0
 10064              	.LLST151:
 10065 1317 00000000 		.4byte	.LVL225
 10066 131b 06000000 		.4byte	.LVL226
 10067 131f 0100     		.2byte	0x1
 10068 1321 51       		.byte	0x51
 10069 1322 06000000 		.4byte	.LVL226
 10070 1326 09000000 		.4byte	.LVL227-1
 10071 132a 0100     		.2byte	0x1
 10072 132c 52       		.byte	0x52
 10073 132d 09000000 		.4byte	.LVL227-1
 10074 1331 0C000000 		.4byte	.LFE129
 10075 1335 0400     		.2byte	0x4
 10076 1337 F3       		.byte	0xf3
 10077 1338 01       		.uleb128 0x1
 10078 1339 51       		.byte	0x51
 10079 133a 9F       		.byte	0x9f
 10080 133b 00000000 		.4byte	0
 10081 133f 00000000 		.4byte	0
 10082              	.LLST152:
 10083 1343 00000000 		.4byte	.LVL228
 10084 1347 09000000 		.4byte	.LVL230-1
 10085 134b 0100     		.2byte	0x1
 10086 134d 50       		.byte	0x50
 10087 134e 09000000 		.4byte	.LVL230-1
 10088 1352 0C000000 		.4byte	.LFE130
 10089 1356 0400     		.2byte	0x4
 10090 1358 F3       		.byte	0xf3
 10091 1359 01       		.uleb128 0x1
 10092 135a 50       		.byte	0x50
 10093 135b 9F       		.byte	0x9f
 10094 135c 00000000 		.4byte	0
 10095 1360 00000000 		.4byte	0
 10096              	.LLST153:
 10097 1364 00000000 		.4byte	.LVL228
 10098 1368 06000000 		.4byte	.LVL229
 10099 136c 0100     		.2byte	0x1
 10100 136e 51       		.byte	0x51
ARM GAS  C:\Users\haske\AppData\Local\Temp\ccb2zsXg.s 			page 190


 10101 136f 06000000 		.4byte	.LVL229
 10102 1373 0C000000 		.4byte	.LFE130
 10103 1377 0400     		.2byte	0x4
 10104 1379 F3       		.byte	0xf3
 10105 137a 01       		.uleb128 0x1
 10106 137b 51       		.byte	0x51
 10107 137c 9F       		.byte	0x9f
 10108 137d 00000000 		.4byte	0
 10109 1381 00000000 		.4byte	0
 10110              	.LLST154:
 10111 1385 00000000 		.4byte	.LVL231
 10112 1389 09000000 		.4byte	.LVL233-1
 10113 138d 0100     		.2byte	0x1
 10114 138f 50       		.byte	0x50
 10115 1390 09000000 		.4byte	.LVL233-1
 10116 1394 0C000000 		.4byte	.LFE131
 10117 1398 0400     		.2byte	0x4
 10118 139a F3       		.byte	0xf3
 10119 139b 01       		.uleb128 0x1
 10120 139c 50       		.byte	0x50
 10121 139d 9F       		.byte	0x9f
 10122 139e 00000000 		.4byte	0
 10123 13a2 00000000 		.4byte	0
 10124              	.LLST155:
 10125 13a6 00000000 		.4byte	.LVL231
 10126 13aa 06000000 		.4byte	.LVL232
 10127 13ae 0100     		.2byte	0x1
 10128 13b0 51       		.byte	0x51
 10129 13b1 06000000 		.4byte	.LVL232
 10130 13b5 09000000 		.4byte	.LVL233-1
 10131 13b9 0100     		.2byte	0x1
 10132 13bb 52       		.byte	0x52
 10133 13bc 09000000 		.4byte	.LVL233-1
 10134 13c0 0C000000 		.4byte	.LFE131
 10135 13c4 0400     		.2byte	0x4
 10136 13c6 F3       		.byte	0xf3
 10137 13c7 01       		.uleb128 0x1
 10138 13c8 51       		.byte	0x51
 10139 13c9 9F       		.byte	0x9f
 10140 13ca 00000000 		.4byte	0
 10141 13ce 00000000 		.4byte	0
 10142              	.LLST156:
 10143 13d2 00000000 		.4byte	.LVL234
 10144 13d6 09000000 		.4byte	.LVL236-1
 10145 13da 0100     		.2byte	0x1
 10146 13dc 50       		.byte	0x50
 10147 13dd 09000000 		.4byte	.LVL236-1
 10148 13e1 0C000000 		.4byte	.LFE132
 10149 13e5 0400     		.2byte	0x4
 10150 13e7 F3       		.byte	0xf3
 10151 13e8 01       		.uleb128 0x1
 10152 13e9 50       		.byte	0x50
 10153 13ea 9F       		.byte	0x9f
 10154 13eb 00000000 		.4byte	0
 10155 13ef 00000000 		.4byte	0
 10156              	.LLST157:
 10157 13f3 00000000 		.4byte	.LVL234
ARM GAS  C:\Users\haske\AppData\Local\Temp\ccb2zsXg.s 			page 191


 10158 13f7 06000000 		.4byte	.LVL235
 10159 13fb 0100     		.2byte	0x1
 10160 13fd 51       		.byte	0x51
 10161 13fe 06000000 		.4byte	.LVL235
 10162 1402 09000000 		.4byte	.LVL236-1
 10163 1406 0100     		.2byte	0x1
 10164 1408 52       		.byte	0x52
 10165 1409 09000000 		.4byte	.LVL236-1
 10166 140d 0C000000 		.4byte	.LFE132
 10167 1411 0400     		.2byte	0x4
 10168 1413 F3       		.byte	0xf3
 10169 1414 01       		.uleb128 0x1
 10170 1415 51       		.byte	0x51
 10171 1416 9F       		.byte	0x9f
 10172 1417 00000000 		.4byte	0
 10173 141b 00000000 		.4byte	0
 10174              	.LLST158:
 10175 141f 00000000 		.4byte	.LVL237
 10176 1423 09000000 		.4byte	.LVL239-1
 10177 1427 0100     		.2byte	0x1
 10178 1429 50       		.byte	0x50
 10179 142a 09000000 		.4byte	.LVL239-1
 10180 142e 0C000000 		.4byte	.LFE133
 10181 1432 0400     		.2byte	0x4
 10182 1434 F3       		.byte	0xf3
 10183 1435 01       		.uleb128 0x1
 10184 1436 50       		.byte	0x50
 10185 1437 9F       		.byte	0x9f
 10186 1438 00000000 		.4byte	0
 10187 143c 00000000 		.4byte	0
 10188              	.LLST159:
 10189 1440 00000000 		.4byte	.LVL237
 10190 1444 06000000 		.4byte	.LVL238
 10191 1448 0100     		.2byte	0x1
 10192 144a 51       		.byte	0x51
 10193 144b 06000000 		.4byte	.LVL238
 10194 144f 09000000 		.4byte	.LVL239-1
 10195 1453 0100     		.2byte	0x1
 10196 1455 52       		.byte	0x52
 10197 1456 09000000 		.4byte	.LVL239-1
 10198 145a 0C000000 		.4byte	.LFE133
 10199 145e 0400     		.2byte	0x4
 10200 1460 F3       		.byte	0xf3
 10201 1461 01       		.uleb128 0x1
 10202 1462 51       		.byte	0x51
 10203 1463 9F       		.byte	0x9f
 10204 1464 00000000 		.4byte	0
 10205 1468 00000000 		.4byte	0
 10206              	.LLST160:
 10207 146c 00000000 		.4byte	.LVL240
 10208 1470 09000000 		.4byte	.LVL242-1
 10209 1474 0100     		.2byte	0x1
 10210 1476 50       		.byte	0x50
 10211 1477 09000000 		.4byte	.LVL242-1
 10212 147b 0C000000 		.4byte	.LFE134
 10213 147f 0400     		.2byte	0x4
 10214 1481 F3       		.byte	0xf3
ARM GAS  C:\Users\haske\AppData\Local\Temp\ccb2zsXg.s 			page 192


 10215 1482 01       		.uleb128 0x1
 10216 1483 50       		.byte	0x50
 10217 1484 9F       		.byte	0x9f
 10218 1485 00000000 		.4byte	0
 10219 1489 00000000 		.4byte	0
 10220              	.LLST161:
 10221 148d 00000000 		.4byte	.LVL240
 10222 1491 06000000 		.4byte	.LVL241
 10223 1495 0100     		.2byte	0x1
 10224 1497 51       		.byte	0x51
 10225 1498 06000000 		.4byte	.LVL241
 10226 149c 09000000 		.4byte	.LVL242-1
 10227 14a0 0100     		.2byte	0x1
 10228 14a2 52       		.byte	0x52
 10229 14a3 09000000 		.4byte	.LVL242-1
 10230 14a7 0C000000 		.4byte	.LFE134
 10231 14ab 0400     		.2byte	0x4
 10232 14ad F3       		.byte	0xf3
 10233 14ae 01       		.uleb128 0x1
 10234 14af 51       		.byte	0x51
 10235 14b0 9F       		.byte	0x9f
 10236 14b1 00000000 		.4byte	0
 10237 14b5 00000000 		.4byte	0
 10238              	.LLST162:
 10239 14b9 00000000 		.4byte	.LVL243
 10240 14bd 09000000 		.4byte	.LVL245-1
 10241 14c1 0100     		.2byte	0x1
 10242 14c3 50       		.byte	0x50
 10243 14c4 09000000 		.4byte	.LVL245-1
 10244 14c8 0C000000 		.4byte	.LFE135
 10245 14cc 0400     		.2byte	0x4
 10246 14ce F3       		.byte	0xf3
 10247 14cf 01       		.uleb128 0x1
 10248 14d0 50       		.byte	0x50
 10249 14d1 9F       		.byte	0x9f
 10250 14d2 00000000 		.4byte	0
 10251 14d6 00000000 		.4byte	0
 10252              	.LLST163:
 10253 14da 00000000 		.4byte	.LVL243
 10254 14de 06000000 		.4byte	.LVL244
 10255 14e2 0100     		.2byte	0x1
 10256 14e4 51       		.byte	0x51
 10257 14e5 06000000 		.4byte	.LVL244
 10258 14e9 0C000000 		.4byte	.LFE135
 10259 14ed 0400     		.2byte	0x4
 10260 14ef F3       		.byte	0xf3
 10261 14f0 01       		.uleb128 0x1
 10262 14f1 51       		.byte	0x51
 10263 14f2 9F       		.byte	0x9f
 10264 14f3 00000000 		.4byte	0
 10265 14f7 00000000 		.4byte	0
 10266              	.LLST164:
 10267 14fb 00000000 		.4byte	.LVL246
 10268 14ff 09000000 		.4byte	.LVL248-1
 10269 1503 0100     		.2byte	0x1
 10270 1505 50       		.byte	0x50
 10271 1506 09000000 		.4byte	.LVL248-1
ARM GAS  C:\Users\haske\AppData\Local\Temp\ccb2zsXg.s 			page 193


 10272 150a 0C000000 		.4byte	.LFE136
 10273 150e 0400     		.2byte	0x4
 10274 1510 F3       		.byte	0xf3
 10275 1511 01       		.uleb128 0x1
 10276 1512 50       		.byte	0x50
 10277 1513 9F       		.byte	0x9f
 10278 1514 00000000 		.4byte	0
 10279 1518 00000000 		.4byte	0
 10280              	.LLST165:
 10281 151c 00000000 		.4byte	.LVL246
 10282 1520 06000000 		.4byte	.LVL247
 10283 1524 0100     		.2byte	0x1
 10284 1526 51       		.byte	0x51
 10285 1527 06000000 		.4byte	.LVL247
 10286 152b 0C000000 		.4byte	.LFE136
 10287 152f 0400     		.2byte	0x4
 10288 1531 F3       		.byte	0xf3
 10289 1532 01       		.uleb128 0x1
 10290 1533 51       		.byte	0x51
 10291 1534 9F       		.byte	0x9f
 10292 1535 00000000 		.4byte	0
 10293 1539 00000000 		.4byte	0
 10294              	.LLST166:
 10295 153d 00000000 		.4byte	.LVL249
 10296 1541 09000000 		.4byte	.LVL251-1
 10297 1545 0100     		.2byte	0x1
 10298 1547 50       		.byte	0x50
 10299 1548 09000000 		.4byte	.LVL251-1
 10300 154c 0C000000 		.4byte	.LFE137
 10301 1550 0400     		.2byte	0x4
 10302 1552 F3       		.byte	0xf3
 10303 1553 01       		.uleb128 0x1
 10304 1554 50       		.byte	0x50
 10305 1555 9F       		.byte	0x9f
 10306 1556 00000000 		.4byte	0
 10307 155a 00000000 		.4byte	0
 10308              	.LLST167:
 10309 155e 00000000 		.4byte	.LVL249
 10310 1562 06000000 		.4byte	.LVL250
 10311 1566 0100     		.2byte	0x1
 10312 1568 51       		.byte	0x51
 10313 1569 06000000 		.4byte	.LVL250
 10314 156d 0C000000 		.4byte	.LFE137
 10315 1571 0400     		.2byte	0x4
 10316 1573 F3       		.byte	0xf3
 10317 1574 01       		.uleb128 0x1
 10318 1575 51       		.byte	0x51
 10319 1576 9F       		.byte	0x9f
 10320 1577 00000000 		.4byte	0
 10321 157b 00000000 		.4byte	0
 10322              		.section	.debug_aranges,"",%progbits
 10323 0000 B4020000 		.4byte	0x2b4
 10324 0004 0200     		.2byte	0x2
 10325 0006 00000000 		.4byte	.Ldebug_info0
 10326 000a 04       		.byte	0x4
 10327 000b 00       		.byte	0
 10328 000c 0000     		.2byte	0
ARM GAS  C:\Users\haske\AppData\Local\Temp\ccb2zsXg.s 			page 194


 10329 000e 0000     		.2byte	0
 10330 0010 00000000 		.4byte	.LFB54
 10331 0014 0C000000 		.4byte	.LFE54-.LFB54
 10332 0018 00000000 		.4byte	.LFB55
 10333 001c 0C000000 		.4byte	.LFE55-.LFB55
 10334 0020 00000000 		.4byte	.LFB56
 10335 0024 0C000000 		.4byte	.LFE56-.LFB56
 10336 0028 00000000 		.4byte	.LFB57
 10337 002c 0C000000 		.4byte	.LFE57-.LFB57
 10338 0030 00000000 		.4byte	.LFB58
 10339 0034 0C000000 		.4byte	.LFE58-.LFB58
 10340 0038 00000000 		.4byte	.LFB59
 10341 003c 0C000000 		.4byte	.LFE59-.LFB59
 10342 0040 00000000 		.4byte	.LFB60
 10343 0044 0C000000 		.4byte	.LFE60-.LFB60
 10344 0048 00000000 		.4byte	.LFB61
 10345 004c 0C000000 		.4byte	.LFE61-.LFB61
 10346 0050 00000000 		.4byte	.LFB62
 10347 0054 0C000000 		.4byte	.LFE62-.LFB62
 10348 0058 00000000 		.4byte	.LFB63
 10349 005c 0C000000 		.4byte	.LFE63-.LFB63
 10350 0060 00000000 		.4byte	.LFB64
 10351 0064 0C000000 		.4byte	.LFE64-.LFB64
 10352 0068 00000000 		.4byte	.LFB65
 10353 006c 0C000000 		.4byte	.LFE65-.LFB65
 10354 0070 00000000 		.4byte	.LFB66
 10355 0074 0C000000 		.4byte	.LFE66-.LFB66
 10356 0078 00000000 		.4byte	.LFB67
 10357 007c 0C000000 		.4byte	.LFE67-.LFB67
 10358 0080 00000000 		.4byte	.LFB68
 10359 0084 0C000000 		.4byte	.LFE68-.LFB68
 10360 0088 00000000 		.4byte	.LFB69
 10361 008c 0C000000 		.4byte	.LFE69-.LFB69
 10362 0090 00000000 		.4byte	.LFB70
 10363 0094 0C000000 		.4byte	.LFE70-.LFB70
 10364 0098 00000000 		.4byte	.LFB71
 10365 009c 0C000000 		.4byte	.LFE71-.LFB71
 10366 00a0 00000000 		.4byte	.LFB72
 10367 00a4 0C000000 		.4byte	.LFE72-.LFB72
 10368 00a8 00000000 		.4byte	.LFB73
 10369 00ac 0C000000 		.4byte	.LFE73-.LFB73
 10370 00b0 00000000 		.4byte	.LFB74
 10371 00b4 0C000000 		.4byte	.LFE74-.LFB74
 10372 00b8 00000000 		.4byte	.LFB75
 10373 00bc 0C000000 		.4byte	.LFE75-.LFB75
 10374 00c0 00000000 		.4byte	.LFB76
 10375 00c4 0C000000 		.4byte	.LFE76-.LFB76
 10376 00c8 00000000 		.4byte	.LFB77
 10377 00cc 0C000000 		.4byte	.LFE77-.LFB77
 10378 00d0 00000000 		.4byte	.LFB78
 10379 00d4 0C000000 		.4byte	.LFE78-.LFB78
 10380 00d8 00000000 		.4byte	.LFB79
 10381 00dc 0C000000 		.4byte	.LFE79-.LFB79
 10382 00e0 00000000 		.4byte	.LFB80
 10383 00e4 0C000000 		.4byte	.LFE80-.LFB80
 10384 00e8 00000000 		.4byte	.LFB81
 10385 00ec 0C000000 		.4byte	.LFE81-.LFB81
ARM GAS  C:\Users\haske\AppData\Local\Temp\ccb2zsXg.s 			page 195


 10386 00f0 00000000 		.4byte	.LFB82
 10387 00f4 0C000000 		.4byte	.LFE82-.LFB82
 10388 00f8 00000000 		.4byte	.LFB83
 10389 00fc 0C000000 		.4byte	.LFE83-.LFB83
 10390 0100 00000000 		.4byte	.LFB84
 10391 0104 0C000000 		.4byte	.LFE84-.LFB84
 10392 0108 00000000 		.4byte	.LFB85
 10393 010c 0C000000 		.4byte	.LFE85-.LFB85
 10394 0110 00000000 		.4byte	.LFB86
 10395 0114 0C000000 		.4byte	.LFE86-.LFB86
 10396 0118 00000000 		.4byte	.LFB87
 10397 011c 0C000000 		.4byte	.LFE87-.LFB87
 10398 0120 00000000 		.4byte	.LFB88
 10399 0124 0C000000 		.4byte	.LFE88-.LFB88
 10400 0128 00000000 		.4byte	.LFB89
 10401 012c 0C000000 		.4byte	.LFE89-.LFB89
 10402 0130 00000000 		.4byte	.LFB90
 10403 0134 0C000000 		.4byte	.LFE90-.LFB90
 10404 0138 00000000 		.4byte	.LFB91
 10405 013c 0C000000 		.4byte	.LFE91-.LFB91
 10406 0140 00000000 		.4byte	.LFB92
 10407 0144 0C000000 		.4byte	.LFE92-.LFB92
 10408 0148 00000000 		.4byte	.LFB93
 10409 014c 0C000000 		.4byte	.LFE93-.LFB93
 10410 0150 00000000 		.4byte	.LFB94
 10411 0154 0C000000 		.4byte	.LFE94-.LFB94
 10412 0158 00000000 		.4byte	.LFB95
 10413 015c 0C000000 		.4byte	.LFE95-.LFB95
 10414 0160 00000000 		.4byte	.LFB96
 10415 0164 0C000000 		.4byte	.LFE96-.LFB96
 10416 0168 00000000 		.4byte	.LFB97
 10417 016c 0C000000 		.4byte	.LFE97-.LFB97
 10418 0170 00000000 		.4byte	.LFB98
 10419 0174 0C000000 		.4byte	.LFE98-.LFB98
 10420 0178 00000000 		.4byte	.LFB99
 10421 017c 0C000000 		.4byte	.LFE99-.LFB99
 10422 0180 00000000 		.4byte	.LFB100
 10423 0184 0C000000 		.4byte	.LFE100-.LFB100
 10424 0188 00000000 		.4byte	.LFB101
 10425 018c 0C000000 		.4byte	.LFE101-.LFB101
 10426 0190 00000000 		.4byte	.LFB102
 10427 0194 0C000000 		.4byte	.LFE102-.LFB102
 10428 0198 00000000 		.4byte	.LFB103
 10429 019c 0C000000 		.4byte	.LFE103-.LFB103
 10430 01a0 00000000 		.4byte	.LFB104
 10431 01a4 0C000000 		.4byte	.LFE104-.LFB104
 10432 01a8 00000000 		.4byte	.LFB105
 10433 01ac 0C000000 		.4byte	.LFE105-.LFB105
 10434 01b0 00000000 		.4byte	.LFB106
 10435 01b4 0C000000 		.4byte	.LFE106-.LFB106
 10436 01b8 00000000 		.4byte	.LFB107
 10437 01bc 0C000000 		.4byte	.LFE107-.LFB107
 10438 01c0 00000000 		.4byte	.LFB108
 10439 01c4 0C000000 		.4byte	.LFE108-.LFB108
 10440 01c8 00000000 		.4byte	.LFB109
 10441 01cc 0C000000 		.4byte	.LFE109-.LFB109
 10442 01d0 00000000 		.4byte	.LFB110
ARM GAS  C:\Users\haske\AppData\Local\Temp\ccb2zsXg.s 			page 196


 10443 01d4 0C000000 		.4byte	.LFE110-.LFB110
 10444 01d8 00000000 		.4byte	.LFB111
 10445 01dc 0C000000 		.4byte	.LFE111-.LFB111
 10446 01e0 00000000 		.4byte	.LFB112
 10447 01e4 0C000000 		.4byte	.LFE112-.LFB112
 10448 01e8 00000000 		.4byte	.LFB113
 10449 01ec 0C000000 		.4byte	.LFE113-.LFB113
 10450 01f0 00000000 		.4byte	.LFB114
 10451 01f4 0C000000 		.4byte	.LFE114-.LFB114
 10452 01f8 00000000 		.4byte	.LFB115
 10453 01fc 0C000000 		.4byte	.LFE115-.LFB115
 10454 0200 00000000 		.4byte	.LFB116
 10455 0204 0C000000 		.4byte	.LFE116-.LFB116
 10456 0208 00000000 		.4byte	.LFB117
 10457 020c 0C000000 		.4byte	.LFE117-.LFB117
 10458 0210 00000000 		.4byte	.LFB118
 10459 0214 0C000000 		.4byte	.LFE118-.LFB118
 10460 0218 00000000 		.4byte	.LFB119
 10461 021c 0C000000 		.4byte	.LFE119-.LFB119
 10462 0220 00000000 		.4byte	.LFB120
 10463 0224 0C000000 		.4byte	.LFE120-.LFB120
 10464 0228 00000000 		.4byte	.LFB121
 10465 022c 0C000000 		.4byte	.LFE121-.LFB121
 10466 0230 00000000 		.4byte	.LFB122
 10467 0234 0C000000 		.4byte	.LFE122-.LFB122
 10468 0238 00000000 		.4byte	.LFB123
 10469 023c 0C000000 		.4byte	.LFE123-.LFB123
 10470 0240 00000000 		.4byte	.LFB124
 10471 0244 0C000000 		.4byte	.LFE124-.LFB124
 10472 0248 00000000 		.4byte	.LFB125
 10473 024c 0C000000 		.4byte	.LFE125-.LFB125
 10474 0250 00000000 		.4byte	.LFB126
 10475 0254 0C000000 		.4byte	.LFE126-.LFB126
 10476 0258 00000000 		.4byte	.LFB127
 10477 025c 0C000000 		.4byte	.LFE127-.LFB127
 10478 0260 00000000 		.4byte	.LFB128
 10479 0264 0C000000 		.4byte	.LFE128-.LFB128
 10480 0268 00000000 		.4byte	.LFB129
 10481 026c 0C000000 		.4byte	.LFE129-.LFB129
 10482 0270 00000000 		.4byte	.LFB130
 10483 0274 0C000000 		.4byte	.LFE130-.LFB130
 10484 0278 00000000 		.4byte	.LFB131
 10485 027c 0C000000 		.4byte	.LFE131-.LFB131
 10486 0280 00000000 		.4byte	.LFB132
 10487 0284 0C000000 		.4byte	.LFE132-.LFB132
 10488 0288 00000000 		.4byte	.LFB133
 10489 028c 0C000000 		.4byte	.LFE133-.LFB133
 10490 0290 00000000 		.4byte	.LFB134
 10491 0294 0C000000 		.4byte	.LFE134-.LFB134
 10492 0298 00000000 		.4byte	.LFB135
 10493 029c 0C000000 		.4byte	.LFE135-.LFB135
 10494 02a0 00000000 		.4byte	.LFB136
 10495 02a4 0C000000 		.4byte	.LFE136-.LFB136
 10496 02a8 00000000 		.4byte	.LFB137
 10497 02ac 0C000000 		.4byte	.LFE137-.LFB137
 10498 02b0 00000000 		.4byte	0
 10499 02b4 00000000 		.4byte	0
ARM GAS  C:\Users\haske\AppData\Local\Temp\ccb2zsXg.s 			page 197


 10500              		.section	.debug_ranges,"",%progbits
 10501              	.Ldebug_ranges0:
 10502 0000 00000000 		.4byte	.LFB54
 10503 0004 0C000000 		.4byte	.LFE54
 10504 0008 00000000 		.4byte	.LFB55
 10505 000c 0C000000 		.4byte	.LFE55
 10506 0010 00000000 		.4byte	.LFB56
 10507 0014 0C000000 		.4byte	.LFE56
 10508 0018 00000000 		.4byte	.LFB57
 10509 001c 0C000000 		.4byte	.LFE57
 10510 0020 00000000 		.4byte	.LFB58
 10511 0024 0C000000 		.4byte	.LFE58
 10512 0028 00000000 		.4byte	.LFB59
 10513 002c 0C000000 		.4byte	.LFE59
 10514 0030 00000000 		.4byte	.LFB60
 10515 0034 0C000000 		.4byte	.LFE60
 10516 0038 00000000 		.4byte	.LFB61
 10517 003c 0C000000 		.4byte	.LFE61
 10518 0040 00000000 		.4byte	.LFB62
 10519 0044 0C000000 		.4byte	.LFE62
 10520 0048 00000000 		.4byte	.LFB63
 10521 004c 0C000000 		.4byte	.LFE63
 10522 0050 00000000 		.4byte	.LFB64
 10523 0054 0C000000 		.4byte	.LFE64
 10524 0058 00000000 		.4byte	.LFB65
 10525 005c 0C000000 		.4byte	.LFE65
 10526 0060 00000000 		.4byte	.LFB66
 10527 0064 0C000000 		.4byte	.LFE66
 10528 0068 00000000 		.4byte	.LFB67
 10529 006c 0C000000 		.4byte	.LFE67
 10530 0070 00000000 		.4byte	.LFB68
 10531 0074 0C000000 		.4byte	.LFE68
 10532 0078 00000000 		.4byte	.LFB69
 10533 007c 0C000000 		.4byte	.LFE69
 10534 0080 00000000 		.4byte	.LFB70
 10535 0084 0C000000 		.4byte	.LFE70
 10536 0088 00000000 		.4byte	.LFB71
 10537 008c 0C000000 		.4byte	.LFE71
 10538 0090 00000000 		.4byte	.LFB72
 10539 0094 0C000000 		.4byte	.LFE72
 10540 0098 00000000 		.4byte	.LFB73
 10541 009c 0C000000 		.4byte	.LFE73
 10542 00a0 00000000 		.4byte	.LFB74
 10543 00a4 0C000000 		.4byte	.LFE74
 10544 00a8 00000000 		.4byte	.LFB75
 10545 00ac 0C000000 		.4byte	.LFE75
 10546 00b0 00000000 		.4byte	.LFB76
 10547 00b4 0C000000 		.4byte	.LFE76
 10548 00b8 00000000 		.4byte	.LFB77
 10549 00bc 0C000000 		.4byte	.LFE77
 10550 00c0 00000000 		.4byte	.LFB78
 10551 00c4 0C000000 		.4byte	.LFE78
 10552 00c8 00000000 		.4byte	.LFB79
 10553 00cc 0C000000 		.4byte	.LFE79
 10554 00d0 00000000 		.4byte	.LFB80
 10555 00d4 0C000000 		.4byte	.LFE80
 10556 00d8 00000000 		.4byte	.LFB81
ARM GAS  C:\Users\haske\AppData\Local\Temp\ccb2zsXg.s 			page 198


 10557 00dc 0C000000 		.4byte	.LFE81
 10558 00e0 00000000 		.4byte	.LFB82
 10559 00e4 0C000000 		.4byte	.LFE82
 10560 00e8 00000000 		.4byte	.LFB83
 10561 00ec 0C000000 		.4byte	.LFE83
 10562 00f0 00000000 		.4byte	.LFB84
 10563 00f4 0C000000 		.4byte	.LFE84
 10564 00f8 00000000 		.4byte	.LFB85
 10565 00fc 0C000000 		.4byte	.LFE85
 10566 0100 00000000 		.4byte	.LFB86
 10567 0104 0C000000 		.4byte	.LFE86
 10568 0108 00000000 		.4byte	.LFB87
 10569 010c 0C000000 		.4byte	.LFE87
 10570 0110 00000000 		.4byte	.LFB88
 10571 0114 0C000000 		.4byte	.LFE88
 10572 0118 00000000 		.4byte	.LFB89
 10573 011c 0C000000 		.4byte	.LFE89
 10574 0120 00000000 		.4byte	.LFB90
 10575 0124 0C000000 		.4byte	.LFE90
 10576 0128 00000000 		.4byte	.LFB91
 10577 012c 0C000000 		.4byte	.LFE91
 10578 0130 00000000 		.4byte	.LFB92
 10579 0134 0C000000 		.4byte	.LFE92
 10580 0138 00000000 		.4byte	.LFB93
 10581 013c 0C000000 		.4byte	.LFE93
 10582 0140 00000000 		.4byte	.LFB94
 10583 0144 0C000000 		.4byte	.LFE94
 10584 0148 00000000 		.4byte	.LFB95
 10585 014c 0C000000 		.4byte	.LFE95
 10586 0150 00000000 		.4byte	.LFB96
 10587 0154 0C000000 		.4byte	.LFE96
 10588 0158 00000000 		.4byte	.LFB97
 10589 015c 0C000000 		.4byte	.LFE97
 10590 0160 00000000 		.4byte	.LFB98
 10591 0164 0C000000 		.4byte	.LFE98
 10592 0168 00000000 		.4byte	.LFB99
 10593 016c 0C000000 		.4byte	.LFE99
 10594 0170 00000000 		.4byte	.LFB100
 10595 0174 0C000000 		.4byte	.LFE100
 10596 0178 00000000 		.4byte	.LFB101
 10597 017c 0C000000 		.4byte	.LFE101
 10598 0180 00000000 		.4byte	.LFB102
 10599 0184 0C000000 		.4byte	.LFE102
 10600 0188 00000000 		.4byte	.LFB103
 10601 018c 0C000000 		.4byte	.LFE103
 10602 0190 00000000 		.4byte	.LFB104
 10603 0194 0C000000 		.4byte	.LFE104
 10604 0198 00000000 		.4byte	.LFB105
 10605 019c 0C000000 		.4byte	.LFE105
 10606 01a0 00000000 		.4byte	.LFB106
 10607 01a4 0C000000 		.4byte	.LFE106
 10608 01a8 00000000 		.4byte	.LFB107
 10609 01ac 0C000000 		.4byte	.LFE107
 10610 01b0 00000000 		.4byte	.LFB108
 10611 01b4 0C000000 		.4byte	.LFE108
 10612 01b8 00000000 		.4byte	.LFB109
 10613 01bc 0C000000 		.4byte	.LFE109
ARM GAS  C:\Users\haske\AppData\Local\Temp\ccb2zsXg.s 			page 199


 10614 01c0 00000000 		.4byte	.LFB110
 10615 01c4 0C000000 		.4byte	.LFE110
 10616 01c8 00000000 		.4byte	.LFB111
 10617 01cc 0C000000 		.4byte	.LFE111
 10618 01d0 00000000 		.4byte	.LFB112
 10619 01d4 0C000000 		.4byte	.LFE112
 10620 01d8 00000000 		.4byte	.LFB113
 10621 01dc 0C000000 		.4byte	.LFE113
 10622 01e0 00000000 		.4byte	.LFB114
 10623 01e4 0C000000 		.4byte	.LFE114
 10624 01e8 00000000 		.4byte	.LFB115
 10625 01ec 0C000000 		.4byte	.LFE115
 10626 01f0 00000000 		.4byte	.LFB116
 10627 01f4 0C000000 		.4byte	.LFE116
 10628 01f8 00000000 		.4byte	.LFB117
 10629 01fc 0C000000 		.4byte	.LFE117
 10630 0200 00000000 		.4byte	.LFB118
 10631 0204 0C000000 		.4byte	.LFE118
 10632 0208 00000000 		.4byte	.LFB119
 10633 020c 0C000000 		.4byte	.LFE119
 10634 0210 00000000 		.4byte	.LFB120
 10635 0214 0C000000 		.4byte	.LFE120
 10636 0218 00000000 		.4byte	.LFB121
 10637 021c 0C000000 		.4byte	.LFE121
 10638 0220 00000000 		.4byte	.LFB122
 10639 0224 0C000000 		.4byte	.LFE122
 10640 0228 00000000 		.4byte	.LFB123
 10641 022c 0C000000 		.4byte	.LFE123
 10642 0230 00000000 		.4byte	.LFB124
 10643 0234 0C000000 		.4byte	.LFE124
 10644 0238 00000000 		.4byte	.LFB125
 10645 023c 0C000000 		.4byte	.LFE125
 10646 0240 00000000 		.4byte	.LFB126
 10647 0244 0C000000 		.4byte	.LFE126
 10648 0248 00000000 		.4byte	.LFB127
 10649 024c 0C000000 		.4byte	.LFE127
 10650 0250 00000000 		.4byte	.LFB128
 10651 0254 0C000000 		.4byte	.LFE128
 10652 0258 00000000 		.4byte	.LFB129
 10653 025c 0C000000 		.4byte	.LFE129
 10654 0260 00000000 		.4byte	.LFB130
 10655 0264 0C000000 		.4byte	.LFE130
 10656 0268 00000000 		.4byte	.LFB131
 10657 026c 0C000000 		.4byte	.LFE131
 10658 0270 00000000 		.4byte	.LFB132
 10659 0274 0C000000 		.4byte	.LFE132
 10660 0278 00000000 		.4byte	.LFB133
 10661 027c 0C000000 		.4byte	.LFE133
 10662 0280 00000000 		.4byte	.LFB134
 10663 0284 0C000000 		.4byte	.LFE134
 10664 0288 00000000 		.4byte	.LFB135
 10665 028c 0C000000 		.4byte	.LFE135
 10666 0290 00000000 		.4byte	.LFB136
 10667 0294 0C000000 		.4byte	.LFE136
 10668 0298 00000000 		.4byte	.LFB137
 10669 029c 0C000000 		.4byte	.LFE137
 10670 02a0 00000000 		.4byte	0
ARM GAS  C:\Users\haske\AppData\Local\Temp\ccb2zsXg.s 			page 200


 10671 02a4 00000000 		.4byte	0
 10672              		.section	.debug_line,"",%progbits
 10673              	.Ldebug_line0:
 10674 0000 35080000 		.section	.debug_str,"MS",%progbits,1
 10674      02004702 
 10674      00000201 
 10674      FB0E0D00 
 10674      01010101 
 10675              	.LASF58:
 10676 0000 65786563 		.ascii	"exec_cb\000"
 10676      5F636200 
 10677              	.LASF47:
 10678 0008 66756C6C 		.ascii	"full\000"
 10678      00
 10679              	.LASF98:
 10680 000d 4C565F53 		.ascii	"LV_STYLE_PROP_INV\000"
 10680      54594C45 
 10680      5F50524F 
 10680      505F494E 
 10680      5600
 10681              	.LASF267:
 10682 001f 6C765F73 		.ascii	"lv_style_set_arc_img_src\000"
 10682      74796C65 
 10682      5F736574 
 10682      5F617263 
 10682      5F696D67 
 10683              	.LASF221:
 10684 0038 6C765F73 		.ascii	"lv_style_set_pad_bottom\000"
 10684      74796C65 
 10684      5F736574 
 10684      5F706164 
 10684      5F626F74 
 10685              	.LASF265:
 10686 0050 6C765F73 		.ascii	"lv_style_set_arc_color\000"
 10686      74796C65 
 10686      5F736574 
 10686      5F617263 
 10686      5F636F6C 
 10687              	.LASF102:
 10688 0067 4C565F53 		.ascii	"LV_STYLE_HEIGHT\000"
 10688      54594C45 
 10688      5F484549 
 10688      47485400 
 10689              	.LASF157:
 10690 0077 4C565F53 		.ascii	"LV_STYLE_ARC_COLOR\000"
 10690      54594C45 
 10690      5F415243 
 10690      5F434F4C 
 10690      4F5200
 10691              	.LASF59:
 10692 008a 73746172 		.ascii	"start_cb\000"
 10692      745F6362 
 10692      00
 10693              	.LASF290:
 10694 0093 6C765F66 		.ascii	"lv_font_montserrat_14\000"
 10694      6F6E745F 
 10694      6D6F6E74 
ARM GAS  C:\Users\haske\AppData\Local\Temp\ccb2zsXg.s 			page 201


 10694      73657272 
 10694      61745F31 
 10695              	.LASF156:
 10696 00a9 4C565F53 		.ascii	"LV_STYLE_ARC_ROUNDED\000"
 10696      54594C45 
 10696      5F415243 
 10696      5F524F55 
 10696      4E444544 
 10697              	.LASF14:
 10698 00be 756E7369 		.ascii	"unsigned int\000"
 10698      676E6564 
 10698      20696E74 
 10698      00
 10699              	.LASF28:
 10700 00cb 6F66735F 		.ascii	"ofs_x\000"
 10700      7800
 10701              	.LASF29:
 10702 00d1 6F66735F 		.ascii	"ofs_y\000"
 10702      7900
 10703              	.LASF203:
 10704 00d7 6C765F73 		.ascii	"lv_style_set_width\000"
 10704      74796C65 
 10704      5F736574 
 10704      5F776964 
 10704      746800
 10705              	.LASF31:
 10706 00ea 6765745F 		.ascii	"get_glyph_dsc\000"
 10706      676C7970 
 10706      685F6473 
 10706      6300
 10707              	.LASF118:
 10708 00f8 4C565F53 		.ascii	"LV_STYLE_BG_COLOR\000"
 10708      54594C45 
 10708      5F42475F 
 10708      434F4C4F 
 10708      5200
 10709              	.LASF243:
 10710 010a 6C765F73 		.ascii	"lv_style_set_border_post\000"
 10710      74796C65 
 10710      5F736574 
 10710      5F626F72 
 10710      6465725F 
 10711              	.LASF133:
 10712 0123 4C565F53 		.ascii	"LV_STYLE_BORDER_WIDTH\000"
 10712      54594C45 
 10712      5F424F52 
 10712      4445525F 
 10712      57494454 
 10713              	.LASF91:
 10714 0139 66726163 		.ascii	"frac\000"
 10714      00
 10715              	.LASF8:
 10716 013e 5F5F696E 		.ascii	"__int32_t\000"
 10716      7433325F 
 10716      7400
 10717              	.LASF224:
 10718 0148 6C765F73 		.ascii	"lv_style_set_pad_row\000"
ARM GAS  C:\Users\haske\AppData\Local\Temp\ccb2zsXg.s 			page 202


 10718      74796C65 
 10718      5F736574 
 10718      5F706164 
 10718      5F726F77 
 10719              	.LASF60:
 10720 015d 72656164 		.ascii	"ready_cb\000"
 10720      795F6362 
 10720      00
 10721              	.LASF288:
 10722 0166 2E2E5C2E 		.ascii	"..\\..\\..\\arduinoLCD\\test\\Pain Drain\\libraries"
 10722      2E5C2E2E 
 10722      5C617264 
 10722      75696E6F 
 10722      4C43445C 
 10723 0193 5C6C7667 		.ascii	"\\lvgl\\src\\misc\\lv_style_gen.c\000"
 10723      6C5C7372 
 10723      635C6D69 
 10723      73635C6C 
 10723      765F7374 
 10724              	.LASF283:
 10725 01b1 6C765F73 		.ascii	"lv_style_set_transition\000"
 10725      74796C65 
 10725      5F736574 
 10725      5F747261 
 10725      6E736974 
 10726              	.LASF75:
 10727 01c9 72756E5F 		.ascii	"run_round\000"
 10727      726F756E 
 10727      6400
 10728              	.LASF53:
 10729 01d3 5F6C765F 		.ascii	"_lv_color_filter_dsc_t\000"
 10729      636F6C6F 
 10729      725F6669 
 10729      6C746572 
 10729      5F647363 
 10730              	.LASF245:
 10731 01ea 6C765F73 		.ascii	"lv_style_set_outline_color\000"
 10731      74796C65 
 10731      5F736574 
 10731      5F6F7574 
 10731      6C696E65 
 10732              	.LASF164:
 10733 0205 4C565F53 		.ascii	"LV_STYLE_TEXT_LINE_SPACE\000"
 10733      54594C45 
 10733      5F544558 
 10733      545F4C49 
 10733      4E455F53 
 10734              	.LASF269:
 10735 021e 6C765F73 		.ascii	"lv_style_set_text_opa\000"
 10735      74796C65 
 10735      5F736574 
 10735      5F746578 
 10735      745F6F70 
 10736              	.LASF204:
 10737 0234 6C765F73 		.ascii	"lv_style_set_min_width\000"
 10737      74796C65 
 10737      5F736574 
ARM GAS  C:\Users\haske\AppData\Local\Temp\ccb2zsXg.s 			page 203


 10737      5F6D696E 
 10737      5F776964 
 10738              	.LASF104:
 10739 024b 4C565F53 		.ascii	"LV_STYLE_MAX_HEIGHT\000"
 10739      54594C45 
 10739      5F4D4158 
 10739      5F484549 
 10739      47485400 
 10740              	.LASF136:
 10741 025f 4C565F53 		.ascii	"LV_STYLE_OUTLINE_WIDTH\000"
 10741      54594C45 
 10741      5F4F5554 
 10741      4C494E45 
 10741      5F574944 
 10742              	.LASF184:
 10743 0276 5F4C565F 		.ascii	"_LV_STYLE_NUM_BUILT_IN_PROPS\000"
 10743      5354594C 
 10743      455F4E55 
 10743      4D5F4255 
 10743      494C545F 
 10744              	.LASF183:
 10745 0293 5F4C565F 		.ascii	"_LV_STYLE_LAST_BUILT_IN_PROP\000"
 10745      5354594C 
 10745      455F4C41 
 10745      53545F42 
 10745      55494C54 
 10746              	.LASF108:
 10747 02b0 4C565F53 		.ascii	"LV_STYLE_LAYOUT\000"
 10747      54594C45 
 10747      5F4C4159 
 10747      4F555400 
 10748              	.LASF170:
 10749 02c0 4C565F53 		.ascii	"LV_STYLE_ANIM\000"
 10749      54594C45 
 10749      5F414E49 
 10749      4D00
 10750              	.LASF251:
 10751 02ce 6C765F73 		.ascii	"lv_style_set_shadow_spread\000"
 10751      74796C65 
 10751      5F736574 
 10751      5F736861 
 10751      646F775F 
 10752              	.LASF77:
 10753 02e9 6C765F61 		.ascii	"lv_anim_exec_xcb_t\000"
 10753      6E696D5F 
 10753      65786563 
 10753      5F786362 
 10753      5F7400
 10754              	.LASF266:
 10755 02fc 6C765F73 		.ascii	"lv_style_set_arc_opa\000"
 10755      74796C65 
 10755      5F736574 
 10755      5F617263 
 10755      5F6F7061 
 10756              	.LASF111:
 10757 0311 4C565F53 		.ascii	"LV_STYLE_PAD_BOTTOM\000"
 10757      54594C45 
ARM GAS  C:\Users\haske\AppData\Local\Temp\ccb2zsXg.s 			page 204


 10757      5F504144 
 10757      5F424F54 
 10757      544F4D00 
 10758              	.LASF121:
 10759 0325 4C565F53 		.ascii	"LV_STYLE_BG_GRAD_DIR\000"
 10759      54594C45 
 10759      5F42475F 
 10759      47524144 
 10759      5F444952 
 10760              	.LASF37:
 10761 033a 756E6465 		.ascii	"underline_thickness\000"
 10761      726C696E 
 10761      655F7468 
 10761      69636B6E 
 10761      65737300 
 10762              	.LASF57:
 10763 034e 5F6C765F 		.ascii	"_lv_anim_t\000"
 10763      616E696D 
 10763      5F7400
 10764              	.LASF138:
 10765 0359 4C565F53 		.ascii	"LV_STYLE_OUTLINE_OPA\000"
 10765      54594C45 
 10765      5F4F5554 
 10765      4C494E45 
 10765      5F4F5041 
 10766              	.LASF65:
 10767 036e 63757272 		.ascii	"current_value\000"
 10767      656E745F 
 10767      76616C75 
 10767      6500
 10768              	.LASF106:
 10769 037c 4C565F53 		.ascii	"LV_STYLE_Y\000"
 10769      54594C45 
 10769      5F5900
 10770              	.LASF135:
 10771 0387 4C565F53 		.ascii	"LV_STYLE_BORDER_POST\000"
 10771      54594C45 
 10771      5F424F52 
 10771      4445525F 
 10771      504F5354 
 10772              	.LASF227:
 10773 039c 6C765F73 		.ascii	"lv_style_set_bg_opa\000"
 10773      74796C65 
 10773      5F736574 
 10773      5F62675F 
 10773      6F706100 
 10774              	.LASF148:
 10775 03b0 4C565F53 		.ascii	"LV_STYLE_IMG_RECOLOR_OPA\000"
 10775      54594C45 
 10775      5F494D47 
 10775      5F524543 
 10775      4F4C4F52 
 10776              	.LASF254:
 10777 03c9 6C765F73 		.ascii	"lv_style_set_img_opa\000"
 10777      74796C65 
 10777      5F736574 
 10777      5F696D67 
ARM GAS  C:\Users\haske\AppData\Local\Temp\ccb2zsXg.s 			page 205


 10777      5F6F7061 
 10778              	.LASF20:
 10779 03de 75696E74 		.ascii	"uint32_t\000"
 10779      33325F74 
 10779      00
 10780              	.LASF15:
 10781 03e7 696E7438 		.ascii	"int8_t\000"
 10781      5F7400
 10782              	.LASF236:
 10783 03ee 6C765F73 		.ascii	"lv_style_set_bg_img_recolor\000"
 10783      74796C65 
 10783      5F736574 
 10783      5F62675F 
 10783      696D675F 
 10784              	.LASF64:
 10785 040a 73746172 		.ascii	"start_value\000"
 10785      745F7661 
 10785      6C756500 
 10786              	.LASF225:
 10787 0416 6C765F73 		.ascii	"lv_style_set_pad_column\000"
 10787      74796C65 
 10787      5F736574 
 10787      5F706164 
 10787      5F636F6C 
 10788              	.LASF189:
 10789 042e 70617468 		.ascii	"path_xcb\000"
 10789      5F786362 
 10789      00
 10790              	.LASF36:
 10791 0437 756E6465 		.ascii	"underline_position\000"
 10791      726C696E 
 10791      655F706F 
 10791      73697469 
 10791      6F6E00
 10792              	.LASF287:
 10793 044a 474E5520 		.ascii	"GNU C11 5.4.1 20160609 (release) [ARM/embedded-5-br"
 10793      43313120 
 10793      352E342E 
 10793      31203230 
 10793      31363036 
 10794 047d 616E6368 		.ascii	"anch revision 237715] -mcpu=cortex-m0plus -mthumb -"
 10794      20726576 
 10794      6973696F 
 10794      6E203233 
 10794      37373135 
 10795 04b0 67202D4F 		.ascii	"g -Og -ffunction-sections -ffat-lto-objects\000"
 10795      67202D66 
 10795      66756E63 
 10795      74696F6E 
 10795      2D736563 
 10796              	.LASF127:
 10797 04dc 4C565F53 		.ascii	"LV_STYLE_BG_IMG_OPA\000"
 10797      54594C45 
 10797      5F42475F 
 10797      494D475F 
 10797      4F504100 
 10798              	.LASF262:
ARM GAS  C:\Users\haske\AppData\Local\Temp\ccb2zsXg.s 			page 206


 10799 04f0 6C765F73 		.ascii	"lv_style_set_line_opa\000"
 10799      74796C65 
 10799      5F736574 
 10799      5F6C696E 
 10799      655F6F70 
 10800              	.LASF216:
 10801 0506 6C765F73 		.ascii	"lv_style_set_transform_zoom\000"
 10801      74796C65 
 10801      5F736574 
 10801      5F747261 
 10801      6E73666F 
 10802              	.LASF154:
 10803 0522 4C565F53 		.ascii	"LV_STYLE_LINE_OPA\000"
 10803      54594C45 
 10803      5F4C494E 
 10803      455F4F50 
 10803      4100
 10804              	.LASF186:
 10805 0534 5F4C565F 		.ascii	"_LV_STYLE_PROP_CONST\000"
 10805      5354594C 
 10805      455F5052 
 10805      4F505F43 
 10805      4F4E5354 
 10806              	.LASF17:
 10807 0549 696E7431 		.ascii	"int16_t\000"
 10807      365F7400 
 10808              	.LASF200:
 10809 0551 70726F70 		.ascii	"prop_cnt\000"
 10809      5F636E74 
 10809      00
 10810              	.LASF13:
 10811 055a 6C6F6E67 		.ascii	"long long unsigned int\000"
 10811      206C6F6E 
 10811      6720756E 
 10811      7369676E 
 10811      65642069 
 10812              	.LASF149:
 10813 0571 4C565F53 		.ascii	"LV_STYLE_LINE_WIDTH\000"
 10813      54594C45 
 10813      5F4C494E 
 10813      455F5749 
 10813      44544800 
 10814              	.LASF123:
 10815 0585 4C565F53 		.ascii	"LV_STYLE_BG_GRAD_STOP\000"
 10815      54594C45 
 10815      5F42475F 
 10815      47524144 
 10815      5F53544F 
 10816              	.LASF24:
 10817 059b 7265736F 		.ascii	"resolved_font\000"
 10817      6C766564 
 10817      5F666F6E 
 10817      7400
 10818              	.LASF147:
 10819 05a9 4C565F53 		.ascii	"LV_STYLE_IMG_RECOLOR\000"
 10819      54594C45 
 10819      5F494D47 
ARM GAS  C:\Users\haske\AppData\Local\Temp\ccb2zsXg.s 			page 207


 10819      5F524543 
 10819      4F4C4F52 
 10820              	.LASF152:
 10821 05be 4C565F53 		.ascii	"LV_STYLE_LINE_ROUNDED\000"
 10821      54594C45 
 10821      5F4C494E 
 10821      455F524F 
 10821      554E4445 
 10822              	.LASF6:
 10823 05d4 5F5F7569 		.ascii	"__uint16_t\000"
 10823      6E743136 
 10823      5F7400
 10824              	.LASF229:
 10825 05df 6C765F73 		.ascii	"lv_style_set_bg_grad_dir\000"
 10825      74796C65 
 10825      5F736574 
 10825      5F62675F 
 10825      67726164 
 10826              	.LASF252:
 10827 05f8 6C765F73 		.ascii	"lv_style_set_shadow_color\000"
 10827      74796C65 
 10827      5F736574 
 10827      5F736861 
 10827      646F775F 
 10828              	.LASF67:
 10829 0612 74696D65 		.ascii	"time\000"
 10829      00
 10830              	.LASF110:
 10831 0617 4C565F53 		.ascii	"LV_STYLE_PAD_TOP\000"
 10831      54594C45 
 10831      5F504144 
 10831      5F544F50 
 10831      00
 10832              	.LASF193:
 10833 0628 76616C75 		.ascii	"value\000"
 10833      6500
 10834              	.LASF234:
 10835 062e 6C765F73 		.ascii	"lv_style_set_bg_img_src\000"
 10835      74796C65 
 10835      5F736574 
 10835      5F62675F 
 10835      696D675F 
 10836              	.LASF132:
 10837 0646 4C565F53 		.ascii	"LV_STYLE_BORDER_OPA\000"
 10837      54594C45 
 10837      5F424F52 
 10837      4445525F 
 10837      4F504100 
 10838              	.LASF90:
 10839 065a 636F6C6F 		.ascii	"color\000"
 10839      7200
 10840              	.LASF78:
 10841 0660 6C765F61 		.ascii	"lv_anim_ready_cb_t\000"
 10841      6E696D5F 
 10841      72656164 
 10841      795F6362 
 10841      5F7400
ARM GAS  C:\Users\haske\AppData\Local\Temp\ccb2zsXg.s 			page 208


 10842              	.LASF51:
 10843 0673 6C765F63 		.ascii	"lv_color_filter_cb_t\000"
 10843      6F6C6F72 
 10843      5F66696C 
 10843      7465725F 
 10843      63625F74 
 10844              	.LASF159:
 10845 0688 4C565F53 		.ascii	"LV_STYLE_ARC_IMG_SRC\000"
 10845      54594C45 
 10845      5F415243 
 10845      5F494D47 
 10845      5F535243 
 10846              	.LASF92:
 10847 069d 6C765F67 		.ascii	"lv_gradient_stop_t\000"
 10847      72616469 
 10847      656E745F 
 10847      73746F70 
 10847      5F7400
 10848              	.LASF160:
 10849 06b0 4C565F53 		.ascii	"LV_STYLE_TEXT_COLOR\000"
 10849      54594C45 
 10849      5F544558 
 10849      545F434F 
 10849      4C4F5200 
 10850              	.LASF259:
 10851 06c4 6C765F73 		.ascii	"lv_style_set_line_dash_gap\000"
 10851      74796C65 
 10851      5F736574 
 10851      5F6C696E 
 10851      655F6461 
 10852              	.LASF177:
 10853 06df 4C565F53 		.ascii	"LV_STYLE_TRANSLATE_X\000"
 10853      54594C45 
 10853      5F545241 
 10853      4E534C41 
 10853      54455F58 
 10854              	.LASF178:
 10855 06f4 4C565F53 		.ascii	"LV_STYLE_TRANSLATE_Y\000"
 10855      54594C45 
 10855      5F545241 
 10855      4E534C41 
 10855      54455F59 
 10856              	.LASF268:
 10857 0709 6C765F73 		.ascii	"lv_style_set_text_color\000"
 10857      74796C65 
 10857      5F736574 
 10857      5F746578 
 10857      745F636F 
 10858              	.LASF207:
 10859 0721 6C765F73 		.ascii	"lv_style_set_min_height\000"
 10859      74796C65 
 10859      5F736574 
 10859      5F6D696E 
 10859      5F686569 
 10860              	.LASF125:
 10861 0739 4C565F53 		.ascii	"LV_STYLE_BG_DITHER_MODE\000"
 10861      54594C45 
ARM GAS  C:\Users\haske\AppData\Local\Temp\ccb2zsXg.s 			page 209


 10861      5F42475F 
 10861      44495448 
 10861      45525F4D 
 10862              	.LASF41:
 10863 0751 5F426F6F 		.ascii	"_Bool\000"
 10863      6C00
 10864              	.LASF141:
 10865 0757 4C565F53 		.ascii	"LV_STYLE_SHADOW_OFS_X\000"
 10865      54594C45 
 10865      5F534841 
 10865      444F575F 
 10865      4F46535F 
 10866              	.LASF142:
 10867 076d 4C565F53 		.ascii	"LV_STYLE_SHADOW_OFS_Y\000"
 10867      54594C45 
 10867      5F534841 
 10867      444F575F 
 10867      4F46535F 
 10868              	.LASF240:
 10869 0783 6C765F73 		.ascii	"lv_style_set_border_opa\000"
 10869      74796C65 
 10869      5F736574 
 10869      5F626F72 
 10869      6465725F 
 10870              	.LASF280:
 10871 079b 6C765F73 		.ascii	"lv_style_set_anim\000"
 10871      74796C65 
 10871      5F736574 
 10871      5F616E69 
 10871      6D00
 10872              	.LASF232:
 10873 07ad 6C765F73 		.ascii	"lv_style_set_bg_grad\000"
 10873      74796C65 
 10873      5F736574 
 10873      5F62675F 
 10873      67726164 
 10874              	.LASF286:
 10875 07c2 6C765F73 		.ascii	"lv_style_set_base_dir\000"
 10875      74796C65 
 10875      5F736574 
 10875      5F626173 
 10875      655F6469 
 10876              	.LASF116:
 10877 07d8 4C565F53 		.ascii	"LV_STYLE_BASE_DIR\000"
 10877      54594C45 
 10877      5F424153 
 10877      455F4449 
 10877      5200
 10878              	.LASF158:
 10879 07ea 4C565F53 		.ascii	"LV_STYLE_ARC_OPA\000"
 10879      54594C45 
 10879      5F415243 
 10879      5F4F5041 
 10879      00
 10880              	.LASF85:
 10881 07fb 6C765F62 		.ascii	"lv_blend_mode_t\000"
 10881      6C656E64 
ARM GAS  C:\Users\haske\AppData\Local\Temp\ccb2zsXg.s 			page 210


 10881      5F6D6F64 
 10881      655F7400 
 10882              	.LASF96:
 10883 080b 6C765F67 		.ascii	"lv_grad_dsc_t\000"
 10883      7261645F 
 10883      6473635F 
 10883      7400
 10884              	.LASF82:
 10885 0819 6C765F61 		.ascii	"lv_anim_t\000"
 10885      6E696D5F 
 10885      7400
 10886              	.LASF257:
 10887 0823 6C765F73 		.ascii	"lv_style_set_line_width\000"
 10887      74796C65 
 10887      5F736574 
 10887      5F6C696E 
 10887      655F7769 
 10888              	.LASF33:
 10889 083b 6C696E65 		.ascii	"line_height\000"
 10889      5F686569 
 10889      67687400 
 10890              	.LASF281:
 10891 0847 6C765F73 		.ascii	"lv_style_set_anim_time\000"
 10891      74796C65 
 10891      5F736574 
 10891      5F616E69 
 10891      6D5F7469 
 10892              	.LASF131:
 10893 085e 4C565F53 		.ascii	"LV_STYLE_BORDER_COLOR\000"
 10893      54594C45 
 10893      5F424F52 
 10893      4445525F 
 10893      434F4C4F 
 10894              	.LASF120:
 10895 0874 4C565F53 		.ascii	"LV_STYLE_BG_GRAD_COLOR\000"
 10895      54594C45 
 10895      5F42475F 
 10895      47524144 
 10895      5F434F4C 
 10896              	.LASF169:
 10897 088b 4C565F53 		.ascii	"LV_STYLE_COLOR_FILTER_OPA\000"
 10897      54594C45 
 10897      5F434F4C 
 10897      4F525F46 
 10897      494C5445 
 10898              	.LASF122:
 10899 08a5 4C565F53 		.ascii	"LV_STYLE_BG_MAIN_STOP\000"
 10899      54594C45 
 10899      5F42475F 
 10899      4D41494E 
 10899      5F53544F 
 10900              	.LASF95:
 10901 08bb 64697468 		.ascii	"dither\000"
 10901      657200
 10902              	.LASF222:
 10903 08c2 6C765F73 		.ascii	"lv_style_set_pad_left\000"
 10903      74796C65 
ARM GAS  C:\Users\haske\AppData\Local\Temp\ccb2zsXg.s 			page 211


 10903      5F736574 
 10903      5F706164 
 10903      5F6C6566 
 10904              	.LASF71:
 10905 08d8 72657065 		.ascii	"repeat_delay\000"
 10905      61745F64 
 10905      656C6179 
 10905      00
 10906              	.LASF192:
 10907 08e5 70726F70 		.ascii	"prop\000"
 10907      00
 10908              	.LASF44:
 10909 08ea 63686172 		.ascii	"char\000"
 10909      00
 10910              	.LASF218:
 10911 08ef 6C765F73 		.ascii	"lv_style_set_transform_pivot_x\000"
 10911      74796C65 
 10911      5F736574 
 10911      5F747261 
 10911      6E73666F 
 10912              	.LASF219:
 10913 090e 6C765F73 		.ascii	"lv_style_set_transform_pivot_y\000"
 10913      74796C65 
 10913      5F736574 
 10913      5F747261 
 10913      6E73666F 
 10914              	.LASF145:
 10915 092d 4C565F53 		.ascii	"LV_STYLE_SHADOW_OPA\000"
 10915      54594C45 
 10915      5F534841 
 10915      444F575F 
 10915      4F504100 
 10916              	.LASF83:
 10917 0941 6C765F74 		.ascii	"lv_text_align_t\000"
 10917      6578745F 
 10917      616C6967 
 10917      6E5F7400 
 10918              	.LASF199:
 10919 0951 6861735F 		.ascii	"has_group\000"
 10919      67726F75 
 10919      7000
 10920              	.LASF198:
 10921 095b 70726F70 		.ascii	"prop1\000"
 10921      3100
 10922              	.LASF239:
 10923 0961 6C765F73 		.ascii	"lv_style_set_border_color\000"
 10923      74796C65 
 10923      5F736574 
 10923      5F626F72 
 10923      6465725F 
 10924              	.LASF255:
 10925 097b 6C765F73 		.ascii	"lv_style_set_img_recolor\000"
 10925      74796C65 
 10925      5F736574 
 10925      5F696D67 
 10925      5F726563 
 10926              	.LASF253:
ARM GAS  C:\Users\haske\AppData\Local\Temp\ccb2zsXg.s 			page 212


 10927 0994 6C765F73 		.ascii	"lv_style_set_shadow_opa\000"
 10927      74796C65 
 10927      5F736574 
 10927      5F736861 
 10927      646F775F 
 10928              	.LASF242:
 10929 09ac 6C765F73 		.ascii	"lv_style_set_border_side\000"
 10929      74796C65 
 10929      5F736574 
 10929      5F626F72 
 10929      6465725F 
 10930              	.LASF241:
 10931 09c5 6C765F73 		.ascii	"lv_style_set_border_width\000"
 10931      74796C65 
 10931      5F736574 
 10931      5F626F72 
 10931      6465725F 
 10932              	.LASF40:
 10933 09df 6C765F66 		.ascii	"lv_font_glyph_dsc_t\000"
 10933      6F6E745F 
 10933      676C7970 
 10933      685F6473 
 10933      635F7400 
 10934              	.LASF107:
 10935 09f3 4C565F53 		.ascii	"LV_STYLE_ALIGN\000"
 10935      54594C45 
 10935      5F414C49 
 10935      474E00
 10936              	.LASF233:
 10937 0a02 6C765F73 		.ascii	"lv_style_set_bg_dither_mode\000"
 10937      74796C65 
 10937      5F736574 
 10937      5F62675F 
 10937      64697468 
 10938              	.LASF213:
 10939 0a1e 6C765F73 		.ascii	"lv_style_set_transform_height\000"
 10939      74796C65 
 10939      5F736574 
 10939      5F747261 
 10939      6E73666F 
 10940              	.LASF16:
 10941 0a3c 75696E74 		.ascii	"uint8_t\000"
 10941      385F7400 
 10942              	.LASF124:
 10943 0a44 4C565F53 		.ascii	"LV_STYLE_BG_GRAD\000"
 10943      54594C45 
 10943      5F42475F 
 10943      47524144 
 10943      00
 10944              	.LASF246:
 10945 0a55 6C765F73 		.ascii	"lv_style_set_outline_opa\000"
 10945      74796C65 
 10945      5F736574 
 10945      5F6F7574 
 10945      6C696E65 
 10946              	.LASF52:
 10947 0a6e 5F6C765F 		.ascii	"_lv_font_t\000"
ARM GAS  C:\Users\haske\AppData\Local\Temp\ccb2zsXg.s 			page 213


 10947      666F6E74 
 10947      5F7400
 10948              	.LASF226:
 10949 0a79 6C765F73 		.ascii	"lv_style_set_bg_color\000"
 10949      74796C65 
 10949      5F736574 
 10949      5F62675F 
 10949      636F6C6F 
 10950              	.LASF168:
 10951 0a8f 4C565F53 		.ascii	"LV_STYLE_COLOR_FILTER_DSC\000"
 10951      54594C45 
 10951      5F434F4C 
 10951      4F525F46 
 10951      494C5445 
 10952              	.LASF113:
 10953 0aa9 4C565F53 		.ascii	"LV_STYLE_PAD_RIGHT\000"
 10953      54594C45 
 10953      5F504144 
 10953      5F524947 
 10953      485400
 10954              	.LASF70:
 10955 0abc 706C6179 		.ascii	"playback_time\000"
 10955      6261636B 
 10955      5F74696D 
 10955      6500
 10956              	.LASF150:
 10957 0aca 4C565F53 		.ascii	"LV_STYLE_LINE_DASH_WIDTH\000"
 10957      54594C45 
 10957      5F4C494E 
 10957      455F4441 
 10957      53485F57 
 10958              	.LASF39:
 10959 0ae3 75736572 		.ascii	"user_data\000"
 10959      5F646174 
 10959      6100
 10960              	.LASF212:
 10961 0aed 6C765F73 		.ascii	"lv_style_set_transform_width\000"
 10961      74796C65 
 10961      5F736574 
 10961      5F747261 
 10961      6E73666F 
 10962              	.LASF256:
 10963 0b0a 6C765F73 		.ascii	"lv_style_set_img_recolor_opa\000"
 10963      74796C65 
 10963      5F736574 
 10963      5F696D67 
 10963      5F726563 
 10964              	.LASF12:
 10965 0b27 6C6F6E67 		.ascii	"long long int\000"
 10965      206C6F6E 
 10965      6720696E 
 10965      7400
 10966              	.LASF291:
 10967 0b35 6C765F73 		.ascii	"lv_style_set_prop\000"
 10967      74796C65 
 10967      5F736574 
 10967      5F70726F 
ARM GAS  C:\Users\haske\AppData\Local\Temp\ccb2zsXg.s 			page 214


 10967      7000
 10968              	.LASF114:
 10969 0b47 4C565F53 		.ascii	"LV_STYLE_PAD_ROW\000"
 10969      54594C45 
 10969      5F504144 
 10969      5F524F57 
 10969      00
 10970              	.LASF23:
 10971 0b58 6C765F61 		.ascii	"lv_align_t\000"
 10971      6C69676E 
 10971      5F7400
 10972              	.LASF289:
 10973 0b63 433A5C50 		.ascii	"C:\\Projects\\PainDrain\\firmware\\PainDrain\\PainD"
 10973      726F6A65 
 10973      6374735C 
 10973      5061696E 
 10973      44726169 
 10974 0b91 7261696E 		.ascii	"rain.cydsn\000"
 10974      2E637964 
 10974      736E00
 10975              	.LASF179:
 10976 0b9c 4C565F53 		.ascii	"LV_STYLE_TRANSFORM_ZOOM\000"
 10976      54594C45 
 10976      5F545241 
 10976      4E53464F 
 10976      524D5F5A 
 10977              	.LASF191:
 10978 0bb4 6C765F73 		.ascii	"lv_style_transition_dsc_t\000"
 10978      74796C65 
 10978      5F747261 
 10978      6E736974 
 10978      696F6E5F 
 10979              	.LASF195:
 10980 0bce 76616C75 		.ascii	"value1\000"
 10980      653100
 10981              	.LASF112:
 10982 0bd5 4C565F53 		.ascii	"LV_STYLE_PAD_LEFT\000"
 10982      54594C45 
 10982      5F504144 
 10982      5F4C4546 
 10982      5400
 10983              	.LASF4:
 10984 0be7 5F5F696E 		.ascii	"__int16_t\000"
 10984      7431365F 
 10984      7400
 10985              	.LASF101:
 10986 0bf1 4C565F53 		.ascii	"LV_STYLE_MAX_WIDTH\000"
 10986      54594C45 
 10986      5F4D4158 
 10986      5F574944 
 10986      544800
 10987              	.LASF134:
 10988 0c04 4C565F53 		.ascii	"LV_STYLE_BORDER_SIDE\000"
 10988      54594C45 
 10988      5F424F52 
 10988      4445525F 
 10988      53494445 
ARM GAS  C:\Users\haske\AppData\Local\Temp\ccb2zsXg.s 			page 215


 10989              	.LASF76:
 10990 0c19 73746172 		.ascii	"start_cb_called\000"
 10990      745F6362 
 10990      5F63616C 
 10990      6C656400 
 10991              	.LASF153:
 10992 0c29 4C565F53 		.ascii	"LV_STYLE_LINE_COLOR\000"
 10992      54594C45 
 10992      5F4C494E 
 10992      455F434F 
 10992      4C4F5200 
 10993              	.LASF81:
 10994 0c3d 6C765F61 		.ascii	"lv_anim_deleted_cb_t\000"
 10994      6E696D5F 
 10994      64656C65 
 10994      7465645F 
 10994      63625F74 
 10995              	.LASF63:
 10996 0c52 70617468 		.ascii	"path_cb\000"
 10996      5F636200 
 10997              	.LASF93:
 10998 0c5a 73746F70 		.ascii	"stops\000"
 10998      7300
 10999              	.LASF88:
 11000 0c60 6C765F67 		.ascii	"lv_grad_dir_t\000"
 11000      7261645F 
 11000      6469725F 
 11000      7400
 11001              	.LASF172:
 11002 0c6e 4C565F53 		.ascii	"LV_STYLE_ANIM_SPEED\000"
 11002      54594C45 
 11002      5F414E49 
 11002      4D5F5350 
 11002      45454400 
 11003              	.LASF188:
 11004 0c82 70726F70 		.ascii	"props\000"
 11004      7300
 11005              	.LASF97:
 11006 0c88 6C765F73 		.ascii	"lv_style_value_t\000"
 11006      74796C65 
 11006      5F76616C 
 11006      75655F74 
 11006      00
 11007              	.LASF166:
 11008 0c99 4C565F53 		.ascii	"LV_STYLE_TEXT_ALIGN\000"
 11008      54594C45 
 11008      5F544558 
 11008      545F414C 
 11008      49474E00 
 11009              	.LASF175:
 11010 0cad 4C565F53 		.ascii	"LV_STYLE_TRANSFORM_WIDTH\000"
 11010      54594C45 
 11010      5F545241 
 11010      4E53464F 
 11010      524D5F57 
 11011              	.LASF235:
 11012 0cc6 6C765F73 		.ascii	"lv_style_set_bg_img_opa\000"
ARM GAS  C:\Users\haske\AppData\Local\Temp\ccb2zsXg.s 			page 216


 11012      74796C65 
 11012      5F736574 
 11012      5F62675F 
 11012      696D675F 
 11013              	.LASF274:
 11014 0cde 6C765F73 		.ascii	"lv_style_set_text_align\000"
 11014      74796C65 
 11014      5F736574 
 11014      5F746578 
 11014      745F616C 
 11015              	.LASF139:
 11016 0cf6 4C565F53 		.ascii	"LV_STYLE_OUTLINE_PAD\000"
 11016      54594C45 
 11016      5F4F5554 
 11016      4C494E45 
 11016      5F504144 
 11017              	.LASF206:
 11018 0d0b 6C765F73 		.ascii	"lv_style_set_height\000"
 11018      74796C65 
 11018      5F736574 
 11018      5F686569 
 11018      67687400 
 11019              	.LASF140:
 11020 0d1f 4C565F53 		.ascii	"LV_STYLE_SHADOW_WIDTH\000"
 11020      54594C45 
 11020      5F534841 
 11020      444F575F 
 11020      57494454 
 11021              	.LASF272:
 11022 0d35 6C765F73 		.ascii	"lv_style_set_text_line_space\000"
 11022      74796C65 
 11022      5F736574 
 11022      5F746578 
 11022      745F6C69 
 11023              	.LASF35:
 11024 0d52 73756270 		.ascii	"subpx\000"
 11024      7800
 11025              	.LASF49:
 11026 0d58 6C765F63 		.ascii	"lv_color_t\000"
 11026      6F6C6F72 
 11026      5F7400
 11027              	.LASF173:
 11028 0d63 4C565F53 		.ascii	"LV_STYLE_TRANSITION\000"
 11028      54594C45 
 11028      5F545241 
 11028      4E534954 
 11028      494F4E00 
 11029              	.LASF62:
 11030 0d77 6765745F 		.ascii	"get_value_cb\000"
 11030      76616C75 
 11030      655F6362 
 11030      00
 11031              	.LASF0:
 11032 0d84 5F5F696E 		.ascii	"__int8_t\000"
 11032      74385F74 
 11032      00
 11033              	.LASF171:
ARM GAS  C:\Users\haske\AppData\Local\Temp\ccb2zsXg.s 			page 217


 11034 0d8d 4C565F53 		.ascii	"LV_STYLE_ANIM_TIME\000"
 11034      54594C45 
 11034      5F414E49 
 11034      4D5F5449 
 11034      4D4500
 11035              	.LASF155:
 11036 0da0 4C565F53 		.ascii	"LV_STYLE_ARC_WIDTH\000"
 11036      54594C45 
 11036      5F415243 
 11036      5F574944 
 11036      544800
 11037              	.LASF46:
 11038 0db3 67726565 		.ascii	"green\000"
 11038      6E00
 11039              	.LASF21:
 11040 0db9 6C6F6E67 		.ascii	"long double\000"
 11040      20646F75 
 11040      626C6500 
 11041              	.LASF165:
 11042 0dc5 4C565F53 		.ascii	"LV_STYLE_TEXT_DECOR\000"
 11042      54594C45 
 11042      5F544558 
 11042      545F4445 
 11042      434F5200 
 11043              	.LASF18:
 11044 0dd9 75696E74 		.ascii	"uint16_t\000"
 11044      31365F74 
 11044      00
 11045              	.LASF48:
 11046 0de2 6C765F63 		.ascii	"lv_color16_t\000"
 11046      6F6C6F72 
 11046      31365F74 
 11046      00
 11047              	.LASF284:
 11048 0def 6C765F73 		.ascii	"lv_style_set_blend_mode\000"
 11048      74796C65 
 11048      5F736574 
 11048      5F626C65 
 11048      6E645F6D 
 11049              	.LASF237:
 11050 0e07 6C765F73 		.ascii	"lv_style_set_bg_img_recolor_opa\000"
 11050      74796C65 
 11050      5F736574 
 11050      5F62675F 
 11050      696D675F 
 11051              	.LASF66:
 11052 0e27 656E645F 		.ascii	"end_value\000"
 11052      76616C75 
 11052      6500
 11053              	.LASF84:
 11054 0e31 6C765F62 		.ascii	"lv_base_dir_t\000"
 11054      6173655F 
 11054      6469725F 
 11054      7400
 11055              	.LASF228:
 11056 0e3f 6C765F73 		.ascii	"lv_style_set_bg_grad_color\000"
 11056      74796C65 
ARM GAS  C:\Users\haske\AppData\Local\Temp\ccb2zsXg.s 			page 218


 11056      5F736574 
 11056      5F62675F 
 11056      67726164 
 11057              	.LASF79:
 11058 0e5a 6C765F61 		.ascii	"lv_anim_start_cb_t\000"
 11058      6E696D5F 
 11058      73746172 
 11058      745F6362 
 11058      5F7400
 11059              	.LASF273:
 11060 0e6d 6C765F73 		.ascii	"lv_style_set_text_decor\000"
 11060      74796C65 
 11060      5F736574 
 11060      5F746578 
 11060      745F6465 
 11061              	.LASF231:
 11062 0e85 6C765F73 		.ascii	"lv_style_set_bg_grad_stop\000"
 11062      74796C65 
 11062      5F736574 
 11062      5F62675F 
 11062      67726164 
 11063              	.LASF115:
 11064 0e9f 4C565F53 		.ascii	"LV_STYLE_PAD_COLUMN\000"
 11064      54594C45 
 11064      5F504144 
 11064      5F434F4C 
 11064      554D4E00 
 11065              	.LASF43:
 11066 0eb3 73697A65 		.ascii	"sizetype\000"
 11066      74797065 
 11066      00
 11067              	.LASF42:
 11068 0ebc 6C765F66 		.ascii	"lv_font_t\000"
 11068      6F6E745F 
 11068      7400
 11069              	.LASF261:
 11070 0ec6 6C765F73 		.ascii	"lv_style_set_line_color\000"
 11070      74796C65 
 11070      5F736574 
 11070      5F6C696E 
 11070      655F636F 
 11071              	.LASF56:
 11072 0ede 6C765F61 		.ascii	"lv_anim_path_cb_t\000"
 11072      6E696D5F 
 11072      70617468 
 11072      5F63625F 
 11072      7400
 11073              	.LASF5:
 11074 0ef0 73686F72 		.ascii	"short int\000"
 11074      7420696E 
 11074      7400
 11075              	.LASF109:
 11076 0efa 4C565F53 		.ascii	"LV_STYLE_RADIUS\000"
 11076      54594C45 
 11076      5F524144 
 11076      49555300 
 11077              	.LASF105:
ARM GAS  C:\Users\haske\AppData\Local\Temp\ccb2zsXg.s 			page 219


 11078 0f0a 4C565F53 		.ascii	"LV_STYLE_X\000"
 11078      54594C45 
 11078      5F5800
 11079              	.LASF50:
 11080 0f15 6C765F6F 		.ascii	"lv_opa_t\000"
 11080      70615F74 
 11080      00
 11081              	.LASF74:
 11082 0f1e 706C6179 		.ascii	"playback_now\000"
 11082      6261636B 
 11082      5F6E6F77 
 11082      00
 11083              	.LASF282:
 11084 0f2b 6C765F73 		.ascii	"lv_style_set_anim_speed\000"
 11084      74796C65 
 11084      5F736574 
 11084      5F616E69 
 11084      6D5F7370 
 11085              	.LASF9:
 11086 0f43 6C6F6E67 		.ascii	"long int\000"
 11086      20696E74 
 11086      00
 11087              	.LASF230:
 11088 0f4c 6C765F73 		.ascii	"lv_style_set_bg_main_stop\000"
 11088      74796C65 
 11088      5F736574 
 11088      5F62675F 
 11088      6D61696E 
 11089              	.LASF208:
 11090 0f66 6C765F73 		.ascii	"lv_style_set_max_height\000"
 11090      74796C65 
 11090      5F736574 
 11090      5F6D6178 
 11090      5F686569 
 11091              	.LASF190:
 11092 0f7e 64656C61 		.ascii	"delay\000"
 11092      7900
 11093              	.LASF80:
 11094 0f84 6C765F61 		.ascii	"lv_anim_get_value_cb_t\000"
 11094      6E696D5F 
 11094      6765745F 
 11094      76616C75 
 11094      655F6362 
 11095              	.LASF285:
 11096 0f9b 6C765F73 		.ascii	"lv_style_set_layout\000"
 11096      74796C65 
 11096      5F736574 
 11096      5F6C6179 
 11096      6F757400 
 11097              	.LASF196:
 11098 0faf 76616C75 		.ascii	"values_and_props\000"
 11098      65735F61 
 11098      6E645F70 
 11098      726F7073 
 11098      00
 11099              	.LASF249:
 11100 0fc0 6C765F73 		.ascii	"lv_style_set_shadow_ofs_x\000"
ARM GAS  C:\Users\haske\AppData\Local\Temp\ccb2zsXg.s 			page 220


 11100      74796C65 
 11100      5F736574 
 11100      5F736861 
 11100      646F775F 
 11101              	.LASF250:
 11102 0fda 6C765F73 		.ascii	"lv_style_set_shadow_ofs_y\000"
 11102      74796C65 
 11102      5F736574 
 11102      5F736861 
 11102      646F775F 
 11103              	.LASF197:
 11104 0ff4 636F6E73 		.ascii	"const_props\000"
 11104      745F7072 
 11104      6F707300 
 11105              	.LASF146:
 11106 1000 4C565F53 		.ascii	"LV_STYLE_IMG_OPA\000"
 11106      54594C45 
 11106      5F494D47 
 11106      5F4F5041 
 11106      00
 11107              	.LASF161:
 11108 1011 4C565F53 		.ascii	"LV_STYLE_TEXT_OPA\000"
 11108      54594C45 
 11108      5F544558 
 11108      545F4F50 
 11108      4100
 11109              	.LASF194:
 11110 1023 6C765F73 		.ascii	"lv_style_const_prop_t\000"
 11110      74796C65 
 11110      5F636F6E 
 11110      73745F70 
 11110      726F705F 
 11111              	.LASF238:
 11112 1039 6C765F73 		.ascii	"lv_style_set_bg_img_tiled\000"
 11112      74796C65 
 11112      5F736574 
 11112      5F62675F 
 11112      696D675F 
 11113              	.LASF45:
 11114 1053 626C7565 		.ascii	"blue\000"
 11114      00
 11115              	.LASF73:
 11116 1058 6561726C 		.ascii	"early_apply\000"
 11116      795F6170 
 11116      706C7900 
 11117              	.LASF151:
 11118 1064 4C565F53 		.ascii	"LV_STYLE_LINE_DASH_GAP\000"
 11118      54594C45 
 11118      5F4C494E 
 11118      455F4441 
 11118      53485F47 
 11119              	.LASF54:
 11120 107b 66696C74 		.ascii	"filter_cb\000"
 11120      65725F63 
 11120      6200
 11121              	.LASF22:
 11122 1085 6C765F63 		.ascii	"lv_coord_t\000"
ARM GAS  C:\Users\haske\AppData\Local\Temp\ccb2zsXg.s 			page 221


 11122      6F6F7264 
 11122      5F7400
 11123              	.LASF163:
 11124 1090 4C565F53 		.ascii	"LV_STYLE_TEXT_LETTER_SPACE\000"
 11124      54594C45 
 11124      5F544558 
 11124      545F4C45 
 11124      54544552 
 11125              	.LASF263:
 11126 10ab 6C765F73 		.ascii	"lv_style_set_arc_width\000"
 11126      74796C65 
 11126      5F736574 
 11126      5F617263 
 11126      5F776964 
 11127              	.LASF1:
 11128 10c2 5F5F7569 		.ascii	"__uint8_t\000"
 11128      6E74385F 
 11128      7400
 11129              	.LASF89:
 11130 10cc 6C765F64 		.ascii	"lv_dither_mode_t\000"
 11130      69746865 
 11130      725F6D6F 
 11130      64655F74 
 11130      00
 11131              	.LASF205:
 11132 10dd 6C765F73 		.ascii	"lv_style_set_max_width\000"
 11132      74796C65 
 11132      5F736574 
 11132      5F6D6178 
 11132      5F776964 
 11133              	.LASF69:
 11134 10f4 706C6179 		.ascii	"playback_delay\000"
 11134      6261636B 
 11134      5F64656C 
 11134      617900
 11135              	.LASF27:
 11136 1103 626F785F 		.ascii	"box_h\000"
 11136      6800
 11137              	.LASF223:
 11138 1109 6C765F73 		.ascii	"lv_style_set_pad_right\000"
 11138      74796C65 
 11138      5F736574 
 11138      5F706164 
 11138      5F726967 
 11139              	.LASF270:
 11140 1120 6C765F73 		.ascii	"lv_style_set_text_font\000"
 11140      74796C65 
 11140      5F736574 
 11140      5F746578 
 11140      745F666F 
 11141              	.LASF103:
 11142 1137 4C565F53 		.ascii	"LV_STYLE_MIN_HEIGHT\000"
 11142      54594C45 
 11142      5F4D494E 
 11142      5F484549 
 11142      47485400 
 11143              	.LASF26:
ARM GAS  C:\Users\haske\AppData\Local\Temp\ccb2zsXg.s 			page 222


 11144 114b 626F785F 		.ascii	"box_w\000"
 11144      7700
 11145              	.LASF68:
 11146 1151 6163745F 		.ascii	"act_time\000"
 11146      74696D65 
 11146      00
 11147              	.LASF11:
 11148 115a 6C6F6E67 		.ascii	"long unsigned int\000"
 11148      20756E73 
 11148      69676E65 
 11148      6420696E 
 11148      7400
 11149              	.LASF180:
 11150 116c 4C565F53 		.ascii	"LV_STYLE_TRANSFORM_ANGLE\000"
 11150      54594C45 
 11150      5F545241 
 11150      4E53464F 
 11150      524D5F41 
 11151              	.LASF162:
 11152 1185 4C565F53 		.ascii	"LV_STYLE_TEXT_FONT\000"
 11152      54594C45 
 11152      5F544558 
 11152      545F464F 
 11152      4E5400
 11153              	.LASF276:
 11154 1198 6C765F73 		.ascii	"lv_style_set_clip_corner\000"
 11154      74796C65 
 11154      5F736574 
 11154      5F636C69 
 11154      705F636F 
 11155              	.LASF19:
 11156 11b1 696E7433 		.ascii	"int32_t\000"
 11156      325F7400 
 11157              	.LASF34:
 11158 11b9 62617365 		.ascii	"base_line\000"
 11158      5F6C696E 
 11158      6500
 11159              	.LASF181:
 11160 11c3 4C565F53 		.ascii	"LV_STYLE_TRANSFORM_PIVOT_X\000"
 11160      54594C45 
 11160      5F545241 
 11160      4E53464F 
 11160      524D5F50 
 11161              	.LASF182:
 11162 11de 4C565F53 		.ascii	"LV_STYLE_TRANSFORM_PIVOT_Y\000"
 11162      54594C45 
 11162      5F545241 
 11162      4E53464F 
 11162      524D5F50 
 11163              	.LASF275:
 11164 11f9 6C765F73 		.ascii	"lv_style_set_radius\000"
 11164      74796C65 
 11164      5F736574 
 11164      5F726164 
 11164      69757300 
 11165              	.LASF244:
 11166 120d 6C765F73 		.ascii	"lv_style_set_outline_width\000"
ARM GAS  C:\Users\haske\AppData\Local\Temp\ccb2zsXg.s 			page 223


 11166      74796C65 
 11166      5F736574 
 11166      5F6F7574 
 11166      6C696E65 
 11167              	.LASF128:
 11168 1228 4C565F53 		.ascii	"LV_STYLE_BG_IMG_RECOLOR\000"
 11168      54594C45 
 11168      5F42475F 
 11168      494D475F 
 11168      5245434F 
 11169              	.LASF3:
 11170 1240 756E7369 		.ascii	"unsigned char\000"
 11170      676E6564 
 11170      20636861 
 11170      7200
 11171              	.LASF10:
 11172 124e 5F5F7569 		.ascii	"__uint32_t\000"
 11172      6E743332 
 11172      5F7400
 11173              	.LASF94:
 11174 1259 73746F70 		.ascii	"stops_count\000"
 11174      735F636F 
 11174      756E7400 
 11175              	.LASF260:
 11176 1265 6C765F73 		.ascii	"lv_style_set_line_rounded\000"
 11176      74796C65 
 11176      5F736574 
 11176      5F6C696E 
 11176      655F726F 
 11177              	.LASF185:
 11178 127f 4C565F53 		.ascii	"LV_STYLE_PROP_ANY\000"
 11178      54594C45 
 11178      5F50524F 
 11178      505F414E 
 11178      5900
 11179              	.LASF32:
 11180 1291 6765745F 		.ascii	"get_glyph_bitmap\000"
 11180      676C7970 
 11180      685F6269 
 11180      746D6170 
 11180      00
 11181              	.LASF264:
 11182 12a2 6C765F73 		.ascii	"lv_style_set_arc_rounded\000"
 11182      74796C65 
 11182      5F736574 
 11182      5F617263 
 11182      5F726F75 
 11183              	.LASF278:
 11184 12bb 6C765F73 		.ascii	"lv_style_set_color_filter_dsc\000"
 11184      74796C65 
 11184      5F736574 
 11184      5F636F6C 
 11184      6F725F66 
 11185              	.LASF202:
 11186 12d9 7374796C 		.ascii	"style\000"
 11186      6500
 11187              	.LASF55:
ARM GAS  C:\Users\haske\AppData\Local\Temp\ccb2zsXg.s 			page 224


 11188 12df 6C765F63 		.ascii	"lv_color_filter_dsc_t\000"
 11188      6F6C6F72 
 11188      5F66696C 
 11188      7465725F 
 11188      6473635F 
 11189              	.LASF72:
 11190 12f5 72657065 		.ascii	"repeat_cnt\000"
 11190      61745F63 
 11190      6E7400
 11191              	.LASF247:
 11192 1300 6C765F73 		.ascii	"lv_style_set_outline_pad\000"
 11192      74796C65 
 11192      5F736574 
 11192      5F6F7574 
 11192      6C696E65 
 11193              	.LASF220:
 11194 1319 6C765F73 		.ascii	"lv_style_set_pad_top\000"
 11194      74796C65 
 11194      5F736574 
 11194      5F706164 
 11194      5F746F70 
 11195              	.LASF144:
 11196 132e 4C565F53 		.ascii	"LV_STYLE_SHADOW_COLOR\000"
 11196      54594C45 
 11196      5F534841 
 11196      444F575F 
 11196      434F4C4F 
 11197              	.LASF117:
 11198 1344 4C565F53 		.ascii	"LV_STYLE_CLIP_CORNER\000"
 11198      54594C45 
 11198      5F434C49 
 11198      505F434F 
 11198      524E4552 
 11199              	.LASF176:
 11200 1359 4C565F53 		.ascii	"LV_STYLE_TRANSFORM_HEIGHT\000"
 11200      54594C45 
 11200      5F545241 
 11200      4E53464F 
 11200      524D5F48 
 11201              	.LASF100:
 11202 1373 4C565F53 		.ascii	"LV_STYLE_MIN_WIDTH\000"
 11202      54594C45 
 11202      5F4D494E 
 11202      5F574944 
 11202      544800
 11203              	.LASF129:
 11204 1386 4C565F53 		.ascii	"LV_STYLE_BG_IMG_RECOLOR_OPA\000"
 11204      54594C45 
 11204      5F42475F 
 11204      494D475F 
 11204      5245434F 
 11205              	.LASF38:
 11206 13a2 66616C6C 		.ascii	"fallback\000"
 11206      6261636B 
 11206      00
 11207              	.LASF277:
 11208 13ab 6C765F73 		.ascii	"lv_style_set_opa\000"
ARM GAS  C:\Users\haske\AppData\Local\Temp\ccb2zsXg.s 			page 225


 11208      74796C65 
 11208      5F736574 
 11208      5F6F7061 
 11208      00
 11209              	.LASF279:
 11210 13bc 6C765F73 		.ascii	"lv_style_set_color_filter_opa\000"
 11210      74796C65 
 11210      5F736574 
 11210      5F636F6C 
 11210      6F725F66 
 11211              	.LASF217:
 11212 13da 6C765F73 		.ascii	"lv_style_set_transform_angle\000"
 11212      74796C65 
 11212      5F736574 
 11212      5F747261 
 11212      6E73666F 
 11213              	.LASF2:
 11214 13f7 7369676E 		.ascii	"signed char\000"
 11214      65642063 
 11214      68617200 
 11215              	.LASF99:
 11216 1403 4C565F53 		.ascii	"LV_STYLE_WIDTH\000"
 11216      54594C45 
 11216      5F574944 
 11216      544800
 11217              	.LASF7:
 11218 1412 73686F72 		.ascii	"short unsigned int\000"
 11218      7420756E 
 11218      7369676E 
 11218      65642069 
 11218      6E7400
 11219              	.LASF61:
 11220 1425 64656C65 		.ascii	"deleted_cb\000"
 11220      7465645F 
 11220      636200
 11221              	.LASF143:
 11222 1430 4C565F53 		.ascii	"LV_STYLE_SHADOW_SPREAD\000"
 11222      54594C45 
 11222      5F534841 
 11222      444F575F 
 11222      53505245 
 11223              	.LASF126:
 11224 1447 4C565F53 		.ascii	"LV_STYLE_BG_IMG_SRC\000"
 11224      54594C45 
 11224      5F42475F 
 11224      494D475F 
 11224      53524300 
 11225              	.LASF167:
 11226 145b 4C565F53 		.ascii	"LV_STYLE_OPA\000"
 11226      54594C45 
 11226      5F4F5041 
 11226      00
 11227              	.LASF248:
 11228 1468 6C765F73 		.ascii	"lv_style_set_shadow_width\000"
 11228      74796C65 
 11228      5F736574 
 11228      5F736861 
ARM GAS  C:\Users\haske\AppData\Local\Temp\ccb2zsXg.s 			page 226


 11228      646F775F 
 11229              	.LASF30:
 11230 1482 69735F70 		.ascii	"is_placeholder\000"
 11230      6C616365 
 11230      686F6C64 
 11230      657200
 11231              	.LASF130:
 11232 1491 4C565F53 		.ascii	"LV_STYLE_BG_IMG_TILED\000"
 11232      54594C45 
 11232      5F42475F 
 11232      494D475F 
 11232      54494C45 
 11233              	.LASF137:
 11234 14a7 4C565F53 		.ascii	"LV_STYLE_OUTLINE_COLOR\000"
 11234      54594C45 
 11234      5F4F5554 
 11234      4C494E45 
 11234      5F434F4C 
 11235              	.LASF271:
 11236 14be 6C765F73 		.ascii	"lv_style_set_text_letter_space\000"
 11236      74796C65 
 11236      5F736574 
 11236      5F746578 
 11236      745F6C65 
 11237              	.LASF187:
 11238 14dd 6C765F73 		.ascii	"lv_style_prop_t\000"
 11238      74796C65 
 11238      5F70726F 
 11238      705F7400 
 11239              	.LASF87:
 11240 14ed 6C765F62 		.ascii	"lv_border_side_t\000"
 11240      6F726465 
 11240      725F7369 
 11240      64655F74 
 11240      00
 11241              	.LASF258:
 11242 14fe 6C765F73 		.ascii	"lv_style_set_line_dash_width\000"
 11242      74796C65 
 11242      5F736574 
 11242      5F6C696E 
 11242      655F6461 
 11243              	.LASF119:
 11244 151b 4C565F53 		.ascii	"LV_STYLE_BG_OPA\000"
 11244      54594C45 
 11244      5F42475F 
 11244      4F504100 
 11245              	.LASF209:
 11246 152b 6C765F73 		.ascii	"lv_style_set_x\000"
 11246      74796C65 
 11246      5F736574 
 11246      5F7800
 11247              	.LASF210:
 11248 153a 6C765F73 		.ascii	"lv_style_set_y\000"
 11248      74796C65 
 11248      5F736574 
 11248      5F7900
 11249              	.LASF174:
ARM GAS  C:\Users\haske\AppData\Local\Temp\ccb2zsXg.s 			page 227


 11250 1549 4C565F53 		.ascii	"LV_STYLE_BLEND_MODE\000"
 11250      54594C45 
 11250      5F424C45 
 11250      4E445F4D 
 11250      4F444500 
 11251              	.LASF201:
 11252 155d 6C765F73 		.ascii	"lv_style_t\000"
 11252      74796C65 
 11252      5F7400
 11253              	.LASF211:
 11254 1568 6C765F73 		.ascii	"lv_style_set_align\000"
 11254      74796C65 
 11254      5F736574 
 11254      5F616C69 
 11254      676E00
 11255              	.LASF214:
 11256 157b 6C765F73 		.ascii	"lv_style_set_translate_x\000"
 11256      74796C65 
 11256      5F736574 
 11256      5F747261 
 11256      6E736C61 
 11257              	.LASF215:
 11258 1594 6C765F73 		.ascii	"lv_style_set_translate_y\000"
 11258      74796C65 
 11258      5F736574 
 11258      5F747261 
 11258      6E736C61 
 11259              	.LASF25:
 11260 15ad 6164765F 		.ascii	"adv_w\000"
 11260      7700
 11261              	.LASF86:
 11262 15b3 6C765F74 		.ascii	"lv_text_decor_t\000"
 11262      6578745F 
 11262      6465636F 
 11262      725F7400 
 11263              		.ident	"GCC: (GNU Tools for ARM Embedded Processors) 5.4.1 20160609 (release) [ARM/embedded-5-bran
