ARM GAS  C:\Users\haske\AppData\Local\Temp\cc1ymag8.s 			page 1


   1              		.syntax unified
   2              		.cpu cortex-m0plus
   3              		.fpu softvfp
   4              		.eabi_attribute 20, 1
   5              		.eabi_attribute 21, 1
   6              		.eabi_attribute 23, 3
   7              		.eabi_attribute 24, 1
   8              		.eabi_attribute 25, 1
   9              		.eabi_attribute 26, 1
  10              		.eabi_attribute 30, 1
  11              		.eabi_attribute 34, 0
  12              		.eabi_attribute 18, 4
  13              		.thumb
  14              		.syntax unified
  15              		.file	"lv_slider.c"
  16              		.text
  17              	.Ltext0:
  18              		.cfi_sections	.debug_frame
  19              		.section	.text.is_slider_horizontal,"ax",%progbits
  20              		.align	2
  21              		.code	16
  22              		.thumb_func
  23              		.type	is_slider_horizontal, %function
  24              	is_slider_horizontal:
  25              	.LFB180:
  26              		.file 1 "..\\..\\..\\arduinoLCD\\test\\Pain Drain\\libraries\\lvgl\\src\\widgets\\lv_slider.c"
   1:..\..\..\arduinoLCD\test\Pain Drain\libraries\lvgl\src\widgets/lv_slider.c **** /**
   2:..\..\..\arduinoLCD\test\Pain Drain\libraries\lvgl\src\widgets/lv_slider.c ****  * @file lv_slider.c
   3:..\..\..\arduinoLCD\test\Pain Drain\libraries\lvgl\src\widgets/lv_slider.c ****  *
   4:..\..\..\arduinoLCD\test\Pain Drain\libraries\lvgl\src\widgets/lv_slider.c ****  */
   5:..\..\..\arduinoLCD\test\Pain Drain\libraries\lvgl\src\widgets/lv_slider.c **** 
   6:..\..\..\arduinoLCD\test\Pain Drain\libraries\lvgl\src\widgets/lv_slider.c **** /*********************
   7:..\..\..\arduinoLCD\test\Pain Drain\libraries\lvgl\src\widgets/lv_slider.c ****  *      INCLUDES
   8:..\..\..\arduinoLCD\test\Pain Drain\libraries\lvgl\src\widgets/lv_slider.c ****  *********************/
   9:..\..\..\arduinoLCD\test\Pain Drain\libraries\lvgl\src\widgets/lv_slider.c **** #include "lv_slider.h"
  10:..\..\..\arduinoLCD\test\Pain Drain\libraries\lvgl\src\widgets/lv_slider.c **** #if LV_USE_SLIDER != 0
  11:..\..\..\arduinoLCD\test\Pain Drain\libraries\lvgl\src\widgets/lv_slider.c **** 
  12:..\..\..\arduinoLCD\test\Pain Drain\libraries\lvgl\src\widgets/lv_slider.c **** #include "../misc/lv_assert.h"
  13:..\..\..\arduinoLCD\test\Pain Drain\libraries\lvgl\src\widgets/lv_slider.c **** #include "../core/lv_group.h"
  14:..\..\..\arduinoLCD\test\Pain Drain\libraries\lvgl\src\widgets/lv_slider.c **** #include "../core/lv_indev.h"
  15:..\..\..\arduinoLCD\test\Pain Drain\libraries\lvgl\src\widgets/lv_slider.c **** #include "../draw/lv_draw.h"
  16:..\..\..\arduinoLCD\test\Pain Drain\libraries\lvgl\src\widgets/lv_slider.c **** #include "../misc/lv_math.h"
  17:..\..\..\arduinoLCD\test\Pain Drain\libraries\lvgl\src\widgets/lv_slider.c **** #include "../core/lv_disp.h"
  18:..\..\..\arduinoLCD\test\Pain Drain\libraries\lvgl\src\widgets/lv_slider.c **** #include "lv_img.h"
  19:..\..\..\arduinoLCD\test\Pain Drain\libraries\lvgl\src\widgets/lv_slider.c **** 
  20:..\..\..\arduinoLCD\test\Pain Drain\libraries\lvgl\src\widgets/lv_slider.c **** /*********************
  21:..\..\..\arduinoLCD\test\Pain Drain\libraries\lvgl\src\widgets/lv_slider.c ****  *      DEFINES
  22:..\..\..\arduinoLCD\test\Pain Drain\libraries\lvgl\src\widgets/lv_slider.c ****  *********************/
  23:..\..\..\arduinoLCD\test\Pain Drain\libraries\lvgl\src\widgets/lv_slider.c **** #define MY_CLASS &lv_slider_class
  24:..\..\..\arduinoLCD\test\Pain Drain\libraries\lvgl\src\widgets/lv_slider.c **** 
  25:..\..\..\arduinoLCD\test\Pain Drain\libraries\lvgl\src\widgets/lv_slider.c **** #define LV_SLIDER_KNOB_COORD(is_rtl, area) (is_rtl ? area.x1 : area.x2)
  26:..\..\..\arduinoLCD\test\Pain Drain\libraries\lvgl\src\widgets/lv_slider.c **** 
  27:..\..\..\arduinoLCD\test\Pain Drain\libraries\lvgl\src\widgets/lv_slider.c **** /**********************
  28:..\..\..\arduinoLCD\test\Pain Drain\libraries\lvgl\src\widgets/lv_slider.c ****  *      TYPEDEFS
  29:..\..\..\arduinoLCD\test\Pain Drain\libraries\lvgl\src\widgets/lv_slider.c ****  **********************/
  30:..\..\..\arduinoLCD\test\Pain Drain\libraries\lvgl\src\widgets/lv_slider.c **** 
  31:..\..\..\arduinoLCD\test\Pain Drain\libraries\lvgl\src\widgets/lv_slider.c **** /**********************
ARM GAS  C:\Users\haske\AppData\Local\Temp\cc1ymag8.s 			page 2


  32:..\..\..\arduinoLCD\test\Pain Drain\libraries\lvgl\src\widgets/lv_slider.c ****  *  STATIC PROTOTYPES
  33:..\..\..\arduinoLCD\test\Pain Drain\libraries\lvgl\src\widgets/lv_slider.c ****  **********************/
  34:..\..\..\arduinoLCD\test\Pain Drain\libraries\lvgl\src\widgets/lv_slider.c **** static void lv_slider_constructor(const lv_obj_class_t * class_p, lv_obj_t * obj);
  35:..\..\..\arduinoLCD\test\Pain Drain\libraries\lvgl\src\widgets/lv_slider.c **** static void lv_slider_event(const lv_obj_class_t * class_p, lv_event_t * e);
  36:..\..\..\arduinoLCD\test\Pain Drain\libraries\lvgl\src\widgets/lv_slider.c **** static void position_knob(lv_obj_t * obj, lv_area_t * knob_area, const lv_coord_t knob_size, const 
  37:..\..\..\arduinoLCD\test\Pain Drain\libraries\lvgl\src\widgets/lv_slider.c **** static void draw_knob(lv_event_t * e);
  38:..\..\..\arduinoLCD\test\Pain Drain\libraries\lvgl\src\widgets/lv_slider.c **** static bool is_slider_horizontal(lv_obj_t * obj);
  39:..\..\..\arduinoLCD\test\Pain Drain\libraries\lvgl\src\widgets/lv_slider.c **** 
  40:..\..\..\arduinoLCD\test\Pain Drain\libraries\lvgl\src\widgets/lv_slider.c **** /**********************
  41:..\..\..\arduinoLCD\test\Pain Drain\libraries\lvgl\src\widgets/lv_slider.c ****  *  STATIC VARIABLES
  42:..\..\..\arduinoLCD\test\Pain Drain\libraries\lvgl\src\widgets/lv_slider.c ****  **********************/
  43:..\..\..\arduinoLCD\test\Pain Drain\libraries\lvgl\src\widgets/lv_slider.c **** const lv_obj_class_t lv_slider_class = {
  44:..\..\..\arduinoLCD\test\Pain Drain\libraries\lvgl\src\widgets/lv_slider.c ****     .constructor_cb = lv_slider_constructor,
  45:..\..\..\arduinoLCD\test\Pain Drain\libraries\lvgl\src\widgets/lv_slider.c ****     .event_cb = lv_slider_event,
  46:..\..\..\arduinoLCD\test\Pain Drain\libraries\lvgl\src\widgets/lv_slider.c ****     .editable = LV_OBJ_CLASS_EDITABLE_TRUE,
  47:..\..\..\arduinoLCD\test\Pain Drain\libraries\lvgl\src\widgets/lv_slider.c ****     .group_def = LV_OBJ_CLASS_GROUP_DEF_TRUE,
  48:..\..\..\arduinoLCD\test\Pain Drain\libraries\lvgl\src\widgets/lv_slider.c ****     .instance_size = sizeof(lv_slider_t),
  49:..\..\..\arduinoLCD\test\Pain Drain\libraries\lvgl\src\widgets/lv_slider.c ****     .base_class = &lv_bar_class
  50:..\..\..\arduinoLCD\test\Pain Drain\libraries\lvgl\src\widgets/lv_slider.c **** };
  51:..\..\..\arduinoLCD\test\Pain Drain\libraries\lvgl\src\widgets/lv_slider.c **** 
  52:..\..\..\arduinoLCD\test\Pain Drain\libraries\lvgl\src\widgets/lv_slider.c **** /**********************
  53:..\..\..\arduinoLCD\test\Pain Drain\libraries\lvgl\src\widgets/lv_slider.c ****  *      MACROS
  54:..\..\..\arduinoLCD\test\Pain Drain\libraries\lvgl\src\widgets/lv_slider.c ****  **********************/
  55:..\..\..\arduinoLCD\test\Pain Drain\libraries\lvgl\src\widgets/lv_slider.c **** 
  56:..\..\..\arduinoLCD\test\Pain Drain\libraries\lvgl\src\widgets/lv_slider.c **** /**********************
  57:..\..\..\arduinoLCD\test\Pain Drain\libraries\lvgl\src\widgets/lv_slider.c ****  *   GLOBAL FUNCTIONS
  58:..\..\..\arduinoLCD\test\Pain Drain\libraries\lvgl\src\widgets/lv_slider.c ****  **********************/
  59:..\..\..\arduinoLCD\test\Pain Drain\libraries\lvgl\src\widgets/lv_slider.c **** 
  60:..\..\..\arduinoLCD\test\Pain Drain\libraries\lvgl\src\widgets/lv_slider.c **** lv_obj_t * lv_slider_create(lv_obj_t * parent)
  61:..\..\..\arduinoLCD\test\Pain Drain\libraries\lvgl\src\widgets/lv_slider.c **** {
  62:..\..\..\arduinoLCD\test\Pain Drain\libraries\lvgl\src\widgets/lv_slider.c ****     LV_LOG_INFO("begin");
  63:..\..\..\arduinoLCD\test\Pain Drain\libraries\lvgl\src\widgets/lv_slider.c ****     lv_obj_t * obj = lv_obj_class_create_obj(MY_CLASS, parent);
  64:..\..\..\arduinoLCD\test\Pain Drain\libraries\lvgl\src\widgets/lv_slider.c ****     lv_obj_class_init_obj(obj);
  65:..\..\..\arduinoLCD\test\Pain Drain\libraries\lvgl\src\widgets/lv_slider.c ****     return obj;
  66:..\..\..\arduinoLCD\test\Pain Drain\libraries\lvgl\src\widgets/lv_slider.c **** }
  67:..\..\..\arduinoLCD\test\Pain Drain\libraries\lvgl\src\widgets/lv_slider.c **** 
  68:..\..\..\arduinoLCD\test\Pain Drain\libraries\lvgl\src\widgets/lv_slider.c **** bool lv_slider_is_dragged(const lv_obj_t * obj)
  69:..\..\..\arduinoLCD\test\Pain Drain\libraries\lvgl\src\widgets/lv_slider.c **** {
  70:..\..\..\arduinoLCD\test\Pain Drain\libraries\lvgl\src\widgets/lv_slider.c ****     LV_ASSERT_OBJ(obj, MY_CLASS);
  71:..\..\..\arduinoLCD\test\Pain Drain\libraries\lvgl\src\widgets/lv_slider.c ****     lv_slider_t * slider = (lv_slider_t *)obj;
  72:..\..\..\arduinoLCD\test\Pain Drain\libraries\lvgl\src\widgets/lv_slider.c **** 
  73:..\..\..\arduinoLCD\test\Pain Drain\libraries\lvgl\src\widgets/lv_slider.c ****     return slider->dragging ? true : false;
  74:..\..\..\arduinoLCD\test\Pain Drain\libraries\lvgl\src\widgets/lv_slider.c **** }
  75:..\..\..\arduinoLCD\test\Pain Drain\libraries\lvgl\src\widgets/lv_slider.c **** 
  76:..\..\..\arduinoLCD\test\Pain Drain\libraries\lvgl\src\widgets/lv_slider.c **** /**********************
  77:..\..\..\arduinoLCD\test\Pain Drain\libraries\lvgl\src\widgets/lv_slider.c ****  *   STATIC FUNCTIONS
  78:..\..\..\arduinoLCD\test\Pain Drain\libraries\lvgl\src\widgets/lv_slider.c ****  **********************/
  79:..\..\..\arduinoLCD\test\Pain Drain\libraries\lvgl\src\widgets/lv_slider.c **** 
  80:..\..\..\arduinoLCD\test\Pain Drain\libraries\lvgl\src\widgets/lv_slider.c **** static void lv_slider_constructor(const lv_obj_class_t * class_p, lv_obj_t * obj)
  81:..\..\..\arduinoLCD\test\Pain Drain\libraries\lvgl\src\widgets/lv_slider.c **** {
  82:..\..\..\arduinoLCD\test\Pain Drain\libraries\lvgl\src\widgets/lv_slider.c ****     LV_UNUSED(class_p);
  83:..\..\..\arduinoLCD\test\Pain Drain\libraries\lvgl\src\widgets/lv_slider.c ****     lv_slider_t * slider = (lv_slider_t *)obj;
  84:..\..\..\arduinoLCD\test\Pain Drain\libraries\lvgl\src\widgets/lv_slider.c **** 
  85:..\..\..\arduinoLCD\test\Pain Drain\libraries\lvgl\src\widgets/lv_slider.c ****     /*Initialize the allocated 'slider'*/
  86:..\..\..\arduinoLCD\test\Pain Drain\libraries\lvgl\src\widgets/lv_slider.c ****     slider->value_to_set = NULL;
  87:..\..\..\arduinoLCD\test\Pain Drain\libraries\lvgl\src\widgets/lv_slider.c ****     slider->dragging = 0U;
  88:..\..\..\arduinoLCD\test\Pain Drain\libraries\lvgl\src\widgets/lv_slider.c ****     slider->left_knob_focus = 0U;
ARM GAS  C:\Users\haske\AppData\Local\Temp\cc1ymag8.s 			page 3


  89:..\..\..\arduinoLCD\test\Pain Drain\libraries\lvgl\src\widgets/lv_slider.c **** 
  90:..\..\..\arduinoLCD\test\Pain Drain\libraries\lvgl\src\widgets/lv_slider.c ****     lv_obj_clear_flag(obj, LV_OBJ_FLAG_SCROLL_CHAIN);
  91:..\..\..\arduinoLCD\test\Pain Drain\libraries\lvgl\src\widgets/lv_slider.c ****     lv_obj_clear_flag(obj, LV_OBJ_FLAG_SCROLLABLE);
  92:..\..\..\arduinoLCD\test\Pain Drain\libraries\lvgl\src\widgets/lv_slider.c ****     lv_obj_set_ext_click_area(obj, LV_DPX(8));
  93:..\..\..\arduinoLCD\test\Pain Drain\libraries\lvgl\src\widgets/lv_slider.c **** }
  94:..\..\..\arduinoLCD\test\Pain Drain\libraries\lvgl\src\widgets/lv_slider.c **** 
  95:..\..\..\arduinoLCD\test\Pain Drain\libraries\lvgl\src\widgets/lv_slider.c **** static void lv_slider_event(const lv_obj_class_t * class_p, lv_event_t * e)
  96:..\..\..\arduinoLCD\test\Pain Drain\libraries\lvgl\src\widgets/lv_slider.c **** {
  97:..\..\..\arduinoLCD\test\Pain Drain\libraries\lvgl\src\widgets/lv_slider.c ****     LV_UNUSED(class_p);
  98:..\..\..\arduinoLCD\test\Pain Drain\libraries\lvgl\src\widgets/lv_slider.c **** 
  99:..\..\..\arduinoLCD\test\Pain Drain\libraries\lvgl\src\widgets/lv_slider.c ****     lv_res_t res;
 100:..\..\..\arduinoLCD\test\Pain Drain\libraries\lvgl\src\widgets/lv_slider.c **** 
 101:..\..\..\arduinoLCD\test\Pain Drain\libraries\lvgl\src\widgets/lv_slider.c ****     /*Call the ancestor's event handler*/
 102:..\..\..\arduinoLCD\test\Pain Drain\libraries\lvgl\src\widgets/lv_slider.c ****     res = lv_obj_event_base(MY_CLASS, e);
 103:..\..\..\arduinoLCD\test\Pain Drain\libraries\lvgl\src\widgets/lv_slider.c ****     if(res != LV_RES_OK) return;
 104:..\..\..\arduinoLCD\test\Pain Drain\libraries\lvgl\src\widgets/lv_slider.c **** 
 105:..\..\..\arduinoLCD\test\Pain Drain\libraries\lvgl\src\widgets/lv_slider.c ****     lv_event_code_t code = lv_event_get_code(e);
 106:..\..\..\arduinoLCD\test\Pain Drain\libraries\lvgl\src\widgets/lv_slider.c ****     lv_obj_t * obj = lv_event_get_target(e);
 107:..\..\..\arduinoLCD\test\Pain Drain\libraries\lvgl\src\widgets/lv_slider.c ****     lv_slider_t * slider = (lv_slider_t *)obj;
 108:..\..\..\arduinoLCD\test\Pain Drain\libraries\lvgl\src\widgets/lv_slider.c ****     lv_slider_mode_t type = lv_slider_get_mode(obj);
 109:..\..\..\arduinoLCD\test\Pain Drain\libraries\lvgl\src\widgets/lv_slider.c **** 
 110:..\..\..\arduinoLCD\test\Pain Drain\libraries\lvgl\src\widgets/lv_slider.c ****     /*Advanced hit testing: react only on dragging the knob(s)*/
 111:..\..\..\arduinoLCD\test\Pain Drain\libraries\lvgl\src\widgets/lv_slider.c ****     if(code == LV_EVENT_HIT_TEST) {
 112:..\..\..\arduinoLCD\test\Pain Drain\libraries\lvgl\src\widgets/lv_slider.c ****         lv_hit_test_info_t * info = lv_event_get_param(e);
 113:..\..\..\arduinoLCD\test\Pain Drain\libraries\lvgl\src\widgets/lv_slider.c ****         lv_coord_t ext_click_area = obj->spec_attr ? obj->spec_attr->ext_click_pad : 0;
 114:..\..\..\arduinoLCD\test\Pain Drain\libraries\lvgl\src\widgets/lv_slider.c **** 
 115:..\..\..\arduinoLCD\test\Pain Drain\libraries\lvgl\src\widgets/lv_slider.c ****         /*Ordinary slider: was the knob area hit?*/
 116:..\..\..\arduinoLCD\test\Pain Drain\libraries\lvgl\src\widgets/lv_slider.c ****         lv_area_t a;
 117:..\..\..\arduinoLCD\test\Pain Drain\libraries\lvgl\src\widgets/lv_slider.c ****         lv_area_copy(&a, &slider->right_knob_area);
 118:..\..\..\arduinoLCD\test\Pain Drain\libraries\lvgl\src\widgets/lv_slider.c ****         lv_area_increase(&a, ext_click_area, ext_click_area);
 119:..\..\..\arduinoLCD\test\Pain Drain\libraries\lvgl\src\widgets/lv_slider.c ****         info->res = _lv_area_is_point_on(&a, info->point, 0);
 120:..\..\..\arduinoLCD\test\Pain Drain\libraries\lvgl\src\widgets/lv_slider.c **** 
 121:..\..\..\arduinoLCD\test\Pain Drain\libraries\lvgl\src\widgets/lv_slider.c ****         /*There's still a chance that there is a hit if there is another knob*/
 122:..\..\..\arduinoLCD\test\Pain Drain\libraries\lvgl\src\widgets/lv_slider.c ****         if((info->res == false) && (type == LV_SLIDER_MODE_RANGE)) {
 123:..\..\..\arduinoLCD\test\Pain Drain\libraries\lvgl\src\widgets/lv_slider.c ****             lv_area_copy(&a, &slider->left_knob_area);
 124:..\..\..\arduinoLCD\test\Pain Drain\libraries\lvgl\src\widgets/lv_slider.c ****             lv_area_increase(&a, ext_click_area, ext_click_area);
 125:..\..\..\arduinoLCD\test\Pain Drain\libraries\lvgl\src\widgets/lv_slider.c ****             info->res = _lv_area_is_point_on(&a, info->point, 0);
 126:..\..\..\arduinoLCD\test\Pain Drain\libraries\lvgl\src\widgets/lv_slider.c ****         }
 127:..\..\..\arduinoLCD\test\Pain Drain\libraries\lvgl\src\widgets/lv_slider.c ****     }
 128:..\..\..\arduinoLCD\test\Pain Drain\libraries\lvgl\src\widgets/lv_slider.c ****     else if(code == LV_EVENT_PRESSED) {
 129:..\..\..\arduinoLCD\test\Pain Drain\libraries\lvgl\src\widgets/lv_slider.c ****         lv_obj_invalidate(obj);
 130:..\..\..\arduinoLCD\test\Pain Drain\libraries\lvgl\src\widgets/lv_slider.c **** 
 131:..\..\..\arduinoLCD\test\Pain Drain\libraries\lvgl\src\widgets/lv_slider.c ****         lv_point_t p;
 132:..\..\..\arduinoLCD\test\Pain Drain\libraries\lvgl\src\widgets/lv_slider.c ****         slider->dragging = true;
 133:..\..\..\arduinoLCD\test\Pain Drain\libraries\lvgl\src\widgets/lv_slider.c ****         if(type == LV_SLIDER_MODE_NORMAL || type == LV_SLIDER_MODE_SYMMETRICAL) {
 134:..\..\..\arduinoLCD\test\Pain Drain\libraries\lvgl\src\widgets/lv_slider.c ****             slider->value_to_set = &slider->bar.cur_value;
 135:..\..\..\arduinoLCD\test\Pain Drain\libraries\lvgl\src\widgets/lv_slider.c ****         }
 136:..\..\..\arduinoLCD\test\Pain Drain\libraries\lvgl\src\widgets/lv_slider.c ****         else if(type == LV_SLIDER_MODE_RANGE) {
 137:..\..\..\arduinoLCD\test\Pain Drain\libraries\lvgl\src\widgets/lv_slider.c ****             lv_indev_get_point(lv_indev_get_act(), &p);
 138:..\..\..\arduinoLCD\test\Pain Drain\libraries\lvgl\src\widgets/lv_slider.c ****             bool hor = lv_obj_get_width(obj) >= lv_obj_get_height(obj);
 139:..\..\..\arduinoLCD\test\Pain Drain\libraries\lvgl\src\widgets/lv_slider.c ****             lv_base_dir_t base_dir = lv_obj_get_style_base_dir(obj, LV_PART_MAIN);
 140:..\..\..\arduinoLCD\test\Pain Drain\libraries\lvgl\src\widgets/lv_slider.c **** 
 141:..\..\..\arduinoLCD\test\Pain Drain\libraries\lvgl\src\widgets/lv_slider.c ****             lv_coord_t dist_left, dist_right;
 142:..\..\..\arduinoLCD\test\Pain Drain\libraries\lvgl\src\widgets/lv_slider.c ****             if(hor) {
 143:..\..\..\arduinoLCD\test\Pain Drain\libraries\lvgl\src\widgets/lv_slider.c ****                 if((base_dir != LV_BASE_DIR_RTL && p.x > slider->right_knob_area.x2) || (base_dir =
 144:..\..\..\arduinoLCD\test\Pain Drain\libraries\lvgl\src\widgets/lv_slider.c ****                                                                                          p.x < slid
 145:..\..\..\arduinoLCD\test\Pain Drain\libraries\lvgl\src\widgets/lv_slider.c ****                     slider->value_to_set = &slider->bar.cur_value;
ARM GAS  C:\Users\haske\AppData\Local\Temp\cc1ymag8.s 			page 4


 146:..\..\..\arduinoLCD\test\Pain Drain\libraries\lvgl\src\widgets/lv_slider.c ****                 }
 147:..\..\..\arduinoLCD\test\Pain Drain\libraries\lvgl\src\widgets/lv_slider.c ****                 else if((base_dir != LV_BASE_DIR_RTL && p.x < slider->left_knob_area.x1) || (base_d
 148:..\..\..\arduinoLCD\test\Pain Drain\libraries\lvgl\src\widgets/lv_slider.c ****                                                                                              p.x > 
 149:..\..\..\arduinoLCD\test\Pain Drain\libraries\lvgl\src\widgets/lv_slider.c ****                     slider->value_to_set = &slider->bar.start_value;
 150:..\..\..\arduinoLCD\test\Pain Drain\libraries\lvgl\src\widgets/lv_slider.c ****                 }
 151:..\..\..\arduinoLCD\test\Pain Drain\libraries\lvgl\src\widgets/lv_slider.c ****                 else {
 152:..\..\..\arduinoLCD\test\Pain Drain\libraries\lvgl\src\widgets/lv_slider.c ****                     /*Calculate the distance from each knob*/
 153:..\..\..\arduinoLCD\test\Pain Drain\libraries\lvgl\src\widgets/lv_slider.c ****                     dist_left = LV_ABS((slider->left_knob_area.x1 + (slider->left_knob_area.x2 - sl
 154:..\..\..\arduinoLCD\test\Pain Drain\libraries\lvgl\src\widgets/lv_slider.c ****                     dist_right = LV_ABS((slider->right_knob_area.x1 + (slider->right_knob_area.x2 -
 155:..\..\..\arduinoLCD\test\Pain Drain\libraries\lvgl\src\widgets/lv_slider.c **** 
 156:..\..\..\arduinoLCD\test\Pain Drain\libraries\lvgl\src\widgets/lv_slider.c ****                     /*Use whichever one is closer*/
 157:..\..\..\arduinoLCD\test\Pain Drain\libraries\lvgl\src\widgets/lv_slider.c ****                     if(dist_right < dist_left) {
 158:..\..\..\arduinoLCD\test\Pain Drain\libraries\lvgl\src\widgets/lv_slider.c ****                         slider->value_to_set = &slider->bar.cur_value;
 159:..\..\..\arduinoLCD\test\Pain Drain\libraries\lvgl\src\widgets/lv_slider.c ****                         slider->left_knob_focus = 0;
 160:..\..\..\arduinoLCD\test\Pain Drain\libraries\lvgl\src\widgets/lv_slider.c ****                     }
 161:..\..\..\arduinoLCD\test\Pain Drain\libraries\lvgl\src\widgets/lv_slider.c ****                     else {
 162:..\..\..\arduinoLCD\test\Pain Drain\libraries\lvgl\src\widgets/lv_slider.c ****                         slider->value_to_set = &slider->bar.start_value;
 163:..\..\..\arduinoLCD\test\Pain Drain\libraries\lvgl\src\widgets/lv_slider.c ****                         slider->left_knob_focus = 1;
 164:..\..\..\arduinoLCD\test\Pain Drain\libraries\lvgl\src\widgets/lv_slider.c ****                     }
 165:..\..\..\arduinoLCD\test\Pain Drain\libraries\lvgl\src\widgets/lv_slider.c ****                 }
 166:..\..\..\arduinoLCD\test\Pain Drain\libraries\lvgl\src\widgets/lv_slider.c ****             }
 167:..\..\..\arduinoLCD\test\Pain Drain\libraries\lvgl\src\widgets/lv_slider.c ****             else {
 168:..\..\..\arduinoLCD\test\Pain Drain\libraries\lvgl\src\widgets/lv_slider.c ****                 if(p.y < slider->right_knob_area.y1) {
 169:..\..\..\arduinoLCD\test\Pain Drain\libraries\lvgl\src\widgets/lv_slider.c ****                     slider->value_to_set = &slider->bar.cur_value;
 170:..\..\..\arduinoLCD\test\Pain Drain\libraries\lvgl\src\widgets/lv_slider.c ****                 }
 171:..\..\..\arduinoLCD\test\Pain Drain\libraries\lvgl\src\widgets/lv_slider.c ****                 else if(p.y > slider->left_knob_area.y2) {
 172:..\..\..\arduinoLCD\test\Pain Drain\libraries\lvgl\src\widgets/lv_slider.c ****                     slider->value_to_set = &slider->bar.start_value;
 173:..\..\..\arduinoLCD\test\Pain Drain\libraries\lvgl\src\widgets/lv_slider.c ****                 }
 174:..\..\..\arduinoLCD\test\Pain Drain\libraries\lvgl\src\widgets/lv_slider.c ****                 else {
 175:..\..\..\arduinoLCD\test\Pain Drain\libraries\lvgl\src\widgets/lv_slider.c ****                     /*Calculate the distance from each knob*/
 176:..\..\..\arduinoLCD\test\Pain Drain\libraries\lvgl\src\widgets/lv_slider.c ****                     dist_left = LV_ABS((slider->left_knob_area.y1 + (slider->left_knob_area.y2 - sl
 177:..\..\..\arduinoLCD\test\Pain Drain\libraries\lvgl\src\widgets/lv_slider.c ****                     dist_right = LV_ABS((slider->right_knob_area.y1 + (slider->right_knob_area.y2 -
 178:..\..\..\arduinoLCD\test\Pain Drain\libraries\lvgl\src\widgets/lv_slider.c **** 
 179:..\..\..\arduinoLCD\test\Pain Drain\libraries\lvgl\src\widgets/lv_slider.c ****                     /*Use whichever one is closer*/
 180:..\..\..\arduinoLCD\test\Pain Drain\libraries\lvgl\src\widgets/lv_slider.c ****                     if(dist_right < dist_left) {
 181:..\..\..\arduinoLCD\test\Pain Drain\libraries\lvgl\src\widgets/lv_slider.c ****                         slider->value_to_set = &slider->bar.cur_value;
 182:..\..\..\arduinoLCD\test\Pain Drain\libraries\lvgl\src\widgets/lv_slider.c ****                         slider->left_knob_focus = 0;
 183:..\..\..\arduinoLCD\test\Pain Drain\libraries\lvgl\src\widgets/lv_slider.c ****                     }
 184:..\..\..\arduinoLCD\test\Pain Drain\libraries\lvgl\src\widgets/lv_slider.c ****                     else {
 185:..\..\..\arduinoLCD\test\Pain Drain\libraries\lvgl\src\widgets/lv_slider.c ****                         slider->value_to_set = &slider->bar.start_value;
 186:..\..\..\arduinoLCD\test\Pain Drain\libraries\lvgl\src\widgets/lv_slider.c ****                         slider->left_knob_focus = 1;
 187:..\..\..\arduinoLCD\test\Pain Drain\libraries\lvgl\src\widgets/lv_slider.c ****                     }
 188:..\..\..\arduinoLCD\test\Pain Drain\libraries\lvgl\src\widgets/lv_slider.c ****                 }
 189:..\..\..\arduinoLCD\test\Pain Drain\libraries\lvgl\src\widgets/lv_slider.c ****             }
 190:..\..\..\arduinoLCD\test\Pain Drain\libraries\lvgl\src\widgets/lv_slider.c ****         }
 191:..\..\..\arduinoLCD\test\Pain Drain\libraries\lvgl\src\widgets/lv_slider.c ****     }
 192:..\..\..\arduinoLCD\test\Pain Drain\libraries\lvgl\src\widgets/lv_slider.c ****     else if(code == LV_EVENT_PRESSING && slider->value_to_set != NULL) {
 193:..\..\..\arduinoLCD\test\Pain Drain\libraries\lvgl\src\widgets/lv_slider.c ****         lv_indev_t * indev = lv_indev_get_act();
 194:..\..\..\arduinoLCD\test\Pain Drain\libraries\lvgl\src\widgets/lv_slider.c ****         if(lv_indev_get_type(indev) != LV_INDEV_TYPE_POINTER) return;
 195:..\..\..\arduinoLCD\test\Pain Drain\libraries\lvgl\src\widgets/lv_slider.c **** 
 196:..\..\..\arduinoLCD\test\Pain Drain\libraries\lvgl\src\widgets/lv_slider.c ****         lv_point_t p;
 197:..\..\..\arduinoLCD\test\Pain Drain\libraries\lvgl\src\widgets/lv_slider.c ****         lv_indev_get_point(indev, &p);
 198:..\..\..\arduinoLCD\test\Pain Drain\libraries\lvgl\src\widgets/lv_slider.c ****         int32_t new_value = 0;
 199:..\..\..\arduinoLCD\test\Pain Drain\libraries\lvgl\src\widgets/lv_slider.c **** 
 200:..\..\..\arduinoLCD\test\Pain Drain\libraries\lvgl\src\widgets/lv_slider.c ****         const int32_t range = slider->bar.max_value - slider->bar.min_value;
 201:..\..\..\arduinoLCD\test\Pain Drain\libraries\lvgl\src\widgets/lv_slider.c ****         if(is_slider_horizontal(obj)) {
 202:..\..\..\arduinoLCD\test\Pain Drain\libraries\lvgl\src\widgets/lv_slider.c ****             const lv_coord_t bg_left = lv_obj_get_style_pad_left(obj, LV_PART_MAIN);
ARM GAS  C:\Users\haske\AppData\Local\Temp\cc1ymag8.s 			page 5


 203:..\..\..\arduinoLCD\test\Pain Drain\libraries\lvgl\src\widgets/lv_slider.c ****             const lv_coord_t bg_right = lv_obj_get_style_pad_right(obj, LV_PART_MAIN);
 204:..\..\..\arduinoLCD\test\Pain Drain\libraries\lvgl\src\widgets/lv_slider.c ****             const lv_coord_t w = lv_obj_get_width(obj);
 205:..\..\..\arduinoLCD\test\Pain Drain\libraries\lvgl\src\widgets/lv_slider.c ****             const lv_coord_t indic_w = w - bg_left - bg_right;
 206:..\..\..\arduinoLCD\test\Pain Drain\libraries\lvgl\src\widgets/lv_slider.c **** 
 207:..\..\..\arduinoLCD\test\Pain Drain\libraries\lvgl\src\widgets/lv_slider.c ****             if(lv_obj_get_style_base_dir(obj, LV_PART_MAIN) == LV_BASE_DIR_RTL) {
 208:..\..\..\arduinoLCD\test\Pain Drain\libraries\lvgl\src\widgets/lv_slider.c ****                 /*Make the point relative to the indicator*/
 209:..\..\..\arduinoLCD\test\Pain Drain\libraries\lvgl\src\widgets/lv_slider.c ****                 new_value = (obj->coords.x2 - bg_right) - p.x;
 210:..\..\..\arduinoLCD\test\Pain Drain\libraries\lvgl\src\widgets/lv_slider.c ****             }
 211:..\..\..\arduinoLCD\test\Pain Drain\libraries\lvgl\src\widgets/lv_slider.c ****             else {
 212:..\..\..\arduinoLCD\test\Pain Drain\libraries\lvgl\src\widgets/lv_slider.c ****                 /*Make the point relative to the indicator*/
 213:..\..\..\arduinoLCD\test\Pain Drain\libraries\lvgl\src\widgets/lv_slider.c ****                 new_value = p.x - (obj->coords.x1 + bg_left);
 214:..\..\..\arduinoLCD\test\Pain Drain\libraries\lvgl\src\widgets/lv_slider.c ****             }
 215:..\..\..\arduinoLCD\test\Pain Drain\libraries\lvgl\src\widgets/lv_slider.c ****             new_value = (new_value * range + indic_w / 2) / indic_w;
 216:..\..\..\arduinoLCD\test\Pain Drain\libraries\lvgl\src\widgets/lv_slider.c ****             new_value += slider->bar.min_value;
 217:..\..\..\arduinoLCD\test\Pain Drain\libraries\lvgl\src\widgets/lv_slider.c ****         }
 218:..\..\..\arduinoLCD\test\Pain Drain\libraries\lvgl\src\widgets/lv_slider.c ****         else {
 219:..\..\..\arduinoLCD\test\Pain Drain\libraries\lvgl\src\widgets/lv_slider.c ****             const lv_coord_t bg_top = lv_obj_get_style_pad_top(obj, LV_PART_MAIN);
 220:..\..\..\arduinoLCD\test\Pain Drain\libraries\lvgl\src\widgets/lv_slider.c ****             const lv_coord_t bg_bottom = lv_obj_get_style_pad_bottom(obj, LV_PART_MAIN);
 221:..\..\..\arduinoLCD\test\Pain Drain\libraries\lvgl\src\widgets/lv_slider.c ****             const lv_coord_t h = lv_obj_get_height(obj);
 222:..\..\..\arduinoLCD\test\Pain Drain\libraries\lvgl\src\widgets/lv_slider.c ****             const lv_coord_t indic_h = h - bg_bottom - bg_top;
 223:..\..\..\arduinoLCD\test\Pain Drain\libraries\lvgl\src\widgets/lv_slider.c **** 
 224:..\..\..\arduinoLCD\test\Pain Drain\libraries\lvgl\src\widgets/lv_slider.c ****             /*Make the point relative to the indicator*/
 225:..\..\..\arduinoLCD\test\Pain Drain\libraries\lvgl\src\widgets/lv_slider.c ****             new_value = p.y - (obj->coords.y2 + bg_bottom);
 226:..\..\..\arduinoLCD\test\Pain Drain\libraries\lvgl\src\widgets/lv_slider.c ****             new_value = (-new_value * range + indic_h / 2) / indic_h;
 227:..\..\..\arduinoLCD\test\Pain Drain\libraries\lvgl\src\widgets/lv_slider.c ****             new_value += slider->bar.min_value;
 228:..\..\..\arduinoLCD\test\Pain Drain\libraries\lvgl\src\widgets/lv_slider.c ****         }
 229:..\..\..\arduinoLCD\test\Pain Drain\libraries\lvgl\src\widgets/lv_slider.c **** 
 230:..\..\..\arduinoLCD\test\Pain Drain\libraries\lvgl\src\widgets/lv_slider.c ****         int32_t real_max_value = slider->bar.max_value;
 231:..\..\..\arduinoLCD\test\Pain Drain\libraries\lvgl\src\widgets/lv_slider.c ****         int32_t real_min_value = slider->bar.min_value;
 232:..\..\..\arduinoLCD\test\Pain Drain\libraries\lvgl\src\widgets/lv_slider.c ****         /*Figure out the min. and max. for this mode*/
 233:..\..\..\arduinoLCD\test\Pain Drain\libraries\lvgl\src\widgets/lv_slider.c ****         if(slider->value_to_set == &slider->bar.start_value) {
 234:..\..\..\arduinoLCD\test\Pain Drain\libraries\lvgl\src\widgets/lv_slider.c ****             real_max_value = slider->bar.cur_value;
 235:..\..\..\arduinoLCD\test\Pain Drain\libraries\lvgl\src\widgets/lv_slider.c ****         }
 236:..\..\..\arduinoLCD\test\Pain Drain\libraries\lvgl\src\widgets/lv_slider.c ****         else {
 237:..\..\..\arduinoLCD\test\Pain Drain\libraries\lvgl\src\widgets/lv_slider.c ****             real_min_value = slider->bar.start_value;
 238:..\..\..\arduinoLCD\test\Pain Drain\libraries\lvgl\src\widgets/lv_slider.c ****         }
 239:..\..\..\arduinoLCD\test\Pain Drain\libraries\lvgl\src\widgets/lv_slider.c **** 
 240:..\..\..\arduinoLCD\test\Pain Drain\libraries\lvgl\src\widgets/lv_slider.c ****         new_value = LV_CLAMP(real_min_value, new_value, real_max_value);
 241:..\..\..\arduinoLCD\test\Pain Drain\libraries\lvgl\src\widgets/lv_slider.c ****         if(*slider->value_to_set != new_value) {
 242:..\..\..\arduinoLCD\test\Pain Drain\libraries\lvgl\src\widgets/lv_slider.c ****             if(slider->value_to_set == &slider->bar.start_value) {
 243:..\..\..\arduinoLCD\test\Pain Drain\libraries\lvgl\src\widgets/lv_slider.c ****                 lv_bar_set_start_value(obj, new_value, LV_ANIM_ON);
 244:..\..\..\arduinoLCD\test\Pain Drain\libraries\lvgl\src\widgets/lv_slider.c ****             }
 245:..\..\..\arduinoLCD\test\Pain Drain\libraries\lvgl\src\widgets/lv_slider.c ****             else {
 246:..\..\..\arduinoLCD\test\Pain Drain\libraries\lvgl\src\widgets/lv_slider.c ****                 lv_bar_set_value(obj, new_value, LV_ANIM_ON);
 247:..\..\..\arduinoLCD\test\Pain Drain\libraries\lvgl\src\widgets/lv_slider.c ****             }
 248:..\..\..\arduinoLCD\test\Pain Drain\libraries\lvgl\src\widgets/lv_slider.c ****             res = lv_event_send(obj, LV_EVENT_VALUE_CHANGED, NULL);
 249:..\..\..\arduinoLCD\test\Pain Drain\libraries\lvgl\src\widgets/lv_slider.c ****             if(res != LV_RES_OK) return;
 250:..\..\..\arduinoLCD\test\Pain Drain\libraries\lvgl\src\widgets/lv_slider.c ****         }
 251:..\..\..\arduinoLCD\test\Pain Drain\libraries\lvgl\src\widgets/lv_slider.c **** 
 252:..\..\..\arduinoLCD\test\Pain Drain\libraries\lvgl\src\widgets/lv_slider.c ****     }
 253:..\..\..\arduinoLCD\test\Pain Drain\libraries\lvgl\src\widgets/lv_slider.c ****     else if(code == LV_EVENT_RELEASED || code == LV_EVENT_PRESS_LOST) {
 254:..\..\..\arduinoLCD\test\Pain Drain\libraries\lvgl\src\widgets/lv_slider.c ****         slider->dragging = false;
 255:..\..\..\arduinoLCD\test\Pain Drain\libraries\lvgl\src\widgets/lv_slider.c ****         slider->value_to_set = NULL;
 256:..\..\..\arduinoLCD\test\Pain Drain\libraries\lvgl\src\widgets/lv_slider.c **** 
 257:..\..\..\arduinoLCD\test\Pain Drain\libraries\lvgl\src\widgets/lv_slider.c ****         lv_obj_invalidate(obj);
 258:..\..\..\arduinoLCD\test\Pain Drain\libraries\lvgl\src\widgets/lv_slider.c **** 
 259:..\..\..\arduinoLCD\test\Pain Drain\libraries\lvgl\src\widgets/lv_slider.c ****         /*Leave edit mode if released. (No need to wait for LONG_PRESS)*/
ARM GAS  C:\Users\haske\AppData\Local\Temp\cc1ymag8.s 			page 6


 260:..\..\..\arduinoLCD\test\Pain Drain\libraries\lvgl\src\widgets/lv_slider.c ****         lv_group_t * g   = lv_obj_get_group(obj);
 261:..\..\..\arduinoLCD\test\Pain Drain\libraries\lvgl\src\widgets/lv_slider.c ****         bool editing     = lv_group_get_editing(g);
 262:..\..\..\arduinoLCD\test\Pain Drain\libraries\lvgl\src\widgets/lv_slider.c ****         lv_indev_type_t indev_type = lv_indev_get_type(lv_indev_get_act());
 263:..\..\..\arduinoLCD\test\Pain Drain\libraries\lvgl\src\widgets/lv_slider.c ****         if(indev_type == LV_INDEV_TYPE_ENCODER) {
 264:..\..\..\arduinoLCD\test\Pain Drain\libraries\lvgl\src\widgets/lv_slider.c ****             if(editing) {
 265:..\..\..\arduinoLCD\test\Pain Drain\libraries\lvgl\src\widgets/lv_slider.c ****                 if(lv_slider_get_mode(obj) == LV_SLIDER_MODE_RANGE) {
 266:..\..\..\arduinoLCD\test\Pain Drain\libraries\lvgl\src\widgets/lv_slider.c ****                     if(slider->left_knob_focus == 0) slider->left_knob_focus = 1;
 267:..\..\..\arduinoLCD\test\Pain Drain\libraries\lvgl\src\widgets/lv_slider.c ****                     else {
 268:..\..\..\arduinoLCD\test\Pain Drain\libraries\lvgl\src\widgets/lv_slider.c ****                         slider->left_knob_focus = 0;
 269:..\..\..\arduinoLCD\test\Pain Drain\libraries\lvgl\src\widgets/lv_slider.c ****                         lv_group_set_editing(g, false);
 270:..\..\..\arduinoLCD\test\Pain Drain\libraries\lvgl\src\widgets/lv_slider.c ****                     }
 271:..\..\..\arduinoLCD\test\Pain Drain\libraries\lvgl\src\widgets/lv_slider.c ****                 }
 272:..\..\..\arduinoLCD\test\Pain Drain\libraries\lvgl\src\widgets/lv_slider.c ****                 else {
 273:..\..\..\arduinoLCD\test\Pain Drain\libraries\lvgl\src\widgets/lv_slider.c ****                     lv_group_set_editing(g, false);
 274:..\..\..\arduinoLCD\test\Pain Drain\libraries\lvgl\src\widgets/lv_slider.c ****                 }
 275:..\..\..\arduinoLCD\test\Pain Drain\libraries\lvgl\src\widgets/lv_slider.c ****             }
 276:..\..\..\arduinoLCD\test\Pain Drain\libraries\lvgl\src\widgets/lv_slider.c ****         }
 277:..\..\..\arduinoLCD\test\Pain Drain\libraries\lvgl\src\widgets/lv_slider.c **** 
 278:..\..\..\arduinoLCD\test\Pain Drain\libraries\lvgl\src\widgets/lv_slider.c ****     }
 279:..\..\..\arduinoLCD\test\Pain Drain\libraries\lvgl\src\widgets/lv_slider.c ****     else if(code == LV_EVENT_FOCUSED) {
 280:..\..\..\arduinoLCD\test\Pain Drain\libraries\lvgl\src\widgets/lv_slider.c ****         lv_indev_type_t indev_type = lv_indev_get_type(lv_indev_get_act());
 281:..\..\..\arduinoLCD\test\Pain Drain\libraries\lvgl\src\widgets/lv_slider.c ****         if(indev_type == LV_INDEV_TYPE_ENCODER || indev_type == LV_INDEV_TYPE_KEYPAD) {
 282:..\..\..\arduinoLCD\test\Pain Drain\libraries\lvgl\src\widgets/lv_slider.c ****             slider->left_knob_focus = 0;
 283:..\..\..\arduinoLCD\test\Pain Drain\libraries\lvgl\src\widgets/lv_slider.c ****         }
 284:..\..\..\arduinoLCD\test\Pain Drain\libraries\lvgl\src\widgets/lv_slider.c ****     }
 285:..\..\..\arduinoLCD\test\Pain Drain\libraries\lvgl\src\widgets/lv_slider.c ****     else if(code == LV_EVENT_SIZE_CHANGED) {
 286:..\..\..\arduinoLCD\test\Pain Drain\libraries\lvgl\src\widgets/lv_slider.c ****         lv_obj_refresh_ext_draw_size(obj);
 287:..\..\..\arduinoLCD\test\Pain Drain\libraries\lvgl\src\widgets/lv_slider.c ****     }
 288:..\..\..\arduinoLCD\test\Pain Drain\libraries\lvgl\src\widgets/lv_slider.c ****     else if(code == LV_EVENT_REFR_EXT_DRAW_SIZE) {
 289:..\..\..\arduinoLCD\test\Pain Drain\libraries\lvgl\src\widgets/lv_slider.c ****         lv_coord_t knob_left = lv_obj_get_style_pad_left(obj, LV_PART_KNOB);
 290:..\..\..\arduinoLCD\test\Pain Drain\libraries\lvgl\src\widgets/lv_slider.c ****         lv_coord_t knob_right = lv_obj_get_style_pad_right(obj, LV_PART_KNOB);
 291:..\..\..\arduinoLCD\test\Pain Drain\libraries\lvgl\src\widgets/lv_slider.c ****         lv_coord_t knob_top = lv_obj_get_style_pad_top(obj, LV_PART_KNOB);
 292:..\..\..\arduinoLCD\test\Pain Drain\libraries\lvgl\src\widgets/lv_slider.c ****         lv_coord_t knob_bottom = lv_obj_get_style_pad_bottom(obj, LV_PART_KNOB);
 293:..\..\..\arduinoLCD\test\Pain Drain\libraries\lvgl\src\widgets/lv_slider.c **** 
 294:..\..\..\arduinoLCD\test\Pain Drain\libraries\lvgl\src\widgets/lv_slider.c ****         /*The smaller size is the knob diameter*/
 295:..\..\..\arduinoLCD\test\Pain Drain\libraries\lvgl\src\widgets/lv_slider.c ****         lv_coord_t zoom = lv_obj_get_style_transform_zoom(obj, LV_PART_KNOB);
 296:..\..\..\arduinoLCD\test\Pain Drain\libraries\lvgl\src\widgets/lv_slider.c ****         lv_coord_t trans_w = lv_obj_get_style_transform_width(obj, LV_PART_KNOB);
 297:..\..\..\arduinoLCD\test\Pain Drain\libraries\lvgl\src\widgets/lv_slider.c ****         lv_coord_t trans_h = lv_obj_get_style_transform_height(obj, LV_PART_KNOB);
 298:..\..\..\arduinoLCD\test\Pain Drain\libraries\lvgl\src\widgets/lv_slider.c ****         lv_coord_t knob_size = LV_MIN(lv_obj_get_width(obj) + 2 * trans_w, lv_obj_get_height(obj) +
 299:..\..\..\arduinoLCD\test\Pain Drain\libraries\lvgl\src\widgets/lv_slider.c ****         knob_size = (knob_size * zoom) >> 8;
 300:..\..\..\arduinoLCD\test\Pain Drain\libraries\lvgl\src\widgets/lv_slider.c ****         knob_size += LV_MAX(LV_MAX(knob_left, knob_right), LV_MAX(knob_bottom, knob_top));
 301:..\..\..\arduinoLCD\test\Pain Drain\libraries\lvgl\src\widgets/lv_slider.c ****         knob_size += 2;         /*For rounding error*/
 302:..\..\..\arduinoLCD\test\Pain Drain\libraries\lvgl\src\widgets/lv_slider.c ****         knob_size += lv_obj_calculate_ext_draw_size(obj, LV_PART_KNOB);
 303:..\..\..\arduinoLCD\test\Pain Drain\libraries\lvgl\src\widgets/lv_slider.c **** 
 304:..\..\..\arduinoLCD\test\Pain Drain\libraries\lvgl\src\widgets/lv_slider.c ****         /*Indic. size is handled by bar*/
 305:..\..\..\arduinoLCD\test\Pain Drain\libraries\lvgl\src\widgets/lv_slider.c ****         lv_coord_t * s = lv_event_get_param(e);
 306:..\..\..\arduinoLCD\test\Pain Drain\libraries\lvgl\src\widgets/lv_slider.c ****         *s  = LV_MAX(*s, knob_size);
 307:..\..\..\arduinoLCD\test\Pain Drain\libraries\lvgl\src\widgets/lv_slider.c **** 
 308:..\..\..\arduinoLCD\test\Pain Drain\libraries\lvgl\src\widgets/lv_slider.c ****     }
 309:..\..\..\arduinoLCD\test\Pain Drain\libraries\lvgl\src\widgets/lv_slider.c ****     else if(code == LV_EVENT_KEY) {
 310:..\..\..\arduinoLCD\test\Pain Drain\libraries\lvgl\src\widgets/lv_slider.c ****         char c = *((char *)lv_event_get_param(e));
 311:..\..\..\arduinoLCD\test\Pain Drain\libraries\lvgl\src\widgets/lv_slider.c **** 
 312:..\..\..\arduinoLCD\test\Pain Drain\libraries\lvgl\src\widgets/lv_slider.c ****         if(c == LV_KEY_RIGHT || c == LV_KEY_UP) {
 313:..\..\..\arduinoLCD\test\Pain Drain\libraries\lvgl\src\widgets/lv_slider.c ****             if(!slider->left_knob_focus) lv_slider_set_value(obj, lv_slider_get_value(obj) + 1, LV_
 314:..\..\..\arduinoLCD\test\Pain Drain\libraries\lvgl\src\widgets/lv_slider.c ****             else lv_slider_set_left_value(obj, lv_slider_get_left_value(obj) + 1, LV_ANIM_ON);
 315:..\..\..\arduinoLCD\test\Pain Drain\libraries\lvgl\src\widgets/lv_slider.c ****         }
 316:..\..\..\arduinoLCD\test\Pain Drain\libraries\lvgl\src\widgets/lv_slider.c ****         else if(c == LV_KEY_LEFT || c == LV_KEY_DOWN) {
ARM GAS  C:\Users\haske\AppData\Local\Temp\cc1ymag8.s 			page 7


 317:..\..\..\arduinoLCD\test\Pain Drain\libraries\lvgl\src\widgets/lv_slider.c ****             if(!slider->left_knob_focus) lv_slider_set_value(obj, lv_slider_get_value(obj) - 1, LV_
 318:..\..\..\arduinoLCD\test\Pain Drain\libraries\lvgl\src\widgets/lv_slider.c ****             else lv_slider_set_left_value(obj, lv_slider_get_left_value(obj) - 1, LV_ANIM_ON);
 319:..\..\..\arduinoLCD\test\Pain Drain\libraries\lvgl\src\widgets/lv_slider.c ****         }
 320:..\..\..\arduinoLCD\test\Pain Drain\libraries\lvgl\src\widgets/lv_slider.c ****         else {
 321:..\..\..\arduinoLCD\test\Pain Drain\libraries\lvgl\src\widgets/lv_slider.c ****             return;
 322:..\..\..\arduinoLCD\test\Pain Drain\libraries\lvgl\src\widgets/lv_slider.c ****         }
 323:..\..\..\arduinoLCD\test\Pain Drain\libraries\lvgl\src\widgets/lv_slider.c **** 
 324:..\..\..\arduinoLCD\test\Pain Drain\libraries\lvgl\src\widgets/lv_slider.c ****         res = lv_event_send(obj, LV_EVENT_VALUE_CHANGED, NULL);
 325:..\..\..\arduinoLCD\test\Pain Drain\libraries\lvgl\src\widgets/lv_slider.c ****         if(res != LV_RES_OK) return;
 326:..\..\..\arduinoLCD\test\Pain Drain\libraries\lvgl\src\widgets/lv_slider.c ****     }
 327:..\..\..\arduinoLCD\test\Pain Drain\libraries\lvgl\src\widgets/lv_slider.c ****     else if(code == LV_EVENT_DRAW_MAIN) {
 328:..\..\..\arduinoLCD\test\Pain Drain\libraries\lvgl\src\widgets/lv_slider.c ****         draw_knob(e);
 329:..\..\..\arduinoLCD\test\Pain Drain\libraries\lvgl\src\widgets/lv_slider.c ****     }
 330:..\..\..\arduinoLCD\test\Pain Drain\libraries\lvgl\src\widgets/lv_slider.c **** }
 331:..\..\..\arduinoLCD\test\Pain Drain\libraries\lvgl\src\widgets/lv_slider.c **** 
 332:..\..\..\arduinoLCD\test\Pain Drain\libraries\lvgl\src\widgets/lv_slider.c **** static void draw_knob(lv_event_t * e)
 333:..\..\..\arduinoLCD\test\Pain Drain\libraries\lvgl\src\widgets/lv_slider.c **** {
 334:..\..\..\arduinoLCD\test\Pain Drain\libraries\lvgl\src\widgets/lv_slider.c ****     lv_obj_t * obj = lv_event_get_target(e);
 335:..\..\..\arduinoLCD\test\Pain Drain\libraries\lvgl\src\widgets/lv_slider.c ****     lv_slider_t * slider = (lv_slider_t *)obj;
 336:..\..\..\arduinoLCD\test\Pain Drain\libraries\lvgl\src\widgets/lv_slider.c ****     lv_draw_ctx_t * draw_ctx = lv_event_get_draw_ctx(e);
 337:..\..\..\arduinoLCD\test\Pain Drain\libraries\lvgl\src\widgets/lv_slider.c **** 
 338:..\..\..\arduinoLCD\test\Pain Drain\libraries\lvgl\src\widgets/lv_slider.c ****     const bool is_rtl = LV_BASE_DIR_RTL == lv_obj_get_style_base_dir(obj, LV_PART_MAIN);
 339:..\..\..\arduinoLCD\test\Pain Drain\libraries\lvgl\src\widgets/lv_slider.c ****     const bool is_horizontal = is_slider_horizontal(obj);
 340:..\..\..\arduinoLCD\test\Pain Drain\libraries\lvgl\src\widgets/lv_slider.c **** 
 341:..\..\..\arduinoLCD\test\Pain Drain\libraries\lvgl\src\widgets/lv_slider.c ****     lv_area_t knob_area;
 342:..\..\..\arduinoLCD\test\Pain Drain\libraries\lvgl\src\widgets/lv_slider.c ****     lv_coord_t knob_size;
 343:..\..\..\arduinoLCD\test\Pain Drain\libraries\lvgl\src\widgets/lv_slider.c ****     bool is_symmetrical = false;
 344:..\..\..\arduinoLCD\test\Pain Drain\libraries\lvgl\src\widgets/lv_slider.c ****     if(slider->bar.mode == LV_BAR_MODE_SYMMETRICAL && slider->bar.min_value < 0 &&
 345:..\..\..\arduinoLCD\test\Pain Drain\libraries\lvgl\src\widgets/lv_slider.c ****        slider->bar.max_value > 0) is_symmetrical = true;
 346:..\..\..\arduinoLCD\test\Pain Drain\libraries\lvgl\src\widgets/lv_slider.c **** 
 347:..\..\..\arduinoLCD\test\Pain Drain\libraries\lvgl\src\widgets/lv_slider.c ****     if(is_horizontal) {
 348:..\..\..\arduinoLCD\test\Pain Drain\libraries\lvgl\src\widgets/lv_slider.c ****         knob_size = lv_obj_get_height(obj);
 349:..\..\..\arduinoLCD\test\Pain Drain\libraries\lvgl\src\widgets/lv_slider.c ****         if(is_symmetrical && slider->bar.cur_value < 0) knob_area.x1 = slider->bar.indic_area.x1;
 350:..\..\..\arduinoLCD\test\Pain Drain\libraries\lvgl\src\widgets/lv_slider.c ****         else knob_area.x1 = LV_SLIDER_KNOB_COORD(is_rtl, slider->bar.indic_area);
 351:..\..\..\arduinoLCD\test\Pain Drain\libraries\lvgl\src\widgets/lv_slider.c ****     }
 352:..\..\..\arduinoLCD\test\Pain Drain\libraries\lvgl\src\widgets/lv_slider.c ****     else {
 353:..\..\..\arduinoLCD\test\Pain Drain\libraries\lvgl\src\widgets/lv_slider.c ****         knob_size = lv_obj_get_width(obj);
 354:..\..\..\arduinoLCD\test\Pain Drain\libraries\lvgl\src\widgets/lv_slider.c ****         if(is_symmetrical && slider->bar.cur_value < 0) knob_area.y1 = slider->bar.indic_area.y2;
 355:..\..\..\arduinoLCD\test\Pain Drain\libraries\lvgl\src\widgets/lv_slider.c ****         else knob_area.y1 = slider->bar.indic_area.y1;
 356:..\..\..\arduinoLCD\test\Pain Drain\libraries\lvgl\src\widgets/lv_slider.c ****     }
 357:..\..\..\arduinoLCD\test\Pain Drain\libraries\lvgl\src\widgets/lv_slider.c **** 
 358:..\..\..\arduinoLCD\test\Pain Drain\libraries\lvgl\src\widgets/lv_slider.c ****     lv_draw_rect_dsc_t knob_rect_dsc;
 359:..\..\..\arduinoLCD\test\Pain Drain\libraries\lvgl\src\widgets/lv_slider.c ****     lv_draw_rect_dsc_init(&knob_rect_dsc);
 360:..\..\..\arduinoLCD\test\Pain Drain\libraries\lvgl\src\widgets/lv_slider.c ****     lv_obj_init_draw_rect_dsc(obj, LV_PART_KNOB, &knob_rect_dsc);
 361:..\..\..\arduinoLCD\test\Pain Drain\libraries\lvgl\src\widgets/lv_slider.c ****     /* Update knob area with knob style */
 362:..\..\..\arduinoLCD\test\Pain Drain\libraries\lvgl\src\widgets/lv_slider.c ****     position_knob(obj, &knob_area, knob_size, is_horizontal);
 363:..\..\..\arduinoLCD\test\Pain Drain\libraries\lvgl\src\widgets/lv_slider.c ****     /* Update right knob area with calculated knob area */
 364:..\..\..\arduinoLCD\test\Pain Drain\libraries\lvgl\src\widgets/lv_slider.c ****     lv_area_copy(&slider->right_knob_area, &knob_area);
 365:..\..\..\arduinoLCD\test\Pain Drain\libraries\lvgl\src\widgets/lv_slider.c **** 
 366:..\..\..\arduinoLCD\test\Pain Drain\libraries\lvgl\src\widgets/lv_slider.c ****     lv_obj_draw_part_dsc_t part_draw_dsc;
 367:..\..\..\arduinoLCD\test\Pain Drain\libraries\lvgl\src\widgets/lv_slider.c ****     lv_obj_draw_dsc_init(&part_draw_dsc, draw_ctx);
 368:..\..\..\arduinoLCD\test\Pain Drain\libraries\lvgl\src\widgets/lv_slider.c ****     part_draw_dsc.part = LV_PART_KNOB;
 369:..\..\..\arduinoLCD\test\Pain Drain\libraries\lvgl\src\widgets/lv_slider.c ****     part_draw_dsc.class_p = MY_CLASS;
 370:..\..\..\arduinoLCD\test\Pain Drain\libraries\lvgl\src\widgets/lv_slider.c ****     part_draw_dsc.type = LV_SLIDER_DRAW_PART_KNOB;
 371:..\..\..\arduinoLCD\test\Pain Drain\libraries\lvgl\src\widgets/lv_slider.c ****     part_draw_dsc.id = 0;
 372:..\..\..\arduinoLCD\test\Pain Drain\libraries\lvgl\src\widgets/lv_slider.c ****     part_draw_dsc.draw_area = &slider->right_knob_area;
 373:..\..\..\arduinoLCD\test\Pain Drain\libraries\lvgl\src\widgets/lv_slider.c ****     part_draw_dsc.rect_dsc = &knob_rect_dsc;
ARM GAS  C:\Users\haske\AppData\Local\Temp\cc1ymag8.s 			page 8


 374:..\..\..\arduinoLCD\test\Pain Drain\libraries\lvgl\src\widgets/lv_slider.c **** 
 375:..\..\..\arduinoLCD\test\Pain Drain\libraries\lvgl\src\widgets/lv_slider.c ****     if(lv_slider_get_mode(obj) != LV_SLIDER_MODE_RANGE) {
 376:..\..\..\arduinoLCD\test\Pain Drain\libraries\lvgl\src\widgets/lv_slider.c ****         lv_event_send(obj, LV_EVENT_DRAW_PART_BEGIN, &part_draw_dsc);
 377:..\..\..\arduinoLCD\test\Pain Drain\libraries\lvgl\src\widgets/lv_slider.c ****         lv_draw_rect(draw_ctx, &knob_rect_dsc, &slider->right_knob_area);
 378:..\..\..\arduinoLCD\test\Pain Drain\libraries\lvgl\src\widgets/lv_slider.c ****         lv_event_send(obj, LV_EVENT_DRAW_PART_END, &part_draw_dsc);
 379:..\..\..\arduinoLCD\test\Pain Drain\libraries\lvgl\src\widgets/lv_slider.c ****     }
 380:..\..\..\arduinoLCD\test\Pain Drain\libraries\lvgl\src\widgets/lv_slider.c ****     else {
 381:..\..\..\arduinoLCD\test\Pain Drain\libraries\lvgl\src\widgets/lv_slider.c ****         /*Save the draw part_draw_dsc. because it can be modified in the event*/
 382:..\..\..\arduinoLCD\test\Pain Drain\libraries\lvgl\src\widgets/lv_slider.c ****         lv_draw_rect_dsc_t knob_rect_dsc_tmp;
 383:..\..\..\arduinoLCD\test\Pain Drain\libraries\lvgl\src\widgets/lv_slider.c ****         lv_memcpy(&knob_rect_dsc_tmp, &knob_rect_dsc, sizeof(lv_draw_rect_dsc_t));
 384:..\..\..\arduinoLCD\test\Pain Drain\libraries\lvgl\src\widgets/lv_slider.c ****         /* Draw the right knob */
 385:..\..\..\arduinoLCD\test\Pain Drain\libraries\lvgl\src\widgets/lv_slider.c ****         lv_event_send(obj, LV_EVENT_DRAW_PART_BEGIN, &part_draw_dsc);
 386:..\..\..\arduinoLCD\test\Pain Drain\libraries\lvgl\src\widgets/lv_slider.c ****         lv_draw_rect(draw_ctx, &knob_rect_dsc, &slider->right_knob_area);
 387:..\..\..\arduinoLCD\test\Pain Drain\libraries\lvgl\src\widgets/lv_slider.c ****         lv_event_send(obj, LV_EVENT_DRAW_PART_END, &part_draw_dsc);
 388:..\..\..\arduinoLCD\test\Pain Drain\libraries\lvgl\src\widgets/lv_slider.c **** 
 389:..\..\..\arduinoLCD\test\Pain Drain\libraries\lvgl\src\widgets/lv_slider.c ****         /*Calculate the second knob area*/
 390:..\..\..\arduinoLCD\test\Pain Drain\libraries\lvgl\src\widgets/lv_slider.c ****         if(is_horizontal) {
 391:..\..\..\arduinoLCD\test\Pain Drain\libraries\lvgl\src\widgets/lv_slider.c ****             /*use !is_rtl to get the other knob*/
 392:..\..\..\arduinoLCD\test\Pain Drain\libraries\lvgl\src\widgets/lv_slider.c ****             knob_area.x1 = LV_SLIDER_KNOB_COORD(!is_rtl, slider->bar.indic_area);
 393:..\..\..\arduinoLCD\test\Pain Drain\libraries\lvgl\src\widgets/lv_slider.c ****         }
 394:..\..\..\arduinoLCD\test\Pain Drain\libraries\lvgl\src\widgets/lv_slider.c ****         else {
 395:..\..\..\arduinoLCD\test\Pain Drain\libraries\lvgl\src\widgets/lv_slider.c ****             knob_area.y1 = slider->bar.indic_area.y2;
 396:..\..\..\arduinoLCD\test\Pain Drain\libraries\lvgl\src\widgets/lv_slider.c ****         }
 397:..\..\..\arduinoLCD\test\Pain Drain\libraries\lvgl\src\widgets/lv_slider.c ****         position_knob(obj, &knob_area, knob_size, is_horizontal);
 398:..\..\..\arduinoLCD\test\Pain Drain\libraries\lvgl\src\widgets/lv_slider.c ****         lv_area_copy(&slider->left_knob_area, &knob_area);
 399:..\..\..\arduinoLCD\test\Pain Drain\libraries\lvgl\src\widgets/lv_slider.c **** 
 400:..\..\..\arduinoLCD\test\Pain Drain\libraries\lvgl\src\widgets/lv_slider.c ****         lv_memcpy(&knob_rect_dsc, &knob_rect_dsc_tmp, sizeof(lv_draw_rect_dsc_t));
 401:..\..\..\arduinoLCD\test\Pain Drain\libraries\lvgl\src\widgets/lv_slider.c ****         part_draw_dsc.type = LV_SLIDER_DRAW_PART_KNOB_LEFT;
 402:..\..\..\arduinoLCD\test\Pain Drain\libraries\lvgl\src\widgets/lv_slider.c ****         part_draw_dsc.draw_area = &slider->left_knob_area;
 403:..\..\..\arduinoLCD\test\Pain Drain\libraries\lvgl\src\widgets/lv_slider.c ****         part_draw_dsc.rect_dsc = &knob_rect_dsc;
 404:..\..\..\arduinoLCD\test\Pain Drain\libraries\lvgl\src\widgets/lv_slider.c ****         part_draw_dsc.id = 1;
 405:..\..\..\arduinoLCD\test\Pain Drain\libraries\lvgl\src\widgets/lv_slider.c **** 
 406:..\..\..\arduinoLCD\test\Pain Drain\libraries\lvgl\src\widgets/lv_slider.c ****         lv_event_send(obj, LV_EVENT_DRAW_PART_BEGIN, &part_draw_dsc);
 407:..\..\..\arduinoLCD\test\Pain Drain\libraries\lvgl\src\widgets/lv_slider.c ****         lv_draw_rect(draw_ctx, &knob_rect_dsc, &slider->left_knob_area);
 408:..\..\..\arduinoLCD\test\Pain Drain\libraries\lvgl\src\widgets/lv_slider.c ****         lv_event_send(obj, LV_EVENT_DRAW_PART_END, &part_draw_dsc);
 409:..\..\..\arduinoLCD\test\Pain Drain\libraries\lvgl\src\widgets/lv_slider.c ****     }
 410:..\..\..\arduinoLCD\test\Pain Drain\libraries\lvgl\src\widgets/lv_slider.c **** }
 411:..\..\..\arduinoLCD\test\Pain Drain\libraries\lvgl\src\widgets/lv_slider.c **** 
 412:..\..\..\arduinoLCD\test\Pain Drain\libraries\lvgl\src\widgets/lv_slider.c **** static void position_knob(lv_obj_t * obj, lv_area_t * knob_area, const lv_coord_t knob_size, const 
 413:..\..\..\arduinoLCD\test\Pain Drain\libraries\lvgl\src\widgets/lv_slider.c **** {
 414:..\..\..\arduinoLCD\test\Pain Drain\libraries\lvgl\src\widgets/lv_slider.c ****     if(hor) {
 415:..\..\..\arduinoLCD\test\Pain Drain\libraries\lvgl\src\widgets/lv_slider.c ****         knob_area->x1 -= (knob_size >> 1);
 416:..\..\..\arduinoLCD\test\Pain Drain\libraries\lvgl\src\widgets/lv_slider.c ****         knob_area->x2 = knob_area->x1 + knob_size - 1;
 417:..\..\..\arduinoLCD\test\Pain Drain\libraries\lvgl\src\widgets/lv_slider.c ****         knob_area->y1 = obj->coords.y1;
 418:..\..\..\arduinoLCD\test\Pain Drain\libraries\lvgl\src\widgets/lv_slider.c ****         knob_area->y2 = obj->coords.y2;
 419:..\..\..\arduinoLCD\test\Pain Drain\libraries\lvgl\src\widgets/lv_slider.c ****     }
 420:..\..\..\arduinoLCD\test\Pain Drain\libraries\lvgl\src\widgets/lv_slider.c ****     else {
 421:..\..\..\arduinoLCD\test\Pain Drain\libraries\lvgl\src\widgets/lv_slider.c ****         knob_area->y1 -= (knob_size >> 1);
 422:..\..\..\arduinoLCD\test\Pain Drain\libraries\lvgl\src\widgets/lv_slider.c ****         knob_area->y2 = knob_area->y1 + knob_size - 1;
 423:..\..\..\arduinoLCD\test\Pain Drain\libraries\lvgl\src\widgets/lv_slider.c ****         knob_area->x1 = obj->coords.x1;
 424:..\..\..\arduinoLCD\test\Pain Drain\libraries\lvgl\src\widgets/lv_slider.c ****         knob_area->x2 = obj->coords.x2;
 425:..\..\..\arduinoLCD\test\Pain Drain\libraries\lvgl\src\widgets/lv_slider.c ****     }
 426:..\..\..\arduinoLCD\test\Pain Drain\libraries\lvgl\src\widgets/lv_slider.c **** 
 427:..\..\..\arduinoLCD\test\Pain Drain\libraries\lvgl\src\widgets/lv_slider.c ****     lv_coord_t knob_left = lv_obj_get_style_pad_left(obj, LV_PART_KNOB);
 428:..\..\..\arduinoLCD\test\Pain Drain\libraries\lvgl\src\widgets/lv_slider.c ****     lv_coord_t knob_right = lv_obj_get_style_pad_right(obj, LV_PART_KNOB);
 429:..\..\..\arduinoLCD\test\Pain Drain\libraries\lvgl\src\widgets/lv_slider.c ****     lv_coord_t knob_top = lv_obj_get_style_pad_top(obj, LV_PART_KNOB);
 430:..\..\..\arduinoLCD\test\Pain Drain\libraries\lvgl\src\widgets/lv_slider.c ****     lv_coord_t knob_bottom = lv_obj_get_style_pad_bottom(obj, LV_PART_KNOB);
ARM GAS  C:\Users\haske\AppData\Local\Temp\cc1ymag8.s 			page 9


 431:..\..\..\arduinoLCD\test\Pain Drain\libraries\lvgl\src\widgets/lv_slider.c **** 
 432:..\..\..\arduinoLCD\test\Pain Drain\libraries\lvgl\src\widgets/lv_slider.c ****     lv_coord_t transf_w = lv_obj_get_style_transform_width(obj, LV_PART_KNOB);
 433:..\..\..\arduinoLCD\test\Pain Drain\libraries\lvgl\src\widgets/lv_slider.c ****     lv_coord_t transf_h = lv_obj_get_style_transform_height(obj, LV_PART_KNOB);
 434:..\..\..\arduinoLCD\test\Pain Drain\libraries\lvgl\src\widgets/lv_slider.c **** 
 435:..\..\..\arduinoLCD\test\Pain Drain\libraries\lvgl\src\widgets/lv_slider.c ****     /*Apply the paddings on the knob area*/
 436:..\..\..\arduinoLCD\test\Pain Drain\libraries\lvgl\src\widgets/lv_slider.c ****     knob_area->x1 -= knob_left + transf_w;
 437:..\..\..\arduinoLCD\test\Pain Drain\libraries\lvgl\src\widgets/lv_slider.c ****     knob_area->x2 += knob_right + transf_w;
 438:..\..\..\arduinoLCD\test\Pain Drain\libraries\lvgl\src\widgets/lv_slider.c ****     knob_area->y1 -= knob_top + transf_h;
 439:..\..\..\arduinoLCD\test\Pain Drain\libraries\lvgl\src\widgets/lv_slider.c ****     knob_area->y2 += knob_bottom + transf_h;
 440:..\..\..\arduinoLCD\test\Pain Drain\libraries\lvgl\src\widgets/lv_slider.c **** }
 441:..\..\..\arduinoLCD\test\Pain Drain\libraries\lvgl\src\widgets/lv_slider.c **** 
 442:..\..\..\arduinoLCD\test\Pain Drain\libraries\lvgl\src\widgets/lv_slider.c **** static bool is_slider_horizontal(lv_obj_t * obj)
 443:..\..\..\arduinoLCD\test\Pain Drain\libraries\lvgl\src\widgets/lv_slider.c **** {
  27              		.loc 1 443 0
  28              		.cfi_startproc
  29              		@ args = 0, pretend = 0, frame = 0
  30              		@ frame_needed = 0, uses_anonymous_args = 0
  31              	.LVL0:
  32 0000 70B5     		push	{r4, r5, r6, lr}
  33              		.cfi_def_cfa_offset 16
  34              		.cfi_offset 4, -16
  35              		.cfi_offset 5, -12
  36              		.cfi_offset 6, -8
  37              		.cfi_offset 14, -4
  38 0002 0500     		movs	r5, r0
 444:..\..\..\arduinoLCD\test\Pain Drain\libraries\lvgl\src\widgets/lv_slider.c ****     return lv_obj_get_width(obj) >= lv_obj_get_height(obj);
  39              		.loc 1 444 0
  40 0004 FFF7FEFF 		bl	lv_obj_get_width
  41              	.LVL1:
  42 0008 0400     		movs	r4, r0
  43 000a 2800     		movs	r0, r5
  44 000c FFF7FEFF 		bl	lv_obj_get_height
  45              	.LVL2:
  46 0010 0200     		movs	r2, r0
  47 0012 E017     		asrs	r0, r4, #31
  48 0014 D30F     		lsrs	r3, r2, #31
  49 0016 9442     		cmp	r4, r2
  50 0018 5841     		adcs	r0, r0, r3
  51 001a C0B2     		uxtb	r0, r0
 445:..\..\..\arduinoLCD\test\Pain Drain\libraries\lvgl\src\widgets/lv_slider.c **** }
  52              		.loc 1 445 0
  53              		@ sp needed
  54              	.LVL3:
  55 001c 70BD     		pop	{r4, r5, r6, pc}
  56              		.cfi_endproc
  57              	.LFE180:
  58              		.size	is_slider_horizontal, .-is_slider_horizontal
  59 001e C046     		.section	.text.position_knob,"ax",%progbits
  60              		.align	2
  61              		.code	16
  62              		.thumb_func
  63              		.type	position_knob, %function
  64              	position_knob:
  65              	.LFB179:
 413:..\..\..\arduinoLCD\test\Pain Drain\libraries\lvgl\src\widgets/lv_slider.c ****     if(hor) {
  66              		.loc 1 413 0
  67              		.cfi_startproc
ARM GAS  C:\Users\haske\AppData\Local\Temp\cc1ymag8.s 			page 10


  68              		@ args = 0, pretend = 0, frame = 0
  69              		@ frame_needed = 0, uses_anonymous_args = 0
  70              	.LVL4:
  71 0000 F8B5     		push	{r3, r4, r5, r6, r7, lr}
  72              		.cfi_def_cfa_offset 24
  73              		.cfi_offset 3, -24
  74              		.cfi_offset 4, -20
  75              		.cfi_offset 5, -16
  76              		.cfi_offset 6, -12
  77              		.cfi_offset 7, -8
  78              		.cfi_offset 14, -4
  79 0002 5F46     		mov	r7, fp
  80 0004 5646     		mov	r6, r10
  81 0006 4D46     		mov	r5, r9
  82 0008 4446     		mov	r4, r8
  83 000a F0B4     		push	{r4, r5, r6, r7}
  84              		.cfi_def_cfa_offset 40
  85              		.cfi_offset 8, -40
  86              		.cfi_offset 9, -36
  87              		.cfi_offset 10, -32
  88              		.cfi_offset 11, -28
  89 000c 0500     		movs	r5, r0
  90 000e 0C00     		movs	r4, r1
 414:..\..\..\arduinoLCD\test\Pain Drain\libraries\lvgl\src\widgets/lv_slider.c ****         knob_area->x1 -= (knob_size >> 1);
  91              		.loc 1 414 0
  92 0010 002B     		cmp	r3, #0
  93 0012 0ED0     		beq	.L3
 415:..\..\..\arduinoLCD\test\Pain Drain\libraries\lvgl\src\widgets/lv_slider.c ****         knob_area->x2 = knob_area->x1 + knob_size - 1;
  94              		.loc 1 415 0
  95 0014 5110     		asrs	r1, r2, #1
  96              	.LVL5:
  97 0016 2388     		ldrh	r3, [r4]
  98              	.LVL6:
  99 0018 5B1A     		subs	r3, r3, r1
 100 001a 9BB2     		uxth	r3, r3
 101 001c 2380     		strh	r3, [r4]
 416:..\..\..\arduinoLCD\test\Pain Drain\libraries\lvgl\src\widgets/lv_slider.c ****         knob_area->y1 = obj->coords.y1;
 102              		.loc 1 416 0
 103 001e 9A18     		adds	r2, r3, r2
 104              	.LVL7:
 105 0020 013A     		subs	r2, r2, #1
 106 0022 A280     		strh	r2, [r4, #4]
 417:..\..\..\arduinoLCD\test\Pain Drain\libraries\lvgl\src\widgets/lv_slider.c ****         knob_area->y2 = obj->coords.y2;
 107              		.loc 1 417 0
 108 0024 1622     		movs	r2, #22
 109 0026 835E     		ldrsh	r3, [r0, r2]
 110 0028 6380     		strh	r3, [r4, #2]
 418:..\..\..\arduinoLCD\test\Pain Drain\libraries\lvgl\src\widgets/lv_slider.c ****     }
 111              		.loc 1 418 0
 112 002a 1A22     		movs	r2, #26
 113 002c 835E     		ldrsh	r3, [r0, r2]
 114 002e E380     		strh	r3, [r4, #6]
 115 0030 0DE0     		b	.L4
 116              	.LVL8:
 117              	.L3:
 421:..\..\..\arduinoLCD\test\Pain Drain\libraries\lvgl\src\widgets/lv_slider.c ****         knob_area->y2 = knob_area->y1 + knob_size - 1;
 118              		.loc 1 421 0
ARM GAS  C:\Users\haske\AppData\Local\Temp\cc1ymag8.s 			page 11


 119 0032 5110     		asrs	r1, r2, #1
 120              	.LVL9:
 121 0034 6388     		ldrh	r3, [r4, #2]
 122              	.LVL10:
 123 0036 5B1A     		subs	r3, r3, r1
 124 0038 9BB2     		uxth	r3, r3
 125 003a 6380     		strh	r3, [r4, #2]
 422:..\..\..\arduinoLCD\test\Pain Drain\libraries\lvgl\src\widgets/lv_slider.c ****         knob_area->x1 = obj->coords.x1;
 126              		.loc 1 422 0
 127 003c 9A18     		adds	r2, r3, r2
 128              	.LVL11:
 129 003e 013A     		subs	r2, r2, #1
 130 0040 E280     		strh	r2, [r4, #6]
 423:..\..\..\arduinoLCD\test\Pain Drain\libraries\lvgl\src\widgets/lv_slider.c ****         knob_area->x2 = obj->coords.x2;
 131              		.loc 1 423 0
 132 0042 1422     		movs	r2, #20
 133 0044 835E     		ldrsh	r3, [r0, r2]
 134 0046 2380     		strh	r3, [r4]
 424:..\..\..\arduinoLCD\test\Pain Drain\libraries\lvgl\src\widgets/lv_slider.c ****     }
 135              		.loc 1 424 0
 136 0048 1822     		movs	r2, #24
 137 004a 835E     		ldrsh	r3, [r0, r2]
 138 004c A380     		strh	r3, [r4, #4]
 139              	.L4:
 140              	.LVL12:
 141              	.LBB83:
 142              	.LBB84:
 143              		.file 2 "..\\..\\..\\arduinoLCD\\test\\Pain Drain\\libraries\\lvgl\\src\\widgets\\../core/lv_obj_s
   1:..\..\..\arduinoLCD\test\Pain Drain\libraries\lvgl\src\widgets\../core/lv_obj_style_gen.h **** static inline lv_coord_t lv_obj_get_style_width(const struct _lv_obj_t * obj, uint32_t part)
   2:..\..\..\arduinoLCD\test\Pain Drain\libraries\lvgl\src\widgets\../core/lv_obj_style_gen.h **** {
   3:..\..\..\arduinoLCD\test\Pain Drain\libraries\lvgl\src\widgets\../core/lv_obj_style_gen.h ****     lv_style_value_t v = lv_obj_get_style_prop(obj, part, LV_STYLE_WIDTH);
   4:..\..\..\arduinoLCD\test\Pain Drain\libraries\lvgl\src\widgets\../core/lv_obj_style_gen.h ****     return (lv_coord_t)v.num;
   5:..\..\..\arduinoLCD\test\Pain Drain\libraries\lvgl\src\widgets\../core/lv_obj_style_gen.h **** }
   6:..\..\..\arduinoLCD\test\Pain Drain\libraries\lvgl\src\widgets\../core/lv_obj_style_gen.h **** 
   7:..\..\..\arduinoLCD\test\Pain Drain\libraries\lvgl\src\widgets\../core/lv_obj_style_gen.h **** static inline lv_coord_t lv_obj_get_style_min_width(const struct _lv_obj_t * obj, uint32_t part)
   8:..\..\..\arduinoLCD\test\Pain Drain\libraries\lvgl\src\widgets\../core/lv_obj_style_gen.h **** {
   9:..\..\..\arduinoLCD\test\Pain Drain\libraries\lvgl\src\widgets\../core/lv_obj_style_gen.h ****     lv_style_value_t v = lv_obj_get_style_prop(obj, part, LV_STYLE_MIN_WIDTH);
  10:..\..\..\arduinoLCD\test\Pain Drain\libraries\lvgl\src\widgets\../core/lv_obj_style_gen.h ****     return (lv_coord_t)v.num;
  11:..\..\..\arduinoLCD\test\Pain Drain\libraries\lvgl\src\widgets\../core/lv_obj_style_gen.h **** }
  12:..\..\..\arduinoLCD\test\Pain Drain\libraries\lvgl\src\widgets\../core/lv_obj_style_gen.h **** 
  13:..\..\..\arduinoLCD\test\Pain Drain\libraries\lvgl\src\widgets\../core/lv_obj_style_gen.h **** static inline lv_coord_t lv_obj_get_style_max_width(const struct _lv_obj_t * obj, uint32_t part)
  14:..\..\..\arduinoLCD\test\Pain Drain\libraries\lvgl\src\widgets\../core/lv_obj_style_gen.h **** {
  15:..\..\..\arduinoLCD\test\Pain Drain\libraries\lvgl\src\widgets\../core/lv_obj_style_gen.h ****     lv_style_value_t v = lv_obj_get_style_prop(obj, part, LV_STYLE_MAX_WIDTH);
  16:..\..\..\arduinoLCD\test\Pain Drain\libraries\lvgl\src\widgets\../core/lv_obj_style_gen.h ****     return (lv_coord_t)v.num;
  17:..\..\..\arduinoLCD\test\Pain Drain\libraries\lvgl\src\widgets\../core/lv_obj_style_gen.h **** }
  18:..\..\..\arduinoLCD\test\Pain Drain\libraries\lvgl\src\widgets\../core/lv_obj_style_gen.h **** 
  19:..\..\..\arduinoLCD\test\Pain Drain\libraries\lvgl\src\widgets\../core/lv_obj_style_gen.h **** static inline lv_coord_t lv_obj_get_style_height(const struct _lv_obj_t * obj, uint32_t part)
  20:..\..\..\arduinoLCD\test\Pain Drain\libraries\lvgl\src\widgets\../core/lv_obj_style_gen.h **** {
  21:..\..\..\arduinoLCD\test\Pain Drain\libraries\lvgl\src\widgets\../core/lv_obj_style_gen.h ****     lv_style_value_t v = lv_obj_get_style_prop(obj, part, LV_STYLE_HEIGHT);
  22:..\..\..\arduinoLCD\test\Pain Drain\libraries\lvgl\src\widgets\../core/lv_obj_style_gen.h ****     return (lv_coord_t)v.num;
  23:..\..\..\arduinoLCD\test\Pain Drain\libraries\lvgl\src\widgets\../core/lv_obj_style_gen.h **** }
  24:..\..\..\arduinoLCD\test\Pain Drain\libraries\lvgl\src\widgets\../core/lv_obj_style_gen.h **** 
  25:..\..\..\arduinoLCD\test\Pain Drain\libraries\lvgl\src\widgets\../core/lv_obj_style_gen.h **** static inline lv_coord_t lv_obj_get_style_min_height(const struct _lv_obj_t * obj, uint32_t part)
  26:..\..\..\arduinoLCD\test\Pain Drain\libraries\lvgl\src\widgets\../core/lv_obj_style_gen.h **** {
  27:..\..\..\arduinoLCD\test\Pain Drain\libraries\lvgl\src\widgets\../core/lv_obj_style_gen.h ****     lv_style_value_t v = lv_obj_get_style_prop(obj, part, LV_STYLE_MIN_HEIGHT);
  28:..\..\..\arduinoLCD\test\Pain Drain\libraries\lvgl\src\widgets\../core/lv_obj_style_gen.h ****     return (lv_coord_t)v.num;
  29:..\..\..\arduinoLCD\test\Pain Drain\libraries\lvgl\src\widgets\../core/lv_obj_style_gen.h **** }
ARM GAS  C:\Users\haske\AppData\Local\Temp\cc1ymag8.s 			page 12


  30:..\..\..\arduinoLCD\test\Pain Drain\libraries\lvgl\src\widgets\../core/lv_obj_style_gen.h **** 
  31:..\..\..\arduinoLCD\test\Pain Drain\libraries\lvgl\src\widgets\../core/lv_obj_style_gen.h **** static inline lv_coord_t lv_obj_get_style_max_height(const struct _lv_obj_t * obj, uint32_t part)
  32:..\..\..\arduinoLCD\test\Pain Drain\libraries\lvgl\src\widgets\../core/lv_obj_style_gen.h **** {
  33:..\..\..\arduinoLCD\test\Pain Drain\libraries\lvgl\src\widgets\../core/lv_obj_style_gen.h ****     lv_style_value_t v = lv_obj_get_style_prop(obj, part, LV_STYLE_MAX_HEIGHT);
  34:..\..\..\arduinoLCD\test\Pain Drain\libraries\lvgl\src\widgets\../core/lv_obj_style_gen.h ****     return (lv_coord_t)v.num;
  35:..\..\..\arduinoLCD\test\Pain Drain\libraries\lvgl\src\widgets\../core/lv_obj_style_gen.h **** }
  36:..\..\..\arduinoLCD\test\Pain Drain\libraries\lvgl\src\widgets\../core/lv_obj_style_gen.h **** 
  37:..\..\..\arduinoLCD\test\Pain Drain\libraries\lvgl\src\widgets\../core/lv_obj_style_gen.h **** static inline lv_coord_t lv_obj_get_style_x(const struct _lv_obj_t * obj, uint32_t part)
  38:..\..\..\arduinoLCD\test\Pain Drain\libraries\lvgl\src\widgets\../core/lv_obj_style_gen.h **** {
  39:..\..\..\arduinoLCD\test\Pain Drain\libraries\lvgl\src\widgets\../core/lv_obj_style_gen.h ****     lv_style_value_t v = lv_obj_get_style_prop(obj, part, LV_STYLE_X);
  40:..\..\..\arduinoLCD\test\Pain Drain\libraries\lvgl\src\widgets\../core/lv_obj_style_gen.h ****     return (lv_coord_t)v.num;
  41:..\..\..\arduinoLCD\test\Pain Drain\libraries\lvgl\src\widgets\../core/lv_obj_style_gen.h **** }
  42:..\..\..\arduinoLCD\test\Pain Drain\libraries\lvgl\src\widgets\../core/lv_obj_style_gen.h **** 
  43:..\..\..\arduinoLCD\test\Pain Drain\libraries\lvgl\src\widgets\../core/lv_obj_style_gen.h **** static inline lv_coord_t lv_obj_get_style_y(const struct _lv_obj_t * obj, uint32_t part)
  44:..\..\..\arduinoLCD\test\Pain Drain\libraries\lvgl\src\widgets\../core/lv_obj_style_gen.h **** {
  45:..\..\..\arduinoLCD\test\Pain Drain\libraries\lvgl\src\widgets\../core/lv_obj_style_gen.h ****     lv_style_value_t v = lv_obj_get_style_prop(obj, part, LV_STYLE_Y);
  46:..\..\..\arduinoLCD\test\Pain Drain\libraries\lvgl\src\widgets\../core/lv_obj_style_gen.h ****     return (lv_coord_t)v.num;
  47:..\..\..\arduinoLCD\test\Pain Drain\libraries\lvgl\src\widgets\../core/lv_obj_style_gen.h **** }
  48:..\..\..\arduinoLCD\test\Pain Drain\libraries\lvgl\src\widgets\../core/lv_obj_style_gen.h **** 
  49:..\..\..\arduinoLCD\test\Pain Drain\libraries\lvgl\src\widgets\../core/lv_obj_style_gen.h **** static inline lv_align_t lv_obj_get_style_align(const struct _lv_obj_t * obj, uint32_t part)
  50:..\..\..\arduinoLCD\test\Pain Drain\libraries\lvgl\src\widgets\../core/lv_obj_style_gen.h **** {
  51:..\..\..\arduinoLCD\test\Pain Drain\libraries\lvgl\src\widgets\../core/lv_obj_style_gen.h ****     lv_style_value_t v = lv_obj_get_style_prop(obj, part, LV_STYLE_ALIGN);
  52:..\..\..\arduinoLCD\test\Pain Drain\libraries\lvgl\src\widgets\../core/lv_obj_style_gen.h ****     return (lv_align_t)v.num;
  53:..\..\..\arduinoLCD\test\Pain Drain\libraries\lvgl\src\widgets\../core/lv_obj_style_gen.h **** }
  54:..\..\..\arduinoLCD\test\Pain Drain\libraries\lvgl\src\widgets\../core/lv_obj_style_gen.h **** 
  55:..\..\..\arduinoLCD\test\Pain Drain\libraries\lvgl\src\widgets\../core/lv_obj_style_gen.h **** static inline lv_coord_t lv_obj_get_style_transform_width(const struct _lv_obj_t * obj, uint32_t pa
  56:..\..\..\arduinoLCD\test\Pain Drain\libraries\lvgl\src\widgets\../core/lv_obj_style_gen.h **** {
  57:..\..\..\arduinoLCD\test\Pain Drain\libraries\lvgl\src\widgets\../core/lv_obj_style_gen.h ****     lv_style_value_t v = lv_obj_get_style_prop(obj, part, LV_STYLE_TRANSFORM_WIDTH);
  58:..\..\..\arduinoLCD\test\Pain Drain\libraries\lvgl\src\widgets\../core/lv_obj_style_gen.h ****     return (lv_coord_t)v.num;
  59:..\..\..\arduinoLCD\test\Pain Drain\libraries\lvgl\src\widgets\../core/lv_obj_style_gen.h **** }
  60:..\..\..\arduinoLCD\test\Pain Drain\libraries\lvgl\src\widgets\../core/lv_obj_style_gen.h **** 
  61:..\..\..\arduinoLCD\test\Pain Drain\libraries\lvgl\src\widgets\../core/lv_obj_style_gen.h **** static inline lv_coord_t lv_obj_get_style_transform_height(const struct _lv_obj_t * obj, uint32_t p
  62:..\..\..\arduinoLCD\test\Pain Drain\libraries\lvgl\src\widgets\../core/lv_obj_style_gen.h **** {
  63:..\..\..\arduinoLCD\test\Pain Drain\libraries\lvgl\src\widgets\../core/lv_obj_style_gen.h ****     lv_style_value_t v = lv_obj_get_style_prop(obj, part, LV_STYLE_TRANSFORM_HEIGHT);
  64:..\..\..\arduinoLCD\test\Pain Drain\libraries\lvgl\src\widgets\../core/lv_obj_style_gen.h ****     return (lv_coord_t)v.num;
  65:..\..\..\arduinoLCD\test\Pain Drain\libraries\lvgl\src\widgets\../core/lv_obj_style_gen.h **** }
  66:..\..\..\arduinoLCD\test\Pain Drain\libraries\lvgl\src\widgets\../core/lv_obj_style_gen.h **** 
  67:..\..\..\arduinoLCD\test\Pain Drain\libraries\lvgl\src\widgets\../core/lv_obj_style_gen.h **** static inline lv_coord_t lv_obj_get_style_translate_x(const struct _lv_obj_t * obj, uint32_t part)
  68:..\..\..\arduinoLCD\test\Pain Drain\libraries\lvgl\src\widgets\../core/lv_obj_style_gen.h **** {
  69:..\..\..\arduinoLCD\test\Pain Drain\libraries\lvgl\src\widgets\../core/lv_obj_style_gen.h ****     lv_style_value_t v = lv_obj_get_style_prop(obj, part, LV_STYLE_TRANSLATE_X);
  70:..\..\..\arduinoLCD\test\Pain Drain\libraries\lvgl\src\widgets\../core/lv_obj_style_gen.h ****     return (lv_coord_t)v.num;
  71:..\..\..\arduinoLCD\test\Pain Drain\libraries\lvgl\src\widgets\../core/lv_obj_style_gen.h **** }
  72:..\..\..\arduinoLCD\test\Pain Drain\libraries\lvgl\src\widgets\../core/lv_obj_style_gen.h **** 
  73:..\..\..\arduinoLCD\test\Pain Drain\libraries\lvgl\src\widgets\../core/lv_obj_style_gen.h **** static inline lv_coord_t lv_obj_get_style_translate_y(const struct _lv_obj_t * obj, uint32_t part)
  74:..\..\..\arduinoLCD\test\Pain Drain\libraries\lvgl\src\widgets\../core/lv_obj_style_gen.h **** {
  75:..\..\..\arduinoLCD\test\Pain Drain\libraries\lvgl\src\widgets\../core/lv_obj_style_gen.h ****     lv_style_value_t v = lv_obj_get_style_prop(obj, part, LV_STYLE_TRANSLATE_Y);
  76:..\..\..\arduinoLCD\test\Pain Drain\libraries\lvgl\src\widgets\../core/lv_obj_style_gen.h ****     return (lv_coord_t)v.num;
  77:..\..\..\arduinoLCD\test\Pain Drain\libraries\lvgl\src\widgets\../core/lv_obj_style_gen.h **** }
  78:..\..\..\arduinoLCD\test\Pain Drain\libraries\lvgl\src\widgets\../core/lv_obj_style_gen.h **** 
  79:..\..\..\arduinoLCD\test\Pain Drain\libraries\lvgl\src\widgets\../core/lv_obj_style_gen.h **** static inline lv_coord_t lv_obj_get_style_transform_zoom(const struct _lv_obj_t * obj, uint32_t par
  80:..\..\..\arduinoLCD\test\Pain Drain\libraries\lvgl\src\widgets\../core/lv_obj_style_gen.h **** {
  81:..\..\..\arduinoLCD\test\Pain Drain\libraries\lvgl\src\widgets\../core/lv_obj_style_gen.h ****     lv_style_value_t v = lv_obj_get_style_prop(obj, part, LV_STYLE_TRANSFORM_ZOOM);
  82:..\..\..\arduinoLCD\test\Pain Drain\libraries\lvgl\src\widgets\../core/lv_obj_style_gen.h ****     return (lv_coord_t)v.num;
  83:..\..\..\arduinoLCD\test\Pain Drain\libraries\lvgl\src\widgets\../core/lv_obj_style_gen.h **** }
  84:..\..\..\arduinoLCD\test\Pain Drain\libraries\lvgl\src\widgets\../core/lv_obj_style_gen.h **** 
  85:..\..\..\arduinoLCD\test\Pain Drain\libraries\lvgl\src\widgets\../core/lv_obj_style_gen.h **** static inline lv_coord_t lv_obj_get_style_transform_angle(const struct _lv_obj_t * obj, uint32_t pa
  86:..\..\..\arduinoLCD\test\Pain Drain\libraries\lvgl\src\widgets\../core/lv_obj_style_gen.h **** {
ARM GAS  C:\Users\haske\AppData\Local\Temp\cc1ymag8.s 			page 13


  87:..\..\..\arduinoLCD\test\Pain Drain\libraries\lvgl\src\widgets\../core/lv_obj_style_gen.h ****     lv_style_value_t v = lv_obj_get_style_prop(obj, part, LV_STYLE_TRANSFORM_ANGLE);
  88:..\..\..\arduinoLCD\test\Pain Drain\libraries\lvgl\src\widgets\../core/lv_obj_style_gen.h ****     return (lv_coord_t)v.num;
  89:..\..\..\arduinoLCD\test\Pain Drain\libraries\lvgl\src\widgets\../core/lv_obj_style_gen.h **** }
  90:..\..\..\arduinoLCD\test\Pain Drain\libraries\lvgl\src\widgets\../core/lv_obj_style_gen.h **** 
  91:..\..\..\arduinoLCD\test\Pain Drain\libraries\lvgl\src\widgets\../core/lv_obj_style_gen.h **** static inline lv_coord_t lv_obj_get_style_transform_pivot_x(const struct _lv_obj_t * obj, uint32_t 
  92:..\..\..\arduinoLCD\test\Pain Drain\libraries\lvgl\src\widgets\../core/lv_obj_style_gen.h **** {
  93:..\..\..\arduinoLCD\test\Pain Drain\libraries\lvgl\src\widgets\../core/lv_obj_style_gen.h ****     lv_style_value_t v = lv_obj_get_style_prop(obj, part, LV_STYLE_TRANSFORM_PIVOT_X);
  94:..\..\..\arduinoLCD\test\Pain Drain\libraries\lvgl\src\widgets\../core/lv_obj_style_gen.h ****     return (lv_coord_t)v.num;
  95:..\..\..\arduinoLCD\test\Pain Drain\libraries\lvgl\src\widgets\../core/lv_obj_style_gen.h **** }
  96:..\..\..\arduinoLCD\test\Pain Drain\libraries\lvgl\src\widgets\../core/lv_obj_style_gen.h **** 
  97:..\..\..\arduinoLCD\test\Pain Drain\libraries\lvgl\src\widgets\../core/lv_obj_style_gen.h **** static inline lv_coord_t lv_obj_get_style_transform_pivot_y(const struct _lv_obj_t * obj, uint32_t 
  98:..\..\..\arduinoLCD\test\Pain Drain\libraries\lvgl\src\widgets\../core/lv_obj_style_gen.h **** {
  99:..\..\..\arduinoLCD\test\Pain Drain\libraries\lvgl\src\widgets\../core/lv_obj_style_gen.h ****     lv_style_value_t v = lv_obj_get_style_prop(obj, part, LV_STYLE_TRANSFORM_PIVOT_Y);
 100:..\..\..\arduinoLCD\test\Pain Drain\libraries\lvgl\src\widgets\../core/lv_obj_style_gen.h ****     return (lv_coord_t)v.num;
 101:..\..\..\arduinoLCD\test\Pain Drain\libraries\lvgl\src\widgets\../core/lv_obj_style_gen.h **** }
 102:..\..\..\arduinoLCD\test\Pain Drain\libraries\lvgl\src\widgets\../core/lv_obj_style_gen.h **** 
 103:..\..\..\arduinoLCD\test\Pain Drain\libraries\lvgl\src\widgets\../core/lv_obj_style_gen.h **** static inline lv_coord_t lv_obj_get_style_pad_top(const struct _lv_obj_t * obj, uint32_t part)
 104:..\..\..\arduinoLCD\test\Pain Drain\libraries\lvgl\src\widgets\../core/lv_obj_style_gen.h **** {
 105:..\..\..\arduinoLCD\test\Pain Drain\libraries\lvgl\src\widgets\../core/lv_obj_style_gen.h ****     lv_style_value_t v = lv_obj_get_style_prop(obj, part, LV_STYLE_PAD_TOP);
 106:..\..\..\arduinoLCD\test\Pain Drain\libraries\lvgl\src\widgets\../core/lv_obj_style_gen.h ****     return (lv_coord_t)v.num;
 107:..\..\..\arduinoLCD\test\Pain Drain\libraries\lvgl\src\widgets\../core/lv_obj_style_gen.h **** }
 108:..\..\..\arduinoLCD\test\Pain Drain\libraries\lvgl\src\widgets\../core/lv_obj_style_gen.h **** 
 109:..\..\..\arduinoLCD\test\Pain Drain\libraries\lvgl\src\widgets\../core/lv_obj_style_gen.h **** static inline lv_coord_t lv_obj_get_style_pad_bottom(const struct _lv_obj_t * obj, uint32_t part)
 110:..\..\..\arduinoLCD\test\Pain Drain\libraries\lvgl\src\widgets\../core/lv_obj_style_gen.h **** {
 111:..\..\..\arduinoLCD\test\Pain Drain\libraries\lvgl\src\widgets\../core/lv_obj_style_gen.h ****     lv_style_value_t v = lv_obj_get_style_prop(obj, part, LV_STYLE_PAD_BOTTOM);
 112:..\..\..\arduinoLCD\test\Pain Drain\libraries\lvgl\src\widgets\../core/lv_obj_style_gen.h ****     return (lv_coord_t)v.num;
 113:..\..\..\arduinoLCD\test\Pain Drain\libraries\lvgl\src\widgets\../core/lv_obj_style_gen.h **** }
 114:..\..\..\arduinoLCD\test\Pain Drain\libraries\lvgl\src\widgets\../core/lv_obj_style_gen.h **** 
 115:..\..\..\arduinoLCD\test\Pain Drain\libraries\lvgl\src\widgets\../core/lv_obj_style_gen.h **** static inline lv_coord_t lv_obj_get_style_pad_left(const struct _lv_obj_t * obj, uint32_t part)
 116:..\..\..\arduinoLCD\test\Pain Drain\libraries\lvgl\src\widgets\../core/lv_obj_style_gen.h **** {
 117:..\..\..\arduinoLCD\test\Pain Drain\libraries\lvgl\src\widgets\../core/lv_obj_style_gen.h ****     lv_style_value_t v = lv_obj_get_style_prop(obj, part, LV_STYLE_PAD_LEFT);
 144              		.loc 2 117 0
 145 004e C026     		movs	r6, #192
 146 0050 B602     		lsls	r6, r6, #10
 147 0052 1222     		movs	r2, #18
 148 0054 3100     		movs	r1, r6
 149 0056 2800     		movs	r0, r5
 150              	.LVL13:
 151 0058 FFF7FEFF 		bl	lv_obj_get_style_prop
 152              	.LVL14:
 153 005c 8346     		mov	fp, r0
 154              	.LVL15:
 155              	.LBE84:
 156              	.LBE83:
 157              	.LBB85:
 158              	.LBB86:
 118:..\..\..\arduinoLCD\test\Pain Drain\libraries\lvgl\src\widgets\../core/lv_obj_style_gen.h ****     return (lv_coord_t)v.num;
 119:..\..\..\arduinoLCD\test\Pain Drain\libraries\lvgl\src\widgets\../core/lv_obj_style_gen.h **** }
 120:..\..\..\arduinoLCD\test\Pain Drain\libraries\lvgl\src\widgets\../core/lv_obj_style_gen.h **** 
 121:..\..\..\arduinoLCD\test\Pain Drain\libraries\lvgl\src\widgets\../core/lv_obj_style_gen.h **** static inline lv_coord_t lv_obj_get_style_pad_right(const struct _lv_obj_t * obj, uint32_t part)
 122:..\..\..\arduinoLCD\test\Pain Drain\libraries\lvgl\src\widgets\../core/lv_obj_style_gen.h **** {
 123:..\..\..\arduinoLCD\test\Pain Drain\libraries\lvgl\src\widgets\../core/lv_obj_style_gen.h ****     lv_style_value_t v = lv_obj_get_style_prop(obj, part, LV_STYLE_PAD_RIGHT);
 159              		.loc 2 123 0
 160 005e 1322     		movs	r2, #19
 161 0060 3100     		movs	r1, r6
 162 0062 2800     		movs	r0, r5
 163 0064 FFF7FEFF 		bl	lv_obj_get_style_prop
ARM GAS  C:\Users\haske\AppData\Local\Temp\cc1ymag8.s 			page 14


 164              	.LVL16:
 165 0068 8146     		mov	r9, r0
 166              	.LVL17:
 167              	.LBE86:
 168              	.LBE85:
 169              	.LBB87:
 170              	.LBB88:
 105:..\..\..\arduinoLCD\test\Pain Drain\libraries\lvgl\src\widgets\../core/lv_obj_style_gen.h ****     return (lv_coord_t)v.num;
 171              		.loc 2 105 0
 172 006a 1022     		movs	r2, #16
 173 006c 3100     		movs	r1, r6
 174 006e 2800     		movs	r0, r5
 175 0070 FFF7FEFF 		bl	lv_obj_get_style_prop
 176              	.LVL18:
 177 0074 8246     		mov	r10, r0
 178              	.LVL19:
 179              	.LBE88:
 180              	.LBE87:
 181              	.LBB89:
 182              	.LBB90:
 111:..\..\..\arduinoLCD\test\Pain Drain\libraries\lvgl\src\widgets\../core/lv_obj_style_gen.h ****     return (lv_coord_t)v.num;
 183              		.loc 2 111 0
 184 0076 1122     		movs	r2, #17
 185 0078 3100     		movs	r1, r6
 186 007a 2800     		movs	r0, r5
 187 007c FFF7FEFF 		bl	lv_obj_get_style_prop
 188              	.LVL20:
 189 0080 8046     		mov	r8, r0
 190              	.LVL21:
 191              	.LBE90:
 192              	.LBE89:
 193              	.LBB91:
 194              	.LBB92:
  57:..\..\..\arduinoLCD\test\Pain Drain\libraries\lvgl\src\widgets\../core/lv_obj_style_gen.h ****     return (lv_coord_t)v.num;
 195              		.loc 2 57 0
 196 0082 6822     		movs	r2, #104
 197 0084 3100     		movs	r1, r6
 198 0086 2800     		movs	r0, r5
 199 0088 FFF7FEFF 		bl	lv_obj_get_style_prop
 200              	.LVL22:
 201 008c 0700     		movs	r7, r0
 202              	.LVL23:
 203              	.LBE92:
 204              	.LBE91:
 205              	.LBB93:
 206              	.LBB94:
  63:..\..\..\arduinoLCD\test\Pain Drain\libraries\lvgl\src\widgets\../core/lv_obj_style_gen.h ****     return (lv_coord_t)v.num;
 207              		.loc 2 63 0
 208 008e 6922     		movs	r2, #105
 209 0090 3100     		movs	r1, r6
 210 0092 2800     		movs	r0, r5
 211 0094 FFF7FEFF 		bl	lv_obj_get_style_prop
 212              	.LVL24:
 213              	.LBE94:
 214              	.LBE93:
 436:..\..\..\arduinoLCD\test\Pain Drain\libraries\lvgl\src\widgets/lv_slider.c ****     knob_area->x2 += knob_right + transf_w;
 215              		.loc 1 436 0
ARM GAS  C:\Users\haske\AppData\Local\Temp\cc1ymag8.s 			page 15


 216 0098 BFB2     		uxth	r7, r7
 217              	.LVL25:
 218 009a 5B46     		mov	r3, fp
 219 009c FA18     		adds	r2, r7, r3
 220 009e 2388     		ldrh	r3, [r4]
 221 00a0 9B1A     		subs	r3, r3, r2
 222 00a2 2380     		strh	r3, [r4]
 223              	.LVL26:
 437:..\..\..\arduinoLCD\test\Pain Drain\libraries\lvgl\src\widgets/lv_slider.c ****     knob_area->y1 -= knob_top + transf_h;
 224              		.loc 1 437 0
 225 00a4 4F44     		add	r7, r7, r9
 226 00a6 A388     		ldrh	r3, [r4, #4]
 227 00a8 DF19     		adds	r7, r3, r7
 228 00aa A780     		strh	r7, [r4, #4]
 229              	.LVL27:
 438:..\..\..\arduinoLCD\test\Pain Drain\libraries\lvgl\src\widgets/lv_slider.c ****     knob_area->y2 += knob_bottom + transf_h;
 230              		.loc 1 438 0
 231 00ac 80B2     		uxth	r0, r0
 232              	.LVL28:
 233 00ae 5346     		mov	r3, r10
 234 00b0 C218     		adds	r2, r0, r3
 235 00b2 6388     		ldrh	r3, [r4, #2]
 236 00b4 9B1A     		subs	r3, r3, r2
 237 00b6 6380     		strh	r3, [r4, #2]
 238              	.LVL29:
 439:..\..\..\arduinoLCD\test\Pain Drain\libraries\lvgl\src\widgets/lv_slider.c **** }
 239              		.loc 1 439 0
 240 00b8 4044     		add	r0, r0, r8
 241 00ba E388     		ldrh	r3, [r4, #6]
 242 00bc 1818     		adds	r0, r3, r0
 243 00be E080     		strh	r0, [r4, #6]
 440:..\..\..\arduinoLCD\test\Pain Drain\libraries\lvgl\src\widgets/lv_slider.c **** 
 244              		.loc 1 440 0
 245              		@ sp needed
 246              	.LVL30:
 247              	.LVL31:
 248              	.LVL32:
 249              	.LVL33:
 250              	.LVL34:
 251              	.LVL35:
 252 00c0 3CBC     		pop	{r2, r3, r4, r5}
 253 00c2 9046     		mov	r8, r2
 254 00c4 9946     		mov	r9, r3
 255 00c6 A246     		mov	r10, r4
 256 00c8 AB46     		mov	fp, r5
 257 00ca F8BD     		pop	{r3, r4, r5, r6, r7, pc}
 258              		.cfi_endproc
 259              	.LFE179:
 260              		.size	position_knob, .-position_knob
 261              		.section	.text.draw_knob,"ax",%progbits
 262              		.align	2
 263              		.code	16
 264              		.thumb_func
 265              		.type	draw_knob, %function
 266              	draw_knob:
 267              	.LFB178:
 333:..\..\..\arduinoLCD\test\Pain Drain\libraries\lvgl\src\widgets/lv_slider.c ****     lv_obj_t * obj = lv_event_get_target(e);
ARM GAS  C:\Users\haske\AppData\Local\Temp\cc1ymag8.s 			page 16


 268              		.loc 1 333 0
 269              		.cfi_startproc
 270              		@ args = 0, pretend = 0, frame = 208
 271              		@ frame_needed = 0, uses_anonymous_args = 0
 272              	.LVL36:
 273 0000 F0B5     		push	{r4, r5, r6, r7, lr}
 274              		.cfi_def_cfa_offset 20
 275              		.cfi_offset 4, -20
 276              		.cfi_offset 5, -16
 277              		.cfi_offset 6, -12
 278              		.cfi_offset 7, -8
 279              		.cfi_offset 14, -4
 280 0002 5F46     		mov	r7, fp
 281 0004 5646     		mov	r6, r10
 282 0006 4546     		mov	r5, r8
 283 0008 E0B4     		push	{r5, r6, r7}
 284              		.cfi_def_cfa_offset 32
 285              		.cfi_offset 8, -32
 286              		.cfi_offset 10, -28
 287              		.cfi_offset 11, -24
 288 000a B4B0     		sub	sp, sp, #208
 289              		.cfi_def_cfa_offset 240
 290 000c 0500     		movs	r5, r0
 334:..\..\..\arduinoLCD\test\Pain Drain\libraries\lvgl\src\widgets/lv_slider.c ****     lv_slider_t * slider = (lv_slider_t *)obj;
 291              		.loc 1 334 0
 292 000e FFF7FEFF 		bl	lv_event_get_target
 293              	.LVL37:
 294 0012 0400     		movs	r4, r0
 295              	.LVL38:
 336:..\..\..\arduinoLCD\test\Pain Drain\libraries\lvgl\src\widgets/lv_slider.c **** 
 296              		.loc 1 336 0
 297 0014 2800     		movs	r0, r5
 298              	.LVL39:
 299 0016 FFF7FEFF 		bl	lv_event_get_draw_ctx
 300              	.LVL40:
 301 001a 0190     		str	r0, [sp, #4]
 302              	.LVL41:
 303              	.LBB95:
 304              	.LBB96:
 124:..\..\..\arduinoLCD\test\Pain Drain\libraries\lvgl\src\widgets\../core/lv_obj_style_gen.h ****     return (lv_coord_t)v.num;
 125:..\..\..\arduinoLCD\test\Pain Drain\libraries\lvgl\src\widgets\../core/lv_obj_style_gen.h **** }
 126:..\..\..\arduinoLCD\test\Pain Drain\libraries\lvgl\src\widgets\../core/lv_obj_style_gen.h **** 
 127:..\..\..\arduinoLCD\test\Pain Drain\libraries\lvgl\src\widgets\../core/lv_obj_style_gen.h **** static inline lv_coord_t lv_obj_get_style_pad_row(const struct _lv_obj_t * obj, uint32_t part)
 128:..\..\..\arduinoLCD\test\Pain Drain\libraries\lvgl\src\widgets\../core/lv_obj_style_gen.h **** {
 129:..\..\..\arduinoLCD\test\Pain Drain\libraries\lvgl\src\widgets\../core/lv_obj_style_gen.h ****     lv_style_value_t v = lv_obj_get_style_prop(obj, part, LV_STYLE_PAD_ROW);
 130:..\..\..\arduinoLCD\test\Pain Drain\libraries\lvgl\src\widgets\../core/lv_obj_style_gen.h ****     return (lv_coord_t)v.num;
 131:..\..\..\arduinoLCD\test\Pain Drain\libraries\lvgl\src\widgets\../core/lv_obj_style_gen.h **** }
 132:..\..\..\arduinoLCD\test\Pain Drain\libraries\lvgl\src\widgets\../core/lv_obj_style_gen.h **** 
 133:..\..\..\arduinoLCD\test\Pain Drain\libraries\lvgl\src\widgets\../core/lv_obj_style_gen.h **** static inline lv_coord_t lv_obj_get_style_pad_column(const struct _lv_obj_t * obj, uint32_t part)
 134:..\..\..\arduinoLCD\test\Pain Drain\libraries\lvgl\src\widgets\../core/lv_obj_style_gen.h **** {
 135:..\..\..\arduinoLCD\test\Pain Drain\libraries\lvgl\src\widgets\../core/lv_obj_style_gen.h ****     lv_style_value_t v = lv_obj_get_style_prop(obj, part, LV_STYLE_PAD_COLUMN);
 136:..\..\..\arduinoLCD\test\Pain Drain\libraries\lvgl\src\widgets\../core/lv_obj_style_gen.h ****     return (lv_coord_t)v.num;
 137:..\..\..\arduinoLCD\test\Pain Drain\libraries\lvgl\src\widgets\../core/lv_obj_style_gen.h **** }
 138:..\..\..\arduinoLCD\test\Pain Drain\libraries\lvgl\src\widgets\../core/lv_obj_style_gen.h **** 
 139:..\..\..\arduinoLCD\test\Pain Drain\libraries\lvgl\src\widgets\../core/lv_obj_style_gen.h **** static inline lv_color_t lv_obj_get_style_bg_color(const struct _lv_obj_t * obj, uint32_t part)
 140:..\..\..\arduinoLCD\test\Pain Drain\libraries\lvgl\src\widgets\../core/lv_obj_style_gen.h **** {
 141:..\..\..\arduinoLCD\test\Pain Drain\libraries\lvgl\src\widgets\../core/lv_obj_style_gen.h ****     lv_style_value_t v = lv_obj_get_style_prop(obj, part, LV_STYLE_BG_COLOR);
ARM GAS  C:\Users\haske\AppData\Local\Temp\cc1ymag8.s 			page 17


 142:..\..\..\arduinoLCD\test\Pain Drain\libraries\lvgl\src\widgets\../core/lv_obj_style_gen.h ****     return v.color;
 143:..\..\..\arduinoLCD\test\Pain Drain\libraries\lvgl\src\widgets\../core/lv_obj_style_gen.h **** }
 144:..\..\..\arduinoLCD\test\Pain Drain\libraries\lvgl\src\widgets\../core/lv_obj_style_gen.h **** 
 145:..\..\..\arduinoLCD\test\Pain Drain\libraries\lvgl\src\widgets\../core/lv_obj_style_gen.h **** static inline lv_color_t lv_obj_get_style_bg_color_filtered(const struct _lv_obj_t * obj, uint32_t 
 146:..\..\..\arduinoLCD\test\Pain Drain\libraries\lvgl\src\widgets\../core/lv_obj_style_gen.h **** {
 147:..\..\..\arduinoLCD\test\Pain Drain\libraries\lvgl\src\widgets\../core/lv_obj_style_gen.h ****     lv_style_value_t v = _lv_obj_style_apply_color_filter(obj, part, lv_obj_get_style_prop(obj, par
 148:..\..\..\arduinoLCD\test\Pain Drain\libraries\lvgl\src\widgets\../core/lv_obj_style_gen.h ****     return v.color;
 149:..\..\..\arduinoLCD\test\Pain Drain\libraries\lvgl\src\widgets\../core/lv_obj_style_gen.h **** }
 150:..\..\..\arduinoLCD\test\Pain Drain\libraries\lvgl\src\widgets\../core/lv_obj_style_gen.h **** 
 151:..\..\..\arduinoLCD\test\Pain Drain\libraries\lvgl\src\widgets\../core/lv_obj_style_gen.h **** static inline lv_opa_t lv_obj_get_style_bg_opa(const struct _lv_obj_t * obj, uint32_t part)
 152:..\..\..\arduinoLCD\test\Pain Drain\libraries\lvgl\src\widgets\../core/lv_obj_style_gen.h **** {
 153:..\..\..\arduinoLCD\test\Pain Drain\libraries\lvgl\src\widgets\../core/lv_obj_style_gen.h ****     lv_style_value_t v = lv_obj_get_style_prop(obj, part, LV_STYLE_BG_OPA);
 154:..\..\..\arduinoLCD\test\Pain Drain\libraries\lvgl\src\widgets\../core/lv_obj_style_gen.h ****     return (lv_opa_t)v.num;
 155:..\..\..\arduinoLCD\test\Pain Drain\libraries\lvgl\src\widgets\../core/lv_obj_style_gen.h **** }
 156:..\..\..\arduinoLCD\test\Pain Drain\libraries\lvgl\src\widgets\../core/lv_obj_style_gen.h **** 
 157:..\..\..\arduinoLCD\test\Pain Drain\libraries\lvgl\src\widgets\../core/lv_obj_style_gen.h **** static inline lv_color_t lv_obj_get_style_bg_grad_color(const struct _lv_obj_t * obj, uint32_t part
 158:..\..\..\arduinoLCD\test\Pain Drain\libraries\lvgl\src\widgets\../core/lv_obj_style_gen.h **** {
 159:..\..\..\arduinoLCD\test\Pain Drain\libraries\lvgl\src\widgets\../core/lv_obj_style_gen.h ****     lv_style_value_t v = lv_obj_get_style_prop(obj, part, LV_STYLE_BG_GRAD_COLOR);
 160:..\..\..\arduinoLCD\test\Pain Drain\libraries\lvgl\src\widgets\../core/lv_obj_style_gen.h ****     return v.color;
 161:..\..\..\arduinoLCD\test\Pain Drain\libraries\lvgl\src\widgets\../core/lv_obj_style_gen.h **** }
 162:..\..\..\arduinoLCD\test\Pain Drain\libraries\lvgl\src\widgets\../core/lv_obj_style_gen.h **** 
 163:..\..\..\arduinoLCD\test\Pain Drain\libraries\lvgl\src\widgets\../core/lv_obj_style_gen.h **** static inline lv_color_t lv_obj_get_style_bg_grad_color_filtered(const struct _lv_obj_t * obj, uint
 164:..\..\..\arduinoLCD\test\Pain Drain\libraries\lvgl\src\widgets\../core/lv_obj_style_gen.h **** {
 165:..\..\..\arduinoLCD\test\Pain Drain\libraries\lvgl\src\widgets\../core/lv_obj_style_gen.h ****     lv_style_value_t v = _lv_obj_style_apply_color_filter(obj, part, lv_obj_get_style_prop(obj, par
 166:..\..\..\arduinoLCD\test\Pain Drain\libraries\lvgl\src\widgets\../core/lv_obj_style_gen.h ****     return v.color;
 167:..\..\..\arduinoLCD\test\Pain Drain\libraries\lvgl\src\widgets\../core/lv_obj_style_gen.h **** }
 168:..\..\..\arduinoLCD\test\Pain Drain\libraries\lvgl\src\widgets\../core/lv_obj_style_gen.h **** 
 169:..\..\..\arduinoLCD\test\Pain Drain\libraries\lvgl\src\widgets\../core/lv_obj_style_gen.h **** static inline lv_grad_dir_t lv_obj_get_style_bg_grad_dir(const struct _lv_obj_t * obj, uint32_t par
 170:..\..\..\arduinoLCD\test\Pain Drain\libraries\lvgl\src\widgets\../core/lv_obj_style_gen.h **** {
 171:..\..\..\arduinoLCD\test\Pain Drain\libraries\lvgl\src\widgets\../core/lv_obj_style_gen.h ****     lv_style_value_t v = lv_obj_get_style_prop(obj, part, LV_STYLE_BG_GRAD_DIR);
 172:..\..\..\arduinoLCD\test\Pain Drain\libraries\lvgl\src\widgets\../core/lv_obj_style_gen.h ****     return (lv_grad_dir_t)v.num;
 173:..\..\..\arduinoLCD\test\Pain Drain\libraries\lvgl\src\widgets\../core/lv_obj_style_gen.h **** }
 174:..\..\..\arduinoLCD\test\Pain Drain\libraries\lvgl\src\widgets\../core/lv_obj_style_gen.h **** 
 175:..\..\..\arduinoLCD\test\Pain Drain\libraries\lvgl\src\widgets\../core/lv_obj_style_gen.h **** static inline lv_coord_t lv_obj_get_style_bg_main_stop(const struct _lv_obj_t * obj, uint32_t part)
 176:..\..\..\arduinoLCD\test\Pain Drain\libraries\lvgl\src\widgets\../core/lv_obj_style_gen.h **** {
 177:..\..\..\arduinoLCD\test\Pain Drain\libraries\lvgl\src\widgets\../core/lv_obj_style_gen.h ****     lv_style_value_t v = lv_obj_get_style_prop(obj, part, LV_STYLE_BG_MAIN_STOP);
 178:..\..\..\arduinoLCD\test\Pain Drain\libraries\lvgl\src\widgets\../core/lv_obj_style_gen.h ****     return (lv_coord_t)v.num;
 179:..\..\..\arduinoLCD\test\Pain Drain\libraries\lvgl\src\widgets\../core/lv_obj_style_gen.h **** }
 180:..\..\..\arduinoLCD\test\Pain Drain\libraries\lvgl\src\widgets\../core/lv_obj_style_gen.h **** 
 181:..\..\..\arduinoLCD\test\Pain Drain\libraries\lvgl\src\widgets\../core/lv_obj_style_gen.h **** static inline lv_coord_t lv_obj_get_style_bg_grad_stop(const struct _lv_obj_t * obj, uint32_t part)
 182:..\..\..\arduinoLCD\test\Pain Drain\libraries\lvgl\src\widgets\../core/lv_obj_style_gen.h **** {
 183:..\..\..\arduinoLCD\test\Pain Drain\libraries\lvgl\src\widgets\../core/lv_obj_style_gen.h ****     lv_style_value_t v = lv_obj_get_style_prop(obj, part, LV_STYLE_BG_GRAD_STOP);
 184:..\..\..\arduinoLCD\test\Pain Drain\libraries\lvgl\src\widgets\../core/lv_obj_style_gen.h ****     return (lv_coord_t)v.num;
 185:..\..\..\arduinoLCD\test\Pain Drain\libraries\lvgl\src\widgets\../core/lv_obj_style_gen.h **** }
 186:..\..\..\arduinoLCD\test\Pain Drain\libraries\lvgl\src\widgets\../core/lv_obj_style_gen.h **** 
 187:..\..\..\arduinoLCD\test\Pain Drain\libraries\lvgl\src\widgets\../core/lv_obj_style_gen.h **** static inline const lv_grad_dsc_t * lv_obj_get_style_bg_grad(const struct _lv_obj_t * obj, uint32_t
 188:..\..\..\arduinoLCD\test\Pain Drain\libraries\lvgl\src\widgets\../core/lv_obj_style_gen.h **** {
 189:..\..\..\arduinoLCD\test\Pain Drain\libraries\lvgl\src\widgets\../core/lv_obj_style_gen.h ****     lv_style_value_t v = lv_obj_get_style_prop(obj, part, LV_STYLE_BG_GRAD);
 190:..\..\..\arduinoLCD\test\Pain Drain\libraries\lvgl\src\widgets\../core/lv_obj_style_gen.h ****     return (const lv_grad_dsc_t *)v.ptr;
 191:..\..\..\arduinoLCD\test\Pain Drain\libraries\lvgl\src\widgets\../core/lv_obj_style_gen.h **** }
 192:..\..\..\arduinoLCD\test\Pain Drain\libraries\lvgl\src\widgets\../core/lv_obj_style_gen.h **** 
 193:..\..\..\arduinoLCD\test\Pain Drain\libraries\lvgl\src\widgets\../core/lv_obj_style_gen.h **** static inline lv_dither_mode_t lv_obj_get_style_bg_dither_mode(const struct _lv_obj_t * obj, uint32
 194:..\..\..\arduinoLCD\test\Pain Drain\libraries\lvgl\src\widgets\../core/lv_obj_style_gen.h **** {
 195:..\..\..\arduinoLCD\test\Pain Drain\libraries\lvgl\src\widgets\../core/lv_obj_style_gen.h ****     lv_style_value_t v = lv_obj_get_style_prop(obj, part, LV_STYLE_BG_DITHER_MODE);
 196:..\..\..\arduinoLCD\test\Pain Drain\libraries\lvgl\src\widgets\../core/lv_obj_style_gen.h ****     return (lv_dither_mode_t)v.num;
 197:..\..\..\arduinoLCD\test\Pain Drain\libraries\lvgl\src\widgets\../core/lv_obj_style_gen.h **** }
 198:..\..\..\arduinoLCD\test\Pain Drain\libraries\lvgl\src\widgets\../core/lv_obj_style_gen.h **** 
ARM GAS  C:\Users\haske\AppData\Local\Temp\cc1ymag8.s 			page 18


 199:..\..\..\arduinoLCD\test\Pain Drain\libraries\lvgl\src\widgets\../core/lv_obj_style_gen.h **** static inline const void * lv_obj_get_style_bg_img_src(const struct _lv_obj_t * obj, uint32_t part)
 200:..\..\..\arduinoLCD\test\Pain Drain\libraries\lvgl\src\widgets\../core/lv_obj_style_gen.h **** {
 201:..\..\..\arduinoLCD\test\Pain Drain\libraries\lvgl\src\widgets\../core/lv_obj_style_gen.h ****     lv_style_value_t v = lv_obj_get_style_prop(obj, part, LV_STYLE_BG_IMG_SRC);
 202:..\..\..\arduinoLCD\test\Pain Drain\libraries\lvgl\src\widgets\../core/lv_obj_style_gen.h ****     return (const void *)v.ptr;
 203:..\..\..\arduinoLCD\test\Pain Drain\libraries\lvgl\src\widgets\../core/lv_obj_style_gen.h **** }
 204:..\..\..\arduinoLCD\test\Pain Drain\libraries\lvgl\src\widgets\../core/lv_obj_style_gen.h **** 
 205:..\..\..\arduinoLCD\test\Pain Drain\libraries\lvgl\src\widgets\../core/lv_obj_style_gen.h **** static inline lv_opa_t lv_obj_get_style_bg_img_opa(const struct _lv_obj_t * obj, uint32_t part)
 206:..\..\..\arduinoLCD\test\Pain Drain\libraries\lvgl\src\widgets\../core/lv_obj_style_gen.h **** {
 207:..\..\..\arduinoLCD\test\Pain Drain\libraries\lvgl\src\widgets\../core/lv_obj_style_gen.h ****     lv_style_value_t v = lv_obj_get_style_prop(obj, part, LV_STYLE_BG_IMG_OPA);
 208:..\..\..\arduinoLCD\test\Pain Drain\libraries\lvgl\src\widgets\../core/lv_obj_style_gen.h ****     return (lv_opa_t)v.num;
 209:..\..\..\arduinoLCD\test\Pain Drain\libraries\lvgl\src\widgets\../core/lv_obj_style_gen.h **** }
 210:..\..\..\arduinoLCD\test\Pain Drain\libraries\lvgl\src\widgets\../core/lv_obj_style_gen.h **** 
 211:..\..\..\arduinoLCD\test\Pain Drain\libraries\lvgl\src\widgets\../core/lv_obj_style_gen.h **** static inline lv_color_t lv_obj_get_style_bg_img_recolor(const struct _lv_obj_t * obj, uint32_t par
 212:..\..\..\arduinoLCD\test\Pain Drain\libraries\lvgl\src\widgets\../core/lv_obj_style_gen.h **** {
 213:..\..\..\arduinoLCD\test\Pain Drain\libraries\lvgl\src\widgets\../core/lv_obj_style_gen.h ****     lv_style_value_t v = lv_obj_get_style_prop(obj, part, LV_STYLE_BG_IMG_RECOLOR);
 214:..\..\..\arduinoLCD\test\Pain Drain\libraries\lvgl\src\widgets\../core/lv_obj_style_gen.h ****     return v.color;
 215:..\..\..\arduinoLCD\test\Pain Drain\libraries\lvgl\src\widgets\../core/lv_obj_style_gen.h **** }
 216:..\..\..\arduinoLCD\test\Pain Drain\libraries\lvgl\src\widgets\../core/lv_obj_style_gen.h **** 
 217:..\..\..\arduinoLCD\test\Pain Drain\libraries\lvgl\src\widgets\../core/lv_obj_style_gen.h **** static inline lv_color_t lv_obj_get_style_bg_img_recolor_filtered(const struct _lv_obj_t * obj, uin
 218:..\..\..\arduinoLCD\test\Pain Drain\libraries\lvgl\src\widgets\../core/lv_obj_style_gen.h **** {
 219:..\..\..\arduinoLCD\test\Pain Drain\libraries\lvgl\src\widgets\../core/lv_obj_style_gen.h ****     lv_style_value_t v = _lv_obj_style_apply_color_filter(obj, part, lv_obj_get_style_prop(obj, par
 220:..\..\..\arduinoLCD\test\Pain Drain\libraries\lvgl\src\widgets\../core/lv_obj_style_gen.h ****     return v.color;
 221:..\..\..\arduinoLCD\test\Pain Drain\libraries\lvgl\src\widgets\../core/lv_obj_style_gen.h **** }
 222:..\..\..\arduinoLCD\test\Pain Drain\libraries\lvgl\src\widgets\../core/lv_obj_style_gen.h **** 
 223:..\..\..\arduinoLCD\test\Pain Drain\libraries\lvgl\src\widgets\../core/lv_obj_style_gen.h **** static inline lv_opa_t lv_obj_get_style_bg_img_recolor_opa(const struct _lv_obj_t * obj, uint32_t p
 224:..\..\..\arduinoLCD\test\Pain Drain\libraries\lvgl\src\widgets\../core/lv_obj_style_gen.h **** {
 225:..\..\..\arduinoLCD\test\Pain Drain\libraries\lvgl\src\widgets\../core/lv_obj_style_gen.h ****     lv_style_value_t v = lv_obj_get_style_prop(obj, part, LV_STYLE_BG_IMG_RECOLOR_OPA);
 226:..\..\..\arduinoLCD\test\Pain Drain\libraries\lvgl\src\widgets\../core/lv_obj_style_gen.h ****     return (lv_opa_t)v.num;
 227:..\..\..\arduinoLCD\test\Pain Drain\libraries\lvgl\src\widgets\../core/lv_obj_style_gen.h **** }
 228:..\..\..\arduinoLCD\test\Pain Drain\libraries\lvgl\src\widgets\../core/lv_obj_style_gen.h **** 
 229:..\..\..\arduinoLCD\test\Pain Drain\libraries\lvgl\src\widgets\../core/lv_obj_style_gen.h **** static inline bool lv_obj_get_style_bg_img_tiled(const struct _lv_obj_t * obj, uint32_t part)
 230:..\..\..\arduinoLCD\test\Pain Drain\libraries\lvgl\src\widgets\../core/lv_obj_style_gen.h **** {
 231:..\..\..\arduinoLCD\test\Pain Drain\libraries\lvgl\src\widgets\../core/lv_obj_style_gen.h ****     lv_style_value_t v = lv_obj_get_style_prop(obj, part, LV_STYLE_BG_IMG_TILED);
 232:..\..\..\arduinoLCD\test\Pain Drain\libraries\lvgl\src\widgets\../core/lv_obj_style_gen.h ****     return (bool)v.num;
 233:..\..\..\arduinoLCD\test\Pain Drain\libraries\lvgl\src\widgets\../core/lv_obj_style_gen.h **** }
 234:..\..\..\arduinoLCD\test\Pain Drain\libraries\lvgl\src\widgets\../core/lv_obj_style_gen.h **** 
 235:..\..\..\arduinoLCD\test\Pain Drain\libraries\lvgl\src\widgets\../core/lv_obj_style_gen.h **** static inline lv_color_t lv_obj_get_style_border_color(const struct _lv_obj_t * obj, uint32_t part)
 236:..\..\..\arduinoLCD\test\Pain Drain\libraries\lvgl\src\widgets\../core/lv_obj_style_gen.h **** {
 237:..\..\..\arduinoLCD\test\Pain Drain\libraries\lvgl\src\widgets\../core/lv_obj_style_gen.h ****     lv_style_value_t v = lv_obj_get_style_prop(obj, part, LV_STYLE_BORDER_COLOR);
 238:..\..\..\arduinoLCD\test\Pain Drain\libraries\lvgl\src\widgets\../core/lv_obj_style_gen.h ****     return v.color;
 239:..\..\..\arduinoLCD\test\Pain Drain\libraries\lvgl\src\widgets\../core/lv_obj_style_gen.h **** }
 240:..\..\..\arduinoLCD\test\Pain Drain\libraries\lvgl\src\widgets\../core/lv_obj_style_gen.h **** 
 241:..\..\..\arduinoLCD\test\Pain Drain\libraries\lvgl\src\widgets\../core/lv_obj_style_gen.h **** static inline lv_color_t lv_obj_get_style_border_color_filtered(const struct _lv_obj_t * obj, uint3
 242:..\..\..\arduinoLCD\test\Pain Drain\libraries\lvgl\src\widgets\../core/lv_obj_style_gen.h **** {
 243:..\..\..\arduinoLCD\test\Pain Drain\libraries\lvgl\src\widgets\../core/lv_obj_style_gen.h ****     lv_style_value_t v = _lv_obj_style_apply_color_filter(obj, part, lv_obj_get_style_prop(obj, par
 244:..\..\..\arduinoLCD\test\Pain Drain\libraries\lvgl\src\widgets\../core/lv_obj_style_gen.h ****     return v.color;
 245:..\..\..\arduinoLCD\test\Pain Drain\libraries\lvgl\src\widgets\../core/lv_obj_style_gen.h **** }
 246:..\..\..\arduinoLCD\test\Pain Drain\libraries\lvgl\src\widgets\../core/lv_obj_style_gen.h **** 
 247:..\..\..\arduinoLCD\test\Pain Drain\libraries\lvgl\src\widgets\../core/lv_obj_style_gen.h **** static inline lv_opa_t lv_obj_get_style_border_opa(const struct _lv_obj_t * obj, uint32_t part)
 248:..\..\..\arduinoLCD\test\Pain Drain\libraries\lvgl\src\widgets\../core/lv_obj_style_gen.h **** {
 249:..\..\..\arduinoLCD\test\Pain Drain\libraries\lvgl\src\widgets\../core/lv_obj_style_gen.h ****     lv_style_value_t v = lv_obj_get_style_prop(obj, part, LV_STYLE_BORDER_OPA);
 250:..\..\..\arduinoLCD\test\Pain Drain\libraries\lvgl\src\widgets\../core/lv_obj_style_gen.h ****     return (lv_opa_t)v.num;
 251:..\..\..\arduinoLCD\test\Pain Drain\libraries\lvgl\src\widgets\../core/lv_obj_style_gen.h **** }
 252:..\..\..\arduinoLCD\test\Pain Drain\libraries\lvgl\src\widgets\../core/lv_obj_style_gen.h **** 
 253:..\..\..\arduinoLCD\test\Pain Drain\libraries\lvgl\src\widgets\../core/lv_obj_style_gen.h **** static inline lv_coord_t lv_obj_get_style_border_width(const struct _lv_obj_t * obj, uint32_t part)
 254:..\..\..\arduinoLCD\test\Pain Drain\libraries\lvgl\src\widgets\../core/lv_obj_style_gen.h **** {
 255:..\..\..\arduinoLCD\test\Pain Drain\libraries\lvgl\src\widgets\../core/lv_obj_style_gen.h ****     lv_style_value_t v = lv_obj_get_style_prop(obj, part, LV_STYLE_BORDER_WIDTH);
ARM GAS  C:\Users\haske\AppData\Local\Temp\cc1ymag8.s 			page 19


 256:..\..\..\arduinoLCD\test\Pain Drain\libraries\lvgl\src\widgets\../core/lv_obj_style_gen.h ****     return (lv_coord_t)v.num;
 257:..\..\..\arduinoLCD\test\Pain Drain\libraries\lvgl\src\widgets\../core/lv_obj_style_gen.h **** }
 258:..\..\..\arduinoLCD\test\Pain Drain\libraries\lvgl\src\widgets\../core/lv_obj_style_gen.h **** 
 259:..\..\..\arduinoLCD\test\Pain Drain\libraries\lvgl\src\widgets\../core/lv_obj_style_gen.h **** static inline lv_border_side_t lv_obj_get_style_border_side(const struct _lv_obj_t * obj, uint32_t 
 260:..\..\..\arduinoLCD\test\Pain Drain\libraries\lvgl\src\widgets\../core/lv_obj_style_gen.h **** {
 261:..\..\..\arduinoLCD\test\Pain Drain\libraries\lvgl\src\widgets\../core/lv_obj_style_gen.h ****     lv_style_value_t v = lv_obj_get_style_prop(obj, part, LV_STYLE_BORDER_SIDE);
 262:..\..\..\arduinoLCD\test\Pain Drain\libraries\lvgl\src\widgets\../core/lv_obj_style_gen.h ****     return (lv_border_side_t)v.num;
 263:..\..\..\arduinoLCD\test\Pain Drain\libraries\lvgl\src\widgets\../core/lv_obj_style_gen.h **** }
 264:..\..\..\arduinoLCD\test\Pain Drain\libraries\lvgl\src\widgets\../core/lv_obj_style_gen.h **** 
 265:..\..\..\arduinoLCD\test\Pain Drain\libraries\lvgl\src\widgets\../core/lv_obj_style_gen.h **** static inline bool lv_obj_get_style_border_post(const struct _lv_obj_t * obj, uint32_t part)
 266:..\..\..\arduinoLCD\test\Pain Drain\libraries\lvgl\src\widgets\../core/lv_obj_style_gen.h **** {
 267:..\..\..\arduinoLCD\test\Pain Drain\libraries\lvgl\src\widgets\../core/lv_obj_style_gen.h ****     lv_style_value_t v = lv_obj_get_style_prop(obj, part, LV_STYLE_BORDER_POST);
 268:..\..\..\arduinoLCD\test\Pain Drain\libraries\lvgl\src\widgets\../core/lv_obj_style_gen.h ****     return (bool)v.num;
 269:..\..\..\arduinoLCD\test\Pain Drain\libraries\lvgl\src\widgets\../core/lv_obj_style_gen.h **** }
 270:..\..\..\arduinoLCD\test\Pain Drain\libraries\lvgl\src\widgets\../core/lv_obj_style_gen.h **** 
 271:..\..\..\arduinoLCD\test\Pain Drain\libraries\lvgl\src\widgets\../core/lv_obj_style_gen.h **** static inline lv_coord_t lv_obj_get_style_outline_width(const struct _lv_obj_t * obj, uint32_t part
 272:..\..\..\arduinoLCD\test\Pain Drain\libraries\lvgl\src\widgets\../core/lv_obj_style_gen.h **** {
 273:..\..\..\arduinoLCD\test\Pain Drain\libraries\lvgl\src\widgets\../core/lv_obj_style_gen.h ****     lv_style_value_t v = lv_obj_get_style_prop(obj, part, LV_STYLE_OUTLINE_WIDTH);
 274:..\..\..\arduinoLCD\test\Pain Drain\libraries\lvgl\src\widgets\../core/lv_obj_style_gen.h ****     return (lv_coord_t)v.num;
 275:..\..\..\arduinoLCD\test\Pain Drain\libraries\lvgl\src\widgets\../core/lv_obj_style_gen.h **** }
 276:..\..\..\arduinoLCD\test\Pain Drain\libraries\lvgl\src\widgets\../core/lv_obj_style_gen.h **** 
 277:..\..\..\arduinoLCD\test\Pain Drain\libraries\lvgl\src\widgets\../core/lv_obj_style_gen.h **** static inline lv_color_t lv_obj_get_style_outline_color(const struct _lv_obj_t * obj, uint32_t part
 278:..\..\..\arduinoLCD\test\Pain Drain\libraries\lvgl\src\widgets\../core/lv_obj_style_gen.h **** {
 279:..\..\..\arduinoLCD\test\Pain Drain\libraries\lvgl\src\widgets\../core/lv_obj_style_gen.h ****     lv_style_value_t v = lv_obj_get_style_prop(obj, part, LV_STYLE_OUTLINE_COLOR);
 280:..\..\..\arduinoLCD\test\Pain Drain\libraries\lvgl\src\widgets\../core/lv_obj_style_gen.h ****     return v.color;
 281:..\..\..\arduinoLCD\test\Pain Drain\libraries\lvgl\src\widgets\../core/lv_obj_style_gen.h **** }
 282:..\..\..\arduinoLCD\test\Pain Drain\libraries\lvgl\src\widgets\../core/lv_obj_style_gen.h **** 
 283:..\..\..\arduinoLCD\test\Pain Drain\libraries\lvgl\src\widgets\../core/lv_obj_style_gen.h **** static inline lv_color_t lv_obj_get_style_outline_color_filtered(const struct _lv_obj_t * obj, uint
 284:..\..\..\arduinoLCD\test\Pain Drain\libraries\lvgl\src\widgets\../core/lv_obj_style_gen.h **** {
 285:..\..\..\arduinoLCD\test\Pain Drain\libraries\lvgl\src\widgets\../core/lv_obj_style_gen.h ****     lv_style_value_t v = _lv_obj_style_apply_color_filter(obj, part, lv_obj_get_style_prop(obj, par
 286:..\..\..\arduinoLCD\test\Pain Drain\libraries\lvgl\src\widgets\../core/lv_obj_style_gen.h ****     return v.color;
 287:..\..\..\arduinoLCD\test\Pain Drain\libraries\lvgl\src\widgets\../core/lv_obj_style_gen.h **** }
 288:..\..\..\arduinoLCD\test\Pain Drain\libraries\lvgl\src\widgets\../core/lv_obj_style_gen.h **** 
 289:..\..\..\arduinoLCD\test\Pain Drain\libraries\lvgl\src\widgets\../core/lv_obj_style_gen.h **** static inline lv_opa_t lv_obj_get_style_outline_opa(const struct _lv_obj_t * obj, uint32_t part)
 290:..\..\..\arduinoLCD\test\Pain Drain\libraries\lvgl\src\widgets\../core/lv_obj_style_gen.h **** {
 291:..\..\..\arduinoLCD\test\Pain Drain\libraries\lvgl\src\widgets\../core/lv_obj_style_gen.h ****     lv_style_value_t v = lv_obj_get_style_prop(obj, part, LV_STYLE_OUTLINE_OPA);
 292:..\..\..\arduinoLCD\test\Pain Drain\libraries\lvgl\src\widgets\../core/lv_obj_style_gen.h ****     return (lv_opa_t)v.num;
 293:..\..\..\arduinoLCD\test\Pain Drain\libraries\lvgl\src\widgets\../core/lv_obj_style_gen.h **** }
 294:..\..\..\arduinoLCD\test\Pain Drain\libraries\lvgl\src\widgets\../core/lv_obj_style_gen.h **** 
 295:..\..\..\arduinoLCD\test\Pain Drain\libraries\lvgl\src\widgets\../core/lv_obj_style_gen.h **** static inline lv_coord_t lv_obj_get_style_outline_pad(const struct _lv_obj_t * obj, uint32_t part)
 296:..\..\..\arduinoLCD\test\Pain Drain\libraries\lvgl\src\widgets\../core/lv_obj_style_gen.h **** {
 297:..\..\..\arduinoLCD\test\Pain Drain\libraries\lvgl\src\widgets\../core/lv_obj_style_gen.h ****     lv_style_value_t v = lv_obj_get_style_prop(obj, part, LV_STYLE_OUTLINE_PAD);
 298:..\..\..\arduinoLCD\test\Pain Drain\libraries\lvgl\src\widgets\../core/lv_obj_style_gen.h ****     return (lv_coord_t)v.num;
 299:..\..\..\arduinoLCD\test\Pain Drain\libraries\lvgl\src\widgets\../core/lv_obj_style_gen.h **** }
 300:..\..\..\arduinoLCD\test\Pain Drain\libraries\lvgl\src\widgets\../core/lv_obj_style_gen.h **** 
 301:..\..\..\arduinoLCD\test\Pain Drain\libraries\lvgl\src\widgets\../core/lv_obj_style_gen.h **** static inline lv_coord_t lv_obj_get_style_shadow_width(const struct _lv_obj_t * obj, uint32_t part)
 302:..\..\..\arduinoLCD\test\Pain Drain\libraries\lvgl\src\widgets\../core/lv_obj_style_gen.h **** {
 303:..\..\..\arduinoLCD\test\Pain Drain\libraries\lvgl\src\widgets\../core/lv_obj_style_gen.h ****     lv_style_value_t v = lv_obj_get_style_prop(obj, part, LV_STYLE_SHADOW_WIDTH);
 304:..\..\..\arduinoLCD\test\Pain Drain\libraries\lvgl\src\widgets\../core/lv_obj_style_gen.h ****     return (lv_coord_t)v.num;
 305:..\..\..\arduinoLCD\test\Pain Drain\libraries\lvgl\src\widgets\../core/lv_obj_style_gen.h **** }
 306:..\..\..\arduinoLCD\test\Pain Drain\libraries\lvgl\src\widgets\../core/lv_obj_style_gen.h **** 
 307:..\..\..\arduinoLCD\test\Pain Drain\libraries\lvgl\src\widgets\../core/lv_obj_style_gen.h **** static inline lv_coord_t lv_obj_get_style_shadow_ofs_x(const struct _lv_obj_t * obj, uint32_t part)
 308:..\..\..\arduinoLCD\test\Pain Drain\libraries\lvgl\src\widgets\../core/lv_obj_style_gen.h **** {
 309:..\..\..\arduinoLCD\test\Pain Drain\libraries\lvgl\src\widgets\../core/lv_obj_style_gen.h ****     lv_style_value_t v = lv_obj_get_style_prop(obj, part, LV_STYLE_SHADOW_OFS_X);
 310:..\..\..\arduinoLCD\test\Pain Drain\libraries\lvgl\src\widgets\../core/lv_obj_style_gen.h ****     return (lv_coord_t)v.num;
 311:..\..\..\arduinoLCD\test\Pain Drain\libraries\lvgl\src\widgets\../core/lv_obj_style_gen.h **** }
 312:..\..\..\arduinoLCD\test\Pain Drain\libraries\lvgl\src\widgets\../core/lv_obj_style_gen.h **** 
ARM GAS  C:\Users\haske\AppData\Local\Temp\cc1ymag8.s 			page 20


 313:..\..\..\arduinoLCD\test\Pain Drain\libraries\lvgl\src\widgets\../core/lv_obj_style_gen.h **** static inline lv_coord_t lv_obj_get_style_shadow_ofs_y(const struct _lv_obj_t * obj, uint32_t part)
 314:..\..\..\arduinoLCD\test\Pain Drain\libraries\lvgl\src\widgets\../core/lv_obj_style_gen.h **** {
 315:..\..\..\arduinoLCD\test\Pain Drain\libraries\lvgl\src\widgets\../core/lv_obj_style_gen.h ****     lv_style_value_t v = lv_obj_get_style_prop(obj, part, LV_STYLE_SHADOW_OFS_Y);
 316:..\..\..\arduinoLCD\test\Pain Drain\libraries\lvgl\src\widgets\../core/lv_obj_style_gen.h ****     return (lv_coord_t)v.num;
 317:..\..\..\arduinoLCD\test\Pain Drain\libraries\lvgl\src\widgets\../core/lv_obj_style_gen.h **** }
 318:..\..\..\arduinoLCD\test\Pain Drain\libraries\lvgl\src\widgets\../core/lv_obj_style_gen.h **** 
 319:..\..\..\arduinoLCD\test\Pain Drain\libraries\lvgl\src\widgets\../core/lv_obj_style_gen.h **** static inline lv_coord_t lv_obj_get_style_shadow_spread(const struct _lv_obj_t * obj, uint32_t part
 320:..\..\..\arduinoLCD\test\Pain Drain\libraries\lvgl\src\widgets\../core/lv_obj_style_gen.h **** {
 321:..\..\..\arduinoLCD\test\Pain Drain\libraries\lvgl\src\widgets\../core/lv_obj_style_gen.h ****     lv_style_value_t v = lv_obj_get_style_prop(obj, part, LV_STYLE_SHADOW_SPREAD);
 322:..\..\..\arduinoLCD\test\Pain Drain\libraries\lvgl\src\widgets\../core/lv_obj_style_gen.h ****     return (lv_coord_t)v.num;
 323:..\..\..\arduinoLCD\test\Pain Drain\libraries\lvgl\src\widgets\../core/lv_obj_style_gen.h **** }
 324:..\..\..\arduinoLCD\test\Pain Drain\libraries\lvgl\src\widgets\../core/lv_obj_style_gen.h **** 
 325:..\..\..\arduinoLCD\test\Pain Drain\libraries\lvgl\src\widgets\../core/lv_obj_style_gen.h **** static inline lv_color_t lv_obj_get_style_shadow_color(const struct _lv_obj_t * obj, uint32_t part)
 326:..\..\..\arduinoLCD\test\Pain Drain\libraries\lvgl\src\widgets\../core/lv_obj_style_gen.h **** {
 327:..\..\..\arduinoLCD\test\Pain Drain\libraries\lvgl\src\widgets\../core/lv_obj_style_gen.h ****     lv_style_value_t v = lv_obj_get_style_prop(obj, part, LV_STYLE_SHADOW_COLOR);
 328:..\..\..\arduinoLCD\test\Pain Drain\libraries\lvgl\src\widgets\../core/lv_obj_style_gen.h ****     return v.color;
 329:..\..\..\arduinoLCD\test\Pain Drain\libraries\lvgl\src\widgets\../core/lv_obj_style_gen.h **** }
 330:..\..\..\arduinoLCD\test\Pain Drain\libraries\lvgl\src\widgets\../core/lv_obj_style_gen.h **** 
 331:..\..\..\arduinoLCD\test\Pain Drain\libraries\lvgl\src\widgets\../core/lv_obj_style_gen.h **** static inline lv_color_t lv_obj_get_style_shadow_color_filtered(const struct _lv_obj_t * obj, uint3
 332:..\..\..\arduinoLCD\test\Pain Drain\libraries\lvgl\src\widgets\../core/lv_obj_style_gen.h **** {
 333:..\..\..\arduinoLCD\test\Pain Drain\libraries\lvgl\src\widgets\../core/lv_obj_style_gen.h ****     lv_style_value_t v = _lv_obj_style_apply_color_filter(obj, part, lv_obj_get_style_prop(obj, par
 334:..\..\..\arduinoLCD\test\Pain Drain\libraries\lvgl\src\widgets\../core/lv_obj_style_gen.h ****     return v.color;
 335:..\..\..\arduinoLCD\test\Pain Drain\libraries\lvgl\src\widgets\../core/lv_obj_style_gen.h **** }
 336:..\..\..\arduinoLCD\test\Pain Drain\libraries\lvgl\src\widgets\../core/lv_obj_style_gen.h **** 
 337:..\..\..\arduinoLCD\test\Pain Drain\libraries\lvgl\src\widgets\../core/lv_obj_style_gen.h **** static inline lv_opa_t lv_obj_get_style_shadow_opa(const struct _lv_obj_t * obj, uint32_t part)
 338:..\..\..\arduinoLCD\test\Pain Drain\libraries\lvgl\src\widgets\../core/lv_obj_style_gen.h **** {
 339:..\..\..\arduinoLCD\test\Pain Drain\libraries\lvgl\src\widgets\../core/lv_obj_style_gen.h ****     lv_style_value_t v = lv_obj_get_style_prop(obj, part, LV_STYLE_SHADOW_OPA);
 340:..\..\..\arduinoLCD\test\Pain Drain\libraries\lvgl\src\widgets\../core/lv_obj_style_gen.h ****     return (lv_opa_t)v.num;
 341:..\..\..\arduinoLCD\test\Pain Drain\libraries\lvgl\src\widgets\../core/lv_obj_style_gen.h **** }
 342:..\..\..\arduinoLCD\test\Pain Drain\libraries\lvgl\src\widgets\../core/lv_obj_style_gen.h **** 
 343:..\..\..\arduinoLCD\test\Pain Drain\libraries\lvgl\src\widgets\../core/lv_obj_style_gen.h **** static inline lv_opa_t lv_obj_get_style_img_opa(const struct _lv_obj_t * obj, uint32_t part)
 344:..\..\..\arduinoLCD\test\Pain Drain\libraries\lvgl\src\widgets\../core/lv_obj_style_gen.h **** {
 345:..\..\..\arduinoLCD\test\Pain Drain\libraries\lvgl\src\widgets\../core/lv_obj_style_gen.h ****     lv_style_value_t v = lv_obj_get_style_prop(obj, part, LV_STYLE_IMG_OPA);
 346:..\..\..\arduinoLCD\test\Pain Drain\libraries\lvgl\src\widgets\../core/lv_obj_style_gen.h ****     return (lv_opa_t)v.num;
 347:..\..\..\arduinoLCD\test\Pain Drain\libraries\lvgl\src\widgets\../core/lv_obj_style_gen.h **** }
 348:..\..\..\arduinoLCD\test\Pain Drain\libraries\lvgl\src\widgets\../core/lv_obj_style_gen.h **** 
 349:..\..\..\arduinoLCD\test\Pain Drain\libraries\lvgl\src\widgets\../core/lv_obj_style_gen.h **** static inline lv_color_t lv_obj_get_style_img_recolor(const struct _lv_obj_t * obj, uint32_t part)
 350:..\..\..\arduinoLCD\test\Pain Drain\libraries\lvgl\src\widgets\../core/lv_obj_style_gen.h **** {
 351:..\..\..\arduinoLCD\test\Pain Drain\libraries\lvgl\src\widgets\../core/lv_obj_style_gen.h ****     lv_style_value_t v = lv_obj_get_style_prop(obj, part, LV_STYLE_IMG_RECOLOR);
 352:..\..\..\arduinoLCD\test\Pain Drain\libraries\lvgl\src\widgets\../core/lv_obj_style_gen.h ****     return v.color;
 353:..\..\..\arduinoLCD\test\Pain Drain\libraries\lvgl\src\widgets\../core/lv_obj_style_gen.h **** }
 354:..\..\..\arduinoLCD\test\Pain Drain\libraries\lvgl\src\widgets\../core/lv_obj_style_gen.h **** 
 355:..\..\..\arduinoLCD\test\Pain Drain\libraries\lvgl\src\widgets\../core/lv_obj_style_gen.h **** static inline lv_color_t lv_obj_get_style_img_recolor_filtered(const struct _lv_obj_t * obj, uint32
 356:..\..\..\arduinoLCD\test\Pain Drain\libraries\lvgl\src\widgets\../core/lv_obj_style_gen.h **** {
 357:..\..\..\arduinoLCD\test\Pain Drain\libraries\lvgl\src\widgets\../core/lv_obj_style_gen.h ****     lv_style_value_t v = _lv_obj_style_apply_color_filter(obj, part, lv_obj_get_style_prop(obj, par
 358:..\..\..\arduinoLCD\test\Pain Drain\libraries\lvgl\src\widgets\../core/lv_obj_style_gen.h ****     return v.color;
 359:..\..\..\arduinoLCD\test\Pain Drain\libraries\lvgl\src\widgets\../core/lv_obj_style_gen.h **** }
 360:..\..\..\arduinoLCD\test\Pain Drain\libraries\lvgl\src\widgets\../core/lv_obj_style_gen.h **** 
 361:..\..\..\arduinoLCD\test\Pain Drain\libraries\lvgl\src\widgets\../core/lv_obj_style_gen.h **** static inline lv_opa_t lv_obj_get_style_img_recolor_opa(const struct _lv_obj_t * obj, uint32_t part
 362:..\..\..\arduinoLCD\test\Pain Drain\libraries\lvgl\src\widgets\../core/lv_obj_style_gen.h **** {
 363:..\..\..\arduinoLCD\test\Pain Drain\libraries\lvgl\src\widgets\../core/lv_obj_style_gen.h ****     lv_style_value_t v = lv_obj_get_style_prop(obj, part, LV_STYLE_IMG_RECOLOR_OPA);
 364:..\..\..\arduinoLCD\test\Pain Drain\libraries\lvgl\src\widgets\../core/lv_obj_style_gen.h ****     return (lv_opa_t)v.num;
 365:..\..\..\arduinoLCD\test\Pain Drain\libraries\lvgl\src\widgets\../core/lv_obj_style_gen.h **** }
 366:..\..\..\arduinoLCD\test\Pain Drain\libraries\lvgl\src\widgets\../core/lv_obj_style_gen.h **** 
 367:..\..\..\arduinoLCD\test\Pain Drain\libraries\lvgl\src\widgets\../core/lv_obj_style_gen.h **** static inline lv_coord_t lv_obj_get_style_line_width(const struct _lv_obj_t * obj, uint32_t part)
 368:..\..\..\arduinoLCD\test\Pain Drain\libraries\lvgl\src\widgets\../core/lv_obj_style_gen.h **** {
 369:..\..\..\arduinoLCD\test\Pain Drain\libraries\lvgl\src\widgets\../core/lv_obj_style_gen.h ****     lv_style_value_t v = lv_obj_get_style_prop(obj, part, LV_STYLE_LINE_WIDTH);
ARM GAS  C:\Users\haske\AppData\Local\Temp\cc1ymag8.s 			page 21


 370:..\..\..\arduinoLCD\test\Pain Drain\libraries\lvgl\src\widgets\../core/lv_obj_style_gen.h ****     return (lv_coord_t)v.num;
 371:..\..\..\arduinoLCD\test\Pain Drain\libraries\lvgl\src\widgets\../core/lv_obj_style_gen.h **** }
 372:..\..\..\arduinoLCD\test\Pain Drain\libraries\lvgl\src\widgets\../core/lv_obj_style_gen.h **** 
 373:..\..\..\arduinoLCD\test\Pain Drain\libraries\lvgl\src\widgets\../core/lv_obj_style_gen.h **** static inline lv_coord_t lv_obj_get_style_line_dash_width(const struct _lv_obj_t * obj, uint32_t pa
 374:..\..\..\arduinoLCD\test\Pain Drain\libraries\lvgl\src\widgets\../core/lv_obj_style_gen.h **** {
 375:..\..\..\arduinoLCD\test\Pain Drain\libraries\lvgl\src\widgets\../core/lv_obj_style_gen.h ****     lv_style_value_t v = lv_obj_get_style_prop(obj, part, LV_STYLE_LINE_DASH_WIDTH);
 376:..\..\..\arduinoLCD\test\Pain Drain\libraries\lvgl\src\widgets\../core/lv_obj_style_gen.h ****     return (lv_coord_t)v.num;
 377:..\..\..\arduinoLCD\test\Pain Drain\libraries\lvgl\src\widgets\../core/lv_obj_style_gen.h **** }
 378:..\..\..\arduinoLCD\test\Pain Drain\libraries\lvgl\src\widgets\../core/lv_obj_style_gen.h **** 
 379:..\..\..\arduinoLCD\test\Pain Drain\libraries\lvgl\src\widgets\../core/lv_obj_style_gen.h **** static inline lv_coord_t lv_obj_get_style_line_dash_gap(const struct _lv_obj_t * obj, uint32_t part
 380:..\..\..\arduinoLCD\test\Pain Drain\libraries\lvgl\src\widgets\../core/lv_obj_style_gen.h **** {
 381:..\..\..\arduinoLCD\test\Pain Drain\libraries\lvgl\src\widgets\../core/lv_obj_style_gen.h ****     lv_style_value_t v = lv_obj_get_style_prop(obj, part, LV_STYLE_LINE_DASH_GAP);
 382:..\..\..\arduinoLCD\test\Pain Drain\libraries\lvgl\src\widgets\../core/lv_obj_style_gen.h ****     return (lv_coord_t)v.num;
 383:..\..\..\arduinoLCD\test\Pain Drain\libraries\lvgl\src\widgets\../core/lv_obj_style_gen.h **** }
 384:..\..\..\arduinoLCD\test\Pain Drain\libraries\lvgl\src\widgets\../core/lv_obj_style_gen.h **** 
 385:..\..\..\arduinoLCD\test\Pain Drain\libraries\lvgl\src\widgets\../core/lv_obj_style_gen.h **** static inline bool lv_obj_get_style_line_rounded(const struct _lv_obj_t * obj, uint32_t part)
 386:..\..\..\arduinoLCD\test\Pain Drain\libraries\lvgl\src\widgets\../core/lv_obj_style_gen.h **** {
 387:..\..\..\arduinoLCD\test\Pain Drain\libraries\lvgl\src\widgets\../core/lv_obj_style_gen.h ****     lv_style_value_t v = lv_obj_get_style_prop(obj, part, LV_STYLE_LINE_ROUNDED);
 388:..\..\..\arduinoLCD\test\Pain Drain\libraries\lvgl\src\widgets\../core/lv_obj_style_gen.h ****     return (bool)v.num;
 389:..\..\..\arduinoLCD\test\Pain Drain\libraries\lvgl\src\widgets\../core/lv_obj_style_gen.h **** }
 390:..\..\..\arduinoLCD\test\Pain Drain\libraries\lvgl\src\widgets\../core/lv_obj_style_gen.h **** 
 391:..\..\..\arduinoLCD\test\Pain Drain\libraries\lvgl\src\widgets\../core/lv_obj_style_gen.h **** static inline lv_color_t lv_obj_get_style_line_color(const struct _lv_obj_t * obj, uint32_t part)
 392:..\..\..\arduinoLCD\test\Pain Drain\libraries\lvgl\src\widgets\../core/lv_obj_style_gen.h **** {
 393:..\..\..\arduinoLCD\test\Pain Drain\libraries\lvgl\src\widgets\../core/lv_obj_style_gen.h ****     lv_style_value_t v = lv_obj_get_style_prop(obj, part, LV_STYLE_LINE_COLOR);
 394:..\..\..\arduinoLCD\test\Pain Drain\libraries\lvgl\src\widgets\../core/lv_obj_style_gen.h ****     return v.color;
 395:..\..\..\arduinoLCD\test\Pain Drain\libraries\lvgl\src\widgets\../core/lv_obj_style_gen.h **** }
 396:..\..\..\arduinoLCD\test\Pain Drain\libraries\lvgl\src\widgets\../core/lv_obj_style_gen.h **** 
 397:..\..\..\arduinoLCD\test\Pain Drain\libraries\lvgl\src\widgets\../core/lv_obj_style_gen.h **** static inline lv_color_t lv_obj_get_style_line_color_filtered(const struct _lv_obj_t * obj, uint32_
 398:..\..\..\arduinoLCD\test\Pain Drain\libraries\lvgl\src\widgets\../core/lv_obj_style_gen.h **** {
 399:..\..\..\arduinoLCD\test\Pain Drain\libraries\lvgl\src\widgets\../core/lv_obj_style_gen.h ****     lv_style_value_t v = _lv_obj_style_apply_color_filter(obj, part, lv_obj_get_style_prop(obj, par
 400:..\..\..\arduinoLCD\test\Pain Drain\libraries\lvgl\src\widgets\../core/lv_obj_style_gen.h ****     return v.color;
 401:..\..\..\arduinoLCD\test\Pain Drain\libraries\lvgl\src\widgets\../core/lv_obj_style_gen.h **** }
 402:..\..\..\arduinoLCD\test\Pain Drain\libraries\lvgl\src\widgets\../core/lv_obj_style_gen.h **** 
 403:..\..\..\arduinoLCD\test\Pain Drain\libraries\lvgl\src\widgets\../core/lv_obj_style_gen.h **** static inline lv_opa_t lv_obj_get_style_line_opa(const struct _lv_obj_t * obj, uint32_t part)
 404:..\..\..\arduinoLCD\test\Pain Drain\libraries\lvgl\src\widgets\../core/lv_obj_style_gen.h **** {
 405:..\..\..\arduinoLCD\test\Pain Drain\libraries\lvgl\src\widgets\../core/lv_obj_style_gen.h ****     lv_style_value_t v = lv_obj_get_style_prop(obj, part, LV_STYLE_LINE_OPA);
 406:..\..\..\arduinoLCD\test\Pain Drain\libraries\lvgl\src\widgets\../core/lv_obj_style_gen.h ****     return (lv_opa_t)v.num;
 407:..\..\..\arduinoLCD\test\Pain Drain\libraries\lvgl\src\widgets\../core/lv_obj_style_gen.h **** }
 408:..\..\..\arduinoLCD\test\Pain Drain\libraries\lvgl\src\widgets\../core/lv_obj_style_gen.h **** 
 409:..\..\..\arduinoLCD\test\Pain Drain\libraries\lvgl\src\widgets\../core/lv_obj_style_gen.h **** static inline lv_coord_t lv_obj_get_style_arc_width(const struct _lv_obj_t * obj, uint32_t part)
 410:..\..\..\arduinoLCD\test\Pain Drain\libraries\lvgl\src\widgets\../core/lv_obj_style_gen.h **** {
 411:..\..\..\arduinoLCD\test\Pain Drain\libraries\lvgl\src\widgets\../core/lv_obj_style_gen.h ****     lv_style_value_t v = lv_obj_get_style_prop(obj, part, LV_STYLE_ARC_WIDTH);
 412:..\..\..\arduinoLCD\test\Pain Drain\libraries\lvgl\src\widgets\../core/lv_obj_style_gen.h ****     return (lv_coord_t)v.num;
 413:..\..\..\arduinoLCD\test\Pain Drain\libraries\lvgl\src\widgets\../core/lv_obj_style_gen.h **** }
 414:..\..\..\arduinoLCD\test\Pain Drain\libraries\lvgl\src\widgets\../core/lv_obj_style_gen.h **** 
 415:..\..\..\arduinoLCD\test\Pain Drain\libraries\lvgl\src\widgets\../core/lv_obj_style_gen.h **** static inline bool lv_obj_get_style_arc_rounded(const struct _lv_obj_t * obj, uint32_t part)
 416:..\..\..\arduinoLCD\test\Pain Drain\libraries\lvgl\src\widgets\../core/lv_obj_style_gen.h **** {
 417:..\..\..\arduinoLCD\test\Pain Drain\libraries\lvgl\src\widgets\../core/lv_obj_style_gen.h ****     lv_style_value_t v = lv_obj_get_style_prop(obj, part, LV_STYLE_ARC_ROUNDED);
 418:..\..\..\arduinoLCD\test\Pain Drain\libraries\lvgl\src\widgets\../core/lv_obj_style_gen.h ****     return (bool)v.num;
 419:..\..\..\arduinoLCD\test\Pain Drain\libraries\lvgl\src\widgets\../core/lv_obj_style_gen.h **** }
 420:..\..\..\arduinoLCD\test\Pain Drain\libraries\lvgl\src\widgets\../core/lv_obj_style_gen.h **** 
 421:..\..\..\arduinoLCD\test\Pain Drain\libraries\lvgl\src\widgets\../core/lv_obj_style_gen.h **** static inline lv_color_t lv_obj_get_style_arc_color(const struct _lv_obj_t * obj, uint32_t part)
 422:..\..\..\arduinoLCD\test\Pain Drain\libraries\lvgl\src\widgets\../core/lv_obj_style_gen.h **** {
 423:..\..\..\arduinoLCD\test\Pain Drain\libraries\lvgl\src\widgets\../core/lv_obj_style_gen.h ****     lv_style_value_t v = lv_obj_get_style_prop(obj, part, LV_STYLE_ARC_COLOR);
 424:..\..\..\arduinoLCD\test\Pain Drain\libraries\lvgl\src\widgets\../core/lv_obj_style_gen.h ****     return v.color;
 425:..\..\..\arduinoLCD\test\Pain Drain\libraries\lvgl\src\widgets\../core/lv_obj_style_gen.h **** }
 426:..\..\..\arduinoLCD\test\Pain Drain\libraries\lvgl\src\widgets\../core/lv_obj_style_gen.h **** 
ARM GAS  C:\Users\haske\AppData\Local\Temp\cc1ymag8.s 			page 22


 427:..\..\..\arduinoLCD\test\Pain Drain\libraries\lvgl\src\widgets\../core/lv_obj_style_gen.h **** static inline lv_color_t lv_obj_get_style_arc_color_filtered(const struct _lv_obj_t * obj, uint32_t
 428:..\..\..\arduinoLCD\test\Pain Drain\libraries\lvgl\src\widgets\../core/lv_obj_style_gen.h **** {
 429:..\..\..\arduinoLCD\test\Pain Drain\libraries\lvgl\src\widgets\../core/lv_obj_style_gen.h ****     lv_style_value_t v = _lv_obj_style_apply_color_filter(obj, part, lv_obj_get_style_prop(obj, par
 430:..\..\..\arduinoLCD\test\Pain Drain\libraries\lvgl\src\widgets\../core/lv_obj_style_gen.h ****     return v.color;
 431:..\..\..\arduinoLCD\test\Pain Drain\libraries\lvgl\src\widgets\../core/lv_obj_style_gen.h **** }
 432:..\..\..\arduinoLCD\test\Pain Drain\libraries\lvgl\src\widgets\../core/lv_obj_style_gen.h **** 
 433:..\..\..\arduinoLCD\test\Pain Drain\libraries\lvgl\src\widgets\../core/lv_obj_style_gen.h **** static inline lv_opa_t lv_obj_get_style_arc_opa(const struct _lv_obj_t * obj, uint32_t part)
 434:..\..\..\arduinoLCD\test\Pain Drain\libraries\lvgl\src\widgets\../core/lv_obj_style_gen.h **** {
 435:..\..\..\arduinoLCD\test\Pain Drain\libraries\lvgl\src\widgets\../core/lv_obj_style_gen.h ****     lv_style_value_t v = lv_obj_get_style_prop(obj, part, LV_STYLE_ARC_OPA);
 436:..\..\..\arduinoLCD\test\Pain Drain\libraries\lvgl\src\widgets\../core/lv_obj_style_gen.h ****     return (lv_opa_t)v.num;
 437:..\..\..\arduinoLCD\test\Pain Drain\libraries\lvgl\src\widgets\../core/lv_obj_style_gen.h **** }
 438:..\..\..\arduinoLCD\test\Pain Drain\libraries\lvgl\src\widgets\../core/lv_obj_style_gen.h **** 
 439:..\..\..\arduinoLCD\test\Pain Drain\libraries\lvgl\src\widgets\../core/lv_obj_style_gen.h **** static inline const void * lv_obj_get_style_arc_img_src(const struct _lv_obj_t * obj, uint32_t part
 440:..\..\..\arduinoLCD\test\Pain Drain\libraries\lvgl\src\widgets\../core/lv_obj_style_gen.h **** {
 441:..\..\..\arduinoLCD\test\Pain Drain\libraries\lvgl\src\widgets\../core/lv_obj_style_gen.h ****     lv_style_value_t v = lv_obj_get_style_prop(obj, part, LV_STYLE_ARC_IMG_SRC);
 442:..\..\..\arduinoLCD\test\Pain Drain\libraries\lvgl\src\widgets\../core/lv_obj_style_gen.h ****     return (const void *)v.ptr;
 443:..\..\..\arduinoLCD\test\Pain Drain\libraries\lvgl\src\widgets\../core/lv_obj_style_gen.h **** }
 444:..\..\..\arduinoLCD\test\Pain Drain\libraries\lvgl\src\widgets\../core/lv_obj_style_gen.h **** 
 445:..\..\..\arduinoLCD\test\Pain Drain\libraries\lvgl\src\widgets\../core/lv_obj_style_gen.h **** static inline lv_color_t lv_obj_get_style_text_color(const struct _lv_obj_t * obj, uint32_t part)
 446:..\..\..\arduinoLCD\test\Pain Drain\libraries\lvgl\src\widgets\../core/lv_obj_style_gen.h **** {
 447:..\..\..\arduinoLCD\test\Pain Drain\libraries\lvgl\src\widgets\../core/lv_obj_style_gen.h ****     lv_style_value_t v = lv_obj_get_style_prop(obj, part, LV_STYLE_TEXT_COLOR);
 448:..\..\..\arduinoLCD\test\Pain Drain\libraries\lvgl\src\widgets\../core/lv_obj_style_gen.h ****     return v.color;
 449:..\..\..\arduinoLCD\test\Pain Drain\libraries\lvgl\src\widgets\../core/lv_obj_style_gen.h **** }
 450:..\..\..\arduinoLCD\test\Pain Drain\libraries\lvgl\src\widgets\../core/lv_obj_style_gen.h **** 
 451:..\..\..\arduinoLCD\test\Pain Drain\libraries\lvgl\src\widgets\../core/lv_obj_style_gen.h **** static inline lv_color_t lv_obj_get_style_text_color_filtered(const struct _lv_obj_t * obj, uint32_
 452:..\..\..\arduinoLCD\test\Pain Drain\libraries\lvgl\src\widgets\../core/lv_obj_style_gen.h **** {
 453:..\..\..\arduinoLCD\test\Pain Drain\libraries\lvgl\src\widgets\../core/lv_obj_style_gen.h ****     lv_style_value_t v = _lv_obj_style_apply_color_filter(obj, part, lv_obj_get_style_prop(obj, par
 454:..\..\..\arduinoLCD\test\Pain Drain\libraries\lvgl\src\widgets\../core/lv_obj_style_gen.h ****     return v.color;
 455:..\..\..\arduinoLCD\test\Pain Drain\libraries\lvgl\src\widgets\../core/lv_obj_style_gen.h **** }
 456:..\..\..\arduinoLCD\test\Pain Drain\libraries\lvgl\src\widgets\../core/lv_obj_style_gen.h **** 
 457:..\..\..\arduinoLCD\test\Pain Drain\libraries\lvgl\src\widgets\../core/lv_obj_style_gen.h **** static inline lv_opa_t lv_obj_get_style_text_opa(const struct _lv_obj_t * obj, uint32_t part)
 458:..\..\..\arduinoLCD\test\Pain Drain\libraries\lvgl\src\widgets\../core/lv_obj_style_gen.h **** {
 459:..\..\..\arduinoLCD\test\Pain Drain\libraries\lvgl\src\widgets\../core/lv_obj_style_gen.h ****     lv_style_value_t v = lv_obj_get_style_prop(obj, part, LV_STYLE_TEXT_OPA);
 460:..\..\..\arduinoLCD\test\Pain Drain\libraries\lvgl\src\widgets\../core/lv_obj_style_gen.h ****     return (lv_opa_t)v.num;
 461:..\..\..\arduinoLCD\test\Pain Drain\libraries\lvgl\src\widgets\../core/lv_obj_style_gen.h **** }
 462:..\..\..\arduinoLCD\test\Pain Drain\libraries\lvgl\src\widgets\../core/lv_obj_style_gen.h **** 
 463:..\..\..\arduinoLCD\test\Pain Drain\libraries\lvgl\src\widgets\../core/lv_obj_style_gen.h **** static inline const lv_font_t * lv_obj_get_style_text_font(const struct _lv_obj_t * obj, uint32_t p
 464:..\..\..\arduinoLCD\test\Pain Drain\libraries\lvgl\src\widgets\../core/lv_obj_style_gen.h **** {
 465:..\..\..\arduinoLCD\test\Pain Drain\libraries\lvgl\src\widgets\../core/lv_obj_style_gen.h ****     lv_style_value_t v = lv_obj_get_style_prop(obj, part, LV_STYLE_TEXT_FONT);
 466:..\..\..\arduinoLCD\test\Pain Drain\libraries\lvgl\src\widgets\../core/lv_obj_style_gen.h ****     return (const lv_font_t *)v.ptr;
 467:..\..\..\arduinoLCD\test\Pain Drain\libraries\lvgl\src\widgets\../core/lv_obj_style_gen.h **** }
 468:..\..\..\arduinoLCD\test\Pain Drain\libraries\lvgl\src\widgets\../core/lv_obj_style_gen.h **** 
 469:..\..\..\arduinoLCD\test\Pain Drain\libraries\lvgl\src\widgets\../core/lv_obj_style_gen.h **** static inline lv_coord_t lv_obj_get_style_text_letter_space(const struct _lv_obj_t * obj, uint32_t 
 470:..\..\..\arduinoLCD\test\Pain Drain\libraries\lvgl\src\widgets\../core/lv_obj_style_gen.h **** {
 471:..\..\..\arduinoLCD\test\Pain Drain\libraries\lvgl\src\widgets\../core/lv_obj_style_gen.h ****     lv_style_value_t v = lv_obj_get_style_prop(obj, part, LV_STYLE_TEXT_LETTER_SPACE);
 472:..\..\..\arduinoLCD\test\Pain Drain\libraries\lvgl\src\widgets\../core/lv_obj_style_gen.h ****     return (lv_coord_t)v.num;
 473:..\..\..\arduinoLCD\test\Pain Drain\libraries\lvgl\src\widgets\../core/lv_obj_style_gen.h **** }
 474:..\..\..\arduinoLCD\test\Pain Drain\libraries\lvgl\src\widgets\../core/lv_obj_style_gen.h **** 
 475:..\..\..\arduinoLCD\test\Pain Drain\libraries\lvgl\src\widgets\../core/lv_obj_style_gen.h **** static inline lv_coord_t lv_obj_get_style_text_line_space(const struct _lv_obj_t * obj, uint32_t pa
 476:..\..\..\arduinoLCD\test\Pain Drain\libraries\lvgl\src\widgets\../core/lv_obj_style_gen.h **** {
 477:..\..\..\arduinoLCD\test\Pain Drain\libraries\lvgl\src\widgets\../core/lv_obj_style_gen.h ****     lv_style_value_t v = lv_obj_get_style_prop(obj, part, LV_STYLE_TEXT_LINE_SPACE);
 478:..\..\..\arduinoLCD\test\Pain Drain\libraries\lvgl\src\widgets\../core/lv_obj_style_gen.h ****     return (lv_coord_t)v.num;
 479:..\..\..\arduinoLCD\test\Pain Drain\libraries\lvgl\src\widgets\../core/lv_obj_style_gen.h **** }
 480:..\..\..\arduinoLCD\test\Pain Drain\libraries\lvgl\src\widgets\../core/lv_obj_style_gen.h **** 
 481:..\..\..\arduinoLCD\test\Pain Drain\libraries\lvgl\src\widgets\../core/lv_obj_style_gen.h **** static inline lv_text_decor_t lv_obj_get_style_text_decor(const struct _lv_obj_t * obj, uint32_t pa
 482:..\..\..\arduinoLCD\test\Pain Drain\libraries\lvgl\src\widgets\../core/lv_obj_style_gen.h **** {
 483:..\..\..\arduinoLCD\test\Pain Drain\libraries\lvgl\src\widgets\../core/lv_obj_style_gen.h ****     lv_style_value_t v = lv_obj_get_style_prop(obj, part, LV_STYLE_TEXT_DECOR);
ARM GAS  C:\Users\haske\AppData\Local\Temp\cc1ymag8.s 			page 23


 484:..\..\..\arduinoLCD\test\Pain Drain\libraries\lvgl\src\widgets\../core/lv_obj_style_gen.h ****     return (lv_text_decor_t)v.num;
 485:..\..\..\arduinoLCD\test\Pain Drain\libraries\lvgl\src\widgets\../core/lv_obj_style_gen.h **** }
 486:..\..\..\arduinoLCD\test\Pain Drain\libraries\lvgl\src\widgets\../core/lv_obj_style_gen.h **** 
 487:..\..\..\arduinoLCD\test\Pain Drain\libraries\lvgl\src\widgets\../core/lv_obj_style_gen.h **** static inline lv_text_align_t lv_obj_get_style_text_align(const struct _lv_obj_t * obj, uint32_t pa
 488:..\..\..\arduinoLCD\test\Pain Drain\libraries\lvgl\src\widgets\../core/lv_obj_style_gen.h **** {
 489:..\..\..\arduinoLCD\test\Pain Drain\libraries\lvgl\src\widgets\../core/lv_obj_style_gen.h ****     lv_style_value_t v = lv_obj_get_style_prop(obj, part, LV_STYLE_TEXT_ALIGN);
 490:..\..\..\arduinoLCD\test\Pain Drain\libraries\lvgl\src\widgets\../core/lv_obj_style_gen.h ****     return (lv_text_align_t)v.num;
 491:..\..\..\arduinoLCD\test\Pain Drain\libraries\lvgl\src\widgets\../core/lv_obj_style_gen.h **** }
 492:..\..\..\arduinoLCD\test\Pain Drain\libraries\lvgl\src\widgets\../core/lv_obj_style_gen.h **** 
 493:..\..\..\arduinoLCD\test\Pain Drain\libraries\lvgl\src\widgets\../core/lv_obj_style_gen.h **** static inline lv_coord_t lv_obj_get_style_radius(const struct _lv_obj_t * obj, uint32_t part)
 494:..\..\..\arduinoLCD\test\Pain Drain\libraries\lvgl\src\widgets\../core/lv_obj_style_gen.h **** {
 495:..\..\..\arduinoLCD\test\Pain Drain\libraries\lvgl\src\widgets\../core/lv_obj_style_gen.h ****     lv_style_value_t v = lv_obj_get_style_prop(obj, part, LV_STYLE_RADIUS);
 496:..\..\..\arduinoLCD\test\Pain Drain\libraries\lvgl\src\widgets\../core/lv_obj_style_gen.h ****     return (lv_coord_t)v.num;
 497:..\..\..\arduinoLCD\test\Pain Drain\libraries\lvgl\src\widgets\../core/lv_obj_style_gen.h **** }
 498:..\..\..\arduinoLCD\test\Pain Drain\libraries\lvgl\src\widgets\../core/lv_obj_style_gen.h **** 
 499:..\..\..\arduinoLCD\test\Pain Drain\libraries\lvgl\src\widgets\../core/lv_obj_style_gen.h **** static inline bool lv_obj_get_style_clip_corner(const struct _lv_obj_t * obj, uint32_t part)
 500:..\..\..\arduinoLCD\test\Pain Drain\libraries\lvgl\src\widgets\../core/lv_obj_style_gen.h **** {
 501:..\..\..\arduinoLCD\test\Pain Drain\libraries\lvgl\src\widgets\../core/lv_obj_style_gen.h ****     lv_style_value_t v = lv_obj_get_style_prop(obj, part, LV_STYLE_CLIP_CORNER);
 502:..\..\..\arduinoLCD\test\Pain Drain\libraries\lvgl\src\widgets\../core/lv_obj_style_gen.h ****     return (bool)v.num;
 503:..\..\..\arduinoLCD\test\Pain Drain\libraries\lvgl\src\widgets\../core/lv_obj_style_gen.h **** }
 504:..\..\..\arduinoLCD\test\Pain Drain\libraries\lvgl\src\widgets\../core/lv_obj_style_gen.h **** 
 505:..\..\..\arduinoLCD\test\Pain Drain\libraries\lvgl\src\widgets\../core/lv_obj_style_gen.h **** static inline lv_opa_t lv_obj_get_style_opa(const struct _lv_obj_t * obj, uint32_t part)
 506:..\..\..\arduinoLCD\test\Pain Drain\libraries\lvgl\src\widgets\../core/lv_obj_style_gen.h **** {
 507:..\..\..\arduinoLCD\test\Pain Drain\libraries\lvgl\src\widgets\../core/lv_obj_style_gen.h ****     lv_style_value_t v = lv_obj_get_style_prop(obj, part, LV_STYLE_OPA);
 508:..\..\..\arduinoLCD\test\Pain Drain\libraries\lvgl\src\widgets\../core/lv_obj_style_gen.h ****     return (lv_opa_t)v.num;
 509:..\..\..\arduinoLCD\test\Pain Drain\libraries\lvgl\src\widgets\../core/lv_obj_style_gen.h **** }
 510:..\..\..\arduinoLCD\test\Pain Drain\libraries\lvgl\src\widgets\../core/lv_obj_style_gen.h **** 
 511:..\..\..\arduinoLCD\test\Pain Drain\libraries\lvgl\src\widgets\../core/lv_obj_style_gen.h **** static inline const lv_color_filter_dsc_t * lv_obj_get_style_color_filter_dsc(const struct _lv_obj_
 512:..\..\..\arduinoLCD\test\Pain Drain\libraries\lvgl\src\widgets\../core/lv_obj_style_gen.h **** {
 513:..\..\..\arduinoLCD\test\Pain Drain\libraries\lvgl\src\widgets\../core/lv_obj_style_gen.h ****     lv_style_value_t v = lv_obj_get_style_prop(obj, part, LV_STYLE_COLOR_FILTER_DSC);
 514:..\..\..\arduinoLCD\test\Pain Drain\libraries\lvgl\src\widgets\../core/lv_obj_style_gen.h ****     return (const lv_color_filter_dsc_t *)v.ptr;
 515:..\..\..\arduinoLCD\test\Pain Drain\libraries\lvgl\src\widgets\../core/lv_obj_style_gen.h **** }
 516:..\..\..\arduinoLCD\test\Pain Drain\libraries\lvgl\src\widgets\../core/lv_obj_style_gen.h **** 
 517:..\..\..\arduinoLCD\test\Pain Drain\libraries\lvgl\src\widgets\../core/lv_obj_style_gen.h **** static inline lv_opa_t lv_obj_get_style_color_filter_opa(const struct _lv_obj_t * obj, uint32_t par
 518:..\..\..\arduinoLCD\test\Pain Drain\libraries\lvgl\src\widgets\../core/lv_obj_style_gen.h **** {
 519:..\..\..\arduinoLCD\test\Pain Drain\libraries\lvgl\src\widgets\../core/lv_obj_style_gen.h ****     lv_style_value_t v = lv_obj_get_style_prop(obj, part, LV_STYLE_COLOR_FILTER_OPA);
 520:..\..\..\arduinoLCD\test\Pain Drain\libraries\lvgl\src\widgets\../core/lv_obj_style_gen.h ****     return (lv_opa_t)v.num;
 521:..\..\..\arduinoLCD\test\Pain Drain\libraries\lvgl\src\widgets\../core/lv_obj_style_gen.h **** }
 522:..\..\..\arduinoLCD\test\Pain Drain\libraries\lvgl\src\widgets\../core/lv_obj_style_gen.h **** 
 523:..\..\..\arduinoLCD\test\Pain Drain\libraries\lvgl\src\widgets\../core/lv_obj_style_gen.h **** static inline const lv_anim_t * lv_obj_get_style_anim(const struct _lv_obj_t * obj, uint32_t part)
 524:..\..\..\arduinoLCD\test\Pain Drain\libraries\lvgl\src\widgets\../core/lv_obj_style_gen.h **** {
 525:..\..\..\arduinoLCD\test\Pain Drain\libraries\lvgl\src\widgets\../core/lv_obj_style_gen.h ****     lv_style_value_t v = lv_obj_get_style_prop(obj, part, LV_STYLE_ANIM);
 526:..\..\..\arduinoLCD\test\Pain Drain\libraries\lvgl\src\widgets\../core/lv_obj_style_gen.h ****     return (const lv_anim_t *)v.ptr;
 527:..\..\..\arduinoLCD\test\Pain Drain\libraries\lvgl\src\widgets\../core/lv_obj_style_gen.h **** }
 528:..\..\..\arduinoLCD\test\Pain Drain\libraries\lvgl\src\widgets\../core/lv_obj_style_gen.h **** 
 529:..\..\..\arduinoLCD\test\Pain Drain\libraries\lvgl\src\widgets\../core/lv_obj_style_gen.h **** static inline uint32_t lv_obj_get_style_anim_time(const struct _lv_obj_t * obj, uint32_t part)
 530:..\..\..\arduinoLCD\test\Pain Drain\libraries\lvgl\src\widgets\../core/lv_obj_style_gen.h **** {
 531:..\..\..\arduinoLCD\test\Pain Drain\libraries\lvgl\src\widgets\../core/lv_obj_style_gen.h ****     lv_style_value_t v = lv_obj_get_style_prop(obj, part, LV_STYLE_ANIM_TIME);
 532:..\..\..\arduinoLCD\test\Pain Drain\libraries\lvgl\src\widgets\../core/lv_obj_style_gen.h ****     return (uint32_t)v.num;
 533:..\..\..\arduinoLCD\test\Pain Drain\libraries\lvgl\src\widgets\../core/lv_obj_style_gen.h **** }
 534:..\..\..\arduinoLCD\test\Pain Drain\libraries\lvgl\src\widgets\../core/lv_obj_style_gen.h **** 
 535:..\..\..\arduinoLCD\test\Pain Drain\libraries\lvgl\src\widgets\../core/lv_obj_style_gen.h **** static inline uint32_t lv_obj_get_style_anim_speed(const struct _lv_obj_t * obj, uint32_t part)
 536:..\..\..\arduinoLCD\test\Pain Drain\libraries\lvgl\src\widgets\../core/lv_obj_style_gen.h **** {
 537:..\..\..\arduinoLCD\test\Pain Drain\libraries\lvgl\src\widgets\../core/lv_obj_style_gen.h ****     lv_style_value_t v = lv_obj_get_style_prop(obj, part, LV_STYLE_ANIM_SPEED);
 538:..\..\..\arduinoLCD\test\Pain Drain\libraries\lvgl\src\widgets\../core/lv_obj_style_gen.h ****     return (uint32_t)v.num;
 539:..\..\..\arduinoLCD\test\Pain Drain\libraries\lvgl\src\widgets\../core/lv_obj_style_gen.h **** }
 540:..\..\..\arduinoLCD\test\Pain Drain\libraries\lvgl\src\widgets\../core/lv_obj_style_gen.h **** 
ARM GAS  C:\Users\haske\AppData\Local\Temp\cc1ymag8.s 			page 24


 541:..\..\..\arduinoLCD\test\Pain Drain\libraries\lvgl\src\widgets\../core/lv_obj_style_gen.h **** static inline const lv_style_transition_dsc_t * lv_obj_get_style_transition(const struct _lv_obj_t 
 542:..\..\..\arduinoLCD\test\Pain Drain\libraries\lvgl\src\widgets\../core/lv_obj_style_gen.h **** {
 543:..\..\..\arduinoLCD\test\Pain Drain\libraries\lvgl\src\widgets\../core/lv_obj_style_gen.h ****     lv_style_value_t v = lv_obj_get_style_prop(obj, part, LV_STYLE_TRANSITION);
 544:..\..\..\arduinoLCD\test\Pain Drain\libraries\lvgl\src\widgets\../core/lv_obj_style_gen.h ****     return (const lv_style_transition_dsc_t *)v.ptr;
 545:..\..\..\arduinoLCD\test\Pain Drain\libraries\lvgl\src\widgets\../core/lv_obj_style_gen.h **** }
 546:..\..\..\arduinoLCD\test\Pain Drain\libraries\lvgl\src\widgets\../core/lv_obj_style_gen.h **** 
 547:..\..\..\arduinoLCD\test\Pain Drain\libraries\lvgl\src\widgets\../core/lv_obj_style_gen.h **** static inline lv_blend_mode_t lv_obj_get_style_blend_mode(const struct _lv_obj_t * obj, uint32_t pa
 548:..\..\..\arduinoLCD\test\Pain Drain\libraries\lvgl\src\widgets\../core/lv_obj_style_gen.h **** {
 549:..\..\..\arduinoLCD\test\Pain Drain\libraries\lvgl\src\widgets\../core/lv_obj_style_gen.h ****     lv_style_value_t v = lv_obj_get_style_prop(obj, part, LV_STYLE_BLEND_MODE);
 550:..\..\..\arduinoLCD\test\Pain Drain\libraries\lvgl\src\widgets\../core/lv_obj_style_gen.h ****     return (lv_blend_mode_t)v.num;
 551:..\..\..\arduinoLCD\test\Pain Drain\libraries\lvgl\src\widgets\../core/lv_obj_style_gen.h **** }
 552:..\..\..\arduinoLCD\test\Pain Drain\libraries\lvgl\src\widgets\../core/lv_obj_style_gen.h **** 
 553:..\..\..\arduinoLCD\test\Pain Drain\libraries\lvgl\src\widgets\../core/lv_obj_style_gen.h **** static inline uint16_t lv_obj_get_style_layout(const struct _lv_obj_t * obj, uint32_t part)
 554:..\..\..\arduinoLCD\test\Pain Drain\libraries\lvgl\src\widgets\../core/lv_obj_style_gen.h **** {
 555:..\..\..\arduinoLCD\test\Pain Drain\libraries\lvgl\src\widgets\../core/lv_obj_style_gen.h ****     lv_style_value_t v = lv_obj_get_style_prop(obj, part, LV_STYLE_LAYOUT);
 556:..\..\..\arduinoLCD\test\Pain Drain\libraries\lvgl\src\widgets\../core/lv_obj_style_gen.h ****     return (uint16_t)v.num;
 557:..\..\..\arduinoLCD\test\Pain Drain\libraries\lvgl\src\widgets\../core/lv_obj_style_gen.h **** }
 558:..\..\..\arduinoLCD\test\Pain Drain\libraries\lvgl\src\widgets\../core/lv_obj_style_gen.h **** 
 559:..\..\..\arduinoLCD\test\Pain Drain\libraries\lvgl\src\widgets\../core/lv_obj_style_gen.h **** static inline lv_base_dir_t lv_obj_get_style_base_dir(const struct _lv_obj_t * obj, uint32_t part)
 560:..\..\..\arduinoLCD\test\Pain Drain\libraries\lvgl\src\widgets\../core/lv_obj_style_gen.h **** {
 561:..\..\..\arduinoLCD\test\Pain Drain\libraries\lvgl\src\widgets\../core/lv_obj_style_gen.h ****     lv_style_value_t v = lv_obj_get_style_prop(obj, part, LV_STYLE_BASE_DIR);
 305              		.loc 2 561 0
 306 001c 1622     		movs	r2, #22
 307 001e 0021     		movs	r1, #0
 308 0020 2000     		movs	r0, r4
 309              	.LVL42:
 310 0022 FFF7FEFF 		bl	lv_obj_get_style_prop
 311              	.LVL43:
 562:..\..\..\arduinoLCD\test\Pain Drain\libraries\lvgl\src\widgets\../core/lv_obj_style_gen.h ****     return (lv_base_dir_t)v.num;
 312              		.loc 2 562 0
 313 0026 C3B2     		uxtb	r3, r0
 314 0028 9846     		mov	r8, r3
 315              	.LVL44:
 316              	.LBE96:
 317              	.LBE95:
 339:..\..\..\arduinoLCD\test\Pain Drain\libraries\lvgl\src\widgets/lv_slider.c **** 
 318              		.loc 1 339 0
 319 002a 2000     		movs	r0, r4
 320 002c FFF7FEFF 		bl	is_slider_horizontal
 321              	.LVL45:
 322 0030 0390     		str	r0, [sp, #12]
 323 0032 8346     		mov	fp, r0
 324              	.LVL46:
 344:..\..\..\arduinoLCD\test\Pain Drain\libraries\lvgl\src\widgets/lv_slider.c ****        slider->bar.max_value > 0) is_symmetrical = true;
 325              		.loc 1 344 0
 326 0034 5C23     		movs	r3, #92
 327 0036 E35C     		ldrb	r3, [r4, r3]
 328 0038 0322     		movs	r2, #3
 329 003a 1340     		ands	r3, r2
 330 003c 012B     		cmp	r3, #1
 331 003e 07D1     		bne	.L20
 344:..\..\..\arduinoLCD\test\Pain Drain\libraries\lvgl\src\widgets/lv_slider.c ****        slider->bar.max_value > 0) is_symmetrical = true;
 332              		.loc 1 344 0 is_stmt 0 discriminator 1
 333 0040 A36A     		ldr	r3, [r4, #40]
 334 0042 002B     		cmp	r3, #0
 335 0044 06DA     		bge	.L21
 344:..\..\..\arduinoLCD\test\Pain Drain\libraries\lvgl\src\widgets/lv_slider.c ****        slider->bar.max_value > 0) is_symmetrical = true;
ARM GAS  C:\Users\haske\AppData\Local\Temp\cc1ymag8.s 			page 25


 336              		.loc 1 344 0 discriminator 2
 337 0046 E36A     		ldr	r3, [r4, #44]
 338 0048 002B     		cmp	r3, #0
 339 004a 05DC     		bgt	.L22
 343:..\..\..\arduinoLCD\test\Pain Drain\libraries\lvgl\src\widgets/lv_slider.c ****     if(slider->bar.mode == LV_BAR_MODE_SYMMETRICAL && slider->bar.min_value < 0 &&
 340              		.loc 1 343 0 is_stmt 1
 341 004c 0025     		movs	r5, #0
 342              	.LVL47:
 343 004e 04E0     		b	.L6
 344              	.LVL48:
 345              	.L20:
 346 0050 0025     		movs	r5, #0
 347              	.LVL49:
 348 0052 02E0     		b	.L6
 349              	.LVL50:
 350              	.L21:
 351 0054 0025     		movs	r5, #0
 352              	.LVL51:
 353 0056 00E0     		b	.L6
 354              	.LVL52:
 355              	.L22:
 345:..\..\..\arduinoLCD\test\Pain Drain\libraries\lvgl\src\widgets/lv_slider.c **** 
 356              		.loc 1 345 0
 357 0058 0125     		movs	r5, #1
 358              	.LVL53:
 359              	.L6:
 347:..\..\..\arduinoLCD\test\Pain Drain\libraries\lvgl\src\widgets/lv_slider.c ****         knob_size = lv_obj_get_height(obj);
 360              		.loc 1 347 0
 361 005a 5B46     		mov	r3, fp
 362 005c 002B     		cmp	r3, #0
 363 005e 18D0     		beq	.L7
 348:..\..\..\arduinoLCD\test\Pain Drain\libraries\lvgl\src\widgets/lv_slider.c ****         if(is_symmetrical && slider->bar.cur_value < 0) knob_area.x1 = slider->bar.indic_area.x1;
 364              		.loc 1 348 0
 365 0060 2000     		movs	r0, r4
 366 0062 FFF7FEFF 		bl	lv_obj_get_height
 367              	.LVL54:
 368 0066 0290     		str	r0, [sp, #8]
 369              	.LVL55:
 349:..\..\..\arduinoLCD\test\Pain Drain\libraries\lvgl\src\widgets/lv_slider.c ****         else knob_area.x1 = LV_SLIDER_KNOB_COORD(is_rtl, slider->bar.indic_area);
 370              		.loc 1 349 0
 371 0068 002D     		cmp	r5, #0
 372 006a 07D0     		beq	.L8
 349:..\..\..\arduinoLCD\test\Pain Drain\libraries\lvgl\src\widgets/lv_slider.c ****         else knob_area.x1 = LV_SLIDER_KNOB_COORD(is_rtl, slider->bar.indic_area);
 373              		.loc 1 349 0 is_stmt 0 discriminator 1
 374 006c 636A     		ldr	r3, [r4, #36]
 375 006e 002B     		cmp	r3, #0
 376 0070 04DA     		bge	.L8
 349:..\..\..\arduinoLCD\test\Pain Drain\libraries\lvgl\src\widgets/lv_slider.c ****         else knob_area.x1 = LV_SLIDER_KNOB_COORD(is_rtl, slider->bar.indic_area);
 377              		.loc 1 349 0 discriminator 2
 378 0072 3423     		movs	r3, #52
 379 0074 E25E     		ldrsh	r2, [r4, r3]
 380 0076 32AB     		add	r3, sp, #200
 381 0078 1A80     		strh	r2, [r3]
 382 007a 1CE0     		b	.L9
 383              	.L8:
 350:..\..\..\arduinoLCD\test\Pain Drain\libraries\lvgl\src\widgets/lv_slider.c ****     }
 384              		.loc 1 350 0 is_stmt 1
ARM GAS  C:\Users\haske\AppData\Local\Temp\cc1ymag8.s 			page 26


 385 007c 4346     		mov	r3, r8
 386 007e 012B     		cmp	r3, #1
 387 0080 02D1     		bne	.L10
 350:..\..\..\arduinoLCD\test\Pain Drain\libraries\lvgl\src\widgets/lv_slider.c ****     }
 388              		.loc 1 350 0 is_stmt 0 discriminator 1
 389 0082 3423     		movs	r3, #52
 390 0084 E25E     		ldrsh	r2, [r4, r3]
 391 0086 01E0     		b	.L11
 392              	.L10:
 350:..\..\..\arduinoLCD\test\Pain Drain\libraries\lvgl\src\widgets/lv_slider.c ****     }
 393              		.loc 1 350 0 discriminator 2
 394 0088 3823     		movs	r3, #56
 395 008a E25E     		ldrsh	r2, [r4, r3]
 396              	.L11:
 350:..\..\..\arduinoLCD\test\Pain Drain\libraries\lvgl\src\widgets/lv_slider.c ****     }
 397              		.loc 1 350 0 discriminator 4
 398 008c 32AB     		add	r3, sp, #200
 399 008e 1A80     		strh	r2, [r3]
 400 0090 11E0     		b	.L9
 401              	.LVL56:
 402              	.L7:
 353:..\..\..\arduinoLCD\test\Pain Drain\libraries\lvgl\src\widgets/lv_slider.c ****         if(is_symmetrical && slider->bar.cur_value < 0) knob_area.y1 = slider->bar.indic_area.y2;
 403              		.loc 1 353 0 is_stmt 1
 404 0092 2000     		movs	r0, r4
 405 0094 FFF7FEFF 		bl	lv_obj_get_width
 406              	.LVL57:
 407 0098 0290     		str	r0, [sp, #8]
 408              	.LVL58:
 354:..\..\..\arduinoLCD\test\Pain Drain\libraries\lvgl\src\widgets/lv_slider.c ****         else knob_area.y1 = slider->bar.indic_area.y1;
 409              		.loc 1 354 0
 410 009a 002D     		cmp	r5, #0
 411 009c 07D0     		beq	.L12
 354:..\..\..\arduinoLCD\test\Pain Drain\libraries\lvgl\src\widgets/lv_slider.c ****         else knob_area.y1 = slider->bar.indic_area.y1;
 412              		.loc 1 354 0 is_stmt 0 discriminator 1
 413 009e 636A     		ldr	r3, [r4, #36]
 414 00a0 002B     		cmp	r3, #0
 415 00a2 04DA     		bge	.L12
 354:..\..\..\arduinoLCD\test\Pain Drain\libraries\lvgl\src\widgets/lv_slider.c ****         else knob_area.y1 = slider->bar.indic_area.y1;
 416              		.loc 1 354 0 discriminator 2
 417 00a4 3A23     		movs	r3, #58
 418 00a6 E25E     		ldrsh	r2, [r4, r3]
 419 00a8 32AB     		add	r3, sp, #200
 420 00aa 5A80     		strh	r2, [r3, #2]
 421 00ac 03E0     		b	.L9
 422              	.L12:
 355:..\..\..\arduinoLCD\test\Pain Drain\libraries\lvgl\src\widgets/lv_slider.c ****     }
 423              		.loc 1 355 0 is_stmt 1
 424 00ae 3623     		movs	r3, #54
 425 00b0 E25E     		ldrsh	r2, [r4, r3]
 426 00b2 32AB     		add	r3, sp, #200
 427 00b4 5A80     		strh	r2, [r3, #2]
 428              	.LVL59:
 429              	.L9:
 359:..\..\..\arduinoLCD\test\Pain Drain\libraries\lvgl\src\widgets/lv_slider.c ****     lv_obj_init_draw_rect_dsc(obj, LV_PART_KNOB, &knob_rect_dsc);
 430              		.loc 1 359 0
 431 00b6 24AF     		add	r7, sp, #144
 432 00b8 3800     		movs	r0, r7
ARM GAS  C:\Users\haske\AppData\Local\Temp\cc1ymag8.s 			page 27


 433 00ba FFF7FEFF 		bl	lv_draw_rect_dsc_init
 434              	.LVL60:
 360:..\..\..\arduinoLCD\test\Pain Drain\libraries\lvgl\src\widgets/lv_slider.c ****     /* Update knob area with knob style */
 435              		.loc 1 360 0
 436 00be C023     		movs	r3, #192
 437 00c0 9B02     		lsls	r3, r3, #10
 438 00c2 9A46     		mov	r10, r3
 439 00c4 3A00     		movs	r2, r7
 440 00c6 1900     		movs	r1, r3
 441 00c8 2000     		movs	r0, r4
 442 00ca FFF7FEFF 		bl	lv_obj_init_draw_rect_dsc
 443              	.LVL61:
 362:..\..\..\arduinoLCD\test\Pain Drain\libraries\lvgl\src\widgets/lv_slider.c ****     /* Update right knob area with calculated knob area */
 444              		.loc 1 362 0
 445 00ce 32AD     		add	r5, sp, #200
 446              	.LVL62:
 447 00d0 039B     		ldr	r3, [sp, #12]
 448 00d2 029A     		ldr	r2, [sp, #8]
 449 00d4 2900     		movs	r1, r5
 450 00d6 2000     		movs	r0, r4
 451 00d8 FFF7FEFF 		bl	position_knob
 452              	.LVL63:
 453              	.LBB97:
 454              	.LBB98:
 455              		.file 3 "c:\\projects\\paindrain\\arduinolcd\\test\\pain drain\\libraries\\lvgl\\src\\misc\\lv_are
   1:c:\projects\paindrain\arduinolcd\test\pain drain\libraries\lvgl\src\misc\lv_area.h **** /**
   2:c:\projects\paindrain\arduinolcd\test\pain drain\libraries\lvgl\src\misc\lv_area.h ****  * @file lv_area.h
   3:c:\projects\paindrain\arduinolcd\test\pain drain\libraries\lvgl\src\misc\lv_area.h ****  *
   4:c:\projects\paindrain\arduinolcd\test\pain drain\libraries\lvgl\src\misc\lv_area.h ****  */
   5:c:\projects\paindrain\arduinolcd\test\pain drain\libraries\lvgl\src\misc\lv_area.h **** 
   6:c:\projects\paindrain\arduinolcd\test\pain drain\libraries\lvgl\src\misc\lv_area.h **** #ifndef LV_AREA_H
   7:c:\projects\paindrain\arduinolcd\test\pain drain\libraries\lvgl\src\misc\lv_area.h **** #define LV_AREA_H
   8:c:\projects\paindrain\arduinolcd\test\pain drain\libraries\lvgl\src\misc\lv_area.h **** 
   9:c:\projects\paindrain\arduinolcd\test\pain drain\libraries\lvgl\src\misc\lv_area.h **** #ifdef __cplusplus
  10:c:\projects\paindrain\arduinolcd\test\pain drain\libraries\lvgl\src\misc\lv_area.h **** extern "C" {
  11:c:\projects\paindrain\arduinolcd\test\pain drain\libraries\lvgl\src\misc\lv_area.h **** #endif
  12:c:\projects\paindrain\arduinolcd\test\pain drain\libraries\lvgl\src\misc\lv_area.h **** 
  13:c:\projects\paindrain\arduinolcd\test\pain drain\libraries\lvgl\src\misc\lv_area.h **** /*********************
  14:c:\projects\paindrain\arduinolcd\test\pain drain\libraries\lvgl\src\misc\lv_area.h ****  *      INCLUDES
  15:c:\projects\paindrain\arduinolcd\test\pain drain\libraries\lvgl\src\misc\lv_area.h ****  *********************/
  16:c:\projects\paindrain\arduinolcd\test\pain drain\libraries\lvgl\src\misc\lv_area.h **** #include "../lv_conf_internal.h"
  17:c:\projects\paindrain\arduinolcd\test\pain drain\libraries\lvgl\src\misc\lv_area.h **** #include <stdbool.h>
  18:c:\projects\paindrain\arduinolcd\test\pain drain\libraries\lvgl\src\misc\lv_area.h **** #include <stdint.h>
  19:c:\projects\paindrain\arduinolcd\test\pain drain\libraries\lvgl\src\misc\lv_area.h **** 
  20:c:\projects\paindrain\arduinolcd\test\pain drain\libraries\lvgl\src\misc\lv_area.h **** /*********************
  21:c:\projects\paindrain\arduinolcd\test\pain drain\libraries\lvgl\src\misc\lv_area.h ****  *      DEFINES
  22:c:\projects\paindrain\arduinolcd\test\pain drain\libraries\lvgl\src\misc\lv_area.h ****  *********************/
  23:c:\projects\paindrain\arduinolcd\test\pain drain\libraries\lvgl\src\misc\lv_area.h **** 
  24:c:\projects\paindrain\arduinolcd\test\pain drain\libraries\lvgl\src\misc\lv_area.h **** #if LV_USE_LARGE_COORD
  25:c:\projects\paindrain\arduinolcd\test\pain drain\libraries\lvgl\src\misc\lv_area.h **** typedef int32_t lv_coord_t;
  26:c:\projects\paindrain\arduinolcd\test\pain drain\libraries\lvgl\src\misc\lv_area.h **** #else
  27:c:\projects\paindrain\arduinolcd\test\pain drain\libraries\lvgl\src\misc\lv_area.h **** typedef int16_t lv_coord_t;
  28:c:\projects\paindrain\arduinolcd\test\pain drain\libraries\lvgl\src\misc\lv_area.h **** #endif
  29:c:\projects\paindrain\arduinolcd\test\pain drain\libraries\lvgl\src\misc\lv_area.h **** 
  30:c:\projects\paindrain\arduinolcd\test\pain drain\libraries\lvgl\src\misc\lv_area.h **** /**********************
  31:c:\projects\paindrain\arduinolcd\test\pain drain\libraries\lvgl\src\misc\lv_area.h ****  *      TYPEDEFS
  32:c:\projects\paindrain\arduinolcd\test\pain drain\libraries\lvgl\src\misc\lv_area.h ****  **********************/
ARM GAS  C:\Users\haske\AppData\Local\Temp\cc1ymag8.s 			page 28


  33:c:\projects\paindrain\arduinolcd\test\pain drain\libraries\lvgl\src\misc\lv_area.h **** 
  34:c:\projects\paindrain\arduinolcd\test\pain drain\libraries\lvgl\src\misc\lv_area.h **** /**
  35:c:\projects\paindrain\arduinolcd\test\pain drain\libraries\lvgl\src\misc\lv_area.h ****  * Represents a point on the screen.
  36:c:\projects\paindrain\arduinolcd\test\pain drain\libraries\lvgl\src\misc\lv_area.h ****  */
  37:c:\projects\paindrain\arduinolcd\test\pain drain\libraries\lvgl\src\misc\lv_area.h **** typedef struct {
  38:c:\projects\paindrain\arduinolcd\test\pain drain\libraries\lvgl\src\misc\lv_area.h ****     lv_coord_t x;
  39:c:\projects\paindrain\arduinolcd\test\pain drain\libraries\lvgl\src\misc\lv_area.h ****     lv_coord_t y;
  40:c:\projects\paindrain\arduinolcd\test\pain drain\libraries\lvgl\src\misc\lv_area.h **** } lv_point_t;
  41:c:\projects\paindrain\arduinolcd\test\pain drain\libraries\lvgl\src\misc\lv_area.h **** 
  42:c:\projects\paindrain\arduinolcd\test\pain drain\libraries\lvgl\src\misc\lv_area.h **** /** Represents an area of the screen.*/
  43:c:\projects\paindrain\arduinolcd\test\pain drain\libraries\lvgl\src\misc\lv_area.h **** typedef struct {
  44:c:\projects\paindrain\arduinolcd\test\pain drain\libraries\lvgl\src\misc\lv_area.h ****     lv_coord_t x1;
  45:c:\projects\paindrain\arduinolcd\test\pain drain\libraries\lvgl\src\misc\lv_area.h ****     lv_coord_t y1;
  46:c:\projects\paindrain\arduinolcd\test\pain drain\libraries\lvgl\src\misc\lv_area.h ****     lv_coord_t x2;
  47:c:\projects\paindrain\arduinolcd\test\pain drain\libraries\lvgl\src\misc\lv_area.h ****     lv_coord_t y2;
  48:c:\projects\paindrain\arduinolcd\test\pain drain\libraries\lvgl\src\misc\lv_area.h **** } lv_area_t;
  49:c:\projects\paindrain\arduinolcd\test\pain drain\libraries\lvgl\src\misc\lv_area.h **** 
  50:c:\projects\paindrain\arduinolcd\test\pain drain\libraries\lvgl\src\misc\lv_area.h **** /** Alignments*/
  51:c:\projects\paindrain\arduinolcd\test\pain drain\libraries\lvgl\src\misc\lv_area.h **** enum {
  52:c:\projects\paindrain\arduinolcd\test\pain drain\libraries\lvgl\src\misc\lv_area.h ****     LV_ALIGN_DEFAULT = 0,
  53:c:\projects\paindrain\arduinolcd\test\pain drain\libraries\lvgl\src\misc\lv_area.h ****     LV_ALIGN_TOP_LEFT,
  54:c:\projects\paindrain\arduinolcd\test\pain drain\libraries\lvgl\src\misc\lv_area.h ****     LV_ALIGN_TOP_MID,
  55:c:\projects\paindrain\arduinolcd\test\pain drain\libraries\lvgl\src\misc\lv_area.h ****     LV_ALIGN_TOP_RIGHT,
  56:c:\projects\paindrain\arduinolcd\test\pain drain\libraries\lvgl\src\misc\lv_area.h ****     LV_ALIGN_BOTTOM_LEFT,
  57:c:\projects\paindrain\arduinolcd\test\pain drain\libraries\lvgl\src\misc\lv_area.h ****     LV_ALIGN_BOTTOM_MID,
  58:c:\projects\paindrain\arduinolcd\test\pain drain\libraries\lvgl\src\misc\lv_area.h ****     LV_ALIGN_BOTTOM_RIGHT,
  59:c:\projects\paindrain\arduinolcd\test\pain drain\libraries\lvgl\src\misc\lv_area.h ****     LV_ALIGN_LEFT_MID,
  60:c:\projects\paindrain\arduinolcd\test\pain drain\libraries\lvgl\src\misc\lv_area.h ****     LV_ALIGN_RIGHT_MID,
  61:c:\projects\paindrain\arduinolcd\test\pain drain\libraries\lvgl\src\misc\lv_area.h ****     LV_ALIGN_CENTER,
  62:c:\projects\paindrain\arduinolcd\test\pain drain\libraries\lvgl\src\misc\lv_area.h **** 
  63:c:\projects\paindrain\arduinolcd\test\pain drain\libraries\lvgl\src\misc\lv_area.h ****     LV_ALIGN_OUT_TOP_LEFT,
  64:c:\projects\paindrain\arduinolcd\test\pain drain\libraries\lvgl\src\misc\lv_area.h ****     LV_ALIGN_OUT_TOP_MID,
  65:c:\projects\paindrain\arduinolcd\test\pain drain\libraries\lvgl\src\misc\lv_area.h ****     LV_ALIGN_OUT_TOP_RIGHT,
  66:c:\projects\paindrain\arduinolcd\test\pain drain\libraries\lvgl\src\misc\lv_area.h ****     LV_ALIGN_OUT_BOTTOM_LEFT,
  67:c:\projects\paindrain\arduinolcd\test\pain drain\libraries\lvgl\src\misc\lv_area.h ****     LV_ALIGN_OUT_BOTTOM_MID,
  68:c:\projects\paindrain\arduinolcd\test\pain drain\libraries\lvgl\src\misc\lv_area.h ****     LV_ALIGN_OUT_BOTTOM_RIGHT,
  69:c:\projects\paindrain\arduinolcd\test\pain drain\libraries\lvgl\src\misc\lv_area.h ****     LV_ALIGN_OUT_LEFT_TOP,
  70:c:\projects\paindrain\arduinolcd\test\pain drain\libraries\lvgl\src\misc\lv_area.h ****     LV_ALIGN_OUT_LEFT_MID,
  71:c:\projects\paindrain\arduinolcd\test\pain drain\libraries\lvgl\src\misc\lv_area.h ****     LV_ALIGN_OUT_LEFT_BOTTOM,
  72:c:\projects\paindrain\arduinolcd\test\pain drain\libraries\lvgl\src\misc\lv_area.h ****     LV_ALIGN_OUT_RIGHT_TOP,
  73:c:\projects\paindrain\arduinolcd\test\pain drain\libraries\lvgl\src\misc\lv_area.h ****     LV_ALIGN_OUT_RIGHT_MID,
  74:c:\projects\paindrain\arduinolcd\test\pain drain\libraries\lvgl\src\misc\lv_area.h ****     LV_ALIGN_OUT_RIGHT_BOTTOM,
  75:c:\projects\paindrain\arduinolcd\test\pain drain\libraries\lvgl\src\misc\lv_area.h **** };
  76:c:\projects\paindrain\arduinolcd\test\pain drain\libraries\lvgl\src\misc\lv_area.h **** typedef uint8_t lv_align_t;
  77:c:\projects\paindrain\arduinolcd\test\pain drain\libraries\lvgl\src\misc\lv_area.h **** 
  78:c:\projects\paindrain\arduinolcd\test\pain drain\libraries\lvgl\src\misc\lv_area.h **** enum {
  79:c:\projects\paindrain\arduinolcd\test\pain drain\libraries\lvgl\src\misc\lv_area.h ****     LV_DIR_NONE     = 0x00,
  80:c:\projects\paindrain\arduinolcd\test\pain drain\libraries\lvgl\src\misc\lv_area.h ****     LV_DIR_LEFT     = (1 << 0),
  81:c:\projects\paindrain\arduinolcd\test\pain drain\libraries\lvgl\src\misc\lv_area.h ****     LV_DIR_RIGHT    = (1 << 1),
  82:c:\projects\paindrain\arduinolcd\test\pain drain\libraries\lvgl\src\misc\lv_area.h ****     LV_DIR_TOP      = (1 << 2),
  83:c:\projects\paindrain\arduinolcd\test\pain drain\libraries\lvgl\src\misc\lv_area.h ****     LV_DIR_BOTTOM   = (1 << 3),
  84:c:\projects\paindrain\arduinolcd\test\pain drain\libraries\lvgl\src\misc\lv_area.h ****     LV_DIR_HOR      = LV_DIR_LEFT | LV_DIR_RIGHT,
  85:c:\projects\paindrain\arduinolcd\test\pain drain\libraries\lvgl\src\misc\lv_area.h ****     LV_DIR_VER      = LV_DIR_TOP | LV_DIR_BOTTOM,
  86:c:\projects\paindrain\arduinolcd\test\pain drain\libraries\lvgl\src\misc\lv_area.h ****     LV_DIR_ALL      = LV_DIR_HOR | LV_DIR_VER,
  87:c:\projects\paindrain\arduinolcd\test\pain drain\libraries\lvgl\src\misc\lv_area.h **** };
  88:c:\projects\paindrain\arduinolcd\test\pain drain\libraries\lvgl\src\misc\lv_area.h **** 
  89:c:\projects\paindrain\arduinolcd\test\pain drain\libraries\lvgl\src\misc\lv_area.h **** typedef uint8_t lv_dir_t;
ARM GAS  C:\Users\haske\AppData\Local\Temp\cc1ymag8.s 			page 29


  90:c:\projects\paindrain\arduinolcd\test\pain drain\libraries\lvgl\src\misc\lv_area.h **** 
  91:c:\projects\paindrain\arduinolcd\test\pain drain\libraries\lvgl\src\misc\lv_area.h **** /**********************
  92:c:\projects\paindrain\arduinolcd\test\pain drain\libraries\lvgl\src\misc\lv_area.h ****  * GLOBAL PROTOTYPES
  93:c:\projects\paindrain\arduinolcd\test\pain drain\libraries\lvgl\src\misc\lv_area.h ****  **********************/
  94:c:\projects\paindrain\arduinolcd\test\pain drain\libraries\lvgl\src\misc\lv_area.h **** 
  95:c:\projects\paindrain\arduinolcd\test\pain drain\libraries\lvgl\src\misc\lv_area.h **** /**
  96:c:\projects\paindrain\arduinolcd\test\pain drain\libraries\lvgl\src\misc\lv_area.h ****  * Initialize an area
  97:c:\projects\paindrain\arduinolcd\test\pain drain\libraries\lvgl\src\misc\lv_area.h ****  * @param area_p pointer to an area
  98:c:\projects\paindrain\arduinolcd\test\pain drain\libraries\lvgl\src\misc\lv_area.h ****  * @param x1 left coordinate of the area
  99:c:\projects\paindrain\arduinolcd\test\pain drain\libraries\lvgl\src\misc\lv_area.h ****  * @param y1 top coordinate of the area
 100:c:\projects\paindrain\arduinolcd\test\pain drain\libraries\lvgl\src\misc\lv_area.h ****  * @param x2 right coordinate of the area
 101:c:\projects\paindrain\arduinolcd\test\pain drain\libraries\lvgl\src\misc\lv_area.h ****  * @param y2 bottom coordinate of the area
 102:c:\projects\paindrain\arduinolcd\test\pain drain\libraries\lvgl\src\misc\lv_area.h ****  */
 103:c:\projects\paindrain\arduinolcd\test\pain drain\libraries\lvgl\src\misc\lv_area.h **** void lv_area_set(lv_area_t * area_p, lv_coord_t x1, lv_coord_t y1, lv_coord_t x2, lv_coord_t y2);
 104:c:\projects\paindrain\arduinolcd\test\pain drain\libraries\lvgl\src\misc\lv_area.h **** 
 105:c:\projects\paindrain\arduinolcd\test\pain drain\libraries\lvgl\src\misc\lv_area.h **** /**
 106:c:\projects\paindrain\arduinolcd\test\pain drain\libraries\lvgl\src\misc\lv_area.h ****  * Copy an area
 107:c:\projects\paindrain\arduinolcd\test\pain drain\libraries\lvgl\src\misc\lv_area.h ****  * @param dest pointer to the destination area
 108:c:\projects\paindrain\arduinolcd\test\pain drain\libraries\lvgl\src\misc\lv_area.h ****  * @param src pointer to the source area
 109:c:\projects\paindrain\arduinolcd\test\pain drain\libraries\lvgl\src\misc\lv_area.h ****  */
 110:c:\projects\paindrain\arduinolcd\test\pain drain\libraries\lvgl\src\misc\lv_area.h **** inline static void lv_area_copy(lv_area_t * dest, const lv_area_t * src)
 111:c:\projects\paindrain\arduinolcd\test\pain drain\libraries\lvgl\src\misc\lv_area.h **** {
 112:c:\projects\paindrain\arduinolcd\test\pain drain\libraries\lvgl\src\misc\lv_area.h ****     dest->x1 = src->x1;
 456              		.loc 3 112 0
 457 00dc 0023     		movs	r3, #0
 458 00de EA5E     		ldrsh	r2, [r5, r3]
 459 00e0 6823     		movs	r3, #104
 460 00e2 E252     		strh	r2, [r4, r3]
 113:c:\projects\paindrain\arduinolcd\test\pain drain\libraries\lvgl\src\misc\lv_area.h ****     dest->y1 = src->y1;
 461              		.loc 3 113 0
 462 00e4 0222     		movs	r2, #2
 463 00e6 AB5E     		ldrsh	r3, [r5, r2]
 464 00e8 2600     		movs	r6, r4
 465 00ea 6836     		adds	r6, r6, #104
 466              	.LVL64:
 467 00ec 7380     		strh	r3, [r6, #2]
 114:c:\projects\paindrain\arduinolcd\test\pain drain\libraries\lvgl\src\misc\lv_area.h ****     dest->x2 = src->x2;
 468              		.loc 3 114 0
 469 00ee 0422     		movs	r2, #4
 470 00f0 AB5E     		ldrsh	r3, [r5, r2]
 471 00f2 B380     		strh	r3, [r6, #4]
 115:c:\projects\paindrain\arduinolcd\test\pain drain\libraries\lvgl\src\misc\lv_area.h ****     dest->y2 = src->y2;
 472              		.loc 3 115 0
 473 00f4 0622     		movs	r2, #6
 474 00f6 AB5E     		ldrsh	r3, [r5, r2]
 475 00f8 F380     		strh	r3, [r6, #6]
 476              	.LVL65:
 477              	.LBE98:
 478              	.LBE97:
 367:..\..\..\arduinoLCD\test\Pain Drain\libraries\lvgl\src\widgets/lv_slider.c ****     part_draw_dsc.part = LV_PART_KNOB;
 479              		.loc 1 367 0
 480 00fa 0199     		ldr	r1, [sp, #4]
 481 00fc 12A8     		add	r0, sp, #72
 482 00fe FFF7FEFF 		bl	lv_obj_draw_dsc_init
 483              	.LVL66:
 368:..\..\..\arduinoLCD\test\Pain Drain\libraries\lvgl\src\widgets/lv_slider.c ****     part_draw_dsc.class_p = MY_CLASS;
 484              		.loc 1 368 0
ARM GAS  C:\Users\haske\AppData\Local\Temp\cc1ymag8.s 			page 30


 485 0102 5346     		mov	r3, r10
 486 0104 1F93     		str	r3, [sp, #124]
 369:..\..\..\arduinoLCD\test\Pain Drain\libraries\lvgl\src\widgets/lv_slider.c ****     part_draw_dsc.type = LV_SLIDER_DRAW_PART_KNOB;
 487              		.loc 1 369 0
 488 0106 404B     		ldr	r3, .L25
 489 0108 1393     		str	r3, [sp, #76]
 370:..\..\..\arduinoLCD\test\Pain Drain\libraries\lvgl\src\widgets/lv_slider.c ****     part_draw_dsc.id = 0;
 490              		.loc 1 370 0
 491 010a 0023     		movs	r3, #0
 492 010c 1493     		str	r3, [sp, #80]
 371:..\..\..\arduinoLCD\test\Pain Drain\libraries\lvgl\src\widgets/lv_slider.c ****     part_draw_dsc.draw_area = &slider->right_knob_area;
 493              		.loc 1 371 0
 494 010e 2093     		str	r3, [sp, #128]
 372:..\..\..\arduinoLCD\test\Pain Drain\libraries\lvgl\src\widgets/lv_slider.c ****     part_draw_dsc.rect_dsc = &knob_rect_dsc;
 495              		.loc 1 372 0
 496 0110 1596     		str	r6, [sp, #84]
 373:..\..\..\arduinoLCD\test\Pain Drain\libraries\lvgl\src\widgets/lv_slider.c **** 
 497              		.loc 1 373 0
 498 0112 1697     		str	r7, [sp, #88]
 499              	.LVL67:
 500              	.LBB99:
 501              	.LBB100:
 502              		.file 4 "..\\..\\..\\arduinoLCD\\test\\Pain Drain\\libraries\\lvgl\\src\\widgets\\lv_slider.h"
   1:..\..\..\arduinoLCD\test\Pain Drain\libraries\lvgl\src\widgets/lv_slider.h **** /**
   2:..\..\..\arduinoLCD\test\Pain Drain\libraries\lvgl\src\widgets/lv_slider.h ****  * @file lv_slider.h
   3:..\..\..\arduinoLCD\test\Pain Drain\libraries\lvgl\src\widgets/lv_slider.h ****  *
   4:..\..\..\arduinoLCD\test\Pain Drain\libraries\lvgl\src\widgets/lv_slider.h ****  */
   5:..\..\..\arduinoLCD\test\Pain Drain\libraries\lvgl\src\widgets/lv_slider.h **** 
   6:..\..\..\arduinoLCD\test\Pain Drain\libraries\lvgl\src\widgets/lv_slider.h **** #ifndef LV_SLIDER_H
   7:..\..\..\arduinoLCD\test\Pain Drain\libraries\lvgl\src\widgets/lv_slider.h **** #define LV_SLIDER_H
   8:..\..\..\arduinoLCD\test\Pain Drain\libraries\lvgl\src\widgets/lv_slider.h **** 
   9:..\..\..\arduinoLCD\test\Pain Drain\libraries\lvgl\src\widgets/lv_slider.h **** #ifdef __cplusplus
  10:..\..\..\arduinoLCD\test\Pain Drain\libraries\lvgl\src\widgets/lv_slider.h **** extern "C" {
  11:..\..\..\arduinoLCD\test\Pain Drain\libraries\lvgl\src\widgets/lv_slider.h **** #endif
  12:..\..\..\arduinoLCD\test\Pain Drain\libraries\lvgl\src\widgets/lv_slider.h **** 
  13:..\..\..\arduinoLCD\test\Pain Drain\libraries\lvgl\src\widgets/lv_slider.h **** /*********************
  14:..\..\..\arduinoLCD\test\Pain Drain\libraries\lvgl\src\widgets/lv_slider.h ****  *      INCLUDES
  15:..\..\..\arduinoLCD\test\Pain Drain\libraries\lvgl\src\widgets/lv_slider.h ****  *********************/
  16:..\..\..\arduinoLCD\test\Pain Drain\libraries\lvgl\src\widgets/lv_slider.h **** #include "../lv_conf_internal.h"
  17:..\..\..\arduinoLCD\test\Pain Drain\libraries\lvgl\src\widgets/lv_slider.h **** 
  18:..\..\..\arduinoLCD\test\Pain Drain\libraries\lvgl\src\widgets/lv_slider.h **** #if LV_USE_SLIDER != 0
  19:..\..\..\arduinoLCD\test\Pain Drain\libraries\lvgl\src\widgets/lv_slider.h **** 
  20:..\..\..\arduinoLCD\test\Pain Drain\libraries\lvgl\src\widgets/lv_slider.h **** /*Testing of dependencies*/
  21:..\..\..\arduinoLCD\test\Pain Drain\libraries\lvgl\src\widgets/lv_slider.h **** #if LV_USE_BAR == 0
  22:..\..\..\arduinoLCD\test\Pain Drain\libraries\lvgl\src\widgets/lv_slider.h **** #error "lv_slider: lv_bar is required. Enable it in lv_conf.h (LV_USE_BAR 1)"
  23:..\..\..\arduinoLCD\test\Pain Drain\libraries\lvgl\src\widgets/lv_slider.h **** #endif
  24:..\..\..\arduinoLCD\test\Pain Drain\libraries\lvgl\src\widgets/lv_slider.h **** 
  25:..\..\..\arduinoLCD\test\Pain Drain\libraries\lvgl\src\widgets/lv_slider.h **** #include "../core/lv_obj.h"
  26:..\..\..\arduinoLCD\test\Pain Drain\libraries\lvgl\src\widgets/lv_slider.h **** #include "lv_bar.h"
  27:..\..\..\arduinoLCD\test\Pain Drain\libraries\lvgl\src\widgets/lv_slider.h **** 
  28:..\..\..\arduinoLCD\test\Pain Drain\libraries\lvgl\src\widgets/lv_slider.h **** /*********************
  29:..\..\..\arduinoLCD\test\Pain Drain\libraries\lvgl\src\widgets/lv_slider.h ****  *      DEFINES
  30:..\..\..\arduinoLCD\test\Pain Drain\libraries\lvgl\src\widgets/lv_slider.h ****  *********************/
  31:..\..\..\arduinoLCD\test\Pain Drain\libraries\lvgl\src\widgets/lv_slider.h **** 
  32:..\..\..\arduinoLCD\test\Pain Drain\libraries\lvgl\src\widgets/lv_slider.h **** /**********************
  33:..\..\..\arduinoLCD\test\Pain Drain\libraries\lvgl\src\widgets/lv_slider.h ****  *      TYPEDEFS
  34:..\..\..\arduinoLCD\test\Pain Drain\libraries\lvgl\src\widgets/lv_slider.h ****  **********************/
ARM GAS  C:\Users\haske\AppData\Local\Temp\cc1ymag8.s 			page 31


  35:..\..\..\arduinoLCD\test\Pain Drain\libraries\lvgl\src\widgets/lv_slider.h **** 
  36:..\..\..\arduinoLCD\test\Pain Drain\libraries\lvgl\src\widgets/lv_slider.h **** enum {
  37:..\..\..\arduinoLCD\test\Pain Drain\libraries\lvgl\src\widgets/lv_slider.h ****     LV_SLIDER_MODE_NORMAL = LV_BAR_MODE_NORMAL,
  38:..\..\..\arduinoLCD\test\Pain Drain\libraries\lvgl\src\widgets/lv_slider.h ****     LV_SLIDER_MODE_SYMMETRICAL = LV_BAR_MODE_SYMMETRICAL,
  39:..\..\..\arduinoLCD\test\Pain Drain\libraries\lvgl\src\widgets/lv_slider.h ****     LV_SLIDER_MODE_RANGE = LV_BAR_MODE_RANGE
  40:..\..\..\arduinoLCD\test\Pain Drain\libraries\lvgl\src\widgets/lv_slider.h **** };
  41:..\..\..\arduinoLCD\test\Pain Drain\libraries\lvgl\src\widgets/lv_slider.h **** typedef uint8_t lv_slider_mode_t;
  42:..\..\..\arduinoLCD\test\Pain Drain\libraries\lvgl\src\widgets/lv_slider.h **** 
  43:..\..\..\arduinoLCD\test\Pain Drain\libraries\lvgl\src\widgets/lv_slider.h **** typedef struct {
  44:..\..\..\arduinoLCD\test\Pain Drain\libraries\lvgl\src\widgets/lv_slider.h ****     lv_bar_t bar;       /*Add the ancestor's type first*/
  45:..\..\..\arduinoLCD\test\Pain Drain\libraries\lvgl\src\widgets/lv_slider.h ****     lv_area_t left_knob_area;
  46:..\..\..\arduinoLCD\test\Pain Drain\libraries\lvgl\src\widgets/lv_slider.h ****     lv_area_t right_knob_area;
  47:..\..\..\arduinoLCD\test\Pain Drain\libraries\lvgl\src\widgets/lv_slider.h ****     int32_t * value_to_set; /*Which bar value to set*/
  48:..\..\..\arduinoLCD\test\Pain Drain\libraries\lvgl\src\widgets/lv_slider.h ****     uint8_t dragging : 1;       /*1: the slider is being dragged*/
  49:..\..\..\arduinoLCD\test\Pain Drain\libraries\lvgl\src\widgets/lv_slider.h ****     uint8_t left_knob_focus : 1; /*1: with encoder now the right knob can be adjusted*/
  50:..\..\..\arduinoLCD\test\Pain Drain\libraries\lvgl\src\widgets/lv_slider.h **** } lv_slider_t;
  51:..\..\..\arduinoLCD\test\Pain Drain\libraries\lvgl\src\widgets/lv_slider.h **** 
  52:..\..\..\arduinoLCD\test\Pain Drain\libraries\lvgl\src\widgets/lv_slider.h **** extern const lv_obj_class_t lv_slider_class;
  53:..\..\..\arduinoLCD\test\Pain Drain\libraries\lvgl\src\widgets/lv_slider.h **** 
  54:..\..\..\arduinoLCD\test\Pain Drain\libraries\lvgl\src\widgets/lv_slider.h **** /**
  55:..\..\..\arduinoLCD\test\Pain Drain\libraries\lvgl\src\widgets/lv_slider.h ****  * `type` field in `lv_obj_draw_part_dsc_t` if `class_p = lv_slider_class`
  56:..\..\..\arduinoLCD\test\Pain Drain\libraries\lvgl\src\widgets/lv_slider.h ****  * Used in `LV_EVENT_DRAW_PART_BEGIN` and `LV_EVENT_DRAW_PART_END`
  57:..\..\..\arduinoLCD\test\Pain Drain\libraries\lvgl\src\widgets/lv_slider.h ****  */
  58:..\..\..\arduinoLCD\test\Pain Drain\libraries\lvgl\src\widgets/lv_slider.h **** typedef enum {
  59:..\..\..\arduinoLCD\test\Pain Drain\libraries\lvgl\src\widgets/lv_slider.h ****     LV_SLIDER_DRAW_PART_KNOB,           /**< The main (right) knob's rectangle*/
  60:..\..\..\arduinoLCD\test\Pain Drain\libraries\lvgl\src\widgets/lv_slider.h ****     LV_SLIDER_DRAW_PART_KNOB_LEFT,      /**< The left knob's rectangle*/
  61:..\..\..\arduinoLCD\test\Pain Drain\libraries\lvgl\src\widgets/lv_slider.h **** } lv_slider_draw_part_type_t;
  62:..\..\..\arduinoLCD\test\Pain Drain\libraries\lvgl\src\widgets/lv_slider.h **** 
  63:..\..\..\arduinoLCD\test\Pain Drain\libraries\lvgl\src\widgets/lv_slider.h **** /**********************
  64:..\..\..\arduinoLCD\test\Pain Drain\libraries\lvgl\src\widgets/lv_slider.h ****  * GLOBAL PROTOTYPES
  65:..\..\..\arduinoLCD\test\Pain Drain\libraries\lvgl\src\widgets/lv_slider.h ****  **********************/
  66:..\..\..\arduinoLCD\test\Pain Drain\libraries\lvgl\src\widgets/lv_slider.h **** 
  67:..\..\..\arduinoLCD\test\Pain Drain\libraries\lvgl\src\widgets/lv_slider.h **** /**
  68:..\..\..\arduinoLCD\test\Pain Drain\libraries\lvgl\src\widgets/lv_slider.h ****  * Create a slider object
  69:..\..\..\arduinoLCD\test\Pain Drain\libraries\lvgl\src\widgets/lv_slider.h ****  * @param parent    pointer to an object, it will be the parent of the new slider.
  70:..\..\..\arduinoLCD\test\Pain Drain\libraries\lvgl\src\widgets/lv_slider.h ****  * @return          pointer to the created slider
  71:..\..\..\arduinoLCD\test\Pain Drain\libraries\lvgl\src\widgets/lv_slider.h ****  */
  72:..\..\..\arduinoLCD\test\Pain Drain\libraries\lvgl\src\widgets/lv_slider.h **** lv_obj_t * lv_slider_create(lv_obj_t * parent);
  73:..\..\..\arduinoLCD\test\Pain Drain\libraries\lvgl\src\widgets/lv_slider.h **** 
  74:..\..\..\arduinoLCD\test\Pain Drain\libraries\lvgl\src\widgets/lv_slider.h **** /*=====================
  75:..\..\..\arduinoLCD\test\Pain Drain\libraries\lvgl\src\widgets/lv_slider.h ****  * Setter functions
  76:..\..\..\arduinoLCD\test\Pain Drain\libraries\lvgl\src\widgets/lv_slider.h ****  *====================*/
  77:..\..\..\arduinoLCD\test\Pain Drain\libraries\lvgl\src\widgets/lv_slider.h **** 
  78:..\..\..\arduinoLCD\test\Pain Drain\libraries\lvgl\src\widgets/lv_slider.h **** /**
  79:..\..\..\arduinoLCD\test\Pain Drain\libraries\lvgl\src\widgets/lv_slider.h ****  * Set a new value on the slider
  80:..\..\..\arduinoLCD\test\Pain Drain\libraries\lvgl\src\widgets/lv_slider.h ****  * @param obj       pointer to a slider object
  81:..\..\..\arduinoLCD\test\Pain Drain\libraries\lvgl\src\widgets/lv_slider.h ****  * @param value     the new value
  82:..\..\..\arduinoLCD\test\Pain Drain\libraries\lvgl\src\widgets/lv_slider.h ****  * @param anim      LV_ANIM_ON: set the value with an animation; LV_ANIM_OFF: change the value imme
  83:..\..\..\arduinoLCD\test\Pain Drain\libraries\lvgl\src\widgets/lv_slider.h ****  */
  84:..\..\..\arduinoLCD\test\Pain Drain\libraries\lvgl\src\widgets/lv_slider.h **** static inline void lv_slider_set_value(lv_obj_t * obj, int32_t value, lv_anim_enable_t anim)
  85:..\..\..\arduinoLCD\test\Pain Drain\libraries\lvgl\src\widgets/lv_slider.h **** {
  86:..\..\..\arduinoLCD\test\Pain Drain\libraries\lvgl\src\widgets/lv_slider.h ****     lv_bar_set_value(obj, value, anim);
  87:..\..\..\arduinoLCD\test\Pain Drain\libraries\lvgl\src\widgets/lv_slider.h **** }
  88:..\..\..\arduinoLCD\test\Pain Drain\libraries\lvgl\src\widgets/lv_slider.h **** 
  89:..\..\..\arduinoLCD\test\Pain Drain\libraries\lvgl\src\widgets/lv_slider.h **** /**
  90:..\..\..\arduinoLCD\test\Pain Drain\libraries\lvgl\src\widgets/lv_slider.h ****  * Set a new value for the left knob of a slider
  91:..\..\..\arduinoLCD\test\Pain Drain\libraries\lvgl\src\widgets/lv_slider.h ****  * @param obj       pointer to a slider object
ARM GAS  C:\Users\haske\AppData\Local\Temp\cc1ymag8.s 			page 32


  92:..\..\..\arduinoLCD\test\Pain Drain\libraries\lvgl\src\widgets/lv_slider.h ****  * @param value     new value
  93:..\..\..\arduinoLCD\test\Pain Drain\libraries\lvgl\src\widgets/lv_slider.h ****  * @param anim      LV_ANIM_ON: set the value with an animation; LV_ANIM_OFF: change the value imme
  94:..\..\..\arduinoLCD\test\Pain Drain\libraries\lvgl\src\widgets/lv_slider.h ****  */
  95:..\..\..\arduinoLCD\test\Pain Drain\libraries\lvgl\src\widgets/lv_slider.h **** static inline void lv_slider_set_left_value(lv_obj_t * obj, int32_t value, lv_anim_enable_t anim)
  96:..\..\..\arduinoLCD\test\Pain Drain\libraries\lvgl\src\widgets/lv_slider.h **** {
  97:..\..\..\arduinoLCD\test\Pain Drain\libraries\lvgl\src\widgets/lv_slider.h ****     lv_bar_set_start_value(obj, value, anim);
  98:..\..\..\arduinoLCD\test\Pain Drain\libraries\lvgl\src\widgets/lv_slider.h **** }
  99:..\..\..\arduinoLCD\test\Pain Drain\libraries\lvgl\src\widgets/lv_slider.h **** 
 100:..\..\..\arduinoLCD\test\Pain Drain\libraries\lvgl\src\widgets/lv_slider.h **** /**
 101:..\..\..\arduinoLCD\test\Pain Drain\libraries\lvgl\src\widgets/lv_slider.h ****  * Set minimum and the maximum values of a bar
 102:..\..\..\arduinoLCD\test\Pain Drain\libraries\lvgl\src\widgets/lv_slider.h ****  * @param obj       pointer to the slider object
 103:..\..\..\arduinoLCD\test\Pain Drain\libraries\lvgl\src\widgets/lv_slider.h ****  * @param min       minimum value
 104:..\..\..\arduinoLCD\test\Pain Drain\libraries\lvgl\src\widgets/lv_slider.h ****  * @param max       maximum value
 105:..\..\..\arduinoLCD\test\Pain Drain\libraries\lvgl\src\widgets/lv_slider.h ****  */
 106:..\..\..\arduinoLCD\test\Pain Drain\libraries\lvgl\src\widgets/lv_slider.h **** static inline void lv_slider_set_range(lv_obj_t * obj, int32_t min, int32_t max)
 107:..\..\..\arduinoLCD\test\Pain Drain\libraries\lvgl\src\widgets/lv_slider.h **** {
 108:..\..\..\arduinoLCD\test\Pain Drain\libraries\lvgl\src\widgets/lv_slider.h ****     lv_bar_set_range(obj, min, max);
 109:..\..\..\arduinoLCD\test\Pain Drain\libraries\lvgl\src\widgets/lv_slider.h **** }
 110:..\..\..\arduinoLCD\test\Pain Drain\libraries\lvgl\src\widgets/lv_slider.h **** 
 111:..\..\..\arduinoLCD\test\Pain Drain\libraries\lvgl\src\widgets/lv_slider.h **** /**
 112:..\..\..\arduinoLCD\test\Pain Drain\libraries\lvgl\src\widgets/lv_slider.h ****  * Set the mode of slider.
 113:..\..\..\arduinoLCD\test\Pain Drain\libraries\lvgl\src\widgets/lv_slider.h ****  * @param obj       pointer to a slider object
 114:..\..\..\arduinoLCD\test\Pain Drain\libraries\lvgl\src\widgets/lv_slider.h ****  * @param mode      the mode of the slider. See ::lv_slider_mode_t
 115:..\..\..\arduinoLCD\test\Pain Drain\libraries\lvgl\src\widgets/lv_slider.h ****  */
 116:..\..\..\arduinoLCD\test\Pain Drain\libraries\lvgl\src\widgets/lv_slider.h **** static inline void lv_slider_set_mode(lv_obj_t * obj, lv_slider_mode_t mode)
 117:..\..\..\arduinoLCD\test\Pain Drain\libraries\lvgl\src\widgets/lv_slider.h **** {
 118:..\..\..\arduinoLCD\test\Pain Drain\libraries\lvgl\src\widgets/lv_slider.h ****     lv_bar_set_mode(obj, (lv_bar_mode_t)mode);
 119:..\..\..\arduinoLCD\test\Pain Drain\libraries\lvgl\src\widgets/lv_slider.h **** }
 120:..\..\..\arduinoLCD\test\Pain Drain\libraries\lvgl\src\widgets/lv_slider.h **** 
 121:..\..\..\arduinoLCD\test\Pain Drain\libraries\lvgl\src\widgets/lv_slider.h **** /*=====================
 122:..\..\..\arduinoLCD\test\Pain Drain\libraries\lvgl\src\widgets/lv_slider.h ****  * Getter functions
 123:..\..\..\arduinoLCD\test\Pain Drain\libraries\lvgl\src\widgets/lv_slider.h ****  *====================*/
 124:..\..\..\arduinoLCD\test\Pain Drain\libraries\lvgl\src\widgets/lv_slider.h **** 
 125:..\..\..\arduinoLCD\test\Pain Drain\libraries\lvgl\src\widgets/lv_slider.h **** /**
 126:..\..\..\arduinoLCD\test\Pain Drain\libraries\lvgl\src\widgets/lv_slider.h ****  * Get the value of the main knob of a slider
 127:..\..\..\arduinoLCD\test\Pain Drain\libraries\lvgl\src\widgets/lv_slider.h ****  * @param obj       pointer to a slider object
 128:..\..\..\arduinoLCD\test\Pain Drain\libraries\lvgl\src\widgets/lv_slider.h ****  * @return          the value of the main knob of the slider
 129:..\..\..\arduinoLCD\test\Pain Drain\libraries\lvgl\src\widgets/lv_slider.h ****  */
 130:..\..\..\arduinoLCD\test\Pain Drain\libraries\lvgl\src\widgets/lv_slider.h **** static inline int32_t lv_slider_get_value(const lv_obj_t * obj)
 131:..\..\..\arduinoLCD\test\Pain Drain\libraries\lvgl\src\widgets/lv_slider.h **** {
 132:..\..\..\arduinoLCD\test\Pain Drain\libraries\lvgl\src\widgets/lv_slider.h ****     return lv_bar_get_value(obj);
 133:..\..\..\arduinoLCD\test\Pain Drain\libraries\lvgl\src\widgets/lv_slider.h **** }
 134:..\..\..\arduinoLCD\test\Pain Drain\libraries\lvgl\src\widgets/lv_slider.h **** 
 135:..\..\..\arduinoLCD\test\Pain Drain\libraries\lvgl\src\widgets/lv_slider.h **** /**
 136:..\..\..\arduinoLCD\test\Pain Drain\libraries\lvgl\src\widgets/lv_slider.h ****  * Get the value of the left knob of a slider
 137:..\..\..\arduinoLCD\test\Pain Drain\libraries\lvgl\src\widgets/lv_slider.h ****  * @param obj       pointer to a slider object
 138:..\..\..\arduinoLCD\test\Pain Drain\libraries\lvgl\src\widgets/lv_slider.h ****  * @return          the value of the left knob of the slider
 139:..\..\..\arduinoLCD\test\Pain Drain\libraries\lvgl\src\widgets/lv_slider.h ****  */
 140:..\..\..\arduinoLCD\test\Pain Drain\libraries\lvgl\src\widgets/lv_slider.h **** static inline int32_t lv_slider_get_left_value(const lv_obj_t * obj)
 141:..\..\..\arduinoLCD\test\Pain Drain\libraries\lvgl\src\widgets/lv_slider.h **** {
 142:..\..\..\arduinoLCD\test\Pain Drain\libraries\lvgl\src\widgets/lv_slider.h ****     return lv_bar_get_start_value(obj);
 143:..\..\..\arduinoLCD\test\Pain Drain\libraries\lvgl\src\widgets/lv_slider.h **** }
 144:..\..\..\arduinoLCD\test\Pain Drain\libraries\lvgl\src\widgets/lv_slider.h **** 
 145:..\..\..\arduinoLCD\test\Pain Drain\libraries\lvgl\src\widgets/lv_slider.h **** /**
 146:..\..\..\arduinoLCD\test\Pain Drain\libraries\lvgl\src\widgets/lv_slider.h ****  * Get the minimum value of a slider
 147:..\..\..\arduinoLCD\test\Pain Drain\libraries\lvgl\src\widgets/lv_slider.h ****  * @param obj       pointer to a slider object
 148:..\..\..\arduinoLCD\test\Pain Drain\libraries\lvgl\src\widgets/lv_slider.h ****  * @return          the minimum value of the slider
ARM GAS  C:\Users\haske\AppData\Local\Temp\cc1ymag8.s 			page 33


 149:..\..\..\arduinoLCD\test\Pain Drain\libraries\lvgl\src\widgets/lv_slider.h ****  */
 150:..\..\..\arduinoLCD\test\Pain Drain\libraries\lvgl\src\widgets/lv_slider.h **** static inline int32_t lv_slider_get_min_value(const lv_obj_t * obj)
 151:..\..\..\arduinoLCD\test\Pain Drain\libraries\lvgl\src\widgets/lv_slider.h **** {
 152:..\..\..\arduinoLCD\test\Pain Drain\libraries\lvgl\src\widgets/lv_slider.h ****     return lv_bar_get_min_value(obj);
 153:..\..\..\arduinoLCD\test\Pain Drain\libraries\lvgl\src\widgets/lv_slider.h **** }
 154:..\..\..\arduinoLCD\test\Pain Drain\libraries\lvgl\src\widgets/lv_slider.h **** 
 155:..\..\..\arduinoLCD\test\Pain Drain\libraries\lvgl\src\widgets/lv_slider.h **** /**
 156:..\..\..\arduinoLCD\test\Pain Drain\libraries\lvgl\src\widgets/lv_slider.h ****  * Get the maximum value of a slider
 157:..\..\..\arduinoLCD\test\Pain Drain\libraries\lvgl\src\widgets/lv_slider.h ****  * @param obj       pointer to a slider object
 158:..\..\..\arduinoLCD\test\Pain Drain\libraries\lvgl\src\widgets/lv_slider.h ****  * @return          the maximum value of the slider
 159:..\..\..\arduinoLCD\test\Pain Drain\libraries\lvgl\src\widgets/lv_slider.h ****  */
 160:..\..\..\arduinoLCD\test\Pain Drain\libraries\lvgl\src\widgets/lv_slider.h **** static inline int32_t lv_slider_get_max_value(const lv_obj_t * obj)
 161:..\..\..\arduinoLCD\test\Pain Drain\libraries\lvgl\src\widgets/lv_slider.h **** {
 162:..\..\..\arduinoLCD\test\Pain Drain\libraries\lvgl\src\widgets/lv_slider.h ****     return lv_bar_get_max_value(obj);
 163:..\..\..\arduinoLCD\test\Pain Drain\libraries\lvgl\src\widgets/lv_slider.h **** }
 164:..\..\..\arduinoLCD\test\Pain Drain\libraries\lvgl\src\widgets/lv_slider.h **** 
 165:..\..\..\arduinoLCD\test\Pain Drain\libraries\lvgl\src\widgets/lv_slider.h **** /**
 166:..\..\..\arduinoLCD\test\Pain Drain\libraries\lvgl\src\widgets/lv_slider.h ****  * Give the slider is being dragged or not
 167:..\..\..\arduinoLCD\test\Pain Drain\libraries\lvgl\src\widgets/lv_slider.h ****  * @param obj       pointer to a slider object
 168:..\..\..\arduinoLCD\test\Pain Drain\libraries\lvgl\src\widgets/lv_slider.h ****  * @return          true: drag in progress false: not dragged
 169:..\..\..\arduinoLCD\test\Pain Drain\libraries\lvgl\src\widgets/lv_slider.h ****  */
 170:..\..\..\arduinoLCD\test\Pain Drain\libraries\lvgl\src\widgets/lv_slider.h **** bool lv_slider_is_dragged(const lv_obj_t * obj);
 171:..\..\..\arduinoLCD\test\Pain Drain\libraries\lvgl\src\widgets/lv_slider.h **** 
 172:..\..\..\arduinoLCD\test\Pain Drain\libraries\lvgl\src\widgets/lv_slider.h **** /**
 173:..\..\..\arduinoLCD\test\Pain Drain\libraries\lvgl\src\widgets/lv_slider.h ****  * Get the mode of the slider.
 174:..\..\..\arduinoLCD\test\Pain Drain\libraries\lvgl\src\widgets/lv_slider.h ****  * @param obj       pointer to a bar object
 175:..\..\..\arduinoLCD\test\Pain Drain\libraries\lvgl\src\widgets/lv_slider.h ****  * @return          see ::lv_slider_mode_t
 176:..\..\..\arduinoLCD\test\Pain Drain\libraries\lvgl\src\widgets/lv_slider.h ****  */
 177:..\..\..\arduinoLCD\test\Pain Drain\libraries\lvgl\src\widgets/lv_slider.h **** static inline lv_slider_mode_t lv_slider_get_mode(lv_obj_t * slider)
 178:..\..\..\arduinoLCD\test\Pain Drain\libraries\lvgl\src\widgets/lv_slider.h **** {
 179:..\..\..\arduinoLCD\test\Pain Drain\libraries\lvgl\src\widgets/lv_slider.h ****     lv_bar_mode_t mode = lv_bar_get_mode(slider);
 503              		.loc 4 179 0
 504 0114 2000     		movs	r0, r4
 505 0116 FFF7FEFF 		bl	lv_bar_get_mode
 506              	.LVL68:
 180:..\..\..\arduinoLCD\test\Pain Drain\libraries\lvgl\src\widgets/lv_slider.h ****     if(mode == LV_BAR_MODE_SYMMETRICAL) return LV_SLIDER_MODE_SYMMETRICAL;
 507              		.loc 4 180 0
 508 011a 0128     		cmp	r0, #1
 509 011c 03D0     		beq	.L23
 181:..\..\..\arduinoLCD\test\Pain Drain\libraries\lvgl\src\widgets/lv_slider.h ****     else if(mode == LV_BAR_MODE_RANGE) return LV_SLIDER_MODE_RANGE;
 510              		.loc 4 181 0
 511 011e 0228     		cmp	r0, #2
 512 0120 03D1     		bne	.L24
 513 0122 0223     		movs	r3, #2
 514 0124 02E0     		b	.L13
 515              	.L23:
 180:..\..\..\arduinoLCD\test\Pain Drain\libraries\lvgl\src\widgets/lv_slider.h ****     if(mode == LV_BAR_MODE_SYMMETRICAL) return LV_SLIDER_MODE_SYMMETRICAL;
 516              		.loc 4 180 0
 517 0126 0123     		movs	r3, #1
 518 0128 00E0     		b	.L13
 519              	.L24:
 182:..\..\..\arduinoLCD\test\Pain Drain\libraries\lvgl\src\widgets/lv_slider.h ****     else return LV_SLIDER_MODE_NORMAL;
 520              		.loc 4 182 0
 521 012a 0023     		movs	r3, #0
 522              	.L13:
 523              	.LVL69:
 524              	.LBE100:
ARM GAS  C:\Users\haske\AppData\Local\Temp\cc1ymag8.s 			page 34


 525              	.LBE99:
 375:..\..\..\arduinoLCD\test\Pain Drain\libraries\lvgl\src\widgets/lv_slider.c ****         lv_event_send(obj, LV_EVENT_DRAW_PART_BEGIN, &part_draw_dsc);
 526              		.loc 1 375 0
 527 012c 022B     		cmp	r3, #2
 528 012e 0FD0     		beq	.L14
 376:..\..\..\arduinoLCD\test\Pain Drain\libraries\lvgl\src\widgets/lv_slider.c ****         lv_draw_rect(draw_ctx, &knob_rect_dsc, &slider->right_knob_area);
 529              		.loc 1 376 0
 530 0130 12AA     		add	r2, sp, #72
 531 0132 1A21     		movs	r1, #26
 532 0134 2000     		movs	r0, r4
 533 0136 FFF7FEFF 		bl	lv_event_send
 534              	.LVL70:
 377:..\..\..\arduinoLCD\test\Pain Drain\libraries\lvgl\src\widgets/lv_slider.c ****         lv_event_send(obj, LV_EVENT_DRAW_PART_END, &part_draw_dsc);
 535              		.loc 1 377 0
 536 013a 3200     		movs	r2, r6
 537 013c 24A9     		add	r1, sp, #144
 538 013e 0198     		ldr	r0, [sp, #4]
 539 0140 FFF7FEFF 		bl	lv_draw_rect
 540              	.LVL71:
 378:..\..\..\arduinoLCD\test\Pain Drain\libraries\lvgl\src\widgets/lv_slider.c ****     }
 541              		.loc 1 378 0
 542 0144 12AA     		add	r2, sp, #72
 543 0146 1B21     		movs	r1, #27
 544 0148 2000     		movs	r0, r4
 545 014a FFF7FEFF 		bl	lv_event_send
 546              	.LVL72:
 547 014e 55E0     		b	.L5
 548              	.L14:
 549              	.LBB101:
 383:..\..\..\arduinoLCD\test\Pain Drain\libraries\lvgl\src\widgets/lv_slider.c ****         /* Draw the right knob */
 550              		.loc 1 383 0
 551 0150 3822     		movs	r2, #56
 552 0152 24A9     		add	r1, sp, #144
 553 0154 04A8     		add	r0, sp, #16
 554 0156 FFF7FEFF 		bl	lv_memcpy
 555              	.LVL73:
 385:..\..\..\arduinoLCD\test\Pain Drain\libraries\lvgl\src\widgets/lv_slider.c ****         lv_draw_rect(draw_ctx, &knob_rect_dsc, &slider->right_knob_area);
 556              		.loc 1 385 0
 557 015a 12AA     		add	r2, sp, #72
 558 015c 1A21     		movs	r1, #26
 559 015e 2000     		movs	r0, r4
 560 0160 FFF7FEFF 		bl	lv_event_send
 561              	.LVL74:
 386:..\..\..\arduinoLCD\test\Pain Drain\libraries\lvgl\src\widgets/lv_slider.c ****         lv_event_send(obj, LV_EVENT_DRAW_PART_END, &part_draw_dsc);
 562              		.loc 1 386 0
 563 0164 3200     		movs	r2, r6
 564 0166 24A9     		add	r1, sp, #144
 565 0168 0198     		ldr	r0, [sp, #4]
 566 016a FFF7FEFF 		bl	lv_draw_rect
 567              	.LVL75:
 387:..\..\..\arduinoLCD\test\Pain Drain\libraries\lvgl\src\widgets/lv_slider.c **** 
 568              		.loc 1 387 0
 569 016e 12AA     		add	r2, sp, #72
 570 0170 1B21     		movs	r1, #27
 571 0172 2000     		movs	r0, r4
 572 0174 FFF7FEFF 		bl	lv_event_send
 573              	.LVL76:
ARM GAS  C:\Users\haske\AppData\Local\Temp\cc1ymag8.s 			page 35


 390:..\..\..\arduinoLCD\test\Pain Drain\libraries\lvgl\src\widgets/lv_slider.c ****             /*use !is_rtl to get the other knob*/
 574              		.loc 1 390 0
 575 0178 5B46     		mov	r3, fp
 576 017a 002B     		cmp	r3, #0
 577 017c 0AD0     		beq	.L16
 392:..\..\..\arduinoLCD\test\Pain Drain\libraries\lvgl\src\widgets/lv_slider.c ****         }
 578              		.loc 1 392 0
 579 017e 4346     		mov	r3, r8
 580 0180 012B     		cmp	r3, #1
 581 0182 02D0     		beq	.L17
 392:..\..\..\arduinoLCD\test\Pain Drain\libraries\lvgl\src\widgets/lv_slider.c ****         }
 582              		.loc 1 392 0 is_stmt 0 discriminator 1
 583 0184 3423     		movs	r3, #52
 584 0186 E25E     		ldrsh	r2, [r4, r3]
 585 0188 01E0     		b	.L18
 586              	.L17:
 392:..\..\..\arduinoLCD\test\Pain Drain\libraries\lvgl\src\widgets/lv_slider.c ****         }
 587              		.loc 1 392 0 discriminator 2
 588 018a 3823     		movs	r3, #56
 589 018c E25E     		ldrsh	r2, [r4, r3]
 590              	.L18:
 392:..\..\..\arduinoLCD\test\Pain Drain\libraries\lvgl\src\widgets/lv_slider.c ****         }
 591              		.loc 1 392 0 discriminator 4
 592 018e 32AB     		add	r3, sp, #200
 593 0190 1A80     		strh	r2, [r3]
 594 0192 03E0     		b	.L19
 595              	.L16:
 395:..\..\..\arduinoLCD\test\Pain Drain\libraries\lvgl\src\widgets/lv_slider.c ****         }
 596              		.loc 1 395 0 is_stmt 1
 597 0194 3A23     		movs	r3, #58
 598 0196 E25E     		ldrsh	r2, [r4, r3]
 599 0198 32AB     		add	r3, sp, #200
 600 019a 5A80     		strh	r2, [r3, #2]
 601              	.L19:
 397:..\..\..\arduinoLCD\test\Pain Drain\libraries\lvgl\src\widgets/lv_slider.c ****         lv_area_copy(&slider->left_knob_area, &knob_area);
 602              		.loc 1 397 0
 603 019c 32AD     		add	r5, sp, #200
 604 019e 039B     		ldr	r3, [sp, #12]
 605 01a0 029A     		ldr	r2, [sp, #8]
 606 01a2 2900     		movs	r1, r5
 607 01a4 2000     		movs	r0, r4
 608 01a6 FFF7FEFF 		bl	position_knob
 609              	.LVL77:
 610              	.LBB102:
 611              	.LBB103:
 112:c:\projects\paindrain\arduinolcd\test\pain drain\libraries\lvgl\src\misc\lv_area.h ****     dest->y1 = src->y1;
 612              		.loc 3 112 0
 613 01aa 0023     		movs	r3, #0
 614 01ac EA5E     		ldrsh	r2, [r5, r3]
 615 01ae 6023     		movs	r3, #96
 616 01b0 E252     		strh	r2, [r4, r3]
 113:c:\projects\paindrain\arduinolcd\test\pain drain\libraries\lvgl\src\misc\lv_area.h ****     dest->x2 = src->x2;
 617              		.loc 3 113 0
 618 01b2 0222     		movs	r2, #2
 619 01b4 AB5E     		ldrsh	r3, [r5, r2]
 620 01b6 2600     		movs	r6, r4
 621 01b8 6036     		adds	r6, r6, #96
ARM GAS  C:\Users\haske\AppData\Local\Temp\cc1ymag8.s 			page 36


 622              	.LVL78:
 623 01ba 7380     		strh	r3, [r6, #2]
 114:c:\projects\paindrain\arduinolcd\test\pain drain\libraries\lvgl\src\misc\lv_area.h ****     dest->y2 = src->y2;
 624              		.loc 3 114 0
 625 01bc 0422     		movs	r2, #4
 626 01be AB5E     		ldrsh	r3, [r5, r2]
 627 01c0 B380     		strh	r3, [r6, #4]
 628              		.loc 3 115 0
 629 01c2 0622     		movs	r2, #6
 630 01c4 AB5E     		ldrsh	r3, [r5, r2]
 631 01c6 F380     		strh	r3, [r6, #6]
 632              	.LVL79:
 633              	.LBE103:
 634              	.LBE102:
 400:..\..\..\arduinoLCD\test\Pain Drain\libraries\lvgl\src\widgets/lv_slider.c ****         part_draw_dsc.type = LV_SLIDER_DRAW_PART_KNOB_LEFT;
 635              		.loc 1 400 0
 636 01c8 24AD     		add	r5, sp, #144
 637 01ca 3822     		movs	r2, #56
 638 01cc 04A9     		add	r1, sp, #16
 639 01ce 2800     		movs	r0, r5
 640 01d0 FFF7FEFF 		bl	lv_memcpy
 641              	.LVL80:
 401:..\..\..\arduinoLCD\test\Pain Drain\libraries\lvgl\src\widgets/lv_slider.c ****         part_draw_dsc.draw_area = &slider->left_knob_area;
 642              		.loc 1 401 0
 643 01d4 0123     		movs	r3, #1
 644 01d6 1493     		str	r3, [sp, #80]
 402:..\..\..\arduinoLCD\test\Pain Drain\libraries\lvgl\src\widgets/lv_slider.c ****         part_draw_dsc.rect_dsc = &knob_rect_dsc;
 645              		.loc 1 402 0
 646 01d8 1596     		str	r6, [sp, #84]
 403:..\..\..\arduinoLCD\test\Pain Drain\libraries\lvgl\src\widgets/lv_slider.c ****         part_draw_dsc.id = 1;
 647              		.loc 1 403 0
 648 01da 1695     		str	r5, [sp, #88]
 404:..\..\..\arduinoLCD\test\Pain Drain\libraries\lvgl\src\widgets/lv_slider.c **** 
 649              		.loc 1 404 0
 650 01dc 2093     		str	r3, [sp, #128]
 406:..\..\..\arduinoLCD\test\Pain Drain\libraries\lvgl\src\widgets/lv_slider.c ****         lv_draw_rect(draw_ctx, &knob_rect_dsc, &slider->left_knob_area);
 651              		.loc 1 406 0
 652 01de 12AA     		add	r2, sp, #72
 653 01e0 1A21     		movs	r1, #26
 654 01e2 2000     		movs	r0, r4
 655 01e4 FFF7FEFF 		bl	lv_event_send
 656              	.LVL81:
 407:..\..\..\arduinoLCD\test\Pain Drain\libraries\lvgl\src\widgets/lv_slider.c ****         lv_event_send(obj, LV_EVENT_DRAW_PART_END, &part_draw_dsc);
 657              		.loc 1 407 0
 658 01e8 3200     		movs	r2, r6
 659 01ea 2900     		movs	r1, r5
 660 01ec 0198     		ldr	r0, [sp, #4]
 661 01ee FFF7FEFF 		bl	lv_draw_rect
 662              	.LVL82:
 408:..\..\..\arduinoLCD\test\Pain Drain\libraries\lvgl\src\widgets/lv_slider.c ****     }
 663              		.loc 1 408 0
 664 01f2 12AA     		add	r2, sp, #72
 665 01f4 1B21     		movs	r1, #27
 666 01f6 2000     		movs	r0, r4
 667 01f8 FFF7FEFF 		bl	lv_event_send
 668              	.LVL83:
 669              	.L5:
ARM GAS  C:\Users\haske\AppData\Local\Temp\cc1ymag8.s 			page 37


 670              	.LBE101:
 410:..\..\..\arduinoLCD\test\Pain Drain\libraries\lvgl\src\widgets/lv_slider.c **** 
 671              		.loc 1 410 0
 672 01fc 34B0     		add	sp, sp, #208
 673              		@ sp needed
 674              	.LVL84:
 675              	.LVL85:
 676 01fe 1CBC     		pop	{r2, r3, r4}
 677 0200 9046     		mov	r8, r2
 678 0202 9A46     		mov	r10, r3
 679 0204 A346     		mov	fp, r4
 680 0206 F0BD     		pop	{r4, r5, r6, r7, pc}
 681              	.L26:
 682              		.align	2
 683              	.L25:
 684 0208 00000000 		.word	.LANCHOR0
 685              		.cfi_endproc
 686              	.LFE178:
 687              		.size	draw_knob, .-draw_knob
 688              		.global	__aeabi_idiv
 689              		.section	.text.lv_slider_event,"ax",%progbits
 690              		.align	2
 691              		.code	16
 692              		.thumb_func
 693              		.type	lv_slider_event, %function
 694              	lv_slider_event:
 695              	.LFB177:
  96:..\..\..\arduinoLCD\test\Pain Drain\libraries\lvgl\src\widgets/lv_slider.c ****     LV_UNUSED(class_p);
 696              		.loc 1 96 0
 697              		.cfi_startproc
 698              		@ args = 0, pretend = 0, frame = 16
 699              		@ frame_needed = 0, uses_anonymous_args = 0
 700              	.LVL86:
 701 0000 F0B5     		push	{r4, r5, r6, r7, lr}
 702              		.cfi_def_cfa_offset 20
 703              		.cfi_offset 4, -20
 704              		.cfi_offset 5, -16
 705              		.cfi_offset 6, -12
 706              		.cfi_offset 7, -8
 707              		.cfi_offset 14, -4
 708 0002 5F46     		mov	r7, fp
 709 0004 5646     		mov	r6, r10
 710 0006 4D46     		mov	r5, r9
 711 0008 4446     		mov	r4, r8
 712 000a F0B4     		push	{r4, r5, r6, r7}
 713              		.cfi_def_cfa_offset 36
 714              		.cfi_offset 8, -36
 715              		.cfi_offset 9, -32
 716              		.cfi_offset 10, -28
 717              		.cfi_offset 11, -24
 718 000c 85B0     		sub	sp, sp, #20
 719              		.cfi_def_cfa_offset 56
 720 000e 0C00     		movs	r4, r1
 102:..\..\..\arduinoLCD\test\Pain Drain\libraries\lvgl\src\widgets/lv_slider.c ****     if(res != LV_RES_OK) return;
 721              		.loc 1 102 0
 722 0010 C048     		ldr	r0, .L87
 723              	.LVL87:
ARM GAS  C:\Users\haske\AppData\Local\Temp\cc1ymag8.s 			page 38


 724 0012 FFF7FEFF 		bl	lv_obj_event_base
 725              	.LVL88:
 103:..\..\..\arduinoLCD\test\Pain Drain\libraries\lvgl\src\widgets/lv_slider.c **** 
 726              		.loc 1 103 0
 727 0016 0128     		cmp	r0, #1
 728 0018 00D0     		beq	.LCB693
 729 001a DFE2     		b	.L27	@long jump
 730              	.LCB693:
 105:..\..\..\arduinoLCD\test\Pain Drain\libraries\lvgl\src\widgets/lv_slider.c ****     lv_obj_t * obj = lv_event_get_target(e);
 731              		.loc 1 105 0
 732 001c 2000     		movs	r0, r4
 733              	.LVL89:
 734 001e FFF7FEFF 		bl	lv_event_get_code
 735              	.LVL90:
 736 0022 0600     		movs	r6, r0
 737              	.LVL91:
 106:..\..\..\arduinoLCD\test\Pain Drain\libraries\lvgl\src\widgets/lv_slider.c ****     lv_slider_t * slider = (lv_slider_t *)obj;
 738              		.loc 1 106 0
 739 0024 2000     		movs	r0, r4
 740              	.LVL92:
 741 0026 FFF7FEFF 		bl	lv_event_get_target
 742              	.LVL93:
 743 002a 0500     		movs	r5, r0
 744              	.LVL94:
 745              	.LBB104:
 746              	.LBB105:
 179:..\..\..\arduinoLCD\test\Pain Drain\libraries\lvgl\src\widgets/lv_slider.h ****     if(mode == LV_BAR_MODE_SYMMETRICAL) return LV_SLIDER_MODE_SYMMETRICAL;
 747              		.loc 4 179 0
 748 002c FFF7FEFF 		bl	lv_bar_get_mode
 749              	.LVL95:
 180:..\..\..\arduinoLCD\test\Pain Drain\libraries\lvgl\src\widgets/lv_slider.h ****     else if(mode == LV_BAR_MODE_RANGE) return LV_SLIDER_MODE_RANGE;
 750              		.loc 4 180 0
 751 0030 0128     		cmp	r0, #1
 752 0032 03D0     		beq	.L82
 181:..\..\..\arduinoLCD\test\Pain Drain\libraries\lvgl\src\widgets/lv_slider.h ****     else return LV_SLIDER_MODE_NORMAL;
 753              		.loc 4 181 0
 754 0034 0228     		cmp	r0, #2
 755 0036 03D1     		bne	.L83
 756 0038 0227     		movs	r7, #2
 757 003a 02E0     		b	.L29
 758              	.L82:
 180:..\..\..\arduinoLCD\test\Pain Drain\libraries\lvgl\src\widgets/lv_slider.h ****     else if(mode == LV_BAR_MODE_RANGE) return LV_SLIDER_MODE_RANGE;
 759              		.loc 4 180 0
 760 003c 0127     		movs	r7, #1
 761 003e 00E0     		b	.L29
 762              	.L83:
 763              		.loc 4 182 0
 764 0040 0027     		movs	r7, #0
 765              	.L29:
 766              	.LVL96:
 767              	.LBE105:
 768              	.LBE104:
 111:..\..\..\arduinoLCD\test\Pain Drain\libraries\lvgl\src\widgets/lv_slider.c ****         lv_hit_test_info_t * info = lv_event_get_param(e);
 769              		.loc 1 111 0
 770 0042 112E     		cmp	r6, #17
 771 0044 49D1     		bne	.L30
 772              	.LBB106:
ARM GAS  C:\Users\haske\AppData\Local\Temp\cc1ymag8.s 			page 39


 112:..\..\..\arduinoLCD\test\Pain Drain\libraries\lvgl\src\widgets/lv_slider.c ****         lv_coord_t ext_click_area = obj->spec_attr ? obj->spec_attr->ext_click_pad : 0;
 773              		.loc 1 112 0
 774 0046 2000     		movs	r0, r4
 775 0048 FFF7FEFF 		bl	lv_event_get_param
 776              	.LVL97:
 777 004c 0600     		movs	r6, r0
 778              	.LVL98:
 113:..\..\..\arduinoLCD\test\Pain Drain\libraries\lvgl\src\widgets/lv_slider.c **** 
 779              		.loc 1 113 0
 780 004e AB68     		ldr	r3, [r5, #8]
 781 0050 002B     		cmp	r3, #0
 782 0052 02D0     		beq	.L84
 113:..\..\..\arduinoLCD\test\Pain Drain\libraries\lvgl\src\widgets/lv_slider.c **** 
 783              		.loc 1 113 0 is_stmt 0 discriminator 1
 784 0054 1424     		movs	r4, #20
 785 0056 1C5F     		ldrsh	r4, [r3, r4]
 786              	.LVL99:
 787 0058 00E0     		b	.L31
 788              	.LVL100:
 789              	.L84:
 113:..\..\..\arduinoLCD\test\Pain Drain\libraries\lvgl\src\widgets/lv_slider.c **** 
 790              		.loc 1 113 0
 791 005a 0024     		movs	r4, #0
 792              	.LVL101:
 793              	.L31:
 794              	.LBB107:
 795              	.LBB108:
 112:c:\projects\paindrain\arduinolcd\test\pain drain\libraries\lvgl\src\misc\lv_area.h ****     dest->y1 = src->y1;
 796              		.loc 3 112 0 is_stmt 1 discriminator 4
 797 005c 6823     		movs	r3, #104
 798 005e EB5E     		ldrsh	r3, [r5, r3]
 799 0060 02AA     		add	r2, sp, #8
 800              	.LVL102:
 801 0062 1380     		strh	r3, [r2]
 113:c:\projects\paindrain\arduinolcd\test\pain drain\libraries\lvgl\src\misc\lv_area.h ****     dest->x2 = src->x2;
 802              		.loc 3 113 0 discriminator 4
 803 0064 2B00     		movs	r3, r5
 804 0066 6833     		adds	r3, r3, #104
 805              	.LVL103:
 806 0068 0221     		movs	r1, #2
 807 006a 5A5E     		ldrsh	r2, [r3, r1]
 808              	.LVL104:
 809 006c 02A9     		add	r1, sp, #8
 810              	.LVL105:
 811 006e 4A80     		strh	r2, [r1, #2]
 114:c:\projects\paindrain\arduinolcd\test\pain drain\libraries\lvgl\src\misc\lv_area.h ****     dest->y2 = src->y2;
 812              		.loc 3 114 0 discriminator 4
 813 0070 0421     		movs	r1, #4
 814 0072 5A5E     		ldrsh	r2, [r3, r1]
 815              	.LVL106:
 816 0074 02A9     		add	r1, sp, #8
 817              	.LVL107:
 818 0076 8A80     		strh	r2, [r1, #4]
 819              		.loc 3 115 0 discriminator 4
 820 0078 0622     		movs	r2, #6
 821 007a 9B5E     		ldrsh	r3, [r3, r2]
 822              	.LVL108:
ARM GAS  C:\Users\haske\AppData\Local\Temp\cc1ymag8.s 			page 40


 823 007c CB80     		strh	r3, [r1, #6]
 824              	.LVL109:
 825              	.LBE108:
 826              	.LBE107:
 118:..\..\..\arduinoLCD\test\Pain Drain\libraries\lvgl\src\widgets/lv_slider.c ****         info->res = _lv_area_is_point_on(&a, info->point, 0);
 827              		.loc 1 118 0 discriminator 4
 828 007e 2200     		movs	r2, r4
 829 0080 2100     		movs	r1, r4
 830 0082 02A8     		add	r0, sp, #8
 831              	.LVL110:
 832 0084 FFF7FEFF 		bl	lv_area_increase
 833              	.LVL111:
 119:..\..\..\arduinoLCD\test\Pain Drain\libraries\lvgl\src\widgets/lv_slider.c **** 
 834              		.loc 1 119 0 discriminator 4
 835 0088 0022     		movs	r2, #0
 836 008a 3168     		ldr	r1, [r6]
 837 008c 02A8     		add	r0, sp, #8
 838 008e FFF7FEFF 		bl	_lv_area_is_point_on
 839              	.LVL112:
 840 0092 3071     		strb	r0, [r6, #4]
 122:..\..\..\arduinoLCD\test\Pain Drain\libraries\lvgl\src\widgets/lv_slider.c ****             lv_area_copy(&a, &slider->left_knob_area);
 841              		.loc 1 122 0 discriminator 4
 842 0094 0028     		cmp	r0, #0
 843 0096 00D0     		beq	.LCB805
 844 0098 A0E2     		b	.L27	@long jump
 845              	.LCB805:
 122:..\..\..\arduinoLCD\test\Pain Drain\libraries\lvgl\src\widgets/lv_slider.c ****             lv_area_copy(&a, &slider->left_knob_area);
 846              		.loc 1 122 0 is_stmt 0 discriminator 1
 847 009a 022F     		cmp	r7, #2
 848 009c 00D0     		beq	.LCB807
 849 009e 9DE2     		b	.L27	@long jump
 850              	.LCB807:
 851              	.LVL113:
 852              	.LBB109:
 853              	.LBB110:
 112:c:\projects\paindrain\arduinolcd\test\pain drain\libraries\lvgl\src\misc\lv_area.h ****     dest->y1 = src->y1;
 854              		.loc 3 112 0 is_stmt 1
 855 00a0 6023     		movs	r3, #96
 856 00a2 EB5E     		ldrsh	r3, [r5, r3]
 857 00a4 02AA     		add	r2, sp, #8
 858              	.LVL114:
 859 00a6 1380     		strh	r3, [r2]
 113:c:\projects\paindrain\arduinolcd\test\pain drain\libraries\lvgl\src\misc\lv_area.h ****     dest->x2 = src->x2;
 860              		.loc 3 113 0
 861 00a8 6035     		adds	r5, r5, #96
 862              	.LVL115:
 863 00aa 0222     		movs	r2, #2
 864 00ac AB5E     		ldrsh	r3, [r5, r2]
 865              	.LVL116:
 866 00ae 02AA     		add	r2, sp, #8
 867              	.LVL117:
 868 00b0 5380     		strh	r3, [r2, #2]
 114:c:\projects\paindrain\arduinolcd\test\pain drain\libraries\lvgl\src\misc\lv_area.h ****     dest->y2 = src->y2;
 869              		.loc 3 114 0
 870 00b2 0422     		movs	r2, #4
 871 00b4 AB5E     		ldrsh	r3, [r5, r2]
 872              	.LVL118:
ARM GAS  C:\Users\haske\AppData\Local\Temp\cc1ymag8.s 			page 41


 873 00b6 02AA     		add	r2, sp, #8
 874              	.LVL119:
 875 00b8 9380     		strh	r3, [r2, #4]
 876              		.loc 3 115 0
 877 00ba 0622     		movs	r2, #6
 878 00bc AB5E     		ldrsh	r3, [r5, r2]
 879              	.LVL120:
 880 00be 02AA     		add	r2, sp, #8
 881              	.LVL121:
 882 00c0 D380     		strh	r3, [r2, #6]
 883              	.LVL122:
 884              	.LBE110:
 885              	.LBE109:
 124:..\..\..\arduinoLCD\test\Pain Drain\libraries\lvgl\src\widgets/lv_slider.c ****             info->res = _lv_area_is_point_on(&a, info->point, 0);
 886              		.loc 1 124 0
 887 00c2 2200     		movs	r2, r4
 888 00c4 2100     		movs	r1, r4
 889 00c6 02A8     		add	r0, sp, #8
 890 00c8 FFF7FEFF 		bl	lv_area_increase
 891              	.LVL123:
 125:..\..\..\arduinoLCD\test\Pain Drain\libraries\lvgl\src\widgets/lv_slider.c ****         }
 892              		.loc 1 125 0
 893 00cc 0022     		movs	r2, #0
 894 00ce 3168     		ldr	r1, [r6]
 895 00d0 02A8     		add	r0, sp, #8
 896 00d2 FFF7FEFF 		bl	_lv_area_is_point_on
 897              	.LVL124:
 898 00d6 3071     		strb	r0, [r6, #4]
 899 00d8 80E2     		b	.L27
 900              	.LVL125:
 901              	.L30:
 902              	.LBE106:
 128:..\..\..\arduinoLCD\test\Pain Drain\libraries\lvgl\src\widgets/lv_slider.c ****         lv_obj_invalidate(obj);
 903              		.loc 1 128 0
 904 00da 012E     		cmp	r6, #1
 905 00dc 00D0     		beq	.LCB865
 906 00de C3E0     		b	.L33	@long jump
 907              	.LCB865:
 908              	.LBB111:
 129:..\..\..\arduinoLCD\test\Pain Drain\libraries\lvgl\src\widgets/lv_slider.c **** 
 909              		.loc 1 129 0
 910 00e0 2800     		movs	r0, r5
 911 00e2 FFF7FEFF 		bl	lv_obj_invalidate
 912              	.LVL126:
 132:..\..\..\arduinoLCD\test\Pain Drain\libraries\lvgl\src\widgets/lv_slider.c ****         if(type == LV_SLIDER_MODE_NORMAL || type == LV_SLIDER_MODE_SYMMETRICAL) {
 913              		.loc 1 132 0
 914 00e6 7422     		movs	r2, #116
 915 00e8 A95C     		ldrb	r1, [r5, r2]
 916 00ea 0123     		movs	r3, #1
 917 00ec 0B43     		orrs	r3, r1
 918 00ee AB54     		strb	r3, [r5, r2]
 133:..\..\..\arduinoLCD\test\Pain Drain\libraries\lvgl\src\widgets/lv_slider.c ****             slider->value_to_set = &slider->bar.cur_value;
 919              		.loc 1 133 0
 920 00f0 012F     		cmp	r7, #1
 921 00f2 03D8     		bhi	.L34
 134:..\..\..\arduinoLCD\test\Pain Drain\libraries\lvgl\src\widgets/lv_slider.c ****         }
 922              		.loc 1 134 0
ARM GAS  C:\Users\haske\AppData\Local\Temp\cc1ymag8.s 			page 42


 923 00f4 2B00     		movs	r3, r5
 924 00f6 2433     		adds	r3, r3, #36
 925 00f8 2B67     		str	r3, [r5, #112]
 926 00fa 6FE2     		b	.L27
 927              	.L34:
 136:..\..\..\arduinoLCD\test\Pain Drain\libraries\lvgl\src\widgets/lv_slider.c ****             lv_indev_get_point(lv_indev_get_act(), &p);
 928              		.loc 1 136 0
 929 00fc 022F     		cmp	r7, #2
 930 00fe 00D0     		beq	.LCB885
 931 0100 6CE2     		b	.L27	@long jump
 932              	.LCB885:
 933              	.LBB112:
 137:..\..\..\arduinoLCD\test\Pain Drain\libraries\lvgl\src\widgets/lv_slider.c ****             bool hor = lv_obj_get_width(obj) >= lv_obj_get_height(obj);
 934              		.loc 1 137 0
 935 0102 FFF7FEFF 		bl	lv_indev_get_act
 936              	.LVL127:
 937 0106 02A9     		add	r1, sp, #8
 938 0108 FFF7FEFF 		bl	lv_indev_get_point
 939              	.LVL128:
 138:..\..\..\arduinoLCD\test\Pain Drain\libraries\lvgl\src\widgets/lv_slider.c ****             lv_base_dir_t base_dir = lv_obj_get_style_base_dir(obj, LV_PART_MAIN);
 940              		.loc 1 138 0
 941 010c 2800     		movs	r0, r5
 942 010e FFF7FEFF 		bl	lv_obj_get_width
 943              	.LVL129:
 944 0112 0600     		movs	r6, r0
 945              	.LVL130:
 946 0114 2800     		movs	r0, r5
 947 0116 FFF7FEFF 		bl	lv_obj_get_height
 948              	.LVL131:
 949 011a 0400     		movs	r4, r0
 950              	.LVL132:
 951              	.LBB113:
 952              	.LBB114:
 561:..\..\..\arduinoLCD\test\Pain Drain\libraries\lvgl\src\widgets\../core/lv_obj_style_gen.h ****     return (lv_base_dir_t)v.num;
 953              		.loc 2 561 0
 954 011c 1622     		movs	r2, #22
 955 011e 0021     		movs	r1, #0
 956 0120 2800     		movs	r0, r5
 957 0122 FFF7FEFF 		bl	lv_obj_get_style_prop
 958              	.LVL133:
 959              		.loc 2 562 0
 960 0126 C0B2     		uxtb	r0, r0
 961              	.LVL134:
 962              	.LBE114:
 963              	.LBE113:
 142:..\..\..\arduinoLCD\test\Pain Drain\libraries\lvgl\src\widgets/lv_slider.c ****                 if((base_dir != LV_BASE_DIR_RTL && p.x > slider->right_knob_area.x2) || (base_dir =
 964              		.loc 1 142 0
 965 0128 A642     		cmp	r6, r4
 966 012a 5EDB     		blt	.L36
 143:..\..\..\arduinoLCD\test\Pain Drain\libraries\lvgl\src\widgets/lv_slider.c ****                                                                                          p.x < slid
 967              		.loc 1 143 0
 968 012c 0128     		cmp	r0, #1
 969 012e 06D0     		beq	.L37
 143:..\..\..\arduinoLCD\test\Pain Drain\libraries\lvgl\src\widgets/lv_slider.c ****                                                                                          p.x < slid
 970              		.loc 1 143 0 is_stmt 0 discriminator 1
 971 0130 02AB     		add	r3, sp, #8
 972 0132 0022     		movs	r2, #0
ARM GAS  C:\Users\haske\AppData\Local\Temp\cc1ymag8.s 			page 43


 973 0134 9A5E     		ldrsh	r2, [r3, r2]
 974 0136 6C23     		movs	r3, #108
 975 0138 EB5E     		ldrsh	r3, [r5, r3]
 976 013a 9A42     		cmp	r2, r3
 977 013c 08DC     		bgt	.L38
 978              	.L37:
 143:..\..\..\arduinoLCD\test\Pain Drain\libraries\lvgl\src\widgets/lv_slider.c ****                                                                                          p.x < slid
 979              		.loc 1 143 0 discriminator 3
 980 013e 0128     		cmp	r0, #1
 981 0140 0AD1     		bne	.L39
 144:..\..\..\arduinoLCD\test\Pain Drain\libraries\lvgl\src\widgets/lv_slider.c ****                     slider->value_to_set = &slider->bar.cur_value;
 982              		.loc 1 144 0 is_stmt 1 discriminator 4
 983 0142 02AB     		add	r3, sp, #8
 984 0144 0022     		movs	r2, #0
 985 0146 9A5E     		ldrsh	r2, [r3, r2]
 986 0148 6823     		movs	r3, #104
 987 014a EB5E     		ldrsh	r3, [r5, r3]
 143:..\..\..\arduinoLCD\test\Pain Drain\libraries\lvgl\src\widgets/lv_slider.c ****                                                                                          p.x < slid
 988              		.loc 1 143 0 discriminator 4
 989 014c 9A42     		cmp	r2, r3
 990 014e 03DA     		bge	.L39
 991              	.L38:
 145:..\..\..\arduinoLCD\test\Pain Drain\libraries\lvgl\src\widgets/lv_slider.c ****                 }
 992              		.loc 1 145 0
 993 0150 2B00     		movs	r3, r5
 994 0152 2433     		adds	r3, r3, #36
 995 0154 2B67     		str	r3, [r5, #112]
 996 0156 41E2     		b	.L27
 997              	.L39:
 147:..\..\..\arduinoLCD\test\Pain Drain\libraries\lvgl\src\widgets/lv_slider.c ****                                                                                              p.x > 
 998              		.loc 1 147 0
 999 0158 0128     		cmp	r0, #1
 1000 015a 06D0     		beq	.L40
 147:..\..\..\arduinoLCD\test\Pain Drain\libraries\lvgl\src\widgets/lv_slider.c ****                                                                                              p.x > 
 1001              		.loc 1 147 0 is_stmt 0 discriminator 1
 1002 015c 02AB     		add	r3, sp, #8
 1003 015e 0022     		movs	r2, #0
 1004 0160 9A5E     		ldrsh	r2, [r3, r2]
 1005 0162 6023     		movs	r3, #96
 1006 0164 EB5E     		ldrsh	r3, [r5, r3]
 1007 0166 9A42     		cmp	r2, r3
 1008 0168 08DB     		blt	.L41
 1009              	.L40:
 147:..\..\..\arduinoLCD\test\Pain Drain\libraries\lvgl\src\widgets/lv_slider.c ****                                                                                              p.x > 
 1010              		.loc 1 147 0 discriminator 3
 1011 016a 0128     		cmp	r0, #1
 1012 016c 0AD1     		bne	.L42
 148:..\..\..\arduinoLCD\test\Pain Drain\libraries\lvgl\src\widgets/lv_slider.c ****                     slider->value_to_set = &slider->bar.start_value;
 1013              		.loc 1 148 0 is_stmt 1 discriminator 4
 1014 016e 02AB     		add	r3, sp, #8
 1015 0170 0022     		movs	r2, #0
 1016 0172 9A5E     		ldrsh	r2, [r3, r2]
 1017 0174 6423     		movs	r3, #100
 1018 0176 EB5E     		ldrsh	r3, [r5, r3]
 147:..\..\..\arduinoLCD\test\Pain Drain\libraries\lvgl\src\widgets/lv_slider.c ****                                                                                              p.x > 
 1019              		.loc 1 147 0 discriminator 4
 1020 0178 9A42     		cmp	r2, r3
ARM GAS  C:\Users\haske\AppData\Local\Temp\cc1ymag8.s 			page 44


 1021 017a 03DD     		ble	.L42
 1022              	.L41:
 149:..\..\..\arduinoLCD\test\Pain Drain\libraries\lvgl\src\widgets/lv_slider.c ****                 }
 1023              		.loc 1 149 0
 1024 017c 2B00     		movs	r3, r5
 1025 017e 3033     		adds	r3, r3, #48
 1026 0180 2B67     		str	r3, [r5, #112]
 1027 0182 2BE2     		b	.L27
 1028              	.L42:
 153:..\..\..\arduinoLCD\test\Pain Drain\libraries\lvgl\src\widgets/lv_slider.c ****                     dist_right = LV_ABS((slider->right_knob_area.x1 + (slider->right_knob_area.x2 -
 1029              		.loc 1 153 0
 1030 0184 6023     		movs	r3, #96
 1031 0186 E95E     		ldrsh	r1, [r5, r3]
 1032 0188 6423     		movs	r3, #100
 1033 018a EB5E     		ldrsh	r3, [r5, r3]
 1034 018c 5B1A     		subs	r3, r3, r1
 1035 018e DA0F     		lsrs	r2, r3, #31
 1036 0190 D318     		adds	r3, r2, r3
 1037 0192 5B10     		asrs	r3, r3, #1
 1038 0194 C918     		adds	r1, r1, r3
 1039 0196 02AB     		add	r3, sp, #8
 1040 0198 0020     		movs	r0, #0
 1041 019a 185E     		ldrsh	r0, [r3, r0]
 1042 019c 091A     		subs	r1, r1, r0
 1043 019e CB17     		asrs	r3, r1, #31
 1044 01a0 C918     		adds	r1, r1, r3
 1045 01a2 5940     		eors	r1, r3
 1046 01a4 09B2     		sxth	r1, r1
 1047              	.LVL135:
 154:..\..\..\arduinoLCD\test\Pain Drain\libraries\lvgl\src\widgets/lv_slider.c **** 
 1048              		.loc 1 154 0
 1049 01a6 6823     		movs	r3, #104
 1050 01a8 EC5E     		ldrsh	r4, [r5, r3]
 1051              	.LVL136:
 1052 01aa 6C23     		movs	r3, #108
 1053 01ac EA5E     		ldrsh	r2, [r5, r3]
 1054 01ae 131B     		subs	r3, r2, r4
 1055 01b0 DA0F     		lsrs	r2, r3, #31
 1056 01b2 D218     		adds	r2, r2, r3
 1057 01b4 5210     		asrs	r2, r2, #1
 1058 01b6 A318     		adds	r3, r4, r2
 1059 01b8 1B1A     		subs	r3, r3, r0
 1060 01ba DA17     		asrs	r2, r3, #31
 1061 01bc 9B18     		adds	r3, r3, r2
 1062 01be 5340     		eors	r3, r2
 1063 01c0 1BB2     		sxth	r3, r3
 1064              	.LVL137:
 157:..\..\..\arduinoLCD\test\Pain Drain\libraries\lvgl\src\widgets/lv_slider.c ****                         slider->value_to_set = &slider->bar.cur_value;
 1065              		.loc 1 157 0
 1066 01c2 9942     		cmp	r1, r3
 1067 01c4 08DD     		ble	.L43
 158:..\..\..\arduinoLCD\test\Pain Drain\libraries\lvgl\src\widgets/lv_slider.c ****                         slider->left_knob_focus = 0;
 1068              		.loc 1 158 0
 1069 01c6 2B00     		movs	r3, r5
 1070              	.LVL138:
 1071 01c8 2433     		adds	r3, r3, #36
 1072              	.LVL139:
ARM GAS  C:\Users\haske\AppData\Local\Temp\cc1ymag8.s 			page 45


 1073 01ca 2B67     		str	r3, [r5, #112]
 1074              	.LVL140:
 159:..\..\..\arduinoLCD\test\Pain Drain\libraries\lvgl\src\widgets/lv_slider.c ****                     }
 1075              		.loc 1 159 0
 1076 01cc 7422     		movs	r2, #116
 1077 01ce AB5C     		ldrb	r3, [r5, r2]
 1078 01d0 0221     		movs	r1, #2
 1079              	.LVL141:
 1080 01d2 8B43     		bics	r3, r1
 1081 01d4 AB54     		strb	r3, [r5, r2]
 1082 01d6 01E2     		b	.L27
 1083              	.LVL142:
 1084              	.L43:
 162:..\..\..\arduinoLCD\test\Pain Drain\libraries\lvgl\src\widgets/lv_slider.c ****                         slider->left_knob_focus = 1;
 1085              		.loc 1 162 0
 1086 01d8 2B00     		movs	r3, r5
 1087              	.LVL143:
 1088 01da 3033     		adds	r3, r3, #48
 1089 01dc 2B67     		str	r3, [r5, #112]
 1090              	.LVL144:
 163:..\..\..\arduinoLCD\test\Pain Drain\libraries\lvgl\src\widgets/lv_slider.c ****                     }
 1091              		.loc 1 163 0
 1092 01de 7422     		movs	r2, #116
 1093 01e0 AB5C     		ldrb	r3, [r5, r2]
 1094 01e2 0221     		movs	r1, #2
 1095              	.LVL145:
 1096 01e4 0B43     		orrs	r3, r1
 1097 01e6 AB54     		strb	r3, [r5, r2]
 1098 01e8 F8E1     		b	.L27
 1099              	.LVL146:
 1100              	.L36:
 168:..\..\..\arduinoLCD\test\Pain Drain\libraries\lvgl\src\widgets/lv_slider.c ****                     slider->value_to_set = &slider->bar.cur_value;
 1101              		.loc 1 168 0
 1102 01ea 02AB     		add	r3, sp, #8
 1103 01ec 0220     		movs	r0, #2
 1104 01ee 185E     		ldrsh	r0, [r3, r0]
 1105 01f0 6A23     		movs	r3, #106
 1106 01f2 EC5E     		ldrsh	r4, [r5, r3]
 1107              	.LVL147:
 1108 01f4 A042     		cmp	r0, r4
 1109 01f6 03DA     		bge	.L44
 169:..\..\..\arduinoLCD\test\Pain Drain\libraries\lvgl\src\widgets/lv_slider.c ****                 }
 1110              		.loc 1 169 0
 1111 01f8 2B00     		movs	r3, r5
 1112 01fa 2433     		adds	r3, r3, #36
 1113 01fc 2B67     		str	r3, [r5, #112]
 1114 01fe EDE1     		b	.L27
 1115              	.L44:
 171:..\..\..\arduinoLCD\test\Pain Drain\libraries\lvgl\src\widgets/lv_slider.c ****                     slider->value_to_set = &slider->bar.start_value;
 1116              		.loc 1 171 0
 1117 0200 6623     		movs	r3, #102
 1118 0202 EA5E     		ldrsh	r2, [r5, r3]
 1119 0204 9042     		cmp	r0, r2
 1120 0206 03DD     		ble	.L45
 172:..\..\..\arduinoLCD\test\Pain Drain\libraries\lvgl\src\widgets/lv_slider.c ****                 }
 1121              		.loc 1 172 0
 1122 0208 2B00     		movs	r3, r5
ARM GAS  C:\Users\haske\AppData\Local\Temp\cc1ymag8.s 			page 46


 1123 020a 3033     		adds	r3, r3, #48
 1124 020c 2B67     		str	r3, [r5, #112]
 1125 020e E5E1     		b	.L27
 1126              	.L45:
 176:..\..\..\arduinoLCD\test\Pain Drain\libraries\lvgl\src\widgets/lv_slider.c ****                     dist_right = LV_ABS((slider->right_knob_area.y1 + (slider->right_knob_area.y2 -
 1127              		.loc 1 176 0
 1128 0210 6223     		movs	r3, #98
 1129 0212 E95E     		ldrsh	r1, [r5, r3]
 1130 0214 521A     		subs	r2, r2, r1
 1131 0216 D30F     		lsrs	r3, r2, #31
 1132 0218 9A18     		adds	r2, r3, r2
 1133 021a 5210     		asrs	r2, r2, #1
 1134 021c 8918     		adds	r1, r1, r2
 1135 021e 091A     		subs	r1, r1, r0
 1136 0220 CB17     		asrs	r3, r1, #31
 1137 0222 C918     		adds	r1, r1, r3
 1138 0224 5940     		eors	r1, r3
 1139 0226 09B2     		sxth	r1, r1
 1140              	.LVL148:
 177:..\..\..\arduinoLCD\test\Pain Drain\libraries\lvgl\src\widgets/lv_slider.c **** 
 1141              		.loc 1 177 0
 1142 0228 6E23     		movs	r3, #110
 1143 022a EA5E     		ldrsh	r2, [r5, r3]
 1144 022c 131B     		subs	r3, r2, r4
 1145 022e DA0F     		lsrs	r2, r3, #31
 1146 0230 D218     		adds	r2, r2, r3
 1147 0232 5210     		asrs	r2, r2, #1
 1148 0234 A318     		adds	r3, r4, r2
 1149 0236 1B1A     		subs	r3, r3, r0
 1150 0238 DA17     		asrs	r2, r3, #31
 1151 023a 9B18     		adds	r3, r3, r2
 1152 023c 5340     		eors	r3, r2
 1153 023e 1BB2     		sxth	r3, r3
 1154              	.LVL149:
 180:..\..\..\arduinoLCD\test\Pain Drain\libraries\lvgl\src\widgets/lv_slider.c ****                         slider->value_to_set = &slider->bar.cur_value;
 1155              		.loc 1 180 0
 1156 0240 9942     		cmp	r1, r3
 1157 0242 08DD     		ble	.L46
 181:..\..\..\arduinoLCD\test\Pain Drain\libraries\lvgl\src\widgets/lv_slider.c ****                         slider->left_knob_focus = 0;
 1158              		.loc 1 181 0
 1159 0244 2B00     		movs	r3, r5
 1160              	.LVL150:
 1161 0246 2433     		adds	r3, r3, #36
 1162              	.LVL151:
 1163 0248 2B67     		str	r3, [r5, #112]
 1164              	.LVL152:
 182:..\..\..\arduinoLCD\test\Pain Drain\libraries\lvgl\src\widgets/lv_slider.c ****                     }
 1165              		.loc 1 182 0
 1166 024a 7422     		movs	r2, #116
 1167 024c AB5C     		ldrb	r3, [r5, r2]
 1168 024e 0221     		movs	r1, #2
 1169              	.LVL153:
 1170 0250 8B43     		bics	r3, r1
 1171 0252 AB54     		strb	r3, [r5, r2]
 1172 0254 C2E1     		b	.L27
 1173              	.LVL154:
 1174              	.L46:
ARM GAS  C:\Users\haske\AppData\Local\Temp\cc1ymag8.s 			page 47


 185:..\..\..\arduinoLCD\test\Pain Drain\libraries\lvgl\src\widgets/lv_slider.c ****                         slider->left_knob_focus = 1;
 1175              		.loc 1 185 0
 1176 0256 2B00     		movs	r3, r5
 1177              	.LVL155:
 1178 0258 3033     		adds	r3, r3, #48
 1179 025a 2B67     		str	r3, [r5, #112]
 1180              	.LVL156:
 186:..\..\..\arduinoLCD\test\Pain Drain\libraries\lvgl\src\widgets/lv_slider.c ****                     }
 1181              		.loc 1 186 0
 1182 025c 7422     		movs	r2, #116
 1183 025e AB5C     		ldrb	r3, [r5, r2]
 1184 0260 0221     		movs	r1, #2
 1185              	.LVL157:
 1186 0262 0B43     		orrs	r3, r1
 1187 0264 AB54     		strb	r3, [r5, r2]
 1188 0266 B9E1     		b	.L27
 1189              	.LVL158:
 1190              	.L33:
 1191              	.LBE112:
 1192              	.LBE111:
 192:..\..\..\arduinoLCD\test\Pain Drain\libraries\lvgl\src\widgets/lv_slider.c ****         lv_indev_t * indev = lv_indev_get_act();
 1193              		.loc 1 192 0
 1194 0268 022E     		cmp	r6, #2
 1195 026a 00D0     		beq	.LCB1156
 1196 026c 9FE0     		b	.L47	@long jump
 1197              	.LCB1156:
 192:..\..\..\arduinoLCD\test\Pain Drain\libraries\lvgl\src\widgets/lv_slider.c ****         lv_indev_t * indev = lv_indev_get_act();
 1198              		.loc 1 192 0 is_stmt 0 discriminator 1
 1199 026e 2B6F     		ldr	r3, [r5, #112]
 1200 0270 002B     		cmp	r3, #0
 1201 0272 00D1     		bne	.LCB1160
 1202 0274 9BE0     		b	.L47	@long jump
 1203              	.LCB1160:
 1204              	.LBB115:
 193:..\..\..\arduinoLCD\test\Pain Drain\libraries\lvgl\src\widgets/lv_slider.c ****         if(lv_indev_get_type(indev) != LV_INDEV_TYPE_POINTER) return;
 1205              		.loc 1 193 0 is_stmt 1
 1206 0276 FFF7FEFF 		bl	lv_indev_get_act
 1207              	.LVL159:
 1208 027a 0400     		movs	r4, r0
 1209              	.LVL160:
 194:..\..\..\arduinoLCD\test\Pain Drain\libraries\lvgl\src\widgets/lv_slider.c **** 
 1210              		.loc 1 194 0
 1211 027c FFF7FEFF 		bl	lv_indev_get_type
 1212              	.LVL161:
 1213 0280 0128     		cmp	r0, #1
 1214 0282 00D0     		beq	.LCB1171
 1215 0284 AAE1     		b	.L27	@long jump
 1216              	.LCB1171:
 197:..\..\..\arduinoLCD\test\Pain Drain\libraries\lvgl\src\widgets/lv_slider.c ****         int32_t new_value = 0;
 1217              		.loc 1 197 0
 1218 0286 02A9     		add	r1, sp, #8
 1219 0288 2000     		movs	r0, r4
 1220 028a FFF7FEFF 		bl	lv_indev_get_point
 1221              	.LVL162:
 200:..\..\..\arduinoLCD\test\Pain Drain\libraries\lvgl\src\widgets/lv_slider.c ****         if(is_slider_horizontal(obj)) {
 1222              		.loc 1 200 0
 1223 028e EB6A     		ldr	r3, [r5, #44]
ARM GAS  C:\Users\haske\AppData\Local\Temp\cc1ymag8.s 			page 48


 1224 0290 AA6A     		ldr	r2, [r5, #40]
 1225 0292 9E1A     		subs	r6, r3, r2
 1226              	.LVL163:
 201:..\..\..\arduinoLCD\test\Pain Drain\libraries\lvgl\src\widgets/lv_slider.c ****             const lv_coord_t bg_left = lv_obj_get_style_pad_left(obj, LV_PART_MAIN);
 1227              		.loc 1 201 0
 1228 0294 2800     		movs	r0, r5
 1229 0296 FFF7FEFF 		bl	is_slider_horizontal
 1230              	.LVL164:
 1231 029a 0028     		cmp	r0, #0
 1232 029c 3CD0     		beq	.L49
 1233              	.LVL165:
 1234              	.LBB116:
 1235              	.LBB117:
 1236              	.LBB118:
 117:..\..\..\arduinoLCD\test\Pain Drain\libraries\lvgl\src\widgets\../core/lv_obj_style_gen.h ****     return (lv_coord_t)v.num;
 1237              		.loc 2 117 0
 1238 029e 1222     		movs	r2, #18
 1239 02a0 0021     		movs	r1, #0
 1240 02a2 2800     		movs	r0, r5
 1241 02a4 FFF7FEFF 		bl	lv_obj_get_style_prop
 1242              	.LVL166:
 1243 02a8 0400     		movs	r4, r0
 1244              	.LVL167:
 118:..\..\..\arduinoLCD\test\Pain Drain\libraries\lvgl\src\widgets\../core/lv_obj_style_gen.h **** }
 1245              		.loc 2 118 0
 1246 02aa 03B2     		sxth	r3, r0
 1247 02ac 9846     		mov	r8, r3
 1248              	.LVL168:
 1249              	.LBE118:
 1250              	.LBE117:
 1251              	.LBB119:
 1252              	.LBB120:
 123:..\..\..\arduinoLCD\test\Pain Drain\libraries\lvgl\src\widgets\../core/lv_obj_style_gen.h ****     return (lv_coord_t)v.num;
 1253              		.loc 2 123 0
 1254 02ae 1322     		movs	r2, #19
 1255 02b0 0021     		movs	r1, #0
 1256 02b2 2800     		movs	r0, r5
 1257 02b4 FFF7FEFF 		bl	lv_obj_get_style_prop
 1258              	.LVL169:
 1259 02b8 0700     		movs	r7, r0
 1260              	.LVL170:
 124:..\..\..\arduinoLCD\test\Pain Drain\libraries\lvgl\src\widgets\../core/lv_obj_style_gen.h **** }
 1261              		.loc 2 124 0
 1262 02ba 03B2     		sxth	r3, r0
 1263 02bc 9946     		mov	r9, r3
 1264              	.LVL171:
 1265              	.LBE120:
 1266              	.LBE119:
 204:..\..\..\arduinoLCD\test\Pain Drain\libraries\lvgl\src\widgets/lv_slider.c ****             const lv_coord_t indic_w = w - bg_left - bg_right;
 1267              		.loc 1 204 0
 1268 02be 2800     		movs	r0, r5
 1269 02c0 FFF7FEFF 		bl	lv_obj_get_width
 1270              	.LVL172:
 205:..\..\..\arduinoLCD\test\Pain Drain\libraries\lvgl\src\widgets/lv_slider.c **** 
 1271              		.loc 1 205 0
 1272 02c4 041B     		subs	r4, r0, r4
 1273              	.LVL173:
ARM GAS  C:\Users\haske\AppData\Local\Temp\cc1ymag8.s 			page 49


 1274 02c6 E41B     		subs	r4, r4, r7
 1275 02c8 24B2     		sxth	r4, r4
 1276              	.LVL174:
 1277              	.LBB121:
 1278              	.LBB122:
 561:..\..\..\arduinoLCD\test\Pain Drain\libraries\lvgl\src\widgets\../core/lv_obj_style_gen.h ****     return (lv_base_dir_t)v.num;
 1279              		.loc 2 561 0
 1280 02ca 1622     		movs	r2, #22
 1281 02cc 0021     		movs	r1, #0
 1282 02ce 2800     		movs	r0, r5
 1283              	.LVL175:
 1284 02d0 FFF7FEFF 		bl	lv_obj_get_style_prop
 1285              	.LVL176:
 1286              		.loc 2 562 0
 1287 02d4 C0B2     		uxtb	r0, r0
 1288              	.LVL177:
 1289              	.LBE122:
 1290              	.LBE121:
 207:..\..\..\arduinoLCD\test\Pain Drain\libraries\lvgl\src\widgets/lv_slider.c ****                 /*Make the point relative to the indicator*/
 1291              		.loc 1 207 0
 1292 02d6 0128     		cmp	r0, #1
 1293 02d8 08D1     		bne	.L50
 209:..\..\..\arduinoLCD\test\Pain Drain\libraries\lvgl\src\widgets/lv_slider.c ****             }
 1294              		.loc 1 209 0
 1295 02da 1822     		movs	r2, #24
 1296 02dc AB5E     		ldrsh	r3, [r5, r2]
 1297 02de 4A46     		mov	r2, r9
 1298 02e0 9B1A     		subs	r3, r3, r2
 1299 02e2 02AA     		add	r2, sp, #8
 1300 02e4 0021     		movs	r1, #0
 1301 02e6 525E     		ldrsh	r2, [r2, r1]
 1302 02e8 9B1A     		subs	r3, r3, r2
 1303              	.LVL178:
 1304 02ea 06E0     		b	.L51
 1305              	.LVL179:
 1306              	.L50:
 213:..\..\..\arduinoLCD\test\Pain Drain\libraries\lvgl\src\widgets/lv_slider.c ****             }
 1307              		.loc 1 213 0
 1308 02ec 02AB     		add	r3, sp, #8
 1309 02ee 0022     		movs	r2, #0
 1310 02f0 9A5E     		ldrsh	r2, [r3, r2]
 1311 02f2 1421     		movs	r1, #20
 1312 02f4 6B5E     		ldrsh	r3, [r5, r1]
 1313 02f6 4344     		add	r3, r3, r8
 1314 02f8 D31A     		subs	r3, r2, r3
 1315              	.LVL180:
 1316              	.L51:
 215:..\..\..\arduinoLCD\test\Pain Drain\libraries\lvgl\src\widgets/lv_slider.c ****             new_value += slider->bar.min_value;
 1317              		.loc 1 215 0
 1318 02fa 7343     		muls	r3, r6
 1319              	.LVL181:
 1320 02fc E00F     		lsrs	r0, r4, #31
 1321 02fe 0019     		adds	r0, r0, r4
 1322 0300 4010     		asrs	r0, r0, #1
 1323 0302 C018     		adds	r0, r0, r3
 1324 0304 2100     		movs	r1, r4
 1325 0306 FFF7FEFF 		bl	__aeabi_idiv
ARM GAS  C:\Users\haske\AppData\Local\Temp\cc1ymag8.s 			page 50


 1326              	.LVL182:
 216:..\..\..\arduinoLCD\test\Pain Drain\libraries\lvgl\src\widgets/lv_slider.c ****         }
 1327              		.loc 1 216 0
 1328 030a AB6A     		ldr	r3, [r5, #40]
 1329 030c 9C46     		mov	ip, r3
 1330 030e 6044     		add	r0, r0, ip
 1331              	.LVL183:
 1332              	.LBE116:
 1333 0310 28E0     		b	.L52
 1334              	.L88:
 1335 0312 C046     		.align	2
 1336              	.L87:
 1337 0314 00000000 		.word	.LANCHOR0
 1338              	.LVL184:
 1339              	.L49:
 1340              	.LBB123:
 1341              	.LBB124:
 1342              	.LBB125:
 105:..\..\..\arduinoLCD\test\Pain Drain\libraries\lvgl\src\widgets\../core/lv_obj_style_gen.h ****     return (lv_coord_t)v.num;
 1343              		.loc 2 105 0
 1344 0318 1022     		movs	r2, #16
 1345 031a 0021     		movs	r1, #0
 1346 031c 2800     		movs	r0, r5
 1347 031e FFF7FEFF 		bl	lv_obj_get_style_prop
 1348              	.LVL185:
 1349 0322 8046     		mov	r8, r0
 1350              	.LVL186:
 1351              	.LBE125:
 1352              	.LBE124:
 1353              	.LBB126:
 1354              	.LBB127:
 111:..\..\..\arduinoLCD\test\Pain Drain\libraries\lvgl\src\widgets\../core/lv_obj_style_gen.h ****     return (lv_coord_t)v.num;
 1355              		.loc 2 111 0
 1356 0324 1122     		movs	r2, #17
 1357 0326 0021     		movs	r1, #0
 1358 0328 2800     		movs	r0, r5
 1359 032a FFF7FEFF 		bl	lv_obj_get_style_prop
 1360              	.LVL187:
 1361 032e 0700     		movs	r7, r0
 1362              	.LVL188:
 112:..\..\..\arduinoLCD\test\Pain Drain\libraries\lvgl\src\widgets\../core/lv_obj_style_gen.h **** }
 1363              		.loc 2 112 0
 1364 0330 04B2     		sxth	r4, r0
 1365              	.LVL189:
 1366              	.LBE127:
 1367              	.LBE126:
 221:..\..\..\arduinoLCD\test\Pain Drain\libraries\lvgl\src\widgets/lv_slider.c ****             const lv_coord_t indic_h = h - bg_bottom - bg_top;
 1368              		.loc 1 221 0
 1369 0332 2800     		movs	r0, r5
 1370 0334 FFF7FEFF 		bl	lv_obj_get_height
 1371              	.LVL190:
 222:..\..\..\arduinoLCD\test\Pain Drain\libraries\lvgl\src\widgets/lv_slider.c **** 
 1372              		.loc 1 222 0
 1373 0338 C11B     		subs	r1, r0, r7
 1374              	.LVL191:
 1375 033a 4346     		mov	r3, r8
 1376 033c C91A     		subs	r1, r1, r3
ARM GAS  C:\Users\haske\AppData\Local\Temp\cc1ymag8.s 			page 51


 1377 033e 09B2     		sxth	r1, r1
 1378              	.LVL192:
 225:..\..\..\arduinoLCD\test\Pain Drain\libraries\lvgl\src\widgets/lv_slider.c ****             new_value = (-new_value * range + indic_h / 2) / indic_h;
 1379              		.loc 1 225 0
 1380 0340 02AB     		add	r3, sp, #8
 1381 0342 0222     		movs	r2, #2
 1382 0344 9B5E     		ldrsh	r3, [r3, r2]
 1383 0346 1A22     		movs	r2, #26
 1384 0348 A85E     		ldrsh	r0, [r5, r2]
 1385              	.LVL193:
 1386 034a 0419     		adds	r4, r0, r4
 1387              	.LVL194:
 226:..\..\..\arduinoLCD\test\Pain Drain\libraries\lvgl\src\widgets/lv_slider.c ****             new_value += slider->bar.min_value;
 1388              		.loc 1 226 0
 1389 034c E01A     		subs	r0, r4, r3
 1390 034e 0300     		movs	r3, r0
 1391              	.LVL195:
 1392 0350 7343     		muls	r3, r6
 1393 0352 C80F     		lsrs	r0, r1, #31
 1394 0354 4018     		adds	r0, r0, r1
 1395 0356 4010     		asrs	r0, r0, #1
 1396 0358 C018     		adds	r0, r0, r3
 1397 035a FFF7FEFF 		bl	__aeabi_idiv
 1398              	.LVL196:
 227:..\..\..\arduinoLCD\test\Pain Drain\libraries\lvgl\src\widgets/lv_slider.c ****         }
 1399              		.loc 1 227 0
 1400 035e AB6A     		ldr	r3, [r5, #40]
 1401 0360 9C46     		mov	ip, r3
 1402 0362 6044     		add	r0, r0, ip
 1403              	.LVL197:
 1404              	.L52:
 1405              	.LBE123:
 230:..\..\..\arduinoLCD\test\Pain Drain\libraries\lvgl\src\widgets/lv_slider.c ****         int32_t real_min_value = slider->bar.min_value;
 1406              		.loc 1 230 0
 1407 0364 EC6A     		ldr	r4, [r5, #44]
 1408              	.LVL198:
 231:..\..\..\arduinoLCD\test\Pain Drain\libraries\lvgl\src\widgets/lv_slider.c ****         /*Figure out the min. and max. for this mode*/
 1409              		.loc 1 231 0
 1410 0366 A96A     		ldr	r1, [r5, #40]
 1411              	.LVL199:
 233:..\..\..\arduinoLCD\test\Pain Drain\libraries\lvgl\src\widgets/lv_slider.c ****             real_max_value = slider->bar.cur_value;
 1412              		.loc 1 233 0
 1413 0368 2B6F     		ldr	r3, [r5, #112]
 1414 036a 2A00     		movs	r2, r5
 1415 036c 3032     		adds	r2, r2, #48
 1416 036e 9342     		cmp	r3, r2
 1417 0370 01D1     		bne	.L53
 234:..\..\..\arduinoLCD\test\Pain Drain\libraries\lvgl\src\widgets/lv_slider.c ****         }
 1418              		.loc 1 234 0
 1419 0372 6C6A     		ldr	r4, [r5, #36]
 1420              	.LVL200:
 1421 0374 00E0     		b	.L54
 1422              	.L53:
 237:..\..\..\arduinoLCD\test\Pain Drain\libraries\lvgl\src\widgets/lv_slider.c ****         }
 1423              		.loc 1 237 0
 1424 0376 296B     		ldr	r1, [r5, #48]
 1425              	.LVL201:
ARM GAS  C:\Users\haske\AppData\Local\Temp\cc1ymag8.s 			page 52


 1426              	.L54:
 240:..\..\..\arduinoLCD\test\Pain Drain\libraries\lvgl\src\widgets/lv_slider.c ****         if(*slider->value_to_set != new_value) {
 1427              		.loc 1 240 0
 1428 0378 A042     		cmp	r0, r4
 1429 037a 00DD     		ble	.L55
 1430 037c 2000     		movs	r0, r4
 1431              	.LVL202:
 1432              	.L55:
 1433 037e 8142     		cmp	r1, r0
 1434 0380 00DA     		bge	.L56
 1435 0382 0100     		movs	r1, r0
 1436              	.LVL203:
 1437              	.L56:
 241:..\..\..\arduinoLCD\test\Pain Drain\libraries\lvgl\src\widgets/lv_slider.c ****             if(slider->value_to_set == &slider->bar.start_value) {
 1438              		.loc 1 241 0
 1439 0384 1868     		ldr	r0, [r3]
 1440 0386 8142     		cmp	r1, r0
 1441 0388 00D1     		bne	.LCB1454
 1442 038a 27E1     		b	.L27	@long jump
 1443              	.LCB1454:
 242:..\..\..\arduinoLCD\test\Pain Drain\libraries\lvgl\src\widgets/lv_slider.c ****                 lv_bar_set_start_value(obj, new_value, LV_ANIM_ON);
 1444              		.loc 1 242 0
 1445 038c 9342     		cmp	r3, r2
 1446 038e 04D1     		bne	.L58
 243:..\..\..\arduinoLCD\test\Pain Drain\libraries\lvgl\src\widgets/lv_slider.c ****             }
 1447              		.loc 1 243 0
 1448 0390 0122     		movs	r2, #1
 1449 0392 2800     		movs	r0, r5
 1450 0394 FFF7FEFF 		bl	lv_bar_set_start_value
 1451              	.LVL204:
 1452 0398 03E0     		b	.L59
 1453              	.LVL205:
 1454              	.L58:
 246:..\..\..\arduinoLCD\test\Pain Drain\libraries\lvgl\src\widgets/lv_slider.c ****             }
 1455              		.loc 1 246 0
 1456 039a 0122     		movs	r2, #1
 1457 039c 2800     		movs	r0, r5
 1458 039e FFF7FEFF 		bl	lv_bar_set_value
 1459              	.LVL206:
 1460              	.L59:
 248:..\..\..\arduinoLCD\test\Pain Drain\libraries\lvgl\src\widgets/lv_slider.c ****             if(res != LV_RES_OK) return;
 1461              		.loc 1 248 0
 1462 03a2 0022     		movs	r2, #0
 1463 03a4 1C21     		movs	r1, #28
 1464 03a6 2800     		movs	r0, r5
 1465 03a8 FFF7FEFF 		bl	lv_event_send
 1466              	.LVL207:
 1467 03ac 16E1     		b	.L27
 1468              	.LVL208:
 1469              	.L47:
 1470              	.LBE115:
 253:..\..\..\arduinoLCD\test\Pain Drain\libraries\lvgl\src\widgets/lv_slider.c ****         slider->dragging = false;
 1471              		.loc 1 253 0
 1472 03ae 082E     		cmp	r6, #8
 1473 03b0 01D0     		beq	.L60
 253:..\..\..\arduinoLCD\test\Pain Drain\libraries\lvgl\src\widgets/lv_slider.c ****         slider->dragging = false;
 1474              		.loc 1 253 0 is_stmt 0 discriminator 1
ARM GAS  C:\Users\haske\AppData\Local\Temp\cc1ymag8.s 			page 53


 1475 03b2 032E     		cmp	r6, #3
 1476 03b4 41D1     		bne	.L61
 1477              	.L60:
 1478              	.LBB128:
 254:..\..\..\arduinoLCD\test\Pain Drain\libraries\lvgl\src\widgets/lv_slider.c ****         slider->value_to_set = NULL;
 1479              		.loc 1 254 0 is_stmt 1
 1480 03b6 7422     		movs	r2, #116
 1481 03b8 AB5C     		ldrb	r3, [r5, r2]
 1482 03ba 0121     		movs	r1, #1
 1483 03bc 8B43     		bics	r3, r1
 1484 03be AB54     		strb	r3, [r5, r2]
 255:..\..\..\arduinoLCD\test\Pain Drain\libraries\lvgl\src\widgets/lv_slider.c **** 
 1485              		.loc 1 255 0
 1486 03c0 0023     		movs	r3, #0
 1487 03c2 2B67     		str	r3, [r5, #112]
 257:..\..\..\arduinoLCD\test\Pain Drain\libraries\lvgl\src\widgets/lv_slider.c **** 
 1488              		.loc 1 257 0
 1489 03c4 2800     		movs	r0, r5
 1490 03c6 FFF7FEFF 		bl	lv_obj_invalidate
 1491              	.LVL209:
 260:..\..\..\arduinoLCD\test\Pain Drain\libraries\lvgl\src\widgets/lv_slider.c ****         bool editing     = lv_group_get_editing(g);
 1492              		.loc 1 260 0
 1493 03ca 2800     		movs	r0, r5
 1494 03cc FFF7FEFF 		bl	lv_obj_get_group
 1495              	.LVL210:
 1496 03d0 0600     		movs	r6, r0
 1497              	.LVL211:
 261:..\..\..\arduinoLCD\test\Pain Drain\libraries\lvgl\src\widgets/lv_slider.c ****         lv_indev_type_t indev_type = lv_indev_get_type(lv_indev_get_act());
 1498              		.loc 1 261 0
 1499 03d2 FFF7FEFF 		bl	lv_group_get_editing
 1500              	.LVL212:
 1501 03d6 0400     		movs	r4, r0
 1502              	.LVL213:
 262:..\..\..\arduinoLCD\test\Pain Drain\libraries\lvgl\src\widgets/lv_slider.c ****         if(indev_type == LV_INDEV_TYPE_ENCODER) {
 1503              		.loc 1 262 0
 1504 03d8 FFF7FEFF 		bl	lv_indev_get_act
 1505              	.LVL214:
 1506 03dc FFF7FEFF 		bl	lv_indev_get_type
 1507              	.LVL215:
 263:..\..\..\arduinoLCD\test\Pain Drain\libraries\lvgl\src\widgets/lv_slider.c ****             if(editing) {
 1508              		.loc 1 263 0
 1509 03e0 0428     		cmp	r0, #4
 1510 03e2 00D0     		beq	.LCB1537
 1511 03e4 FAE0     		b	.L27	@long jump
 1512              	.LCB1537:
 264:..\..\..\arduinoLCD\test\Pain Drain\libraries\lvgl\src\widgets/lv_slider.c ****                 if(lv_slider_get_mode(obj) == LV_SLIDER_MODE_RANGE) {
 1513              		.loc 1 264 0
 1514 03e6 002C     		cmp	r4, #0
 1515 03e8 00D1     		bne	.LCB1539
 1516 03ea F7E0     		b	.L27	@long jump
 1517              	.LCB1539:
 1518              	.LVL216:
 1519              	.LBB129:
 1520              	.LBB130:
 179:..\..\..\arduinoLCD\test\Pain Drain\libraries\lvgl\src\widgets/lv_slider.h ****     if(mode == LV_BAR_MODE_SYMMETRICAL) return LV_SLIDER_MODE_SYMMETRICAL;
 1521              		.loc 4 179 0
 1522 03ec 2800     		movs	r0, r5
ARM GAS  C:\Users\haske\AppData\Local\Temp\cc1ymag8.s 			page 54


 1523              	.LVL217:
 1524 03ee FFF7FEFF 		bl	lv_bar_get_mode
 1525              	.LVL218:
 180:..\..\..\arduinoLCD\test\Pain Drain\libraries\lvgl\src\widgets/lv_slider.h ****     else if(mode == LV_BAR_MODE_RANGE) return LV_SLIDER_MODE_RANGE;
 1526              		.loc 4 180 0
 1527 03f2 0128     		cmp	r0, #1
 1528 03f4 03D0     		beq	.L85
 181:..\..\..\arduinoLCD\test\Pain Drain\libraries\lvgl\src\widgets/lv_slider.h ****     else return LV_SLIDER_MODE_NORMAL;
 1529              		.loc 4 181 0
 1530 03f6 0228     		cmp	r0, #2
 1531 03f8 03D1     		bne	.L86
 1532 03fa 0223     		movs	r3, #2
 1533 03fc 02E0     		b	.L62
 1534              	.L85:
 180:..\..\..\arduinoLCD\test\Pain Drain\libraries\lvgl\src\widgets/lv_slider.h ****     else if(mode == LV_BAR_MODE_RANGE) return LV_SLIDER_MODE_RANGE;
 1535              		.loc 4 180 0
 1536 03fe 0123     		movs	r3, #1
 1537 0400 00E0     		b	.L62
 1538              	.L86:
 1539              		.loc 4 182 0
 1540 0402 0023     		movs	r3, #0
 1541              	.L62:
 1542              	.LVL219:
 1543              	.LBE130:
 1544              	.LBE129:
 265:..\..\..\arduinoLCD\test\Pain Drain\libraries\lvgl\src\widgets/lv_slider.c ****                     if(slider->left_knob_focus == 0) slider->left_knob_focus = 1;
 1545              		.loc 1 265 0
 1546 0404 022B     		cmp	r3, #2
 1547 0406 13D1     		bne	.L63
 266:..\..\..\arduinoLCD\test\Pain Drain\libraries\lvgl\src\widgets/lv_slider.c ****                     else {
 1548              		.loc 1 266 0
 1549 0408 7233     		adds	r3, r3, #114
 1550 040a EB5C     		ldrb	r3, [r5, r3]
 1551 040c 9B07     		lsls	r3, r3, #30
 1552 040e 05D4     		bmi	.L64
 266:..\..\..\arduinoLCD\test\Pain Drain\libraries\lvgl\src\widgets/lv_slider.c ****                     else {
 1553              		.loc 1 266 0 is_stmt 0 discriminator 1
 1554 0410 7422     		movs	r2, #116
 1555 0412 A95C     		ldrb	r1, [r5, r2]
 1556 0414 0223     		movs	r3, #2
 1557 0416 0B43     		orrs	r3, r1
 1558 0418 AB54     		strb	r3, [r5, r2]
 1559 041a DFE0     		b	.L27
 1560              	.L64:
 268:..\..\..\arduinoLCD\test\Pain Drain\libraries\lvgl\src\widgets/lv_slider.c ****                         lv_group_set_editing(g, false);
 1561              		.loc 1 268 0 is_stmt 1
 1562 041c 7422     		movs	r2, #116
 1563 041e AB5C     		ldrb	r3, [r5, r2]
 1564 0420 0221     		movs	r1, #2
 1565 0422 8B43     		bics	r3, r1
 1566 0424 AB54     		strb	r3, [r5, r2]
 269:..\..\..\arduinoLCD\test\Pain Drain\libraries\lvgl\src\widgets/lv_slider.c ****                     }
 1567              		.loc 1 269 0
 1568 0426 0021     		movs	r1, #0
 1569 0428 3000     		movs	r0, r6
 1570 042a FFF7FEFF 		bl	lv_group_set_editing
 1571              	.LVL220:
ARM GAS  C:\Users\haske\AppData\Local\Temp\cc1ymag8.s 			page 55


 1572 042e D5E0     		b	.L27
 1573              	.L63:
 273:..\..\..\arduinoLCD\test\Pain Drain\libraries\lvgl\src\widgets/lv_slider.c ****                 }
 1574              		.loc 1 273 0
 1575 0430 0021     		movs	r1, #0
 1576 0432 3000     		movs	r0, r6
 1577 0434 FFF7FEFF 		bl	lv_group_set_editing
 1578              	.LVL221:
 1579 0438 D0E0     		b	.L27
 1580              	.LVL222:
 1581              	.L61:
 1582              	.LBE128:
 279:..\..\..\arduinoLCD\test\Pain Drain\libraries\lvgl\src\widgets/lv_slider.c ****         lv_indev_type_t indev_type = lv_indev_get_type(lv_indev_get_act());
 1583              		.loc 1 279 0
 1584 043a 0E2E     		cmp	r6, #14
 1585 043c 0ED1     		bne	.L65
 1586              	.LBB131:
 280:..\..\..\arduinoLCD\test\Pain Drain\libraries\lvgl\src\widgets/lv_slider.c ****         if(indev_type == LV_INDEV_TYPE_ENCODER || indev_type == LV_INDEV_TYPE_KEYPAD) {
 1587              		.loc 1 280 0
 1588 043e FFF7FEFF 		bl	lv_indev_get_act
 1589              	.LVL223:
 1590 0442 FFF7FEFF 		bl	lv_indev_get_type
 1591              	.LVL224:
 281:..\..\..\arduinoLCD\test\Pain Drain\libraries\lvgl\src\widgets/lv_slider.c ****             slider->left_knob_focus = 0;
 1592              		.loc 1 281 0
 1593 0446 0428     		cmp	r0, #4
 1594 0448 02D0     		beq	.L66
 281:..\..\..\arduinoLCD\test\Pain Drain\libraries\lvgl\src\widgets/lv_slider.c ****             slider->left_knob_focus = 0;
 1595              		.loc 1 281 0 is_stmt 0 discriminator 1
 1596 044a 0228     		cmp	r0, #2
 1597 044c 00D0     		beq	.LCB1631
 1598 044e C5E0     		b	.L27	@long jump
 1599              	.LCB1631:
 1600              	.L66:
 282:..\..\..\arduinoLCD\test\Pain Drain\libraries\lvgl\src\widgets/lv_slider.c ****         }
 1601              		.loc 1 282 0 is_stmt 1
 1602 0450 7422     		movs	r2, #116
 1603 0452 AB5C     		ldrb	r3, [r5, r2]
 1604 0454 0221     		movs	r1, #2
 1605 0456 8B43     		bics	r3, r1
 1606 0458 AB54     		strb	r3, [r5, r2]
 1607 045a BFE0     		b	.L27
 1608              	.LVL225:
 1609              	.L65:
 1610              	.LBE131:
 285:..\..\..\arduinoLCD\test\Pain Drain\libraries\lvgl\src\widgets/lv_slider.c ****         lv_obj_refresh_ext_draw_size(obj);
 1611              		.loc 1 285 0
 1612 045c 292E     		cmp	r6, #41
 1613 045e 03D1     		bne	.L67
 286:..\..\..\arduinoLCD\test\Pain Drain\libraries\lvgl\src\widgets/lv_slider.c ****     }
 1614              		.loc 1 286 0
 1615 0460 2800     		movs	r0, r5
 1616 0462 FFF7FEFF 		bl	lv_obj_refresh_ext_draw_size
 1617              	.LVL226:
 1618 0466 B9E0     		b	.L27
 1619              	.L67:
 288:..\..\..\arduinoLCD\test\Pain Drain\libraries\lvgl\src\widgets/lv_slider.c ****         lv_coord_t knob_left = lv_obj_get_style_pad_left(obj, LV_PART_KNOB);
ARM GAS  C:\Users\haske\AppData\Local\Temp\cc1ymag8.s 			page 56


 1620              		.loc 1 288 0
 1621 0468 132E     		cmp	r6, #19
 1622 046a 73D1     		bne	.L68
 1623              	.LVL227:
 1624              	.LBB132:
 1625              	.LBB133:
 1626              	.LBB134:
 117:..\..\..\arduinoLCD\test\Pain Drain\libraries\lvgl\src\widgets\../core/lv_obj_style_gen.h ****     return (lv_coord_t)v.num;
 1627              		.loc 2 117 0
 1628 046c C027     		movs	r7, #192
 1629 046e BF02     		lsls	r7, r7, #10
 1630 0470 1222     		movs	r2, #18
 1631 0472 3900     		movs	r1, r7
 1632 0474 2800     		movs	r0, r5
 1633 0476 FFF7FEFF 		bl	lv_obj_get_style_prop
 1634              	.LVL228:
 118:..\..\..\arduinoLCD\test\Pain Drain\libraries\lvgl\src\widgets\../core/lv_obj_style_gen.h **** }
 1635              		.loc 2 118 0
 1636 047a 03B2     		sxth	r3, r0
 1637 047c 9A46     		mov	r10, r3
 1638              	.LVL229:
 1639              	.LBE134:
 1640              	.LBE133:
 1641              	.LBB135:
 1642              	.LBB136:
 123:..\..\..\arduinoLCD\test\Pain Drain\libraries\lvgl\src\widgets\../core/lv_obj_style_gen.h ****     return (lv_coord_t)v.num;
 1643              		.loc 2 123 0
 1644 047e 1322     		movs	r2, #19
 1645 0480 3900     		movs	r1, r7
 1646 0482 2800     		movs	r0, r5
 1647 0484 FFF7FEFF 		bl	lv_obj_get_style_prop
 1648              	.LVL230:
 124:..\..\..\arduinoLCD\test\Pain Drain\libraries\lvgl\src\widgets\../core/lv_obj_style_gen.h **** }
 1649              		.loc 2 124 0
 1650 0488 03B2     		sxth	r3, r0
 1651 048a 0193     		str	r3, [sp, #4]
 1652              	.LVL231:
 1653              	.LBE136:
 1654              	.LBE135:
 1655              	.LBB137:
 1656              	.LBB138:
 105:..\..\..\arduinoLCD\test\Pain Drain\libraries\lvgl\src\widgets\../core/lv_obj_style_gen.h ****     return (lv_coord_t)v.num;
 1657              		.loc 2 105 0
 1658 048c 1022     		movs	r2, #16
 1659 048e 3900     		movs	r1, r7
 1660 0490 2800     		movs	r0, r5
 1661 0492 FFF7FEFF 		bl	lv_obj_get_style_prop
 1662              	.LVL232:
 106:..\..\..\arduinoLCD\test\Pain Drain\libraries\lvgl\src\widgets\../core/lv_obj_style_gen.h **** }
 1663              		.loc 2 106 0
 1664 0496 03B2     		sxth	r3, r0
 1665 0498 9B46     		mov	fp, r3
 1666              	.LVL233:
 1667              	.LBE138:
 1668              	.LBE137:
 1669              	.LBB139:
 1670              	.LBB140:
ARM GAS  C:\Users\haske\AppData\Local\Temp\cc1ymag8.s 			page 57


 111:..\..\..\arduinoLCD\test\Pain Drain\libraries\lvgl\src\widgets\../core/lv_obj_style_gen.h ****     return (lv_coord_t)v.num;
 1671              		.loc 2 111 0
 1672 049a 1122     		movs	r2, #17
 1673 049c 3900     		movs	r1, r7
 1674 049e 2800     		movs	r0, r5
 1675 04a0 FFF7FEFF 		bl	lv_obj_get_style_prop
 1676              	.LVL234:
 112:..\..\..\arduinoLCD\test\Pain Drain\libraries\lvgl\src\widgets\../core/lv_obj_style_gen.h **** }
 1677              		.loc 2 112 0
 1678 04a4 03B2     		sxth	r3, r0
 1679 04a6 0093     		str	r3, [sp]
 1680              	.LVL235:
 1681              	.LBE140:
 1682              	.LBE139:
 1683              	.LBB141:
 1684              	.LBB142:
  81:..\..\..\arduinoLCD\test\Pain Drain\libraries\lvgl\src\widgets\../core/lv_obj_style_gen.h ****     return (lv_coord_t)v.num;
 1685              		.loc 2 81 0
 1686 04a8 6C22     		movs	r2, #108
 1687 04aa 3900     		movs	r1, r7
 1688 04ac 2800     		movs	r0, r5
 1689 04ae FFF7FEFF 		bl	lv_obj_get_style_prop
 1690              	.LVL236:
  82:..\..\..\arduinoLCD\test\Pain Drain\libraries\lvgl\src\widgets\../core/lv_obj_style_gen.h **** }
 1691              		.loc 2 82 0
 1692 04b2 03B2     		sxth	r3, r0
 1693 04b4 9846     		mov	r8, r3
 1694              	.LVL237:
 1695              	.LBE142:
 1696              	.LBE141:
 1697              	.LBB143:
 1698              	.LBB144:
  57:..\..\..\arduinoLCD\test\Pain Drain\libraries\lvgl\src\widgets\../core/lv_obj_style_gen.h ****     return (lv_coord_t)v.num;
 1699              		.loc 2 57 0
 1700 04b6 6822     		movs	r2, #104
 1701 04b8 3900     		movs	r1, r7
 1702 04ba 2800     		movs	r0, r5
 1703 04bc FFF7FEFF 		bl	lv_obj_get_style_prop
 1704              	.LVL238:
  58:..\..\..\arduinoLCD\test\Pain Drain\libraries\lvgl\src\widgets\../core/lv_obj_style_gen.h **** }
 1705              		.loc 2 58 0
 1706 04c0 06B2     		sxth	r6, r0
 1707              	.LVL239:
 1708              	.LBE144:
 1709              	.LBE143:
 1710              	.LBB145:
 1711              	.LBB146:
  63:..\..\..\arduinoLCD\test\Pain Drain\libraries\lvgl\src\widgets\../core/lv_obj_style_gen.h ****     return (lv_coord_t)v.num;
 1712              		.loc 2 63 0
 1713 04c2 6922     		movs	r2, #105
 1714 04c4 3900     		movs	r1, r7
 1715 04c6 2800     		movs	r0, r5
 1716 04c8 FFF7FEFF 		bl	lv_obj_get_style_prop
 1717              	.LVL240:
  64:..\..\..\arduinoLCD\test\Pain Drain\libraries\lvgl\src\widgets\../core/lv_obj_style_gen.h **** }
 1718              		.loc 2 64 0
 1719 04cc 07B2     		sxth	r7, r0
ARM GAS  C:\Users\haske\AppData\Local\Temp\cc1ymag8.s 			page 58


 1720              	.LVL241:
 1721              	.LBE146:
 1722              	.LBE145:
 298:..\..\..\arduinoLCD\test\Pain Drain\libraries\lvgl\src\widgets/lv_slider.c ****         knob_size = (knob_size * zoom) >> 8;
 1723              		.loc 1 298 0
 1724 04ce 2800     		movs	r0, r5
 1725 04d0 FFF7FEFF 		bl	lv_obj_get_width
 1726              	.LVL242:
 1727 04d4 7600     		lsls	r6, r6, #1
 1728 04d6 8146     		mov	r9, r0
 1729 04d8 B144     		add	r9, r9, r6
 1730 04da 2800     		movs	r0, r5
 1731 04dc FFF7FEFF 		bl	lv_obj_get_height
 1732              	.LVL243:
 1733 04e0 7F00     		lsls	r7, r7, #1
 1734 04e2 C019     		adds	r0, r0, r7
 1735 04e4 8145     		cmp	r9, r0
 1736 04e6 06DA     		bge	.L69
 298:..\..\..\arduinoLCD\test\Pain Drain\libraries\lvgl\src\widgets/lv_slider.c ****         knob_size = (knob_size * zoom) >> 8;
 1737              		.loc 1 298 0 is_stmt 0 discriminator 1
 1738 04e8 2800     		movs	r0, r5
 1739 04ea FFF7FEFF 		bl	lv_obj_get_width
 1740              	.LVL244:
 1741 04ee 8619     		adds	r6, r0, r6
 1742 04f0 7610     		asrs	r6, r6, #1
 1743 04f2 33B2     		sxth	r3, r6
 1744 04f4 05E0     		b	.L70
 1745              	.L69:
 298:..\..\..\arduinoLCD\test\Pain Drain\libraries\lvgl\src\widgets/lv_slider.c ****         knob_size = (knob_size * zoom) >> 8;
 1746              		.loc 1 298 0 discriminator 2
 1747 04f6 2800     		movs	r0, r5
 1748 04f8 FFF7FEFF 		bl	lv_obj_get_height
 1749              	.LVL245:
 1750 04fc C719     		adds	r7, r0, r7
 1751 04fe 7F10     		asrs	r7, r7, #1
 1752 0500 3BB2     		sxth	r3, r7
 1753              	.L70:
 1754              	.LVL246:
 299:..\..\..\arduinoLCD\test\Pain Drain\libraries\lvgl\src\widgets/lv_slider.c ****         knob_size += LV_MAX(LV_MAX(knob_left, knob_right), LV_MAX(knob_bottom, knob_top));
 1755              		.loc 1 299 0 is_stmt 1 discriminator 4
 1756 0502 4246     		mov	r2, r8
 1757 0504 5A43     		muls	r2, r3
 1758 0506 1612     		asrs	r6, r2, #8
 1759              	.LVL247:
 300:..\..\..\arduinoLCD\test\Pain Drain\libraries\lvgl\src\widgets/lv_slider.c ****         knob_size += 2;         /*For rounding error*/
 1760              		.loc 1 300 0 discriminator 4
 1761 0508 009B     		ldr	r3, [sp]
 1762 050a 1A1C     		adds	r2, r3, #0
 1763 050c 5B45     		cmp	r3, fp
 1764 050e 00DA     		bge	.L71
 1765 0510 5A46     		mov	r2, fp
 1766              	.L71:
 1767 0512 12B2     		sxth	r2, r2
 1768 0514 019B     		ldr	r3, [sp, #4]
 1769 0516 191C     		adds	r1, r3, #0
 1770 0518 5345     		cmp	r3, r10
 1771 051a 00DA     		bge	.L72
ARM GAS  C:\Users\haske\AppData\Local\Temp\cc1ymag8.s 			page 59


 1772 051c 5146     		mov	r1, r10
 1773              	.L72:
 1774 051e 131C     		adds	r3, r2, #0
 1775 0520 08B2     		sxth	r0, r1
 1776 0522 8242     		cmp	r2, r0
 1777 0524 00DA     		bge	.L73
 1778 0526 0B1C     		adds	r3, r1, #0
 1779              	.L73:
 1780 0528 F318     		adds	r3, r6, r3
 1781 052a 9EB2     		uxth	r6, r3
 1782              	.LVL248:
 301:..\..\..\arduinoLCD\test\Pain Drain\libraries\lvgl\src\widgets/lv_slider.c ****         knob_size += lv_obj_calculate_ext_draw_size(obj, LV_PART_KNOB);
 1783              		.loc 1 301 0 discriminator 4
 1784 052c 0236     		adds	r6, r6, #2
 1785              	.LVL249:
 1786 052e B6B2     		uxth	r6, r6
 1787              	.LVL250:
 302:..\..\..\arduinoLCD\test\Pain Drain\libraries\lvgl\src\widgets/lv_slider.c **** 
 1788              		.loc 1 302 0 discriminator 4
 1789 0530 C021     		movs	r1, #192
 1790 0532 8902     		lsls	r1, r1, #10
 1791 0534 2800     		movs	r0, r5
 1792 0536 FFF7FEFF 		bl	lv_obj_calculate_ext_draw_size
 1793              	.LVL251:
 1794 053a 3618     		adds	r6, r6, r0
 1795              	.LVL252:
 1796 053c 36B2     		sxth	r6, r6
 1797              	.LVL253:
 305:..\..\..\arduinoLCD\test\Pain Drain\libraries\lvgl\src\widgets/lv_slider.c ****         *s  = LV_MAX(*s, knob_size);
 1798              		.loc 1 305 0 discriminator 4
 1799 053e 2000     		movs	r0, r4
 1800 0540 FFF7FEFF 		bl	lv_event_get_param
 1801              	.LVL254:
 306:..\..\..\arduinoLCD\test\Pain Drain\libraries\lvgl\src\widgets/lv_slider.c **** 
 1802              		.loc 1 306 0 discriminator 4
 1803 0544 0023     		movs	r3, #0
 1804 0546 C25E     		ldrsh	r2, [r0, r3]
 1805 0548 331C     		adds	r3, r6, #0
 1806 054a 9642     		cmp	r6, r2
 1807 054c 00DA     		bge	.L74
 1808 054e 131C     		adds	r3, r2, #0
 1809              	.L74:
 1810 0550 0380     		strh	r3, [r0]
 1811              	.LBE132:
 1812 0552 43E0     		b	.L27
 1813              	.LVL255:
 1814              	.L68:
 309:..\..\..\arduinoLCD\test\Pain Drain\libraries\lvgl\src\widgets/lv_slider.c ****         char c = *((char *)lv_event_get_param(e));
 1815              		.loc 1 309 0
 1816 0554 0D2E     		cmp	r6, #13
 1817 0556 3CD1     		bne	.L75
 1818              	.LBB147:
 310:..\..\..\arduinoLCD\test\Pain Drain\libraries\lvgl\src\widgets/lv_slider.c **** 
 1819              		.loc 1 310 0
 1820 0558 2000     		movs	r0, r4
 1821 055a FFF7FEFF 		bl	lv_event_get_param
 1822              	.LVL256:
ARM GAS  C:\Users\haske\AppData\Local\Temp\cc1ymag8.s 			page 60


 1823 055e 0378     		ldrb	r3, [r0]
 1824              	.LVL257:
 312:..\..\..\arduinoLCD\test\Pain Drain\libraries\lvgl\src\widgets/lv_slider.c ****             if(!slider->left_knob_focus) lv_slider_set_value(obj, lv_slider_get_value(obj) + 1, LV_
 1825              		.loc 1 312 0
 1826 0560 132B     		cmp	r3, #19
 1827 0562 01D0     		beq	.L76
 312:..\..\..\arduinoLCD\test\Pain Drain\libraries\lvgl\src\widgets/lv_slider.c ****             if(!slider->left_knob_focus) lv_slider_set_value(obj, lv_slider_get_value(obj) + 1, LV_
 1828              		.loc 1 312 0 is_stmt 0 discriminator 1
 1829 0564 112B     		cmp	r3, #17
 1830 0566 15D1     		bne	.L77
 1831              	.L76:
 313:..\..\..\arduinoLCD\test\Pain Drain\libraries\lvgl\src\widgets/lv_slider.c ****             else lv_slider_set_left_value(obj, lv_slider_get_left_value(obj) + 1, LV_ANIM_ON);
 1832              		.loc 1 313 0 is_stmt 1
 1833 0568 7423     		movs	r3, #116
 1834              	.LVL258:
 1835 056a EB5C     		ldrb	r3, [r5, r3]
 1836 056c 9B07     		lsls	r3, r3, #30
 1837 056e 08D4     		bmi	.L78
 1838              	.LVL259:
 1839              	.LBB148:
 1840              	.LBB149:
 132:..\..\..\arduinoLCD\test\Pain Drain\libraries\lvgl\src\widgets/lv_slider.h **** }
 1841              		.loc 4 132 0
 1842 0570 2800     		movs	r0, r5
 1843              	.LVL260:
 1844 0572 FFF7FEFF 		bl	lv_bar_get_value
 1845              	.LVL261:
 1846              	.LBE149:
 1847              	.LBE148:
 313:..\..\..\arduinoLCD\test\Pain Drain\libraries\lvgl\src\widgets/lv_slider.c ****             else lv_slider_set_left_value(obj, lv_slider_get_left_value(obj) + 1, LV_ANIM_ON);
 1848              		.loc 1 313 0
 1849 0576 411C     		adds	r1, r0, #1
 1850              	.LVL262:
 1851              	.LBB150:
 1852              	.LBB151:
  86:..\..\..\arduinoLCD\test\Pain Drain\libraries\lvgl\src\widgets/lv_slider.h **** }
 1853              		.loc 4 86 0
 1854 0578 0122     		movs	r2, #1
 1855 057a 2800     		movs	r0, r5
 1856 057c FFF7FEFF 		bl	lv_bar_set_value
 1857              	.LVL263:
 1858 0580 21E0     		b	.L79
 1859              	.LVL264:
 1860              	.L78:
 1861              	.LBE151:
 1862              	.LBE150:
 1863              	.LBB152:
 1864              	.LBB153:
 142:..\..\..\arduinoLCD\test\Pain Drain\libraries\lvgl\src\widgets/lv_slider.h **** }
 1865              		.loc 4 142 0
 1866 0582 2800     		movs	r0, r5
 1867              	.LVL265:
 1868 0584 FFF7FEFF 		bl	lv_bar_get_start_value
 1869              	.LVL266:
 1870              	.LBE153:
 1871              	.LBE152:
 314:..\..\..\arduinoLCD\test\Pain Drain\libraries\lvgl\src\widgets/lv_slider.c ****         }
ARM GAS  C:\Users\haske\AppData\Local\Temp\cc1ymag8.s 			page 61


 1872              		.loc 1 314 0
 1873 0588 411C     		adds	r1, r0, #1
 1874              	.LVL267:
 1875              	.LBB154:
 1876              	.LBB155:
  97:..\..\..\arduinoLCD\test\Pain Drain\libraries\lvgl\src\widgets/lv_slider.h **** }
 1877              		.loc 4 97 0
 1878 058a 0122     		movs	r2, #1
 1879 058c 2800     		movs	r0, r5
 1880 058e FFF7FEFF 		bl	lv_bar_set_start_value
 1881              	.LVL268:
 1882 0592 18E0     		b	.L79
 1883              	.LVL269:
 1884              	.L77:
 1885              	.LBE155:
 1886              	.LBE154:
 316:..\..\..\arduinoLCD\test\Pain Drain\libraries\lvgl\src\widgets/lv_slider.c ****             if(!slider->left_knob_focus) lv_slider_set_value(obj, lv_slider_get_value(obj) - 1, LV_
 1887              		.loc 1 316 0
 1888 0594 142B     		cmp	r3, #20
 1889 0596 01D0     		beq	.L80
 316:..\..\..\arduinoLCD\test\Pain Drain\libraries\lvgl\src\widgets/lv_slider.c ****             if(!slider->left_knob_focus) lv_slider_set_value(obj, lv_slider_get_value(obj) - 1, LV_
 1890              		.loc 1 316 0 is_stmt 0 discriminator 1
 1891 0598 122B     		cmp	r3, #18
 1892 059a 1FD1     		bne	.L27
 1893              	.L80:
 317:..\..\..\arduinoLCD\test\Pain Drain\libraries\lvgl\src\widgets/lv_slider.c ****             else lv_slider_set_left_value(obj, lv_slider_get_left_value(obj) - 1, LV_ANIM_ON);
 1894              		.loc 1 317 0 is_stmt 1
 1895 059c 7423     		movs	r3, #116
 1896              	.LVL270:
 1897 059e EB5C     		ldrb	r3, [r5, r3]
 1898 05a0 9B07     		lsls	r3, r3, #30
 1899 05a2 08D4     		bmi	.L81
 1900              	.LVL271:
 1901              	.LBB156:
 1902              	.LBB157:
 132:..\..\..\arduinoLCD\test\Pain Drain\libraries\lvgl\src\widgets/lv_slider.h **** }
 1903              		.loc 4 132 0
 1904 05a4 2800     		movs	r0, r5
 1905              	.LVL272:
 1906 05a6 FFF7FEFF 		bl	lv_bar_get_value
 1907              	.LVL273:
 1908              	.LBE157:
 1909              	.LBE156:
 317:..\..\..\arduinoLCD\test\Pain Drain\libraries\lvgl\src\widgets/lv_slider.c ****             else lv_slider_set_left_value(obj, lv_slider_get_left_value(obj) - 1, LV_ANIM_ON);
 1910              		.loc 1 317 0
 1911 05aa 411E     		subs	r1, r0, #1
 1912              	.LVL274:
 1913              	.LBB158:
 1914              	.LBB159:
  86:..\..\..\arduinoLCD\test\Pain Drain\libraries\lvgl\src\widgets/lv_slider.h **** }
 1915              		.loc 4 86 0
 1916 05ac 0122     		movs	r2, #1
 1917 05ae 2800     		movs	r0, r5
 1918 05b0 FFF7FEFF 		bl	lv_bar_set_value
 1919              	.LVL275:
 1920 05b4 07E0     		b	.L79
 1921              	.LVL276:
ARM GAS  C:\Users\haske\AppData\Local\Temp\cc1ymag8.s 			page 62


 1922              	.L81:
 1923              	.LBE159:
 1924              	.LBE158:
 1925              	.LBB160:
 1926              	.LBB161:
 142:..\..\..\arduinoLCD\test\Pain Drain\libraries\lvgl\src\widgets/lv_slider.h **** }
 1927              		.loc 4 142 0
 1928 05b6 2800     		movs	r0, r5
 1929              	.LVL277:
 1930 05b8 FFF7FEFF 		bl	lv_bar_get_start_value
 1931              	.LVL278:
 1932              	.LBE161:
 1933              	.LBE160:
 318:..\..\..\arduinoLCD\test\Pain Drain\libraries\lvgl\src\widgets/lv_slider.c ****         }
 1934              		.loc 1 318 0
 1935 05bc 411E     		subs	r1, r0, #1
 1936              	.LVL279:
 1937              	.LBB162:
 1938              	.LBB163:
  97:..\..\..\arduinoLCD\test\Pain Drain\libraries\lvgl\src\widgets/lv_slider.h **** }
 1939              		.loc 4 97 0
 1940 05be 0122     		movs	r2, #1
 1941 05c0 2800     		movs	r0, r5
 1942 05c2 FFF7FEFF 		bl	lv_bar_set_start_value
 1943              	.LVL280:
 1944              	.L79:
 1945              	.LBE163:
 1946              	.LBE162:
 324:..\..\..\arduinoLCD\test\Pain Drain\libraries\lvgl\src\widgets/lv_slider.c ****         if(res != LV_RES_OK) return;
 1947              		.loc 1 324 0
 1948 05c6 0022     		movs	r2, #0
 1949 05c8 1C21     		movs	r1, #28
 1950 05ca 2800     		movs	r0, r5
 1951 05cc FFF7FEFF 		bl	lv_event_send
 1952              	.LVL281:
 1953 05d0 04E0     		b	.L27
 1954              	.L75:
 1955              	.LBE147:
 327:..\..\..\arduinoLCD\test\Pain Drain\libraries\lvgl\src\widgets/lv_slider.c ****         draw_knob(e);
 1956              		.loc 1 327 0
 1957 05d2 152E     		cmp	r6, #21
 1958 05d4 02D1     		bne	.L27
 328:..\..\..\arduinoLCD\test\Pain Drain\libraries\lvgl\src\widgets/lv_slider.c ****     }
 1959              		.loc 1 328 0
 1960 05d6 2000     		movs	r0, r4
 1961 05d8 FFF7FEFF 		bl	draw_knob
 1962              	.LVL282:
 1963              	.L27:
 330:..\..\..\arduinoLCD\test\Pain Drain\libraries\lvgl\src\widgets/lv_slider.c **** 
 1964              		.loc 1 330 0
 1965 05dc 05B0     		add	sp, sp, #20
 1966              		@ sp needed
 1967              	.LVL283:
 1968              	.LVL284:
 1969 05de 3CBC     		pop	{r2, r3, r4, r5}
 1970 05e0 9046     		mov	r8, r2
 1971 05e2 9946     		mov	r9, r3
ARM GAS  C:\Users\haske\AppData\Local\Temp\cc1ymag8.s 			page 63


 1972 05e4 A246     		mov	r10, r4
 1973 05e6 AB46     		mov	fp, r5
 1974 05e8 F0BD     		pop	{r4, r5, r6, r7, pc}
 1975              		.cfi_endproc
 1976              	.LFE177:
 1977              		.size	lv_slider_event, .-lv_slider_event
 1978 05ea C046     		.section	.text.lv_slider_constructor,"ax",%progbits
 1979              		.align	2
 1980              		.code	16
 1981              		.thumb_func
 1982              		.type	lv_slider_constructor, %function
 1983              	lv_slider_constructor:
 1984              	.LFB176:
  81:..\..\..\arduinoLCD\test\Pain Drain\libraries\lvgl\src\widgets/lv_slider.c ****     LV_UNUSED(class_p);
 1985              		.loc 1 81 0
 1986              		.cfi_startproc
 1987              		@ args = 0, pretend = 0, frame = 0
 1988              		@ frame_needed = 0, uses_anonymous_args = 0
 1989              	.LVL285:
 1990 0000 10B5     		push	{r4, lr}
 1991              		.cfi_def_cfa_offset 8
 1992              		.cfi_offset 4, -8
 1993              		.cfi_offset 14, -4
 1994 0002 0C00     		movs	r4, r1
 1995              	.LVL286:
  86:..\..\..\arduinoLCD\test\Pain Drain\libraries\lvgl\src\widgets/lv_slider.c ****     slider->dragging = 0U;
 1996              		.loc 1 86 0
 1997 0004 0023     		movs	r3, #0
 1998 0006 0B67     		str	r3, [r1, #112]
  87:..\..\..\arduinoLCD\test\Pain Drain\libraries\lvgl\src\widgets/lv_slider.c ****     slider->left_knob_focus = 0U;
 1999              		.loc 1 87 0
 2000 0008 7422     		movs	r2, #116
 2001 000a 8B5C     		ldrb	r3, [r1, r2]
  88:..\..\..\arduinoLCD\test\Pain Drain\libraries\lvgl\src\widgets/lv_slider.c **** 
 2002              		.loc 1 88 0
 2003 000c 0121     		movs	r1, #1
 2004              	.LVL287:
 2005 000e 8B43     		bics	r3, r1
 2006 0010 0131     		adds	r1, r1, #1
 2007 0012 8B43     		bics	r3, r1
 2008 0014 A354     		strb	r3, [r4, r2]
  90:..\..\..\arduinoLCD\test\Pain Drain\libraries\lvgl\src\widgets/lv_slider.c ****     lv_obj_clear_flag(obj, LV_OBJ_FLAG_SCROLLABLE);
 2009              		.loc 1 90 0
 2010 0016 C021     		movs	r1, #192
 2011 0018 8900     		lsls	r1, r1, #2
 2012 001a 2000     		movs	r0, r4
 2013              	.LVL288:
 2014 001c FFF7FEFF 		bl	lv_obj_clear_flag
 2015              	.LVL289:
  91:..\..\..\arduinoLCD\test\Pain Drain\libraries\lvgl\src\widgets/lv_slider.c ****     lv_obj_set_ext_click_area(obj, LV_DPX(8));
 2016              		.loc 1 91 0
 2017 0020 1021     		movs	r1, #16
 2018 0022 2000     		movs	r0, r4
 2019 0024 FFF7FEFF 		bl	lv_obj_clear_flag
 2020              	.LVL290:
  92:..\..\..\arduinoLCD\test\Pain Drain\libraries\lvgl\src\widgets/lv_slider.c **** }
 2021              		.loc 1 92 0
ARM GAS  C:\Users\haske\AppData\Local\Temp\cc1ymag8.s 			page 64


 2022 0028 0020     		movs	r0, #0
 2023 002a FFF7FEFF 		bl	lv_disp_get_dpi
 2024              	.LVL291:
 2025 002e 0A30     		adds	r0, r0, #10
 2026 0030 C000     		lsls	r0, r0, #3
 2027 0032 4023     		movs	r3, #64
 2028 0034 FF33     		adds	r3, r3, #255
 2029 0036 9842     		cmp	r0, r3
 2030 0038 09DD     		ble	.L91
  92:..\..\..\arduinoLCD\test\Pain Drain\libraries\lvgl\src\widgets/lv_slider.c **** }
 2031              		.loc 1 92 0 is_stmt 0 discriminator 1
 2032 003a 0020     		movs	r0, #0
 2033 003c FFF7FEFF 		bl	lv_disp_get_dpi
 2034              	.LVL292:
 2035 0040 0A30     		adds	r0, r0, #10
 2036 0042 C000     		lsls	r0, r0, #3
 2037 0044 A021     		movs	r1, #160
 2038 0046 FFF7FEFF 		bl	__aeabi_idiv
 2039              	.LVL293:
 2040 004a 01B2     		sxth	r1, r0
 2041 004c 00E0     		b	.L90
 2042              	.L91:
  92:..\..\..\arduinoLCD\test\Pain Drain\libraries\lvgl\src\widgets/lv_slider.c **** }
 2043              		.loc 1 92 0
 2044 004e 0121     		movs	r1, #1
 2045              	.L90:
  92:..\..\..\arduinoLCD\test\Pain Drain\libraries\lvgl\src\widgets/lv_slider.c **** }
 2046              		.loc 1 92 0 discriminator 4
 2047 0050 2000     		movs	r0, r4
 2048 0052 FFF7FEFF 		bl	lv_obj_set_ext_click_area
 2049              	.LVL294:
  93:..\..\..\arduinoLCD\test\Pain Drain\libraries\lvgl\src\widgets/lv_slider.c **** 
 2050              		.loc 1 93 0 is_stmt 1 discriminator 4
 2051              		@ sp needed
 2052              	.LVL295:
 2053 0056 10BD     		pop	{r4, pc}
 2054              		.cfi_endproc
 2055              	.LFE176:
 2056              		.size	lv_slider_constructor, .-lv_slider_constructor
 2057              		.section	.text.lv_slider_create,"ax",%progbits
 2058              		.align	2
 2059              		.global	lv_slider_create
 2060              		.code	16
 2061              		.thumb_func
 2062              		.type	lv_slider_create, %function
 2063              	lv_slider_create:
 2064              	.LFB174:
  61:..\..\..\arduinoLCD\test\Pain Drain\libraries\lvgl\src\widgets/lv_slider.c ****     LV_LOG_INFO("begin");
 2065              		.loc 1 61 0
 2066              		.cfi_startproc
 2067              		@ args = 0, pretend = 0, frame = 0
 2068              		@ frame_needed = 0, uses_anonymous_args = 0
 2069              	.LVL296:
 2070 0000 10B5     		push	{r4, lr}
 2071              		.cfi_def_cfa_offset 8
 2072              		.cfi_offset 4, -8
 2073              		.cfi_offset 14, -4
ARM GAS  C:\Users\haske\AppData\Local\Temp\cc1ymag8.s 			page 65


 2074 0002 0100     		movs	r1, r0
  63:..\..\..\arduinoLCD\test\Pain Drain\libraries\lvgl\src\widgets/lv_slider.c ****     lv_obj_class_init_obj(obj);
 2075              		.loc 1 63 0
 2076 0004 0348     		ldr	r0, .L93
 2077              	.LVL297:
 2078 0006 FFF7FEFF 		bl	lv_obj_class_create_obj
 2079              	.LVL298:
 2080 000a 0400     		movs	r4, r0
 2081              	.LVL299:
  64:..\..\..\arduinoLCD\test\Pain Drain\libraries\lvgl\src\widgets/lv_slider.c ****     return obj;
 2082              		.loc 1 64 0
 2083 000c FFF7FEFF 		bl	lv_obj_class_init_obj
 2084              	.LVL300:
  66:..\..\..\arduinoLCD\test\Pain Drain\libraries\lvgl\src\widgets/lv_slider.c **** 
 2085              		.loc 1 66 0
 2086 0010 2000     		movs	r0, r4
 2087              		@ sp needed
 2088              	.LVL301:
 2089 0012 10BD     		pop	{r4, pc}
 2090              	.L94:
 2091              		.align	2
 2092              	.L93:
 2093 0014 00000000 		.word	.LANCHOR0
 2094              		.cfi_endproc
 2095              	.LFE174:
 2096              		.size	lv_slider_create, .-lv_slider_create
 2097              		.section	.text.lv_slider_is_dragged,"ax",%progbits
 2098              		.align	2
 2099              		.global	lv_slider_is_dragged
 2100              		.code	16
 2101              		.thumb_func
 2102              		.type	lv_slider_is_dragged, %function
 2103              	lv_slider_is_dragged:
 2104              	.LFB175:
  69:..\..\..\arduinoLCD\test\Pain Drain\libraries\lvgl\src\widgets/lv_slider.c ****     LV_ASSERT_OBJ(obj, MY_CLASS);
 2105              		.loc 1 69 0
 2106              		.cfi_startproc
 2107              		@ args = 0, pretend = 0, frame = 0
 2108              		@ frame_needed = 0, uses_anonymous_args = 0
 2109              		@ link register save eliminated.
 2110              	.LVL302:
  73:..\..\..\arduinoLCD\test\Pain Drain\libraries\lvgl\src\widgets/lv_slider.c **** }
 2111              		.loc 1 73 0
 2112 0000 7423     		movs	r3, #116
 2113 0002 C35C     		ldrb	r3, [r0, r3]
 2114 0004 0120     		movs	r0, #1
 2115              	.LVL303:
 2116 0006 1840     		ands	r0, r3
  74:..\..\..\arduinoLCD\test\Pain Drain\libraries\lvgl\src\widgets/lv_slider.c **** 
 2117              		.loc 1 74 0
 2118              		@ sp needed
 2119 0008 7047     		bx	lr
 2120              		.cfi_endproc
 2121              	.LFE175:
 2122              		.size	lv_slider_is_dragged, .-lv_slider_is_dragged
 2123              		.global	lv_slider_class
 2124 000a C046     		.section	.rodata
ARM GAS  C:\Users\haske\AppData\Local\Temp\cc1ymag8.s 			page 66


 2125              		.align	2
 2126              		.set	.LANCHOR0,. + 0
 2127              		.type	lv_slider_class, %object
 2128              		.size	lv_slider_class, 28
 2129              	lv_slider_class:
 2130 0000 00000000 		.word	lv_bar_class
 2131 0004 00000000 		.word	lv_slider_constructor
 2132 0008 00000000 		.space	8
 2132      00000000 
 2133 0010 00000000 		.word	lv_slider_event
 2134 0014 00000000 		.space	4
 2135 0018 85       		.byte	133
 2136 0019 07       		.byte	7
 2137 001a 00       		.byte	0
 2138 001b 00       		.space	1
 2139              		.text
 2140              	.Letext0:
 2141              		.file 5 "c:\\program files (x86)\\cypress\\psoc creator\\4.4\\psoc creator\\import\\gnu\\arm\\5.4.
 2142              		.file 6 "c:\\program files (x86)\\cypress\\psoc creator\\4.4\\psoc creator\\import\\gnu\\arm\\5.4.
 2143              		.file 7 "c:\\program files (x86)\\cypress\\psoc creator\\4.4\\psoc creator\\import\\gnu\\arm\\5.4.
 2144              		.file 8 "c:\\projects\\paindrain\\arduinolcd\\test\\pain drain\\libraries\\lvgl\\src\\font\\lv_fon
 2145              		.file 9 "c:\\projects\\paindrain\\arduinolcd\\test\\pain drain\\libraries\\lvgl\\src\\misc\\lv_typ
 2146              		.file 10 "c:\\projects\\paindrain\\arduinolcd\\test\\pain drain\\libraries\\lvgl\\src\\misc\\lv_co
 2147              		.file 11 "c:\\projects\\paindrain\\arduinolcd\\test\\pain drain\\libraries\\lvgl\\src\\misc\\lv_an
 2148              		.file 12 "c:\\projects\\paindrain\\arduinolcd\\test\\pain drain\\libraries\\lvgl\\src\\misc\\lv_tx
 2149              		.file 13 "c:\\projects\\paindrain\\arduinolcd\\test\\pain drain\\libraries\\lvgl\\src\\misc\\lv_bi
 2150              		.file 14 "c:\\projects\\paindrain\\arduinolcd\\test\\pain drain\\libraries\\lvgl\\src\\misc\\lv_st
 2151              		.file 15 "c:\\projects\\paindrain\\arduinolcd\\test\\pain drain\\libraries\\lvgl\\src\\draw\\lv_im
 2152              		.file 16 "..\\..\\..\\arduinoLCD\\test\\Pain Drain\\libraries\\lvgl\\src\\widgets\\../core/lv_obj.
 2153              		.file 17 "c:\\projects\\paindrain\\arduinolcd\\test\\pain drain\\libraries\\lvgl\\src\\draw\\lv_dr
 2154              		.file 18 "c:\\projects\\paindrain\\arduinolcd\\test\\pain drain\\libraries\\lvgl\\src\\draw\\lv_dr
 2155              		.file 19 "c:\\projects\\paindrain\\arduinolcd\\test\\pain drain\\libraries\\lvgl\\src\\draw\\lv_dr
 2156              		.file 20 "c:\\projects\\paindrain\\arduinolcd\\test\\pain drain\\libraries\\lvgl\\src\\draw\\lv_dr
 2157              		.file 21 "c:\\projects\\paindrain\\arduinolcd\\test\\pain drain\\libraries\\lvgl\\src\\draw\\lv_dr
 2158              		.file 22 "c:\\projects\\paindrain\\arduinolcd\\test\\pain drain\\libraries\\lvgl\\src\\draw\\lv_dr
 2159              		.file 23 "c:\\projects\\paindrain\\arduinolcd\\test\\pain drain\\libraries\\lvgl\\src\\draw\\lv_dr
 2160              		.file 24 "c:\\projects\\paindrain\\arduinolcd\\test\\pain drain\\libraries\\lvgl\\src\\misc\\lv_ll
 2161              		.file 25 "c:\\projects\\paindrain\\arduinolcd\\test\\pain drain\\libraries\\lvgl\\src\\misc\\lv_ti
 2162              		.file 26 "c:\\projects\\paindrain\\arduinolcd\\test\\pain drain\\libraries\\lvgl\\src\\hal\\lv_hal
 2163              		.file 27 "..\\..\\..\\arduinoLCD\\test\\Pain Drain\\libraries\\lvgl\\src\\widgets\\../core/lv_them
 2164              		.file 28 "c:\\projects\\paindrain\\arduinolcd\\test\\pain drain\\libraries\\lvgl\\src\\hal\\lv_hal
 2165              		.file 29 "..\\..\\..\\arduinoLCD\\test\\Pain Drain\\libraries\\lvgl\\src\\widgets\\../core/lv_grou
 2166              		.file 30 "..\\..\\..\\arduinoLCD\\test\\Pain Drain\\libraries\\lvgl\\src\\widgets\\../core/lv_obj_
 2167              		.file 31 "..\\..\\..\\arduinoLCD\\test\\Pain Drain\\libraries\\lvgl\\src\\widgets\\../core/lv_obj_
 2168              		.file 32 "..\\..\\..\\arduinoLCD\\test\\Pain Drain\\libraries\\lvgl\\src\\widgets\\../core/lv_obj_
 2169              		.file 33 "..\\..\\..\\arduinoLCD\\test\\Pain Drain\\libraries\\lvgl\\src\\widgets\\../core/lv_obj_
 2170              		.file 34 "..\\..\\..\\arduinoLCD\\test\\Pain Drain\\libraries\\lvgl\\src\\widgets\\../core/lv_even
 2171              		.file 35 "..\\..\\..\\arduinoLCD\\test\\Pain Drain\\libraries\\lvgl\\src\\widgets\\lv_bar.h"
 2172              		.file 36 "c:\\projects\\paindrain\\arduinolcd\\test\\pain drain\\libraries\\lvgl\\src\\core\\lv_ob
 2173              		.file 37 "c:\\projects\\paindrain\\arduinolcd\\test\\pain drain\\libraries\\lvgl\\src\\misc\\lv_me
 2174              		.file 38 "..\\..\\..\\arduinoLCD\\test\\Pain Drain\\libraries\\lvgl\\src\\widgets\\../core/lv_inde
 2175              		.section	.debug_info,"",%progbits
 2176              	.Ldebug_info0:
 2177 0000 D13C0000 		.4byte	0x3cd1
 2178 0004 0400     		.2byte	0x4
 2179 0006 00000000 		.4byte	.Ldebug_abbrev0
 2180 000a 04       		.byte	0x4
ARM GAS  C:\Users\haske\AppData\Local\Temp\cc1ymag8.s 			page 67


 2181 000b 01       		.uleb128 0x1
 2182 000c 410B0000 		.4byte	.LASF724
 2183 0010 0C       		.byte	0xc
 2184 0011 782A0000 		.4byte	.LASF725
 2185 0015 AA250000 		.4byte	.LASF726
 2186 0019 00000000 		.4byte	.Ldebug_ranges0+0
 2187 001d 00000000 		.4byte	0
 2188 0021 00000000 		.4byte	.Ldebug_line0
 2189 0025 02       		.uleb128 0x2
 2190 0026 6B1E0000 		.4byte	.LASF0
 2191 002a 05       		.byte	0x5
 2192 002b 1B       		.byte	0x1b
 2193 002c 30000000 		.4byte	0x30
 2194 0030 03       		.uleb128 0x3
 2195 0031 01       		.byte	0x1
 2196 0032 06       		.byte	0x6
 2197 0033 5C080000 		.4byte	.LASF2
 2198 0037 02       		.uleb128 0x2
 2199 0038 87040000 		.4byte	.LASF1
 2200 003c 05       		.byte	0x5
 2201 003d 1D       		.byte	0x1d
 2202 003e 42000000 		.4byte	0x42
 2203 0042 03       		.uleb128 0x3
 2204 0043 01       		.byte	0x1
 2205 0044 08       		.byte	0x8
 2206 0045 63090000 		.4byte	.LASF3
 2207 0049 02       		.uleb128 0x2
 2208 004a 60210000 		.4byte	.LASF4
 2209 004e 05       		.byte	0x5
 2210 004f 29       		.byte	0x29
 2211 0050 54000000 		.4byte	0x54
 2212 0054 03       		.uleb128 0x3
 2213 0055 02       		.byte	0x2
 2214 0056 05       		.byte	0x5
 2215 0057 B4230000 		.4byte	.LASF5
 2216 005b 02       		.uleb128 0x2
 2217 005c 2D0D0000 		.4byte	.LASF6
 2218 0060 05       		.byte	0x5
 2219 0061 2B       		.byte	0x2b
 2220 0062 66000000 		.4byte	0x66
 2221 0066 03       		.uleb128 0x3
 2222 0067 02       		.byte	0x2
 2223 0068 07       		.byte	0x7
 2224 0069 C6270000 		.4byte	.LASF7
 2225 006d 02       		.uleb128 0x2
 2226 006e 9C280000 		.4byte	.LASF8
 2227 0072 05       		.byte	0x5
 2228 0073 3F       		.byte	0x3f
 2229 0074 78000000 		.4byte	0x78
 2230 0078 03       		.uleb128 0x3
 2231 0079 04       		.byte	0x4
 2232 007a 05       		.byte	0x5
 2233 007b F4050000 		.4byte	.LASF9
 2234 007f 02       		.uleb128 0x2
 2235 0080 8A160000 		.4byte	.LASF10
 2236 0084 05       		.byte	0x5
 2237 0085 41       		.byte	0x41
ARM GAS  C:\Users\haske\AppData\Local\Temp\cc1ymag8.s 			page 68


 2238 0086 8A000000 		.4byte	0x8a
 2239 008a 03       		.uleb128 0x3
 2240 008b 04       		.byte	0x4
 2241 008c 07       		.byte	0x7
 2242 008d 38130000 		.4byte	.LASF11
 2243 0091 03       		.uleb128 0x3
 2244 0092 08       		.byte	0x8
 2245 0093 05       		.byte	0x5
 2246 0094 CA160000 		.4byte	.LASF12
 2247 0098 03       		.uleb128 0x3
 2248 0099 08       		.byte	0x8
 2249 009a 07       		.byte	0x7
 2250 009b E81E0000 		.4byte	.LASF13
 2251 009f 04       		.uleb128 0x4
 2252 00a0 04       		.byte	0x4
 2253 00a1 05       		.byte	0x5
 2254 00a2 696E7400 		.ascii	"int\000"
 2255 00a6 03       		.uleb128 0x3
 2256 00a7 04       		.byte	0x4
 2257 00a8 07       		.byte	0x7
 2258 00a9 69190000 		.4byte	.LASF14
 2259 00ad 02       		.uleb128 0x2
 2260 00ae 09000000 		.4byte	.LASF15
 2261 00b2 06       		.byte	0x6
 2262 00b3 14       		.byte	0x14
 2263 00b4 25000000 		.4byte	0x25
 2264 00b8 02       		.uleb128 0x2
 2265 00b9 68080000 		.4byte	.LASF16
 2266 00bd 06       		.byte	0x6
 2267 00be 18       		.byte	0x18
 2268 00bf 37000000 		.4byte	0x37
 2269 00c3 02       		.uleb128 0x2
 2270 00c4 A4240000 		.4byte	.LASF17
 2271 00c8 06       		.byte	0x6
 2272 00c9 20       		.byte	0x20
 2273 00ca 49000000 		.4byte	0x49
 2274 00ce 02       		.uleb128 0x2
 2275 00cf 881F0000 		.4byte	.LASF18
 2276 00d3 06       		.byte	0x6
 2277 00d4 24       		.byte	0x24
 2278 00d5 5B000000 		.4byte	0x5b
 2279 00d9 02       		.uleb128 0x2
 2280 00da 70010000 		.4byte	.LASF19
 2281 00de 06       		.byte	0x6
 2282 00df 2C       		.byte	0x2c
 2283 00e0 6D000000 		.4byte	0x6d
 2284 00e4 02       		.uleb128 0x2
 2285 00e5 03270000 		.4byte	.LASF20
 2286 00e9 06       		.byte	0x6
 2287 00ea 30       		.byte	0x30
 2288 00eb 7F000000 		.4byte	0x7f
 2289 00ef 02       		.uleb128 0x2
 2290 00f0 6B000000 		.4byte	.LASF21
 2291 00f4 07       		.byte	0x7
 2292 00f5 D8       		.byte	0xd8
 2293 00f6 A6000000 		.4byte	0xa6
 2294 00fa 03       		.uleb128 0x3
ARM GAS  C:\Users\haske\AppData\Local\Temp\cc1ymag8.s 			page 69


 2295 00fb 08       		.byte	0x8
 2296 00fc 04       		.byte	0x4
 2297 00fd 9C1C0000 		.4byte	.LASF22
 2298 0101 02       		.uleb128 0x2
 2299 0102 E6270000 		.4byte	.LASF23
 2300 0106 03       		.byte	0x3
 2301 0107 1B       		.byte	0x1b
 2302 0108 C3000000 		.4byte	0xc3
 2303 010c 05       		.uleb128 0x5
 2304 010d 04       		.byte	0x4
 2305 010e 03       		.byte	0x3
 2306 010f 25       		.byte	0x25
 2307 0110 29010000 		.4byte	0x129
 2308 0114 06       		.uleb128 0x6
 2309 0115 7800     		.ascii	"x\000"
 2310 0117 03       		.byte	0x3
 2311 0118 26       		.byte	0x26
 2312 0119 01010000 		.4byte	0x101
 2313 011d 00       		.byte	0
 2314 011e 06       		.uleb128 0x6
 2315 011f 7900     		.ascii	"y\000"
 2316 0121 03       		.byte	0x3
 2317 0122 27       		.byte	0x27
 2318 0123 01010000 		.4byte	0x101
 2319 0127 02       		.byte	0x2
 2320 0128 00       		.byte	0
 2321 0129 02       		.uleb128 0x2
 2322 012a C6010000 		.4byte	.LASF24
 2323 012e 03       		.byte	0x3
 2324 012f 28       		.byte	0x28
 2325 0130 0C010000 		.4byte	0x10c
 2326 0134 05       		.uleb128 0x5
 2327 0135 08       		.byte	0x8
 2328 0136 03       		.byte	0x3
 2329 0137 2B       		.byte	0x2b
 2330 0138 69010000 		.4byte	0x169
 2331 013c 06       		.uleb128 0x6
 2332 013d 783100   		.ascii	"x1\000"
 2333 0140 03       		.byte	0x3
 2334 0141 2C       		.byte	0x2c
 2335 0142 01010000 		.4byte	0x101
 2336 0146 00       		.byte	0
 2337 0147 06       		.uleb128 0x6
 2338 0148 793100   		.ascii	"y1\000"
 2339 014b 03       		.byte	0x3
 2340 014c 2D       		.byte	0x2d
 2341 014d 01010000 		.4byte	0x101
 2342 0151 02       		.byte	0x2
 2343 0152 06       		.uleb128 0x6
 2344 0153 783200   		.ascii	"x2\000"
 2345 0156 03       		.byte	0x3
 2346 0157 2E       		.byte	0x2e
 2347 0158 01010000 		.4byte	0x101
 2348 015c 04       		.byte	0x4
 2349 015d 06       		.uleb128 0x6
 2350 015e 793200   		.ascii	"y2\000"
 2351 0161 03       		.byte	0x3
ARM GAS  C:\Users\haske\AppData\Local\Temp\cc1ymag8.s 			page 70


 2352 0162 2F       		.byte	0x2f
 2353 0163 01010000 		.4byte	0x101
 2354 0167 06       		.byte	0x6
 2355 0168 00       		.byte	0
 2356 0169 02       		.uleb128 0x2
 2357 016a 33100000 		.4byte	.LASF25
 2358 016e 03       		.byte	0x3
 2359 016f 30       		.byte	0x30
 2360 0170 34010000 		.4byte	0x134
 2361 0174 02       		.uleb128 0x2
 2362 0175 2E0E0000 		.4byte	.LASF26
 2363 0179 03       		.byte	0x3
 2364 017a 59       		.byte	0x59
 2365 017b B8000000 		.4byte	0xb8
 2366 017f 05       		.uleb128 0x5
 2367 0180 10       		.byte	0x10
 2368 0181 08       		.byte	0x8
 2369 0182 29       		.byte	0x29
 2370 0183 EE010000 		.4byte	0x1ee
 2371 0187 07       		.uleb128 0x7
 2372 0188 11140000 		.4byte	.LASF27
 2373 018c 08       		.byte	0x8
 2374 018d 2B       		.byte	0x2b
 2375 018e 76020000 		.4byte	0x276
 2376 0192 00       		.byte	0
 2377 0193 07       		.uleb128 0x7
 2378 0194 72000000 		.4byte	.LASF28
 2379 0198 08       		.byte	0x8
 2380 0199 2C       		.byte	0x2c
 2381 019a CE000000 		.4byte	0xce
 2382 019e 04       		.byte	0x4
 2383 019f 07       		.uleb128 0x7
 2384 01a0 AE230000 		.4byte	.LASF29
 2385 01a4 08       		.byte	0x8
 2386 01a5 2D       		.byte	0x2d
 2387 01a6 CE000000 		.4byte	0xce
 2388 01aa 06       		.byte	0x6
 2389 01ab 07       		.uleb128 0x7
 2390 01ac 61230000 		.4byte	.LASF30
 2391 01b0 08       		.byte	0x8
 2392 01b1 2E       		.byte	0x2e
 2393 01b2 CE000000 		.4byte	0xce
 2394 01b6 08       		.byte	0x8
 2395 01b7 07       		.uleb128 0x7
 2396 01b8 890A0000 		.4byte	.LASF31
 2397 01bc 08       		.byte	0x8
 2398 01bd 2F       		.byte	0x2f
 2399 01be C3000000 		.4byte	0xc3
 2400 01c2 0A       		.byte	0xa
 2401 01c3 07       		.uleb128 0x7
 2402 01c4 8F0A0000 		.4byte	.LASF32
 2403 01c8 08       		.byte	0x8
 2404 01c9 30       		.byte	0x30
 2405 01ca C3000000 		.4byte	0xc3
 2406 01ce 0C       		.byte	0xc
 2407 01cf 08       		.uleb128 0x8
 2408 01d0 62707000 		.ascii	"bpp\000"
ARM GAS  C:\Users\haske\AppData\Local\Temp\cc1ymag8.s 			page 71


 2409 01d4 08       		.byte	0x8
 2410 01d5 31       		.byte	0x31
 2411 01d6 B8000000 		.4byte	0xb8
 2412 01da 01       		.byte	0x1
 2413 01db 04       		.byte	0x4
 2414 01dc 04       		.byte	0x4
 2415 01dd 0E       		.byte	0xe
 2416 01de 09       		.uleb128 0x9
 2417 01df 692A0000 		.4byte	.LASF33
 2418 01e3 08       		.byte	0x8
 2419 01e4 32       		.byte	0x32
 2420 01e5 B8000000 		.4byte	0xb8
 2421 01e9 01       		.byte	0x1
 2422 01ea 01       		.byte	0x1
 2423 01eb 03       		.byte	0x3
 2424 01ec 0E       		.byte	0xe
 2425 01ed 00       		.byte	0
 2426 01ee 0A       		.uleb128 0xa
 2427 01ef 77160000 		.4byte	.LASF182
 2428 01f3 1C       		.byte	0x1c
 2429 01f4 08       		.byte	0x8
 2430 01f5 40       		.byte	0x40
 2431 01f6 76020000 		.4byte	0x276
 2432 01fa 07       		.uleb128 0x7
 2433 01fb 8E280000 		.4byte	.LASF34
 2434 01ff 08       		.byte	0x8
 2435 0200 42       		.byte	0x42
 2436 0201 B7020000 		.4byte	0x2b7
 2437 0205 00       		.byte	0
 2438 0206 07       		.uleb128 0x7
 2439 0207 DA080000 		.4byte	.LASF35
 2440 020b 08       		.byte	0x8
 2441 020c 45       		.byte	0x45
 2442 020d DC020000 		.4byte	0x2dc
 2443 0211 04       		.byte	0x4
 2444 0212 07       		.uleb128 0x7
 2445 0213 07020000 		.4byte	.LASF36
 2446 0217 08       		.byte	0x8
 2447 0218 48       		.byte	0x48
 2448 0219 01010000 		.4byte	0x101
 2449 021d 08       		.byte	0x8
 2450 021e 07       		.uleb128 0x7
 2451 021f BE230000 		.4byte	.LASF37
 2452 0223 08       		.byte	0x8
 2453 0224 49       		.byte	0x49
 2454 0225 01010000 		.4byte	0x101
 2455 0229 0A       		.byte	0xa
 2456 022a 09       		.uleb128 0x9
 2457 022b 031D0000 		.4byte	.LASF38
 2458 022f 08       		.byte	0x8
 2459 0230 4A       		.byte	0x4a
 2460 0231 B8000000 		.4byte	0xb8
 2461 0235 01       		.byte	0x1
 2462 0236 02       		.byte	0x2
 2463 0237 06       		.byte	0x6
 2464 0238 0C       		.byte	0xc
 2465 0239 07       		.uleb128 0x7
ARM GAS  C:\Users\haske\AppData\Local\Temp\cc1ymag8.s 			page 72


 2466 023a 8D0C0000 		.4byte	.LASF39
 2467 023e 08       		.byte	0x8
 2468 023f 4C       		.byte	0x4c
 2469 0240 AD000000 		.4byte	0xad
 2470 0244 0D       		.byte	0xd
 2471 0245 07       		.uleb128 0x7
 2472 0246 14180000 		.4byte	.LASF40
 2473 024a 08       		.byte	0x8
 2474 024b 4D       		.byte	0x4d
 2475 024c AD000000 		.4byte	0xad
 2476 0250 0E       		.byte	0xe
 2477 0251 06       		.uleb128 0x6
 2478 0252 64736300 		.ascii	"dsc\000"
 2479 0256 08       		.byte	0x8
 2480 0257 4F       		.byte	0x4f
 2481 0258 E2020000 		.4byte	0x2e2
 2482 025c 10       		.byte	0x10
 2483 025d 07       		.uleb128 0x7
 2484 025e 9E0F0000 		.4byte	.LASF41
 2485 0262 08       		.byte	0x8
 2486 0263 50       		.byte	0x50
 2487 0264 76020000 		.4byte	0x276
 2488 0268 14       		.byte	0x14
 2489 0269 07       		.uleb128 0x7
 2490 026a 2F280000 		.4byte	.LASF42
 2491 026e 08       		.byte	0x8
 2492 026f 52       		.byte	0x52
 2493 0270 E9020000 		.4byte	0x2e9
 2494 0274 18       		.byte	0x18
 2495 0275 00       		.byte	0
 2496 0276 0B       		.uleb128 0xb
 2497 0277 04       		.byte	0x4
 2498 0278 7C020000 		.4byte	0x27c
 2499 027c 0C       		.uleb128 0xc
 2500 027d EE010000 		.4byte	0x1ee
 2501 0281 02       		.uleb128 0x2
 2502 0282 311B0000 		.4byte	.LASF43
 2503 0286 08       		.byte	0x8
 2504 0287 33       		.byte	0x33
 2505 0288 7F010000 		.4byte	0x17f
 2506 028c 0D       		.uleb128 0xd
 2507 028d AA020000 		.4byte	0x2aa
 2508 0291 AA020000 		.4byte	0x2aa
 2509 0295 0E       		.uleb128 0xe
 2510 0296 76020000 		.4byte	0x276
 2511 029a 0E       		.uleb128 0xe
 2512 029b B1020000 		.4byte	0x2b1
 2513 029f 0E       		.uleb128 0xe
 2514 02a0 E4000000 		.4byte	0xe4
 2515 02a4 0E       		.uleb128 0xe
 2516 02a5 E4000000 		.4byte	0xe4
 2517 02a9 00       		.byte	0
 2518 02aa 03       		.uleb128 0x3
 2519 02ab 01       		.byte	0x1
 2520 02ac 02       		.byte	0x2
 2521 02ad E10A0000 		.4byte	.LASF44
 2522 02b1 0B       		.uleb128 0xb
ARM GAS  C:\Users\haske\AppData\Local\Temp\cc1ymag8.s 			page 73


 2523 02b2 04       		.byte	0x4
 2524 02b3 81020000 		.4byte	0x281
 2525 02b7 0B       		.uleb128 0xb
 2526 02b8 04       		.byte	0x4
 2527 02b9 8C020000 		.4byte	0x28c
 2528 02bd 0D       		.uleb128 0xd
 2529 02be D1020000 		.4byte	0x2d1
 2530 02c2 D1020000 		.4byte	0x2d1
 2531 02c6 0E       		.uleb128 0xe
 2532 02c7 76020000 		.4byte	0x276
 2533 02cb 0E       		.uleb128 0xe
 2534 02cc E4000000 		.4byte	0xe4
 2535 02d0 00       		.byte	0
 2536 02d1 0B       		.uleb128 0xb
 2537 02d2 04       		.byte	0x4
 2538 02d3 D7020000 		.4byte	0x2d7
 2539 02d7 0C       		.uleb128 0xc
 2540 02d8 B8000000 		.4byte	0xb8
 2541 02dc 0B       		.uleb128 0xb
 2542 02dd 04       		.byte	0x4
 2543 02de BD020000 		.4byte	0x2bd
 2544 02e2 0B       		.uleb128 0xb
 2545 02e3 04       		.byte	0x4
 2546 02e4 E8020000 		.4byte	0x2e8
 2547 02e8 0F       		.uleb128 0xf
 2548 02e9 10       		.uleb128 0x10
 2549 02ea 04       		.byte	0x4
 2550 02eb 02       		.uleb128 0x2
 2551 02ec 74270000 		.4byte	.LASF45
 2552 02f0 08       		.byte	0x8
 2553 02f1 54       		.byte	0x54
 2554 02f2 EE010000 		.4byte	0x1ee
 2555 02f6 11       		.uleb128 0x11
 2556 02f7 01       		.byte	0x1
 2557 02f8 42000000 		.4byte	0x42
 2558 02fc 09       		.byte	0x9
 2559 02fd 2A       		.byte	0x2a
 2560 02fe 0F030000 		.4byte	0x30f
 2561 0302 12       		.uleb128 0x12
 2562 0303 38030000 		.4byte	.LASF46
 2563 0307 00       		.byte	0
 2564 0308 12       		.uleb128 0x12
 2565 0309 911F0000 		.4byte	.LASF47
 2566 030d 01       		.byte	0x1
 2567 030e 00       		.byte	0
 2568 030f 02       		.uleb128 0x2
 2569 0310 401C0000 		.4byte	.LASF48
 2570 0314 09       		.byte	0x9
 2571 0315 2F       		.byte	0x2f
 2572 0316 B8000000 		.4byte	0xb8
 2573 031a 03       		.uleb128 0x3
 2574 031b 04       		.byte	0x4
 2575 031c 07       		.byte	0x7
 2576 031d 99000000 		.4byte	.LASF49
 2577 0321 0B       		.uleb128 0xb
 2578 0322 04       		.byte	0x4
 2579 0323 27030000 		.4byte	0x327
ARM GAS  C:\Users\haske\AppData\Local\Temp\cc1ymag8.s 			page 74


 2580 0327 03       		.uleb128 0x3
 2581 0328 01       		.byte	0x1
 2582 0329 08       		.byte	0x8
 2583 032a 460C0000 		.4byte	.LASF50
 2584 032e 05       		.uleb128 0x5
 2585 032f 02       		.byte	0x2
 2586 0330 0A       		.byte	0xa
 2587 0331 D1       		.byte	0xd1
 2588 0332 64030000 		.4byte	0x364
 2589 0336 09       		.uleb128 0x9
 2590 0337 F5080000 		.4byte	.LASF51
 2591 033b 0A       		.byte	0xa
 2592 033c D3       		.byte	0xd3
 2593 033d CE000000 		.4byte	0xce
 2594 0341 02       		.byte	0x2
 2595 0342 05       		.byte	0x5
 2596 0343 0B       		.byte	0xb
 2597 0344 00       		.byte	0
 2598 0345 09       		.uleb128 0x9
 2599 0346 6E270000 		.4byte	.LASF52
 2600 034a 0A       		.byte	0xa
 2601 034b D4       		.byte	0xd4
 2602 034c CE000000 		.4byte	0xce
 2603 0350 02       		.byte	0x2
 2604 0351 06       		.byte	0x6
 2605 0352 05       		.byte	0x5
 2606 0353 00       		.byte	0
 2607 0354 08       		.uleb128 0x8
 2608 0355 72656400 		.ascii	"red\000"
 2609 0359 0A       		.byte	0xa
 2610 035a D5       		.byte	0xd5
 2611 035b CE000000 		.4byte	0xce
 2612 035f 02       		.byte	0x2
 2613 0360 05       		.byte	0x5
 2614 0361 00       		.byte	0
 2615 0362 00       		.byte	0
 2616 0363 00       		.byte	0
 2617 0364 13       		.uleb128 0x13
 2618 0365 02       		.byte	0x2
 2619 0366 0A       		.byte	0xa
 2620 0367 D0       		.byte	0xd0
 2621 0368 82030000 		.4byte	0x382
 2622 036c 14       		.uleb128 0x14
 2623 036d 636800   		.ascii	"ch\000"
 2624 0370 0A       		.byte	0xa
 2625 0371 DC       		.byte	0xdc
 2626 0372 2E030000 		.4byte	0x32e
 2627 0376 15       		.uleb128 0x15
 2628 0377 EF210000 		.4byte	.LASF53
 2629 037b 0A       		.byte	0xa
 2630 037c DD       		.byte	0xdd
 2631 037d CE000000 		.4byte	0xce
 2632 0381 00       		.byte	0
 2633 0382 02       		.uleb128 0x2
 2634 0383 A1230000 		.4byte	.LASF54
 2635 0387 0A       		.byte	0xa
 2636 0388 DE       		.byte	0xde
ARM GAS  C:\Users\haske\AppData\Local\Temp\cc1ymag8.s 			page 75


 2637 0389 64030000 		.4byte	0x364
 2638 038d 02       		.uleb128 0x2
 2639 038e DB1F0000 		.4byte	.LASF55
 2640 0392 0A       		.byte	0xa
 2641 0393 EB       		.byte	0xeb
 2642 0394 82030000 		.4byte	0x382
 2643 0398 02       		.uleb128 0x2
 2644 0399 3D010000 		.4byte	.LASF56
 2645 039d 0A       		.byte	0xa
 2646 039e F5       		.byte	0xf5
 2647 039f B8000000 		.4byte	0xb8
 2648 03a3 11       		.uleb128 0x11
 2649 03a4 01       		.byte	0x1
 2650 03a5 42000000 		.4byte	0x42
 2651 03a9 0B       		.byte	0xb
 2652 03aa 25       		.byte	0x25
 2653 03ab BC030000 		.4byte	0x3bc
 2654 03af 12       		.uleb128 0x12
 2655 03b0 82080000 		.4byte	.LASF57
 2656 03b4 00       		.byte	0
 2657 03b5 12       		.uleb128 0x12
 2658 03b6 F6000000 		.4byte	.LASF58
 2659 03ba 01       		.byte	0x1
 2660 03bb 00       		.byte	0
 2661 03bc 02       		.uleb128 0x2
 2662 03bd 15150000 		.4byte	.LASF59
 2663 03c1 0B       		.byte	0xb
 2664 03c2 28       		.byte	0x28
 2665 03c3 A3030000 		.4byte	0x3a3
 2666 03c7 02       		.uleb128 0x2
 2667 03c8 3F200000 		.4byte	.LASF60
 2668 03cc 0C       		.byte	0xc
 2669 03cd 30       		.byte	0x30
 2670 03ce B8000000 		.4byte	0xb8
 2671 03d2 02       		.uleb128 0x2
 2672 03d3 C6170000 		.4byte	.LASF61
 2673 03d7 0C       		.byte	0xc
 2674 03d8 42       		.byte	0x42
 2675 03d9 B8000000 		.4byte	0xb8
 2676 03dd 11       		.uleb128 0x11
 2677 03de 01       		.byte	0x1
 2678 03df 42000000 		.4byte	0x42
 2679 03e3 0D       		.byte	0xd
 2680 03e4 21       		.byte	0x21
 2681 03e5 08040000 		.4byte	0x408
 2682 03e9 12       		.uleb128 0x12
 2683 03ea 2A290000 		.4byte	.LASF62
 2684 03ee 00       		.byte	0
 2685 03ef 12       		.uleb128 0x12
 2686 03f0 D5060000 		.4byte	.LASF63
 2687 03f4 01       		.byte	0x1
 2688 03f5 12       		.uleb128 0x12
 2689 03f6 1B2A0000 		.4byte	.LASF64
 2690 03fa 02       		.byte	0x2
 2691 03fb 12       		.uleb128 0x12
 2692 03fc D6170000 		.4byte	.LASF65
 2693 0400 20       		.byte	0x20
ARM GAS  C:\Users\haske\AppData\Local\Temp\cc1ymag8.s 			page 76


 2694 0401 12       		.uleb128 0x12
 2695 0402 650A0000 		.4byte	.LASF66
 2696 0406 21       		.byte	0x21
 2697 0407 00       		.byte	0
 2698 0408 02       		.uleb128 0x2
 2699 0409 950A0000 		.4byte	.LASF67
 2700 040d 0D       		.byte	0xd
 2701 040e 2A       		.byte	0x2a
 2702 040f B8000000 		.4byte	0xb8
 2703 0413 02       		.uleb128 0x2
 2704 0414 2D020000 		.4byte	.LASF68
 2705 0418 0E       		.byte	0xe
 2706 0419 5E       		.byte	0x5e
 2707 041a B8000000 		.4byte	0xb8
 2708 041e 02       		.uleb128 0x2
 2709 041f AE160000 		.4byte	.LASF69
 2710 0423 0E       		.byte	0xe
 2711 0424 6A       		.byte	0x6a
 2712 0425 B8000000 		.4byte	0xb8
 2713 0429 02       		.uleb128 0x2
 2714 042a 89220000 		.4byte	.LASF70
 2715 042e 0E       		.byte	0xe
 2716 042f 79       		.byte	0x79
 2717 0430 B8000000 		.4byte	0xb8
 2718 0434 02       		.uleb128 0x2
 2719 0435 C0280000 		.4byte	.LASF71
 2720 0439 0E       		.byte	0xe
 2721 043a 84       		.byte	0x84
 2722 043b B8000000 		.4byte	0xb8
 2723 043f 02       		.uleb128 0x2
 2724 0440 AE1C0000 		.4byte	.LASF72
 2725 0444 0E       		.byte	0xe
 2726 0445 90       		.byte	0x90
 2727 0446 B8000000 		.4byte	0xb8
 2728 044a 05       		.uleb128 0x5
 2729 044b 04       		.byte	0x4
 2730 044c 0E       		.byte	0xe
 2731 044d 95       		.byte	0x95
 2732 044e 6B040000 		.4byte	0x46b
 2733 0452 07       		.uleb128 0x7
 2734 0453 08220000 		.4byte	.LASF73
 2735 0457 0E       		.byte	0xe
 2736 0458 96       		.byte	0x96
 2737 0459 8D030000 		.4byte	0x38d
 2738 045d 00       		.byte	0
 2739 045e 07       		.uleb128 0x7
 2740 045f 9A220000 		.4byte	.LASF74
 2741 0463 0E       		.byte	0xe
 2742 0464 97       		.byte	0x97
 2743 0465 B8000000 		.4byte	0xb8
 2744 0469 02       		.byte	0x2
 2745 046a 00       		.byte	0
 2746 046b 02       		.uleb128 0x2
 2747 046c 7F260000 		.4byte	.LASF75
 2748 0470 0E       		.byte	0xe
 2749 0471 98       		.byte	0x98
 2750 0472 4A040000 		.4byte	0x44a
ARM GAS  C:\Users\haske\AppData\Local\Temp\cc1ymag8.s 			page 77


 2751 0476 05       		.uleb128 0x5
 2752 0477 0A       		.byte	0xa
 2753 0478 0E       		.byte	0xe
 2754 0479 9B       		.byte	0x9b
 2755 047a B5040000 		.4byte	0x4b5
 2756 047e 07       		.uleb128 0x7
 2757 047f 0E220000 		.4byte	.LASF76
 2758 0483 0E       		.byte	0xe
 2759 0484 9C       		.byte	0x9c
 2760 0485 B5040000 		.4byte	0x4b5
 2761 0489 00       		.byte	0
 2762 048a 07       		.uleb128 0x7
 2763 048b 140D0000 		.4byte	.LASF77
 2764 048f 0E       		.byte	0xe
 2765 0490 9D       		.byte	0x9d
 2766 0491 B8000000 		.4byte	0xb8
 2767 0495 08       		.byte	0x8
 2768 0496 08       		.uleb128 0x8
 2769 0497 64697200 		.ascii	"dir\000"
 2770 049b 0E       		.byte	0xe
 2771 049c 9E       		.byte	0x9e
 2772 049d 34040000 		.4byte	0x434
 2773 04a1 01       		.byte	0x1
 2774 04a2 03       		.byte	0x3
 2775 04a3 05       		.byte	0x5
 2776 04a4 09       		.byte	0x9
 2777 04a5 09       		.uleb128 0x9
 2778 04a6 BF270000 		.4byte	.LASF78
 2779 04aa 0E       		.byte	0xe
 2780 04ab A0       		.byte	0xa0
 2781 04ac 3F040000 		.4byte	0x43f
 2782 04b0 01       		.byte	0x1
 2783 04b1 03       		.byte	0x3
 2784 04b2 02       		.byte	0x2
 2785 04b3 09       		.byte	0x9
 2786 04b4 00       		.byte	0
 2787 04b5 16       		.uleb128 0x16
 2788 04b6 6B040000 		.4byte	0x46b
 2789 04ba C5040000 		.4byte	0x4c5
 2790 04be 17       		.uleb128 0x17
 2791 04bf 1A030000 		.4byte	0x31a
 2792 04c3 01       		.byte	0x1
 2793 04c4 00       		.byte	0
 2794 04c5 02       		.uleb128 0x2
 2795 04c6 271F0000 		.4byte	.LASF79
 2796 04ca 0E       		.byte	0xe
 2797 04cb A2       		.byte	0xa2
 2798 04cc 76040000 		.4byte	0x476
 2799 04d0 13       		.uleb128 0x13
 2800 04d1 04       		.byte	0x4
 2801 04d2 0E       		.byte	0xe
 2802 04d3 A7       		.byte	0xa7
 2803 04d4 FA040000 		.4byte	0x4fa
 2804 04d8 14       		.uleb128 0x14
 2805 04d9 6E756D00 		.ascii	"num\000"
 2806 04dd 0E       		.byte	0xe
 2807 04de A8       		.byte	0xa8
ARM GAS  C:\Users\haske\AppData\Local\Temp\cc1ymag8.s 			page 78


 2808 04df D9000000 		.4byte	0xd9
 2809 04e3 14       		.uleb128 0x14
 2810 04e4 70747200 		.ascii	"ptr\000"
 2811 04e8 0E       		.byte	0xe
 2812 04e9 A9       		.byte	0xa9
 2813 04ea E2020000 		.4byte	0x2e2
 2814 04ee 15       		.uleb128 0x15
 2815 04ef 08220000 		.4byte	.LASF73
 2816 04f3 0E       		.byte	0xe
 2817 04f4 AA       		.byte	0xaa
 2818 04f5 8D030000 		.4byte	0x38d
 2819 04f9 00       		.byte	0
 2820 04fa 02       		.uleb128 0x2
 2821 04fb D1190000 		.4byte	.LASF80
 2822 04ff 0E       		.byte	0xe
 2823 0500 AB       		.byte	0xab
 2824 0501 D0040000 		.4byte	0x4d0
 2825 0505 11       		.uleb128 0x11
 2826 0506 02       		.byte	0x2
 2827 0507 66000000 		.4byte	0x66
 2828 050b 0E       		.byte	0xe
 2829 050c B2       		.byte	0xb2
 2830 050d 2A070000 		.4byte	0x72a
 2831 0511 12       		.uleb128 0x12
 2832 0512 EA100000 		.4byte	.LASF81
 2833 0516 00       		.byte	0
 2834 0517 12       		.uleb128 0x12
 2835 0518 FE1F0000 		.4byte	.LASF82
 2836 051c 01       		.byte	0x1
 2837 051d 12       		.uleb128 0x12
 2838 051e 2C200000 		.4byte	.LASF83
 2839 0522 02       		.byte	0x2
 2840 0523 12       		.uleb128 0x12
 2841 0524 CC040000 		.4byte	.LASF84
 2842 0528 03       		.byte	0x3
 2843 0529 12       		.uleb128 0x12
 2844 052a E7020000 		.4byte	.LASF85
 2845 052e 04       		.byte	0x4
 2846 052f 12       		.uleb128 0x12
 2847 0530 21260000 		.4byte	.LASF86
 2848 0534 05       		.byte	0x5
 2849 0535 12       		.uleb128 0x12
 2850 0536 C8220000 		.4byte	.LASF87
 2851 053a 06       		.byte	0x6
 2852 053b 12       		.uleb128 0x12
 2853 053c C4150000 		.4byte	.LASF88
 2854 0540 07       		.byte	0x7
 2855 0541 12       		.uleb128 0x12
 2856 0542 92260000 		.4byte	.LASF89
 2857 0546 08       		.byte	0x8
 2858 0547 12       		.uleb128 0x12
 2859 0548 54090000 		.4byte	.LASF90
 2860 054c 09       		.byte	0x9
 2861 054d 12       		.uleb128 0x12
 2862 054e 211B0000 		.4byte	.LASF91
 2863 0552 0A       		.byte	0xa
 2864 0553 12       		.uleb128 0x12
ARM GAS  C:\Users\haske\AppData\Local\Temp\cc1ymag8.s 			page 79


 2865 0554 A5040000 		.4byte	.LASF92
 2866 0558 0B       		.byte	0xb
 2867 0559 12       		.uleb128 0x12
 2868 055a 0C250000 		.4byte	.LASF93
 2869 055e 10       		.byte	0x10
 2870 055f 12       		.uleb128 0x12
 2871 0560 1B120000 		.4byte	.LASF94
 2872 0564 11       		.byte	0x11
 2873 0565 12       		.uleb128 0x12
 2874 0566 2C150000 		.4byte	.LASF95
 2875 056a 12       		.byte	0x12
 2876 056b 12       		.uleb128 0x12
 2877 056c 87050000 		.4byte	.LASF96
 2878 0570 13       		.byte	0x13
 2879 0571 12       		.uleb128 0x12
 2880 0572 9D140000 		.4byte	.LASF97
 2881 0576 14       		.byte	0x14
 2882 0577 12       		.uleb128 0x12
 2883 0578 F3030000 		.4byte	.LASF98
 2884 057c 15       		.byte	0x15
 2885 057d 12       		.uleb128 0x12
 2886 057e ED0C0000 		.4byte	.LASF99
 2887 0582 16       		.byte	0x16
 2888 0583 12       		.uleb128 0x12
 2889 0584 BE1B0000 		.4byte	.LASF100
 2890 0588 17       		.byte	0x17
 2891 0589 12       		.uleb128 0x12
 2892 058a C20D0000 		.4byte	.LASF101
 2893 058e 20       		.byte	0x20
 2894 058f 12       		.uleb128 0x12
 2895 0590 74120000 		.4byte	.LASF102
 2896 0594 21       		.byte	0x21
 2897 0595 12       		.uleb128 0x12
 2898 0596 30230000 		.4byte	.LASF103
 2899 059a 22       		.byte	0x22
 2900 059b 12       		.uleb128 0x12
 2901 059c C5080000 		.4byte	.LASF104
 2902 05a0 23       		.byte	0x23
 2903 05a1 12       		.uleb128 0x12
 2904 05a2 B5120000 		.4byte	.LASF105
 2905 05a6 24       		.byte	0x24
 2906 05a7 12       		.uleb128 0x12
 2907 05a8 091F0000 		.4byte	.LASF106
 2908 05ac 25       		.byte	0x25
 2909 05ad 12       		.uleb128 0x12
 2910 05ae 462A0000 		.4byte	.LASF107
 2911 05b2 26       		.byte	0x26
 2912 05b3 12       		.uleb128 0x12
 2913 05b4 63040000 		.4byte	.LASF108
 2914 05b8 27       		.byte	0x27
 2915 05b9 12       		.uleb128 0x12
 2916 05ba D9200000 		.4byte	.LASF109
 2917 05be 28       		.byte	0x28
 2918 05bf 12       		.uleb128 0x12
 2919 05c0 5A250000 		.4byte	.LASF110
 2920 05c4 29       		.byte	0x29
 2921 05c5 12       		.uleb128 0x12
ARM GAS  C:\Users\haske\AppData\Local\Temp\cc1ymag8.s 			page 80


 2922 05c6 E7040000 		.4byte	.LASF111
 2923 05ca 2A       		.byte	0x2a
 2924 05cb 12       		.uleb128 0x12
 2925 05cc 47060000 		.4byte	.LASF112
 2926 05d0 2B       		.byte	0x2b
 2927 05d1 12       		.uleb128 0x12
 2928 05d2 2C070000 		.4byte	.LASF113
 2929 05d6 2C       		.byte	0x2c
 2930 05d7 12       		.uleb128 0x12
 2931 05d8 251E0000 		.4byte	.LASF114
 2932 05dc 30       		.byte	0x30
 2933 05dd 12       		.uleb128 0x12
 2934 05de 6C070000 		.4byte	.LASF115
 2935 05e2 31       		.byte	0x31
 2936 05e3 12       		.uleb128 0x12
 2937 05e4 C6030000 		.4byte	.LASF116
 2938 05e8 32       		.byte	0x32
 2939 05e9 12       		.uleb128 0x12
 2940 05ea CA0E0000 		.4byte	.LASF117
 2941 05ee 33       		.byte	0x33
 2942 05ef 12       		.uleb128 0x12
 2943 05f0 58260000 		.4byte	.LASF118
 2944 05f4 34       		.byte	0x34
 2945 05f5 12       		.uleb128 0x12
 2946 05f6 48100000 		.4byte	.LASF119
 2947 05fa 35       		.byte	0x35
 2948 05fb 12       		.uleb128 0x12
 2949 05fc 18280000 		.4byte	.LASF120
 2950 0600 36       		.byte	0x36
 2951 0601 12       		.uleb128 0x12
 2952 0602 FF0C0000 		.4byte	.LASF121
 2953 0606 37       		.byte	0x37
 2954 0607 12       		.uleb128 0x12
 2955 0608 C32A0000 		.4byte	.LASF122
 2956 060c 38       		.byte	0x38
 2957 060d 12       		.uleb128 0x12
 2958 060e 7C1B0000 		.4byte	.LASF123
 2959 0612 40       		.byte	0x40
 2960 0613 12       		.uleb128 0x12
 2961 0614 7B200000 		.4byte	.LASF124
 2962 0618 41       		.byte	0x41
 2963 0619 12       		.uleb128 0x12
 2964 061a 91200000 		.4byte	.LASF125
 2965 061e 42       		.byte	0x42
 2966 061f 12       		.uleb128 0x12
 2967 0620 5D280000 		.4byte	.LASF126
 2968 0624 43       		.byte	0x43
 2969 0625 12       		.uleb128 0x12
 2970 0626 07080000 		.4byte	.LASF127
 2971 062a 44       		.byte	0x44
 2972 062b 12       		.uleb128 0x12
 2973 062c FF040000 		.4byte	.LASF128
 2974 0630 45       		.byte	0x45
 2975 0631 12       		.uleb128 0x12
 2976 0632 00130000 		.4byte	.LASF129
 2977 0636 46       		.byte	0x46
 2978 0637 12       		.uleb128 0x12
ARM GAS  C:\Users\haske\AppData\Local\Temp\cc1ymag8.s 			page 81


 2979 0638 470A0000 		.4byte	.LASF130
 2980 063c 47       		.byte	0x47
 2981 063d 12       		.uleb128 0x12
 2982 063e D40D0000 		.4byte	.LASF131
 2983 0642 48       		.byte	0x48
 2984 0643 12       		.uleb128 0x12
 2985 0644 6E250000 		.4byte	.LASF132
 2986 0648 49       		.byte	0x49
 2987 0649 12       		.uleb128 0x12
 2988 064a E80E0000 		.4byte	.LASF133
 2989 064e 4A       		.byte	0x4a
 2990 064f 12       		.uleb128 0x12
 2991 0650 DF000000 		.4byte	.LASF134
 2992 0654 4B       		.byte	0x4b
 2993 0655 12       		.uleb128 0x12
 2994 0656 9D260000 		.4byte	.LASF135
 2995 065a 4C       		.byte	0x4c
 2996 065b 12       		.uleb128 0x12
 2997 065c 76140000 		.4byte	.LASF136
 2998 0660 4D       		.byte	0x4d
 2999 0661 12       		.uleb128 0x12
 3000 0662 84120000 		.4byte	.LASF137
 3001 0666 4E       		.byte	0x4e
 3002 0667 12       		.uleb128 0x12
 3003 0668 760A0000 		.4byte	.LASF138
 3004 066c 50       		.byte	0x50
 3005 066d 12       		.uleb128 0x12
 3006 066e 58180000 		.4byte	.LASF139
 3007 0672 51       		.byte	0x51
 3008 0673 12       		.uleb128 0x12
 3009 0674 82240000 		.4byte	.LASF140
 3010 0678 52       		.byte	0x52
 3011 0679 12       		.uleb128 0x12
 3012 067a 46010000 		.4byte	.LASF141
 3013 067e 53       		.byte	0x53
 3014 067f 12       		.uleb128 0x12
 3015 0680 0A210000 		.4byte	.LASF142
 3016 0684 54       		.byte	0x54
 3017 0685 12       		.uleb128 0x12
 3018 0686 F7180000 		.4byte	.LASF143
 3019 068a 55       		.byte	0x55
 3020 068b 12       		.uleb128 0x12
 3021 068c 86130000 		.4byte	.LASF144
 3022 0690 56       		.byte	0x56
 3023 0691 12       		.uleb128 0x12
 3024 0692 77210000 		.4byte	.LASF145
 3025 0696 57       		.byte	0x57
 3026 0697 12       		.uleb128 0x12
 3027 0698 312B0000 		.4byte	.LASF146
 3028 069c 58       		.byte	0x58
 3029 069d 12       		.uleb128 0x12
 3030 069e FC100000 		.4byte	.LASF147
 3031 06a2 59       		.byte	0x59
 3032 06a3 12       		.uleb128 0x12
 3033 06a4 28180000 		.4byte	.LASF148
 3034 06a8 5A       		.byte	0x5a
 3035 06a9 12       		.uleb128 0x12
ARM GAS  C:\Users\haske\AppData\Local\Temp\cc1ymag8.s 			page 82


 3036 06aa 24160000 		.4byte	.LASF149
 3037 06ae 5B       		.byte	0x5b
 3038 06af 12       		.uleb128 0x12
 3039 06b0 1C000000 		.4byte	.LASF150
 3040 06b4 60       		.byte	0x60
 3041 06b5 12       		.uleb128 0x12
 3042 06b6 AC170000 		.4byte	.LASF151
 3043 06ba 61       		.byte	0x61
 3044 06bb 12       		.uleb128 0x12
 3045 06bc 541C0000 		.4byte	.LASF152
 3046 06c0 62       		.byte	0x62
 3047 06c1 12       		.uleb128 0x12
 3048 06c2 B6150000 		.4byte	.LASF153
 3049 06c6 63       		.byte	0x63
 3050 06c7 12       		.uleb128 0x12
 3051 06c8 EF110000 		.4byte	.LASF154
 3052 06cc 64       		.byte	0x64
 3053 06cd 12       		.uleb128 0x12
 3054 06ce 05100000 		.4byte	.LASF155
 3055 06d2 65       		.byte	0x65
 3056 06d3 12       		.uleb128 0x12
 3057 06d4 FD050000 		.4byte	.LASF156
 3058 06d8 66       		.byte	0x66
 3059 06d9 12       		.uleb128 0x12
 3060 06da 1A0E0000 		.4byte	.LASF157
 3061 06de 67       		.byte	0x67
 3062 06df 12       		.uleb128 0x12
 3063 06e0 360F0000 		.4byte	.LASF158
 3064 06e4 68       		.byte	0x68
 3065 06e5 12       		.uleb128 0x12
 3066 06e6 35050000 		.4byte	.LASF159
 3067 06ea 69       		.byte	0x69
 3068 06eb 12       		.uleb128 0x12
 3069 06ec 100B0000 		.4byte	.LASF160
 3070 06f0 6A       		.byte	0x6a
 3071 06f1 12       		.uleb128 0x12
 3072 06f2 250B0000 		.4byte	.LASF161
 3073 06f6 6B       		.byte	0x6b
 3074 06f7 12       		.uleb128 0x12
 3075 06f8 11130000 		.4byte	.LASF162
 3076 06fc 6C       		.byte	0x6c
 3077 06fd 12       		.uleb128 0x12
 3078 06fe 5B170000 		.4byte	.LASF163
 3079 0702 6D       		.byte	0x6d
 3080 0703 12       		.uleb128 0x12
 3081 0704 EE090000 		.4byte	.LASF164
 3082 0708 6E       		.byte	0x6e
 3083 0709 12       		.uleb128 0x12
 3084 070a 090A0000 		.4byte	.LASF165
 3085 070e 6F       		.byte	0x6f
 3086 070f 12       		.uleb128 0x12
 3087 0710 63030000 		.4byte	.LASF166
 3088 0714 6F       		.byte	0x6f
 3089 0715 12       		.uleb128 0x12
 3090 0716 DA240000 		.4byte	.LASF167
 3091 071a 70       		.byte	0x70
 3092 071b 18       		.uleb128 0x18
ARM GAS  C:\Users\haske\AppData\Local\Temp\cc1ymag8.s 			page 83


 3093 071c C6210000 		.4byte	.LASF168
 3094 0720 FFFF     		.2byte	0xffff
 3095 0722 18       		.uleb128 0x18
 3096 0723 3C1A0000 		.4byte	.LASF169
 3097 0727 FFFF     		.2byte	0xffff
 3098 0729 00       		.byte	0
 3099 072a 19       		.uleb128 0x19
 3100 072b 620F0000 		.4byte	.LASF170
 3101 072f 0E       		.byte	0xe
 3102 0730 1C01     		.2byte	0x11c
 3103 0732 05050000 		.4byte	0x505
 3104 0736 1A       		.uleb128 0x1a
 3105 0737 08       		.byte	0x8
 3106 0738 0E       		.byte	0xe
 3107 0739 3601     		.2byte	0x136
 3108 073b 5A070000 		.4byte	0x75a
 3109 073f 1B       		.uleb128 0x1b
 3110 0740 4E0E0000 		.4byte	.LASF171
 3111 0744 0E       		.byte	0xe
 3112 0745 3701     		.2byte	0x137
 3113 0747 2A070000 		.4byte	0x72a
 3114 074b 00       		.byte	0
 3115 074c 1B       		.uleb128 0x1b
 3116 074d E30B0000 		.4byte	.LASF172
 3117 0751 0E       		.byte	0xe
 3118 0752 3801     		.2byte	0x138
 3119 0754 FA040000 		.4byte	0x4fa
 3120 0758 04       		.byte	0x4
 3121 0759 00       		.byte	0
 3122 075a 19       		.uleb128 0x19
 3123 075b 24110000 		.4byte	.LASF173
 3124 075f 0E       		.byte	0xe
 3125 0760 3901     		.2byte	0x139
 3126 0762 36070000 		.4byte	0x736
 3127 0766 1C       		.uleb128 0x1c
 3128 0767 04       		.byte	0x4
 3129 0768 0E       		.byte	0xe
 3130 0769 4601     		.2byte	0x146
 3131 076b 94070000 		.4byte	0x794
 3132 076f 1D       		.uleb128 0x1d
 3133 0770 1F210000 		.4byte	.LASF174
 3134 0774 0E       		.byte	0xe
 3135 0775 4701     		.2byte	0x147
 3136 0777 FA040000 		.4byte	0x4fa
 3137 077b 1D       		.uleb128 0x1d
 3138 077c A70F0000 		.4byte	.LASF175
 3139 0780 0E       		.byte	0xe
 3140 0781 4801     		.2byte	0x148
 3141 0783 94070000 		.4byte	0x794
 3142 0787 1D       		.uleb128 0x1d
 3143 0788 5F0E0000 		.4byte	.LASF176
 3144 078c 0E       		.byte	0xe
 3145 078d 4901     		.2byte	0x149
 3146 078f 9A070000 		.4byte	0x79a
 3147 0793 00       		.byte	0
 3148 0794 0B       		.uleb128 0xb
 3149 0795 04       		.byte	0x4
ARM GAS  C:\Users\haske\AppData\Local\Temp\cc1ymag8.s 			page 84


 3150 0796 B8000000 		.4byte	0xb8
 3151 079a 0B       		.uleb128 0xb
 3152 079b 04       		.byte	0x4
 3153 079c A0070000 		.4byte	0x7a0
 3154 07a0 0C       		.uleb128 0xc
 3155 07a1 5A070000 		.4byte	0x75a
 3156 07a5 1A       		.uleb128 0x1a
 3157 07a6 08       		.byte	0x8
 3158 07a7 0E       		.byte	0xe
 3159 07a8 3E01     		.2byte	0x13e
 3160 07aa E3070000 		.4byte	0x7e3
 3161 07ae 1E       		.uleb128 0x1e
 3162 07af 765F7000 		.ascii	"v_p\000"
 3163 07b3 0E       		.byte	0xe
 3164 07b4 4A01     		.2byte	0x14a
 3165 07b6 66070000 		.4byte	0x766
 3166 07ba 00       		.byte	0
 3167 07bb 1B       		.uleb128 0x1b
 3168 07bc E3250000 		.4byte	.LASF177
 3169 07c0 0E       		.byte	0xe
 3170 07c1 4C01     		.2byte	0x14c
 3171 07c3 CE000000 		.4byte	0xce
 3172 07c7 04       		.byte	0x4
 3173 07c8 1B       		.uleb128 0x1b
 3174 07c9 97010000 		.4byte	.LASF178
 3175 07cd 0E       		.byte	0xe
 3176 07ce 4D01     		.2byte	0x14d
 3177 07d0 B8000000 		.4byte	0xb8
 3178 07d4 06       		.byte	0x6
 3179 07d5 1B       		.uleb128 0x1b
 3180 07d6 00000000 		.4byte	.LASF179
 3181 07da 0E       		.byte	0xe
 3182 07db 4E01     		.2byte	0x14e
 3183 07dd B8000000 		.4byte	0xb8
 3184 07e1 07       		.byte	0x7
 3185 07e2 00       		.byte	0
 3186 07e3 19       		.uleb128 0x19
 3187 07e4 96120000 		.4byte	.LASF180
 3188 07e8 0E       		.byte	0xe
 3189 07e9 4F01     		.2byte	0x14f
 3190 07eb A5070000 		.4byte	0x7a5
 3191 07ef 02       		.uleb128 0x2
 3192 07f0 5E130000 		.4byte	.LASF181
 3193 07f4 0F       		.byte	0xf
 3194 07f5 69       		.byte	0x69
 3195 07f6 B8000000 		.4byte	0xb8
 3196 07fa 0B       		.uleb128 0xb
 3197 07fb 04       		.byte	0x4
 3198 07fc 00080000 		.4byte	0x800
 3199 0800 0A       		.uleb128 0xa
 3200 0801 9F220000 		.4byte	.LASF183
 3201 0805 24       		.byte	0x24
 3202 0806 10       		.byte	0x10
 3203 0807 AE       		.byte	0xae
 3204 0808 C7080000 		.4byte	0x8c7
 3205 080c 07       		.uleb128 0x7
 3206 080d 2D190000 		.4byte	.LASF184
ARM GAS  C:\Users\haske\AppData\Local\Temp\cc1ymag8.s 			page 85


 3207 0811 10       		.byte	0x10
 3208 0812 AF       		.byte	0xaf
 3209 0813 73210000 		.4byte	0x2173
 3210 0817 00       		.byte	0
 3211 0818 07       		.uleb128 0x7
 3212 0819 70110000 		.4byte	.LASF185
 3213 081d 10       		.byte	0x10
 3214 081e B0       		.byte	0xb0
 3215 081f FA070000 		.4byte	0x7fa
 3216 0823 04       		.byte	0x4
 3217 0824 07       		.uleb128 0x7
 3218 0825 7C020000 		.4byte	.LASF186
 3219 0829 10       		.byte	0x10
 3220 082a B1       		.byte	0xb1
 3221 082b 7E210000 		.4byte	0x217e
 3222 082f 08       		.byte	0x8
 3223 0830 07       		.uleb128 0x7
 3224 0831 E8120000 		.4byte	.LASF187
 3225 0835 10       		.byte	0x10
 3226 0836 B2       		.byte	0xb2
 3227 0837 84210000 		.4byte	0x2184
 3228 083b 0C       		.byte	0xc
 3229 083c 07       		.uleb128 0x7
 3230 083d 2F280000 		.4byte	.LASF42
 3231 0841 10       		.byte	0x10
 3232 0842 B4       		.byte	0xb4
 3233 0843 E9020000 		.4byte	0x2e9
 3234 0847 10       		.byte	0x10
 3235 0848 07       		.uleb128 0x7
 3236 0849 C5240000 		.4byte	.LASF188
 3237 084d 10       		.byte	0x10
 3238 084e B6       		.byte	0xb6
 3239 084f 69010000 		.4byte	0x169
 3240 0853 14       		.byte	0x14
 3241 0854 07       		.uleb128 0x7
 3242 0855 E90B0000 		.4byte	.LASF189
 3243 0859 10       		.byte	0x10
 3244 085a B7       		.byte	0xb7
 3245 085b 831B0000 		.4byte	0x1b83
 3246 085f 1C       		.byte	0x1c
 3247 0860 07       		.uleb128 0x7
 3248 0861 E1020000 		.4byte	.LASF190
 3249 0865 10       		.byte	0x10
 3250 0866 B8       		.byte	0xb8
 3251 0867 2C1A0000 		.4byte	0x1a2c
 3252 086b 20       		.byte	0x20
 3253 086c 09       		.uleb128 0x9
 3254 086d 45080000 		.4byte	.LASF191
 3255 0871 10       		.byte	0x10
 3256 0872 B9       		.byte	0xb9
 3257 0873 CE000000 		.4byte	0xce
 3258 0877 02       		.byte	0x2
 3259 0878 01       		.byte	0x1
 3260 0879 0F       		.byte	0xf
 3261 087a 22       		.byte	0x22
 3262 087b 09       		.uleb128 0x9
 3263 087c BD040000 		.4byte	.LASF192
ARM GAS  C:\Users\haske\AppData\Local\Temp\cc1ymag8.s 			page 86


 3264 0880 10       		.byte	0x10
 3265 0881 BA       		.byte	0xba
 3266 0882 CE000000 		.4byte	0xce
 3267 0886 02       		.byte	0x2
 3268 0887 01       		.byte	0x1
 3269 0888 0E       		.byte	0xe
 3270 0889 22       		.byte	0x22
 3271 088a 09       		.uleb128 0x9
 3272 088b 96180000 		.4byte	.LASF193
 3273 088f 10       		.byte	0x10
 3274 0890 BB       		.byte	0xbb
 3275 0891 CE000000 		.4byte	0xce
 3276 0895 02       		.byte	0x2
 3277 0896 01       		.byte	0x1
 3278 0897 0D       		.byte	0xd
 3279 0898 22       		.byte	0x22
 3280 0899 09       		.uleb128 0x9
 3281 089a 3B080000 		.4byte	.LASF194
 3282 089e 10       		.byte	0x10
 3283 089f BC       		.byte	0xbc
 3284 08a0 CE000000 		.4byte	0xce
 3285 08a4 02       		.byte	0x2
 3286 08a5 06       		.byte	0x6
 3287 08a6 07       		.byte	0x7
 3288 08a7 22       		.byte	0x22
 3289 08a8 09       		.uleb128 0x9
 3290 08a9 CA0A0000 		.4byte	.LASF195
 3291 08ad 10       		.byte	0x10
 3292 08ae BD       		.byte	0xbd
 3293 08af CE000000 		.4byte	0xce
 3294 08b3 02       		.byte	0x2
 3295 08b4 01       		.byte	0x1
 3296 08b5 06       		.byte	0x6
 3297 08b6 22       		.byte	0x22
 3298 08b7 09       		.uleb128 0x9
 3299 08b8 91040000 		.4byte	.LASF196
 3300 08bc 10       		.byte	0x10
 3301 08bd BE       		.byte	0xbe
 3302 08be CE000000 		.4byte	0xce
 3303 08c2 02       		.byte	0x2
 3304 08c3 01       		.byte	0x1
 3305 08c4 05       		.byte	0x5
 3306 08c5 22       		.byte	0x22
 3307 08c6 00       		.byte	0
 3308 08c7 0B       		.uleb128 0xb
 3309 08c8 04       		.byte	0x4
 3310 08c9 8D030000 		.4byte	0x38d
 3311 08cd 05       		.uleb128 0x5
 3312 08ce 38       		.byte	0x38
 3313 08cf 11       		.byte	0x11
 3314 08d0 20       		.byte	0x20
 3315 08d1 140A0000 		.4byte	0xa14
 3316 08d5 07       		.uleb128 0x7
 3317 08d6 F7010000 		.4byte	.LASF197
 3318 08da 11       		.byte	0x11
 3319 08db 21       		.byte	0x21
 3320 08dc 01010000 		.4byte	0x101
ARM GAS  C:\Users\haske\AppData\Local\Temp\cc1ymag8.s 			page 87


 3321 08e0 00       		.byte	0
 3322 08e1 07       		.uleb128 0x7
 3323 08e2 9A040000 		.4byte	.LASF198
 3324 08e6 11       		.byte	0x11
 3325 08e7 22       		.byte	0x22
 3326 08e8 13040000 		.4byte	0x413
 3327 08ec 02       		.byte	0x2
 3328 08ed 07       		.uleb128 0x7
 3329 08ee 75060000 		.4byte	.LASF199
 3330 08f2 11       		.byte	0x11
 3331 08f3 25       		.byte	0x25
 3332 08f4 98030000 		.4byte	0x398
 3333 08f8 03       		.byte	0x3
 3334 08f9 07       		.uleb128 0x7
 3335 08fa FE010000 		.4byte	.LASF200
 3336 08fe 11       		.byte	0x11
 3337 08ff 26       		.byte	0x26
 3338 0900 8D030000 		.4byte	0x38d
 3339 0904 04       		.byte	0x4
 3340 0905 07       		.uleb128 0x7
 3341 0906 35260000 		.4byte	.LASF201
 3342 090a 11       		.byte	0x11
 3343 090b 27       		.byte	0x27
 3344 090c C5040000 		.4byte	0x4c5
 3345 0910 06       		.byte	0x6
 3346 0911 07       		.uleb128 0x7
 3347 0912 BB030000 		.4byte	.LASF202
 3348 0916 11       		.byte	0x11
 3349 0917 2A       		.byte	0x2a
 3350 0918 E2020000 		.4byte	0x2e2
 3351 091c 10       		.byte	0x10
 3352 091d 07       		.uleb128 0x7
 3353 091e F1290000 		.4byte	.LASF203
 3354 0922 11       		.byte	0x11
 3355 0923 2B       		.byte	0x2b
 3356 0924 E2020000 		.4byte	0x2e2
 3357 0928 14       		.byte	0x14
 3358 0929 07       		.uleb128 0x7
 3359 092a 92230000 		.4byte	.LASF204
 3360 092e 11       		.byte	0x11
 3361 092f 2C       		.byte	0x2c
 3362 0930 8D030000 		.4byte	0x38d
 3363 0934 18       		.byte	0x18
 3364 0935 07       		.uleb128 0x7
 3365 0936 13090000 		.4byte	.LASF205
 3366 093a 11       		.byte	0x11
 3367 093b 2D       		.byte	0x2d
 3368 093c 98030000 		.4byte	0x398
 3369 0940 1A       		.byte	0x1a
 3370 0941 07       		.uleb128 0x7
 3371 0942 481D0000 		.4byte	.LASF206
 3372 0946 11       		.byte	0x11
 3373 0947 2E       		.byte	0x2e
 3374 0948 98030000 		.4byte	0x398
 3375 094c 1B       		.byte	0x1b
 3376 094d 07       		.uleb128 0x7
 3377 094e B8080000 		.4byte	.LASF207
ARM GAS  C:\Users\haske\AppData\Local\Temp\cc1ymag8.s 			page 88


 3378 0952 11       		.byte	0x11
 3379 0953 2F       		.byte	0x2f
 3380 0954 B8000000 		.4byte	0xb8
 3381 0958 1C       		.byte	0x1c
 3382 0959 07       		.uleb128 0x7
 3383 095a 0D0E0000 		.4byte	.LASF208
 3384 095e 11       		.byte	0x11
 3385 095f 32       		.byte	0x32
 3386 0960 8D030000 		.4byte	0x38d
 3387 0964 1E       		.byte	0x1e
 3388 0965 07       		.uleb128 0x7
 3389 0966 1F200000 		.4byte	.LASF209
 3390 096a 11       		.byte	0x11
 3391 096b 33       		.byte	0x33
 3392 096c 01010000 		.4byte	0x101
 3393 0970 20       		.byte	0x20
 3394 0971 07       		.uleb128 0x7
 3395 0972 16260000 		.4byte	.LASF210
 3396 0976 11       		.byte	0x11
 3397 0977 34       		.byte	0x34
 3398 0978 98030000 		.4byte	0x398
 3399 097c 22       		.byte	0x22
 3400 097d 09       		.uleb128 0x9
 3401 097e B40E0000 		.4byte	.LASF211
 3402 0982 11       		.byte	0x11
 3403 0983 35       		.byte	0x35
 3404 0984 B8000000 		.4byte	0xb8
 3405 0988 01       		.byte	0x1
 3406 0989 01       		.byte	0x1
 3407 098a 07       		.byte	0x7
 3408 098b 23       		.byte	0x23
 3409 098c 09       		.uleb128 0x9
 3410 098d 7B040000 		.4byte	.LASF212
 3411 0991 11       		.byte	0x11
 3412 0992 36       		.byte	0x36
 3413 0993 29040000 		.4byte	0x429
 3414 0997 01       		.byte	0x1
 3415 0998 05       		.byte	0x5
 3416 0999 02       		.byte	0x2
 3417 099a 23       		.byte	0x23
 3418 099b 07       		.uleb128 0x7
 3419 099c F9070000 		.4byte	.LASF213
 3420 09a0 11       		.byte	0x11
 3421 09a1 39       		.byte	0x39
 3422 09a2 8D030000 		.4byte	0x38d
 3423 09a6 24       		.byte	0x24
 3424 09a7 07       		.uleb128 0x7
 3425 09a8 6E1B0000 		.4byte	.LASF214
 3426 09ac 11       		.byte	0x11
 3427 09ad 3A       		.byte	0x3a
 3428 09ae 01010000 		.4byte	0x101
 3429 09b2 26       		.byte	0x26
 3430 09b3 07       		.uleb128 0x7
 3431 09b4 980D0000 		.4byte	.LASF215
 3432 09b8 11       		.byte	0x11
 3433 09b9 3B       		.byte	0x3b
 3434 09ba 01010000 		.4byte	0x101
ARM GAS  C:\Users\haske\AppData\Local\Temp\cc1ymag8.s 			page 89


 3435 09be 28       		.byte	0x28
 3436 09bf 07       		.uleb128 0x7
 3437 09c0 971A0000 		.4byte	.LASF216
 3438 09c4 11       		.byte	0x11
 3439 09c5 3C       		.byte	0x3c
 3440 09c6 98030000 		.4byte	0x398
 3441 09ca 2A       		.byte	0x2a
 3442 09cb 07       		.uleb128 0x7
 3443 09cc D8160000 		.4byte	.LASF217
 3444 09d0 11       		.byte	0x11
 3445 09d1 3F       		.byte	0x3f
 3446 09d2 8D030000 		.4byte	0x38d
 3447 09d6 2C       		.byte	0x2c
 3448 09d7 07       		.uleb128 0x7
 3449 09d8 58270000 		.4byte	.LASF218
 3450 09dc 11       		.byte	0x11
 3451 09dd 40       		.byte	0x40
 3452 09de 01010000 		.4byte	0x101
 3453 09e2 2E       		.byte	0x2e
 3454 09e3 07       		.uleb128 0x7
 3455 09e4 290F0000 		.4byte	.LASF219
 3456 09e8 11       		.byte	0x11
 3457 09e9 41       		.byte	0x41
 3458 09ea 01010000 		.4byte	0x101
 3459 09ee 30       		.byte	0x30
 3460 09ef 07       		.uleb128 0x7
 3461 09f0 042A0000 		.4byte	.LASF220
 3462 09f4 11       		.byte	0x11
 3463 09f5 42       		.byte	0x42
 3464 09f6 01010000 		.4byte	0x101
 3465 09fa 32       		.byte	0x32
 3466 09fb 07       		.uleb128 0x7
 3467 09fc E1110000 		.4byte	.LASF221
 3468 0a00 11       		.byte	0x11
 3469 0a01 43       		.byte	0x43
 3470 0a02 01010000 		.4byte	0x101
 3471 0a06 34       		.byte	0x34
 3472 0a07 07       		.uleb128 0x7
 3473 0a08 77240000 		.4byte	.LASF222
 3474 0a0c 11       		.byte	0x11
 3475 0a0d 44       		.byte	0x44
 3476 0a0e 98030000 		.4byte	0x398
 3477 0a12 36       		.byte	0x36
 3478 0a13 00       		.byte	0
 3479 0a14 02       		.uleb128 0x2
 3480 0a15 591F0000 		.4byte	.LASF223
 3481 0a19 11       		.byte	0x11
 3482 0a1a 45       		.byte	0x45
 3483 0a1b CD080000 		.4byte	0x8cd
 3484 0a1f 05       		.uleb128 0x5
 3485 0a20 20       		.byte	0x20
 3486 0a21 12       		.byte	0x12
 3487 0a22 1E       		.byte	0x1e
 3488 0a23 EE0A0000 		.4byte	0xaee
 3489 0a27 07       		.uleb128 0x7
 3490 0a28 A9220000 		.4byte	.LASF224
 3491 0a2c 12       		.byte	0x12
ARM GAS  C:\Users\haske\AppData\Local\Temp\cc1ymag8.s 			page 90


 3492 0a2d 1F       		.byte	0x1f
 3493 0a2e EE0A0000 		.4byte	0xaee
 3494 0a32 00       		.byte	0
 3495 0a33 07       		.uleb128 0x7
 3496 0a34 E6260000 		.4byte	.LASF225
 3497 0a38 12       		.byte	0x12
 3498 0a39 20       		.byte	0x20
 3499 0a3a E4000000 		.4byte	0xe4
 3500 0a3e 04       		.byte	0x4
 3501 0a3f 07       		.uleb128 0x7
 3502 0a40 341A0000 		.4byte	.LASF226
 3503 0a44 12       		.byte	0x12
 3504 0a45 21       		.byte	0x21
 3505 0a46 E4000000 		.4byte	0xe4
 3506 0a4a 08       		.byte	0x8
 3507 0a4b 07       		.uleb128 0x7
 3508 0a4c 08220000 		.4byte	.LASF73
 3509 0a50 12       		.byte	0x12
 3510 0a51 22       		.byte	0x22
 3511 0a52 8D030000 		.4byte	0x38d
 3512 0a56 0C       		.byte	0xc
 3513 0a57 07       		.uleb128 0x7
 3514 0a58 AE290000 		.4byte	.LASF227
 3515 0a5c 12       		.byte	0x12
 3516 0a5d 23       		.byte	0x23
 3517 0a5e 8D030000 		.4byte	0x38d
 3518 0a62 0E       		.byte	0xe
 3519 0a63 07       		.uleb128 0x7
 3520 0a64 BE060000 		.4byte	.LASF228
 3521 0a68 12       		.byte	0x12
 3522 0a69 24       		.byte	0x24
 3523 0a6a 8D030000 		.4byte	0x38d
 3524 0a6e 10       		.byte	0x10
 3525 0a6f 07       		.uleb128 0x7
 3526 0a70 1D220000 		.4byte	.LASF229
 3527 0a74 12       		.byte	0x12
 3528 0a75 25       		.byte	0x25
 3529 0a76 01010000 		.4byte	0x101
 3530 0a7a 12       		.byte	0x12
 3531 0a7b 07       		.uleb128 0x7
 3532 0a7c AE220000 		.4byte	.LASF230
 3533 0a80 12       		.byte	0x12
 3534 0a81 26       		.byte	0x26
 3535 0a82 01010000 		.4byte	0x101
 3536 0a86 14       		.byte	0x14
 3537 0a87 07       		.uleb128 0x7
 3538 0a88 890A0000 		.4byte	.LASF31
 3539 0a8c 12       		.byte	0x12
 3540 0a8d 27       		.byte	0x27
 3541 0a8e 01010000 		.4byte	0x101
 3542 0a92 16       		.byte	0x16
 3543 0a93 07       		.uleb128 0x7
 3544 0a94 8F0A0000 		.4byte	.LASF32
 3545 0a98 12       		.byte	0x12
 3546 0a99 28       		.byte	0x28
 3547 0a9a 01010000 		.4byte	0x101
 3548 0a9e 18       		.byte	0x18
ARM GAS  C:\Users\haske\AppData\Local\Temp\cc1ymag8.s 			page 91


 3549 0a9f 06       		.uleb128 0x6
 3550 0aa0 6F706100 		.ascii	"opa\000"
 3551 0aa4 12       		.byte	0x12
 3552 0aa5 29       		.byte	0x29
 3553 0aa6 98030000 		.4byte	0x398
 3554 0aaa 1A       		.byte	0x1a
 3555 0aab 07       		.uleb128 0x7
 3556 0aac 3D020000 		.4byte	.LASF231
 3557 0ab0 12       		.byte	0x12
 3558 0ab1 2A       		.byte	0x2a
 3559 0ab2 08040000 		.4byte	0x408
 3560 0ab6 1B       		.byte	0x1b
 3561 0ab7 07       		.uleb128 0x7
 3562 0ab8 52180000 		.4byte	.LASF232
 3563 0abc 12       		.byte	0x12
 3564 0abd 2B       		.byte	0x2b
 3565 0abe D2030000 		.4byte	0x3d2
 3566 0ac2 1C       		.byte	0x1c
 3567 0ac3 07       		.uleb128 0x7
 3568 0ac4 5B1A0000 		.4byte	.LASF233
 3569 0ac8 12       		.byte	0x12
 3570 0ac9 2C       		.byte	0x2c
 3571 0aca C7030000 		.4byte	0x3c7
 3572 0ace 1D       		.byte	0x1d
 3573 0acf 09       		.uleb128 0x9
 3574 0ad0 5A210000 		.4byte	.LASF234
 3575 0ad4 12       		.byte	0x12
 3576 0ad5 2D       		.byte	0x2d
 3577 0ad6 1E040000 		.4byte	0x41e
 3578 0ada 01       		.byte	0x1
 3579 0adb 03       		.byte	0x3
 3580 0adc 05       		.byte	0x5
 3581 0add 1E       		.byte	0x1e
 3582 0ade 09       		.uleb128 0x9
 3583 0adf 9A040000 		.4byte	.LASF198
 3584 0ae3 12       		.byte	0x12
 3585 0ae4 2E       		.byte	0x2e
 3586 0ae5 13040000 		.4byte	0x413
 3587 0ae9 01       		.byte	0x1
 3588 0aea 03       		.byte	0x3
 3589 0aeb 02       		.byte	0x2
 3590 0aec 1E       		.byte	0x1e
 3591 0aed 00       		.byte	0
 3592 0aee 0B       		.uleb128 0xb
 3593 0aef 04       		.byte	0x4
 3594 0af0 F40A0000 		.4byte	0xaf4
 3595 0af4 0C       		.uleb128 0xc
 3596 0af5 EB020000 		.4byte	0x2eb
 3597 0af9 02       		.uleb128 0x2
 3598 0afa 87060000 		.4byte	.LASF235
 3599 0afe 12       		.byte	0x12
 3600 0aff 2F       		.byte	0x2f
 3601 0b00 1F0A0000 		.4byte	0xa1f
 3602 0b04 05       		.uleb128 0x5
 3603 0b05 18       		.byte	0x18
 3604 0b06 13       		.byte	0x13
 3605 0b07 20       		.byte	0x20
ARM GAS  C:\Users\haske\AppData\Local\Temp\cc1ymag8.s 			page 92


 3606 0b08 7F0B0000 		.4byte	0xb7f
 3607 0b0c 07       		.uleb128 0x7
 3608 0b0d 26150000 		.4byte	.LASF236
 3609 0b11 13       		.byte	0x13
 3610 0b12 22       		.byte	0x22
 3611 0b13 C3000000 		.4byte	0xc3
 3612 0b17 00       		.byte	0
 3613 0b18 07       		.uleb128 0x7
 3614 0b19 14030000 		.4byte	.LASF237
 3615 0b1d 13       		.byte	0x13
 3616 0b1e 23       		.byte	0x23
 3617 0b1f CE000000 		.4byte	0xce
 3618 0b23 02       		.byte	0x2
 3619 0b24 07       		.uleb128 0x7
 3620 0b25 04210000 		.4byte	.LASF238
 3621 0b29 13       		.byte	0x13
 3622 0b2a 24       		.byte	0x24
 3623 0b2b 29010000 		.4byte	0x129
 3624 0b2f 04       		.byte	0x4
 3625 0b30 07       		.uleb128 0x7
 3626 0b31 D2140000 		.4byte	.LASF239
 3627 0b35 13       		.byte	0x13
 3628 0b36 26       		.byte	0x26
 3629 0b37 8D030000 		.4byte	0x38d
 3630 0b3b 08       		.byte	0x8
 3631 0b3c 07       		.uleb128 0x7
 3632 0b3d 151B0000 		.4byte	.LASF240
 3633 0b41 13       		.byte	0x13
 3634 0b42 27       		.byte	0x27
 3635 0b43 98030000 		.4byte	0x398
 3636 0b47 0A       		.byte	0xa
 3637 0b48 06       		.uleb128 0x6
 3638 0b49 6F706100 		.ascii	"opa\000"
 3639 0b4d 13       		.byte	0x13
 3640 0b4e 29       		.byte	0x29
 3641 0b4f 98030000 		.4byte	0x398
 3642 0b53 0B       		.byte	0xb
 3643 0b54 09       		.uleb128 0x9
 3644 0b55 9A040000 		.4byte	.LASF198
 3645 0b59 13       		.byte	0x13
 3646 0b5a 2A       		.byte	0x2a
 3647 0b5b 13040000 		.4byte	0x413
 3648 0b5f 01       		.byte	0x1
 3649 0b60 04       		.byte	0x4
 3650 0b61 04       		.byte	0x4
 3651 0b62 0C       		.byte	0xc
 3652 0b63 07       		.uleb128 0x7
 3653 0b64 F11A0000 		.4byte	.LASF241
 3654 0b68 13       		.byte	0x13
 3655 0b69 2C       		.byte	0x2c
 3656 0b6a D9000000 		.4byte	0xd9
 3657 0b6e 10       		.byte	0x10
 3658 0b6f 09       		.uleb128 0x9
 3659 0b70 E31B0000 		.4byte	.LASF242
 3660 0b74 13       		.byte	0x13
 3661 0b75 2D       		.byte	0x2d
 3662 0b76 B8000000 		.4byte	0xb8
ARM GAS  C:\Users\haske\AppData\Local\Temp\cc1ymag8.s 			page 93


 3663 0b7a 01       		.byte	0x1
 3664 0b7b 01       		.byte	0x1
 3665 0b7c 07       		.byte	0x7
 3666 0b7d 14       		.byte	0x14
 3667 0b7e 00       		.byte	0
 3668 0b7f 02       		.uleb128 0x2
 3669 0b80 4B0C0000 		.4byte	.LASF243
 3670 0b84 13       		.byte	0x13
 3671 0b85 2E       		.byte	0x2e
 3672 0b86 040B0000 		.4byte	0xb04
 3673 0b8a 05       		.uleb128 0x5
 3674 0b8b 0A       		.byte	0xa
 3675 0b8c 14       		.byte	0x14
 3676 0b8d 1C       		.byte	0x1c
 3677 0b8e 0B0C0000 		.4byte	0xc0b
 3678 0b92 07       		.uleb128 0x7
 3679 0b93 08220000 		.4byte	.LASF73
 3680 0b97 14       		.byte	0x14
 3681 0b98 1D       		.byte	0x1d
 3682 0b99 8D030000 		.4byte	0x38d
 3683 0b9d 00       		.byte	0
 3684 0b9e 07       		.uleb128 0x7
 3685 0b9f ED160000 		.4byte	.LASF244
 3686 0ba3 14       		.byte	0x14
 3687 0ba4 1E       		.byte	0x1e
 3688 0ba5 01010000 		.4byte	0x101
 3689 0ba9 02       		.byte	0x2
 3690 0baa 07       		.uleb128 0x7
 3691 0bab DB130000 		.4byte	.LASF245
 3692 0baf 14       		.byte	0x14
 3693 0bb0 1F       		.byte	0x1f
 3694 0bb1 01010000 		.4byte	0x101
 3695 0bb5 04       		.byte	0x4
 3696 0bb6 07       		.uleb128 0x7
 3697 0bb7 B40C0000 		.4byte	.LASF246
 3698 0bbb 14       		.byte	0x14
 3699 0bbc 20       		.byte	0x20
 3700 0bbd 01010000 		.4byte	0x101
 3701 0bc1 06       		.byte	0x6
 3702 0bc2 06       		.uleb128 0x6
 3703 0bc3 6F706100 		.ascii	"opa\000"
 3704 0bc7 14       		.byte	0x14
 3705 0bc8 21       		.byte	0x21
 3706 0bc9 98030000 		.4byte	0x398
 3707 0bcd 08       		.byte	0x8
 3708 0bce 09       		.uleb128 0x9
 3709 0bcf 9A040000 		.4byte	.LASF198
 3710 0bd3 14       		.byte	0x14
 3711 0bd4 22       		.byte	0x22
 3712 0bd5 13040000 		.4byte	0x413
 3713 0bd9 01       		.byte	0x1
 3714 0bda 02       		.byte	0x2
 3715 0bdb 06       		.byte	0x6
 3716 0bdc 09       		.byte	0x9
 3717 0bdd 09       		.uleb128 0x9
 3718 0bde 8B0F0000 		.4byte	.LASF247
 3719 0be2 14       		.byte	0x14
ARM GAS  C:\Users\haske\AppData\Local\Temp\cc1ymag8.s 			page 94


 3720 0be3 23       		.byte	0x23
 3721 0be4 B8000000 		.4byte	0xb8
 3722 0be8 01       		.byte	0x1
 3723 0be9 01       		.byte	0x1
 3724 0bea 05       		.byte	0x5
 3725 0beb 09       		.byte	0x9
 3726 0bec 09       		.uleb128 0x9
 3727 0bed 84110000 		.4byte	.LASF248
 3728 0bf1 14       		.byte	0x14
 3729 0bf2 24       		.byte	0x24
 3730 0bf3 B8000000 		.4byte	0xb8
 3731 0bf7 01       		.byte	0x1
 3732 0bf8 01       		.byte	0x1
 3733 0bf9 04       		.byte	0x4
 3734 0bfa 09       		.byte	0x9
 3735 0bfb 09       		.uleb128 0x9
 3736 0bfc 57010000 		.4byte	.LASF249
 3737 0c00 14       		.byte	0x14
 3738 0c01 25       		.byte	0x25
 3739 0c02 B8000000 		.4byte	0xb8
 3740 0c06 01       		.byte	0x1
 3741 0c07 01       		.byte	0x1
 3742 0c08 03       		.byte	0x3
 3743 0c09 09       		.byte	0x9
 3744 0c0a 00       		.byte	0
 3745 0c0b 02       		.uleb128 0x2
 3746 0c0c DB090000 		.4byte	.LASF250
 3747 0c10 14       		.byte	0x14
 3748 0c11 26       		.byte	0x26
 3749 0c12 8A0B0000 		.4byte	0xb8a
 3750 0c16 05       		.uleb128 0x5
 3751 0c17 10       		.byte	0x10
 3752 0c18 15       		.byte	0x15
 3753 0c19 1C       		.byte	0x1c
 3754 0c1a 850C0000 		.4byte	0xc85
 3755 0c1e 07       		.uleb128 0x7
 3756 0c1f 08220000 		.4byte	.LASF73
 3757 0c23 15       		.byte	0x15
 3758 0c24 1D       		.byte	0x1d
 3759 0c25 8D030000 		.4byte	0x38d
 3760 0c29 00       		.byte	0
 3761 0c2a 07       		.uleb128 0x7
 3762 0c2b ED160000 		.4byte	.LASF244
 3763 0c2f 15       		.byte	0x15
 3764 0c30 1E       		.byte	0x1e
 3765 0c31 01010000 		.4byte	0x101
 3766 0c35 02       		.byte	0x2
 3767 0c36 07       		.uleb128 0x7
 3768 0c37 98130000 		.4byte	.LASF251
 3769 0c3b 15       		.byte	0x15
 3770 0c3c 1F       		.byte	0x1f
 3771 0c3d CE000000 		.4byte	0xce
 3772 0c41 04       		.byte	0x4
 3773 0c42 07       		.uleb128 0x7
 3774 0c43 EB080000 		.4byte	.LASF252
 3775 0c47 15       		.byte	0x15
 3776 0c48 20       		.byte	0x20
ARM GAS  C:\Users\haske\AppData\Local\Temp\cc1ymag8.s 			page 95


 3777 0c49 CE000000 		.4byte	0xce
 3778 0c4d 06       		.byte	0x6
 3779 0c4e 07       		.uleb128 0x7
 3780 0c4f 9C110000 		.4byte	.LASF253
 3781 0c53 15       		.byte	0x15
 3782 0c54 21       		.byte	0x21
 3783 0c55 E2020000 		.4byte	0x2e2
 3784 0c59 08       		.byte	0x8
 3785 0c5a 06       		.uleb128 0x6
 3786 0c5b 6F706100 		.ascii	"opa\000"
 3787 0c5f 15       		.byte	0x15
 3788 0c60 22       		.byte	0x22
 3789 0c61 98030000 		.4byte	0x398
 3790 0c65 0C       		.byte	0xc
 3791 0c66 09       		.uleb128 0x9
 3792 0c67 9A040000 		.4byte	.LASF198
 3793 0c6b 15       		.byte	0x15
 3794 0c6c 23       		.byte	0x23
 3795 0c6d 13040000 		.4byte	0x413
 3796 0c71 01       		.byte	0x1
 3797 0c72 02       		.byte	0x2
 3798 0c73 06       		.byte	0x6
 3799 0c74 0D       		.byte	0xd
 3800 0c75 09       		.uleb128 0x9
 3801 0c76 5B030000 		.4byte	.LASF254
 3802 0c7a 15       		.byte	0x15
 3803 0c7b 24       		.byte	0x24
 3804 0c7c B8000000 		.4byte	0xb8
 3805 0c80 01       		.byte	0x1
 3806 0c81 01       		.byte	0x1
 3807 0c82 05       		.byte	0x5
 3808 0c83 0D       		.byte	0xd
 3809 0c84 00       		.byte	0
 3810 0c85 02       		.uleb128 0x2
 3811 0c86 12230000 		.4byte	.LASF255
 3812 0c8a 15       		.byte	0x15
 3813 0c8b 25       		.byte	0x25
 3814 0c8c 160C0000 		.4byte	0xc16
 3815 0c90 0B       		.uleb128 0xb
 3816 0c91 04       		.byte	0x4
 3817 0c92 98030000 		.4byte	0x398
 3818 0c96 11       		.uleb128 0x11
 3819 0c97 01       		.byte	0x1
 3820 0c98 42000000 		.4byte	0x42
 3821 0c9c 16       		.byte	0x16
 3822 0c9d 1C       		.byte	0x1c
 3823 0c9e B50C0000 		.4byte	0xcb5
 3824 0ca2 12       		.uleb128 0x12
 3825 0ca3 94170000 		.4byte	.LASF256
 3826 0ca7 00       		.byte	0
 3827 0ca8 12       		.uleb128 0x12
 3828 0ca9 A2020000 		.4byte	.LASF257
 3829 0cad 01       		.byte	0x1
 3830 0cae 12       		.uleb128 0x12
 3831 0caf 831D0000 		.4byte	.LASF258
 3832 0cb3 02       		.byte	0x2
 3833 0cb4 00       		.byte	0
ARM GAS  C:\Users\haske\AppData\Local\Temp\cc1ymag8.s 			page 96


 3834 0cb5 02       		.uleb128 0x2
 3835 0cb6 EF0B0000 		.4byte	.LASF259
 3836 0cba 16       		.byte	0x16
 3837 0cbb 20       		.byte	0x20
 3838 0cbc 960C0000 		.4byte	0xc96
 3839 0cc0 05       		.uleb128 0x5
 3840 0cc1 10       		.byte	0x10
 3841 0cc2 17       		.byte	0x17
 3842 0cc3 33       		.byte	0x33
 3843 0cc4 F90C0000 		.4byte	0xcf9
 3844 0cc8 07       		.uleb128 0x7
 3845 0cc9 C7190000 		.4byte	.LASF260
 3846 0ccd 17       		.byte	0x17
 3847 0cce 34       		.byte	0x34
 3848 0ccf F90C0000 		.4byte	0xcf9
 3849 0cd3 00       		.byte	0
 3850 0cd4 07       		.uleb128 0x7
 3851 0cd5 C9140000 		.4byte	.LASF261
 3852 0cd9 17       		.byte	0x17
 3853 0cda 35       		.byte	0x35
 3854 0cdb 040D0000 		.4byte	0xd04
 3855 0cdf 04       		.byte	0x4
 3856 0ce0 06       		.uleb128 0x6
 3857 0ce1 62756600 		.ascii	"buf\000"
 3858 0ce5 17       		.byte	0x17
 3859 0ce6 36       		.byte	0x36
 3860 0ce7 E9020000 		.4byte	0x2e9
 3861 0ceb 08       		.byte	0x8
 3862 0cec 07       		.uleb128 0x7
 3863 0ced B7240000 		.4byte	.LASF262
 3864 0cf1 17       		.byte	0x17
 3865 0cf2 37       		.byte	0x37
 3866 0cf3 AA020000 		.4byte	0x2aa
 3867 0cf7 0C       		.byte	0xc
 3868 0cf8 00       		.byte	0
 3869 0cf9 0B       		.uleb128 0xb
 3870 0cfa 04       		.byte	0x4
 3871 0cfb FF0C0000 		.4byte	0xcff
 3872 0cff 0C       		.uleb128 0xc
 3873 0d00 69010000 		.4byte	0x169
 3874 0d04 0B       		.uleb128 0xb
 3875 0d05 04       		.byte	0x4
 3876 0d06 69010000 		.4byte	0x169
 3877 0d0a 0A       		.uleb128 0xa
 3878 0d0b 821A0000 		.4byte	.LASF263
 3879 0d0f 28       		.byte	0x28
 3880 0d10 17       		.byte	0x17
 3881 0d11 2D       		.byte	0x2d
 3882 0d12 5F0D0000 		.4byte	0xd5f
 3883 0d16 07       		.uleb128 0x7
 3884 0d17 511A0000 		.4byte	.LASF264
 3885 0d1b 17       		.byte	0x17
 3886 0d1c 2E       		.byte	0x2e
 3887 0d1d 69010000 		.4byte	0x169
 3888 0d21 00       		.byte	0
 3889 0d22 07       		.uleb128 0x7
 3890 0d23 5C0A0000 		.4byte	.LASF265
ARM GAS  C:\Users\haske\AppData\Local\Temp\cc1ymag8.s 			page 97


 3891 0d27 17       		.byte	0x17
 3892 0d28 2F       		.byte	0x2f
 3893 0d29 69010000 		.4byte	0x169
 3894 0d2d 08       		.byte	0x8
 3895 0d2e 07       		.uleb128 0x7
 3896 0d2f AD1A0000 		.4byte	.LASF266
 3897 0d33 17       		.byte	0x17
 3898 0d34 30       		.byte	0x30
 3899 0d35 01010000 		.4byte	0x101
 3900 0d39 10       		.byte	0x10
 3901 0d3a 07       		.uleb128 0x7
 3902 0d3b B31E0000 		.4byte	.LASF267
 3903 0d3f 17       		.byte	0x17
 3904 0d40 31       		.byte	0x31
 3905 0d41 01010000 		.4byte	0x101
 3906 0d45 12       		.byte	0x12
 3907 0d46 06       		.uleb128 0x6
 3908 0d47 62756600 		.ascii	"buf\000"
 3909 0d4b 17       		.byte	0x17
 3910 0d4c 32       		.byte	0x32
 3911 0d4d E9020000 		.4byte	0x2e9
 3912 0d51 14       		.byte	0x14
 3913 0d52 07       		.uleb128 0x7
 3914 0d53 070B0000 		.4byte	.LASF268
 3915 0d57 17       		.byte	0x17
 3916 0d58 38       		.byte	0x38
 3917 0d59 C00C0000 		.4byte	0xcc0
 3918 0d5d 18       		.byte	0x18
 3919 0d5e 00       		.byte	0
 3920 0d5f 02       		.uleb128 0x2
 3921 0d60 F4210000 		.4byte	.LASF269
 3922 0d64 17       		.byte	0x17
 3923 0d65 39       		.byte	0x39
 3924 0d66 0A0D0000 		.4byte	0xd0a
 3925 0d6a 0A       		.uleb128 0xa
 3926 0d6b 80030000 		.4byte	.LASF270
 3927 0d6f 54       		.byte	0x54
 3928 0d70 17       		.byte	0x17
 3929 0d71 3B       		.byte	0x3b
 3930 0d72 730E0000 		.4byte	0xe73
 3931 0d76 06       		.uleb128 0x6
 3932 0d77 62756600 		.ascii	"buf\000"
 3933 0d7b 17       		.byte	0x17
 3934 0d7c 3F       		.byte	0x3f
 3935 0d7d E9020000 		.4byte	0x2e9
 3936 0d81 00       		.byte	0
 3937 0d82 07       		.uleb128 0x7
 3938 0d83 C9140000 		.4byte	.LASF261
 3939 0d87 17       		.byte	0x17
 3940 0d88 44       		.byte	0x44
 3941 0d89 040D0000 		.4byte	0xd04
 3942 0d8d 04       		.byte	0x4
 3943 0d8e 07       		.uleb128 0x7
 3944 0d8f C7190000 		.4byte	.LASF260
 3945 0d93 17       		.byte	0x17
 3946 0d94 49       		.byte	0x49
 3947 0d95 F90C0000 		.4byte	0xcf9
ARM GAS  C:\Users\haske\AppData\Local\Temp\cc1ymag8.s 			page 98


 3948 0d99 08       		.byte	0x8
 3949 0d9a 07       		.uleb128 0x7
 3950 0d9b 43030000 		.4byte	.LASF271
 3951 0d9f 17       		.byte	0x17
 3952 0da0 4B       		.byte	0x4b
 3953 0da1 840E0000 		.4byte	0xe84
 3954 0da5 0C       		.byte	0xc
 3955 0da6 07       		.uleb128 0x7
 3956 0da7 22030000 		.4byte	.LASF272
 3957 0dab 17       		.byte	0x17
 3958 0dac 4D       		.byte	0x4d
 3959 0dad AA0E0000 		.4byte	0xeaa
 3960 0db1 10       		.byte	0x10
 3961 0db2 07       		.uleb128 0x7
 3962 0db3 6D140000 		.4byte	.LASF273
 3963 0db7 17       		.byte	0x17
 3964 0db8 4F       		.byte	0x4f
 3965 0db9 EA0E0000 		.4byte	0xeea
 3966 0dbd 14       		.byte	0x14
 3967 0dbe 07       		.uleb128 0x7
 3968 0dbf 97150000 		.4byte	.LASF274
 3969 0dc3 17       		.byte	0x17
 3970 0dc4 52       		.byte	0x52
 3971 0dc5 1A0F0000 		.4byte	0xf1a
 3972 0dc9 18       		.byte	0x18
 3973 0dca 07       		.uleb128 0x7
 3974 0dcb 76260000 		.4byte	.LASF275
 3975 0dcf 17       		.byte	0x17
 3976 0dd0 55       		.byte	0x55
 3977 0dd1 3E0F0000 		.4byte	0xf3e
 3978 0dd5 1C       		.byte	0x1c
 3979 0dd6 07       		.uleb128 0x7
 3980 0dd7 E61F0000 		.4byte	.LASF276
 3981 0ddb 17       		.byte	0x17
 3982 0ddc 58       		.byte	0x58
 3983 0ddd 690F0000 		.4byte	0xf69
 3984 0de1 20       		.byte	0x20
 3985 0de2 07       		.uleb128 0x7
 3986 0de3 70080000 		.4byte	.LASF277
 3987 0de7 17       		.byte	0x17
 3988 0de8 5C       		.byte	0x5c
 3989 0de9 940F0000 		.4byte	0xf94
 3990 0ded 24       		.byte	0x24
 3991 0dee 07       		.uleb128 0x7
 3992 0def B3260000 		.4byte	.LASF278
 3993 0df3 17       		.byte	0x17
 3994 0df4 60       		.byte	0x60
 3995 0df5 B40F0000 		.4byte	0xfb4
 3996 0df9 28       		.byte	0x28
 3997 0dfa 07       		.uleb128 0x7
 3998 0dfb BD0C0000 		.4byte	.LASF279
 3999 0dff 17       		.byte	0x17
 4000 0e00 71       		.byte	0x71
 4001 0e01 F20F0000 		.4byte	0xff2
 4002 0e05 2C       		.byte	0x2c
 4003 0e06 07       		.uleb128 0x7
 4004 0e07 35010000 		.4byte	.LASF280
ARM GAS  C:\Users\haske\AppData\Local\Temp\cc1ymag8.s 			page 99


 4005 0e0b 17       		.byte	0x17
 4006 0e0c 78       		.byte	0x78
 4007 0e0d AA0E0000 		.4byte	0xeaa
 4008 0e11 30       		.byte	0x30
 4009 0e12 07       		.uleb128 0x7
 4010 0e13 091D0000 		.4byte	.LASF281
 4011 0e17 17       		.byte	0x17
 4012 0e18 7D       		.byte	0x7d
 4013 0e19 840E0000 		.4byte	0xe84
 4014 0e1d 34       		.byte	0x34
 4015 0e1e 07       		.uleb128 0x7
 4016 0e1f C7070000 		.4byte	.LASF282
 4017 0e23 17       		.byte	0x17
 4018 0e24 8D       		.byte	0x8d
 4019 0e25 21100000 		.4byte	0x1021
 4020 0e29 38       		.byte	0x38
 4021 0e2a 07       		.uleb128 0x7
 4022 0e2b 3D100000 		.4byte	.LASF283
 4023 0e2f 17       		.byte	0x17
 4024 0e30 99       		.byte	0x99
 4025 0e31 46100000 		.4byte	0x1046
 4026 0e35 3C       		.byte	0x3c
 4027 0e36 07       		.uleb128 0x7
 4028 0e37 6A210000 		.4byte	.LASF284
 4029 0e3b 17       		.byte	0x17
 4030 0e3c A3       		.byte	0xa3
 4031 0e3d 61100000 		.4byte	0x1061
 4032 0e41 40       		.byte	0x40
 4033 0e42 07       		.uleb128 0x7
 4034 0e43 40220000 		.4byte	.LASF285
 4035 0e47 17       		.byte	0x17
 4036 0e48 AC       		.byte	0xac
 4037 0e49 7C100000 		.4byte	0x107c
 4038 0e4d 44       		.byte	0x44
 4039 0e4e 07       		.uleb128 0x7
 4040 0e4f CD130000 		.4byte	.LASF286
 4041 0e53 17       		.byte	0x17
 4042 0e54 B5       		.byte	0xb5
 4043 0e55 98100000 		.4byte	0x1098
 4044 0e59 48       		.byte	0x48
 4045 0e5a 07       		.uleb128 0x7
 4046 0e5b A00C0000 		.4byte	.LASF287
 4047 0e5f 17       		.byte	0x17
 4048 0e60 BA       		.byte	0xba
 4049 0e61 EF000000 		.4byte	0xef
 4050 0e65 4C       		.byte	0x4c
 4051 0e66 07       		.uleb128 0x7
 4052 0e67 2F280000 		.4byte	.LASF42
 4053 0e6b 17       		.byte	0x17
 4054 0e6c BD       		.byte	0xbd
 4055 0e6d E9020000 		.4byte	0x2e9
 4056 0e71 50       		.byte	0x50
 4057 0e72 00       		.byte	0
 4058 0e73 1F       		.uleb128 0x1f
 4059 0e74 7E0E0000 		.4byte	0xe7e
 4060 0e78 0E       		.uleb128 0xe
 4061 0e79 7E0E0000 		.4byte	0xe7e
ARM GAS  C:\Users\haske\AppData\Local\Temp\cc1ymag8.s 			page 100


 4062 0e7d 00       		.byte	0
 4063 0e7e 0B       		.uleb128 0xb
 4064 0e7f 04       		.byte	0x4
 4065 0e80 6A0D0000 		.4byte	0xd6a
 4066 0e84 0B       		.uleb128 0xb
 4067 0e85 04       		.byte	0x4
 4068 0e86 730E0000 		.4byte	0xe73
 4069 0e8a 1F       		.uleb128 0x1f
 4070 0e8b 9F0E0000 		.4byte	0xe9f
 4071 0e8f 0E       		.uleb128 0xe
 4072 0e90 7E0E0000 		.4byte	0xe7e
 4073 0e94 0E       		.uleb128 0xe
 4074 0e95 9F0E0000 		.4byte	0xe9f
 4075 0e99 0E       		.uleb128 0xe
 4076 0e9a F90C0000 		.4byte	0xcf9
 4077 0e9e 00       		.byte	0
 4078 0e9f 0B       		.uleb128 0xb
 4079 0ea0 04       		.byte	0x4
 4080 0ea1 A50E0000 		.4byte	0xea5
 4081 0ea5 0C       		.uleb128 0xc
 4082 0ea6 140A0000 		.4byte	0xa14
 4083 0eaa 0B       		.uleb128 0xb
 4084 0eab 04       		.byte	0x4
 4085 0eac 8A0E0000 		.4byte	0xe8a
 4086 0eb0 1F       		.uleb128 0x1f
 4087 0eb1 D40E0000 		.4byte	0xed4
 4088 0eb5 0E       		.uleb128 0xe
 4089 0eb6 7E0E0000 		.4byte	0xe7e
 4090 0eba 0E       		.uleb128 0xe
 4091 0ebb D40E0000 		.4byte	0xed4
 4092 0ebf 0E       		.uleb128 0xe
 4093 0ec0 DF0E0000 		.4byte	0xedf
 4094 0ec4 0E       		.uleb128 0xe
 4095 0ec5 CE000000 		.4byte	0xce
 4096 0ec9 0E       		.uleb128 0xe
 4097 0eca CE000000 		.4byte	0xce
 4098 0ece 0E       		.uleb128 0xe
 4099 0ecf CE000000 		.4byte	0xce
 4100 0ed3 00       		.byte	0
 4101 0ed4 0B       		.uleb128 0xb
 4102 0ed5 04       		.byte	0x4
 4103 0ed6 DA0E0000 		.4byte	0xeda
 4104 0eda 0C       		.uleb128 0xc
 4105 0edb 850C0000 		.4byte	0xc85
 4106 0edf 0B       		.uleb128 0xb
 4107 0ee0 04       		.byte	0x4
 4108 0ee1 E50E0000 		.4byte	0xee5
 4109 0ee5 0C       		.uleb128 0xc
 4110 0ee6 29010000 		.4byte	0x129
 4111 0eea 0B       		.uleb128 0xb
 4112 0eeb 04       		.byte	0x4
 4113 0eec B00E0000 		.4byte	0xeb0
 4114 0ef0 1F       		.uleb128 0x1f
 4115 0ef1 0F0F0000 		.4byte	0xf0f
 4116 0ef5 0E       		.uleb128 0xe
 4117 0ef6 7E0E0000 		.4byte	0xe7e
 4118 0efa 0E       		.uleb128 0xe
ARM GAS  C:\Users\haske\AppData\Local\Temp\cc1ymag8.s 			page 101


 4119 0efb 0F0F0000 		.4byte	0xf0f
 4120 0eff 0E       		.uleb128 0xe
 4121 0f00 F90C0000 		.4byte	0xcf9
 4122 0f04 0E       		.uleb128 0xe
 4123 0f05 D1020000 		.4byte	0x2d1
 4124 0f09 0E       		.uleb128 0xe
 4125 0f0a EF070000 		.4byte	0x7ef
 4126 0f0e 00       		.byte	0
 4127 0f0f 0B       		.uleb128 0xb
 4128 0f10 04       		.byte	0x4
 4129 0f11 150F0000 		.4byte	0xf15
 4130 0f15 0C       		.uleb128 0xc
 4131 0f16 7F0B0000 		.4byte	0xb7f
 4132 0f1a 0B       		.uleb128 0xb
 4133 0f1b 04       		.byte	0x4
 4134 0f1c F00E0000 		.4byte	0xef0
 4135 0f20 0D       		.uleb128 0xd
 4136 0f21 0F030000 		.4byte	0x30f
 4137 0f25 3E0F0000 		.4byte	0xf3e
 4138 0f29 0E       		.uleb128 0xe
 4139 0f2a 7E0E0000 		.4byte	0xe7e
 4140 0f2e 0E       		.uleb128 0xe
 4141 0f2f 0F0F0000 		.4byte	0xf0f
 4142 0f33 0E       		.uleb128 0xe
 4143 0f34 F90C0000 		.4byte	0xcf9
 4144 0f38 0E       		.uleb128 0xe
 4145 0f39 E2020000 		.4byte	0x2e2
 4146 0f3d 00       		.byte	0
 4147 0f3e 0B       		.uleb128 0xb
 4148 0f3f 04       		.byte	0x4
 4149 0f40 200F0000 		.4byte	0xf20
 4150 0f44 1F       		.uleb128 0x1f
 4151 0f45 5E0F0000 		.4byte	0xf5e
 4152 0f49 0E       		.uleb128 0xe
 4153 0f4a 7E0E0000 		.4byte	0xe7e
 4154 0f4e 0E       		.uleb128 0xe
 4155 0f4f 5E0F0000 		.4byte	0xf5e
 4156 0f53 0E       		.uleb128 0xe
 4157 0f54 DF0E0000 		.4byte	0xedf
 4158 0f58 0E       		.uleb128 0xe
 4159 0f59 E4000000 		.4byte	0xe4
 4160 0f5d 00       		.byte	0
 4161 0f5e 0B       		.uleb128 0xb
 4162 0f5f 04       		.byte	0x4
 4163 0f60 640F0000 		.4byte	0xf64
 4164 0f64 0C       		.uleb128 0xc
 4165 0f65 F90A0000 		.4byte	0xaf9
 4166 0f69 0B       		.uleb128 0xb
 4167 0f6a 04       		.byte	0x4
 4168 0f6b 440F0000 		.4byte	0xf44
 4169 0f6f 1F       		.uleb128 0x1f
 4170 0f70 890F0000 		.4byte	0xf89
 4171 0f74 0E       		.uleb128 0xe
 4172 0f75 7E0E0000 		.4byte	0xe7e
 4173 0f79 0E       		.uleb128 0xe
 4174 0f7a 890F0000 		.4byte	0xf89
 4175 0f7e 0E       		.uleb128 0xe
ARM GAS  C:\Users\haske\AppData\Local\Temp\cc1ymag8.s 			page 102


 4176 0f7f DF0E0000 		.4byte	0xedf
 4177 0f83 0E       		.uleb128 0xe
 4178 0f84 DF0E0000 		.4byte	0xedf
 4179 0f88 00       		.byte	0
 4180 0f89 0B       		.uleb128 0xb
 4181 0f8a 04       		.byte	0x4
 4182 0f8b 8F0F0000 		.4byte	0xf8f
 4183 0f8f 0C       		.uleb128 0xc
 4184 0f90 0B0C0000 		.4byte	0xc0b
 4185 0f94 0B       		.uleb128 0xb
 4186 0f95 04       		.byte	0x4
 4187 0f96 6F0F0000 		.4byte	0xf6f
 4188 0f9a 1F       		.uleb128 0x1f
 4189 0f9b B40F0000 		.4byte	0xfb4
 4190 0f9f 0E       		.uleb128 0xe
 4191 0fa0 7E0E0000 		.4byte	0xe7e
 4192 0fa4 0E       		.uleb128 0xe
 4193 0fa5 9F0E0000 		.4byte	0xe9f
 4194 0fa9 0E       		.uleb128 0xe
 4195 0faa DF0E0000 		.4byte	0xedf
 4196 0fae 0E       		.uleb128 0xe
 4197 0faf CE000000 		.4byte	0xce
 4198 0fb3 00       		.byte	0
 4199 0fb4 0B       		.uleb128 0xb
 4200 0fb5 04       		.byte	0x4
 4201 0fb6 9A0F0000 		.4byte	0xf9a
 4202 0fba 1F       		.uleb128 0x1f
 4203 0fbb F20F0000 		.4byte	0xff2
 4204 0fbf 0E       		.uleb128 0xe
 4205 0fc0 7E0E0000 		.4byte	0xe7e
 4206 0fc4 0E       		.uleb128 0xe
 4207 0fc5 F90C0000 		.4byte	0xcf9
 4208 0fc9 0E       		.uleb128 0xe
 4209 0fca E2020000 		.4byte	0x2e2
 4210 0fce 0E       		.uleb128 0xe
 4211 0fcf 01010000 		.4byte	0x101
 4212 0fd3 0E       		.uleb128 0xe
 4213 0fd4 01010000 		.4byte	0x101
 4214 0fd8 0E       		.uleb128 0xe
 4215 0fd9 01010000 		.4byte	0x101
 4216 0fdd 0E       		.uleb128 0xe
 4217 0fde 0F0F0000 		.4byte	0xf0f
 4218 0fe2 0E       		.uleb128 0xe
 4219 0fe3 EF070000 		.4byte	0x7ef
 4220 0fe7 0E       		.uleb128 0xe
 4221 0fe8 C7080000 		.4byte	0x8c7
 4222 0fec 0E       		.uleb128 0xe
 4223 0fed 900C0000 		.4byte	0xc90
 4224 0ff1 00       		.byte	0
 4225 0ff2 0B       		.uleb128 0xb
 4226 0ff3 04       		.byte	0x4
 4227 0ff4 BA0F0000 		.4byte	0xfba
 4228 0ff8 1F       		.uleb128 0x1f
 4229 0ff9 21100000 		.4byte	0x1021
 4230 0ffd 0E       		.uleb128 0xe
 4231 0ffe 7E0E0000 		.4byte	0xe7e
 4232 1002 0E       		.uleb128 0xe
ARM GAS  C:\Users\haske\AppData\Local\Temp\cc1ymag8.s 			page 103


 4233 1003 E9020000 		.4byte	0x2e9
 4234 1007 0E       		.uleb128 0xe
 4235 1008 01010000 		.4byte	0x101
 4236 100c 0E       		.uleb128 0xe
 4237 100d F90C0000 		.4byte	0xcf9
 4238 1011 0E       		.uleb128 0xe
 4239 1012 E9020000 		.4byte	0x2e9
 4240 1016 0E       		.uleb128 0xe
 4241 1017 01010000 		.4byte	0x101
 4242 101b 0E       		.uleb128 0xe
 4243 101c F90C0000 		.4byte	0xcf9
 4244 1020 00       		.byte	0
 4245 1021 0B       		.uleb128 0xb
 4246 1022 04       		.byte	0x4
 4247 1023 F80F0000 		.4byte	0xff8
 4248 1027 0D       		.uleb128 0xd
 4249 1028 40100000 		.4byte	0x1040
 4250 102c 40100000 		.4byte	0x1040
 4251 1030 0E       		.uleb128 0xe
 4252 1031 7E0E0000 		.4byte	0xe7e
 4253 1035 0E       		.uleb128 0xe
 4254 1036 40100000 		.4byte	0x1040
 4255 103a 0E       		.uleb128 0xe
 4256 103b B50C0000 		.4byte	0xcb5
 4257 103f 00       		.byte	0
 4258 1040 0B       		.uleb128 0xb
 4259 1041 04       		.byte	0x4
 4260 1042 0A0D0000 		.4byte	0xd0a
 4261 1046 0B       		.uleb128 0xb
 4262 1047 04       		.byte	0x4
 4263 1048 27100000 		.4byte	0x1027
 4264 104c 1F       		.uleb128 0x1f
 4265 104d 61100000 		.4byte	0x1061
 4266 1051 0E       		.uleb128 0xe
 4267 1052 7E0E0000 		.4byte	0xe7e
 4268 1056 0E       		.uleb128 0xe
 4269 1057 40100000 		.4byte	0x1040
 4270 105b 0E       		.uleb128 0xe
 4271 105c B50C0000 		.4byte	0xcb5
 4272 1060 00       		.byte	0
 4273 1061 0B       		.uleb128 0xb
 4274 1062 04       		.byte	0x4
 4275 1063 4C100000 		.4byte	0x104c
 4276 1067 1F       		.uleb128 0x1f
 4277 1068 7C100000 		.4byte	0x107c
 4278 106c 0E       		.uleb128 0xe
 4279 106d 7E0E0000 		.4byte	0xe7e
 4280 1071 0E       		.uleb128 0xe
 4281 1072 40100000 		.4byte	0x1040
 4282 1076 0E       		.uleb128 0xe
 4283 1077 0F0F0000 		.4byte	0xf0f
 4284 107b 00       		.byte	0
 4285 107c 0B       		.uleb128 0xb
 4286 107d 04       		.byte	0x4
 4287 107e 67100000 		.4byte	0x1067
 4288 1082 1F       		.uleb128 0x1f
 4289 1083 92100000 		.4byte	0x1092
ARM GAS  C:\Users\haske\AppData\Local\Temp\cc1ymag8.s 			page 104


 4290 1087 0E       		.uleb128 0xe
 4291 1088 7E0E0000 		.4byte	0xe7e
 4292 108c 0E       		.uleb128 0xe
 4293 108d 92100000 		.4byte	0x1092
 4294 1091 00       		.byte	0
 4295 1092 0B       		.uleb128 0xb
 4296 1093 04       		.byte	0x4
 4297 1094 5F0D0000 		.4byte	0xd5f
 4298 1098 0B       		.uleb128 0xb
 4299 1099 04       		.byte	0x4
 4300 109a 82100000 		.4byte	0x1082
 4301 109e 02       		.uleb128 0x2
 4302 109f B40D0000 		.4byte	.LASF288
 4303 10a3 17       		.byte	0x17
 4304 10a4 C0       		.byte	0xc0
 4305 10a5 6A0D0000 		.4byte	0xd6a
 4306 10a9 02       		.uleb128 0x2
 4307 10aa 4B000000 		.4byte	.LASF289
 4308 10ae 18       		.byte	0x18
 4309 10af 1D       		.byte	0x1d
 4310 10b0 B8000000 		.4byte	0xb8
 4311 10b4 05       		.uleb128 0x5
 4312 10b5 0C       		.byte	0xc
 4313 10b6 18       		.byte	0x18
 4314 10b7 20       		.byte	0x20
 4315 10b8 E1100000 		.4byte	0x10e1
 4316 10bc 07       		.uleb128 0x7
 4317 10bd 2C2A0000 		.4byte	.LASF290
 4318 10c1 18       		.byte	0x18
 4319 10c2 21       		.byte	0x21
 4320 10c3 E4000000 		.4byte	0xe4
 4321 10c7 00       		.byte	0
 4322 10c8 07       		.uleb128 0x7
 4323 10c9 67070000 		.4byte	.LASF291
 4324 10cd 18       		.byte	0x18
 4325 10ce 22       		.byte	0x22
 4326 10cf E1100000 		.4byte	0x10e1
 4327 10d3 04       		.byte	0x4
 4328 10d4 07       		.uleb128 0x7
 4329 10d5 01010000 		.4byte	.LASF292
 4330 10d9 18       		.byte	0x18
 4331 10da 23       		.byte	0x23
 4332 10db E1100000 		.4byte	0x10e1
 4333 10df 08       		.byte	0x8
 4334 10e0 00       		.byte	0
 4335 10e1 0B       		.uleb128 0xb
 4336 10e2 04       		.byte	0x4
 4337 10e3 A9100000 		.4byte	0x10a9
 4338 10e7 02       		.uleb128 0x2
 4339 10e8 CE230000 		.4byte	.LASF293
 4340 10ec 18       		.byte	0x18
 4341 10ed 24       		.byte	0x24
 4342 10ee B4100000 		.4byte	0x10b4
 4343 10f2 02       		.uleb128 0x2
 4344 10f3 A8150000 		.4byte	.LASF294
 4345 10f7 19       		.byte	0x19
 4346 10f8 27       		.byte	0x27
ARM GAS  C:\Users\haske\AppData\Local\Temp\cc1ymag8.s 			page 105


 4347 10f9 FD100000 		.4byte	0x10fd
 4348 10fd 0B       		.uleb128 0xb
 4349 10fe 04       		.byte	0x4
 4350 10ff 03110000 		.4byte	0x1103
 4351 1103 1F       		.uleb128 0x1f
 4352 1104 0E110000 		.4byte	0x110e
 4353 1108 0E       		.uleb128 0xe
 4354 1109 0E110000 		.4byte	0x110e
 4355 110d 00       		.byte	0
 4356 110e 0B       		.uleb128 0xb
 4357 110f 04       		.byte	0x4
 4358 1110 14110000 		.4byte	0x1114
 4359 1114 0A       		.uleb128 0xa
 4360 1115 2C030000 		.4byte	.LASF295
 4361 1119 18       		.byte	0x18
 4362 111a 19       		.byte	0x19
 4363 111b 2C       		.byte	0x2c
 4364 111c 6C110000 		.4byte	0x116c
 4365 1120 07       		.uleb128 0x7
 4366 1121 48210000 		.4byte	.LASF296
 4367 1125 19       		.byte	0x19
 4368 1126 2D       		.byte	0x2d
 4369 1127 E4000000 		.4byte	0xe4
 4370 112b 00       		.byte	0
 4371 112c 07       		.uleb128 0x7
 4372 112d B11F0000 		.4byte	.LASF297
 4373 1131 19       		.byte	0x19
 4374 1132 2E       		.byte	0x2e
 4375 1133 E4000000 		.4byte	0xe4
 4376 1137 04       		.byte	0x4
 4377 1138 07       		.uleb128 0x7
 4378 1139 C31D0000 		.4byte	.LASF298
 4379 113d 19       		.byte	0x19
 4380 113e 2F       		.byte	0x2f
 4381 113f F2100000 		.4byte	0x10f2
 4382 1143 08       		.byte	0x8
 4383 1144 07       		.uleb128 0x7
 4384 1145 2F280000 		.4byte	.LASF42
 4385 1149 19       		.byte	0x19
 4386 114a 30       		.byte	0x30
 4387 114b E9020000 		.4byte	0x2e9
 4388 114f 0C       		.byte	0xc
 4389 1150 07       		.uleb128 0x7
 4390 1151 07030000 		.4byte	.LASF299
 4391 1155 19       		.byte	0x19
 4392 1156 31       		.byte	0x31
 4393 1157 D9000000 		.4byte	0xd9
 4394 115b 10       		.byte	0x10
 4395 115c 09       		.uleb128 0x9
 4396 115d 91190000 		.4byte	.LASF300
 4397 1161 19       		.byte	0x19
 4398 1162 32       		.byte	0x32
 4399 1163 E4000000 		.4byte	0xe4
 4400 1167 04       		.byte	0x4
 4401 1168 01       		.byte	0x1
 4402 1169 1F       		.byte	0x1f
 4403 116a 14       		.byte	0x14
ARM GAS  C:\Users\haske\AppData\Local\Temp\cc1ymag8.s 			page 106


 4404 116b 00       		.byte	0
 4405 116c 02       		.uleb128 0x2
 4406 116d 4F0F0000 		.4byte	.LASF301
 4407 1171 19       		.byte	0x19
 4408 1172 33       		.byte	0x33
 4409 1173 14110000 		.4byte	0x1114
 4410 1177 0A       		.uleb128 0xa
 4411 1178 AE140000 		.4byte	.LASF302
 4412 117c 1C       		.byte	0x1c
 4413 117d 1A       		.byte	0x1a
 4414 117e 32       		.byte	0x32
 4415 117f EA110000 		.4byte	0x11ea
 4416 1183 07       		.uleb128 0x7
 4417 1184 48170000 		.4byte	.LASF303
 4418 1188 1A       		.byte	0x1a
 4419 1189 33       		.byte	0x33
 4420 118a E9020000 		.4byte	0x2e9
 4421 118e 00       		.byte	0
 4422 118f 07       		.uleb128 0x7
 4423 1190 4D170000 		.4byte	.LASF304
 4424 1194 1A       		.byte	0x1a
 4425 1195 34       		.byte	0x34
 4426 1196 E9020000 		.4byte	0x2e9
 4427 119a 04       		.byte	0x4
 4428 119b 07       		.uleb128 0x7
 4429 119c 941C0000 		.4byte	.LASF305
 4430 11a0 1A       		.byte	0x1a
 4431 11a1 37       		.byte	0x37
 4432 11a2 E9020000 		.4byte	0x2e9
 4433 11a6 08       		.byte	0x8
 4434 11a7 07       		.uleb128 0x7
 4435 11a8 AE1E0000 		.4byte	.LASF306
 4436 11ac 1A       		.byte	0x1a
 4437 11ad 38       		.byte	0x38
 4438 11ae E4000000 		.4byte	0xe4
 4439 11b2 0C       		.byte	0xc
 4440 11b3 07       		.uleb128 0x7
 4441 11b4 DF0E0000 		.4byte	.LASF307
 4442 11b8 1A       		.byte	0x1a
 4443 11b9 3A       		.byte	0x3a
 4444 11ba EA110000 		.4byte	0x11ea
 4445 11be 10       		.byte	0x10
 4446 11bf 07       		.uleb128 0x7
 4447 11c0 D30A0000 		.4byte	.LASF308
 4448 11c4 1A       		.byte	0x1a
 4449 11c5 3C       		.byte	0x3c
 4450 11c6 EA110000 		.4byte	0x11ea
 4451 11ca 14       		.byte	0x14
 4452 11cb 09       		.uleb128 0x9
 4453 11cc B1070000 		.4byte	.LASF309
 4454 11d0 1A       		.byte	0x1a
 4455 11d1 3D       		.byte	0x3d
 4456 11d2 EF110000 		.4byte	0x11ef
 4457 11d6 04       		.byte	0x4
 4458 11d7 01       		.byte	0x1
 4459 11d8 1F       		.byte	0x1f
 4460 11d9 18       		.byte	0x18
ARM GAS  C:\Users\haske\AppData\Local\Temp\cc1ymag8.s 			page 107


 4461 11da 09       		.uleb128 0x9
 4462 11db E6130000 		.4byte	.LASF310
 4463 11df 1A       		.byte	0x1a
 4464 11e0 3E       		.byte	0x3e
 4465 11e1 EF110000 		.4byte	0x11ef
 4466 11e5 04       		.byte	0x4
 4467 11e6 01       		.byte	0x1
 4468 11e7 1E       		.byte	0x1e
 4469 11e8 18       		.byte	0x18
 4470 11e9 00       		.byte	0
 4471 11ea 20       		.uleb128 0x20
 4472 11eb 9F000000 		.4byte	0x9f
 4473 11ef 20       		.uleb128 0x20
 4474 11f0 E4000000 		.4byte	0xe4
 4475 11f4 02       		.uleb128 0x2
 4476 11f5 58000000 		.4byte	.LASF311
 4477 11f9 1A       		.byte	0x1a
 4478 11fa 3F       		.byte	0x3f
 4479 11fb 77110000 		.4byte	0x1177
 4480 11ff 0A       		.uleb128 0xa
 4481 1200 0E290000 		.4byte	.LASF312
 4482 1204 50       		.byte	0x50
 4483 1205 1A       		.byte	0x1a
 4484 1206 4D       		.byte	0x4d
 4485 1207 7D130000 		.4byte	0x137d
 4486 120b 07       		.uleb128 0x7
 4487 120c 7A080000 		.4byte	.LASF313
 4488 1210 1A       		.byte	0x1a
 4489 1211 4F       		.byte	0x4f
 4490 1212 01010000 		.4byte	0x101
 4491 1216 00       		.byte	0
 4492 1217 07       		.uleb128 0x7
 4493 1218 B5040000 		.4byte	.LASF314
 4494 121c 1A       		.byte	0x1a
 4495 121d 50       		.byte	0x50
 4496 121e 01010000 		.4byte	0x101
 4497 1222 02       		.byte	0x2
 4498 1223 07       		.uleb128 0x7
 4499 1224 8D1E0000 		.4byte	.LASF315
 4500 1228 1A       		.byte	0x1a
 4501 1229 53       		.byte	0x53
 4502 122a 01010000 		.4byte	0x101
 4503 122e 04       		.byte	0x4
 4504 122f 07       		.uleb128 0x7
 4505 1230 F60A0000 		.4byte	.LASF316
 4506 1234 1A       		.byte	0x1a
 4507 1235 55       		.byte	0x55
 4508 1236 01010000 		.4byte	0x101
 4509 123a 06       		.byte	0x6
 4510 123b 07       		.uleb128 0x7
 4511 123c FF130000 		.4byte	.LASF317
 4512 1240 1A       		.byte	0x1a
 4513 1241 57       		.byte	0x57
 4514 1242 01010000 		.4byte	0x101
 4515 1246 08       		.byte	0x8
 4516 1247 07       		.uleb128 0x7
 4517 1248 08140000 		.4byte	.LASF318
ARM GAS  C:\Users\haske\AppData\Local\Temp\cc1ymag8.s 			page 108


 4518 124c 1A       		.byte	0x1a
 4519 124d 58       		.byte	0x58
 4520 124e 01010000 		.4byte	0x101
 4521 1252 0A       		.byte	0xa
 4522 1253 07       		.uleb128 0x7
 4523 1254 3F210000 		.4byte	.LASF319
 4524 1258 1A       		.byte	0x1a
 4525 1259 5C       		.byte	0x5c
 4526 125a 7D130000 		.4byte	0x137d
 4527 125e 0C       		.byte	0xc
 4528 125f 09       		.uleb128 0x9
 4529 1260 CC0C0000 		.4byte	.LASF320
 4530 1264 1A       		.byte	0x1a
 4531 1265 5E       		.byte	0x5e
 4532 1266 E4000000 		.4byte	0xe4
 4533 126a 04       		.byte	0x4
 4534 126b 01       		.byte	0x1
 4535 126c 1F       		.byte	0x1f
 4536 126d 10       		.byte	0x10
 4537 126e 09       		.uleb128 0x9
 4538 126f 77110000 		.4byte	.LASF321
 4539 1273 1A       		.byte	0x1a
 4540 1274 5F       		.byte	0x5f
 4541 1275 E4000000 		.4byte	0xe4
 4542 1279 04       		.byte	0x4
 4543 127a 01       		.byte	0x1
 4544 127b 1E       		.byte	0x1e
 4545 127c 10       		.byte	0x10
 4546 127d 09       		.uleb128 0x9
 4547 127e EE0F0000 		.4byte	.LASF322
 4548 1282 1A       		.byte	0x1a
 4549 1283 60       		.byte	0x60
 4550 1284 E4000000 		.4byte	0xe4
 4551 1288 04       		.byte	0x4
 4552 1289 01       		.byte	0x1
 4553 128a 1D       		.byte	0x1d
 4554 128b 10       		.byte	0x10
 4555 128c 09       		.uleb128 0x9
 4556 128d 200D0000 		.4byte	.LASF323
 4557 1291 1A       		.byte	0x1a
 4558 1292 61       		.byte	0x61
 4559 1293 E4000000 		.4byte	0xe4
 4560 1297 04       		.byte	0x4
 4561 1298 01       		.byte	0x1
 4562 1299 1C       		.byte	0x1c
 4563 129a 10       		.byte	0x10
 4564 129b 09       		.uleb128 0x9
 4565 129c 1A060000 		.4byte	.LASF324
 4566 12a0 1A       		.byte	0x1a
 4567 12a1 62       		.byte	0x62
 4568 12a2 E4000000 		.4byte	0xe4
 4569 12a6 04       		.byte	0x4
 4570 12a7 02       		.byte	0x2
 4571 12a8 1A       		.byte	0x1a
 4572 12a9 10       		.byte	0x10
 4573 12aa 09       		.uleb128 0x9
 4574 12ab B7240000 		.4byte	.LASF262
ARM GAS  C:\Users\haske\AppData\Local\Temp\cc1ymag8.s 			page 109


 4575 12af 1A       		.byte	0x1a
 4576 12b0 63       		.byte	0x63
 4577 12b1 E4000000 		.4byte	0xe4
 4578 12b5 04       		.byte	0x4
 4579 12b6 01       		.byte	0x1
 4580 12b7 19       		.byte	0x19
 4581 12b8 10       		.byte	0x10
 4582 12b9 08       		.uleb128 0x8
 4583 12ba 64706900 		.ascii	"dpi\000"
 4584 12be 1A       		.byte	0x1a
 4585 12bf 66       		.byte	0x66
 4586 12c0 E4000000 		.4byte	0xe4
 4587 12c4 04       		.byte	0x4
 4588 12c5 0A       		.byte	0xa
 4589 12c6 0F       		.byte	0xf
 4590 12c7 10       		.byte	0x10
 4591 12c8 07       		.uleb128 0x7
 4592 12c9 0F280000 		.4byte	.LASF325
 4593 12cd 1A       		.byte	0x1a
 4594 12ce 6A       		.byte	0x6a
 4595 12cf 9E130000 		.4byte	0x139e
 4596 12d3 14       		.byte	0x14
 4597 12d4 07       		.uleb128 0x7
 4598 12d5 4F210000 		.4byte	.LASF326
 4599 12d9 1A       		.byte	0x1a
 4600 12da 6E       		.byte	0x6e
 4601 12db B4130000 		.4byte	0x13b4
 4602 12df 18       		.byte	0x18
 4603 12e0 07       		.uleb128 0x7
 4604 12e1 E9250000 		.4byte	.LASF327
 4605 12e5 1A       		.byte	0x1a
 4606 12e6 73       		.byte	0x73
 4607 12e7 E3130000 		.4byte	0x13e3
 4608 12eb 1C       		.byte	0x1c
 4609 12ec 07       		.uleb128 0x7
 4610 12ed 6B120000 		.4byte	.LASF328
 4611 12f1 1A       		.byte	0x1a
 4612 12f2 76       		.byte	0x76
 4613 12f3 FE130000 		.4byte	0x13fe
 4614 12f7 20       		.byte	0x20
 4615 12f8 07       		.uleb128 0x7
 4616 12f9 8B180000 		.4byte	.LASF329
 4617 12fd 1A       		.byte	0x1a
 4618 12fe 7B       		.byte	0x7b
 4619 12ff 19140000 		.4byte	0x1419
 4620 1303 24       		.byte	0x24
 4621 1304 07       		.uleb128 0x7
 4622 1305 82160000 		.4byte	.LASF330
 4623 1309 1A       		.byte	0x1a
 4624 130a 80       		.byte	0x80
 4625 130b 2A140000 		.4byte	0x142a
 4626 130f 28       		.byte	0x28
 4627 1310 07       		.uleb128 0x7
 4628 1311 86290000 		.4byte	.LASF331
 4629 1315 1A       		.byte	0x1a
 4630 1316 83       		.byte	0x83
 4631 1317 2A140000 		.4byte	0x142a
ARM GAS  C:\Users\haske\AppData\Local\Temp\cc1ymag8.s 			page 110


 4632 131b 2C       		.byte	0x2c
 4633 131c 07       		.uleb128 0x7
 4634 131d 4B1E0000 		.4byte	.LASF332
 4635 1321 1A       		.byte	0x1a
 4636 1322 86       		.byte	0x86
 4637 1323 2A140000 		.4byte	0x142a
 4638 1327 30       		.byte	0x30
 4639 1328 07       		.uleb128 0x7
 4640 1329 3B1E0000 		.4byte	.LASF333
 4641 132d 1A       		.byte	0x1a
 4642 132e 89       		.byte	0x89
 4643 132f 2A140000 		.4byte	0x142a
 4644 1333 34       		.byte	0x34
 4645 1334 07       		.uleb128 0x7
 4646 1335 3A000000 		.4byte	.LASF334
 4647 1339 1A       		.byte	0x1a
 4648 133a 8D       		.byte	0x8d
 4649 133b 8D030000 		.4byte	0x38d
 4650 133f 38       		.byte	0x38
 4651 1340 07       		.uleb128 0x7
 4652 1341 6D260000 		.4byte	.LASF335
 4653 1345 1A       		.byte	0x1a
 4654 1346 8F       		.byte	0x8f
 4655 1347 30140000 		.4byte	0x1430
 4656 134b 3C       		.byte	0x3c
 4657 134c 07       		.uleb128 0x7
 4658 134d 3E150000 		.4byte	.LASF336
 4659 1351 1A       		.byte	0x1a
 4660 1352 90       		.byte	0x90
 4661 1353 46140000 		.4byte	0x1446
 4662 1357 40       		.byte	0x40
 4663 1358 07       		.uleb128 0x7
 4664 1359 37060000 		.4byte	.LASF337
 4665 135d 1A       		.byte	0x1a
 4666 135e 91       		.byte	0x91
 4667 135f 46140000 		.4byte	0x1446
 4668 1363 44       		.byte	0x44
 4669 1364 07       		.uleb128 0x7
 4670 1365 51020000 		.4byte	.LASF338
 4671 1369 1A       		.byte	0x1a
 4672 136a 92       		.byte	0x92
 4673 136b EF000000 		.4byte	0xef
 4674 136f 48       		.byte	0x48
 4675 1370 07       		.uleb128 0x7
 4676 1371 2F280000 		.4byte	.LASF42
 4677 1375 1A       		.byte	0x1a
 4678 1376 95       		.byte	0x95
 4679 1377 E9020000 		.4byte	0x2e9
 4680 137b 4C       		.byte	0x4c
 4681 137c 00       		.byte	0
 4682 137d 0B       		.uleb128 0xb
 4683 137e 04       		.byte	0x4
 4684 137f F4110000 		.4byte	0x11f4
 4685 1383 1F       		.uleb128 0x1f
 4686 1384 98130000 		.4byte	0x1398
 4687 1388 0E       		.uleb128 0xe
 4688 1389 98130000 		.4byte	0x1398
ARM GAS  C:\Users\haske\AppData\Local\Temp\cc1ymag8.s 			page 111


 4689 138d 0E       		.uleb128 0xe
 4690 138e F90C0000 		.4byte	0xcf9
 4691 1392 0E       		.uleb128 0xe
 4692 1393 C7080000 		.4byte	0x8c7
 4693 1397 00       		.byte	0
 4694 1398 0B       		.uleb128 0xb
 4695 1399 04       		.byte	0x4
 4696 139a FF110000 		.4byte	0x11ff
 4697 139e 0B       		.uleb128 0xb
 4698 139f 04       		.byte	0x4
 4699 13a0 83130000 		.4byte	0x1383
 4700 13a4 1F       		.uleb128 0x1f
 4701 13a5 B4130000 		.4byte	0x13b4
 4702 13a9 0E       		.uleb128 0xe
 4703 13aa 98130000 		.4byte	0x1398
 4704 13ae 0E       		.uleb128 0xe
 4705 13af 040D0000 		.4byte	0xd04
 4706 13b3 00       		.byte	0
 4707 13b4 0B       		.uleb128 0xb
 4708 13b5 04       		.byte	0x4
 4709 13b6 A4130000 		.4byte	0x13a4
 4710 13ba 1F       		.uleb128 0x1f
 4711 13bb E3130000 		.4byte	0x13e3
 4712 13bf 0E       		.uleb128 0xe
 4713 13c0 98130000 		.4byte	0x1398
 4714 13c4 0E       		.uleb128 0xe
 4715 13c5 94070000 		.4byte	0x794
 4716 13c9 0E       		.uleb128 0xe
 4717 13ca 01010000 		.4byte	0x101
 4718 13ce 0E       		.uleb128 0xe
 4719 13cf 01010000 		.4byte	0x101
 4720 13d3 0E       		.uleb128 0xe
 4721 13d4 01010000 		.4byte	0x101
 4722 13d8 0E       		.uleb128 0xe
 4723 13d9 8D030000 		.4byte	0x38d
 4724 13dd 0E       		.uleb128 0xe
 4725 13de 98030000 		.4byte	0x398
 4726 13e2 00       		.byte	0
 4727 13e3 0B       		.uleb128 0xb
 4728 13e4 04       		.byte	0x4
 4729 13e5 BA130000 		.4byte	0x13ba
 4730 13e9 1F       		.uleb128 0x1f
 4731 13ea FE130000 		.4byte	0x13fe
 4732 13ee 0E       		.uleb128 0xe
 4733 13ef 98130000 		.4byte	0x1398
 4734 13f3 0E       		.uleb128 0xe
 4735 13f4 94070000 		.4byte	0x794
 4736 13f8 0E       		.uleb128 0xe
 4737 13f9 E4000000 		.4byte	0xe4
 4738 13fd 00       		.byte	0
 4739 13fe 0B       		.uleb128 0xb
 4740 13ff 04       		.byte	0x4
 4741 1400 E9130000 		.4byte	0x13e9
 4742 1404 1F       		.uleb128 0x1f
 4743 1405 19140000 		.4byte	0x1419
 4744 1409 0E       		.uleb128 0xe
 4745 140a 98130000 		.4byte	0x1398
ARM GAS  C:\Users\haske\AppData\Local\Temp\cc1ymag8.s 			page 112


 4746 140e 0E       		.uleb128 0xe
 4747 140f E4000000 		.4byte	0xe4
 4748 1413 0E       		.uleb128 0xe
 4749 1414 E4000000 		.4byte	0xe4
 4750 1418 00       		.byte	0
 4751 1419 0B       		.uleb128 0xb
 4752 141a 04       		.byte	0x4
 4753 141b 04140000 		.4byte	0x1404
 4754 141f 1F       		.uleb128 0x1f
 4755 1420 2A140000 		.4byte	0x142a
 4756 1424 0E       		.uleb128 0xe
 4757 1425 98130000 		.4byte	0x1398
 4758 1429 00       		.byte	0
 4759 142a 0B       		.uleb128 0xb
 4760 142b 04       		.byte	0x4
 4761 142c 1F140000 		.4byte	0x141f
 4762 1430 0B       		.uleb128 0xb
 4763 1431 04       		.byte	0x4
 4764 1432 9E100000 		.4byte	0x109e
 4765 1436 1F       		.uleb128 0x1f
 4766 1437 46140000 		.4byte	0x1446
 4767 143b 0E       		.uleb128 0xe
 4768 143c 98130000 		.4byte	0x1398
 4769 1440 0E       		.uleb128 0xe
 4770 1441 30140000 		.4byte	0x1430
 4771 1445 00       		.byte	0
 4772 1446 0B       		.uleb128 0xb
 4773 1447 04       		.byte	0x4
 4774 1448 36140000 		.4byte	0x1436
 4775 144c 21       		.uleb128 0x21
 4776 144d 601A0000 		.4byte	.LASF339
 4777 1451 5C01     		.2byte	0x15c
 4778 1453 1A       		.byte	0x1a
 4779 1454 9E       		.byte	0x9e
 4780 1455 63150000 		.4byte	0x1563
 4781 1459 07       		.uleb128 0x7
 4782 145a DC220000 		.4byte	.LASF340
 4783 145e 1A       		.byte	0x1a
 4784 145f A0       		.byte	0xa0
 4785 1460 98130000 		.4byte	0x1398
 4786 1464 00       		.byte	0
 4787 1465 07       		.uleb128 0x7
 4788 1466 7C060000 		.4byte	.LASF341
 4789 146a 1A       		.byte	0x1a
 4790 146b A3       		.byte	0xa3
 4791 146c 63150000 		.4byte	0x1563
 4792 1470 04       		.byte	0x4
 4793 1471 07       		.uleb128 0x7
 4794 1472 F9130000 		.4byte	.LASF342
 4795 1476 1A       		.byte	0x1a
 4796 1477 A6       		.byte	0xa6
 4797 1478 EE150000 		.4byte	0x15ee
 4798 147c 08       		.byte	0x8
 4799 147d 07       		.uleb128 0x7
 4800 147e DF040000 		.4byte	.LASF343
 4801 1482 1A       		.byte	0x1a
 4802 1483 A9       		.byte	0xa9
ARM GAS  C:\Users\haske\AppData\Local\Temp\cc1ymag8.s 			page 113


 4803 1484 F4150000 		.4byte	0x15f4
 4804 1488 0C       		.byte	0xc
 4805 1489 07       		.uleb128 0x7
 4806 148a 0C010000 		.4byte	.LASF344
 4807 148e 1A       		.byte	0x1a
 4808 148f AA       		.byte	0xaa
 4809 1490 FA070000 		.4byte	0x7fa
 4810 1494 10       		.byte	0x10
 4811 1495 07       		.uleb128 0x7
 4812 1496 58230000 		.4byte	.LASF345
 4813 149a 1A       		.byte	0x1a
 4814 149b AB       		.byte	0xab
 4815 149c FA070000 		.4byte	0x7fa
 4816 14a0 14       		.byte	0x14
 4817 14a1 07       		.uleb128 0x7
 4818 14a2 4D070000 		.4byte	.LASF346
 4819 14a6 1A       		.byte	0x1a
 4820 14a7 AC       		.byte	0xac
 4821 14a8 FA070000 		.4byte	0x7fa
 4822 14ac 18       		.byte	0x18
 4823 14ad 07       		.uleb128 0x7
 4824 14ae 71090000 		.4byte	.LASF347
 4825 14b2 1A       		.byte	0x1a
 4826 14b3 AD       		.byte	0xad
 4827 14b4 FA070000 		.4byte	0x7fa
 4828 14b8 1C       		.byte	0x1c
 4829 14b9 07       		.uleb128 0x7
 4830 14ba FF1E0000 		.4byte	.LASF348
 4831 14be 1A       		.byte	0x1a
 4832 14bf AE       		.byte	0xae
 4833 14c0 FA070000 		.4byte	0x7fa
 4834 14c4 20       		.byte	0x20
 4835 14c5 07       		.uleb128 0x7
 4836 14c6 14010000 		.4byte	.LASF349
 4837 14ca 1A       		.byte	0x1a
 4838 14cb AF       		.byte	0xaf
 4839 14cc E4000000 		.4byte	0xe4
 4840 14d0 24       		.byte	0x24
 4841 14d1 09       		.uleb128 0x9
 4842 14d2 BA130000 		.4byte	.LASF350
 4843 14d6 1A       		.byte	0x1a
 4844 14d7 B0       		.byte	0xb0
 4845 14d8 B8000000 		.4byte	0xb8
 4846 14dc 01       		.byte	0x1
 4847 14dd 01       		.byte	0x1
 4848 14de 07       		.byte	0x7
 4849 14df 28       		.byte	0x28
 4850 14e0 09       		.uleb128 0x9
 4851 14e1 1D250000 		.4byte	.LASF351
 4852 14e5 1A       		.byte	0x1a
 4853 14e6 B2       		.byte	0xb2
 4854 14e7 B8000000 		.4byte	0xb8
 4855 14eb 01       		.byte	0x1
 4856 14ec 01       		.byte	0x1
 4857 14ed 06       		.byte	0x6
 4858 14ee 28       		.byte	0x28
 4859 14ef 09       		.uleb128 0x9
ARM GAS  C:\Users\haske\AppData\Local\Temp\cc1ymag8.s 			page 114


 4860 14f0 B40A0000 		.4byte	.LASF352
 4861 14f4 1A       		.byte	0x1a
 4862 14f5 B4       		.byte	0xb4
 4863 14f6 B8000000 		.4byte	0xb8
 4864 14fa 01       		.byte	0x1
 4865 14fb 01       		.byte	0x1
 4866 14fc 05       		.byte	0x5
 4867 14fd 28       		.byte	0x28
 4868 14fe 07       		.uleb128 0x7
 4869 14ff 75060000 		.4byte	.LASF199
 4870 1503 1A       		.byte	0x1a
 4871 1504 B6       		.byte	0xb6
 4872 1505 98030000 		.4byte	0x398
 4873 1509 29       		.byte	0x29
 4874 150a 07       		.uleb128 0x7
 4875 150b FE010000 		.4byte	.LASF200
 4876 150f 1A       		.byte	0x1a
 4877 1510 B7       		.byte	0xb7
 4878 1511 8D030000 		.4byte	0x38d
 4879 1515 2A       		.byte	0x2a
 4880 1516 07       		.uleb128 0x7
 4881 1517 35250000 		.4byte	.LASF353
 4882 151b 1A       		.byte	0x1a
 4883 151c B8       		.byte	0xb8
 4884 151d E2020000 		.4byte	0x2e2
 4885 1521 2C       		.byte	0x2c
 4886 1522 07       		.uleb128 0x7
 4887 1523 A31A0000 		.4byte	.LASF354
 4888 1527 1A       		.byte	0x1a
 4889 1528 BB       		.byte	0xbb
 4890 1529 FA150000 		.4byte	0x15fa
 4891 152d 30       		.byte	0x30
 4892 152e 22       		.uleb128 0x22
 4893 152f 1C070000 		.4byte	.LASF355
 4894 1533 1A       		.byte	0x1a
 4895 1534 BC       		.byte	0xbc
 4896 1535 0A160000 		.4byte	0x160a
 4897 1539 3001     		.2byte	0x130
 4898 153b 22       		.uleb128 0x22
 4899 153c C8230000 		.4byte	.LASF356
 4900 1540 1A       		.byte	0x1a
 4901 1541 BD       		.byte	0xbd
 4902 1542 CE000000 		.4byte	0xce
 4903 1546 5001     		.2byte	0x150
 4904 1548 22       		.uleb128 0x22
 4905 1549 AC240000 		.4byte	.LASF357
 4906 154d 1A       		.byte	0x1a
 4907 154e BE       		.byte	0xbe
 4908 154f D9000000 		.4byte	0xd9
 4909 1553 5401     		.2byte	0x154
 4910 1555 22       		.uleb128 0x22
 4911 1556 E1050000 		.4byte	.LASF358
 4912 155a 1A       		.byte	0x1a
 4913 155b C1       		.byte	0xc1
 4914 155c E4000000 		.4byte	0xe4
 4915 1560 5801     		.2byte	0x158
 4916 1562 00       		.byte	0
ARM GAS  C:\Users\haske\AppData\Local\Temp\cc1ymag8.s 			page 115


 4917 1563 0B       		.uleb128 0xb
 4918 1564 04       		.byte	0x4
 4919 1565 6C110000 		.4byte	0x116c
 4920 1569 0A       		.uleb128 0xa
 4921 156a 06230000 		.4byte	.LASF359
 4922 156e 24       		.byte	0x24
 4923 156f 1B       		.byte	0x1b
 4924 1570 1F       		.byte	0x1f
 4925 1571 EE150000 		.4byte	0x15ee
 4926 1575 07       		.uleb128 0x7
 4927 1576 1B270000 		.4byte	.LASF360
 4928 157a 1B       		.byte	0x1b
 4929 157b 20       		.byte	0x20
 4930 157c 37230000 		.4byte	0x2337
 4931 1580 00       		.byte	0
 4932 1581 07       		.uleb128 0x7
 4933 1582 70110000 		.4byte	.LASF185
 4934 1586 1B       		.byte	0x1b
 4935 1587 21       		.byte	0x21
 4936 1588 EE150000 		.4byte	0x15ee
 4937 158c 04       		.byte	0x4
 4938 158d 07       		.uleb128 0x7
 4939 158e 2F280000 		.4byte	.LASF42
 4940 1592 1B       		.byte	0x1b
 4941 1593 22       		.byte	0x22
 4942 1594 E9020000 		.4byte	0x2e9
 4943 1598 08       		.byte	0x8
 4944 1599 07       		.uleb128 0x7
 4945 159a 8C190000 		.4byte	.LASF361
 4946 159e 1B       		.byte	0x1b
 4947 159f 23       		.byte	0x23
 4948 15a0 A5170000 		.4byte	0x17a5
 4949 15a4 0C       		.byte	0xc
 4950 15a5 07       		.uleb128 0x7
 4951 15a6 B8010000 		.4byte	.LASF362
 4952 15aa 1B       		.byte	0x1b
 4953 15ab 24       		.byte	0x24
 4954 15ac 8D030000 		.4byte	0x38d
 4955 15b0 10       		.byte	0x10
 4956 15b1 07       		.uleb128 0x7
 4957 15b2 F7020000 		.4byte	.LASF363
 4958 15b6 1B       		.byte	0x1b
 4959 15b7 25       		.byte	0x25
 4960 15b8 8D030000 		.4byte	0x38d
 4961 15bc 12       		.byte	0x12
 4962 15bd 07       		.uleb128 0x7
 4963 15be 5F100000 		.4byte	.LASF364
 4964 15c2 1B       		.byte	0x1b
 4965 15c3 26       		.byte	0x26
 4966 15c4 EE0A0000 		.4byte	0xaee
 4967 15c8 14       		.byte	0x14
 4968 15c9 07       		.uleb128 0x7
 4969 15ca 82280000 		.4byte	.LASF365
 4970 15ce 1B       		.byte	0x1b
 4971 15cf 27       		.byte	0x27
 4972 15d0 EE0A0000 		.4byte	0xaee
 4973 15d4 18       		.byte	0x18
ARM GAS  C:\Users\haske\AppData\Local\Temp\cc1ymag8.s 			page 116


 4974 15d5 07       		.uleb128 0x7
 4975 15d6 491C0000 		.4byte	.LASF366
 4976 15da 1B       		.byte	0x1b
 4977 15db 28       		.byte	0x28
 4978 15dc EE0A0000 		.4byte	0xaee
 4979 15e0 1C       		.byte	0x1c
 4980 15e1 07       		.uleb128 0x7
 4981 15e2 E90B0000 		.4byte	.LASF189
 4982 15e6 1B       		.byte	0x1b
 4983 15e7 29       		.byte	0x29
 4984 15e8 E4000000 		.4byte	0xe4
 4985 15ec 20       		.byte	0x20
 4986 15ed 00       		.byte	0
 4987 15ee 0B       		.uleb128 0xb
 4988 15ef 04       		.byte	0x4
 4989 15f0 69150000 		.4byte	0x1569
 4990 15f4 0B       		.uleb128 0xb
 4991 15f5 04       		.byte	0x4
 4992 15f6 FA070000 		.4byte	0x7fa
 4993 15fa 16       		.uleb128 0x16
 4994 15fb 69010000 		.4byte	0x169
 4995 15ff 0A160000 		.4byte	0x160a
 4996 1603 17       		.uleb128 0x17
 4997 1604 1A030000 		.4byte	0x31a
 4998 1608 1F       		.byte	0x1f
 4999 1609 00       		.byte	0
 5000 160a 16       		.uleb128 0x16
 5001 160b B8000000 		.4byte	0xb8
 5002 160f 1A160000 		.4byte	0x161a
 5003 1613 17       		.uleb128 0x17
 5004 1614 1A030000 		.4byte	0x31a
 5005 1618 1F       		.byte	0x1f
 5006 1619 00       		.byte	0
 5007 161a 11       		.uleb128 0x11
 5008 161b 01       		.byte	0x1
 5009 161c 42000000 		.4byte	0x42
 5010 1620 1C       		.byte	0x1c
 5011 1621 3E       		.byte	0x3e
 5012 1622 45160000 		.4byte	0x1645
 5013 1626 12       		.uleb128 0x12
 5014 1627 FC270000 		.4byte	.LASF367
 5015 162b 00       		.byte	0
 5016 162c 12       		.uleb128 0x12
 5017 162d DB1C0000 		.4byte	.LASF368
 5018 1631 01       		.byte	0x1
 5019 1632 12       		.uleb128 0x12
 5020 1633 C4200000 		.4byte	.LASF369
 5021 1637 02       		.byte	0x2
 5022 1638 12       		.uleb128 0x12
 5023 1639 4F160000 		.4byte	.LASF370
 5024 163d 03       		.byte	0x3
 5025 163e 12       		.uleb128 0x12
 5026 163f 78000000 		.4byte	.LASF371
 5027 1643 04       		.byte	0x4
 5028 1644 00       		.byte	0
 5029 1645 02       		.uleb128 0x2
 5030 1646 FD150000 		.4byte	.LASF372
ARM GAS  C:\Users\haske\AppData\Local\Temp\cc1ymag8.s 			page 117


 5031 164a 1C       		.byte	0x1c
 5032 164b 44       		.byte	0x44
 5033 164c 1A160000 		.4byte	0x161a
 5034 1650 11       		.uleb128 0x11
 5035 1651 01       		.byte	0x1
 5036 1652 42000000 		.4byte	0x42
 5037 1656 1C       		.byte	0x1c
 5038 1657 47       		.byte	0x47
 5039 1658 69160000 		.4byte	0x1669
 5040 165c 12       		.uleb128 0x12
 5041 165d 2F0A0000 		.4byte	.LASF373
 5042 1661 00       		.byte	0
 5043 1662 12       		.uleb128 0x12
 5044 1663 76150000 		.4byte	.LASF374
 5045 1667 01       		.byte	0x1
 5046 1668 00       		.byte	0
 5047 1669 02       		.uleb128 0x2
 5048 166a C90F0000 		.4byte	.LASF375
 5049 166e 1C       		.byte	0x1c
 5050 166f 4A       		.byte	0x4a
 5051 1670 50160000 		.4byte	0x1650
 5052 1674 05       		.uleb128 0x5
 5053 1675 10       		.byte	0x10
 5054 1676 1C       		.byte	0x1c
 5055 1677 4D       		.byte	0x4d
 5056 1678 C5160000 		.4byte	0x16c5
 5057 167c 07       		.uleb128 0x7
 5058 167d 5D040000 		.4byte	.LASF376
 5059 1681 1C       		.byte	0x1c
 5060 1682 4E       		.byte	0x4e
 5061 1683 29010000 		.4byte	0x129
 5062 1687 00       		.byte	0
 5063 1688 06       		.uleb128 0x6
 5064 1689 6B657900 		.ascii	"key\000"
 5065 168d 1C       		.byte	0x1c
 5066 168e 4F       		.byte	0x4f
 5067 168f E4000000 		.4byte	0xe4
 5068 1693 04       		.byte	0x4
 5069 1694 07       		.uleb128 0x7
 5070 1695 5D0C0000 		.4byte	.LASF377
 5071 1699 1C       		.byte	0x1c
 5072 169a 50       		.byte	0x50
 5073 169b E4000000 		.4byte	0xe4
 5074 169f 08       		.byte	0x8
 5075 16a0 07       		.uleb128 0x7
 5076 16a1 191A0000 		.4byte	.LASF378
 5077 16a5 1C       		.byte	0x1c
 5078 16a6 51       		.byte	0x51
 5079 16a7 C3000000 		.4byte	0xc3
 5080 16ab 0C       		.byte	0xc
 5081 16ac 07       		.uleb128 0x7
 5082 16ad E1020000 		.4byte	.LASF190
 5083 16b1 1C       		.byte	0x1c
 5084 16b2 53       		.byte	0x53
 5085 16b3 69160000 		.4byte	0x1669
 5086 16b7 0E       		.byte	0xe
 5087 16b8 07       		.uleb128 0x7
ARM GAS  C:\Users\haske\AppData\Local\Temp\cc1ymag8.s 			page 118


 5088 16b9 EF120000 		.4byte	.LASF379
 5089 16bd 1C       		.byte	0x1c
 5090 16be 54       		.byte	0x54
 5091 16bf AA020000 		.4byte	0x2aa
 5092 16c3 0F       		.byte	0xf
 5093 16c4 00       		.byte	0
 5094 16c5 02       		.uleb128 0x2
 5095 16c6 3D260000 		.4byte	.LASF380
 5096 16ca 1C       		.byte	0x1c
 5097 16cb 55       		.byte	0x55
 5098 16cc 74160000 		.4byte	0x1674
 5099 16d0 0A       		.uleb128 0xa
 5100 16d1 07040000 		.4byte	.LASF381
 5101 16d5 20       		.byte	0x20
 5102 16d6 1C       		.byte	0x1c
 5103 16d7 58       		.byte	0x58
 5104 16d8 6D170000 		.4byte	0x176d
 5105 16dc 07       		.uleb128 0x7
 5106 16dd 8F030000 		.4byte	.LASF382
 5107 16e1 1C       		.byte	0x1c
 5108 16e2 5B       		.byte	0x5b
 5109 16e3 45160000 		.4byte	0x1645
 5110 16e7 00       		.byte	0
 5111 16e8 07       		.uleb128 0x7
 5112 16e9 92070000 		.4byte	.LASF383
 5113 16ed 1C       		.byte	0x1c
 5114 16ee 5E       		.byte	0x5e
 5115 16ef 89170000 		.4byte	0x1789
 5116 16f3 04       		.byte	0x4
 5117 16f4 07       		.uleb128 0x7
 5118 16f5 A41D0000 		.4byte	.LASF384
 5119 16f9 1C       		.byte	0x1c
 5120 16fa 62       		.byte	0x62
 5121 16fb 9F170000 		.4byte	0x179f
 5122 16ff 08       		.byte	0x8
 5123 1700 07       		.uleb128 0x7
 5124 1701 2F280000 		.4byte	.LASF42
 5125 1705 1C       		.byte	0x1c
 5126 1706 65       		.byte	0x65
 5127 1707 E9020000 		.4byte	0x2e9
 5128 170b 0C       		.byte	0xc
 5129 170c 07       		.uleb128 0x7
 5130 170d 8C190000 		.4byte	.LASF361
 5131 1711 1C       		.byte	0x1c
 5132 1712 69       		.byte	0x69
 5133 1713 A5170000 		.4byte	0x17a5
 5134 1717 10       		.byte	0x10
 5135 1718 07       		.uleb128 0x7
 5136 1719 351C0000 		.4byte	.LASF385
 5137 171d 1C       		.byte	0x1c
 5138 171e 6C       		.byte	0x6c
 5139 171f 63150000 		.4byte	0x1563
 5140 1723 14       		.byte	0x14
 5141 1724 07       		.uleb128 0x7
 5142 1725 BB220000 		.4byte	.LASF386
 5143 1729 1C       		.byte	0x1c
 5144 172a 6F       		.byte	0x6f
ARM GAS  C:\Users\haske\AppData\Local\Temp\cc1ymag8.s 			page 119


 5145 172b B8000000 		.4byte	0xb8
 5146 172f 18       		.byte	0x18
 5147 1730 07       		.uleb128 0x7
 5148 1731 CC1D0000 		.4byte	.LASF387
 5149 1735 1C       		.byte	0x1c
 5150 1736 72       		.byte	0x72
 5151 1737 B8000000 		.4byte	0xb8
 5152 173b 19       		.byte	0x19
 5153 173c 07       		.uleb128 0x7
 5154 173d AA270000 		.4byte	.LASF388
 5155 1741 1C       		.byte	0x1c
 5156 1742 75       		.byte	0x75
 5157 1743 B8000000 		.4byte	0xb8
 5158 1747 1A       		.byte	0x1a
 5159 1748 07       		.uleb128 0x7
 5160 1749 A0290000 		.4byte	.LASF389
 5161 174d 1C       		.byte	0x1c
 5162 174e 78       		.byte	0x78
 5163 174f B8000000 		.4byte	0xb8
 5164 1753 1B       		.byte	0x1b
 5165 1754 07       		.uleb128 0x7
 5166 1755 C91E0000 		.4byte	.LASF390
 5167 1759 1C       		.byte	0x1c
 5168 175a 7B       		.byte	0x7b
 5169 175b CE000000 		.4byte	0xce
 5170 175f 1C       		.byte	0x1c
 5171 1760 07       		.uleb128 0x7
 5172 1761 F3250000 		.4byte	.LASF391
 5173 1765 1C       		.byte	0x1c
 5174 1766 7E       		.byte	0x7e
 5175 1767 CE000000 		.4byte	0xce
 5176 176b 1E       		.byte	0x1e
 5177 176c 00       		.byte	0
 5178 176d 1F       		.uleb128 0x1f
 5179 176e 7D170000 		.4byte	0x177d
 5180 1772 0E       		.uleb128 0xe
 5181 1773 7D170000 		.4byte	0x177d
 5182 1777 0E       		.uleb128 0xe
 5183 1778 83170000 		.4byte	0x1783
 5184 177c 00       		.byte	0
 5185 177d 0B       		.uleb128 0xb
 5186 177e 04       		.byte	0x4
 5187 177f D0160000 		.4byte	0x16d0
 5188 1783 0B       		.uleb128 0xb
 5189 1784 04       		.byte	0x4
 5190 1785 C5160000 		.4byte	0x16c5
 5191 1789 0B       		.uleb128 0xb
 5192 178a 04       		.byte	0x4
 5193 178b 6D170000 		.4byte	0x176d
 5194 178f 1F       		.uleb128 0x1f
 5195 1790 9F170000 		.4byte	0x179f
 5196 1794 0E       		.uleb128 0xe
 5197 1795 7D170000 		.4byte	0x177d
 5198 1799 0E       		.uleb128 0xe
 5199 179a B8000000 		.4byte	0xb8
 5200 179e 00       		.byte	0
 5201 179f 0B       		.uleb128 0xb
ARM GAS  C:\Users\haske\AppData\Local\Temp\cc1ymag8.s 			page 120


 5202 17a0 04       		.byte	0x4
 5203 17a1 8F170000 		.4byte	0x178f
 5204 17a5 0B       		.uleb128 0xb
 5205 17a6 04       		.byte	0x4
 5206 17a7 4C140000 		.4byte	0x144c
 5207 17ab 05       		.uleb128 0x5
 5208 17ac 40       		.byte	0x40
 5209 17ad 1C       		.byte	0x1c
 5210 17ae 8D       		.byte	0x8d
 5211 17af 89180000 		.4byte	0x1889
 5212 17b3 07       		.uleb128 0x7
 5213 17b4 EC230000 		.4byte	.LASF392
 5214 17b8 1C       		.byte	0x1c
 5215 17b9 8F       		.byte	0x8f
 5216 17ba 29010000 		.4byte	0x129
 5217 17be 00       		.byte	0
 5218 17bf 07       		.uleb128 0x7
 5219 17c0 76190000 		.4byte	.LASF393
 5220 17c4 1C       		.byte	0x1c
 5221 17c5 90       		.byte	0x90
 5222 17c6 29010000 		.4byte	0x129
 5223 17ca 04       		.byte	0x4
 5224 17cb 07       		.uleb128 0x7
 5225 17cc 74170000 		.4byte	.LASF394
 5226 17d0 1C       		.byte	0x1c
 5227 17d1 91       		.byte	0x91
 5228 17d2 29010000 		.4byte	0x129
 5229 17d6 08       		.byte	0x8
 5230 17d7 07       		.uleb128 0x7
 5231 17d8 CE280000 		.4byte	.LASF395
 5232 17dc 1C       		.byte	0x1c
 5233 17dd 92       		.byte	0x92
 5234 17de 29010000 		.4byte	0x129
 5235 17e2 0C       		.byte	0xc
 5236 17e3 07       		.uleb128 0x7
 5237 17e4 0C2B0000 		.4byte	.LASF396
 5238 17e8 1C       		.byte	0x1c
 5239 17e9 93       		.byte	0x93
 5240 17ea 29010000 		.4byte	0x129
 5241 17ee 10       		.byte	0x10
 5242 17ef 07       		.uleb128 0x7
 5243 17f0 E2190000 		.4byte	.LASF397
 5244 17f4 1C       		.byte	0x1c
 5245 17f5 94       		.byte	0x94
 5246 17f6 29010000 		.4byte	0x129
 5247 17fa 14       		.byte	0x14
 5248 17fb 07       		.uleb128 0x7
 5249 17fc 591E0000 		.4byte	.LASF398
 5250 1800 1C       		.byte	0x1c
 5251 1801 95       		.byte	0x95
 5252 1802 29010000 		.4byte	0x129
 5253 1806 18       		.byte	0x18
 5254 1807 07       		.uleb128 0x7
 5255 1808 4E200000 		.4byte	.LASF399
 5256 180c 1C       		.byte	0x1c
 5257 180d 96       		.byte	0x96
 5258 180e 29010000 		.4byte	0x129
ARM GAS  C:\Users\haske\AppData\Local\Temp\cc1ymag8.s 			page 121


 5259 1812 1C       		.byte	0x1c
 5260 1813 07       		.uleb128 0x7
 5261 1814 8C170000 		.4byte	.LASF400
 5262 1818 1C       		.byte	0x1c
 5263 1819 97       		.byte	0x97
 5264 181a FA070000 		.4byte	0x7fa
 5265 181e 20       		.byte	0x20
 5266 181f 07       		.uleb128 0x7
 5267 1820 CF150000 		.4byte	.LASF401
 5268 1824 1C       		.byte	0x1c
 5269 1825 98       		.byte	0x98
 5270 1826 FA070000 		.4byte	0x7fa
 5271 182a 24       		.byte	0x24
 5272 182b 07       		.uleb128 0x7
 5273 182c 21050000 		.4byte	.LASF402
 5274 1830 1C       		.byte	0x1c
 5275 1831 99       		.byte	0x99
 5276 1832 FA070000 		.4byte	0x7fa
 5277 1836 28       		.byte	0x28
 5278 1837 07       		.uleb128 0x7
 5279 1838 D3070000 		.4byte	.LASF403
 5280 183c 1C       		.byte	0x1c
 5281 183d 9A       		.byte	0x9a
 5282 183e FA070000 		.4byte	0x7fa
 5283 1842 2C       		.byte	0x2c
 5284 1843 07       		.uleb128 0x7
 5285 1844 380D0000 		.4byte	.LASF404
 5286 1848 1C       		.byte	0x1c
 5287 1849 9B       		.byte	0x9b
 5288 184a 69010000 		.4byte	0x169
 5289 184e 30       		.byte	0x30
 5290 184f 07       		.uleb128 0x7
 5291 1850 BB070000 		.4byte	.LASF405
 5292 1854 1C       		.byte	0x1c
 5293 1855 9D       		.byte	0x9d
 5294 1856 29010000 		.4byte	0x129
 5295 185a 38       		.byte	0x38
 5296 185b 09       		.uleb128 0x9
 5297 185c 22060000 		.4byte	.LASF406
 5298 1860 1C       		.byte	0x1c
 5299 1861 9F       		.byte	0x9f
 5300 1862 74010000 		.4byte	0x174
 5301 1866 01       		.byte	0x1
 5302 1867 04       		.byte	0x4
 5303 1868 04       		.byte	0x4
 5304 1869 3C       		.byte	0x3c
 5305 186a 09       		.uleb128 0x9
 5306 186b 34220000 		.4byte	.LASF407
 5307 186f 1C       		.byte	0x1c
 5308 1870 A0       		.byte	0xa0
 5309 1871 74010000 		.4byte	0x174
 5310 1875 01       		.byte	0x1
 5311 1876 04       		.byte	0x4
 5312 1877 00       		.byte	0
 5313 1878 3C       		.byte	0x3c
 5314 1879 09       		.uleb128 0x9
 5315 187a 5A220000 		.4byte	.LASF408
ARM GAS  C:\Users\haske\AppData\Local\Temp\cc1ymag8.s 			page 122


 5316 187e 1C       		.byte	0x1c
 5317 187f A1       		.byte	0xa1
 5318 1880 B8000000 		.4byte	0xb8
 5319 1884 01       		.byte	0x1
 5320 1885 01       		.byte	0x1
 5321 1886 07       		.byte	0x7
 5322 1887 3D       		.byte	0x3d
 5323 1888 00       		.byte	0
 5324 1889 05       		.uleb128 0x5
 5325 188a 08       		.byte	0x8
 5326 188b 1C       		.byte	0x1c
 5327 188c A3       		.byte	0xa3
 5328 188d AA180000 		.4byte	0x18aa
 5329 1891 07       		.uleb128 0x7
 5330 1892 D01C0000 		.4byte	.LASF409
 5331 1896 1C       		.byte	0x1c
 5332 1897 A5       		.byte	0xa5
 5333 1898 69160000 		.4byte	0x1669
 5334 189c 00       		.byte	0
 5335 189d 07       		.uleb128 0x7
 5336 189e 14220000 		.4byte	.LASF410
 5337 18a2 1C       		.byte	0x1c
 5338 18a3 A6       		.byte	0xa6
 5339 18a4 E4000000 		.4byte	0xe4
 5340 18a8 04       		.byte	0x4
 5341 18a9 00       		.byte	0
 5342 18aa 13       		.uleb128 0x13
 5343 18ab 40       		.byte	0x40
 5344 18ac 1C       		.byte	0x1c
 5345 18ad 8C       		.byte	0x8c
 5346 18ae C9180000 		.4byte	0x18c9
 5347 18b2 15       		.uleb128 0x15
 5348 18b3 68110000 		.4byte	.LASF411
 5349 18b7 1C       		.byte	0x1c
 5350 18b8 A2       		.byte	0xa2
 5351 18b9 AB170000 		.4byte	0x17ab
 5352 18bd 15       		.uleb128 0x15
 5353 18be 70240000 		.4byte	.LASF412
 5354 18c2 1C       		.byte	0x1c
 5355 18c3 A7       		.byte	0xa7
 5356 18c4 89180000 		.4byte	0x1889
 5357 18c8 00       		.byte	0
 5358 18c9 0A       		.uleb128 0xa
 5359 18ca 741E0000 		.4byte	.LASF413
 5360 18ce 4C       		.byte	0x4c
 5361 18cf 1C       		.byte	0x1c
 5362 18d0 84       		.byte	0x84
 5363 18d1 42190000 		.4byte	0x1942
 5364 18d5 07       		.uleb128 0x7
 5365 18d6 E1020000 		.4byte	.LASF190
 5366 18da 1C       		.byte	0x1c
 5367 18db 85       		.byte	0x85
 5368 18dc 69160000 		.4byte	0x1669
 5369 18e0 00       		.byte	0
 5370 18e1 09       		.uleb128 0x9
 5371 18e2 1D290000 		.4byte	.LASF414
 5372 18e6 1C       		.byte	0x1c
ARM GAS  C:\Users\haske\AppData\Local\Temp\cc1ymag8.s 			page 123


 5373 18e7 87       		.byte	0x87
 5374 18e8 B8000000 		.4byte	0xb8
 5375 18ec 01       		.byte	0x1
 5376 18ed 01       		.byte	0x1
 5377 18ee 07       		.byte	0x7
 5378 18ef 01       		.byte	0x1
 5379 18f0 09       		.uleb128 0x9
 5380 18f1 F21F0000 		.4byte	.LASF415
 5381 18f5 1C       		.byte	0x1c
 5382 18f6 88       		.byte	0x88
 5383 18f7 B8000000 		.4byte	0xb8
 5384 18fb 01       		.byte	0x1
 5385 18fc 01       		.byte	0x1
 5386 18fd 06       		.byte	0x6
 5387 18fe 01       		.byte	0x1
 5388 18ff 09       		.uleb128 0x9
 5389 1900 65270000 		.4byte	.LASF416
 5390 1904 1C       		.byte	0x1c
 5391 1905 89       		.byte	0x89
 5392 1906 B8000000 		.4byte	0xb8
 5393 190a 01       		.byte	0x1
 5394 190b 01       		.byte	0x1
 5395 190c 05       		.byte	0x5
 5396 190d 01       		.byte	0x1
 5397 190e 09       		.uleb128 0x9
 5398 190f 08120000 		.4byte	.LASF417
 5399 1913 1C       		.byte	0x1c
 5400 1914 8A       		.byte	0x8a
 5401 1915 B8000000 		.4byte	0xb8
 5402 1919 01       		.byte	0x1
 5403 191a 01       		.byte	0x1
 5404 191b 04       		.byte	0x4
 5405 191c 01       		.byte	0x1
 5406 191d 07       		.uleb128 0x7
 5407 191e 8C090000 		.4byte	.LASF418
 5408 1922 1C       		.byte	0x1c
 5409 1923 A8       		.byte	0xa8
 5410 1924 AA180000 		.4byte	0x18aa
 5411 1928 04       		.byte	0x4
 5412 1929 07       		.uleb128 0x7
 5413 192a F11C0000 		.4byte	.LASF419
 5414 192e 1C       		.byte	0x1c
 5415 192f AA       		.byte	0xaa
 5416 1930 E4000000 		.4byte	0xe4
 5417 1934 44       		.byte	0x44
 5418 1935 07       		.uleb128 0x7
 5419 1936 C01A0000 		.4byte	.LASF420
 5420 193a 1C       		.byte	0x1c
 5421 193b AB       		.byte	0xab
 5422 193c E4000000 		.4byte	0xe4
 5423 1940 48       		.byte	0x48
 5424 1941 00       		.byte	0
 5425 1942 02       		.uleb128 0x2
 5426 1943 741E0000 		.4byte	.LASF413
 5427 1947 1C       		.byte	0x1c
 5428 1948 AC       		.byte	0xac
 5429 1949 C9180000 		.4byte	0x18c9
ARM GAS  C:\Users\haske\AppData\Local\Temp\cc1ymag8.s 			page 124


 5430 194d 0A       		.uleb128 0xa
 5431 194e 28220000 		.4byte	.LASF421
 5432 1952 5C       		.byte	0x5c
 5433 1953 1C       		.byte	0x1c
 5434 1954 B0       		.byte	0xb0
 5435 1955 96190000 		.4byte	0x1996
 5436 1959 07       		.uleb128 0x7
 5437 195a DC220000 		.4byte	.LASF340
 5438 195e 1C       		.byte	0x1c
 5439 195f B1       		.byte	0xb1
 5440 1960 7D170000 		.4byte	0x177d
 5441 1964 00       		.byte	0
 5442 1965 07       		.uleb128 0x7
 5443 1966 ED0D0000 		.4byte	.LASF422
 5444 196a 1C       		.byte	0x1c
 5445 196b B2       		.byte	0xb2
 5446 196c 42190000 		.4byte	0x1942
 5447 1970 04       		.byte	0x4
 5448 1971 07       		.uleb128 0x7
 5449 1972 332A0000 		.4byte	.LASF423
 5450 1976 1C       		.byte	0x1c
 5451 1977 B3       		.byte	0xb3
 5452 1978 FA070000 		.4byte	0x7fa
 5453 197c 50       		.byte	0x50
 5454 197d 07       		.uleb128 0x7
 5455 197e 63150000 		.4byte	.LASF424
 5456 1982 1C       		.byte	0x1c
 5457 1983 B4       		.byte	0xb4
 5458 1984 1B1A0000 		.4byte	0x1a1b
 5459 1988 54       		.byte	0x54
 5460 1989 07       		.uleb128 0x7
 5461 198a CE110000 		.4byte	.LASF425
 5462 198e 1C       		.byte	0x1c
 5463 198f B5       		.byte	0xb5
 5464 1990 DF0E0000 		.4byte	0xedf
 5465 1994 58       		.byte	0x58
 5466 1995 00       		.byte	0
 5467 1996 0A       		.uleb128 0xa
 5468 1997 3A2A0000 		.4byte	.LASF426
 5469 199b 20       		.byte	0x20
 5470 199c 1D       		.byte	0x1d
 5471 199d 3B       		.byte	0x3b
 5472 199e 1B1A0000 		.4byte	0x1a1b
 5473 19a2 07       		.uleb128 0x7
 5474 19a3 66140000 		.4byte	.LASF427
 5475 19a7 1D       		.byte	0x1d
 5476 19a8 3C       		.byte	0x3c
 5477 19a9 E7100000 		.4byte	0x10e7
 5478 19ad 00       		.byte	0
 5479 19ae 07       		.uleb128 0x7
 5480 19af 272B0000 		.4byte	.LASF428
 5481 19b3 1D       		.byte	0x1d
 5482 19b4 3D       		.byte	0x3d
 5483 19b5 F4150000 		.4byte	0x15f4
 5484 19b9 0C       		.byte	0xc
 5485 19ba 07       		.uleb128 0x7
 5486 19bb 2C1C0000 		.4byte	.LASF429
ARM GAS  C:\Users\haske\AppData\Local\Temp\cc1ymag8.s 			page 125


 5487 19bf 1D       		.byte	0x1d
 5488 19c0 3F       		.byte	0x3f
 5489 19c1 58200000 		.4byte	0x2058
 5490 19c5 10       		.byte	0x10
 5491 19c6 07       		.uleb128 0x7
 5492 19c7 14070000 		.4byte	.LASF430
 5493 19cb 1D       		.byte	0x1d
 5494 19cc 40       		.byte	0x40
 5495 19cd 74200000 		.4byte	0x2074
 5496 19d1 14       		.byte	0x14
 5497 19d2 07       		.uleb128 0x7
 5498 19d3 2F280000 		.4byte	.LASF42
 5499 19d7 1D       		.byte	0x1d
 5500 19d8 45       		.byte	0x45
 5501 19d9 E9020000 		.4byte	0x2e9
 5502 19dd 18       		.byte	0x18
 5503 19de 09       		.uleb128 0x9
 5504 19df B1010000 		.4byte	.LASF431
 5505 19e3 1D       		.byte	0x1d
 5506 19e4 48       		.byte	0x48
 5507 19e5 B8000000 		.4byte	0xb8
 5508 19e9 01       		.byte	0x1
 5509 19ea 01       		.byte	0x1
 5510 19eb 07       		.byte	0x7
 5511 19ec 1C       		.byte	0x1c
 5512 19ed 09       		.uleb128 0x9
 5513 19ee 851E0000 		.4byte	.LASF432
 5514 19f2 1D       		.byte	0x1d
 5515 19f3 49       		.byte	0x49
 5516 19f4 B8000000 		.4byte	0xb8
 5517 19f8 01       		.byte	0x1
 5518 19f9 01       		.byte	0x1
 5519 19fa 06       		.byte	0x6
 5520 19fb 1C       		.byte	0x1c
 5521 19fc 09       		.uleb128 0x9
 5522 19fd DD280000 		.4byte	.LASF433
 5523 1a01 1D       		.byte	0x1d
 5524 1a02 4A       		.byte	0x4a
 5525 1a03 B8000000 		.4byte	0xb8
 5526 1a07 01       		.byte	0x1
 5527 1a08 01       		.byte	0x1
 5528 1a09 05       		.byte	0x5
 5529 1a0a 1C       		.byte	0x1c
 5530 1a0b 09       		.uleb128 0x9
 5531 1a0c D61F0000 		.4byte	.LASF434
 5532 1a10 1D       		.byte	0x1d
 5533 1a11 4C       		.byte	0x4c
 5534 1a12 B8000000 		.4byte	0xb8
 5535 1a16 01       		.byte	0x1
 5536 1a17 01       		.byte	0x1
 5537 1a18 04       		.byte	0x4
 5538 1a19 1C       		.byte	0x1c
 5539 1a1a 00       		.byte	0
 5540 1a1b 0B       		.uleb128 0xb
 5541 1a1c 04       		.byte	0x4
 5542 1a1d 96190000 		.4byte	0x1996
 5543 1a21 02       		.uleb128 0x2
ARM GAS  C:\Users\haske\AppData\Local\Temp\cc1ymag8.s 			page 126


 5544 1a22 C3110000 		.4byte	.LASF435
 5545 1a26 1C       		.byte	0x1c
 5546 1a27 B7       		.byte	0xb7
 5547 1a28 4D190000 		.4byte	0x194d
 5548 1a2c 02       		.uleb128 0x2
 5549 1a2d 9B060000 		.4byte	.LASF436
 5550 1a31 10       		.byte	0x10
 5551 1a32 3C       		.byte	0x3c
 5552 1a33 CE000000 		.4byte	0xce
 5553 1a37 11       		.uleb128 0x11
 5554 1a38 04       		.byte	0x4
 5555 1a39 A6000000 		.4byte	0xa6
 5556 1a3d 10       		.byte	0x10
 5557 1a3e 44       		.byte	0x44
 5558 1a3f 9B1A0000 		.4byte	0x1a9b
 5559 1a43 12       		.uleb128 0x12
 5560 1a44 331D0000 		.4byte	.LASF437
 5561 1a48 00       		.byte	0
 5562 1a49 23       		.uleb128 0x23
 5563 1a4a E5180000 		.4byte	.LASF438
 5564 1a4e 00000100 		.4byte	0x10000
 5565 1a52 23       		.uleb128 0x23
 5566 1a53 B4180000 		.4byte	.LASF439
 5567 1a57 00000200 		.4byte	0x20000
 5568 1a5b 23       		.uleb128 0x23
 5569 1a5c 69150000 		.4byte	.LASF440
 5570 1a60 00000300 		.4byte	0x30000
 5571 1a64 23       		.uleb128 0x23
 5572 1a65 4C040000 		.4byte	.LASF441
 5573 1a69 00000400 		.4byte	0x40000
 5574 1a6d 23       		.uleb128 0x23
 5575 1a6e 171E0000 		.4byte	.LASF442
 5576 1a72 00000500 		.4byte	0x50000
 5577 1a76 23       		.uleb128 0x23
 5578 1a77 74280000 		.4byte	.LASF443
 5579 1a7b 00000600 		.4byte	0x60000
 5580 1a7f 23       		.uleb128 0x23
 5581 1a80 0C270000 		.4byte	.LASF444
 5582 1a84 00000700 		.4byte	0x70000
 5583 1a88 23       		.uleb128 0x23
 5584 1a89 3C250000 		.4byte	.LASF445
 5585 1a8d 00000800 		.4byte	0x80000
 5586 1a91 23       		.uleb128 0x23
 5587 1a92 530E0000 		.4byte	.LASF446
 5588 1a96 00000F00 		.4byte	0xf0000
 5589 1a9a 00       		.byte	0
 5590 1a9b 11       		.uleb128 0x11
 5591 1a9c 04       		.byte	0x4
 5592 1a9d A6000000 		.4byte	0xa6
 5593 1aa1 10       		.byte	0x10
 5594 1aa2 59       		.byte	0x59
 5595 1aa3 831B0000 		.4byte	0x1b83
 5596 1aa7 12       		.uleb128 0x12
 5597 1aa8 8A140000 		.4byte	.LASF447
 5598 1aac 01       		.byte	0x1
 5599 1aad 12       		.uleb128 0x12
 5600 1aae 6D180000 		.4byte	.LASF448
ARM GAS  C:\Users\haske\AppData\Local\Temp\cc1ymag8.s 			page 127


 5601 1ab2 02       		.byte	0x2
 5602 1ab3 12       		.uleb128 0x12
 5603 1ab4 6C1F0000 		.4byte	.LASF449
 5604 1ab8 04       		.byte	0x4
 5605 1ab9 12       		.uleb128 0x12
 5606 1aba 1F140000 		.4byte	.LASF450
 5607 1abe 08       		.byte	0x8
 5608 1abf 12       		.uleb128 0x12
 5609 1ac0 70050000 		.4byte	.LASF451
 5610 1ac4 10       		.byte	0x10
 5611 1ac5 12       		.uleb128 0x12
 5612 1ac6 EA170000 		.4byte	.LASF452
 5613 1aca 20       		.byte	0x20
 5614 1acb 12       		.uleb128 0x12
 5615 1acc 6A130000 		.4byte	.LASF453
 5616 1ad0 40       		.byte	0x40
 5617 1ad1 12       		.uleb128 0x12
 5618 1ad2 DA290000 		.4byte	.LASF454
 5619 1ad6 80       		.byte	0x80
 5620 1ad7 18       		.uleb128 0x18
 5621 1ad8 A7200000 		.4byte	.LASF455
 5622 1adc 0001     		.2byte	0x100
 5623 1ade 18       		.uleb128 0x18
 5624 1adf 4E120000 		.4byte	.LASF456
 5625 1ae3 0002     		.2byte	0x200
 5626 1ae5 18       		.uleb128 0x18
 5627 1ae6 FA080000 		.4byte	.LASF457
 5628 1aea 0003     		.2byte	0x300
 5629 1aec 18       		.uleb128 0x18
 5630 1aed D51A0000 		.4byte	.LASF458
 5631 1af1 0004     		.2byte	0x400
 5632 1af3 18       		.uleb128 0x18
 5633 1af4 E5060000 		.4byte	.LASF459
 5634 1af8 0008     		.2byte	0x800
 5635 1afa 18       		.uleb128 0x18
 5636 1afb D8150000 		.4byte	.LASF460
 5637 1aff 0010     		.2byte	0x1000
 5638 1b01 18       		.uleb128 0x18
 5639 1b02 F6230000 		.4byte	.LASF461
 5640 1b06 0020     		.2byte	0x2000
 5641 1b08 18       		.uleb128 0x18
 5642 1b09 720F0000 		.4byte	.LASF462
 5643 1b0d 0040     		.2byte	0x4000
 5644 1b0f 18       		.uleb128 0x18
 5645 1b10 2D170000 		.4byte	.LASF463
 5646 1b14 0080     		.2byte	0x8000
 5647 1b16 23       		.uleb128 0x23
 5648 1b17 A6060000 		.4byte	.LASF464
 5649 1b1b 00000100 		.4byte	0x10000
 5650 1b1f 23       		.uleb128 0x23
 5651 1b20 A41B0000 		.4byte	.LASF465
 5652 1b24 00000200 		.4byte	0x20000
 5653 1b28 23       		.uleb128 0x23
 5654 1b29 39120000 		.4byte	.LASF466
 5655 1b2d 00000400 		.4byte	0x40000
 5656 1b31 23       		.uleb128 0x23
 5657 1b32 CB120000 		.4byte	.LASF467
ARM GAS  C:\Users\haske\AppData\Local\Temp\cc1ymag8.s 			page 128


 5658 1b36 00000800 		.4byte	0x80000
 5659 1b3a 23       		.uleb128 0x23
 5660 1b3b 8E080000 		.4byte	.LASF468
 5661 1b3f 00008000 		.4byte	0x800000
 5662 1b43 23       		.uleb128 0x23
 5663 1b44 A3080000 		.4byte	.LASF469
 5664 1b48 00000001 		.4byte	0x1000000
 5665 1b4c 23       		.uleb128 0x23
 5666 1b4d 1E090000 		.4byte	.LASF470
 5667 1b51 00000002 		.4byte	0x2000000
 5668 1b55 23       		.uleb128 0x23
 5669 1b56 33090000 		.4byte	.LASF471
 5670 1b5a 00000004 		.4byte	0x4000000
 5671 1b5e 23       		.uleb128 0x23
 5672 1b5f 84100000 		.4byte	.LASF472
 5673 1b63 00000008 		.4byte	0x8000000
 5674 1b67 23       		.uleb128 0x23
 5675 1b68 97100000 		.4byte	.LASF473
 5676 1b6c 00000010 		.4byte	0x10000000
 5677 1b70 23       		.uleb128 0x23
 5678 1b71 AA100000 		.4byte	.LASF474
 5679 1b75 00000020 		.4byte	0x20000000
 5680 1b79 23       		.uleb128 0x23
 5681 1b7a BD100000 		.4byte	.LASF475
 5682 1b7e 00000040 		.4byte	0x40000000
 5683 1b82 00       		.byte	0
 5684 1b83 02       		.uleb128 0x2
 5685 1b84 24270000 		.4byte	.LASF476
 5686 1b88 10       		.byte	0x10
 5687 1b89 7D       		.byte	0x7d
 5688 1b8a E4000000 		.4byte	0xe4
 5689 1b8e 02       		.uleb128 0x2
 5690 1b8f 78010000 		.4byte	.LASF477
 5691 1b93 1E       		.byte	0x1e
 5692 1b94 26       		.byte	0x26
 5693 1b95 B8000000 		.4byte	0xb8
 5694 1b99 02       		.uleb128 0x2
 5695 1b9a BF1C0000 		.4byte	.LASF478
 5696 1b9e 1E       		.byte	0x1e
 5697 1b9f 30       		.byte	0x30
 5698 1ba0 B8000000 		.4byte	0xb8
 5699 1ba4 05       		.uleb128 0x5
 5700 1ba5 08       		.byte	0x8
 5701 1ba6 1F       		.byte	0x1f
 5702 1ba7 27       		.byte	0x27
 5703 1ba8 E61B0000 		.4byte	0x1be6
 5704 1bac 07       		.uleb128 0x7
 5705 1bad A81C0000 		.4byte	.LASF479
 5706 1bb1 1F       		.byte	0x1f
 5707 1bb2 28       		.byte	0x28
 5708 1bb3 E61B0000 		.4byte	0x1be6
 5709 1bb7 00       		.byte	0
 5710 1bb8 09       		.uleb128 0x9
 5711 1bb9 A6280000 		.4byte	.LASF480
 5712 1bbd 1F       		.byte	0x1f
 5713 1bbe 29       		.byte	0x29
 5714 1bbf E4000000 		.4byte	0xe4
ARM GAS  C:\Users\haske\AppData\Local\Temp\cc1ymag8.s 			page 129


 5715 1bc3 04       		.byte	0x4
 5716 1bc4 18       		.byte	0x18
 5717 1bc5 08       		.byte	0x8
 5718 1bc6 04       		.byte	0x4
 5719 1bc7 09       		.uleb128 0x9
 5720 1bc8 19030000 		.4byte	.LASF481
 5721 1bcc 1F       		.byte	0x1f
 5722 1bcd 2A       		.byte	0x2a
 5723 1bce E4000000 		.4byte	0xe4
 5724 1bd2 04       		.byte	0x4
 5725 1bd3 01       		.byte	0x1
 5726 1bd4 07       		.byte	0x7
 5727 1bd5 04       		.byte	0x4
 5728 1bd6 09       		.uleb128 0x9
 5729 1bd7 A4110000 		.4byte	.LASF482
 5730 1bdb 1F       		.byte	0x1f
 5731 1bdc 2B       		.byte	0x2b
 5732 1bdd E4000000 		.4byte	0xe4
 5733 1be1 04       		.byte	0x4
 5734 1be2 01       		.byte	0x1
 5735 1be3 06       		.byte	0x6
 5736 1be4 04       		.byte	0x4
 5737 1be5 00       		.byte	0
 5738 1be6 0B       		.uleb128 0xb
 5739 1be7 04       		.byte	0x4
 5740 1be8 E3070000 		.4byte	0x7e3
 5741 1bec 02       		.uleb128 0x2
 5742 1bed 960E0000 		.4byte	.LASF483
 5743 1bf1 1F       		.byte	0x1f
 5744 1bf2 2C       		.byte	0x2c
 5745 1bf3 A41B0000 		.4byte	0x1ba4
 5746 1bf7 05       		.uleb128 0x5
 5747 1bf8 48       		.byte	0x48
 5748 1bf9 20       		.byte	0x20
 5749 1bfa 2A       		.byte	0x2a
 5750 1bfb D51C0000 		.4byte	0x1cd5
 5751 1bff 07       		.uleb128 0x7
 5752 1c00 6D260000 		.4byte	.LASF335
 5753 1c04 20       		.byte	0x20
 5754 1c05 2B       		.byte	0x2b
 5755 1c06 30140000 		.4byte	0x1430
 5756 1c0a 00       		.byte	0
 5757 1c0b 07       		.uleb128 0x7
 5758 1c0c 2D190000 		.4byte	.LASF184
 5759 1c10 20       		.byte	0x20
 5760 1c11 2C       		.byte	0x2c
 5761 1c12 631D0000 		.4byte	0x1d63
 5762 1c16 04       		.byte	0x4
 5763 1c17 07       		.uleb128 0x7
 5764 1c18 8F030000 		.4byte	.LASF382
 5765 1c1c 20       		.byte	0x20
 5766 1c1d 2D       		.byte	0x2d
 5767 1c1e E4000000 		.4byte	0xe4
 5768 1c22 08       		.byte	0x8
 5769 1c23 07       		.uleb128 0x7
 5770 1c24 CB060000 		.4byte	.LASF484
 5771 1c28 20       		.byte	0x20
ARM GAS  C:\Users\haske\AppData\Local\Temp\cc1ymag8.s 			page 130


 5772 1c29 2E       		.byte	0x2e
 5773 1c2a 040D0000 		.4byte	0xd04
 5774 1c2e 0C       		.byte	0xc
 5775 1c2f 07       		.uleb128 0x7
 5776 1c30 6A100000 		.4byte	.LASF485
 5777 1c34 20       		.byte	0x20
 5778 1c35 30       		.byte	0x30
 5779 1c36 6E1D0000 		.4byte	0x1d6e
 5780 1c3a 10       		.byte	0x10
 5781 1c3b 07       		.uleb128 0x7
 5782 1c3c 82190000 		.4byte	.LASF486
 5783 1c40 20       		.byte	0x20
 5784 1c41 32       		.byte	0x32
 5785 1c42 741D0000 		.4byte	0x1d74
 5786 1c46 14       		.byte	0x14
 5787 1c47 07       		.uleb128 0x7
 5788 1c48 67230000 		.4byte	.LASF487
 5789 1c4c 20       		.byte	0x20
 5790 1c4d 34       		.byte	0x34
 5791 1c4e 7A1D0000 		.4byte	0x1d7a
 5792 1c52 18       		.byte	0x18
 5793 1c53 07       		.uleb128 0x7
 5794 1c54 D9110000 		.4byte	.LASF488
 5795 1c58 20       		.byte	0x20
 5796 1c59 36       		.byte	0x36
 5797 1c5a 801D0000 		.4byte	0x1d80
 5798 1c5e 1C       		.byte	0x1c
 5799 1c5f 07       		.uleb128 0x7
 5800 1c60 0D1B0000 		.4byte	.LASF489
 5801 1c64 20       		.byte	0x20
 5802 1c65 38       		.byte	0x38
 5803 1c66 861D0000 		.4byte	0x1d86
 5804 1c6a 20       		.byte	0x20
 5805 1c6b 06       		.uleb128 0x6
 5806 1c6c 703100   		.ascii	"p1\000"
 5807 1c6f 20       		.byte	0x20
 5808 1c70 3A       		.byte	0x3a
 5809 1c71 DF0E0000 		.4byte	0xedf
 5810 1c75 24       		.byte	0x24
 5811 1c76 06       		.uleb128 0x6
 5812 1c77 703200   		.ascii	"p2\000"
 5813 1c7a 20       		.byte	0x20
 5814 1c7b 3B       		.byte	0x3b
 5815 1c7c DF0E0000 		.4byte	0xedf
 5816 1c80 28       		.byte	0x28
 5817 1c81 07       		.uleb128 0x7
 5818 1c82 240F0000 		.4byte	.LASF490
 5819 1c86 20       		.byte	0x20
 5820 1c87 3C       		.byte	0x3c
 5821 1c88 21030000 		.4byte	0x321
 5822 1c8c 2C       		.byte	0x2c
 5823 1c8d 07       		.uleb128 0x7
 5824 1c8e 0A260000 		.4byte	.LASF491
 5825 1c92 20       		.byte	0x20
 5826 1c93 3D       		.byte	0x3d
 5827 1c94 E4000000 		.4byte	0xe4
 5828 1c98 30       		.byte	0x30
ARM GAS  C:\Users\haske\AppData\Local\Temp\cc1ymag8.s 			page 131


 5829 1c99 07       		.uleb128 0x7
 5830 1c9a 112A0000 		.4byte	.LASF492
 5831 1c9e 20       		.byte	0x20
 5832 1c9f 3E       		.byte	0x3e
 5833 1ca0 E4000000 		.4byte	0xe4
 5834 1ca4 34       		.byte	0x34
 5835 1ca5 06       		.uleb128 0x6
 5836 1ca6 696400   		.ascii	"id\000"
 5837 1ca9 20       		.byte	0x20
 5838 1caa 3F       		.byte	0x3f
 5839 1cab E4000000 		.4byte	0xe4
 5840 1caf 38       		.byte	0x38
 5841 1cb0 07       		.uleb128 0x7
 5842 1cb1 F7010000 		.4byte	.LASF197
 5843 1cb5 20       		.byte	0x20
 5844 1cb6 40       		.byte	0x40
 5845 1cb7 01010000 		.4byte	0x101
 5846 1cbb 3C       		.byte	0x3c
 5847 1cbc 07       		.uleb128 0x7
 5848 1cbd E30B0000 		.4byte	.LASF172
 5849 1cc1 20       		.byte	0x20
 5850 1cc2 41       		.byte	0x41
 5851 1cc3 D9000000 		.4byte	0xd9
 5852 1cc7 40       		.byte	0x40
 5853 1cc8 07       		.uleb128 0x7
 5854 1cc9 F80F0000 		.4byte	.LASF493
 5855 1ccd 20       		.byte	0x20
 5856 1cce 42       		.byte	0x42
 5857 1ccf E2020000 		.4byte	0x2e2
 5858 1cd3 44       		.byte	0x44
 5859 1cd4 00       		.byte	0
 5860 1cd5 0A       		.uleb128 0xa
 5861 1cd6 491F0000 		.4byte	.LASF494
 5862 1cda 1C       		.byte	0x1c
 5863 1cdb 21       		.byte	0x21
 5864 1cdc 31       		.byte	0x31
 5865 1cdd 631D0000 		.4byte	0x1d63
 5866 1ce1 07       		.uleb128 0x7
 5867 1ce2 ED1B0000 		.4byte	.LASF495
 5868 1ce6 21       		.byte	0x21
 5869 1ce7 32       		.byte	0x32
 5870 1ce8 631D0000 		.4byte	0x1d63
 5871 1cec 00       		.byte	0
 5872 1ced 07       		.uleb128 0x7
 5873 1cee 4C030000 		.4byte	.LASF496
 5874 1cf2 21       		.byte	0x21
 5875 1cf3 33       		.byte	0x33
 5876 1cf4 6D1E0000 		.4byte	0x1e6d
 5877 1cf8 04       		.byte	0x4
 5878 1cf9 07       		.uleb128 0x7
 5879 1cfa 7B220000 		.4byte	.LASF497
 5880 1cfe 21       		.byte	0x21
 5881 1cff 34       		.byte	0x34
 5882 1d00 6D1E0000 		.4byte	0x1e6d
 5883 1d04 08       		.byte	0x8
 5884 1d05 07       		.uleb128 0x7
 5885 1d06 2F280000 		.4byte	.LASF42
ARM GAS  C:\Users\haske\AppData\Local\Temp\cc1ymag8.s 			page 132


 5886 1d0a 21       		.byte	0x21
 5887 1d0b 36       		.byte	0x36
 5888 1d0c E9020000 		.4byte	0x2e9
 5889 1d10 0C       		.byte	0xc
 5890 1d11 07       		.uleb128 0x7
 5891 1d12 95160000 		.4byte	.LASF498
 5892 1d16 21       		.byte	0x21
 5893 1d17 38       		.byte	0x38
 5894 1d18 831E0000 		.4byte	0x1e83
 5895 1d1c 10       		.byte	0x10
 5896 1d1d 07       		.uleb128 0x7
 5897 1d1e 2F120000 		.4byte	.LASF499
 5898 1d22 21       		.byte	0x21
 5899 1d23 3A       		.byte	0x3a
 5900 1d24 01010000 		.4byte	0x101
 5901 1d28 14       		.byte	0x14
 5902 1d29 07       		.uleb128 0x7
 5903 1d2a 4C290000 		.4byte	.LASF500
 5904 1d2e 21       		.byte	0x21
 5905 1d2f 3B       		.byte	0x3b
 5906 1d30 01010000 		.4byte	0x101
 5907 1d34 16       		.byte	0x16
 5908 1d35 09       		.uleb128 0x9
 5909 1d36 F0130000 		.4byte	.LASF501
 5910 1d3a 21       		.byte	0x21
 5911 1d3b 3C       		.byte	0x3c
 5912 1d3c E4000000 		.4byte	0xe4
 5913 1d40 04       		.byte	0x4
 5914 1d41 02       		.byte	0x2
 5915 1d42 1E       		.byte	0x1e
 5916 1d43 18       		.byte	0x18
 5917 1d44 09       		.uleb128 0x9
 5918 1d45 2D060000 		.4byte	.LASF502
 5919 1d49 21       		.byte	0x21
 5920 1d4a 3D       		.byte	0x3d
 5921 1d4b E4000000 		.4byte	0xe4
 5922 1d4f 04       		.byte	0x4
 5923 1d50 02       		.byte	0x2
 5924 1d51 1C       		.byte	0x1c
 5925 1d52 18       		.byte	0x18
 5926 1d53 09       		.uleb128 0x9
 5927 1d54 07150000 		.4byte	.LASF503
 5928 1d58 21       		.byte	0x21
 5929 1d59 3E       		.byte	0x3e
 5930 1d5a E4000000 		.4byte	0xe4
 5931 1d5e 04       		.byte	0x4
 5932 1d5f 10       		.byte	0x10
 5933 1d60 0C       		.byte	0xc
 5934 1d61 18       		.byte	0x18
 5935 1d62 00       		.byte	0
 5936 1d63 0B       		.uleb128 0xb
 5937 1d64 04       		.byte	0x4
 5938 1d65 691D0000 		.4byte	0x1d69
 5939 1d69 0C       		.uleb128 0xc
 5940 1d6a D51C0000 		.4byte	0x1cd5
 5941 1d6e 0B       		.uleb128 0xb
 5942 1d6f 04       		.byte	0x4
ARM GAS  C:\Users\haske\AppData\Local\Temp\cc1ymag8.s 			page 133


 5943 1d70 140A0000 		.4byte	0xa14
 5944 1d74 0B       		.uleb128 0xb
 5945 1d75 04       		.byte	0x4
 5946 1d76 F90A0000 		.4byte	0xaf9
 5947 1d7a 0B       		.uleb128 0xb
 5948 1d7b 04       		.byte	0x4
 5949 1d7c 0B0C0000 		.4byte	0xc0b
 5950 1d80 0B       		.uleb128 0xb
 5951 1d81 04       		.byte	0x4
 5952 1d82 7F0B0000 		.4byte	0xb7f
 5953 1d86 0B       		.uleb128 0xb
 5954 1d87 04       		.byte	0x4
 5955 1d88 850C0000 		.4byte	0xc85
 5956 1d8c 02       		.uleb128 0x2
 5957 1d8d 0D160000 		.4byte	.LASF504
 5958 1d91 20       		.byte	0x20
 5959 1d92 43       		.byte	0x43
 5960 1d93 F71B0000 		.4byte	0x1bf7
 5961 1d97 11       		.uleb128 0x11
 5962 1d98 01       		.byte	0x1
 5963 1d99 42000000 		.4byte	0x42
 5964 1d9d 21       		.byte	0x21
 5965 1d9e 20       		.byte	0x20
 5966 1d9f B61D0000 		.4byte	0x1db6
 5967 1da3 12       		.uleb128 0x12
 5968 1da4 060F0000 		.4byte	.LASF505
 5969 1da8 00       		.byte	0
 5970 1da9 12       		.uleb128 0x12
 5971 1daa 4E190000 		.4byte	.LASF506
 5972 1dae 01       		.byte	0x1
 5973 1daf 12       		.uleb128 0x12
 5974 1db0 EB140000 		.4byte	.LASF507
 5975 1db4 02       		.byte	0x2
 5976 1db5 00       		.byte	0
 5977 1db6 11       		.uleb128 0x11
 5978 1db7 01       		.byte	0x1
 5979 1db8 42000000 		.4byte	0x42
 5980 1dbc 21       		.byte	0x21
 5981 1dbd 26       		.byte	0x26
 5982 1dbe D51D0000 		.4byte	0x1dd5
 5983 1dc2 12       		.uleb128 0x12
 5984 1dc3 C6180000 		.4byte	.LASF508
 5985 1dc7 00       		.byte	0
 5986 1dc8 12       		.uleb128 0x12
 5987 1dc9 BA1F0000 		.4byte	.LASF509
 5988 1dcd 01       		.byte	0x1
 5989 1dce 12       		.uleb128 0x12
 5990 1dcf 5B1D0000 		.4byte	.LASF510
 5991 1dd3 02       		.byte	0x2
 5992 1dd4 00       		.byte	0
 5993 1dd5 0B       		.uleb128 0xb
 5994 1dd6 04       		.byte	0x4
 5995 1dd7 DB1D0000 		.4byte	0x1ddb
 5996 1ddb 0A       		.uleb128 0xa
 5997 1ddc BE160000 		.4byte	.LASF511
 5998 1de0 1C       		.byte	0x1c
 5999 1de1 22       		.byte	0x22
ARM GAS  C:\Users\haske\AppData\Local\Temp\cc1ymag8.s 			page 134


 6000 1de2 5E       		.byte	0x5e
 6001 1de3 5D1E0000 		.4byte	0x1e5d
 6002 1de7 07       		.uleb128 0x7
 6003 1de8 B3130000 		.4byte	.LASF512
 6004 1dec 22       		.byte	0x22
 6005 1ded 5F       		.byte	0x5f
 6006 1dee FA070000 		.4byte	0x7fa
 6007 1df2 00       		.byte	0
 6008 1df3 07       		.uleb128 0x7
 6009 1df4 95240000 		.4byte	.LASF513
 6010 1df8 22       		.byte	0x22
 6011 1df9 60       		.byte	0x60
 6012 1dfa FA070000 		.4byte	0x7fa
 6013 1dfe 04       		.byte	0x4
 6014 1dff 07       		.uleb128 0x7
 6015 1e00 FE1C0000 		.4byte	.LASF514
 6016 1e04 22       		.byte	0x22
 6017 1e05 61       		.byte	0x61
 6018 1e06 BB1F0000 		.4byte	0x1fbb
 6019 1e0a 08       		.byte	0x8
 6020 1e0b 07       		.uleb128 0x7
 6021 1e0c 2F280000 		.4byte	.LASF42
 6022 1e10 22       		.byte	0x22
 6023 1e11 62       		.byte	0x62
 6024 1e12 E9020000 		.4byte	0x2e9
 6025 1e16 0C       		.byte	0xc
 6026 1e17 07       		.uleb128 0x7
 6027 1e18 AD130000 		.4byte	.LASF515
 6028 1e1c 22       		.byte	0x22
 6029 1e1d 63       		.byte	0x63
 6030 1e1e E9020000 		.4byte	0x2e9
 6031 1e22 10       		.byte	0x10
 6032 1e23 07       		.uleb128 0x7
 6033 1e24 162A0000 		.4byte	.LASF516
 6034 1e28 22       		.byte	0x22
 6035 1e29 64       		.byte	0x64
 6036 1e2a D51D0000 		.4byte	0x1dd5
 6037 1e2e 14       		.byte	0x14
 6038 1e2f 09       		.uleb128 0x9
 6039 1e30 E5160000 		.4byte	.LASF517
 6040 1e34 22       		.byte	0x22
 6041 1e35 65       		.byte	0x65
 6042 1e36 B8000000 		.4byte	0xb8
 6043 1e3a 01       		.byte	0x1
 6044 1e3b 01       		.byte	0x1
 6045 1e3c 07       		.byte	0x7
 6046 1e3d 18       		.byte	0x18
 6047 1e3e 09       		.uleb128 0x9
 6048 1e3f D30B0000 		.4byte	.LASF518
 6049 1e43 22       		.byte	0x22
 6050 1e44 66       		.byte	0x66
 6051 1e45 B8000000 		.4byte	0xb8
 6052 1e49 01       		.byte	0x1
 6053 1e4a 01       		.byte	0x1
 6054 1e4b 06       		.byte	0x6
 6055 1e4c 18       		.byte	0x18
 6056 1e4d 09       		.uleb128 0x9
ARM GAS  C:\Users\haske\AppData\Local\Temp\cc1ymag8.s 			page 135


 6057 1e4e 601B0000 		.4byte	.LASF519
 6058 1e52 22       		.byte	0x22
 6059 1e53 67       		.byte	0x67
 6060 1e54 B8000000 		.4byte	0xb8
 6061 1e58 01       		.byte	0x1
 6062 1e59 01       		.byte	0x1
 6063 1e5a 05       		.byte	0x5
 6064 1e5b 18       		.byte	0x18
 6065 1e5c 00       		.byte	0
 6066 1e5d 1F       		.uleb128 0x1f
 6067 1e5e 6D1E0000 		.4byte	0x1e6d
 6068 1e62 0E       		.uleb128 0xe
 6069 1e63 631D0000 		.4byte	0x1d63
 6070 1e67 0E       		.uleb128 0xe
 6071 1e68 FA070000 		.4byte	0x7fa
 6072 1e6c 00       		.byte	0
 6073 1e6d 0B       		.uleb128 0xb
 6074 1e6e 04       		.byte	0x4
 6075 1e6f 5D1E0000 		.4byte	0x1e5d
 6076 1e73 1F       		.uleb128 0x1f
 6077 1e74 831E0000 		.4byte	0x1e83
 6078 1e78 0E       		.uleb128 0xe
 6079 1e79 631D0000 		.4byte	0x1d63
 6080 1e7d 0E       		.uleb128 0xe
 6081 1e7e D51D0000 		.4byte	0x1dd5
 6082 1e82 00       		.byte	0
 6083 1e83 0B       		.uleb128 0xb
 6084 1e84 04       		.byte	0x4
 6085 1e85 731E0000 		.4byte	0x1e73
 6086 1e89 02       		.uleb128 0x2
 6087 1e8a 15110000 		.4byte	.LASF520
 6088 1e8e 21       		.byte	0x21
 6089 1e8f 3F       		.byte	0x3f
 6090 1e90 D51C0000 		.4byte	0x1cd5
 6091 1e94 11       		.uleb128 0x11
 6092 1e95 01       		.byte	0x1
 6093 1e96 42000000 		.4byte	0x42
 6094 1e9a 22       		.byte	0x22
 6095 1e9b 20       		.byte	0x20
 6096 1e9c BB1F0000 		.4byte	0x1fbb
 6097 1ea0 12       		.uleb128 0x12
 6098 1ea1 BF050000 		.4byte	.LASF521
 6099 1ea5 00       		.byte	0
 6100 1ea6 12       		.uleb128 0x12
 6101 1ea7 D91D0000 		.4byte	.LASF522
 6102 1eab 01       		.byte	0x1
 6103 1eac 12       		.uleb128 0x12
 6104 1ead 921B0000 		.4byte	.LASF523
 6105 1eb1 02       		.byte	0x2
 6106 1eb2 12       		.uleb128 0x12
 6107 1eb3 39280000 		.4byte	.LASF524
 6108 1eb7 03       		.byte	0x3
 6109 1eb8 12       		.uleb128 0x12
 6110 1eb9 F81B0000 		.4byte	.LASF525
 6111 1ebd 04       		.byte	0x4
 6112 1ebe 12       		.uleb128 0x12
 6113 1ebf A5030000 		.4byte	.LASF526
ARM GAS  C:\Users\haske\AppData\Local\Temp\cc1ymag8.s 			page 136


 6114 1ec3 05       		.byte	0x5
 6115 1ec4 12       		.uleb128 0x12
 6116 1ec5 0F1C0000 		.4byte	.LASF527
 6117 1ec9 06       		.byte	0x6
 6118 1eca 12       		.uleb128 0x12
 6119 1ecb D9100000 		.4byte	.LASF528
 6120 1ecf 07       		.byte	0x7
 6121 1ed0 12       		.uleb128 0x12
 6122 1ed1 572A0000 		.4byte	.LASF529
 6123 1ed5 08       		.byte	0x8
 6124 1ed6 12       		.uleb128 0x12
 6125 1ed7 3C180000 		.4byte	.LASF530
 6126 1edb 09       		.byte	0x9
 6127 1edc 12       		.uleb128 0x12
 6128 1edd E3010000 		.4byte	.LASF531
 6129 1ee1 0A       		.byte	0xa
 6130 1ee2 12       		.uleb128 0x12
 6131 1ee3 01170000 		.4byte	.LASF532
 6132 1ee7 0B       		.byte	0xb
 6133 1ee8 12       		.uleb128 0x12
 6134 1ee9 94030000 		.4byte	.LASF533
 6135 1eed 0C       		.byte	0xc
 6136 1eee 12       		.uleb128 0x12
 6137 1eef D9270000 		.4byte	.LASF534
 6138 1ef3 0D       		.byte	0xd
 6139 1ef4 12       		.uleb128 0x12
 6140 1ef5 AF280000 		.4byte	.LASF535
 6141 1ef9 0E       		.byte	0xe
 6142 1efa 12       		.uleb128 0x12
 6143 1efb 82250000 		.4byte	.LASF536
 6144 1eff 0F       		.byte	0xf
 6145 1f00 12       		.uleb128 0x12
 6146 1f01 29130000 		.4byte	.LASF537
 6147 1f05 10       		.byte	0x10
 6148 1f06 12       		.uleb128 0x12
 6149 1f07 440D0000 		.4byte	.LASF538
 6150 1f0b 11       		.byte	0x11
 6151 1f0c 12       		.uleb128 0x12
 6152 1f0d D80C0000 		.4byte	.LASF539
 6153 1f11 12       		.byte	0x12
 6154 1f12 12       		.uleb128 0x12
 6155 1f13 710C0000 		.4byte	.LASF540
 6156 1f17 13       		.byte	0x13
 6157 1f18 12       		.uleb128 0x12
 6158 1f19 AF000000 		.4byte	.LASF541
 6159 1f1d 14       		.byte	0x14
 6160 1f1e 12       		.uleb128 0x12
 6161 1f1f A9090000 		.4byte	.LASF542
 6162 1f23 15       		.byte	0x15
 6163 1f24 12       		.uleb128 0x12
 6164 1f25 3A110000 		.4byte	.LASF543
 6165 1f29 16       		.byte	0x16
 6166 1f2a 12       		.uleb128 0x12
 6167 1f2b 35190000 		.4byte	.LASF544
 6168 1f2f 17       		.byte	0x17
 6169 1f30 12       		.uleb128 0x12
 6170 1f31 F0260000 		.4byte	.LASF545
ARM GAS  C:\Users\haske\AppData\Local\Temp\cc1ymag8.s 			page 137


 6171 1f35 18       		.byte	0x18
 6172 1f36 12       		.uleb128 0x12
 6173 1f37 2F240000 		.4byte	.LASF546
 6174 1f3b 19       		.byte	0x19
 6175 1f3c 12       		.uleb128 0x12
 6176 1f3d 46240000 		.4byte	.LASF547
 6177 1f41 1A       		.byte	0x1a
 6178 1f42 12       		.uleb128 0x12
 6179 1f43 9A070000 		.4byte	.LASF548
 6180 1f47 1B       		.byte	0x1b
 6181 1f48 12       		.uleb128 0x12
 6182 1f49 6B1A0000 		.4byte	.LASF549
 6183 1f4d 1C       		.byte	0x1c
 6184 1f4e 12       		.uleb128 0x12
 6185 1f4f A1010000 		.4byte	.LASF550
 6186 1f53 1D       		.byte	0x1d
 6187 1f54 12       		.uleb128 0x12
 6188 1f55 DA140000 		.4byte	.LASF551
 6189 1f59 1E       		.byte	0x1e
 6190 1f5a 12       		.uleb128 0x12
 6191 1f5b D7260000 		.4byte	.LASF552
 6192 1f5f 1F       		.byte	0x1f
 6193 1f60 12       		.uleb128 0x12
 6194 1f61 FA1D0000 		.4byte	.LASF553
 6195 1f65 20       		.byte	0x20
 6196 1f66 12       		.uleb128 0x12
 6197 1f67 1D190000 		.4byte	.LASF554
 6198 1f6b 21       		.byte	0x21
 6199 1f6c 12       		.uleb128 0x12
 6200 1f6d CA020000 		.4byte	.LASF555
 6201 1f71 22       		.byte	0x22
 6202 1f72 12       		.uleb128 0x12
 6203 1f73 DC030000 		.4byte	.LASF556
 6204 1f77 23       		.byte	0x23
 6205 1f78 12       		.uleb128 0x12
 6206 1f79 4C150000 		.4byte	.LASF557
 6207 1f7d 24       		.byte	0x24
 6208 1f7e 12       		.uleb128 0x12
 6209 1f7f 69290000 		.4byte	.LASF558
 6210 1f83 25       		.byte	0x25
 6211 1f84 12       		.uleb128 0x12
 6212 1f85 451B0000 		.4byte	.LASF559
 6213 1f89 26       		.byte	0x26
 6214 1f8a 12       		.uleb128 0x12
 6215 1f8b 370E0000 		.4byte	.LASF560
 6216 1f8f 27       		.byte	0x27
 6217 1f90 12       		.uleb128 0x12
 6218 1f91 AD210000 		.4byte	.LASF561
 6219 1f95 28       		.byte	0x28
 6220 1f96 12       		.uleb128 0x12
 6221 1f97 32270000 		.4byte	.LASF562
 6222 1f9b 29       		.byte	0x29
 6223 1f9c 12       		.uleb128 0x12
 6224 1f9d C0260000 		.4byte	.LASF563
 6225 1fa1 2A       		.byte	0x2a
 6226 1fa2 12       		.uleb128 0x12
 6227 1fa3 89270000 		.4byte	.LASF564
ARM GAS  C:\Users\haske\AppData\Local\Temp\cc1ymag8.s 			page 138


 6228 1fa7 2B       		.byte	0x2b
 6229 1fa8 12       		.uleb128 0x12
 6230 1fa9 92090000 		.4byte	.LASF565
 6231 1fad 2C       		.byte	0x2c
 6232 1fae 12       		.uleb128 0x12
 6233 1faf 26250000 		.4byte	.LASF566
 6234 1fb3 2D       		.byte	0x2d
 6235 1fb4 12       		.uleb128 0x12
 6236 1fb5 4A130000 		.4byte	.LASF567
 6237 1fb9 80       		.byte	0x80
 6238 1fba 00       		.byte	0
 6239 1fbb 02       		.uleb128 0x2
 6240 1fbc 9E160000 		.4byte	.LASF568
 6241 1fc0 22       		.byte	0x22
 6242 1fc1 5C       		.byte	0x5c
 6243 1fc2 941E0000 		.4byte	0x1e94
 6244 1fc6 02       		.uleb128 0x2
 6245 1fc7 BF020000 		.4byte	.LASF569
 6246 1fcb 22       		.byte	0x22
 6247 1fcc 68       		.byte	0x68
 6248 1fcd DB1D0000 		.4byte	0x1ddb
 6249 1fd1 0B       		.uleb128 0xb
 6250 1fd2 04       		.byte	0x4
 6251 1fd3 C61F0000 		.4byte	0x1fc6
 6252 1fd7 05       		.uleb128 0x5
 6253 1fd8 08       		.byte	0x8
 6254 1fd9 22       		.byte	0x22
 6255 1fda 78       		.byte	0x78
 6256 1fdb F81F0000 		.4byte	0x1ff8
 6257 1fdf 07       		.uleb128 0x7
 6258 1fe0 5D040000 		.4byte	.LASF376
 6259 1fe4 22       		.byte	0x22
 6260 1fe5 79       		.byte	0x79
 6261 1fe6 DF0E0000 		.4byte	0xedf
 6262 1fea 00       		.byte	0
 6263 1feb 06       		.uleb128 0x6
 6264 1fec 72657300 		.ascii	"res\000"
 6265 1ff0 22       		.byte	0x22
 6266 1ff1 7A       		.byte	0x7a
 6267 1ff2 AA020000 		.4byte	0x2aa
 6268 1ff6 04       		.byte	0x4
 6269 1ff7 00       		.byte	0
 6270 1ff8 02       		.uleb128 0x2
 6271 1ff9 69020000 		.4byte	.LASF570
 6272 1ffd 22       		.byte	0x22
 6273 1ffe 7B       		.byte	0x7b
 6274 1fff D71F0000 		.4byte	0x1fd7
 6275 2003 11       		.uleb128 0x11
 6276 2004 01       		.byte	0x1
 6277 2005 42000000 		.4byte	0x42
 6278 2009 1D       		.byte	0x1d
 6279 200a 1D       		.byte	0x1d
 6280 200b 58200000 		.4byte	0x2058
 6281 200f 12       		.uleb128 0x12
 6282 2010 96290000 		.4byte	.LASF571
 6283 2014 11       		.byte	0x11
 6284 2015 12       		.uleb128 0x12
ARM GAS  C:\Users\haske\AppData\Local\Temp\cc1ymag8.s 			page 139


 6285 2016 ED200000 		.4byte	.LASF572
 6286 201a 12       		.byte	0x12
 6287 201b 12       		.uleb128 0x12
 6288 201c A2000000 		.4byte	.LASF573
 6289 2020 13       		.byte	0x13
 6290 2021 12       		.uleb128 0x12
 6291 2022 50080000 		.4byte	.LASF574
 6292 2026 14       		.byte	0x14
 6293 2027 12       		.uleb128 0x12
 6294 2028 F9200000 		.4byte	.LASF575
 6295 202c 1B       		.byte	0x1b
 6296 202d 12       		.uleb128 0x12
 6297 202e 42070000 		.4byte	.LASF576
 6298 2032 7F       		.byte	0x7f
 6299 2033 12       		.uleb128 0x12
 6300 2034 A30A0000 		.4byte	.LASF577
 6301 2038 08       		.byte	0x8
 6302 2039 12       		.uleb128 0x12
 6303 203a 7F170000 		.4byte	.LASF578
 6304 203e 0A       		.byte	0xa
 6305 203f 12       		.uleb128 0x12
 6306 2040 24230000 		.4byte	.LASF579
 6307 2044 09       		.byte	0x9
 6308 2045 12       		.uleb128 0x12
 6309 2046 86230000 		.4byte	.LASF580
 6310 204a 0B       		.byte	0xb
 6311 204b 12       		.uleb128 0x12
 6312 204c 10000000 		.4byte	.LASF581
 6313 2050 02       		.byte	0x2
 6314 2051 12       		.uleb128 0x12
 6315 2052 781D0000 		.4byte	.LASF582
 6316 2056 03       		.byte	0x3
 6317 2057 00       		.byte	0
 6318 2058 02       		.uleb128 0x2
 6319 2059 351F0000 		.4byte	.LASF583
 6320 205d 1D       		.byte	0x1d
 6321 205e 34       		.byte	0x34
 6322 205f 63200000 		.4byte	0x2063
 6323 2063 0B       		.uleb128 0xb
 6324 2064 04       		.byte	0x4
 6325 2065 69200000 		.4byte	0x2069
 6326 2069 1F       		.uleb128 0x1f
 6327 206a 74200000 		.4byte	0x2074
 6328 206e 0E       		.uleb128 0xe
 6329 206f 1B1A0000 		.4byte	0x1a1b
 6330 2073 00       		.byte	0
 6331 2074 02       		.uleb128 0x2
 6332 2075 2A040000 		.4byte	.LASF584
 6333 2079 1D       		.byte	0x1d
 6334 207a 35       		.byte	0x35
 6335 207b 7F200000 		.4byte	0x207f
 6336 207f 0B       		.uleb128 0xb
 6337 2080 04       		.byte	0x4
 6338 2081 85200000 		.4byte	0x2085
 6339 2085 1F       		.uleb128 0x1f
 6340 2086 95200000 		.4byte	0x2095
 6341 208a 0E       		.uleb128 0xe
ARM GAS  C:\Users\haske\AppData\Local\Temp\cc1ymag8.s 			page 140


 6342 208b 1B1A0000 		.4byte	0x1a1b
 6343 208f 0E       		.uleb128 0xe
 6344 2090 AA020000 		.4byte	0x2aa
 6345 2094 00       		.byte	0
 6346 2095 02       		.uleb128 0x2
 6347 2096 240A0000 		.4byte	.LASF585
 6348 209a 1D       		.byte	0x1d
 6349 209b 4E       		.byte	0x4e
 6350 209c 96190000 		.4byte	0x1996
 6351 20a0 05       		.uleb128 0x5
 6352 20a1 1C       		.byte	0x1c
 6353 20a2 10       		.byte	0x10
 6354 20a3 9B       		.byte	0x9b
 6355 20a4 57210000 		.4byte	0x2157
 6356 20a8 07       		.uleb128 0x7
 6357 20a9 52170000 		.4byte	.LASF586
 6358 20ad 10       		.byte	0x10
 6359 20ae 9C       		.byte	0x9c
 6360 20af F4150000 		.4byte	0x15f4
 6361 20b3 00       		.byte	0
 6362 20b4 07       		.uleb128 0x7
 6363 20b5 D1090000 		.4byte	.LASF587
 6364 20b9 10       		.byte	0x10
 6365 20ba 9D       		.byte	0x9d
 6366 20bb E4000000 		.4byte	0xe4
 6367 20bf 04       		.byte	0x4
 6368 20c0 07       		.uleb128 0x7
 6369 20c1 5A0F0000 		.4byte	.LASF588
 6370 20c5 10       		.byte	0x10
 6371 20c6 9E       		.byte	0x9e
 6372 20c7 57210000 		.4byte	0x2157
 6373 20cb 08       		.byte	0x8
 6374 20cc 07       		.uleb128 0x7
 6375 20cd C00E0000 		.4byte	.LASF589
 6376 20d1 10       		.byte	0x10
 6377 20d2 A0       		.byte	0xa0
 6378 20d3 62210000 		.4byte	0x2162
 6379 20d7 0C       		.byte	0xc
 6380 20d8 07       		.uleb128 0x7
 6381 20d9 970F0000 		.4byte	.LASF590
 6382 20dd 10       		.byte	0x10
 6383 20de A1       		.byte	0xa1
 6384 20df 29010000 		.4byte	0x129
 6385 20e3 10       		.byte	0x10
 6386 20e4 07       		.uleb128 0x7
 6387 20e5 CC240000 		.4byte	.LASF591
 6388 20e9 10       		.byte	0x10
 6389 20ea A3       		.byte	0xa3
 6390 20eb 01010000 		.4byte	0x101
 6391 20ef 14       		.byte	0x14
 6392 20f0 07       		.uleb128 0x7
 6393 20f1 9A050000 		.4byte	.LASF592
 6394 20f5 10       		.byte	0x10
 6395 20f6 A4       		.byte	0xa4
 6396 20f7 01010000 		.4byte	0x101
 6397 20fb 16       		.byte	0x16
 6398 20fc 09       		.uleb128 0x9
ARM GAS  C:\Users\haske\AppData\Local\Temp\cc1ymag8.s 			page 141


 6399 20fd E70A0000 		.4byte	.LASF593
 6400 2101 10       		.byte	0x10
 6401 2102 A6       		.byte	0xa6
 6402 2103 8E1B0000 		.4byte	0x1b8e
 6403 2107 01       		.byte	0x1
 6404 2108 02       		.byte	0x2
 6405 2109 06       		.byte	0x6
 6406 210a 18       		.byte	0x18
 6407 210b 09       		.uleb128 0x9
 6408 210c 86020000 		.4byte	.LASF594
 6409 2110 10       		.byte	0x10
 6410 2111 A7       		.byte	0xa7
 6411 2112 991B0000 		.4byte	0x1b99
 6412 2116 01       		.byte	0x1
 6413 2117 02       		.byte	0x2
 6414 2118 04       		.byte	0x4
 6415 2119 18       		.byte	0x18
 6416 211a 09       		.uleb128 0x9
 6417 211b 94020000 		.4byte	.LASF595
 6418 211f 10       		.byte	0x10
 6419 2120 A8       		.byte	0xa8
 6420 2121 991B0000 		.4byte	0x1b99
 6421 2125 01       		.byte	0x1
 6422 2126 02       		.byte	0x2
 6423 2127 02       		.byte	0x2
 6424 2128 18       		.byte	0x18
 6425 2129 09       		.uleb128 0x9
 6426 212a 22060000 		.4byte	.LASF406
 6427 212e 10       		.byte	0x10
 6428 212f A9       		.byte	0xa9
 6429 2130 74010000 		.4byte	0x174
 6430 2134 01       		.byte	0x1
 6431 2135 04       		.byte	0x4
 6432 2136 04       		.byte	0x4
 6433 2137 19       		.byte	0x19
 6434 2138 09       		.uleb128 0x9
 6435 2139 552B0000 		.4byte	.LASF596
 6436 213d 10       		.byte	0x10
 6437 213e AA       		.byte	0xaa
 6438 213f B8000000 		.4byte	0xb8
 6439 2143 01       		.byte	0x1
 6440 2144 06       		.byte	0x6
 6441 2145 02       		.byte	0x2
 6442 2146 1A       		.byte	0x1a
 6443 2147 09       		.uleb128 0x9
 6444 2148 8C010000 		.4byte	.LASF597
 6445 214c 10       		.byte	0x10
 6446 214d AB       		.byte	0xab
 6447 214e B8000000 		.4byte	0xb8
 6448 2152 01       		.byte	0x1
 6449 2153 02       		.byte	0x2
 6450 2154 00       		.byte	0
 6451 2155 1A       		.byte	0x1a
 6452 2156 00       		.byte	0
 6453 2157 0B       		.uleb128 0xb
 6454 2158 04       		.byte	0x4
 6455 2159 95200000 		.4byte	0x2095
ARM GAS  C:\Users\haske\AppData\Local\Temp\cc1ymag8.s 			page 142


 6456 215d 24       		.uleb128 0x24
 6457 215e 4D280000 		.4byte	.LASF727
 6458 2162 0B       		.uleb128 0xb
 6459 2163 04       		.byte	0x4
 6460 2164 5D210000 		.4byte	0x215d
 6461 2168 02       		.uleb128 0x2
 6462 2169 840D0000 		.4byte	.LASF598
 6463 216d 10       		.byte	0x10
 6464 216e AC       		.byte	0xac
 6465 216f A0200000 		.4byte	0x20a0
 6466 2173 0B       		.uleb128 0xb
 6467 2174 04       		.byte	0x4
 6468 2175 79210000 		.4byte	0x2179
 6469 2179 0C       		.uleb128 0xc
 6470 217a 891E0000 		.4byte	0x1e89
 6471 217e 0B       		.uleb128 0xb
 6472 217f 04       		.byte	0x4
 6473 2180 68210000 		.4byte	0x2168
 6474 2184 0B       		.uleb128 0xb
 6475 2185 04       		.byte	0x4
 6476 2186 EC1B0000 		.4byte	0x1bec
 6477 218a 02       		.uleb128 0x2
 6478 218b 4C2B0000 		.4byte	.LASF599
 6479 218f 10       		.byte	0x10
 6480 2190 BF       		.byte	0xbf
 6481 2191 00080000 		.4byte	0x800
 6482 2195 11       		.uleb128 0x11
 6483 2196 01       		.byte	0x1
 6484 2197 42000000 		.4byte	0x42
 6485 219b 23       		.byte	0x23
 6486 219c 21       		.byte	0x21
 6487 219d B4210000 		.4byte	0x21b4
 6488 21a1 12       		.uleb128 0x12
 6489 21a2 FA1A0000 		.4byte	.LASF600
 6490 21a6 00       		.byte	0
 6491 21a7 12       		.uleb128 0x12
 6492 21a8 C2290000 		.4byte	.LASF601
 6493 21ac 01       		.byte	0x1
 6494 21ad 12       		.uleb128 0x12
 6495 21ae 64200000 		.4byte	.LASF602
 6496 21b2 02       		.byte	0x2
 6497 21b3 00       		.byte	0
 6498 21b4 02       		.uleb128 0x2
 6499 21b5 8E110000 		.4byte	.LASF603
 6500 21b9 23       		.byte	0x23
 6501 21ba 26       		.byte	0x26
 6502 21bb B8000000 		.4byte	0xb8
 6503 21bf 05       		.uleb128 0x5
 6504 21c0 10       		.byte	0x10
 6505 21c1 23       		.byte	0x23
 6506 21c2 28       		.byte	0x28
 6507 21c3 F8210000 		.4byte	0x21f8
 6508 21c7 06       		.uleb128 0x6
 6509 21c8 62617200 		.ascii	"bar\000"
 6510 21cc 23       		.byte	0x23
 6511 21cd 29       		.byte	0x29
 6512 21ce F8210000 		.4byte	0x21f8
ARM GAS  C:\Users\haske\AppData\Local\Temp\cc1ymag8.s 			page 143


 6513 21d2 00       		.byte	0
 6514 21d3 07       		.uleb128 0x7
 6515 21d4 7E270000 		.4byte	.LASF604
 6516 21d8 23       		.byte	0x23
 6517 21d9 2A       		.byte	0x2a
 6518 21da D9000000 		.4byte	0xd9
 6519 21de 04       		.byte	0x4
 6520 21df 07       		.uleb128 0x7
 6521 21e0 2C050000 		.4byte	.LASF605
 6522 21e4 23       		.byte	0x23
 6523 21e5 2B       		.byte	0x2b
 6524 21e6 D9000000 		.4byte	0xd9
 6525 21ea 08       		.byte	0x8
 6526 21eb 07       		.uleb128 0x7
 6527 21ec F1270000 		.4byte	.LASF606
 6528 21f0 23       		.byte	0x23
 6529 21f1 2C       		.byte	0x2c
 6530 21f2 D9000000 		.4byte	0xd9
 6531 21f6 0C       		.byte	0xc
 6532 21f7 00       		.byte	0
 6533 21f8 0B       		.uleb128 0xb
 6534 21f9 04       		.byte	0x4
 6535 21fa 8A210000 		.4byte	0x218a
 6536 21fe 02       		.uleb128 0x2
 6537 21ff 3D040000 		.4byte	.LASF607
 6538 2203 23       		.byte	0x23
 6539 2204 2D       		.byte	0x2d
 6540 2205 BF210000 		.4byte	0x21bf
 6541 2209 05       		.uleb128 0x5
 6542 220a 60       		.byte	0x60
 6543 220b 23       		.byte	0x23
 6544 220c 2F       		.byte	0x2f
 6545 220d 81220000 		.4byte	0x2281
 6546 2211 06       		.uleb128 0x6
 6547 2212 6F626A00 		.ascii	"obj\000"
 6548 2216 23       		.byte	0x23
 6549 2217 30       		.byte	0x30
 6550 2218 8A210000 		.4byte	0x218a
 6551 221c 00       		.byte	0
 6552 221d 07       		.uleb128 0x7
 6553 221e FC220000 		.4byte	.LASF608
 6554 2222 23       		.byte	0x23
 6555 2223 31       		.byte	0x31
 6556 2224 D9000000 		.4byte	0xd9
 6557 2228 24       		.byte	0x24
 6558 2229 07       		.uleb128 0x7
 6559 222a 71220000 		.4byte	.LASF609
 6560 222e 23       		.byte	0x23
 6561 222f 32       		.byte	0x32
 6562 2230 D9000000 		.4byte	0xd9
 6563 2234 28       		.byte	0x28
 6564 2235 07       		.uleb128 0x7
 6565 2236 D5000000 		.4byte	.LASF610
 6566 223a 23       		.byte	0x23
 6567 223b 33       		.byte	0x33
 6568 223c D9000000 		.4byte	0xd9
 6569 2240 2C       		.byte	0x2c
ARM GAS  C:\Users\haske\AppData\Local\Temp\cc1ymag8.s 			page 144


 6570 2241 07       		.uleb128 0x7
 6571 2242 48090000 		.4byte	.LASF611
 6572 2246 23       		.byte	0x23
 6573 2247 34       		.byte	0x34
 6574 2248 D9000000 		.4byte	0xd9
 6575 224c 30       		.byte	0x30
 6576 224d 07       		.uleb128 0x7
 6577 224e 46020000 		.4byte	.LASF612
 6578 2252 23       		.byte	0x23
 6579 2253 35       		.byte	0x35
 6580 2254 69010000 		.4byte	0x169
 6581 2258 34       		.byte	0x34
 6582 2259 07       		.uleb128 0x7
 6583 225a 05180000 		.4byte	.LASF613
 6584 225e 23       		.byte	0x23
 6585 225f 36       		.byte	0x36
 6586 2260 FE210000 		.4byte	0x21fe
 6587 2264 3C       		.byte	0x3c
 6588 2265 07       		.uleb128 0x7
 6589 2266 7B090000 		.4byte	.LASF614
 6590 226a 23       		.byte	0x23
 6591 226b 37       		.byte	0x37
 6592 226c FE210000 		.4byte	0x21fe
 6593 2270 4C       		.byte	0x4c
 6594 2271 09       		.uleb128 0x9
 6595 2272 2A240000 		.4byte	.LASF615
 6596 2276 23       		.byte	0x23
 6597 2277 38       		.byte	0x38
 6598 2278 B4210000 		.4byte	0x21b4
 6599 227c 01       		.byte	0x1
 6600 227d 02       		.byte	0x2
 6601 227e 06       		.byte	0x6
 6602 227f 5C       		.byte	0x5c
 6603 2280 00       		.byte	0
 6604 2281 02       		.uleb128 0x2
 6605 2282 D0100000 		.4byte	.LASF616
 6606 2286 23       		.byte	0x23
 6607 2287 39       		.byte	0x39
 6608 2288 09220000 		.4byte	0x2209
 6609 228c 11       		.uleb128 0x11
 6610 228d 01       		.byte	0x1
 6611 228e 42000000 		.4byte	0x42
 6612 2292 04       		.byte	0x4
 6613 2293 24       		.byte	0x24
 6614 2294 AB220000 		.4byte	0x22ab
 6615 2298 12       		.uleb128 0x12
 6616 2299 1F010000 		.4byte	.LASF617
 6617 229d 00       		.byte	0
 6618 229e 12       		.uleb128 0x12
 6619 229f 35140000 		.4byte	.LASF618
 6620 22a3 01       		.byte	0x1
 6621 22a4 12       		.uleb128 0x12
 6622 22a5 95250000 		.4byte	.LASF619
 6623 22a9 02       		.byte	0x2
 6624 22aa 00       		.byte	0
 6625 22ab 02       		.uleb128 0x2
 6626 22ac 47230000 		.4byte	.LASF620
ARM GAS  C:\Users\haske\AppData\Local\Temp\cc1ymag8.s 			page 145


 6627 22b0 04       		.byte	0x4
 6628 22b1 29       		.byte	0x29
 6629 22b2 B8000000 		.4byte	0xb8
 6630 22b6 05       		.uleb128 0x5
 6631 22b7 78       		.byte	0x78
 6632 22b8 04       		.byte	0x4
 6633 22b9 2B       		.byte	0x2b
 6634 22ba 0D230000 		.4byte	0x230d
 6635 22be 06       		.uleb128 0x6
 6636 22bf 62617200 		.ascii	"bar\000"
 6637 22c3 04       		.byte	0x4
 6638 22c4 2C       		.byte	0x2c
 6639 22c5 81220000 		.4byte	0x2281
 6640 22c9 00       		.byte	0
 6641 22ca 07       		.uleb128 0x7
 6642 22cb D91E0000 		.4byte	.LASF621
 6643 22cf 04       		.byte	0x4
 6644 22d0 2D       		.byte	0x2d
 6645 22d1 69010000 		.4byte	0x169
 6646 22d5 60       		.byte	0x60
 6647 22d6 07       		.uleb128 0x7
 6648 22d7 A8050000 		.4byte	.LASF622
 6649 22db 04       		.byte	0x4
 6650 22dc 2E       		.byte	0x2e
 6651 22dd 69010000 		.4byte	0x169
 6652 22e1 68       		.byte	0x68
 6653 22e2 07       		.uleb128 0x7
 6654 22e3 C8000000 		.4byte	.LASF623
 6655 22e7 04       		.byte	0x4
 6656 22e8 2F       		.byte	0x2f
 6657 22e9 0D230000 		.4byte	0x230d
 6658 22ed 70       		.byte	0x70
 6659 22ee 09       		.uleb128 0x9
 6660 22ef 51250000 		.4byte	.LASF624
 6661 22f3 04       		.byte	0x4
 6662 22f4 30       		.byte	0x30
 6663 22f5 B8000000 		.4byte	0xb8
 6664 22f9 01       		.byte	0x1
 6665 22fa 01       		.byte	0x1
 6666 22fb 07       		.byte	0x7
 6667 22fc 74       		.byte	0x74
 6668 22fd 09       		.uleb128 0x9
 6669 22fe EA1D0000 		.4byte	.LASF625
 6670 2302 04       		.byte	0x4
 6671 2303 31       		.byte	0x31
 6672 2304 B8000000 		.4byte	0xb8
 6673 2308 01       		.byte	0x1
 6674 2309 01       		.byte	0x1
 6675 230a 06       		.byte	0x6
 6676 230b 74       		.byte	0x74
 6677 230c 00       		.byte	0
 6678 230d 0B       		.uleb128 0xb
 6679 230e 04       		.byte	0x4
 6680 230f D9000000 		.4byte	0xd9
 6681 2313 02       		.uleb128 0x2
 6682 2314 250C0000 		.4byte	.LASF626
 6683 2318 04       		.byte	0x4
ARM GAS  C:\Users\haske\AppData\Local\Temp\cc1ymag8.s 			page 146


 6684 2319 32       		.byte	0x32
 6685 231a B6220000 		.4byte	0x22b6
 6686 231e 11       		.uleb128 0x11
 6687 231f 01       		.byte	0x1
 6688 2320 42000000 		.4byte	0x42
 6689 2324 04       		.byte	0x4
 6690 2325 3A       		.byte	0x3a
 6691 2326 37230000 		.4byte	0x2337
 6692 232a 12       		.uleb128 0x12
 6693 232b E3220000 		.4byte	.LASF627
 6694 232f 00       		.byte	0
 6695 2330 12       		.uleb128 0x12
 6696 2331 1D080000 		.4byte	.LASF628
 6697 2335 01       		.byte	0x1
 6698 2336 00       		.byte	0
 6699 2337 02       		.uleb128 0x2
 6700 2338 DA0F0000 		.4byte	.LASF629
 6701 233c 1B       		.byte	0x1b
 6702 233d 1D       		.byte	0x1d
 6703 233e 42230000 		.4byte	0x2342
 6704 2342 0B       		.uleb128 0xb
 6705 2343 04       		.byte	0x4
 6706 2344 48230000 		.4byte	0x2348
 6707 2348 1F       		.uleb128 0x1f
 6708 2349 58230000 		.4byte	0x2358
 6709 234d 0E       		.uleb128 0xe
 6710 234e EE150000 		.4byte	0x15ee
 6711 2352 0E       		.uleb128 0xe
 6712 2353 F8210000 		.4byte	0x21f8
 6713 2357 00       		.byte	0
 6714 2358 25       		.uleb128 0x25
 6715 2359 EC280000 		.4byte	.LASF630
 6716 235d 02       		.byte	0x2
 6717 235e 3D       		.byte	0x3d
 6718 235f 01010000 		.4byte	0x101
 6719 2363 03       		.byte	0x3
 6720 2364 88230000 		.4byte	0x2388
 6721 2368 26       		.uleb128 0x26
 6722 2369 6F626A00 		.ascii	"obj\000"
 6723 236d 02       		.byte	0x2
 6724 236e 3D       		.byte	0x3d
 6725 236f 88230000 		.4byte	0x2388
 6726 2373 27       		.uleb128 0x27
 6727 2374 112A0000 		.4byte	.LASF492
 6728 2378 02       		.byte	0x2
 6729 2379 3D       		.byte	0x3d
 6730 237a E4000000 		.4byte	0xe4
 6731 237e 28       		.uleb128 0x28
 6732 237f 7600     		.ascii	"v\000"
 6733 2381 02       		.byte	0x2
 6734 2382 3F       		.byte	0x3f
 6735 2383 FA040000 		.4byte	0x4fa
 6736 2387 00       		.byte	0
 6737 2388 0B       		.uleb128 0xb
 6738 2389 04       		.byte	0x4
 6739 238a 8E230000 		.4byte	0x238e
 6740 238e 0C       		.uleb128 0xc
ARM GAS  C:\Users\haske\AppData\Local\Temp\cc1ymag8.s 			page 147


 6741 238f 00080000 		.4byte	0x800
 6742 2393 25       		.uleb128 0x25
 6743 2394 4F050000 		.4byte	.LASF631
 6744 2398 02       		.byte	0x2
 6745 2399 37       		.byte	0x37
 6746 239a 01010000 		.4byte	0x101
 6747 239e 03       		.byte	0x3
 6748 239f C3230000 		.4byte	0x23c3
 6749 23a3 26       		.uleb128 0x26
 6750 23a4 6F626A00 		.ascii	"obj\000"
 6751 23a8 02       		.byte	0x2
 6752 23a9 37       		.byte	0x37
 6753 23aa 88230000 		.4byte	0x2388
 6754 23ae 27       		.uleb128 0x27
 6755 23af 112A0000 		.4byte	.LASF492
 6756 23b3 02       		.byte	0x2
 6757 23b4 37       		.byte	0x37
 6758 23b5 E4000000 		.4byte	0xe4
 6759 23b9 28       		.uleb128 0x28
 6760 23ba 7600     		.ascii	"v\000"
 6761 23bc 02       		.byte	0x2
 6762 23bd 39       		.byte	0x39
 6763 23be FA040000 		.4byte	0x4fa
 6764 23c2 00       		.byte	0
 6765 23c3 25       		.uleb128 0x25
 6766 23c4 11170000 		.4byte	.LASF632
 6767 23c8 02       		.byte	0x2
 6768 23c9 6D       		.byte	0x6d
 6769 23ca 01010000 		.4byte	0x101
 6770 23ce 03       		.byte	0x3
 6771 23cf F3230000 		.4byte	0x23f3
 6772 23d3 26       		.uleb128 0x26
 6773 23d4 6F626A00 		.ascii	"obj\000"
 6774 23d8 02       		.byte	0x2
 6775 23d9 6D       		.byte	0x6d
 6776 23da 88230000 		.4byte	0x2388
 6777 23de 27       		.uleb128 0x27
 6778 23df 112A0000 		.4byte	.LASF492
 6779 23e3 02       		.byte	0x2
 6780 23e4 6D       		.byte	0x6d
 6781 23e5 E4000000 		.4byte	0xe4
 6782 23e9 28       		.uleb128 0x28
 6783 23ea 7600     		.ascii	"v\000"
 6784 23ec 02       		.byte	0x2
 6785 23ed 6F       		.byte	0x6f
 6786 23ee FA040000 		.4byte	0x4fa
 6787 23f2 00       		.byte	0
 6788 23f3 25       		.uleb128 0x25
 6789 23f4 E0070000 		.4byte	.LASF633
 6790 23f8 02       		.byte	0x2
 6791 23f9 67       		.byte	0x67
 6792 23fa 01010000 		.4byte	0x101
 6793 23fe 03       		.byte	0x3
 6794 23ff 23240000 		.4byte	0x2423
 6795 2403 26       		.uleb128 0x26
 6796 2404 6F626A00 		.ascii	"obj\000"
 6797 2408 02       		.byte	0x2
ARM GAS  C:\Users\haske\AppData\Local\Temp\cc1ymag8.s 			page 148


 6798 2409 67       		.byte	0x67
 6799 240a 88230000 		.4byte	0x2388
 6800 240e 27       		.uleb128 0x27
 6801 240f 112A0000 		.4byte	.LASF492
 6802 2413 02       		.byte	0x2
 6803 2414 67       		.byte	0x67
 6804 2415 E4000000 		.4byte	0xe4
 6805 2419 28       		.uleb128 0x28
 6806 241a 7600     		.ascii	"v\000"
 6807 241c 02       		.byte	0x2
 6808 241d 69       		.byte	0x69
 6809 241e FA040000 		.4byte	0x4fa
 6810 2422 00       		.byte	0
 6811 2423 25       		.uleb128 0x25
 6812 2424 F20D0000 		.4byte	.LASF634
 6813 2428 02       		.byte	0x2
 6814 2429 79       		.byte	0x79
 6815 242a 01010000 		.4byte	0x101
 6816 242e 03       		.byte	0x3
 6817 242f 53240000 		.4byte	0x2453
 6818 2433 26       		.uleb128 0x26
 6819 2434 6F626A00 		.ascii	"obj\000"
 6820 2438 02       		.byte	0x2
 6821 2439 79       		.byte	0x79
 6822 243a 88230000 		.4byte	0x2388
 6823 243e 27       		.uleb128 0x27
 6824 243f 112A0000 		.4byte	.LASF492
 6825 2443 02       		.byte	0x2
 6826 2444 79       		.byte	0x79
 6827 2445 E4000000 		.4byte	0xe4
 6828 2449 28       		.uleb128 0x28
 6829 244a 7600     		.ascii	"v\000"
 6830 244c 02       		.byte	0x2
 6831 244d 7B       		.byte	0x7b
 6832 244e FA040000 		.4byte	0x4fa
 6833 2452 00       		.byte	0
 6834 2453 25       		.uleb128 0x25
 6835 2454 19100000 		.4byte	.LASF635
 6836 2458 02       		.byte	0x2
 6837 2459 73       		.byte	0x73
 6838 245a 01010000 		.4byte	0x101
 6839 245e 03       		.byte	0x3
 6840 245f 83240000 		.4byte	0x2483
 6841 2463 26       		.uleb128 0x26
 6842 2464 6F626A00 		.ascii	"obj\000"
 6843 2468 02       		.byte	0x2
 6844 2469 73       		.byte	0x73
 6845 246a 88230000 		.4byte	0x2388
 6846 246e 27       		.uleb128 0x27
 6847 246f 112A0000 		.4byte	.LASF492
 6848 2473 02       		.byte	0x2
 6849 2474 73       		.byte	0x73
 6850 2475 E4000000 		.4byte	0xe4
 6851 2479 28       		.uleb128 0x28
 6852 247a 7600     		.ascii	"v\000"
 6853 247c 02       		.byte	0x2
 6854 247d 75       		.byte	0x75
ARM GAS  C:\Users\haske\AppData\Local\Temp\cc1ymag8.s 			page 149


 6855 247e FA040000 		.4byte	0x4fa
 6856 2482 00       		.byte	0
 6857 2483 29       		.uleb128 0x29
 6858 2484 13020000 		.4byte	.LASF636
 6859 2488 02       		.byte	0x2
 6860 2489 2F02     		.2byte	0x22f
 6861 248b 08040000 		.4byte	0x408
 6862 248f 03       		.byte	0x3
 6863 2490 B7240000 		.4byte	0x24b7
 6864 2494 2A       		.uleb128 0x2a
 6865 2495 6F626A00 		.ascii	"obj\000"
 6866 2499 02       		.byte	0x2
 6867 249a 2F02     		.2byte	0x22f
 6868 249c 88230000 		.4byte	0x2388
 6869 24a0 2B       		.uleb128 0x2b
 6870 24a1 112A0000 		.4byte	.LASF492
 6871 24a5 02       		.byte	0x2
 6872 24a6 2F02     		.2byte	0x22f
 6873 24a8 E4000000 		.4byte	0xe4
 6874 24ac 2C       		.uleb128 0x2c
 6875 24ad 7600     		.ascii	"v\000"
 6876 24af 02       		.byte	0x2
 6877 24b0 3102     		.2byte	0x231
 6878 24b2 FA040000 		.4byte	0x4fa
 6879 24b6 00       		.byte	0
 6880 24b7 25       		.uleb128 0x25
 6881 24b8 B01D0000 		.4byte	.LASF637
 6882 24bc 04       		.byte	0x4
 6883 24bd B1       		.byte	0xb1
 6884 24be AB220000 		.4byte	0x22ab
 6885 24c2 03       		.byte	0x3
 6886 24c3 DE240000 		.4byte	0x24de
 6887 24c7 27       		.uleb128 0x27
 6888 24c8 C2140000 		.4byte	.LASF638
 6889 24cc 04       		.byte	0x4
 6890 24cd B1       		.byte	0xb1
 6891 24ce F8210000 		.4byte	0x21f8
 6892 24d2 2D       		.uleb128 0x2d
 6893 24d3 2A240000 		.4byte	.LASF615
 6894 24d7 04       		.byte	0x4
 6895 24d8 B3       		.byte	0xb3
 6896 24d9 B4210000 		.4byte	0x21b4
 6897 24dd 00       		.byte	0
 6898 24de 2E       		.uleb128 0x2e
 6899 24df 640C0000 		.4byte	.LASF641
 6900 24e3 03       		.byte	0x3
 6901 24e4 6E       		.byte	0x6e
 6902 24e5 03       		.byte	0x3
 6903 24e6 01250000 		.4byte	0x2501
 6904 24ea 27       		.uleb128 0x27
 6905 24eb D8210000 		.4byte	.LASF639
 6906 24ef 03       		.byte	0x3
 6907 24f0 6E       		.byte	0x6e
 6908 24f1 040D0000 		.4byte	0xd04
 6909 24f5 26       		.uleb128 0x26
 6910 24f6 73726300 		.ascii	"src\000"
 6911 24fa 03       		.byte	0x3
ARM GAS  C:\Users\haske\AppData\Local\Temp\cc1ymag8.s 			page 150


 6912 24fb 6E       		.byte	0x6e
 6913 24fc F90C0000 		.4byte	0xcf9
 6914 2500 00       		.byte	0
 6915 2501 25       		.uleb128 0x25
 6916 2502 050C0000 		.4byte	.LASF640
 6917 2506 02       		.byte	0x2
 6918 2507 4F       		.byte	0x4f
 6919 2508 01010000 		.4byte	0x101
 6920 250c 03       		.byte	0x3
 6921 250d 31250000 		.4byte	0x2531
 6922 2511 26       		.uleb128 0x26
 6923 2512 6F626A00 		.ascii	"obj\000"
 6924 2516 02       		.byte	0x2
 6925 2517 4F       		.byte	0x4f
 6926 2518 88230000 		.4byte	0x2388
 6927 251c 27       		.uleb128 0x27
 6928 251d 112A0000 		.4byte	.LASF492
 6929 2521 02       		.byte	0x2
 6930 2522 4F       		.byte	0x4f
 6931 2523 E4000000 		.4byte	0xe4
 6932 2527 28       		.uleb128 0x28
 6933 2528 7600     		.ascii	"v\000"
 6934 252a 02       		.byte	0x2
 6935 252b 51       		.byte	0x51
 6936 252c FA040000 		.4byte	0x4fa
 6937 2530 00       		.byte	0
 6938 2531 2E       		.uleb128 0x2e
 6939 2532 051A0000 		.4byte	.LASF642
 6940 2536 04       		.byte	0x4
 6941 2537 54       		.byte	0x54
 6942 2538 03       		.byte	0x3
 6943 2539 5F250000 		.4byte	0x255f
 6944 253d 26       		.uleb128 0x26
 6945 253e 6F626A00 		.ascii	"obj\000"
 6946 2542 04       		.byte	0x4
 6947 2543 54       		.byte	0x54
 6948 2544 F8210000 		.4byte	0x21f8
 6949 2548 27       		.uleb128 0x27
 6950 2549 E30B0000 		.4byte	.LASF172
 6951 254d 04       		.byte	0x4
 6952 254e 54       		.byte	0x54
 6953 254f D9000000 		.4byte	0xd9
 6954 2553 27       		.uleb128 0x27
 6955 2554 76200000 		.4byte	.LASF643
 6956 2558 04       		.byte	0x4
 6957 2559 54       		.byte	0x54
 6958 255a BC030000 		.4byte	0x3bc
 6959 255e 00       		.byte	0
 6960 255f 25       		.uleb128 0x25
 6961 2560 F82A0000 		.4byte	.LASF644
 6962 2564 04       		.byte	0x4
 6963 2565 82       		.byte	0x82
 6964 2566 D9000000 		.4byte	0xd9
 6965 256a 03       		.byte	0x3
 6966 256b 7B250000 		.4byte	0x257b
 6967 256f 26       		.uleb128 0x26
 6968 2570 6F626A00 		.ascii	"obj\000"
ARM GAS  C:\Users\haske\AppData\Local\Temp\cc1ymag8.s 			page 151


 6969 2574 04       		.byte	0x4
 6970 2575 82       		.byte	0x82
 6971 2576 7B250000 		.4byte	0x257b
 6972 257a 00       		.byte	0
 6973 257b 0B       		.uleb128 0xb
 6974 257c 04       		.byte	0x4
 6975 257d 81250000 		.4byte	0x2581
 6976 2581 0C       		.uleb128 0xc
 6977 2582 8A210000 		.4byte	0x218a
 6978 2586 2E       		.uleb128 0x2e
 6979 2587 94210000 		.4byte	.LASF645
 6980 258b 04       		.byte	0x4
 6981 258c 5F       		.byte	0x5f
 6982 258d 03       		.byte	0x3
 6983 258e B4250000 		.4byte	0x25b4
 6984 2592 26       		.uleb128 0x26
 6985 2593 6F626A00 		.ascii	"obj\000"
 6986 2597 04       		.byte	0x4
 6987 2598 5F       		.byte	0x5f
 6988 2599 F8210000 		.4byte	0x21f8
 6989 259d 27       		.uleb128 0x27
 6990 259e E30B0000 		.4byte	.LASF172
 6991 25a2 04       		.byte	0x4
 6992 25a3 5F       		.byte	0x5f
 6993 25a4 D9000000 		.4byte	0xd9
 6994 25a8 27       		.uleb128 0x27
 6995 25a9 76200000 		.4byte	.LASF643
 6996 25ad 04       		.byte	0x4
 6997 25ae 5F       		.byte	0x5f
 6998 25af BC030000 		.4byte	0x3bc
 6999 25b3 00       		.byte	0
 7000 25b4 25       		.uleb128 0x25
 7001 25b5 6E1C0000 		.4byte	.LASF646
 7002 25b9 04       		.byte	0x4
 7003 25ba 8C       		.byte	0x8c
 7004 25bb D9000000 		.4byte	0xd9
 7005 25bf 03       		.byte	0x3
 7006 25c0 D0250000 		.4byte	0x25d0
 7007 25c4 26       		.uleb128 0x26
 7008 25c5 6F626A00 		.ascii	"obj\000"
 7009 25c9 04       		.byte	0x4
 7010 25ca 8C       		.byte	0x8c
 7011 25cb 7B250000 		.4byte	0x257b
 7012 25cf 00       		.byte	0
 7013 25d0 2F       		.uleb128 0x2f
 7014 25d1 BC090000 		.4byte	.LASF728
 7015 25d5 01       		.byte	0x1
 7016 25d6 BA01     		.2byte	0x1ba
 7017 25d8 AA020000 		.4byte	0x2aa
 7018 25dc 00000000 		.4byte	.LFB180
 7019 25e0 1E000000 		.4byte	.LFE180-.LFB180
 7020 25e4 01       		.uleb128 0x1
 7021 25e5 9C       		.byte	0x9c
 7022 25e6 1F260000 		.4byte	0x261f
 7023 25ea 30       		.uleb128 0x30
 7024 25eb 6F626A00 		.ascii	"obj\000"
 7025 25ef 01       		.byte	0x1
ARM GAS  C:\Users\haske\AppData\Local\Temp\cc1ymag8.s 			page 152


 7026 25f0 BA01     		.2byte	0x1ba
 7027 25f2 F8210000 		.4byte	0x21f8
 7028 25f6 00000000 		.4byte	.LLST0
 7029 25fa 31       		.uleb128 0x31
 7030 25fb 08000000 		.4byte	.LVL1
 7031 25ff 4C3B0000 		.4byte	0x3b4c
 7032 2603 0E260000 		.4byte	0x260e
 7033 2607 32       		.uleb128 0x32
 7034 2608 01       		.uleb128 0x1
 7035 2609 50       		.byte	0x50
 7036 260a 02       		.uleb128 0x2
 7037 260b 75       		.byte	0x75
 7038 260c 00       		.sleb128 0
 7039 260d 00       		.byte	0
 7040 260e 33       		.uleb128 0x33
 7041 260f 10000000 		.4byte	.LVL2
 7042 2613 583B0000 		.4byte	0x3b58
 7043 2617 32       		.uleb128 0x32
 7044 2618 01       		.uleb128 0x1
 7045 2619 50       		.byte	0x50
 7046 261a 02       		.uleb128 0x2
 7047 261b 75       		.byte	0x75
 7048 261c 00       		.sleb128 0
 7049 261d 00       		.byte	0
 7050 261e 00       		.byte	0
 7051 261f 34       		.uleb128 0x34
 7052 2620 F3160000 		.4byte	.LASF655
 7053 2624 01       		.byte	0x1
 7054 2625 9C01     		.2byte	0x19c
 7055 2627 00000000 		.4byte	.LFB179
 7056 262b CC000000 		.4byte	.LFE179-.LFB179
 7057 262f 01       		.uleb128 0x1
 7058 2630 9C       		.byte	0x9c
 7059 2631 B2280000 		.4byte	0x28b2
 7060 2635 30       		.uleb128 0x30
 7061 2636 6F626A00 		.ascii	"obj\000"
 7062 263a 01       		.byte	0x1
 7063 263b 9C01     		.2byte	0x19c
 7064 263d F8210000 		.4byte	0x21f8
 7065 2641 2C000000 		.4byte	.LLST1
 7066 2645 35       		.uleb128 0x35
 7067 2646 112B0000 		.4byte	.LASF647
 7068 264a 01       		.byte	0x1
 7069 264b 9C01     		.2byte	0x19c
 7070 264d 040D0000 		.4byte	0xd04
 7071 2651 58000000 		.4byte	.LLST2
 7072 2655 35       		.uleb128 0x35
 7073 2656 42290000 		.4byte	.LASF648
 7074 265a 01       		.byte	0x1
 7075 265b 9C01     		.2byte	0x19c
 7076 265d B2280000 		.4byte	0x28b2
 7077 2661 9A000000 		.4byte	.LLST3
 7078 2665 30       		.uleb128 0x30
 7079 2666 686F7200 		.ascii	"hor\000"
 7080 266a 01       		.byte	0x1
 7081 266b 9C01     		.2byte	0x19c
 7082 266d B7280000 		.4byte	0x28b7
ARM GAS  C:\Users\haske\AppData\Local\Temp\cc1ymag8.s 			page 153


 7083 2671 D4000000 		.4byte	.LLST4
 7084 2675 36       		.uleb128 0x36
 7085 2676 B8290000 		.4byte	.LASF649
 7086 267a 01       		.byte	0x1
 7087 267b AB01     		.2byte	0x1ab
 7088 267d 01010000 		.4byte	0x101
 7089 2681 36       		.uleb128 0x36
 7090 2682 A1180000 		.4byte	.LASF650
 7091 2686 01       		.byte	0x1
 7092 2687 AC01     		.2byte	0x1ac
 7093 2689 01010000 		.4byte	0x101
 7094 268d 36       		.uleb128 0x36
 7095 268e A1270000 		.4byte	.LASF651
 7096 2692 01       		.byte	0x1
 7097 2693 AD01     		.2byte	0x1ad
 7098 2695 01010000 		.4byte	0x101
 7099 2699 36       		.uleb128 0x36
 7100 269a 1B2B0000 		.4byte	.LASF652
 7101 269e 01       		.byte	0x1
 7102 269f AE01     		.2byte	0x1ae
 7103 26a1 01010000 		.4byte	0x101
 7104 26a5 36       		.uleb128 0x36
 7105 26a6 6C060000 		.4byte	.LASF653
 7106 26aa 01       		.byte	0x1
 7107 26ab B001     		.2byte	0x1b0
 7108 26ad 01010000 		.4byte	0x101
 7109 26b1 36       		.uleb128 0x36
 7110 26b2 11060000 		.4byte	.LASF654
 7111 26b6 01       		.byte	0x1
 7112 26b7 B101     		.2byte	0x1b1
 7113 26b9 01010000 		.4byte	0x101
 7114 26bd 37       		.uleb128 0x37
 7115 26be 53240000 		.4byte	0x2453
 7116 26c2 4E000000 		.4byte	.LBB83
 7117 26c6 10000000 		.4byte	.LBE83-.LBB83
 7118 26ca 01       		.byte	0x1
 7119 26cb AB01     		.2byte	0x1ab
 7120 26cd 12270000 		.4byte	0x2712
 7121 26d1 38       		.uleb128 0x38
 7122 26d2 6E240000 		.4byte	0x246e
 7123 26d6 0E010000 		.4byte	.LLST5
 7124 26da 38       		.uleb128 0x38
 7125 26db 63240000 		.4byte	0x2463
 7126 26df 24010000 		.4byte	.LLST6
 7127 26e3 39       		.uleb128 0x39
 7128 26e4 4E000000 		.4byte	.LBB84
 7129 26e8 10000000 		.4byte	.LBE84-.LBB84
 7130 26ec 3A       		.uleb128 0x3a
 7131 26ed 79240000 		.4byte	0x2479
 7132 26f1 42010000 		.4byte	.LLST7
 7133 26f5 33       		.uleb128 0x33
 7134 26f6 5C000000 		.4byte	.LVL14
 7135 26fa 643B0000 		.4byte	0x3b64
 7136 26fe 32       		.uleb128 0x32
 7137 26ff 01       		.uleb128 0x1
 7138 2700 50       		.byte	0x50
 7139 2701 02       		.uleb128 0x2
ARM GAS  C:\Users\haske\AppData\Local\Temp\cc1ymag8.s 			page 154


 7140 2702 75       		.byte	0x75
 7141 2703 00       		.sleb128 0
 7142 2704 32       		.uleb128 0x32
 7143 2705 01       		.uleb128 0x1
 7144 2706 51       		.byte	0x51
 7145 2707 02       		.uleb128 0x2
 7146 2708 76       		.byte	0x76
 7147 2709 00       		.sleb128 0
 7148 270a 32       		.uleb128 0x32
 7149 270b 01       		.uleb128 0x1
 7150 270c 52       		.byte	0x52
 7151 270d 01       		.uleb128 0x1
 7152 270e 42       		.byte	0x42
 7153 270f 00       		.byte	0
 7154 2710 00       		.byte	0
 7155 2711 00       		.byte	0
 7156 2712 37       		.uleb128 0x37
 7157 2713 23240000 		.4byte	0x2423
 7158 2717 5E000000 		.4byte	.LBB85
 7159 271b 0C000000 		.4byte	.LBE85-.LBB85
 7160 271f 01       		.byte	0x1
 7161 2720 AC01     		.2byte	0x1ac
 7162 2722 67270000 		.4byte	0x2767
 7163 2726 38       		.uleb128 0x38
 7164 2727 3E240000 		.4byte	0x243e
 7165 272b 55010000 		.4byte	.LLST8
 7166 272f 38       		.uleb128 0x38
 7167 2730 33240000 		.4byte	0x2433
 7168 2734 6B010000 		.4byte	.LLST9
 7169 2738 39       		.uleb128 0x39
 7170 2739 5E000000 		.4byte	.LBB86
 7171 273d 0C000000 		.4byte	.LBE86-.LBB86
 7172 2741 3A       		.uleb128 0x3a
 7173 2742 49240000 		.4byte	0x2449
 7174 2746 7E010000 		.4byte	.LLST10
 7175 274a 33       		.uleb128 0x33
 7176 274b 68000000 		.4byte	.LVL16
 7177 274f 643B0000 		.4byte	0x3b64
 7178 2753 32       		.uleb128 0x32
 7179 2754 01       		.uleb128 0x1
 7180 2755 50       		.byte	0x50
 7181 2756 02       		.uleb128 0x2
 7182 2757 75       		.byte	0x75
 7183 2758 00       		.sleb128 0
 7184 2759 32       		.uleb128 0x32
 7185 275a 01       		.uleb128 0x1
 7186 275b 51       		.byte	0x51
 7187 275c 02       		.uleb128 0x2
 7188 275d 76       		.byte	0x76
 7189 275e 00       		.sleb128 0
 7190 275f 32       		.uleb128 0x32
 7191 2760 01       		.uleb128 0x1
 7192 2761 52       		.byte	0x52
 7193 2762 01       		.uleb128 0x1
 7194 2763 43       		.byte	0x43
 7195 2764 00       		.byte	0
 7196 2765 00       		.byte	0
ARM GAS  C:\Users\haske\AppData\Local\Temp\cc1ymag8.s 			page 155


 7197 2766 00       		.byte	0
 7198 2767 37       		.uleb128 0x37
 7199 2768 F3230000 		.4byte	0x23f3
 7200 276c 6A000000 		.4byte	.LBB87
 7201 2770 0C000000 		.4byte	.LBE87-.LBB87
 7202 2774 01       		.byte	0x1
 7203 2775 AD01     		.2byte	0x1ad
 7204 2777 BC270000 		.4byte	0x27bc
 7205 277b 38       		.uleb128 0x38
 7206 277c 0E240000 		.4byte	0x240e
 7207 2780 91010000 		.4byte	.LLST11
 7208 2784 38       		.uleb128 0x38
 7209 2785 03240000 		.4byte	0x2403
 7210 2789 A7010000 		.4byte	.LLST12
 7211 278d 39       		.uleb128 0x39
 7212 278e 6A000000 		.4byte	.LBB88
 7213 2792 0C000000 		.4byte	.LBE88-.LBB88
 7214 2796 3A       		.uleb128 0x3a
 7215 2797 19240000 		.4byte	0x2419
 7216 279b BA010000 		.4byte	.LLST13
 7217 279f 33       		.uleb128 0x33
 7218 27a0 74000000 		.4byte	.LVL18
 7219 27a4 643B0000 		.4byte	0x3b64
 7220 27a8 32       		.uleb128 0x32
 7221 27a9 01       		.uleb128 0x1
 7222 27aa 50       		.byte	0x50
 7223 27ab 02       		.uleb128 0x2
 7224 27ac 75       		.byte	0x75
 7225 27ad 00       		.sleb128 0
 7226 27ae 32       		.uleb128 0x32
 7227 27af 01       		.uleb128 0x1
 7228 27b0 51       		.byte	0x51
 7229 27b1 02       		.uleb128 0x2
 7230 27b2 76       		.byte	0x76
 7231 27b3 00       		.sleb128 0
 7232 27b4 32       		.uleb128 0x32
 7233 27b5 01       		.uleb128 0x1
 7234 27b6 52       		.byte	0x52
 7235 27b7 01       		.uleb128 0x1
 7236 27b8 40       		.byte	0x40
 7237 27b9 00       		.byte	0
 7238 27ba 00       		.byte	0
 7239 27bb 00       		.byte	0
 7240 27bc 37       		.uleb128 0x37
 7241 27bd C3230000 		.4byte	0x23c3
 7242 27c1 76000000 		.4byte	.LBB89
 7243 27c5 0C000000 		.4byte	.LBE89-.LBB89
 7244 27c9 01       		.byte	0x1
 7245 27ca AE01     		.2byte	0x1ae
 7246 27cc 11280000 		.4byte	0x2811
 7247 27d0 38       		.uleb128 0x38
 7248 27d1 DE230000 		.4byte	0x23de
 7249 27d5 CD010000 		.4byte	.LLST14
 7250 27d9 38       		.uleb128 0x38
 7251 27da D3230000 		.4byte	0x23d3
 7252 27de E3010000 		.4byte	.LLST15
 7253 27e2 39       		.uleb128 0x39
ARM GAS  C:\Users\haske\AppData\Local\Temp\cc1ymag8.s 			page 156


 7254 27e3 76000000 		.4byte	.LBB90
 7255 27e7 0C000000 		.4byte	.LBE90-.LBB90
 7256 27eb 3A       		.uleb128 0x3a
 7257 27ec E9230000 		.4byte	0x23e9
 7258 27f0 F6010000 		.4byte	.LLST16
 7259 27f4 33       		.uleb128 0x33
 7260 27f5 80000000 		.4byte	.LVL20
 7261 27f9 643B0000 		.4byte	0x3b64
 7262 27fd 32       		.uleb128 0x32
 7263 27fe 01       		.uleb128 0x1
 7264 27ff 50       		.byte	0x50
 7265 2800 02       		.uleb128 0x2
 7266 2801 75       		.byte	0x75
 7267 2802 00       		.sleb128 0
 7268 2803 32       		.uleb128 0x32
 7269 2804 01       		.uleb128 0x1
 7270 2805 51       		.byte	0x51
 7271 2806 02       		.uleb128 0x2
 7272 2807 76       		.byte	0x76
 7273 2808 00       		.sleb128 0
 7274 2809 32       		.uleb128 0x32
 7275 280a 01       		.uleb128 0x1
 7276 280b 52       		.byte	0x52
 7277 280c 01       		.uleb128 0x1
 7278 280d 41       		.byte	0x41
 7279 280e 00       		.byte	0
 7280 280f 00       		.byte	0
 7281 2810 00       		.byte	0
 7282 2811 37       		.uleb128 0x37
 7283 2812 93230000 		.4byte	0x2393
 7284 2816 82000000 		.4byte	.LBB91
 7285 281a 0C000000 		.4byte	.LBE91-.LBB91
 7286 281e 01       		.byte	0x1
 7287 281f B001     		.2byte	0x1b0
 7288 2821 63280000 		.4byte	0x2863
 7289 2825 38       		.uleb128 0x38
 7290 2826 AE230000 		.4byte	0x23ae
 7291 282a 09020000 		.4byte	.LLST17
 7292 282e 38       		.uleb128 0x38
 7293 282f A3230000 		.4byte	0x23a3
 7294 2833 1F020000 		.4byte	.LLST18
 7295 2837 39       		.uleb128 0x39
 7296 2838 82000000 		.4byte	.LBB92
 7297 283c 0C000000 		.4byte	.LBE92-.LBB92
 7298 2840 3B       		.uleb128 0x3b
 7299 2841 B9230000 		.4byte	0x23b9
 7300 2845 33       		.uleb128 0x33
 7301 2846 8C000000 		.4byte	.LVL22
 7302 284a 643B0000 		.4byte	0x3b64
 7303 284e 32       		.uleb128 0x32
 7304 284f 01       		.uleb128 0x1
 7305 2850 50       		.byte	0x50
 7306 2851 02       		.uleb128 0x2
 7307 2852 75       		.byte	0x75
 7308 2853 00       		.sleb128 0
 7309 2854 32       		.uleb128 0x32
 7310 2855 01       		.uleb128 0x1
ARM GAS  C:\Users\haske\AppData\Local\Temp\cc1ymag8.s 			page 157


 7311 2856 51       		.byte	0x51
 7312 2857 02       		.uleb128 0x2
 7313 2858 76       		.byte	0x76
 7314 2859 00       		.sleb128 0
 7315 285a 32       		.uleb128 0x32
 7316 285b 01       		.uleb128 0x1
 7317 285c 52       		.byte	0x52
 7318 285d 02       		.uleb128 0x2
 7319 285e 08       		.byte	0x8
 7320 285f 68       		.byte	0x68
 7321 2860 00       		.byte	0
 7322 2861 00       		.byte	0
 7323 2862 00       		.byte	0
 7324 2863 3C       		.uleb128 0x3c
 7325 2864 58230000 		.4byte	0x2358
 7326 2868 8E000000 		.4byte	.LBB93
 7327 286c 0A000000 		.4byte	.LBE93-.LBB93
 7328 2870 01       		.byte	0x1
 7329 2871 B101     		.2byte	0x1b1
 7330 2873 38       		.uleb128 0x38
 7331 2874 73230000 		.4byte	0x2373
 7332 2878 32020000 		.4byte	.LLST19
 7333 287c 38       		.uleb128 0x38
 7334 287d 68230000 		.4byte	0x2368
 7335 2881 48020000 		.4byte	.LLST20
 7336 2885 39       		.uleb128 0x39
 7337 2886 8E000000 		.4byte	.LBB94
 7338 288a 0A000000 		.4byte	.LBE94-.LBB94
 7339 288e 3B       		.uleb128 0x3b
 7340 288f 7E230000 		.4byte	0x237e
 7341 2893 33       		.uleb128 0x33
 7342 2894 98000000 		.4byte	.LVL24
 7343 2898 643B0000 		.4byte	0x3b64
 7344 289c 32       		.uleb128 0x32
 7345 289d 01       		.uleb128 0x1
 7346 289e 50       		.byte	0x50
 7347 289f 02       		.uleb128 0x2
 7348 28a0 75       		.byte	0x75
 7349 28a1 00       		.sleb128 0
 7350 28a2 32       		.uleb128 0x32
 7351 28a3 01       		.uleb128 0x1
 7352 28a4 51       		.byte	0x51
 7353 28a5 02       		.uleb128 0x2
 7354 28a6 76       		.byte	0x76
 7355 28a7 00       		.sleb128 0
 7356 28a8 32       		.uleb128 0x32
 7357 28a9 01       		.uleb128 0x1
 7358 28aa 52       		.byte	0x52
 7359 28ab 02       		.uleb128 0x2
 7360 28ac 08       		.byte	0x8
 7361 28ad 69       		.byte	0x69
 7362 28ae 00       		.byte	0
 7363 28af 00       		.byte	0
 7364 28b0 00       		.byte	0
 7365 28b1 00       		.byte	0
 7366 28b2 0C       		.uleb128 0xc
 7367 28b3 01010000 		.4byte	0x101
ARM GAS  C:\Users\haske\AppData\Local\Temp\cc1ymag8.s 			page 158


 7368 28b7 0C       		.uleb128 0xc
 7369 28b8 AA020000 		.4byte	0x2aa
 7370 28bc 34       		.uleb128 0x34
 7371 28bd 35210000 		.4byte	.LASF656
 7372 28c1 01       		.byte	0x1
 7373 28c2 4C01     		.2byte	0x14c
 7374 28c4 00000000 		.4byte	.LFB178
 7375 28c8 0C020000 		.4byte	.LFE178-.LFB178
 7376 28cc 01       		.uleb128 0x1
 7377 28cd 9C       		.byte	0x9c
 7378 28ce EA2C0000 		.4byte	0x2cea
 7379 28d2 30       		.uleb128 0x30
 7380 28d3 6500     		.ascii	"e\000"
 7381 28d5 01       		.byte	0x1
 7382 28d6 4C01     		.2byte	0x14c
 7383 28d8 D11F0000 		.4byte	0x1fd1
 7384 28dc 5B020000 		.4byte	.LLST21
 7385 28e0 3D       		.uleb128 0x3d
 7386 28e1 6F626A00 		.ascii	"obj\000"
 7387 28e5 01       		.byte	0x1
 7388 28e6 4E01     		.2byte	0x14e
 7389 28e8 F8210000 		.4byte	0x21f8
 7390 28ec D2020000 		.4byte	.LLST22
 7391 28f0 3E       		.uleb128 0x3e
 7392 28f1 C2140000 		.4byte	.LASF638
 7393 28f5 01       		.byte	0x1
 7394 28f6 4F01     		.2byte	0x14f
 7395 28f8 EA2C0000 		.4byte	0x2cea
 7396 28fc D2020000 		.4byte	.LLST22
 7397 2900 3E       		.uleb128 0x3e
 7398 2901 6D260000 		.4byte	.LASF335
 7399 2905 01       		.byte	0x1
 7400 2906 5001     		.2byte	0x150
 7401 2908 30140000 		.4byte	0x1430
 7402 290c F0020000 		.4byte	.LLST24
 7403 2910 3E       		.uleb128 0x3e
 7404 2911 3A0B0000 		.4byte	.LASF657
 7405 2915 01       		.byte	0x1
 7406 2916 5201     		.2byte	0x152
 7407 2918 B7280000 		.4byte	0x28b7
 7408 291c 10030000 		.4byte	.LLST25
 7409 2920 3F       		.uleb128 0x3f
 7410 2921 4C220000 		.4byte	.LASF658
 7411 2925 01       		.byte	0x1
 7412 2926 5301     		.2byte	0x153
 7413 2928 B7280000 		.4byte	0x28b7
 7414 292c 03       		.uleb128 0x3
 7415 292d 91       		.byte	0x91
 7416 292e 9C7E     		.sleb128 -228
 7417 2930 3F       		.uleb128 0x3f
 7418 2931 112B0000 		.4byte	.LASF647
 7419 2935 01       		.byte	0x1
 7420 2936 5501     		.2byte	0x155
 7421 2938 69010000 		.4byte	0x169
 7422 293c 02       		.uleb128 0x2
 7423 293d 91       		.byte	0x91
 7424 293e 58       		.sleb128 -40
ARM GAS  C:\Users\haske\AppData\Local\Temp\cc1ymag8.s 			page 159


 7425 293f 3E       		.uleb128 0x3e
 7426 2940 42290000 		.4byte	.LASF648
 7427 2944 01       		.byte	0x1
 7428 2945 5601     		.2byte	0x156
 7429 2947 01010000 		.4byte	0x101
 7430 294b 2A030000 		.4byte	.LLST26
 7431 294f 3E       		.uleb128 0x3e
 7432 2950 560D0000 		.4byte	.LASF659
 7433 2954 01       		.byte	0x1
 7434 2955 5701     		.2byte	0x157
 7435 2957 AA020000 		.4byte	0x2aa
 7436 295b 55030000 		.4byte	.LLST27
 7437 295f 3F       		.uleb128 0x3f
 7438 2960 A60E0000 		.4byte	.LASF660
 7439 2964 01       		.byte	0x1
 7440 2965 6601     		.2byte	0x166
 7441 2967 140A0000 		.4byte	0xa14
 7442 296b 03       		.uleb128 0x3
 7443 296c 91       		.byte	0x91
 7444 296d A07F     		.sleb128 -96
 7445 296f 3F       		.uleb128 0x3f
 7446 2970 59070000 		.4byte	.LASF661
 7447 2974 01       		.byte	0x1
 7448 2975 6E01     		.2byte	0x16e
 7449 2977 8C1D0000 		.4byte	0x1d8c
 7450 297b 03       		.uleb128 0x3
 7451 297c 91       		.byte	0x91
 7452 297d D87E     		.sleb128 -168
 7453 297f 37       		.uleb128 0x37
 7454 2980 83240000 		.4byte	0x2483
 7455 2984 1C000000 		.4byte	.LBB95
 7456 2988 0E000000 		.4byte	.LBE95-.LBB95
 7457 298c 01       		.byte	0x1
 7458 298d 5201     		.2byte	0x152
 7459 298f CF290000 		.4byte	0x29cf
 7460 2993 38       		.uleb128 0x38
 7461 2994 A0240000 		.4byte	0x24a0
 7462 2998 74030000 		.4byte	.LLST28
 7463 299c 38       		.uleb128 0x38
 7464 299d 94240000 		.4byte	0x2494
 7465 29a1 88030000 		.4byte	.LLST29
 7466 29a5 39       		.uleb128 0x39
 7467 29a6 1C000000 		.4byte	.LBB96
 7468 29aa 0E000000 		.4byte	.LBE96-.LBB96
 7469 29ae 3B       		.uleb128 0x3b
 7470 29af AC240000 		.4byte	0x24ac
 7471 29b3 33       		.uleb128 0x33
 7472 29b4 26000000 		.4byte	.LVL43
 7473 29b8 643B0000 		.4byte	0x3b64
 7474 29bc 32       		.uleb128 0x32
 7475 29bd 01       		.uleb128 0x1
 7476 29be 50       		.byte	0x50
 7477 29bf 02       		.uleb128 0x2
 7478 29c0 74       		.byte	0x74
 7479 29c1 00       		.sleb128 0
 7480 29c2 32       		.uleb128 0x32
 7481 29c3 01       		.uleb128 0x1
ARM GAS  C:\Users\haske\AppData\Local\Temp\cc1ymag8.s 			page 160


 7482 29c4 51       		.byte	0x51
 7483 29c5 01       		.uleb128 0x1
 7484 29c6 30       		.byte	0x30
 7485 29c7 32       		.uleb128 0x32
 7486 29c8 01       		.uleb128 0x1
 7487 29c9 52       		.byte	0x52
 7488 29ca 01       		.uleb128 0x1
 7489 29cb 46       		.byte	0x46
 7490 29cc 00       		.byte	0
 7491 29cd 00       		.byte	0
 7492 29ce 00       		.byte	0
 7493 29cf 37       		.uleb128 0x37
 7494 29d0 DE240000 		.4byte	0x24de
 7495 29d4 DC000000 		.4byte	.LBB97
 7496 29d8 1E000000 		.4byte	.LBE97-.LBB97
 7497 29dc 01       		.byte	0x1
 7498 29dd 6C01     		.2byte	0x16c
 7499 29df F6290000 		.4byte	0x29f6
 7500 29e3 38       		.uleb128 0x38
 7501 29e4 F5240000 		.4byte	0x24f5
 7502 29e8 9B030000 		.4byte	.LLST30
 7503 29ec 38       		.uleb128 0x38
 7504 29ed EA240000 		.4byte	0x24ea
 7505 29f1 AE030000 		.4byte	.LLST31
 7506 29f5 00       		.byte	0
 7507 29f6 37       		.uleb128 0x37
 7508 29f7 B7240000 		.4byte	0x24b7
 7509 29fb 14010000 		.4byte	.LBB99
 7510 29ff 18000000 		.4byte	.LBE99-.LBB99
 7511 2a03 01       		.byte	0x1
 7512 2a04 7701     		.2byte	0x177
 7513 2a06 372A0000 		.4byte	0x2a37
 7514 2a0a 38       		.uleb128 0x38
 7515 2a0b C7240000 		.4byte	0x24c7
 7516 2a0f CF030000 		.4byte	.LLST32
 7517 2a13 39       		.uleb128 0x39
 7518 2a14 14010000 		.4byte	.LBB100
 7519 2a18 18000000 		.4byte	.LBE100-.LBB100
 7520 2a1c 3A       		.uleb128 0x3a
 7521 2a1d D2240000 		.4byte	0x24d2
 7522 2a21 E2030000 		.4byte	.LLST33
 7523 2a25 33       		.uleb128 0x33
 7524 2a26 1A010000 		.4byte	.LVL68
 7525 2a2a 6F3B0000 		.4byte	0x3b6f
 7526 2a2e 32       		.uleb128 0x32
 7527 2a2f 01       		.uleb128 0x1
 7528 2a30 50       		.byte	0x50
 7529 2a31 02       		.uleb128 0x2
 7530 2a32 74       		.byte	0x74
 7531 2a33 00       		.sleb128 0
 7532 2a34 00       		.byte	0
 7533 2a35 00       		.byte	0
 7534 2a36 00       		.byte	0
 7535 2a37 40       		.uleb128 0x40
 7536 2a38 50010000 		.4byte	.LBB101
 7537 2a3c AC000000 		.4byte	.LBE101-.LBB101
 7538 2a40 AA2B0000 		.4byte	0x2baa
ARM GAS  C:\Users\haske\AppData\Local\Temp\cc1ymag8.s 			page 161


 7539 2a44 3F       		.uleb128 0x3f
 7540 2a45 80070000 		.4byte	.LASF662
 7541 2a49 01       		.byte	0x1
 7542 2a4a 7E01     		.2byte	0x17e
 7543 2a4c 140A0000 		.4byte	0xa14
 7544 2a50 03       		.uleb128 0x3
 7545 2a51 91       		.byte	0x91
 7546 2a52 A07E     		.sleb128 -224
 7547 2a54 37       		.uleb128 0x37
 7548 2a55 DE240000 		.4byte	0x24de
 7549 2a59 AA010000 		.4byte	.LBB102
 7550 2a5d 1E000000 		.4byte	.LBE102-.LBB102
 7551 2a61 01       		.byte	0x1
 7552 2a62 8E01     		.2byte	0x18e
 7553 2a64 7B2A0000 		.4byte	0x2a7b
 7554 2a68 38       		.uleb128 0x38
 7555 2a69 F5240000 		.4byte	0x24f5
 7556 2a6d F5030000 		.4byte	.LLST34
 7557 2a71 38       		.uleb128 0x38
 7558 2a72 EA240000 		.4byte	0x24ea
 7559 2a76 08040000 		.4byte	.LLST35
 7560 2a7a 00       		.byte	0
 7561 2a7b 31       		.uleb128 0x31
 7562 2a7c 5A010000 		.4byte	.LVL73
 7563 2a80 7A3B0000 		.4byte	0x3b7a
 7564 2a84 9C2A0000 		.4byte	0x2a9c
 7565 2a88 32       		.uleb128 0x32
 7566 2a89 01       		.uleb128 0x1
 7567 2a8a 50       		.byte	0x50
 7568 2a8b 03       		.uleb128 0x3
 7569 2a8c 91       		.byte	0x91
 7570 2a8d A07E     		.sleb128 -224
 7571 2a8f 32       		.uleb128 0x32
 7572 2a90 01       		.uleb128 0x1
 7573 2a91 51       		.byte	0x51
 7574 2a92 02       		.uleb128 0x2
 7575 2a93 77       		.byte	0x77
 7576 2a94 00       		.sleb128 0
 7577 2a95 32       		.uleb128 0x32
 7578 2a96 01       		.uleb128 0x1
 7579 2a97 52       		.byte	0x52
 7580 2a98 02       		.uleb128 0x2
 7581 2a99 08       		.byte	0x8
 7582 2a9a 38       		.byte	0x38
 7583 2a9b 00       		.byte	0
 7584 2a9c 31       		.uleb128 0x31
 7585 2a9d 64010000 		.4byte	.LVL74
 7586 2aa1 853B0000 		.4byte	0x3b85
 7587 2aa5 BC2A0000 		.4byte	0x2abc
 7588 2aa9 32       		.uleb128 0x32
 7589 2aaa 01       		.uleb128 0x1
 7590 2aab 50       		.byte	0x50
 7591 2aac 02       		.uleb128 0x2
 7592 2aad 74       		.byte	0x74
 7593 2aae 00       		.sleb128 0
 7594 2aaf 32       		.uleb128 0x32
 7595 2ab0 01       		.uleb128 0x1
ARM GAS  C:\Users\haske\AppData\Local\Temp\cc1ymag8.s 			page 162


 7596 2ab1 51       		.byte	0x51
 7597 2ab2 01       		.uleb128 0x1
 7598 2ab3 4A       		.byte	0x4a
 7599 2ab4 32       		.uleb128 0x32
 7600 2ab5 01       		.uleb128 0x1
 7601 2ab6 52       		.byte	0x52
 7602 2ab7 03       		.uleb128 0x3
 7603 2ab8 91       		.byte	0x91
 7604 2ab9 D87E     		.sleb128 -168
 7605 2abb 00       		.byte	0
 7606 2abc 31       		.uleb128 0x31
 7607 2abd 6E010000 		.4byte	.LVL75
 7608 2ac1 903B0000 		.4byte	0x3b90
 7609 2ac5 DE2A0000 		.4byte	0x2ade
 7610 2ac9 32       		.uleb128 0x32
 7611 2aca 01       		.uleb128 0x1
 7612 2acb 50       		.byte	0x50
 7613 2acc 04       		.uleb128 0x4
 7614 2acd 91       		.byte	0x91
 7615 2ace 947E     		.sleb128 -236
 7616 2ad0 06       		.byte	0x6
 7617 2ad1 32       		.uleb128 0x32
 7618 2ad2 01       		.uleb128 0x1
 7619 2ad3 51       		.byte	0x51
 7620 2ad4 02       		.uleb128 0x2
 7621 2ad5 77       		.byte	0x77
 7622 2ad6 00       		.sleb128 0
 7623 2ad7 32       		.uleb128 0x32
 7624 2ad8 01       		.uleb128 0x1
 7625 2ad9 52       		.byte	0x52
 7626 2ada 02       		.uleb128 0x2
 7627 2adb 76       		.byte	0x76
 7628 2adc 00       		.sleb128 0
 7629 2add 00       		.byte	0
 7630 2ade 31       		.uleb128 0x31
 7631 2adf 78010000 		.4byte	.LVL76
 7632 2ae3 853B0000 		.4byte	0x3b85
 7633 2ae7 FE2A0000 		.4byte	0x2afe
 7634 2aeb 32       		.uleb128 0x32
 7635 2aec 01       		.uleb128 0x1
 7636 2aed 50       		.byte	0x50
 7637 2aee 02       		.uleb128 0x2
 7638 2aef 74       		.byte	0x74
 7639 2af0 00       		.sleb128 0
 7640 2af1 32       		.uleb128 0x32
 7641 2af2 01       		.uleb128 0x1
 7642 2af3 51       		.byte	0x51
 7643 2af4 01       		.uleb128 0x1
 7644 2af5 4B       		.byte	0x4b
 7645 2af6 32       		.uleb128 0x32
 7646 2af7 01       		.uleb128 0x1
 7647 2af8 52       		.byte	0x52
 7648 2af9 03       		.uleb128 0x3
 7649 2afa 91       		.byte	0x91
 7650 2afb D87E     		.sleb128 -168
 7651 2afd 00       		.byte	0
 7652 2afe 31       		.uleb128 0x31
ARM GAS  C:\Users\haske\AppData\Local\Temp\cc1ymag8.s 			page 163


 7653 2aff AA010000 		.4byte	.LVL77
 7654 2b03 1F260000 		.4byte	0x261f
 7655 2b07 2A2B0000 		.4byte	0x2b2a
 7656 2b0b 32       		.uleb128 0x32
 7657 2b0c 01       		.uleb128 0x1
 7658 2b0d 50       		.byte	0x50
 7659 2b0e 02       		.uleb128 0x2
 7660 2b0f 74       		.byte	0x74
 7661 2b10 00       		.sleb128 0
 7662 2b11 32       		.uleb128 0x32
 7663 2b12 01       		.uleb128 0x1
 7664 2b13 51       		.byte	0x51
 7665 2b14 02       		.uleb128 0x2
 7666 2b15 75       		.byte	0x75
 7667 2b16 00       		.sleb128 0
 7668 2b17 32       		.uleb128 0x32
 7669 2b18 01       		.uleb128 0x1
 7670 2b19 52       		.byte	0x52
 7671 2b1a 05       		.uleb128 0x5
 7672 2b1b 91       		.byte	0x91
 7673 2b1c 987E     		.sleb128 -232
 7674 2b1e 94       		.byte	0x94
 7675 2b1f 02       		.byte	0x2
 7676 2b20 32       		.uleb128 0x32
 7677 2b21 01       		.uleb128 0x1
 7678 2b22 53       		.byte	0x53
 7679 2b23 05       		.uleb128 0x5
 7680 2b24 91       		.byte	0x91
 7681 2b25 9C7E     		.sleb128 -228
 7682 2b27 94       		.byte	0x94
 7683 2b28 01       		.byte	0x1
 7684 2b29 00       		.byte	0
 7685 2b2a 31       		.uleb128 0x31
 7686 2b2b D4010000 		.4byte	.LVL80
 7687 2b2f 7A3B0000 		.4byte	0x3b7a
 7688 2b33 4B2B0000 		.4byte	0x2b4b
 7689 2b37 32       		.uleb128 0x32
 7690 2b38 01       		.uleb128 0x1
 7691 2b39 50       		.byte	0x50
 7692 2b3a 02       		.uleb128 0x2
 7693 2b3b 77       		.byte	0x77
 7694 2b3c 00       		.sleb128 0
 7695 2b3d 32       		.uleb128 0x32
 7696 2b3e 01       		.uleb128 0x1
 7697 2b3f 51       		.byte	0x51
 7698 2b40 03       		.uleb128 0x3
 7699 2b41 91       		.byte	0x91
 7700 2b42 A07E     		.sleb128 -224
 7701 2b44 32       		.uleb128 0x32
 7702 2b45 01       		.uleb128 0x1
 7703 2b46 52       		.byte	0x52
 7704 2b47 02       		.uleb128 0x2
 7705 2b48 08       		.byte	0x8
 7706 2b49 38       		.byte	0x38
 7707 2b4a 00       		.byte	0
 7708 2b4b 31       		.uleb128 0x31
 7709 2b4c E8010000 		.4byte	.LVL81
ARM GAS  C:\Users\haske\AppData\Local\Temp\cc1ymag8.s 			page 164


 7710 2b50 853B0000 		.4byte	0x3b85
 7711 2b54 6B2B0000 		.4byte	0x2b6b
 7712 2b58 32       		.uleb128 0x32
 7713 2b59 01       		.uleb128 0x1
 7714 2b5a 50       		.byte	0x50
 7715 2b5b 02       		.uleb128 0x2
 7716 2b5c 74       		.byte	0x74
 7717 2b5d 00       		.sleb128 0
 7718 2b5e 32       		.uleb128 0x32
 7719 2b5f 01       		.uleb128 0x1
 7720 2b60 51       		.byte	0x51
 7721 2b61 01       		.uleb128 0x1
 7722 2b62 4A       		.byte	0x4a
 7723 2b63 32       		.uleb128 0x32
 7724 2b64 01       		.uleb128 0x1
 7725 2b65 52       		.byte	0x52
 7726 2b66 03       		.uleb128 0x3
 7727 2b67 91       		.byte	0x91
 7728 2b68 D87E     		.sleb128 -168
 7729 2b6a 00       		.byte	0
 7730 2b6b 31       		.uleb128 0x31
 7731 2b6c F2010000 		.4byte	.LVL82
 7732 2b70 903B0000 		.4byte	0x3b90
 7733 2b74 8D2B0000 		.4byte	0x2b8d
 7734 2b78 32       		.uleb128 0x32
 7735 2b79 01       		.uleb128 0x1
 7736 2b7a 50       		.byte	0x50
 7737 2b7b 04       		.uleb128 0x4
 7738 2b7c 91       		.byte	0x91
 7739 2b7d 947E     		.sleb128 -236
 7740 2b7f 06       		.byte	0x6
 7741 2b80 32       		.uleb128 0x32
 7742 2b81 01       		.uleb128 0x1
 7743 2b82 51       		.byte	0x51
 7744 2b83 02       		.uleb128 0x2
 7745 2b84 77       		.byte	0x77
 7746 2b85 00       		.sleb128 0
 7747 2b86 32       		.uleb128 0x32
 7748 2b87 01       		.uleb128 0x1
 7749 2b88 52       		.byte	0x52
 7750 2b89 02       		.uleb128 0x2
 7751 2b8a 76       		.byte	0x76
 7752 2b8b 00       		.sleb128 0
 7753 2b8c 00       		.byte	0
 7754 2b8d 33       		.uleb128 0x33
 7755 2b8e FC010000 		.4byte	.LVL83
 7756 2b92 853B0000 		.4byte	0x3b85
 7757 2b96 32       		.uleb128 0x32
 7758 2b97 01       		.uleb128 0x1
 7759 2b98 50       		.byte	0x50
 7760 2b99 02       		.uleb128 0x2
 7761 2b9a 74       		.byte	0x74
 7762 2b9b 00       		.sleb128 0
 7763 2b9c 32       		.uleb128 0x32
 7764 2b9d 01       		.uleb128 0x1
 7765 2b9e 51       		.byte	0x51
 7766 2b9f 01       		.uleb128 0x1
ARM GAS  C:\Users\haske\AppData\Local\Temp\cc1ymag8.s 			page 165


 7767 2ba0 4B       		.byte	0x4b
 7768 2ba1 32       		.uleb128 0x32
 7769 2ba2 01       		.uleb128 0x1
 7770 2ba3 52       		.byte	0x52
 7771 2ba4 03       		.uleb128 0x3
 7772 2ba5 91       		.byte	0x91
 7773 2ba6 D87E     		.sleb128 -168
 7774 2ba8 00       		.byte	0
 7775 2ba9 00       		.byte	0
 7776 2baa 31       		.uleb128 0x31
 7777 2bab 12000000 		.4byte	.LVL37
 7778 2baf 9B3B0000 		.4byte	0x3b9b
 7779 2bb3 BE2B0000 		.4byte	0x2bbe
 7780 2bb7 32       		.uleb128 0x32
 7781 2bb8 01       		.uleb128 0x1
 7782 2bb9 50       		.byte	0x50
 7783 2bba 02       		.uleb128 0x2
 7784 2bbb 75       		.byte	0x75
 7785 2bbc 00       		.sleb128 0
 7786 2bbd 00       		.byte	0
 7787 2bbe 31       		.uleb128 0x31
 7788 2bbf 1A000000 		.4byte	.LVL40
 7789 2bc3 A63B0000 		.4byte	0x3ba6
 7790 2bc7 D22B0000 		.4byte	0x2bd2
 7791 2bcb 32       		.uleb128 0x32
 7792 2bcc 01       		.uleb128 0x1
 7793 2bcd 50       		.byte	0x50
 7794 2bce 02       		.uleb128 0x2
 7795 2bcf 75       		.byte	0x75
 7796 2bd0 00       		.sleb128 0
 7797 2bd1 00       		.byte	0
 7798 2bd2 31       		.uleb128 0x31
 7799 2bd3 30000000 		.4byte	.LVL45
 7800 2bd7 D0250000 		.4byte	0x25d0
 7801 2bdb E62B0000 		.4byte	0x2be6
 7802 2bdf 32       		.uleb128 0x32
 7803 2be0 01       		.uleb128 0x1
 7804 2be1 50       		.byte	0x50
 7805 2be2 02       		.uleb128 0x2
 7806 2be3 74       		.byte	0x74
 7807 2be4 00       		.sleb128 0
 7808 2be5 00       		.byte	0
 7809 2be6 31       		.uleb128 0x31
 7810 2be7 66000000 		.4byte	.LVL54
 7811 2beb 583B0000 		.4byte	0x3b58
 7812 2bef FA2B0000 		.4byte	0x2bfa
 7813 2bf3 32       		.uleb128 0x32
 7814 2bf4 01       		.uleb128 0x1
 7815 2bf5 50       		.byte	0x50
 7816 2bf6 02       		.uleb128 0x2
 7817 2bf7 74       		.byte	0x74
 7818 2bf8 00       		.sleb128 0
 7819 2bf9 00       		.byte	0
 7820 2bfa 31       		.uleb128 0x31
 7821 2bfb 98000000 		.4byte	.LVL57
 7822 2bff 4C3B0000 		.4byte	0x3b4c
 7823 2c03 0E2C0000 		.4byte	0x2c0e
ARM GAS  C:\Users\haske\AppData\Local\Temp\cc1ymag8.s 			page 166


 7824 2c07 32       		.uleb128 0x32
 7825 2c08 01       		.uleb128 0x1
 7826 2c09 50       		.byte	0x50
 7827 2c0a 02       		.uleb128 0x2
 7828 2c0b 74       		.byte	0x74
 7829 2c0c 00       		.sleb128 0
 7830 2c0d 00       		.byte	0
 7831 2c0e 31       		.uleb128 0x31
 7832 2c0f BE000000 		.4byte	.LVL60
 7833 2c13 B23B0000 		.4byte	0x3bb2
 7834 2c17 222C0000 		.4byte	0x2c22
 7835 2c1b 32       		.uleb128 0x32
 7836 2c1c 01       		.uleb128 0x1
 7837 2c1d 50       		.byte	0x50
 7838 2c1e 02       		.uleb128 0x2
 7839 2c1f 77       		.byte	0x77
 7840 2c20 00       		.sleb128 0
 7841 2c21 00       		.byte	0
 7842 2c22 31       		.uleb128 0x31
 7843 2c23 CE000000 		.4byte	.LVL61
 7844 2c27 BD3B0000 		.4byte	0x3bbd
 7845 2c2b 422C0000 		.4byte	0x2c42
 7846 2c2f 32       		.uleb128 0x32
 7847 2c30 01       		.uleb128 0x1
 7848 2c31 50       		.byte	0x50
 7849 2c32 02       		.uleb128 0x2
 7850 2c33 74       		.byte	0x74
 7851 2c34 00       		.sleb128 0
 7852 2c35 32       		.uleb128 0x32
 7853 2c36 01       		.uleb128 0x1
 7854 2c37 51       		.byte	0x51
 7855 2c38 02       		.uleb128 0x2
 7856 2c39 7A       		.byte	0x7a
 7857 2c3a 00       		.sleb128 0
 7858 2c3b 32       		.uleb128 0x32
 7859 2c3c 01       		.uleb128 0x1
 7860 2c3d 52       		.byte	0x52
 7861 2c3e 02       		.uleb128 0x2
 7862 2c3f 77       		.byte	0x77
 7863 2c40 00       		.sleb128 0
 7864 2c41 00       		.byte	0
 7865 2c42 31       		.uleb128 0x31
 7866 2c43 DC000000 		.4byte	.LVL63
 7867 2c47 1F260000 		.4byte	0x261f
 7868 2c4b 6E2C0000 		.4byte	0x2c6e
 7869 2c4f 32       		.uleb128 0x32
 7870 2c50 01       		.uleb128 0x1
 7871 2c51 50       		.byte	0x50
 7872 2c52 02       		.uleb128 0x2
 7873 2c53 74       		.byte	0x74
 7874 2c54 00       		.sleb128 0
 7875 2c55 32       		.uleb128 0x32
 7876 2c56 01       		.uleb128 0x1
 7877 2c57 51       		.byte	0x51
 7878 2c58 02       		.uleb128 0x2
 7879 2c59 75       		.byte	0x75
 7880 2c5a 00       		.sleb128 0
ARM GAS  C:\Users\haske\AppData\Local\Temp\cc1ymag8.s 			page 167


 7881 2c5b 32       		.uleb128 0x32
 7882 2c5c 01       		.uleb128 0x1
 7883 2c5d 52       		.byte	0x52
 7884 2c5e 05       		.uleb128 0x5
 7885 2c5f 91       		.byte	0x91
 7886 2c60 987E     		.sleb128 -232
 7887 2c62 94       		.byte	0x94
 7888 2c63 02       		.byte	0x2
 7889 2c64 32       		.uleb128 0x32
 7890 2c65 01       		.uleb128 0x1
 7891 2c66 53       		.byte	0x53
 7892 2c67 05       		.uleb128 0x5
 7893 2c68 91       		.byte	0x91
 7894 2c69 9C7E     		.sleb128 -228
 7895 2c6b 94       		.byte	0x94
 7896 2c6c 01       		.byte	0x1
 7897 2c6d 00       		.byte	0
 7898 2c6e 31       		.uleb128 0x31
 7899 2c6f 02010000 		.4byte	.LVL66
 7900 2c73 C83B0000 		.4byte	0x3bc8
 7901 2c77 8B2C0000 		.4byte	0x2c8b
 7902 2c7b 32       		.uleb128 0x32
 7903 2c7c 01       		.uleb128 0x1
 7904 2c7d 50       		.byte	0x50
 7905 2c7e 03       		.uleb128 0x3
 7906 2c7f 91       		.byte	0x91
 7907 2c80 D87E     		.sleb128 -168
 7908 2c82 32       		.uleb128 0x32
 7909 2c83 01       		.uleb128 0x1
 7910 2c84 51       		.byte	0x51
 7911 2c85 04       		.uleb128 0x4
 7912 2c86 91       		.byte	0x91
 7913 2c87 947E     		.sleb128 -236
 7914 2c89 06       		.byte	0x6
 7915 2c8a 00       		.byte	0
 7916 2c8b 31       		.uleb128 0x31
 7917 2c8c 3A010000 		.4byte	.LVL70
 7918 2c90 853B0000 		.4byte	0x3b85
 7919 2c94 AB2C0000 		.4byte	0x2cab
 7920 2c98 32       		.uleb128 0x32
 7921 2c99 01       		.uleb128 0x1
 7922 2c9a 50       		.byte	0x50
 7923 2c9b 02       		.uleb128 0x2
 7924 2c9c 74       		.byte	0x74
 7925 2c9d 00       		.sleb128 0
 7926 2c9e 32       		.uleb128 0x32
 7927 2c9f 01       		.uleb128 0x1
 7928 2ca0 51       		.byte	0x51
 7929 2ca1 01       		.uleb128 0x1
 7930 2ca2 4A       		.byte	0x4a
 7931 2ca3 32       		.uleb128 0x32
 7932 2ca4 01       		.uleb128 0x1
 7933 2ca5 52       		.byte	0x52
 7934 2ca6 03       		.uleb128 0x3
 7935 2ca7 91       		.byte	0x91
 7936 2ca8 D87E     		.sleb128 -168
 7937 2caa 00       		.byte	0
ARM GAS  C:\Users\haske\AppData\Local\Temp\cc1ymag8.s 			page 168


 7938 2cab 31       		.uleb128 0x31
 7939 2cac 44010000 		.4byte	.LVL71
 7940 2cb0 903B0000 		.4byte	0x3b90
 7941 2cb4 CD2C0000 		.4byte	0x2ccd
 7942 2cb8 32       		.uleb128 0x32
 7943 2cb9 01       		.uleb128 0x1
 7944 2cba 50       		.byte	0x50
 7945 2cbb 04       		.uleb128 0x4
 7946 2cbc 91       		.byte	0x91
 7947 2cbd 947E     		.sleb128 -236
 7948 2cbf 06       		.byte	0x6
 7949 2cc0 32       		.uleb128 0x32
 7950 2cc1 01       		.uleb128 0x1
 7951 2cc2 51       		.byte	0x51
 7952 2cc3 02       		.uleb128 0x2
 7953 2cc4 77       		.byte	0x77
 7954 2cc5 00       		.sleb128 0
 7955 2cc6 32       		.uleb128 0x32
 7956 2cc7 01       		.uleb128 0x1
 7957 2cc8 52       		.byte	0x52
 7958 2cc9 02       		.uleb128 0x2
 7959 2cca 76       		.byte	0x76
 7960 2ccb 00       		.sleb128 0
 7961 2ccc 00       		.byte	0
 7962 2ccd 33       		.uleb128 0x33
 7963 2cce 4E010000 		.4byte	.LVL72
 7964 2cd2 853B0000 		.4byte	0x3b85
 7965 2cd6 32       		.uleb128 0x32
 7966 2cd7 01       		.uleb128 0x1
 7967 2cd8 50       		.byte	0x50
 7968 2cd9 02       		.uleb128 0x2
 7969 2cda 74       		.byte	0x74
 7970 2cdb 00       		.sleb128 0
 7971 2cdc 32       		.uleb128 0x32
 7972 2cdd 01       		.uleb128 0x1
 7973 2cde 51       		.byte	0x51
 7974 2cdf 01       		.uleb128 0x1
 7975 2ce0 4B       		.byte	0x4b
 7976 2ce1 32       		.uleb128 0x32
 7977 2ce2 01       		.uleb128 0x1
 7978 2ce3 52       		.byte	0x52
 7979 2ce4 03       		.uleb128 0x3
 7980 2ce5 91       		.byte	0x91
 7981 2ce6 D87E     		.sleb128 -168
 7982 2ce8 00       		.byte	0
 7983 2ce9 00       		.byte	0
 7984 2cea 0B       		.uleb128 0xb
 7985 2ceb 04       		.byte	0x4
 7986 2cec 13230000 		.4byte	0x2313
 7987 2cf0 41       		.uleb128 0x41
 7988 2cf1 A40D0000 		.4byte	.LASF663
 7989 2cf5 01       		.byte	0x1
 7990 2cf6 5F       		.byte	0x5f
 7991 2cf7 00000000 		.4byte	.LFB177
 7992 2cfb EA050000 		.4byte	.LFE177-.LFB177
 7993 2cff 01       		.uleb128 0x1
 7994 2d00 9C       		.byte	0x9c
ARM GAS  C:\Users\haske\AppData\Local\Temp\cc1ymag8.s 			page 169


 7995 2d01 C3390000 		.4byte	0x39c3
 7996 2d05 42       		.uleb128 0x42
 7997 2d06 2D190000 		.4byte	.LASF184
 7998 2d0a 01       		.byte	0x1
 7999 2d0b 5F       		.byte	0x5f
 8000 2d0c 73210000 		.4byte	0x2173
 8001 2d10 29040000 		.4byte	.LLST36
 8002 2d14 43       		.uleb128 0x43
 8003 2d15 6500     		.ascii	"e\000"
 8004 2d17 01       		.byte	0x1
 8005 2d18 5F       		.byte	0x5f
 8006 2d19 D11F0000 		.4byte	0x1fd1
 8007 2d1d 4A040000 		.4byte	.LLST37
 8008 2d21 44       		.uleb128 0x44
 8009 2d22 72657300 		.ascii	"res\000"
 8010 2d26 01       		.byte	0x1
 8011 2d27 63       		.byte	0x63
 8012 2d28 0F030000 		.4byte	0x30f
 8013 2d2c F3040000 		.4byte	.LLST38
 8014 2d30 45       		.uleb128 0x45
 8015 2d31 FE1C0000 		.4byte	.LASF514
 8016 2d35 01       		.byte	0x1
 8017 2d36 69       		.byte	0x69
 8018 2d37 BB1F0000 		.4byte	0x1fbb
 8019 2d3b 11050000 		.4byte	.LLST39
 8020 2d3f 44       		.uleb128 0x44
 8021 2d40 6F626A00 		.ascii	"obj\000"
 8022 2d44 01       		.byte	0x1
 8023 2d45 6A       		.byte	0x6a
 8024 2d46 F8210000 		.4byte	0x21f8
 8025 2d4a 66050000 		.4byte	.LLST40
 8026 2d4e 45       		.uleb128 0x45
 8027 2d4f C2140000 		.4byte	.LASF638
 8028 2d53 01       		.byte	0x1
 8029 2d54 6B       		.byte	0x6b
 8030 2d55 EA2C0000 		.4byte	0x2cea
 8031 2d59 66050000 		.4byte	.LLST40
 8032 2d5d 2D       		.uleb128 0x2d
 8033 2d5e 8F030000 		.4byte	.LASF382
 8034 2d62 01       		.byte	0x1
 8035 2d63 6C       		.byte	0x6c
 8036 2d64 AB220000 		.4byte	0x22ab
 8037 2d68 46       		.uleb128 0x46
 8038 2d69 B7240000 		.4byte	0x24b7
 8039 2d6d 2C000000 		.4byte	.LBB104
 8040 2d71 16000000 		.4byte	.LBE104-.LBB104
 8041 2d75 01       		.byte	0x1
 8042 2d76 6C       		.byte	0x6c
 8043 2d77 A82D0000 		.4byte	0x2da8
 8044 2d7b 38       		.uleb128 0x38
 8045 2d7c C7240000 		.4byte	0x24c7
 8046 2d80 9D050000 		.4byte	.LLST42
 8047 2d84 39       		.uleb128 0x39
 8048 2d85 2C000000 		.4byte	.LBB105
 8049 2d89 16000000 		.4byte	.LBE105-.LBB105
 8050 2d8d 3A       		.uleb128 0x3a
 8051 2d8e D2240000 		.4byte	0x24d2
ARM GAS  C:\Users\haske\AppData\Local\Temp\cc1ymag8.s 			page 170


 8052 2d92 BB050000 		.4byte	.LLST43
 8053 2d96 33       		.uleb128 0x33
 8054 2d97 30000000 		.4byte	.LVL95
 8055 2d9b 6F3B0000 		.4byte	0x3b6f
 8056 2d9f 32       		.uleb128 0x32
 8057 2da0 01       		.uleb128 0x1
 8058 2da1 50       		.byte	0x50
 8059 2da2 02       		.uleb128 0x2
 8060 2da3 75       		.byte	0x75
 8061 2da4 00       		.sleb128 0
 8062 2da5 00       		.byte	0
 8063 2da6 00       		.byte	0
 8064 2da7 00       		.byte	0
 8065 2da8 40       		.uleb128 0x40
 8066 2da9 46000000 		.4byte	.LBB106
 8067 2dad 94000000 		.4byte	.LBE106-.LBB106
 8068 2db1 AE2E0000 		.4byte	0x2eae
 8069 2db5 45       		.uleb128 0x45
 8070 2db6 010F0000 		.4byte	.LASF664
 8071 2dba 01       		.byte	0x1
 8072 2dbb 70       		.byte	0x70
 8073 2dbc C3390000 		.4byte	0x39c3
 8074 2dc0 CE050000 		.4byte	.LLST44
 8075 2dc4 45       		.uleb128 0x45
 8076 2dc5 EE150000 		.4byte	.LASF665
 8077 2dc9 01       		.byte	0x1
 8078 2dca 71       		.byte	0x71
 8079 2dcb 01010000 		.4byte	0x101
 8080 2dcf EC050000 		.4byte	.LLST45
 8081 2dd3 47       		.uleb128 0x47
 8082 2dd4 6100     		.ascii	"a\000"
 8083 2dd6 01       		.byte	0x1
 8084 2dd7 74       		.byte	0x74
 8085 2dd8 69010000 		.4byte	0x169
 8086 2ddc 02       		.uleb128 0x2
 8087 2ddd 91       		.byte	0x91
 8088 2dde 50       		.sleb128 -48
 8089 2ddf 46       		.uleb128 0x46
 8090 2de0 DE240000 		.4byte	0x24de
 8091 2de4 5C000000 		.4byte	.LBB107
 8092 2de8 22000000 		.4byte	.LBE107-.LBB107
 8093 2dec 01       		.byte	0x1
 8094 2ded 75       		.byte	0x75
 8095 2dee 052E0000 		.4byte	0x2e05
 8096 2df2 38       		.uleb128 0x38
 8097 2df3 F5240000 		.4byte	0x24f5
 8098 2df7 FF050000 		.4byte	.LLST46
 8099 2dfb 38       		.uleb128 0x38
 8100 2dfc EA240000 		.4byte	0x24ea
 8101 2e00 2E060000 		.4byte	.LLST47
 8102 2e04 00       		.byte	0
 8103 2e05 46       		.uleb128 0x46
 8104 2e06 DE240000 		.4byte	0x24de
 8105 2e0a A0000000 		.4byte	.LBB109
 8106 2e0e 22000000 		.4byte	.LBE109-.LBB109
 8107 2e12 01       		.byte	0x1
 8108 2e13 7B       		.byte	0x7b
ARM GAS  C:\Users\haske\AppData\Local\Temp\cc1ymag8.s 			page 171


 8109 2e14 2B2E0000 		.4byte	0x2e2b
 8110 2e18 38       		.uleb128 0x38
 8111 2e19 F5240000 		.4byte	0x24f5
 8112 2e1d 7E060000 		.4byte	.LLST48
 8113 2e21 38       		.uleb128 0x38
 8114 2e22 EA240000 		.4byte	0x24ea
 8115 2e26 9F060000 		.4byte	.LLST49
 8116 2e2a 00       		.byte	0
 8117 2e2b 31       		.uleb128 0x31
 8118 2e2c 4C000000 		.4byte	.LVL97
 8119 2e30 D33B0000 		.4byte	0x3bd3
 8120 2e34 3F2E0000 		.4byte	0x2e3f
 8121 2e38 32       		.uleb128 0x32
 8122 2e39 01       		.uleb128 0x1
 8123 2e3a 50       		.byte	0x50
 8124 2e3b 02       		.uleb128 0x2
 8125 2e3c 74       		.byte	0x74
 8126 2e3d 00       		.sleb128 0
 8127 2e3e 00       		.byte	0
 8128 2e3f 31       		.uleb128 0x31
 8129 2e40 88000000 		.4byte	.LVL111
 8130 2e44 DE3B0000 		.4byte	0x3bde
 8131 2e48 5F2E0000 		.4byte	0x2e5f
 8132 2e4c 32       		.uleb128 0x32
 8133 2e4d 01       		.uleb128 0x1
 8134 2e4e 50       		.byte	0x50
 8135 2e4f 02       		.uleb128 0x2
 8136 2e50 91       		.byte	0x91
 8137 2e51 50       		.sleb128 -48
 8138 2e52 32       		.uleb128 0x32
 8139 2e53 01       		.uleb128 0x1
 8140 2e54 51       		.byte	0x51
 8141 2e55 02       		.uleb128 0x2
 8142 2e56 74       		.byte	0x74
 8143 2e57 00       		.sleb128 0
 8144 2e58 32       		.uleb128 0x32
 8145 2e59 01       		.uleb128 0x1
 8146 2e5a 52       		.byte	0x52
 8147 2e5b 02       		.uleb128 0x2
 8148 2e5c 74       		.byte	0x74
 8149 2e5d 00       		.sleb128 0
 8150 2e5e 00       		.byte	0
 8151 2e5f 31       		.uleb128 0x31
 8152 2e60 92000000 		.4byte	.LVL112
 8153 2e64 E93B0000 		.4byte	0x3be9
 8154 2e68 782E0000 		.4byte	0x2e78
 8155 2e6c 32       		.uleb128 0x32
 8156 2e6d 01       		.uleb128 0x1
 8157 2e6e 50       		.byte	0x50
 8158 2e6f 02       		.uleb128 0x2
 8159 2e70 91       		.byte	0x91
 8160 2e71 50       		.sleb128 -48
 8161 2e72 32       		.uleb128 0x32
 8162 2e73 01       		.uleb128 0x1
 8163 2e74 52       		.byte	0x52
 8164 2e75 01       		.uleb128 0x1
 8165 2e76 30       		.byte	0x30
ARM GAS  C:\Users\haske\AppData\Local\Temp\cc1ymag8.s 			page 172


 8166 2e77 00       		.byte	0
 8167 2e78 31       		.uleb128 0x31
 8168 2e79 CC000000 		.4byte	.LVL123
 8169 2e7d DE3B0000 		.4byte	0x3bde
 8170 2e81 982E0000 		.4byte	0x2e98
 8171 2e85 32       		.uleb128 0x32
 8172 2e86 01       		.uleb128 0x1
 8173 2e87 50       		.byte	0x50
 8174 2e88 02       		.uleb128 0x2
 8175 2e89 91       		.byte	0x91
 8176 2e8a 50       		.sleb128 -48
 8177 2e8b 32       		.uleb128 0x32
 8178 2e8c 01       		.uleb128 0x1
 8179 2e8d 51       		.byte	0x51
 8180 2e8e 02       		.uleb128 0x2
 8181 2e8f 74       		.byte	0x74
 8182 2e90 00       		.sleb128 0
 8183 2e91 32       		.uleb128 0x32
 8184 2e92 01       		.uleb128 0x1
 8185 2e93 52       		.byte	0x52
 8186 2e94 02       		.uleb128 0x2
 8187 2e95 74       		.byte	0x74
 8188 2e96 00       		.sleb128 0
 8189 2e97 00       		.byte	0
 8190 2e98 33       		.uleb128 0x33
 8191 2e99 D6000000 		.4byte	.LVL124
 8192 2e9d E93B0000 		.4byte	0x3be9
 8193 2ea1 32       		.uleb128 0x32
 8194 2ea2 01       		.uleb128 0x1
 8195 2ea3 50       		.byte	0x50
 8196 2ea4 02       		.uleb128 0x2
 8197 2ea5 91       		.byte	0x91
 8198 2ea6 50       		.sleb128 -48
 8199 2ea7 32       		.uleb128 0x32
 8200 2ea8 01       		.uleb128 0x1
 8201 2ea9 52       		.byte	0x52
 8202 2eaa 01       		.uleb128 0x1
 8203 2eab 30       		.byte	0x30
 8204 2eac 00       		.byte	0
 8205 2ead 00       		.byte	0
 8206 2eae 40       		.uleb128 0x40
 8207 2eaf E0000000 		.4byte	.LBB111
 8208 2eb3 88010000 		.4byte	.LBE111-.LBB111
 8209 2eb7 AE2F0000 		.4byte	0x2fae
 8210 2ebb 47       		.uleb128 0x47
 8211 2ebc 7000     		.ascii	"p\000"
 8212 2ebe 01       		.byte	0x1
 8213 2ebf 83       		.byte	0x83
 8214 2ec0 29010000 		.4byte	0x129
 8215 2ec4 02       		.uleb128 0x2
 8216 2ec5 91       		.byte	0x91
 8217 2ec6 50       		.sleb128 -48
 8218 2ec7 40       		.uleb128 0x40
 8219 2ec8 02010000 		.4byte	.LBB112
 8220 2ecc 66010000 		.4byte	.LBE112-.LBB112
 8221 2ed0 9D2F0000 		.4byte	0x2f9d
 8222 2ed4 44       		.uleb128 0x44
ARM GAS  C:\Users\haske\AppData\Local\Temp\cc1ymag8.s 			page 173


 8223 2ed5 686F7200 		.ascii	"hor\000"
 8224 2ed9 01       		.byte	0x1
 8225 2eda 8A       		.byte	0x8a
 8226 2edb AA020000 		.4byte	0x2aa
 8227 2edf 07070000 		.4byte	.LLST50
 8228 2ee3 2D       		.uleb128 0x2d
 8229 2ee4 63060000 		.4byte	.LASF666
 8230 2ee8 01       		.byte	0x1
 8231 2ee9 8B       		.byte	0x8b
 8232 2eea 08040000 		.4byte	0x408
 8233 2eee 45       		.uleb128 0x45
 8234 2eef 8D150000 		.4byte	.LASF667
 8235 2ef3 01       		.byte	0x1
 8236 2ef4 8D       		.byte	0x8d
 8237 2ef5 01010000 		.4byte	0x101
 8238 2ef9 37070000 		.4byte	.LLST51
 8239 2efd 45       		.uleb128 0x45
 8240 2efe 8E000000 		.4byte	.LASF668
 8241 2f02 01       		.byte	0x1
 8242 2f03 8D       		.byte	0x8d
 8243 2f04 01010000 		.4byte	0x101
 8244 2f08 6B070000 		.4byte	.LLST52
 8245 2f0c 46       		.uleb128 0x46
 8246 2f0d 83240000 		.4byte	0x2483
 8247 2f11 1C010000 		.4byte	.LBB113
 8248 2f15 0C000000 		.4byte	.LBE113-.LBB113
 8249 2f19 01       		.byte	0x1
 8250 2f1a 8B       		.byte	0x8b
 8251 2f1b 5B2F0000 		.4byte	0x2f5b
 8252 2f1f 38       		.uleb128 0x38
 8253 2f20 A0240000 		.4byte	0x24a0
 8254 2f24 D7080000 		.4byte	.LLST53
 8255 2f28 38       		.uleb128 0x38
 8256 2f29 94240000 		.4byte	0x2494
 8257 2f2d EB080000 		.4byte	.LLST54
 8258 2f31 39       		.uleb128 0x39
 8259 2f32 1C010000 		.4byte	.LBB114
 8260 2f36 0C000000 		.4byte	.LBE114-.LBB114
 8261 2f3a 3B       		.uleb128 0x3b
 8262 2f3b AC240000 		.4byte	0x24ac
 8263 2f3f 33       		.uleb128 0x33
 8264 2f40 26010000 		.4byte	.LVL133
 8265 2f44 643B0000 		.4byte	0x3b64
 8266 2f48 32       		.uleb128 0x32
 8267 2f49 01       		.uleb128 0x1
 8268 2f4a 50       		.byte	0x50
 8269 2f4b 02       		.uleb128 0x2
 8270 2f4c 75       		.byte	0x75
 8271 2f4d 00       		.sleb128 0
 8272 2f4e 32       		.uleb128 0x32
 8273 2f4f 01       		.uleb128 0x1
 8274 2f50 51       		.byte	0x51
 8275 2f51 01       		.uleb128 0x1
 8276 2f52 30       		.byte	0x30
 8277 2f53 32       		.uleb128 0x32
 8278 2f54 01       		.uleb128 0x1
 8279 2f55 52       		.byte	0x52
ARM GAS  C:\Users\haske\AppData\Local\Temp\cc1ymag8.s 			page 174


 8280 2f56 01       		.uleb128 0x1
 8281 2f57 46       		.byte	0x46
 8282 2f58 00       		.byte	0
 8283 2f59 00       		.byte	0
 8284 2f5a 00       		.byte	0
 8285 2f5b 48       		.uleb128 0x48
 8286 2f5c 06010000 		.4byte	.LVL127
 8287 2f60 F43B0000 		.4byte	0x3bf4
 8288 2f64 31       		.uleb128 0x31
 8289 2f65 0C010000 		.4byte	.LVL128
 8290 2f69 FF3B0000 		.4byte	0x3bff
 8291 2f6d 782F0000 		.4byte	0x2f78
 8292 2f71 32       		.uleb128 0x32
 8293 2f72 01       		.uleb128 0x1
 8294 2f73 51       		.byte	0x51
 8295 2f74 02       		.uleb128 0x2
 8296 2f75 91       		.byte	0x91
 8297 2f76 50       		.sleb128 -48
 8298 2f77 00       		.byte	0
 8299 2f78 31       		.uleb128 0x31
 8300 2f79 12010000 		.4byte	.LVL129
 8301 2f7d 4C3B0000 		.4byte	0x3b4c
 8302 2f81 8C2F0000 		.4byte	0x2f8c
 8303 2f85 32       		.uleb128 0x32
 8304 2f86 01       		.uleb128 0x1
 8305 2f87 50       		.byte	0x50
 8306 2f88 02       		.uleb128 0x2
 8307 2f89 75       		.byte	0x75
 8308 2f8a 00       		.sleb128 0
 8309 2f8b 00       		.byte	0
 8310 2f8c 33       		.uleb128 0x33
 8311 2f8d 1A010000 		.4byte	.LVL131
 8312 2f91 583B0000 		.4byte	0x3b58
 8313 2f95 32       		.uleb128 0x32
 8314 2f96 01       		.uleb128 0x1
 8315 2f97 50       		.byte	0x50
 8316 2f98 02       		.uleb128 0x2
 8317 2f99 75       		.byte	0x75
 8318 2f9a 00       		.sleb128 0
 8319 2f9b 00       		.byte	0
 8320 2f9c 00       		.byte	0
 8321 2f9d 33       		.uleb128 0x33
 8322 2f9e E6000000 		.4byte	.LVL126
 8323 2fa2 0A3C0000 		.4byte	0x3c0a
 8324 2fa6 32       		.uleb128 0x32
 8325 2fa7 01       		.uleb128 0x1
 8326 2fa8 50       		.byte	0x50
 8327 2fa9 02       		.uleb128 0x2
 8328 2faa 75       		.byte	0x75
 8329 2fab 00       		.sleb128 0
 8330 2fac 00       		.byte	0
 8331 2fad 00       		.byte	0
 8332 2fae 40       		.uleb128 0x40
 8333 2faf 76020000 		.4byte	.LBB115
 8334 2fb3 38010000 		.4byte	.LBE115-.LBB115
 8335 2fb7 E5320000 		.4byte	0x32e5
 8336 2fbb 45       		.uleb128 0x45
ARM GAS  C:\Users\haske\AppData\Local\Temp\cc1ymag8.s 			page 175


 8337 2fbc 02120000 		.4byte	.LASF669
 8338 2fc0 01       		.byte	0x1
 8339 2fc1 C1       		.byte	0xc1
 8340 2fc2 C9390000 		.4byte	0x39c9
 8341 2fc6 FE080000 		.4byte	.LLST55
 8342 2fca 47       		.uleb128 0x47
 8343 2fcb 7000     		.ascii	"p\000"
 8344 2fcd 01       		.byte	0x1
 8345 2fce C4       		.byte	0xc4
 8346 2fcf 29010000 		.4byte	0x129
 8347 2fd3 02       		.uleb128 0x2
 8348 2fd4 91       		.byte	0x91
 8349 2fd5 50       		.sleb128 -48
 8350 2fd6 45       		.uleb128 0x45
 8351 2fd7 67220000 		.4byte	.LASF670
 8352 2fdb 01       		.byte	0x1
 8353 2fdc C6       		.byte	0xc6
 8354 2fdd D9000000 		.4byte	0xd9
 8355 2fe1 27090000 		.4byte	.LLST56
 8356 2fe5 45       		.uleb128 0x45
 8357 2fe6 06010000 		.4byte	.LASF671
 8358 2fea 01       		.byte	0x1
 8359 2feb C8       		.byte	0xc8
 8360 2fec CF390000 		.4byte	0x39cf
 8361 2ff0 BB090000 		.4byte	.LLST57
 8362 2ff4 45       		.uleb128 0x45
 8363 2ff5 26210000 		.4byte	.LASF672
 8364 2ff9 01       		.byte	0x1
 8365 2ffa E6       		.byte	0xe6
 8366 2ffb D9000000 		.4byte	0xd9
 8367 2fff CE090000 		.4byte	.LLST58
 8368 3003 45       		.uleb128 0x45
 8369 3004 D82A0000 		.4byte	.LASF673
 8370 3008 01       		.byte	0x1
 8371 3009 E7       		.byte	0xe7
 8372 300a D9000000 		.4byte	0xd9
 8373 300e E1090000 		.4byte	.LLST59
 8374 3012 40       		.uleb128 0x40
 8375 3013 9E020000 		.4byte	.LBB116
 8376 3017 72000000 		.4byte	.LBE116-.LBB116
 8377 301b 57310000 		.4byte	0x3157
 8378 301f 2D       		.uleb128 0x2d
 8379 3020 3A290000 		.4byte	.LASF674
 8380 3024 01       		.byte	0x1
 8381 3025 CA       		.byte	0xca
 8382 3026 B2280000 		.4byte	0x28b2
 8383 302a 2D       		.uleb128 0x2d
 8384 302b A4130000 		.4byte	.LASF675
 8385 302f 01       		.byte	0x1
 8386 3030 CB       		.byte	0xcb
 8387 3031 B2280000 		.4byte	0x28b2
 8388 3035 44       		.uleb128 0x44
 8389 3036 7700     		.ascii	"w\000"
 8390 3038 01       		.byte	0x1
 8391 3039 CC       		.byte	0xcc
 8392 303a B2280000 		.4byte	0x28b2
 8393 303e F4090000 		.4byte	.LLST60
ARM GAS  C:\Users\haske\AppData\Local\Temp\cc1ymag8.s 			page 176


 8394 3042 45       		.uleb128 0x45
 8395 3043 1F1F0000 		.4byte	.LASF676
 8396 3047 01       		.byte	0x1
 8397 3048 CD       		.byte	0xcd
 8398 3049 B2280000 		.4byte	0x28b2
 8399 304d 070A0000 		.4byte	.LLST61
 8400 3051 46       		.uleb128 0x46
 8401 3052 53240000 		.4byte	0x2453
 8402 3056 9E020000 		.4byte	.LBB117
 8403 305a 10000000 		.4byte	.LBE117-.LBB117
 8404 305e 01       		.byte	0x1
 8405 305f CA       		.byte	0xca
 8406 3060 A4300000 		.4byte	0x30a4
 8407 3064 38       		.uleb128 0x38
 8408 3065 6E240000 		.4byte	0x246e
 8409 3069 1A0A0000 		.4byte	.LLST62
 8410 306d 38       		.uleb128 0x38
 8411 306e 63240000 		.4byte	0x2463
 8412 3072 2E0A0000 		.4byte	.LLST63
 8413 3076 39       		.uleb128 0x39
 8414 3077 9E020000 		.4byte	.LBB118
 8415 307b 10000000 		.4byte	.LBE118-.LBB118
 8416 307f 3A       		.uleb128 0x3a
 8417 3080 79240000 		.4byte	0x2479
 8418 3084 410A0000 		.4byte	.LLST64
 8419 3088 33       		.uleb128 0x33
 8420 3089 A8020000 		.4byte	.LVL166
 8421 308d 643B0000 		.4byte	0x3b64
 8422 3091 32       		.uleb128 0x32
 8423 3092 01       		.uleb128 0x1
 8424 3093 50       		.byte	0x50
 8425 3094 02       		.uleb128 0x2
 8426 3095 75       		.byte	0x75
 8427 3096 00       		.sleb128 0
 8428 3097 32       		.uleb128 0x32
 8429 3098 01       		.uleb128 0x1
 8430 3099 51       		.byte	0x51
 8431 309a 01       		.uleb128 0x1
 8432 309b 30       		.byte	0x30
 8433 309c 32       		.uleb128 0x32
 8434 309d 01       		.uleb128 0x1
 8435 309e 52       		.byte	0x52
 8436 309f 01       		.uleb128 0x1
 8437 30a0 42       		.byte	0x42
 8438 30a1 00       		.byte	0
 8439 30a2 00       		.byte	0
 8440 30a3 00       		.byte	0
 8441 30a4 46       		.uleb128 0x46
 8442 30a5 23240000 		.4byte	0x2423
 8443 30a9 AE020000 		.4byte	.LBB119
 8444 30ad 10000000 		.4byte	.LBE119-.LBB119
 8445 30b1 01       		.byte	0x1
 8446 30b2 CB       		.byte	0xcb
 8447 30b3 F7300000 		.4byte	0x30f7
 8448 30b7 38       		.uleb128 0x38
 8449 30b8 3E240000 		.4byte	0x243e
 8450 30bc 540A0000 		.4byte	.LLST65
ARM GAS  C:\Users\haske\AppData\Local\Temp\cc1ymag8.s 			page 177


 8451 30c0 38       		.uleb128 0x38
 8452 30c1 33240000 		.4byte	0x2433
 8453 30c5 680A0000 		.4byte	.LLST66
 8454 30c9 39       		.uleb128 0x39
 8455 30ca AE020000 		.4byte	.LBB120
 8456 30ce 10000000 		.4byte	.LBE120-.LBB120
 8457 30d2 3A       		.uleb128 0x3a
 8458 30d3 49240000 		.4byte	0x2449
 8459 30d7 7B0A0000 		.4byte	.LLST67
 8460 30db 33       		.uleb128 0x33
 8461 30dc B8020000 		.4byte	.LVL169
 8462 30e0 643B0000 		.4byte	0x3b64
 8463 30e4 32       		.uleb128 0x32
 8464 30e5 01       		.uleb128 0x1
 8465 30e6 50       		.byte	0x50
 8466 30e7 02       		.uleb128 0x2
 8467 30e8 75       		.byte	0x75
 8468 30e9 00       		.sleb128 0
 8469 30ea 32       		.uleb128 0x32
 8470 30eb 01       		.uleb128 0x1
 8471 30ec 51       		.byte	0x51
 8472 30ed 01       		.uleb128 0x1
 8473 30ee 30       		.byte	0x30
 8474 30ef 32       		.uleb128 0x32
 8475 30f0 01       		.uleb128 0x1
 8476 30f1 52       		.byte	0x52
 8477 30f2 01       		.uleb128 0x1
 8478 30f3 43       		.byte	0x43
 8479 30f4 00       		.byte	0
 8480 30f5 00       		.byte	0
 8481 30f6 00       		.byte	0
 8482 30f7 46       		.uleb128 0x46
 8483 30f8 83240000 		.4byte	0x2483
 8484 30fc CA020000 		.4byte	.LBB121
 8485 3100 0C000000 		.4byte	.LBE121-.LBB121
 8486 3104 01       		.byte	0x1
 8487 3105 CF       		.byte	0xcf
 8488 3106 46310000 		.4byte	0x3146
 8489 310a 38       		.uleb128 0x38
 8490 310b A0240000 		.4byte	0x24a0
 8491 310f A40A0000 		.4byte	.LLST68
 8492 3113 38       		.uleb128 0x38
 8493 3114 94240000 		.4byte	0x2494
 8494 3118 B80A0000 		.4byte	.LLST69
 8495 311c 39       		.uleb128 0x39
 8496 311d CA020000 		.4byte	.LBB122
 8497 3121 0C000000 		.4byte	.LBE122-.LBB122
 8498 3125 3B       		.uleb128 0x3b
 8499 3126 AC240000 		.4byte	0x24ac
 8500 312a 33       		.uleb128 0x33
 8501 312b D4020000 		.4byte	.LVL176
 8502 312f 643B0000 		.4byte	0x3b64
 8503 3133 32       		.uleb128 0x32
 8504 3134 01       		.uleb128 0x1
 8505 3135 50       		.byte	0x50
 8506 3136 02       		.uleb128 0x2
 8507 3137 75       		.byte	0x75
ARM GAS  C:\Users\haske\AppData\Local\Temp\cc1ymag8.s 			page 178


 8508 3138 00       		.sleb128 0
 8509 3139 32       		.uleb128 0x32
 8510 313a 01       		.uleb128 0x1
 8511 313b 51       		.byte	0x51
 8512 313c 01       		.uleb128 0x1
 8513 313d 30       		.byte	0x30
 8514 313e 32       		.uleb128 0x32
 8515 313f 01       		.uleb128 0x1
 8516 3140 52       		.byte	0x52
 8517 3141 01       		.uleb128 0x1
 8518 3142 46       		.byte	0x46
 8519 3143 00       		.byte	0
 8520 3144 00       		.byte	0
 8521 3145 00       		.byte	0
 8522 3146 33       		.uleb128 0x33
 8523 3147 C4020000 		.4byte	.LVL172
 8524 314b 4C3B0000 		.4byte	0x3b4c
 8525 314f 32       		.uleb128 0x32
 8526 3150 01       		.uleb128 0x1
 8527 3151 50       		.byte	0x50
 8528 3152 02       		.uleb128 0x2
 8529 3153 75       		.byte	0x75
 8530 3154 00       		.sleb128 0
 8531 3155 00       		.byte	0
 8532 3156 00       		.byte	0
 8533 3157 40       		.uleb128 0x40
 8534 3158 18030000 		.4byte	.LBB123
 8535 315c 4C000000 		.4byte	.LBE123-.LBB123
 8536 3160 4D320000 		.4byte	0x324d
 8537 3164 2D       		.uleb128 0x2d
 8538 3165 B8050000 		.4byte	.LASF677
 8539 3169 01       		.byte	0x1
 8540 316a DB       		.byte	0xdb
 8541 316b B2280000 		.4byte	0x28b2
 8542 316f 2D       		.uleb128 0x2d
 8543 3170 8A210000 		.4byte	.LASF678
 8544 3174 01       		.byte	0x1
 8545 3175 DC       		.byte	0xdc
 8546 3176 B2280000 		.4byte	0x28b2
 8547 317a 44       		.uleb128 0x44
 8548 317b 6800     		.ascii	"h\000"
 8549 317d 01       		.byte	0x1
 8550 317e DD       		.byte	0xdd
 8551 317f B2280000 		.4byte	0x28b2
 8552 3183 CB0A0000 		.4byte	.LLST70
 8553 3187 45       		.uleb128 0x45
 8554 3188 401D0000 		.4byte	.LASF679
 8555 318c 01       		.byte	0x1
 8556 318d DE       		.byte	0xde
 8557 318e B2280000 		.4byte	0x28b2
 8558 3192 DE0A0000 		.4byte	.LLST71
 8559 3196 46       		.uleb128 0x46
 8560 3197 F3230000 		.4byte	0x23f3
 8561 319b 18030000 		.4byte	.LBB124
 8562 319f 0C000000 		.4byte	.LBE124-.LBB124
 8563 31a3 01       		.byte	0x1
 8564 31a4 DB       		.byte	0xdb
ARM GAS  C:\Users\haske\AppData\Local\Temp\cc1ymag8.s 			page 179


 8565 31a5 E9310000 		.4byte	0x31e9
 8566 31a9 38       		.uleb128 0x38
 8567 31aa 0E240000 		.4byte	0x240e
 8568 31ae F10A0000 		.4byte	.LLST72
 8569 31b2 38       		.uleb128 0x38
 8570 31b3 03240000 		.4byte	0x2403
 8571 31b7 050B0000 		.4byte	.LLST73
 8572 31bb 39       		.uleb128 0x39
 8573 31bc 18030000 		.4byte	.LBB125
 8574 31c0 0C000000 		.4byte	.LBE125-.LBB125
 8575 31c4 3A       		.uleb128 0x3a
 8576 31c5 19240000 		.4byte	0x2419
 8577 31c9 180B0000 		.4byte	.LLST74
 8578 31cd 33       		.uleb128 0x33
 8579 31ce 22030000 		.4byte	.LVL185
 8580 31d2 643B0000 		.4byte	0x3b64
 8581 31d6 32       		.uleb128 0x32
 8582 31d7 01       		.uleb128 0x1
 8583 31d8 50       		.byte	0x50
 8584 31d9 02       		.uleb128 0x2
 8585 31da 75       		.byte	0x75
 8586 31db 00       		.sleb128 0
 8587 31dc 32       		.uleb128 0x32
 8588 31dd 01       		.uleb128 0x1
 8589 31de 51       		.byte	0x51
 8590 31df 01       		.uleb128 0x1
 8591 31e0 30       		.byte	0x30
 8592 31e1 32       		.uleb128 0x32
 8593 31e2 01       		.uleb128 0x1
 8594 31e3 52       		.byte	0x52
 8595 31e4 01       		.uleb128 0x1
 8596 31e5 40       		.byte	0x40
 8597 31e6 00       		.byte	0
 8598 31e7 00       		.byte	0
 8599 31e8 00       		.byte	0
 8600 31e9 46       		.uleb128 0x46
 8601 31ea C3230000 		.4byte	0x23c3
 8602 31ee 24030000 		.4byte	.LBB126
 8603 31f2 0E000000 		.4byte	.LBE126-.LBB126
 8604 31f6 01       		.byte	0x1
 8605 31f7 DC       		.byte	0xdc
 8606 31f8 3C320000 		.4byte	0x323c
 8607 31fc 38       		.uleb128 0x38
 8608 31fd DE230000 		.4byte	0x23de
 8609 3201 360B0000 		.4byte	.LLST75
 8610 3205 38       		.uleb128 0x38
 8611 3206 D3230000 		.4byte	0x23d3
 8612 320a 4A0B0000 		.4byte	.LLST76
 8613 320e 39       		.uleb128 0x39
 8614 320f 24030000 		.4byte	.LBB127
 8615 3213 0E000000 		.4byte	.LBE127-.LBB127
 8616 3217 3A       		.uleb128 0x3a
 8617 3218 E9230000 		.4byte	0x23e9
 8618 321c 5D0B0000 		.4byte	.LLST77
 8619 3220 33       		.uleb128 0x33
 8620 3221 2E030000 		.4byte	.LVL187
 8621 3225 643B0000 		.4byte	0x3b64
ARM GAS  C:\Users\haske\AppData\Local\Temp\cc1ymag8.s 			page 180


 8622 3229 32       		.uleb128 0x32
 8623 322a 01       		.uleb128 0x1
 8624 322b 50       		.byte	0x50
 8625 322c 02       		.uleb128 0x2
 8626 322d 75       		.byte	0x75
 8627 322e 00       		.sleb128 0
 8628 322f 32       		.uleb128 0x32
 8629 3230 01       		.uleb128 0x1
 8630 3231 51       		.byte	0x51
 8631 3232 01       		.uleb128 0x1
 8632 3233 30       		.byte	0x30
 8633 3234 32       		.uleb128 0x32
 8634 3235 01       		.uleb128 0x1
 8635 3236 52       		.byte	0x52
 8636 3237 01       		.uleb128 0x1
 8637 3238 41       		.byte	0x41
 8638 3239 00       		.byte	0
 8639 323a 00       		.byte	0
 8640 323b 00       		.byte	0
 8641 323c 33       		.uleb128 0x33
 8642 323d 38030000 		.4byte	.LVL190
 8643 3241 583B0000 		.4byte	0x3b58
 8644 3245 32       		.uleb128 0x32
 8645 3246 01       		.uleb128 0x1
 8646 3247 50       		.byte	0x50
 8647 3248 02       		.uleb128 0x2
 8648 3249 75       		.byte	0x75
 8649 324a 00       		.sleb128 0
 8650 324b 00       		.byte	0
 8651 324c 00       		.byte	0
 8652 324d 48       		.uleb128 0x48
 8653 324e 7A020000 		.4byte	.LVL159
 8654 3252 F43B0000 		.4byte	0x3bf4
 8655 3256 31       		.uleb128 0x31
 8656 3257 80020000 		.4byte	.LVL161
 8657 325b 163C0000 		.4byte	0x3c16
 8658 325f 6A320000 		.4byte	0x326a
 8659 3263 32       		.uleb128 0x32
 8660 3264 01       		.uleb128 0x1
 8661 3265 50       		.byte	0x50
 8662 3266 02       		.uleb128 0x2
 8663 3267 74       		.byte	0x74
 8664 3268 00       		.sleb128 0
 8665 3269 00       		.byte	0
 8666 326a 31       		.uleb128 0x31
 8667 326b 8E020000 		.4byte	.LVL162
 8668 326f FF3B0000 		.4byte	0x3bff
 8669 3273 84320000 		.4byte	0x3284
 8670 3277 32       		.uleb128 0x32
 8671 3278 01       		.uleb128 0x1
 8672 3279 50       		.byte	0x50
 8673 327a 02       		.uleb128 0x2
 8674 327b 74       		.byte	0x74
 8675 327c 00       		.sleb128 0
 8676 327d 32       		.uleb128 0x32
 8677 327e 01       		.uleb128 0x1
 8678 327f 51       		.byte	0x51
ARM GAS  C:\Users\haske\AppData\Local\Temp\cc1ymag8.s 			page 181


 8679 3280 02       		.uleb128 0x2
 8680 3281 91       		.byte	0x91
 8681 3282 50       		.sleb128 -48
 8682 3283 00       		.byte	0
 8683 3284 31       		.uleb128 0x31
 8684 3285 9A020000 		.4byte	.LVL164
 8685 3289 D0250000 		.4byte	0x25d0
 8686 328d 98320000 		.4byte	0x3298
 8687 3291 32       		.uleb128 0x32
 8688 3292 01       		.uleb128 0x1
 8689 3293 50       		.byte	0x50
 8690 3294 02       		.uleb128 0x2
 8691 3295 75       		.byte	0x75
 8692 3296 00       		.sleb128 0
 8693 3297 00       		.byte	0
 8694 3298 31       		.uleb128 0x31
 8695 3299 98030000 		.4byte	.LVL204
 8696 329d 213C0000 		.4byte	0x3c21
 8697 32a1 B1320000 		.4byte	0x32b1
 8698 32a5 32       		.uleb128 0x32
 8699 32a6 01       		.uleb128 0x1
 8700 32a7 50       		.byte	0x50
 8701 32a8 02       		.uleb128 0x2
 8702 32a9 75       		.byte	0x75
 8703 32aa 00       		.sleb128 0
 8704 32ab 32       		.uleb128 0x32
 8705 32ac 01       		.uleb128 0x1
 8706 32ad 52       		.byte	0x52
 8707 32ae 01       		.uleb128 0x1
 8708 32af 31       		.byte	0x31
 8709 32b0 00       		.byte	0
 8710 32b1 31       		.uleb128 0x31
 8711 32b2 A2030000 		.4byte	.LVL206
 8712 32b6 2C3C0000 		.4byte	0x3c2c
 8713 32ba CA320000 		.4byte	0x32ca
 8714 32be 32       		.uleb128 0x32
 8715 32bf 01       		.uleb128 0x1
 8716 32c0 50       		.byte	0x50
 8717 32c1 02       		.uleb128 0x2
 8718 32c2 75       		.byte	0x75
 8719 32c3 00       		.sleb128 0
 8720 32c4 32       		.uleb128 0x32
 8721 32c5 01       		.uleb128 0x1
 8722 32c6 52       		.byte	0x52
 8723 32c7 01       		.uleb128 0x1
 8724 32c8 31       		.byte	0x31
 8725 32c9 00       		.byte	0
 8726 32ca 33       		.uleb128 0x33
 8727 32cb AC030000 		.4byte	.LVL207
 8728 32cf 853B0000 		.4byte	0x3b85
 8729 32d3 32       		.uleb128 0x32
 8730 32d4 01       		.uleb128 0x1
 8731 32d5 50       		.byte	0x50
 8732 32d6 02       		.uleb128 0x2
 8733 32d7 75       		.byte	0x75
 8734 32d8 00       		.sleb128 0
 8735 32d9 32       		.uleb128 0x32
ARM GAS  C:\Users\haske\AppData\Local\Temp\cc1ymag8.s 			page 182


 8736 32da 01       		.uleb128 0x1
 8737 32db 51       		.byte	0x51
 8738 32dc 01       		.uleb128 0x1
 8739 32dd 4C       		.byte	0x4c
 8740 32de 32       		.uleb128 0x32
 8741 32df 01       		.uleb128 0x1
 8742 32e0 52       		.byte	0x52
 8743 32e1 01       		.uleb128 0x1
 8744 32e2 30       		.byte	0x30
 8745 32e3 00       		.byte	0
 8746 32e4 00       		.byte	0
 8747 32e5 40       		.uleb128 0x40
 8748 32e6 B6030000 		.4byte	.LBB128
 8749 32ea 84000000 		.4byte	.LBE128-.LBB128
 8750 32ee DE330000 		.4byte	0x33de
 8751 32f2 3D       		.uleb128 0x3d
 8752 32f3 6700     		.ascii	"g\000"
 8753 32f5 01       		.byte	0x1
 8754 32f6 0401     		.2byte	0x104
 8755 32f8 57210000 		.4byte	0x2157
 8756 32fc 7B0B0000 		.4byte	.LLST78
 8757 3300 3E       		.uleb128 0x3e
 8758 3301 851E0000 		.4byte	.LASF432
 8759 3305 01       		.byte	0x1
 8760 3306 0501     		.2byte	0x105
 8761 3308 AA020000 		.4byte	0x2aa
 8762 330c 990B0000 		.4byte	.LLST79
 8763 3310 3E       		.uleb128 0x3e
 8764 3311 4D260000 		.4byte	.LASF680
 8765 3315 01       		.byte	0x1
 8766 3316 0601     		.2byte	0x106
 8767 3318 45160000 		.4byte	0x1645
 8768 331c B70B0000 		.4byte	.LLST80
 8769 3320 37       		.uleb128 0x37
 8770 3321 B7240000 		.4byte	0x24b7
 8771 3325 EC030000 		.4byte	.LBB129
 8772 3329 18000000 		.4byte	.LBE129-.LBB129
 8773 332d 01       		.byte	0x1
 8774 332e 0901     		.2byte	0x109
 8775 3330 61330000 		.4byte	0x3361
 8776 3334 38       		.uleb128 0x38
 8777 3335 C7240000 		.4byte	0x24c7
 8778 3339 CA0B0000 		.4byte	.LLST81
 8779 333d 39       		.uleb128 0x39
 8780 333e EC030000 		.4byte	.LBB130
 8781 3342 18000000 		.4byte	.LBE130-.LBB130
 8782 3346 3A       		.uleb128 0x3a
 8783 3347 D2240000 		.4byte	0x24d2
 8784 334b DD0B0000 		.4byte	.LLST82
 8785 334f 33       		.uleb128 0x33
 8786 3350 F2030000 		.4byte	.LVL218
 8787 3354 6F3B0000 		.4byte	0x3b6f
 8788 3358 32       		.uleb128 0x32
 8789 3359 01       		.uleb128 0x1
 8790 335a 50       		.byte	0x50
 8791 335b 02       		.uleb128 0x2
 8792 335c 75       		.byte	0x75
ARM GAS  C:\Users\haske\AppData\Local\Temp\cc1ymag8.s 			page 183


 8793 335d 00       		.sleb128 0
 8794 335e 00       		.byte	0
 8795 335f 00       		.byte	0
 8796 3360 00       		.byte	0
 8797 3361 31       		.uleb128 0x31
 8798 3362 CA030000 		.4byte	.LVL209
 8799 3366 0A3C0000 		.4byte	0x3c0a
 8800 336a 75330000 		.4byte	0x3375
 8801 336e 32       		.uleb128 0x32
 8802 336f 01       		.uleb128 0x1
 8803 3370 50       		.byte	0x50
 8804 3371 02       		.uleb128 0x2
 8805 3372 75       		.byte	0x75
 8806 3373 00       		.sleb128 0
 8807 3374 00       		.byte	0
 8808 3375 31       		.uleb128 0x31
 8809 3376 D0030000 		.4byte	.LVL210
 8810 337a 373C0000 		.4byte	0x3c37
 8811 337e 89330000 		.4byte	0x3389
 8812 3382 32       		.uleb128 0x32
 8813 3383 01       		.uleb128 0x1
 8814 3384 50       		.byte	0x50
 8815 3385 02       		.uleb128 0x2
 8816 3386 75       		.byte	0x75
 8817 3387 00       		.sleb128 0
 8818 3388 00       		.byte	0
 8819 3389 31       		.uleb128 0x31
 8820 338a D6030000 		.4byte	.LVL212
 8821 338e 433C0000 		.4byte	0x3c43
 8822 3392 9D330000 		.4byte	0x339d
 8823 3396 32       		.uleb128 0x32
 8824 3397 01       		.uleb128 0x1
 8825 3398 50       		.byte	0x50
 8826 3399 02       		.uleb128 0x2
 8827 339a 76       		.byte	0x76
 8828 339b 00       		.sleb128 0
 8829 339c 00       		.byte	0
 8830 339d 48       		.uleb128 0x48
 8831 339e DC030000 		.4byte	.LVL214
 8832 33a2 F43B0000 		.4byte	0x3bf4
 8833 33a6 48       		.uleb128 0x48
 8834 33a7 E0030000 		.4byte	.LVL215
 8835 33ab 163C0000 		.4byte	0x3c16
 8836 33af 31       		.uleb128 0x31
 8837 33b0 2E040000 		.4byte	.LVL220
 8838 33b4 4E3C0000 		.4byte	0x3c4e
 8839 33b8 C8330000 		.4byte	0x33c8
 8840 33bc 32       		.uleb128 0x32
 8841 33bd 01       		.uleb128 0x1
 8842 33be 50       		.byte	0x50
 8843 33bf 02       		.uleb128 0x2
 8844 33c0 76       		.byte	0x76
 8845 33c1 00       		.sleb128 0
 8846 33c2 32       		.uleb128 0x32
 8847 33c3 01       		.uleb128 0x1
 8848 33c4 51       		.byte	0x51
 8849 33c5 01       		.uleb128 0x1
ARM GAS  C:\Users\haske\AppData\Local\Temp\cc1ymag8.s 			page 184


 8850 33c6 30       		.byte	0x30
 8851 33c7 00       		.byte	0
 8852 33c8 33       		.uleb128 0x33
 8853 33c9 38040000 		.4byte	.LVL221
 8854 33cd 4E3C0000 		.4byte	0x3c4e
 8855 33d1 32       		.uleb128 0x32
 8856 33d2 01       		.uleb128 0x1
 8857 33d3 50       		.byte	0x50
 8858 33d4 02       		.uleb128 0x2
 8859 33d5 76       		.byte	0x76
 8860 33d6 00       		.sleb128 0
 8861 33d7 32       		.uleb128 0x32
 8862 33d8 01       		.uleb128 0x1
 8863 33d9 51       		.byte	0x51
 8864 33da 01       		.uleb128 0x1
 8865 33db 30       		.byte	0x30
 8866 33dc 00       		.byte	0
 8867 33dd 00       		.byte	0
 8868 33de 40       		.uleb128 0x40
 8869 33df 3E040000 		.4byte	.LBB131
 8870 33e3 1E000000 		.4byte	.LBE131-.LBB131
 8871 33e7 0E340000 		.4byte	0x340e
 8872 33eb 3E       		.uleb128 0x3e
 8873 33ec 4D260000 		.4byte	.LASF680
 8874 33f0 01       		.byte	0x1
 8875 33f1 1801     		.2byte	0x118
 8876 33f3 45160000 		.4byte	0x1645
 8877 33f7 F00B0000 		.4byte	.LLST83
 8878 33fb 48       		.uleb128 0x48
 8879 33fc 42040000 		.4byte	.LVL223
 8880 3400 F43B0000 		.4byte	0x3bf4
 8881 3404 48       		.uleb128 0x48
 8882 3405 46040000 		.4byte	.LVL224
 8883 3409 163C0000 		.4byte	0x3c16
 8884 340d 00       		.byte	0
 8885 340e 40       		.uleb128 0x40
 8886 340f 6C040000 		.4byte	.LBB132
 8887 3413 E6000000 		.4byte	.LBE132-.LBB132
 8888 3417 43370000 		.4byte	0x3743
 8889 341b 36       		.uleb128 0x36
 8890 341c B8290000 		.4byte	.LASF649
 8891 3420 01       		.byte	0x1
 8892 3421 2101     		.2byte	0x121
 8893 3423 01010000 		.4byte	0x101
 8894 3427 36       		.uleb128 0x36
 8895 3428 A1180000 		.4byte	.LASF650
 8896 342c 01       		.byte	0x1
 8897 342d 2201     		.2byte	0x122
 8898 342f 01010000 		.4byte	0x101
 8899 3433 36       		.uleb128 0x36
 8900 3434 A1270000 		.4byte	.LASF651
 8901 3438 01       		.byte	0x1
 8902 3439 2301     		.2byte	0x123
 8903 343b 01010000 		.4byte	0x101
 8904 343f 36       		.uleb128 0x36
 8905 3440 1B2B0000 		.4byte	.LASF652
 8906 3444 01       		.byte	0x1
ARM GAS  C:\Users\haske\AppData\Local\Temp\cc1ymag8.s 			page 185


 8907 3445 2401     		.2byte	0x124
 8908 3447 01010000 		.4byte	0x101
 8909 344b 36       		.uleb128 0x36
 8910 344c 14030000 		.4byte	.LASF237
 8911 3450 01       		.byte	0x1
 8912 3451 2701     		.2byte	0x127
 8913 3453 01010000 		.4byte	0x101
 8914 3457 36       		.uleb128 0x36
 8915 3458 AC180000 		.4byte	.LASF681
 8916 345c 01       		.byte	0x1
 8917 345d 2801     		.2byte	0x128
 8918 345f 01010000 		.4byte	0x101
 8919 3463 36       		.uleb128 0x36
 8920 3464 83180000 		.4byte	.LASF682
 8921 3468 01       		.byte	0x1
 8922 3469 2901     		.2byte	0x129
 8923 346b 01010000 		.4byte	0x101
 8924 346f 3E       		.uleb128 0x3e
 8925 3470 42290000 		.4byte	.LASF648
 8926 3474 01       		.byte	0x1
 8927 3475 2A01     		.2byte	0x12a
 8928 3477 01010000 		.4byte	0x101
 8929 347b 030C0000 		.4byte	.LLST84
 8930 347f 3D       		.uleb128 0x3d
 8931 3480 7300     		.ascii	"s\000"
 8932 3482 01       		.byte	0x1
 8933 3483 3101     		.2byte	0x131
 8934 3485 D4390000 		.4byte	0x39d4
 8935 3489 440C0000 		.4byte	.LLST85
 8936 348d 37       		.uleb128 0x37
 8937 348e 53240000 		.4byte	0x2453
 8938 3492 6C040000 		.4byte	.LBB133
 8939 3496 12000000 		.4byte	.LBE133-.LBB133
 8940 349a 01       		.byte	0x1
 8941 349b 2101     		.2byte	0x121
 8942 349d DE340000 		.4byte	0x34de
 8943 34a1 38       		.uleb128 0x38
 8944 34a2 6E240000 		.4byte	0x246e
 8945 34a6 570C0000 		.4byte	.LLST86
 8946 34aa 38       		.uleb128 0x38
 8947 34ab 63240000 		.4byte	0x2463
 8948 34af 6D0C0000 		.4byte	.LLST87
 8949 34b3 39       		.uleb128 0x39
 8950 34b4 6C040000 		.4byte	.LBB134
 8951 34b8 12000000 		.4byte	.LBE134-.LBB134
 8952 34bc 3B       		.uleb128 0x3b
 8953 34bd 79240000 		.4byte	0x2479
 8954 34c1 33       		.uleb128 0x33
 8955 34c2 7A040000 		.4byte	.LVL228
 8956 34c6 643B0000 		.4byte	0x3b64
 8957 34ca 32       		.uleb128 0x32
 8958 34cb 01       		.uleb128 0x1
 8959 34cc 50       		.byte	0x50
 8960 34cd 02       		.uleb128 0x2
 8961 34ce 75       		.byte	0x75
 8962 34cf 00       		.sleb128 0
 8963 34d0 32       		.uleb128 0x32
ARM GAS  C:\Users\haske\AppData\Local\Temp\cc1ymag8.s 			page 186


 8964 34d1 01       		.uleb128 0x1
 8965 34d2 51       		.byte	0x51
 8966 34d3 02       		.uleb128 0x2
 8967 34d4 77       		.byte	0x77
 8968 34d5 00       		.sleb128 0
 8969 34d6 32       		.uleb128 0x32
 8970 34d7 01       		.uleb128 0x1
 8971 34d8 52       		.byte	0x52
 8972 34d9 01       		.uleb128 0x1
 8973 34da 42       		.byte	0x42
 8974 34db 00       		.byte	0
 8975 34dc 00       		.byte	0
 8976 34dd 00       		.byte	0
 8977 34de 37       		.uleb128 0x37
 8978 34df 23240000 		.4byte	0x2423
 8979 34e3 7E040000 		.4byte	.LBB135
 8980 34e7 0E000000 		.4byte	.LBE135-.LBB135
 8981 34eb 01       		.byte	0x1
 8982 34ec 2201     		.2byte	0x122
 8983 34ee 2F350000 		.4byte	0x352f
 8984 34f2 38       		.uleb128 0x38
 8985 34f3 3E240000 		.4byte	0x243e
 8986 34f7 800C0000 		.4byte	.LLST88
 8987 34fb 38       		.uleb128 0x38
 8988 34fc 33240000 		.4byte	0x2433
 8989 3500 960C0000 		.4byte	.LLST89
 8990 3504 39       		.uleb128 0x39
 8991 3505 7E040000 		.4byte	.LBB136
 8992 3509 0E000000 		.4byte	.LBE136-.LBB136
 8993 350d 3B       		.uleb128 0x3b
 8994 350e 49240000 		.4byte	0x2449
 8995 3512 33       		.uleb128 0x33
 8996 3513 88040000 		.4byte	.LVL230
 8997 3517 643B0000 		.4byte	0x3b64
 8998 351b 32       		.uleb128 0x32
 8999 351c 01       		.uleb128 0x1
 9000 351d 50       		.byte	0x50
 9001 351e 02       		.uleb128 0x2
 9002 351f 75       		.byte	0x75
 9003 3520 00       		.sleb128 0
 9004 3521 32       		.uleb128 0x32
 9005 3522 01       		.uleb128 0x1
 9006 3523 51       		.byte	0x51
 9007 3524 02       		.uleb128 0x2
 9008 3525 77       		.byte	0x77
 9009 3526 00       		.sleb128 0
 9010 3527 32       		.uleb128 0x32
 9011 3528 01       		.uleb128 0x1
 9012 3529 52       		.byte	0x52
 9013 352a 01       		.uleb128 0x1
 9014 352b 43       		.byte	0x43
 9015 352c 00       		.byte	0
 9016 352d 00       		.byte	0
 9017 352e 00       		.byte	0
 9018 352f 37       		.uleb128 0x37
 9019 3530 F3230000 		.4byte	0x23f3
 9020 3534 8C040000 		.4byte	.LBB137
ARM GAS  C:\Users\haske\AppData\Local\Temp\cc1ymag8.s 			page 187


 9021 3538 0E000000 		.4byte	.LBE137-.LBB137
 9022 353c 01       		.byte	0x1
 9023 353d 2301     		.2byte	0x123
 9024 353f 80350000 		.4byte	0x3580
 9025 3543 38       		.uleb128 0x38
 9026 3544 0E240000 		.4byte	0x240e
 9027 3548 A90C0000 		.4byte	.LLST90
 9028 354c 38       		.uleb128 0x38
 9029 354d 03240000 		.4byte	0x2403
 9030 3551 BF0C0000 		.4byte	.LLST91
 9031 3555 39       		.uleb128 0x39
 9032 3556 8C040000 		.4byte	.LBB138
 9033 355a 0E000000 		.4byte	.LBE138-.LBB138
 9034 355e 3B       		.uleb128 0x3b
 9035 355f 19240000 		.4byte	0x2419
 9036 3563 33       		.uleb128 0x33
 9037 3564 96040000 		.4byte	.LVL232
 9038 3568 643B0000 		.4byte	0x3b64
 9039 356c 32       		.uleb128 0x32
 9040 356d 01       		.uleb128 0x1
 9041 356e 50       		.byte	0x50
 9042 356f 02       		.uleb128 0x2
 9043 3570 75       		.byte	0x75
 9044 3571 00       		.sleb128 0
 9045 3572 32       		.uleb128 0x32
 9046 3573 01       		.uleb128 0x1
 9047 3574 51       		.byte	0x51
 9048 3575 02       		.uleb128 0x2
 9049 3576 77       		.byte	0x77
 9050 3577 00       		.sleb128 0
 9051 3578 32       		.uleb128 0x32
 9052 3579 01       		.uleb128 0x1
 9053 357a 52       		.byte	0x52
 9054 357b 01       		.uleb128 0x1
 9055 357c 40       		.byte	0x40
 9056 357d 00       		.byte	0
 9057 357e 00       		.byte	0
 9058 357f 00       		.byte	0
 9059 3580 37       		.uleb128 0x37
 9060 3581 C3230000 		.4byte	0x23c3
 9061 3585 9A040000 		.4byte	.LBB139
 9062 3589 0E000000 		.4byte	.LBE139-.LBB139
 9063 358d 01       		.byte	0x1
 9064 358e 2401     		.2byte	0x124
 9065 3590 D1350000 		.4byte	0x35d1
 9066 3594 38       		.uleb128 0x38
 9067 3595 DE230000 		.4byte	0x23de
 9068 3599 D20C0000 		.4byte	.LLST92
 9069 359d 38       		.uleb128 0x38
 9070 359e D3230000 		.4byte	0x23d3
 9071 35a2 E80C0000 		.4byte	.LLST93
 9072 35a6 39       		.uleb128 0x39
 9073 35a7 9A040000 		.4byte	.LBB140
 9074 35ab 0E000000 		.4byte	.LBE140-.LBB140
 9075 35af 3B       		.uleb128 0x3b
 9076 35b0 E9230000 		.4byte	0x23e9
 9077 35b4 33       		.uleb128 0x33
ARM GAS  C:\Users\haske\AppData\Local\Temp\cc1ymag8.s 			page 188


 9078 35b5 A4040000 		.4byte	.LVL234
 9079 35b9 643B0000 		.4byte	0x3b64
 9080 35bd 32       		.uleb128 0x32
 9081 35be 01       		.uleb128 0x1
 9082 35bf 50       		.byte	0x50
 9083 35c0 02       		.uleb128 0x2
 9084 35c1 75       		.byte	0x75
 9085 35c2 00       		.sleb128 0
 9086 35c3 32       		.uleb128 0x32
 9087 35c4 01       		.uleb128 0x1
 9088 35c5 51       		.byte	0x51
 9089 35c6 02       		.uleb128 0x2
 9090 35c7 77       		.byte	0x77
 9091 35c8 00       		.sleb128 0
 9092 35c9 32       		.uleb128 0x32
 9093 35ca 01       		.uleb128 0x1
 9094 35cb 52       		.byte	0x52
 9095 35cc 01       		.uleb128 0x1
 9096 35cd 41       		.byte	0x41
 9097 35ce 00       		.byte	0
 9098 35cf 00       		.byte	0
 9099 35d0 00       		.byte	0
 9100 35d1 37       		.uleb128 0x37
 9101 35d2 01250000 		.4byte	0x2501
 9102 35d6 A8040000 		.4byte	.LBB141
 9103 35da 0E000000 		.4byte	.LBE141-.LBB141
 9104 35de 01       		.byte	0x1
 9105 35df 2701     		.2byte	0x127
 9106 35e1 23360000 		.4byte	0x3623
 9107 35e5 38       		.uleb128 0x38
 9108 35e6 1C250000 		.4byte	0x251c
 9109 35ea FB0C0000 		.4byte	.LLST94
 9110 35ee 38       		.uleb128 0x38
 9111 35ef 11250000 		.4byte	0x2511
 9112 35f3 110D0000 		.4byte	.LLST95
 9113 35f7 39       		.uleb128 0x39
 9114 35f8 A8040000 		.4byte	.LBB142
 9115 35fc 0E000000 		.4byte	.LBE142-.LBB142
 9116 3600 3B       		.uleb128 0x3b
 9117 3601 27250000 		.4byte	0x2527
 9118 3605 33       		.uleb128 0x33
 9119 3606 B2040000 		.4byte	.LVL236
 9120 360a 643B0000 		.4byte	0x3b64
 9121 360e 32       		.uleb128 0x32
 9122 360f 01       		.uleb128 0x1
 9123 3610 50       		.byte	0x50
 9124 3611 02       		.uleb128 0x2
 9125 3612 75       		.byte	0x75
 9126 3613 00       		.sleb128 0
 9127 3614 32       		.uleb128 0x32
 9128 3615 01       		.uleb128 0x1
 9129 3616 51       		.byte	0x51
 9130 3617 02       		.uleb128 0x2
 9131 3618 77       		.byte	0x77
 9132 3619 00       		.sleb128 0
 9133 361a 32       		.uleb128 0x32
 9134 361b 01       		.uleb128 0x1
ARM GAS  C:\Users\haske\AppData\Local\Temp\cc1ymag8.s 			page 189


 9135 361c 52       		.byte	0x52
 9136 361d 02       		.uleb128 0x2
 9137 361e 08       		.byte	0x8
 9138 361f 6C       		.byte	0x6c
 9139 3620 00       		.byte	0
 9140 3621 00       		.byte	0
 9141 3622 00       		.byte	0
 9142 3623 37       		.uleb128 0x37
 9143 3624 93230000 		.4byte	0x2393
 9144 3628 B6040000 		.4byte	.LBB143
 9145 362c 0C000000 		.4byte	.LBE143-.LBB143
 9146 3630 01       		.byte	0x1
 9147 3631 2801     		.2byte	0x128
 9148 3633 75360000 		.4byte	0x3675
 9149 3637 38       		.uleb128 0x38
 9150 3638 AE230000 		.4byte	0x23ae
 9151 363c 240D0000 		.4byte	.LLST96
 9152 3640 38       		.uleb128 0x38
 9153 3641 A3230000 		.4byte	0x23a3
 9154 3645 3A0D0000 		.4byte	.LLST97
 9155 3649 39       		.uleb128 0x39
 9156 364a B6040000 		.4byte	.LBB144
 9157 364e 0C000000 		.4byte	.LBE144-.LBB144
 9158 3652 3B       		.uleb128 0x3b
 9159 3653 B9230000 		.4byte	0x23b9
 9160 3657 33       		.uleb128 0x33
 9161 3658 C0040000 		.4byte	.LVL238
 9162 365c 643B0000 		.4byte	0x3b64
 9163 3660 32       		.uleb128 0x32
 9164 3661 01       		.uleb128 0x1
 9165 3662 50       		.byte	0x50
 9166 3663 02       		.uleb128 0x2
 9167 3664 75       		.byte	0x75
 9168 3665 00       		.sleb128 0
 9169 3666 32       		.uleb128 0x32
 9170 3667 01       		.uleb128 0x1
 9171 3668 51       		.byte	0x51
 9172 3669 02       		.uleb128 0x2
 9173 366a 77       		.byte	0x77
 9174 366b 00       		.sleb128 0
 9175 366c 32       		.uleb128 0x32
 9176 366d 01       		.uleb128 0x1
 9177 366e 52       		.byte	0x52
 9178 366f 02       		.uleb128 0x2
 9179 3670 08       		.byte	0x8
 9180 3671 68       		.byte	0x68
 9181 3672 00       		.byte	0
 9182 3673 00       		.byte	0
 9183 3674 00       		.byte	0
 9184 3675 37       		.uleb128 0x37
 9185 3676 58230000 		.4byte	0x2358
 9186 367a C2040000 		.4byte	.LBB145
 9187 367e 0C000000 		.4byte	.LBE145-.LBB145
 9188 3682 01       		.byte	0x1
 9189 3683 2901     		.2byte	0x129
 9190 3685 C7360000 		.4byte	0x36c7
 9191 3689 38       		.uleb128 0x38
ARM GAS  C:\Users\haske\AppData\Local\Temp\cc1ymag8.s 			page 190


 9192 368a 73230000 		.4byte	0x2373
 9193 368e 4D0D0000 		.4byte	.LLST98
 9194 3692 38       		.uleb128 0x38
 9195 3693 68230000 		.4byte	0x2368
 9196 3697 630D0000 		.4byte	.LLST99
 9197 369b 39       		.uleb128 0x39
 9198 369c C2040000 		.4byte	.LBB146
 9199 36a0 0C000000 		.4byte	.LBE146-.LBB146
 9200 36a4 3B       		.uleb128 0x3b
 9201 36a5 7E230000 		.4byte	0x237e
 9202 36a9 33       		.uleb128 0x33
 9203 36aa CC040000 		.4byte	.LVL240
 9204 36ae 643B0000 		.4byte	0x3b64
 9205 36b2 32       		.uleb128 0x32
 9206 36b3 01       		.uleb128 0x1
 9207 36b4 50       		.byte	0x50
 9208 36b5 02       		.uleb128 0x2
 9209 36b6 75       		.byte	0x75
 9210 36b7 00       		.sleb128 0
 9211 36b8 32       		.uleb128 0x32
 9212 36b9 01       		.uleb128 0x1
 9213 36ba 51       		.byte	0x51
 9214 36bb 02       		.uleb128 0x2
 9215 36bc 77       		.byte	0x77
 9216 36bd 00       		.sleb128 0
 9217 36be 32       		.uleb128 0x32
 9218 36bf 01       		.uleb128 0x1
 9219 36c0 52       		.byte	0x52
 9220 36c1 02       		.uleb128 0x2
 9221 36c2 08       		.byte	0x8
 9222 36c3 69       		.byte	0x69
 9223 36c4 00       		.byte	0
 9224 36c5 00       		.byte	0
 9225 36c6 00       		.byte	0
 9226 36c7 31       		.uleb128 0x31
 9227 36c8 D4040000 		.4byte	.LVL242
 9228 36cc 4C3B0000 		.4byte	0x3b4c
 9229 36d0 DB360000 		.4byte	0x36db
 9230 36d4 32       		.uleb128 0x32
 9231 36d5 01       		.uleb128 0x1
 9232 36d6 50       		.byte	0x50
 9233 36d7 02       		.uleb128 0x2
 9234 36d8 75       		.byte	0x75
 9235 36d9 00       		.sleb128 0
 9236 36da 00       		.byte	0
 9237 36db 31       		.uleb128 0x31
 9238 36dc E0040000 		.4byte	.LVL243
 9239 36e0 583B0000 		.4byte	0x3b58
 9240 36e4 EF360000 		.4byte	0x36ef
 9241 36e8 32       		.uleb128 0x32
 9242 36e9 01       		.uleb128 0x1
 9243 36ea 50       		.byte	0x50
 9244 36eb 02       		.uleb128 0x2
 9245 36ec 75       		.byte	0x75
 9246 36ed 00       		.sleb128 0
 9247 36ee 00       		.byte	0
 9248 36ef 31       		.uleb128 0x31
ARM GAS  C:\Users\haske\AppData\Local\Temp\cc1ymag8.s 			page 191


 9249 36f0 EE040000 		.4byte	.LVL244
 9250 36f4 4C3B0000 		.4byte	0x3b4c
 9251 36f8 03370000 		.4byte	0x3703
 9252 36fc 32       		.uleb128 0x32
 9253 36fd 01       		.uleb128 0x1
 9254 36fe 50       		.byte	0x50
 9255 36ff 02       		.uleb128 0x2
 9256 3700 75       		.byte	0x75
 9257 3701 00       		.sleb128 0
 9258 3702 00       		.byte	0
 9259 3703 31       		.uleb128 0x31
 9260 3704 FC040000 		.4byte	.LVL245
 9261 3708 583B0000 		.4byte	0x3b58
 9262 370c 17370000 		.4byte	0x3717
 9263 3710 32       		.uleb128 0x32
 9264 3711 01       		.uleb128 0x1
 9265 3712 50       		.byte	0x50
 9266 3713 02       		.uleb128 0x2
 9267 3714 75       		.byte	0x75
 9268 3715 00       		.sleb128 0
 9269 3716 00       		.byte	0
 9270 3717 31       		.uleb128 0x31
 9271 3718 3A050000 		.4byte	.LVL251
 9272 371c 593C0000 		.4byte	0x3c59
 9273 3720 32370000 		.4byte	0x3732
 9274 3724 32       		.uleb128 0x32
 9275 3725 01       		.uleb128 0x1
 9276 3726 50       		.byte	0x50
 9277 3727 02       		.uleb128 0x2
 9278 3728 75       		.byte	0x75
 9279 3729 00       		.sleb128 0
 9280 372a 32       		.uleb128 0x32
 9281 372b 01       		.uleb128 0x1
 9282 372c 51       		.byte	0x51
 9283 372d 03       		.uleb128 0x3
 9284 372e 48       		.byte	0x48
 9285 372f 3D       		.byte	0x3d
 9286 3730 24       		.byte	0x24
 9287 3731 00       		.byte	0
 9288 3732 33       		.uleb128 0x33
 9289 3733 44050000 		.4byte	.LVL254
 9290 3737 D33B0000 		.4byte	0x3bd3
 9291 373b 32       		.uleb128 0x32
 9292 373c 01       		.uleb128 0x1
 9293 373d 50       		.byte	0x50
 9294 373e 02       		.uleb128 0x2
 9295 373f 74       		.byte	0x74
 9296 3740 00       		.sleb128 0
 9297 3741 00       		.byte	0
 9298 3742 00       		.byte	0
 9299 3743 40       		.uleb128 0x40
 9300 3744 58050000 		.4byte	.LBB147
 9301 3748 7A000000 		.4byte	.LBE147-.LBB147
 9302 374c 59390000 		.4byte	0x3959
 9303 3750 3D       		.uleb128 0x3d
 9304 3751 6300     		.ascii	"c\000"
 9305 3753 01       		.byte	0x1
ARM GAS  C:\Users\haske\AppData\Local\Temp\cc1ymag8.s 			page 192


 9306 3754 3601     		.2byte	0x136
 9307 3756 27030000 		.4byte	0x327
 9308 375a 760D0000 		.4byte	.LLST100
 9309 375e 37       		.uleb128 0x37
 9310 375f 5F250000 		.4byte	0x255f
 9311 3763 70050000 		.4byte	.LBB148
 9312 3767 06000000 		.4byte	.LBE148-.LBB148
 9313 376b 01       		.byte	0x1
 9314 376c 3901     		.2byte	0x139
 9315 376e 8C370000 		.4byte	0x378c
 9316 3772 38       		.uleb128 0x38
 9317 3773 6F250000 		.4byte	0x256f
 9318 3777 C40D0000 		.4byte	.LLST101
 9319 377b 33       		.uleb128 0x33
 9320 377c 76050000 		.4byte	.LVL261
 9321 3780 643C0000 		.4byte	0x3c64
 9322 3784 32       		.uleb128 0x32
 9323 3785 01       		.uleb128 0x1
 9324 3786 50       		.byte	0x50
 9325 3787 02       		.uleb128 0x2
 9326 3788 75       		.byte	0x75
 9327 3789 00       		.sleb128 0
 9328 378a 00       		.byte	0
 9329 378b 00       		.byte	0
 9330 378c 37       		.uleb128 0x37
 9331 378d 31250000 		.4byte	0x2531
 9332 3791 78050000 		.4byte	.LBB150
 9333 3795 0A000000 		.4byte	.LBE150-.LBB150
 9334 3799 01       		.byte	0x1
 9335 379a 3901     		.2byte	0x139
 9336 379c D1370000 		.4byte	0x37d1
 9337 37a0 38       		.uleb128 0x38
 9338 37a1 53250000 		.4byte	0x2553
 9339 37a5 D70D0000 		.4byte	.LLST102
 9340 37a9 38       		.uleb128 0x38
 9341 37aa 48250000 		.4byte	0x2548
 9342 37ae EB0D0000 		.4byte	.LLST103
 9343 37b2 38       		.uleb128 0x38
 9344 37b3 3D250000 		.4byte	0x253d
 9345 37b7 FE0D0000 		.4byte	.LLST104
 9346 37bb 33       		.uleb128 0x33
 9347 37bc 80050000 		.4byte	.LVL263
 9348 37c0 2C3C0000 		.4byte	0x3c2c
 9349 37c4 32       		.uleb128 0x32
 9350 37c5 01       		.uleb128 0x1
 9351 37c6 50       		.byte	0x50
 9352 37c7 02       		.uleb128 0x2
 9353 37c8 75       		.byte	0x75
 9354 37c9 00       		.sleb128 0
 9355 37ca 32       		.uleb128 0x32
 9356 37cb 01       		.uleb128 0x1
 9357 37cc 52       		.byte	0x52
 9358 37cd 01       		.uleb128 0x1
 9359 37ce 31       		.byte	0x31
 9360 37cf 00       		.byte	0
 9361 37d0 00       		.byte	0
 9362 37d1 37       		.uleb128 0x37
ARM GAS  C:\Users\haske\AppData\Local\Temp\cc1ymag8.s 			page 193


 9363 37d2 B4250000 		.4byte	0x25b4
 9364 37d6 82050000 		.4byte	.LBB152
 9365 37da 06000000 		.4byte	.LBE152-.LBB152
 9366 37de 01       		.byte	0x1
 9367 37df 3A01     		.2byte	0x13a
 9368 37e1 FF370000 		.4byte	0x37ff
 9369 37e5 38       		.uleb128 0x38
 9370 37e6 C4250000 		.4byte	0x25c4
 9371 37ea 110E0000 		.4byte	.LLST105
 9372 37ee 33       		.uleb128 0x33
 9373 37ef 88050000 		.4byte	.LVL266
 9374 37f3 6F3C0000 		.4byte	0x3c6f
 9375 37f7 32       		.uleb128 0x32
 9376 37f8 01       		.uleb128 0x1
 9377 37f9 50       		.byte	0x50
 9378 37fa 02       		.uleb128 0x2
 9379 37fb 75       		.byte	0x75
 9380 37fc 00       		.sleb128 0
 9381 37fd 00       		.byte	0
 9382 37fe 00       		.byte	0
 9383 37ff 37       		.uleb128 0x37
 9384 3800 86250000 		.4byte	0x2586
 9385 3804 8A050000 		.4byte	.LBB154
 9386 3808 0A000000 		.4byte	.LBE154-.LBB154
 9387 380c 01       		.byte	0x1
 9388 380d 3A01     		.2byte	0x13a
 9389 380f 44380000 		.4byte	0x3844
 9390 3813 38       		.uleb128 0x38
 9391 3814 A8250000 		.4byte	0x25a8
 9392 3818 240E0000 		.4byte	.LLST106
 9393 381c 38       		.uleb128 0x38
 9394 381d 9D250000 		.4byte	0x259d
 9395 3821 380E0000 		.4byte	.LLST107
 9396 3825 38       		.uleb128 0x38
 9397 3826 92250000 		.4byte	0x2592
 9398 382a 4B0E0000 		.4byte	.LLST108
 9399 382e 33       		.uleb128 0x33
 9400 382f 92050000 		.4byte	.LVL268
 9401 3833 213C0000 		.4byte	0x3c21
 9402 3837 32       		.uleb128 0x32
 9403 3838 01       		.uleb128 0x1
 9404 3839 50       		.byte	0x50
 9405 383a 02       		.uleb128 0x2
 9406 383b 75       		.byte	0x75
 9407 383c 00       		.sleb128 0
 9408 383d 32       		.uleb128 0x32
 9409 383e 01       		.uleb128 0x1
 9410 383f 52       		.byte	0x52
 9411 3840 01       		.uleb128 0x1
 9412 3841 31       		.byte	0x31
 9413 3842 00       		.byte	0
 9414 3843 00       		.byte	0
 9415 3844 37       		.uleb128 0x37
 9416 3845 5F250000 		.4byte	0x255f
 9417 3849 A4050000 		.4byte	.LBB156
 9418 384d 06000000 		.4byte	.LBE156-.LBB156
 9419 3851 01       		.byte	0x1
ARM GAS  C:\Users\haske\AppData\Local\Temp\cc1ymag8.s 			page 194


 9420 3852 3D01     		.2byte	0x13d
 9421 3854 72380000 		.4byte	0x3872
 9422 3858 38       		.uleb128 0x38
 9423 3859 6F250000 		.4byte	0x256f
 9424 385d 5E0E0000 		.4byte	.LLST109
 9425 3861 33       		.uleb128 0x33
 9426 3862 AA050000 		.4byte	.LVL273
 9427 3866 643C0000 		.4byte	0x3c64
 9428 386a 32       		.uleb128 0x32
 9429 386b 01       		.uleb128 0x1
 9430 386c 50       		.byte	0x50
 9431 386d 02       		.uleb128 0x2
 9432 386e 75       		.byte	0x75
 9433 386f 00       		.sleb128 0
 9434 3870 00       		.byte	0
 9435 3871 00       		.byte	0
 9436 3872 37       		.uleb128 0x37
 9437 3873 31250000 		.4byte	0x2531
 9438 3877 AC050000 		.4byte	.LBB158
 9439 387b 0A000000 		.4byte	.LBE158-.LBB158
 9440 387f 01       		.byte	0x1
 9441 3880 3D01     		.2byte	0x13d
 9442 3882 B7380000 		.4byte	0x38b7
 9443 3886 38       		.uleb128 0x38
 9444 3887 53250000 		.4byte	0x2553
 9445 388b 710E0000 		.4byte	.LLST110
 9446 388f 38       		.uleb128 0x38
 9447 3890 48250000 		.4byte	0x2548
 9448 3894 850E0000 		.4byte	.LLST111
 9449 3898 38       		.uleb128 0x38
 9450 3899 3D250000 		.4byte	0x253d
 9451 389d 980E0000 		.4byte	.LLST112
 9452 38a1 33       		.uleb128 0x33
 9453 38a2 B4050000 		.4byte	.LVL275
 9454 38a6 2C3C0000 		.4byte	0x3c2c
 9455 38aa 32       		.uleb128 0x32
 9456 38ab 01       		.uleb128 0x1
 9457 38ac 50       		.byte	0x50
 9458 38ad 02       		.uleb128 0x2
 9459 38ae 75       		.byte	0x75
 9460 38af 00       		.sleb128 0
 9461 38b0 32       		.uleb128 0x32
 9462 38b1 01       		.uleb128 0x1
 9463 38b2 52       		.byte	0x52
 9464 38b3 01       		.uleb128 0x1
 9465 38b4 31       		.byte	0x31
 9466 38b5 00       		.byte	0
 9467 38b6 00       		.byte	0
 9468 38b7 37       		.uleb128 0x37
 9469 38b8 B4250000 		.4byte	0x25b4
 9470 38bc B6050000 		.4byte	.LBB160
 9471 38c0 06000000 		.4byte	.LBE160-.LBB160
 9472 38c4 01       		.byte	0x1
 9473 38c5 3E01     		.2byte	0x13e
 9474 38c7 E5380000 		.4byte	0x38e5
 9475 38cb 38       		.uleb128 0x38
 9476 38cc C4250000 		.4byte	0x25c4
ARM GAS  C:\Users\haske\AppData\Local\Temp\cc1ymag8.s 			page 195


 9477 38d0 AB0E0000 		.4byte	.LLST113
 9478 38d4 33       		.uleb128 0x33
 9479 38d5 BC050000 		.4byte	.LVL278
 9480 38d9 6F3C0000 		.4byte	0x3c6f
 9481 38dd 32       		.uleb128 0x32
 9482 38de 01       		.uleb128 0x1
 9483 38df 50       		.byte	0x50
 9484 38e0 02       		.uleb128 0x2
 9485 38e1 75       		.byte	0x75
 9486 38e2 00       		.sleb128 0
 9487 38e3 00       		.byte	0
 9488 38e4 00       		.byte	0
 9489 38e5 37       		.uleb128 0x37
 9490 38e6 86250000 		.4byte	0x2586
 9491 38ea BE050000 		.4byte	.LBB162
 9492 38ee 08000000 		.4byte	.LBE162-.LBB162
 9493 38f2 01       		.byte	0x1
 9494 38f3 3E01     		.2byte	0x13e
 9495 38f5 2A390000 		.4byte	0x392a
 9496 38f9 38       		.uleb128 0x38
 9497 38fa A8250000 		.4byte	0x25a8
 9498 38fe BE0E0000 		.4byte	.LLST114
 9499 3902 38       		.uleb128 0x38
 9500 3903 9D250000 		.4byte	0x259d
 9501 3907 D20E0000 		.4byte	.LLST115
 9502 390b 38       		.uleb128 0x38
 9503 390c 92250000 		.4byte	0x2592
 9504 3910 E50E0000 		.4byte	.LLST116
 9505 3914 33       		.uleb128 0x33
 9506 3915 C6050000 		.4byte	.LVL280
 9507 3919 213C0000 		.4byte	0x3c21
 9508 391d 32       		.uleb128 0x32
 9509 391e 01       		.uleb128 0x1
 9510 391f 50       		.byte	0x50
 9511 3920 02       		.uleb128 0x2
 9512 3921 75       		.byte	0x75
 9513 3922 00       		.sleb128 0
 9514 3923 32       		.uleb128 0x32
 9515 3924 01       		.uleb128 0x1
 9516 3925 52       		.byte	0x52
 9517 3926 01       		.uleb128 0x1
 9518 3927 31       		.byte	0x31
 9519 3928 00       		.byte	0
 9520 3929 00       		.byte	0
 9521 392a 31       		.uleb128 0x31
 9522 392b 5E050000 		.4byte	.LVL256
 9523 392f D33B0000 		.4byte	0x3bd3
 9524 3933 3E390000 		.4byte	0x393e
 9525 3937 32       		.uleb128 0x32
 9526 3938 01       		.uleb128 0x1
 9527 3939 50       		.byte	0x50
 9528 393a 02       		.uleb128 0x2
 9529 393b 74       		.byte	0x74
 9530 393c 00       		.sleb128 0
 9531 393d 00       		.byte	0
 9532 393e 33       		.uleb128 0x33
 9533 393f D0050000 		.4byte	.LVL281
ARM GAS  C:\Users\haske\AppData\Local\Temp\cc1ymag8.s 			page 196


 9534 3943 853B0000 		.4byte	0x3b85
 9535 3947 32       		.uleb128 0x32
 9536 3948 01       		.uleb128 0x1
 9537 3949 50       		.byte	0x50
 9538 394a 02       		.uleb128 0x2
 9539 394b 75       		.byte	0x75
 9540 394c 00       		.sleb128 0
 9541 394d 32       		.uleb128 0x32
 9542 394e 01       		.uleb128 0x1
 9543 394f 51       		.byte	0x51
 9544 3950 01       		.uleb128 0x1
 9545 3951 4C       		.byte	0x4c
 9546 3952 32       		.uleb128 0x32
 9547 3953 01       		.uleb128 0x1
 9548 3954 52       		.byte	0x52
 9549 3955 01       		.uleb128 0x1
 9550 3956 30       		.byte	0x30
 9551 3957 00       		.byte	0
 9552 3958 00       		.byte	0
 9553 3959 31       		.uleb128 0x31
 9554 395a 16000000 		.4byte	.LVL88
 9555 395e 7A3C0000 		.4byte	0x3c7a
 9556 3962 76390000 		.4byte	0x3976
 9557 3966 32       		.uleb128 0x32
 9558 3967 01       		.uleb128 0x1
 9559 3968 50       		.byte	0x50
 9560 3969 05       		.uleb128 0x5
 9561 396a 03       		.byte	0x3
 9562 396b 00000000 		.4byte	.LANCHOR0
 9563 396f 32       		.uleb128 0x32
 9564 3970 01       		.uleb128 0x1
 9565 3971 51       		.byte	0x51
 9566 3972 02       		.uleb128 0x2
 9567 3973 74       		.byte	0x74
 9568 3974 00       		.sleb128 0
 9569 3975 00       		.byte	0
 9570 3976 31       		.uleb128 0x31
 9571 3977 22000000 		.4byte	.LVL90
 9572 397b 853C0000 		.4byte	0x3c85
 9573 397f 8A390000 		.4byte	0x398a
 9574 3983 32       		.uleb128 0x32
 9575 3984 01       		.uleb128 0x1
 9576 3985 50       		.byte	0x50
 9577 3986 02       		.uleb128 0x2
 9578 3987 74       		.byte	0x74
 9579 3988 00       		.sleb128 0
 9580 3989 00       		.byte	0
 9581 398a 31       		.uleb128 0x31
 9582 398b 2A000000 		.4byte	.LVL93
 9583 398f 9B3B0000 		.4byte	0x3b9b
 9584 3993 9E390000 		.4byte	0x399e
 9585 3997 32       		.uleb128 0x32
 9586 3998 01       		.uleb128 0x1
 9587 3999 50       		.byte	0x50
 9588 399a 02       		.uleb128 0x2
 9589 399b 74       		.byte	0x74
 9590 399c 00       		.sleb128 0
ARM GAS  C:\Users\haske\AppData\Local\Temp\cc1ymag8.s 			page 197


 9591 399d 00       		.byte	0
 9592 399e 31       		.uleb128 0x31
 9593 399f 66040000 		.4byte	.LVL226
 9594 39a3 903C0000 		.4byte	0x3c90
 9595 39a7 B2390000 		.4byte	0x39b2
 9596 39ab 32       		.uleb128 0x32
 9597 39ac 01       		.uleb128 0x1
 9598 39ad 50       		.byte	0x50
 9599 39ae 02       		.uleb128 0x2
 9600 39af 75       		.byte	0x75
 9601 39b0 00       		.sleb128 0
 9602 39b1 00       		.byte	0
 9603 39b2 33       		.uleb128 0x33
 9604 39b3 DC050000 		.4byte	.LVL282
 9605 39b7 BC280000 		.4byte	0x28bc
 9606 39bb 32       		.uleb128 0x32
 9607 39bc 01       		.uleb128 0x1
 9608 39bd 50       		.byte	0x50
 9609 39be 02       		.uleb128 0x2
 9610 39bf 74       		.byte	0x74
 9611 39c0 00       		.sleb128 0
 9612 39c1 00       		.byte	0
 9613 39c2 00       		.byte	0
 9614 39c3 0B       		.uleb128 0xb
 9615 39c4 04       		.byte	0x4
 9616 39c5 F81F0000 		.4byte	0x1ff8
 9617 39c9 0B       		.uleb128 0xb
 9618 39ca 04       		.byte	0x4
 9619 39cb 211A0000 		.4byte	0x1a21
 9620 39cf 0C       		.uleb128 0xc
 9621 39d0 D9000000 		.4byte	0xd9
 9622 39d4 0B       		.uleb128 0xb
 9623 39d5 04       		.byte	0x4
 9624 39d6 01010000 		.4byte	0x101
 9625 39da 41       		.uleb128 0x41
 9626 39db 70230000 		.4byte	.LASF683
 9627 39df 01       		.byte	0x1
 9628 39e0 50       		.byte	0x50
 9629 39e1 00000000 		.4byte	.LFB176
 9630 39e5 58000000 		.4byte	.LFE176-.LFB176
 9631 39e9 01       		.uleb128 0x1
 9632 39ea 9C       		.byte	0x9c
 9633 39eb 873A0000 		.4byte	0x3a87
 9634 39ef 42       		.uleb128 0x42
 9635 39f0 2D190000 		.4byte	.LASF184
 9636 39f4 01       		.byte	0x1
 9637 39f5 50       		.byte	0x50
 9638 39f6 73210000 		.4byte	0x2173
 9639 39fa F80E0000 		.4byte	.LLST117
 9640 39fe 43       		.uleb128 0x43
 9641 39ff 6F626A00 		.ascii	"obj\000"
 9642 3a03 01       		.byte	0x1
 9643 3a04 50       		.byte	0x50
 9644 3a05 F8210000 		.4byte	0x21f8
 9645 3a09 190F0000 		.4byte	.LLST118
 9646 3a0d 45       		.uleb128 0x45
 9647 3a0e C2140000 		.4byte	.LASF638
ARM GAS  C:\Users\haske\AppData\Local\Temp\cc1ymag8.s 			page 198


 9648 3a12 01       		.byte	0x1
 9649 3a13 53       		.byte	0x53
 9650 3a14 EA2C0000 		.4byte	0x2cea
 9651 3a18 450F0000 		.4byte	.LLST119
 9652 3a1c 31       		.uleb128 0x31
 9653 3a1d 20000000 		.4byte	.LVL289
 9654 3a21 9B3C0000 		.4byte	0x3c9b
 9655 3a25 373A0000 		.4byte	0x3a37
 9656 3a29 32       		.uleb128 0x32
 9657 3a2a 01       		.uleb128 0x1
 9658 3a2b 50       		.byte	0x50
 9659 3a2c 02       		.uleb128 0x2
 9660 3a2d 74       		.byte	0x74
 9661 3a2e 00       		.sleb128 0
 9662 3a2f 32       		.uleb128 0x32
 9663 3a30 01       		.uleb128 0x1
 9664 3a31 51       		.byte	0x51
 9665 3a32 03       		.uleb128 0x3
 9666 3a33 0A       		.byte	0xa
 9667 3a34 0003     		.2byte	0x300
 9668 3a36 00       		.byte	0
 9669 3a37 31       		.uleb128 0x31
 9670 3a38 28000000 		.4byte	.LVL290
 9671 3a3c 9B3C0000 		.4byte	0x3c9b
 9672 3a40 503A0000 		.4byte	0x3a50
 9673 3a44 32       		.uleb128 0x32
 9674 3a45 01       		.uleb128 0x1
 9675 3a46 50       		.byte	0x50
 9676 3a47 02       		.uleb128 0x2
 9677 3a48 74       		.byte	0x74
 9678 3a49 00       		.sleb128 0
 9679 3a4a 32       		.uleb128 0x32
 9680 3a4b 01       		.uleb128 0x1
 9681 3a4c 51       		.byte	0x51
 9682 3a4d 01       		.uleb128 0x1
 9683 3a4e 40       		.byte	0x40
 9684 3a4f 00       		.byte	0
 9685 3a50 31       		.uleb128 0x31
 9686 3a51 2E000000 		.4byte	.LVL291
 9687 3a55 A63C0000 		.4byte	0x3ca6
 9688 3a59 633A0000 		.4byte	0x3a63
 9689 3a5d 32       		.uleb128 0x32
 9690 3a5e 01       		.uleb128 0x1
 9691 3a5f 50       		.byte	0x50
 9692 3a60 01       		.uleb128 0x1
 9693 3a61 30       		.byte	0x30
 9694 3a62 00       		.byte	0
 9695 3a63 31       		.uleb128 0x31
 9696 3a64 40000000 		.4byte	.LVL292
 9697 3a68 A63C0000 		.4byte	0x3ca6
 9698 3a6c 763A0000 		.4byte	0x3a76
 9699 3a70 32       		.uleb128 0x32
 9700 3a71 01       		.uleb128 0x1
 9701 3a72 50       		.byte	0x50
 9702 3a73 01       		.uleb128 0x1
 9703 3a74 30       		.byte	0x30
 9704 3a75 00       		.byte	0
ARM GAS  C:\Users\haske\AppData\Local\Temp\cc1ymag8.s 			page 199


 9705 3a76 33       		.uleb128 0x33
 9706 3a77 56000000 		.4byte	.LVL294
 9707 3a7b B23C0000 		.4byte	0x3cb2
 9708 3a7f 32       		.uleb128 0x32
 9709 3a80 01       		.uleb128 0x1
 9710 3a81 50       		.byte	0x50
 9711 3a82 02       		.uleb128 0x2
 9712 3a83 74       		.byte	0x74
 9713 3a84 00       		.sleb128 0
 9714 3a85 00       		.byte	0
 9715 3a86 00       		.byte	0
 9716 3a87 49       		.uleb128 0x49
 9717 3a88 29000000 		.4byte	.LASF684
 9718 3a8c 01       		.byte	0x1
 9719 3a8d 3C       		.byte	0x3c
 9720 3a8e F8210000 		.4byte	0x21f8
 9721 3a92 00000000 		.4byte	.LFB174
 9722 3a96 18000000 		.4byte	.LFE174-.LFB174
 9723 3a9a 01       		.uleb128 0x1
 9724 3a9b 9C       		.byte	0x9c
 9725 3a9c ED3A0000 		.4byte	0x3aed
 9726 3aa0 42       		.uleb128 0x42
 9727 3aa1 70110000 		.4byte	.LASF185
 9728 3aa5 01       		.byte	0x1
 9729 3aa6 3C       		.byte	0x3c
 9730 3aa7 F8210000 		.4byte	0x21f8
 9731 3aab 710F0000 		.4byte	.LLST120
 9732 3aaf 44       		.uleb128 0x44
 9733 3ab0 6F626A00 		.ascii	"obj\000"
 9734 3ab4 01       		.byte	0x1
 9735 3ab5 3F       		.byte	0x3f
 9736 3ab6 F8210000 		.4byte	0x21f8
 9737 3aba 9D0F0000 		.4byte	.LLST121
 9738 3abe 31       		.uleb128 0x31
 9739 3abf 0A000000 		.4byte	.LVL298
 9740 3ac3 BE3C0000 		.4byte	0x3cbe
 9741 3ac7 DC3A0000 		.4byte	0x3adc
 9742 3acb 32       		.uleb128 0x32
 9743 3acc 01       		.uleb128 0x1
 9744 3acd 50       		.byte	0x50
 9745 3ace 05       		.uleb128 0x5
 9746 3acf 03       		.byte	0x3
 9747 3ad0 00000000 		.4byte	.LANCHOR0
 9748 3ad4 32       		.uleb128 0x32
 9749 3ad5 01       		.uleb128 0x1
 9750 3ad6 51       		.byte	0x51
 9751 3ad7 03       		.uleb128 0x3
 9752 3ad8 F3       		.byte	0xf3
 9753 3ad9 01       		.uleb128 0x1
 9754 3ada 50       		.byte	0x50
 9755 3adb 00       		.byte	0
 9756 3adc 33       		.uleb128 0x33
 9757 3add 10000000 		.4byte	.LVL300
 9758 3ae1 C93C0000 		.4byte	0x3cc9
 9759 3ae5 32       		.uleb128 0x32
 9760 3ae6 01       		.uleb128 0x1
 9761 3ae7 50       		.byte	0x50
ARM GAS  C:\Users\haske\AppData\Local\Temp\cc1ymag8.s 			page 200


 9762 3ae8 02       		.uleb128 0x2
 9763 3ae9 74       		.byte	0x74
 9764 3aea 00       		.sleb128 0
 9765 3aeb 00       		.byte	0
 9766 3aec 00       		.byte	0
 9767 3aed 49       		.uleb128 0x49
 9768 3aee CC050000 		.4byte	.LASF685
 9769 3af2 01       		.byte	0x1
 9770 3af3 44       		.byte	0x44
 9771 3af4 AA020000 		.4byte	0x2aa
 9772 3af8 00000000 		.4byte	.LFB175
 9773 3afc 0A000000 		.4byte	.LFE175-.LFB175
 9774 3b00 01       		.uleb128 0x1
 9775 3b01 9C       		.byte	0x9c
 9776 3b02 253B0000 		.4byte	0x3b25
 9777 3b06 43       		.uleb128 0x43
 9778 3b07 6F626A00 		.ascii	"obj\000"
 9779 3b0b 01       		.byte	0x1
 9780 3b0c 44       		.byte	0x44
 9781 3b0d 7B250000 		.4byte	0x257b
 9782 3b11 C60F0000 		.4byte	.LLST122
 9783 3b15 45       		.uleb128 0x45
 9784 3b16 C2140000 		.4byte	.LASF638
 9785 3b1a 01       		.byte	0x1
 9786 3b1b 47       		.byte	0x47
 9787 3b1c EA2C0000 		.4byte	0x2cea
 9788 3b20 E70F0000 		.4byte	.LLST123
 9789 3b24 00       		.byte	0
 9790 3b25 4A       		.uleb128 0x4a
 9791 3b26 D6230000 		.4byte	.LASF686
 9792 3b2a 08       		.byte	0x8
 9793 3b2b 94       		.byte	0x94
 9794 3b2c F40A0000 		.4byte	0xaf4
 9795 3b30 4A       		.uleb128 0x4a
 9796 3b31 871C0000 		.4byte	.LASF687
 9797 3b35 23       		.byte	0x23
 9798 3b36 3B       		.byte	0x3b
 9799 3b37 79210000 		.4byte	0x2179
 9800 3b3b 4B       		.uleb128 0x4b
 9801 3b3c 48270000 		.4byte	.LASF688
 9802 3b40 01       		.byte	0x1
 9803 3b41 2B       		.byte	0x2b
 9804 3b42 79210000 		.4byte	0x2179
 9805 3b46 05       		.uleb128 0x5
 9806 3b47 03       		.byte	0x3
 9807 3b48 00000000 		.4byte	lv_slider_class
 9808 3b4c 4C       		.uleb128 0x4c
 9809 3b4d 73100000 		.4byte	.LASF689
 9810 3b51 73100000 		.4byte	.LASF689
 9811 3b55 24       		.byte	0x24
 9812 3b56 1901     		.2byte	0x119
 9813 3b58 4C       		.uleb128 0x4c
 9814 3b59 DD210000 		.4byte	.LASF690
 9815 3b5d DD210000 		.4byte	.LASF690
 9816 3b61 24       		.byte	0x24
 9817 3b62 2201     		.2byte	0x122
 9818 3b64 4D       		.uleb128 0x4d
ARM GAS  C:\Users\haske\AppData\Local\Temp\cc1ymag8.s 			page 201


 9819 3b65 9B1F0000 		.4byte	.LASF691
 9820 3b69 9B1F0000 		.4byte	.LASF691
 9821 3b6d 1F       		.byte	0x1f
 9822 3b6e 83       		.byte	0x83
 9823 3b6f 4D       		.uleb128 0x4d
 9824 3b70 9E1E0000 		.4byte	.LASF692
 9825 3b74 9E1E0000 		.4byte	.LASF692
 9826 3b78 23       		.byte	0x23
 9827 3b79 98       		.byte	0x98
 9828 3b7a 4D       		.uleb128 0x4d
 9829 3b7b 5F020000 		.4byte	.LASF693
 9830 3b7f 5F020000 		.4byte	.LASF693
 9831 3b83 25       		.byte	0x25
 9832 3b84 BA       		.byte	0xba
 9833 3b85 4D       		.uleb128 0x4d
 9834 3b86 13050000 		.4byte	.LASF694
 9835 3b8a 13050000 		.4byte	.LASF694
 9836 3b8e 22       		.byte	0x22
 9837 3b8f 92       		.byte	0x92
 9838 3b90 4D       		.uleb128 0x4d
 9839 3b91 0A1E0000 		.4byte	.LASF695
 9840 3b95 0A1E0000 		.4byte	.LASF695
 9841 3b99 11       		.byte	0x11
 9842 3b9a 56       		.byte	0x56
 9843 3b9b 4D       		.uleb128 0x4d
 9844 3b9c A1120000 		.4byte	.LASF696
 9845 3ba0 A1120000 		.4byte	.LASF696
 9846 3ba4 22       		.byte	0x22
 9847 3ba5 A1       		.byte	0xa1
 9848 3ba6 4C       		.uleb128 0x4c
 9849 3ba7 50140000 		.4byte	.LASF697
 9850 3bab 50140000 		.4byte	.LASF697
 9851 3baf 22       		.byte	0x22
 9852 3bb0 2701     		.2byte	0x127
 9853 3bb2 4D       		.uleb128 0x4d
 9854 3bb3 AD110000 		.4byte	.LASF698
 9855 3bb7 AD110000 		.4byte	.LASF698
 9856 3bbb 11       		.byte	0x11
 9857 3bbc 4D       		.byte	0x4d
 9858 3bbd 4D       		.uleb128 0x4d
 9859 3bbe 98190000 		.4byte	.LASF699
 9860 3bc2 98190000 		.4byte	.LASF699
 9861 3bc6 20       		.byte	0x20
 9862 3bc7 53       		.byte	0x53
 9863 3bc8 4D       		.uleb128 0x4d
 9864 3bc9 B2190000 		.4byte	.LASF700
 9865 3bcd B2190000 		.4byte	.LASF700
 9866 3bd1 20       		.byte	0x20
 9867 3bd2 88       		.byte	0x88
 9868 3bd3 4D       		.uleb128 0x4d
 9869 3bd4 64160000 		.4byte	.LASF701
 9870 3bd8 64160000 		.4byte	.LASF701
 9871 3bdc 22       		.byte	0x22
 9872 3bdd B7       		.byte	0xb7
 9873 3bde 4D       		.uleb128 0x4d
 9874 3bdf 5F010000 		.4byte	.LASF702
 9875 3be3 5F010000 		.4byte	.LASF702
ARM GAS  C:\Users\haske\AppData\Local\Temp\cc1ymag8.s 			page 202


 9876 3be7 03       		.byte	0x3
 9877 3be8 A7       		.byte	0xa7
 9878 3be9 4D       		.uleb128 0x4d
 9879 3bea F7240000 		.4byte	.LASF703
 9880 3bee F7240000 		.4byte	.LASF703
 9881 3bf2 03       		.byte	0x3
 9882 3bf3 C3       		.byte	0xc3
 9883 3bf4 4D       		.uleb128 0x4d
 9884 3bf5 B80F0000 		.4byte	.LASF704
 9885 3bf9 B80F0000 		.4byte	.LASF704
 9886 3bfd 26       		.byte	0x26
 9887 3bfe 32       		.byte	0x32
 9888 3bff 4D       		.uleb128 0x4d
 9889 3c00 17040000 		.4byte	.LASF705
 9890 3c04 17040000 		.4byte	.LASF705
 9891 3c08 26       		.byte	0x26
 9892 3c09 63       		.byte	0x63
 9893 3c0a 4C       		.uleb128 0x4c
 9894 3c0b D1010000 		.4byte	.LASF706
 9895 3c0f D1010000 		.4byte	.LASF706
 9896 3c13 24       		.byte	0x24
 9897 3c14 7D01     		.2byte	0x17d
 9898 3c16 4D       		.uleb128 0x4d
 9899 3c17 57290000 		.4byte	.LASF707
 9900 3c1b 57290000 		.4byte	.LASF707
 9901 3c1f 26       		.byte	0x26
 9902 3c20 39       		.byte	0x39
 9903 3c21 4D       		.uleb128 0x4d
 9904 3c22 51110000 		.4byte	.LASF708
 9905 3c26 51110000 		.4byte	.LASF708
 9906 3c2a 23       		.byte	0x23
 9907 3c2b 62       		.byte	0x62
 9908 3c2c 4D       		.uleb128 0x4d
 9909 3c2d 5F240000 		.4byte	.LASF709
 9910 3c31 5F240000 		.4byte	.LASF709
 9911 3c35 23       		.byte	0x23
 9912 3c36 5A       		.byte	0x5a
 9913 3c37 4C       		.uleb128 0x4c
 9914 3c38 E72A0000 		.4byte	.LASF710
 9915 3c3c E72A0000 		.4byte	.LASF710
 9916 3c40 10       		.byte	0x10
 9917 3c41 3A01     		.2byte	0x13a
 9918 3c43 4D       		.uleb128 0x4d
 9919 3c44 310C0000 		.4byte	.LASF711
 9920 3c48 310C0000 		.4byte	.LASF711
 9921 3c4c 1D       		.byte	0x1d
 9922 3c4d F2       		.byte	0xf2
 9923 3c4e 4D       		.uleb128 0x4d
 9924 3c4f 810E0000 		.4byte	.LASF712
 9925 3c53 810E0000 		.4byte	.LASF712
 9926 3c57 1D       		.byte	0x1d
 9927 3c58 CF       		.byte	0xcf
 9928 3c59 4D       		.uleb128 0x4d
 9929 3c5a 650D0000 		.4byte	.LASF713
 9930 3c5e 650D0000 		.4byte	.LASF713
 9931 3c62 20       		.byte	0x20
 9932 3c63 81       		.byte	0x81
ARM GAS  C:\Users\haske\AppData\Local\Temp\cc1ymag8.s 			page 203


 9933 3c64 4D       		.uleb128 0x4d
 9934 3c65 03070000 		.4byte	.LASF714
 9935 3c69 03070000 		.4byte	.LASF714
 9936 3c6d 23       		.byte	0x23
 9937 3c6e 7C       		.byte	0x7c
 9938 3c6f 4D       		.uleb128 0x4d
 9939 3c70 38160000 		.4byte	.LASF715
 9940 3c74 38160000 		.4byte	.LASF715
 9941 3c78 23       		.byte	0x23
 9942 3c79 83       		.byte	0x83
 9943 3c7a 4D       		.uleb128 0x4d
 9944 3c7b 0D200000 		.4byte	.LASF716
 9945 3c7f 0D200000 		.4byte	.LASF716
 9946 3c83 22       		.byte	0x22
 9947 3c84 9A       		.byte	0x9a
 9948 3c85 4D       		.uleb128 0x4d
 9949 3c86 0B190000 		.4byte	.LASF717
 9950 3c8a 0B190000 		.4byte	.LASF717
 9951 3c8e 22       		.byte	0x22
 9952 3c8f B0       		.byte	0xb0
 9953 3c90 4D       		.uleb128 0x4d
 9954 3c91 0D240000 		.4byte	.LASF718
 9955 3c95 0D240000 		.4byte	.LASF718
 9956 3c99 20       		.byte	0x20
 9957 3c9a 98       		.byte	0x98
 9958 3c9b 4D       		.uleb128 0x4d
 9959 3c9c 221A0000 		.4byte	.LASF719
 9960 3ca0 221A0000 		.4byte	.LASF719
 9961 3ca4 10       		.byte	0x10
 9962 3ca5 F3       		.byte	0xf3
 9963 3ca6 4C       		.uleb128 0x4c
 9964 3ca7 D31B0000 		.4byte	.LASF720
 9965 3cab D31B0000 		.4byte	.LASF720
 9966 3caf 1A       		.byte	0x1a
 9967 3cb0 3801     		.2byte	0x138
 9968 3cb2 4C       		.uleb128 0x4c
 9969 3cb3 191D0000 		.4byte	.LASF721
 9970 3cb7 191D0000 		.4byte	.LASF721
 9971 3cbb 24       		.byte	0x24
 9972 3cbc 9301     		.2byte	0x193
 9973 3cbe 4D       		.uleb128 0x4d
 9974 3cbf ED190000 		.4byte	.LASF722
 9975 3cc3 ED190000 		.4byte	.LASF722
 9976 3cc7 21       		.byte	0x21
 9977 3cc8 4B       		.byte	0x4b
 9978 3cc9 4D       		.uleb128 0x4d
 9979 3cca 6B0E0000 		.4byte	.LASF723
 9980 3cce 6B0E0000 		.4byte	.LASF723
 9981 3cd2 21       		.byte	0x21
 9982 3cd3 4D       		.byte	0x4d
 9983 3cd4 00       		.byte	0
 9984              		.section	.debug_abbrev,"",%progbits
 9985              	.Ldebug_abbrev0:
 9986 0000 01       		.uleb128 0x1
 9987 0001 11       		.uleb128 0x11
 9988 0002 01       		.byte	0x1
 9989 0003 25       		.uleb128 0x25
ARM GAS  C:\Users\haske\AppData\Local\Temp\cc1ymag8.s 			page 204


 9990 0004 0E       		.uleb128 0xe
 9991 0005 13       		.uleb128 0x13
 9992 0006 0B       		.uleb128 0xb
 9993 0007 03       		.uleb128 0x3
 9994 0008 0E       		.uleb128 0xe
 9995 0009 1B       		.uleb128 0x1b
 9996 000a 0E       		.uleb128 0xe
 9997 000b 55       		.uleb128 0x55
 9998 000c 17       		.uleb128 0x17
 9999 000d 11       		.uleb128 0x11
 10000 000e 01       		.uleb128 0x1
 10001 000f 10       		.uleb128 0x10
 10002 0010 17       		.uleb128 0x17
 10003 0011 00       		.byte	0
 10004 0012 00       		.byte	0
 10005 0013 02       		.uleb128 0x2
 10006 0014 16       		.uleb128 0x16
 10007 0015 00       		.byte	0
 10008 0016 03       		.uleb128 0x3
 10009 0017 0E       		.uleb128 0xe
 10010 0018 3A       		.uleb128 0x3a
 10011 0019 0B       		.uleb128 0xb
 10012 001a 3B       		.uleb128 0x3b
 10013 001b 0B       		.uleb128 0xb
 10014 001c 49       		.uleb128 0x49
 10015 001d 13       		.uleb128 0x13
 10016 001e 00       		.byte	0
 10017 001f 00       		.byte	0
 10018 0020 03       		.uleb128 0x3
 10019 0021 24       		.uleb128 0x24
 10020 0022 00       		.byte	0
 10021 0023 0B       		.uleb128 0xb
 10022 0024 0B       		.uleb128 0xb
 10023 0025 3E       		.uleb128 0x3e
 10024 0026 0B       		.uleb128 0xb
 10025 0027 03       		.uleb128 0x3
 10026 0028 0E       		.uleb128 0xe
 10027 0029 00       		.byte	0
 10028 002a 00       		.byte	0
 10029 002b 04       		.uleb128 0x4
 10030 002c 24       		.uleb128 0x24
 10031 002d 00       		.byte	0
 10032 002e 0B       		.uleb128 0xb
 10033 002f 0B       		.uleb128 0xb
 10034 0030 3E       		.uleb128 0x3e
 10035 0031 0B       		.uleb128 0xb
 10036 0032 03       		.uleb128 0x3
 10037 0033 08       		.uleb128 0x8
 10038 0034 00       		.byte	0
 10039 0035 00       		.byte	0
 10040 0036 05       		.uleb128 0x5
 10041 0037 13       		.uleb128 0x13
 10042 0038 01       		.byte	0x1
 10043 0039 0B       		.uleb128 0xb
 10044 003a 0B       		.uleb128 0xb
 10045 003b 3A       		.uleb128 0x3a
 10046 003c 0B       		.uleb128 0xb
ARM GAS  C:\Users\haske\AppData\Local\Temp\cc1ymag8.s 			page 205


 10047 003d 3B       		.uleb128 0x3b
 10048 003e 0B       		.uleb128 0xb
 10049 003f 01       		.uleb128 0x1
 10050 0040 13       		.uleb128 0x13
 10051 0041 00       		.byte	0
 10052 0042 00       		.byte	0
 10053 0043 06       		.uleb128 0x6
 10054 0044 0D       		.uleb128 0xd
 10055 0045 00       		.byte	0
 10056 0046 03       		.uleb128 0x3
 10057 0047 08       		.uleb128 0x8
 10058 0048 3A       		.uleb128 0x3a
 10059 0049 0B       		.uleb128 0xb
 10060 004a 3B       		.uleb128 0x3b
 10061 004b 0B       		.uleb128 0xb
 10062 004c 49       		.uleb128 0x49
 10063 004d 13       		.uleb128 0x13
 10064 004e 38       		.uleb128 0x38
 10065 004f 0B       		.uleb128 0xb
 10066 0050 00       		.byte	0
 10067 0051 00       		.byte	0
 10068 0052 07       		.uleb128 0x7
 10069 0053 0D       		.uleb128 0xd
 10070 0054 00       		.byte	0
 10071 0055 03       		.uleb128 0x3
 10072 0056 0E       		.uleb128 0xe
 10073 0057 3A       		.uleb128 0x3a
 10074 0058 0B       		.uleb128 0xb
 10075 0059 3B       		.uleb128 0x3b
 10076 005a 0B       		.uleb128 0xb
 10077 005b 49       		.uleb128 0x49
 10078 005c 13       		.uleb128 0x13
 10079 005d 38       		.uleb128 0x38
 10080 005e 0B       		.uleb128 0xb
 10081 005f 00       		.byte	0
 10082 0060 00       		.byte	0
 10083 0061 08       		.uleb128 0x8
 10084 0062 0D       		.uleb128 0xd
 10085 0063 00       		.byte	0
 10086 0064 03       		.uleb128 0x3
 10087 0065 08       		.uleb128 0x8
 10088 0066 3A       		.uleb128 0x3a
 10089 0067 0B       		.uleb128 0xb
 10090 0068 3B       		.uleb128 0x3b
 10091 0069 0B       		.uleb128 0xb
 10092 006a 49       		.uleb128 0x49
 10093 006b 13       		.uleb128 0x13
 10094 006c 0B       		.uleb128 0xb
 10095 006d 0B       		.uleb128 0xb
 10096 006e 0D       		.uleb128 0xd
 10097 006f 0B       		.uleb128 0xb
 10098 0070 0C       		.uleb128 0xc
 10099 0071 0B       		.uleb128 0xb
 10100 0072 38       		.uleb128 0x38
 10101 0073 0B       		.uleb128 0xb
 10102 0074 00       		.byte	0
 10103 0075 00       		.byte	0
ARM GAS  C:\Users\haske\AppData\Local\Temp\cc1ymag8.s 			page 206


 10104 0076 09       		.uleb128 0x9
 10105 0077 0D       		.uleb128 0xd
 10106 0078 00       		.byte	0
 10107 0079 03       		.uleb128 0x3
 10108 007a 0E       		.uleb128 0xe
 10109 007b 3A       		.uleb128 0x3a
 10110 007c 0B       		.uleb128 0xb
 10111 007d 3B       		.uleb128 0x3b
 10112 007e 0B       		.uleb128 0xb
 10113 007f 49       		.uleb128 0x49
 10114 0080 13       		.uleb128 0x13
 10115 0081 0B       		.uleb128 0xb
 10116 0082 0B       		.uleb128 0xb
 10117 0083 0D       		.uleb128 0xd
 10118 0084 0B       		.uleb128 0xb
 10119 0085 0C       		.uleb128 0xc
 10120 0086 0B       		.uleb128 0xb
 10121 0087 38       		.uleb128 0x38
 10122 0088 0B       		.uleb128 0xb
 10123 0089 00       		.byte	0
 10124 008a 00       		.byte	0
 10125 008b 0A       		.uleb128 0xa
 10126 008c 13       		.uleb128 0x13
 10127 008d 01       		.byte	0x1
 10128 008e 03       		.uleb128 0x3
 10129 008f 0E       		.uleb128 0xe
 10130 0090 0B       		.uleb128 0xb
 10131 0091 0B       		.uleb128 0xb
 10132 0092 3A       		.uleb128 0x3a
 10133 0093 0B       		.uleb128 0xb
 10134 0094 3B       		.uleb128 0x3b
 10135 0095 0B       		.uleb128 0xb
 10136 0096 01       		.uleb128 0x1
 10137 0097 13       		.uleb128 0x13
 10138 0098 00       		.byte	0
 10139 0099 00       		.byte	0
 10140 009a 0B       		.uleb128 0xb
 10141 009b 0F       		.uleb128 0xf
 10142 009c 00       		.byte	0
 10143 009d 0B       		.uleb128 0xb
 10144 009e 0B       		.uleb128 0xb
 10145 009f 49       		.uleb128 0x49
 10146 00a0 13       		.uleb128 0x13
 10147 00a1 00       		.byte	0
 10148 00a2 00       		.byte	0
 10149 00a3 0C       		.uleb128 0xc
 10150 00a4 26       		.uleb128 0x26
 10151 00a5 00       		.byte	0
 10152 00a6 49       		.uleb128 0x49
 10153 00a7 13       		.uleb128 0x13
 10154 00a8 00       		.byte	0
 10155 00a9 00       		.byte	0
 10156 00aa 0D       		.uleb128 0xd
 10157 00ab 15       		.uleb128 0x15
 10158 00ac 01       		.byte	0x1
 10159 00ad 27       		.uleb128 0x27
 10160 00ae 19       		.uleb128 0x19
ARM GAS  C:\Users\haske\AppData\Local\Temp\cc1ymag8.s 			page 207


 10161 00af 49       		.uleb128 0x49
 10162 00b0 13       		.uleb128 0x13
 10163 00b1 01       		.uleb128 0x1
 10164 00b2 13       		.uleb128 0x13
 10165 00b3 00       		.byte	0
 10166 00b4 00       		.byte	0
 10167 00b5 0E       		.uleb128 0xe
 10168 00b6 05       		.uleb128 0x5
 10169 00b7 00       		.byte	0
 10170 00b8 49       		.uleb128 0x49
 10171 00b9 13       		.uleb128 0x13
 10172 00ba 00       		.byte	0
 10173 00bb 00       		.byte	0
 10174 00bc 0F       		.uleb128 0xf
 10175 00bd 26       		.uleb128 0x26
 10176 00be 00       		.byte	0
 10177 00bf 00       		.byte	0
 10178 00c0 00       		.byte	0
 10179 00c1 10       		.uleb128 0x10
 10180 00c2 0F       		.uleb128 0xf
 10181 00c3 00       		.byte	0
 10182 00c4 0B       		.uleb128 0xb
 10183 00c5 0B       		.uleb128 0xb
 10184 00c6 00       		.byte	0
 10185 00c7 00       		.byte	0
 10186 00c8 11       		.uleb128 0x11
 10187 00c9 04       		.uleb128 0x4
 10188 00ca 01       		.byte	0x1
 10189 00cb 0B       		.uleb128 0xb
 10190 00cc 0B       		.uleb128 0xb
 10191 00cd 49       		.uleb128 0x49
 10192 00ce 13       		.uleb128 0x13
 10193 00cf 3A       		.uleb128 0x3a
 10194 00d0 0B       		.uleb128 0xb
 10195 00d1 3B       		.uleb128 0x3b
 10196 00d2 0B       		.uleb128 0xb
 10197 00d3 01       		.uleb128 0x1
 10198 00d4 13       		.uleb128 0x13
 10199 00d5 00       		.byte	0
 10200 00d6 00       		.byte	0
 10201 00d7 12       		.uleb128 0x12
 10202 00d8 28       		.uleb128 0x28
 10203 00d9 00       		.byte	0
 10204 00da 03       		.uleb128 0x3
 10205 00db 0E       		.uleb128 0xe
 10206 00dc 1C       		.uleb128 0x1c
 10207 00dd 0B       		.uleb128 0xb
 10208 00de 00       		.byte	0
 10209 00df 00       		.byte	0
 10210 00e0 13       		.uleb128 0x13
 10211 00e1 17       		.uleb128 0x17
 10212 00e2 01       		.byte	0x1
 10213 00e3 0B       		.uleb128 0xb
 10214 00e4 0B       		.uleb128 0xb
 10215 00e5 3A       		.uleb128 0x3a
 10216 00e6 0B       		.uleb128 0xb
 10217 00e7 3B       		.uleb128 0x3b
ARM GAS  C:\Users\haske\AppData\Local\Temp\cc1ymag8.s 			page 208


 10218 00e8 0B       		.uleb128 0xb
 10219 00e9 01       		.uleb128 0x1
 10220 00ea 13       		.uleb128 0x13
 10221 00eb 00       		.byte	0
 10222 00ec 00       		.byte	0
 10223 00ed 14       		.uleb128 0x14
 10224 00ee 0D       		.uleb128 0xd
 10225 00ef 00       		.byte	0
 10226 00f0 03       		.uleb128 0x3
 10227 00f1 08       		.uleb128 0x8
 10228 00f2 3A       		.uleb128 0x3a
 10229 00f3 0B       		.uleb128 0xb
 10230 00f4 3B       		.uleb128 0x3b
 10231 00f5 0B       		.uleb128 0xb
 10232 00f6 49       		.uleb128 0x49
 10233 00f7 13       		.uleb128 0x13
 10234 00f8 00       		.byte	0
 10235 00f9 00       		.byte	0
 10236 00fa 15       		.uleb128 0x15
 10237 00fb 0D       		.uleb128 0xd
 10238 00fc 00       		.byte	0
 10239 00fd 03       		.uleb128 0x3
 10240 00fe 0E       		.uleb128 0xe
 10241 00ff 3A       		.uleb128 0x3a
 10242 0100 0B       		.uleb128 0xb
 10243 0101 3B       		.uleb128 0x3b
 10244 0102 0B       		.uleb128 0xb
 10245 0103 49       		.uleb128 0x49
 10246 0104 13       		.uleb128 0x13
 10247 0105 00       		.byte	0
 10248 0106 00       		.byte	0
 10249 0107 16       		.uleb128 0x16
 10250 0108 01       		.uleb128 0x1
 10251 0109 01       		.byte	0x1
 10252 010a 49       		.uleb128 0x49
 10253 010b 13       		.uleb128 0x13
 10254 010c 01       		.uleb128 0x1
 10255 010d 13       		.uleb128 0x13
 10256 010e 00       		.byte	0
 10257 010f 00       		.byte	0
 10258 0110 17       		.uleb128 0x17
 10259 0111 21       		.uleb128 0x21
 10260 0112 00       		.byte	0
 10261 0113 49       		.uleb128 0x49
 10262 0114 13       		.uleb128 0x13
 10263 0115 2F       		.uleb128 0x2f
 10264 0116 0B       		.uleb128 0xb
 10265 0117 00       		.byte	0
 10266 0118 00       		.byte	0
 10267 0119 18       		.uleb128 0x18
 10268 011a 28       		.uleb128 0x28
 10269 011b 00       		.byte	0
 10270 011c 03       		.uleb128 0x3
 10271 011d 0E       		.uleb128 0xe
 10272 011e 1C       		.uleb128 0x1c
 10273 011f 05       		.uleb128 0x5
 10274 0120 00       		.byte	0
ARM GAS  C:\Users\haske\AppData\Local\Temp\cc1ymag8.s 			page 209


 10275 0121 00       		.byte	0
 10276 0122 19       		.uleb128 0x19
 10277 0123 16       		.uleb128 0x16
 10278 0124 00       		.byte	0
 10279 0125 03       		.uleb128 0x3
 10280 0126 0E       		.uleb128 0xe
 10281 0127 3A       		.uleb128 0x3a
 10282 0128 0B       		.uleb128 0xb
 10283 0129 3B       		.uleb128 0x3b
 10284 012a 05       		.uleb128 0x5
 10285 012b 49       		.uleb128 0x49
 10286 012c 13       		.uleb128 0x13
 10287 012d 00       		.byte	0
 10288 012e 00       		.byte	0
 10289 012f 1A       		.uleb128 0x1a
 10290 0130 13       		.uleb128 0x13
 10291 0131 01       		.byte	0x1
 10292 0132 0B       		.uleb128 0xb
 10293 0133 0B       		.uleb128 0xb
 10294 0134 3A       		.uleb128 0x3a
 10295 0135 0B       		.uleb128 0xb
 10296 0136 3B       		.uleb128 0x3b
 10297 0137 05       		.uleb128 0x5
 10298 0138 01       		.uleb128 0x1
 10299 0139 13       		.uleb128 0x13
 10300 013a 00       		.byte	0
 10301 013b 00       		.byte	0
 10302 013c 1B       		.uleb128 0x1b
 10303 013d 0D       		.uleb128 0xd
 10304 013e 00       		.byte	0
 10305 013f 03       		.uleb128 0x3
 10306 0140 0E       		.uleb128 0xe
 10307 0141 3A       		.uleb128 0x3a
 10308 0142 0B       		.uleb128 0xb
 10309 0143 3B       		.uleb128 0x3b
 10310 0144 05       		.uleb128 0x5
 10311 0145 49       		.uleb128 0x49
 10312 0146 13       		.uleb128 0x13
 10313 0147 38       		.uleb128 0x38
 10314 0148 0B       		.uleb128 0xb
 10315 0149 00       		.byte	0
 10316 014a 00       		.byte	0
 10317 014b 1C       		.uleb128 0x1c
 10318 014c 17       		.uleb128 0x17
 10319 014d 01       		.byte	0x1
 10320 014e 0B       		.uleb128 0xb
 10321 014f 0B       		.uleb128 0xb
 10322 0150 3A       		.uleb128 0x3a
 10323 0151 0B       		.uleb128 0xb
 10324 0152 3B       		.uleb128 0x3b
 10325 0153 05       		.uleb128 0x5
 10326 0154 01       		.uleb128 0x1
 10327 0155 13       		.uleb128 0x13
 10328 0156 00       		.byte	0
 10329 0157 00       		.byte	0
 10330 0158 1D       		.uleb128 0x1d
 10331 0159 0D       		.uleb128 0xd
ARM GAS  C:\Users\haske\AppData\Local\Temp\cc1ymag8.s 			page 210


 10332 015a 00       		.byte	0
 10333 015b 03       		.uleb128 0x3
 10334 015c 0E       		.uleb128 0xe
 10335 015d 3A       		.uleb128 0x3a
 10336 015e 0B       		.uleb128 0xb
 10337 015f 3B       		.uleb128 0x3b
 10338 0160 05       		.uleb128 0x5
 10339 0161 49       		.uleb128 0x49
 10340 0162 13       		.uleb128 0x13
 10341 0163 00       		.byte	0
 10342 0164 00       		.byte	0
 10343 0165 1E       		.uleb128 0x1e
 10344 0166 0D       		.uleb128 0xd
 10345 0167 00       		.byte	0
 10346 0168 03       		.uleb128 0x3
 10347 0169 08       		.uleb128 0x8
 10348 016a 3A       		.uleb128 0x3a
 10349 016b 0B       		.uleb128 0xb
 10350 016c 3B       		.uleb128 0x3b
 10351 016d 05       		.uleb128 0x5
 10352 016e 49       		.uleb128 0x49
 10353 016f 13       		.uleb128 0x13
 10354 0170 38       		.uleb128 0x38
 10355 0171 0B       		.uleb128 0xb
 10356 0172 00       		.byte	0
 10357 0173 00       		.byte	0
 10358 0174 1F       		.uleb128 0x1f
 10359 0175 15       		.uleb128 0x15
 10360 0176 01       		.byte	0x1
 10361 0177 27       		.uleb128 0x27
 10362 0178 19       		.uleb128 0x19
 10363 0179 01       		.uleb128 0x1
 10364 017a 13       		.uleb128 0x13
 10365 017b 00       		.byte	0
 10366 017c 00       		.byte	0
 10367 017d 20       		.uleb128 0x20
 10368 017e 35       		.uleb128 0x35
 10369 017f 00       		.byte	0
 10370 0180 49       		.uleb128 0x49
 10371 0181 13       		.uleb128 0x13
 10372 0182 00       		.byte	0
 10373 0183 00       		.byte	0
 10374 0184 21       		.uleb128 0x21
 10375 0185 13       		.uleb128 0x13
 10376 0186 01       		.byte	0x1
 10377 0187 03       		.uleb128 0x3
 10378 0188 0E       		.uleb128 0xe
 10379 0189 0B       		.uleb128 0xb
 10380 018a 05       		.uleb128 0x5
 10381 018b 3A       		.uleb128 0x3a
 10382 018c 0B       		.uleb128 0xb
 10383 018d 3B       		.uleb128 0x3b
 10384 018e 0B       		.uleb128 0xb
 10385 018f 01       		.uleb128 0x1
 10386 0190 13       		.uleb128 0x13
 10387 0191 00       		.byte	0
 10388 0192 00       		.byte	0
ARM GAS  C:\Users\haske\AppData\Local\Temp\cc1ymag8.s 			page 211


 10389 0193 22       		.uleb128 0x22
 10390 0194 0D       		.uleb128 0xd
 10391 0195 00       		.byte	0
 10392 0196 03       		.uleb128 0x3
 10393 0197 0E       		.uleb128 0xe
 10394 0198 3A       		.uleb128 0x3a
 10395 0199 0B       		.uleb128 0xb
 10396 019a 3B       		.uleb128 0x3b
 10397 019b 0B       		.uleb128 0xb
 10398 019c 49       		.uleb128 0x49
 10399 019d 13       		.uleb128 0x13
 10400 019e 38       		.uleb128 0x38
 10401 019f 05       		.uleb128 0x5
 10402 01a0 00       		.byte	0
 10403 01a1 00       		.byte	0
 10404 01a2 23       		.uleb128 0x23
 10405 01a3 28       		.uleb128 0x28
 10406 01a4 00       		.byte	0
 10407 01a5 03       		.uleb128 0x3
 10408 01a6 0E       		.uleb128 0xe
 10409 01a7 1C       		.uleb128 0x1c
 10410 01a8 06       		.uleb128 0x6
 10411 01a9 00       		.byte	0
 10412 01aa 00       		.byte	0
 10413 01ab 24       		.uleb128 0x24
 10414 01ac 13       		.uleb128 0x13
 10415 01ad 00       		.byte	0
 10416 01ae 03       		.uleb128 0x3
 10417 01af 0E       		.uleb128 0xe
 10418 01b0 3C       		.uleb128 0x3c
 10419 01b1 19       		.uleb128 0x19
 10420 01b2 00       		.byte	0
 10421 01b3 00       		.byte	0
 10422 01b4 25       		.uleb128 0x25
 10423 01b5 2E       		.uleb128 0x2e
 10424 01b6 01       		.byte	0x1
 10425 01b7 03       		.uleb128 0x3
 10426 01b8 0E       		.uleb128 0xe
 10427 01b9 3A       		.uleb128 0x3a
 10428 01ba 0B       		.uleb128 0xb
 10429 01bb 3B       		.uleb128 0x3b
 10430 01bc 0B       		.uleb128 0xb
 10431 01bd 27       		.uleb128 0x27
 10432 01be 19       		.uleb128 0x19
 10433 01bf 49       		.uleb128 0x49
 10434 01c0 13       		.uleb128 0x13
 10435 01c1 20       		.uleb128 0x20
 10436 01c2 0B       		.uleb128 0xb
 10437 01c3 01       		.uleb128 0x1
 10438 01c4 13       		.uleb128 0x13
 10439 01c5 00       		.byte	0
 10440 01c6 00       		.byte	0
 10441 01c7 26       		.uleb128 0x26
 10442 01c8 05       		.uleb128 0x5
 10443 01c9 00       		.byte	0
 10444 01ca 03       		.uleb128 0x3
 10445 01cb 08       		.uleb128 0x8
ARM GAS  C:\Users\haske\AppData\Local\Temp\cc1ymag8.s 			page 212


 10446 01cc 3A       		.uleb128 0x3a
 10447 01cd 0B       		.uleb128 0xb
 10448 01ce 3B       		.uleb128 0x3b
 10449 01cf 0B       		.uleb128 0xb
 10450 01d0 49       		.uleb128 0x49
 10451 01d1 13       		.uleb128 0x13
 10452 01d2 00       		.byte	0
 10453 01d3 00       		.byte	0
 10454 01d4 27       		.uleb128 0x27
 10455 01d5 05       		.uleb128 0x5
 10456 01d6 00       		.byte	0
 10457 01d7 03       		.uleb128 0x3
 10458 01d8 0E       		.uleb128 0xe
 10459 01d9 3A       		.uleb128 0x3a
 10460 01da 0B       		.uleb128 0xb
 10461 01db 3B       		.uleb128 0x3b
 10462 01dc 0B       		.uleb128 0xb
 10463 01dd 49       		.uleb128 0x49
 10464 01de 13       		.uleb128 0x13
 10465 01df 00       		.byte	0
 10466 01e0 00       		.byte	0
 10467 01e1 28       		.uleb128 0x28
 10468 01e2 34       		.uleb128 0x34
 10469 01e3 00       		.byte	0
 10470 01e4 03       		.uleb128 0x3
 10471 01e5 08       		.uleb128 0x8
 10472 01e6 3A       		.uleb128 0x3a
 10473 01e7 0B       		.uleb128 0xb
 10474 01e8 3B       		.uleb128 0x3b
 10475 01e9 0B       		.uleb128 0xb
 10476 01ea 49       		.uleb128 0x49
 10477 01eb 13       		.uleb128 0x13
 10478 01ec 00       		.byte	0
 10479 01ed 00       		.byte	0
 10480 01ee 29       		.uleb128 0x29
 10481 01ef 2E       		.uleb128 0x2e
 10482 01f0 01       		.byte	0x1
 10483 01f1 03       		.uleb128 0x3
 10484 01f2 0E       		.uleb128 0xe
 10485 01f3 3A       		.uleb128 0x3a
 10486 01f4 0B       		.uleb128 0xb
 10487 01f5 3B       		.uleb128 0x3b
 10488 01f6 05       		.uleb128 0x5
 10489 01f7 27       		.uleb128 0x27
 10490 01f8 19       		.uleb128 0x19
 10491 01f9 49       		.uleb128 0x49
 10492 01fa 13       		.uleb128 0x13
 10493 01fb 20       		.uleb128 0x20
 10494 01fc 0B       		.uleb128 0xb
 10495 01fd 01       		.uleb128 0x1
 10496 01fe 13       		.uleb128 0x13
 10497 01ff 00       		.byte	0
 10498 0200 00       		.byte	0
 10499 0201 2A       		.uleb128 0x2a
 10500 0202 05       		.uleb128 0x5
 10501 0203 00       		.byte	0
 10502 0204 03       		.uleb128 0x3
ARM GAS  C:\Users\haske\AppData\Local\Temp\cc1ymag8.s 			page 213


 10503 0205 08       		.uleb128 0x8
 10504 0206 3A       		.uleb128 0x3a
 10505 0207 0B       		.uleb128 0xb
 10506 0208 3B       		.uleb128 0x3b
 10507 0209 05       		.uleb128 0x5
 10508 020a 49       		.uleb128 0x49
 10509 020b 13       		.uleb128 0x13
 10510 020c 00       		.byte	0
 10511 020d 00       		.byte	0
 10512 020e 2B       		.uleb128 0x2b
 10513 020f 05       		.uleb128 0x5
 10514 0210 00       		.byte	0
 10515 0211 03       		.uleb128 0x3
 10516 0212 0E       		.uleb128 0xe
 10517 0213 3A       		.uleb128 0x3a
 10518 0214 0B       		.uleb128 0xb
 10519 0215 3B       		.uleb128 0x3b
 10520 0216 05       		.uleb128 0x5
 10521 0217 49       		.uleb128 0x49
 10522 0218 13       		.uleb128 0x13
 10523 0219 00       		.byte	0
 10524 021a 00       		.byte	0
 10525 021b 2C       		.uleb128 0x2c
 10526 021c 34       		.uleb128 0x34
 10527 021d 00       		.byte	0
 10528 021e 03       		.uleb128 0x3
 10529 021f 08       		.uleb128 0x8
 10530 0220 3A       		.uleb128 0x3a
 10531 0221 0B       		.uleb128 0xb
 10532 0222 3B       		.uleb128 0x3b
 10533 0223 05       		.uleb128 0x5
 10534 0224 49       		.uleb128 0x49
 10535 0225 13       		.uleb128 0x13
 10536 0226 00       		.byte	0
 10537 0227 00       		.byte	0
 10538 0228 2D       		.uleb128 0x2d
 10539 0229 34       		.uleb128 0x34
 10540 022a 00       		.byte	0
 10541 022b 03       		.uleb128 0x3
 10542 022c 0E       		.uleb128 0xe
 10543 022d 3A       		.uleb128 0x3a
 10544 022e 0B       		.uleb128 0xb
 10545 022f 3B       		.uleb128 0x3b
 10546 0230 0B       		.uleb128 0xb
 10547 0231 49       		.uleb128 0x49
 10548 0232 13       		.uleb128 0x13
 10549 0233 00       		.byte	0
 10550 0234 00       		.byte	0
 10551 0235 2E       		.uleb128 0x2e
 10552 0236 2E       		.uleb128 0x2e
 10553 0237 01       		.byte	0x1
 10554 0238 03       		.uleb128 0x3
 10555 0239 0E       		.uleb128 0xe
 10556 023a 3A       		.uleb128 0x3a
 10557 023b 0B       		.uleb128 0xb
 10558 023c 3B       		.uleb128 0x3b
 10559 023d 0B       		.uleb128 0xb
ARM GAS  C:\Users\haske\AppData\Local\Temp\cc1ymag8.s 			page 214


 10560 023e 27       		.uleb128 0x27
 10561 023f 19       		.uleb128 0x19
 10562 0240 20       		.uleb128 0x20
 10563 0241 0B       		.uleb128 0xb
 10564 0242 01       		.uleb128 0x1
 10565 0243 13       		.uleb128 0x13
 10566 0244 00       		.byte	0
 10567 0245 00       		.byte	0
 10568 0246 2F       		.uleb128 0x2f
 10569 0247 2E       		.uleb128 0x2e
 10570 0248 01       		.byte	0x1
 10571 0249 03       		.uleb128 0x3
 10572 024a 0E       		.uleb128 0xe
 10573 024b 3A       		.uleb128 0x3a
 10574 024c 0B       		.uleb128 0xb
 10575 024d 3B       		.uleb128 0x3b
 10576 024e 05       		.uleb128 0x5
 10577 024f 27       		.uleb128 0x27
 10578 0250 19       		.uleb128 0x19
 10579 0251 49       		.uleb128 0x49
 10580 0252 13       		.uleb128 0x13
 10581 0253 11       		.uleb128 0x11
 10582 0254 01       		.uleb128 0x1
 10583 0255 12       		.uleb128 0x12
 10584 0256 06       		.uleb128 0x6
 10585 0257 40       		.uleb128 0x40
 10586 0258 18       		.uleb128 0x18
 10587 0259 9742     		.uleb128 0x2117
 10588 025b 19       		.uleb128 0x19
 10589 025c 01       		.uleb128 0x1
 10590 025d 13       		.uleb128 0x13
 10591 025e 00       		.byte	0
 10592 025f 00       		.byte	0
 10593 0260 30       		.uleb128 0x30
 10594 0261 05       		.uleb128 0x5
 10595 0262 00       		.byte	0
 10596 0263 03       		.uleb128 0x3
 10597 0264 08       		.uleb128 0x8
 10598 0265 3A       		.uleb128 0x3a
 10599 0266 0B       		.uleb128 0xb
 10600 0267 3B       		.uleb128 0x3b
 10601 0268 05       		.uleb128 0x5
 10602 0269 49       		.uleb128 0x49
 10603 026a 13       		.uleb128 0x13
 10604 026b 02       		.uleb128 0x2
 10605 026c 17       		.uleb128 0x17
 10606 026d 00       		.byte	0
 10607 026e 00       		.byte	0
 10608 026f 31       		.uleb128 0x31
 10609 0270 898201   		.uleb128 0x4109
 10610 0273 01       		.byte	0x1
 10611 0274 11       		.uleb128 0x11
 10612 0275 01       		.uleb128 0x1
 10613 0276 31       		.uleb128 0x31
 10614 0277 13       		.uleb128 0x13
 10615 0278 01       		.uleb128 0x1
 10616 0279 13       		.uleb128 0x13
ARM GAS  C:\Users\haske\AppData\Local\Temp\cc1ymag8.s 			page 215


 10617 027a 00       		.byte	0
 10618 027b 00       		.byte	0
 10619 027c 32       		.uleb128 0x32
 10620 027d 8A8201   		.uleb128 0x410a
 10621 0280 00       		.byte	0
 10622 0281 02       		.uleb128 0x2
 10623 0282 18       		.uleb128 0x18
 10624 0283 9142     		.uleb128 0x2111
 10625 0285 18       		.uleb128 0x18
 10626 0286 00       		.byte	0
 10627 0287 00       		.byte	0
 10628 0288 33       		.uleb128 0x33
 10629 0289 898201   		.uleb128 0x4109
 10630 028c 01       		.byte	0x1
 10631 028d 11       		.uleb128 0x11
 10632 028e 01       		.uleb128 0x1
 10633 028f 31       		.uleb128 0x31
 10634 0290 13       		.uleb128 0x13
 10635 0291 00       		.byte	0
 10636 0292 00       		.byte	0
 10637 0293 34       		.uleb128 0x34
 10638 0294 2E       		.uleb128 0x2e
 10639 0295 01       		.byte	0x1
 10640 0296 03       		.uleb128 0x3
 10641 0297 0E       		.uleb128 0xe
 10642 0298 3A       		.uleb128 0x3a
 10643 0299 0B       		.uleb128 0xb
 10644 029a 3B       		.uleb128 0x3b
 10645 029b 05       		.uleb128 0x5
 10646 029c 27       		.uleb128 0x27
 10647 029d 19       		.uleb128 0x19
 10648 029e 11       		.uleb128 0x11
 10649 029f 01       		.uleb128 0x1
 10650 02a0 12       		.uleb128 0x12
 10651 02a1 06       		.uleb128 0x6
 10652 02a2 40       		.uleb128 0x40
 10653 02a3 18       		.uleb128 0x18
 10654 02a4 9742     		.uleb128 0x2117
 10655 02a6 19       		.uleb128 0x19
 10656 02a7 01       		.uleb128 0x1
 10657 02a8 13       		.uleb128 0x13
 10658 02a9 00       		.byte	0
 10659 02aa 00       		.byte	0
 10660 02ab 35       		.uleb128 0x35
 10661 02ac 05       		.uleb128 0x5
 10662 02ad 00       		.byte	0
 10663 02ae 03       		.uleb128 0x3
 10664 02af 0E       		.uleb128 0xe
 10665 02b0 3A       		.uleb128 0x3a
 10666 02b1 0B       		.uleb128 0xb
 10667 02b2 3B       		.uleb128 0x3b
 10668 02b3 05       		.uleb128 0x5
 10669 02b4 49       		.uleb128 0x49
 10670 02b5 13       		.uleb128 0x13
 10671 02b6 02       		.uleb128 0x2
 10672 02b7 17       		.uleb128 0x17
 10673 02b8 00       		.byte	0
ARM GAS  C:\Users\haske\AppData\Local\Temp\cc1ymag8.s 			page 216


 10674 02b9 00       		.byte	0
 10675 02ba 36       		.uleb128 0x36
 10676 02bb 34       		.uleb128 0x34
 10677 02bc 00       		.byte	0
 10678 02bd 03       		.uleb128 0x3
 10679 02be 0E       		.uleb128 0xe
 10680 02bf 3A       		.uleb128 0x3a
 10681 02c0 0B       		.uleb128 0xb
 10682 02c1 3B       		.uleb128 0x3b
 10683 02c2 05       		.uleb128 0x5
 10684 02c3 49       		.uleb128 0x49
 10685 02c4 13       		.uleb128 0x13
 10686 02c5 00       		.byte	0
 10687 02c6 00       		.byte	0
 10688 02c7 37       		.uleb128 0x37
 10689 02c8 1D       		.uleb128 0x1d
 10690 02c9 01       		.byte	0x1
 10691 02ca 31       		.uleb128 0x31
 10692 02cb 13       		.uleb128 0x13
 10693 02cc 11       		.uleb128 0x11
 10694 02cd 01       		.uleb128 0x1
 10695 02ce 12       		.uleb128 0x12
 10696 02cf 06       		.uleb128 0x6
 10697 02d0 58       		.uleb128 0x58
 10698 02d1 0B       		.uleb128 0xb
 10699 02d2 59       		.uleb128 0x59
 10700 02d3 05       		.uleb128 0x5
 10701 02d4 01       		.uleb128 0x1
 10702 02d5 13       		.uleb128 0x13
 10703 02d6 00       		.byte	0
 10704 02d7 00       		.byte	0
 10705 02d8 38       		.uleb128 0x38
 10706 02d9 05       		.uleb128 0x5
 10707 02da 00       		.byte	0
 10708 02db 31       		.uleb128 0x31
 10709 02dc 13       		.uleb128 0x13
 10710 02dd 02       		.uleb128 0x2
 10711 02de 17       		.uleb128 0x17
 10712 02df 00       		.byte	0
 10713 02e0 00       		.byte	0
 10714 02e1 39       		.uleb128 0x39
 10715 02e2 0B       		.uleb128 0xb
 10716 02e3 01       		.byte	0x1
 10717 02e4 11       		.uleb128 0x11
 10718 02e5 01       		.uleb128 0x1
 10719 02e6 12       		.uleb128 0x12
 10720 02e7 06       		.uleb128 0x6
 10721 02e8 00       		.byte	0
 10722 02e9 00       		.byte	0
 10723 02ea 3A       		.uleb128 0x3a
 10724 02eb 34       		.uleb128 0x34
 10725 02ec 00       		.byte	0
 10726 02ed 31       		.uleb128 0x31
 10727 02ee 13       		.uleb128 0x13
 10728 02ef 02       		.uleb128 0x2
 10729 02f0 17       		.uleb128 0x17
 10730 02f1 00       		.byte	0
ARM GAS  C:\Users\haske\AppData\Local\Temp\cc1ymag8.s 			page 217


 10731 02f2 00       		.byte	0
 10732 02f3 3B       		.uleb128 0x3b
 10733 02f4 34       		.uleb128 0x34
 10734 02f5 00       		.byte	0
 10735 02f6 31       		.uleb128 0x31
 10736 02f7 13       		.uleb128 0x13
 10737 02f8 00       		.byte	0
 10738 02f9 00       		.byte	0
 10739 02fa 3C       		.uleb128 0x3c
 10740 02fb 1D       		.uleb128 0x1d
 10741 02fc 01       		.byte	0x1
 10742 02fd 31       		.uleb128 0x31
 10743 02fe 13       		.uleb128 0x13
 10744 02ff 11       		.uleb128 0x11
 10745 0300 01       		.uleb128 0x1
 10746 0301 12       		.uleb128 0x12
 10747 0302 06       		.uleb128 0x6
 10748 0303 58       		.uleb128 0x58
 10749 0304 0B       		.uleb128 0xb
 10750 0305 59       		.uleb128 0x59
 10751 0306 05       		.uleb128 0x5
 10752 0307 00       		.byte	0
 10753 0308 00       		.byte	0
 10754 0309 3D       		.uleb128 0x3d
 10755 030a 34       		.uleb128 0x34
 10756 030b 00       		.byte	0
 10757 030c 03       		.uleb128 0x3
 10758 030d 08       		.uleb128 0x8
 10759 030e 3A       		.uleb128 0x3a
 10760 030f 0B       		.uleb128 0xb
 10761 0310 3B       		.uleb128 0x3b
 10762 0311 05       		.uleb128 0x5
 10763 0312 49       		.uleb128 0x49
 10764 0313 13       		.uleb128 0x13
 10765 0314 02       		.uleb128 0x2
 10766 0315 17       		.uleb128 0x17
 10767 0316 00       		.byte	0
 10768 0317 00       		.byte	0
 10769 0318 3E       		.uleb128 0x3e
 10770 0319 34       		.uleb128 0x34
 10771 031a 00       		.byte	0
 10772 031b 03       		.uleb128 0x3
 10773 031c 0E       		.uleb128 0xe
 10774 031d 3A       		.uleb128 0x3a
 10775 031e 0B       		.uleb128 0xb
 10776 031f 3B       		.uleb128 0x3b
 10777 0320 05       		.uleb128 0x5
 10778 0321 49       		.uleb128 0x49
 10779 0322 13       		.uleb128 0x13
 10780 0323 02       		.uleb128 0x2
 10781 0324 17       		.uleb128 0x17
 10782 0325 00       		.byte	0
 10783 0326 00       		.byte	0
 10784 0327 3F       		.uleb128 0x3f
 10785 0328 34       		.uleb128 0x34
 10786 0329 00       		.byte	0
 10787 032a 03       		.uleb128 0x3
ARM GAS  C:\Users\haske\AppData\Local\Temp\cc1ymag8.s 			page 218


 10788 032b 0E       		.uleb128 0xe
 10789 032c 3A       		.uleb128 0x3a
 10790 032d 0B       		.uleb128 0xb
 10791 032e 3B       		.uleb128 0x3b
 10792 032f 05       		.uleb128 0x5
 10793 0330 49       		.uleb128 0x49
 10794 0331 13       		.uleb128 0x13
 10795 0332 02       		.uleb128 0x2
 10796 0333 18       		.uleb128 0x18
 10797 0334 00       		.byte	0
 10798 0335 00       		.byte	0
 10799 0336 40       		.uleb128 0x40
 10800 0337 0B       		.uleb128 0xb
 10801 0338 01       		.byte	0x1
 10802 0339 11       		.uleb128 0x11
 10803 033a 01       		.uleb128 0x1
 10804 033b 12       		.uleb128 0x12
 10805 033c 06       		.uleb128 0x6
 10806 033d 01       		.uleb128 0x1
 10807 033e 13       		.uleb128 0x13
 10808 033f 00       		.byte	0
 10809 0340 00       		.byte	0
 10810 0341 41       		.uleb128 0x41
 10811 0342 2E       		.uleb128 0x2e
 10812 0343 01       		.byte	0x1
 10813 0344 03       		.uleb128 0x3
 10814 0345 0E       		.uleb128 0xe
 10815 0346 3A       		.uleb128 0x3a
 10816 0347 0B       		.uleb128 0xb
 10817 0348 3B       		.uleb128 0x3b
 10818 0349 0B       		.uleb128 0xb
 10819 034a 27       		.uleb128 0x27
 10820 034b 19       		.uleb128 0x19
 10821 034c 11       		.uleb128 0x11
 10822 034d 01       		.uleb128 0x1
 10823 034e 12       		.uleb128 0x12
 10824 034f 06       		.uleb128 0x6
 10825 0350 40       		.uleb128 0x40
 10826 0351 18       		.uleb128 0x18
 10827 0352 9642     		.uleb128 0x2116
 10828 0354 19       		.uleb128 0x19
 10829 0355 01       		.uleb128 0x1
 10830 0356 13       		.uleb128 0x13
 10831 0357 00       		.byte	0
 10832 0358 00       		.byte	0
 10833 0359 42       		.uleb128 0x42
 10834 035a 05       		.uleb128 0x5
 10835 035b 00       		.byte	0
 10836 035c 03       		.uleb128 0x3
 10837 035d 0E       		.uleb128 0xe
 10838 035e 3A       		.uleb128 0x3a
 10839 035f 0B       		.uleb128 0xb
 10840 0360 3B       		.uleb128 0x3b
 10841 0361 0B       		.uleb128 0xb
 10842 0362 49       		.uleb128 0x49
 10843 0363 13       		.uleb128 0x13
 10844 0364 02       		.uleb128 0x2
ARM GAS  C:\Users\haske\AppData\Local\Temp\cc1ymag8.s 			page 219


 10845 0365 17       		.uleb128 0x17
 10846 0366 00       		.byte	0
 10847 0367 00       		.byte	0
 10848 0368 43       		.uleb128 0x43
 10849 0369 05       		.uleb128 0x5
 10850 036a 00       		.byte	0
 10851 036b 03       		.uleb128 0x3
 10852 036c 08       		.uleb128 0x8
 10853 036d 3A       		.uleb128 0x3a
 10854 036e 0B       		.uleb128 0xb
 10855 036f 3B       		.uleb128 0x3b
 10856 0370 0B       		.uleb128 0xb
 10857 0371 49       		.uleb128 0x49
 10858 0372 13       		.uleb128 0x13
 10859 0373 02       		.uleb128 0x2
 10860 0374 17       		.uleb128 0x17
 10861 0375 00       		.byte	0
 10862 0376 00       		.byte	0
 10863 0377 44       		.uleb128 0x44
 10864 0378 34       		.uleb128 0x34
 10865 0379 00       		.byte	0
 10866 037a 03       		.uleb128 0x3
 10867 037b 08       		.uleb128 0x8
 10868 037c 3A       		.uleb128 0x3a
 10869 037d 0B       		.uleb128 0xb
 10870 037e 3B       		.uleb128 0x3b
 10871 037f 0B       		.uleb128 0xb
 10872 0380 49       		.uleb128 0x49
 10873 0381 13       		.uleb128 0x13
 10874 0382 02       		.uleb128 0x2
 10875 0383 17       		.uleb128 0x17
 10876 0384 00       		.byte	0
 10877 0385 00       		.byte	0
 10878 0386 45       		.uleb128 0x45
 10879 0387 34       		.uleb128 0x34
 10880 0388 00       		.byte	0
 10881 0389 03       		.uleb128 0x3
 10882 038a 0E       		.uleb128 0xe
 10883 038b 3A       		.uleb128 0x3a
 10884 038c 0B       		.uleb128 0xb
 10885 038d 3B       		.uleb128 0x3b
 10886 038e 0B       		.uleb128 0xb
 10887 038f 49       		.uleb128 0x49
 10888 0390 13       		.uleb128 0x13
 10889 0391 02       		.uleb128 0x2
 10890 0392 17       		.uleb128 0x17
 10891 0393 00       		.byte	0
 10892 0394 00       		.byte	0
 10893 0395 46       		.uleb128 0x46
 10894 0396 1D       		.uleb128 0x1d
 10895 0397 01       		.byte	0x1
 10896 0398 31       		.uleb128 0x31
 10897 0399 13       		.uleb128 0x13
 10898 039a 11       		.uleb128 0x11
 10899 039b 01       		.uleb128 0x1
 10900 039c 12       		.uleb128 0x12
 10901 039d 06       		.uleb128 0x6
ARM GAS  C:\Users\haske\AppData\Local\Temp\cc1ymag8.s 			page 220


 10902 039e 58       		.uleb128 0x58
 10903 039f 0B       		.uleb128 0xb
 10904 03a0 59       		.uleb128 0x59
 10905 03a1 0B       		.uleb128 0xb
 10906 03a2 01       		.uleb128 0x1
 10907 03a3 13       		.uleb128 0x13
 10908 03a4 00       		.byte	0
 10909 03a5 00       		.byte	0
 10910 03a6 47       		.uleb128 0x47
 10911 03a7 34       		.uleb128 0x34
 10912 03a8 00       		.byte	0
 10913 03a9 03       		.uleb128 0x3
 10914 03aa 08       		.uleb128 0x8
 10915 03ab 3A       		.uleb128 0x3a
 10916 03ac 0B       		.uleb128 0xb
 10917 03ad 3B       		.uleb128 0x3b
 10918 03ae 0B       		.uleb128 0xb
 10919 03af 49       		.uleb128 0x49
 10920 03b0 13       		.uleb128 0x13
 10921 03b1 02       		.uleb128 0x2
 10922 03b2 18       		.uleb128 0x18
 10923 03b3 00       		.byte	0
 10924 03b4 00       		.byte	0
 10925 03b5 48       		.uleb128 0x48
 10926 03b6 898201   		.uleb128 0x4109
 10927 03b9 00       		.byte	0
 10928 03ba 11       		.uleb128 0x11
 10929 03bb 01       		.uleb128 0x1
 10930 03bc 31       		.uleb128 0x31
 10931 03bd 13       		.uleb128 0x13
 10932 03be 00       		.byte	0
 10933 03bf 00       		.byte	0
 10934 03c0 49       		.uleb128 0x49
 10935 03c1 2E       		.uleb128 0x2e
 10936 03c2 01       		.byte	0x1
 10937 03c3 3F       		.uleb128 0x3f
 10938 03c4 19       		.uleb128 0x19
 10939 03c5 03       		.uleb128 0x3
 10940 03c6 0E       		.uleb128 0xe
 10941 03c7 3A       		.uleb128 0x3a
 10942 03c8 0B       		.uleb128 0xb
 10943 03c9 3B       		.uleb128 0x3b
 10944 03ca 0B       		.uleb128 0xb
 10945 03cb 27       		.uleb128 0x27
 10946 03cc 19       		.uleb128 0x19
 10947 03cd 49       		.uleb128 0x49
 10948 03ce 13       		.uleb128 0x13
 10949 03cf 11       		.uleb128 0x11
 10950 03d0 01       		.uleb128 0x1
 10951 03d1 12       		.uleb128 0x12
 10952 03d2 06       		.uleb128 0x6
 10953 03d3 40       		.uleb128 0x40
 10954 03d4 18       		.uleb128 0x18
 10955 03d5 9742     		.uleb128 0x2117
 10956 03d7 19       		.uleb128 0x19
 10957 03d8 01       		.uleb128 0x1
 10958 03d9 13       		.uleb128 0x13
ARM GAS  C:\Users\haske\AppData\Local\Temp\cc1ymag8.s 			page 221


 10959 03da 00       		.byte	0
 10960 03db 00       		.byte	0
 10961 03dc 4A       		.uleb128 0x4a
 10962 03dd 34       		.uleb128 0x34
 10963 03de 00       		.byte	0
 10964 03df 03       		.uleb128 0x3
 10965 03e0 0E       		.uleb128 0xe
 10966 03e1 3A       		.uleb128 0x3a
 10967 03e2 0B       		.uleb128 0xb
 10968 03e3 3B       		.uleb128 0x3b
 10969 03e4 0B       		.uleb128 0xb
 10970 03e5 49       		.uleb128 0x49
 10971 03e6 13       		.uleb128 0x13
 10972 03e7 3F       		.uleb128 0x3f
 10973 03e8 19       		.uleb128 0x19
 10974 03e9 3C       		.uleb128 0x3c
 10975 03ea 19       		.uleb128 0x19
 10976 03eb 00       		.byte	0
 10977 03ec 00       		.byte	0
 10978 03ed 4B       		.uleb128 0x4b
 10979 03ee 34       		.uleb128 0x34
 10980 03ef 00       		.byte	0
 10981 03f0 03       		.uleb128 0x3
 10982 03f1 0E       		.uleb128 0xe
 10983 03f2 3A       		.uleb128 0x3a
 10984 03f3 0B       		.uleb128 0xb
 10985 03f4 3B       		.uleb128 0x3b
 10986 03f5 0B       		.uleb128 0xb
 10987 03f6 49       		.uleb128 0x49
 10988 03f7 13       		.uleb128 0x13
 10989 03f8 3F       		.uleb128 0x3f
 10990 03f9 19       		.uleb128 0x19
 10991 03fa 02       		.uleb128 0x2
 10992 03fb 18       		.uleb128 0x18
 10993 03fc 00       		.byte	0
 10994 03fd 00       		.byte	0
 10995 03fe 4C       		.uleb128 0x4c
 10996 03ff 2E       		.uleb128 0x2e
 10997 0400 00       		.byte	0
 10998 0401 3F       		.uleb128 0x3f
 10999 0402 19       		.uleb128 0x19
 11000 0403 3C       		.uleb128 0x3c
 11001 0404 19       		.uleb128 0x19
 11002 0405 6E       		.uleb128 0x6e
 11003 0406 0E       		.uleb128 0xe
 11004 0407 03       		.uleb128 0x3
 11005 0408 0E       		.uleb128 0xe
 11006 0409 3A       		.uleb128 0x3a
 11007 040a 0B       		.uleb128 0xb
 11008 040b 3B       		.uleb128 0x3b
 11009 040c 05       		.uleb128 0x5
 11010 040d 00       		.byte	0
 11011 040e 00       		.byte	0
 11012 040f 4D       		.uleb128 0x4d
 11013 0410 2E       		.uleb128 0x2e
 11014 0411 00       		.byte	0
 11015 0412 3F       		.uleb128 0x3f
ARM GAS  C:\Users\haske\AppData\Local\Temp\cc1ymag8.s 			page 222


 11016 0413 19       		.uleb128 0x19
 11017 0414 3C       		.uleb128 0x3c
 11018 0415 19       		.uleb128 0x19
 11019 0416 6E       		.uleb128 0x6e
 11020 0417 0E       		.uleb128 0xe
 11021 0418 03       		.uleb128 0x3
 11022 0419 0E       		.uleb128 0xe
 11023 041a 3A       		.uleb128 0x3a
 11024 041b 0B       		.uleb128 0xb
 11025 041c 3B       		.uleb128 0x3b
 11026 041d 0B       		.uleb128 0xb
 11027 041e 00       		.byte	0
 11028 041f 00       		.byte	0
 11029 0420 00       		.byte	0
 11030              		.section	.debug_loc,"",%progbits
 11031              	.Ldebug_loc0:
 11032              	.LLST0:
 11033 0000 00000000 		.4byte	.LVL0
 11034 0004 07000000 		.4byte	.LVL1-1
 11035 0008 0100     		.2byte	0x1
 11036 000a 50       		.byte	0x50
 11037 000b 07000000 		.4byte	.LVL1-1
 11038 000f 1C000000 		.4byte	.LVL3
 11039 0013 0100     		.2byte	0x1
 11040 0015 55       		.byte	0x55
 11041 0016 1C000000 		.4byte	.LVL3
 11042 001a 1E000000 		.4byte	.LFE180
 11043 001e 0400     		.2byte	0x4
 11044 0020 F3       		.byte	0xf3
 11045 0021 01       		.uleb128 0x1
 11046 0022 50       		.byte	0x50
 11047 0023 9F       		.byte	0x9f
 11048 0024 00000000 		.4byte	0
 11049 0028 00000000 		.4byte	0
 11050              	.LLST1:
 11051 002c 00000000 		.4byte	.LVL4
 11052 0030 58000000 		.4byte	.LVL13
 11053 0034 0100     		.2byte	0x1
 11054 0036 50       		.byte	0x50
 11055 0037 58000000 		.4byte	.LVL13
 11056 003b C0000000 		.4byte	.LVL31
 11057 003f 0100     		.2byte	0x1
 11058 0041 55       		.byte	0x55
 11059 0042 C0000000 		.4byte	.LVL31
 11060 0046 CC000000 		.4byte	.LFE179
 11061 004a 0400     		.2byte	0x4
 11062 004c F3       		.byte	0xf3
 11063 004d 01       		.uleb128 0x1
 11064 004e 50       		.byte	0x50
 11065 004f 9F       		.byte	0x9f
 11066 0050 00000000 		.4byte	0
 11067 0054 00000000 		.4byte	0
 11068              	.LLST2:
 11069 0058 00000000 		.4byte	.LVL4
 11070 005c 16000000 		.4byte	.LVL5
 11071 0060 0100     		.2byte	0x1
 11072 0062 51       		.byte	0x51
ARM GAS  C:\Users\haske\AppData\Local\Temp\cc1ymag8.s 			page 223


 11073 0063 16000000 		.4byte	.LVL5
 11074 0067 32000000 		.4byte	.LVL8
 11075 006b 0100     		.2byte	0x1
 11076 006d 54       		.byte	0x54
 11077 006e 32000000 		.4byte	.LVL8
 11078 0072 34000000 		.4byte	.LVL9
 11079 0076 0100     		.2byte	0x1
 11080 0078 51       		.byte	0x51
 11081 0079 34000000 		.4byte	.LVL9
 11082 007d C0000000 		.4byte	.LVL30
 11083 0081 0100     		.2byte	0x1
 11084 0083 54       		.byte	0x54
 11085 0084 C0000000 		.4byte	.LVL30
 11086 0088 CC000000 		.4byte	.LFE179
 11087 008c 0400     		.2byte	0x4
 11088 008e F3       		.byte	0xf3
 11089 008f 01       		.uleb128 0x1
 11090 0090 51       		.byte	0x51
 11091 0091 9F       		.byte	0x9f
 11092 0092 00000000 		.4byte	0
 11093 0096 00000000 		.4byte	0
 11094              	.LLST3:
 11095 009a 00000000 		.4byte	.LVL4
 11096 009e 20000000 		.4byte	.LVL7
 11097 00a2 0100     		.2byte	0x1
 11098 00a4 52       		.byte	0x52
 11099 00a5 20000000 		.4byte	.LVL7
 11100 00a9 32000000 		.4byte	.LVL8
 11101 00ad 0400     		.2byte	0x4
 11102 00af F3       		.byte	0xf3
 11103 00b0 01       		.uleb128 0x1
 11104 00b1 52       		.byte	0x52
 11105 00b2 9F       		.byte	0x9f
 11106 00b3 32000000 		.4byte	.LVL8
 11107 00b7 3E000000 		.4byte	.LVL11
 11108 00bb 0100     		.2byte	0x1
 11109 00bd 52       		.byte	0x52
 11110 00be 3E000000 		.4byte	.LVL11
 11111 00c2 CC000000 		.4byte	.LFE179
 11112 00c6 0400     		.2byte	0x4
 11113 00c8 F3       		.byte	0xf3
 11114 00c9 01       		.uleb128 0x1
 11115 00ca 52       		.byte	0x52
 11116 00cb 9F       		.byte	0x9f
 11117 00cc 00000000 		.4byte	0
 11118 00d0 00000000 		.4byte	0
 11119              	.LLST4:
 11120 00d4 00000000 		.4byte	.LVL4
 11121 00d8 18000000 		.4byte	.LVL6
 11122 00dc 0100     		.2byte	0x1
 11123 00de 53       		.byte	0x53
 11124 00df 18000000 		.4byte	.LVL6
 11125 00e3 32000000 		.4byte	.LVL8
 11126 00e7 0400     		.2byte	0x4
 11127 00e9 F3       		.byte	0xf3
 11128 00ea 01       		.uleb128 0x1
 11129 00eb 53       		.byte	0x53
ARM GAS  C:\Users\haske\AppData\Local\Temp\cc1ymag8.s 			page 224


 11130 00ec 9F       		.byte	0x9f
 11131 00ed 32000000 		.4byte	.LVL8
 11132 00f1 36000000 		.4byte	.LVL10
 11133 00f5 0100     		.2byte	0x1
 11134 00f7 53       		.byte	0x53
 11135 00f8 36000000 		.4byte	.LVL10
 11136 00fc CC000000 		.4byte	.LFE179
 11137 0100 0400     		.2byte	0x4
 11138 0102 F3       		.byte	0xf3
 11139 0103 01       		.uleb128 0x1
 11140 0104 53       		.byte	0x53
 11141 0105 9F       		.byte	0x9f
 11142 0106 00000000 		.4byte	0
 11143 010a 00000000 		.4byte	0
 11144              	.LLST5:
 11145 010e 4E000000 		.4byte	.LVL12
 11146 0112 5E000000 		.4byte	.LVL15
 11147 0116 0400     		.2byte	0x4
 11148 0118 48       		.byte	0x48
 11149 0119 3D       		.byte	0x3d
 11150 011a 24       		.byte	0x24
 11151 011b 9F       		.byte	0x9f
 11152 011c 00000000 		.4byte	0
 11153 0120 00000000 		.4byte	0
 11154              	.LLST6:
 11155 0124 4E000000 		.4byte	.LVL12
 11156 0128 5B000000 		.4byte	.LVL14-1
 11157 012c 0100     		.2byte	0x1
 11158 012e 50       		.byte	0x50
 11159 012f 5B000000 		.4byte	.LVL14-1
 11160 0133 5E000000 		.4byte	.LVL15
 11161 0137 0100     		.2byte	0x1
 11162 0139 55       		.byte	0x55
 11163 013a 00000000 		.4byte	0
 11164 013e 00000000 		.4byte	0
 11165              	.LLST7:
 11166 0142 9A000000 		.4byte	.LVL25
 11167 0146 C0000000 		.4byte	.LVL35
 11168 014a 0100     		.2byte	0x1
 11169 014c 5B       		.byte	0x5b
 11170 014d 00000000 		.4byte	0
 11171 0151 00000000 		.4byte	0
 11172              	.LLST8:
 11173 0155 5E000000 		.4byte	.LVL15
 11174 0159 6A000000 		.4byte	.LVL17
 11175 015d 0400     		.2byte	0x4
 11176 015f 48       		.byte	0x48
 11177 0160 3D       		.byte	0x3d
 11178 0161 24       		.byte	0x24
 11179 0162 9F       		.byte	0x9f
 11180 0163 00000000 		.4byte	0
 11181 0167 00000000 		.4byte	0
 11182              	.LLST9:
 11183 016b 5E000000 		.4byte	.LVL15
 11184 016f 6A000000 		.4byte	.LVL17
 11185 0173 0100     		.2byte	0x1
 11186 0175 55       		.byte	0x55
ARM GAS  C:\Users\haske\AppData\Local\Temp\cc1ymag8.s 			page 225


 11187 0176 00000000 		.4byte	0
 11188 017a 00000000 		.4byte	0
 11189              	.LLST10:
 11190 017e A4000000 		.4byte	.LVL26
 11191 0182 C0000000 		.4byte	.LVL33
 11192 0186 0100     		.2byte	0x1
 11193 0188 59       		.byte	0x59
 11194 0189 00000000 		.4byte	0
 11195 018d 00000000 		.4byte	0
 11196              	.LLST11:
 11197 0191 6A000000 		.4byte	.LVL17
 11198 0195 76000000 		.4byte	.LVL19
 11199 0199 0400     		.2byte	0x4
 11200 019b 48       		.byte	0x48
 11201 019c 3D       		.byte	0x3d
 11202 019d 24       		.byte	0x24
 11203 019e 9F       		.byte	0x9f
 11204 019f 00000000 		.4byte	0
 11205 01a3 00000000 		.4byte	0
 11206              	.LLST12:
 11207 01a7 6A000000 		.4byte	.LVL17
 11208 01ab 76000000 		.4byte	.LVL19
 11209 01af 0100     		.2byte	0x1
 11210 01b1 55       		.byte	0x55
 11211 01b2 00000000 		.4byte	0
 11212 01b6 00000000 		.4byte	0
 11213              	.LLST13:
 11214 01ba AE000000 		.4byte	.LVL28
 11215 01be C0000000 		.4byte	.LVL34
 11216 01c2 0100     		.2byte	0x1
 11217 01c4 5A       		.byte	0x5a
 11218 01c5 00000000 		.4byte	0
 11219 01c9 00000000 		.4byte	0
 11220              	.LLST14:
 11221 01cd 76000000 		.4byte	.LVL19
 11222 01d1 82000000 		.4byte	.LVL21
 11223 01d5 0400     		.2byte	0x4
 11224 01d7 48       		.byte	0x48
 11225 01d8 3D       		.byte	0x3d
 11226 01d9 24       		.byte	0x24
 11227 01da 9F       		.byte	0x9f
 11228 01db 00000000 		.4byte	0
 11229 01df 00000000 		.4byte	0
 11230              	.LLST15:
 11231 01e3 76000000 		.4byte	.LVL19
 11232 01e7 82000000 		.4byte	.LVL21
 11233 01eb 0100     		.2byte	0x1
 11234 01ed 55       		.byte	0x55
 11235 01ee 00000000 		.4byte	0
 11236 01f2 00000000 		.4byte	0
 11237              	.LLST16:
 11238 01f6 B8000000 		.4byte	.LVL29
 11239 01fa C0000000 		.4byte	.LVL32
 11240 01fe 0100     		.2byte	0x1
 11241 0200 58       		.byte	0x58
 11242 0201 00000000 		.4byte	0
 11243 0205 00000000 		.4byte	0
ARM GAS  C:\Users\haske\AppData\Local\Temp\cc1ymag8.s 			page 226


 11244              	.LLST17:
 11245 0209 82000000 		.4byte	.LVL21
 11246 020d 8E000000 		.4byte	.LVL23
 11247 0211 0400     		.2byte	0x4
 11248 0213 48       		.byte	0x48
 11249 0214 3D       		.byte	0x3d
 11250 0215 24       		.byte	0x24
 11251 0216 9F       		.byte	0x9f
 11252 0217 00000000 		.4byte	0
 11253 021b 00000000 		.4byte	0
 11254              	.LLST18:
 11255 021f 82000000 		.4byte	.LVL21
 11256 0223 8E000000 		.4byte	.LVL23
 11257 0227 0100     		.2byte	0x1
 11258 0229 55       		.byte	0x55
 11259 022a 00000000 		.4byte	0
 11260 022e 00000000 		.4byte	0
 11261              	.LLST19:
 11262 0232 8E000000 		.4byte	.LVL23
 11263 0236 98000000 		.4byte	.LVL24
 11264 023a 0400     		.2byte	0x4
 11265 023c 48       		.byte	0x48
 11266 023d 3D       		.byte	0x3d
 11267 023e 24       		.byte	0x24
 11268 023f 9F       		.byte	0x9f
 11269 0240 00000000 		.4byte	0
 11270 0244 00000000 		.4byte	0
 11271              	.LLST20:
 11272 0248 8E000000 		.4byte	.LVL23
 11273 024c 98000000 		.4byte	.LVL24
 11274 0250 0100     		.2byte	0x1
 11275 0252 55       		.byte	0x55
 11276 0253 00000000 		.4byte	0
 11277 0257 00000000 		.4byte	0
 11278              	.LLST21:
 11279 025b 00000000 		.4byte	.LVL36
 11280 025f 11000000 		.4byte	.LVL37-1
 11281 0263 0100     		.2byte	0x1
 11282 0265 50       		.byte	0x50
 11283 0266 11000000 		.4byte	.LVL37-1
 11284 026a 4E000000 		.4byte	.LVL47
 11285 026e 0100     		.2byte	0x1
 11286 0270 55       		.byte	0x55
 11287 0271 4E000000 		.4byte	.LVL47
 11288 0275 50000000 		.4byte	.LVL48
 11289 0279 0400     		.2byte	0x4
 11290 027b F3       		.byte	0xf3
 11291 027c 01       		.uleb128 0x1
 11292 027d 50       		.byte	0x50
 11293 027e 9F       		.byte	0x9f
 11294 027f 50000000 		.4byte	.LVL48
 11295 0283 52000000 		.4byte	.LVL49
 11296 0287 0100     		.2byte	0x1
 11297 0289 55       		.byte	0x55
 11298 028a 52000000 		.4byte	.LVL49
 11299 028e 54000000 		.4byte	.LVL50
 11300 0292 0400     		.2byte	0x4
ARM GAS  C:\Users\haske\AppData\Local\Temp\cc1ymag8.s 			page 227


 11301 0294 F3       		.byte	0xf3
 11302 0295 01       		.uleb128 0x1
 11303 0296 50       		.byte	0x50
 11304 0297 9F       		.byte	0x9f
 11305 0298 54000000 		.4byte	.LVL50
 11306 029c 56000000 		.4byte	.LVL51
 11307 02a0 0100     		.2byte	0x1
 11308 02a2 55       		.byte	0x55
 11309 02a3 56000000 		.4byte	.LVL51
 11310 02a7 58000000 		.4byte	.LVL52
 11311 02ab 0400     		.2byte	0x4
 11312 02ad F3       		.byte	0xf3
 11313 02ae 01       		.uleb128 0x1
 11314 02af 50       		.byte	0x50
 11315 02b0 9F       		.byte	0x9f
 11316 02b1 58000000 		.4byte	.LVL52
 11317 02b5 5A000000 		.4byte	.LVL53
 11318 02b9 0100     		.2byte	0x1
 11319 02bb 55       		.byte	0x55
 11320 02bc 5A000000 		.4byte	.LVL53
 11321 02c0 0C020000 		.4byte	.LFE178
 11322 02c4 0400     		.2byte	0x4
 11323 02c6 F3       		.byte	0xf3
 11324 02c7 01       		.uleb128 0x1
 11325 02c8 50       		.byte	0x50
 11326 02c9 9F       		.byte	0x9f
 11327 02ca 00000000 		.4byte	0
 11328 02ce 00000000 		.4byte	0
 11329              	.LLST22:
 11330 02d2 14000000 		.4byte	.LVL38
 11331 02d6 16000000 		.4byte	.LVL39
 11332 02da 0100     		.2byte	0x1
 11333 02dc 50       		.byte	0x50
 11334 02dd 16000000 		.4byte	.LVL39
 11335 02e1 FE010000 		.4byte	.LVL84
 11336 02e5 0100     		.2byte	0x1
 11337 02e7 54       		.byte	0x54
 11338 02e8 00000000 		.4byte	0
 11339 02ec 00000000 		.4byte	0
 11340              	.LLST24:
 11341 02f0 1C000000 		.4byte	.LVL41
 11342 02f4 22000000 		.4byte	.LVL42
 11343 02f8 0100     		.2byte	0x1
 11344 02fa 50       		.byte	0x50
 11345 02fb 22000000 		.4byte	.LVL42
 11346 02ff 0C020000 		.4byte	.LFE178
 11347 0303 0300     		.2byte	0x3
 11348 0305 91       		.byte	0x91
 11349 0306 947E     		.sleb128 -236
 11350 0308 00000000 		.4byte	0
 11351 030c 00000000 		.4byte	0
 11352              	.LLST25:
 11353 0310 2A000000 		.4byte	.LVL44
 11354 0314 FE010000 		.4byte	.LVL85
 11355 0318 0800     		.2byte	0x8
 11356 031a 78       		.byte	0x78
 11357 031b 00       		.sleb128 0
ARM GAS  C:\Users\haske\AppData\Local\Temp\cc1ymag8.s 			page 228


 11358 031c 08       		.byte	0x8
 11359 031d FF       		.byte	0xff
 11360 031e 1A       		.byte	0x1a
 11361 031f 31       		.byte	0x31
 11362 0320 29       		.byte	0x29
 11363 0321 9F       		.byte	0x9f
 11364 0322 00000000 		.4byte	0
 11365 0326 00000000 		.4byte	0
 11366              	.LLST26:
 11367 032a 68000000 		.4byte	.LVL55
 11368 032e 92000000 		.4byte	.LVL56
 11369 0332 0100     		.2byte	0x1
 11370 0334 50       		.byte	0x50
 11371 0335 9A000000 		.4byte	.LVL58
 11372 0339 B6000000 		.4byte	.LVL59
 11373 033d 0100     		.2byte	0x1
 11374 033f 50       		.byte	0x50
 11375 0340 B6000000 		.4byte	.LVL59
 11376 0344 0C020000 		.4byte	.LFE178
 11377 0348 0300     		.2byte	0x3
 11378 034a 91       		.byte	0x91
 11379 034b 987E     		.sleb128 -232
 11380 034d 00000000 		.4byte	0
 11381 0351 00000000 		.4byte	0
 11382              	.LLST27:
 11383 0355 34000000 		.4byte	.LVL46
 11384 0359 5A000000 		.4byte	.LVL53
 11385 035d 0200     		.2byte	0x2
 11386 035f 30       		.byte	0x30
 11387 0360 9F       		.byte	0x9f
 11388 0361 5A000000 		.4byte	.LVL53
 11389 0365 D0000000 		.4byte	.LVL62
 11390 0369 0100     		.2byte	0x1
 11391 036b 55       		.byte	0x55
 11392 036c 00000000 		.4byte	0
 11393 0370 00000000 		.4byte	0
 11394              	.LLST28:
 11395 0374 1C000000 		.4byte	.LVL41
 11396 0378 2A000000 		.4byte	.LVL44
 11397 037c 0200     		.2byte	0x2
 11398 037e 30       		.byte	0x30
 11399 037f 9F       		.byte	0x9f
 11400 0380 00000000 		.4byte	0
 11401 0384 00000000 		.4byte	0
 11402              	.LLST29:
 11403 0388 1C000000 		.4byte	.LVL41
 11404 038c 2A000000 		.4byte	.LVL44
 11405 0390 0100     		.2byte	0x1
 11406 0392 54       		.byte	0x54
 11407 0393 00000000 		.4byte	0
 11408 0397 00000000 		.4byte	0
 11409              	.LLST30:
 11410 039b DC000000 		.4byte	.LVL63
 11411 039f FA000000 		.4byte	.LVL65
 11412 03a3 0100     		.2byte	0x1
 11413 03a5 55       		.byte	0x55
 11414 03a6 00000000 		.4byte	0
ARM GAS  C:\Users\haske\AppData\Local\Temp\cc1ymag8.s 			page 229


 11415 03aa 00000000 		.4byte	0
 11416              	.LLST31:
 11417 03ae DC000000 		.4byte	.LVL63
 11418 03b2 EC000000 		.4byte	.LVL64
 11419 03b6 0400     		.2byte	0x4
 11420 03b8 74       		.byte	0x74
 11421 03b9 E800     		.sleb128 104
 11422 03bb 9F       		.byte	0x9f
 11423 03bc EC000000 		.4byte	.LVL64
 11424 03c0 FA000000 		.4byte	.LVL65
 11425 03c4 0100     		.2byte	0x1
 11426 03c6 56       		.byte	0x56
 11427 03c7 00000000 		.4byte	0
 11428 03cb 00000000 		.4byte	0
 11429              	.LLST32:
 11430 03cf 14010000 		.4byte	.LVL67
 11431 03d3 2C010000 		.4byte	.LVL69
 11432 03d7 0100     		.2byte	0x1
 11433 03d9 54       		.byte	0x54
 11434 03da 00000000 		.4byte	0
 11435 03de 00000000 		.4byte	0
 11436              	.LLST33:
 11437 03e2 1A010000 		.4byte	.LVL68
 11438 03e6 2C010000 		.4byte	.LVL69
 11439 03ea 0100     		.2byte	0x1
 11440 03ec 50       		.byte	0x50
 11441 03ed 00000000 		.4byte	0
 11442 03f1 00000000 		.4byte	0
 11443              	.LLST34:
 11444 03f5 AA010000 		.4byte	.LVL77
 11445 03f9 C8010000 		.4byte	.LVL79
 11446 03fd 0100     		.2byte	0x1
 11447 03ff 55       		.byte	0x55
 11448 0400 00000000 		.4byte	0
 11449 0404 00000000 		.4byte	0
 11450              	.LLST35:
 11451 0408 AA010000 		.4byte	.LVL77
 11452 040c BA010000 		.4byte	.LVL78
 11453 0410 0400     		.2byte	0x4
 11454 0412 74       		.byte	0x74
 11455 0413 E000     		.sleb128 96
 11456 0415 9F       		.byte	0x9f
 11457 0416 BA010000 		.4byte	.LVL78
 11458 041a C8010000 		.4byte	.LVL79
 11459 041e 0100     		.2byte	0x1
 11460 0420 56       		.byte	0x56
 11461 0421 00000000 		.4byte	0
 11462 0425 00000000 		.4byte	0
 11463              	.LLST36:
 11464 0429 00000000 		.4byte	.LVL86
 11465 042d 12000000 		.4byte	.LVL87
 11466 0431 0100     		.2byte	0x1
 11467 0433 50       		.byte	0x50
 11468 0434 12000000 		.4byte	.LVL87
 11469 0438 EA050000 		.4byte	.LFE177
 11470 043c 0400     		.2byte	0x4
 11471 043e F3       		.byte	0xf3
ARM GAS  C:\Users\haske\AppData\Local\Temp\cc1ymag8.s 			page 230


 11472 043f 01       		.uleb128 0x1
 11473 0440 50       		.byte	0x50
 11474 0441 9F       		.byte	0x9f
 11475 0442 00000000 		.4byte	0
 11476 0446 00000000 		.4byte	0
 11477              	.LLST37:
 11478 044a 00000000 		.4byte	.LVL86
 11479 044e 15000000 		.4byte	.LVL88-1
 11480 0452 0100     		.2byte	0x1
 11481 0454 51       		.byte	0x51
 11482 0455 15000000 		.4byte	.LVL88-1
 11483 0459 58000000 		.4byte	.LVL99
 11484 045d 0100     		.2byte	0x1
 11485 045f 54       		.byte	0x54
 11486 0460 58000000 		.4byte	.LVL99
 11487 0464 5A000000 		.4byte	.LVL100
 11488 0468 0400     		.2byte	0x4
 11489 046a F3       		.byte	0xf3
 11490 046b 01       		.uleb128 0x1
 11491 046c 51       		.byte	0x51
 11492 046d 9F       		.byte	0x9f
 11493 046e 5A000000 		.4byte	.LVL100
 11494 0472 5C000000 		.4byte	.LVL101
 11495 0476 0100     		.2byte	0x1
 11496 0478 54       		.byte	0x54
 11497 0479 5C000000 		.4byte	.LVL101
 11498 047d DA000000 		.4byte	.LVL125
 11499 0481 0400     		.2byte	0x4
 11500 0483 F3       		.byte	0xf3
 11501 0484 01       		.uleb128 0x1
 11502 0485 51       		.byte	0x51
 11503 0486 9F       		.byte	0x9f
 11504 0487 DA000000 		.4byte	.LVL125
 11505 048b 1C010000 		.4byte	.LVL132
 11506 048f 0100     		.2byte	0x1
 11507 0491 54       		.byte	0x54
 11508 0492 1C010000 		.4byte	.LVL132
 11509 0496 68020000 		.4byte	.LVL158
 11510 049a 0400     		.2byte	0x4
 11511 049c F3       		.byte	0xf3
 11512 049d 01       		.uleb128 0x1
 11513 049e 51       		.byte	0x51
 11514 049f 9F       		.byte	0x9f
 11515 04a0 68020000 		.4byte	.LVL158
 11516 04a4 7C020000 		.4byte	.LVL160
 11517 04a8 0100     		.2byte	0x1
 11518 04aa 54       		.byte	0x54
 11519 04ab 7C020000 		.4byte	.LVL160
 11520 04af AE030000 		.4byte	.LVL208
 11521 04b3 0400     		.2byte	0x4
 11522 04b5 F3       		.byte	0xf3
 11523 04b6 01       		.uleb128 0x1
 11524 04b7 51       		.byte	0x51
 11525 04b8 9F       		.byte	0x9f
 11526 04b9 AE030000 		.4byte	.LVL208
 11527 04bd D8030000 		.4byte	.LVL213
 11528 04c1 0100     		.2byte	0x1
ARM GAS  C:\Users\haske\AppData\Local\Temp\cc1ymag8.s 			page 231


 11529 04c3 54       		.byte	0x54
 11530 04c4 D8030000 		.4byte	.LVL213
 11531 04c8 3A040000 		.4byte	.LVL222
 11532 04cc 0400     		.2byte	0x4
 11533 04ce F3       		.byte	0xf3
 11534 04cf 01       		.uleb128 0x1
 11535 04d0 51       		.byte	0x51
 11536 04d1 9F       		.byte	0x9f
 11537 04d2 3A040000 		.4byte	.LVL222
 11538 04d6 DC050000 		.4byte	.LVL282
 11539 04da 0100     		.2byte	0x1
 11540 04dc 54       		.byte	0x54
 11541 04dd DC050000 		.4byte	.LVL282
 11542 04e1 EA050000 		.4byte	.LFE177
 11543 04e5 0400     		.2byte	0x4
 11544 04e7 F3       		.byte	0xf3
 11545 04e8 01       		.uleb128 0x1
 11546 04e9 51       		.byte	0x51
 11547 04ea 9F       		.byte	0x9f
 11548 04eb 00000000 		.4byte	0
 11549 04ef 00000000 		.4byte	0
 11550              	.LLST38:
 11551 04f3 16000000 		.4byte	.LVL88
 11552 04f7 1E000000 		.4byte	.LVL89
 11553 04fb 0100     		.2byte	0x1
 11554 04fd 50       		.byte	0x50
 11555 04fe AC030000 		.4byte	.LVL207
 11556 0502 AE030000 		.4byte	.LVL208
 11557 0506 0100     		.2byte	0x1
 11558 0508 50       		.byte	0x50
 11559 0509 00000000 		.4byte	0
 11560 050d 00000000 		.4byte	0
 11561              	.LLST39:
 11562 0511 24000000 		.4byte	.LVL91
 11563 0515 26000000 		.4byte	.LVL92
 11564 0519 0100     		.2byte	0x1
 11565 051b 50       		.byte	0x50
 11566 051c 26000000 		.4byte	.LVL92
 11567 0520 4E000000 		.4byte	.LVL98
 11568 0524 0100     		.2byte	0x1
 11569 0526 56       		.byte	0x56
 11570 0527 DA000000 		.4byte	.LVL125
 11571 052b 14010000 		.4byte	.LVL130
 11572 052f 0100     		.2byte	0x1
 11573 0531 56       		.byte	0x56
 11574 0532 68020000 		.4byte	.LVL158
 11575 0536 94020000 		.4byte	.LVL163
 11576 053a 0100     		.2byte	0x1
 11577 053c 56       		.byte	0x56
 11578 053d AE030000 		.4byte	.LVL208
 11579 0541 D2030000 		.4byte	.LVL211
 11580 0545 0100     		.2byte	0x1
 11581 0547 56       		.byte	0x56
 11582 0548 3A040000 		.4byte	.LVL222
 11583 054c C2040000 		.4byte	.LVL239
 11584 0550 0100     		.2byte	0x1
 11585 0552 56       		.byte	0x56
ARM GAS  C:\Users\haske\AppData\Local\Temp\cc1ymag8.s 			page 232


 11586 0553 54050000 		.4byte	.LVL255
 11587 0557 DC050000 		.4byte	.LVL282
 11588 055b 0100     		.2byte	0x1
 11589 055d 56       		.byte	0x56
 11590 055e 00000000 		.4byte	0
 11591 0562 00000000 		.4byte	0
 11592              	.LLST40:
 11593 0566 2C000000 		.4byte	.LVL94
 11594 056a 2F000000 		.4byte	.LVL95-1
 11595 056e 0100     		.2byte	0x1
 11596 0570 50       		.byte	0x50
 11597 0571 2F000000 		.4byte	.LVL95-1
 11598 0575 AA000000 		.4byte	.LVL115
 11599 0579 0100     		.2byte	0x1
 11600 057b 55       		.byte	0x55
 11601 057c AA000000 		.4byte	.LVL115
 11602 0580 DA000000 		.4byte	.LVL125
 11603 0584 0400     		.2byte	0x4
 11604 0586 75       		.byte	0x75
 11605 0587 A07F     		.sleb128 -96
 11606 0589 9F       		.byte	0x9f
 11607 058a DA000000 		.4byte	.LVL125
 11608 058e DC050000 		.4byte	.LVL282
 11609 0592 0100     		.2byte	0x1
 11610 0594 55       		.byte	0x55
 11611 0595 00000000 		.4byte	0
 11612 0599 00000000 		.4byte	0
 11613              	.LLST42:
 11614 059d 2C000000 		.4byte	.LVL94
 11615 05a1 2F000000 		.4byte	.LVL95-1
 11616 05a5 0100     		.2byte	0x1
 11617 05a7 50       		.byte	0x50
 11618 05a8 2F000000 		.4byte	.LVL95-1
 11619 05ac 42000000 		.4byte	.LVL96
 11620 05b0 0100     		.2byte	0x1
 11621 05b2 55       		.byte	0x55
 11622 05b3 00000000 		.4byte	0
 11623 05b7 00000000 		.4byte	0
 11624              	.LLST43:
 11625 05bb 30000000 		.4byte	.LVL95
 11626 05bf 42000000 		.4byte	.LVL96
 11627 05c3 0100     		.2byte	0x1
 11628 05c5 50       		.byte	0x50
 11629 05c6 00000000 		.4byte	0
 11630 05ca 00000000 		.4byte	0
 11631              	.LLST44:
 11632 05ce 4E000000 		.4byte	.LVL98
 11633 05d2 84000000 		.4byte	.LVL110
 11634 05d6 0100     		.2byte	0x1
 11635 05d8 50       		.byte	0x50
 11636 05d9 84000000 		.4byte	.LVL110
 11637 05dd DA000000 		.4byte	.LVL125
 11638 05e1 0100     		.2byte	0x1
 11639 05e3 56       		.byte	0x56
 11640 05e4 00000000 		.4byte	0
 11641 05e8 00000000 		.4byte	0
 11642              	.LLST45:
ARM GAS  C:\Users\haske\AppData\Local\Temp\cc1ymag8.s 			page 233


 11643 05ec 5C000000 		.4byte	.LVL101
 11644 05f0 DA000000 		.4byte	.LVL125
 11645 05f4 0100     		.2byte	0x1
 11646 05f6 54       		.byte	0x54
 11647 05f7 00000000 		.4byte	0
 11648 05fb 00000000 		.4byte	0
 11649              	.LLST46:
 11650 05ff 5C000000 		.4byte	.LVL101
 11651 0603 68000000 		.4byte	.LVL103
 11652 0607 0400     		.2byte	0x4
 11653 0609 75       		.byte	0x75
 11654 060a E800     		.sleb128 104
 11655 060c 9F       		.byte	0x9f
 11656 060d 68000000 		.4byte	.LVL103
 11657 0611 7C000000 		.4byte	.LVL108
 11658 0615 0100     		.2byte	0x1
 11659 0617 53       		.byte	0x53
 11660 0618 7C000000 		.4byte	.LVL108
 11661 061c 7E000000 		.4byte	.LVL109
 11662 0620 0400     		.2byte	0x4
 11663 0622 75       		.byte	0x75
 11664 0623 E800     		.sleb128 104
 11665 0625 9F       		.byte	0x9f
 11666 0626 00000000 		.4byte	0
 11667 062a 00000000 		.4byte	0
 11668              	.LLST47:
 11669 062e 5C000000 		.4byte	.LVL101
 11670 0632 62000000 		.4byte	.LVL102
 11671 0636 0300     		.2byte	0x3
 11672 0638 91       		.byte	0x91
 11673 0639 50       		.sleb128 -48
 11674 063a 9F       		.byte	0x9f
 11675 063b 62000000 		.4byte	.LVL102
 11676 063f 6C000000 		.4byte	.LVL104
 11677 0643 0100     		.2byte	0x1
 11678 0645 52       		.byte	0x52
 11679 0646 6C000000 		.4byte	.LVL104
 11680 064a 6E000000 		.4byte	.LVL105
 11681 064e 0300     		.2byte	0x3
 11682 0650 91       		.byte	0x91
 11683 0651 50       		.sleb128 -48
 11684 0652 9F       		.byte	0x9f
 11685 0653 6E000000 		.4byte	.LVL105
 11686 0657 74000000 		.4byte	.LVL106
 11687 065b 0100     		.2byte	0x1
 11688 065d 51       		.byte	0x51
 11689 065e 74000000 		.4byte	.LVL106
 11690 0662 76000000 		.4byte	.LVL107
 11691 0666 0300     		.2byte	0x3
 11692 0668 91       		.byte	0x91
 11693 0669 50       		.sleb128 -48
 11694 066a 9F       		.byte	0x9f
 11695 066b 76000000 		.4byte	.LVL107
 11696 066f 7E000000 		.4byte	.LVL109
 11697 0673 0100     		.2byte	0x1
 11698 0675 51       		.byte	0x51
 11699 0676 00000000 		.4byte	0
ARM GAS  C:\Users\haske\AppData\Local\Temp\cc1ymag8.s 			page 234


 11700 067a 00000000 		.4byte	0
 11701              	.LLST48:
 11702 067e A0000000 		.4byte	.LVL113
 11703 0682 AA000000 		.4byte	.LVL115
 11704 0686 0400     		.2byte	0x4
 11705 0688 75       		.byte	0x75
 11706 0689 E000     		.sleb128 96
 11707 068b 9F       		.byte	0x9f
 11708 068c AA000000 		.4byte	.LVL115
 11709 0690 C2000000 		.4byte	.LVL122
 11710 0694 0100     		.2byte	0x1
 11711 0696 55       		.byte	0x55
 11712 0697 00000000 		.4byte	0
 11713 069b 00000000 		.4byte	0
 11714              	.LLST49:
 11715 069f A0000000 		.4byte	.LVL113
 11716 06a3 A6000000 		.4byte	.LVL114
 11717 06a7 0300     		.2byte	0x3
 11718 06a9 91       		.byte	0x91
 11719 06aa 50       		.sleb128 -48
 11720 06ab 9F       		.byte	0x9f
 11721 06ac A6000000 		.4byte	.LVL114
 11722 06b0 AE000000 		.4byte	.LVL116
 11723 06b4 0100     		.2byte	0x1
 11724 06b6 52       		.byte	0x52
 11725 06b7 AE000000 		.4byte	.LVL116
 11726 06bb B0000000 		.4byte	.LVL117
 11727 06bf 0300     		.2byte	0x3
 11728 06c1 91       		.byte	0x91
 11729 06c2 50       		.sleb128 -48
 11730 06c3 9F       		.byte	0x9f
 11731 06c4 B0000000 		.4byte	.LVL117
 11732 06c8 B6000000 		.4byte	.LVL118
 11733 06cc 0100     		.2byte	0x1
 11734 06ce 52       		.byte	0x52
 11735 06cf B6000000 		.4byte	.LVL118
 11736 06d3 B8000000 		.4byte	.LVL119
 11737 06d7 0300     		.2byte	0x3
 11738 06d9 91       		.byte	0x91
 11739 06da 50       		.sleb128 -48
 11740 06db 9F       		.byte	0x9f
 11741 06dc B8000000 		.4byte	.LVL119
 11742 06e0 BE000000 		.4byte	.LVL120
 11743 06e4 0100     		.2byte	0x1
 11744 06e6 52       		.byte	0x52
 11745 06e7 BE000000 		.4byte	.LVL120
 11746 06eb C0000000 		.4byte	.LVL121
 11747 06ef 0300     		.2byte	0x3
 11748 06f1 91       		.byte	0x91
 11749 06f2 50       		.sleb128 -48
 11750 06f3 9F       		.byte	0x9f
 11751 06f4 C0000000 		.4byte	.LVL121
 11752 06f8 C2000000 		.4byte	.LVL122
 11753 06fc 0100     		.2byte	0x1
 11754 06fe 52       		.byte	0x52
 11755 06ff 00000000 		.4byte	0
 11756 0703 00000000 		.4byte	0
ARM GAS  C:\Users\haske\AppData\Local\Temp\cc1ymag8.s 			page 235


 11757              	.LLST50:
 11758 0707 1C010000 		.4byte	.LVL132
 11759 070b AA010000 		.4byte	.LVL136
 11760 070f 0A00     		.2byte	0xa
 11761 0711 76       		.byte	0x76
 11762 0712 00       		.sleb128 0
 11763 0713 40       		.byte	0x40
 11764 0714 24       		.byte	0x24
 11765 0715 74       		.byte	0x74
 11766 0716 00       		.sleb128 0
 11767 0717 40       		.byte	0x40
 11768 0718 24       		.byte	0x24
 11769 0719 2A       		.byte	0x2a
 11770 071a 9F       		.byte	0x9f
 11771 071b EA010000 		.4byte	.LVL146
 11772 071f F4010000 		.4byte	.LVL147
 11773 0723 0A00     		.2byte	0xa
 11774 0725 76       		.byte	0x76
 11775 0726 00       		.sleb128 0
 11776 0727 40       		.byte	0x40
 11777 0728 24       		.byte	0x24
 11778 0729 74       		.byte	0x74
 11779 072a 00       		.sleb128 0
 11780 072b 40       		.byte	0x40
 11781 072c 24       		.byte	0x24
 11782 072d 2A       		.byte	0x2a
 11783 072e 9F       		.byte	0x9f
 11784 072f 00000000 		.4byte	0
 11785 0733 00000000 		.4byte	0
 11786              	.LLST51:
 11787 0737 A6010000 		.4byte	.LVL135
 11788 073b D2010000 		.4byte	.LVL141
 11789 073f 0100     		.2byte	0x1
 11790 0741 51       		.byte	0x51
 11791 0742 D8010000 		.4byte	.LVL142
 11792 0746 E4010000 		.4byte	.LVL145
 11793 074a 0100     		.2byte	0x1
 11794 074c 51       		.byte	0x51
 11795 074d 28020000 		.4byte	.LVL148
 11796 0751 50020000 		.4byte	.LVL153
 11797 0755 0100     		.2byte	0x1
 11798 0757 51       		.byte	0x51
 11799 0758 56020000 		.4byte	.LVL154
 11800 075c 62020000 		.4byte	.LVL157
 11801 0760 0100     		.2byte	0x1
 11802 0762 51       		.byte	0x51
 11803 0763 00000000 		.4byte	0
 11804 0767 00000000 		.4byte	0
 11805              	.LLST52:
 11806 076b C2010000 		.4byte	.LVL137
 11807 076f C8010000 		.4byte	.LVL138
 11808 0773 0100     		.2byte	0x1
 11809 0775 53       		.byte	0x53
 11810 0776 C8010000 		.4byte	.LVL138
 11811 077a CA010000 		.4byte	.LVL139
 11812 077e 2A00     		.2byte	0x2a
 11813 0780 73       		.byte	0x73
ARM GAS  C:\Users\haske\AppData\Local\Temp\cc1ymag8.s 			page 236


 11814 0781 EC00     		.sleb128 108
 11815 0783 94       		.byte	0x94
 11816 0784 02       		.byte	0x2
 11817 0785 40       		.byte	0x40
 11818 0786 24       		.byte	0x24
 11819 0787 40       		.byte	0x40
 11820 0788 26       		.byte	0x26
 11821 0789 74       		.byte	0x74
 11822 078a 00       		.sleb128 0
 11823 078b 1C       		.byte	0x1c
 11824 078c 4F       		.byte	0x4f
 11825 078d 25       		.byte	0x25
 11826 078e 73       		.byte	0x73
 11827 078f EC00     		.sleb128 108
 11828 0791 94       		.byte	0x94
 11829 0792 02       		.byte	0x2
 11830 0793 40       		.byte	0x40
 11831 0794 24       		.byte	0x24
 11832 0795 40       		.byte	0x40
 11833 0796 26       		.byte	0x26
 11834 0797 74       		.byte	0x74
 11835 0798 00       		.sleb128 0
 11836 0799 1C       		.byte	0x1c
 11837 079a 22       		.byte	0x22
 11838 079b 31       		.byte	0x31
 11839 079c 26       		.byte	0x26
 11840 079d 70       		.byte	0x70
 11841 079e 00       		.sleb128 0
 11842 079f 1C       		.byte	0x1c
 11843 07a0 72       		.byte	0x72
 11844 07a1 00       		.sleb128 0
 11845 07a2 22       		.byte	0x22
 11846 07a3 74       		.byte	0x74
 11847 07a4 00       		.sleb128 0
 11848 07a5 22       		.byte	0x22
 11849 07a6 72       		.byte	0x72
 11850 07a7 00       		.sleb128 0
 11851 07a8 27       		.byte	0x27
 11852 07a9 9F       		.byte	0x9f
 11853 07aa CA010000 		.4byte	.LVL139
 11854 07ae CC010000 		.4byte	.LVL140
 11855 07b2 2A00     		.2byte	0x2a
 11856 07b4 75       		.byte	0x75
 11857 07b5 EC00     		.sleb128 108
 11858 07b7 94       		.byte	0x94
 11859 07b8 02       		.byte	0x2
 11860 07b9 40       		.byte	0x40
 11861 07ba 24       		.byte	0x24
 11862 07bb 40       		.byte	0x40
 11863 07bc 26       		.byte	0x26
 11864 07bd 74       		.byte	0x74
 11865 07be 00       		.sleb128 0
 11866 07bf 1C       		.byte	0x1c
 11867 07c0 4F       		.byte	0x4f
 11868 07c1 25       		.byte	0x25
 11869 07c2 75       		.byte	0x75
 11870 07c3 EC00     		.sleb128 108
ARM GAS  C:\Users\haske\AppData\Local\Temp\cc1ymag8.s 			page 237


 11871 07c5 94       		.byte	0x94
 11872 07c6 02       		.byte	0x2
 11873 07c7 40       		.byte	0x40
 11874 07c8 24       		.byte	0x24
 11875 07c9 40       		.byte	0x40
 11876 07ca 26       		.byte	0x26
 11877 07cb 74       		.byte	0x74
 11878 07cc 00       		.sleb128 0
 11879 07cd 1C       		.byte	0x1c
 11880 07ce 22       		.byte	0x22
 11881 07cf 31       		.byte	0x31
 11882 07d0 26       		.byte	0x26
 11883 07d1 70       		.byte	0x70
 11884 07d2 00       		.sleb128 0
 11885 07d3 1C       		.byte	0x1c
 11886 07d4 72       		.byte	0x72
 11887 07d5 00       		.sleb128 0
 11888 07d6 22       		.byte	0x22
 11889 07d7 74       		.byte	0x74
 11890 07d8 00       		.sleb128 0
 11891 07d9 22       		.byte	0x22
 11892 07da 72       		.byte	0x72
 11893 07db 00       		.sleb128 0
 11894 07dc 27       		.byte	0x27
 11895 07dd 9F       		.byte	0x9f
 11896 07de D8010000 		.4byte	.LVL142
 11897 07e2 DA010000 		.4byte	.LVL143
 11898 07e6 0100     		.2byte	0x1
 11899 07e8 53       		.byte	0x53
 11900 07e9 DA010000 		.4byte	.LVL143
 11901 07ed DE010000 		.4byte	.LVL144
 11902 07f1 2A00     		.2byte	0x2a
 11903 07f3 75       		.byte	0x75
 11904 07f4 EC00     		.sleb128 108
 11905 07f6 94       		.byte	0x94
 11906 07f7 02       		.byte	0x2
 11907 07f8 40       		.byte	0x40
 11908 07f9 24       		.byte	0x24
 11909 07fa 40       		.byte	0x40
 11910 07fb 26       		.byte	0x26
 11911 07fc 74       		.byte	0x74
 11912 07fd 00       		.sleb128 0
 11913 07fe 1C       		.byte	0x1c
 11914 07ff 4F       		.byte	0x4f
 11915 0800 25       		.byte	0x25
 11916 0801 75       		.byte	0x75
 11917 0802 EC00     		.sleb128 108
 11918 0804 94       		.byte	0x94
 11919 0805 02       		.byte	0x2
 11920 0806 40       		.byte	0x40
 11921 0807 24       		.byte	0x24
 11922 0808 40       		.byte	0x40
 11923 0809 26       		.byte	0x26
 11924 080a 74       		.byte	0x74
 11925 080b 00       		.sleb128 0
 11926 080c 1C       		.byte	0x1c
 11927 080d 22       		.byte	0x22
ARM GAS  C:\Users\haske\AppData\Local\Temp\cc1ymag8.s 			page 238


 11928 080e 31       		.byte	0x31
 11929 080f 26       		.byte	0x26
 11930 0810 70       		.byte	0x70
 11931 0811 00       		.sleb128 0
 11932 0812 1C       		.byte	0x1c
 11933 0813 72       		.byte	0x72
 11934 0814 00       		.sleb128 0
 11935 0815 22       		.byte	0x22
 11936 0816 74       		.byte	0x74
 11937 0817 00       		.sleb128 0
 11938 0818 22       		.byte	0x22
 11939 0819 72       		.byte	0x72
 11940 081a 00       		.sleb128 0
 11941 081b 27       		.byte	0x27
 11942 081c 9F       		.byte	0x9f
 11943 081d 40020000 		.4byte	.LVL149
 11944 0821 46020000 		.4byte	.LVL150
 11945 0825 0100     		.2byte	0x1
 11946 0827 53       		.byte	0x53
 11947 0828 46020000 		.4byte	.LVL150
 11948 082c 48020000 		.4byte	.LVL151
 11949 0830 2A00     		.2byte	0x2a
 11950 0832 73       		.byte	0x73
 11951 0833 EE00     		.sleb128 110
 11952 0835 94       		.byte	0x94
 11953 0836 02       		.byte	0x2
 11954 0837 40       		.byte	0x40
 11955 0838 24       		.byte	0x24
 11956 0839 40       		.byte	0x40
 11957 083a 26       		.byte	0x26
 11958 083b 74       		.byte	0x74
 11959 083c 00       		.sleb128 0
 11960 083d 1C       		.byte	0x1c
 11961 083e 4F       		.byte	0x4f
 11962 083f 25       		.byte	0x25
 11963 0840 73       		.byte	0x73
 11964 0841 EE00     		.sleb128 110
 11965 0843 94       		.byte	0x94
 11966 0844 02       		.byte	0x2
 11967 0845 40       		.byte	0x40
 11968 0846 24       		.byte	0x24
 11969 0847 40       		.byte	0x40
 11970 0848 26       		.byte	0x26
 11971 0849 74       		.byte	0x74
 11972 084a 00       		.sleb128 0
 11973 084b 1C       		.byte	0x1c
 11974 084c 22       		.byte	0x22
 11975 084d 31       		.byte	0x31
 11976 084e 26       		.byte	0x26
 11977 084f 70       		.byte	0x70
 11978 0850 00       		.sleb128 0
 11979 0851 1C       		.byte	0x1c
 11980 0852 72       		.byte	0x72
 11981 0853 00       		.sleb128 0
 11982 0854 22       		.byte	0x22
 11983 0855 74       		.byte	0x74
 11984 0856 00       		.sleb128 0
ARM GAS  C:\Users\haske\AppData\Local\Temp\cc1ymag8.s 			page 239


 11985 0857 22       		.byte	0x22
 11986 0858 72       		.byte	0x72
 11987 0859 00       		.sleb128 0
 11988 085a 27       		.byte	0x27
 11989 085b 9F       		.byte	0x9f
 11990 085c 48020000 		.4byte	.LVL151
 11991 0860 4A020000 		.4byte	.LVL152
 11992 0864 2A00     		.2byte	0x2a
 11993 0866 75       		.byte	0x75
 11994 0867 EE00     		.sleb128 110
 11995 0869 94       		.byte	0x94
 11996 086a 02       		.byte	0x2
 11997 086b 40       		.byte	0x40
 11998 086c 24       		.byte	0x24
 11999 086d 40       		.byte	0x40
 12000 086e 26       		.byte	0x26
 12001 086f 74       		.byte	0x74
 12002 0870 00       		.sleb128 0
 12003 0871 1C       		.byte	0x1c
 12004 0872 4F       		.byte	0x4f
 12005 0873 25       		.byte	0x25
 12006 0874 75       		.byte	0x75
 12007 0875 EE00     		.sleb128 110
 12008 0877 94       		.byte	0x94
 12009 0878 02       		.byte	0x2
 12010 0879 40       		.byte	0x40
 12011 087a 24       		.byte	0x24
 12012 087b 40       		.byte	0x40
 12013 087c 26       		.byte	0x26
 12014 087d 74       		.byte	0x74
 12015 087e 00       		.sleb128 0
 12016 087f 1C       		.byte	0x1c
 12017 0880 22       		.byte	0x22
 12018 0881 31       		.byte	0x31
 12019 0882 26       		.byte	0x26
 12020 0883 70       		.byte	0x70
 12021 0884 00       		.sleb128 0
 12022 0885 1C       		.byte	0x1c
 12023 0886 72       		.byte	0x72
 12024 0887 00       		.sleb128 0
 12025 0888 22       		.byte	0x22
 12026 0889 74       		.byte	0x74
 12027 088a 00       		.sleb128 0
 12028 088b 22       		.byte	0x22
 12029 088c 72       		.byte	0x72
 12030 088d 00       		.sleb128 0
 12031 088e 27       		.byte	0x27
 12032 088f 9F       		.byte	0x9f
 12033 0890 56020000 		.4byte	.LVL154
 12034 0894 58020000 		.4byte	.LVL155
 12035 0898 0100     		.2byte	0x1
 12036 089a 53       		.byte	0x53
 12037 089b 58020000 		.4byte	.LVL155
 12038 089f 5C020000 		.4byte	.LVL156
 12039 08a3 2A00     		.2byte	0x2a
 12040 08a5 75       		.byte	0x75
 12041 08a6 EE00     		.sleb128 110
ARM GAS  C:\Users\haske\AppData\Local\Temp\cc1ymag8.s 			page 240


 12042 08a8 94       		.byte	0x94
 12043 08a9 02       		.byte	0x2
 12044 08aa 40       		.byte	0x40
 12045 08ab 24       		.byte	0x24
 12046 08ac 40       		.byte	0x40
 12047 08ad 26       		.byte	0x26
 12048 08ae 74       		.byte	0x74
 12049 08af 00       		.sleb128 0
 12050 08b0 1C       		.byte	0x1c
 12051 08b1 4F       		.byte	0x4f
 12052 08b2 25       		.byte	0x25
 12053 08b3 75       		.byte	0x75
 12054 08b4 EE00     		.sleb128 110
 12055 08b6 94       		.byte	0x94
 12056 08b7 02       		.byte	0x2
 12057 08b8 40       		.byte	0x40
 12058 08b9 24       		.byte	0x24
 12059 08ba 40       		.byte	0x40
 12060 08bb 26       		.byte	0x26
 12061 08bc 74       		.byte	0x74
 12062 08bd 00       		.sleb128 0
 12063 08be 1C       		.byte	0x1c
 12064 08bf 22       		.byte	0x22
 12065 08c0 31       		.byte	0x31
 12066 08c1 26       		.byte	0x26
 12067 08c2 70       		.byte	0x70
 12068 08c3 00       		.sleb128 0
 12069 08c4 1C       		.byte	0x1c
 12070 08c5 72       		.byte	0x72
 12071 08c6 00       		.sleb128 0
 12072 08c7 22       		.byte	0x22
 12073 08c8 74       		.byte	0x74
 12074 08c9 00       		.sleb128 0
 12075 08ca 22       		.byte	0x22
 12076 08cb 72       		.byte	0x72
 12077 08cc 00       		.sleb128 0
 12078 08cd 27       		.byte	0x27
 12079 08ce 9F       		.byte	0x9f
 12080 08cf 00000000 		.4byte	0
 12081 08d3 00000000 		.4byte	0
 12082              	.LLST53:
 12083 08d7 1C010000 		.4byte	.LVL132
 12084 08db 28010000 		.4byte	.LVL134
 12085 08df 0200     		.2byte	0x2
 12086 08e1 30       		.byte	0x30
 12087 08e2 9F       		.byte	0x9f
 12088 08e3 00000000 		.4byte	0
 12089 08e7 00000000 		.4byte	0
 12090              	.LLST54:
 12091 08eb 1C010000 		.4byte	.LVL132
 12092 08ef 28010000 		.4byte	.LVL134
 12093 08f3 0100     		.2byte	0x1
 12094 08f5 55       		.byte	0x55
 12095 08f6 00000000 		.4byte	0
 12096 08fa 00000000 		.4byte	0
 12097              	.LLST55:
 12098 08fe 7C020000 		.4byte	.LVL160
ARM GAS  C:\Users\haske\AppData\Local\Temp\cc1ymag8.s 			page 241


 12099 0902 7F020000 		.4byte	.LVL161-1
 12100 0906 0100     		.2byte	0x1
 12101 0908 50       		.byte	0x50
 12102 0909 7F020000 		.4byte	.LVL161-1
 12103 090d AA020000 		.4byte	.LVL167
 12104 0911 0100     		.2byte	0x1
 12105 0913 54       		.byte	0x54
 12106 0914 18030000 		.4byte	.LVL184
 12107 0918 32030000 		.4byte	.LVL189
 12108 091c 0100     		.2byte	0x1
 12109 091e 54       		.byte	0x54
 12110 091f 00000000 		.4byte	0
 12111 0923 00000000 		.4byte	0
 12112              	.LLST56:
 12113 0927 8E020000 		.4byte	.LVL162
 12114 092b EA020000 		.4byte	.LVL178
 12115 092f 0200     		.2byte	0x2
 12116 0931 30       		.byte	0x30
 12117 0932 9F       		.byte	0x9f
 12118 0933 EA020000 		.4byte	.LVL178
 12119 0937 EC020000 		.4byte	.LVL179
 12120 093b 0100     		.2byte	0x1
 12121 093d 53       		.byte	0x53
 12122 093e EC020000 		.4byte	.LVL179
 12123 0942 FA020000 		.4byte	.LVL180
 12124 0946 0200     		.2byte	0x2
 12125 0948 30       		.byte	0x30
 12126 0949 9F       		.byte	0x9f
 12127 094a FA020000 		.4byte	.LVL180
 12128 094e FC020000 		.4byte	.LVL181
 12129 0952 0100     		.2byte	0x1
 12130 0954 53       		.byte	0x53
 12131 0955 0A030000 		.4byte	.LVL182
 12132 0959 18030000 		.4byte	.LVL184
 12133 095d 0100     		.2byte	0x1
 12134 095f 50       		.byte	0x50
 12135 0960 18030000 		.4byte	.LVL184
 12136 0964 4C030000 		.4byte	.LVL194
 12137 0968 0200     		.2byte	0x2
 12138 096a 30       		.byte	0x30
 12139 096b 9F       		.byte	0x9f
 12140 096c 4C030000 		.4byte	.LVL194
 12141 0970 50030000 		.4byte	.LVL195
 12142 0974 0600     		.2byte	0x6
 12143 0976 73       		.byte	0x73
 12144 0977 00       		.sleb128 0
 12145 0978 74       		.byte	0x74
 12146 0979 00       		.sleb128 0
 12147 097a 1C       		.byte	0x1c
 12148 097b 9F       		.byte	0x9f
 12149 097c 50030000 		.4byte	.LVL195
 12150 0980 5D030000 		.4byte	.LVL196-1
 12151 0984 0C00     		.2byte	0xc
 12152 0986 91       		.byte	0x91
 12153 0987 52       		.sleb128 -46
 12154 0988 94       		.byte	0x94
 12155 0989 02       		.byte	0x2
ARM GAS  C:\Users\haske\AppData\Local\Temp\cc1ymag8.s 			page 242


 12156 098a 40       		.byte	0x40
 12157 098b 24       		.byte	0x24
 12158 098c 40       		.byte	0x40
 12159 098d 26       		.byte	0x26
 12160 098e 74       		.byte	0x74
 12161 098f 00       		.sleb128 0
 12162 0990 1C       		.byte	0x1c
 12163 0991 9F       		.byte	0x9f
 12164 0992 5E030000 		.4byte	.LVL196
 12165 0996 7E030000 		.4byte	.LVL202
 12166 099a 0100     		.2byte	0x1
 12167 099c 50       		.byte	0x50
 12168 099d 84030000 		.4byte	.LVL203
 12169 09a1 97030000 		.4byte	.LVL204-1
 12170 09a5 0100     		.2byte	0x1
 12171 09a7 51       		.byte	0x51
 12172 09a8 9A030000 		.4byte	.LVL205
 12173 09ac A1030000 		.4byte	.LVL206-1
 12174 09b0 0100     		.2byte	0x1
 12175 09b2 51       		.byte	0x51
 12176 09b3 00000000 		.4byte	0
 12177 09b7 00000000 		.4byte	0
 12178              	.LLST57:
 12179 09bb 94020000 		.4byte	.LVL163
 12180 09bf AE030000 		.4byte	.LVL208
 12181 09c3 0100     		.2byte	0x1
 12182 09c5 56       		.byte	0x56
 12183 09c6 00000000 		.4byte	0
 12184 09ca 00000000 		.4byte	0
 12185              	.LLST58:
 12186 09ce 66030000 		.4byte	.LVL198
 12187 09d2 AE030000 		.4byte	.LVL208
 12188 09d6 0100     		.2byte	0x1
 12189 09d8 54       		.byte	0x54
 12190 09d9 00000000 		.4byte	0
 12191 09dd 00000000 		.4byte	0
 12192              	.LLST59:
 12193 09e1 68030000 		.4byte	.LVL199
 12194 09e5 84030000 		.4byte	.LVL203
 12195 09e9 0100     		.2byte	0x1
 12196 09eb 51       		.byte	0x51
 12197 09ec 00000000 		.4byte	0
 12198 09f0 00000000 		.4byte	0
 12199              	.LLST60:
 12200 09f4 C4020000 		.4byte	.LVL172
 12201 09f8 D0020000 		.4byte	.LVL175
 12202 09fc 0100     		.2byte	0x1
 12203 09fe 50       		.byte	0x50
 12204 09ff 00000000 		.4byte	0
 12205 0a03 00000000 		.4byte	0
 12206              	.LLST61:
 12207 0a07 CA020000 		.4byte	.LVL174
 12208 0a0b 18030000 		.4byte	.LVL184
 12209 0a0f 0100     		.2byte	0x1
 12210 0a11 54       		.byte	0x54
 12211 0a12 00000000 		.4byte	0
 12212 0a16 00000000 		.4byte	0
ARM GAS  C:\Users\haske\AppData\Local\Temp\cc1ymag8.s 			page 243


 12213              	.LLST62:
 12214 0a1a 9E020000 		.4byte	.LVL165
 12215 0a1e AE020000 		.4byte	.LVL168
 12216 0a22 0200     		.2byte	0x2
 12217 0a24 30       		.byte	0x30
 12218 0a25 9F       		.byte	0x9f
 12219 0a26 00000000 		.4byte	0
 12220 0a2a 00000000 		.4byte	0
 12221              	.LLST63:
 12222 0a2e 9E020000 		.4byte	.LVL165
 12223 0a32 AE020000 		.4byte	.LVL168
 12224 0a36 0100     		.2byte	0x1
 12225 0a38 55       		.byte	0x55
 12226 0a39 00000000 		.4byte	0
 12227 0a3d 00000000 		.4byte	0
 12228              	.LLST64:
 12229 0a41 C4020000 		.4byte	.LVL172
 12230 0a45 C6020000 		.4byte	.LVL173
 12231 0a49 0100     		.2byte	0x1
 12232 0a4b 54       		.byte	0x54
 12233 0a4c 00000000 		.4byte	0
 12234 0a50 00000000 		.4byte	0
 12235              	.LLST65:
 12236 0a54 AE020000 		.4byte	.LVL168
 12237 0a58 BE020000 		.4byte	.LVL171
 12238 0a5c 0200     		.2byte	0x2
 12239 0a5e 30       		.byte	0x30
 12240 0a5f 9F       		.byte	0x9f
 12241 0a60 00000000 		.4byte	0
 12242 0a64 00000000 		.4byte	0
 12243              	.LLST66:
 12244 0a68 AE020000 		.4byte	.LVL168
 12245 0a6c BE020000 		.4byte	.LVL171
 12246 0a70 0100     		.2byte	0x1
 12247 0a72 55       		.byte	0x55
 12248 0a73 00000000 		.4byte	0
 12249 0a77 00000000 		.4byte	0
 12250              	.LLST67:
 12251 0a7b C6020000 		.4byte	.LVL173
 12252 0a7f 18030000 		.4byte	.LVL184
 12253 0a83 0100     		.2byte	0x1
 12254 0a85 57       		.byte	0x57
 12255 0a86 64030000 		.4byte	.LVL197
 12256 0a8a AE030000 		.4byte	.LVL208
 12257 0a8e 0100     		.2byte	0x1
 12258 0a90 57       		.byte	0x57
 12259 0a91 DC050000 		.4byte	.LVL282
 12260 0a95 DE050000 		.4byte	.LVL283
 12261 0a99 0100     		.2byte	0x1
 12262 0a9b 57       		.byte	0x57
 12263 0a9c 00000000 		.4byte	0
 12264 0aa0 00000000 		.4byte	0
 12265              	.LLST68:
 12266 0aa4 CA020000 		.4byte	.LVL174
 12267 0aa8 D6020000 		.4byte	.LVL177
 12268 0aac 0200     		.2byte	0x2
 12269 0aae 30       		.byte	0x30
ARM GAS  C:\Users\haske\AppData\Local\Temp\cc1ymag8.s 			page 244


 12270 0aaf 9F       		.byte	0x9f
 12271 0ab0 00000000 		.4byte	0
 12272 0ab4 00000000 		.4byte	0
 12273              	.LLST69:
 12274 0ab8 CA020000 		.4byte	.LVL174
 12275 0abc D6020000 		.4byte	.LVL177
 12276 0ac0 0100     		.2byte	0x1
 12277 0ac2 55       		.byte	0x55
 12278 0ac3 00000000 		.4byte	0
 12279 0ac7 00000000 		.4byte	0
 12280              	.LLST70:
 12281 0acb 38030000 		.4byte	.LVL190
 12282 0acf 4A030000 		.4byte	.LVL193
 12283 0ad3 0100     		.2byte	0x1
 12284 0ad5 50       		.byte	0x50
 12285 0ad6 00000000 		.4byte	0
 12286 0ada 00000000 		.4byte	0
 12287              	.LLST71:
 12288 0ade 40030000 		.4byte	.LVL192
 12289 0ae2 5D030000 		.4byte	.LVL196-1
 12290 0ae6 0100     		.2byte	0x1
 12291 0ae8 51       		.byte	0x51
 12292 0ae9 00000000 		.4byte	0
 12293 0aed 00000000 		.4byte	0
 12294              	.LLST72:
 12295 0af1 18030000 		.4byte	.LVL184
 12296 0af5 24030000 		.4byte	.LVL186
 12297 0af9 0200     		.2byte	0x2
 12298 0afb 30       		.byte	0x30
 12299 0afc 9F       		.byte	0x9f
 12300 0afd 00000000 		.4byte	0
 12301 0b01 00000000 		.4byte	0
 12302              	.LLST73:
 12303 0b05 18030000 		.4byte	.LVL184
 12304 0b09 24030000 		.4byte	.LVL186
 12305 0b0d 0100     		.2byte	0x1
 12306 0b0f 55       		.byte	0x55
 12307 0b10 00000000 		.4byte	0
 12308 0b14 00000000 		.4byte	0
 12309              	.LLST74:
 12310 0b18 3A030000 		.4byte	.LVL191
 12311 0b1c AE030000 		.4byte	.LVL208
 12312 0b20 0100     		.2byte	0x1
 12313 0b22 58       		.byte	0x58
 12314 0b23 DC050000 		.4byte	.LVL282
 12315 0b27 DE050000 		.4byte	.LVL284
 12316 0b2b 0100     		.2byte	0x1
 12317 0b2d 58       		.byte	0x58
 12318 0b2e 00000000 		.4byte	0
 12319 0b32 00000000 		.4byte	0
 12320              	.LLST75:
 12321 0b36 24030000 		.4byte	.LVL186
 12322 0b3a 32030000 		.4byte	.LVL189
 12323 0b3e 0200     		.2byte	0x2
 12324 0b40 30       		.byte	0x30
 12325 0b41 9F       		.byte	0x9f
 12326 0b42 00000000 		.4byte	0
ARM GAS  C:\Users\haske\AppData\Local\Temp\cc1ymag8.s 			page 245


 12327 0b46 00000000 		.4byte	0
 12328              	.LLST76:
 12329 0b4a 24030000 		.4byte	.LVL186
 12330 0b4e 32030000 		.4byte	.LVL189
 12331 0b52 0100     		.2byte	0x1
 12332 0b54 55       		.byte	0x55
 12333 0b55 00000000 		.4byte	0
 12334 0b59 00000000 		.4byte	0
 12335              	.LLST77:
 12336 0b5d 38030000 		.4byte	.LVL190
 12337 0b61 AE030000 		.4byte	.LVL208
 12338 0b65 0100     		.2byte	0x1
 12339 0b67 57       		.byte	0x57
 12340 0b68 DC050000 		.4byte	.LVL282
 12341 0b6c DE050000 		.4byte	.LVL283
 12342 0b70 0100     		.2byte	0x1
 12343 0b72 57       		.byte	0x57
 12344 0b73 00000000 		.4byte	0
 12345 0b77 00000000 		.4byte	0
 12346              	.LLST78:
 12347 0b7b D2030000 		.4byte	.LVL211
 12348 0b7f D5030000 		.4byte	.LVL212-1
 12349 0b83 0100     		.2byte	0x1
 12350 0b85 50       		.byte	0x50
 12351 0b86 D5030000 		.4byte	.LVL212-1
 12352 0b8a 3A040000 		.4byte	.LVL222
 12353 0b8e 0100     		.2byte	0x1
 12354 0b90 56       		.byte	0x56
 12355 0b91 00000000 		.4byte	0
 12356 0b95 00000000 		.4byte	0
 12357              	.LLST79:
 12358 0b99 D8030000 		.4byte	.LVL213
 12359 0b9d DB030000 		.4byte	.LVL214-1
 12360 0ba1 0100     		.2byte	0x1
 12361 0ba3 50       		.byte	0x50
 12362 0ba4 DB030000 		.4byte	.LVL214-1
 12363 0ba8 3A040000 		.4byte	.LVL222
 12364 0bac 0100     		.2byte	0x1
 12365 0bae 54       		.byte	0x54
 12366 0baf 00000000 		.4byte	0
 12367 0bb3 00000000 		.4byte	0
 12368              	.LLST80:
 12369 0bb7 E0030000 		.4byte	.LVL215
 12370 0bbb EE030000 		.4byte	.LVL217
 12371 0bbf 0100     		.2byte	0x1
 12372 0bc1 50       		.byte	0x50
 12373 0bc2 00000000 		.4byte	0
 12374 0bc6 00000000 		.4byte	0
 12375              	.LLST81:
 12376 0bca EC030000 		.4byte	.LVL216
 12377 0bce 04040000 		.4byte	.LVL219
 12378 0bd2 0100     		.2byte	0x1
 12379 0bd4 55       		.byte	0x55
 12380 0bd5 00000000 		.4byte	0
 12381 0bd9 00000000 		.4byte	0
 12382              	.LLST82:
 12383 0bdd F2030000 		.4byte	.LVL218
ARM GAS  C:\Users\haske\AppData\Local\Temp\cc1ymag8.s 			page 246


 12384 0be1 04040000 		.4byte	.LVL219
 12385 0be5 0100     		.2byte	0x1
 12386 0be7 50       		.byte	0x50
 12387 0be8 00000000 		.4byte	0
 12388 0bec 00000000 		.4byte	0
 12389              	.LLST83:
 12390 0bf0 46040000 		.4byte	.LVL224
 12391 0bf4 5C040000 		.4byte	.LVL225
 12392 0bf8 0100     		.2byte	0x1
 12393 0bfa 50       		.byte	0x50
 12394 0bfb 00000000 		.4byte	0
 12395 0bff 00000000 		.4byte	0
 12396              	.LLST84:
 12397 0c03 02050000 		.4byte	.LVL246
 12398 0c07 08050000 		.4byte	.LVL247
 12399 0c0b 0100     		.2byte	0x1
 12400 0c0d 53       		.byte	0x53
 12401 0c0e 08050000 		.4byte	.LVL247
 12402 0c12 2E050000 		.4byte	.LVL249
 12403 0c16 0100     		.2byte	0x1
 12404 0c18 56       		.byte	0x56
 12405 0c19 2E050000 		.4byte	.LVL249
 12406 0c1d 30050000 		.4byte	.LVL250
 12407 0c21 0300     		.2byte	0x3
 12408 0c23 76       		.byte	0x76
 12409 0c24 7E       		.sleb128 -2
 12410 0c25 9F       		.byte	0x9f
 12411 0c26 30050000 		.4byte	.LVL250
 12412 0c2a 3C050000 		.4byte	.LVL252
 12413 0c2e 0100     		.2byte	0x1
 12414 0c30 56       		.byte	0x56
 12415 0c31 3E050000 		.4byte	.LVL253
 12416 0c35 54050000 		.4byte	.LVL255
 12417 0c39 0100     		.2byte	0x1
 12418 0c3b 56       		.byte	0x56
 12419 0c3c 00000000 		.4byte	0
 12420 0c40 00000000 		.4byte	0
 12421              	.LLST85:
 12422 0c44 44050000 		.4byte	.LVL254
 12423 0c48 54050000 		.4byte	.LVL255
 12424 0c4c 0100     		.2byte	0x1
 12425 0c4e 50       		.byte	0x50
 12426 0c4f 00000000 		.4byte	0
 12427 0c53 00000000 		.4byte	0
 12428              	.LLST86:
 12429 0c57 6C040000 		.4byte	.LVL227
 12430 0c5b 7E040000 		.4byte	.LVL229
 12431 0c5f 0400     		.2byte	0x4
 12432 0c61 48       		.byte	0x48
 12433 0c62 3D       		.byte	0x3d
 12434 0c63 24       		.byte	0x24
 12435 0c64 9F       		.byte	0x9f
 12436 0c65 00000000 		.4byte	0
 12437 0c69 00000000 		.4byte	0
 12438              	.LLST87:
 12439 0c6d 6C040000 		.4byte	.LVL227
 12440 0c71 7E040000 		.4byte	.LVL229
ARM GAS  C:\Users\haske\AppData\Local\Temp\cc1ymag8.s 			page 247


 12441 0c75 0100     		.2byte	0x1
 12442 0c77 55       		.byte	0x55
 12443 0c78 00000000 		.4byte	0
 12444 0c7c 00000000 		.4byte	0
 12445              	.LLST88:
 12446 0c80 7E040000 		.4byte	.LVL229
 12447 0c84 8C040000 		.4byte	.LVL231
 12448 0c88 0400     		.2byte	0x4
 12449 0c8a 48       		.byte	0x48
 12450 0c8b 3D       		.byte	0x3d
 12451 0c8c 24       		.byte	0x24
 12452 0c8d 9F       		.byte	0x9f
 12453 0c8e 00000000 		.4byte	0
 12454 0c92 00000000 		.4byte	0
 12455              	.LLST89:
 12456 0c96 7E040000 		.4byte	.LVL229
 12457 0c9a 8C040000 		.4byte	.LVL231
 12458 0c9e 0100     		.2byte	0x1
 12459 0ca0 55       		.byte	0x55
 12460 0ca1 00000000 		.4byte	0
 12461 0ca5 00000000 		.4byte	0
 12462              	.LLST90:
 12463 0ca9 8C040000 		.4byte	.LVL231
 12464 0cad 9A040000 		.4byte	.LVL233
 12465 0cb1 0400     		.2byte	0x4
 12466 0cb3 48       		.byte	0x48
 12467 0cb4 3D       		.byte	0x3d
 12468 0cb5 24       		.byte	0x24
 12469 0cb6 9F       		.byte	0x9f
 12470 0cb7 00000000 		.4byte	0
 12471 0cbb 00000000 		.4byte	0
 12472              	.LLST91:
 12473 0cbf 8C040000 		.4byte	.LVL231
 12474 0cc3 9A040000 		.4byte	.LVL233
 12475 0cc7 0100     		.2byte	0x1
 12476 0cc9 55       		.byte	0x55
 12477 0cca 00000000 		.4byte	0
 12478 0cce 00000000 		.4byte	0
 12479              	.LLST92:
 12480 0cd2 9A040000 		.4byte	.LVL233
 12481 0cd6 A8040000 		.4byte	.LVL235
 12482 0cda 0400     		.2byte	0x4
 12483 0cdc 48       		.byte	0x48
 12484 0cdd 3D       		.byte	0x3d
 12485 0cde 24       		.byte	0x24
 12486 0cdf 9F       		.byte	0x9f
 12487 0ce0 00000000 		.4byte	0
 12488 0ce4 00000000 		.4byte	0
 12489              	.LLST93:
 12490 0ce8 9A040000 		.4byte	.LVL233
 12491 0cec A8040000 		.4byte	.LVL235
 12492 0cf0 0100     		.2byte	0x1
 12493 0cf2 55       		.byte	0x55
 12494 0cf3 00000000 		.4byte	0
 12495 0cf7 00000000 		.4byte	0
 12496              	.LLST94:
 12497 0cfb A8040000 		.4byte	.LVL235
ARM GAS  C:\Users\haske\AppData\Local\Temp\cc1ymag8.s 			page 248


 12498 0cff B6040000 		.4byte	.LVL237
 12499 0d03 0400     		.2byte	0x4
 12500 0d05 48       		.byte	0x48
 12501 0d06 3D       		.byte	0x3d
 12502 0d07 24       		.byte	0x24
 12503 0d08 9F       		.byte	0x9f
 12504 0d09 00000000 		.4byte	0
 12505 0d0d 00000000 		.4byte	0
 12506              	.LLST95:
 12507 0d11 A8040000 		.4byte	.LVL235
 12508 0d15 B6040000 		.4byte	.LVL237
 12509 0d19 0100     		.2byte	0x1
 12510 0d1b 55       		.byte	0x55
 12511 0d1c 00000000 		.4byte	0
 12512 0d20 00000000 		.4byte	0
 12513              	.LLST96:
 12514 0d24 B6040000 		.4byte	.LVL237
 12515 0d28 C2040000 		.4byte	.LVL239
 12516 0d2c 0400     		.2byte	0x4
 12517 0d2e 48       		.byte	0x48
 12518 0d2f 3D       		.byte	0x3d
 12519 0d30 24       		.byte	0x24
 12520 0d31 9F       		.byte	0x9f
 12521 0d32 00000000 		.4byte	0
 12522 0d36 00000000 		.4byte	0
 12523              	.LLST97:
 12524 0d3a B6040000 		.4byte	.LVL237
 12525 0d3e C2040000 		.4byte	.LVL239
 12526 0d42 0100     		.2byte	0x1
 12527 0d44 55       		.byte	0x55
 12528 0d45 00000000 		.4byte	0
 12529 0d49 00000000 		.4byte	0
 12530              	.LLST98:
 12531 0d4d C2040000 		.4byte	.LVL239
 12532 0d51 CE040000 		.4byte	.LVL241
 12533 0d55 0400     		.2byte	0x4
 12534 0d57 48       		.byte	0x48
 12535 0d58 3D       		.byte	0x3d
 12536 0d59 24       		.byte	0x24
 12537 0d5a 9F       		.byte	0x9f
 12538 0d5b 00000000 		.4byte	0
 12539 0d5f 00000000 		.4byte	0
 12540              	.LLST99:
 12541 0d63 C2040000 		.4byte	.LVL239
 12542 0d67 CE040000 		.4byte	.LVL241
 12543 0d6b 0100     		.2byte	0x1
 12544 0d6d 55       		.byte	0x55
 12545 0d6e 00000000 		.4byte	0
 12546 0d72 00000000 		.4byte	0
 12547              	.LLST100:
 12548 0d76 60050000 		.4byte	.LVL257
 12549 0d7a 6A050000 		.4byte	.LVL258
 12550 0d7e 0100     		.2byte	0x1
 12551 0d80 53       		.byte	0x53
 12552 0d81 6A050000 		.4byte	.LVL258
 12553 0d85 72050000 		.4byte	.LVL260
 12554 0d89 0200     		.2byte	0x2
ARM GAS  C:\Users\haske\AppData\Local\Temp\cc1ymag8.s 			page 249


 12555 0d8b 70       		.byte	0x70
 12556 0d8c 00       		.sleb128 0
 12557 0d8d 82050000 		.4byte	.LVL264
 12558 0d91 84050000 		.4byte	.LVL265
 12559 0d95 0200     		.2byte	0x2
 12560 0d97 70       		.byte	0x70
 12561 0d98 00       		.sleb128 0
 12562 0d99 94050000 		.4byte	.LVL269
 12563 0d9d 9E050000 		.4byte	.LVL270
 12564 0da1 0100     		.2byte	0x1
 12565 0da3 53       		.byte	0x53
 12566 0da4 9E050000 		.4byte	.LVL270
 12567 0da8 A6050000 		.4byte	.LVL272
 12568 0dac 0200     		.2byte	0x2
 12569 0dae 70       		.byte	0x70
 12570 0daf 00       		.sleb128 0
 12571 0db0 B6050000 		.4byte	.LVL276
 12572 0db4 B8050000 		.4byte	.LVL277
 12573 0db8 0200     		.2byte	0x2
 12574 0dba 70       		.byte	0x70
 12575 0dbb 00       		.sleb128 0
 12576 0dbc 00000000 		.4byte	0
 12577 0dc0 00000000 		.4byte	0
 12578              	.LLST101:
 12579 0dc4 70050000 		.4byte	.LVL259
 12580 0dc8 76050000 		.4byte	.LVL261
 12581 0dcc 0100     		.2byte	0x1
 12582 0dce 55       		.byte	0x55
 12583 0dcf 00000000 		.4byte	0
 12584 0dd3 00000000 		.4byte	0
 12585              	.LLST102:
 12586 0dd7 78050000 		.4byte	.LVL262
 12587 0ddb 82050000 		.4byte	.LVL264
 12588 0ddf 0200     		.2byte	0x2
 12589 0de1 31       		.byte	0x31
 12590 0de2 9F       		.byte	0x9f
 12591 0de3 00000000 		.4byte	0
 12592 0de7 00000000 		.4byte	0
 12593              	.LLST103:
 12594 0deb 78050000 		.4byte	.LVL262
 12595 0def 7F050000 		.4byte	.LVL263-1
 12596 0df3 0100     		.2byte	0x1
 12597 0df5 51       		.byte	0x51
 12598 0df6 00000000 		.4byte	0
 12599 0dfa 00000000 		.4byte	0
 12600              	.LLST104:
 12601 0dfe 78050000 		.4byte	.LVL262
 12602 0e02 82050000 		.4byte	.LVL264
 12603 0e06 0100     		.2byte	0x1
 12604 0e08 55       		.byte	0x55
 12605 0e09 00000000 		.4byte	0
 12606 0e0d 00000000 		.4byte	0
 12607              	.LLST105:
 12608 0e11 82050000 		.4byte	.LVL264
 12609 0e15 88050000 		.4byte	.LVL266
 12610 0e19 0100     		.2byte	0x1
 12611 0e1b 55       		.byte	0x55
ARM GAS  C:\Users\haske\AppData\Local\Temp\cc1ymag8.s 			page 250


 12612 0e1c 00000000 		.4byte	0
 12613 0e20 00000000 		.4byte	0
 12614              	.LLST106:
 12615 0e24 8A050000 		.4byte	.LVL267
 12616 0e28 94050000 		.4byte	.LVL269
 12617 0e2c 0200     		.2byte	0x2
 12618 0e2e 31       		.byte	0x31
 12619 0e2f 9F       		.byte	0x9f
 12620 0e30 00000000 		.4byte	0
 12621 0e34 00000000 		.4byte	0
 12622              	.LLST107:
 12623 0e38 8A050000 		.4byte	.LVL267
 12624 0e3c 91050000 		.4byte	.LVL268-1
 12625 0e40 0100     		.2byte	0x1
 12626 0e42 51       		.byte	0x51
 12627 0e43 00000000 		.4byte	0
 12628 0e47 00000000 		.4byte	0
 12629              	.LLST108:
 12630 0e4b 8A050000 		.4byte	.LVL267
 12631 0e4f 94050000 		.4byte	.LVL269
 12632 0e53 0100     		.2byte	0x1
 12633 0e55 55       		.byte	0x55
 12634 0e56 00000000 		.4byte	0
 12635 0e5a 00000000 		.4byte	0
 12636              	.LLST109:
 12637 0e5e A4050000 		.4byte	.LVL271
 12638 0e62 AA050000 		.4byte	.LVL273
 12639 0e66 0100     		.2byte	0x1
 12640 0e68 55       		.byte	0x55
 12641 0e69 00000000 		.4byte	0
 12642 0e6d 00000000 		.4byte	0
 12643              	.LLST110:
 12644 0e71 AC050000 		.4byte	.LVL274
 12645 0e75 B6050000 		.4byte	.LVL276
 12646 0e79 0200     		.2byte	0x2
 12647 0e7b 31       		.byte	0x31
 12648 0e7c 9F       		.byte	0x9f
 12649 0e7d 00000000 		.4byte	0
 12650 0e81 00000000 		.4byte	0
 12651              	.LLST111:
 12652 0e85 AC050000 		.4byte	.LVL274
 12653 0e89 B3050000 		.4byte	.LVL275-1
 12654 0e8d 0100     		.2byte	0x1
 12655 0e8f 51       		.byte	0x51
 12656 0e90 00000000 		.4byte	0
 12657 0e94 00000000 		.4byte	0
 12658              	.LLST112:
 12659 0e98 AC050000 		.4byte	.LVL274
 12660 0e9c B6050000 		.4byte	.LVL276
 12661 0ea0 0100     		.2byte	0x1
 12662 0ea2 55       		.byte	0x55
 12663 0ea3 00000000 		.4byte	0
 12664 0ea7 00000000 		.4byte	0
 12665              	.LLST113:
 12666 0eab B6050000 		.4byte	.LVL276
 12667 0eaf BC050000 		.4byte	.LVL278
 12668 0eb3 0100     		.2byte	0x1
ARM GAS  C:\Users\haske\AppData\Local\Temp\cc1ymag8.s 			page 251


 12669 0eb5 55       		.byte	0x55
 12670 0eb6 00000000 		.4byte	0
 12671 0eba 00000000 		.4byte	0
 12672              	.LLST114:
 12673 0ebe BE050000 		.4byte	.LVL279
 12674 0ec2 C6050000 		.4byte	.LVL280
 12675 0ec6 0200     		.2byte	0x2
 12676 0ec8 31       		.byte	0x31
 12677 0ec9 9F       		.byte	0x9f
 12678 0eca 00000000 		.4byte	0
 12679 0ece 00000000 		.4byte	0
 12680              	.LLST115:
 12681 0ed2 BE050000 		.4byte	.LVL279
 12682 0ed6 C5050000 		.4byte	.LVL280-1
 12683 0eda 0100     		.2byte	0x1
 12684 0edc 51       		.byte	0x51
 12685 0edd 00000000 		.4byte	0
 12686 0ee1 00000000 		.4byte	0
 12687              	.LLST116:
 12688 0ee5 BE050000 		.4byte	.LVL279
 12689 0ee9 C6050000 		.4byte	.LVL280
 12690 0eed 0100     		.2byte	0x1
 12691 0eef 55       		.byte	0x55
 12692 0ef0 00000000 		.4byte	0
 12693 0ef4 00000000 		.4byte	0
 12694              	.LLST117:
 12695 0ef8 00000000 		.4byte	.LVL285
 12696 0efc 1C000000 		.4byte	.LVL288
 12697 0f00 0100     		.2byte	0x1
 12698 0f02 50       		.byte	0x50
 12699 0f03 1C000000 		.4byte	.LVL288
 12700 0f07 58000000 		.4byte	.LFE176
 12701 0f0b 0400     		.2byte	0x4
 12702 0f0d F3       		.byte	0xf3
 12703 0f0e 01       		.uleb128 0x1
 12704 0f0f 50       		.byte	0x50
 12705 0f10 9F       		.byte	0x9f
 12706 0f11 00000000 		.4byte	0
 12707 0f15 00000000 		.4byte	0
 12708              	.LLST118:
 12709 0f19 00000000 		.4byte	.LVL285
 12710 0f1d 0E000000 		.4byte	.LVL287
 12711 0f21 0100     		.2byte	0x1
 12712 0f23 51       		.byte	0x51
 12713 0f24 0E000000 		.4byte	.LVL287
 12714 0f28 56000000 		.4byte	.LVL295
 12715 0f2c 0100     		.2byte	0x1
 12716 0f2e 54       		.byte	0x54
 12717 0f2f 56000000 		.4byte	.LVL295
 12718 0f33 58000000 		.4byte	.LFE176
 12719 0f37 0400     		.2byte	0x4
 12720 0f39 F3       		.byte	0xf3
 12721 0f3a 01       		.uleb128 0x1
 12722 0f3b 51       		.byte	0x51
 12723 0f3c 9F       		.byte	0x9f
 12724 0f3d 00000000 		.4byte	0
 12725 0f41 00000000 		.4byte	0
ARM GAS  C:\Users\haske\AppData\Local\Temp\cc1ymag8.s 			page 252


 12726              	.LLST119:
 12727 0f45 04000000 		.4byte	.LVL286
 12728 0f49 0E000000 		.4byte	.LVL287
 12729 0f4d 0100     		.2byte	0x1
 12730 0f4f 51       		.byte	0x51
 12731 0f50 0E000000 		.4byte	.LVL287
 12732 0f54 56000000 		.4byte	.LVL295
 12733 0f58 0100     		.2byte	0x1
 12734 0f5a 54       		.byte	0x54
 12735 0f5b 56000000 		.4byte	.LVL295
 12736 0f5f 58000000 		.4byte	.LFE176
 12737 0f63 0400     		.2byte	0x4
 12738 0f65 F3       		.byte	0xf3
 12739 0f66 01       		.uleb128 0x1
 12740 0f67 51       		.byte	0x51
 12741 0f68 9F       		.byte	0x9f
 12742 0f69 00000000 		.4byte	0
 12743 0f6d 00000000 		.4byte	0
 12744              	.LLST120:
 12745 0f71 00000000 		.4byte	.LVL296
 12746 0f75 06000000 		.4byte	.LVL297
 12747 0f79 0100     		.2byte	0x1
 12748 0f7b 50       		.byte	0x50
 12749 0f7c 06000000 		.4byte	.LVL297
 12750 0f80 09000000 		.4byte	.LVL298-1
 12751 0f84 0100     		.2byte	0x1
 12752 0f86 51       		.byte	0x51
 12753 0f87 09000000 		.4byte	.LVL298-1
 12754 0f8b 18000000 		.4byte	.LFE174
 12755 0f8f 0400     		.2byte	0x4
 12756 0f91 F3       		.byte	0xf3
 12757 0f92 01       		.uleb128 0x1
 12758 0f93 50       		.byte	0x50
 12759 0f94 9F       		.byte	0x9f
 12760 0f95 00000000 		.4byte	0
 12761 0f99 00000000 		.4byte	0
 12762              	.LLST121:
 12763 0f9d 0C000000 		.4byte	.LVL299
 12764 0fa1 0F000000 		.4byte	.LVL300-1
 12765 0fa5 0100     		.2byte	0x1
 12766 0fa7 50       		.byte	0x50
 12767 0fa8 0F000000 		.4byte	.LVL300-1
 12768 0fac 12000000 		.4byte	.LVL301
 12769 0fb0 0100     		.2byte	0x1
 12770 0fb2 54       		.byte	0x54
 12771 0fb3 12000000 		.4byte	.LVL301
 12772 0fb7 18000000 		.4byte	.LFE174
 12773 0fbb 0100     		.2byte	0x1
 12774 0fbd 50       		.byte	0x50
 12775 0fbe 00000000 		.4byte	0
 12776 0fc2 00000000 		.4byte	0
 12777              	.LLST122:
 12778 0fc6 00000000 		.4byte	.LVL302
 12779 0fca 06000000 		.4byte	.LVL303
 12780 0fce 0100     		.2byte	0x1
 12781 0fd0 50       		.byte	0x50
 12782 0fd1 06000000 		.4byte	.LVL303
ARM GAS  C:\Users\haske\AppData\Local\Temp\cc1ymag8.s 			page 253


 12783 0fd5 0A000000 		.4byte	.LFE175
 12784 0fd9 0400     		.2byte	0x4
 12785 0fdb F3       		.byte	0xf3
 12786 0fdc 01       		.uleb128 0x1
 12787 0fdd 50       		.byte	0x50
 12788 0fde 9F       		.byte	0x9f
 12789 0fdf 00000000 		.4byte	0
 12790 0fe3 00000000 		.4byte	0
 12791              	.LLST123:
 12792 0fe7 00000000 		.4byte	.LVL302
 12793 0feb 06000000 		.4byte	.LVL303
 12794 0fef 0100     		.2byte	0x1
 12795 0ff1 50       		.byte	0x50
 12796 0ff2 06000000 		.4byte	.LVL303
 12797 0ff6 0A000000 		.4byte	.LFE175
 12798 0ffa 0400     		.2byte	0x4
 12799 0ffc F3       		.byte	0xf3
 12800 0ffd 01       		.uleb128 0x1
 12801 0ffe 50       		.byte	0x50
 12802 0fff 9F       		.byte	0x9f
 12803 1000 00000000 		.4byte	0
 12804 1004 00000000 		.4byte	0
 12805              		.section	.debug_aranges,"",%progbits
 12806 0000 4C000000 		.4byte	0x4c
 12807 0004 0200     		.2byte	0x2
 12808 0006 00000000 		.4byte	.Ldebug_info0
 12809 000a 04       		.byte	0x4
 12810 000b 00       		.byte	0
 12811 000c 0000     		.2byte	0
 12812 000e 0000     		.2byte	0
 12813 0010 00000000 		.4byte	.LFB180
 12814 0014 1E000000 		.4byte	.LFE180-.LFB180
 12815 0018 00000000 		.4byte	.LFB179
 12816 001c CC000000 		.4byte	.LFE179-.LFB179
 12817 0020 00000000 		.4byte	.LFB178
 12818 0024 0C020000 		.4byte	.LFE178-.LFB178
 12819 0028 00000000 		.4byte	.LFB177
 12820 002c EA050000 		.4byte	.LFE177-.LFB177
 12821 0030 00000000 		.4byte	.LFB176
 12822 0034 58000000 		.4byte	.LFE176-.LFB176
 12823 0038 00000000 		.4byte	.LFB174
 12824 003c 18000000 		.4byte	.LFE174-.LFB174
 12825 0040 00000000 		.4byte	.LFB175
 12826 0044 0A000000 		.4byte	.LFE175-.LFB175
 12827 0048 00000000 		.4byte	0
 12828 004c 00000000 		.4byte	0
 12829              		.section	.debug_ranges,"",%progbits
 12830              	.Ldebug_ranges0:
 12831 0000 00000000 		.4byte	.LFB180
 12832 0004 1E000000 		.4byte	.LFE180
 12833 0008 00000000 		.4byte	.LFB179
 12834 000c CC000000 		.4byte	.LFE179
 12835 0010 00000000 		.4byte	.LFB178
 12836 0014 0C020000 		.4byte	.LFE178
 12837 0018 00000000 		.4byte	.LFB177
 12838 001c EA050000 		.4byte	.LFE177
 12839 0020 00000000 		.4byte	.LFB176
ARM GAS  C:\Users\haske\AppData\Local\Temp\cc1ymag8.s 			page 254


 12840 0024 58000000 		.4byte	.LFE176
 12841 0028 00000000 		.4byte	.LFB174
 12842 002c 18000000 		.4byte	.LFE174
 12843 0030 00000000 		.4byte	.LFB175
 12844 0034 0A000000 		.4byte	.LFE175
 12845 0038 00000000 		.4byte	0
 12846 003c 00000000 		.4byte	0
 12847              		.section	.debug_line,"",%progbits
 12848              	.Ldebug_line0:
 12849 0000 DE080000 		.section	.debug_str,"MS",%progbits,1
 12849      02009B05 
 12849      00000201 
 12849      FB0E0D00 
 12849      01010101 
 12850              	.LASF179:
 12851 0000 70726F70 		.ascii	"prop_cnt\000"
 12851      5F636E74 
 12851      00
 12852              	.LASF15:
 12853 0009 696E7438 		.ascii	"int8_t\000"
 12853      5F7400
 12854              	.LASF581:
 12855 0010 4C565F4B 		.ascii	"LV_KEY_HOME\000"
 12855      45595F48 
 12855      4F4D4500 
 12856              	.LASF150:
 12857 001c 4C565F53 		.ascii	"LV_STYLE_OPA\000"
 12857      54594C45 
 12857      5F4F5041 
 12857      00
 12858              	.LASF684:
 12859 0029 6C765F73 		.ascii	"lv_slider_create\000"
 12859      6C696465 
 12859      725F6372 
 12859      65617465 
 12859      00
 12860              	.LASF334:
 12861 003a 636F6C6F 		.ascii	"color_chroma_key\000"
 12861      725F6368 
 12861      726F6D61 
 12861      5F6B6579 
 12861      00
 12862              	.LASF289:
 12863 004b 6C765F6C 		.ascii	"lv_ll_node_t\000"
 12863      6C5F6E6F 
 12863      64655F74 
 12863      00
 12864              	.LASF311:
 12865 0058 6C765F64 		.ascii	"lv_disp_draw_buf_t\000"
 12865      6973705F 
 12865      64726177 
 12865      5F627566 
 12865      5F7400
 12866              	.LASF21:
 12867 006b 73697A65 		.ascii	"size_t\000"
 12867      5F7400
 12868              	.LASF28:
ARM GAS  C:\Users\haske\AppData\Local\Temp\cc1ymag8.s 			page 255


 12869 0072 6164765F 		.ascii	"adv_w\000"
 12869      7700
 12870              	.LASF371:
 12871 0078 4C565F49 		.ascii	"LV_INDEV_TYPE_ENCODER\000"
 12871      4E444556 
 12871      5F545950 
 12871      455F454E 
 12871      434F4445 
 12872              	.LASF668:
 12873 008e 64697374 		.ascii	"dist_right\000"
 12873      5F726967 
 12873      687400
 12874              	.LASF49:
 12875 0099 73697A65 		.ascii	"sizetype\000"
 12875      74797065 
 12875      00
 12876              	.LASF573:
 12877 00a2 4C565F4B 		.ascii	"LV_KEY_RIGHT\000"
 12877      45595F52 
 12877      49474854 
 12877      00
 12878              	.LASF541:
 12879 00af 4C565F45 		.ascii	"LV_EVENT_DRAW_MAIN_BEGIN\000"
 12879      56454E54 
 12879      5F445241 
 12879      575F4D41 
 12879      494E5F42 
 12880              	.LASF623:
 12881 00c8 76616C75 		.ascii	"value_to_set\000"
 12881      655F746F 
 12881      5F736574 
 12881      00
 12882              	.LASF610:
 12883 00d5 6D61785F 		.ascii	"max_value\000"
 12883      76616C75 
 12883      6500
 12884              	.LASF134:
 12885 00df 4C565F53 		.ascii	"LV_STYLE_LINE_DASH_GAP\000"
 12885      54594C45 
 12885      5F4C494E 
 12885      455F4441 
 12885      53485F47 
 12886              	.LASF58:
 12887 00f6 4C565F41 		.ascii	"LV_ANIM_ON\000"
 12887      4E494D5F 
 12887      4F4E00
 12888              	.LASF292:
 12889 0101 7461696C 		.ascii	"tail\000"
 12889      00
 12890              	.LASF671:
 12891 0106 72616E67 		.ascii	"range\000"
 12891      6500
 12892              	.LASF344:
 12893 010c 6163745F 		.ascii	"act_scr\000"
 12893      73637200 
 12894              	.LASF349:
 12895 0114 73637265 		.ascii	"screen_cnt\000"
ARM GAS  C:\Users\haske\AppData\Local\Temp\cc1ymag8.s 			page 256


 12895      656E5F63 
 12895      6E7400
 12896              	.LASF617:
 12897 011f 4C565F53 		.ascii	"LV_SLIDER_MODE_NORMAL\000"
 12897      4C494445 
 12897      525F4D4F 
 12897      44455F4E 
 12897      4F524D41 
 12898              	.LASF280:
 12899 0135 64726177 		.ascii	"draw_bg\000"
 12899      5F626700 
 12900              	.LASF56:
 12901 013d 6C765F6F 		.ascii	"lv_opa_t\000"
 12901      70615F74 
 12901      00
 12902              	.LASF141:
 12903 0146 4C565F53 		.ascii	"LV_STYLE_ARC_OPA\000"
 12903      54594C45 
 12903      5F415243 
 12903      5F4F5041 
 12903      00
 12904              	.LASF249:
 12905 0157 7261775F 		.ascii	"raw_end\000"
 12905      656E6400 
 12906              	.LASF702:
 12907 015f 6C765F61 		.ascii	"lv_area_increase\000"
 12907      7265615F 
 12907      696E6372 
 12907      65617365 
 12907      00
 12908              	.LASF19:
 12909 0170 696E7433 		.ascii	"int32_t\000"
 12909      325F7400 
 12910              	.LASF477:
 12911 0178 6C765F73 		.ascii	"lv_scrollbar_mode_t\000"
 12911      63726F6C 
 12911      6C626172 
 12911      5F6D6F64 
 12911      655F7400 
 12912              	.LASF597:
 12913 018c 6C617965 		.ascii	"layer_type\000"
 12913      725F7479 
 12913      706500
 12914              	.LASF178:
 12915 0197 6861735F 		.ascii	"has_group\000"
 12915      67726F75 
 12915      7000
 12916              	.LASF550:
 12917 01a1 4C565F45 		.ascii	"LV_EVENT_INSERT\000"
 12917      56454E54 
 12917      5F494E53 
 12917      45525400 
 12918              	.LASF431:
 12919 01b1 66726F7A 		.ascii	"frozen\000"
 12919      656E00
 12920              	.LASF362:
 12921 01b8 636F6C6F 		.ascii	"color_primary\000"
ARM GAS  C:\Users\haske\AppData\Local\Temp\cc1ymag8.s 			page 257


 12921      725F7072 
 12921      696D6172 
 12921      7900
 12922              	.LASF24:
 12923 01c6 6C765F70 		.ascii	"lv_point_t\000"
 12923      6F696E74 
 12923      5F7400
 12924              	.LASF706:
 12925 01d1 6C765F6F 		.ascii	"lv_obj_invalidate\000"
 12925      626A5F69 
 12925      6E76616C 
 12925      69646174 
 12925      6500
 12926              	.LASF531:
 12927 01e3 4C565F45 		.ascii	"LV_EVENT_SCROLL_END\000"
 12927      56454E54 
 12927      5F534352 
 12927      4F4C4C5F 
 12927      454E4400 
 12928              	.LASF197:
 12929 01f7 72616469 		.ascii	"radius\000"
 12929      757300
 12930              	.LASF200:
 12931 01fe 62675F63 		.ascii	"bg_color\000"
 12931      6F6C6F72 
 12931      00
 12932              	.LASF36:
 12933 0207 6C696E65 		.ascii	"line_height\000"
 12933      5F686569 
 12933      67687400 
 12934              	.LASF636:
 12935 0213 6C765F6F 		.ascii	"lv_obj_get_style_base_dir\000"
 12935      626A5F67 
 12935      65745F73 
 12935      74796C65 
 12935      5F626173 
 12936              	.LASF68:
 12937 022d 6C765F62 		.ascii	"lv_blend_mode_t\000"
 12937      6C656E64 
 12937      5F6D6F64 
 12937      655F7400 
 12938              	.LASF231:
 12939 023d 62696469 		.ascii	"bidi_dir\000"
 12939      5F646972 
 12939      00
 12940              	.LASF612:
 12941 0246 696E6469 		.ascii	"indic_area\000"
 12941      635F6172 
 12941      656100
 12942              	.LASF338:
 12943 0251 64726177 		.ascii	"draw_ctx_size\000"
 12943      5F637478 
 12943      5F73697A 
 12943      6500
 12944              	.LASF693:
 12945 025f 6C765F6D 		.ascii	"lv_memcpy\000"
 12945      656D6370 
ARM GAS  C:\Users\haske\AppData\Local\Temp\cc1ymag8.s 			page 258


 12945      7900
 12946              	.LASF570:
 12947 0269 6C765F68 		.ascii	"lv_hit_test_info_t\000"
 12947      69745F74 
 12947      6573745F 
 12947      696E666F 
 12947      5F7400
 12948              	.LASF186:
 12949 027c 73706563 		.ascii	"spec_attr\000"
 12949      5F617474 
 12949      7200
 12950              	.LASF594:
 12951 0286 7363726F 		.ascii	"scroll_snap_x\000"
 12951      6C6C5F73 
 12951      6E61705F 
 12951      7800
 12952              	.LASF595:
 12953 0294 7363726F 		.ascii	"scroll_snap_y\000"
 12953      6C6C5F73 
 12953      6E61705F 
 12953      7900
 12954              	.LASF257:
 12955 02a2 4C565F44 		.ascii	"LV_DRAW_LAYER_FLAG_HAS_ALPHA\000"
 12955      5241575F 
 12955      4C415945 
 12955      525F464C 
 12955      41475F48 
 12956              	.LASF569:
 12957 02bf 6C765F65 		.ascii	"lv_event_t\000"
 12957      76656E74 
 12957      5F7400
 12958              	.LASF555:
 12959 02ca 4C565F45 		.ascii	"LV_EVENT_CHILD_CHANGED\000"
 12959      56454E54 
 12959      5F434849 
 12959      4C445F43 
 12959      48414E47 
 12960              	.LASF190:
 12961 02e1 73746174 		.ascii	"state\000"
 12961      6500
 12962              	.LASF85:
 12963 02e7 4C565F53 		.ascii	"LV_STYLE_HEIGHT\000"
 12963      54594C45 
 12963      5F484549 
 12963      47485400 
 12964              	.LASF363:
 12965 02f7 636F6C6F 		.ascii	"color_secondary\000"
 12965      725F7365 
 12965      636F6E64 
 12965      61727900 
 12966              	.LASF299:
 12967 0307 72657065 		.ascii	"repeat_count\000"
 12967      61745F63 
 12967      6F756E74 
 12967      00
 12968              	.LASF237:
 12969 0314 7A6F6F6D 		.ascii	"zoom\000"
ARM GAS  C:\Users\haske\AppData\Local\Temp\cc1ymag8.s 			page 259


 12969      00
 12970              	.LASF481:
 12971 0319 69735F6C 		.ascii	"is_local\000"
 12971      6F63616C 
 12971      00
 12972              	.LASF272:
 12973 0322 64726177 		.ascii	"draw_rect\000"
 12973      5F726563 
 12973      7400
 12974              	.LASF295:
 12975 032c 5F6C765F 		.ascii	"_lv_timer_t\000"
 12975      74696D65 
 12975      725F7400 
 12976              	.LASF46:
 12977 0338 4C565F52 		.ascii	"LV_RES_INV\000"
 12977      45535F49 
 12977      4E5600
 12978              	.LASF271:
 12979 0343 696E6974 		.ascii	"init_buf\000"
 12979      5F627566 
 12979      00
 12980              	.LASF496:
 12981 034c 636F6E73 		.ascii	"constructor_cb\000"
 12981      74727563 
 12981      746F725F 
 12981      636200
 12982              	.LASF254:
 12983 035b 726F756E 		.ascii	"rounded\000"
 12983      64656400 
 12984              	.LASF166:
 12985 0363 5F4C565F 		.ascii	"_LV_STYLE_LAST_BUILT_IN_PROP\000"
 12985      5354594C 
 12985      455F4C41 
 12985      53545F42 
 12985      55494C54 
 12986              	.LASF270:
 12987 0380 5F6C765F 		.ascii	"_lv_draw_ctx_t\000"
 12987      64726177 
 12987      5F637478 
 12987      5F7400
 12988              	.LASF382:
 12989 038f 74797065 		.ascii	"type\000"
 12989      00
 12990              	.LASF533:
 12991 0394 4C565F45 		.ascii	"LV_EVENT_GESTURE\000"
 12991      56454E54 
 12991      5F474553 
 12991      54555245 
 12991      00
 12992              	.LASF526:
 12993 03a5 4C565F45 		.ascii	"LV_EVENT_LONG_PRESSED\000"
 12993      56454E54 
 12993      5F4C4F4E 
 12993      475F5052 
 12993      45535345 
 12994              	.LASF202:
 12995 03bb 62675F69 		.ascii	"bg_img_src\000"
ARM GAS  C:\Users\haske\AppData\Local\Temp\cc1ymag8.s 			page 260


 12995      6D675F73 
 12995      726300
 12996              	.LASF116:
 12997 03c6 4C565F53 		.ascii	"LV_STYLE_BORDER_WIDTH\000"
 12997      54594C45 
 12997      5F424F52 
 12997      4445525F 
 12997      57494454 
 12998              	.LASF556:
 12999 03dc 4C565F45 		.ascii	"LV_EVENT_CHILD_CREATED\000"
 12999      56454E54 
 12999      5F434849 
 12999      4C445F43 
 12999      52454154 
 13000              	.LASF98:
 13001 03f3 4C565F53 		.ascii	"LV_STYLE_PAD_COLUMN\000"
 13001      54594C45 
 13001      5F504144 
 13001      5F434F4C 
 13001      554D4E00 
 13002              	.LASF381:
 13003 0407 5F6C765F 		.ascii	"_lv_indev_drv_t\000"
 13003      696E6465 
 13003      765F6472 
 13003      765F7400 
 13004              	.LASF705:
 13005 0417 6C765F69 		.ascii	"lv_indev_get_point\000"
 13005      6E646576 
 13005      5F676574 
 13005      5F706F69 
 13005      6E7400
 13006              	.LASF584:
 13007 042a 6C765F67 		.ascii	"lv_group_edge_cb_t\000"
 13007      726F7570 
 13007      5F656467 
 13007      655F6362 
 13007      5F7400
 13008              	.LASF607:
 13009 043d 5F6C765F 		.ascii	"_lv_bar_anim_t\000"
 13009      6261725F 
 13009      616E696D 
 13009      5F7400
 13010              	.LASF441:
 13011 044c 4C565F50 		.ascii	"LV_PART_SELECTED\000"
 13011      4152545F 
 13011      53454C45 
 13011      43544544 
 13011      00
 13012              	.LASF376:
 13013 045d 706F696E 		.ascii	"point\000"
 13013      7400
 13014              	.LASF108:
 13015 0463 4C565F53 		.ascii	"LV_STYLE_BG_DITHER_MODE\000"
 13015      54594C45 
 13015      5F42475F 
 13015      44495448 
 13015      45525F4D 
ARM GAS  C:\Users\haske\AppData\Local\Temp\cc1ymag8.s 			page 261


 13016              	.LASF212:
 13017 047b 626F7264 		.ascii	"border_side\000"
 13017      65725F73 
 13017      69646500 
 13018              	.LASF1:
 13019 0487 5F5F7569 		.ascii	"__uint8_t\000"
 13019      6E74385F 
 13019      7400
 13020              	.LASF196:
 13021 0491 775F6C61 		.ascii	"w_layout\000"
 13021      796F7574 
 13021      00
 13022              	.LASF198:
 13023 049a 626C656E 		.ascii	"blend_mode\000"
 13023      645F6D6F 
 13023      646500
 13024              	.LASF92:
 13025 04a5 4C565F53 		.ascii	"LV_STYLE_RADIUS\000"
 13025      54594C45 
 13025      5F524144 
 13025      49555300 
 13026              	.LASF314:
 13027 04b5 7665725F 		.ascii	"ver_res\000"
 13027      72657300 
 13028              	.LASF192:
 13029 04bd 7363725F 		.ascii	"scr_layout_inv\000"
 13029      6C61796F 
 13029      75745F69 
 13029      6E7600
 13030              	.LASF84:
 13031 04cc 4C565F53 		.ascii	"LV_STYLE_MAX_WIDTH\000"
 13031      54594C45 
 13031      5F4D4158 
 13031      5F574944 
 13031      544800
 13032              	.LASF343:
 13033 04df 73637265 		.ascii	"screens\000"
 13033      656E7300 
 13034              	.LASF111:
 13035 04e7 4C565F53 		.ascii	"LV_STYLE_BG_IMG_RECOLOR\000"
 13035      54594C45 
 13035      5F42475F 
 13035      494D475F 
 13035      5245434F 
 13036              	.LASF128:
 13037 04ff 4C565F53 		.ascii	"LV_STYLE_SHADOW_OPA\000"
 13037      54594C45 
 13037      5F534841 
 13037      444F575F 
 13037      4F504100 
 13038              	.LASF694:
 13039 0513 6C765F65 		.ascii	"lv_event_send\000"
 13039      76656E74 
 13039      5F73656E 
 13039      6400
 13040              	.LASF402:
 13041 0521 7363726F 		.ascii	"scroll_obj\000"
ARM GAS  C:\Users\haske\AppData\Local\Temp\cc1ymag8.s 			page 262


 13041      6C6C5F6F 
 13041      626A00
 13042              	.LASF605:
 13043 052c 616E696D 		.ascii	"anim_end\000"
 13043      5F656E64 
 13043      00
 13044              	.LASF159:
 13045 0535 4C565F53 		.ascii	"LV_STYLE_TRANSFORM_HEIGHT\000"
 13045      54594C45 
 13045      5F545241 
 13045      4E53464F 
 13045      524D5F48 
 13046              	.LASF631:
 13047 054f 6C765F6F 		.ascii	"lv_obj_get_style_transform_width\000"
 13047      626A5F67 
 13047      65745F73 
 13047      74796C65 
 13047      5F747261 
 13048              	.LASF451:
 13049 0570 4C565F4F 		.ascii	"LV_OBJ_FLAG_SCROLLABLE\000"
 13049      424A5F46 
 13049      4C41475F 
 13049      5343524F 
 13049      4C4C4142 
 13050              	.LASF96:
 13051 0587 4C565F53 		.ascii	"LV_STYLE_PAD_RIGHT\000"
 13051      54594C45 
 13051      5F504144 
 13051      5F524947 
 13051      485400
 13052              	.LASF592:
 13053 059a 6578745F 		.ascii	"ext_draw_size\000"
 13053      64726177 
 13053      5F73697A 
 13053      6500
 13054              	.LASF622:
 13055 05a8 72696768 		.ascii	"right_knob_area\000"
 13055      745F6B6E 
 13055      6F625F61 
 13055      72656100 
 13056              	.LASF677:
 13057 05b8 62675F74 		.ascii	"bg_top\000"
 13057      6F7000
 13058              	.LASF521:
 13059 05bf 4C565F45 		.ascii	"LV_EVENT_ALL\000"
 13059      56454E54 
 13059      5F414C4C 
 13059      00
 13060              	.LASF685:
 13061 05cc 6C765F73 		.ascii	"lv_slider_is_dragged\000"
 13061      6C696465 
 13061      725F6973 
 13061      5F647261 
 13061      67676564 
 13062              	.LASF358:
 13063 05e1 6C617374 		.ascii	"last_activity_time\000"
 13063      5F616374 
ARM GAS  C:\Users\haske\AppData\Local\Temp\cc1ymag8.s 			page 263


 13063      69766974 
 13063      795F7469 
 13063      6D6500
 13064              	.LASF9:
 13065 05f4 6C6F6E67 		.ascii	"long int\000"
 13065      20696E74 
 13065      00
 13066              	.LASF156:
 13067 05fd 4C565F53 		.ascii	"LV_STYLE_TRANSITION\000"
 13067      54594C45 
 13067      5F545241 
 13067      4E534954 
 13067      494F4E00 
 13068              	.LASF654:
 13069 0611 7472616E 		.ascii	"transf_h\000"
 13069      73665F68 
 13069      00
 13070              	.LASF324:
 13071 061a 726F7461 		.ascii	"rotated\000"
 13071      74656400 
 13072              	.LASF406:
 13073 0622 7363726F 		.ascii	"scroll_dir\000"
 13073      6C6C5F64 
 13073      697200
 13074              	.LASF502:
 13075 062d 67726F75 		.ascii	"group_def\000"
 13075      705F6465 
 13075      6600
 13076              	.LASF337:
 13077 0637 64726177 		.ascii	"draw_ctx_deinit\000"
 13077      5F637478 
 13077      5F646569 
 13077      6E697400 
 13078              	.LASF112:
 13079 0647 4C565F53 		.ascii	"LV_STYLE_BG_IMG_RECOLOR_OPA\000"
 13079      54594C45 
 13079      5F42475F 
 13079      494D475F 
 13079      5245434F 
 13080              	.LASF666:
 13081 0663 62617365 		.ascii	"base_dir\000"
 13081      5F646972 
 13081      00
 13082              	.LASF653:
 13083 066c 7472616E 		.ascii	"transf_w\000"
 13083      73665F77 
 13083      00
 13084              	.LASF199:
 13085 0675 62675F6F 		.ascii	"bg_opa\000"
 13085      706100
 13086              	.LASF341:
 13087 067c 72656672 		.ascii	"refr_timer\000"
 13087      5F74696D 
 13087      657200
 13088              	.LASF235:
 13089 0687 6C765F64 		.ascii	"lv_draw_label_dsc_t\000"
 13089      7261775F 
ARM GAS  C:\Users\haske\AppData\Local\Temp\cc1ymag8.s 			page 264


 13089      6C616265 
 13089      6C5F6473 
 13089      635F7400 
 13090              	.LASF436:
 13091 069b 6C765F73 		.ascii	"lv_state_t\000"
 13091      74617465 
 13091      5F7400
 13092              	.LASF464:
 13093 06a6 4C565F4F 		.ascii	"LV_OBJ_FLAG_ADV_HITTEST\000"
 13093      424A5F46 
 13093      4C41475F 
 13093      4144565F 
 13093      48495454 
 13094              	.LASF228:
 13095 06be 73656C5F 		.ascii	"sel_bg_color\000"
 13095      62675F63 
 13095      6F6C6F72 
 13095      00
 13096              	.LASF484:
 13097 06cb 64726177 		.ascii	"draw_area\000"
 13097      5F617265 
 13097      6100
 13098              	.LASF63:
 13099 06d5 4C565F42 		.ascii	"LV_BASE_DIR_RTL\000"
 13099      4153455F 
 13099      4449525F 
 13099      52544C00 
 13100              	.LASF459:
 13101 06e5 4C565F4F 		.ascii	"LV_OBJ_FLAG_SCROLL_WITH_ARROW\000"
 13101      424A5F46 
 13101      4C41475F 
 13101      5343524F 
 13101      4C4C5F57 
 13102              	.LASF714:
 13103 0703 6C765F62 		.ascii	"lv_bar_get_value\000"
 13103      61725F67 
 13103      65745F76 
 13103      616C7565 
 13103      00
 13104              	.LASF430:
 13105 0714 65646765 		.ascii	"edge_cb\000"
 13105      5F636200 
 13106              	.LASF355:
 13107 071c 696E765F 		.ascii	"inv_area_joined\000"
 13107      61726561 
 13107      5F6A6F69 
 13107      6E656400 
 13108              	.LASF113:
 13109 072c 4C565F53 		.ascii	"LV_STYLE_BG_IMG_TILED\000"
 13109      54594C45 
 13109      5F42475F 
 13109      494D475F 
 13109      54494C45 
 13110              	.LASF576:
 13111 0742 4C565F4B 		.ascii	"LV_KEY_DEL\000"
 13111      45595F44 
 13111      454C00
ARM GAS  C:\Users\haske\AppData\Local\Temp\cc1ymag8.s 			page 265


 13112              	.LASF346:
 13113 074d 7363725F 		.ascii	"scr_to_load\000"
 13113      746F5F6C 
 13113      6F616400 
 13114              	.LASF661:
 13115 0759 70617274 		.ascii	"part_draw_dsc\000"
 13115      5F647261 
 13115      775F6473 
 13115      6300
 13116              	.LASF291:
 13117 0767 68656164 		.ascii	"head\000"
 13117      00
 13118              	.LASF115:
 13119 076c 4C565F53 		.ascii	"LV_STYLE_BORDER_OPA\000"
 13119      54594C45 
 13119      5F424F52 
 13119      4445525F 
 13119      4F504100 
 13120              	.LASF662:
 13121 0780 6B6E6F62 		.ascii	"knob_rect_dsc_tmp\000"
 13121      5F726563 
 13121      745F6473 
 13121      635F746D 
 13121      7000
 13122              	.LASF383:
 13123 0792 72656164 		.ascii	"read_cb\000"
 13123      5F636200 
 13124              	.LASF548:
 13125 079a 4C565F45 		.ascii	"LV_EVENT_DRAW_PART_END\000"
 13125      56454E54 
 13125      5F445241 
 13125      575F5041 
 13125      52545F45 
 13126              	.LASF309:
 13127 07b1 6C617374 		.ascii	"last_area\000"
 13127      5F617265 
 13127      6100
 13128              	.LASF405:
 13129 07bb 67657374 		.ascii	"gesture_sum\000"
 13129      7572655F 
 13129      73756D00 
 13130              	.LASF282:
 13131 07c7 62756666 		.ascii	"buffer_copy\000"
 13131      65725F63 
 13131      6F707900 
 13132              	.LASF403:
 13133 07d3 6C617374 		.ascii	"last_pressed\000"
 13133      5F707265 
 13133      73736564 
 13133      00
 13134              	.LASF633:
 13135 07e0 6C765F6F 		.ascii	"lv_obj_get_style_pad_top\000"
 13135      626A5F67 
 13135      65745F73 
 13135      74796C65 
 13135      5F706164 
 13136              	.LASF213:
ARM GAS  C:\Users\haske\AppData\Local\Temp\cc1ymag8.s 			page 266


 13137 07f9 6F75746C 		.ascii	"outline_color\000"
 13137      696E655F 
 13137      636F6C6F 
 13137      7200
 13138              	.LASF127:
 13139 0807 4C565F53 		.ascii	"LV_STYLE_SHADOW_COLOR\000"
 13139      54594C45 
 13139      5F534841 
 13139      444F575F 
 13139      434F4C4F 
 13140              	.LASF628:
 13141 081d 4C565F53 		.ascii	"LV_SLIDER_DRAW_PART_KNOB_LEFT\000"
 13141      4C494445 
 13141      525F4452 
 13141      41575F50 
 13141      4152545F 
 13142              	.LASF194:
 13143 083b 7374796C 		.ascii	"style_cnt\000"
 13143      655F636E 
 13143      7400
 13144              	.LASF191:
 13145 0845 6C61796F 		.ascii	"layout_inv\000"
 13145      75745F69 
 13145      6E7600
 13146              	.LASF574:
 13147 0850 4C565F4B 		.ascii	"LV_KEY_LEFT\000"
 13147      45595F4C 
 13147      45465400 
 13148              	.LASF2:
 13149 085c 7369676E 		.ascii	"signed char\000"
 13149      65642063 
 13149      68617200 
 13150              	.LASF16:
 13151 0868 75696E74 		.ascii	"uint8_t\000"
 13151      385F7400 
 13152              	.LASF277:
 13153 0870 64726177 		.ascii	"draw_line\000"
 13153      5F6C696E 
 13153      6500
 13154              	.LASF313:
 13155 087a 686F725F 		.ascii	"hor_res\000"
 13155      72657300 
 13156              	.LASF57:
 13157 0882 4C565F41 		.ascii	"LV_ANIM_OFF\000"
 13157      4E494D5F 
 13157      4F464600 
 13158              	.LASF468:
 13159 088e 4C565F4F 		.ascii	"LV_OBJ_FLAG_LAYOUT_1\000"
 13159      424A5F46 
 13159      4C41475F 
 13159      4C41594F 
 13159      55545F31 
 13160              	.LASF469:
 13161 08a3 4C565F4F 		.ascii	"LV_OBJ_FLAG_LAYOUT_2\000"
 13161      424A5F46 
 13161      4C41475F 
 13161      4C41594F 
ARM GAS  C:\Users\haske\AppData\Local\Temp\cc1ymag8.s 			page 267


 13161      55545F32 
 13162              	.LASF207:
 13163 08b8 62675F69 		.ascii	"bg_img_tiled\000"
 13163      6D675F74 
 13163      696C6564 
 13163      00
 13164              	.LASF104:
 13165 08c5 4C565F53 		.ascii	"LV_STYLE_BG_GRAD_DIR\000"
 13165      54594C45 
 13165      5F42475F 
 13165      47524144 
 13165      5F444952 
 13166              	.LASF35:
 13167 08da 6765745F 		.ascii	"get_glyph_bitmap\000"
 13167      676C7970 
 13167      685F6269 
 13167      746D6170 
 13167      00
 13168              	.LASF252:
 13169 08eb 656E645F 		.ascii	"end_angle\000"
 13169      616E676C 
 13169      6500
 13170              	.LASF51:
 13171 08f5 626C7565 		.ascii	"blue\000"
 13171      00
 13172              	.LASF457:
 13173 08fa 4C565F4F 		.ascii	"LV_OBJ_FLAG_SCROLL_CHAIN\000"
 13173      424A5F46 
 13173      4C41475F 
 13173      5343524F 
 13173      4C4C5F43 
 13174              	.LASF205:
 13175 0913 62675F69 		.ascii	"bg_img_opa\000"
 13175      6D675F6F 
 13175      706100
 13176              	.LASF470:
 13177 091e 4C565F4F 		.ascii	"LV_OBJ_FLAG_WIDGET_1\000"
 13177      424A5F46 
 13177      4C41475F 
 13177      57494447 
 13177      45545F31 
 13178              	.LASF471:
 13179 0933 4C565F4F 		.ascii	"LV_OBJ_FLAG_WIDGET_2\000"
 13179      424A5F46 
 13179      4C41475F 
 13179      57494447 
 13179      45545F32 
 13180              	.LASF611:
 13181 0948 73746172 		.ascii	"start_value\000"
 13181      745F7661 
 13181      6C756500 
 13182              	.LASF90:
 13183 0954 4C565F53 		.ascii	"LV_STYLE_ALIGN\000"
 13183      54594C45 
 13183      5F414C49 
 13183      474E00
 13184              	.LASF3:
ARM GAS  C:\Users\haske\AppData\Local\Temp\cc1ymag8.s 			page 268


 13185 0963 756E7369 		.ascii	"unsigned char\000"
 13185      676E6564 
 13185      20636861 
 13185      7200
 13186              	.LASF347:
 13187 0971 746F705F 		.ascii	"top_layer\000"
 13187      6C617965 
 13187      7200
 13188              	.LASF614:
 13189 097b 73746172 		.ascii	"start_value_anim\000"
 13189      745F7661 
 13189      6C75655F 
 13189      616E696D 
 13189      00
 13190              	.LASF418:
 13191 098c 74797065 		.ascii	"types\000"
 13191      7300
 13192              	.LASF565:
 13193 0992 4C565F45 		.ascii	"LV_EVENT_GET_SELF_SIZE\000"
 13193      56454E54 
 13193      5F474554 
 13193      5F53454C 
 13193      465F5349 
 13194              	.LASF542:
 13195 09a9 4C565F45 		.ascii	"LV_EVENT_DRAW_MAIN\000"
 13195      56454E54 
 13195      5F445241 
 13195      575F4D41 
 13195      494E00
 13196              	.LASF728:
 13197 09bc 69735F73 		.ascii	"is_slider_horizontal\000"
 13197      6C696465 
 13197      725F686F 
 13197      72697A6F 
 13197      6E74616C 
 13198              	.LASF587:
 13199 09d1 6368696C 		.ascii	"child_cnt\000"
 13199      645F636E 
 13199      7400
 13200              	.LASF250:
 13201 09db 6C765F64 		.ascii	"lv_draw_line_dsc_t\000"
 13201      7261775F 
 13201      6C696E65 
 13201      5F647363 
 13201      5F7400
 13202              	.LASF164:
 13203 09ee 4C565F53 		.ascii	"LV_STYLE_TRANSFORM_PIVOT_X\000"
 13203      54594C45 
 13203      5F545241 
 13203      4E53464F 
 13203      524D5F50 
 13204              	.LASF165:
 13205 0a09 4C565F53 		.ascii	"LV_STYLE_TRANSFORM_PIVOT_Y\000"
 13205      54594C45 
 13205      5F545241 
 13205      4E53464F 
 13205      524D5F50 
ARM GAS  C:\Users\haske\AppData\Local\Temp\cc1ymag8.s 			page 269


 13206              	.LASF585:
 13207 0a24 6C765F67 		.ascii	"lv_group_t\000"
 13207      726F7570 
 13207      5F7400
 13208              	.LASF373:
 13209 0a2f 4C565F49 		.ascii	"LV_INDEV_STATE_RELEASED\000"
 13209      4E444556 
 13209      5F535441 
 13209      54455F52 
 13209      454C4541 
 13210              	.LASF130:
 13211 0a47 4C565F53 		.ascii	"LV_STYLE_IMG_RECOLOR\000"
 13211      54594C45 
 13211      5F494D47 
 13211      5F524543 
 13211      4F4C4F52 
 13212              	.LASF265:
 13213 0a5c 61726561 		.ascii	"area_act\000"
 13213      5F616374 
 13213      00
 13214              	.LASF66:
 13215 0a65 4C565F42 		.ascii	"LV_BASE_DIR_WEAK\000"
 13215      4153455F 
 13215      4449525F 
 13215      5745414B 
 13215      00
 13216              	.LASF138:
 13217 0a76 4C565F53 		.ascii	"LV_STYLE_ARC_WIDTH\000"
 13217      54594C45 
 13217      5F415243 
 13217      5F574944 
 13217      544800
 13218              	.LASF31:
 13219 0a89 6F66735F 		.ascii	"ofs_x\000"
 13219      7800
 13220              	.LASF32:
 13221 0a8f 6F66735F 		.ascii	"ofs_y\000"
 13221      7900
 13222              	.LASF67:
 13223 0a95 6C765F62 		.ascii	"lv_base_dir_t\000"
 13223      6173655F 
 13223      6469725F 
 13223      7400
 13224              	.LASF577:
 13225 0aa3 4C565F4B 		.ascii	"LV_KEY_BACKSPACE\000"
 13225      45595F42 
 13225      41434B53 
 13225      50414345 
 13225      00
 13226              	.LASF352:
 13227 0ab4 72656E64 		.ascii	"rendering_in_progress\000"
 13227      6572696E 
 13227      675F696E 
 13227      5F70726F 
 13227      67726573 
 13228              	.LASF195:
 13229 0aca 685F6C61 		.ascii	"h_layout\000"
ARM GAS  C:\Users\haske\AppData\Local\Temp\cc1ymag8.s 			page 270


 13229      796F7574 
 13229      00
 13230              	.LASF308:
 13231 0ad3 666C7573 		.ascii	"flushing_last\000"
 13231      68696E67 
 13231      5F6C6173 
 13231      7400
 13232              	.LASF44:
 13233 0ae1 5F426F6F 		.ascii	"_Bool\000"
 13233      6C00
 13234              	.LASF593:
 13235 0ae7 7363726F 		.ascii	"scrollbar_mode\000"
 13235      6C6C6261 
 13235      725F6D6F 
 13235      646500
 13236              	.LASF316:
 13237 0af6 70687973 		.ascii	"physical_ver_res\000"
 13237      6963616C 
 13237      5F766572 
 13237      5F726573 
 13237      00
 13238              	.LASF268:
 13239 0b07 6F726967 		.ascii	"original\000"
 13239      696E616C 
 13239      00
 13240              	.LASF160:
 13241 0b10 4C565F53 		.ascii	"LV_STYLE_TRANSLATE_X\000"
 13241      54594C45 
 13241      5F545241 
 13241      4E534C41 
 13241      54455F58 
 13242              	.LASF161:
 13243 0b25 4C565F53 		.ascii	"LV_STYLE_TRANSLATE_Y\000"
 13243      54594C45 
 13243      5F545241 
 13243      4E534C41 
 13243      54455F59 
 13244              	.LASF657:
 13245 0b3a 69735F72 		.ascii	"is_rtl\000"
 13245      746C00
 13246              	.LASF724:
 13247 0b41 474E5520 		.ascii	"GNU C11 5.4.1 20160609 (release) [ARM/embedded-5-br"
 13247      43313120 
 13247      352E342E 
 13247      31203230 
 13247      31363036 
 13248 0b74 616E6368 		.ascii	"anch revision 237715] -mcpu=cortex-m0plus -mthumb -"
 13248      20726576 
 13248      6973696F 
 13248      6E203233 
 13248      37373135 
 13249 0ba7 67202D4F 		.ascii	"g -Og -ffunction-sections -ffat-lto-objects\000"
 13249      67202D66 
 13249      66756E63 
 13249      74696F6E 
 13249      2D736563 
 13250              	.LASF518:
ARM GAS  C:\Users\haske\AppData\Local\Temp\cc1ymag8.s 			page 271


 13251 0bd3 73746F70 		.ascii	"stop_processing\000"
 13251      5F70726F 
 13251      63657373 
 13251      696E6700 
 13252              	.LASF172:
 13253 0be3 76616C75 		.ascii	"value\000"
 13253      6500
 13254              	.LASF189:
 13255 0be9 666C6167 		.ascii	"flags\000"
 13255      7300
 13256              	.LASF259:
 13257 0bef 6C765F64 		.ascii	"lv_draw_layer_flags_t\000"
 13257      7261775F 
 13257      6C617965 
 13257      725F666C 
 13257      6167735F 
 13258              	.LASF640:
 13259 0c05 6C765F6F 		.ascii	"lv_obj_get_style_transform_zoom\000"
 13259      626A5F67 
 13259      65745F73 
 13259      74796C65 
 13259      5F747261 
 13260              	.LASF626:
 13261 0c25 6C765F73 		.ascii	"lv_slider_t\000"
 13261      6C696465 
 13261      725F7400 
 13262              	.LASF711:
 13263 0c31 6C765F67 		.ascii	"lv_group_get_editing\000"
 13263      726F7570 
 13263      5F676574 
 13263      5F656469 
 13263      74696E67 
 13264              	.LASF50:
 13265 0c46 63686172 		.ascii	"char\000"
 13265      00
 13266              	.LASF243:
 13267 0c4b 6C765F64 		.ascii	"lv_draw_img_dsc_t\000"
 13267      7261775F 
 13267      696D675F 
 13267      6473635F 
 13267      7400
 13268              	.LASF377:
 13269 0c5d 62746E5F 		.ascii	"btn_id\000"
 13269      696400
 13270              	.LASF641:
 13271 0c64 6C765F61 		.ascii	"lv_area_copy\000"
 13271      7265615F 
 13271      636F7079 
 13271      00
 13272              	.LASF540:
 13273 0c71 4C565F45 		.ascii	"LV_EVENT_REFR_EXT_DRAW_SIZE\000"
 13273      56454E54 
 13273      5F524546 
 13273      525F4558 
 13273      545F4452 
 13274              	.LASF39:
 13275 0c8d 756E6465 		.ascii	"underline_position\000"
ARM GAS  C:\Users\haske\AppData\Local\Temp\cc1ymag8.s 			page 272


 13275      726C696E 
 13275      655F706F 
 13275      73697469 
 13275      6F6E00
 13276              	.LASF287:
 13277 0ca0 6C617965 		.ascii	"layer_instance_size\000"
 13277      725F696E 
 13277      7374616E 
 13277      63655F73 
 13277      697A6500 
 13278              	.LASF246:
 13279 0cb4 64617368 		.ascii	"dash_gap\000"
 13279      5F676170 
 13279      00
 13280              	.LASF279:
 13281 0cbd 64726177 		.ascii	"draw_transform\000"
 13281      5F747261 
 13281      6E73666F 
 13281      726D00
 13282              	.LASF320:
 13283 0ccc 64697265 		.ascii	"direct_mode\000"
 13283      63745F6D 
 13283      6F646500 
 13284              	.LASF539:
 13285 0cd8 4C565F45 		.ascii	"LV_EVENT_COVER_CHECK\000"
 13285      56454E54 
 13285      5F434F56 
 13285      45525F43 
 13285      4845434B 
 13286              	.LASF99:
 13287 0ced 4C565F53 		.ascii	"LV_STYLE_BASE_DIR\000"
 13287      54594C45 
 13287      5F424153 
 13287      455F4449 
 13287      5200
 13288              	.LASF121:
 13289 0cff 4C565F53 		.ascii	"LV_STYLE_OUTLINE_OPA\000"
 13289      54594C45 
 13289      5F4F5554 
 13289      4C494E45 
 13289      5F4F5041 
 13290              	.LASF77:
 13291 0d14 73746F70 		.ascii	"stops_count\000"
 13291      735F636F 
 13291      756E7400 
 13292              	.LASF323:
 13293 0d20 616E7469 		.ascii	"antialiasing\000"
 13293      616C6961 
 13293      73696E67 
 13293      00
 13294              	.LASF6:
 13295 0d2d 5F5F7569 		.ascii	"__uint16_t\000"
 13295      6E743136 
 13295      5F7400
 13296              	.LASF404:
 13297 0d38 7363726F 		.ascii	"scroll_area\000"
 13297      6C6C5F61 
ARM GAS  C:\Users\haske\AppData\Local\Temp\cc1ymag8.s 			page 273


 13297      72656100 
 13298              	.LASF538:
 13299 0d44 4C565F45 		.ascii	"LV_EVENT_HIT_TEST\000"
 13299      56454E54 
 13299      5F484954 
 13299      5F544553 
 13299      5400
 13300              	.LASF659:
 13301 0d56 69735F73 		.ascii	"is_symmetrical\000"
 13301      796D6D65 
 13301      74726963 
 13301      616C00
 13302              	.LASF713:
 13303 0d65 6C765F6F 		.ascii	"lv_obj_calculate_ext_draw_size\000"
 13303      626A5F63 
 13303      616C6375 
 13303      6C617465 
 13303      5F657874 
 13304              	.LASF598:
 13305 0d84 5F6C765F 		.ascii	"_lv_obj_spec_attr_t\000"
 13305      6F626A5F 
 13305      73706563 
 13305      5F617474 
 13305      725F7400 
 13306              	.LASF215:
 13307 0d98 6F75746C 		.ascii	"outline_pad\000"
 13307      696E655F 
 13307      70616400 
 13308              	.LASF663:
 13309 0da4 6C765F73 		.ascii	"lv_slider_event\000"
 13309      6C696465 
 13309      725F6576 
 13309      656E7400 
 13310              	.LASF288:
 13311 0db4 6C765F64 		.ascii	"lv_draw_ctx_t\000"
 13311      7261775F 
 13311      6374785F 
 13311      7400
 13312              	.LASF101:
 13313 0dc2 4C565F53 		.ascii	"LV_STYLE_BG_COLOR\000"
 13313      54594C45 
 13313      5F42475F 
 13313      434F4C4F 
 13313      5200
 13314              	.LASF131:
 13315 0dd4 4C565F53 		.ascii	"LV_STYLE_IMG_RECOLOR_OPA\000"
 13315      54594C45 
 13315      5F494D47 
 13315      5F524543 
 13315      4F4C4F52 
 13316              	.LASF422:
 13317 0ded 70726F63 		.ascii	"proc\000"
 13317      00
 13318              	.LASF634:
 13319 0df2 6C765F6F 		.ascii	"lv_obj_get_style_pad_right\000"
 13319      626A5F67 
 13319      65745F73 
ARM GAS  C:\Users\haske\AppData\Local\Temp\cc1ymag8.s 			page 274


 13319      74796C65 
 13319      5F706164 
 13320              	.LASF208:
 13321 0e0d 626F7264 		.ascii	"border_color\000"
 13321      65725F63 
 13321      6F6C6F72 
 13321      00
 13322              	.LASF157:
 13323 0e1a 4C565F53 		.ascii	"LV_STYLE_BLEND_MODE\000"
 13323      54594C45 
 13323      5F424C45 
 13323      4E445F4D 
 13323      4F444500 
 13324              	.LASF26:
 13325 0e2e 6C765F64 		.ascii	"lv_dir_t\000"
 13325      69725F74 
 13325      00
 13326              	.LASF560:
 13327 0e37 4C565F45 		.ascii	"LV_EVENT_SCREEN_LOADED\000"
 13327      56454E54 
 13327      5F534352 
 13327      45454E5F 
 13327      4C4F4144 
 13328              	.LASF171:
 13329 0e4e 70726F70 		.ascii	"prop\000"
 13329      00
 13330              	.LASF446:
 13331 0e53 4C565F50 		.ascii	"LV_PART_ANY\000"
 13331      4152545F 
 13331      414E5900 
 13332              	.LASF176:
 13333 0e5f 636F6E73 		.ascii	"const_props\000"
 13333      745F7072 
 13333      6F707300 
 13334              	.LASF723:
 13335 0e6b 6C765F6F 		.ascii	"lv_obj_class_init_obj\000"
 13335      626A5F63 
 13335      6C617373 
 13335      5F696E69 
 13335      745F6F62 
 13336              	.LASF712:
 13337 0e81 6C765F67 		.ascii	"lv_group_set_editing\000"
 13337      726F7570 
 13337      5F736574 
 13337      5F656469 
 13337      74696E67 
 13338              	.LASF483:
 13339 0e96 5F6C765F 		.ascii	"_lv_obj_style_t\000"
 13339      6F626A5F 
 13339      7374796C 
 13339      655F7400 
 13340              	.LASF660:
 13341 0ea6 6B6E6F62 		.ascii	"knob_rect_dsc\000"
 13341      5F726563 
 13341      745F6473 
 13341      6300
 13342              	.LASF211:
ARM GAS  C:\Users\haske\AppData\Local\Temp\cc1ymag8.s 			page 275


 13343 0eb4 626F7264 		.ascii	"border_post\000"
 13343      65725F70 
 13343      6F737400 
 13344              	.LASF589:
 13345 0ec0 6576656E 		.ascii	"event_dsc\000"
 13345      745F6473 
 13345      6300
 13346              	.LASF117:
 13347 0eca 4C565F53 		.ascii	"LV_STYLE_BORDER_SIDE\000"
 13347      54594C45 
 13347      5F424F52 
 13347      4445525F 
 13347      53494445 
 13348              	.LASF307:
 13349 0edf 666C7573 		.ascii	"flushing\000"
 13349      68696E67 
 13349      00
 13350              	.LASF133:
 13351 0ee8 4C565F53 		.ascii	"LV_STYLE_LINE_DASH_WIDTH\000"
 13351      54594C45 
 13351      5F4C494E 
 13351      455F4441 
 13351      53485F57 
 13352              	.LASF664:
 13353 0f01 696E666F 		.ascii	"info\000"
 13353      00
 13354              	.LASF505:
 13355 0f06 4C565F4F 		.ascii	"LV_OBJ_CLASS_EDITABLE_INHERIT\000"
 13355      424A5F43 
 13355      4C415353 
 13355      5F454449 
 13355      5441424C 
 13356              	.LASF490:
 13357 0f24 74657874 		.ascii	"text\000"
 13357      00
 13358              	.LASF219:
 13359 0f29 73686164 		.ascii	"shadow_ofs_x\000"
 13359      6F775F6F 
 13359      66735F78 
 13359      00
 13360              	.LASF158:
 13361 0f36 4C565F53 		.ascii	"LV_STYLE_TRANSFORM_WIDTH\000"
 13361      54594C45 
 13361      5F545241 
 13361      4E53464F 
 13361      524D5F57 
 13362              	.LASF301:
 13363 0f4f 6C765F74 		.ascii	"lv_timer_t\000"
 13363      696D6572 
 13363      5F7400
 13364              	.LASF588:
 13365 0f5a 67726F75 		.ascii	"group_p\000"
 13365      705F7000 
 13366              	.LASF170:
 13367 0f62 6C765F73 		.ascii	"lv_style_prop_t\000"
 13367      74796C65 
 13367      5F70726F 
ARM GAS  C:\Users\haske\AppData\Local\Temp\cc1ymag8.s 			page 276


 13367      705F7400 
 13368              	.LASF462:
 13369 0f72 4C565F4F 		.ascii	"LV_OBJ_FLAG_EVENT_BUBBLE\000"
 13369      424A5F46 
 13369      4C41475F 
 13369      4556454E 
 13369      545F4255 
 13370              	.LASF247:
 13371 0f8b 726F756E 		.ascii	"round_start\000"
 13371      645F7374 
 13371      61727400 
 13372              	.LASF590:
 13373 0f97 7363726F 		.ascii	"scroll\000"
 13373      6C6C00
 13374              	.LASF41:
 13375 0f9e 66616C6C 		.ascii	"fallback\000"
 13375      6261636B 
 13375      00
 13376              	.LASF175:
 13377 0fa7 76616C75 		.ascii	"values_and_props\000"
 13377      65735F61 
 13377      6E645F70 
 13377      726F7073 
 13377      00
 13378              	.LASF704:
 13379 0fb8 6C765F69 		.ascii	"lv_indev_get_act\000"
 13379      6E646576 
 13379      5F676574 
 13379      5F616374 
 13379      00
 13380              	.LASF375:
 13381 0fc9 6C765F69 		.ascii	"lv_indev_state_t\000"
 13381      6E646576 
 13381      5F737461 
 13381      74655F74 
 13381      00
 13382              	.LASF629:
 13383 0fda 6C765F74 		.ascii	"lv_theme_apply_cb_t\000"
 13383      68656D65 
 13383      5F617070 
 13383      6C795F63 
 13383      625F7400 
 13384              	.LASF322:
 13385 0fee 73775F72 		.ascii	"sw_rotate\000"
 13385      6F746174 
 13385      6500
 13386              	.LASF493:
 13387 0ff8 7375625F 		.ascii	"sub_part_ptr\000"
 13387      70617274 
 13387      5F707472 
 13387      00
 13388              	.LASF155:
 13389 1005 4C565F53 		.ascii	"LV_STYLE_ANIM_SPEED\000"
 13389      54594C45 
 13389      5F414E49 
 13389      4D5F5350 
 13389      45454400 
ARM GAS  C:\Users\haske\AppData\Local\Temp\cc1ymag8.s 			page 277


 13390              	.LASF635:
 13391 1019 6C765F6F 		.ascii	"lv_obj_get_style_pad_left\000"
 13391      626A5F67 
 13391      65745F73 
 13391      74796C65 
 13391      5F706164 
 13392              	.LASF25:
 13393 1033 6C765F61 		.ascii	"lv_area_t\000"
 13393      7265615F 
 13393      7400
 13394              	.LASF283:
 13395 103d 6C617965 		.ascii	"layer_init\000"
 13395      725F696E 
 13395      697400
 13396              	.LASF119:
 13397 1048 4C565F53 		.ascii	"LV_STYLE_OUTLINE_WIDTH\000"
 13397      54594C45 
 13397      5F4F5554 
 13397      4C494E45 
 13397      5F574944 
 13398              	.LASF364:
 13399 105f 666F6E74 		.ascii	"font_small\000"
 13399      5F736D61 
 13399      6C6C00
 13400              	.LASF485:
 13401 106a 72656374 		.ascii	"rect_dsc\000"
 13401      5F647363 
 13401      00
 13402              	.LASF689:
 13403 1073 6C765F6F 		.ascii	"lv_obj_get_width\000"
 13403      626A5F67 
 13403      65745F77 
 13403      69647468 
 13403      00
 13404              	.LASF472:
 13405 1084 4C565F4F 		.ascii	"LV_OBJ_FLAG_USER_1\000"
 13405      424A5F46 
 13405      4C41475F 
 13405      55534552 
 13405      5F3100
 13406              	.LASF473:
 13407 1097 4C565F4F 		.ascii	"LV_OBJ_FLAG_USER_2\000"
 13407      424A5F46 
 13407      4C41475F 
 13407      55534552 
 13407      5F3200
 13408              	.LASF474:
 13409 10aa 4C565F4F 		.ascii	"LV_OBJ_FLAG_USER_3\000"
 13409      424A5F46 
 13409      4C41475F 
 13409      55534552 
 13409      5F3300
 13410              	.LASF475:
 13411 10bd 4C565F4F 		.ascii	"LV_OBJ_FLAG_USER_4\000"
 13411      424A5F46 
 13411      4C41475F 
 13411      55534552 
ARM GAS  C:\Users\haske\AppData\Local\Temp\cc1ymag8.s 			page 278


 13411      5F3400
 13412              	.LASF616:
 13413 10d0 6C765F62 		.ascii	"lv_bar_t\000"
 13413      61725F74 
 13413      00
 13414              	.LASF528:
 13415 10d9 4C565F45 		.ascii	"LV_EVENT_CLICKED\000"
 13415      56454E54 
 13415      5F434C49 
 13415      434B4544 
 13415      00
 13416              	.LASF81:
 13417 10ea 4C565F53 		.ascii	"LV_STYLE_PROP_INV\000"
 13417      54594C45 
 13417      5F50524F 
 13417      505F494E 
 13417      5600
 13418              	.LASF147:
 13419 10fc 4C565F53 		.ascii	"LV_STYLE_TEXT_LINE_SPACE\000"
 13419      54594C45 
 13419      5F544558 
 13419      545F4C49 
 13419      4E455F53 
 13420              	.LASF520:
 13421 1115 6C765F6F 		.ascii	"lv_obj_class_t\000"
 13421      626A5F63 
 13421      6C617373 
 13421      5F7400
 13422              	.LASF173:
 13423 1124 6C765F73 		.ascii	"lv_style_const_prop_t\000"
 13423      74796C65 
 13423      5F636F6E 
 13423      73745F70 
 13423      726F705F 
 13424              	.LASF543:
 13425 113a 4C565F45 		.ascii	"LV_EVENT_DRAW_MAIN_END\000"
 13425      56454E54 
 13425      5F445241 
 13425      575F4D41 
 13425      494E5F45 
 13426              	.LASF708:
 13427 1151 6C765F62 		.ascii	"lv_bar_set_start_value\000"
 13427      61725F73 
 13427      65745F73 
 13427      74617274 
 13427      5F76616C 
 13428              	.LASF411:
 13429 1168 706F696E 		.ascii	"pointer\000"
 13429      74657200 
 13430              	.LASF185:
 13431 1170 70617265 		.ascii	"parent\000"
 13431      6E7400
 13432              	.LASF321:
 13433 1177 66756C6C 		.ascii	"full_refresh\000"
 13433      5F726566 
 13433      72657368 
 13433      00
ARM GAS  C:\Users\haske\AppData\Local\Temp\cc1ymag8.s 			page 279


 13434              	.LASF248:
 13435 1184 726F756E 		.ascii	"round_end\000"
 13435      645F656E 
 13435      6400
 13436              	.LASF603:
 13437 118e 6C765F62 		.ascii	"lv_bar_mode_t\000"
 13437      61725F6D 
 13437      6F64655F 
 13437      7400
 13438              	.LASF253:
 13439 119c 696D675F 		.ascii	"img_src\000"
 13439      73726300 
 13440              	.LASF482:
 13441 11a4 69735F74 		.ascii	"is_trans\000"
 13441      72616E73 
 13441      00
 13442              	.LASF698:
 13443 11ad 6C765F64 		.ascii	"lv_draw_rect_dsc_init\000"
 13443      7261775F 
 13443      72656374 
 13443      5F647363 
 13443      5F696E69 
 13444              	.LASF435:
 13445 11c3 6C765F69 		.ascii	"lv_indev_t\000"
 13445      6E646576 
 13445      5F7400
 13446              	.LASF425:
 13447 11ce 62746E5F 		.ascii	"btn_points\000"
 13447      706F696E 
 13447      747300
 13448              	.LASF488:
 13449 11d9 696D675F 		.ascii	"img_dsc\000"
 13449      64736300 
 13450              	.LASF221:
 13451 11e1 73686164 		.ascii	"shadow_spread\000"
 13451      6F775F73 
 13451      70726561 
 13451      6400
 13452              	.LASF154:
 13453 11ef 4C565F53 		.ascii	"LV_STYLE_ANIM_TIME\000"
 13453      54594C45 
 13453      5F414E49 
 13453      4D5F5449 
 13453      4D4500
 13454              	.LASF669:
 13455 1202 696E6465 		.ascii	"indev\000"
 13455      7600
 13456              	.LASF417:
 13457 1208 77616974 		.ascii	"wait_until_release\000"
 13457      5F756E74 
 13457      696C5F72 
 13457      656C6561 
 13457      736500
 13458              	.LASF94:
 13459 121b 4C565F53 		.ascii	"LV_STYLE_PAD_BOTTOM\000"
 13459      54594C45 
 13459      5F504144 
ARM GAS  C:\Users\haske\AppData\Local\Temp\cc1ymag8.s 			page 280


 13459      5F424F54 
 13459      544F4D00 
 13460              	.LASF499:
 13461 122f 77696474 		.ascii	"width_def\000"
 13461      685F6465 
 13461      6600
 13462              	.LASF466:
 13463 1239 4C565F4F 		.ascii	"LV_OBJ_FLAG_FLOATING\000"
 13463      424A5F46 
 13463      4C41475F 
 13463      464C4F41 
 13463      54494E47 
 13464              	.LASF456:
 13465 124e 4C565F4F 		.ascii	"LV_OBJ_FLAG_SCROLL_CHAIN_VER\000"
 13465      424A5F46 
 13465      4C41475F 
 13465      5343524F 
 13465      4C4C5F43 
 13466              	.LASF328:
 13467 126b 636C6561 		.ascii	"clear_cb\000"
 13467      725F6362 
 13467      00
 13468              	.LASF102:
 13469 1274 4C565F53 		.ascii	"LV_STYLE_BG_OPA\000"
 13469      54594C45 
 13469      5F42475F 
 13469      4F504100 
 13470              	.LASF137:
 13471 1284 4C565F53 		.ascii	"LV_STYLE_LINE_OPA\000"
 13471      54594C45 
 13471      5F4C494E 
 13471      455F4F50 
 13471      4100
 13472              	.LASF180:
 13473 1296 6C765F73 		.ascii	"lv_style_t\000"
 13473      74796C65 
 13473      5F7400
 13474              	.LASF696:
 13475 12a1 6C765F65 		.ascii	"lv_event_get_target\000"
 13475      76656E74 
 13475      5F676574 
 13475      5F746172 
 13475      67657400 
 13476              	.LASF105:
 13477 12b5 4C565F53 		.ascii	"LV_STYLE_BG_MAIN_STOP\000"
 13477      54594C45 
 13477      5F42475F 
 13477      4D41494E 
 13477      5F53544F 
 13478              	.LASF467:
 13479 12cb 4C565F4F 		.ascii	"LV_OBJ_FLAG_OVERFLOW_VISIBLE\000"
 13479      424A5F46 
 13479      4C41475F 
 13479      4F564552 
 13479      464C4F57 
 13480              	.LASF187:
 13481 12e8 7374796C 		.ascii	"styles\000"
ARM GAS  C:\Users\haske\AppData\Local\Temp\cc1ymag8.s 			page 281


 13481      657300
 13482              	.LASF379:
 13483 12ef 636F6E74 		.ascii	"continue_reading\000"
 13483      696E7565 
 13483      5F726561 
 13483      64696E67 
 13483      00
 13484              	.LASF129:
 13485 1300 4C565F53 		.ascii	"LV_STYLE_IMG_OPA\000"
 13485      54594C45 
 13485      5F494D47 
 13485      5F4F5041 
 13485      00
 13486              	.LASF162:
 13487 1311 4C565F53 		.ascii	"LV_STYLE_TRANSFORM_ZOOM\000"
 13487      54594C45 
 13487      5F545241 
 13487      4E53464F 
 13487      524D5F5A 
 13488              	.LASF537:
 13489 1329 4C565F45 		.ascii	"LV_EVENT_LEAVE\000"
 13489      56454E54 
 13489      5F4C4541 
 13489      564500
 13490              	.LASF11:
 13491 1338 6C6F6E67 		.ascii	"long unsigned int\000"
 13491      20756E73 
 13491      69676E65 
 13491      6420696E 
 13491      7400
 13492              	.LASF567:
 13493 134a 4C565F45 		.ascii	"LV_EVENT_PREPROCESS\000"
 13493      56454E54 
 13493      5F505245 
 13493      50524F43 
 13493      45535300 
 13494              	.LASF181:
 13495 135e 6C765F69 		.ascii	"lv_img_cf_t\000"
 13495      6D675F63 
 13495      665F7400 
 13496              	.LASF453:
 13497 136a 4C565F4F 		.ascii	"LV_OBJ_FLAG_SCROLL_MOMENTUM\000"
 13497      424A5F46 
 13497      4C41475F 
 13497      5343524F 
 13497      4C4C5F4D 
 13498              	.LASF144:
 13499 1386 4C565F53 		.ascii	"LV_STYLE_TEXT_OPA\000"
 13499      54594C45 
 13499      5F544558 
 13499      545F4F50 
 13499      4100
 13500              	.LASF251:
 13501 1398 73746172 		.ascii	"start_angle\000"
 13501      745F616E 
 13501      676C6500 
 13502              	.LASF675:
ARM GAS  C:\Users\haske\AppData\Local\Temp\cc1ymag8.s 			page 282


 13503 13a4 62675F72 		.ascii	"bg_right\000"
 13503      69676874 
 13503      00
 13504              	.LASF515:
 13505 13ad 70617261 		.ascii	"param\000"
 13505      6D00
 13506              	.LASF512:
 13507 13b3 74617267 		.ascii	"target\000"
 13507      657400
 13508              	.LASF350:
 13509 13ba 64726177 		.ascii	"draw_prev_over_act\000"
 13509      5F707265 
 13509      765F6F76 
 13509      65725F61 
 13509      637400
 13510              	.LASF286:
 13511 13cd 6C617965 		.ascii	"layer_destroy\000"
 13511      725F6465 
 13511      7374726F 
 13511      7900
 13512              	.LASF245:
 13513 13db 64617368 		.ascii	"dash_width\000"
 13513      5F776964 
 13513      746800
 13514              	.LASF310:
 13515 13e6 6C617374 		.ascii	"last_part\000"
 13515      5F706172 
 13515      7400
 13516              	.LASF501:
 13517 13f0 65646974 		.ascii	"editable\000"
 13517      61626C65 
 13517      00
 13518              	.LASF342:
 13519 13f9 7468656D 		.ascii	"theme\000"
 13519      6500
 13520              	.LASF317:
 13521 13ff 6F666673 		.ascii	"offset_x\000"
 13521      65745F78 
 13521      00
 13522              	.LASF318:
 13523 1408 6F666673 		.ascii	"offset_y\000"
 13523      65745F79 
 13523      00
 13524              	.LASF27:
 13525 1411 7265736F 		.ascii	"resolved_font\000"
 13525      6C766564 
 13525      5F666F6E 
 13525      7400
 13526              	.LASF450:
 13527 141f 4C565F4F 		.ascii	"LV_OBJ_FLAG_CHECKABLE\000"
 13527      424A5F46 
 13527      4C41475F 
 13527      43484543 
 13527      4B41424C 
 13528              	.LASF618:
 13529 1435 4C565F53 		.ascii	"LV_SLIDER_MODE_SYMMETRICAL\000"
 13529      4C494445 
ARM GAS  C:\Users\haske\AppData\Local\Temp\cc1ymag8.s 			page 283


 13529      525F4D4F 
 13529      44455F53 
 13529      594D4D45 
 13530              	.LASF697:
 13531 1450 6C765F65 		.ascii	"lv_event_get_draw_ctx\000"
 13531      76656E74 
 13531      5F676574 
 13531      5F647261 
 13531      775F6374 
 13532              	.LASF427:
 13533 1466 6F626A5F 		.ascii	"obj_ll\000"
 13533      6C6C00
 13534              	.LASF273:
 13535 146d 64726177 		.ascii	"draw_arc\000"
 13535      5F617263 
 13535      00
 13536              	.LASF136:
 13537 1476 4C565F53 		.ascii	"LV_STYLE_LINE_COLOR\000"
 13537      54594C45 
 13537      5F4C494E 
 13537      455F434F 
 13537      4C4F5200 
 13538              	.LASF447:
 13539 148a 4C565F4F 		.ascii	"LV_OBJ_FLAG_HIDDEN\000"
 13539      424A5F46 
 13539      4C41475F 
 13539      48494444 
 13539      454E00
 13540              	.LASF97:
 13541 149d 4C565F53 		.ascii	"LV_STYLE_PAD_ROW\000"
 13541      54594C45 
 13541      5F504144 
 13541      5F524F57 
 13541      00
 13542              	.LASF302:
 13543 14ae 5F6C765F 		.ascii	"_lv_disp_draw_buf_t\000"
 13543      64697370 
 13543      5F647261 
 13543      775F6275 
 13543      665F7400 
 13544              	.LASF638:
 13545 14c2 736C6964 		.ascii	"slider\000"
 13545      657200
 13546              	.LASF261:
 13547 14c9 6275665F 		.ascii	"buf_area\000"
 13547      61726561 
 13547      00
 13548              	.LASF239:
 13549 14d2 7265636F 		.ascii	"recolor\000"
 13549      6C6F7200 
 13550              	.LASF551:
 13551 14da 4C565F45 		.ascii	"LV_EVENT_REFRESH\000"
 13551      56454E54 
 13551      5F524546 
 13551      52455348 
 13551      00
 13552              	.LASF507:
ARM GAS  C:\Users\haske\AppData\Local\Temp\cc1ymag8.s 			page 284


 13553 14eb 4C565F4F 		.ascii	"LV_OBJ_CLASS_EDITABLE_FALSE\000"
 13553      424A5F43 
 13553      4C415353 
 13553      5F454449 
 13553      5441424C 
 13554              	.LASF503:
 13555 1507 696E7374 		.ascii	"instance_size\000"
 13555      616E6365 
 13555      5F73697A 
 13555      6500
 13556              	.LASF59:
 13557 1515 6C765F61 		.ascii	"lv_anim_enable_t\000"
 13557      6E696D5F 
 13557      656E6162 
 13557      6C655F74 
 13557      00
 13558              	.LASF236:
 13559 1526 616E676C 		.ascii	"angle\000"
 13559      6500
 13560              	.LASF95:
 13561 152c 4C565F53 		.ascii	"LV_STYLE_PAD_LEFT\000"
 13561      54594C45 
 13561      5F504144 
 13561      5F4C4546 
 13561      5400
 13562              	.LASF336:
 13563 153e 64726177 		.ascii	"draw_ctx_init\000"
 13563      5F637478 
 13563      5F696E69 
 13563      7400
 13564              	.LASF557:
 13565 154c 4C565F45 		.ascii	"LV_EVENT_CHILD_DELETED\000"
 13565      56454E54 
 13565      5F434849 
 13565      4C445F44 
 13565      454C4554 
 13566              	.LASF424:
 13567 1563 67726F75 		.ascii	"group\000"
 13567      7000
 13568              	.LASF440:
 13569 1569 4C565F50 		.ascii	"LV_PART_KNOB\000"
 13569      4152545F 
 13569      4B4E4F42 
 13569      00
 13570              	.LASF374:
 13571 1576 4C565F49 		.ascii	"LV_INDEV_STATE_PRESSED\000"
 13571      4E444556 
 13571      5F535441 
 13571      54455F50 
 13571      52455353 
 13572              	.LASF667:
 13573 158d 64697374 		.ascii	"dist_left\000"
 13573      5F6C6566 
 13573      7400
 13574              	.LASF274:
 13575 1597 64726177 		.ascii	"draw_img_decoded\000"
 13575      5F696D67 
ARM GAS  C:\Users\haske\AppData\Local\Temp\cc1ymag8.s 			page 285


 13575      5F646563 
 13575      6F646564 
 13575      00
 13576              	.LASF294:
 13577 15a8 6C765F74 		.ascii	"lv_timer_cb_t\000"
 13577      696D6572 
 13577      5F63625F 
 13577      7400
 13578              	.LASF153:
 13579 15b6 4C565F53 		.ascii	"LV_STYLE_ANIM\000"
 13579      54594C45 
 13579      5F414E49 
 13579      4D00
 13580              	.LASF88:
 13581 15c4 4C565F53 		.ascii	"LV_STYLE_X\000"
 13581      54594C45 
 13581      5F5800
 13582              	.LASF401:
 13583 15cf 6C617374 		.ascii	"last_obj\000"
 13583      5F6F626A 
 13583      00
 13584              	.LASF460:
 13585 15d8 4C565F4F 		.ascii	"LV_OBJ_FLAG_SNAPPABLE\000"
 13585      424A5F46 
 13585      4C41475F 
 13585      534E4150 
 13585      5041424C 
 13586              	.LASF665:
 13587 15ee 6578745F 		.ascii	"ext_click_area\000"
 13587      636C6963 
 13587      6B5F6172 
 13587      656100
 13588              	.LASF372:
 13589 15fd 6C765F69 		.ascii	"lv_indev_type_t\000"
 13589      6E646576 
 13589      5F747970 
 13589      655F7400 
 13590              	.LASF504:
 13591 160d 6C765F6F 		.ascii	"lv_obj_draw_part_dsc_t\000"
 13591      626A5F64 
 13591      7261775F 
 13591      70617274 
 13591      5F647363 
 13592              	.LASF149:
 13593 1624 4C565F53 		.ascii	"LV_STYLE_TEXT_ALIGN\000"
 13593      54594C45 
 13593      5F544558 
 13593      545F414C 
 13593      49474E00 
 13594              	.LASF715:
 13595 1638 6C765F62 		.ascii	"lv_bar_get_start_value\000"
 13595      61725F67 
 13595      65745F73 
 13595      74617274 
 13595      5F76616C 
 13596              	.LASF370:
 13597 164f 4C565F49 		.ascii	"LV_INDEV_TYPE_BUTTON\000"
ARM GAS  C:\Users\haske\AppData\Local\Temp\cc1ymag8.s 			page 286


 13597      4E444556 
 13597      5F545950 
 13597      455F4255 
 13597      54544F4E 
 13598              	.LASF701:
 13599 1664 6C765F65 		.ascii	"lv_event_get_param\000"
 13599      76656E74 
 13599      5F676574 
 13599      5F706172 
 13599      616D00
 13600              	.LASF182:
 13601 1677 5F6C765F 		.ascii	"_lv_font_t\000"
 13601      666F6E74 
 13601      5F7400
 13602              	.LASF330:
 13603 1682 77616974 		.ascii	"wait_cb\000"
 13603      5F636200 
 13604              	.LASF10:
 13605 168a 5F5F7569 		.ascii	"__uint32_t\000"
 13605      6E743332 
 13605      5F7400
 13606              	.LASF498:
 13607 1695 6576656E 		.ascii	"event_cb\000"
 13607      745F6362 
 13607      00
 13608              	.LASF568:
 13609 169e 6C765F65 		.ascii	"lv_event_code_t\000"
 13609      76656E74 
 13609      5F636F64 
 13609      655F7400 
 13610              	.LASF69:
 13611 16ae 6C765F74 		.ascii	"lv_text_decor_t\000"
 13611      6578745F 
 13611      6465636F 
 13611      725F7400 
 13612              	.LASF511:
 13613 16be 5F6C765F 		.ascii	"_lv_event_t\000"
 13613      6576656E 
 13613      745F7400 
 13614              	.LASF12:
 13615 16ca 6C6F6E67 		.ascii	"long long int\000"
 13615      206C6F6E 
 13615      6720696E 
 13615      7400
 13616              	.LASF217:
 13617 16d8 73686164 		.ascii	"shadow_color\000"
 13617      6F775F63 
 13617      6F6C6F72 
 13617      00
 13618              	.LASF517:
 13619 16e5 64656C65 		.ascii	"deleted\000"
 13619      74656400 
 13620              	.LASF244:
 13621 16ed 77696474 		.ascii	"width\000"
 13621      6800
 13622              	.LASF655:
 13623 16f3 706F7369 		.ascii	"position_knob\000"
ARM GAS  C:\Users\haske\AppData\Local\Temp\cc1ymag8.s 			page 287


 13623      74696F6E 
 13623      5F6B6E6F 
 13623      6200
 13624              	.LASF532:
 13625 1701 4C565F45 		.ascii	"LV_EVENT_SCROLL\000"
 13625      56454E54 
 13625      5F534352 
 13625      4F4C4C00 
 13626              	.LASF632:
 13627 1711 6C765F6F 		.ascii	"lv_obj_get_style_pad_bottom\000"
 13627      626A5F67 
 13627      65745F73 
 13627      74796C65 
 13627      5F706164 
 13628              	.LASF463:
 13629 172d 4C565F4F 		.ascii	"LV_OBJ_FLAG_GESTURE_BUBBLE\000"
 13629      424A5F46 
 13629      4C41475F 
 13629      47455354 
 13629      5552455F 
 13630              	.LASF303:
 13631 1748 62756631 		.ascii	"buf1\000"
 13631      00
 13632              	.LASF304:
 13633 174d 62756632 		.ascii	"buf2\000"
 13633      00
 13634              	.LASF586:
 13635 1752 6368696C 		.ascii	"children\000"
 13635      6472656E 
 13635      00
 13636              	.LASF163:
 13637 175b 4C565F53 		.ascii	"LV_STYLE_TRANSFORM_ANGLE\000"
 13637      54594C45 
 13637      5F545241 
 13637      4E53464F 
 13637      524D5F41 
 13638              	.LASF394:
 13639 1774 6C617374 		.ascii	"last_point\000"
 13639      5F706F69 
 13639      6E7400
 13640              	.LASF578:
 13641 177f 4C565F4B 		.ascii	"LV_KEY_ENTER\000"
 13641      45595F45 
 13641      4E544552 
 13641      00
 13642              	.LASF400:
 13643 178c 6163745F 		.ascii	"act_obj\000"
 13643      6F626A00 
 13644              	.LASF256:
 13645 1794 4C565F44 		.ascii	"LV_DRAW_LAYER_FLAG_NONE\000"
 13645      5241575F 
 13645      4C415945 
 13645      525F464C 
 13645      41475F4E 
 13646              	.LASF151:
 13647 17ac 4C565F53 		.ascii	"LV_STYLE_COLOR_FILTER_DSC\000"
 13647      54594C45 
ARM GAS  C:\Users\haske\AppData\Local\Temp\cc1ymag8.s 			page 288


 13647      5F434F4C 
 13647      4F525F46 
 13647      494C5445 
 13648              	.LASF61:
 13649 17c6 6C765F74 		.ascii	"lv_text_align_t\000"
 13649      6578745F 
 13649      616C6967 
 13649      6E5F7400 
 13650              	.LASF65:
 13651 17d6 4C565F42 		.ascii	"LV_BASE_DIR_NEUTRAL\000"
 13651      4153455F 
 13651      4449525F 
 13651      4E455554 
 13651      52414C00 
 13652              	.LASF452:
 13653 17ea 4C565F4F 		.ascii	"LV_OBJ_FLAG_SCROLL_ELASTIC\000"
 13653      424A5F46 
 13653      4C41475F 
 13653      5343524F 
 13653      4C4C5F45 
 13654              	.LASF613:
 13655 1805 6375725F 		.ascii	"cur_value_anim\000"
 13655      76616C75 
 13655      655F616E 
 13655      696D00
 13656              	.LASF40:
 13657 1814 756E6465 		.ascii	"underline_thickness\000"
 13657      726C696E 
 13657      655F7468 
 13657      69636B6E 
 13657      65737300 
 13658              	.LASF148:
 13659 1828 4C565F53 		.ascii	"LV_STYLE_TEXT_DECOR\000"
 13659      54594C45 
 13659      5F544558 
 13659      545F4445 
 13659      434F5200 
 13660              	.LASF530:
 13661 183c 4C565F45 		.ascii	"LV_EVENT_SCROLL_BEGIN\000"
 13661      56454E54 
 13661      5F534352 
 13661      4F4C4C5F 
 13661      42454749 
 13662              	.LASF232:
 13663 1852 616C6967 		.ascii	"align\000"
 13663      6E00
 13664              	.LASF139:
 13665 1858 4C565F53 		.ascii	"LV_STYLE_ARC_ROUNDED\000"
 13665      54594C45 
 13665      5F415243 
 13665      5F524F55 
 13665      4E444544 
 13666              	.LASF448:
 13667 186d 4C565F4F 		.ascii	"LV_OBJ_FLAG_CLICKABLE\000"
 13667      424A5F46 
 13667      4C41475F 
 13667      434C4943 
ARM GAS  C:\Users\haske\AppData\Local\Temp\cc1ymag8.s 			page 289


 13667      4B41424C 
 13668              	.LASF682:
 13669 1883 7472616E 		.ascii	"trans_h\000"
 13669      735F6800 
 13670              	.LASF329:
 13671 188b 6D6F6E69 		.ascii	"monitor_cb\000"
 13671      746F725F 
 13671      636200
 13672              	.LASF193:
 13673 1896 736B6970 		.ascii	"skip_trans\000"
 13673      5F747261 
 13673      6E7300
 13674              	.LASF650:
 13675 18a1 6B6E6F62 		.ascii	"knob_right\000"
 13675      5F726967 
 13675      687400
 13676              	.LASF681:
 13677 18ac 7472616E 		.ascii	"trans_w\000"
 13677      735F7700 
 13678              	.LASF439:
 13679 18b4 4C565F50 		.ascii	"LV_PART_INDICATOR\000"
 13679      4152545F 
 13679      494E4449 
 13679      4341544F 
 13679      5200
 13680              	.LASF508:
 13681 18c6 4C565F4F 		.ascii	"LV_OBJ_CLASS_GROUP_DEF_INHERIT\000"
 13681      424A5F43 
 13681      4C415353 
 13681      5F47524F 
 13681      55505F44 
 13682              	.LASF438:
 13683 18e5 4C565F50 		.ascii	"LV_PART_SCROLLBAR\000"
 13683      4152545F 
 13683      5343524F 
 13683      4C4C4241 
 13683      5200
 13684              	.LASF143:
 13685 18f7 4C565F53 		.ascii	"LV_STYLE_TEXT_COLOR\000"
 13685      54594C45 
 13685      5F544558 
 13685      545F434F 
 13685      4C4F5200 
 13686              	.LASF717:
 13687 190b 6C765F65 		.ascii	"lv_event_get_code\000"
 13687      76656E74 
 13687      5F676574 
 13687      5F636F64 
 13687      6500
 13688              	.LASF554:
 13689 191d 4C565F45 		.ascii	"LV_EVENT_DELETE\000"
 13689      56454E54 
 13689      5F44454C 
 13689      45544500 
 13690              	.LASF184:
 13691 192d 636C6173 		.ascii	"class_p\000"
 13691      735F7000 
ARM GAS  C:\Users\haske\AppData\Local\Temp\cc1ymag8.s 			page 290


 13692              	.LASF544:
 13693 1935 4C565F45 		.ascii	"LV_EVENT_DRAW_POST_BEGIN\000"
 13693      56454E54 
 13693      5F445241 
 13693      575F504F 
 13693      53545F42 
 13694              	.LASF506:
 13695 194e 4C565F4F 		.ascii	"LV_OBJ_CLASS_EDITABLE_TRUE\000"
 13695      424A5F43 
 13695      4C415353 
 13695      5F454449 
 13695      5441424C 
 13696              	.LASF14:
 13697 1969 756E7369 		.ascii	"unsigned int\000"
 13697      676E6564 
 13697      20696E74 
 13697      00
 13698              	.LASF393:
 13699 1976 696E6465 		.ascii	"indev_point\000"
 13699      765F706F 
 13699      696E7400 
 13700              	.LASF486:
 13701 1982 6C616265 		.ascii	"label_dsc\000"
 13701      6C5F6473 
 13701      6300
 13702              	.LASF361:
 13703 198c 64697370 		.ascii	"disp\000"
 13703      00
 13704              	.LASF300:
 13705 1991 70617573 		.ascii	"paused\000"
 13705      656400
 13706              	.LASF699:
 13707 1998 6C765F6F 		.ascii	"lv_obj_init_draw_rect_dsc\000"
 13707      626A5F69 
 13707      6E69745F 
 13707      64726177 
 13707      5F726563 
 13708              	.LASF700:
 13709 19b2 6C765F6F 		.ascii	"lv_obj_draw_dsc_init\000"
 13709      626A5F64 
 13709      7261775F 
 13709      6473635F 
 13709      696E6974 
 13710              	.LASF260:
 13711 19c7 636C6970 		.ascii	"clip_area\000"
 13711      5F617265 
 13711      6100
 13712              	.LASF80:
 13713 19d1 6C765F73 		.ascii	"lv_style_value_t\000"
 13713      74796C65 
 13713      5F76616C 
 13713      75655F74 
 13713      00
 13714              	.LASF397:
 13715 19e2 7363726F 		.ascii	"scroll_sum\000"
 13715      6C6C5F73 
 13715      756D00
ARM GAS  C:\Users\haske\AppData\Local\Temp\cc1ymag8.s 			page 291


 13716              	.LASF722:
 13717 19ed 6C765F6F 		.ascii	"lv_obj_class_create_obj\000"
 13717      626A5F63 
 13717      6C617373 
 13717      5F637265 
 13717      6174655F 
 13718              	.LASF642:
 13719 1a05 6C765F73 		.ascii	"lv_slider_set_value\000"
 13719      6C696465 
 13719      725F7365 
 13719      745F7661 
 13719      6C756500 
 13720              	.LASF378:
 13721 1a19 656E635F 		.ascii	"enc_diff\000"
 13721      64696666 
 13721      00
 13722              	.LASF719:
 13723 1a22 6C765F6F 		.ascii	"lv_obj_clear_flag\000"
 13723      626A5F63 
 13723      6C656172 
 13723      5F666C61 
 13723      6700
 13724              	.LASF226:
 13725 1a34 73656C5F 		.ascii	"sel_end\000"
 13725      656E6400 
 13726              	.LASF169:
 13727 1a3c 5F4C565F 		.ascii	"_LV_STYLE_PROP_CONST\000"
 13727      5354594C 
 13727      455F5052 
 13727      4F505F43 
 13727      4F4E5354 
 13728              	.LASF264:
 13729 1a51 61726561 		.ascii	"area_full\000"
 13729      5F66756C 
 13729      6C00
 13730              	.LASF233:
 13731 1a5b 666C6167 		.ascii	"flag\000"
 13731      00
 13732              	.LASF339:
 13733 1a60 5F6C765F 		.ascii	"_lv_disp_t\000"
 13733      64697370 
 13733      5F7400
 13734              	.LASF549:
 13735 1a6b 4C565F45 		.ascii	"LV_EVENT_VALUE_CHANGED\000"
 13735      56454E54 
 13735      5F56414C 
 13735      55455F43 
 13735      48414E47 
 13736              	.LASF263:
 13737 1a82 5F6C765F 		.ascii	"_lv_draw_layer_ctx_t\000"
 13737      64726177 
 13737      5F6C6179 
 13737      65725F63 
 13737      74785F74 
 13738              	.LASF216:
 13739 1a97 6F75746C 		.ascii	"outline_opa\000"
 13739      696E655F 
ARM GAS  C:\Users\haske\AppData\Local\Temp\cc1ymag8.s 			page 292


 13739      6F706100 
 13740              	.LASF354:
 13741 1aa3 696E765F 		.ascii	"inv_areas\000"
 13741      61726561 
 13741      7300
 13742              	.LASF266:
 13743 1aad 6D61785F 		.ascii	"max_row_with_alpha\000"
 13743      726F775F 
 13743      77697468 
 13743      5F616C70 
 13743      686100
 13744              	.LASF420:
 13745 1ac0 6C6F6E67 		.ascii	"longpr_rep_timestamp\000"
 13745      70725F72 
 13745      65705F74 
 13745      696D6573 
 13745      74616D70 
 13746              	.LASF458:
 13747 1ad5 4C565F4F 		.ascii	"LV_OBJ_FLAG_SCROLL_ON_FOCUS\000"
 13747      424A5F46 
 13747      4C41475F 
 13747      5343524F 
 13747      4C4C5F4F 
 13748              	.LASF241:
 13749 1af1 6672616D 		.ascii	"frame_id\000"
 13749      655F6964 
 13749      00
 13750              	.LASF600:
 13751 1afa 4C565F42 		.ascii	"LV_BAR_MODE_NORMAL\000"
 13751      41525F4D 
 13751      4F44455F 
 13751      4E4F524D 
 13751      414C00
 13752              	.LASF489:
 13753 1b0d 6172635F 		.ascii	"arc_dsc\000"
 13753      64736300 
 13754              	.LASF240:
 13755 1b15 7265636F 		.ascii	"recolor_opa\000"
 13755      6C6F725F 
 13755      6F706100 
 13756              	.LASF91:
 13757 1b21 4C565F53 		.ascii	"LV_STYLE_LAYOUT\000"
 13757      54594C45 
 13757      5F4C4159 
 13757      4F555400 
 13758              	.LASF43:
 13759 1b31 6C765F66 		.ascii	"lv_font_glyph_dsc_t\000"
 13759      6F6E745F 
 13759      676C7970 
 13759      685F6473 
 13759      635F7400 
 13760              	.LASF559:
 13761 1b45 4C565F45 		.ascii	"LV_EVENT_SCREEN_LOAD_START\000"
 13761      56454E54 
 13761      5F534352 
 13761      45454E5F 
 13761      4C4F4144 
ARM GAS  C:\Users\haske\AppData\Local\Temp\cc1ymag8.s 			page 293


 13762              	.LASF519:
 13763 1b60 73746F70 		.ascii	"stop_bubbling\000"
 13763      5F627562 
 13763      626C696E 
 13763      6700
 13764              	.LASF214:
 13765 1b6e 6F75746C 		.ascii	"outline_width\000"
 13765      696E655F 
 13765      77696474 
 13765      6800
 13766              	.LASF123:
 13767 1b7c 4C565F53 		.ascii	"LV_STYLE_SHADOW_WIDTH\000"
 13767      54594C45 
 13767      5F534841 
 13767      444F575F 
 13767      57494454 
 13768              	.LASF523:
 13769 1b92 4C565F45 		.ascii	"LV_EVENT_PRESSING\000"
 13769      56454E54 
 13769      5F505245 
 13769      5353494E 
 13769      4700
 13770              	.LASF465:
 13771 1ba4 4C565F4F 		.ascii	"LV_OBJ_FLAG_IGNORE_LAYOUT\000"
 13771      424A5F46 
 13771      4C41475F 
 13771      49474E4F 
 13771      52455F4C 
 13772              	.LASF100:
 13773 1bbe 4C565F53 		.ascii	"LV_STYLE_CLIP_CORNER\000"
 13773      54594C45 
 13773      5F434C49 
 13773      505F434F 
 13773      524E4552 
 13774              	.LASF720:
 13775 1bd3 6C765F64 		.ascii	"lv_disp_get_dpi\000"
 13775      6973705F 
 13775      6765745F 
 13775      64706900 
 13776              	.LASF242:
 13777 1be3 616E7469 		.ascii	"antialias\000"
 13777      616C6961 
 13777      7300
 13778              	.LASF495:
 13779 1bed 62617365 		.ascii	"base_class\000"
 13779      5F636C61 
 13779      737300
 13780              	.LASF525:
 13781 1bf8 4C565F45 		.ascii	"LV_EVENT_SHORT_CLICKED\000"
 13781      56454E54 
 13781      5F53484F 
 13781      52545F43 
 13781      4C49434B 
 13782              	.LASF527:
 13783 1c0f 4C565F45 		.ascii	"LV_EVENT_LONG_PRESSED_REPEAT\000"
 13783      56454E54 
 13783      5F4C4F4E 
ARM GAS  C:\Users\haske\AppData\Local\Temp\cc1ymag8.s 			page 294


 13783      475F5052 
 13783      45535345 
 13784              	.LASF429:
 13785 1c2c 666F6375 		.ascii	"focus_cb\000"
 13785      735F6362 
 13785      00
 13786              	.LASF385:
 13787 1c35 72656164 		.ascii	"read_timer\000"
 13787      5F74696D 
 13787      657200
 13788              	.LASF48:
 13789 1c40 6C765F72 		.ascii	"lv_res_t\000"
 13789      65735F74 
 13789      00
 13790              	.LASF366:
 13791 1c49 666F6E74 		.ascii	"font_large\000"
 13791      5F6C6172 
 13791      676500
 13792              	.LASF152:
 13793 1c54 4C565F53 		.ascii	"LV_STYLE_COLOR_FILTER_OPA\000"
 13793      54594C45 
 13793      5F434F4C 
 13793      4F525F46 
 13793      494C5445 
 13794              	.LASF646:
 13795 1c6e 6C765F73 		.ascii	"lv_slider_get_left_value\000"
 13795      6C696465 
 13795      725F6765 
 13795      745F6C65 
 13795      66745F76 
 13796              	.LASF687:
 13797 1c87 6C765F62 		.ascii	"lv_bar_class\000"
 13797      61725F63 
 13797      6C617373 
 13797      00
 13798              	.LASF305:
 13799 1c94 6275665F 		.ascii	"buf_act\000"
 13799      61637400 
 13800              	.LASF22:
 13801 1c9c 6C6F6E67 		.ascii	"long double\000"
 13801      20646F75 
 13801      626C6500 
 13802              	.LASF479:
 13803 1ca8 7374796C 		.ascii	"style\000"
 13803      6500
 13804              	.LASF72:
 13805 1cae 6C765F64 		.ascii	"lv_dither_mode_t\000"
 13805      69746865 
 13805      725F6D6F 
 13805      64655F74 
 13805      00
 13806              	.LASF478:
 13807 1cbf 6C765F73 		.ascii	"lv_scroll_snap_t\000"
 13807      63726F6C 
 13807      6C5F736E 
 13807      61705F74 
 13807      00
ARM GAS  C:\Users\haske\AppData\Local\Temp\cc1ymag8.s 			page 295


 13808              	.LASF409:
 13809 1cd0 6C617374 		.ascii	"last_state\000"
 13809      5F737461 
 13809      746500
 13810              	.LASF368:
 13811 1cdb 4C565F49 		.ascii	"LV_INDEV_TYPE_POINTER\000"
 13811      4E444556 
 13811      5F545950 
 13811      455F504F 
 13811      494E5445 
 13812              	.LASF419:
 13813 1cf1 70725F74 		.ascii	"pr_timestamp\000"
 13813      696D6573 
 13813      74616D70 
 13813      00
 13814              	.LASF514:
 13815 1cfe 636F6465 		.ascii	"code\000"
 13815      00
 13816              	.LASF38:
 13817 1d03 73756270 		.ascii	"subpx\000"
 13817      7800
 13818              	.LASF281:
 13819 1d09 77616974 		.ascii	"wait_for_finish\000"
 13819      5F666F72 
 13819      5F66696E 
 13819      69736800 
 13820              	.LASF721:
 13821 1d19 6C765F6F 		.ascii	"lv_obj_set_ext_click_area\000"
 13821      626A5F73 
 13821      65745F65 
 13821      78745F63 
 13821      6C69636B 
 13822              	.LASF437:
 13823 1d33 4C565F50 		.ascii	"LV_PART_MAIN\000"
 13823      4152545F 
 13823      4D41494E 
 13823      00
 13824              	.LASF679:
 13825 1d40 696E6469 		.ascii	"indic_h\000"
 13825      635F6800 
 13826              	.LASF206:
 13827 1d48 62675F69 		.ascii	"bg_img_recolor_opa\000"
 13827      6D675F72 
 13827      65636F6C 
 13827      6F725F6F 
 13827      706100
 13828              	.LASF510:
 13829 1d5b 4C565F4F 		.ascii	"LV_OBJ_CLASS_GROUP_DEF_FALSE\000"
 13829      424A5F43 
 13829      4C415353 
 13829      5F47524F 
 13829      55505F44 
 13830              	.LASF582:
 13831 1d78 4C565F4B 		.ascii	"LV_KEY_END\000"
 13831      45595F45 
 13831      4E4400
 13832              	.LASF258:
ARM GAS  C:\Users\haske\AppData\Local\Temp\cc1ymag8.s 			page 296


 13833 1d83 4C565F44 		.ascii	"LV_DRAW_LAYER_FLAG_CAN_SUBDIVIDE\000"
 13833      5241575F 
 13833      4C415945 
 13833      525F464C 
 13833      41475F43 
 13834              	.LASF384:
 13835 1da4 66656564 		.ascii	"feedback_cb\000"
 13835      6261636B 
 13835      5F636200 
 13836              	.LASF637:
 13837 1db0 6C765F73 		.ascii	"lv_slider_get_mode\000"
 13837      6C696465 
 13837      725F6765 
 13837      745F6D6F 
 13837      646500
 13838              	.LASF298:
 13839 1dc3 74696D65 		.ascii	"timer_cb\000"
 13839      725F6362 
 13839      00
 13840              	.LASF387:
 13841 1dcc 7363726F 		.ascii	"scroll_throw\000"
 13841      6C6C5F74 
 13841      68726F77 
 13841      00
 13842              	.LASF522:
 13843 1dd9 4C565F45 		.ascii	"LV_EVENT_PRESSED\000"
 13843      56454E54 
 13843      5F505245 
 13843      53534544 
 13843      00
 13844              	.LASF625:
 13845 1dea 6C656674 		.ascii	"left_knob_focus\000"
 13845      5F6B6E6F 
 13845      625F666F 
 13845      63757300 
 13846              	.LASF553:
 13847 1dfa 4C565F45 		.ascii	"LV_EVENT_CANCEL\000"
 13847      56454E54 
 13847      5F43414E 
 13847      43454C00 
 13848              	.LASF695:
 13849 1e0a 6C765F64 		.ascii	"lv_draw_rect\000"
 13849      7261775F 
 13849      72656374 
 13849      00
 13850              	.LASF442:
 13851 1e17 4C565F50 		.ascii	"LV_PART_ITEMS\000"
 13851      4152545F 
 13851      4954454D 
 13851      5300
 13852              	.LASF114:
 13853 1e25 4C565F53 		.ascii	"LV_STYLE_BORDER_COLOR\000"
 13853      54594C45 
 13853      5F424F52 
 13853      4445525F 
 13853      434F4C4F 
 13854              	.LASF333:
ARM GAS  C:\Users\haske\AppData\Local\Temp\cc1ymag8.s 			page 297


 13855 1e3b 72656E64 		.ascii	"render_start_cb\000"
 13855      65725F73 
 13855      74617274 
 13855      5F636200 
 13856              	.LASF332:
 13857 1e4b 6472765F 		.ascii	"drv_update_cb\000"
 13857      75706461 
 13857      74655F63 
 13857      6200
 13858              	.LASF398:
 13859 1e59 7363726F 		.ascii	"scroll_throw_vect\000"
 13859      6C6C5F74 
 13859      68726F77 
 13859      5F766563 
 13859      7400
 13860              	.LASF0:
 13861 1e6b 5F5F696E 		.ascii	"__int8_t\000"
 13861      74385F74 
 13861      00
 13862              	.LASF413:
 13863 1e74 5F6C765F 		.ascii	"_lv_indev_proc_t\000"
 13863      696E6465 
 13863      765F7072 
 13863      6F635F74 
 13863      00
 13864              	.LASF432:
 13865 1e85 65646974 		.ascii	"editing\000"
 13865      696E6700 
 13866              	.LASF315:
 13867 1e8d 70687973 		.ascii	"physical_hor_res\000"
 13867      6963616C 
 13867      5F686F72 
 13867      5F726573 
 13867      00
 13868              	.LASF692:
 13869 1e9e 6C765F62 		.ascii	"lv_bar_get_mode\000"
 13869      61725F67 
 13869      65745F6D 
 13869      6F646500 
 13870              	.LASF306:
 13871 1eae 73697A65 		.ascii	"size\000"
 13871      00
 13872              	.LASF267:
 13873 1eb3 6D61785F 		.ascii	"max_row_with_no_alpha\000"
 13873      726F775F 
 13873      77697468 
 13873      5F6E6F5F 
 13873      616C7068 
 13874              	.LASF390:
 13875 1ec9 6C6F6E67 		.ascii	"long_press_time\000"
 13875      5F707265 
 13875      73735F74 
 13875      696D6500 
 13876              	.LASF621:
 13877 1ed9 6C656674 		.ascii	"left_knob_area\000"
 13877      5F6B6E6F 
 13877      625F6172 
ARM GAS  C:\Users\haske\AppData\Local\Temp\cc1ymag8.s 			page 298


 13877      656100
 13878              	.LASF13:
 13879 1ee8 6C6F6E67 		.ascii	"long long unsigned int\000"
 13879      206C6F6E 
 13879      6720756E 
 13879      7369676E 
 13879      65642069 
 13880              	.LASF348:
 13881 1eff 7379735F 		.ascii	"sys_layer\000"
 13881      6C617965 
 13881      7200
 13882              	.LASF106:
 13883 1f09 4C565F53 		.ascii	"LV_STYLE_BG_GRAD_STOP\000"
 13883      54594C45 
 13883      5F42475F 
 13883      47524144 
 13883      5F53544F 
 13884              	.LASF676:
 13885 1f1f 696E6469 		.ascii	"indic_w\000"
 13885      635F7700 
 13886              	.LASF79:
 13887 1f27 6C765F67 		.ascii	"lv_grad_dsc_t\000"
 13887      7261645F 
 13887      6473635F 
 13887      7400
 13888              	.LASF583:
 13889 1f35 6C765F67 		.ascii	"lv_group_focus_cb_t\000"
 13889      726F7570 
 13889      5F666F63 
 13889      75735F63 
 13889      625F7400 
 13890              	.LASF494:
 13891 1f49 5F6C765F 		.ascii	"_lv_obj_class_t\000"
 13891      6F626A5F 
 13891      636C6173 
 13891      735F7400 
 13892              	.LASF223:
 13893 1f59 6C765F64 		.ascii	"lv_draw_rect_dsc_t\000"
 13893      7261775F 
 13893      72656374 
 13893      5F647363 
 13893      5F7400
 13894              	.LASF449:
 13895 1f6c 4C565F4F 		.ascii	"LV_OBJ_FLAG_CLICK_FOCUSABLE\000"
 13895      424A5F46 
 13895      4C41475F 
 13895      434C4943 
 13895      4B5F464F 
 13896              	.LASF18:
 13897 1f88 75696E74 		.ascii	"uint16_t\000"
 13897      31365F74 
 13897      00
 13898              	.LASF47:
 13899 1f91 4C565F52 		.ascii	"LV_RES_OK\000"
 13899      45535F4F 
 13899      4B00
 13900              	.LASF691:
ARM GAS  C:\Users\haske\AppData\Local\Temp\cc1ymag8.s 			page 299


 13901 1f9b 6C765F6F 		.ascii	"lv_obj_get_style_prop\000"
 13901      626A5F67 
 13901      65745F73 
 13901      74796C65 
 13901      5F70726F 
 13902              	.LASF297:
 13903 1fb1 6C617374 		.ascii	"last_run\000"
 13903      5F72756E 
 13903      00
 13904              	.LASF509:
 13905 1fba 4C565F4F 		.ascii	"LV_OBJ_CLASS_GROUP_DEF_TRUE\000"
 13905      424A5F43 
 13905      4C415353 
 13905      5F47524F 
 13905      55505F44 
 13906              	.LASF434:
 13907 1fd6 77726170 		.ascii	"wrap\000"
 13907      00
 13908              	.LASF55:
 13909 1fdb 6C765F63 		.ascii	"lv_color_t\000"
 13909      6F6C6F72 
 13909      5F7400
 13910              	.LASF276:
 13911 1fe6 64726177 		.ascii	"draw_letter\000"
 13911      5F6C6574 
 13911      74657200 
 13912              	.LASF415:
 13913 1ff2 72657365 		.ascii	"reset_query\000"
 13913      745F7175 
 13913      65727900 
 13914              	.LASF82:
 13915 1ffe 4C565F53 		.ascii	"LV_STYLE_WIDTH\000"
 13915      54594C45 
 13915      5F574944 
 13915      544800
 13916              	.LASF716:
 13917 200d 6C765F6F 		.ascii	"lv_obj_event_base\000"
 13917      626A5F65 
 13917      76656E74 
 13917      5F626173 
 13917      6500
 13918              	.LASF209:
 13919 201f 626F7264 		.ascii	"border_width\000"
 13919      65725F77 
 13919      69647468 
 13919      00
 13920              	.LASF83:
 13921 202c 4C565F53 		.ascii	"LV_STYLE_MIN_WIDTH\000"
 13921      54594C45 
 13921      5F4D494E 
 13921      5F574944 
 13921      544800
 13922              	.LASF60:
 13923 203f 6C765F74 		.ascii	"lv_text_flag_t\000"
 13923      6578745F 
 13923      666C6167 
 13923      5F7400
ARM GAS  C:\Users\haske\AppData\Local\Temp\cc1ymag8.s 			page 300


 13924              	.LASF399:
 13925 204e 7363726F 		.ascii	"scroll_throw_vect_ori\000"
 13925      6C6C5F74 
 13925      68726F77 
 13925      5F766563 
 13925      745F6F72 
 13926              	.LASF602:
 13927 2064 4C565F42 		.ascii	"LV_BAR_MODE_RANGE\000"
 13927      41525F4D 
 13927      4F44455F 
 13927      52414E47 
 13927      4500
 13928              	.LASF643:
 13929 2076 616E696D 		.ascii	"anim\000"
 13929      00
 13930              	.LASF124:
 13931 207b 4C565F53 		.ascii	"LV_STYLE_SHADOW_OFS_X\000"
 13931      54594C45 
 13931      5F534841 
 13931      444F575F 
 13931      4F46535F 
 13932              	.LASF125:
 13933 2091 4C565F53 		.ascii	"LV_STYLE_SHADOW_OFS_Y\000"
 13933      54594C45 
 13933      5F534841 
 13933      444F575F 
 13933      4F46535F 
 13934              	.LASF455:
 13935 20a7 4C565F4F 		.ascii	"LV_OBJ_FLAG_SCROLL_CHAIN_HOR\000"
 13935      424A5F46 
 13935      4C41475F 
 13935      5343524F 
 13935      4C4C5F43 
 13936              	.LASF369:
 13937 20c4 4C565F49 		.ascii	"LV_INDEV_TYPE_KEYPAD\000"
 13937      4E444556 
 13937      5F545950 
 13937      455F4B45 
 13937      59504144 
 13938              	.LASF109:
 13939 20d9 4C565F53 		.ascii	"LV_STYLE_BG_IMG_SRC\000"
 13939      54594C45 
 13939      5F42475F 
 13939      494D475F 
 13939      53524300 
 13940              	.LASF572:
 13941 20ed 4C565F4B 		.ascii	"LV_KEY_DOWN\000"
 13941      45595F44 
 13941      4F574E00 
 13942              	.LASF575:
 13943 20f9 4C565F4B 		.ascii	"LV_KEY_ESC\000"
 13943      45595F45 
 13943      534300
 13944              	.LASF238:
 13945 2104 7069766F 		.ascii	"pivot\000"
 13945      7400
 13946              	.LASF142:
ARM GAS  C:\Users\haske\AppData\Local\Temp\cc1ymag8.s 			page 301


 13947 210a 4C565F53 		.ascii	"LV_STYLE_ARC_IMG_SRC\000"
 13947      54594C45 
 13947      5F415243 
 13947      5F494D47 
 13947      5F535243 
 13948              	.LASF174:
 13949 211f 76616C75 		.ascii	"value1\000"
 13949      653100
 13950              	.LASF672:
 13951 2126 7265616C 		.ascii	"real_max_value\000"
 13951      5F6D6178 
 13951      5F76616C 
 13951      756500
 13952              	.LASF656:
 13953 2135 64726177 		.ascii	"draw_knob\000"
 13953      5F6B6E6F 
 13953      6200
 13954              	.LASF319:
 13955 213f 64726177 		.ascii	"draw_buf\000"
 13955      5F627566 
 13955      00
 13956              	.LASF296:
 13957 2148 70657269 		.ascii	"period\000"
 13957      6F6400
 13958              	.LASF326:
 13959 214f 726F756E 		.ascii	"rounder_cb\000"
 13959      6465725F 
 13959      636200
 13960              	.LASF234:
 13961 215a 6465636F 		.ascii	"decor\000"
 13961      7200
 13962              	.LASF4:
 13963 2160 5F5F696E 		.ascii	"__int16_t\000"
 13963      7431365F 
 13963      7400
 13964              	.LASF284:
 13965 216a 6C617965 		.ascii	"layer_adjust\000"
 13965      725F6164 
 13965      6A757374 
 13965      00
 13966              	.LASF145:
 13967 2177 4C565F53 		.ascii	"LV_STYLE_TEXT_FONT\000"
 13967      54594C45 
 13967      5F544558 
 13967      545F464F 
 13967      4E5400
 13968              	.LASF678:
 13969 218a 62675F62 		.ascii	"bg_bottom\000"
 13969      6F74746F 
 13969      6D00
 13970              	.LASF645:
 13971 2194 6C765F73 		.ascii	"lv_slider_set_left_value\000"
 13971      6C696465 
 13971      725F7365 
 13971      745F6C65 
 13971      66745F76 
 13972              	.LASF561:
ARM GAS  C:\Users\haske\AppData\Local\Temp\cc1ymag8.s 			page 302


 13973 21ad 4C565F45 		.ascii	"LV_EVENT_SCREEN_UNLOADED\000"
 13973      56454E54 
 13973      5F534352 
 13973      45454E5F 
 13973      554E4C4F 
 13974              	.LASF168:
 13975 21c6 4C565F53 		.ascii	"LV_STYLE_PROP_ANY\000"
 13975      54594C45 
 13975      5F50524F 
 13975      505F414E 
 13975      5900
 13976              	.LASF639:
 13977 21d8 64657374 		.ascii	"dest\000"
 13977      00
 13978              	.LASF690:
 13979 21dd 6C765F6F 		.ascii	"lv_obj_get_height\000"
 13979      626A5F67 
 13979      65745F68 
 13979      65696768 
 13979      7400
 13980              	.LASF53:
 13981 21ef 66756C6C 		.ascii	"full\000"
 13981      00
 13982              	.LASF269:
 13983 21f4 6C765F64 		.ascii	"lv_draw_layer_ctx_t\000"
 13983      7261775F 
 13983      6C617965 
 13983      725F6374 
 13983      785F7400 
 13984              	.LASF73:
 13985 2208 636F6C6F 		.ascii	"color\000"
 13985      7200
 13986              	.LASF76:
 13987 220e 73746F70 		.ascii	"stops\000"
 13987      7300
 13988              	.LASF410:
 13989 2214 6C617374 		.ascii	"last_key\000"
 13989      5F6B6579 
 13989      00
 13990              	.LASF229:
 13991 221d 6C696E65 		.ascii	"line_space\000"
 13991      5F737061 
 13991      636500
 13992              	.LASF421:
 13993 2228 5F6C765F 		.ascii	"_lv_indev_t\000"
 13993      696E6465 
 13993      765F7400 
 13994              	.LASF407:
 13995 2234 67657374 		.ascii	"gesture_dir\000"
 13995      7572655F 
 13995      64697200 
 13996              	.LASF285:
 13997 2240 6C617965 		.ascii	"layer_blend\000"
 13997      725F626C 
 13997      656E6400 
 13998              	.LASF658:
 13999 224c 69735F68 		.ascii	"is_horizontal\000"
ARM GAS  C:\Users\haske\AppData\Local\Temp\cc1ymag8.s 			page 303


 13999      6F72697A 
 13999      6F6E7461 
 13999      6C00
 14000              	.LASF408:
 14001 225a 67657374 		.ascii	"gesture_sent\000"
 14001      7572655F 
 14001      73656E74 
 14001      00
 14002              	.LASF670:
 14003 2267 6E65775F 		.ascii	"new_value\000"
 14003      76616C75 
 14003      6500
 14004              	.LASF609:
 14005 2271 6D696E5F 		.ascii	"min_value\000"
 14005      76616C75 
 14005      6500
 14006              	.LASF497:
 14007 227b 64657374 		.ascii	"destructor_cb\000"
 14007      72756374 
 14007      6F725F63 
 14007      6200
 14008              	.LASF70:
 14009 2289 6C765F62 		.ascii	"lv_border_side_t\000"
 14009      6F726465 
 14009      725F7369 
 14009      64655F74 
 14009      00
 14010              	.LASF74:
 14011 229a 66726163 		.ascii	"frac\000"
 14011      00
 14012              	.LASF183:
 14013 229f 5F6C765F 		.ascii	"_lv_obj_t\000"
 14013      6F626A5F 
 14013      7400
 14014              	.LASF224:
 14015 22a9 666F6E74 		.ascii	"font\000"
 14015      00
 14016              	.LASF230:
 14017 22ae 6C657474 		.ascii	"letter_space\000"
 14017      65725F73 
 14017      70616365 
 14017      00
 14018              	.LASF386:
 14019 22bb 7363726F 		.ascii	"scroll_limit\000"
 14019      6C6C5F6C 
 14019      696D6974 
 14019      00
 14020              	.LASF87:
 14021 22c8 4C565F53 		.ascii	"LV_STYLE_MAX_HEIGHT\000"
 14021      54594C45 
 14021      5F4D4158 
 14021      5F484549 
 14021      47485400 
 14022              	.LASF340:
 14023 22dc 64726976 		.ascii	"driver\000"
 14023      657200
 14024              	.LASF627:
ARM GAS  C:\Users\haske\AppData\Local\Temp\cc1ymag8.s 			page 304


 14025 22e3 4C565F53 		.ascii	"LV_SLIDER_DRAW_PART_KNOB\000"
 14025      4C494445 
 14025      525F4452 
 14025      41575F50 
 14025      4152545F 
 14026              	.LASF608:
 14027 22fc 6375725F 		.ascii	"cur_value\000"
 14027      76616C75 
 14027      6500
 14028              	.LASF359:
 14029 2306 5F6C765F 		.ascii	"_lv_theme_t\000"
 14029      7468656D 
 14029      655F7400 
 14030              	.LASF255:
 14031 2312 6C765F64 		.ascii	"lv_draw_arc_dsc_t\000"
 14031      7261775F 
 14031      6172635F 
 14031      6473635F 
 14031      7400
 14032              	.LASF579:
 14033 2324 4C565F4B 		.ascii	"LV_KEY_NEXT\000"
 14033      45595F4E 
 14033      45585400 
 14034              	.LASF103:
 14035 2330 4C565F53 		.ascii	"LV_STYLE_BG_GRAD_COLOR\000"
 14035      54594C45 
 14035      5F42475F 
 14035      47524144 
 14035      5F434F4C 
 14036              	.LASF620:
 14037 2347 6C765F73 		.ascii	"lv_slider_mode_t\000"
 14037      6C696465 
 14037      725F6D6F 
 14037      64655F74 
 14037      00
 14038              	.LASF345:
 14039 2358 70726576 		.ascii	"prev_scr\000"
 14039      5F736372 
 14039      00
 14040              	.LASF30:
 14041 2361 626F785F 		.ascii	"box_h\000"
 14041      6800
 14042              	.LASF487:
 14043 2367 6C696E65 		.ascii	"line_dsc\000"
 14043      5F647363 
 14043      00
 14044              	.LASF683:
 14045 2370 6C765F73 		.ascii	"lv_slider_constructor\000"
 14045      6C696465 
 14045      725F636F 
 14045      6E737472 
 14045      7563746F 
 14046              	.LASF580:
 14047 2386 4C565F4B 		.ascii	"LV_KEY_PREV\000"
 14047      45595F50 
 14047      52455600 
 14048              	.LASF204:
ARM GAS  C:\Users\haske\AppData\Local\Temp\cc1ymag8.s 			page 305


 14049 2392 62675F69 		.ascii	"bg_img_recolor\000"
 14049      6D675F72 
 14049      65636F6C 
 14049      6F7200
 14050              	.LASF54:
 14051 23a1 6C765F63 		.ascii	"lv_color16_t\000"
 14051      6F6C6F72 
 14051      31365F74 
 14051      00
 14052              	.LASF29:
 14053 23ae 626F785F 		.ascii	"box_w\000"
 14053      7700
 14054              	.LASF5:
 14055 23b4 73686F72 		.ascii	"short int\000"
 14055      7420696E 
 14055      7400
 14056              	.LASF37:
 14057 23be 62617365 		.ascii	"base_line\000"
 14057      5F6C696E 
 14057      6500
 14058              	.LASF356:
 14059 23c8 696E765F 		.ascii	"inv_p\000"
 14059      7000
 14060              	.LASF293:
 14061 23ce 6C765F6C 		.ascii	"lv_ll_t\000"
 14061      6C5F7400 
 14062              	.LASF686:
 14063 23d6 6C765F66 		.ascii	"lv_font_montserrat_14\000"
 14063      6F6E745F 
 14063      6D6F6E74 
 14063      73657272 
 14063      61745F31 
 14064              	.LASF392:
 14065 23ec 6163745F 		.ascii	"act_point\000"
 14065      706F696E 
 14065      7400
 14066              	.LASF461:
 14067 23f6 4C565F4F 		.ascii	"LV_OBJ_FLAG_PRESS_LOCK\000"
 14067      424A5F46 
 14067      4C41475F 
 14067      50524553 
 14067      535F4C4F 
 14068              	.LASF718:
 14069 240d 6C765F6F 		.ascii	"lv_obj_refresh_ext_draw_size\000"
 14069      626A5F72 
 14069      65667265 
 14069      73685F65 
 14069      78745F64 
 14070              	.LASF615:
 14071 242a 6D6F6465 		.ascii	"mode\000"
 14071      00
 14072              	.LASF546:
 14073 242f 4C565F45 		.ascii	"LV_EVENT_DRAW_POST_END\000"
 14073      56454E54 
 14073      5F445241 
 14073      575F504F 
 14073      53545F45 
ARM GAS  C:\Users\haske\AppData\Local\Temp\cc1ymag8.s 			page 306


 14074              	.LASF547:
 14075 2446 4C565F45 		.ascii	"LV_EVENT_DRAW_PART_BEGIN\000"
 14075      56454E54 
 14075      5F445241 
 14075      575F5041 
 14075      52545F42 
 14076              	.LASF709:
 14077 245f 6C765F62 		.ascii	"lv_bar_set_value\000"
 14077      61725F73 
 14077      65745F76 
 14077      616C7565 
 14077      00
 14078              	.LASF412:
 14079 2470 6B657970 		.ascii	"keypad\000"
 14079      616400
 14080              	.LASF222:
 14081 2477 73686164 		.ascii	"shadow_opa\000"
 14081      6F775F6F 
 14081      706100
 14082              	.LASF140:
 14083 2482 4C565F53 		.ascii	"LV_STYLE_ARC_COLOR\000"
 14083      54594C45 
 14083      5F415243 
 14083      5F434F4C 
 14083      4F5200
 14084              	.LASF513:
 14085 2495 63757272 		.ascii	"current_target\000"
 14085      656E745F 
 14085      74617267 
 14085      657400
 14086              	.LASF17:
 14087 24a4 696E7431 		.ascii	"int16_t\000"
 14087      365F7400 
 14088              	.LASF357:
 14089 24ac 696E765F 		.ascii	"inv_en_cnt\000"
 14089      656E5F63 
 14089      6E7400
 14090              	.LASF262:
 14091 24b7 73637265 		.ascii	"screen_transp\000"
 14091      656E5F74 
 14091      72616E73 
 14091      7000
 14092              	.LASF188:
 14093 24c5 636F6F72 		.ascii	"coords\000"
 14093      647300
 14094              	.LASF591:
 14095 24cc 6578745F 		.ascii	"ext_click_pad\000"
 14095      636C6963 
 14095      6B5F7061 
 14095      6400
 14096              	.LASF167:
 14097 24da 5F4C565F 		.ascii	"_LV_STYLE_NUM_BUILT_IN_PROPS\000"
 14097      5354594C 
 14097      455F4E55 
 14097      4D5F4255 
 14097      494C545F 
 14098              	.LASF703:
ARM GAS  C:\Users\haske\AppData\Local\Temp\cc1ymag8.s 			page 307


 14099 24f7 5F6C765F 		.ascii	"_lv_area_is_point_on\000"
 14099      61726561 
 14099      5F69735F 
 14099      706F696E 
 14099      745F6F6E 
 14100              	.LASF93:
 14101 250c 4C565F53 		.ascii	"LV_STYLE_PAD_TOP\000"
 14101      54594C45 
 14101      5F504144 
 14101      5F544F50 
 14101      00
 14102              	.LASF351:
 14103 251d 64656C5F 		.ascii	"del_prev\000"
 14103      70726576 
 14103      00
 14104              	.LASF566:
 14105 2526 5F4C565F 		.ascii	"_LV_EVENT_LAST\000"
 14105      4556454E 
 14105      545F4C41 
 14105      535400
 14106              	.LASF353:
 14107 2535 62675F69 		.ascii	"bg_img\000"
 14107      6D6700
 14108              	.LASF445:
 14109 253c 4C565F50 		.ascii	"LV_PART_CUSTOM_FIRST\000"
 14109      4152545F 
 14109      43555354 
 14109      4F4D5F46 
 14109      49525354 
 14110              	.LASF624:
 14111 2551 64726167 		.ascii	"dragging\000"
 14111      67696E67 
 14111      00
 14112              	.LASF110:
 14113 255a 4C565F53 		.ascii	"LV_STYLE_BG_IMG_OPA\000"
 14113      54594C45 
 14113      5F42475F 
 14113      494D475F 
 14113      4F504100 
 14114              	.LASF132:
 14115 256e 4C565F53 		.ascii	"LV_STYLE_LINE_WIDTH\000"
 14115      54594C45 
 14115      5F4C494E 
 14115      455F5749 
 14115      44544800 
 14116              	.LASF536:
 14117 2582 4C565F45 		.ascii	"LV_EVENT_DEFOCUSED\000"
 14117      56454E54 
 14117      5F444546 
 14117      4F435553 
 14117      454400
 14118              	.LASF619:
 14119 2595 4C565F53 		.ascii	"LV_SLIDER_MODE_RANGE\000"
 14119      4C494445 
 14119      525F4D4F 
 14119      44455F52 
 14119      414E4745 
ARM GAS  C:\Users\haske\AppData\Local\Temp\cc1ymag8.s 			page 308


 14120              	.LASF726:
 14121 25aa 433A5C50 		.ascii	"C:\\Projects\\PainDrain\\firmware\\PainDrain\\PainD"
 14121      726F6A65 
 14121      6374735C 
 14121      5061696E 
 14121      44726169 
 14122 25d8 7261696E 		.ascii	"rain.cydsn\000"
 14122      2E637964 
 14122      736E00
 14123              	.LASF177:
 14124 25e3 70726F70 		.ascii	"prop1\000"
 14124      3100
 14125              	.LASF327:
 14126 25e9 7365745F 		.ascii	"set_px_cb\000"
 14126      70785F63 
 14126      6200
 14127              	.LASF391:
 14128 25f3 6C6F6E67 		.ascii	"long_press_repeat_time\000"
 14128      5F707265 
 14128      73735F72 
 14128      65706561 
 14128      745F7469 
 14129              	.LASF491:
 14130 260a 74657874 		.ascii	"text_length\000"
 14130      5F6C656E 
 14130      67746800 
 14131              	.LASF210:
 14132 2616 626F7264 		.ascii	"border_opa\000"
 14132      65725F6F 
 14132      706100
 14133              	.LASF86:
 14134 2621 4C565F53 		.ascii	"LV_STYLE_MIN_HEIGHT\000"
 14134      54594C45 
 14134      5F4D494E 
 14134      5F484549 
 14134      47485400 
 14135              	.LASF201:
 14136 2635 62675F67 		.ascii	"bg_grad\000"
 14136      72616400 
 14137              	.LASF380:
 14138 263d 6C765F69 		.ascii	"lv_indev_data_t\000"
 14138      6E646576 
 14138      5F646174 
 14138      615F7400 
 14139              	.LASF680:
 14140 264d 696E6465 		.ascii	"indev_type\000"
 14140      765F7479 
 14140      706500
 14141              	.LASF118:
 14142 2658 4C565F53 		.ascii	"LV_STYLE_BORDER_POST\000"
 14142      54594C45 
 14142      5F424F52 
 14142      4445525F 
 14142      504F5354 
 14143              	.LASF335:
 14144 266d 64726177 		.ascii	"draw_ctx\000"
 14144      5F637478 
ARM GAS  C:\Users\haske\AppData\Local\Temp\cc1ymag8.s 			page 309


 14144      00
 14145              	.LASF275:
 14146 2676 64726177 		.ascii	"draw_img\000"
 14146      5F696D67 
 14146      00
 14147              	.LASF75:
 14148 267f 6C765F67 		.ascii	"lv_gradient_stop_t\000"
 14148      72616469 
 14148      656E745F 
 14148      73746F70 
 14148      5F7400
 14149              	.LASF89:
 14150 2692 4C565F53 		.ascii	"LV_STYLE_Y\000"
 14150      54594C45 
 14150      5F5900
 14151              	.LASF135:
 14152 269d 4C565F53 		.ascii	"LV_STYLE_LINE_ROUNDED\000"
 14152      54594C45 
 14152      5F4C494E 
 14152      455F524F 
 14152      554E4445 
 14153              	.LASF278:
 14154 26b3 64726177 		.ascii	"draw_polygon\000"
 14154      5F706F6C 
 14154      79676F6E 
 14154      00
 14155              	.LASF563:
 14156 26c0 4C565F45 		.ascii	"LV_EVENT_STYLE_CHANGED\000"
 14156      56454E54 
 14156      5F535459 
 14156      4C455F43 
 14156      48414E47 
 14157              	.LASF552:
 14158 26d7 4C565F45 		.ascii	"LV_EVENT_READY\000"
 14158      56454E54 
 14158      5F524541 
 14158      445900
 14159              	.LASF225:
 14160 26e6 73656C5F 		.ascii	"sel_start\000"
 14160      73746172 
 14160      7400
 14161              	.LASF545:
 14162 26f0 4C565F45 		.ascii	"LV_EVENT_DRAW_POST\000"
 14162      56454E54 
 14162      5F445241 
 14162      575F504F 
 14162      535400
 14163              	.LASF20:
 14164 2703 75696E74 		.ascii	"uint32_t\000"
 14164      33325F74 
 14164      00
 14165              	.LASF444:
 14166 270c 4C565F50 		.ascii	"LV_PART_CURSOR\000"
 14166      4152545F 
 14166      43555253 
 14166      4F5200
 14167              	.LASF360:
ARM GAS  C:\Users\haske\AppData\Local\Temp\cc1ymag8.s 			page 310


 14168 271b 6170706C 		.ascii	"apply_cb\000"
 14168      795F6362 
 14168      00
 14169              	.LASF476:
 14170 2724 6C765F6F 		.ascii	"lv_obj_flag_t\000"
 14170      626A5F66 
 14170      6C61675F 
 14170      7400
 14171              	.LASF562:
 14172 2732 4C565F45 		.ascii	"LV_EVENT_SIZE_CHANGED\000"
 14172      56454E54 
 14172      5F53495A 
 14172      455F4348 
 14172      414E4745 
 14173              	.LASF688:
 14174 2748 6C765F73 		.ascii	"lv_slider_class\000"
 14174      6C696465 
 14174      725F636C 
 14174      61737300 
 14175              	.LASF218:
 14176 2758 73686164 		.ascii	"shadow_width\000"
 14176      6F775F77 
 14176      69647468 
 14176      00
 14177              	.LASF416:
 14178 2765 64697361 		.ascii	"disabled\000"
 14178      626C6564 
 14178      00
 14179              	.LASF52:
 14180 276e 67726565 		.ascii	"green\000"
 14180      6E00
 14181              	.LASF45:
 14182 2774 6C765F66 		.ascii	"lv_font_t\000"
 14182      6F6E745F 
 14182      7400
 14183              	.LASF604:
 14184 277e 616E696D 		.ascii	"anim_start\000"
 14184      5F737461 
 14184      727400
 14185              	.LASF564:
 14186 2789 4C565F45 		.ascii	"LV_EVENT_LAYOUT_CHANGED\000"
 14186      56454E54 
 14186      5F4C4159 
 14186      4F55545F 
 14186      4348414E 
 14187              	.LASF651:
 14188 27a1 6B6E6F62 		.ascii	"knob_top\000"
 14188      5F746F70 
 14188      00
 14189              	.LASF388:
 14190 27aa 67657374 		.ascii	"gesture_min_velocity\000"
 14190      7572655F 
 14190      6D696E5F 
 14190      76656C6F 
 14190      63697479 
 14191              	.LASF78:
 14192 27bf 64697468 		.ascii	"dither\000"
ARM GAS  C:\Users\haske\AppData\Local\Temp\cc1ymag8.s 			page 311


 14192      657200
 14193              	.LASF7:
 14194 27c6 73686F72 		.ascii	"short unsigned int\000"
 14194      7420756E 
 14194      7369676E 
 14194      65642069 
 14194      6E7400
 14195              	.LASF534:
 14196 27d9 4C565F45 		.ascii	"LV_EVENT_KEY\000"
 14196      56454E54 
 14196      5F4B4559 
 14196      00
 14197              	.LASF23:
 14198 27e6 6C765F63 		.ascii	"lv_coord_t\000"
 14198      6F6F7264 
 14198      5F7400
 14199              	.LASF606:
 14200 27f1 616E696D 		.ascii	"anim_state\000"
 14200      5F737461 
 14200      746500
 14201              	.LASF367:
 14202 27fc 4C565F49 		.ascii	"LV_INDEV_TYPE_NONE\000"
 14202      4E444556 
 14202      5F545950 
 14202      455F4E4F 
 14202      4E4500
 14203              	.LASF325:
 14204 280f 666C7573 		.ascii	"flush_cb\000"
 14204      685F6362 
 14204      00
 14205              	.LASF120:
 14206 2818 4C565F53 		.ascii	"LV_STYLE_OUTLINE_COLOR\000"
 14206      54594C45 
 14206      5F4F5554 
 14206      4C494E45 
 14206      5F434F4C 
 14207              	.LASF42:
 14208 282f 75736572 		.ascii	"user_data\000"
 14208      5F646174 
 14208      6100
 14209              	.LASF524:
 14210 2839 4C565F45 		.ascii	"LV_EVENT_PRESS_LOST\000"
 14210      56454E54 
 14210      5F505245 
 14210      53535F4C 
 14210      4F535400 
 14211              	.LASF727:
 14212 284d 5F6C765F 		.ascii	"_lv_event_dsc_t\000"
 14212      6576656E 
 14212      745F6473 
 14212      635F7400 
 14213              	.LASF126:
 14214 285d 4C565F53 		.ascii	"LV_STYLE_SHADOW_SPREAD\000"
 14214      54594C45 
 14214      5F534841 
 14214      444F575F 
 14214      53505245 
ARM GAS  C:\Users\haske\AppData\Local\Temp\cc1ymag8.s 			page 312


 14215              	.LASF443:
 14216 2874 4C565F50 		.ascii	"LV_PART_TICKS\000"
 14216      4152545F 
 14216      5449434B 
 14216      5300
 14217              	.LASF365:
 14218 2882 666F6E74 		.ascii	"font_normal\000"
 14218      5F6E6F72 
 14218      6D616C00 
 14219              	.LASF34:
 14220 288e 6765745F 		.ascii	"get_glyph_dsc\000"
 14220      676C7970 
 14220      685F6473 
 14220      6300
 14221              	.LASF8:
 14222 289c 5F5F696E 		.ascii	"__int32_t\000"
 14222      7433325F 
 14222      7400
 14223              	.LASF480:
 14224 28a6 73656C65 		.ascii	"selector\000"
 14224      63746F72 
 14224      00
 14225              	.LASF535:
 14226 28af 4C565F45 		.ascii	"LV_EVENT_FOCUSED\000"
 14226      56454E54 
 14226      5F464F43 
 14226      55534544 
 14226      00
 14227              	.LASF71:
 14228 28c0 6C765F67 		.ascii	"lv_grad_dir_t\000"
 14228      7261645F 
 14228      6469725F 
 14228      7400
 14229              	.LASF395:
 14230 28ce 6C617374 		.ascii	"last_raw_point\000"
 14230      5F726177 
 14230      5F706F69 
 14230      6E7400
 14231              	.LASF433:
 14232 28dd 7265666F 		.ascii	"refocus_policy\000"
 14232      6375735F 
 14232      706F6C69 
 14232      637900
 14233              	.LASF630:
 14234 28ec 6C765F6F 		.ascii	"lv_obj_get_style_transform_height\000"
 14234      626A5F67 
 14234      65745F73 
 14234      74796C65 
 14234      5F747261 
 14235              	.LASF312:
 14236 290e 5F6C765F 		.ascii	"_lv_disp_drv_t\000"
 14236      64697370 
 14236      5F647276 
 14236      5F7400
 14237              	.LASF414:
 14238 291d 6C6F6E67 		.ascii	"long_pr_sent\000"
 14238      5F70725F 
ARM GAS  C:\Users\haske\AppData\Local\Temp\cc1ymag8.s 			page 313


 14238      73656E74 
 14238      00
 14239              	.LASF62:
 14240 292a 4C565F42 		.ascii	"LV_BASE_DIR_LTR\000"
 14240      4153455F 
 14240      4449525F 
 14240      4C545200 
 14241              	.LASF674:
 14242 293a 62675F6C 		.ascii	"bg_left\000"
 14242      65667400 
 14243              	.LASF648:
 14244 2942 6B6E6F62 		.ascii	"knob_size\000"
 14244      5F73697A 
 14244      6500
 14245              	.LASF500:
 14246 294c 68656967 		.ascii	"height_def\000"
 14246      68745F64 
 14246      656600
 14247              	.LASF707:
 14248 2957 6C765F69 		.ascii	"lv_indev_get_type\000"
 14248      6E646576 
 14248      5F676574 
 14248      5F747970 
 14248      6500
 14249              	.LASF558:
 14250 2969 4C565F45 		.ascii	"LV_EVENT_SCREEN_UNLOAD_START\000"
 14250      56454E54 
 14250      5F534352 
 14250      45454E5F 
 14250      554E4C4F 
 14251              	.LASF331:
 14252 2986 636C6561 		.ascii	"clean_dcache_cb\000"
 14252      6E5F6463 
 14252      61636865 
 14252      5F636200 
 14253              	.LASF571:
 14254 2996 4C565F4B 		.ascii	"LV_KEY_UP\000"
 14254      45595F55 
 14254      5000
 14255              	.LASF389:
 14256 29a0 67657374 		.ascii	"gesture_limit\000"
 14256      7572655F 
 14256      6C696D69 
 14256      7400
 14257              	.LASF227:
 14258 29ae 73656C5F 		.ascii	"sel_color\000"
 14258      636F6C6F 
 14258      7200
 14259              	.LASF649:
 14260 29b8 6B6E6F62 		.ascii	"knob_left\000"
 14260      5F6C6566 
 14260      7400
 14261              	.LASF601:
 14262 29c2 4C565F42 		.ascii	"LV_BAR_MODE_SYMMETRICAL\000"
 14262      41525F4D 
 14262      4F44455F 
 14262      53594D4D 
ARM GAS  C:\Users\haske\AppData\Local\Temp\cc1ymag8.s 			page 314


 14262      45545249 
 14263              	.LASF454:
 14264 29da 4C565F4F 		.ascii	"LV_OBJ_FLAG_SCROLL_ONE\000"
 14264      424A5F46 
 14264      4C41475F 
 14264      5343524F 
 14264      4C4C5F4F 
 14265              	.LASF203:
 14266 29f1 62675F69 		.ascii	"bg_img_symbol_font\000"
 14266      6D675F73 
 14266      796D626F 
 14266      6C5F666F 
 14266      6E7400
 14267              	.LASF220:
 14268 2a04 73686164 		.ascii	"shadow_ofs_y\000"
 14268      6F775F6F 
 14268      66735F79 
 14268      00
 14269              	.LASF492:
 14270 2a11 70617274 		.ascii	"part\000"
 14270      00
 14271              	.LASF516:
 14272 2a16 70726576 		.ascii	"prev\000"
 14272      00
 14273              	.LASF64:
 14274 2a1b 4C565F42 		.ascii	"LV_BASE_DIR_AUTO\000"
 14274      4153455F 
 14274      4449525F 
 14274      4155544F 
 14274      00
 14275              	.LASF290:
 14276 2a2c 6E5F7369 		.ascii	"n_size\000"
 14276      7A6500
 14277              	.LASF423:
 14278 2a33 63757273 		.ascii	"cursor\000"
 14278      6F7200
 14279              	.LASF426:
 14280 2a3a 5F6C765F 		.ascii	"_lv_group_t\000"
 14280      67726F75 
 14280      705F7400 
 14281              	.LASF107:
 14282 2a46 4C565F53 		.ascii	"LV_STYLE_BG_GRAD\000"
 14282      54594C45 
 14282      5F42475F 
 14282      47524144 
 14282      00
 14283              	.LASF529:
 14284 2a57 4C565F45 		.ascii	"LV_EVENT_RELEASED\000"
 14284      56454E54 
 14284      5F52454C 
 14284      45415345 
 14284      4400
 14285              	.LASF33:
 14286 2a69 69735F70 		.ascii	"is_placeholder\000"
 14286      6C616365 
 14286      686F6C64 
 14286      657200
ARM GAS  C:\Users\haske\AppData\Local\Temp\cc1ymag8.s 			page 315


 14287              	.LASF725:
 14288 2a78 2E2E5C2E 		.ascii	"..\\..\\..\\arduinoLCD\\test\\Pain Drain\\libraries"
 14288      2E5C2E2E 
 14288      5C617264 
 14288      75696E6F 
 14288      4C43445C 
 14289 2aa5 5C6C7667 		.ascii	"\\lvgl\\src\\widgets\\lv_slider.c\000"
 14289      6C5C7372 
 14289      635C7769 
 14289      64676574 
 14289      735C6C76 
 14290              	.LASF122:
 14291 2ac3 4C565F53 		.ascii	"LV_STYLE_OUTLINE_PAD\000"
 14291      54594C45 
 14291      5F4F5554 
 14291      4C494E45 
 14291      5F504144 
 14292              	.LASF673:
 14293 2ad8 7265616C 		.ascii	"real_min_value\000"
 14293      5F6D696E 
 14293      5F76616C 
 14293      756500
 14294              	.LASF710:
 14295 2ae7 6C765F6F 		.ascii	"lv_obj_get_group\000"
 14295      626A5F67 
 14295      65745F67 
 14295      726F7570 
 14295      00
 14296              	.LASF644:
 14297 2af8 6C765F73 		.ascii	"lv_slider_get_value\000"
 14297      6C696465 
 14297      725F6765 
 14297      745F7661 
 14297      6C756500 
 14298              	.LASF396:
 14299 2b0c 76656374 		.ascii	"vect\000"
 14299      00
 14300              	.LASF647:
 14301 2b11 6B6E6F62 		.ascii	"knob_area\000"
 14301      5F617265 
 14301      6100
 14302              	.LASF652:
 14303 2b1b 6B6E6F62 		.ascii	"knob_bottom\000"
 14303      5F626F74 
 14303      746F6D00 
 14304              	.LASF428:
 14305 2b27 6F626A5F 		.ascii	"obj_focus\000"
 14305      666F6375 
 14305      7300
 14306              	.LASF146:
 14307 2b31 4C565F53 		.ascii	"LV_STYLE_TEXT_LETTER_SPACE\000"
 14307      54594C45 
 14307      5F544558 
 14307      545F4C45 
 14307      54544552 
 14308              	.LASF599:
 14309 2b4c 6C765F6F 		.ascii	"lv_obj_t\000"
ARM GAS  C:\Users\haske\AppData\Local\Temp\cc1ymag8.s 			page 316


 14309      626A5F74 
 14309      00
 14310              	.LASF596:
 14311 2b55 6576656E 		.ascii	"event_dsc_cnt\000"
 14311      745F6473 
 14311      635F636E 
 14311      7400
 14312              		.ident	"GCC: (GNU Tools for ARM Embedded Processors) 5.4.1 20160609 (release) [ARM/embedded-5-bran
