ARM GAS  C:\Users\haske\AppData\Local\Temp\ccb2zsXg.s 			page 1


   1              		.syntax unified
   2              		.cpu cortex-m0plus
   3              		.fpu softvfp
   4              		.eabi_attribute 20, 1
   5              		.eabi_attribute 21, 1
   6              		.eabi_attribute 23, 3
   7              		.eabi_attribute 24, 1
   8              		.eabi_attribute 25, 1
   9              		.eabi_attribute 26, 1
  10              		.eabi_attribute 30, 1
  11              		.eabi_attribute 34, 0
  12              		.eabi_attribute 18, 4
  13              		.thumb
  14              		.syntax unified
  15              		.file	"lv_style_gen.c"
  16              		.text
  17              	.Ltext0:
  18              		.cfi_sections	.debug_frame
  19              		.section	.text.lv_style_set_width,"ax",%progbits
  20              		.align	2
  21              		.global	lv_style_set_width
  22              		.code	16
  23              		.thumb_func
  24              		.type	lv_style_set_width, %function
  25              	lv_style_set_width:
  26              	.LFB54:
  27              		.file 1 "..\\..\\..\\arduinoLCD\\test\\Pain Drain\\libraries\\lvgl\\src\\misc\\lv_style_gen.c"
   1:..\..\..\arduinoLCD\test\Pain Drain\libraries\lvgl\src\misc/lv_style_gen.c **** #include "lv_style.h"
   2:..\..\..\arduinoLCD\test\Pain Drain\libraries\lvgl\src\misc/lv_style_gen.c **** 
   3:..\..\..\arduinoLCD\test\Pain Drain\libraries\lvgl\src\misc/lv_style_gen.c **** void lv_style_set_width(lv_style_t * style, lv_coord_t value)
   4:..\..\..\arduinoLCD\test\Pain Drain\libraries\lvgl\src\misc/lv_style_gen.c **** {
  28              		.loc 1 4 0
  29              		.cfi_startproc
  30              		@ args = 0, pretend = 0, frame = 0
  31              		@ frame_needed = 0, uses_anonymous_args = 0
  32              	.LVL0:
  33 0000 10B5     		push	{r4, lr}
  34              		.cfi_def_cfa_offset 8
  35              		.cfi_offset 4, -8
  36              		.cfi_offset 14, -4
  37 0002 0A00     		movs	r2, r1
   5:..\..\..\arduinoLCD\test\Pain Drain\libraries\lvgl\src\misc/lv_style_gen.c ****     lv_style_value_t v = {
   6:..\..\..\arduinoLCD\test\Pain Drain\libraries\lvgl\src\misc/lv_style_gen.c ****         .num = (int32_t)value
   7:..\..\..\arduinoLCD\test\Pain Drain\libraries\lvgl\src\misc/lv_style_gen.c ****     };
   8:..\..\..\arduinoLCD\test\Pain Drain\libraries\lvgl\src\misc/lv_style_gen.c ****     lv_style_set_prop(style, LV_STYLE_WIDTH, v);
  38              		.loc 1 8 0
  39 0004 0121     		movs	r1, #1
  40              	.LVL1:
  41 0006 FFF7FEFF 		bl	lv_style_set_prop
  42              	.LVL2:
   9:..\..\..\arduinoLCD\test\Pain Drain\libraries\lvgl\src\misc/lv_style_gen.c **** }
  43              		.loc 1 9 0
  44              		@ sp needed
  45 000a 10BD     		pop	{r4, pc}
  46              		.cfi_endproc
  47              	.LFE54:
  48              		.size	lv_style_set_width, .-lv_style_set_width
ARM GAS  C:\Users\haske\AppData\Local\Temp\ccb2zsXg.s 			page 2


  49              		.section	.text.lv_style_set_min_width,"ax",%progbits
  50              		.align	2
  51              		.global	lv_style_set_min_width
  52              		.code	16
  53              		.thumb_func
  54              		.type	lv_style_set_min_width, %function
  55              	lv_style_set_min_width:
  56              	.LFB55:
  10:..\..\..\arduinoLCD\test\Pain Drain\libraries\lvgl\src\misc/lv_style_gen.c **** 
  11:..\..\..\arduinoLCD\test\Pain Drain\libraries\lvgl\src\misc/lv_style_gen.c **** void lv_style_set_min_width(lv_style_t * style, lv_coord_t value)
  12:..\..\..\arduinoLCD\test\Pain Drain\libraries\lvgl\src\misc/lv_style_gen.c **** {
  57              		.loc 1 12 0
  58              		.cfi_startproc
  59              		@ args = 0, pretend = 0, frame = 0
  60              		@ frame_needed = 0, uses_anonymous_args = 0
  61              	.LVL3:
  62 0000 10B5     		push	{r4, lr}
  63              		.cfi_def_cfa_offset 8
  64              		.cfi_offset 4, -8
  65              		.cfi_offset 14, -4
  66 0002 0A00     		movs	r2, r1
  13:..\..\..\arduinoLCD\test\Pain Drain\libraries\lvgl\src\misc/lv_style_gen.c ****     lv_style_value_t v = {
  14:..\..\..\arduinoLCD\test\Pain Drain\libraries\lvgl\src\misc/lv_style_gen.c ****         .num = (int32_t)value
  15:..\..\..\arduinoLCD\test\Pain Drain\libraries\lvgl\src\misc/lv_style_gen.c ****     };
  16:..\..\..\arduinoLCD\test\Pain Drain\libraries\lvgl\src\misc/lv_style_gen.c ****     lv_style_set_prop(style, LV_STYLE_MIN_WIDTH, v);
  67              		.loc 1 16 0
  68 0004 0221     		movs	r1, #2
  69              	.LVL4:
  70 0006 FFF7FEFF 		bl	lv_style_set_prop
  71              	.LVL5:
  17:..\..\..\arduinoLCD\test\Pain Drain\libraries\lvgl\src\misc/lv_style_gen.c **** }
  72              		.loc 1 17 0
  73              		@ sp needed
  74 000a 10BD     		pop	{r4, pc}
  75              		.cfi_endproc
  76              	.LFE55:
  77              		.size	lv_style_set_min_width, .-lv_style_set_min_width
  78              		.section	.text.lv_style_set_max_width,"ax",%progbits
  79              		.align	2
  80              		.global	lv_style_set_max_width
  81              		.code	16
  82              		.thumb_func
  83              		.type	lv_style_set_max_width, %function
  84              	lv_style_set_max_width:
  85              	.LFB56:
  18:..\..\..\arduinoLCD\test\Pain Drain\libraries\lvgl\src\misc/lv_style_gen.c **** 
  19:..\..\..\arduinoLCD\test\Pain Drain\libraries\lvgl\src\misc/lv_style_gen.c **** void lv_style_set_max_width(lv_style_t * style, lv_coord_t value)
  20:..\..\..\arduinoLCD\test\Pain Drain\libraries\lvgl\src\misc/lv_style_gen.c **** {
  86              		.loc 1 20 0
  87              		.cfi_startproc
  88              		@ args = 0, pretend = 0, frame = 0
  89              		@ frame_needed = 0, uses_anonymous_args = 0
  90              	.LVL6:
  91 0000 10B5     		push	{r4, lr}
  92              		.cfi_def_cfa_offset 8
  93              		.cfi_offset 4, -8
  94              		.cfi_offset 14, -4
ARM GAS  C:\Users\haske\AppData\Local\Temp\ccb2zsXg.s 			page 3


  95 0002 0A00     		movs	r2, r1
  21:..\..\..\arduinoLCD\test\Pain Drain\libraries\lvgl\src\misc/lv_style_gen.c ****     lv_style_value_t v = {
  22:..\..\..\arduinoLCD\test\Pain Drain\libraries\lvgl\src\misc/lv_style_gen.c ****         .num = (int32_t)value
  23:..\..\..\arduinoLCD\test\Pain Drain\libraries\lvgl\src\misc/lv_style_gen.c ****     };
  24:..\..\..\arduinoLCD\test\Pain Drain\libraries\lvgl\src\misc/lv_style_gen.c ****     lv_style_set_prop(style, LV_STYLE_MAX_WIDTH, v);
  96              		.loc 1 24 0
  97 0004 0321     		movs	r1, #3
  98              	.LVL7:
  99 0006 FFF7FEFF 		bl	lv_style_set_prop
 100              	.LVL8:
  25:..\..\..\arduinoLCD\test\Pain Drain\libraries\lvgl\src\misc/lv_style_gen.c **** }
 101              		.loc 1 25 0
 102              		@ sp needed
 103 000a 10BD     		pop	{r4, pc}
 104              		.cfi_endproc
 105              	.LFE56:
 106              		.size	lv_style_set_max_width, .-lv_style_set_max_width
 107              		.section	.text.lv_style_set_height,"ax",%progbits
 108              		.align	2
 109              		.global	lv_style_set_height
 110              		.code	16
 111              		.thumb_func
 112              		.type	lv_style_set_height, %function
 113              	lv_style_set_height:
 114              	.LFB57:
  26:..\..\..\arduinoLCD\test\Pain Drain\libraries\lvgl\src\misc/lv_style_gen.c **** 
  27:..\..\..\arduinoLCD\test\Pain Drain\libraries\lvgl\src\misc/lv_style_gen.c **** void lv_style_set_height(lv_style_t * style, lv_coord_t value)
  28:..\..\..\arduinoLCD\test\Pain Drain\libraries\lvgl\src\misc/lv_style_gen.c **** {
 115              		.loc 1 28 0
 116              		.cfi_startproc
 117              		@ args = 0, pretend = 0, frame = 0
 118              		@ frame_needed = 0, uses_anonymous_args = 0
 119              	.LVL9:
 120 0000 10B5     		push	{r4, lr}
 121              		.cfi_def_cfa_offset 8
 122              		.cfi_offset 4, -8
 123              		.cfi_offset 14, -4
 124 0002 0A00     		movs	r2, r1
  29:..\..\..\arduinoLCD\test\Pain Drain\libraries\lvgl\src\misc/lv_style_gen.c ****     lv_style_value_t v = {
  30:..\..\..\arduinoLCD\test\Pain Drain\libraries\lvgl\src\misc/lv_style_gen.c ****         .num = (int32_t)value
  31:..\..\..\arduinoLCD\test\Pain Drain\libraries\lvgl\src\misc/lv_style_gen.c ****     };
  32:..\..\..\arduinoLCD\test\Pain Drain\libraries\lvgl\src\misc/lv_style_gen.c ****     lv_style_set_prop(style, LV_STYLE_HEIGHT, v);
 125              		.loc 1 32 0
 126 0004 0421     		movs	r1, #4
 127              	.LVL10:
 128 0006 FFF7FEFF 		bl	lv_style_set_prop
 129              	.LVL11:
  33:..\..\..\arduinoLCD\test\Pain Drain\libraries\lvgl\src\misc/lv_style_gen.c **** }
 130              		.loc 1 33 0
 131              		@ sp needed
 132 000a 10BD     		pop	{r4, pc}
 133              		.cfi_endproc
 134              	.LFE57:
 135              		.size	lv_style_set_height, .-lv_style_set_height
 136              		.section	.text.lv_style_set_min_height,"ax",%progbits
 137              		.align	2
 138              		.global	lv_style_set_min_height
ARM GAS  C:\Users\haske\AppData\Local\Temp\ccb2zsXg.s 			page 4


 139              		.code	16
 140              		.thumb_func
 141              		.type	lv_style_set_min_height, %function
 142              	lv_style_set_min_height:
 143              	.LFB58:
  34:..\..\..\arduinoLCD\test\Pain Drain\libraries\lvgl\src\misc/lv_style_gen.c **** 
  35:..\..\..\arduinoLCD\test\Pain Drain\libraries\lvgl\src\misc/lv_style_gen.c **** void lv_style_set_min_height(lv_style_t * style, lv_coord_t value)
  36:..\..\..\arduinoLCD\test\Pain Drain\libraries\lvgl\src\misc/lv_style_gen.c **** {
 144              		.loc 1 36 0
 145              		.cfi_startproc
 146              		@ args = 0, pretend = 0, frame = 0
 147              		@ frame_needed = 0, uses_anonymous_args = 0
 148              	.LVL12:
 149 0000 10B5     		push	{r4, lr}
 150              		.cfi_def_cfa_offset 8
 151              		.cfi_offset 4, -8
 152              		.cfi_offset 14, -4
 153 0002 0A00     		movs	r2, r1
  37:..\..\..\arduinoLCD\test\Pain Drain\libraries\lvgl\src\misc/lv_style_gen.c ****     lv_style_value_t v = {
  38:..\..\..\arduinoLCD\test\Pain Drain\libraries\lvgl\src\misc/lv_style_gen.c ****         .num = (int32_t)value
  39:..\..\..\arduinoLCD\test\Pain Drain\libraries\lvgl\src\misc/lv_style_gen.c ****     };
  40:..\..\..\arduinoLCD\test\Pain Drain\libraries\lvgl\src\misc/lv_style_gen.c ****     lv_style_set_prop(style, LV_STYLE_MIN_HEIGHT, v);
 154              		.loc 1 40 0
 155 0004 0521     		movs	r1, #5
 156              	.LVL13:
 157 0006 FFF7FEFF 		bl	lv_style_set_prop
 158              	.LVL14:
  41:..\..\..\arduinoLCD\test\Pain Drain\libraries\lvgl\src\misc/lv_style_gen.c **** }
 159              		.loc 1 41 0
 160              		@ sp needed
 161 000a 10BD     		pop	{r4, pc}
 162              		.cfi_endproc
 163              	.LFE58:
 164              		.size	lv_style_set_min_height, .-lv_style_set_min_height
 165              		.section	.text.lv_style_set_max_height,"ax",%progbits
 166              		.align	2
 167              		.global	lv_style_set_max_height
 168              		.code	16
 169              		.thumb_func
 170              		.type	lv_style_set_max_height, %function
 171              	lv_style_set_max_height:
 172              	.LFB59:
  42:..\..\..\arduinoLCD\test\Pain Drain\libraries\lvgl\src\misc/lv_style_gen.c **** 
  43:..\..\..\arduinoLCD\test\Pain Drain\libraries\lvgl\src\misc/lv_style_gen.c **** void lv_style_set_max_height(lv_style_t * style, lv_coord_t value)
  44:..\..\..\arduinoLCD\test\Pain Drain\libraries\lvgl\src\misc/lv_style_gen.c **** {
 173              		.loc 1 44 0
 174              		.cfi_startproc
 175              		@ args = 0, pretend = 0, frame = 0
 176              		@ frame_needed = 0, uses_anonymous_args = 0
 177              	.LVL15:
 178 0000 10B5     		push	{r4, lr}
 179              		.cfi_def_cfa_offset 8
 180              		.cfi_offset 4, -8
 181              		.cfi_offset 14, -4
 182 0002 0A00     		movs	r2, r1
  45:..\..\..\arduinoLCD\test\Pain Drain\libraries\lvgl\src\misc/lv_style_gen.c ****     lv_style_value_t v = {
  46:..\..\..\arduinoLCD\test\Pain Drain\libraries\lvgl\src\misc/lv_style_gen.c ****         .num = (int32_t)value
ARM GAS  C:\Users\haske\AppData\Local\Temp\ccb2zsXg.s 			page 5


  47:..\..\..\arduinoLCD\test\Pain Drain\libraries\lvgl\src\misc/lv_style_gen.c ****     };
  48:..\..\..\arduinoLCD\test\Pain Drain\libraries\lvgl\src\misc/lv_style_gen.c ****     lv_style_set_prop(style, LV_STYLE_MAX_HEIGHT, v);
 183              		.loc 1 48 0
 184 0004 0621     		movs	r1, #6
 185              	.LVL16:
 186 0006 FFF7FEFF 		bl	lv_style_set_prop
 187              	.LVL17:
  49:..\..\..\arduinoLCD\test\Pain Drain\libraries\lvgl\src\misc/lv_style_gen.c **** }
 188              		.loc 1 49 0
 189              		@ sp needed
 190 000a 10BD     		pop	{r4, pc}
 191              		.cfi_endproc
 192              	.LFE59:
 193              		.size	lv_style_set_max_height, .-lv_style_set_max_height
 194              		.section	.text.lv_style_set_x,"ax",%progbits
 195              		.align	2
 196              		.global	lv_style_set_x
 197              		.code	16
 198              		.thumb_func
 199              		.type	lv_style_set_x, %function
 200              	lv_style_set_x:
 201              	.LFB60:
  50:..\..\..\arduinoLCD\test\Pain Drain\libraries\lvgl\src\misc/lv_style_gen.c **** 
  51:..\..\..\arduinoLCD\test\Pain Drain\libraries\lvgl\src\misc/lv_style_gen.c **** void lv_style_set_x(lv_style_t * style, lv_coord_t value)
  52:..\..\..\arduinoLCD\test\Pain Drain\libraries\lvgl\src\misc/lv_style_gen.c **** {
 202              		.loc 1 52 0
 203              		.cfi_startproc
 204              		@ args = 0, pretend = 0, frame = 0
 205              		@ frame_needed = 0, uses_anonymous_args = 0
 206              	.LVL18:
 207 0000 10B5     		push	{r4, lr}
 208              		.cfi_def_cfa_offset 8
 209              		.cfi_offset 4, -8
 210              		.cfi_offset 14, -4
 211 0002 0A00     		movs	r2, r1
  53:..\..\..\arduinoLCD\test\Pain Drain\libraries\lvgl\src\misc/lv_style_gen.c ****     lv_style_value_t v = {
  54:..\..\..\arduinoLCD\test\Pain Drain\libraries\lvgl\src\misc/lv_style_gen.c ****         .num = (int32_t)value
  55:..\..\..\arduinoLCD\test\Pain Drain\libraries\lvgl\src\misc/lv_style_gen.c ****     };
  56:..\..\..\arduinoLCD\test\Pain Drain\libraries\lvgl\src\misc/lv_style_gen.c ****     lv_style_set_prop(style, LV_STYLE_X, v);
 212              		.loc 1 56 0
 213 0004 0721     		movs	r1, #7
 214              	.LVL19:
 215 0006 FFF7FEFF 		bl	lv_style_set_prop
 216              	.LVL20:
  57:..\..\..\arduinoLCD\test\Pain Drain\libraries\lvgl\src\misc/lv_style_gen.c **** }
 217              		.loc 1 57 0
 218              		@ sp needed
 219 000a 10BD     		pop	{r4, pc}
 220              		.cfi_endproc
 221              	.LFE60:
 222              		.size	lv_style_set_x, .-lv_style_set_x
 223              		.section	.text.lv_style_set_y,"ax",%progbits
 224              		.align	2
 225              		.global	lv_style_set_y
 226              		.code	16
 227              		.thumb_func
 228              		.type	lv_style_set_y, %function
ARM GAS  C:\Users\haske\AppData\Local\Temp\ccb2zsXg.s 			page 6


 229              	lv_style_set_y:
 230              	.LFB61:
  58:..\..\..\arduinoLCD\test\Pain Drain\libraries\lvgl\src\misc/lv_style_gen.c **** 
  59:..\..\..\arduinoLCD\test\Pain Drain\libraries\lvgl\src\misc/lv_style_gen.c **** void lv_style_set_y(lv_style_t * style, lv_coord_t value)
  60:..\..\..\arduinoLCD\test\Pain Drain\libraries\lvgl\src\misc/lv_style_gen.c **** {
 231              		.loc 1 60 0
 232              		.cfi_startproc
 233              		@ args = 0, pretend = 0, frame = 0
 234              		@ frame_needed = 0, uses_anonymous_args = 0
 235              	.LVL21:
 236 0000 10B5     		push	{r4, lr}
 237              		.cfi_def_cfa_offset 8
 238              		.cfi_offset 4, -8
 239              		.cfi_offset 14, -4
 240 0002 0A00     		movs	r2, r1
  61:..\..\..\arduinoLCD\test\Pain Drain\libraries\lvgl\src\misc/lv_style_gen.c ****     lv_style_value_t v = {
  62:..\..\..\arduinoLCD\test\Pain Drain\libraries\lvgl\src\misc/lv_style_gen.c ****         .num = (int32_t)value
  63:..\..\..\arduinoLCD\test\Pain Drain\libraries\lvgl\src\misc/lv_style_gen.c ****     };
  64:..\..\..\arduinoLCD\test\Pain Drain\libraries\lvgl\src\misc/lv_style_gen.c ****     lv_style_set_prop(style, LV_STYLE_Y, v);
 241              		.loc 1 64 0
 242 0004 0821     		movs	r1, #8
 243              	.LVL22:
 244 0006 FFF7FEFF 		bl	lv_style_set_prop
 245              	.LVL23:
  65:..\..\..\arduinoLCD\test\Pain Drain\libraries\lvgl\src\misc/lv_style_gen.c **** }
 246              		.loc 1 65 0
 247              		@ sp needed
 248 000a 10BD     		pop	{r4, pc}
 249              		.cfi_endproc
 250              	.LFE61:
 251              		.size	lv_style_set_y, .-lv_style_set_y
 252              		.section	.text.lv_style_set_align,"ax",%progbits
 253              		.align	2
 254              		.global	lv_style_set_align
 255              		.code	16
 256              		.thumb_func
 257              		.type	lv_style_set_align, %function
 258              	lv_style_set_align:
 259              	.LFB62:
  66:..\..\..\arduinoLCD\test\Pain Drain\libraries\lvgl\src\misc/lv_style_gen.c **** 
  67:..\..\..\arduinoLCD\test\Pain Drain\libraries\lvgl\src\misc/lv_style_gen.c **** void lv_style_set_align(lv_style_t * style, lv_align_t value)
  68:..\..\..\arduinoLCD\test\Pain Drain\libraries\lvgl\src\misc/lv_style_gen.c **** {
 260              		.loc 1 68 0
 261              		.cfi_startproc
 262              		@ args = 0, pretend = 0, frame = 0
 263              		@ frame_needed = 0, uses_anonymous_args = 0
 264              	.LVL24:
 265 0000 10B5     		push	{r4, lr}
 266              		.cfi_def_cfa_offset 8
 267              		.cfi_offset 4, -8
 268              		.cfi_offset 14, -4
 269 0002 0A00     		movs	r2, r1
  69:..\..\..\arduinoLCD\test\Pain Drain\libraries\lvgl\src\misc/lv_style_gen.c ****     lv_style_value_t v = {
  70:..\..\..\arduinoLCD\test\Pain Drain\libraries\lvgl\src\misc/lv_style_gen.c ****         .num = (int32_t)value
  71:..\..\..\arduinoLCD\test\Pain Drain\libraries\lvgl\src\misc/lv_style_gen.c ****     };
  72:..\..\..\arduinoLCD\test\Pain Drain\libraries\lvgl\src\misc/lv_style_gen.c ****     lv_style_set_prop(style, LV_STYLE_ALIGN, v);
 270              		.loc 1 72 0
ARM GAS  C:\Users\haske\AppData\Local\Temp\ccb2zsXg.s 			page 7


 271 0004 0921     		movs	r1, #9
 272              	.LVL25:
 273 0006 FFF7FEFF 		bl	lv_style_set_prop
 274              	.LVL26:
  73:..\..\..\arduinoLCD\test\Pain Drain\libraries\lvgl\src\misc/lv_style_gen.c **** }
 275              		.loc 1 73 0
 276              		@ sp needed
 277 000a 10BD     		pop	{r4, pc}
 278              		.cfi_endproc
 279              	.LFE62:
 280              		.size	lv_style_set_align, .-lv_style_set_align
 281              		.section	.text.lv_style_set_transform_width,"ax",%progbits
 282              		.align	2
 283              		.global	lv_style_set_transform_width
 284              		.code	16
 285              		.thumb_func
 286              		.type	lv_style_set_transform_width, %function
 287              	lv_style_set_transform_width:
 288              	.LFB63:
  74:..\..\..\arduinoLCD\test\Pain Drain\libraries\lvgl\src\misc/lv_style_gen.c **** 
  75:..\..\..\arduinoLCD\test\Pain Drain\libraries\lvgl\src\misc/lv_style_gen.c **** void lv_style_set_transform_width(lv_style_t * style, lv_coord_t value)
  76:..\..\..\arduinoLCD\test\Pain Drain\libraries\lvgl\src\misc/lv_style_gen.c **** {
 289              		.loc 1 76 0
 290              		.cfi_startproc
 291              		@ args = 0, pretend = 0, frame = 0
 292              		@ frame_needed = 0, uses_anonymous_args = 0
 293              	.LVL27:
 294 0000 10B5     		push	{r4, lr}
 295              		.cfi_def_cfa_offset 8
 296              		.cfi_offset 4, -8
 297              		.cfi_offset 14, -4
 298 0002 0A00     		movs	r2, r1
  77:..\..\..\arduinoLCD\test\Pain Drain\libraries\lvgl\src\misc/lv_style_gen.c ****     lv_style_value_t v = {
  78:..\..\..\arduinoLCD\test\Pain Drain\libraries\lvgl\src\misc/lv_style_gen.c ****         .num = (int32_t)value
  79:..\..\..\arduinoLCD\test\Pain Drain\libraries\lvgl\src\misc/lv_style_gen.c ****     };
  80:..\..\..\arduinoLCD\test\Pain Drain\libraries\lvgl\src\misc/lv_style_gen.c ****     lv_style_set_prop(style, LV_STYLE_TRANSFORM_WIDTH, v);
 299              		.loc 1 80 0
 300 0004 6821     		movs	r1, #104
 301              	.LVL28:
 302 0006 FFF7FEFF 		bl	lv_style_set_prop
 303              	.LVL29:
  81:..\..\..\arduinoLCD\test\Pain Drain\libraries\lvgl\src\misc/lv_style_gen.c **** }
 304              		.loc 1 81 0
 305              		@ sp needed
 306 000a 10BD     		pop	{r4, pc}
 307              		.cfi_endproc
 308              	.LFE63:
 309              		.size	lv_style_set_transform_width, .-lv_style_set_transform_width
 310              		.section	.text.lv_style_set_transform_height,"ax",%progbits
 311              		.align	2
 312              		.global	lv_style_set_transform_height
 313              		.code	16
 314              		.thumb_func
 315              		.type	lv_style_set_transform_height, %function
 316              	lv_style_set_transform_height:
 317              	.LFB64:
  82:..\..\..\arduinoLCD\test\Pain Drain\libraries\lvgl\src\misc/lv_style_gen.c **** 
ARM GAS  C:\Users\haske\AppData\Local\Temp\ccb2zsXg.s 			page 8


  83:..\..\..\arduinoLCD\test\Pain Drain\libraries\lvgl\src\misc/lv_style_gen.c **** void lv_style_set_transform_height(lv_style_t * style, lv_coord_t value)
  84:..\..\..\arduinoLCD\test\Pain Drain\libraries\lvgl\src\misc/lv_style_gen.c **** {
 318              		.loc 1 84 0
 319              		.cfi_startproc
 320              		@ args = 0, pretend = 0, frame = 0
 321              		@ frame_needed = 0, uses_anonymous_args = 0
 322              	.LVL30:
 323 0000 10B5     		push	{r4, lr}
 324              		.cfi_def_cfa_offset 8
 325              		.cfi_offset 4, -8
 326              		.cfi_offset 14, -4
 327 0002 0A00     		movs	r2, r1
  85:..\..\..\arduinoLCD\test\Pain Drain\libraries\lvgl\src\misc/lv_style_gen.c ****     lv_style_value_t v = {
  86:..\..\..\arduinoLCD\test\Pain Drain\libraries\lvgl\src\misc/lv_style_gen.c ****         .num = (int32_t)value
  87:..\..\..\arduinoLCD\test\Pain Drain\libraries\lvgl\src\misc/lv_style_gen.c ****     };
  88:..\..\..\arduinoLCD\test\Pain Drain\libraries\lvgl\src\misc/lv_style_gen.c ****     lv_style_set_prop(style, LV_STYLE_TRANSFORM_HEIGHT, v);
 328              		.loc 1 88 0
 329 0004 6921     		movs	r1, #105
 330              	.LVL31:
 331 0006 FFF7FEFF 		bl	lv_style_set_prop
 332              	.LVL32:
  89:..\..\..\arduinoLCD\test\Pain Drain\libraries\lvgl\src\misc/lv_style_gen.c **** }
 333              		.loc 1 89 0
 334              		@ sp needed
 335 000a 10BD     		pop	{r4, pc}
 336              		.cfi_endproc
 337              	.LFE64:
 338              		.size	lv_style_set_transform_height, .-lv_style_set_transform_height
 339              		.section	.text.lv_style_set_translate_x,"ax",%progbits
 340              		.align	2
 341              		.global	lv_style_set_translate_x
 342              		.code	16
 343              		.thumb_func
 344              		.type	lv_style_set_translate_x, %function
 345              	lv_style_set_translate_x:
 346              	.LFB65:
  90:..\..\..\arduinoLCD\test\Pain Drain\libraries\lvgl\src\misc/lv_style_gen.c **** 
  91:..\..\..\arduinoLCD\test\Pain Drain\libraries\lvgl\src\misc/lv_style_gen.c **** void lv_style_set_translate_x(lv_style_t * style, lv_coord_t value)
  92:..\..\..\arduinoLCD\test\Pain Drain\libraries\lvgl\src\misc/lv_style_gen.c **** {
 347              		.loc 1 92 0
 348              		.cfi_startproc
 349              		@ args = 0, pretend = 0, frame = 0
 350              		@ frame_needed = 0, uses_anonymous_args = 0
 351              	.LVL33:
 352 0000 10B5     		push	{r4, lr}
 353              		.cfi_def_cfa_offset 8
 354              		.cfi_offset 4, -8
 355              		.cfi_offset 14, -4
 356 0002 0A00     		movs	r2, r1
  93:..\..\..\arduinoLCD\test\Pain Drain\libraries\lvgl\src\misc/lv_style_gen.c ****     lv_style_value_t v = {
  94:..\..\..\arduinoLCD\test\Pain Drain\libraries\lvgl\src\misc/lv_style_gen.c ****         .num = (int32_t)value
  95:..\..\..\arduinoLCD\test\Pain Drain\libraries\lvgl\src\misc/lv_style_gen.c ****     };
  96:..\..\..\arduinoLCD\test\Pain Drain\libraries\lvgl\src\misc/lv_style_gen.c ****     lv_style_set_prop(style, LV_STYLE_TRANSLATE_X, v);
 357              		.loc 1 96 0
 358 0004 6A21     		movs	r1, #106
 359              	.LVL34:
 360 0006 FFF7FEFF 		bl	lv_style_set_prop
ARM GAS  C:\Users\haske\AppData\Local\Temp\ccb2zsXg.s 			page 9


 361              	.LVL35:
  97:..\..\..\arduinoLCD\test\Pain Drain\libraries\lvgl\src\misc/lv_style_gen.c **** }
 362              		.loc 1 97 0
 363              		@ sp needed
 364 000a 10BD     		pop	{r4, pc}
 365              		.cfi_endproc
 366              	.LFE65:
 367              		.size	lv_style_set_translate_x, .-lv_style_set_translate_x
 368              		.section	.text.lv_style_set_translate_y,"ax",%progbits
 369              		.align	2
 370              		.global	lv_style_set_translate_y
 371              		.code	16
 372              		.thumb_func
 373              		.type	lv_style_set_translate_y, %function
 374              	lv_style_set_translate_y:
 375              	.LFB66:
  98:..\..\..\arduinoLCD\test\Pain Drain\libraries\lvgl\src\misc/lv_style_gen.c **** 
  99:..\..\..\arduinoLCD\test\Pain Drain\libraries\lvgl\src\misc/lv_style_gen.c **** void lv_style_set_translate_y(lv_style_t * style, lv_coord_t value)
 100:..\..\..\arduinoLCD\test\Pain Drain\libraries\lvgl\src\misc/lv_style_gen.c **** {
 376              		.loc 1 100 0
 377              		.cfi_startproc
 378              		@ args = 0, pretend = 0, frame = 0
 379              		@ frame_needed = 0, uses_anonymous_args = 0
 380              	.LVL36:
 381 0000 10B5     		push	{r4, lr}
 382              		.cfi_def_cfa_offset 8
 383              		.cfi_offset 4, -8
 384              		.cfi_offset 14, -4
 385 0002 0A00     		movs	r2, r1
 101:..\..\..\arduinoLCD\test\Pain Drain\libraries\lvgl\src\misc/lv_style_gen.c ****     lv_style_value_t v = {
 102:..\..\..\arduinoLCD\test\Pain Drain\libraries\lvgl\src\misc/lv_style_gen.c ****         .num = (int32_t)value
 103:..\..\..\arduinoLCD\test\Pain Drain\libraries\lvgl\src\misc/lv_style_gen.c ****     };
 104:..\..\..\arduinoLCD\test\Pain Drain\libraries\lvgl\src\misc/lv_style_gen.c ****     lv_style_set_prop(style, LV_STYLE_TRANSLATE_Y, v);
 386              		.loc 1 104 0
 387 0004 6B21     		movs	r1, #107
 388              	.LVL37:
 389 0006 FFF7FEFF 		bl	lv_style_set_prop
 390              	.LVL38:
 105:..\..\..\arduinoLCD\test\Pain Drain\libraries\lvgl\src\misc/lv_style_gen.c **** }
 391              		.loc 1 105 0
 392              		@ sp needed
 393 000a 10BD     		pop	{r4, pc}
 394              		.cfi_endproc
 395              	.LFE66:
 396              		.size	lv_style_set_translate_y, .-lv_style_set_translate_y
 397              		.section	.text.lv_style_set_transform_zoom,"ax",%progbits
 398              		.align	2
 399              		.global	lv_style_set_transform_zoom
 400              		.code	16
 401              		.thumb_func
 402              		.type	lv_style_set_transform_zoom, %function
 403              	lv_style_set_transform_zoom:
 404              	.LFB67:
 106:..\..\..\arduinoLCD\test\Pain Drain\libraries\lvgl\src\misc/lv_style_gen.c **** 
 107:..\..\..\arduinoLCD\test\Pain Drain\libraries\lvgl\src\misc/lv_style_gen.c **** void lv_style_set_transform_zoom(lv_style_t * style, lv_coord_t value)
 108:..\..\..\arduinoLCD\test\Pain Drain\libraries\lvgl\src\misc/lv_style_gen.c **** {
 405              		.loc 1 108 0
ARM GAS  C:\Users\haske\AppData\Local\Temp\ccb2zsXg.s 			page 10


 406              		.cfi_startproc
 407              		@ args = 0, pretend = 0, frame = 0
 408              		@ frame_needed = 0, uses_anonymous_args = 0
 409              	.LVL39:
 410 0000 10B5     		push	{r4, lr}
 411              		.cfi_def_cfa_offset 8
 412              		.cfi_offset 4, -8
 413              		.cfi_offset 14, -4
 414 0002 0A00     		movs	r2, r1
 109:..\..\..\arduinoLCD\test\Pain Drain\libraries\lvgl\src\misc/lv_style_gen.c ****     lv_style_value_t v = {
 110:..\..\..\arduinoLCD\test\Pain Drain\libraries\lvgl\src\misc/lv_style_gen.c ****         .num = (int32_t)value
 111:..\..\..\arduinoLCD\test\Pain Drain\libraries\lvgl\src\misc/lv_style_gen.c ****     };
 112:..\..\..\arduinoLCD\test\Pain Drain\libraries\lvgl\src\misc/lv_style_gen.c ****     lv_style_set_prop(style, LV_STYLE_TRANSFORM_ZOOM, v);
 415              		.loc 1 112 0
 416 0004 6C21     		movs	r1, #108
 417              	.LVL40:
 418 0006 FFF7FEFF 		bl	lv_style_set_prop
 419              	.LVL41:
 113:..\..\..\arduinoLCD\test\Pain Drain\libraries\lvgl\src\misc/lv_style_gen.c **** }
 420              		.loc 1 113 0
 421              		@ sp needed
 422 000a 10BD     		pop	{r4, pc}
 423              		.cfi_endproc
 424              	.LFE67:
 425              		.size	lv_style_set_transform_zoom, .-lv_style_set_transform_zoom
 426              		.section	.text.lv_style_set_transform_angle,"ax",%progbits
 427              		.align	2
 428              		.global	lv_style_set_transform_angle
 429              		.code	16
 430              		.thumb_func
 431              		.type	lv_style_set_transform_angle, %function
 432              	lv_style_set_transform_angle:
 433              	.LFB68:
 114:..\..\..\arduinoLCD\test\Pain Drain\libraries\lvgl\src\misc/lv_style_gen.c **** 
 115:..\..\..\arduinoLCD\test\Pain Drain\libraries\lvgl\src\misc/lv_style_gen.c **** void lv_style_set_transform_angle(lv_style_t * style, lv_coord_t value)
 116:..\..\..\arduinoLCD\test\Pain Drain\libraries\lvgl\src\misc/lv_style_gen.c **** {
 434              		.loc 1 116 0
 435              		.cfi_startproc
 436              		@ args = 0, pretend = 0, frame = 0
 437              		@ frame_needed = 0, uses_anonymous_args = 0
 438              	.LVL42:
 439 0000 10B5     		push	{r4, lr}
 440              		.cfi_def_cfa_offset 8
 441              		.cfi_offset 4, -8
 442              		.cfi_offset 14, -4
 443 0002 0A00     		movs	r2, r1
 117:..\..\..\arduinoLCD\test\Pain Drain\libraries\lvgl\src\misc/lv_style_gen.c ****     lv_style_value_t v = {
 118:..\..\..\arduinoLCD\test\Pain Drain\libraries\lvgl\src\misc/lv_style_gen.c ****         .num = (int32_t)value
 119:..\..\..\arduinoLCD\test\Pain Drain\libraries\lvgl\src\misc/lv_style_gen.c ****     };
 120:..\..\..\arduinoLCD\test\Pain Drain\libraries\lvgl\src\misc/lv_style_gen.c ****     lv_style_set_prop(style, LV_STYLE_TRANSFORM_ANGLE, v);
 444              		.loc 1 120 0
 445 0004 6D21     		movs	r1, #109
 446              	.LVL43:
 447 0006 FFF7FEFF 		bl	lv_style_set_prop
 448              	.LVL44:
 121:..\..\..\arduinoLCD\test\Pain Drain\libraries\lvgl\src\misc/lv_style_gen.c **** }
 449              		.loc 1 121 0
ARM GAS  C:\Users\haske\AppData\Local\Temp\ccb2zsXg.s 			page 11


 450              		@ sp needed
 451 000a 10BD     		pop	{r4, pc}
 452              		.cfi_endproc
 453              	.LFE68:
 454              		.size	lv_style_set_transform_angle, .-lv_style_set_transform_angle
 455              		.section	.text.lv_style_set_transform_pivot_x,"ax",%progbits
 456              		.align	2
 457              		.global	lv_style_set_transform_pivot_x
 458              		.code	16
 459              		.thumb_func
 460              		.type	lv_style_set_transform_pivot_x, %function
 461              	lv_style_set_transform_pivot_x:
 462              	.LFB69:
 122:..\..\..\arduinoLCD\test\Pain Drain\libraries\lvgl\src\misc/lv_style_gen.c **** 
 123:..\..\..\arduinoLCD\test\Pain Drain\libraries\lvgl\src\misc/lv_style_gen.c **** void lv_style_set_transform_pivot_x(lv_style_t * style, lv_coord_t value)
 124:..\..\..\arduinoLCD\test\Pain Drain\libraries\lvgl\src\misc/lv_style_gen.c **** {
 463              		.loc 1 124 0
 464              		.cfi_startproc
 465              		@ args = 0, pretend = 0, frame = 0
 466              		@ frame_needed = 0, uses_anonymous_args = 0
 467              	.LVL45:
 468 0000 10B5     		push	{r4, lr}
 469              		.cfi_def_cfa_offset 8
 470              		.cfi_offset 4, -8
 471              		.cfi_offset 14, -4
 472 0002 0A00     		movs	r2, r1
 125:..\..\..\arduinoLCD\test\Pain Drain\libraries\lvgl\src\misc/lv_style_gen.c ****     lv_style_value_t v = {
 126:..\..\..\arduinoLCD\test\Pain Drain\libraries\lvgl\src\misc/lv_style_gen.c ****         .num = (int32_t)value
 127:..\..\..\arduinoLCD\test\Pain Drain\libraries\lvgl\src\misc/lv_style_gen.c ****     };
 128:..\..\..\arduinoLCD\test\Pain Drain\libraries\lvgl\src\misc/lv_style_gen.c ****     lv_style_set_prop(style, LV_STYLE_TRANSFORM_PIVOT_X, v);
 473              		.loc 1 128 0
 474 0004 6E21     		movs	r1, #110
 475              	.LVL46:
 476 0006 FFF7FEFF 		bl	lv_style_set_prop
 477              	.LVL47:
 129:..\..\..\arduinoLCD\test\Pain Drain\libraries\lvgl\src\misc/lv_style_gen.c **** }
 478              		.loc 1 129 0
 479              		@ sp needed
 480 000a 10BD     		pop	{r4, pc}
 481              		.cfi_endproc
 482              	.LFE69:
 483              		.size	lv_style_set_transform_pivot_x, .-lv_style_set_transform_pivot_x
 484              		.section	.text.lv_style_set_transform_pivot_y,"ax",%progbits
 485              		.align	2
 486              		.global	lv_style_set_transform_pivot_y
 487              		.code	16
 488              		.thumb_func
 489              		.type	lv_style_set_transform_pivot_y, %function
 490              	lv_style_set_transform_pivot_y:
 491              	.LFB70:
 130:..\..\..\arduinoLCD\test\Pain Drain\libraries\lvgl\src\misc/lv_style_gen.c **** 
 131:..\..\..\arduinoLCD\test\Pain Drain\libraries\lvgl\src\misc/lv_style_gen.c **** void lv_style_set_transform_pivot_y(lv_style_t * style, lv_coord_t value)
 132:..\..\..\arduinoLCD\test\Pain Drain\libraries\lvgl\src\misc/lv_style_gen.c **** {
 492              		.loc 1 132 0
 493              		.cfi_startproc
 494              		@ args = 0, pretend = 0, frame = 0
 495              		@ frame_needed = 0, uses_anonymous_args = 0
ARM GAS  C:\Users\haske\AppData\Local\Temp\ccb2zsXg.s 			page 12


 496              	.LVL48:
 497 0000 10B5     		push	{r4, lr}
 498              		.cfi_def_cfa_offset 8
 499              		.cfi_offset 4, -8
 500              		.cfi_offset 14, -4
 501 0002 0A00     		movs	r2, r1
 133:..\..\..\arduinoLCD\test\Pain Drain\libraries\lvgl\src\misc/lv_style_gen.c ****     lv_style_value_t v = {
 134:..\..\..\arduinoLCD\test\Pain Drain\libraries\lvgl\src\misc/lv_style_gen.c ****         .num = (int32_t)value
 135:..\..\..\arduinoLCD\test\Pain Drain\libraries\lvgl\src\misc/lv_style_gen.c ****     };
 136:..\..\..\arduinoLCD\test\Pain Drain\libraries\lvgl\src\misc/lv_style_gen.c ****     lv_style_set_prop(style, LV_STYLE_TRANSFORM_PIVOT_Y, v);
 502              		.loc 1 136 0
 503 0004 6F21     		movs	r1, #111
 504              	.LVL49:
 505 0006 FFF7FEFF 		bl	lv_style_set_prop
 506              	.LVL50:
 137:..\..\..\arduinoLCD\test\Pain Drain\libraries\lvgl\src\misc/lv_style_gen.c **** }
 507              		.loc 1 137 0
 508              		@ sp needed
 509 000a 10BD     		pop	{r4, pc}
 510              		.cfi_endproc
 511              	.LFE70:
 512              		.size	lv_style_set_transform_pivot_y, .-lv_style_set_transform_pivot_y
 513              		.section	.text.lv_style_set_pad_top,"ax",%progbits
 514              		.align	2
 515              		.global	lv_style_set_pad_top
 516              		.code	16
 517              		.thumb_func
 518              		.type	lv_style_set_pad_top, %function
 519              	lv_style_set_pad_top:
 520              	.LFB71:
 138:..\..\..\arduinoLCD\test\Pain Drain\libraries\lvgl\src\misc/lv_style_gen.c **** 
 139:..\..\..\arduinoLCD\test\Pain Drain\libraries\lvgl\src\misc/lv_style_gen.c **** void lv_style_set_pad_top(lv_style_t * style, lv_coord_t value)
 140:..\..\..\arduinoLCD\test\Pain Drain\libraries\lvgl\src\misc/lv_style_gen.c **** {
 521              		.loc 1 140 0
 522              		.cfi_startproc
 523              		@ args = 0, pretend = 0, frame = 0
 524              		@ frame_needed = 0, uses_anonymous_args = 0
 525              	.LVL51:
 526 0000 10B5     		push	{r4, lr}
 527              		.cfi_def_cfa_offset 8
 528              		.cfi_offset 4, -8
 529              		.cfi_offset 14, -4
 530 0002 0A00     		movs	r2, r1
 141:..\..\..\arduinoLCD\test\Pain Drain\libraries\lvgl\src\misc/lv_style_gen.c ****     lv_style_value_t v = {
 142:..\..\..\arduinoLCD\test\Pain Drain\libraries\lvgl\src\misc/lv_style_gen.c ****         .num = (int32_t)value
 143:..\..\..\arduinoLCD\test\Pain Drain\libraries\lvgl\src\misc/lv_style_gen.c ****     };
 144:..\..\..\arduinoLCD\test\Pain Drain\libraries\lvgl\src\misc/lv_style_gen.c ****     lv_style_set_prop(style, LV_STYLE_PAD_TOP, v);
 531              		.loc 1 144 0
 532 0004 1021     		movs	r1, #16
 533              	.LVL52:
 534 0006 FFF7FEFF 		bl	lv_style_set_prop
 535              	.LVL53:
 145:..\..\..\arduinoLCD\test\Pain Drain\libraries\lvgl\src\misc/lv_style_gen.c **** }
 536              		.loc 1 145 0
 537              		@ sp needed
 538 000a 10BD     		pop	{r4, pc}
 539              		.cfi_endproc
ARM GAS  C:\Users\haske\AppData\Local\Temp\ccb2zsXg.s 			page 13


 540              	.LFE71:
 541              		.size	lv_style_set_pad_top, .-lv_style_set_pad_top
 542              		.section	.text.lv_style_set_pad_bottom,"ax",%progbits
 543              		.align	2
 544              		.global	lv_style_set_pad_bottom
 545              		.code	16
 546              		.thumb_func
 547              		.type	lv_style_set_pad_bottom, %function
 548              	lv_style_set_pad_bottom:
 549              	.LFB72:
 146:..\..\..\arduinoLCD\test\Pain Drain\libraries\lvgl\src\misc/lv_style_gen.c **** 
 147:..\..\..\arduinoLCD\test\Pain Drain\libraries\lvgl\src\misc/lv_style_gen.c **** void lv_style_set_pad_bottom(lv_style_t * style, lv_coord_t value)
 148:..\..\..\arduinoLCD\test\Pain Drain\libraries\lvgl\src\misc/lv_style_gen.c **** {
 550              		.loc 1 148 0
 551              		.cfi_startproc
 552              		@ args = 0, pretend = 0, frame = 0
 553              		@ frame_needed = 0, uses_anonymous_args = 0
 554              	.LVL54:
 555 0000 10B5     		push	{r4, lr}
 556              		.cfi_def_cfa_offset 8
 557              		.cfi_offset 4, -8
 558              		.cfi_offset 14, -4
 559 0002 0A00     		movs	r2, r1
 149:..\..\..\arduinoLCD\test\Pain Drain\libraries\lvgl\src\misc/lv_style_gen.c ****     lv_style_value_t v = {
 150:..\..\..\arduinoLCD\test\Pain Drain\libraries\lvgl\src\misc/lv_style_gen.c ****         .num = (int32_t)value
 151:..\..\..\arduinoLCD\test\Pain Drain\libraries\lvgl\src\misc/lv_style_gen.c ****     };
 152:..\..\..\arduinoLCD\test\Pain Drain\libraries\lvgl\src\misc/lv_style_gen.c ****     lv_style_set_prop(style, LV_STYLE_PAD_BOTTOM, v);
 560              		.loc 1 152 0
 561 0004 1121     		movs	r1, #17
 562              	.LVL55:
 563 0006 FFF7FEFF 		bl	lv_style_set_prop
 564              	.LVL56:
 153:..\..\..\arduinoLCD\test\Pain Drain\libraries\lvgl\src\misc/lv_style_gen.c **** }
 565              		.loc 1 153 0
 566              		@ sp needed
 567 000a 10BD     		pop	{r4, pc}
 568              		.cfi_endproc
 569              	.LFE72:
 570              		.size	lv_style_set_pad_bottom, .-lv_style_set_pad_bottom
 571              		.section	.text.lv_style_set_pad_left,"ax",%progbits
 572              		.align	2
 573              		.global	lv_style_set_pad_left
 574              		.code	16
 575              		.thumb_func
 576              		.type	lv_style_set_pad_left, %function
 577              	lv_style_set_pad_left:
 578              	.LFB73:
 154:..\..\..\arduinoLCD\test\Pain Drain\libraries\lvgl\src\misc/lv_style_gen.c **** 
 155:..\..\..\arduinoLCD\test\Pain Drain\libraries\lvgl\src\misc/lv_style_gen.c **** void lv_style_set_pad_left(lv_style_t * style, lv_coord_t value)
 156:..\..\..\arduinoLCD\test\Pain Drain\libraries\lvgl\src\misc/lv_style_gen.c **** {
 579              		.loc 1 156 0
 580              		.cfi_startproc
 581              		@ args = 0, pretend = 0, frame = 0
 582              		@ frame_needed = 0, uses_anonymous_args = 0
 583              	.LVL57:
 584 0000 10B5     		push	{r4, lr}
 585              		.cfi_def_cfa_offset 8
ARM GAS  C:\Users\haske\AppData\Local\Temp\ccb2zsXg.s 			page 14


 586              		.cfi_offset 4, -8
 587              		.cfi_offset 14, -4
 588 0002 0A00     		movs	r2, r1
 157:..\..\..\arduinoLCD\test\Pain Drain\libraries\lvgl\src\misc/lv_style_gen.c ****     lv_style_value_t v = {
 158:..\..\..\arduinoLCD\test\Pain Drain\libraries\lvgl\src\misc/lv_style_gen.c ****         .num = (int32_t)value
 159:..\..\..\arduinoLCD\test\Pain Drain\libraries\lvgl\src\misc/lv_style_gen.c ****     };
 160:..\..\..\arduinoLCD\test\Pain Drain\libraries\lvgl\src\misc/lv_style_gen.c ****     lv_style_set_prop(style, LV_STYLE_PAD_LEFT, v);
 589              		.loc 1 160 0
 590 0004 1221     		movs	r1, #18
 591              	.LVL58:
 592 0006 FFF7FEFF 		bl	lv_style_set_prop
 593              	.LVL59:
 161:..\..\..\arduinoLCD\test\Pain Drain\libraries\lvgl\src\misc/lv_style_gen.c **** }
 594              		.loc 1 161 0
 595              		@ sp needed
 596 000a 10BD     		pop	{r4, pc}
 597              		.cfi_endproc
 598              	.LFE73:
 599              		.size	lv_style_set_pad_left, .-lv_style_set_pad_left
 600              		.section	.text.lv_style_set_pad_right,"ax",%progbits
 601              		.align	2
 602              		.global	lv_style_set_pad_right
 603              		.code	16
 604              		.thumb_func
 605              		.type	lv_style_set_pad_right, %function
 606              	lv_style_set_pad_right:
 607              	.LFB74:
 162:..\..\..\arduinoLCD\test\Pain Drain\libraries\lvgl\src\misc/lv_style_gen.c **** 
 163:..\..\..\arduinoLCD\test\Pain Drain\libraries\lvgl\src\misc/lv_style_gen.c **** void lv_style_set_pad_right(lv_style_t * style, lv_coord_t value)
 164:..\..\..\arduinoLCD\test\Pain Drain\libraries\lvgl\src\misc/lv_style_gen.c **** {
 608              		.loc 1 164 0
 609              		.cfi_startproc
 610              		@ args = 0, pretend = 0, frame = 0
 611              		@ frame_needed = 0, uses_anonymous_args = 0
 612              	.LVL60:
 613 0000 10B5     		push	{r4, lr}
 614              		.cfi_def_cfa_offset 8
 615              		.cfi_offset 4, -8
 616              		.cfi_offset 14, -4
 617 0002 0A00     		movs	r2, r1
 165:..\..\..\arduinoLCD\test\Pain Drain\libraries\lvgl\src\misc/lv_style_gen.c ****     lv_style_value_t v = {
 166:..\..\..\arduinoLCD\test\Pain Drain\libraries\lvgl\src\misc/lv_style_gen.c ****         .num = (int32_t)value
 167:..\..\..\arduinoLCD\test\Pain Drain\libraries\lvgl\src\misc/lv_style_gen.c ****     };
 168:..\..\..\arduinoLCD\test\Pain Drain\libraries\lvgl\src\misc/lv_style_gen.c ****     lv_style_set_prop(style, LV_STYLE_PAD_RIGHT, v);
 618              		.loc 1 168 0
 619 0004 1321     		movs	r1, #19
 620              	.LVL61:
 621 0006 FFF7FEFF 		bl	lv_style_set_prop
 622              	.LVL62:
 169:..\..\..\arduinoLCD\test\Pain Drain\libraries\lvgl\src\misc/lv_style_gen.c **** }
 623              		.loc 1 169 0
 624              		@ sp needed
 625 000a 10BD     		pop	{r4, pc}
 626              		.cfi_endproc
 627              	.LFE74:
 628              		.size	lv_style_set_pad_right, .-lv_style_set_pad_right
 629              		.section	.text.lv_style_set_pad_row,"ax",%progbits
ARM GAS  C:\Users\haske\AppData\Local\Temp\ccb2zsXg.s 			page 15


 630              		.align	2
 631              		.global	lv_style_set_pad_row
 632              		.code	16
 633              		.thumb_func
 634              		.type	lv_style_set_pad_row, %function
 635              	lv_style_set_pad_row:
 636              	.LFB75:
 170:..\..\..\arduinoLCD\test\Pain Drain\libraries\lvgl\src\misc/lv_style_gen.c **** 
 171:..\..\..\arduinoLCD\test\Pain Drain\libraries\lvgl\src\misc/lv_style_gen.c **** void lv_style_set_pad_row(lv_style_t * style, lv_coord_t value)
 172:..\..\..\arduinoLCD\test\Pain Drain\libraries\lvgl\src\misc/lv_style_gen.c **** {
 637              		.loc 1 172 0
 638              		.cfi_startproc
 639              		@ args = 0, pretend = 0, frame = 0
 640              		@ frame_needed = 0, uses_anonymous_args = 0
 641              	.LVL63:
 642 0000 10B5     		push	{r4, lr}
 643              		.cfi_def_cfa_offset 8
 644              		.cfi_offset 4, -8
 645              		.cfi_offset 14, -4
 646 0002 0A00     		movs	r2, r1
 173:..\..\..\arduinoLCD\test\Pain Drain\libraries\lvgl\src\misc/lv_style_gen.c ****     lv_style_value_t v = {
 174:..\..\..\arduinoLCD\test\Pain Drain\libraries\lvgl\src\misc/lv_style_gen.c ****         .num = (int32_t)value
 175:..\..\..\arduinoLCD\test\Pain Drain\libraries\lvgl\src\misc/lv_style_gen.c ****     };
 176:..\..\..\arduinoLCD\test\Pain Drain\libraries\lvgl\src\misc/lv_style_gen.c ****     lv_style_set_prop(style, LV_STYLE_PAD_ROW, v);
 647              		.loc 1 176 0
 648 0004 1421     		movs	r1, #20
 649              	.LVL64:
 650 0006 FFF7FEFF 		bl	lv_style_set_prop
 651              	.LVL65:
 177:..\..\..\arduinoLCD\test\Pain Drain\libraries\lvgl\src\misc/lv_style_gen.c **** }
 652              		.loc 1 177 0
 653              		@ sp needed
 654 000a 10BD     		pop	{r4, pc}
 655              		.cfi_endproc
 656              	.LFE75:
 657              		.size	lv_style_set_pad_row, .-lv_style_set_pad_row
 658              		.section	.text.lv_style_set_pad_column,"ax",%progbits
 659              		.align	2
 660              		.global	lv_style_set_pad_column
 661              		.code	16
 662              		.thumb_func
 663              		.type	lv_style_set_pad_column, %function
 664              	lv_style_set_pad_column:
 665              	.LFB76:
 178:..\..\..\arduinoLCD\test\Pain Drain\libraries\lvgl\src\misc/lv_style_gen.c **** 
 179:..\..\..\arduinoLCD\test\Pain Drain\libraries\lvgl\src\misc/lv_style_gen.c **** void lv_style_set_pad_column(lv_style_t * style, lv_coord_t value)
 180:..\..\..\arduinoLCD\test\Pain Drain\libraries\lvgl\src\misc/lv_style_gen.c **** {
 666              		.loc 1 180 0
 667              		.cfi_startproc
 668              		@ args = 0, pretend = 0, frame = 0
 669              		@ frame_needed = 0, uses_anonymous_args = 0
 670              	.LVL66:
 671 0000 10B5     		push	{r4, lr}
 672              		.cfi_def_cfa_offset 8
 673              		.cfi_offset 4, -8
 674              		.cfi_offset 14, -4
 675 0002 0A00     		movs	r2, r1
ARM GAS  C:\Users\haske\AppData\Local\Temp\ccb2zsXg.s 			page 16


 181:..\..\..\arduinoLCD\test\Pain Drain\libraries\lvgl\src\misc/lv_style_gen.c ****     lv_style_value_t v = {
 182:..\..\..\arduinoLCD\test\Pain Drain\libraries\lvgl\src\misc/lv_style_gen.c ****         .num = (int32_t)value
 183:..\..\..\arduinoLCD\test\Pain Drain\libraries\lvgl\src\misc/lv_style_gen.c ****     };
 184:..\..\..\arduinoLCD\test\Pain Drain\libraries\lvgl\src\misc/lv_style_gen.c ****     lv_style_set_prop(style, LV_STYLE_PAD_COLUMN, v);
 676              		.loc 1 184 0
 677 0004 1521     		movs	r1, #21
 678              	.LVL67:
 679 0006 FFF7FEFF 		bl	lv_style_set_prop
 680              	.LVL68:
 185:..\..\..\arduinoLCD\test\Pain Drain\libraries\lvgl\src\misc/lv_style_gen.c **** }
 681              		.loc 1 185 0
 682              		@ sp needed
 683 000a 10BD     		pop	{r4, pc}
 684              		.cfi_endproc
 685              	.LFE76:
 686              		.size	lv_style_set_pad_column, .-lv_style_set_pad_column
 687              		.section	.text.lv_style_set_bg_color,"ax",%progbits
 688              		.align	2
 689              		.global	lv_style_set_bg_color
 690              		.code	16
 691              		.thumb_func
 692              		.type	lv_style_set_bg_color, %function
 693              	lv_style_set_bg_color:
 694              	.LFB77:
 186:..\..\..\arduinoLCD\test\Pain Drain\libraries\lvgl\src\misc/lv_style_gen.c **** 
 187:..\..\..\arduinoLCD\test\Pain Drain\libraries\lvgl\src\misc/lv_style_gen.c **** void lv_style_set_bg_color(lv_style_t * style, lv_color_t value)
 188:..\..\..\arduinoLCD\test\Pain Drain\libraries\lvgl\src\misc/lv_style_gen.c **** {
 695              		.loc 1 188 0
 696              		.cfi_startproc
 697              		@ args = 0, pretend = 0, frame = 0
 698              		@ frame_needed = 0, uses_anonymous_args = 0
 699              	.LVL69:
 700 0000 10B5     		push	{r4, lr}
 701              		.cfi_def_cfa_offset 8
 702              		.cfi_offset 4, -8
 703              		.cfi_offset 14, -4
 189:..\..\..\arduinoLCD\test\Pain Drain\libraries\lvgl\src\misc/lv_style_gen.c ****     lv_style_value_t v = {
 704              		.loc 1 189 0
 705 0002 8AB2     		uxth	r2, r1
 706              	.LVL70:
 190:..\..\..\arduinoLCD\test\Pain Drain\libraries\lvgl\src\misc/lv_style_gen.c ****         .color = value
 191:..\..\..\arduinoLCD\test\Pain Drain\libraries\lvgl\src\misc/lv_style_gen.c ****     };
 192:..\..\..\arduinoLCD\test\Pain Drain\libraries\lvgl\src\misc/lv_style_gen.c ****     lv_style_set_prop(style, LV_STYLE_BG_COLOR, v);
 707              		.loc 1 192 0
 708 0004 2021     		movs	r1, #32
 709 0006 FFF7FEFF 		bl	lv_style_set_prop
 710              	.LVL71:
 193:..\..\..\arduinoLCD\test\Pain Drain\libraries\lvgl\src\misc/lv_style_gen.c **** }
 711              		.loc 1 193 0
 712              		@ sp needed
 713 000a 10BD     		pop	{r4, pc}
 714              		.cfi_endproc
 715              	.LFE77:
 716              		.size	lv_style_set_bg_color, .-lv_style_set_bg_color
 717              		.section	.text.lv_style_set_bg_opa,"ax",%progbits
 718              		.align	2
 719              		.global	lv_style_set_bg_opa
ARM GAS  C:\Users\haske\AppData\Local\Temp\ccb2zsXg.s 			page 17


 720              		.code	16
 721              		.thumb_func
 722              		.type	lv_style_set_bg_opa, %function
 723              	lv_style_set_bg_opa:
 724              	.LFB78:
 194:..\..\..\arduinoLCD\test\Pain Drain\libraries\lvgl\src\misc/lv_style_gen.c **** 
 195:..\..\..\arduinoLCD\test\Pain Drain\libraries\lvgl\src\misc/lv_style_gen.c **** void lv_style_set_bg_opa(lv_style_t * style, lv_opa_t value)
 196:..\..\..\arduinoLCD\test\Pain Drain\libraries\lvgl\src\misc/lv_style_gen.c **** {
 725              		.loc 1 196 0
 726              		.cfi_startproc
 727              		@ args = 0, pretend = 0, frame = 0
 728              		@ frame_needed = 0, uses_anonymous_args = 0
 729              	.LVL72:
 730 0000 10B5     		push	{r4, lr}
 731              		.cfi_def_cfa_offset 8
 732              		.cfi_offset 4, -8
 733              		.cfi_offset 14, -4
 734 0002 0A00     		movs	r2, r1
 197:..\..\..\arduinoLCD\test\Pain Drain\libraries\lvgl\src\misc/lv_style_gen.c ****     lv_style_value_t v = {
 198:..\..\..\arduinoLCD\test\Pain Drain\libraries\lvgl\src\misc/lv_style_gen.c ****         .num = (int32_t)value
 199:..\..\..\arduinoLCD\test\Pain Drain\libraries\lvgl\src\misc/lv_style_gen.c ****     };
 200:..\..\..\arduinoLCD\test\Pain Drain\libraries\lvgl\src\misc/lv_style_gen.c ****     lv_style_set_prop(style, LV_STYLE_BG_OPA, v);
 735              		.loc 1 200 0
 736 0004 2121     		movs	r1, #33
 737              	.LVL73:
 738 0006 FFF7FEFF 		bl	lv_style_set_prop
 739              	.LVL74:
 201:..\..\..\arduinoLCD\test\Pain Drain\libraries\lvgl\src\misc/lv_style_gen.c **** }
 740              		.loc 1 201 0
 741              		@ sp needed
 742 000a 10BD     		pop	{r4, pc}
 743              		.cfi_endproc
 744              	.LFE78:
 745              		.size	lv_style_set_bg_opa, .-lv_style_set_bg_opa
 746              		.section	.text.lv_style_set_bg_grad_color,"ax",%progbits
 747              		.align	2
 748              		.global	lv_style_set_bg_grad_color
 749              		.code	16
 750              		.thumb_func
 751              		.type	lv_style_set_bg_grad_color, %function
 752              	lv_style_set_bg_grad_color:
 753              	.LFB79:
 202:..\..\..\arduinoLCD\test\Pain Drain\libraries\lvgl\src\misc/lv_style_gen.c **** 
 203:..\..\..\arduinoLCD\test\Pain Drain\libraries\lvgl\src\misc/lv_style_gen.c **** void lv_style_set_bg_grad_color(lv_style_t * style, lv_color_t value)
 204:..\..\..\arduinoLCD\test\Pain Drain\libraries\lvgl\src\misc/lv_style_gen.c **** {
 754              		.loc 1 204 0
 755              		.cfi_startproc
 756              		@ args = 0, pretend = 0, frame = 0
 757              		@ frame_needed = 0, uses_anonymous_args = 0
 758              	.LVL75:
 759 0000 10B5     		push	{r4, lr}
 760              		.cfi_def_cfa_offset 8
 761              		.cfi_offset 4, -8
 762              		.cfi_offset 14, -4
 205:..\..\..\arduinoLCD\test\Pain Drain\libraries\lvgl\src\misc/lv_style_gen.c ****     lv_style_value_t v = {
 763              		.loc 1 205 0
 764 0002 8AB2     		uxth	r2, r1
ARM GAS  C:\Users\haske\AppData\Local\Temp\ccb2zsXg.s 			page 18


 765              	.LVL76:
 206:..\..\..\arduinoLCD\test\Pain Drain\libraries\lvgl\src\misc/lv_style_gen.c ****         .color = value
 207:..\..\..\arduinoLCD\test\Pain Drain\libraries\lvgl\src\misc/lv_style_gen.c ****     };
 208:..\..\..\arduinoLCD\test\Pain Drain\libraries\lvgl\src\misc/lv_style_gen.c ****     lv_style_set_prop(style, LV_STYLE_BG_GRAD_COLOR, v);
 766              		.loc 1 208 0
 767 0004 2221     		movs	r1, #34
 768 0006 FFF7FEFF 		bl	lv_style_set_prop
 769              	.LVL77:
 209:..\..\..\arduinoLCD\test\Pain Drain\libraries\lvgl\src\misc/lv_style_gen.c **** }
 770              		.loc 1 209 0
 771              		@ sp needed
 772 000a 10BD     		pop	{r4, pc}
 773              		.cfi_endproc
 774              	.LFE79:
 775              		.size	lv_style_set_bg_grad_color, .-lv_style_set_bg_grad_color
 776              		.section	.text.lv_style_set_bg_grad_dir,"ax",%progbits
 777              		.align	2
 778              		.global	lv_style_set_bg_grad_dir
 779              		.code	16
 780              		.thumb_func
 781              		.type	lv_style_set_bg_grad_dir, %function
 782              	lv_style_set_bg_grad_dir:
 783              	.LFB80:
 210:..\..\..\arduinoLCD\test\Pain Drain\libraries\lvgl\src\misc/lv_style_gen.c **** 
 211:..\..\..\arduinoLCD\test\Pain Drain\libraries\lvgl\src\misc/lv_style_gen.c **** void lv_style_set_bg_grad_dir(lv_style_t * style, lv_grad_dir_t value)
 212:..\..\..\arduinoLCD\test\Pain Drain\libraries\lvgl\src\misc/lv_style_gen.c **** {
 784              		.loc 1 212 0
 785              		.cfi_startproc
 786              		@ args = 0, pretend = 0, frame = 0
 787              		@ frame_needed = 0, uses_anonymous_args = 0
 788              	.LVL78:
 789 0000 10B5     		push	{r4, lr}
 790              		.cfi_def_cfa_offset 8
 791              		.cfi_offset 4, -8
 792              		.cfi_offset 14, -4
 793 0002 0A00     		movs	r2, r1
 213:..\..\..\arduinoLCD\test\Pain Drain\libraries\lvgl\src\misc/lv_style_gen.c ****     lv_style_value_t v = {
 214:..\..\..\arduinoLCD\test\Pain Drain\libraries\lvgl\src\misc/lv_style_gen.c ****         .num = (int32_t)value
 215:..\..\..\arduinoLCD\test\Pain Drain\libraries\lvgl\src\misc/lv_style_gen.c ****     };
 216:..\..\..\arduinoLCD\test\Pain Drain\libraries\lvgl\src\misc/lv_style_gen.c ****     lv_style_set_prop(style, LV_STYLE_BG_GRAD_DIR, v);
 794              		.loc 1 216 0
 795 0004 2321     		movs	r1, #35
 796              	.LVL79:
 797 0006 FFF7FEFF 		bl	lv_style_set_prop
 798              	.LVL80:
 217:..\..\..\arduinoLCD\test\Pain Drain\libraries\lvgl\src\misc/lv_style_gen.c **** }
 799              		.loc 1 217 0
 800              		@ sp needed
 801 000a 10BD     		pop	{r4, pc}
 802              		.cfi_endproc
 803              	.LFE80:
 804              		.size	lv_style_set_bg_grad_dir, .-lv_style_set_bg_grad_dir
 805              		.section	.text.lv_style_set_bg_main_stop,"ax",%progbits
 806              		.align	2
 807              		.global	lv_style_set_bg_main_stop
 808              		.code	16
 809              		.thumb_func
ARM GAS  C:\Users\haske\AppData\Local\Temp\ccb2zsXg.s 			page 19


 810              		.type	lv_style_set_bg_main_stop, %function
 811              	lv_style_set_bg_main_stop:
 812              	.LFB81:
 218:..\..\..\arduinoLCD\test\Pain Drain\libraries\lvgl\src\misc/lv_style_gen.c **** 
 219:..\..\..\arduinoLCD\test\Pain Drain\libraries\lvgl\src\misc/lv_style_gen.c **** void lv_style_set_bg_main_stop(lv_style_t * style, lv_coord_t value)
 220:..\..\..\arduinoLCD\test\Pain Drain\libraries\lvgl\src\misc/lv_style_gen.c **** {
 813              		.loc 1 220 0
 814              		.cfi_startproc
 815              		@ args = 0, pretend = 0, frame = 0
 816              		@ frame_needed = 0, uses_anonymous_args = 0
 817              	.LVL81:
 818 0000 10B5     		push	{r4, lr}
 819              		.cfi_def_cfa_offset 8
 820              		.cfi_offset 4, -8
 821              		.cfi_offset 14, -4
 822 0002 0A00     		movs	r2, r1
 221:..\..\..\arduinoLCD\test\Pain Drain\libraries\lvgl\src\misc/lv_style_gen.c ****     lv_style_value_t v = {
 222:..\..\..\arduinoLCD\test\Pain Drain\libraries\lvgl\src\misc/lv_style_gen.c ****         .num = (int32_t)value
 223:..\..\..\arduinoLCD\test\Pain Drain\libraries\lvgl\src\misc/lv_style_gen.c ****     };
 224:..\..\..\arduinoLCD\test\Pain Drain\libraries\lvgl\src\misc/lv_style_gen.c ****     lv_style_set_prop(style, LV_STYLE_BG_MAIN_STOP, v);
 823              		.loc 1 224 0
 824 0004 2421     		movs	r1, #36
 825              	.LVL82:
 826 0006 FFF7FEFF 		bl	lv_style_set_prop
 827              	.LVL83:
 225:..\..\..\arduinoLCD\test\Pain Drain\libraries\lvgl\src\misc/lv_style_gen.c **** }
 828              		.loc 1 225 0
 829              		@ sp needed
 830 000a 10BD     		pop	{r4, pc}
 831              		.cfi_endproc
 832              	.LFE81:
 833              		.size	lv_style_set_bg_main_stop, .-lv_style_set_bg_main_stop
 834              		.section	.text.lv_style_set_bg_grad_stop,"ax",%progbits
 835              		.align	2
 836              		.global	lv_style_set_bg_grad_stop
 837              		.code	16
 838              		.thumb_func
 839              		.type	lv_style_set_bg_grad_stop, %function
 840              	lv_style_set_bg_grad_stop:
 841              	.LFB82:
 226:..\..\..\arduinoLCD\test\Pain Drain\libraries\lvgl\src\misc/lv_style_gen.c **** 
 227:..\..\..\arduinoLCD\test\Pain Drain\libraries\lvgl\src\misc/lv_style_gen.c **** void lv_style_set_bg_grad_stop(lv_style_t * style, lv_coord_t value)
 228:..\..\..\arduinoLCD\test\Pain Drain\libraries\lvgl\src\misc/lv_style_gen.c **** {
 842              		.loc 1 228 0
 843              		.cfi_startproc
 844              		@ args = 0, pretend = 0, frame = 0
 845              		@ frame_needed = 0, uses_anonymous_args = 0
 846              	.LVL84:
 847 0000 10B5     		push	{r4, lr}
 848              		.cfi_def_cfa_offset 8
 849              		.cfi_offset 4, -8
 850              		.cfi_offset 14, -4
 851 0002 0A00     		movs	r2, r1
 229:..\..\..\arduinoLCD\test\Pain Drain\libraries\lvgl\src\misc/lv_style_gen.c ****     lv_style_value_t v = {
 230:..\..\..\arduinoLCD\test\Pain Drain\libraries\lvgl\src\misc/lv_style_gen.c ****         .num = (int32_t)value
 231:..\..\..\arduinoLCD\test\Pain Drain\libraries\lvgl\src\misc/lv_style_gen.c ****     };
 232:..\..\..\arduinoLCD\test\Pain Drain\libraries\lvgl\src\misc/lv_style_gen.c ****     lv_style_set_prop(style, LV_STYLE_BG_GRAD_STOP, v);
ARM GAS  C:\Users\haske\AppData\Local\Temp\ccb2zsXg.s 			page 20


 852              		.loc 1 232 0
 853 0004 2521     		movs	r1, #37
 854              	.LVL85:
 855 0006 FFF7FEFF 		bl	lv_style_set_prop
 856              	.LVL86:
 233:..\..\..\arduinoLCD\test\Pain Drain\libraries\lvgl\src\misc/lv_style_gen.c **** }
 857              		.loc 1 233 0
 858              		@ sp needed
 859 000a 10BD     		pop	{r4, pc}
 860              		.cfi_endproc
 861              	.LFE82:
 862              		.size	lv_style_set_bg_grad_stop, .-lv_style_set_bg_grad_stop
 863              		.section	.text.lv_style_set_bg_grad,"ax",%progbits
 864              		.align	2
 865              		.global	lv_style_set_bg_grad
 866              		.code	16
 867              		.thumb_func
 868              		.type	lv_style_set_bg_grad, %function
 869              	lv_style_set_bg_grad:
 870              	.LFB83:
 234:..\..\..\arduinoLCD\test\Pain Drain\libraries\lvgl\src\misc/lv_style_gen.c **** 
 235:..\..\..\arduinoLCD\test\Pain Drain\libraries\lvgl\src\misc/lv_style_gen.c **** void lv_style_set_bg_grad(lv_style_t * style, const lv_grad_dsc_t * value)
 236:..\..\..\arduinoLCD\test\Pain Drain\libraries\lvgl\src\misc/lv_style_gen.c **** {
 871              		.loc 1 236 0
 872              		.cfi_startproc
 873              		@ args = 0, pretend = 0, frame = 0
 874              		@ frame_needed = 0, uses_anonymous_args = 0
 875              	.LVL87:
 876 0000 10B5     		push	{r4, lr}
 877              		.cfi_def_cfa_offset 8
 878              		.cfi_offset 4, -8
 879              		.cfi_offset 14, -4
 880 0002 0A00     		movs	r2, r1
 237:..\..\..\arduinoLCD\test\Pain Drain\libraries\lvgl\src\misc/lv_style_gen.c ****     lv_style_value_t v = {
 238:..\..\..\arduinoLCD\test\Pain Drain\libraries\lvgl\src\misc/lv_style_gen.c ****         .ptr = value
 239:..\..\..\arduinoLCD\test\Pain Drain\libraries\lvgl\src\misc/lv_style_gen.c ****     };
 240:..\..\..\arduinoLCD\test\Pain Drain\libraries\lvgl\src\misc/lv_style_gen.c ****     lv_style_set_prop(style, LV_STYLE_BG_GRAD, v);
 881              		.loc 1 240 0
 882 0004 2621     		movs	r1, #38
 883              	.LVL88:
 884 0006 FFF7FEFF 		bl	lv_style_set_prop
 885              	.LVL89:
 241:..\..\..\arduinoLCD\test\Pain Drain\libraries\lvgl\src\misc/lv_style_gen.c **** }
 886              		.loc 1 241 0
 887              		@ sp needed
 888 000a 10BD     		pop	{r4, pc}
 889              		.cfi_endproc
 890              	.LFE83:
 891              		.size	lv_style_set_bg_grad, .-lv_style_set_bg_grad
 892              		.section	.text.lv_style_set_bg_dither_mode,"ax",%progbits
 893              		.align	2
 894              		.global	lv_style_set_bg_dither_mode
 895              		.code	16
 896              		.thumb_func
 897              		.type	lv_style_set_bg_dither_mode, %function
 898              	lv_style_set_bg_dither_mode:
 899              	.LFB84:
ARM GAS  C:\Users\haske\AppData\Local\Temp\ccb2zsXg.s 			page 21


 242:..\..\..\arduinoLCD\test\Pain Drain\libraries\lvgl\src\misc/lv_style_gen.c **** 
 243:..\..\..\arduinoLCD\test\Pain Drain\libraries\lvgl\src\misc/lv_style_gen.c **** void lv_style_set_bg_dither_mode(lv_style_t * style, lv_dither_mode_t value)
 244:..\..\..\arduinoLCD\test\Pain Drain\libraries\lvgl\src\misc/lv_style_gen.c **** {
 900              		.loc 1 244 0
 901              		.cfi_startproc
 902              		@ args = 0, pretend = 0, frame = 0
 903              		@ frame_needed = 0, uses_anonymous_args = 0
 904              	.LVL90:
 905 0000 10B5     		push	{r4, lr}
 906              		.cfi_def_cfa_offset 8
 907              		.cfi_offset 4, -8
 908              		.cfi_offset 14, -4
 909 0002 0A00     		movs	r2, r1
 245:..\..\..\arduinoLCD\test\Pain Drain\libraries\lvgl\src\misc/lv_style_gen.c ****     lv_style_value_t v = {
 246:..\..\..\arduinoLCD\test\Pain Drain\libraries\lvgl\src\misc/lv_style_gen.c ****         .num = (int32_t)value
 247:..\..\..\arduinoLCD\test\Pain Drain\libraries\lvgl\src\misc/lv_style_gen.c ****     };
 248:..\..\..\arduinoLCD\test\Pain Drain\libraries\lvgl\src\misc/lv_style_gen.c ****     lv_style_set_prop(style, LV_STYLE_BG_DITHER_MODE, v);
 910              		.loc 1 248 0
 911 0004 2721     		movs	r1, #39
 912              	.LVL91:
 913 0006 FFF7FEFF 		bl	lv_style_set_prop
 914              	.LVL92:
 249:..\..\..\arduinoLCD\test\Pain Drain\libraries\lvgl\src\misc/lv_style_gen.c **** }
 915              		.loc 1 249 0
 916              		@ sp needed
 917 000a 10BD     		pop	{r4, pc}
 918              		.cfi_endproc
 919              	.LFE84:
 920              		.size	lv_style_set_bg_dither_mode, .-lv_style_set_bg_dither_mode
 921              		.section	.text.lv_style_set_bg_img_src,"ax",%progbits
 922              		.align	2
 923              		.global	lv_style_set_bg_img_src
 924              		.code	16
 925              		.thumb_func
 926              		.type	lv_style_set_bg_img_src, %function
 927              	lv_style_set_bg_img_src:
 928              	.LFB85:
 250:..\..\..\arduinoLCD\test\Pain Drain\libraries\lvgl\src\misc/lv_style_gen.c **** 
 251:..\..\..\arduinoLCD\test\Pain Drain\libraries\lvgl\src\misc/lv_style_gen.c **** void lv_style_set_bg_img_src(lv_style_t * style, const void * value)
 252:..\..\..\arduinoLCD\test\Pain Drain\libraries\lvgl\src\misc/lv_style_gen.c **** {
 929              		.loc 1 252 0
 930              		.cfi_startproc
 931              		@ args = 0, pretend = 0, frame = 0
 932              		@ frame_needed = 0, uses_anonymous_args = 0
 933              	.LVL93:
 934 0000 10B5     		push	{r4, lr}
 935              		.cfi_def_cfa_offset 8
 936              		.cfi_offset 4, -8
 937              		.cfi_offset 14, -4
 938 0002 0A00     		movs	r2, r1
 253:..\..\..\arduinoLCD\test\Pain Drain\libraries\lvgl\src\misc/lv_style_gen.c ****     lv_style_value_t v = {
 254:..\..\..\arduinoLCD\test\Pain Drain\libraries\lvgl\src\misc/lv_style_gen.c ****         .ptr = value
 255:..\..\..\arduinoLCD\test\Pain Drain\libraries\lvgl\src\misc/lv_style_gen.c ****     };
 256:..\..\..\arduinoLCD\test\Pain Drain\libraries\lvgl\src\misc/lv_style_gen.c ****     lv_style_set_prop(style, LV_STYLE_BG_IMG_SRC, v);
 939              		.loc 1 256 0
 940 0004 2821     		movs	r1, #40
 941              	.LVL94:
ARM GAS  C:\Users\haske\AppData\Local\Temp\ccb2zsXg.s 			page 22


 942 0006 FFF7FEFF 		bl	lv_style_set_prop
 943              	.LVL95:
 257:..\..\..\arduinoLCD\test\Pain Drain\libraries\lvgl\src\misc/lv_style_gen.c **** }
 944              		.loc 1 257 0
 945              		@ sp needed
 946 000a 10BD     		pop	{r4, pc}
 947              		.cfi_endproc
 948              	.LFE85:
 949              		.size	lv_style_set_bg_img_src, .-lv_style_set_bg_img_src
 950              		.section	.text.lv_style_set_bg_img_opa,"ax",%progbits
 951              		.align	2
 952              		.global	lv_style_set_bg_img_opa
 953              		.code	16
 954              		.thumb_func
 955              		.type	lv_style_set_bg_img_opa, %function
 956              	lv_style_set_bg_img_opa:
 957              	.LFB86:
 258:..\..\..\arduinoLCD\test\Pain Drain\libraries\lvgl\src\misc/lv_style_gen.c **** 
 259:..\..\..\arduinoLCD\test\Pain Drain\libraries\lvgl\src\misc/lv_style_gen.c **** void lv_style_set_bg_img_opa(lv_style_t * style, lv_opa_t value)
 260:..\..\..\arduinoLCD\test\Pain Drain\libraries\lvgl\src\misc/lv_style_gen.c **** {
 958              		.loc 1 260 0
 959              		.cfi_startproc
 960              		@ args = 0, pretend = 0, frame = 0
 961              		@ frame_needed = 0, uses_anonymous_args = 0
 962              	.LVL96:
 963 0000 10B5     		push	{r4, lr}
 964              		.cfi_def_cfa_offset 8
 965              		.cfi_offset 4, -8
 966              		.cfi_offset 14, -4
 967 0002 0A00     		movs	r2, r1
 261:..\..\..\arduinoLCD\test\Pain Drain\libraries\lvgl\src\misc/lv_style_gen.c ****     lv_style_value_t v = {
 262:..\..\..\arduinoLCD\test\Pain Drain\libraries\lvgl\src\misc/lv_style_gen.c ****         .num = (int32_t)value
 263:..\..\..\arduinoLCD\test\Pain Drain\libraries\lvgl\src\misc/lv_style_gen.c ****     };
 264:..\..\..\arduinoLCD\test\Pain Drain\libraries\lvgl\src\misc/lv_style_gen.c ****     lv_style_set_prop(style, LV_STYLE_BG_IMG_OPA, v);
 968              		.loc 1 264 0
 969 0004 2921     		movs	r1, #41
 970              	.LVL97:
 971 0006 FFF7FEFF 		bl	lv_style_set_prop
 972              	.LVL98:
 265:..\..\..\arduinoLCD\test\Pain Drain\libraries\lvgl\src\misc/lv_style_gen.c **** }
 973              		.loc 1 265 0
 974              		@ sp needed
 975 000a 10BD     		pop	{r4, pc}
 976              		.cfi_endproc
 977              	.LFE86:
 978              		.size	lv_style_set_bg_img_opa, .-lv_style_set_bg_img_opa
 979              		.section	.text.lv_style_set_bg_img_recolor,"ax",%progbits
 980              		.align	2
 981              		.global	lv_style_set_bg_img_recolor
 982              		.code	16
 983              		.thumb_func
 984              		.type	lv_style_set_bg_img_recolor, %function
 985              	lv_style_set_bg_img_recolor:
 986              	.LFB87:
 266:..\..\..\arduinoLCD\test\Pain Drain\libraries\lvgl\src\misc/lv_style_gen.c **** 
 267:..\..\..\arduinoLCD\test\Pain Drain\libraries\lvgl\src\misc/lv_style_gen.c **** void lv_style_set_bg_img_recolor(lv_style_t * style, lv_color_t value)
 268:..\..\..\arduinoLCD\test\Pain Drain\libraries\lvgl\src\misc/lv_style_gen.c **** {
ARM GAS  C:\Users\haske\AppData\Local\Temp\ccb2zsXg.s 			page 23


 987              		.loc 1 268 0
 988              		.cfi_startproc
 989              		@ args = 0, pretend = 0, frame = 0
 990              		@ frame_needed = 0, uses_anonymous_args = 0
 991              	.LVL99:
 992 0000 10B5     		push	{r4, lr}
 993              		.cfi_def_cfa_offset 8
 994              		.cfi_offset 4, -8
 995              		.cfi_offset 14, -4
 269:..\..\..\arduinoLCD\test\Pain Drain\libraries\lvgl\src\misc/lv_style_gen.c ****     lv_style_value_t v = {
 996              		.loc 1 269 0
 997 0002 8AB2     		uxth	r2, r1
 998              	.LVL100:
 270:..\..\..\arduinoLCD\test\Pain Drain\libraries\lvgl\src\misc/lv_style_gen.c ****         .color = value
 271:..\..\..\arduinoLCD\test\Pain Drain\libraries\lvgl\src\misc/lv_style_gen.c ****     };
 272:..\..\..\arduinoLCD\test\Pain Drain\libraries\lvgl\src\misc/lv_style_gen.c ****     lv_style_set_prop(style, LV_STYLE_BG_IMG_RECOLOR, v);
 999              		.loc 1 272 0
 1000 0004 2A21     		movs	r1, #42
 1001 0006 FFF7FEFF 		bl	lv_style_set_prop
 1002              	.LVL101:
 273:..\..\..\arduinoLCD\test\Pain Drain\libraries\lvgl\src\misc/lv_style_gen.c **** }
 1003              		.loc 1 273 0
 1004              		@ sp needed
 1005 000a 10BD     		pop	{r4, pc}
 1006              		.cfi_endproc
 1007              	.LFE87:
 1008              		.size	lv_style_set_bg_img_recolor, .-lv_style_set_bg_img_recolor
 1009              		.section	.text.lv_style_set_bg_img_recolor_opa,"ax",%progbits
 1010              		.align	2
 1011              		.global	lv_style_set_bg_img_recolor_opa
 1012              		.code	16
 1013              		.thumb_func
 1014              		.type	lv_style_set_bg_img_recolor_opa, %function
 1015              	lv_style_set_bg_img_recolor_opa:
 1016              	.LFB88:
 274:..\..\..\arduinoLCD\test\Pain Drain\libraries\lvgl\src\misc/lv_style_gen.c **** 
 275:..\..\..\arduinoLCD\test\Pain Drain\libraries\lvgl\src\misc/lv_style_gen.c **** void lv_style_set_bg_img_recolor_opa(lv_style_t * style, lv_opa_t value)
 276:..\..\..\arduinoLCD\test\Pain Drain\libraries\lvgl\src\misc/lv_style_gen.c **** {
 1017              		.loc 1 276 0
 1018              		.cfi_startproc
 1019              		@ args = 0, pretend = 0, frame = 0
 1020              		@ frame_needed = 0, uses_anonymous_args = 0
 1021              	.LVL102:
 1022 0000 10B5     		push	{r4, lr}
 1023              		.cfi_def_cfa_offset 8
 1024              		.cfi_offset 4, -8
 1025              		.cfi_offset 14, -4
 1026 0002 0A00     		movs	r2, r1
 277:..\..\..\arduinoLCD\test\Pain Drain\libraries\lvgl\src\misc/lv_style_gen.c ****     lv_style_value_t v = {
 278:..\..\..\arduinoLCD\test\Pain Drain\libraries\lvgl\src\misc/lv_style_gen.c ****         .num = (int32_t)value
 279:..\..\..\arduinoLCD\test\Pain Drain\libraries\lvgl\src\misc/lv_style_gen.c ****     };
 280:..\..\..\arduinoLCD\test\Pain Drain\libraries\lvgl\src\misc/lv_style_gen.c ****     lv_style_set_prop(style, LV_STYLE_BG_IMG_RECOLOR_OPA, v);
 1027              		.loc 1 280 0
 1028 0004 2B21     		movs	r1, #43
 1029              	.LVL103:
 1030 0006 FFF7FEFF 		bl	lv_style_set_prop
 1031              	.LVL104:
ARM GAS  C:\Users\haske\AppData\Local\Temp\ccb2zsXg.s 			page 24


 281:..\..\..\arduinoLCD\test\Pain Drain\libraries\lvgl\src\misc/lv_style_gen.c **** }
 1032              		.loc 1 281 0
 1033              		@ sp needed
 1034 000a 10BD     		pop	{r4, pc}
 1035              		.cfi_endproc
 1036              	.LFE88:
 1037              		.size	lv_style_set_bg_img_recolor_opa, .-lv_style_set_bg_img_recolor_opa
 1038              		.section	.text.lv_style_set_bg_img_tiled,"ax",%progbits
 1039              		.align	2
 1040              		.global	lv_style_set_bg_img_tiled
 1041              		.code	16
 1042              		.thumb_func
 1043              		.type	lv_style_set_bg_img_tiled, %function
 1044              	lv_style_set_bg_img_tiled:
 1045              	.LFB89:
 282:..\..\..\arduinoLCD\test\Pain Drain\libraries\lvgl\src\misc/lv_style_gen.c **** 
 283:..\..\..\arduinoLCD\test\Pain Drain\libraries\lvgl\src\misc/lv_style_gen.c **** void lv_style_set_bg_img_tiled(lv_style_t * style, bool value)
 284:..\..\..\arduinoLCD\test\Pain Drain\libraries\lvgl\src\misc/lv_style_gen.c **** {
 1046              		.loc 1 284 0
 1047              		.cfi_startproc
 1048              		@ args = 0, pretend = 0, frame = 0
 1049              		@ frame_needed = 0, uses_anonymous_args = 0
 1050              	.LVL105:
 1051 0000 10B5     		push	{r4, lr}
 1052              		.cfi_def_cfa_offset 8
 1053              		.cfi_offset 4, -8
 1054              		.cfi_offset 14, -4
 1055 0002 0A00     		movs	r2, r1
 285:..\..\..\arduinoLCD\test\Pain Drain\libraries\lvgl\src\misc/lv_style_gen.c ****     lv_style_value_t v = {
 286:..\..\..\arduinoLCD\test\Pain Drain\libraries\lvgl\src\misc/lv_style_gen.c ****         .num = (int32_t)value
 287:..\..\..\arduinoLCD\test\Pain Drain\libraries\lvgl\src\misc/lv_style_gen.c ****     };
 288:..\..\..\arduinoLCD\test\Pain Drain\libraries\lvgl\src\misc/lv_style_gen.c ****     lv_style_set_prop(style, LV_STYLE_BG_IMG_TILED, v);
 1056              		.loc 1 288 0
 1057 0004 2C21     		movs	r1, #44
 1058              	.LVL106:
 1059 0006 FFF7FEFF 		bl	lv_style_set_prop
 1060              	.LVL107:
 289:..\..\..\arduinoLCD\test\Pain Drain\libraries\lvgl\src\misc/lv_style_gen.c **** }
 1061              		.loc 1 289 0
 1062              		@ sp needed
 1063 000a 10BD     		pop	{r4, pc}
 1064              		.cfi_endproc
 1065              	.LFE89:
 1066              		.size	lv_style_set_bg_img_tiled, .-lv_style_set_bg_img_tiled
 1067              		.section	.text.lv_style_set_border_color,"ax",%progbits
 1068              		.align	2
 1069              		.global	lv_style_set_border_color
 1070              		.code	16
 1071              		.thumb_func
 1072              		.type	lv_style_set_border_color, %function
 1073              	lv_style_set_border_color:
 1074              	.LFB90:
 290:..\..\..\arduinoLCD\test\Pain Drain\libraries\lvgl\src\misc/lv_style_gen.c **** 
 291:..\..\..\arduinoLCD\test\Pain Drain\libraries\lvgl\src\misc/lv_style_gen.c **** void lv_style_set_border_color(lv_style_t * style, lv_color_t value)
 292:..\..\..\arduinoLCD\test\Pain Drain\libraries\lvgl\src\misc/lv_style_gen.c **** {
 1075              		.loc 1 292 0
 1076              		.cfi_startproc
ARM GAS  C:\Users\haske\AppData\Local\Temp\ccb2zsXg.s 			page 25


 1077              		@ args = 0, pretend = 0, frame = 0
 1078              		@ frame_needed = 0, uses_anonymous_args = 0
 1079              	.LVL108:
 1080 0000 10B5     		push	{r4, lr}
 1081              		.cfi_def_cfa_offset 8
 1082              		.cfi_offset 4, -8
 1083              		.cfi_offset 14, -4
 293:..\..\..\arduinoLCD\test\Pain Drain\libraries\lvgl\src\misc/lv_style_gen.c ****     lv_style_value_t v = {
 1084              		.loc 1 293 0
 1085 0002 8AB2     		uxth	r2, r1
 1086              	.LVL109:
 294:..\..\..\arduinoLCD\test\Pain Drain\libraries\lvgl\src\misc/lv_style_gen.c ****         .color = value
 295:..\..\..\arduinoLCD\test\Pain Drain\libraries\lvgl\src\misc/lv_style_gen.c ****     };
 296:..\..\..\arduinoLCD\test\Pain Drain\libraries\lvgl\src\misc/lv_style_gen.c ****     lv_style_set_prop(style, LV_STYLE_BORDER_COLOR, v);
 1087              		.loc 1 296 0
 1088 0004 3021     		movs	r1, #48
 1089 0006 FFF7FEFF 		bl	lv_style_set_prop
 1090              	.LVL110:
 297:..\..\..\arduinoLCD\test\Pain Drain\libraries\lvgl\src\misc/lv_style_gen.c **** }
 1091              		.loc 1 297 0
 1092              		@ sp needed
 1093 000a 10BD     		pop	{r4, pc}
 1094              		.cfi_endproc
 1095              	.LFE90:
 1096              		.size	lv_style_set_border_color, .-lv_style_set_border_color
 1097              		.section	.text.lv_style_set_border_opa,"ax",%progbits
 1098              		.align	2
 1099              		.global	lv_style_set_border_opa
 1100              		.code	16
 1101              		.thumb_func
 1102              		.type	lv_style_set_border_opa, %function
 1103              	lv_style_set_border_opa:
 1104              	.LFB91:
 298:..\..\..\arduinoLCD\test\Pain Drain\libraries\lvgl\src\misc/lv_style_gen.c **** 
 299:..\..\..\arduinoLCD\test\Pain Drain\libraries\lvgl\src\misc/lv_style_gen.c **** void lv_style_set_border_opa(lv_style_t * style, lv_opa_t value)
 300:..\..\..\arduinoLCD\test\Pain Drain\libraries\lvgl\src\misc/lv_style_gen.c **** {
 1105              		.loc 1 300 0
 1106              		.cfi_startproc
 1107              		@ args = 0, pretend = 0, frame = 0
 1108              		@ frame_needed = 0, uses_anonymous_args = 0
 1109              	.LVL111:
 1110 0000 10B5     		push	{r4, lr}
 1111              		.cfi_def_cfa_offset 8
 1112              		.cfi_offset 4, -8
 1113              		.cfi_offset 14, -4
 1114 0002 0A00     		movs	r2, r1
 301:..\..\..\arduinoLCD\test\Pain Drain\libraries\lvgl\src\misc/lv_style_gen.c ****     lv_style_value_t v = {
 302:..\..\..\arduinoLCD\test\Pain Drain\libraries\lvgl\src\misc/lv_style_gen.c ****         .num = (int32_t)value
 303:..\..\..\arduinoLCD\test\Pain Drain\libraries\lvgl\src\misc/lv_style_gen.c ****     };
 304:..\..\..\arduinoLCD\test\Pain Drain\libraries\lvgl\src\misc/lv_style_gen.c ****     lv_style_set_prop(style, LV_STYLE_BORDER_OPA, v);
 1115              		.loc 1 304 0
 1116 0004 3121     		movs	r1, #49
 1117              	.LVL112:
 1118 0006 FFF7FEFF 		bl	lv_style_set_prop
 1119              	.LVL113:
 305:..\..\..\arduinoLCD\test\Pain Drain\libraries\lvgl\src\misc/lv_style_gen.c **** }
 1120              		.loc 1 305 0
ARM GAS  C:\Users\haske\AppData\Local\Temp\ccb2zsXg.s 			page 26


 1121              		@ sp needed
 1122 000a 10BD     		pop	{r4, pc}
 1123              		.cfi_endproc
 1124              	.LFE91:
 1125              		.size	lv_style_set_border_opa, .-lv_style_set_border_opa
 1126              		.section	.text.lv_style_set_border_width,"ax",%progbits
 1127              		.align	2
 1128              		.global	lv_style_set_border_width
 1129              		.code	16
 1130              		.thumb_func
 1131              		.type	lv_style_set_border_width, %function
 1132              	lv_style_set_border_width:
 1133              	.LFB92:
 306:..\..\..\arduinoLCD\test\Pain Drain\libraries\lvgl\src\misc/lv_style_gen.c **** 
 307:..\..\..\arduinoLCD\test\Pain Drain\libraries\lvgl\src\misc/lv_style_gen.c **** void lv_style_set_border_width(lv_style_t * style, lv_coord_t value)
 308:..\..\..\arduinoLCD\test\Pain Drain\libraries\lvgl\src\misc/lv_style_gen.c **** {
 1134              		.loc 1 308 0
 1135              		.cfi_startproc
 1136              		@ args = 0, pretend = 0, frame = 0
 1137              		@ frame_needed = 0, uses_anonymous_args = 0
 1138              	.LVL114:
 1139 0000 10B5     		push	{r4, lr}
 1140              		.cfi_def_cfa_offset 8
 1141              		.cfi_offset 4, -8
 1142              		.cfi_offset 14, -4
 1143 0002 0A00     		movs	r2, r1
 309:..\..\..\arduinoLCD\test\Pain Drain\libraries\lvgl\src\misc/lv_style_gen.c ****     lv_style_value_t v = {
 310:..\..\..\arduinoLCD\test\Pain Drain\libraries\lvgl\src\misc/lv_style_gen.c ****         .num = (int32_t)value
 311:..\..\..\arduinoLCD\test\Pain Drain\libraries\lvgl\src\misc/lv_style_gen.c ****     };
 312:..\..\..\arduinoLCD\test\Pain Drain\libraries\lvgl\src\misc/lv_style_gen.c ****     lv_style_set_prop(style, LV_STYLE_BORDER_WIDTH, v);
 1144              		.loc 1 312 0
 1145 0004 3221     		movs	r1, #50
 1146              	.LVL115:
 1147 0006 FFF7FEFF 		bl	lv_style_set_prop
 1148              	.LVL116:
 313:..\..\..\arduinoLCD\test\Pain Drain\libraries\lvgl\src\misc/lv_style_gen.c **** }
 1149              		.loc 1 313 0
 1150              		@ sp needed
 1151 000a 10BD     		pop	{r4, pc}
 1152              		.cfi_endproc
 1153              	.LFE92:
 1154              		.size	lv_style_set_border_width, .-lv_style_set_border_width
 1155              		.section	.text.lv_style_set_border_side,"ax",%progbits
 1156              		.align	2
 1157              		.global	lv_style_set_border_side
 1158              		.code	16
 1159              		.thumb_func
 1160              		.type	lv_style_set_border_side, %function
 1161              	lv_style_set_border_side:
 1162              	.LFB93:
 314:..\..\..\arduinoLCD\test\Pain Drain\libraries\lvgl\src\misc/lv_style_gen.c **** 
 315:..\..\..\arduinoLCD\test\Pain Drain\libraries\lvgl\src\misc/lv_style_gen.c **** void lv_style_set_border_side(lv_style_t * style, lv_border_side_t value)
 316:..\..\..\arduinoLCD\test\Pain Drain\libraries\lvgl\src\misc/lv_style_gen.c **** {
 1163              		.loc 1 316 0
 1164              		.cfi_startproc
 1165              		@ args = 0, pretend = 0, frame = 0
 1166              		@ frame_needed = 0, uses_anonymous_args = 0
ARM GAS  C:\Users\haske\AppData\Local\Temp\ccb2zsXg.s 			page 27


 1167              	.LVL117:
 1168 0000 10B5     		push	{r4, lr}
 1169              		.cfi_def_cfa_offset 8
 1170              		.cfi_offset 4, -8
 1171              		.cfi_offset 14, -4
 1172 0002 0A00     		movs	r2, r1
 317:..\..\..\arduinoLCD\test\Pain Drain\libraries\lvgl\src\misc/lv_style_gen.c ****     lv_style_value_t v = {
 318:..\..\..\arduinoLCD\test\Pain Drain\libraries\lvgl\src\misc/lv_style_gen.c ****         .num = (int32_t)value
 319:..\..\..\arduinoLCD\test\Pain Drain\libraries\lvgl\src\misc/lv_style_gen.c ****     };
 320:..\..\..\arduinoLCD\test\Pain Drain\libraries\lvgl\src\misc/lv_style_gen.c ****     lv_style_set_prop(style, LV_STYLE_BORDER_SIDE, v);
 1173              		.loc 1 320 0
 1174 0004 3321     		movs	r1, #51
 1175              	.LVL118:
 1176 0006 FFF7FEFF 		bl	lv_style_set_prop
 1177              	.LVL119:
 321:..\..\..\arduinoLCD\test\Pain Drain\libraries\lvgl\src\misc/lv_style_gen.c **** }
 1178              		.loc 1 321 0
 1179              		@ sp needed
 1180 000a 10BD     		pop	{r4, pc}
 1181              		.cfi_endproc
 1182              	.LFE93:
 1183              		.size	lv_style_set_border_side, .-lv_style_set_border_side
 1184              		.section	.text.lv_style_set_border_post,"ax",%progbits
 1185              		.align	2
 1186              		.global	lv_style_set_border_post
 1187              		.code	16
 1188              		.thumb_func
 1189              		.type	lv_style_set_border_post, %function
 1190              	lv_style_set_border_post:
 1191              	.LFB94:
 322:..\..\..\arduinoLCD\test\Pain Drain\libraries\lvgl\src\misc/lv_style_gen.c **** 
 323:..\..\..\arduinoLCD\test\Pain Drain\libraries\lvgl\src\misc/lv_style_gen.c **** void lv_style_set_border_post(lv_style_t * style, bool value)
 324:..\..\..\arduinoLCD\test\Pain Drain\libraries\lvgl\src\misc/lv_style_gen.c **** {
 1192              		.loc 1 324 0
 1193              		.cfi_startproc
 1194              		@ args = 0, pretend = 0, frame = 0
 1195              		@ frame_needed = 0, uses_anonymous_args = 0
 1196              	.LVL120:
 1197 0000 10B5     		push	{r4, lr}
 1198              		.cfi_def_cfa_offset 8
 1199              		.cfi_offset 4, -8
 1200              		.cfi_offset 14, -4
 1201 0002 0A00     		movs	r2, r1
 325:..\..\..\arduinoLCD\test\Pain Drain\libraries\lvgl\src\misc/lv_style_gen.c ****     lv_style_value_t v = {
 326:..\..\..\arduinoLCD\test\Pain Drain\libraries\lvgl\src\misc/lv_style_gen.c ****         .num = (int32_t)value
 327:..\..\..\arduinoLCD\test\Pain Drain\libraries\lvgl\src\misc/lv_style_gen.c ****     };
 328:..\..\..\arduinoLCD\test\Pain Drain\libraries\lvgl\src\misc/lv_style_gen.c ****     lv_style_set_prop(style, LV_STYLE_BORDER_POST, v);
 1202              		.loc 1 328 0
 1203 0004 3421     		movs	r1, #52
 1204              	.LVL121:
 1205 0006 FFF7FEFF 		bl	lv_style_set_prop
 1206              	.LVL122:
 329:..\..\..\arduinoLCD\test\Pain Drain\libraries\lvgl\src\misc/lv_style_gen.c **** }
 1207              		.loc 1 329 0
 1208              		@ sp needed
 1209 000a 10BD     		pop	{r4, pc}
 1210              		.cfi_endproc
ARM GAS  C:\Users\haske\AppData\Local\Temp\ccb2zsXg.s 			page 28


 1211              	.LFE94:
 1212              		.size	lv_style_set_border_post, .-lv_style_set_border_post
 1213              		.section	.text.lv_style_set_outline_width,"ax",%progbits
 1214              		.align	2
 1215              		.global	lv_style_set_outline_width
 1216              		.code	16
 1217              		.thumb_func
 1218              		.type	lv_style_set_outline_width, %function
 1219              	lv_style_set_outline_width:
 1220              	.LFB95:
 330:..\..\..\arduinoLCD\test\Pain Drain\libraries\lvgl\src\misc/lv_style_gen.c **** 
 331:..\..\..\arduinoLCD\test\Pain Drain\libraries\lvgl\src\misc/lv_style_gen.c **** void lv_style_set_outline_width(lv_style_t * style, lv_coord_t value)
 332:..\..\..\arduinoLCD\test\Pain Drain\libraries\lvgl\src\misc/lv_style_gen.c **** {
 1221              		.loc 1 332 0
 1222              		.cfi_startproc
 1223              		@ args = 0, pretend = 0, frame = 0
 1224              		@ frame_needed = 0, uses_anonymous_args = 0
 1225              	.LVL123:
 1226 0000 10B5     		push	{r4, lr}
 1227              		.cfi_def_cfa_offset 8
 1228              		.cfi_offset 4, -8
 1229              		.cfi_offset 14, -4
 1230 0002 0A00     		movs	r2, r1
 333:..\..\..\arduinoLCD\test\Pain Drain\libraries\lvgl\src\misc/lv_style_gen.c ****     lv_style_value_t v = {
 334:..\..\..\arduinoLCD\test\Pain Drain\libraries\lvgl\src\misc/lv_style_gen.c ****         .num = (int32_t)value
 335:..\..\..\arduinoLCD\test\Pain Drain\libraries\lvgl\src\misc/lv_style_gen.c ****     };
 336:..\..\..\arduinoLCD\test\Pain Drain\libraries\lvgl\src\misc/lv_style_gen.c ****     lv_style_set_prop(style, LV_STYLE_OUTLINE_WIDTH, v);
 1231              		.loc 1 336 0
 1232 0004 3521     		movs	r1, #53
 1233              	.LVL124:
 1234 0006 FFF7FEFF 		bl	lv_style_set_prop
 1235              	.LVL125:
 337:..\..\..\arduinoLCD\test\Pain Drain\libraries\lvgl\src\misc/lv_style_gen.c **** }
 1236              		.loc 1 337 0
 1237              		@ sp needed
 1238 000a 10BD     		pop	{r4, pc}
 1239              		.cfi_endproc
 1240              	.LFE95:
 1241              		.size	lv_style_set_outline_width, .-lv_style_set_outline_width
 1242              		.section	.text.lv_style_set_outline_color,"ax",%progbits
 1243              		.align	2
 1244              		.global	lv_style_set_outline_color
 1245              		.code	16
 1246              		.thumb_func
 1247              		.type	lv_style_set_outline_color, %function
 1248              	lv_style_set_outline_color:
 1249              	.LFB96:
 338:..\..\..\arduinoLCD\test\Pain Drain\libraries\lvgl\src\misc/lv_style_gen.c **** 
 339:..\..\..\arduinoLCD\test\Pain Drain\libraries\lvgl\src\misc/lv_style_gen.c **** void lv_style_set_outline_color(lv_style_t * style, lv_color_t value)
 340:..\..\..\arduinoLCD\test\Pain Drain\libraries\lvgl\src\misc/lv_style_gen.c **** {
 1250              		.loc 1 340 0
 1251              		.cfi_startproc
 1252              		@ args = 0, pretend = 0, frame = 0
 1253              		@ frame_needed = 0, uses_anonymous_args = 0
 1254              	.LVL126:
 1255 0000 10B5     		push	{r4, lr}
 1256              		.cfi_def_cfa_offset 8
ARM GAS  C:\Users\haske\AppData\Local\Temp\ccb2zsXg.s 			page 29


 1257              		.cfi_offset 4, -8
 1258              		.cfi_offset 14, -4
 341:..\..\..\arduinoLCD\test\Pain Drain\libraries\lvgl\src\misc/lv_style_gen.c ****     lv_style_value_t v = {
 1259              		.loc 1 341 0
 1260 0002 8AB2     		uxth	r2, r1
 1261              	.LVL127:
 342:..\..\..\arduinoLCD\test\Pain Drain\libraries\lvgl\src\misc/lv_style_gen.c ****         .color = value
 343:..\..\..\arduinoLCD\test\Pain Drain\libraries\lvgl\src\misc/lv_style_gen.c ****     };
 344:..\..\..\arduinoLCD\test\Pain Drain\libraries\lvgl\src\misc/lv_style_gen.c ****     lv_style_set_prop(style, LV_STYLE_OUTLINE_COLOR, v);
 1262              		.loc 1 344 0
 1263 0004 3621     		movs	r1, #54
 1264 0006 FFF7FEFF 		bl	lv_style_set_prop
 1265              	.LVL128:
 345:..\..\..\arduinoLCD\test\Pain Drain\libraries\lvgl\src\misc/lv_style_gen.c **** }
 1266              		.loc 1 345 0
 1267              		@ sp needed
 1268 000a 10BD     		pop	{r4, pc}
 1269              		.cfi_endproc
 1270              	.LFE96:
 1271              		.size	lv_style_set_outline_color, .-lv_style_set_outline_color
 1272              		.section	.text.lv_style_set_outline_opa,"ax",%progbits
 1273              		.align	2
 1274              		.global	lv_style_set_outline_opa
 1275              		.code	16
 1276              		.thumb_func
 1277              		.type	lv_style_set_outline_opa, %function
 1278              	lv_style_set_outline_opa:
 1279              	.LFB97:
 346:..\..\..\arduinoLCD\test\Pain Drain\libraries\lvgl\src\misc/lv_style_gen.c **** 
 347:..\..\..\arduinoLCD\test\Pain Drain\libraries\lvgl\src\misc/lv_style_gen.c **** void lv_style_set_outline_opa(lv_style_t * style, lv_opa_t value)
 348:..\..\..\arduinoLCD\test\Pain Drain\libraries\lvgl\src\misc/lv_style_gen.c **** {
 1280              		.loc 1 348 0
 1281              		.cfi_startproc
 1282              		@ args = 0, pretend = 0, frame = 0
 1283              		@ frame_needed = 0, uses_anonymous_args = 0
 1284              	.LVL129:
 1285 0000 10B5     		push	{r4, lr}
 1286              		.cfi_def_cfa_offset 8
 1287              		.cfi_offset 4, -8
 1288              		.cfi_offset 14, -4
 1289 0002 0A00     		movs	r2, r1
 349:..\..\..\arduinoLCD\test\Pain Drain\libraries\lvgl\src\misc/lv_style_gen.c ****     lv_style_value_t v = {
 350:..\..\..\arduinoLCD\test\Pain Drain\libraries\lvgl\src\misc/lv_style_gen.c ****         .num = (int32_t)value
 351:..\..\..\arduinoLCD\test\Pain Drain\libraries\lvgl\src\misc/lv_style_gen.c ****     };
 352:..\..\..\arduinoLCD\test\Pain Drain\libraries\lvgl\src\misc/lv_style_gen.c ****     lv_style_set_prop(style, LV_STYLE_OUTLINE_OPA, v);
 1290              		.loc 1 352 0
 1291 0004 3721     		movs	r1, #55
 1292              	.LVL130:
 1293 0006 FFF7FEFF 		bl	lv_style_set_prop
 1294              	.LVL131:
 353:..\..\..\arduinoLCD\test\Pain Drain\libraries\lvgl\src\misc/lv_style_gen.c **** }
 1295              		.loc 1 353 0
 1296              		@ sp needed
 1297 000a 10BD     		pop	{r4, pc}
 1298              		.cfi_endproc
 1299              	.LFE97:
 1300              		.size	lv_style_set_outline_opa, .-lv_style_set_outline_opa
ARM GAS  C:\Users\haske\AppData\Local\Temp\ccb2zsXg.s 			page 30


 1301              		.section	.text.lv_style_set_outline_pad,"ax",%progbits
 1302              		.align	2
 1303              		.global	lv_style_set_outline_pad
 1304              		.code	16
 1305              		.thumb_func
 1306              		.type	lv_style_set_outline_pad, %function
 1307              	lv_style_set_outline_pad:
 1308              	.LFB98:
 354:..\..\..\arduinoLCD\test\Pain Drain\libraries\lvgl\src\misc/lv_style_gen.c **** 
 355:..\..\..\arduinoLCD\test\Pain Drain\libraries\lvgl\src\misc/lv_style_gen.c **** void lv_style_set_outline_pad(lv_style_t * style, lv_coord_t value)
 356:..\..\..\arduinoLCD\test\Pain Drain\libraries\lvgl\src\misc/lv_style_gen.c **** {
 1309              		.loc 1 356 0
 1310              		.cfi_startproc
 1311              		@ args = 0, pretend = 0, frame = 0
 1312              		@ frame_needed = 0, uses_anonymous_args = 0
 1313              	.LVL132:
 1314 0000 10B5     		push	{r4, lr}
 1315              		.cfi_def_cfa_offset 8
 1316              		.cfi_offset 4, -8
 1317              		.cfi_offset 14, -4
 1318 0002 0A00     		movs	r2, r1
 357:..\..\..\arduinoLCD\test\Pain Drain\libraries\lvgl\src\misc/lv_style_gen.c ****     lv_style_value_t v = {
 358:..\..\..\arduinoLCD\test\Pain Drain\libraries\lvgl\src\misc/lv_style_gen.c ****         .num = (int32_t)value
 359:..\..\..\arduinoLCD\test\Pain Drain\libraries\lvgl\src\misc/lv_style_gen.c ****     };
 360:..\..\..\arduinoLCD\test\Pain Drain\libraries\lvgl\src\misc/lv_style_gen.c ****     lv_style_set_prop(style, LV_STYLE_OUTLINE_PAD, v);
 1319              		.loc 1 360 0
 1320 0004 3821     		movs	r1, #56
 1321              	.LVL133:
 1322 0006 FFF7FEFF 		bl	lv_style_set_prop
 1323              	.LVL134:
 361:..\..\..\arduinoLCD\test\Pain Drain\libraries\lvgl\src\misc/lv_style_gen.c **** }
 1324              		.loc 1 361 0
 1325              		@ sp needed
 1326 000a 10BD     		pop	{r4, pc}
 1327              		.cfi_endproc
 1328              	.LFE98:
 1329              		.size	lv_style_set_outline_pad, .-lv_style_set_outline_pad
 1330              		.section	.text.lv_style_set_shadow_width,"ax",%progbits
 1331              		.align	2
 1332              		.global	lv_style_set_shadow_width
 1333              		.code	16
 1334              		.thumb_func
 1335              		.type	lv_style_set_shadow_width, %function
 1336              	lv_style_set_shadow_width:
 1337              	.LFB99:
 362:..\..\..\arduinoLCD\test\Pain Drain\libraries\lvgl\src\misc/lv_style_gen.c **** 
 363:..\..\..\arduinoLCD\test\Pain Drain\libraries\lvgl\src\misc/lv_style_gen.c **** void lv_style_set_shadow_width(lv_style_t * style, lv_coord_t value)
 364:..\..\..\arduinoLCD\test\Pain Drain\libraries\lvgl\src\misc/lv_style_gen.c **** {
 1338              		.loc 1 364 0
 1339              		.cfi_startproc
 1340              		@ args = 0, pretend = 0, frame = 0
 1341              		@ frame_needed = 0, uses_anonymous_args = 0
 1342              	.LVL135:
 1343 0000 10B5     		push	{r4, lr}
 1344              		.cfi_def_cfa_offset 8
 1345              		.cfi_offset 4, -8
 1346              		.cfi_offset 14, -4
ARM GAS  C:\Users\haske\AppData\Local\Temp\ccb2zsXg.s 			page 31


 1347 0002 0A00     		movs	r2, r1
 365:..\..\..\arduinoLCD\test\Pain Drain\libraries\lvgl\src\misc/lv_style_gen.c ****     lv_style_value_t v = {
 366:..\..\..\arduinoLCD\test\Pain Drain\libraries\lvgl\src\misc/lv_style_gen.c ****         .num = (int32_t)value
 367:..\..\..\arduinoLCD\test\Pain Drain\libraries\lvgl\src\misc/lv_style_gen.c ****     };
 368:..\..\..\arduinoLCD\test\Pain Drain\libraries\lvgl\src\misc/lv_style_gen.c ****     lv_style_set_prop(style, LV_STYLE_SHADOW_WIDTH, v);
 1348              		.loc 1 368 0
 1349 0004 4021     		movs	r1, #64
 1350              	.LVL136:
 1351 0006 FFF7FEFF 		bl	lv_style_set_prop
 1352              	.LVL137:
 369:..\..\..\arduinoLCD\test\Pain Drain\libraries\lvgl\src\misc/lv_style_gen.c **** }
 1353              		.loc 1 369 0
 1354              		@ sp needed
 1355 000a 10BD     		pop	{r4, pc}
 1356              		.cfi_endproc
 1357              	.LFE99:
 1358              		.size	lv_style_set_shadow_width, .-lv_style_set_shadow_width
 1359              		.section	.text.lv_style_set_shadow_ofs_x,"ax",%progbits
 1360              		.align	2
 1361              		.global	lv_style_set_shadow_ofs_x
 1362              		.code	16
 1363              		.thumb_func
 1364              		.type	lv_style_set_shadow_ofs_x, %function
 1365              	lv_style_set_shadow_ofs_x:
 1366              	.LFB100:
 370:..\..\..\arduinoLCD\test\Pain Drain\libraries\lvgl\src\misc/lv_style_gen.c **** 
 371:..\..\..\arduinoLCD\test\Pain Drain\libraries\lvgl\src\misc/lv_style_gen.c **** void lv_style_set_shadow_ofs_x(lv_style_t * style, lv_coord_t value)
 372:..\..\..\arduinoLCD\test\Pain Drain\libraries\lvgl\src\misc/lv_style_gen.c **** {
 1367              		.loc 1 372 0
 1368              		.cfi_startproc
 1369              		@ args = 0, pretend = 0, frame = 0
 1370              		@ frame_needed = 0, uses_anonymous_args = 0
 1371              	.LVL138:
 1372 0000 10B5     		push	{r4, lr}
 1373              		.cfi_def_cfa_offset 8
 1374              		.cfi_offset 4, -8
 1375              		.cfi_offset 14, -4
 1376 0002 0A00     		movs	r2, r1
 373:..\..\..\arduinoLCD\test\Pain Drain\libraries\lvgl\src\misc/lv_style_gen.c ****     lv_style_value_t v = {
 374:..\..\..\arduinoLCD\test\Pain Drain\libraries\lvgl\src\misc/lv_style_gen.c ****         .num = (int32_t)value
 375:..\..\..\arduinoLCD\test\Pain Drain\libraries\lvgl\src\misc/lv_style_gen.c ****     };
 376:..\..\..\arduinoLCD\test\Pain Drain\libraries\lvgl\src\misc/lv_style_gen.c ****     lv_style_set_prop(style, LV_STYLE_SHADOW_OFS_X, v);
 1377              		.loc 1 376 0
 1378 0004 4121     		movs	r1, #65
 1379              	.LVL139:
 1380 0006 FFF7FEFF 		bl	lv_style_set_prop
 1381              	.LVL140:
 377:..\..\..\arduinoLCD\test\Pain Drain\libraries\lvgl\src\misc/lv_style_gen.c **** }
 1382              		.loc 1 377 0
 1383              		@ sp needed
 1384 000a 10BD     		pop	{r4, pc}
 1385              		.cfi_endproc
 1386              	.LFE100:
 1387              		.size	lv_style_set_shadow_ofs_x, .-lv_style_set_shadow_ofs_x
 1388              		.section	.text.lv_style_set_shadow_ofs_y,"ax",%progbits
 1389              		.align	2
 1390              		.global	lv_style_set_shadow_ofs_y
ARM GAS  C:\Users\haske\AppData\Local\Temp\ccb2zsXg.s 			page 32


 1391              		.code	16
 1392              		.thumb_func
 1393              		.type	lv_style_set_shadow_ofs_y, %function
 1394              	lv_style_set_shadow_ofs_y:
 1395              	.LFB101:
 378:..\..\..\arduinoLCD\test\Pain Drain\libraries\lvgl\src\misc/lv_style_gen.c **** 
 379:..\..\..\arduinoLCD\test\Pain Drain\libraries\lvgl\src\misc/lv_style_gen.c **** void lv_style_set_shadow_ofs_y(lv_style_t * style, lv_coord_t value)
 380:..\..\..\arduinoLCD\test\Pain Drain\libraries\lvgl\src\misc/lv_style_gen.c **** {
 1396              		.loc 1 380 0
 1397              		.cfi_startproc
 1398              		@ args = 0, pretend = 0, frame = 0
 1399              		@ frame_needed = 0, uses_anonymous_args = 0
 1400              	.LVL141:
 1401 0000 10B5     		push	{r4, lr}
 1402              		.cfi_def_cfa_offset 8
 1403              		.cfi_offset 4, -8
 1404              		.cfi_offset 14, -4
 1405 0002 0A00     		movs	r2, r1
 381:..\..\..\arduinoLCD\test\Pain Drain\libraries\lvgl\src\misc/lv_style_gen.c ****     lv_style_value_t v = {
 382:..\..\..\arduinoLCD\test\Pain Drain\libraries\lvgl\src\misc/lv_style_gen.c ****         .num = (int32_t)value
 383:..\..\..\arduinoLCD\test\Pain Drain\libraries\lvgl\src\misc/lv_style_gen.c ****     };
 384:..\..\..\arduinoLCD\test\Pain Drain\libraries\lvgl\src\misc/lv_style_gen.c ****     lv_style_set_prop(style, LV_STYLE_SHADOW_OFS_Y, v);
 1406              		.loc 1 384 0
 1407 0004 4221     		movs	r1, #66
 1408              	.LVL142:
 1409 0006 FFF7FEFF 		bl	lv_style_set_prop
 1410              	.LVL143:
 385:..\..\..\arduinoLCD\test\Pain Drain\libraries\lvgl\src\misc/lv_style_gen.c **** }
 1411              		.loc 1 385 0
 1412              		@ sp needed
 1413 000a 10BD     		pop	{r4, pc}
 1414              		.cfi_endproc
 1415              	.LFE101:
 1416              		.size	lv_style_set_shadow_ofs_y, .-lv_style_set_shadow_ofs_y
 1417              		.section	.text.lv_style_set_shadow_spread,"ax",%progbits
 1418              		.align	2
 1419              		.global	lv_style_set_shadow_spread
 1420              		.code	16
 1421              		.thumb_func
 1422              		.type	lv_style_set_shadow_spread, %function
 1423              	lv_style_set_shadow_spread:
 1424              	.LFB102:
 386:..\..\..\arduinoLCD\test\Pain Drain\libraries\lvgl\src\misc/lv_style_gen.c **** 
 387:..\..\..\arduinoLCD\test\Pain Drain\libraries\lvgl\src\misc/lv_style_gen.c **** void lv_style_set_shadow_spread(lv_style_t * style, lv_coord_t value)
 388:..\..\..\arduinoLCD\test\Pain Drain\libraries\lvgl\src\misc/lv_style_gen.c **** {
 1425              		.loc 1 388 0
 1426              		.cfi_startproc
 1427              		@ args = 0, pretend = 0, frame = 0
 1428              		@ frame_needed = 0, uses_anonymous_args = 0
 1429              	.LVL144:
 1430 0000 10B5     		push	{r4, lr}
 1431              		.cfi_def_cfa_offset 8
 1432              		.cfi_offset 4, -8
 1433              		.cfi_offset 14, -4
 1434 0002 0A00     		movs	r2, r1
 389:..\..\..\arduinoLCD\test\Pain Drain\libraries\lvgl\src\misc/lv_style_gen.c ****     lv_style_value_t v = {
 390:..\..\..\arduinoLCD\test\Pain Drain\libraries\lvgl\src\misc/lv_style_gen.c ****         .num = (int32_t)value
ARM GAS  C:\Users\haske\AppData\Local\Temp\ccb2zsXg.s 			page 33


 391:..\..\..\arduinoLCD\test\Pain Drain\libraries\lvgl\src\misc/lv_style_gen.c ****     };
 392:..\..\..\arduinoLCD\test\Pain Drain\libraries\lvgl\src\misc/lv_style_gen.c ****     lv_style_set_prop(style, LV_STYLE_SHADOW_SPREAD, v);
 1435              		.loc 1 392 0
 1436 0004 4321     		movs	r1, #67
 1437              	.LVL145:
 1438 0006 FFF7FEFF 		bl	lv_style_set_prop
 1439              	.LVL146:
 393:..\..\..\arduinoLCD\test\Pain Drain\libraries\lvgl\src\misc/lv_style_gen.c **** }
 1440              		.loc 1 393 0
 1441              		@ sp needed
 1442 000a 10BD     		pop	{r4, pc}
 1443              		.cfi_endproc
 1444              	.LFE102:
 1445              		.size	lv_style_set_shadow_spread, .-lv_style_set_shadow_spread
 1446              		.section	.text.lv_style_set_shadow_color,"ax",%progbits
 1447              		.align	2
 1448              		.global	lv_style_set_shadow_color
 1449              		.code	16
 1450              		.thumb_func
 1451              		.type	lv_style_set_shadow_color, %function
 1452              	lv_style_set_shadow_color:
 1453              	.LFB103:
 394:..\..\..\arduinoLCD\test\Pain Drain\libraries\lvgl\src\misc/lv_style_gen.c **** 
 395:..\..\..\arduinoLCD\test\Pain Drain\libraries\lvgl\src\misc/lv_style_gen.c **** void lv_style_set_shadow_color(lv_style_t * style, lv_color_t value)
 396:..\..\..\arduinoLCD\test\Pain Drain\libraries\lvgl\src\misc/lv_style_gen.c **** {
 1454              		.loc 1 396 0
 1455              		.cfi_startproc
 1456              		@ args = 0, pretend = 0, frame = 0
 1457              		@ frame_needed = 0, uses_anonymous_args = 0
 1458              	.LVL147:
 1459 0000 10B5     		push	{r4, lr}
 1460              		.cfi_def_cfa_offset 8
 1461              		.cfi_offset 4, -8
 1462              		.cfi_offset 14, -4
 397:..\..\..\arduinoLCD\test\Pain Drain\libraries\lvgl\src\misc/lv_style_gen.c ****     lv_style_value_t v = {
 1463              		.loc 1 397 0
 1464 0002 8AB2     		uxth	r2, r1
 1465              	.LVL148:
 398:..\..\..\arduinoLCD\test\Pain Drain\libraries\lvgl\src\misc/lv_style_gen.c ****         .color = value
 399:..\..\..\arduinoLCD\test\Pain Drain\libraries\lvgl\src\misc/lv_style_gen.c ****     };
 400:..\..\..\arduinoLCD\test\Pain Drain\libraries\lvgl\src\misc/lv_style_gen.c ****     lv_style_set_prop(style, LV_STYLE_SHADOW_COLOR, v);
 1466              		.loc 1 400 0
 1467 0004 4421     		movs	r1, #68
 1468 0006 FFF7FEFF 		bl	lv_style_set_prop
 1469              	.LVL149:
 401:..\..\..\arduinoLCD\test\Pain Drain\libraries\lvgl\src\misc/lv_style_gen.c **** }
 1470              		.loc 1 401 0
 1471              		@ sp needed
 1472 000a 10BD     		pop	{r4, pc}
 1473              		.cfi_endproc
 1474              	.LFE103:
 1475              		.size	lv_style_set_shadow_color, .-lv_style_set_shadow_color
 1476              		.section	.text.lv_style_set_shadow_opa,"ax",%progbits
 1477              		.align	2
 1478              		.global	lv_style_set_shadow_opa
 1479              		.code	16
 1480              		.thumb_func
ARM GAS  C:\Users\haske\AppData\Local\Temp\ccb2zsXg.s 			page 34


 1481              		.type	lv_style_set_shadow_opa, %function
 1482              	lv_style_set_shadow_opa:
 1483              	.LFB104:
 402:..\..\..\arduinoLCD\test\Pain Drain\libraries\lvgl\src\misc/lv_style_gen.c **** 
 403:..\..\..\arduinoLCD\test\Pain Drain\libraries\lvgl\src\misc/lv_style_gen.c **** void lv_style_set_shadow_opa(lv_style_t * style, lv_opa_t value)
 404:..\..\..\arduinoLCD\test\Pain Drain\libraries\lvgl\src\misc/lv_style_gen.c **** {
 1484              		.loc 1 404 0
 1485              		.cfi_startproc
 1486              		@ args = 0, pretend = 0, frame = 0
 1487              		@ frame_needed = 0, uses_anonymous_args = 0
 1488              	.LVL150:
 1489 0000 10B5     		push	{r4, lr}
 1490              		.cfi_def_cfa_offset 8
 1491              		.cfi_offset 4, -8
 1492              		.cfi_offset 14, -4
 1493 0002 0A00     		movs	r2, r1
 405:..\..\..\arduinoLCD\test\Pain Drain\libraries\lvgl\src\misc/lv_style_gen.c ****     lv_style_value_t v = {
 406:..\..\..\arduinoLCD\test\Pain Drain\libraries\lvgl\src\misc/lv_style_gen.c ****         .num = (int32_t)value
 407:..\..\..\arduinoLCD\test\Pain Drain\libraries\lvgl\src\misc/lv_style_gen.c ****     };
 408:..\..\..\arduinoLCD\test\Pain Drain\libraries\lvgl\src\misc/lv_style_gen.c ****     lv_style_set_prop(style, LV_STYLE_SHADOW_OPA, v);
 1494              		.loc 1 408 0
 1495 0004 4521     		movs	r1, #69
 1496              	.LVL151:
 1497 0006 FFF7FEFF 		bl	lv_style_set_prop
 1498              	.LVL152:
 409:..\..\..\arduinoLCD\test\Pain Drain\libraries\lvgl\src\misc/lv_style_gen.c **** }
 1499              		.loc 1 409 0
 1500              		@ sp needed
 1501 000a 10BD     		pop	{r4, pc}
 1502              		.cfi_endproc
 1503              	.LFE104:
 1504              		.size	lv_style_set_shadow_opa, .-lv_style_set_shadow_opa
 1505              		.section	.text.lv_style_set_img_opa,"ax",%progbits
 1506              		.align	2
 1507              		.global	lv_style_set_img_opa
 1508              		.code	16
 1509              		.thumb_func
 1510              		.type	lv_style_set_img_opa, %function
 1511              	lv_style_set_img_opa:
 1512              	.LFB105:
 410:..\..\..\arduinoLCD\test\Pain Drain\libraries\lvgl\src\misc/lv_style_gen.c **** 
 411:..\..\..\arduinoLCD\test\Pain Drain\libraries\lvgl\src\misc/lv_style_gen.c **** void lv_style_set_img_opa(lv_style_t * style, lv_opa_t value)
 412:..\..\..\arduinoLCD\test\Pain Drain\libraries\lvgl\src\misc/lv_style_gen.c **** {
 1513              		.loc 1 412 0
 1514              		.cfi_startproc
 1515              		@ args = 0, pretend = 0, frame = 0
 1516              		@ frame_needed = 0, uses_anonymous_args = 0
 1517              	.LVL153:
 1518 0000 10B5     		push	{r4, lr}
 1519              		.cfi_def_cfa_offset 8
 1520              		.cfi_offset 4, -8
 1521              		.cfi_offset 14, -4
 1522 0002 0A00     		movs	r2, r1
 413:..\..\..\arduinoLCD\test\Pain Drain\libraries\lvgl\src\misc/lv_style_gen.c ****     lv_style_value_t v = {
 414:..\..\..\arduinoLCD\test\Pain Drain\libraries\lvgl\src\misc/lv_style_gen.c ****         .num = (int32_t)value
 415:..\..\..\arduinoLCD\test\Pain Drain\libraries\lvgl\src\misc/lv_style_gen.c ****     };
 416:..\..\..\arduinoLCD\test\Pain Drain\libraries\lvgl\src\misc/lv_style_gen.c ****     lv_style_set_prop(style, LV_STYLE_IMG_OPA, v);
ARM GAS  C:\Users\haske\AppData\Local\Temp\ccb2zsXg.s 			page 35


 1523              		.loc 1 416 0
 1524 0004 4621     		movs	r1, #70
 1525              	.LVL154:
 1526 0006 FFF7FEFF 		bl	lv_style_set_prop
 1527              	.LVL155:
 417:..\..\..\arduinoLCD\test\Pain Drain\libraries\lvgl\src\misc/lv_style_gen.c **** }
 1528              		.loc 1 417 0
 1529              		@ sp needed
 1530 000a 10BD     		pop	{r4, pc}
 1531              		.cfi_endproc
 1532              	.LFE105:
 1533              		.size	lv_style_set_img_opa, .-lv_style_set_img_opa
 1534              		.section	.text.lv_style_set_img_recolor,"ax",%progbits
 1535              		.align	2
 1536              		.global	lv_style_set_img_recolor
 1537              		.code	16
 1538              		.thumb_func
 1539              		.type	lv_style_set_img_recolor, %function
 1540              	lv_style_set_img_recolor:
 1541              	.LFB106:
 418:..\..\..\arduinoLCD\test\Pain Drain\libraries\lvgl\src\misc/lv_style_gen.c **** 
 419:..\..\..\arduinoLCD\test\Pain Drain\libraries\lvgl\src\misc/lv_style_gen.c **** void lv_style_set_img_recolor(lv_style_t * style, lv_color_t value)
 420:..\..\..\arduinoLCD\test\Pain Drain\libraries\lvgl\src\misc/lv_style_gen.c **** {
 1542              		.loc 1 420 0
 1543              		.cfi_startproc
 1544              		@ args = 0, pretend = 0, frame = 0
 1545              		@ frame_needed = 0, uses_anonymous_args = 0
 1546              	.LVL156:
 1547 0000 10B5     		push	{r4, lr}
 1548              		.cfi_def_cfa_offset 8
 1549              		.cfi_offset 4, -8
 1550              		.cfi_offset 14, -4
 421:..\..\..\arduinoLCD\test\Pain Drain\libraries\lvgl\src\misc/lv_style_gen.c ****     lv_style_value_t v = {
 1551              		.loc 1 421 0
 1552 0002 8AB2     		uxth	r2, r1
 1553              	.LVL157:
 422:..\..\..\arduinoLCD\test\Pain Drain\libraries\lvgl\src\misc/lv_style_gen.c ****         .color = value
 423:..\..\..\arduinoLCD\test\Pain Drain\libraries\lvgl\src\misc/lv_style_gen.c ****     };
 424:..\..\..\arduinoLCD\test\Pain Drain\libraries\lvgl\src\misc/lv_style_gen.c ****     lv_style_set_prop(style, LV_STYLE_IMG_RECOLOR, v);
 1554              		.loc 1 424 0
 1555 0004 4721     		movs	r1, #71
 1556 0006 FFF7FEFF 		bl	lv_style_set_prop
 1557              	.LVL158:
 425:..\..\..\arduinoLCD\test\Pain Drain\libraries\lvgl\src\misc/lv_style_gen.c **** }
 1558              		.loc 1 425 0
 1559              		@ sp needed
 1560 000a 10BD     		pop	{r4, pc}
 1561              		.cfi_endproc
 1562              	.LFE106:
 1563              		.size	lv_style_set_img_recolor, .-lv_style_set_img_recolor
 1564              		.section	.text.lv_style_set_img_recolor_opa,"ax",%progbits
 1565              		.align	2
 1566              		.global	lv_style_set_img_recolor_opa
 1567              		.code	16
 1568              		.thumb_func
 1569              		.type	lv_style_set_img_recolor_opa, %function
 1570              	lv_style_set_img_recolor_opa:
ARM GAS  C:\Users\haske\AppData\Local\Temp\ccb2zsXg.s 			page 36


 1571              	.LFB107:
 426:..\..\..\arduinoLCD\test\Pain Drain\libraries\lvgl\src\misc/lv_style_gen.c **** 
 427:..\..\..\arduinoLCD\test\Pain Drain\libraries\lvgl\src\misc/lv_style_gen.c **** void lv_style_set_img_recolor_opa(lv_style_t * style, lv_opa_t value)
 428:..\..\..\arduinoLCD\test\Pain Drain\libraries\lvgl\src\misc/lv_style_gen.c **** {
 1572              		.loc 1 428 0
 1573              		.cfi_startproc
 1574              		@ args = 0, pretend = 0, frame = 0
 1575              		@ frame_needed = 0, uses_anonymous_args = 0
 1576              	.LVL159:
 1577 0000 10B5     		push	{r4, lr}
 1578              		.cfi_def_cfa_offset 8
 1579              		.cfi_offset 4, -8
 1580              		.cfi_offset 14, -4
 1581 0002 0A00     		movs	r2, r1
 429:..\..\..\arduinoLCD\test\Pain Drain\libraries\lvgl\src\misc/lv_style_gen.c ****     lv_style_value_t v = {
 430:..\..\..\arduinoLCD\test\Pain Drain\libraries\lvgl\src\misc/lv_style_gen.c ****         .num = (int32_t)value
 431:..\..\..\arduinoLCD\test\Pain Drain\libraries\lvgl\src\misc/lv_style_gen.c ****     };
 432:..\..\..\arduinoLCD\test\Pain Drain\libraries\lvgl\src\misc/lv_style_gen.c ****     lv_style_set_prop(style, LV_STYLE_IMG_RECOLOR_OPA, v);
 1582              		.loc 1 432 0
 1583 0004 4821     		movs	r1, #72
 1584              	.LVL160:
 1585 0006 FFF7FEFF 		bl	lv_style_set_prop
 1586              	.LVL161:
 433:..\..\..\arduinoLCD\test\Pain Drain\libraries\lvgl\src\misc/lv_style_gen.c **** }
 1587              		.loc 1 433 0
 1588              		@ sp needed
 1589 000a 10BD     		pop	{r4, pc}
 1590              		.cfi_endproc
 1591              	.LFE107:
 1592              		.size	lv_style_set_img_recolor_opa, .-lv_style_set_img_recolor_opa
 1593              		.section	.text.lv_style_set_line_width,"ax",%progbits
 1594              		.align	2
 1595              		.global	lv_style_set_line_width
 1596              		.code	16
 1597              		.thumb_func
 1598              		.type	lv_style_set_line_width, %function
 1599              	lv_style_set_line_width:
 1600              	.LFB108:
 434:..\..\..\arduinoLCD\test\Pain Drain\libraries\lvgl\src\misc/lv_style_gen.c **** 
 435:..\..\..\arduinoLCD\test\Pain Drain\libraries\lvgl\src\misc/lv_style_gen.c **** void lv_style_set_line_width(lv_style_t * style, lv_coord_t value)
 436:..\..\..\arduinoLCD\test\Pain Drain\libraries\lvgl\src\misc/lv_style_gen.c **** {
 1601              		.loc 1 436 0
 1602              		.cfi_startproc
 1603              		@ args = 0, pretend = 0, frame = 0
 1604              		@ frame_needed = 0, uses_anonymous_args = 0
 1605              	.LVL162:
 1606 0000 10B5     		push	{r4, lr}
 1607              		.cfi_def_cfa_offset 8
 1608              		.cfi_offset 4, -8
 1609              		.cfi_offset 14, -4
 1610 0002 0A00     		movs	r2, r1
 437:..\..\..\arduinoLCD\test\Pain Drain\libraries\lvgl\src\misc/lv_style_gen.c ****     lv_style_value_t v = {
 438:..\..\..\arduinoLCD\test\Pain Drain\libraries\lvgl\src\misc/lv_style_gen.c ****         .num = (int32_t)value
 439:..\..\..\arduinoLCD\test\Pain Drain\libraries\lvgl\src\misc/lv_style_gen.c ****     };
 440:..\..\..\arduinoLCD\test\Pain Drain\libraries\lvgl\src\misc/lv_style_gen.c ****     lv_style_set_prop(style, LV_STYLE_LINE_WIDTH, v);
 1611              		.loc 1 440 0
 1612 0004 4921     		movs	r1, #73
ARM GAS  C:\Users\haske\AppData\Local\Temp\ccb2zsXg.s 			page 37


 1613              	.LVL163:
 1614 0006 FFF7FEFF 		bl	lv_style_set_prop
 1615              	.LVL164:
 441:..\..\..\arduinoLCD\test\Pain Drain\libraries\lvgl\src\misc/lv_style_gen.c **** }
 1616              		.loc 1 441 0
 1617              		@ sp needed
 1618 000a 10BD     		pop	{r4, pc}
 1619              		.cfi_endproc
 1620              	.LFE108:
 1621              		.size	lv_style_set_line_width, .-lv_style_set_line_width
 1622              		.section	.text.lv_style_set_line_dash_width,"ax",%progbits
 1623              		.align	2
 1624              		.global	lv_style_set_line_dash_width
 1625              		.code	16
 1626              		.thumb_func
 1627              		.type	lv_style_set_line_dash_width, %function
 1628              	lv_style_set_line_dash_width:
 1629              	.LFB109:
 442:..\..\..\arduinoLCD\test\Pain Drain\libraries\lvgl\src\misc/lv_style_gen.c **** 
 443:..\..\..\arduinoLCD\test\Pain Drain\libraries\lvgl\src\misc/lv_style_gen.c **** void lv_style_set_line_dash_width(lv_style_t * style, lv_coord_t value)
 444:..\..\..\arduinoLCD\test\Pain Drain\libraries\lvgl\src\misc/lv_style_gen.c **** {
 1630              		.loc 1 444 0
 1631              		.cfi_startproc
 1632              		@ args = 0, pretend = 0, frame = 0
 1633              		@ frame_needed = 0, uses_anonymous_args = 0
 1634              	.LVL165:
 1635 0000 10B5     		push	{r4, lr}
 1636              		.cfi_def_cfa_offset 8
 1637              		.cfi_offset 4, -8
 1638              		.cfi_offset 14, -4
 1639 0002 0A00     		movs	r2, r1
 445:..\..\..\arduinoLCD\test\Pain Drain\libraries\lvgl\src\misc/lv_style_gen.c ****     lv_style_value_t v = {
 446:..\..\..\arduinoLCD\test\Pain Drain\libraries\lvgl\src\misc/lv_style_gen.c ****         .num = (int32_t)value
 447:..\..\..\arduinoLCD\test\Pain Drain\libraries\lvgl\src\misc/lv_style_gen.c ****     };
 448:..\..\..\arduinoLCD\test\Pain Drain\libraries\lvgl\src\misc/lv_style_gen.c ****     lv_style_set_prop(style, LV_STYLE_LINE_DASH_WIDTH, v);
 1640              		.loc 1 448 0
 1641 0004 4A21     		movs	r1, #74
 1642              	.LVL166:
 1643 0006 FFF7FEFF 		bl	lv_style_set_prop
 1644              	.LVL167:
 449:..\..\..\arduinoLCD\test\Pain Drain\libraries\lvgl\src\misc/lv_style_gen.c **** }
 1645              		.loc 1 449 0
 1646              		@ sp needed
 1647 000a 10BD     		pop	{r4, pc}
 1648              		.cfi_endproc
 1649              	.LFE109:
 1650              		.size	lv_style_set_line_dash_width, .-lv_style_set_line_dash_width
 1651              		.section	.text.lv_style_set_line_dash_gap,"ax",%progbits
 1652              		.align	2
 1653              		.global	lv_style_set_line_dash_gap
 1654              		.code	16
 1655              		.thumb_func
 1656              		.type	lv_style_set_line_dash_gap, %function
 1657              	lv_style_set_line_dash_gap:
 1658              	.LFB110:
 450:..\..\..\arduinoLCD\test\Pain Drain\libraries\lvgl\src\misc/lv_style_gen.c **** 
 451:..\..\..\arduinoLCD\test\Pain Drain\libraries\lvgl\src\misc/lv_style_gen.c **** void lv_style_set_line_dash_gap(lv_style_t * style, lv_coord_t value)
ARM GAS  C:\Users\haske\AppData\Local\Temp\ccb2zsXg.s 			page 38


 452:..\..\..\arduinoLCD\test\Pain Drain\libraries\lvgl\src\misc/lv_style_gen.c **** {
 1659              		.loc 1 452 0
 1660              		.cfi_startproc
 1661              		@ args = 0, pretend = 0, frame = 0
 1662              		@ frame_needed = 0, uses_anonymous_args = 0
 1663              	.LVL168:
 1664 0000 10B5     		push	{r4, lr}
 1665              		.cfi_def_cfa_offset 8
 1666              		.cfi_offset 4, -8
 1667              		.cfi_offset 14, -4
 1668 0002 0A00     		movs	r2, r1
 453:..\..\..\arduinoLCD\test\Pain Drain\libraries\lvgl\src\misc/lv_style_gen.c ****     lv_style_value_t v = {
 454:..\..\..\arduinoLCD\test\Pain Drain\libraries\lvgl\src\misc/lv_style_gen.c ****         .num = (int32_t)value
 455:..\..\..\arduinoLCD\test\Pain Drain\libraries\lvgl\src\misc/lv_style_gen.c ****     };
 456:..\..\..\arduinoLCD\test\Pain Drain\libraries\lvgl\src\misc/lv_style_gen.c ****     lv_style_set_prop(style, LV_STYLE_LINE_DASH_GAP, v);
 1669              		.loc 1 456 0
 1670 0004 4B21     		movs	r1, #75
 1671              	.LVL169:
 1672 0006 FFF7FEFF 		bl	lv_style_set_prop
 1673              	.LVL170:
 457:..\..\..\arduinoLCD\test\Pain Drain\libraries\lvgl\src\misc/lv_style_gen.c **** }
 1674              		.loc 1 457 0
 1675              		@ sp needed
 1676 000a 10BD     		pop	{r4, pc}
 1677              		.cfi_endproc
 1678              	.LFE110:
 1679              		.size	lv_style_set_line_dash_gap, .-lv_style_set_line_dash_gap
 1680              		.section	.text.lv_style_set_line_rounded,"ax",%progbits
 1681              		.align	2
 1682              		.global	lv_style_set_line_rounded
 1683              		.code	16
 1684              		.thumb_func
 1685              		.type	lv_style_set_line_rounded, %function
 1686              	lv_style_set_line_rounded:
 1687              	.LFB111:
 458:..\..\..\arduinoLCD\test\Pain Drain\libraries\lvgl\src\misc/lv_style_gen.c **** 
 459:..\..\..\arduinoLCD\test\Pain Drain\libraries\lvgl\src\misc/lv_style_gen.c **** void lv_style_set_line_rounded(lv_style_t * style, bool value)
 460:..\..\..\arduinoLCD\test\Pain Drain\libraries\lvgl\src\misc/lv_style_gen.c **** {
 1688              		.loc 1 460 0
 1689              		.cfi_startproc
 1690              		@ args = 0, pretend = 0, frame = 0
 1691              		@ frame_needed = 0, uses_anonymous_args = 0
 1692              	.LVL171:
 1693 0000 10B5     		push	{r4, lr}
 1694              		.cfi_def_cfa_offset 8
 1695              		.cfi_offset 4, -8
 1696              		.cfi_offset 14, -4
 1697 0002 0A00     		movs	r2, r1
 461:..\..\..\arduinoLCD\test\Pain Drain\libraries\lvgl\src\misc/lv_style_gen.c ****     lv_style_value_t v = {
 462:..\..\..\arduinoLCD\test\Pain Drain\libraries\lvgl\src\misc/lv_style_gen.c ****         .num = (int32_t)value
 463:..\..\..\arduinoLCD\test\Pain Drain\libraries\lvgl\src\misc/lv_style_gen.c ****     };
 464:..\..\..\arduinoLCD\test\Pain Drain\libraries\lvgl\src\misc/lv_style_gen.c ****     lv_style_set_prop(style, LV_STYLE_LINE_ROUNDED, v);
 1698              		.loc 1 464 0
 1699 0004 4C21     		movs	r1, #76
 1700              	.LVL172:
 1701 0006 FFF7FEFF 		bl	lv_style_set_prop
 1702              	.LVL173:
ARM GAS  C:\Users\haske\AppData\Local\Temp\ccb2zsXg.s 			page 39


 465:..\..\..\arduinoLCD\test\Pain Drain\libraries\lvgl\src\misc/lv_style_gen.c **** }
 1703              		.loc 1 465 0
 1704              		@ sp needed
 1705 000a 10BD     		pop	{r4, pc}
 1706              		.cfi_endproc
 1707              	.LFE111:
 1708              		.size	lv_style_set_line_rounded, .-lv_style_set_line_rounded
 1709              		.section	.text.lv_style_set_line_color,"ax",%progbits
 1710              		.align	2
 1711              		.global	lv_style_set_line_color
 1712              		.code	16
 1713              		.thumb_func
 1714              		.type	lv_style_set_line_color, %function
 1715              	lv_style_set_line_color:
 1716              	.LFB112:
 466:..\..\..\arduinoLCD\test\Pain Drain\libraries\lvgl\src\misc/lv_style_gen.c **** 
 467:..\..\..\arduinoLCD\test\Pain Drain\libraries\lvgl\src\misc/lv_style_gen.c **** void lv_style_set_line_color(lv_style_t * style, lv_color_t value)
 468:..\..\..\arduinoLCD\test\Pain Drain\libraries\lvgl\src\misc/lv_style_gen.c **** {
 1717              		.loc 1 468 0
 1718              		.cfi_startproc
 1719              		@ args = 0, pretend = 0, frame = 0
 1720              		@ frame_needed = 0, uses_anonymous_args = 0
 1721              	.LVL174:
 1722 0000 10B5     		push	{r4, lr}
 1723              		.cfi_def_cfa_offset 8
 1724              		.cfi_offset 4, -8
 1725              		.cfi_offset 14, -4
 469:..\..\..\arduinoLCD\test\Pain Drain\libraries\lvgl\src\misc/lv_style_gen.c ****     lv_style_value_t v = {
 1726              		.loc 1 469 0
 1727 0002 8AB2     		uxth	r2, r1
 1728              	.LVL175:
 470:..\..\..\arduinoLCD\test\Pain Drain\libraries\lvgl\src\misc/lv_style_gen.c ****         .color = value
 471:..\..\..\arduinoLCD\test\Pain Drain\libraries\lvgl\src\misc/lv_style_gen.c ****     };
 472:..\..\..\arduinoLCD\test\Pain Drain\libraries\lvgl\src\misc/lv_style_gen.c ****     lv_style_set_prop(style, LV_STYLE_LINE_COLOR, v);
 1729              		.loc 1 472 0
 1730 0004 4D21     		movs	r1, #77
 1731 0006 FFF7FEFF 		bl	lv_style_set_prop
 1732              	.LVL176:
 473:..\..\..\arduinoLCD\test\Pain Drain\libraries\lvgl\src\misc/lv_style_gen.c **** }
 1733              		.loc 1 473 0
 1734              		@ sp needed
 1735 000a 10BD     		pop	{r4, pc}
 1736              		.cfi_endproc
 1737              	.LFE112:
 1738              		.size	lv_style_set_line_color, .-lv_style_set_line_color
 1739              		.section	.text.lv_style_set_line_opa,"ax",%progbits
 1740              		.align	2
 1741              		.global	lv_style_set_line_opa
 1742              		.code	16
 1743              		.thumb_func
 1744              		.type	lv_style_set_line_opa, %function
 1745              	lv_style_set_line_opa:
 1746              	.LFB113:
 474:..\..\..\arduinoLCD\test\Pain Drain\libraries\lvgl\src\misc/lv_style_gen.c **** 
 475:..\..\..\arduinoLCD\test\Pain Drain\libraries\lvgl\src\misc/lv_style_gen.c **** void lv_style_set_line_opa(lv_style_t * style, lv_opa_t value)
 476:..\..\..\arduinoLCD\test\Pain Drain\libraries\lvgl\src\misc/lv_style_gen.c **** {
 1747              		.loc 1 476 0
ARM GAS  C:\Users\haske\AppData\Local\Temp\ccb2zsXg.s 			page 40


 1748              		.cfi_startproc
 1749              		@ args = 0, pretend = 0, frame = 0
 1750              		@ frame_needed = 0, uses_anonymous_args = 0
 1751              	.LVL177:
 1752 0000 10B5     		push	{r4, lr}
 1753              		.cfi_def_cfa_offset 8
 1754              		.cfi_offset 4, -8
 1755              		.cfi_offset 14, -4
 1756 0002 0A00     		movs	r2, r1
 477:..\..\..\arduinoLCD\test\Pain Drain\libraries\lvgl\src\misc/lv_style_gen.c ****     lv_style_value_t v = {
 478:..\..\..\arduinoLCD\test\Pain Drain\libraries\lvgl\src\misc/lv_style_gen.c ****         .num = (int32_t)value
 479:..\..\..\arduinoLCD\test\Pain Drain\libraries\lvgl\src\misc/lv_style_gen.c ****     };
 480:..\..\..\arduinoLCD\test\Pain Drain\libraries\lvgl\src\misc/lv_style_gen.c ****     lv_style_set_prop(style, LV_STYLE_LINE_OPA, v);
 1757              		.loc 1 480 0
 1758 0004 4E21     		movs	r1, #78
 1759              	.LVL178:
 1760 0006 FFF7FEFF 		bl	lv_style_set_prop
 1761              	.LVL179:
 481:..\..\..\arduinoLCD\test\Pain Drain\libraries\lvgl\src\misc/lv_style_gen.c **** }
 1762              		.loc 1 481 0
 1763              		@ sp needed
 1764 000a 10BD     		pop	{r4, pc}
 1765              		.cfi_endproc
 1766              	.LFE113:
 1767              		.size	lv_style_set_line_opa, .-lv_style_set_line_opa
 1768              		.section	.text.lv_style_set_arc_width,"ax",%progbits
 1769              		.align	2
 1770              		.global	lv_style_set_arc_width
 1771              		.code	16
 1772              		.thumb_func
 1773              		.type	lv_style_set_arc_width, %function
 1774              	lv_style_set_arc_width:
 1775              	.LFB114:
 482:..\..\..\arduinoLCD\test\Pain Drain\libraries\lvgl\src\misc/lv_style_gen.c **** 
 483:..\..\..\arduinoLCD\test\Pain Drain\libraries\lvgl\src\misc/lv_style_gen.c **** void lv_style_set_arc_width(lv_style_t * style, lv_coord_t value)
 484:..\..\..\arduinoLCD\test\Pain Drain\libraries\lvgl\src\misc/lv_style_gen.c **** {
 1776              		.loc 1 484 0
 1777              		.cfi_startproc
 1778              		@ args = 0, pretend = 0, frame = 0
 1779              		@ frame_needed = 0, uses_anonymous_args = 0
 1780              	.LVL180:
 1781 0000 10B5     		push	{r4, lr}
 1782              		.cfi_def_cfa_offset 8
 1783              		.cfi_offset 4, -8
 1784              		.cfi_offset 14, -4
 1785 0002 0A00     		movs	r2, r1
 485:..\..\..\arduinoLCD\test\Pain Drain\libraries\lvgl\src\misc/lv_style_gen.c ****     lv_style_value_t v = {
 486:..\..\..\arduinoLCD\test\Pain Drain\libraries\lvgl\src\misc/lv_style_gen.c ****         .num = (int32_t)value
 487:..\..\..\arduinoLCD\test\Pain Drain\libraries\lvgl\src\misc/lv_style_gen.c ****     };
 488:..\..\..\arduinoLCD\test\Pain Drain\libraries\lvgl\src\misc/lv_style_gen.c ****     lv_style_set_prop(style, LV_STYLE_ARC_WIDTH, v);
 1786              		.loc 1 488 0
 1787 0004 5021     		movs	r1, #80
 1788              	.LVL181:
 1789 0006 FFF7FEFF 		bl	lv_style_set_prop
 1790              	.LVL182:
 489:..\..\..\arduinoLCD\test\Pain Drain\libraries\lvgl\src\misc/lv_style_gen.c **** }
 1791              		.loc 1 489 0
ARM GAS  C:\Users\haske\AppData\Local\Temp\ccb2zsXg.s 			page 41


 1792              		@ sp needed
 1793 000a 10BD     		pop	{r4, pc}
 1794              		.cfi_endproc
 1795              	.LFE114:
 1796              		.size	lv_style_set_arc_width, .-lv_style_set_arc_width
 1797              		.section	.text.lv_style_set_arc_rounded,"ax",%progbits
 1798              		.align	2
 1799              		.global	lv_style_set_arc_rounded
 1800              		.code	16
 1801              		.thumb_func
 1802              		.type	lv_style_set_arc_rounded, %function
 1803              	lv_style_set_arc_rounded:
 1804              	.LFB115:
 490:..\..\..\arduinoLCD\test\Pain Drain\libraries\lvgl\src\misc/lv_style_gen.c **** 
 491:..\..\..\arduinoLCD\test\Pain Drain\libraries\lvgl\src\misc/lv_style_gen.c **** void lv_style_set_arc_rounded(lv_style_t * style, bool value)
 492:..\..\..\arduinoLCD\test\Pain Drain\libraries\lvgl\src\misc/lv_style_gen.c **** {
 1805              		.loc 1 492 0
 1806              		.cfi_startproc
 1807              		@ args = 0, pretend = 0, frame = 0
 1808              		@ frame_needed = 0, uses_anonymous_args = 0
 1809              	.LVL183:
 1810 0000 10B5     		push	{r4, lr}
 1811              		.cfi_def_cfa_offset 8
 1812              		.cfi_offset 4, -8
 1813              		.cfi_offset 14, -4
 1814 0002 0A00     		movs	r2, r1
 493:..\..\..\arduinoLCD\test\Pain Drain\libraries\lvgl\src\misc/lv_style_gen.c ****     lv_style_value_t v = {
 494:..\..\..\arduinoLCD\test\Pain Drain\libraries\lvgl\src\misc/lv_style_gen.c ****         .num = (int32_t)value
 495:..\..\..\arduinoLCD\test\Pain Drain\libraries\lvgl\src\misc/lv_style_gen.c ****     };
 496:..\..\..\arduinoLCD\test\Pain Drain\libraries\lvgl\src\misc/lv_style_gen.c ****     lv_style_set_prop(style, LV_STYLE_ARC_ROUNDED, v);
 1815              		.loc 1 496 0
 1816 0004 5121     		movs	r1, #81
 1817              	.LVL184:
 1818 0006 FFF7FEFF 		bl	lv_style_set_prop
 1819              	.LVL185:
 497:..\..\..\arduinoLCD\test\Pain Drain\libraries\lvgl\src\misc/lv_style_gen.c **** }
 1820              		.loc 1 497 0
 1821              		@ sp needed
 1822 000a 10BD     		pop	{r4, pc}
 1823              		.cfi_endproc
 1824              	.LFE115:
 1825              		.size	lv_style_set_arc_rounded, .-lv_style_set_arc_rounded
 1826              		.section	.text.lv_style_set_arc_color,"ax",%progbits
 1827              		.align	2
 1828              		.global	lv_style_set_arc_color
 1829              		.code	16
 1830              		.thumb_func
 1831              		.type	lv_style_set_arc_color, %function
 1832              	lv_style_set_arc_color:
 1833              	.LFB116:
 498:..\..\..\arduinoLCD\test\Pain Drain\libraries\lvgl\src\misc/lv_style_gen.c **** 
 499:..\..\..\arduinoLCD\test\Pain Drain\libraries\lvgl\src\misc/lv_style_gen.c **** void lv_style_set_arc_color(lv_style_t * style, lv_color_t value)
 500:..\..\..\arduinoLCD\test\Pain Drain\libraries\lvgl\src\misc/lv_style_gen.c **** {
 1834              		.loc 1 500 0
 1835              		.cfi_startproc
 1836              		@ args = 0, pretend = 0, frame = 0
 1837              		@ frame_needed = 0, uses_anonymous_args = 0
ARM GAS  C:\Users\haske\AppData\Local\Temp\ccb2zsXg.s 			page 42


 1838              	.LVL186:
 1839 0000 10B5     		push	{r4, lr}
 1840              		.cfi_def_cfa_offset 8
 1841              		.cfi_offset 4, -8
 1842              		.cfi_offset 14, -4
 501:..\..\..\arduinoLCD\test\Pain Drain\libraries\lvgl\src\misc/lv_style_gen.c ****     lv_style_value_t v = {
 1843              		.loc 1 501 0
 1844 0002 8AB2     		uxth	r2, r1
 1845              	.LVL187:
 502:..\..\..\arduinoLCD\test\Pain Drain\libraries\lvgl\src\misc/lv_style_gen.c ****         .color = value
 503:..\..\..\arduinoLCD\test\Pain Drain\libraries\lvgl\src\misc/lv_style_gen.c ****     };
 504:..\..\..\arduinoLCD\test\Pain Drain\libraries\lvgl\src\misc/lv_style_gen.c ****     lv_style_set_prop(style, LV_STYLE_ARC_COLOR, v);
 1846              		.loc 1 504 0
 1847 0004 5221     		movs	r1, #82
 1848 0006 FFF7FEFF 		bl	lv_style_set_prop
 1849              	.LVL188:
 505:..\..\..\arduinoLCD\test\Pain Drain\libraries\lvgl\src\misc/lv_style_gen.c **** }
 1850              		.loc 1 505 0
 1851              		@ sp needed
 1852 000a 10BD     		pop	{r4, pc}
 1853              		.cfi_endproc
 1854              	.LFE116:
 1855              		.size	lv_style_set_arc_color, .-lv_style_set_arc_color
 1856              		.section	.text.lv_style_set_arc_opa,"ax",%progbits
 1857              		.align	2
 1858              		.global	lv_style_set_arc_opa
 1859              		.code	16
 1860              		.thumb_func
 1861              		.type	lv_style_set_arc_opa, %function
 1862              	lv_style_set_arc_opa:
 1863              	.LFB117:
 506:..\..\..\arduinoLCD\test\Pain Drain\libraries\lvgl\src\misc/lv_style_gen.c **** 
 507:..\..\..\arduinoLCD\test\Pain Drain\libraries\lvgl\src\misc/lv_style_gen.c **** void lv_style_set_arc_opa(lv_style_t * style, lv_opa_t value)
 508:..\..\..\arduinoLCD\test\Pain Drain\libraries\lvgl\src\misc/lv_style_gen.c **** {
 1864              		.loc 1 508 0
 1865              		.cfi_startproc
 1866              		@ args = 0, pretend = 0, frame = 0
 1867              		@ frame_needed = 0, uses_anonymous_args = 0
 1868              	.LVL189:
 1869 0000 10B5     		push	{r4, lr}
 1870              		.cfi_def_cfa_offset 8
 1871              		.cfi_offset 4, -8
 1872              		.cfi_offset 14, -4
 1873 0002 0A00     		movs	r2, r1
 509:..\..\..\arduinoLCD\test\Pain Drain\libraries\lvgl\src\misc/lv_style_gen.c ****     lv_style_value_t v = {
 510:..\..\..\arduinoLCD\test\Pain Drain\libraries\lvgl\src\misc/lv_style_gen.c ****         .num = (int32_t)value
 511:..\..\..\arduinoLCD\test\Pain Drain\libraries\lvgl\src\misc/lv_style_gen.c ****     };
 512:..\..\..\arduinoLCD\test\Pain Drain\libraries\lvgl\src\misc/lv_style_gen.c ****     lv_style_set_prop(style, LV_STYLE_ARC_OPA, v);
 1874              		.loc 1 512 0
 1875 0004 5321     		movs	r1, #83
 1876              	.LVL190:
 1877 0006 FFF7FEFF 		bl	lv_style_set_prop
 1878              	.LVL191:
 513:..\..\..\arduinoLCD\test\Pain Drain\libraries\lvgl\src\misc/lv_style_gen.c **** }
 1879              		.loc 1 513 0
 1880              		@ sp needed
 1881 000a 10BD     		pop	{r4, pc}
ARM GAS  C:\Users\haske\AppData\Local\Temp\ccb2zsXg.s 			page 43


 1882              		.cfi_endproc
 1883              	.LFE117:
 1884              		.size	lv_style_set_arc_opa, .-lv_style_set_arc_opa
 1885              		.section	.text.lv_style_set_arc_img_src,"ax",%progbits
 1886              		.align	2
 1887              		.global	lv_style_set_arc_img_src
 1888              		.code	16
 1889              		.thumb_func
 1890              		.type	lv_style_set_arc_img_src, %function
 1891              	lv_style_set_arc_img_src:
 1892              	.LFB118:
 514:..\..\..\arduinoLCD\test\Pain Drain\libraries\lvgl\src\misc/lv_style_gen.c **** 
 515:..\..\..\arduinoLCD\test\Pain Drain\libraries\lvgl\src\misc/lv_style_gen.c **** void lv_style_set_arc_img_src(lv_style_t * style, const void * value)
 516:..\..\..\arduinoLCD\test\Pain Drain\libraries\lvgl\src\misc/lv_style_gen.c **** {
 1893              		.loc 1 516 0
 1894              		.cfi_startproc
 1895              		@ args = 0, pretend = 0, frame = 0
 1896              		@ frame_needed = 0, uses_anonymous_args = 0
 1897              	.LVL192:
 1898 0000 10B5     		push	{r4, lr}
 1899              		.cfi_def_cfa_offset 8
 1900              		.cfi_offset 4, -8
 1901              		.cfi_offset 14, -4
 1902 0002 0A00     		movs	r2, r1
 517:..\..\..\arduinoLCD\test\Pain Drain\libraries\lvgl\src\misc/lv_style_gen.c ****     lv_style_value_t v = {
 518:..\..\..\arduinoLCD\test\Pain Drain\libraries\lvgl\src\misc/lv_style_gen.c ****         .ptr = value
 519:..\..\..\arduinoLCD\test\Pain Drain\libraries\lvgl\src\misc/lv_style_gen.c ****     };
 520:..\..\..\arduinoLCD\test\Pain Drain\libraries\lvgl\src\misc/lv_style_gen.c ****     lv_style_set_prop(style, LV_STYLE_ARC_IMG_SRC, v);
 1903              		.loc 1 520 0
 1904 0004 5421     		movs	r1, #84
 1905              	.LVL193:
 1906 0006 FFF7FEFF 		bl	lv_style_set_prop
 1907              	.LVL194:
 521:..\..\..\arduinoLCD\test\Pain Drain\libraries\lvgl\src\misc/lv_style_gen.c **** }
 1908              		.loc 1 521 0
 1909              		@ sp needed
 1910 000a 10BD     		pop	{r4, pc}
 1911              		.cfi_endproc
 1912              	.LFE118:
 1913              		.size	lv_style_set_arc_img_src, .-lv_style_set_arc_img_src
 1914              		.section	.text.lv_style_set_text_color,"ax",%progbits
 1915              		.align	2
 1916              		.global	lv_style_set_text_color
 1917              		.code	16
 1918              		.thumb_func
 1919              		.type	lv_style_set_text_color, %function
 1920              	lv_style_set_text_color:
 1921              	.LFB119:
 522:..\..\..\arduinoLCD\test\Pain Drain\libraries\lvgl\src\misc/lv_style_gen.c **** 
 523:..\..\..\arduinoLCD\test\Pain Drain\libraries\lvgl\src\misc/lv_style_gen.c **** void lv_style_set_text_color(lv_style_t * style, lv_color_t value)
 524:..\..\..\arduinoLCD\test\Pain Drain\libraries\lvgl\src\misc/lv_style_gen.c **** {
 1922              		.loc 1 524 0
 1923              		.cfi_startproc
 1924              		@ args = 0, pretend = 0, frame = 0
 1925              		@ frame_needed = 0, uses_anonymous_args = 0
 1926              	.LVL195:
 1927 0000 10B5     		push	{r4, lr}
ARM GAS  C:\Users\haske\AppData\Local\Temp\ccb2zsXg.s 			page 44


 1928              		.cfi_def_cfa_offset 8
 1929              		.cfi_offset 4, -8
 1930              		.cfi_offset 14, -4
 525:..\..\..\arduinoLCD\test\Pain Drain\libraries\lvgl\src\misc/lv_style_gen.c ****     lv_style_value_t v = {
 1931              		.loc 1 525 0
 1932 0002 8AB2     		uxth	r2, r1
 1933              	.LVL196:
 526:..\..\..\arduinoLCD\test\Pain Drain\libraries\lvgl\src\misc/lv_style_gen.c ****         .color = value
 527:..\..\..\arduinoLCD\test\Pain Drain\libraries\lvgl\src\misc/lv_style_gen.c ****     };
 528:..\..\..\arduinoLCD\test\Pain Drain\libraries\lvgl\src\misc/lv_style_gen.c ****     lv_style_set_prop(style, LV_STYLE_TEXT_COLOR, v);
 1934              		.loc 1 528 0
 1935 0004 5521     		movs	r1, #85
 1936 0006 FFF7FEFF 		bl	lv_style_set_prop
 1937              	.LVL197:
 529:..\..\..\arduinoLCD\test\Pain Drain\libraries\lvgl\src\misc/lv_style_gen.c **** }
 1938              		.loc 1 529 0
 1939              		@ sp needed
 1940 000a 10BD     		pop	{r4, pc}
 1941              		.cfi_endproc
 1942              	.LFE119:
 1943              		.size	lv_style_set_text_color, .-lv_style_set_text_color
 1944              		.section	.text.lv_style_set_text_opa,"ax",%progbits
 1945              		.align	2
 1946              		.global	lv_style_set_text_opa
 1947              		.code	16
 1948              		.thumb_func
 1949              		.type	lv_style_set_text_opa, %function
 1950              	lv_style_set_text_opa:
 1951              	.LFB120:
 530:..\..\..\arduinoLCD\test\Pain Drain\libraries\lvgl\src\misc/lv_style_gen.c **** 
 531:..\..\..\arduinoLCD\test\Pain Drain\libraries\lvgl\src\misc/lv_style_gen.c **** void lv_style_set_text_opa(lv_style_t * style, lv_opa_t value)
 532:..\..\..\arduinoLCD\test\Pain Drain\libraries\lvgl\src\misc/lv_style_gen.c **** {
 1952              		.loc 1 532 0
 1953              		.cfi_startproc
 1954              		@ args = 0, pretend = 0, frame = 0
 1955              		@ frame_needed = 0, uses_anonymous_args = 0
 1956              	.LVL198:
 1957 0000 10B5     		push	{r4, lr}
 1958              		.cfi_def_cfa_offset 8
 1959              		.cfi_offset 4, -8
 1960              		.cfi_offset 14, -4
 1961 0002 0A00     		movs	r2, r1
 533:..\..\..\arduinoLCD\test\Pain Drain\libraries\lvgl\src\misc/lv_style_gen.c ****     lv_style_value_t v = {
 534:..\..\..\arduinoLCD\test\Pain Drain\libraries\lvgl\src\misc/lv_style_gen.c ****         .num = (int32_t)value
 535:..\..\..\arduinoLCD\test\Pain Drain\libraries\lvgl\src\misc/lv_style_gen.c ****     };
 536:..\..\..\arduinoLCD\test\Pain Drain\libraries\lvgl\src\misc/lv_style_gen.c ****     lv_style_set_prop(style, LV_STYLE_TEXT_OPA, v);
 1962              		.loc 1 536 0
 1963 0004 5621     		movs	r1, #86
 1964              	.LVL199:
 1965 0006 FFF7FEFF 		bl	lv_style_set_prop
 1966              	.LVL200:
 537:..\..\..\arduinoLCD\test\Pain Drain\libraries\lvgl\src\misc/lv_style_gen.c **** }
 1967              		.loc 1 537 0
 1968              		@ sp needed
 1969 000a 10BD     		pop	{r4, pc}
 1970              		.cfi_endproc
 1971              	.LFE120:
ARM GAS  C:\Users\haske\AppData\Local\Temp\ccb2zsXg.s 			page 45


 1972              		.size	lv_style_set_text_opa, .-lv_style_set_text_opa
 1973              		.section	.text.lv_style_set_text_font,"ax",%progbits
 1974              		.align	2
 1975              		.global	lv_style_set_text_font
 1976              		.code	16
 1977              		.thumb_func
 1978              		.type	lv_style_set_text_font, %function
 1979              	lv_style_set_text_font:
 1980              	.LFB121:
 538:..\..\..\arduinoLCD\test\Pain Drain\libraries\lvgl\src\misc/lv_style_gen.c **** 
 539:..\..\..\arduinoLCD\test\Pain Drain\libraries\lvgl\src\misc/lv_style_gen.c **** void lv_style_set_text_font(lv_style_t * style, const lv_font_t * value)
 540:..\..\..\arduinoLCD\test\Pain Drain\libraries\lvgl\src\misc/lv_style_gen.c **** {
 1981              		.loc 1 540 0
 1982              		.cfi_startproc
 1983              		@ args = 0, pretend = 0, frame = 0
 1984              		@ frame_needed = 0, uses_anonymous_args = 0
 1985              	.LVL201:
 1986 0000 10B5     		push	{r4, lr}
 1987              		.cfi_def_cfa_offset 8
 1988              		.cfi_offset 4, -8
 1989              		.cfi_offset 14, -4
 1990 0002 0A00     		movs	r2, r1
 541:..\..\..\arduinoLCD\test\Pain Drain\libraries\lvgl\src\misc/lv_style_gen.c ****     lv_style_value_t v = {
 542:..\..\..\arduinoLCD\test\Pain Drain\libraries\lvgl\src\misc/lv_style_gen.c ****         .ptr = value
 543:..\..\..\arduinoLCD\test\Pain Drain\libraries\lvgl\src\misc/lv_style_gen.c ****     };
 544:..\..\..\arduinoLCD\test\Pain Drain\libraries\lvgl\src\misc/lv_style_gen.c ****     lv_style_set_prop(style, LV_STYLE_TEXT_FONT, v);
 1991              		.loc 1 544 0
 1992 0004 5721     		movs	r1, #87
 1993              	.LVL202:
 1994 0006 FFF7FEFF 		bl	lv_style_set_prop
 1995              	.LVL203:
 545:..\..\..\arduinoLCD\test\Pain Drain\libraries\lvgl\src\misc/lv_style_gen.c **** }
 1996              		.loc 1 545 0
 1997              		@ sp needed
 1998 000a 10BD     		pop	{r4, pc}
 1999              		.cfi_endproc
 2000              	.LFE121:
 2001              		.size	lv_style_set_text_font, .-lv_style_set_text_font
 2002              		.section	.text.lv_style_set_text_letter_space,"ax",%progbits
 2003              		.align	2
 2004              		.global	lv_style_set_text_letter_space
 2005              		.code	16
 2006              		.thumb_func
 2007              		.type	lv_style_set_text_letter_space, %function
 2008              	lv_style_set_text_letter_space:
 2009              	.LFB122:
 546:..\..\..\arduinoLCD\test\Pain Drain\libraries\lvgl\src\misc/lv_style_gen.c **** 
 547:..\..\..\arduinoLCD\test\Pain Drain\libraries\lvgl\src\misc/lv_style_gen.c **** void lv_style_set_text_letter_space(lv_style_t * style, lv_coord_t value)
 548:..\..\..\arduinoLCD\test\Pain Drain\libraries\lvgl\src\misc/lv_style_gen.c **** {
 2010              		.loc 1 548 0
 2011              		.cfi_startproc
 2012              		@ args = 0, pretend = 0, frame = 0
 2013              		@ frame_needed = 0, uses_anonymous_args = 0
 2014              	.LVL204:
 2015 0000 10B5     		push	{r4, lr}
 2016              		.cfi_def_cfa_offset 8
 2017              		.cfi_offset 4, -8
ARM GAS  C:\Users\haske\AppData\Local\Temp\ccb2zsXg.s 			page 46


 2018              		.cfi_offset 14, -4
 2019 0002 0A00     		movs	r2, r1
 549:..\..\..\arduinoLCD\test\Pain Drain\libraries\lvgl\src\misc/lv_style_gen.c ****     lv_style_value_t v = {
 550:..\..\..\arduinoLCD\test\Pain Drain\libraries\lvgl\src\misc/lv_style_gen.c ****         .num = (int32_t)value
 551:..\..\..\arduinoLCD\test\Pain Drain\libraries\lvgl\src\misc/lv_style_gen.c ****     };
 552:..\..\..\arduinoLCD\test\Pain Drain\libraries\lvgl\src\misc/lv_style_gen.c ****     lv_style_set_prop(style, LV_STYLE_TEXT_LETTER_SPACE, v);
 2020              		.loc 1 552 0
 2021 0004 5821     		movs	r1, #88
 2022              	.LVL205:
 2023 0006 FFF7FEFF 		bl	lv_style_set_prop
 2024              	.LVL206:
 553:..\..\..\arduinoLCD\test\Pain Drain\libraries\lvgl\src\misc/lv_style_gen.c **** }
 2025              		.loc 1 553 0
 2026              		@ sp needed
 2027 000a 10BD     		pop	{r4, pc}
 2028              		.cfi_endproc
 2029              	.LFE122:
 2030              		.size	lv_style_set_text_letter_space, .-lv_style_set_text_letter_space
 2031              		.section	.text.lv_style_set_text_line_space,"ax",%progbits
 2032              		.align	2
 2033              		.global	lv_style_set_text_line_space
 2034              		.code	16
 2035              		.thumb_func
 2036              		.type	lv_style_set_text_line_space, %function
 2037              	lv_style_set_text_line_space:
 2038              	.LFB123:
 554:..\..\..\arduinoLCD\test\Pain Drain\libraries\lvgl\src\misc/lv_style_gen.c **** 
 555:..\..\..\arduinoLCD\test\Pain Drain\libraries\lvgl\src\misc/lv_style_gen.c **** void lv_style_set_text_line_space(lv_style_t * style, lv_coord_t value)
 556:..\..\..\arduinoLCD\test\Pain Drain\libraries\lvgl\src\misc/lv_style_gen.c **** {
 2039              		.loc 1 556 0
 2040              		.cfi_startproc
 2041              		@ args = 0, pretend = 0, frame = 0
 2042              		@ frame_needed = 0, uses_anonymous_args = 0
 2043              	.LVL207:
 2044 0000 10B5     		push	{r4, lr}
 2045              		.cfi_def_cfa_offset 8
 2046              		.cfi_offset 4, -8
 2047              		.cfi_offset 14, -4
 2048 0002 0A00     		movs	r2, r1
 557:..\..\..\arduinoLCD\test\Pain Drain\libraries\lvgl\src\misc/lv_style_gen.c ****     lv_style_value_t v = {
 558:..\..\..\arduinoLCD\test\Pain Drain\libraries\lvgl\src\misc/lv_style_gen.c ****         .num = (int32_t)value
 559:..\..\..\arduinoLCD\test\Pain Drain\libraries\lvgl\src\misc/lv_style_gen.c ****     };
 560:..\..\..\arduinoLCD\test\Pain Drain\libraries\lvgl\src\misc/lv_style_gen.c ****     lv_style_set_prop(style, LV_STYLE_TEXT_LINE_SPACE, v);
 2049              		.loc 1 560 0
 2050 0004 5921     		movs	r1, #89
 2051              	.LVL208:
 2052 0006 FFF7FEFF 		bl	lv_style_set_prop
 2053              	.LVL209:
 561:..\..\..\arduinoLCD\test\Pain Drain\libraries\lvgl\src\misc/lv_style_gen.c **** }
 2054              		.loc 1 561 0
 2055              		@ sp needed
 2056 000a 10BD     		pop	{r4, pc}
 2057              		.cfi_endproc
 2058              	.LFE123:
 2059              		.size	lv_style_set_text_line_space, .-lv_style_set_text_line_space
 2060              		.section	.text.lv_style_set_text_decor,"ax",%progbits
 2061              		.align	2
ARM GAS  C:\Users\haske\AppData\Local\Temp\ccb2zsXg.s 			page 47


 2062              		.global	lv_style_set_text_decor
 2063              		.code	16
 2064              		.thumb_func
 2065              		.type	lv_style_set_text_decor, %function
 2066              	lv_style_set_text_decor:
 2067              	.LFB124:
 562:..\..\..\arduinoLCD\test\Pain Drain\libraries\lvgl\src\misc/lv_style_gen.c **** 
 563:..\..\..\arduinoLCD\test\Pain Drain\libraries\lvgl\src\misc/lv_style_gen.c **** void lv_style_set_text_decor(lv_style_t * style, lv_text_decor_t value)
 564:..\..\..\arduinoLCD\test\Pain Drain\libraries\lvgl\src\misc/lv_style_gen.c **** {
 2068              		.loc 1 564 0
 2069              		.cfi_startproc
 2070              		@ args = 0, pretend = 0, frame = 0
 2071              		@ frame_needed = 0, uses_anonymous_args = 0
 2072              	.LVL210:
 2073 0000 10B5     		push	{r4, lr}
 2074              		.cfi_def_cfa_offset 8
 2075              		.cfi_offset 4, -8
 2076              		.cfi_offset 14, -4
 2077 0002 0A00     		movs	r2, r1
 565:..\..\..\arduinoLCD\test\Pain Drain\libraries\lvgl\src\misc/lv_style_gen.c ****     lv_style_value_t v = {
 566:..\..\..\arduinoLCD\test\Pain Drain\libraries\lvgl\src\misc/lv_style_gen.c ****         .num = (int32_t)value
 567:..\..\..\arduinoLCD\test\Pain Drain\libraries\lvgl\src\misc/lv_style_gen.c ****     };
 568:..\..\..\arduinoLCD\test\Pain Drain\libraries\lvgl\src\misc/lv_style_gen.c ****     lv_style_set_prop(style, LV_STYLE_TEXT_DECOR, v);
 2078              		.loc 1 568 0
 2079 0004 5A21     		movs	r1, #90
 2080              	.LVL211:
 2081 0006 FFF7FEFF 		bl	lv_style_set_prop
 2082              	.LVL212:
 569:..\..\..\arduinoLCD\test\Pain Drain\libraries\lvgl\src\misc/lv_style_gen.c **** }
 2083              		.loc 1 569 0
 2084              		@ sp needed
 2085 000a 10BD     		pop	{r4, pc}
 2086              		.cfi_endproc
 2087              	.LFE124:
 2088              		.size	lv_style_set_text_decor, .-lv_style_set_text_decor
 2089              		.section	.text.lv_style_set_text_align,"ax",%progbits
 2090              		.align	2
 2091              		.global	lv_style_set_text_align
 2092              		.code	16
 2093              		.thumb_func
 2094              		.type	lv_style_set_text_align, %function
 2095              	lv_style_set_text_align:
 2096              	.LFB125:
 570:..\..\..\arduinoLCD\test\Pain Drain\libraries\lvgl\src\misc/lv_style_gen.c **** 
 571:..\..\..\arduinoLCD\test\Pain Drain\libraries\lvgl\src\misc/lv_style_gen.c **** void lv_style_set_text_align(lv_style_t * style, lv_text_align_t value)
 572:..\..\..\arduinoLCD\test\Pain Drain\libraries\lvgl\src\misc/lv_style_gen.c **** {
 2097              		.loc 1 572 0
 2098              		.cfi_startproc
 2099              		@ args = 0, pretend = 0, frame = 0
 2100              		@ frame_needed = 0, uses_anonymous_args = 0
 2101              	.LVL213:
 2102 0000 10B5     		push	{r4, lr}
 2103              		.cfi_def_cfa_offset 8
 2104              		.cfi_offset 4, -8
 2105              		.cfi_offset 14, -4
 2106 0002 0A00     		movs	r2, r1
 573:..\..\..\arduinoLCD\test\Pain Drain\libraries\lvgl\src\misc/lv_style_gen.c ****     lv_style_value_t v = {
ARM GAS  C:\Users\haske\AppData\Local\Temp\ccb2zsXg.s 			page 48


 574:..\..\..\arduinoLCD\test\Pain Drain\libraries\lvgl\src\misc/lv_style_gen.c ****         .num = (int32_t)value
 575:..\..\..\arduinoLCD\test\Pain Drain\libraries\lvgl\src\misc/lv_style_gen.c ****     };
 576:..\..\..\arduinoLCD\test\Pain Drain\libraries\lvgl\src\misc/lv_style_gen.c ****     lv_style_set_prop(style, LV_STYLE_TEXT_ALIGN, v);
 2107              		.loc 1 576 0
 2108 0004 5B21     		movs	r1, #91
 2109              	.LVL214:
 2110 0006 FFF7FEFF 		bl	lv_style_set_prop
 2111              	.LVL215:
 577:..\..\..\arduinoLCD\test\Pain Drain\libraries\lvgl\src\misc/lv_style_gen.c **** }
 2112              		.loc 1 577 0
 2113              		@ sp needed
 2114 000a 10BD     		pop	{r4, pc}
 2115              		.cfi_endproc
 2116              	.LFE125:
 2117              		.size	lv_style_set_text_align, .-lv_style_set_text_align
 2118              		.section	.text.lv_style_set_radius,"ax",%progbits
 2119              		.align	2
 2120              		.global	lv_style_set_radius
 2121              		.code	16
 2122              		.thumb_func
 2123              		.type	lv_style_set_radius, %function
 2124              	lv_style_set_radius:
 2125              	.LFB126:
 578:..\..\..\arduinoLCD\test\Pain Drain\libraries\lvgl\src\misc/lv_style_gen.c **** 
 579:..\..\..\arduinoLCD\test\Pain Drain\libraries\lvgl\src\misc/lv_style_gen.c **** void lv_style_set_radius(lv_style_t * style, lv_coord_t value)
 580:..\..\..\arduinoLCD\test\Pain Drain\libraries\lvgl\src\misc/lv_style_gen.c **** {
 2126              		.loc 1 580 0
 2127              		.cfi_startproc
 2128              		@ args = 0, pretend = 0, frame = 0
 2129              		@ frame_needed = 0, uses_anonymous_args = 0
 2130              	.LVL216:
 2131 0000 10B5     		push	{r4, lr}
 2132              		.cfi_def_cfa_offset 8
 2133              		.cfi_offset 4, -8
 2134              		.cfi_offset 14, -4
 2135 0002 0A00     		movs	r2, r1
 581:..\..\..\arduinoLCD\test\Pain Drain\libraries\lvgl\src\misc/lv_style_gen.c ****     lv_style_value_t v = {
 582:..\..\..\arduinoLCD\test\Pain Drain\libraries\lvgl\src\misc/lv_style_gen.c ****         .num = (int32_t)value
 583:..\..\..\arduinoLCD\test\Pain Drain\libraries\lvgl\src\misc/lv_style_gen.c ****     };
 584:..\..\..\arduinoLCD\test\Pain Drain\libraries\lvgl\src\misc/lv_style_gen.c ****     lv_style_set_prop(style, LV_STYLE_RADIUS, v);
 2136              		.loc 1 584 0
 2137 0004 0B21     		movs	r1, #11
 2138              	.LVL217:
 2139 0006 FFF7FEFF 		bl	lv_style_set_prop
 2140              	.LVL218:
 585:..\..\..\arduinoLCD\test\Pain Drain\libraries\lvgl\src\misc/lv_style_gen.c **** }
 2141              		.loc 1 585 0
 2142              		@ sp needed
 2143 000a 10BD     		pop	{r4, pc}
 2144              		.cfi_endproc
 2145              	.LFE126:
 2146              		.size	lv_style_set_radius, .-lv_style_set_radius
 2147              		.section	.text.lv_style_set_clip_corner,"ax",%progbits
 2148              		.align	2
 2149              		.global	lv_style_set_clip_corner
 2150              		.code	16
 2151              		.thumb_func
ARM GAS  C:\Users\haske\AppData\Local\Temp\ccb2zsXg.s 			page 49


 2152              		.type	lv_style_set_clip_corner, %function
 2153              	lv_style_set_clip_corner:
 2154              	.LFB127:
 586:..\..\..\arduinoLCD\test\Pain Drain\libraries\lvgl\src\misc/lv_style_gen.c **** 
 587:..\..\..\arduinoLCD\test\Pain Drain\libraries\lvgl\src\misc/lv_style_gen.c **** void lv_style_set_clip_corner(lv_style_t * style, bool value)
 588:..\..\..\arduinoLCD\test\Pain Drain\libraries\lvgl\src\misc/lv_style_gen.c **** {
 2155              		.loc 1 588 0
 2156              		.cfi_startproc
 2157              		@ args = 0, pretend = 0, frame = 0
 2158              		@ frame_needed = 0, uses_anonymous_args = 0
 2159              	.LVL219:
 2160 0000 10B5     		push	{r4, lr}
 2161              		.cfi_def_cfa_offset 8
 2162              		.cfi_offset 4, -8
 2163              		.cfi_offset 14, -4
 2164 0002 0A00     		movs	r2, r1
 589:..\..\..\arduinoLCD\test\Pain Drain\libraries\lvgl\src\misc/lv_style_gen.c ****     lv_style_value_t v = {
 590:..\..\..\arduinoLCD\test\Pain Drain\libraries\lvgl\src\misc/lv_style_gen.c ****         .num = (int32_t)value
 591:..\..\..\arduinoLCD\test\Pain Drain\libraries\lvgl\src\misc/lv_style_gen.c ****     };
 592:..\..\..\arduinoLCD\test\Pain Drain\libraries\lvgl\src\misc/lv_style_gen.c ****     lv_style_set_prop(style, LV_STYLE_CLIP_CORNER, v);
 2165              		.loc 1 592 0
 2166 0004 1721     		movs	r1, #23
 2167              	.LVL220:
 2168 0006 FFF7FEFF 		bl	lv_style_set_prop
 2169              	.LVL221:
 593:..\..\..\arduinoLCD\test\Pain Drain\libraries\lvgl\src\misc/lv_style_gen.c **** }
 2170              		.loc 1 593 0
 2171              		@ sp needed
 2172 000a 10BD     		pop	{r4, pc}
 2173              		.cfi_endproc
 2174              	.LFE127:
 2175              		.size	lv_style_set_clip_corner, .-lv_style_set_clip_corner
 2176              		.section	.text.lv_style_set_opa,"ax",%progbits
 2177              		.align	2
 2178              		.global	lv_style_set_opa
 2179              		.code	16
 2180              		.thumb_func
 2181              		.type	lv_style_set_opa, %function
 2182              	lv_style_set_opa:
 2183              	.LFB128:
 594:..\..\..\arduinoLCD\test\Pain Drain\libraries\lvgl\src\misc/lv_style_gen.c **** 
 595:..\..\..\arduinoLCD\test\Pain Drain\libraries\lvgl\src\misc/lv_style_gen.c **** void lv_style_set_opa(lv_style_t * style, lv_opa_t value)
 596:..\..\..\arduinoLCD\test\Pain Drain\libraries\lvgl\src\misc/lv_style_gen.c **** {
 2184              		.loc 1 596 0
 2185              		.cfi_startproc
 2186              		@ args = 0, pretend = 0, frame = 0
 2187              		@ frame_needed = 0, uses_anonymous_args = 0
 2188              	.LVL222:
 2189 0000 10B5     		push	{r4, lr}
 2190              		.cfi_def_cfa_offset 8
 2191              		.cfi_offset 4, -8
 2192              		.cfi_offset 14, -4
 2193 0002 0A00     		movs	r2, r1
 597:..\..\..\arduinoLCD\test\Pain Drain\libraries\lvgl\src\misc/lv_style_gen.c ****     lv_style_value_t v = {
 598:..\..\..\arduinoLCD\test\Pain Drain\libraries\lvgl\src\misc/lv_style_gen.c ****         .num = (int32_t)value
 599:..\..\..\arduinoLCD\test\Pain Drain\libraries\lvgl\src\misc/lv_style_gen.c ****     };
 600:..\..\..\arduinoLCD\test\Pain Drain\libraries\lvgl\src\misc/lv_style_gen.c ****     lv_style_set_prop(style, LV_STYLE_OPA, v);
ARM GAS  C:\Users\haske\AppData\Local\Temp\ccb2zsXg.s 			page 50


 2194              		.loc 1 600 0
 2195 0004 6021     		movs	r1, #96
 2196              	.LVL223:
 2197 0006 FFF7FEFF 		bl	lv_style_set_prop
 2198              	.LVL224:
 601:..\..\..\arduinoLCD\test\Pain Drain\libraries\lvgl\src\misc/lv_style_gen.c **** }
 2199              		.loc 1 601 0
 2200              		@ sp needed
 2201 000a 10BD     		pop	{r4, pc}
 2202              		.cfi_endproc
 2203              	.LFE128:
 2204              		.size	lv_style_set_opa, .-lv_style_set_opa
 2205              		.section	.text.lv_style_set_color_filter_dsc,"ax",%progbits
 2206              		.align	2
 2207              		.global	lv_style_set_color_filter_dsc
 2208              		.code	16
 2209              		.thumb_func
 2210              		.type	lv_style_set_color_filter_dsc, %function
 2211              	lv_style_set_color_filter_dsc:
 2212              	.LFB129:
 602:..\..\..\arduinoLCD\test\Pain Drain\libraries\lvgl\src\misc/lv_style_gen.c **** 
 603:..\..\..\arduinoLCD\test\Pain Drain\libraries\lvgl\src\misc/lv_style_gen.c **** void lv_style_set_color_filter_dsc(lv_style_t * style, const lv_color_filter_dsc_t * value)
 604:..\..\..\arduinoLCD\test\Pain Drain\libraries\lvgl\src\misc/lv_style_gen.c **** {
 2213              		.loc 1 604 0
 2214              		.cfi_startproc
 2215              		@ args = 0, pretend = 0, frame = 0
 2216              		@ frame_needed = 0, uses_anonymous_args = 0
 2217              	.LVL225:
 2218 0000 10B5     		push	{r4, lr}
 2219              		.cfi_def_cfa_offset 8
 2220              		.cfi_offset 4, -8
 2221              		.cfi_offset 14, -4
 2222 0002 0A00     		movs	r2, r1
 605:..\..\..\arduinoLCD\test\Pain Drain\libraries\lvgl\src\misc/lv_style_gen.c ****     lv_style_value_t v = {
 606:..\..\..\arduinoLCD\test\Pain Drain\libraries\lvgl\src\misc/lv_style_gen.c ****         .ptr = value
 607:..\..\..\arduinoLCD\test\Pain Drain\libraries\lvgl\src\misc/lv_style_gen.c ****     };
 608:..\..\..\arduinoLCD\test\Pain Drain\libraries\lvgl\src\misc/lv_style_gen.c ****     lv_style_set_prop(style, LV_STYLE_COLOR_FILTER_DSC, v);
 2223              		.loc 1 608 0
 2224 0004 6121     		movs	r1, #97
 2225              	.LVL226:
 2226 0006 FFF7FEFF 		bl	lv_style_set_prop
 2227              	.LVL227:
 609:..\..\..\arduinoLCD\test\Pain Drain\libraries\lvgl\src\misc/lv_style_gen.c **** }
 2228              		.loc 1 609 0
 2229              		@ sp needed
 2230 000a 10BD     		pop	{r4, pc}
 2231              		.cfi_endproc
 2232              	.LFE129:
 2233              		.size	lv_style_set_color_filter_dsc, .-lv_style_set_color_filter_dsc
 2234              		.section	.text.lv_style_set_color_filter_opa,"ax",%progbits
 2235              		.align	2
 2236              		.global	lv_style_set_color_filter_opa
 2237              		.code	16
 2238              		.thumb_func
 2239              		.type	lv_style_set_color_filter_opa, %function
 2240              	lv_style_set_color_filter_opa:
 2241              	.LFB130:
ARM GAS  C:\Users\haske\AppData\Local\Temp\ccb2zsXg.s 			page 51


 610:..\..\..\arduinoLCD\test\Pain Drain\libraries\lvgl\src\misc/lv_style_gen.c **** 
 611:..\..\..\arduinoLCD\test\Pain Drain\libraries\lvgl\src\misc/lv_style_gen.c **** void lv_style_set_color_filter_opa(lv_style_t * style, lv_opa_t value)
 612:..\..\..\arduinoLCD\test\Pain Drain\libraries\lvgl\src\misc/lv_style_gen.c **** {
 2242              		.loc 1 612 0
 2243              		.cfi_startproc
 2244              		@ args = 0, pretend = 0, frame = 0
 2245              		@ frame_needed = 0, uses_anonymous_args = 0
 2246              	.LVL228:
 2247 0000 10B5     		push	{r4, lr}
 2248              		.cfi_def_cfa_offset 8
 2249              		.cfi_offset 4, -8
 2250              		.cfi_offset 14, -4
 2251 0002 0A00     		movs	r2, r1
 613:..\..\..\arduinoLCD\test\Pain Drain\libraries\lvgl\src\misc/lv_style_gen.c ****     lv_style_value_t v = {
 614:..\..\..\arduinoLCD\test\Pain Drain\libraries\lvgl\src\misc/lv_style_gen.c ****         .num = (int32_t)value
 615:..\..\..\arduinoLCD\test\Pain Drain\libraries\lvgl\src\misc/lv_style_gen.c ****     };
 616:..\..\..\arduinoLCD\test\Pain Drain\libraries\lvgl\src\misc/lv_style_gen.c ****     lv_style_set_prop(style, LV_STYLE_COLOR_FILTER_OPA, v);
 2252              		.loc 1 616 0
 2253 0004 6221     		movs	r1, #98
 2254              	.LVL229:
 2255 0006 FFF7FEFF 		bl	lv_style_set_prop
 2256              	.LVL230:
 617:..\..\..\arduinoLCD\test\Pain Drain\libraries\lvgl\src\misc/lv_style_gen.c **** }
 2257              		.loc 1 617 0
 2258              		@ sp needed
 2259 000a 10BD     		pop	{r4, pc}
 2260              		.cfi_endproc
 2261              	.LFE130:
 2262              		.size	lv_style_set_color_filter_opa, .-lv_style_set_color_filter_opa
 2263              		.section	.text.lv_style_set_anim,"ax",%progbits
 2264              		.align	2
 2265              		.global	lv_style_set_anim
 2266              		.code	16
 2267              		.thumb_func
 2268              		.type	lv_style_set_anim, %function
 2269              	lv_style_set_anim:
 2270              	.LFB131:
 618:..\..\..\arduinoLCD\test\Pain Drain\libraries\lvgl\src\misc/lv_style_gen.c **** 
 619:..\..\..\arduinoLCD\test\Pain Drain\libraries\lvgl\src\misc/lv_style_gen.c **** void lv_style_set_anim(lv_style_t * style, const lv_anim_t * value)
 620:..\..\..\arduinoLCD\test\Pain Drain\libraries\lvgl\src\misc/lv_style_gen.c **** {
 2271              		.loc 1 620 0
 2272              		.cfi_startproc
 2273              		@ args = 0, pretend = 0, frame = 0
 2274              		@ frame_needed = 0, uses_anonymous_args = 0
 2275              	.LVL231:
 2276 0000 10B5     		push	{r4, lr}
 2277              		.cfi_def_cfa_offset 8
 2278              		.cfi_offset 4, -8
 2279              		.cfi_offset 14, -4
 2280 0002 0A00     		movs	r2, r1
 621:..\..\..\arduinoLCD\test\Pain Drain\libraries\lvgl\src\misc/lv_style_gen.c ****     lv_style_value_t v = {
 622:..\..\..\arduinoLCD\test\Pain Drain\libraries\lvgl\src\misc/lv_style_gen.c ****         .ptr = value
 623:..\..\..\arduinoLCD\test\Pain Drain\libraries\lvgl\src\misc/lv_style_gen.c ****     };
 624:..\..\..\arduinoLCD\test\Pain Drain\libraries\lvgl\src\misc/lv_style_gen.c ****     lv_style_set_prop(style, LV_STYLE_ANIM, v);
 2281              		.loc 1 624 0
 2282 0004 6321     		movs	r1, #99
 2283              	.LVL232:
ARM GAS  C:\Users\haske\AppData\Local\Temp\ccb2zsXg.s 			page 52


 2284 0006 FFF7FEFF 		bl	lv_style_set_prop
 2285              	.LVL233:
 625:..\..\..\arduinoLCD\test\Pain Drain\libraries\lvgl\src\misc/lv_style_gen.c **** }
 2286              		.loc 1 625 0
 2287              		@ sp needed
 2288 000a 10BD     		pop	{r4, pc}
 2289              		.cfi_endproc
 2290              	.LFE131:
 2291              		.size	lv_style_set_anim, .-lv_style_set_anim
 2292              		.section	.text.lv_style_set_anim_time,"ax",%progbits
 2293              		.align	2
 2294              		.global	lv_style_set_anim_time
 2295              		.code	16
 2296              		.thumb_func
 2297              		.type	lv_style_set_anim_time, %function
 2298              	lv_style_set_anim_time:
 2299              	.LFB132:
 626:..\..\..\arduinoLCD\test\Pain Drain\libraries\lvgl\src\misc/lv_style_gen.c **** 
 627:..\..\..\arduinoLCD\test\Pain Drain\libraries\lvgl\src\misc/lv_style_gen.c **** void lv_style_set_anim_time(lv_style_t * style, uint32_t value)
 628:..\..\..\arduinoLCD\test\Pain Drain\libraries\lvgl\src\misc/lv_style_gen.c **** {
 2300              		.loc 1 628 0
 2301              		.cfi_startproc
 2302              		@ args = 0, pretend = 0, frame = 0
 2303              		@ frame_needed = 0, uses_anonymous_args = 0
 2304              	.LVL234:
 2305 0000 10B5     		push	{r4, lr}
 2306              		.cfi_def_cfa_offset 8
 2307              		.cfi_offset 4, -8
 2308              		.cfi_offset 14, -4
 2309 0002 0A00     		movs	r2, r1
 629:..\..\..\arduinoLCD\test\Pain Drain\libraries\lvgl\src\misc/lv_style_gen.c ****     lv_style_value_t v = {
 630:..\..\..\arduinoLCD\test\Pain Drain\libraries\lvgl\src\misc/lv_style_gen.c ****         .num = (int32_t)value
 631:..\..\..\arduinoLCD\test\Pain Drain\libraries\lvgl\src\misc/lv_style_gen.c ****     };
 632:..\..\..\arduinoLCD\test\Pain Drain\libraries\lvgl\src\misc/lv_style_gen.c ****     lv_style_set_prop(style, LV_STYLE_ANIM_TIME, v);
 2310              		.loc 1 632 0
 2311 0004 6421     		movs	r1, #100
 2312              	.LVL235:
 2313 0006 FFF7FEFF 		bl	lv_style_set_prop
 2314              	.LVL236:
 633:..\..\..\arduinoLCD\test\Pain Drain\libraries\lvgl\src\misc/lv_style_gen.c **** }
 2315              		.loc 1 633 0
 2316              		@ sp needed
 2317 000a 10BD     		pop	{r4, pc}
 2318              		.cfi_endproc
 2319              	.LFE132:
 2320              		.size	lv_style_set_anim_time, .-lv_style_set_anim_time
 2321              		.section	.text.lv_style_set_anim_speed,"ax",%progbits
 2322              		.align	2
 2323              		.global	lv_style_set_anim_speed
 2324              		.code	16
 2325              		.thumb_func
 2326              		.type	lv_style_set_anim_speed, %function
 2327              	lv_style_set_anim_speed:
 2328              	.LFB133:
 634:..\..\..\arduinoLCD\test\Pain Drain\libraries\lvgl\src\misc/lv_style_gen.c **** 
 635:..\..\..\arduinoLCD\test\Pain Drain\libraries\lvgl\src\misc/lv_style_gen.c **** void lv_style_set_anim_speed(lv_style_t * style, uint32_t value)
 636:..\..\..\arduinoLCD\test\Pain Drain\libraries\lvgl\src\misc/lv_style_gen.c **** {
ARM GAS  C:\Users\haske\AppData\Local\Temp\ccb2zsXg.s 			page 53


 2329              		.loc 1 636 0
 2330              		.cfi_startproc
 2331              		@ args = 0, pretend = 0, frame = 0
 2332              		@ frame_needed = 0, uses_anonymous_args = 0
 2333              	.LVL237:
 2334 0000 10B5     		push	{r4, lr}
 2335              		.cfi_def_cfa_offset 8
 2336              		.cfi_offset 4, -8
 2337              		.cfi_offset 14, -4
 2338 0002 0A00     		movs	r2, r1
 637:..\..\..\arduinoLCD\test\Pain Drain\libraries\lvgl\src\misc/lv_style_gen.c ****     lv_style_value_t v = {
 638:..\..\..\arduinoLCD\test\Pain Drain\libraries\lvgl\src\misc/lv_style_gen.c ****         .num = (int32_t)value
 639:..\..\..\arduinoLCD\test\Pain Drain\libraries\lvgl\src\misc/lv_style_gen.c ****     };
 640:..\..\..\arduinoLCD\test\Pain Drain\libraries\lvgl\src\misc/lv_style_gen.c ****     lv_style_set_prop(style, LV_STYLE_ANIM_SPEED, v);
 2339              		.loc 1 640 0
 2340 0004 6521     		movs	r1, #101
 2341              	.LVL238:
 2342 0006 FFF7FEFF 		bl	lv_style_set_prop
 2343              	.LVL239:
 641:..\..\..\arduinoLCD\test\Pain Drain\libraries\lvgl\src\misc/lv_style_gen.c **** }
 2344              		.loc 1 641 0
 2345              		@ sp needed
 2346 000a 10BD     		pop	{r4, pc}
 2347              		.cfi_endproc
 2348              	.LFE133:
 2349              		.size	lv_style_set_anim_speed, .-lv_style_set_anim_speed
 2350              		.section	.text.lv_style_set_transition,"ax",%progbits
 2351              		.align	2
 2352              		.global	lv_style_set_transition
 2353              		.code	16
 2354              		.thumb_func
 2355              		.type	lv_style_set_transition, %function
 2356              	lv_style_set_transition:
 2357              	.LFB134:
 642:..\..\..\arduinoLCD\test\Pain Drain\libraries\lvgl\src\misc/lv_style_gen.c **** 
 643:..\..\..\arduinoLCD\test\Pain Drain\libraries\lvgl\src\misc/lv_style_gen.c **** void lv_style_set_transition(lv_style_t * style, const lv_style_transition_dsc_t * value)
 644:..\..\..\arduinoLCD\test\Pain Drain\libraries\lvgl\src\misc/lv_style_gen.c **** {
 2358              		.loc 1 644 0
 2359              		.cfi_startproc
 2360              		@ args = 0, pretend = 0, frame = 0
 2361              		@ frame_needed = 0, uses_anonymous_args = 0
 2362              	.LVL240:
 2363 0000 10B5     		push	{r4, lr}
 2364              		.cfi_def_cfa_offset 8
 2365              		.cfi_offset 4, -8
 2366              		.cfi_offset 14, -4
 2367 0002 0A00     		movs	r2, r1
 645:..\..\..\arduinoLCD\test\Pain Drain\libraries\lvgl\src\misc/lv_style_gen.c ****     lv_style_value_t v = {
 646:..\..\..\arduinoLCD\test\Pain Drain\libraries\lvgl\src\misc/lv_style_gen.c ****         .ptr = value
 647:..\..\..\arduinoLCD\test\Pain Drain\libraries\lvgl\src\misc/lv_style_gen.c ****     };
 648:..\..\..\arduinoLCD\test\Pain Drain\libraries\lvgl\src\misc/lv_style_gen.c ****     lv_style_set_prop(style, LV_STYLE_TRANSITION, v);
 2368              		.loc 1 648 0
 2369 0004 6621     		movs	r1, #102
 2370              	.LVL241:
 2371 0006 FFF7FEFF 		bl	lv_style_set_prop
 2372              	.LVL242:
 649:..\..\..\arduinoLCD\test\Pain Drain\libraries\lvgl\src\misc/lv_style_gen.c **** }
ARM GAS  C:\Users\haske\AppData\Local\Temp\ccb2zsXg.s 			page 54


 2373              		.loc 1 649 0
 2374              		@ sp needed
 2375 000a 10BD     		pop	{r4, pc}
 2376              		.cfi_endproc
 2377              	.LFE134:
 2378              		.size	lv_style_set_transition, .-lv_style_set_transition
 2379              		.section	.text.lv_style_set_blend_mode,"ax",%progbits
 2380              		.align	2
 2381              		.global	lv_style_set_blend_mode
 2382              		.code	16
 2383              		.thumb_func
 2384              		.type	lv_style_set_blend_mode, %function
 2385              	lv_style_set_blend_mode:
 2386              	.LFB135:
 650:..\..\..\arduinoLCD\test\Pain Drain\libraries\lvgl\src\misc/lv_style_gen.c **** 
 651:..\..\..\arduinoLCD\test\Pain Drain\libraries\lvgl\src\misc/lv_style_gen.c **** void lv_style_set_blend_mode(lv_style_t * style, lv_blend_mode_t value)
 652:..\..\..\arduinoLCD\test\Pain Drain\libraries\lvgl\src\misc/lv_style_gen.c **** {
 2387              		.loc 1 652 0
 2388              		.cfi_startproc
 2389              		@ args = 0, pretend = 0, frame = 0
 2390              		@ frame_needed = 0, uses_anonymous_args = 0
 2391              	.LVL243:
 2392 0000 10B5     		push	{r4, lr}
 2393              		.cfi_def_cfa_offset 8
 2394              		.cfi_offset 4, -8
 2395              		.cfi_offset 14, -4
 2396 0002 0A00     		movs	r2, r1
 653:..\..\..\arduinoLCD\test\Pain Drain\libraries\lvgl\src\misc/lv_style_gen.c ****     lv_style_value_t v = {
 654:..\..\..\arduinoLCD\test\Pain Drain\libraries\lvgl\src\misc/lv_style_gen.c ****         .num = (int32_t)value
 655:..\..\..\arduinoLCD\test\Pain Drain\libraries\lvgl\src\misc/lv_style_gen.c ****     };
 656:..\..\..\arduinoLCD\test\Pain Drain\libraries\lvgl\src\misc/lv_style_gen.c ****     lv_style_set_prop(style, LV_STYLE_BLEND_MODE, v);
 2397              		.loc 1 656 0
 2398 0004 6721     		movs	r1, #103
 2399              	.LVL244:
 2400 0006 FFF7FEFF 		bl	lv_style_set_prop
 2401              	.LVL245:
 657:..\..\..\arduinoLCD\test\Pain Drain\libraries\lvgl\src\misc/lv_style_gen.c **** }
 2402              		.loc 1 657 0
 2403              		@ sp needed
 2404 000a 10BD     		pop	{r4, pc}
 2405              		.cfi_endproc
 2406              	.LFE135:
 2407              		.size	lv_style_set_blend_mode, .-lv_style_set_blend_mode
 2408              		.section	.text.lv_style_set_layout,"ax",%progbits
 2409              		.align	2
 2410              		.global	lv_style_set_layout
 2411              		.code	16
 2412              		.thumb_func
 2413              		.type	lv_style_set_layout, %function
 2414              	lv_style_set_layout:
 2415              	.LFB136:
 658:..\..\..\arduinoLCD\test\Pain Drain\libraries\lvgl\src\misc/lv_style_gen.c **** 
 659:..\..\..\arduinoLCD\test\Pain Drain\libraries\lvgl\src\misc/lv_style_gen.c **** void lv_style_set_layout(lv_style_t * style, uint16_t value)
 660:..\..\..\arduinoLCD\test\Pain Drain\libraries\lvgl\src\misc/lv_style_gen.c **** {
 2416              		.loc 1 660 0
 2417              		.cfi_startproc
 2418              		@ args = 0, pretend = 0, frame = 0
ARM GAS  C:\Users\haske\AppData\Local\Temp\ccb2zsXg.s 			page 55


 2419              		@ frame_needed = 0, uses_anonymous_args = 0
 2420              	.LVL246:
 2421 0000 10B5     		push	{r4, lr}
 2422              		.cfi_def_cfa_offset 8
 2423              		.cfi_offset 4, -8
 2424              		.cfi_offset 14, -4
 2425 0002 0A00     		movs	r2, r1
 661:..\..\..\arduinoLCD\test\Pain Drain\libraries\lvgl\src\misc/lv_style_gen.c ****     lv_style_value_t v = {
 662:..\..\..\arduinoLCD\test\Pain Drain\libraries\lvgl\src\misc/lv_style_gen.c ****         .num = (int32_t)value
 663:..\..\..\arduinoLCD\test\Pain Drain\libraries\lvgl\src\misc/lv_style_gen.c ****     };
 664:..\..\..\arduinoLCD\test\Pain Drain\libraries\lvgl\src\misc/lv_style_gen.c ****     lv_style_set_prop(style, LV_STYLE_LAYOUT, v);
 2426              		.loc 1 664 0
 2427 0004 0A21     		movs	r1, #10
 2428              	.LVL247:
 2429 0006 FFF7FEFF 		bl	lv_style_set_prop
 2430              	.LVL248:
 665:..\..\..\arduinoLCD\test\Pain Drain\libraries\lvgl\src\misc/lv_style_gen.c **** }
 2431              		.loc 1 665 0
 2432              		@ sp needed
 2433 000a 10BD     		pop	{r4, pc}
 2434              		.cfi_endproc
 2435              	.LFE136:
 2436              		.size	lv_style_set_layout, .-lv_style_set_layout
 2437              		.section	.text.lv_style_set_base_dir,"ax",%progbits
 2438              		.align	2
 2439              		.global	lv_style_set_base_dir
 2440              		.code	16
 2441              		.thumb_func
 2442              		.type	lv_style_set_base_dir, %function
 2443              	lv_style_set_base_dir:
 2444              	.LFB137:
 666:..\..\..\arduinoLCD\test\Pain Drain\libraries\lvgl\src\misc/lv_style_gen.c **** 
 667:..\..\..\arduinoLCD\test\Pain Drain\libraries\lvgl\src\misc/lv_style_gen.c **** void lv_style_set_base_dir(lv_style_t * style, lv_base_dir_t value)
 668:..\..\..\arduinoLCD\test\Pain Drain\libraries\lvgl\src\misc/lv_style_gen.c **** {
 2445              		.loc 1 668 0
 2446              		.cfi_startproc
 2447              		@ args = 0, pretend = 0, frame = 0
 2448              		@ frame_needed = 0, uses_anonymous_args = 0
 2449              	.LVL249:
 2450 0000 10B5     		push	{r4, lr}
 2451              		.cfi_def_cfa_offset 8
 2452              		.cfi_offset 4, -8
 2453              		.cfi_offset 14, -4
 2454 0002 0A00     		movs	r2, r1
 669:..\..\..\arduinoLCD\test\Pain Drain\libraries\lvgl\src\misc/lv_style_gen.c ****     lv_style_value_t v = {
 670:..\..\..\arduinoLCD\test\Pain Drain\libraries\lvgl\src\misc/lv_style_gen.c ****         .num = (int32_t)value
 671:..\..\..\arduinoLCD\test\Pain Drain\libraries\lvgl\src\misc/lv_style_gen.c ****     };
 672:..\..\..\arduinoLCD\test\Pain Drain\libraries\lvgl\src\misc/lv_style_gen.c ****     lv_style_set_prop(style, LV_STYLE_BASE_DIR, v);
 2455              		.loc 1 672 0
 2456 0004 1621     		movs	r1, #22
 2457              	.LVL250:
 2458 0006 FFF7FEFF 		bl	lv_style_set_prop
 2459              	.LVL251:
 673:..\..\..\arduinoLCD\test\Pain Drain\libraries\lvgl\src\misc/lv_style_gen.c **** }
 2460              		.loc 1 673 0
 2461              		@ sp needed
 2462 000a 10BD     		pop	{r4, pc}
ARM GAS  C:\Users\haske\AppData\Local\Temp\ccb2zsXg.s 			page 56


 2463              		.cfi_endproc
 2464              	.LFE137:
 2465              		.size	lv_style_set_base_dir, .-lv_style_set_base_dir
 2466              		.text
 2467              	.Letext0:
 2468              		.file 2 "c:\\program files (x86)\\cypress\\psoc creator\\4.4\\psoc creator\\import\\gnu\\arm\\5.4.
 2469              		.file 3 "c:\\program files (x86)\\cypress\\psoc creator\\4.4\\psoc creator\\import\\gnu\\arm\\5.4.
 2470              		.file 4 "c:\\projects\\paindrain\\arduinolcd\\test\\pain drain\\libraries\\lvgl\\src\\misc\\lv_are
 2471              		.file 5 "..\\..\\..\\arduinoLCD\\test\\Pain Drain\\libraries\\lvgl\\src\\misc\\../font/lv_font.h"
 2472              		.file 6 "..\\..\\..\\arduinoLCD\\test\\Pain Drain\\libraries\\lvgl\\src\\misc\\lv_color.h"
 2473              		.file 7 "..\\..\\..\\arduinoLCD\\test\\Pain Drain\\libraries\\lvgl\\src\\misc\\lv_anim.h"
 2474              		.file 8 "..\\..\\..\\arduinoLCD\\test\\Pain Drain\\libraries\\lvgl\\src\\misc\\lv_txt.h"
 2475              		.file 9 "..\\..\\..\\arduinoLCD\\test\\Pain Drain\\libraries\\lvgl\\src\\misc\\lv_bidi.h"
 2476              		.file 10 "..\\..\\..\\arduinoLCD\\test\\Pain Drain\\libraries\\lvgl\\src\\misc\\lv_style.h"