ARM GAS  C:\Users\haske\AppData\Local\Temp\cc7oyVf6.s 			page 1


   1              		.syntax unified
   2              		.cpu cortex-m0plus
   3              		.fpu softvfp
   4              		.eabi_attribute 20, 1
   5              		.eabi_attribute 21, 1
   6              		.eabi_attribute 23, 3
   7              		.eabi_attribute 24, 1
   8              		.eabi_attribute 25, 1
   9              		.eabi_attribute 26, 1
  10              		.eabi_attribute 30, 1
  11              		.eabi_attribute 34, 0
  12              		.eabi_attribute 18, 4
  13              		.thumb
  14              		.syntax unified
  15              		.file	"lv_span.c"
  16              		.text
  17              	.Ltext0:
  18              		.cfi_sections	.debug_frame
  19              		.section	.text.lv_get_snippet_cnt,"ax",%progbits
  20              		.align	2
  21              		.code	16
  22              		.thumb_func
  23              		.type	lv_get_snippet_cnt, %function
  24              	lv_get_snippet_cnt:
  25              	.LFB229:
  26              		.file 1 "..\\..\\..\\arduinoLCD\\test\\Pain Drain\\libraries\\lvgl\\src\\extra\\widgets\\span\\lv_
   1:..\..\..\arduinoLCD\test\Pain Drain\libraries\lvgl\src\extra\widgets\span/lv_span.c **** /**
   2:..\..\..\arduinoLCD\test\Pain Drain\libraries\lvgl\src\extra\widgets\span/lv_span.c ****  * @file lv_span.c
   3:..\..\..\arduinoLCD\test\Pain Drain\libraries\lvgl\src\extra\widgets\span/lv_span.c ****  *
   4:..\..\..\arduinoLCD\test\Pain Drain\libraries\lvgl\src\extra\widgets\span/lv_span.c ****  */
   5:..\..\..\arduinoLCD\test\Pain Drain\libraries\lvgl\src\extra\widgets\span/lv_span.c **** 
   6:..\..\..\arduinoLCD\test\Pain Drain\libraries\lvgl\src\extra\widgets\span/lv_span.c **** /*********************
   7:..\..\..\arduinoLCD\test\Pain Drain\libraries\lvgl\src\extra\widgets\span/lv_span.c ****  *      INCLUDES
   8:..\..\..\arduinoLCD\test\Pain Drain\libraries\lvgl\src\extra\widgets\span/lv_span.c ****  *********************/
   9:..\..\..\arduinoLCD\test\Pain Drain\libraries\lvgl\src\extra\widgets\span/lv_span.c **** #include "lv_span.h"
  10:..\..\..\arduinoLCD\test\Pain Drain\libraries\lvgl\src\extra\widgets\span/lv_span.c **** 
  11:..\..\..\arduinoLCD\test\Pain Drain\libraries\lvgl\src\extra\widgets\span/lv_span.c **** #if LV_USE_SPAN != 0
  12:..\..\..\arduinoLCD\test\Pain Drain\libraries\lvgl\src\extra\widgets\span/lv_span.c **** 
  13:..\..\..\arduinoLCD\test\Pain Drain\libraries\lvgl\src\extra\widgets\span/lv_span.c **** #include "../../../misc/lv_assert.h"
  14:..\..\..\arduinoLCD\test\Pain Drain\libraries\lvgl\src\extra\widgets\span/lv_span.c **** 
  15:..\..\..\arduinoLCD\test\Pain Drain\libraries\lvgl\src\extra\widgets\span/lv_span.c **** /*********************
  16:..\..\..\arduinoLCD\test\Pain Drain\libraries\lvgl\src\extra\widgets\span/lv_span.c ****  *      DEFINES
  17:..\..\..\arduinoLCD\test\Pain Drain\libraries\lvgl\src\extra\widgets\span/lv_span.c ****  *********************/
  18:..\..\..\arduinoLCD\test\Pain Drain\libraries\lvgl\src\extra\widgets\span/lv_span.c **** #define MY_CLASS &lv_spangroup_class
  19:..\..\..\arduinoLCD\test\Pain Drain\libraries\lvgl\src\extra\widgets\span/lv_span.c **** 
  20:..\..\..\arduinoLCD\test\Pain Drain\libraries\lvgl\src\extra\widgets\span/lv_span.c **** /**********************
  21:..\..\..\arduinoLCD\test\Pain Drain\libraries\lvgl\src\extra\widgets\span/lv_span.c ****  *      TYPEDEFS
  22:..\..\..\arduinoLCD\test\Pain Drain\libraries\lvgl\src\extra\widgets\span/lv_span.c ****  **********************/
  23:..\..\..\arduinoLCD\test\Pain Drain\libraries\lvgl\src\extra\widgets\span/lv_span.c **** typedef struct {
  24:..\..\..\arduinoLCD\test\Pain Drain\libraries\lvgl\src\extra\widgets\span/lv_span.c ****     lv_span_t * span;
  25:..\..\..\arduinoLCD\test\Pain Drain\libraries\lvgl\src\extra\widgets\span/lv_span.c ****     const char * txt;
  26:..\..\..\arduinoLCD\test\Pain Drain\libraries\lvgl\src\extra\widgets\span/lv_span.c ****     const lv_font_t * font;
  27:..\..\..\arduinoLCD\test\Pain Drain\libraries\lvgl\src\extra\widgets\span/lv_span.c ****     uint16_t   bytes;
  28:..\..\..\arduinoLCD\test\Pain Drain\libraries\lvgl\src\extra\widgets\span/lv_span.c ****     lv_coord_t txt_w;
  29:..\..\..\arduinoLCD\test\Pain Drain\libraries\lvgl\src\extra\widgets\span/lv_span.c ****     lv_coord_t line_h;
  30:..\..\..\arduinoLCD\test\Pain Drain\libraries\lvgl\src\extra\widgets\span/lv_span.c ****     lv_coord_t letter_space;
  31:..\..\..\arduinoLCD\test\Pain Drain\libraries\lvgl\src\extra\widgets\span/lv_span.c **** } lv_snippet_t;
ARM GAS  C:\Users\haske\AppData\Local\Temp\cc7oyVf6.s 			page 2


  32:..\..\..\arduinoLCD\test\Pain Drain\libraries\lvgl\src\extra\widgets\span/lv_span.c **** 
  33:..\..\..\arduinoLCD\test\Pain Drain\libraries\lvgl\src\extra\widgets\span/lv_span.c **** struct _snippet_stack {
  34:..\..\..\arduinoLCD\test\Pain Drain\libraries\lvgl\src\extra\widgets\span/lv_span.c ****     lv_snippet_t    stack[LV_SPAN_SNIPPET_STACK_SIZE];
  35:..\..\..\arduinoLCD\test\Pain Drain\libraries\lvgl\src\extra\widgets\span/lv_span.c ****     uint16_t        index;
  36:..\..\..\arduinoLCD\test\Pain Drain\libraries\lvgl\src\extra\widgets\span/lv_span.c **** };
  37:..\..\..\arduinoLCD\test\Pain Drain\libraries\lvgl\src\extra\widgets\span/lv_span.c **** 
  38:..\..\..\arduinoLCD\test\Pain Drain\libraries\lvgl\src\extra\widgets\span/lv_span.c **** /**********************
  39:..\..\..\arduinoLCD\test\Pain Drain\libraries\lvgl\src\extra\widgets\span/lv_span.c ****  *  STATIC PROTOTYPES
  40:..\..\..\arduinoLCD\test\Pain Drain\libraries\lvgl\src\extra\widgets\span/lv_span.c ****  **********************/
  41:..\..\..\arduinoLCD\test\Pain Drain\libraries\lvgl\src\extra\widgets\span/lv_span.c **** static void lv_spangroup_destructor(const lv_obj_class_t * class_p, lv_obj_t * obj);
  42:..\..\..\arduinoLCD\test\Pain Drain\libraries\lvgl\src\extra\widgets\span/lv_span.c **** static void lv_spangroup_constructor(const lv_obj_class_t * class_p, lv_obj_t * obj);
  43:..\..\..\arduinoLCD\test\Pain Drain\libraries\lvgl\src\extra\widgets\span/lv_span.c **** static void lv_spangroup_event(const lv_obj_class_t * class_p, lv_event_t * e);
  44:..\..\..\arduinoLCD\test\Pain Drain\libraries\lvgl\src\extra\widgets\span/lv_span.c **** static void draw_main(lv_event_t * e);
  45:..\..\..\arduinoLCD\test\Pain Drain\libraries\lvgl\src\extra\widgets\span/lv_span.c **** static void refresh_self_size(lv_obj_t * obj);
  46:..\..\..\arduinoLCD\test\Pain Drain\libraries\lvgl\src\extra\widgets\span/lv_span.c **** 
  47:..\..\..\arduinoLCD\test\Pain Drain\libraries\lvgl\src\extra\widgets\span/lv_span.c **** static const lv_font_t * lv_span_get_style_text_font(lv_obj_t * par, lv_span_t * span);
  48:..\..\..\arduinoLCD\test\Pain Drain\libraries\lvgl\src\extra\widgets\span/lv_span.c **** static lv_coord_t lv_span_get_style_text_letter_space(lv_obj_t * par, lv_span_t * span);
  49:..\..\..\arduinoLCD\test\Pain Drain\libraries\lvgl\src\extra\widgets\span/lv_span.c **** static lv_color_t lv_span_get_style_text_color(lv_obj_t * par, lv_span_t * span);
  50:..\..\..\arduinoLCD\test\Pain Drain\libraries\lvgl\src\extra\widgets\span/lv_span.c **** static lv_opa_t lv_span_get_style_text_opa(lv_obj_t * par, lv_span_t * span);
  51:..\..\..\arduinoLCD\test\Pain Drain\libraries\lvgl\src\extra\widgets\span/lv_span.c **** static lv_opa_t lv_span_get_style_text_blend_mode(lv_obj_t * par, lv_span_t * span);
  52:..\..\..\arduinoLCD\test\Pain Drain\libraries\lvgl\src\extra\widgets\span/lv_span.c **** static int32_t lv_span_get_style_text_decor(lv_obj_t * par, lv_span_t * span);
  53:..\..\..\arduinoLCD\test\Pain Drain\libraries\lvgl\src\extra\widgets\span/lv_span.c **** 
  54:..\..\..\arduinoLCD\test\Pain Drain\libraries\lvgl\src\extra\widgets\span/lv_span.c **** static inline void span_text_check(const char ** text);
  55:..\..\..\arduinoLCD\test\Pain Drain\libraries\lvgl\src\extra\widgets\span/lv_span.c **** static void lv_draw_span(lv_obj_t * obj, lv_draw_ctx_t * draw_ctx);
  56:..\..\..\arduinoLCD\test\Pain Drain\libraries\lvgl\src\extra\widgets\span/lv_span.c **** static bool lv_txt_get_snippet(const char * txt, const lv_font_t * font, lv_coord_t letter_space,
  57:..\..\..\arduinoLCD\test\Pain Drain\libraries\lvgl\src\extra\widgets\span/lv_span.c ****                                lv_coord_t max_width, lv_text_flag_t flag, lv_coord_t * use_width,
  58:..\..\..\arduinoLCD\test\Pain Drain\libraries\lvgl\src\extra\widgets\span/lv_span.c ****                                uint32_t * end_ofs);
  59:..\..\..\arduinoLCD\test\Pain Drain\libraries\lvgl\src\extra\widgets\span/lv_span.c **** 
  60:..\..\..\arduinoLCD\test\Pain Drain\libraries\lvgl\src\extra\widgets\span/lv_span.c **** static void lv_snippet_clear(void);
  61:..\..\..\arduinoLCD\test\Pain Drain\libraries\lvgl\src\extra\widgets\span/lv_span.c **** static uint16_t lv_get_snippet_cnt(void);
  62:..\..\..\arduinoLCD\test\Pain Drain\libraries\lvgl\src\extra\widgets\span/lv_span.c **** static void lv_snippet_push(lv_snippet_t * item);
  63:..\..\..\arduinoLCD\test\Pain Drain\libraries\lvgl\src\extra\widgets\span/lv_span.c **** static lv_snippet_t * lv_get_snippet(uint16_t index);
  64:..\..\..\arduinoLCD\test\Pain Drain\libraries\lvgl\src\extra\widgets\span/lv_span.c **** static lv_coord_t convert_indent_pct(lv_obj_t * spans, lv_coord_t width);
  65:..\..\..\arduinoLCD\test\Pain Drain\libraries\lvgl\src\extra\widgets\span/lv_span.c **** 
  66:..\..\..\arduinoLCD\test\Pain Drain\libraries\lvgl\src\extra\widgets\span/lv_span.c **** /**********************
  67:..\..\..\arduinoLCD\test\Pain Drain\libraries\lvgl\src\extra\widgets\span/lv_span.c ****  *  STATIC VARIABLES
  68:..\..\..\arduinoLCD\test\Pain Drain\libraries\lvgl\src\extra\widgets\span/lv_span.c ****  **********************/
  69:..\..\..\arduinoLCD\test\Pain Drain\libraries\lvgl\src\extra\widgets\span/lv_span.c **** static struct _snippet_stack snippet_stack;
  70:..\..\..\arduinoLCD\test\Pain Drain\libraries\lvgl\src\extra\widgets\span/lv_span.c **** 
  71:..\..\..\arduinoLCD\test\Pain Drain\libraries\lvgl\src\extra\widgets\span/lv_span.c **** const lv_obj_class_t lv_spangroup_class  = {
  72:..\..\..\arduinoLCD\test\Pain Drain\libraries\lvgl\src\extra\widgets\span/lv_span.c ****     .base_class = &lv_obj_class,
  73:..\..\..\arduinoLCD\test\Pain Drain\libraries\lvgl\src\extra\widgets\span/lv_span.c ****     .constructor_cb = lv_spangroup_constructor,
  74:..\..\..\arduinoLCD\test\Pain Drain\libraries\lvgl\src\extra\widgets\span/lv_span.c ****     .destructor_cb = lv_spangroup_destructor,
  75:..\..\..\arduinoLCD\test\Pain Drain\libraries\lvgl\src\extra\widgets\span/lv_span.c ****     .event_cb = lv_spangroup_event,
  76:..\..\..\arduinoLCD\test\Pain Drain\libraries\lvgl\src\extra\widgets\span/lv_span.c ****     .instance_size = sizeof(lv_spangroup_t),
  77:..\..\..\arduinoLCD\test\Pain Drain\libraries\lvgl\src\extra\widgets\span/lv_span.c ****     .width_def = LV_SIZE_CONTENT,
  78:..\..\..\arduinoLCD\test\Pain Drain\libraries\lvgl\src\extra\widgets\span/lv_span.c ****     .height_def = LV_SIZE_CONTENT,
  79:..\..\..\arduinoLCD\test\Pain Drain\libraries\lvgl\src\extra\widgets\span/lv_span.c **** };
  80:..\..\..\arduinoLCD\test\Pain Drain\libraries\lvgl\src\extra\widgets\span/lv_span.c **** 
  81:..\..\..\arduinoLCD\test\Pain Drain\libraries\lvgl\src\extra\widgets\span/lv_span.c **** /**********************
  82:..\..\..\arduinoLCD\test\Pain Drain\libraries\lvgl\src\extra\widgets\span/lv_span.c ****  *      MACROS
  83:..\..\..\arduinoLCD\test\Pain Drain\libraries\lvgl\src\extra\widgets\span/lv_span.c ****  **********************/
  84:..\..\..\arduinoLCD\test\Pain Drain\libraries\lvgl\src\extra\widgets\span/lv_span.c **** 
  85:..\..\..\arduinoLCD\test\Pain Drain\libraries\lvgl\src\extra\widgets\span/lv_span.c **** /**********************
  86:..\..\..\arduinoLCD\test\Pain Drain\libraries\lvgl\src\extra\widgets\span/lv_span.c ****  *   GLOBAL FUNCTIONS
  87:..\..\..\arduinoLCD\test\Pain Drain\libraries\lvgl\src\extra\widgets\span/lv_span.c ****  **********************/
  88:..\..\..\arduinoLCD\test\Pain Drain\libraries\lvgl\src\extra\widgets\span/lv_span.c **** 
ARM GAS  C:\Users\haske\AppData\Local\Temp\cc7oyVf6.s 			page 3


  89:..\..\..\arduinoLCD\test\Pain Drain\libraries\lvgl\src\extra\widgets\span/lv_span.c **** lv_obj_t * lv_spangroup_create(lv_obj_t * par)
  90:..\..\..\arduinoLCD\test\Pain Drain\libraries\lvgl\src\extra\widgets\span/lv_span.c **** {
  91:..\..\..\arduinoLCD\test\Pain Drain\libraries\lvgl\src\extra\widgets\span/lv_span.c ****     lv_obj_t * obj = lv_obj_class_create_obj(&lv_spangroup_class, par);
  92:..\..\..\arduinoLCD\test\Pain Drain\libraries\lvgl\src\extra\widgets\span/lv_span.c ****     lv_obj_class_init_obj(obj);
  93:..\..\..\arduinoLCD\test\Pain Drain\libraries\lvgl\src\extra\widgets\span/lv_span.c ****     return obj;
  94:..\..\..\arduinoLCD\test\Pain Drain\libraries\lvgl\src\extra\widgets\span/lv_span.c **** }
  95:..\..\..\arduinoLCD\test\Pain Drain\libraries\lvgl\src\extra\widgets\span/lv_span.c **** 
  96:..\..\..\arduinoLCD\test\Pain Drain\libraries\lvgl\src\extra\widgets\span/lv_span.c **** lv_span_t * lv_spangroup_new_span(lv_obj_t * obj)
  97:..\..\..\arduinoLCD\test\Pain Drain\libraries\lvgl\src\extra\widgets\span/lv_span.c **** {
  98:..\..\..\arduinoLCD\test\Pain Drain\libraries\lvgl\src\extra\widgets\span/lv_span.c ****     if(obj == NULL) {
  99:..\..\..\arduinoLCD\test\Pain Drain\libraries\lvgl\src\extra\widgets\span/lv_span.c ****         return NULL;
 100:..\..\..\arduinoLCD\test\Pain Drain\libraries\lvgl\src\extra\widgets\span/lv_span.c ****     }
 101:..\..\..\arduinoLCD\test\Pain Drain\libraries\lvgl\src\extra\widgets\span/lv_span.c **** 
 102:..\..\..\arduinoLCD\test\Pain Drain\libraries\lvgl\src\extra\widgets\span/lv_span.c ****     LV_ASSERT_OBJ(obj, MY_CLASS);
 103:..\..\..\arduinoLCD\test\Pain Drain\libraries\lvgl\src\extra\widgets\span/lv_span.c ****     lv_spangroup_t * spans = (lv_spangroup_t *)obj;
 104:..\..\..\arduinoLCD\test\Pain Drain\libraries\lvgl\src\extra\widgets\span/lv_span.c ****     lv_span_t * span = _lv_ll_ins_tail(&spans->child_ll);
 105:..\..\..\arduinoLCD\test\Pain Drain\libraries\lvgl\src\extra\widgets\span/lv_span.c ****     LV_ASSERT_MALLOC(span);
 106:..\..\..\arduinoLCD\test\Pain Drain\libraries\lvgl\src\extra\widgets\span/lv_span.c **** 
 107:..\..\..\arduinoLCD\test\Pain Drain\libraries\lvgl\src\extra\widgets\span/lv_span.c ****     lv_style_init(&span->style);
 108:..\..\..\arduinoLCD\test\Pain Drain\libraries\lvgl\src\extra\widgets\span/lv_span.c ****     span->txt = (char *)"";
 109:..\..\..\arduinoLCD\test\Pain Drain\libraries\lvgl\src\extra\widgets\span/lv_span.c ****     span->static_flag = 1;
 110:..\..\..\arduinoLCD\test\Pain Drain\libraries\lvgl\src\extra\widgets\span/lv_span.c ****     span->spangroup = obj;
 111:..\..\..\arduinoLCD\test\Pain Drain\libraries\lvgl\src\extra\widgets\span/lv_span.c **** 
 112:..\..\..\arduinoLCD\test\Pain Drain\libraries\lvgl\src\extra\widgets\span/lv_span.c ****     refresh_self_size(obj);
 113:..\..\..\arduinoLCD\test\Pain Drain\libraries\lvgl\src\extra\widgets\span/lv_span.c **** 
 114:..\..\..\arduinoLCD\test\Pain Drain\libraries\lvgl\src\extra\widgets\span/lv_span.c ****     return span;
 115:..\..\..\arduinoLCD\test\Pain Drain\libraries\lvgl\src\extra\widgets\span/lv_span.c **** }
 116:..\..\..\arduinoLCD\test\Pain Drain\libraries\lvgl\src\extra\widgets\span/lv_span.c **** 
 117:..\..\..\arduinoLCD\test\Pain Drain\libraries\lvgl\src\extra\widgets\span/lv_span.c **** void lv_spangroup_del_span(lv_obj_t * obj, lv_span_t * span)
 118:..\..\..\arduinoLCD\test\Pain Drain\libraries\lvgl\src\extra\widgets\span/lv_span.c **** {
 119:..\..\..\arduinoLCD\test\Pain Drain\libraries\lvgl\src\extra\widgets\span/lv_span.c ****     if(obj == NULL || span == NULL) {
 120:..\..\..\arduinoLCD\test\Pain Drain\libraries\lvgl\src\extra\widgets\span/lv_span.c ****         return;
 121:..\..\..\arduinoLCD\test\Pain Drain\libraries\lvgl\src\extra\widgets\span/lv_span.c ****     }
 122:..\..\..\arduinoLCD\test\Pain Drain\libraries\lvgl\src\extra\widgets\span/lv_span.c **** 
 123:..\..\..\arduinoLCD\test\Pain Drain\libraries\lvgl\src\extra\widgets\span/lv_span.c ****     LV_ASSERT_OBJ(obj, MY_CLASS);
 124:..\..\..\arduinoLCD\test\Pain Drain\libraries\lvgl\src\extra\widgets\span/lv_span.c ****     lv_spangroup_t * spans = (lv_spangroup_t *)obj;
 125:..\..\..\arduinoLCD\test\Pain Drain\libraries\lvgl\src\extra\widgets\span/lv_span.c ****     lv_span_t * cur_span;
 126:..\..\..\arduinoLCD\test\Pain Drain\libraries\lvgl\src\extra\widgets\span/lv_span.c ****     _LV_LL_READ(&spans->child_ll, cur_span) {
 127:..\..\..\arduinoLCD\test\Pain Drain\libraries\lvgl\src\extra\widgets\span/lv_span.c ****         if(cur_span == span) {
 128:..\..\..\arduinoLCD\test\Pain Drain\libraries\lvgl\src\extra\widgets\span/lv_span.c ****             _lv_ll_remove(&spans->child_ll, cur_span);
 129:..\..\..\arduinoLCD\test\Pain Drain\libraries\lvgl\src\extra\widgets\span/lv_span.c ****             if(cur_span->txt && cur_span->static_flag == 0) {
 130:..\..\..\arduinoLCD\test\Pain Drain\libraries\lvgl\src\extra\widgets\span/lv_span.c ****                 lv_mem_free(cur_span->txt);
 131:..\..\..\arduinoLCD\test\Pain Drain\libraries\lvgl\src\extra\widgets\span/lv_span.c ****             }
 132:..\..\..\arduinoLCD\test\Pain Drain\libraries\lvgl\src\extra\widgets\span/lv_span.c ****             lv_style_reset(&cur_span->style);
 133:..\..\..\arduinoLCD\test\Pain Drain\libraries\lvgl\src\extra\widgets\span/lv_span.c ****             lv_mem_free(cur_span);
 134:..\..\..\arduinoLCD\test\Pain Drain\libraries\lvgl\src\extra\widgets\span/lv_span.c ****             break;
 135:..\..\..\arduinoLCD\test\Pain Drain\libraries\lvgl\src\extra\widgets\span/lv_span.c ****         }
 136:..\..\..\arduinoLCD\test\Pain Drain\libraries\lvgl\src\extra\widgets\span/lv_span.c ****     }
 137:..\..\..\arduinoLCD\test\Pain Drain\libraries\lvgl\src\extra\widgets\span/lv_span.c **** 
 138:..\..\..\arduinoLCD\test\Pain Drain\libraries\lvgl\src\extra\widgets\span/lv_span.c ****     refresh_self_size(obj);
 139:..\..\..\arduinoLCD\test\Pain Drain\libraries\lvgl\src\extra\widgets\span/lv_span.c **** }
 140:..\..\..\arduinoLCD\test\Pain Drain\libraries\lvgl\src\extra\widgets\span/lv_span.c **** 
 141:..\..\..\arduinoLCD\test\Pain Drain\libraries\lvgl\src\extra\widgets\span/lv_span.c **** /*=====================
 142:..\..\..\arduinoLCD\test\Pain Drain\libraries\lvgl\src\extra\widgets\span/lv_span.c ****  * Setter functions
 143:..\..\..\arduinoLCD\test\Pain Drain\libraries\lvgl\src\extra\widgets\span/lv_span.c ****  *====================*/
 144:..\..\..\arduinoLCD\test\Pain Drain\libraries\lvgl\src\extra\widgets\span/lv_span.c **** 
 145:..\..\..\arduinoLCD\test\Pain Drain\libraries\lvgl\src\extra\widgets\span/lv_span.c **** void lv_span_set_text(lv_span_t * span, const char * text)
ARM GAS  C:\Users\haske\AppData\Local\Temp\cc7oyVf6.s 			page 4


 146:..\..\..\arduinoLCD\test\Pain Drain\libraries\lvgl\src\extra\widgets\span/lv_span.c **** {
 147:..\..\..\arduinoLCD\test\Pain Drain\libraries\lvgl\src\extra\widgets\span/lv_span.c ****     if(span == NULL || text == NULL) {
 148:..\..\..\arduinoLCD\test\Pain Drain\libraries\lvgl\src\extra\widgets\span/lv_span.c ****         return;
 149:..\..\..\arduinoLCD\test\Pain Drain\libraries\lvgl\src\extra\widgets\span/lv_span.c ****     }
 150:..\..\..\arduinoLCD\test\Pain Drain\libraries\lvgl\src\extra\widgets\span/lv_span.c **** 
 151:..\..\..\arduinoLCD\test\Pain Drain\libraries\lvgl\src\extra\widgets\span/lv_span.c ****     if(span->txt == NULL || span->static_flag == 1) {
 152:..\..\..\arduinoLCD\test\Pain Drain\libraries\lvgl\src\extra\widgets\span/lv_span.c ****         span->txt = lv_mem_alloc(strlen(text) + 1);
 153:..\..\..\arduinoLCD\test\Pain Drain\libraries\lvgl\src\extra\widgets\span/lv_span.c ****     }
 154:..\..\..\arduinoLCD\test\Pain Drain\libraries\lvgl\src\extra\widgets\span/lv_span.c ****     else {
 155:..\..\..\arduinoLCD\test\Pain Drain\libraries\lvgl\src\extra\widgets\span/lv_span.c ****         span->txt = lv_mem_realloc(span->txt, strlen(text) + 1);
 156:..\..\..\arduinoLCD\test\Pain Drain\libraries\lvgl\src\extra\widgets\span/lv_span.c ****     }
 157:..\..\..\arduinoLCD\test\Pain Drain\libraries\lvgl\src\extra\widgets\span/lv_span.c ****     span->static_flag = 0;
 158:..\..\..\arduinoLCD\test\Pain Drain\libraries\lvgl\src\extra\widgets\span/lv_span.c ****     strcpy(span->txt, text);
 159:..\..\..\arduinoLCD\test\Pain Drain\libraries\lvgl\src\extra\widgets\span/lv_span.c **** 
 160:..\..\..\arduinoLCD\test\Pain Drain\libraries\lvgl\src\extra\widgets\span/lv_span.c ****     refresh_self_size(span->spangroup);
 161:..\..\..\arduinoLCD\test\Pain Drain\libraries\lvgl\src\extra\widgets\span/lv_span.c **** }
 162:..\..\..\arduinoLCD\test\Pain Drain\libraries\lvgl\src\extra\widgets\span/lv_span.c **** 
 163:..\..\..\arduinoLCD\test\Pain Drain\libraries\lvgl\src\extra\widgets\span/lv_span.c **** void lv_span_set_text_static(lv_span_t * span, const char * text)
 164:..\..\..\arduinoLCD\test\Pain Drain\libraries\lvgl\src\extra\widgets\span/lv_span.c **** {
 165:..\..\..\arduinoLCD\test\Pain Drain\libraries\lvgl\src\extra\widgets\span/lv_span.c ****     if(span == NULL || text == NULL) {
 166:..\..\..\arduinoLCD\test\Pain Drain\libraries\lvgl\src\extra\widgets\span/lv_span.c ****         return;
 167:..\..\..\arduinoLCD\test\Pain Drain\libraries\lvgl\src\extra\widgets\span/lv_span.c ****     }
 168:..\..\..\arduinoLCD\test\Pain Drain\libraries\lvgl\src\extra\widgets\span/lv_span.c **** 
 169:..\..\..\arduinoLCD\test\Pain Drain\libraries\lvgl\src\extra\widgets\span/lv_span.c ****     if(span->txt && span->static_flag == 0) {
 170:..\..\..\arduinoLCD\test\Pain Drain\libraries\lvgl\src\extra\widgets\span/lv_span.c ****         lv_mem_free(span->txt);
 171:..\..\..\arduinoLCD\test\Pain Drain\libraries\lvgl\src\extra\widgets\span/lv_span.c ****     }
 172:..\..\..\arduinoLCD\test\Pain Drain\libraries\lvgl\src\extra\widgets\span/lv_span.c ****     span->static_flag = 1;
 173:..\..\..\arduinoLCD\test\Pain Drain\libraries\lvgl\src\extra\widgets\span/lv_span.c ****     span->txt = (char *)text;
 174:..\..\..\arduinoLCD\test\Pain Drain\libraries\lvgl\src\extra\widgets\span/lv_span.c **** 
 175:..\..\..\arduinoLCD\test\Pain Drain\libraries\lvgl\src\extra\widgets\span/lv_span.c ****     refresh_self_size(span->spangroup);
 176:..\..\..\arduinoLCD\test\Pain Drain\libraries\lvgl\src\extra\widgets\span/lv_span.c **** }
 177:..\..\..\arduinoLCD\test\Pain Drain\libraries\lvgl\src\extra\widgets\span/lv_span.c **** 
 178:..\..\..\arduinoLCD\test\Pain Drain\libraries\lvgl\src\extra\widgets\span/lv_span.c **** void lv_spangroup_set_align(lv_obj_t * obj, lv_text_align_t align)
 179:..\..\..\arduinoLCD\test\Pain Drain\libraries\lvgl\src\extra\widgets\span/lv_span.c **** {
 180:..\..\..\arduinoLCD\test\Pain Drain\libraries\lvgl\src\extra\widgets\span/lv_span.c ****     lv_obj_set_style_text_align(obj, align, LV_PART_MAIN);
 181:..\..\..\arduinoLCD\test\Pain Drain\libraries\lvgl\src\extra\widgets\span/lv_span.c **** }
 182:..\..\..\arduinoLCD\test\Pain Drain\libraries\lvgl\src\extra\widgets\span/lv_span.c **** 
 183:..\..\..\arduinoLCD\test\Pain Drain\libraries\lvgl\src\extra\widgets\span/lv_span.c **** void lv_spangroup_set_overflow(lv_obj_t * obj, lv_span_overflow_t overflow)
 184:..\..\..\arduinoLCD\test\Pain Drain\libraries\lvgl\src\extra\widgets\span/lv_span.c **** {
 185:..\..\..\arduinoLCD\test\Pain Drain\libraries\lvgl\src\extra\widgets\span/lv_span.c ****     LV_ASSERT_OBJ(obj, MY_CLASS);
 186:..\..\..\arduinoLCD\test\Pain Drain\libraries\lvgl\src\extra\widgets\span/lv_span.c ****     lv_spangroup_t * spans = (lv_spangroup_t *)obj;
 187:..\..\..\arduinoLCD\test\Pain Drain\libraries\lvgl\src\extra\widgets\span/lv_span.c ****     if(spans->overflow == overflow) return;
 188:..\..\..\arduinoLCD\test\Pain Drain\libraries\lvgl\src\extra\widgets\span/lv_span.c **** 
 189:..\..\..\arduinoLCD\test\Pain Drain\libraries\lvgl\src\extra\widgets\span/lv_span.c ****     spans->overflow = overflow;
 190:..\..\..\arduinoLCD\test\Pain Drain\libraries\lvgl\src\extra\widgets\span/lv_span.c ****     lv_obj_invalidate(obj);
 191:..\..\..\arduinoLCD\test\Pain Drain\libraries\lvgl\src\extra\widgets\span/lv_span.c **** }
 192:..\..\..\arduinoLCD\test\Pain Drain\libraries\lvgl\src\extra\widgets\span/lv_span.c **** 
 193:..\..\..\arduinoLCD\test\Pain Drain\libraries\lvgl\src\extra\widgets\span/lv_span.c **** void lv_spangroup_set_indent(lv_obj_t * obj, lv_coord_t indent)
 194:..\..\..\arduinoLCD\test\Pain Drain\libraries\lvgl\src\extra\widgets\span/lv_span.c **** {
 195:..\..\..\arduinoLCD\test\Pain Drain\libraries\lvgl\src\extra\widgets\span/lv_span.c ****     LV_ASSERT_OBJ(obj, MY_CLASS);
 196:..\..\..\arduinoLCD\test\Pain Drain\libraries\lvgl\src\extra\widgets\span/lv_span.c ****     lv_spangroup_t * spans = (lv_spangroup_t *)obj;
 197:..\..\..\arduinoLCD\test\Pain Drain\libraries\lvgl\src\extra\widgets\span/lv_span.c ****     if(spans->indent == indent) return;
 198:..\..\..\arduinoLCD\test\Pain Drain\libraries\lvgl\src\extra\widgets\span/lv_span.c **** 
 199:..\..\..\arduinoLCD\test\Pain Drain\libraries\lvgl\src\extra\widgets\span/lv_span.c ****     spans->indent = indent;
 200:..\..\..\arduinoLCD\test\Pain Drain\libraries\lvgl\src\extra\widgets\span/lv_span.c **** 
 201:..\..\..\arduinoLCD\test\Pain Drain\libraries\lvgl\src\extra\widgets\span/lv_span.c ****     refresh_self_size(obj);
 202:..\..\..\arduinoLCD\test\Pain Drain\libraries\lvgl\src\extra\widgets\span/lv_span.c **** }
ARM GAS  C:\Users\haske\AppData\Local\Temp\cc7oyVf6.s 			page 5


 203:..\..\..\arduinoLCD\test\Pain Drain\libraries\lvgl\src\extra\widgets\span/lv_span.c **** 
 204:..\..\..\arduinoLCD\test\Pain Drain\libraries\lvgl\src\extra\widgets\span/lv_span.c **** void lv_spangroup_set_mode(lv_obj_t * obj, lv_span_mode_t mode)
 205:..\..\..\arduinoLCD\test\Pain Drain\libraries\lvgl\src\extra\widgets\span/lv_span.c **** {
 206:..\..\..\arduinoLCD\test\Pain Drain\libraries\lvgl\src\extra\widgets\span/lv_span.c ****     LV_ASSERT_OBJ(obj, MY_CLASS);
 207:..\..\..\arduinoLCD\test\Pain Drain\libraries\lvgl\src\extra\widgets\span/lv_span.c ****     lv_spangroup_t * spans = (lv_spangroup_t *)obj;
 208:..\..\..\arduinoLCD\test\Pain Drain\libraries\lvgl\src\extra\widgets\span/lv_span.c ****     spans->mode = mode;
 209:..\..\..\arduinoLCD\test\Pain Drain\libraries\lvgl\src\extra\widgets\span/lv_span.c ****     lv_spangroup_refr_mode(obj);
 210:..\..\..\arduinoLCD\test\Pain Drain\libraries\lvgl\src\extra\widgets\span/lv_span.c **** }
 211:..\..\..\arduinoLCD\test\Pain Drain\libraries\lvgl\src\extra\widgets\span/lv_span.c **** 
 212:..\..\..\arduinoLCD\test\Pain Drain\libraries\lvgl\src\extra\widgets\span/lv_span.c **** void lv_spangroup_set_lines(lv_obj_t * obj, int32_t lines)
 213:..\..\..\arduinoLCD\test\Pain Drain\libraries\lvgl\src\extra\widgets\span/lv_span.c **** {
 214:..\..\..\arduinoLCD\test\Pain Drain\libraries\lvgl\src\extra\widgets\span/lv_span.c ****     LV_ASSERT_OBJ(obj, MY_CLASS);
 215:..\..\..\arduinoLCD\test\Pain Drain\libraries\lvgl\src\extra\widgets\span/lv_span.c ****     lv_spangroup_t * spans = (lv_spangroup_t *)obj;
 216:..\..\..\arduinoLCD\test\Pain Drain\libraries\lvgl\src\extra\widgets\span/lv_span.c ****     spans->lines = lines;
 217:..\..\..\arduinoLCD\test\Pain Drain\libraries\lvgl\src\extra\widgets\span/lv_span.c ****     lv_spangroup_refr_mode(obj);
 218:..\..\..\arduinoLCD\test\Pain Drain\libraries\lvgl\src\extra\widgets\span/lv_span.c **** }
 219:..\..\..\arduinoLCD\test\Pain Drain\libraries\lvgl\src\extra\widgets\span/lv_span.c **** 
 220:..\..\..\arduinoLCD\test\Pain Drain\libraries\lvgl\src\extra\widgets\span/lv_span.c **** /*=====================
 221:..\..\..\arduinoLCD\test\Pain Drain\libraries\lvgl\src\extra\widgets\span/lv_span.c ****  * Getter functions
 222:..\..\..\arduinoLCD\test\Pain Drain\libraries\lvgl\src\extra\widgets\span/lv_span.c ****  *====================*/
 223:..\..\..\arduinoLCD\test\Pain Drain\libraries\lvgl\src\extra\widgets\span/lv_span.c **** 
 224:..\..\..\arduinoLCD\test\Pain Drain\libraries\lvgl\src\extra\widgets\span/lv_span.c **** lv_span_t * lv_spangroup_get_child(const lv_obj_t * obj, int32_t id)
 225:..\..\..\arduinoLCD\test\Pain Drain\libraries\lvgl\src\extra\widgets\span/lv_span.c **** {
 226:..\..\..\arduinoLCD\test\Pain Drain\libraries\lvgl\src\extra\widgets\span/lv_span.c ****     if(obj == NULL) {
 227:..\..\..\arduinoLCD\test\Pain Drain\libraries\lvgl\src\extra\widgets\span/lv_span.c ****         return NULL;
 228:..\..\..\arduinoLCD\test\Pain Drain\libraries\lvgl\src\extra\widgets\span/lv_span.c ****     }
 229:..\..\..\arduinoLCD\test\Pain Drain\libraries\lvgl\src\extra\widgets\span/lv_span.c **** 
 230:..\..\..\arduinoLCD\test\Pain Drain\libraries\lvgl\src\extra\widgets\span/lv_span.c ****     LV_ASSERT_OBJ(obj, MY_CLASS);
 231:..\..\..\arduinoLCD\test\Pain Drain\libraries\lvgl\src\extra\widgets\span/lv_span.c ****     lv_spangroup_t * spans = (lv_spangroup_t *)obj;
 232:..\..\..\arduinoLCD\test\Pain Drain\libraries\lvgl\src\extra\widgets\span/lv_span.c ****     lv_ll_t * linked_list = &spans->child_ll;
 233:..\..\..\arduinoLCD\test\Pain Drain\libraries\lvgl\src\extra\widgets\span/lv_span.c **** 
 234:..\..\..\arduinoLCD\test\Pain Drain\libraries\lvgl\src\extra\widgets\span/lv_span.c ****     bool traverse_forwards = (id >= 0);
 235:..\..\..\arduinoLCD\test\Pain Drain\libraries\lvgl\src\extra\widgets\span/lv_span.c ****     int32_t cur_idx = 0;
 236:..\..\..\arduinoLCD\test\Pain Drain\libraries\lvgl\src\extra\widgets\span/lv_span.c ****     lv_ll_node_t * cur_node = linked_list->head;
 237:..\..\..\arduinoLCD\test\Pain Drain\libraries\lvgl\src\extra\widgets\span/lv_span.c **** 
 238:..\..\..\arduinoLCD\test\Pain Drain\libraries\lvgl\src\extra\widgets\span/lv_span.c ****     /*If using a negative index, start from the tail and use cur -1 to indicate the end*/
 239:..\..\..\arduinoLCD\test\Pain Drain\libraries\lvgl\src\extra\widgets\span/lv_span.c ****     if(!traverse_forwards) {
 240:..\..\..\arduinoLCD\test\Pain Drain\libraries\lvgl\src\extra\widgets\span/lv_span.c ****         cur_idx = -1;
 241:..\..\..\arduinoLCD\test\Pain Drain\libraries\lvgl\src\extra\widgets\span/lv_span.c ****         cur_node = linked_list->tail;
 242:..\..\..\arduinoLCD\test\Pain Drain\libraries\lvgl\src\extra\widgets\span/lv_span.c ****     }
 243:..\..\..\arduinoLCD\test\Pain Drain\libraries\lvgl\src\extra\widgets\span/lv_span.c **** 
 244:..\..\..\arduinoLCD\test\Pain Drain\libraries\lvgl\src\extra\widgets\span/lv_span.c ****     while(cur_node != NULL) {
 245:..\..\..\arduinoLCD\test\Pain Drain\libraries\lvgl\src\extra\widgets\span/lv_span.c ****         if(cur_idx == id) {
 246:..\..\..\arduinoLCD\test\Pain Drain\libraries\lvgl\src\extra\widgets\span/lv_span.c ****             return (lv_span_t *) cur_node;
 247:..\..\..\arduinoLCD\test\Pain Drain\libraries\lvgl\src\extra\widgets\span/lv_span.c ****         }
 248:..\..\..\arduinoLCD\test\Pain Drain\libraries\lvgl\src\extra\widgets\span/lv_span.c ****         if(traverse_forwards) {
 249:..\..\..\arduinoLCD\test\Pain Drain\libraries\lvgl\src\extra\widgets\span/lv_span.c ****             cur_node = (lv_ll_node_t *) _lv_ll_get_next(linked_list, cur_node);
 250:..\..\..\arduinoLCD\test\Pain Drain\libraries\lvgl\src\extra\widgets\span/lv_span.c ****             cur_idx++;
 251:..\..\..\arduinoLCD\test\Pain Drain\libraries\lvgl\src\extra\widgets\span/lv_span.c ****         }
 252:..\..\..\arduinoLCD\test\Pain Drain\libraries\lvgl\src\extra\widgets\span/lv_span.c ****         else {
 253:..\..\..\arduinoLCD\test\Pain Drain\libraries\lvgl\src\extra\widgets\span/lv_span.c ****             cur_node = (lv_ll_node_t *) _lv_ll_get_prev(linked_list, cur_node);
 254:..\..\..\arduinoLCD\test\Pain Drain\libraries\lvgl\src\extra\widgets\span/lv_span.c ****             cur_idx--;
 255:..\..\..\arduinoLCD\test\Pain Drain\libraries\lvgl\src\extra\widgets\span/lv_span.c ****         }
 256:..\..\..\arduinoLCD\test\Pain Drain\libraries\lvgl\src\extra\widgets\span/lv_span.c ****     }
 257:..\..\..\arduinoLCD\test\Pain Drain\libraries\lvgl\src\extra\widgets\span/lv_span.c **** 
 258:..\..\..\arduinoLCD\test\Pain Drain\libraries\lvgl\src\extra\widgets\span/lv_span.c ****     return NULL;
 259:..\..\..\arduinoLCD\test\Pain Drain\libraries\lvgl\src\extra\widgets\span/lv_span.c **** }
ARM GAS  C:\Users\haske\AppData\Local\Temp\cc7oyVf6.s 			page 6


 260:..\..\..\arduinoLCD\test\Pain Drain\libraries\lvgl\src\extra\widgets\span/lv_span.c **** 
 261:..\..\..\arduinoLCD\test\Pain Drain\libraries\lvgl\src\extra\widgets\span/lv_span.c **** uint32_t lv_spangroup_get_child_cnt(const lv_obj_t * obj)
 262:..\..\..\arduinoLCD\test\Pain Drain\libraries\lvgl\src\extra\widgets\span/lv_span.c **** {
 263:..\..\..\arduinoLCD\test\Pain Drain\libraries\lvgl\src\extra\widgets\span/lv_span.c ****     LV_ASSERT_OBJ(obj, MY_CLASS);
 264:..\..\..\arduinoLCD\test\Pain Drain\libraries\lvgl\src\extra\widgets\span/lv_span.c **** 
 265:..\..\..\arduinoLCD\test\Pain Drain\libraries\lvgl\src\extra\widgets\span/lv_span.c ****     if(obj == NULL) {
 266:..\..\..\arduinoLCD\test\Pain Drain\libraries\lvgl\src\extra\widgets\span/lv_span.c ****         return 0;
 267:..\..\..\arduinoLCD\test\Pain Drain\libraries\lvgl\src\extra\widgets\span/lv_span.c ****     }
 268:..\..\..\arduinoLCD\test\Pain Drain\libraries\lvgl\src\extra\widgets\span/lv_span.c **** 
 269:..\..\..\arduinoLCD\test\Pain Drain\libraries\lvgl\src\extra\widgets\span/lv_span.c ****     LV_ASSERT_OBJ(obj, MY_CLASS);
 270:..\..\..\arduinoLCD\test\Pain Drain\libraries\lvgl\src\extra\widgets\span/lv_span.c ****     lv_spangroup_t * spans = (lv_spangroup_t *)obj;
 271:..\..\..\arduinoLCD\test\Pain Drain\libraries\lvgl\src\extra\widgets\span/lv_span.c ****     return _lv_ll_get_len(&(spans->child_ll));
 272:..\..\..\arduinoLCD\test\Pain Drain\libraries\lvgl\src\extra\widgets\span/lv_span.c **** }
 273:..\..\..\arduinoLCD\test\Pain Drain\libraries\lvgl\src\extra\widgets\span/lv_span.c **** 
 274:..\..\..\arduinoLCD\test\Pain Drain\libraries\lvgl\src\extra\widgets\span/lv_span.c **** lv_text_align_t lv_spangroup_get_align(lv_obj_t * obj)
 275:..\..\..\arduinoLCD\test\Pain Drain\libraries\lvgl\src\extra\widgets\span/lv_span.c **** {
 276:..\..\..\arduinoLCD\test\Pain Drain\libraries\lvgl\src\extra\widgets\span/lv_span.c ****     return lv_obj_get_style_text_align(obj, LV_PART_MAIN);
 277:..\..\..\arduinoLCD\test\Pain Drain\libraries\lvgl\src\extra\widgets\span/lv_span.c **** }
 278:..\..\..\arduinoLCD\test\Pain Drain\libraries\lvgl\src\extra\widgets\span/lv_span.c **** 
 279:..\..\..\arduinoLCD\test\Pain Drain\libraries\lvgl\src\extra\widgets\span/lv_span.c **** lv_span_overflow_t lv_spangroup_get_overflow(lv_obj_t * obj)
 280:..\..\..\arduinoLCD\test\Pain Drain\libraries\lvgl\src\extra\widgets\span/lv_span.c **** {
 281:..\..\..\arduinoLCD\test\Pain Drain\libraries\lvgl\src\extra\widgets\span/lv_span.c ****     LV_ASSERT_OBJ(obj, MY_CLASS);
 282:..\..\..\arduinoLCD\test\Pain Drain\libraries\lvgl\src\extra\widgets\span/lv_span.c ****     lv_spangroup_t * spans = (lv_spangroup_t *)obj;
 283:..\..\..\arduinoLCD\test\Pain Drain\libraries\lvgl\src\extra\widgets\span/lv_span.c ****     return spans->overflow;
 284:..\..\..\arduinoLCD\test\Pain Drain\libraries\lvgl\src\extra\widgets\span/lv_span.c **** }
 285:..\..\..\arduinoLCD\test\Pain Drain\libraries\lvgl\src\extra\widgets\span/lv_span.c **** 
 286:..\..\..\arduinoLCD\test\Pain Drain\libraries\lvgl\src\extra\widgets\span/lv_span.c **** lv_coord_t lv_spangroup_get_indent(lv_obj_t * obj)
 287:..\..\..\arduinoLCD\test\Pain Drain\libraries\lvgl\src\extra\widgets\span/lv_span.c **** {
 288:..\..\..\arduinoLCD\test\Pain Drain\libraries\lvgl\src\extra\widgets\span/lv_span.c ****     LV_ASSERT_OBJ(obj, MY_CLASS);
 289:..\..\..\arduinoLCD\test\Pain Drain\libraries\lvgl\src\extra\widgets\span/lv_span.c ****     lv_spangroup_t * spans = (lv_spangroup_t *)obj;
 290:..\..\..\arduinoLCD\test\Pain Drain\libraries\lvgl\src\extra\widgets\span/lv_span.c ****     return spans->indent;
 291:..\..\..\arduinoLCD\test\Pain Drain\libraries\lvgl\src\extra\widgets\span/lv_span.c **** }
 292:..\..\..\arduinoLCD\test\Pain Drain\libraries\lvgl\src\extra\widgets\span/lv_span.c **** 
 293:..\..\..\arduinoLCD\test\Pain Drain\libraries\lvgl\src\extra\widgets\span/lv_span.c **** lv_span_mode_t lv_spangroup_get_mode(lv_obj_t * obj)
 294:..\..\..\arduinoLCD\test\Pain Drain\libraries\lvgl\src\extra\widgets\span/lv_span.c **** {
 295:..\..\..\arduinoLCD\test\Pain Drain\libraries\lvgl\src\extra\widgets\span/lv_span.c ****     LV_ASSERT_OBJ(obj, MY_CLASS);
 296:..\..\..\arduinoLCD\test\Pain Drain\libraries\lvgl\src\extra\widgets\span/lv_span.c ****     lv_spangroup_t * spans = (lv_spangroup_t *)obj;
 297:..\..\..\arduinoLCD\test\Pain Drain\libraries\lvgl\src\extra\widgets\span/lv_span.c ****     return spans->mode;
 298:..\..\..\arduinoLCD\test\Pain Drain\libraries\lvgl\src\extra\widgets\span/lv_span.c **** }
 299:..\..\..\arduinoLCD\test\Pain Drain\libraries\lvgl\src\extra\widgets\span/lv_span.c **** 
 300:..\..\..\arduinoLCD\test\Pain Drain\libraries\lvgl\src\extra\widgets\span/lv_span.c **** int32_t lv_spangroup_get_lines(lv_obj_t * obj)
 301:..\..\..\arduinoLCD\test\Pain Drain\libraries\lvgl\src\extra\widgets\span/lv_span.c **** {
 302:..\..\..\arduinoLCD\test\Pain Drain\libraries\lvgl\src\extra\widgets\span/lv_span.c ****     LV_ASSERT_OBJ(obj, MY_CLASS);
 303:..\..\..\arduinoLCD\test\Pain Drain\libraries\lvgl\src\extra\widgets\span/lv_span.c ****     lv_spangroup_t * spans = (lv_spangroup_t *)obj;
 304:..\..\..\arduinoLCD\test\Pain Drain\libraries\lvgl\src\extra\widgets\span/lv_span.c ****     return spans->lines;
 305:..\..\..\arduinoLCD\test\Pain Drain\libraries\lvgl\src\extra\widgets\span/lv_span.c **** }
 306:..\..\..\arduinoLCD\test\Pain Drain\libraries\lvgl\src\extra\widgets\span/lv_span.c **** 
 307:..\..\..\arduinoLCD\test\Pain Drain\libraries\lvgl\src\extra\widgets\span/lv_span.c **** void lv_spangroup_refr_mode(lv_obj_t * obj)
 308:..\..\..\arduinoLCD\test\Pain Drain\libraries\lvgl\src\extra\widgets\span/lv_span.c **** {
 309:..\..\..\arduinoLCD\test\Pain Drain\libraries\lvgl\src\extra\widgets\span/lv_span.c ****     LV_ASSERT_OBJ(obj, MY_CLASS);
 310:..\..\..\arduinoLCD\test\Pain Drain\libraries\lvgl\src\extra\widgets\span/lv_span.c ****     lv_spangroup_t * spans = (lv_spangroup_t *)obj;
 311:..\..\..\arduinoLCD\test\Pain Drain\libraries\lvgl\src\extra\widgets\span/lv_span.c **** 
 312:..\..\..\arduinoLCD\test\Pain Drain\libraries\lvgl\src\extra\widgets\span/lv_span.c ****     if(spans->mode == LV_SPAN_MODE_EXPAND) {
 313:..\..\..\arduinoLCD\test\Pain Drain\libraries\lvgl\src\extra\widgets\span/lv_span.c ****         lv_obj_set_width(obj, LV_SIZE_CONTENT);
 314:..\..\..\arduinoLCD\test\Pain Drain\libraries\lvgl\src\extra\widgets\span/lv_span.c ****         lv_obj_set_height(obj, LV_SIZE_CONTENT);
 315:..\..\..\arduinoLCD\test\Pain Drain\libraries\lvgl\src\extra\widgets\span/lv_span.c ****     }
 316:..\..\..\arduinoLCD\test\Pain Drain\libraries\lvgl\src\extra\widgets\span/lv_span.c ****     else if(spans->mode == LV_SPAN_MODE_BREAK) {
ARM GAS  C:\Users\haske\AppData\Local\Temp\cc7oyVf6.s 			page 7


 317:..\..\..\arduinoLCD\test\Pain Drain\libraries\lvgl\src\extra\widgets\span/lv_span.c ****         if(lv_obj_get_style_width(obj, LV_PART_MAIN) == LV_SIZE_CONTENT) {
 318:..\..\..\arduinoLCD\test\Pain Drain\libraries\lvgl\src\extra\widgets\span/lv_span.c ****             lv_obj_set_width(obj, 100);
 319:..\..\..\arduinoLCD\test\Pain Drain\libraries\lvgl\src\extra\widgets\span/lv_span.c ****         }
 320:..\..\..\arduinoLCD\test\Pain Drain\libraries\lvgl\src\extra\widgets\span/lv_span.c ****         lv_obj_set_height(obj, LV_SIZE_CONTENT);
 321:..\..\..\arduinoLCD\test\Pain Drain\libraries\lvgl\src\extra\widgets\span/lv_span.c ****     }
 322:..\..\..\arduinoLCD\test\Pain Drain\libraries\lvgl\src\extra\widgets\span/lv_span.c ****     else if(spans->mode == LV_SPAN_MODE_FIXED) {
 323:..\..\..\arduinoLCD\test\Pain Drain\libraries\lvgl\src\extra\widgets\span/lv_span.c ****         /* use this mode, The user needs to set the size. */
 324:..\..\..\arduinoLCD\test\Pain Drain\libraries\lvgl\src\extra\widgets\span/lv_span.c ****         /* This is just to prevent an infinite loop. */
 325:..\..\..\arduinoLCD\test\Pain Drain\libraries\lvgl\src\extra\widgets\span/lv_span.c ****         if(lv_obj_get_style_width(obj, LV_PART_MAIN) == LV_SIZE_CONTENT) {
 326:..\..\..\arduinoLCD\test\Pain Drain\libraries\lvgl\src\extra\widgets\span/lv_span.c ****             lv_obj_set_width(obj, 100);
 327:..\..\..\arduinoLCD\test\Pain Drain\libraries\lvgl\src\extra\widgets\span/lv_span.c ****         }
 328:..\..\..\arduinoLCD\test\Pain Drain\libraries\lvgl\src\extra\widgets\span/lv_span.c ****         if(lv_obj_get_style_height(obj, LV_PART_MAIN) == LV_SIZE_CONTENT) {
 329:..\..\..\arduinoLCD\test\Pain Drain\libraries\lvgl\src\extra\widgets\span/lv_span.c ****             lv_coord_t width = lv_obj_get_style_width(obj, LV_PART_MAIN);
 330:..\..\..\arduinoLCD\test\Pain Drain\libraries\lvgl\src\extra\widgets\span/lv_span.c ****             if(LV_COORD_IS_PCT(width)) {
 331:..\..\..\arduinoLCD\test\Pain Drain\libraries\lvgl\src\extra\widgets\span/lv_span.c ****                 width = 100;
 332:..\..\..\arduinoLCD\test\Pain Drain\libraries\lvgl\src\extra\widgets\span/lv_span.c ****             }
 333:..\..\..\arduinoLCD\test\Pain Drain\libraries\lvgl\src\extra\widgets\span/lv_span.c ****             lv_coord_t height = lv_spangroup_get_expand_height(obj, width);
 334:..\..\..\arduinoLCD\test\Pain Drain\libraries\lvgl\src\extra\widgets\span/lv_span.c ****             lv_obj_set_content_height(obj, height);
 335:..\..\..\arduinoLCD\test\Pain Drain\libraries\lvgl\src\extra\widgets\span/lv_span.c ****         }
 336:..\..\..\arduinoLCD\test\Pain Drain\libraries\lvgl\src\extra\widgets\span/lv_span.c ****     }
 337:..\..\..\arduinoLCD\test\Pain Drain\libraries\lvgl\src\extra\widgets\span/lv_span.c **** 
 338:..\..\..\arduinoLCD\test\Pain Drain\libraries\lvgl\src\extra\widgets\span/lv_span.c ****     refresh_self_size(obj);
 339:..\..\..\arduinoLCD\test\Pain Drain\libraries\lvgl\src\extra\widgets\span/lv_span.c **** }
 340:..\..\..\arduinoLCD\test\Pain Drain\libraries\lvgl\src\extra\widgets\span/lv_span.c **** 
 341:..\..\..\arduinoLCD\test\Pain Drain\libraries\lvgl\src\extra\widgets\span/lv_span.c **** lv_coord_t lv_spangroup_get_max_line_h(lv_obj_t * obj)
 342:..\..\..\arduinoLCD\test\Pain Drain\libraries\lvgl\src\extra\widgets\span/lv_span.c **** {
 343:..\..\..\arduinoLCD\test\Pain Drain\libraries\lvgl\src\extra\widgets\span/lv_span.c ****     LV_ASSERT_OBJ(obj, MY_CLASS);
 344:..\..\..\arduinoLCD\test\Pain Drain\libraries\lvgl\src\extra\widgets\span/lv_span.c ****     lv_spangroup_t * spans = (lv_spangroup_t *)obj;
 345:..\..\..\arduinoLCD\test\Pain Drain\libraries\lvgl\src\extra\widgets\span/lv_span.c **** 
 346:..\..\..\arduinoLCD\test\Pain Drain\libraries\lvgl\src\extra\widgets\span/lv_span.c ****     lv_coord_t max_line_h = 0;
 347:..\..\..\arduinoLCD\test\Pain Drain\libraries\lvgl\src\extra\widgets\span/lv_span.c ****     lv_span_t * cur_span;
 348:..\..\..\arduinoLCD\test\Pain Drain\libraries\lvgl\src\extra\widgets\span/lv_span.c ****     _LV_LL_READ(&spans->child_ll, cur_span) {
 349:..\..\..\arduinoLCD\test\Pain Drain\libraries\lvgl\src\extra\widgets\span/lv_span.c ****         const lv_font_t * font = lv_span_get_style_text_font(obj, cur_span);
 350:..\..\..\arduinoLCD\test\Pain Drain\libraries\lvgl\src\extra\widgets\span/lv_span.c ****         lv_coord_t line_h = lv_font_get_line_height(font);
 351:..\..\..\arduinoLCD\test\Pain Drain\libraries\lvgl\src\extra\widgets\span/lv_span.c ****         if(line_h > max_line_h) {
 352:..\..\..\arduinoLCD\test\Pain Drain\libraries\lvgl\src\extra\widgets\span/lv_span.c ****             max_line_h = line_h;
 353:..\..\..\arduinoLCD\test\Pain Drain\libraries\lvgl\src\extra\widgets\span/lv_span.c ****         }
 354:..\..\..\arduinoLCD\test\Pain Drain\libraries\lvgl\src\extra\widgets\span/lv_span.c ****     }
 355:..\..\..\arduinoLCD\test\Pain Drain\libraries\lvgl\src\extra\widgets\span/lv_span.c **** 
 356:..\..\..\arduinoLCD\test\Pain Drain\libraries\lvgl\src\extra\widgets\span/lv_span.c ****     return max_line_h;
 357:..\..\..\arduinoLCD\test\Pain Drain\libraries\lvgl\src\extra\widgets\span/lv_span.c **** }
 358:..\..\..\arduinoLCD\test\Pain Drain\libraries\lvgl\src\extra\widgets\span/lv_span.c **** 
 359:..\..\..\arduinoLCD\test\Pain Drain\libraries\lvgl\src\extra\widgets\span/lv_span.c **** uint32_t lv_spangroup_get_expand_width(lv_obj_t * obj, uint32_t max_width)
 360:..\..\..\arduinoLCD\test\Pain Drain\libraries\lvgl\src\extra\widgets\span/lv_span.c **** {
 361:..\..\..\arduinoLCD\test\Pain Drain\libraries\lvgl\src\extra\widgets\span/lv_span.c ****     LV_ASSERT_OBJ(obj, MY_CLASS);
 362:..\..\..\arduinoLCD\test\Pain Drain\libraries\lvgl\src\extra\widgets\span/lv_span.c ****     lv_spangroup_t * spans = (lv_spangroup_t *)obj;
 363:..\..\..\arduinoLCD\test\Pain Drain\libraries\lvgl\src\extra\widgets\span/lv_span.c **** 
 364:..\..\..\arduinoLCD\test\Pain Drain\libraries\lvgl\src\extra\widgets\span/lv_span.c ****     if(_lv_ll_get_head(&spans->child_ll) == NULL) {
 365:..\..\..\arduinoLCD\test\Pain Drain\libraries\lvgl\src\extra\widgets\span/lv_span.c ****         return 0;
 366:..\..\..\arduinoLCD\test\Pain Drain\libraries\lvgl\src\extra\widgets\span/lv_span.c ****     }
 367:..\..\..\arduinoLCD\test\Pain Drain\libraries\lvgl\src\extra\widgets\span/lv_span.c **** 
 368:..\..\..\arduinoLCD\test\Pain Drain\libraries\lvgl\src\extra\widgets\span/lv_span.c ****     uint32_t width = LV_COORD_IS_PCT(spans->indent) ? 0 : spans->indent;
 369:..\..\..\arduinoLCD\test\Pain Drain\libraries\lvgl\src\extra\widgets\span/lv_span.c ****     lv_span_t * cur_span;
 370:..\..\..\arduinoLCD\test\Pain Drain\libraries\lvgl\src\extra\widgets\span/lv_span.c ****     lv_coord_t letter_space = 0;
 371:..\..\..\arduinoLCD\test\Pain Drain\libraries\lvgl\src\extra\widgets\span/lv_span.c ****     _LV_LL_READ(&spans->child_ll, cur_span) {
 372:..\..\..\arduinoLCD\test\Pain Drain\libraries\lvgl\src\extra\widgets\span/lv_span.c ****         const lv_font_t * font = lv_span_get_style_text_font(obj, cur_span);
 373:..\..\..\arduinoLCD\test\Pain Drain\libraries\lvgl\src\extra\widgets\span/lv_span.c ****         letter_space = lv_span_get_style_text_letter_space(obj, cur_span);
ARM GAS  C:\Users\haske\AppData\Local\Temp\cc7oyVf6.s 			page 8


 374:..\..\..\arduinoLCD\test\Pain Drain\libraries\lvgl\src\extra\widgets\span/lv_span.c ****         uint32_t j = 0;
 375:..\..\..\arduinoLCD\test\Pain Drain\libraries\lvgl\src\extra\widgets\span/lv_span.c ****         const char * cur_txt = cur_span->txt;
 376:..\..\..\arduinoLCD\test\Pain Drain\libraries\lvgl\src\extra\widgets\span/lv_span.c ****         span_text_check(&cur_txt);
 377:..\..\..\arduinoLCD\test\Pain Drain\libraries\lvgl\src\extra\widgets\span/lv_span.c ****         while(cur_txt[j] != '\0') {
 378:..\..\..\arduinoLCD\test\Pain Drain\libraries\lvgl\src\extra\widgets\span/lv_span.c ****             if(max_width > 0 && width >= max_width) {
 379:..\..\..\arduinoLCD\test\Pain Drain\libraries\lvgl\src\extra\widgets\span/lv_span.c ****                 return max_width;
 380:..\..\..\arduinoLCD\test\Pain Drain\libraries\lvgl\src\extra\widgets\span/lv_span.c ****             }
 381:..\..\..\arduinoLCD\test\Pain Drain\libraries\lvgl\src\extra\widgets\span/lv_span.c ****             uint32_t letter      = _lv_txt_encoded_next(cur_txt, &j);
 382:..\..\..\arduinoLCD\test\Pain Drain\libraries\lvgl\src\extra\widgets\span/lv_span.c ****             uint32_t letter_next = _lv_txt_encoded_next(&cur_txt[j], NULL);
 383:..\..\..\arduinoLCD\test\Pain Drain\libraries\lvgl\src\extra\widgets\span/lv_span.c ****             uint16_t letter_w = lv_font_get_glyph_width(font, letter, letter_next);
 384:..\..\..\arduinoLCD\test\Pain Drain\libraries\lvgl\src\extra\widgets\span/lv_span.c ****             width = width + letter_w + letter_space;
 385:..\..\..\arduinoLCD\test\Pain Drain\libraries\lvgl\src\extra\widgets\span/lv_span.c ****         }
 386:..\..\..\arduinoLCD\test\Pain Drain\libraries\lvgl\src\extra\widgets\span/lv_span.c ****     }
 387:..\..\..\arduinoLCD\test\Pain Drain\libraries\lvgl\src\extra\widgets\span/lv_span.c **** 
 388:..\..\..\arduinoLCD\test\Pain Drain\libraries\lvgl\src\extra\widgets\span/lv_span.c ****     return width - letter_space;
 389:..\..\..\arduinoLCD\test\Pain Drain\libraries\lvgl\src\extra\widgets\span/lv_span.c **** }
 390:..\..\..\arduinoLCD\test\Pain Drain\libraries\lvgl\src\extra\widgets\span/lv_span.c **** 
 391:..\..\..\arduinoLCD\test\Pain Drain\libraries\lvgl\src\extra\widgets\span/lv_span.c **** lv_coord_t lv_spangroup_get_expand_height(lv_obj_t * obj, lv_coord_t width)
 392:..\..\..\arduinoLCD\test\Pain Drain\libraries\lvgl\src\extra\widgets\span/lv_span.c **** {
 393:..\..\..\arduinoLCD\test\Pain Drain\libraries\lvgl\src\extra\widgets\span/lv_span.c ****     LV_ASSERT_OBJ(obj, MY_CLASS);
 394:..\..\..\arduinoLCD\test\Pain Drain\libraries\lvgl\src\extra\widgets\span/lv_span.c ****     lv_spangroup_t * spans = (lv_spangroup_t *)obj;
 395:..\..\..\arduinoLCD\test\Pain Drain\libraries\lvgl\src\extra\widgets\span/lv_span.c ****     if(_lv_ll_get_head(&spans->child_ll) == NULL || width <= 0) {
 396:..\..\..\arduinoLCD\test\Pain Drain\libraries\lvgl\src\extra\widgets\span/lv_span.c ****         return 0;
 397:..\..\..\arduinoLCD\test\Pain Drain\libraries\lvgl\src\extra\widgets\span/lv_span.c ****     }
 398:..\..\..\arduinoLCD\test\Pain Drain\libraries\lvgl\src\extra\widgets\span/lv_span.c **** 
 399:..\..\..\arduinoLCD\test\Pain Drain\libraries\lvgl\src\extra\widgets\span/lv_span.c ****     /* init draw variable */
 400:..\..\..\arduinoLCD\test\Pain Drain\libraries\lvgl\src\extra\widgets\span/lv_span.c ****     lv_text_flag_t txt_flag = LV_TEXT_FLAG_NONE;
 401:..\..\..\arduinoLCD\test\Pain Drain\libraries\lvgl\src\extra\widgets\span/lv_span.c ****     lv_coord_t line_space = lv_obj_get_style_text_line_space(obj, LV_PART_MAIN);
 402:..\..\..\arduinoLCD\test\Pain Drain\libraries\lvgl\src\extra\widgets\span/lv_span.c ****     lv_coord_t max_width = width;
 403:..\..\..\arduinoLCD\test\Pain Drain\libraries\lvgl\src\extra\widgets\span/lv_span.c ****     lv_coord_t indent = convert_indent_pct(obj, max_width);
 404:..\..\..\arduinoLCD\test\Pain Drain\libraries\lvgl\src\extra\widgets\span/lv_span.c ****     lv_coord_t max_w  = max_width - indent; /* first line need minus indent */
 405:..\..\..\arduinoLCD\test\Pain Drain\libraries\lvgl\src\extra\widgets\span/lv_span.c **** 
 406:..\..\..\arduinoLCD\test\Pain Drain\libraries\lvgl\src\extra\widgets\span/lv_span.c ****     /* coords of draw span-txt */
 407:..\..\..\arduinoLCD\test\Pain Drain\libraries\lvgl\src\extra\widgets\span/lv_span.c ****     lv_point_t txt_pos;
 408:..\..\..\arduinoLCD\test\Pain Drain\libraries\lvgl\src\extra\widgets\span/lv_span.c ****     txt_pos.y = 0;
 409:..\..\..\arduinoLCD\test\Pain Drain\libraries\lvgl\src\extra\widgets\span/lv_span.c ****     txt_pos.x = 0 + indent; /* first line need add indent */
 410:..\..\..\arduinoLCD\test\Pain Drain\libraries\lvgl\src\extra\widgets\span/lv_span.c **** 
 411:..\..\..\arduinoLCD\test\Pain Drain\libraries\lvgl\src\extra\widgets\span/lv_span.c ****     lv_span_t * cur_span = _lv_ll_get_head(&spans->child_ll);
 412:..\..\..\arduinoLCD\test\Pain Drain\libraries\lvgl\src\extra\widgets\span/lv_span.c ****     const char * cur_txt = cur_span->txt;
 413:..\..\..\arduinoLCD\test\Pain Drain\libraries\lvgl\src\extra\widgets\span/lv_span.c ****     span_text_check(&cur_txt);
 414:..\..\..\arduinoLCD\test\Pain Drain\libraries\lvgl\src\extra\widgets\span/lv_span.c ****     uint32_t cur_txt_ofs = 0;
 415:..\..\..\arduinoLCD\test\Pain Drain\libraries\lvgl\src\extra\widgets\span/lv_span.c ****     lv_snippet_t snippet;   /* use to save cur_span info and push it to stack */
 416:..\..\..\arduinoLCD\test\Pain Drain\libraries\lvgl\src\extra\widgets\span/lv_span.c ****     memset(&snippet, 0, sizeof(snippet));
 417:..\..\..\arduinoLCD\test\Pain Drain\libraries\lvgl\src\extra\widgets\span/lv_span.c **** 
 418:..\..\..\arduinoLCD\test\Pain Drain\libraries\lvgl\src\extra\widgets\span/lv_span.c ****     int32_t line_cnt = 0;
 419:..\..\..\arduinoLCD\test\Pain Drain\libraries\lvgl\src\extra\widgets\span/lv_span.c ****     int32_t lines = spans->lines < 0 ? INT32_MAX : spans->lines;
 420:..\..\..\arduinoLCD\test\Pain Drain\libraries\lvgl\src\extra\widgets\span/lv_span.c ****     /* the loop control how many lines need to draw */
 421:..\..\..\arduinoLCD\test\Pain Drain\libraries\lvgl\src\extra\widgets\span/lv_span.c ****     while(cur_span) {
 422:..\..\..\arduinoLCD\test\Pain Drain\libraries\lvgl\src\extra\widgets\span/lv_span.c ****         int snippet_cnt = 0;
 423:..\..\..\arduinoLCD\test\Pain Drain\libraries\lvgl\src\extra\widgets\span/lv_span.c ****         lv_coord_t max_line_h = 0;  /* the max height of span-font when a line have a lot of span *
 424:..\..\..\arduinoLCD\test\Pain Drain\libraries\lvgl\src\extra\widgets\span/lv_span.c **** 
 425:..\..\..\arduinoLCD\test\Pain Drain\libraries\lvgl\src\extra\widgets\span/lv_span.c ****         /* the loop control to find a line and push the relevant span info into stack  */
 426:..\..\..\arduinoLCD\test\Pain Drain\libraries\lvgl\src\extra\widgets\span/lv_span.c ****         while(1) {
 427:..\..\..\arduinoLCD\test\Pain Drain\libraries\lvgl\src\extra\widgets\span/lv_span.c ****             /* switch to the next span when current is end */
 428:..\..\..\arduinoLCD\test\Pain Drain\libraries\lvgl\src\extra\widgets\span/lv_span.c ****             if(cur_txt[cur_txt_ofs] == '\0') {
 429:..\..\..\arduinoLCD\test\Pain Drain\libraries\lvgl\src\extra\widgets\span/lv_span.c ****                 cur_span = _lv_ll_get_next(&spans->child_ll, cur_span);
 430:..\..\..\arduinoLCD\test\Pain Drain\libraries\lvgl\src\extra\widgets\span/lv_span.c ****                 if(cur_span == NULL) break;
ARM GAS  C:\Users\haske\AppData\Local\Temp\cc7oyVf6.s 			page 9


 431:..\..\..\arduinoLCD\test\Pain Drain\libraries\lvgl\src\extra\widgets\span/lv_span.c ****                 cur_txt = cur_span->txt;
 432:..\..\..\arduinoLCD\test\Pain Drain\libraries\lvgl\src\extra\widgets\span/lv_span.c ****                 span_text_check(&cur_txt);
 433:..\..\..\arduinoLCD\test\Pain Drain\libraries\lvgl\src\extra\widgets\span/lv_span.c ****                 cur_txt_ofs = 0;
 434:..\..\..\arduinoLCD\test\Pain Drain\libraries\lvgl\src\extra\widgets\span/lv_span.c ****                 /* maybe also cur_txt[cur_txt_ofs] == '\0' */
 435:..\..\..\arduinoLCD\test\Pain Drain\libraries\lvgl\src\extra\widgets\span/lv_span.c ****                 continue;
 436:..\..\..\arduinoLCD\test\Pain Drain\libraries\lvgl\src\extra\widgets\span/lv_span.c ****             }
 437:..\..\..\arduinoLCD\test\Pain Drain\libraries\lvgl\src\extra\widgets\span/lv_span.c **** 
 438:..\..\..\arduinoLCD\test\Pain Drain\libraries\lvgl\src\extra\widgets\span/lv_span.c ****             /* init span info to snippet. */
 439:..\..\..\arduinoLCD\test\Pain Drain\libraries\lvgl\src\extra\widgets\span/lv_span.c ****             if(cur_txt_ofs == 0) {
 440:..\..\..\arduinoLCD\test\Pain Drain\libraries\lvgl\src\extra\widgets\span/lv_span.c ****                 snippet.span = cur_span;
 441:..\..\..\arduinoLCD\test\Pain Drain\libraries\lvgl\src\extra\widgets\span/lv_span.c ****                 snippet.font = lv_span_get_style_text_font(obj, cur_span);
 442:..\..\..\arduinoLCD\test\Pain Drain\libraries\lvgl\src\extra\widgets\span/lv_span.c ****                 snippet.letter_space = lv_span_get_style_text_letter_space(obj, cur_span);
 443:..\..\..\arduinoLCD\test\Pain Drain\libraries\lvgl\src\extra\widgets\span/lv_span.c ****                 snippet.line_h = lv_font_get_line_height(snippet.font) + line_space;
 444:..\..\..\arduinoLCD\test\Pain Drain\libraries\lvgl\src\extra\widgets\span/lv_span.c ****             }
 445:..\..\..\arduinoLCD\test\Pain Drain\libraries\lvgl\src\extra\widgets\span/lv_span.c **** 
 446:..\..\..\arduinoLCD\test\Pain Drain\libraries\lvgl\src\extra\widgets\span/lv_span.c ****             /* get current span text line info */
 447:..\..\..\arduinoLCD\test\Pain Drain\libraries\lvgl\src\extra\widgets\span/lv_span.c ****             uint32_t next_ofs = 0;
 448:..\..\..\arduinoLCD\test\Pain Drain\libraries\lvgl\src\extra\widgets\span/lv_span.c ****             lv_coord_t use_width = 0;
 449:..\..\..\arduinoLCD\test\Pain Drain\libraries\lvgl\src\extra\widgets\span/lv_span.c ****             bool isfill = lv_txt_get_snippet(&cur_txt[cur_txt_ofs], snippet.font, snippet.letter_sp
 450:..\..\..\arduinoLCD\test\Pain Drain\libraries\lvgl\src\extra\widgets\span/lv_span.c ****                                              max_w, txt_flag, &use_width, &next_ofs);
 451:..\..\..\arduinoLCD\test\Pain Drain\libraries\lvgl\src\extra\widgets\span/lv_span.c **** 
 452:..\..\..\arduinoLCD\test\Pain Drain\libraries\lvgl\src\extra\widgets\span/lv_span.c ****             /* break word deal width */
 453:..\..\..\arduinoLCD\test\Pain Drain\libraries\lvgl\src\extra\widgets\span/lv_span.c ****             if(isfill && next_ofs > 0 && snippet_cnt > 0) {
 454:..\..\..\arduinoLCD\test\Pain Drain\libraries\lvgl\src\extra\widgets\span/lv_span.c ****                 if(max_w < use_width) {
 455:..\..\..\arduinoLCD\test\Pain Drain\libraries\lvgl\src\extra\widgets\span/lv_span.c ****                     break;
 456:..\..\..\arduinoLCD\test\Pain Drain\libraries\lvgl\src\extra\widgets\span/lv_span.c ****                 }
 457:..\..\..\arduinoLCD\test\Pain Drain\libraries\lvgl\src\extra\widgets\span/lv_span.c **** 
 458:..\..\..\arduinoLCD\test\Pain Drain\libraries\lvgl\src\extra\widgets\span/lv_span.c ****                 uint32_t tmp_ofs = next_ofs;
 459:..\..\..\arduinoLCD\test\Pain Drain\libraries\lvgl\src\extra\widgets\span/lv_span.c ****                 uint32_t letter = _lv_txt_encoded_prev(&cur_txt[cur_txt_ofs], &tmp_ofs);
 460:..\..\..\arduinoLCD\test\Pain Drain\libraries\lvgl\src\extra\widgets\span/lv_span.c ****                 if(!(letter == '\0' || letter == '\n' || letter == '\r' || _lv_txt_is_break_char(le
 461:..\..\..\arduinoLCD\test\Pain Drain\libraries\lvgl\src\extra\widgets\span/lv_span.c ****                     tmp_ofs = 0;
 462:..\..\..\arduinoLCD\test\Pain Drain\libraries\lvgl\src\extra\widgets\span/lv_span.c ****                     letter = _lv_txt_encoded_next(&cur_txt[cur_txt_ofs + next_ofs], &tmp_ofs);
 463:..\..\..\arduinoLCD\test\Pain Drain\libraries\lvgl\src\extra\widgets\span/lv_span.c ****                     if(!(letter == '\0' || letter == '\n'  || letter == '\r' || _lv_txt_is_break_ch
 464:..\..\..\arduinoLCD\test\Pain Drain\libraries\lvgl\src\extra\widgets\span/lv_span.c ****                         break;
 465:..\..\..\arduinoLCD\test\Pain Drain\libraries\lvgl\src\extra\widgets\span/lv_span.c ****                     }
 466:..\..\..\arduinoLCD\test\Pain Drain\libraries\lvgl\src\extra\widgets\span/lv_span.c ****                 }
 467:..\..\..\arduinoLCD\test\Pain Drain\libraries\lvgl\src\extra\widgets\span/lv_span.c ****             }
 468:..\..\..\arduinoLCD\test\Pain Drain\libraries\lvgl\src\extra\widgets\span/lv_span.c **** 
 469:..\..\..\arduinoLCD\test\Pain Drain\libraries\lvgl\src\extra\widgets\span/lv_span.c ****             snippet.txt = &cur_txt[cur_txt_ofs];
 470:..\..\..\arduinoLCD\test\Pain Drain\libraries\lvgl\src\extra\widgets\span/lv_span.c ****             snippet.bytes = next_ofs;
 471:..\..\..\arduinoLCD\test\Pain Drain\libraries\lvgl\src\extra\widgets\span/lv_span.c ****             snippet.txt_w = use_width;
 472:..\..\..\arduinoLCD\test\Pain Drain\libraries\lvgl\src\extra\widgets\span/lv_span.c ****             cur_txt_ofs += next_ofs;
 473:..\..\..\arduinoLCD\test\Pain Drain\libraries\lvgl\src\extra\widgets\span/lv_span.c ****             if(max_line_h < snippet.line_h) {
 474:..\..\..\arduinoLCD\test\Pain Drain\libraries\lvgl\src\extra\widgets\span/lv_span.c ****                 max_line_h = snippet.line_h;
 475:..\..\..\arduinoLCD\test\Pain Drain\libraries\lvgl\src\extra\widgets\span/lv_span.c ****             }
 476:..\..\..\arduinoLCD\test\Pain Drain\libraries\lvgl\src\extra\widgets\span/lv_span.c ****             snippet_cnt ++;
 477:..\..\..\arduinoLCD\test\Pain Drain\libraries\lvgl\src\extra\widgets\span/lv_span.c ****             max_w = max_w - use_width - snippet.letter_space;
 478:..\..\..\arduinoLCD\test\Pain Drain\libraries\lvgl\src\extra\widgets\span/lv_span.c ****             if(isfill  || max_w <= 0) {
 479:..\..\..\arduinoLCD\test\Pain Drain\libraries\lvgl\src\extra\widgets\span/lv_span.c ****                 break;
 480:..\..\..\arduinoLCD\test\Pain Drain\libraries\lvgl\src\extra\widgets\span/lv_span.c ****             }
 481:..\..\..\arduinoLCD\test\Pain Drain\libraries\lvgl\src\extra\widgets\span/lv_span.c ****         }
 482:..\..\..\arduinoLCD\test\Pain Drain\libraries\lvgl\src\extra\widgets\span/lv_span.c **** 
 483:..\..\..\arduinoLCD\test\Pain Drain\libraries\lvgl\src\extra\widgets\span/lv_span.c ****         /* next line init */
 484:..\..\..\arduinoLCD\test\Pain Drain\libraries\lvgl\src\extra\widgets\span/lv_span.c ****         txt_pos.x = 0;
 485:..\..\..\arduinoLCD\test\Pain Drain\libraries\lvgl\src\extra\widgets\span/lv_span.c ****         txt_pos.y += max_line_h;
 486:..\..\..\arduinoLCD\test\Pain Drain\libraries\lvgl\src\extra\widgets\span/lv_span.c ****         max_w = max_width;
 487:..\..\..\arduinoLCD\test\Pain Drain\libraries\lvgl\src\extra\widgets\span/lv_span.c ****         line_cnt += 1;
ARM GAS  C:\Users\haske\AppData\Local\Temp\cc7oyVf6.s 			page 10


 488:..\..\..\arduinoLCD\test\Pain Drain\libraries\lvgl\src\extra\widgets\span/lv_span.c ****         if(line_cnt >= lines) {
 489:..\..\..\arduinoLCD\test\Pain Drain\libraries\lvgl\src\extra\widgets\span/lv_span.c ****             break;
 490:..\..\..\arduinoLCD\test\Pain Drain\libraries\lvgl\src\extra\widgets\span/lv_span.c ****         }
 491:..\..\..\arduinoLCD\test\Pain Drain\libraries\lvgl\src\extra\widgets\span/lv_span.c ****     }
 492:..\..\..\arduinoLCD\test\Pain Drain\libraries\lvgl\src\extra\widgets\span/lv_span.c ****     txt_pos.y -= line_space;
 493:..\..\..\arduinoLCD\test\Pain Drain\libraries\lvgl\src\extra\widgets\span/lv_span.c **** 
 494:..\..\..\arduinoLCD\test\Pain Drain\libraries\lvgl\src\extra\widgets\span/lv_span.c ****     return txt_pos.y;
 495:..\..\..\arduinoLCD\test\Pain Drain\libraries\lvgl\src\extra\widgets\span/lv_span.c **** }
 496:..\..\..\arduinoLCD\test\Pain Drain\libraries\lvgl\src\extra\widgets\span/lv_span.c **** 
 497:..\..\..\arduinoLCD\test\Pain Drain\libraries\lvgl\src\extra\widgets\span/lv_span.c **** /**********************
 498:..\..\..\arduinoLCD\test\Pain Drain\libraries\lvgl\src\extra\widgets\span/lv_span.c ****  *   STATIC FUNCTIONS
 499:..\..\..\arduinoLCD\test\Pain Drain\libraries\lvgl\src\extra\widgets\span/lv_span.c ****  **********************/
 500:..\..\..\arduinoLCD\test\Pain Drain\libraries\lvgl\src\extra\widgets\span/lv_span.c **** 
 501:..\..\..\arduinoLCD\test\Pain Drain\libraries\lvgl\src\extra\widgets\span/lv_span.c **** static void lv_spangroup_constructor(const lv_obj_class_t * class_p, lv_obj_t * obj)
 502:..\..\..\arduinoLCD\test\Pain Drain\libraries\lvgl\src\extra\widgets\span/lv_span.c **** {
 503:..\..\..\arduinoLCD\test\Pain Drain\libraries\lvgl\src\extra\widgets\span/lv_span.c ****     LV_UNUSED(class_p);
 504:..\..\..\arduinoLCD\test\Pain Drain\libraries\lvgl\src\extra\widgets\span/lv_span.c ****     lv_spangroup_t * spans = (lv_spangroup_t *)obj;
 505:..\..\..\arduinoLCD\test\Pain Drain\libraries\lvgl\src\extra\widgets\span/lv_span.c ****     _lv_ll_init(&spans->child_ll, sizeof(lv_span_t));
 506:..\..\..\arduinoLCD\test\Pain Drain\libraries\lvgl\src\extra\widgets\span/lv_span.c ****     spans->indent = 0;
 507:..\..\..\arduinoLCD\test\Pain Drain\libraries\lvgl\src\extra\widgets\span/lv_span.c ****     spans->lines = -1;
 508:..\..\..\arduinoLCD\test\Pain Drain\libraries\lvgl\src\extra\widgets\span/lv_span.c ****     spans->mode = LV_SPAN_MODE_EXPAND;
 509:..\..\..\arduinoLCD\test\Pain Drain\libraries\lvgl\src\extra\widgets\span/lv_span.c ****     spans->overflow = LV_SPAN_OVERFLOW_CLIP;
 510:..\..\..\arduinoLCD\test\Pain Drain\libraries\lvgl\src\extra\widgets\span/lv_span.c ****     spans->cache_w = 0;
 511:..\..\..\arduinoLCD\test\Pain Drain\libraries\lvgl\src\extra\widgets\span/lv_span.c ****     spans->cache_h = 0;
 512:..\..\..\arduinoLCD\test\Pain Drain\libraries\lvgl\src\extra\widgets\span/lv_span.c ****     spans->refresh = 1;
 513:..\..\..\arduinoLCD\test\Pain Drain\libraries\lvgl\src\extra\widgets\span/lv_span.c **** }
 514:..\..\..\arduinoLCD\test\Pain Drain\libraries\lvgl\src\extra\widgets\span/lv_span.c **** 
 515:..\..\..\arduinoLCD\test\Pain Drain\libraries\lvgl\src\extra\widgets\span/lv_span.c **** static void lv_spangroup_destructor(const lv_obj_class_t * class_p, lv_obj_t * obj)
 516:..\..\..\arduinoLCD\test\Pain Drain\libraries\lvgl\src\extra\widgets\span/lv_span.c **** {
 517:..\..\..\arduinoLCD\test\Pain Drain\libraries\lvgl\src\extra\widgets\span/lv_span.c ****     LV_UNUSED(class_p);
 518:..\..\..\arduinoLCD\test\Pain Drain\libraries\lvgl\src\extra\widgets\span/lv_span.c ****     lv_spangroup_t * spans = (lv_spangroup_t *)obj;
 519:..\..\..\arduinoLCD\test\Pain Drain\libraries\lvgl\src\extra\widgets\span/lv_span.c ****     lv_span_t * cur_span = _lv_ll_get_head(&spans->child_ll);
 520:..\..\..\arduinoLCD\test\Pain Drain\libraries\lvgl\src\extra\widgets\span/lv_span.c ****     while(cur_span) {
 521:..\..\..\arduinoLCD\test\Pain Drain\libraries\lvgl\src\extra\widgets\span/lv_span.c ****         _lv_ll_remove(&spans->child_ll, cur_span);
 522:..\..\..\arduinoLCD\test\Pain Drain\libraries\lvgl\src\extra\widgets\span/lv_span.c ****         if(cur_span->txt && cur_span->static_flag == 0) {
 523:..\..\..\arduinoLCD\test\Pain Drain\libraries\lvgl\src\extra\widgets\span/lv_span.c ****             lv_mem_free(cur_span->txt);
 524:..\..\..\arduinoLCD\test\Pain Drain\libraries\lvgl\src\extra\widgets\span/lv_span.c ****         }
 525:..\..\..\arduinoLCD\test\Pain Drain\libraries\lvgl\src\extra\widgets\span/lv_span.c ****         lv_style_reset(&cur_span->style);
 526:..\..\..\arduinoLCD\test\Pain Drain\libraries\lvgl\src\extra\widgets\span/lv_span.c ****         lv_mem_free(cur_span);
 527:..\..\..\arduinoLCD\test\Pain Drain\libraries\lvgl\src\extra\widgets\span/lv_span.c ****         cur_span = _lv_ll_get_head(&spans->child_ll);
 528:..\..\..\arduinoLCD\test\Pain Drain\libraries\lvgl\src\extra\widgets\span/lv_span.c ****     }
 529:..\..\..\arduinoLCD\test\Pain Drain\libraries\lvgl\src\extra\widgets\span/lv_span.c **** }
 530:..\..\..\arduinoLCD\test\Pain Drain\libraries\lvgl\src\extra\widgets\span/lv_span.c **** 
 531:..\..\..\arduinoLCD\test\Pain Drain\libraries\lvgl\src\extra\widgets\span/lv_span.c **** static void lv_spangroup_event(const lv_obj_class_t * class_p, lv_event_t * e)
 532:..\..\..\arduinoLCD\test\Pain Drain\libraries\lvgl\src\extra\widgets\span/lv_span.c **** {
 533:..\..\..\arduinoLCD\test\Pain Drain\libraries\lvgl\src\extra\widgets\span/lv_span.c ****     LV_UNUSED(class_p);
 534:..\..\..\arduinoLCD\test\Pain Drain\libraries\lvgl\src\extra\widgets\span/lv_span.c **** 
 535:..\..\..\arduinoLCD\test\Pain Drain\libraries\lvgl\src\extra\widgets\span/lv_span.c ****     /* Call the ancestor's event handler */
 536:..\..\..\arduinoLCD\test\Pain Drain\libraries\lvgl\src\extra\widgets\span/lv_span.c ****     if(lv_obj_event_base(MY_CLASS, e) != LV_RES_OK) return;
 537:..\..\..\arduinoLCD\test\Pain Drain\libraries\lvgl\src\extra\widgets\span/lv_span.c **** 
 538:..\..\..\arduinoLCD\test\Pain Drain\libraries\lvgl\src\extra\widgets\span/lv_span.c ****     lv_event_code_t code = lv_event_get_code(e);
 539:..\..\..\arduinoLCD\test\Pain Drain\libraries\lvgl\src\extra\widgets\span/lv_span.c ****     lv_obj_t * obj = lv_event_get_target(e);
 540:..\..\..\arduinoLCD\test\Pain Drain\libraries\lvgl\src\extra\widgets\span/lv_span.c ****     lv_spangroup_t * spans = (lv_spangroup_t *)obj;
 541:..\..\..\arduinoLCD\test\Pain Drain\libraries\lvgl\src\extra\widgets\span/lv_span.c **** 
 542:..\..\..\arduinoLCD\test\Pain Drain\libraries\lvgl\src\extra\widgets\span/lv_span.c ****     if(code == LV_EVENT_DRAW_MAIN) {
 543:..\..\..\arduinoLCD\test\Pain Drain\libraries\lvgl\src\extra\widgets\span/lv_span.c ****         draw_main(e);
 544:..\..\..\arduinoLCD\test\Pain Drain\libraries\lvgl\src\extra\widgets\span/lv_span.c ****     }
ARM GAS  C:\Users\haske\AppData\Local\Temp\cc7oyVf6.s 			page 11


 545:..\..\..\arduinoLCD\test\Pain Drain\libraries\lvgl\src\extra\widgets\span/lv_span.c ****     else if(code == LV_EVENT_STYLE_CHANGED) {
 546:..\..\..\arduinoLCD\test\Pain Drain\libraries\lvgl\src\extra\widgets\span/lv_span.c ****         refresh_self_size(obj);
 547:..\..\..\arduinoLCD\test\Pain Drain\libraries\lvgl\src\extra\widgets\span/lv_span.c ****     }
 548:..\..\..\arduinoLCD\test\Pain Drain\libraries\lvgl\src\extra\widgets\span/lv_span.c ****     else if(code == LV_EVENT_SIZE_CHANGED) {
 549:..\..\..\arduinoLCD\test\Pain Drain\libraries\lvgl\src\extra\widgets\span/lv_span.c ****         refresh_self_size(obj);
 550:..\..\..\arduinoLCD\test\Pain Drain\libraries\lvgl\src\extra\widgets\span/lv_span.c ****     }
 551:..\..\..\arduinoLCD\test\Pain Drain\libraries\lvgl\src\extra\widgets\span/lv_span.c ****     else if(code == LV_EVENT_GET_SELF_SIZE) {
 552:..\..\..\arduinoLCD\test\Pain Drain\libraries\lvgl\src\extra\widgets\span/lv_span.c ****         lv_coord_t width = 0;
 553:..\..\..\arduinoLCD\test\Pain Drain\libraries\lvgl\src\extra\widgets\span/lv_span.c ****         lv_coord_t height = 0;
 554:..\..\..\arduinoLCD\test\Pain Drain\libraries\lvgl\src\extra\widgets\span/lv_span.c ****         lv_point_t * self_size = lv_event_get_param(e);
 555:..\..\..\arduinoLCD\test\Pain Drain\libraries\lvgl\src\extra\widgets\span/lv_span.c **** 
 556:..\..\..\arduinoLCD\test\Pain Drain\libraries\lvgl\src\extra\widgets\span/lv_span.c ****         if(spans->mode == LV_SPAN_MODE_EXPAND) {
 557:..\..\..\arduinoLCD\test\Pain Drain\libraries\lvgl\src\extra\widgets\span/lv_span.c ****             if(spans->refresh) {
 558:..\..\..\arduinoLCD\test\Pain Drain\libraries\lvgl\src\extra\widgets\span/lv_span.c ****                 spans->cache_w = (lv_coord_t)lv_spangroup_get_expand_width(obj, 0);
 559:..\..\..\arduinoLCD\test\Pain Drain\libraries\lvgl\src\extra\widgets\span/lv_span.c ****                 spans->cache_h = lv_spangroup_get_max_line_h(obj);
 560:..\..\..\arduinoLCD\test\Pain Drain\libraries\lvgl\src\extra\widgets\span/lv_span.c ****                 spans->refresh = 0;
 561:..\..\..\arduinoLCD\test\Pain Drain\libraries\lvgl\src\extra\widgets\span/lv_span.c ****             }
 562:..\..\..\arduinoLCD\test\Pain Drain\libraries\lvgl\src\extra\widgets\span/lv_span.c ****             width = spans->cache_w;
 563:..\..\..\arduinoLCD\test\Pain Drain\libraries\lvgl\src\extra\widgets\span/lv_span.c ****             height = spans->cache_h;
 564:..\..\..\arduinoLCD\test\Pain Drain\libraries\lvgl\src\extra\widgets\span/lv_span.c ****         }
 565:..\..\..\arduinoLCD\test\Pain Drain\libraries\lvgl\src\extra\widgets\span/lv_span.c ****         else if(spans->mode == LV_SPAN_MODE_BREAK) {
 566:..\..\..\arduinoLCD\test\Pain Drain\libraries\lvgl\src\extra\widgets\span/lv_span.c ****             width = lv_obj_get_content_width(obj);
 567:..\..\..\arduinoLCD\test\Pain Drain\libraries\lvgl\src\extra\widgets\span/lv_span.c ****             if(self_size->y >= 0) {
 568:..\..\..\arduinoLCD\test\Pain Drain\libraries\lvgl\src\extra\widgets\span/lv_span.c ****                 if(width != spans->cache_w || spans->refresh) {
 569:..\..\..\arduinoLCD\test\Pain Drain\libraries\lvgl\src\extra\widgets\span/lv_span.c ****                     height = lv_spangroup_get_expand_height(obj, width);
 570:..\..\..\arduinoLCD\test\Pain Drain\libraries\lvgl\src\extra\widgets\span/lv_span.c ****                     spans->cache_w = width;
 571:..\..\..\arduinoLCD\test\Pain Drain\libraries\lvgl\src\extra\widgets\span/lv_span.c ****                     spans->cache_h = height;
 572:..\..\..\arduinoLCD\test\Pain Drain\libraries\lvgl\src\extra\widgets\span/lv_span.c ****                     spans->refresh = 0;
 573:..\..\..\arduinoLCD\test\Pain Drain\libraries\lvgl\src\extra\widgets\span/lv_span.c ****                 }
 574:..\..\..\arduinoLCD\test\Pain Drain\libraries\lvgl\src\extra\widgets\span/lv_span.c ****                 else {
 575:..\..\..\arduinoLCD\test\Pain Drain\libraries\lvgl\src\extra\widgets\span/lv_span.c ****                     height = spans->cache_h;
 576:..\..\..\arduinoLCD\test\Pain Drain\libraries\lvgl\src\extra\widgets\span/lv_span.c ****                 }
 577:..\..\..\arduinoLCD\test\Pain Drain\libraries\lvgl\src\extra\widgets\span/lv_span.c ****             }
 578:..\..\..\arduinoLCD\test\Pain Drain\libraries\lvgl\src\extra\widgets\span/lv_span.c ****         }
 579:..\..\..\arduinoLCD\test\Pain Drain\libraries\lvgl\src\extra\widgets\span/lv_span.c ****         else if(spans->mode == LV_SPAN_MODE_FIXED) {
 580:..\..\..\arduinoLCD\test\Pain Drain\libraries\lvgl\src\extra\widgets\span/lv_span.c ****             width =  self_size->x >= 0 ? lv_obj_get_content_width(obj) : 0;
 581:..\..\..\arduinoLCD\test\Pain Drain\libraries\lvgl\src\extra\widgets\span/lv_span.c ****             height = self_size->y >= 0 ? lv_obj_get_content_height(obj) : 0;
 582:..\..\..\arduinoLCD\test\Pain Drain\libraries\lvgl\src\extra\widgets\span/lv_span.c ****         }
 583:..\..\..\arduinoLCD\test\Pain Drain\libraries\lvgl\src\extra\widgets\span/lv_span.c ****         self_size->x = LV_MAX(self_size->x, width);
 584:..\..\..\arduinoLCD\test\Pain Drain\libraries\lvgl\src\extra\widgets\span/lv_span.c ****         self_size->y = LV_MAX(self_size->y, height);
 585:..\..\..\arduinoLCD\test\Pain Drain\libraries\lvgl\src\extra\widgets\span/lv_span.c ****     }
 586:..\..\..\arduinoLCD\test\Pain Drain\libraries\lvgl\src\extra\widgets\span/lv_span.c **** }
 587:..\..\..\arduinoLCD\test\Pain Drain\libraries\lvgl\src\extra\widgets\span/lv_span.c **** 
 588:..\..\..\arduinoLCD\test\Pain Drain\libraries\lvgl\src\extra\widgets\span/lv_span.c **** static void draw_main(lv_event_t * e)
 589:..\..\..\arduinoLCD\test\Pain Drain\libraries\lvgl\src\extra\widgets\span/lv_span.c **** {
 590:..\..\..\arduinoLCD\test\Pain Drain\libraries\lvgl\src\extra\widgets\span/lv_span.c ****     lv_obj_t * obj = lv_event_get_target(e);
 591:..\..\..\arduinoLCD\test\Pain Drain\libraries\lvgl\src\extra\widgets\span/lv_span.c ****     lv_draw_ctx_t * draw_ctx = lv_event_get_draw_ctx(e);
 592:..\..\..\arduinoLCD\test\Pain Drain\libraries\lvgl\src\extra\widgets\span/lv_span.c **** 
 593:..\..\..\arduinoLCD\test\Pain Drain\libraries\lvgl\src\extra\widgets\span/lv_span.c ****     lv_draw_span(obj, draw_ctx);
 594:..\..\..\arduinoLCD\test\Pain Drain\libraries\lvgl\src\extra\widgets\span/lv_span.c **** }
 595:..\..\..\arduinoLCD\test\Pain Drain\libraries\lvgl\src\extra\widgets\span/lv_span.c **** 
 596:..\..\..\arduinoLCD\test\Pain Drain\libraries\lvgl\src\extra\widgets\span/lv_span.c **** /**
 597:..\..\..\arduinoLCD\test\Pain Drain\libraries\lvgl\src\extra\widgets\span/lv_span.c ****  * @return true for txt fill the max_width.
 598:..\..\..\arduinoLCD\test\Pain Drain\libraries\lvgl\src\extra\widgets\span/lv_span.c ****  */
 599:..\..\..\arduinoLCD\test\Pain Drain\libraries\lvgl\src\extra\widgets\span/lv_span.c **** static bool lv_txt_get_snippet(const char * txt, const lv_font_t * font,
 600:..\..\..\arduinoLCD\test\Pain Drain\libraries\lvgl\src\extra\widgets\span/lv_span.c ****                                lv_coord_t letter_space, lv_coord_t max_width, lv_text_flag_t flag,
 601:..\..\..\arduinoLCD\test\Pain Drain\libraries\lvgl\src\extra\widgets\span/lv_span.c ****                                lv_coord_t * use_width, uint32_t * end_ofs)
ARM GAS  C:\Users\haske\AppData\Local\Temp\cc7oyVf6.s 			page 12


 602:..\..\..\arduinoLCD\test\Pain Drain\libraries\lvgl\src\extra\widgets\span/lv_span.c **** {
 603:..\..\..\arduinoLCD\test\Pain Drain\libraries\lvgl\src\extra\widgets\span/lv_span.c ****     if(txt == NULL || txt[0] == '\0') {
 604:..\..\..\arduinoLCD\test\Pain Drain\libraries\lvgl\src\extra\widgets\span/lv_span.c ****         *end_ofs = 0;
 605:..\..\..\arduinoLCD\test\Pain Drain\libraries\lvgl\src\extra\widgets\span/lv_span.c ****         *use_width = 0;
 606:..\..\..\arduinoLCD\test\Pain Drain\libraries\lvgl\src\extra\widgets\span/lv_span.c ****         return false;
 607:..\..\..\arduinoLCD\test\Pain Drain\libraries\lvgl\src\extra\widgets\span/lv_span.c ****     }
 608:..\..\..\arduinoLCD\test\Pain Drain\libraries\lvgl\src\extra\widgets\span/lv_span.c **** 
 609:..\..\..\arduinoLCD\test\Pain Drain\libraries\lvgl\src\extra\widgets\span/lv_span.c ****     uint32_t ofs = _lv_txt_get_next_line(txt, font, letter_space, max_width, use_width, flag);
 610:..\..\..\arduinoLCD\test\Pain Drain\libraries\lvgl\src\extra\widgets\span/lv_span.c ****     *end_ofs = ofs;
 611:..\..\..\arduinoLCD\test\Pain Drain\libraries\lvgl\src\extra\widgets\span/lv_span.c **** 
 612:..\..\..\arduinoLCD\test\Pain Drain\libraries\lvgl\src\extra\widgets\span/lv_span.c ****     if(txt[ofs] == '\0' && *use_width < max_width) {
 613:..\..\..\arduinoLCD\test\Pain Drain\libraries\lvgl\src\extra\widgets\span/lv_span.c ****         return false;
 614:..\..\..\arduinoLCD\test\Pain Drain\libraries\lvgl\src\extra\widgets\span/lv_span.c ****     }
 615:..\..\..\arduinoLCD\test\Pain Drain\libraries\lvgl\src\extra\widgets\span/lv_span.c ****     else {
 616:..\..\..\arduinoLCD\test\Pain Drain\libraries\lvgl\src\extra\widgets\span/lv_span.c ****         return true;
 617:..\..\..\arduinoLCD\test\Pain Drain\libraries\lvgl\src\extra\widgets\span/lv_span.c ****     }
 618:..\..\..\arduinoLCD\test\Pain Drain\libraries\lvgl\src\extra\widgets\span/lv_span.c **** }
 619:..\..\..\arduinoLCD\test\Pain Drain\libraries\lvgl\src\extra\widgets\span/lv_span.c **** 
 620:..\..\..\arduinoLCD\test\Pain Drain\libraries\lvgl\src\extra\widgets\span/lv_span.c **** static void lv_snippet_push(lv_snippet_t * item)
 621:..\..\..\arduinoLCD\test\Pain Drain\libraries\lvgl\src\extra\widgets\span/lv_span.c **** {
 622:..\..\..\arduinoLCD\test\Pain Drain\libraries\lvgl\src\extra\widgets\span/lv_span.c ****     if(snippet_stack.index < LV_SPAN_SNIPPET_STACK_SIZE) {
 623:..\..\..\arduinoLCD\test\Pain Drain\libraries\lvgl\src\extra\widgets\span/lv_span.c ****         memcpy(&snippet_stack.stack[snippet_stack.index], item, sizeof(lv_snippet_t));
 624:..\..\..\arduinoLCD\test\Pain Drain\libraries\lvgl\src\extra\widgets\span/lv_span.c ****         snippet_stack.index++;
 625:..\..\..\arduinoLCD\test\Pain Drain\libraries\lvgl\src\extra\widgets\span/lv_span.c ****     }
 626:..\..\..\arduinoLCD\test\Pain Drain\libraries\lvgl\src\extra\widgets\span/lv_span.c ****     else {
 627:..\..\..\arduinoLCD\test\Pain Drain\libraries\lvgl\src\extra\widgets\span/lv_span.c ****         LV_LOG_ERROR("span draw stack overflow, please set LV_SPAN_SNIPPET_STACK_SIZE too larger");
 628:..\..\..\arduinoLCD\test\Pain Drain\libraries\lvgl\src\extra\widgets\span/lv_span.c ****     }
 629:..\..\..\arduinoLCD\test\Pain Drain\libraries\lvgl\src\extra\widgets\span/lv_span.c **** }
 630:..\..\..\arduinoLCD\test\Pain Drain\libraries\lvgl\src\extra\widgets\span/lv_span.c **** 
 631:..\..\..\arduinoLCD\test\Pain Drain\libraries\lvgl\src\extra\widgets\span/lv_span.c **** static uint16_t lv_get_snippet_cnt(void)
 632:..\..\..\arduinoLCD\test\Pain Drain\libraries\lvgl\src\extra\widgets\span/lv_span.c **** {
  27              		.loc 1 632 0
  28              		.cfi_startproc
  29              		@ args = 0, pretend = 0, frame = 0
  30              		@ frame_needed = 0, uses_anonymous_args = 0
  31              		@ link register save eliminated.
 633:..\..\..\arduinoLCD\test\Pain Drain\libraries\lvgl\src\extra\widgets\span/lv_span.c ****     return snippet_stack.index;
  32              		.loc 1 633 0
  33 0000 A023     		movs	r3, #160
  34 0002 DB00     		lsls	r3, r3, #3
  35 0004 014A     		ldr	r2, .L2
  36 0006 D05A     		ldrh	r0, [r2, r3]
 634:..\..\..\arduinoLCD\test\Pain Drain\libraries\lvgl\src\extra\widgets\span/lv_span.c **** }
  37              		.loc 1 634 0
  38              		@ sp needed
  39 0008 7047     		bx	lr
  40              	.L3:
  41 000a C046     		.align	2
  42              	.L2:
  43 000c 00000000 		.word	.LANCHOR0
  44              		.cfi_endproc
  45              	.LFE229:
  46              		.size	lv_get_snippet_cnt, .-lv_get_snippet_cnt
  47              		.section	.text.lv_get_snippet,"ax",%progbits
  48              		.align	2
  49              		.code	16
  50              		.thumb_func
ARM GAS  C:\Users\haske\AppData\Local\Temp\cc7oyVf6.s 			page 13


  51              		.type	lv_get_snippet, %function
  52              	lv_get_snippet:
  53              	.LFB230:
 635:..\..\..\arduinoLCD\test\Pain Drain\libraries\lvgl\src\extra\widgets\span/lv_span.c **** 
 636:..\..\..\arduinoLCD\test\Pain Drain\libraries\lvgl\src\extra\widgets\span/lv_span.c **** static lv_snippet_t * lv_get_snippet(uint16_t index)
 637:..\..\..\arduinoLCD\test\Pain Drain\libraries\lvgl\src\extra\widgets\span/lv_span.c **** {
  54              		.loc 1 637 0
  55              		.cfi_startproc
  56              		@ args = 0, pretend = 0, frame = 0
  57              		@ frame_needed = 0, uses_anonymous_args = 0
  58              		@ link register save eliminated.
  59              	.LVL0:
 638:..\..\..\arduinoLCD\test\Pain Drain\libraries\lvgl\src\extra\widgets\span/lv_span.c ****     return &snippet_stack.stack[index];
  60              		.loc 1 638 0
  61 0000 8300     		lsls	r3, r0, #2
  62 0002 1B18     		adds	r3, r3, r0
  63 0004 9800     		lsls	r0, r3, #2
  64              	.LVL1:
  65 0006 014B     		ldr	r3, .L5
  66 0008 1818     		adds	r0, r3, r0
 639:..\..\..\arduinoLCD\test\Pain Drain\libraries\lvgl\src\extra\widgets\span/lv_span.c **** }
  67              		.loc 1 639 0
  68              		@ sp needed
  69 000a 7047     		bx	lr
  70              	.L6:
  71              		.align	2
  72              	.L5:
  73 000c 00000000 		.word	.LANCHOR0
  74              		.cfi_endproc
  75              	.LFE230:
  76              		.size	lv_get_snippet, .-lv_get_snippet
  77              		.section	.text.lv_snippet_clear,"ax",%progbits
  78              		.align	2
  79              		.code	16
  80              		.thumb_func
  81              		.type	lv_snippet_clear, %function
  82              	lv_snippet_clear:
  83              	.LFB231:
 640:..\..\..\arduinoLCD\test\Pain Drain\libraries\lvgl\src\extra\widgets\span/lv_span.c **** 
 641:..\..\..\arduinoLCD\test\Pain Drain\libraries\lvgl\src\extra\widgets\span/lv_span.c **** static void lv_snippet_clear(void)
 642:..\..\..\arduinoLCD\test\Pain Drain\libraries\lvgl\src\extra\widgets\span/lv_span.c **** {
  84              		.loc 1 642 0
  85              		.cfi_startproc
  86              		@ args = 0, pretend = 0, frame = 0
  87              		@ frame_needed = 0, uses_anonymous_args = 0
  88              		@ link register save eliminated.
 643:..\..\..\arduinoLCD\test\Pain Drain\libraries\lvgl\src\extra\widgets\span/lv_span.c ****     snippet_stack.index = 0;
  89              		.loc 1 643 0
  90 0000 0021     		movs	r1, #0
  91 0002 A023     		movs	r3, #160
  92 0004 DB00     		lsls	r3, r3, #3
  93 0006 014A     		ldr	r2, .L8
  94 0008 D152     		strh	r1, [r2, r3]
 644:..\..\..\arduinoLCD\test\Pain Drain\libraries\lvgl\src\extra\widgets\span/lv_span.c **** }
  95              		.loc 1 644 0
  96              		@ sp needed
  97 000a 7047     		bx	lr
ARM GAS  C:\Users\haske\AppData\Local\Temp\cc7oyVf6.s 			page 14


  98              	.L9:
  99              		.align	2
 100              	.L8:
 101 000c 00000000 		.word	.LANCHOR0
 102              		.cfi_endproc
 103              	.LFE231:
 104              		.size	lv_snippet_clear, .-lv_snippet_clear
 105              		.global	__aeabi_idiv
 106              		.section	.text.convert_indent_pct,"ax",%progbits
 107              		.align	2
 108              		.code	16
 109              		.thumb_func
 110              		.type	convert_indent_pct, %function
 111              	convert_indent_pct:
 112              	.LFB239:
 645:..\..\..\arduinoLCD\test\Pain Drain\libraries\lvgl\src\extra\widgets\span/lv_span.c **** 
 646:..\..\..\arduinoLCD\test\Pain Drain\libraries\lvgl\src\extra\widgets\span/lv_span.c **** static const lv_font_t * lv_span_get_style_text_font(lv_obj_t * par, lv_span_t * span)
 647:..\..\..\arduinoLCD\test\Pain Drain\libraries\lvgl\src\extra\widgets\span/lv_span.c **** {
 648:..\..\..\arduinoLCD\test\Pain Drain\libraries\lvgl\src\extra\widgets\span/lv_span.c ****     const lv_font_t * font;
 649:..\..\..\arduinoLCD\test\Pain Drain\libraries\lvgl\src\extra\widgets\span/lv_span.c ****     lv_style_value_t value;
 650:..\..\..\arduinoLCD\test\Pain Drain\libraries\lvgl\src\extra\widgets\span/lv_span.c ****     lv_res_t res = lv_style_get_prop(&span->style, LV_STYLE_TEXT_FONT, &value);
 651:..\..\..\arduinoLCD\test\Pain Drain\libraries\lvgl\src\extra\widgets\span/lv_span.c ****     if(res != LV_RES_OK) {
 652:..\..\..\arduinoLCD\test\Pain Drain\libraries\lvgl\src\extra\widgets\span/lv_span.c ****         font = lv_obj_get_style_text_font(par, LV_PART_MAIN);
 653:..\..\..\arduinoLCD\test\Pain Drain\libraries\lvgl\src\extra\widgets\span/lv_span.c ****     }
 654:..\..\..\arduinoLCD\test\Pain Drain\libraries\lvgl\src\extra\widgets\span/lv_span.c ****     else {
 655:..\..\..\arduinoLCD\test\Pain Drain\libraries\lvgl\src\extra\widgets\span/lv_span.c ****         font = (const lv_font_t *)value.ptr;
 656:..\..\..\arduinoLCD\test\Pain Drain\libraries\lvgl\src\extra\widgets\span/lv_span.c ****     }
 657:..\..\..\arduinoLCD\test\Pain Drain\libraries\lvgl\src\extra\widgets\span/lv_span.c ****     return font;
 658:..\..\..\arduinoLCD\test\Pain Drain\libraries\lvgl\src\extra\widgets\span/lv_span.c **** }
 659:..\..\..\arduinoLCD\test\Pain Drain\libraries\lvgl\src\extra\widgets\span/lv_span.c **** 
 660:..\..\..\arduinoLCD\test\Pain Drain\libraries\lvgl\src\extra\widgets\span/lv_span.c **** static lv_coord_t lv_span_get_style_text_letter_space(lv_obj_t * par, lv_span_t * span)
 661:..\..\..\arduinoLCD\test\Pain Drain\libraries\lvgl\src\extra\widgets\span/lv_span.c **** {
 662:..\..\..\arduinoLCD\test\Pain Drain\libraries\lvgl\src\extra\widgets\span/lv_span.c ****     lv_coord_t letter_space;
 663:..\..\..\arduinoLCD\test\Pain Drain\libraries\lvgl\src\extra\widgets\span/lv_span.c ****     lv_style_value_t value;
 664:..\..\..\arduinoLCD\test\Pain Drain\libraries\lvgl\src\extra\widgets\span/lv_span.c ****     lv_res_t res = lv_style_get_prop(&span->style, LV_STYLE_TEXT_LETTER_SPACE, &value);
 665:..\..\..\arduinoLCD\test\Pain Drain\libraries\lvgl\src\extra\widgets\span/lv_span.c ****     if(res != LV_RES_OK) {
 666:..\..\..\arduinoLCD\test\Pain Drain\libraries\lvgl\src\extra\widgets\span/lv_span.c ****         letter_space = lv_obj_get_style_text_letter_space(par, LV_PART_MAIN);
 667:..\..\..\arduinoLCD\test\Pain Drain\libraries\lvgl\src\extra\widgets\span/lv_span.c ****     }
 668:..\..\..\arduinoLCD\test\Pain Drain\libraries\lvgl\src\extra\widgets\span/lv_span.c ****     else {
 669:..\..\..\arduinoLCD\test\Pain Drain\libraries\lvgl\src\extra\widgets\span/lv_span.c ****         letter_space = (lv_coord_t)value.num;
 670:..\..\..\arduinoLCD\test\Pain Drain\libraries\lvgl\src\extra\widgets\span/lv_span.c ****     }
 671:..\..\..\arduinoLCD\test\Pain Drain\libraries\lvgl\src\extra\widgets\span/lv_span.c ****     return letter_space;
 672:..\..\..\arduinoLCD\test\Pain Drain\libraries\lvgl\src\extra\widgets\span/lv_span.c **** }
 673:..\..\..\arduinoLCD\test\Pain Drain\libraries\lvgl\src\extra\widgets\span/lv_span.c **** 
 674:..\..\..\arduinoLCD\test\Pain Drain\libraries\lvgl\src\extra\widgets\span/lv_span.c **** static lv_color_t lv_span_get_style_text_color(lv_obj_t * par, lv_span_t * span)
 675:..\..\..\arduinoLCD\test\Pain Drain\libraries\lvgl\src\extra\widgets\span/lv_span.c **** {
 676:..\..\..\arduinoLCD\test\Pain Drain\libraries\lvgl\src\extra\widgets\span/lv_span.c ****     lv_style_value_t value;
 677:..\..\..\arduinoLCD\test\Pain Drain\libraries\lvgl\src\extra\widgets\span/lv_span.c ****     lv_res_t res = lv_style_get_prop(&span->style, LV_STYLE_TEXT_COLOR, &value);
 678:..\..\..\arduinoLCD\test\Pain Drain\libraries\lvgl\src\extra\widgets\span/lv_span.c ****     if(res != LV_RES_OK) {
 679:..\..\..\arduinoLCD\test\Pain Drain\libraries\lvgl\src\extra\widgets\span/lv_span.c ****         value.color = lv_obj_get_style_text_color(par, LV_PART_MAIN);
 680:..\..\..\arduinoLCD\test\Pain Drain\libraries\lvgl\src\extra\widgets\span/lv_span.c ****     }
 681:..\..\..\arduinoLCD\test\Pain Drain\libraries\lvgl\src\extra\widgets\span/lv_span.c ****     return value.color;
 682:..\..\..\arduinoLCD\test\Pain Drain\libraries\lvgl\src\extra\widgets\span/lv_span.c **** }
 683:..\..\..\arduinoLCD\test\Pain Drain\libraries\lvgl\src\extra\widgets\span/lv_span.c **** 
 684:..\..\..\arduinoLCD\test\Pain Drain\libraries\lvgl\src\extra\widgets\span/lv_span.c **** static lv_opa_t lv_span_get_style_text_opa(lv_obj_t * par, lv_span_t * span)
 685:..\..\..\arduinoLCD\test\Pain Drain\libraries\lvgl\src\extra\widgets\span/lv_span.c **** {
 686:..\..\..\arduinoLCD\test\Pain Drain\libraries\lvgl\src\extra\widgets\span/lv_span.c ****     lv_opa_t opa;
ARM GAS  C:\Users\haske\AppData\Local\Temp\cc7oyVf6.s 			page 15


 687:..\..\..\arduinoLCD\test\Pain Drain\libraries\lvgl\src\extra\widgets\span/lv_span.c ****     lv_style_value_t value;
 688:..\..\..\arduinoLCD\test\Pain Drain\libraries\lvgl\src\extra\widgets\span/lv_span.c ****     lv_res_t res = lv_style_get_prop(&span->style, LV_STYLE_TEXT_OPA, &value);
 689:..\..\..\arduinoLCD\test\Pain Drain\libraries\lvgl\src\extra\widgets\span/lv_span.c ****     if(res != LV_RES_OK) {
 690:..\..\..\arduinoLCD\test\Pain Drain\libraries\lvgl\src\extra\widgets\span/lv_span.c ****         opa = (lv_opa_t)lv_obj_get_style_text_opa(par, LV_PART_MAIN);
 691:..\..\..\arduinoLCD\test\Pain Drain\libraries\lvgl\src\extra\widgets\span/lv_span.c ****     }
 692:..\..\..\arduinoLCD\test\Pain Drain\libraries\lvgl\src\extra\widgets\span/lv_span.c ****     else {
 693:..\..\..\arduinoLCD\test\Pain Drain\libraries\lvgl\src\extra\widgets\span/lv_span.c ****         opa = (lv_opa_t)value.num;
 694:..\..\..\arduinoLCD\test\Pain Drain\libraries\lvgl\src\extra\widgets\span/lv_span.c ****     }
 695:..\..\..\arduinoLCD\test\Pain Drain\libraries\lvgl\src\extra\widgets\span/lv_span.c ****     return opa;
 696:..\..\..\arduinoLCD\test\Pain Drain\libraries\lvgl\src\extra\widgets\span/lv_span.c **** }
 697:..\..\..\arduinoLCD\test\Pain Drain\libraries\lvgl\src\extra\widgets\span/lv_span.c **** 
 698:..\..\..\arduinoLCD\test\Pain Drain\libraries\lvgl\src\extra\widgets\span/lv_span.c **** static lv_blend_mode_t lv_span_get_style_text_blend_mode(lv_obj_t * par, lv_span_t * span)
 699:..\..\..\arduinoLCD\test\Pain Drain\libraries\lvgl\src\extra\widgets\span/lv_span.c **** {
 700:..\..\..\arduinoLCD\test\Pain Drain\libraries\lvgl\src\extra\widgets\span/lv_span.c ****     lv_blend_mode_t mode;
 701:..\..\..\arduinoLCD\test\Pain Drain\libraries\lvgl\src\extra\widgets\span/lv_span.c ****     lv_style_value_t value;
 702:..\..\..\arduinoLCD\test\Pain Drain\libraries\lvgl\src\extra\widgets\span/lv_span.c ****     lv_res_t res = lv_style_get_prop(&span->style, LV_STYLE_BLEND_MODE, &value);
 703:..\..\..\arduinoLCD\test\Pain Drain\libraries\lvgl\src\extra\widgets\span/lv_span.c ****     if(res != LV_RES_OK) {
 704:..\..\..\arduinoLCD\test\Pain Drain\libraries\lvgl\src\extra\widgets\span/lv_span.c ****         mode = (lv_blend_mode_t)lv_obj_get_style_blend_mode(par, LV_PART_MAIN);
 705:..\..\..\arduinoLCD\test\Pain Drain\libraries\lvgl\src\extra\widgets\span/lv_span.c ****     }
 706:..\..\..\arduinoLCD\test\Pain Drain\libraries\lvgl\src\extra\widgets\span/lv_span.c ****     else {
 707:..\..\..\arduinoLCD\test\Pain Drain\libraries\lvgl\src\extra\widgets\span/lv_span.c ****         mode = (lv_blend_mode_t)value.num;
 708:..\..\..\arduinoLCD\test\Pain Drain\libraries\lvgl\src\extra\widgets\span/lv_span.c ****     }
 709:..\..\..\arduinoLCD\test\Pain Drain\libraries\lvgl\src\extra\widgets\span/lv_span.c ****     return mode;
 710:..\..\..\arduinoLCD\test\Pain Drain\libraries\lvgl\src\extra\widgets\span/lv_span.c **** }
 711:..\..\..\arduinoLCD\test\Pain Drain\libraries\lvgl\src\extra\widgets\span/lv_span.c **** 
 712:..\..\..\arduinoLCD\test\Pain Drain\libraries\lvgl\src\extra\widgets\span/lv_span.c **** static int32_t lv_span_get_style_text_decor(lv_obj_t * par, lv_span_t * span)
 713:..\..\..\arduinoLCD\test\Pain Drain\libraries\lvgl\src\extra\widgets\span/lv_span.c **** {
 714:..\..\..\arduinoLCD\test\Pain Drain\libraries\lvgl\src\extra\widgets\span/lv_span.c ****     int32_t decor;
 715:..\..\..\arduinoLCD\test\Pain Drain\libraries\lvgl\src\extra\widgets\span/lv_span.c ****     lv_style_value_t value;
 716:..\..\..\arduinoLCD\test\Pain Drain\libraries\lvgl\src\extra\widgets\span/lv_span.c ****     lv_res_t res = lv_style_get_prop(&span->style, LV_STYLE_TEXT_DECOR, &value);
 717:..\..\..\arduinoLCD\test\Pain Drain\libraries\lvgl\src\extra\widgets\span/lv_span.c ****     if(res != LV_RES_OK) {
 718:..\..\..\arduinoLCD\test\Pain Drain\libraries\lvgl\src\extra\widgets\span/lv_span.c ****         decor = (lv_text_decor_t)lv_obj_get_style_text_decor(par, LV_PART_MAIN);;
 719:..\..\..\arduinoLCD\test\Pain Drain\libraries\lvgl\src\extra\widgets\span/lv_span.c ****     }
 720:..\..\..\arduinoLCD\test\Pain Drain\libraries\lvgl\src\extra\widgets\span/lv_span.c ****     else {
 721:..\..\..\arduinoLCD\test\Pain Drain\libraries\lvgl\src\extra\widgets\span/lv_span.c ****         decor = (int32_t)value.num;
 722:..\..\..\arduinoLCD\test\Pain Drain\libraries\lvgl\src\extra\widgets\span/lv_span.c ****     }
 723:..\..\..\arduinoLCD\test\Pain Drain\libraries\lvgl\src\extra\widgets\span/lv_span.c ****     return decor;
 724:..\..\..\arduinoLCD\test\Pain Drain\libraries\lvgl\src\extra\widgets\span/lv_span.c **** }
 725:..\..\..\arduinoLCD\test\Pain Drain\libraries\lvgl\src\extra\widgets\span/lv_span.c **** 
 726:..\..\..\arduinoLCD\test\Pain Drain\libraries\lvgl\src\extra\widgets\span/lv_span.c **** static inline void span_text_check(const char ** text)
 727:..\..\..\arduinoLCD\test\Pain Drain\libraries\lvgl\src\extra\widgets\span/lv_span.c **** {
 728:..\..\..\arduinoLCD\test\Pain Drain\libraries\lvgl\src\extra\widgets\span/lv_span.c ****     if(*text == NULL) {
 729:..\..\..\arduinoLCD\test\Pain Drain\libraries\lvgl\src\extra\widgets\span/lv_span.c ****         *text = "";
 730:..\..\..\arduinoLCD\test\Pain Drain\libraries\lvgl\src\extra\widgets\span/lv_span.c ****         LV_LOG_ERROR("occur an error that span text == NULL");
 731:..\..\..\arduinoLCD\test\Pain Drain\libraries\lvgl\src\extra\widgets\span/lv_span.c ****     }
 732:..\..\..\arduinoLCD\test\Pain Drain\libraries\lvgl\src\extra\widgets\span/lv_span.c **** }
 733:..\..\..\arduinoLCD\test\Pain Drain\libraries\lvgl\src\extra\widgets\span/lv_span.c **** 
 734:..\..\..\arduinoLCD\test\Pain Drain\libraries\lvgl\src\extra\widgets\span/lv_span.c **** static lv_coord_t convert_indent_pct(lv_obj_t * obj, lv_coord_t width)
 735:..\..\..\arduinoLCD\test\Pain Drain\libraries\lvgl\src\extra\widgets\span/lv_span.c **** {
 113              		.loc 1 735 0
 114              		.cfi_startproc
 115              		@ args = 0, pretend = 0, frame = 0
 116              		@ frame_needed = 0, uses_anonymous_args = 0
 117              	.LVL2:
 118 0000 10B5     		push	{r4, lr}
 119              		.cfi_def_cfa_offset 8
 120              		.cfi_offset 4, -8
ARM GAS  C:\Users\haske\AppData\Local\Temp\cc7oyVf6.s 			page 16


 121              		.cfi_offset 14, -4
 122              	.LVL3:
 736:..\..\..\arduinoLCD\test\Pain Drain\libraries\lvgl\src\extra\widgets\span/lv_span.c ****     lv_spangroup_t * spans = (lv_spangroup_t *)obj;
 737:..\..\..\arduinoLCD\test\Pain Drain\libraries\lvgl\src\extra\widgets\span/lv_span.c **** 
 738:..\..\..\arduinoLCD\test\Pain Drain\libraries\lvgl\src\extra\widgets\span/lv_span.c ****     lv_coord_t indent = spans->indent;
 123              		.loc 1 738 0
 124 0002 2823     		movs	r3, #40
 125 0004 C25E     		ldrsh	r2, [r0, r3]
 126              	.LVL4:
 739:..\..\..\arduinoLCD\test\Pain Drain\libraries\lvgl\src\extra\widgets\span/lv_span.c ****     if(LV_COORD_IS_PCT(spans->indent)) {
 127              		.loc 1 739 0
 128 0006 8024     		movs	r4, #128
 129 0008 A401     		lsls	r4, r4, #6
 130 000a C023     		movs	r3, #192
 131 000c DB01     		lsls	r3, r3, #7
 132 000e 1340     		ands	r3, r2
 133 0010 A342     		cmp	r3, r4
 134 0012 18D1     		bne	.L11
 135              		.loc 1 739 0 is_stmt 0 discriminator 1
 136 0014 0D4B     		ldr	r3, .L15
 137 0016 1340     		ands	r3, r2
 138 0018 FA24     		movs	r4, #250
 139 001a E400     		lsls	r4, r4, #3
 140 001c A342     		cmp	r3, r4
 141 001e 12DC     		bgt	.L11
 740:..\..\..\arduinoLCD\test\Pain Drain\libraries\lvgl\src\extra\widgets\span/lv_span.c ****         if(spans->mode == LV_SPAN_MODE_EXPAND) {
 142              		.loc 1 740 0 is_stmt 1
 143 0020 3C22     		movs	r2, #60
 144              	.LVL5:
 145 0022 825C     		ldrb	r2, [r0, r2]
 146 0024 0320     		movs	r0, #3
 147              	.LVL6:
 148 0026 0240     		ands	r2, r0
 149 0028 012A     		cmp	r2, #1
 150 002a 0BD0     		beq	.L14
 741:..\..\..\arduinoLCD\test\Pain Drain\libraries\lvgl\src\extra\widgets\span/lv_span.c ****             indent = 0;
 742:..\..\..\arduinoLCD\test\Pain Drain\libraries\lvgl\src\extra\widgets\span/lv_span.c ****         }
 743:..\..\..\arduinoLCD\test\Pain Drain\libraries\lvgl\src\extra\widgets\span/lv_span.c ****         else {
 744:..\..\..\arduinoLCD\test\Pain Drain\libraries\lvgl\src\extra\widgets\span/lv_span.c ****             indent = (width * LV_COORD_GET_PCT(spans->indent)) / 100;
 151              		.loc 1 744 0
 152 002c FA22     		movs	r2, #250
 153 002e 9200     		lsls	r2, r2, #2
 154 0030 9342     		cmp	r3, r2
 155 0032 00DD     		ble	.L13
 156              		.loc 1 744 0 is_stmt 0 discriminator 1
 157 0034 D31A     		subs	r3, r2, r3
 158              	.L13:
 159              		.loc 1 744 0 discriminator 4
 160 0036 5943     		muls	r1, r3
 161              	.LVL7:
 162 0038 0800     		movs	r0, r1
 163 003a 6421     		movs	r1, #100
 164 003c FFF7FEFF 		bl	__aeabi_idiv
 165              	.LVL8:
 166 0040 02B2     		sxth	r2, r0
 167              	.LVL9:
 168 0042 00E0     		b	.L11
ARM GAS  C:\Users\haske\AppData\Local\Temp\cc7oyVf6.s 			page 17


 169              	.LVL10:
 170              	.L14:
 741:..\..\..\arduinoLCD\test\Pain Drain\libraries\lvgl\src\extra\widgets\span/lv_span.c ****             indent = 0;
 171              		.loc 1 741 0 is_stmt 1
 172 0044 0022     		movs	r2, #0
 173              	.LVL11:
 174              	.L11:
 745:..\..\..\arduinoLCD\test\Pain Drain\libraries\lvgl\src\extra\widgets\span/lv_span.c ****         }
 746:..\..\..\arduinoLCD\test\Pain Drain\libraries\lvgl\src\extra\widgets\span/lv_span.c ****     }
 747:..\..\..\arduinoLCD\test\Pain Drain\libraries\lvgl\src\extra\widgets\span/lv_span.c **** 
 748:..\..\..\arduinoLCD\test\Pain Drain\libraries\lvgl\src\extra\widgets\span/lv_span.c ****     return indent;
 749:..\..\..\arduinoLCD\test\Pain Drain\libraries\lvgl\src\extra\widgets\span/lv_span.c **** }
 175              		.loc 1 749 0
 176 0046 1000     		movs	r0, r2
 177              		@ sp needed
 178 0048 10BD     		pop	{r4, pc}
 179              	.L16:
 180 004a C046     		.align	2
 181              	.L15:
 182 004c FF9FFFFF 		.word	-24577
 183              		.cfi_endproc
 184              	.LFE239:
 185              		.size	convert_indent_pct, .-convert_indent_pct
 186              		.section	.text.lv_span_get_style_text_letter_space,"ax",%progbits
 187              		.align	2
 188              		.code	16
 189              		.thumb_func
 190              		.type	lv_span_get_style_text_letter_space, %function
 191              	lv_span_get_style_text_letter_space:
 192              	.LFB233:
 661:..\..\..\arduinoLCD\test\Pain Drain\libraries\lvgl\src\extra\widgets\span/lv_span.c ****     lv_coord_t letter_space;
 193              		.loc 1 661 0
 194              		.cfi_startproc
 195              		@ args = 0, pretend = 0, frame = 8
 196              		@ frame_needed = 0, uses_anonymous_args = 0
 197              	.LVL12:
 198 0000 10B5     		push	{r4, lr}
 199              		.cfi_def_cfa_offset 8
 200              		.cfi_offset 4, -8
 201              		.cfi_offset 14, -4
 202 0002 82B0     		sub	sp, sp, #8
 203              		.cfi_def_cfa_offset 16
 204 0004 0400     		movs	r4, r0
 664:..\..\..\arduinoLCD\test\Pain Drain\libraries\lvgl\src\extra\widgets\span/lv_span.c ****     if(res != LV_RES_OK) {
 205              		.loc 1 664 0
 206 0006 0831     		adds	r1, r1, #8
 207              	.LVL13:
 208 0008 0800     		movs	r0, r1
 209              	.LVL14:
 210 000a 01AA     		add	r2, sp, #4
 211 000c 5821     		movs	r1, #88
 212              	.LVL15:
 213 000e FFF7FEFF 		bl	lv_style_get_prop
 214              	.LVL16:
 665:..\..\..\arduinoLCD\test\Pain Drain\libraries\lvgl\src\extra\widgets\span/lv_span.c ****         letter_space = lv_obj_get_style_text_letter_space(par, LV_PART_MAIN);
 215              		.loc 1 665 0
 216 0012 0128     		cmp	r0, #1
ARM GAS  C:\Users\haske\AppData\Local\Temp\cc7oyVf6.s 			page 18


 217 0014 06D0     		beq	.L18
 218              	.LVL17:
 219              	.LBB81:
 220              	.LBB82:
 221              		.file 2 "c:\\projects\\paindrain\\arduinolcd\\test\\pain drain\\libraries\\lvgl\\src/core/lv_obj_s
   1:c:\projects\paindrain\arduinolcd\test\pain drain\libraries\lvgl\src/core\lv_obj_style_gen.h **** static inline lv_coord_t lv_obj_get_style_width(const struct _lv_obj_t * obj, uint32_t part)
   2:c:\projects\paindrain\arduinolcd\test\pain drain\libraries\lvgl\src/core\lv_obj_style_gen.h **** {
   3:c:\projects\paindrain\arduinolcd\test\pain drain\libraries\lvgl\src/core\lv_obj_style_gen.h ****     lv_style_value_t v = lv_obj_get_style_prop(obj, part, LV_STYLE_WIDTH);
   4:c:\projects\paindrain\arduinolcd\test\pain drain\libraries\lvgl\src/core\lv_obj_style_gen.h ****     return (lv_coord_t)v.num;
   5:c:\projects\paindrain\arduinolcd\test\pain drain\libraries\lvgl\src/core\lv_obj_style_gen.h **** }
   6:c:\projects\paindrain\arduinolcd\test\pain drain\libraries\lvgl\src/core\lv_obj_style_gen.h **** 
   7:c:\projects\paindrain\arduinolcd\test\pain drain\libraries\lvgl\src/core\lv_obj_style_gen.h **** static inline lv_coord_t lv_obj_get_style_min_width(const struct _lv_obj_t * obj, uint32_t part)
   8:c:\projects\paindrain\arduinolcd\test\pain drain\libraries\lvgl\src/core\lv_obj_style_gen.h **** {
   9:c:\projects\paindrain\arduinolcd\test\pain drain\libraries\lvgl\src/core\lv_obj_style_gen.h ****     lv_style_value_t v = lv_obj_get_style_prop(obj, part, LV_STYLE_MIN_WIDTH);
  10:c:\projects\paindrain\arduinolcd\test\pain drain\libraries\lvgl\src/core\lv_obj_style_gen.h ****     return (lv_coord_t)v.num;
  11:c:\projects\paindrain\arduinolcd\test\pain drain\libraries\lvgl\src/core\lv_obj_style_gen.h **** }
  12:c:\projects\paindrain\arduinolcd\test\pain drain\libraries\lvgl\src/core\lv_obj_style_gen.h **** 
  13:c:\projects\paindrain\arduinolcd\test\pain drain\libraries\lvgl\src/core\lv_obj_style_gen.h **** static inline lv_coord_t lv_obj_get_style_max_width(const struct _lv_obj_t * obj, uint32_t part)
  14:c:\projects\paindrain\arduinolcd\test\pain drain\libraries\lvgl\src/core\lv_obj_style_gen.h **** {
  15:c:\projects\paindrain\arduinolcd\test\pain drain\libraries\lvgl\src/core\lv_obj_style_gen.h ****     lv_style_value_t v = lv_obj_get_style_prop(obj, part, LV_STYLE_MAX_WIDTH);
  16:c:\projects\paindrain\arduinolcd\test\pain drain\libraries\lvgl\src/core\lv_obj_style_gen.h ****     return (lv_coord_t)v.num;
  17:c:\projects\paindrain\arduinolcd\test\pain drain\libraries\lvgl\src/core\lv_obj_style_gen.h **** }
  18:c:\projects\paindrain\arduinolcd\test\pain drain\libraries\lvgl\src/core\lv_obj_style_gen.h **** 
  19:c:\projects\paindrain\arduinolcd\test\pain drain\libraries\lvgl\src/core\lv_obj_style_gen.h **** static inline lv_coord_t lv_obj_get_style_height(const struct _lv_obj_t * obj, uint32_t part)
  20:c:\projects\paindrain\arduinolcd\test\pain drain\libraries\lvgl\src/core\lv_obj_style_gen.h **** {
  21:c:\projects\paindrain\arduinolcd\test\pain drain\libraries\lvgl\src/core\lv_obj_style_gen.h ****     lv_style_value_t v = lv_obj_get_style_prop(obj, part, LV_STYLE_HEIGHT);
  22:c:\projects\paindrain\arduinolcd\test\pain drain\libraries\lvgl\src/core\lv_obj_style_gen.h ****     return (lv_coord_t)v.num;
  23:c:\projects\paindrain\arduinolcd\test\pain drain\libraries\lvgl\src/core\lv_obj_style_gen.h **** }
  24:c:\projects\paindrain\arduinolcd\test\pain drain\libraries\lvgl\src/core\lv_obj_style_gen.h **** 
  25:c:\projects\paindrain\arduinolcd\test\pain drain\libraries\lvgl\src/core\lv_obj_style_gen.h **** static inline lv_coord_t lv_obj_get_style_min_height(const struct _lv_obj_t * obj, uint32_t part)
  26:c:\projects\paindrain\arduinolcd\test\pain drain\libraries\lvgl\src/core\lv_obj_style_gen.h **** {
  27:c:\projects\paindrain\arduinolcd\test\pain drain\libraries\lvgl\src/core\lv_obj_style_gen.h ****     lv_style_value_t v = lv_obj_get_style_prop(obj, part, LV_STYLE_MIN_HEIGHT);
  28:c:\projects\paindrain\arduinolcd\test\pain drain\libraries\lvgl\src/core\lv_obj_style_gen.h ****     return (lv_coord_t)v.num;
  29:c:\projects\paindrain\arduinolcd\test\pain drain\libraries\lvgl\src/core\lv_obj_style_gen.h **** }
  30:c:\projects\paindrain\arduinolcd\test\pain drain\libraries\lvgl\src/core\lv_obj_style_gen.h **** 
  31:c:\projects\paindrain\arduinolcd\test\pain drain\libraries\lvgl\src/core\lv_obj_style_gen.h **** static inline lv_coord_t lv_obj_get_style_max_height(const struct _lv_obj_t * obj, uint32_t part)
  32:c:\projects\paindrain\arduinolcd\test\pain drain\libraries\lvgl\src/core\lv_obj_style_gen.h **** {
  33:c:\projects\paindrain\arduinolcd\test\pain drain\libraries\lvgl\src/core\lv_obj_style_gen.h ****     lv_style_value_t v = lv_obj_get_style_prop(obj, part, LV_STYLE_MAX_HEIGHT);
  34:c:\projects\paindrain\arduinolcd\test\pain drain\libraries\lvgl\src/core\lv_obj_style_gen.h ****     return (lv_coord_t)v.num;
  35:c:\projects\paindrain\arduinolcd\test\pain drain\libraries\lvgl\src/core\lv_obj_style_gen.h **** }
  36:c:\projects\paindrain\arduinolcd\test\pain drain\libraries\lvgl\src/core\lv_obj_style_gen.h **** 
  37:c:\projects\paindrain\arduinolcd\test\pain drain\libraries\lvgl\src/core\lv_obj_style_gen.h **** static inline lv_coord_t lv_obj_get_style_x(const struct _lv_obj_t * obj, uint32_t part)
  38:c:\projects\paindrain\arduinolcd\test\pain drain\libraries\lvgl\src/core\lv_obj_style_gen.h **** {
  39:c:\projects\paindrain\arduinolcd\test\pain drain\libraries\lvgl\src/core\lv_obj_style_gen.h ****     lv_style_value_t v = lv_obj_get_style_prop(obj, part, LV_STYLE_X);
  40:c:\projects\paindrain\arduinolcd\test\pain drain\libraries\lvgl\src/core\lv_obj_style_gen.h ****     return (lv_coord_t)v.num;
  41:c:\projects\paindrain\arduinolcd\test\pain drain\libraries\lvgl\src/core\lv_obj_style_gen.h **** }
  42:c:\projects\paindrain\arduinolcd\test\pain drain\libraries\lvgl\src/core\lv_obj_style_gen.h **** 
  43:c:\projects\paindrain\arduinolcd\test\pain drain\libraries\lvgl\src/core\lv_obj_style_gen.h **** static inline lv_coord_t lv_obj_get_style_y(const struct _lv_obj_t * obj, uint32_t part)
  44:c:\projects\paindrain\arduinolcd\test\pain drain\libraries\lvgl\src/core\lv_obj_style_gen.h **** {
  45:c:\projects\paindrain\arduinolcd\test\pain drain\libraries\lvgl\src/core\lv_obj_style_gen.h ****     lv_style_value_t v = lv_obj_get_style_prop(obj, part, LV_STYLE_Y);
  46:c:\projects\paindrain\arduinolcd\test\pain drain\libraries\lvgl\src/core\lv_obj_style_gen.h ****     return (lv_coord_t)v.num;
  47:c:\projects\paindrain\arduinolcd\test\pain drain\libraries\lvgl\src/core\lv_obj_style_gen.h **** }
  48:c:\projects\paindrain\arduinolcd\test\pain drain\libraries\lvgl\src/core\lv_obj_style_gen.h **** 
  49:c:\projects\paindrain\arduinolcd\test\pain drain\libraries\lvgl\src/core\lv_obj_style_gen.h **** static inline lv_align_t lv_obj_get_style_align(const struct _lv_obj_t * obj, uint32_t part)
  50:c:\projects\paindrain\arduinolcd\test\pain drain\libraries\lvgl\src/core\lv_obj_style_gen.h **** {
  51:c:\projects\paindrain\arduinolcd\test\pain drain\libraries\lvgl\src/core\lv_obj_style_gen.h ****     lv_style_value_t v = lv_obj_get_style_prop(obj, part, LV_STYLE_ALIGN);
  52:c:\projects\paindrain\arduinolcd\test\pain drain\libraries\lvgl\src/core\lv_obj_style_gen.h ****     return (lv_align_t)v.num;
ARM GAS  C:\Users\haske\AppData\Local\Temp\cc7oyVf6.s 			page 19


  53:c:\projects\paindrain\arduinolcd\test\pain drain\libraries\lvgl\src/core\lv_obj_style_gen.h **** }
  54:c:\projects\paindrain\arduinolcd\test\pain drain\libraries\lvgl\src/core\lv_obj_style_gen.h **** 
  55:c:\projects\paindrain\arduinolcd\test\pain drain\libraries\lvgl\src/core\lv_obj_style_gen.h **** static inline lv_coord_t lv_obj_get_style_transform_width(const struct _lv_obj_t * obj, uint32_t pa
  56:c:\projects\paindrain\arduinolcd\test\pain drain\libraries\lvgl\src/core\lv_obj_style_gen.h **** {
  57:c:\projects\paindrain\arduinolcd\test\pain drain\libraries\lvgl\src/core\lv_obj_style_gen.h ****     lv_style_value_t v = lv_obj_get_style_prop(obj, part, LV_STYLE_TRANSFORM_WIDTH);
  58:c:\projects\paindrain\arduinolcd\test\pain drain\libraries\lvgl\src/core\lv_obj_style_gen.h ****     return (lv_coord_t)v.num;
  59:c:\projects\paindrain\arduinolcd\test\pain drain\libraries\lvgl\src/core\lv_obj_style_gen.h **** }
  60:c:\projects\paindrain\arduinolcd\test\pain drain\libraries\lvgl\src/core\lv_obj_style_gen.h **** 
  61:c:\projects\paindrain\arduinolcd\test\pain drain\libraries\lvgl\src/core\lv_obj_style_gen.h **** static inline lv_coord_t lv_obj_get_style_transform_height(const struct _lv_obj_t * obj, uint32_t p
  62:c:\projects\paindrain\arduinolcd\test\pain drain\libraries\lvgl\src/core\lv_obj_style_gen.h **** {
  63:c:\projects\paindrain\arduinolcd\test\pain drain\libraries\lvgl\src/core\lv_obj_style_gen.h ****     lv_style_value_t v = lv_obj_get_style_prop(obj, part, LV_STYLE_TRANSFORM_HEIGHT);
  64:c:\projects\paindrain\arduinolcd\test\pain drain\libraries\lvgl\src/core\lv_obj_style_gen.h ****     return (lv_coord_t)v.num;
  65:c:\projects\paindrain\arduinolcd\test\pain drain\libraries\lvgl\src/core\lv_obj_style_gen.h **** }
  66:c:\projects\paindrain\arduinolcd\test\pain drain\libraries\lvgl\src/core\lv_obj_style_gen.h **** 
  67:c:\projects\paindrain\arduinolcd\test\pain drain\libraries\lvgl\src/core\lv_obj_style_gen.h **** static inline lv_coord_t lv_obj_get_style_translate_x(const struct _lv_obj_t * obj, uint32_t part)
  68:c:\projects\paindrain\arduinolcd\test\pain drain\libraries\lvgl\src/core\lv_obj_style_gen.h **** {
  69:c:\projects\paindrain\arduinolcd\test\pain drain\libraries\lvgl\src/core\lv_obj_style_gen.h ****     lv_style_value_t v = lv_obj_get_style_prop(obj, part, LV_STYLE_TRANSLATE_X);
  70:c:\projects\paindrain\arduinolcd\test\pain drain\libraries\lvgl\src/core\lv_obj_style_gen.h ****     return (lv_coord_t)v.num;
  71:c:\projects\paindrain\arduinolcd\test\pain drain\libraries\lvgl\src/core\lv_obj_style_gen.h **** }
  72:c:\projects\paindrain\arduinolcd\test\pain drain\libraries\lvgl\src/core\lv_obj_style_gen.h **** 
  73:c:\projects\paindrain\arduinolcd\test\pain drain\libraries\lvgl\src/core\lv_obj_style_gen.h **** static inline lv_coord_t lv_obj_get_style_translate_y(const struct _lv_obj_t * obj, uint32_t part)
  74:c:\projects\paindrain\arduinolcd\test\pain drain\libraries\lvgl\src/core\lv_obj_style_gen.h **** {
  75:c:\projects\paindrain\arduinolcd\test\pain drain\libraries\lvgl\src/core\lv_obj_style_gen.h ****     lv_style_value_t v = lv_obj_get_style_prop(obj, part, LV_STYLE_TRANSLATE_Y);
  76:c:\projects\paindrain\arduinolcd\test\pain drain\libraries\lvgl\src/core\lv_obj_style_gen.h ****     return (lv_coord_t)v.num;
  77:c:\projects\paindrain\arduinolcd\test\pain drain\libraries\lvgl\src/core\lv_obj_style_gen.h **** }
  78:c:\projects\paindrain\arduinolcd\test\pain drain\libraries\lvgl\src/core\lv_obj_style_gen.h **** 
  79:c:\projects\paindrain\arduinolcd\test\pain drain\libraries\lvgl\src/core\lv_obj_style_gen.h **** static inline lv_coord_t lv_obj_get_style_transform_zoom(const struct _lv_obj_t * obj, uint32_t par
  80:c:\projects\paindrain\arduinolcd\test\pain drain\libraries\lvgl\src/core\lv_obj_style_gen.h **** {
  81:c:\projects\paindrain\arduinolcd\test\pain drain\libraries\lvgl\src/core\lv_obj_style_gen.h ****     lv_style_value_t v = lv_obj_get_style_prop(obj, part, LV_STYLE_TRANSFORM_ZOOM);
  82:c:\projects\paindrain\arduinolcd\test\pain drain\libraries\lvgl\src/core\lv_obj_style_gen.h ****     return (lv_coord_t)v.num;
  83:c:\projects\paindrain\arduinolcd\test\pain drain\libraries\lvgl\src/core\lv_obj_style_gen.h **** }
  84:c:\projects\paindrain\arduinolcd\test\pain drain\libraries\lvgl\src/core\lv_obj_style_gen.h **** 
  85:c:\projects\paindrain\arduinolcd\test\pain drain\libraries\lvgl\src/core\lv_obj_style_gen.h **** static inline lv_coord_t lv_obj_get_style_transform_angle(const struct _lv_obj_t * obj, uint32_t pa
  86:c:\projects\paindrain\arduinolcd\test\pain drain\libraries\lvgl\src/core\lv_obj_style_gen.h **** {
  87:c:\projects\paindrain\arduinolcd\test\pain drain\libraries\lvgl\src/core\lv_obj_style_gen.h ****     lv_style_value_t v = lv_obj_get_style_prop(obj, part, LV_STYLE_TRANSFORM_ANGLE);
  88:c:\projects\paindrain\arduinolcd\test\pain drain\libraries\lvgl\src/core\lv_obj_style_gen.h ****     return (lv_coord_t)v.num;
  89:c:\projects\paindrain\arduinolcd\test\pain drain\libraries\lvgl\src/core\lv_obj_style_gen.h **** }
  90:c:\projects\paindrain\arduinolcd\test\pain drain\libraries\lvgl\src/core\lv_obj_style_gen.h **** 
  91:c:\projects\paindrain\arduinolcd\test\pain drain\libraries\lvgl\src/core\lv_obj_style_gen.h **** static inline lv_coord_t lv_obj_get_style_transform_pivot_x(const struct _lv_obj_t * obj, uint32_t 
  92:c:\projects\paindrain\arduinolcd\test\pain drain\libraries\lvgl\src/core\lv_obj_style_gen.h **** {
  93:c:\projects\paindrain\arduinolcd\test\pain drain\libraries\lvgl\src/core\lv_obj_style_gen.h ****     lv_style_value_t v = lv_obj_get_style_prop(obj, part, LV_STYLE_TRANSFORM_PIVOT_X);
  94:c:\projects\paindrain\arduinolcd\test\pain drain\libraries\lvgl\src/core\lv_obj_style_gen.h ****     return (lv_coord_t)v.num;
  95:c:\projects\paindrain\arduinolcd\test\pain drain\libraries\lvgl\src/core\lv_obj_style_gen.h **** }
  96:c:\projects\paindrain\arduinolcd\test\pain drain\libraries\lvgl\src/core\lv_obj_style_gen.h **** 
  97:c:\projects\paindrain\arduinolcd\test\pain drain\libraries\lvgl\src/core\lv_obj_style_gen.h **** static inline lv_coord_t lv_obj_get_style_transform_pivot_y(const struct _lv_obj_t * obj, uint32_t 
  98:c:\projects\paindrain\arduinolcd\test\pain drain\libraries\lvgl\src/core\lv_obj_style_gen.h **** {
  99:c:\projects\paindrain\arduinolcd\test\pain drain\libraries\lvgl\src/core\lv_obj_style_gen.h ****     lv_style_value_t v = lv_obj_get_style_prop(obj, part, LV_STYLE_TRANSFORM_PIVOT_Y);
 100:c:\projects\paindrain\arduinolcd\test\pain drain\libraries\lvgl\src/core\lv_obj_style_gen.h ****     return (lv_coord_t)v.num;
 101:c:\projects\paindrain\arduinolcd\test\pain drain\libraries\lvgl\src/core\lv_obj_style_gen.h **** }
 102:c:\projects\paindrain\arduinolcd\test\pain drain\libraries\lvgl\src/core\lv_obj_style_gen.h **** 
 103:c:\projects\paindrain\arduinolcd\test\pain drain\libraries\lvgl\src/core\lv_obj_style_gen.h **** static inline lv_coord_t lv_obj_get_style_pad_top(const struct _lv_obj_t * obj, uint32_t part)
 104:c:\projects\paindrain\arduinolcd\test\pain drain\libraries\lvgl\src/core\lv_obj_style_gen.h **** {
 105:c:\projects\paindrain\arduinolcd\test\pain drain\libraries\lvgl\src/core\lv_obj_style_gen.h ****     lv_style_value_t v = lv_obj_get_style_prop(obj, part, LV_STYLE_PAD_TOP);
 106:c:\projects\paindrain\arduinolcd\test\pain drain\libraries\lvgl\src/core\lv_obj_style_gen.h ****     return (lv_coord_t)v.num;
 107:c:\projects\paindrain\arduinolcd\test\pain drain\libraries\lvgl\src/core\lv_obj_style_gen.h **** }
 108:c:\projects\paindrain\arduinolcd\test\pain drain\libraries\lvgl\src/core\lv_obj_style_gen.h **** 
 109:c:\projects\paindrain\arduinolcd\test\pain drain\libraries\lvgl\src/core\lv_obj_style_gen.h **** static inline lv_coord_t lv_obj_get_style_pad_bottom(const struct _lv_obj_t * obj, uint32_t part)
ARM GAS  C:\Users\haske\AppData\Local\Temp\cc7oyVf6.s 			page 20


 110:c:\projects\paindrain\arduinolcd\test\pain drain\libraries\lvgl\src/core\lv_obj_style_gen.h **** {
 111:c:\projects\paindrain\arduinolcd\test\pain drain\libraries\lvgl\src/core\lv_obj_style_gen.h ****     lv_style_value_t v = lv_obj_get_style_prop(obj, part, LV_STYLE_PAD_BOTTOM);
 112:c:\projects\paindrain\arduinolcd\test\pain drain\libraries\lvgl\src/core\lv_obj_style_gen.h ****     return (lv_coord_t)v.num;
 113:c:\projects\paindrain\arduinolcd\test\pain drain\libraries\lvgl\src/core\lv_obj_style_gen.h **** }
 114:c:\projects\paindrain\arduinolcd\test\pain drain\libraries\lvgl\src/core\lv_obj_style_gen.h **** 
 115:c:\projects\paindrain\arduinolcd\test\pain drain\libraries\lvgl\src/core\lv_obj_style_gen.h **** static inline lv_coord_t lv_obj_get_style_pad_left(const struct _lv_obj_t * obj, uint32_t part)
 116:c:\projects\paindrain\arduinolcd\test\pain drain\libraries\lvgl\src/core\lv_obj_style_gen.h **** {
 117:c:\projects\paindrain\arduinolcd\test\pain drain\libraries\lvgl\src/core\lv_obj_style_gen.h ****     lv_style_value_t v = lv_obj_get_style_prop(obj, part, LV_STYLE_PAD_LEFT);
 118:c:\projects\paindrain\arduinolcd\test\pain drain\libraries\lvgl\src/core\lv_obj_style_gen.h ****     return (lv_coord_t)v.num;
 119:c:\projects\paindrain\arduinolcd\test\pain drain\libraries\lvgl\src/core\lv_obj_style_gen.h **** }
 120:c:\projects\paindrain\arduinolcd\test\pain drain\libraries\lvgl\src/core\lv_obj_style_gen.h **** 
 121:c:\projects\paindrain\arduinolcd\test\pain drain\libraries\lvgl\src/core\lv_obj_style_gen.h **** static inline lv_coord_t lv_obj_get_style_pad_right(const struct _lv_obj_t * obj, uint32_t part)
 122:c:\projects\paindrain\arduinolcd\test\pain drain\libraries\lvgl\src/core\lv_obj_style_gen.h **** {
 123:c:\projects\paindrain\arduinolcd\test\pain drain\libraries\lvgl\src/core\lv_obj_style_gen.h ****     lv_style_value_t v = lv_obj_get_style_prop(obj, part, LV_STYLE_PAD_RIGHT);
 124:c:\projects\paindrain\arduinolcd\test\pain drain\libraries\lvgl\src/core\lv_obj_style_gen.h ****     return (lv_coord_t)v.num;
 125:c:\projects\paindrain\arduinolcd\test\pain drain\libraries\lvgl\src/core\lv_obj_style_gen.h **** }
 126:c:\projects\paindrain\arduinolcd\test\pain drain\libraries\lvgl\src/core\lv_obj_style_gen.h **** 
 127:c:\projects\paindrain\arduinolcd\test\pain drain\libraries\lvgl\src/core\lv_obj_style_gen.h **** static inline lv_coord_t lv_obj_get_style_pad_row(const struct _lv_obj_t * obj, uint32_t part)
 128:c:\projects\paindrain\arduinolcd\test\pain drain\libraries\lvgl\src/core\lv_obj_style_gen.h **** {
 129:c:\projects\paindrain\arduinolcd\test\pain drain\libraries\lvgl\src/core\lv_obj_style_gen.h ****     lv_style_value_t v = lv_obj_get_style_prop(obj, part, LV_STYLE_PAD_ROW);
 130:c:\projects\paindrain\arduinolcd\test\pain drain\libraries\lvgl\src/core\lv_obj_style_gen.h ****     return (lv_coord_t)v.num;
 131:c:\projects\paindrain\arduinolcd\test\pain drain\libraries\lvgl\src/core\lv_obj_style_gen.h **** }
 132:c:\projects\paindrain\arduinolcd\test\pain drain\libraries\lvgl\src/core\lv_obj_style_gen.h **** 
 133:c:\projects\paindrain\arduinolcd\test\pain drain\libraries\lvgl\src/core\lv_obj_style_gen.h **** static inline lv_coord_t lv_obj_get_style_pad_column(const struct _lv_obj_t * obj, uint32_t part)
 134:c:\projects\paindrain\arduinolcd\test\pain drain\libraries\lvgl\src/core\lv_obj_style_gen.h **** {
 135:c:\projects\paindrain\arduinolcd\test\pain drain\libraries\lvgl\src/core\lv_obj_style_gen.h ****     lv_style_value_t v = lv_obj_get_style_prop(obj, part, LV_STYLE_PAD_COLUMN);
 136:c:\projects\paindrain\arduinolcd\test\pain drain\libraries\lvgl\src/core\lv_obj_style_gen.h ****     return (lv_coord_t)v.num;
 137:c:\projects\paindrain\arduinolcd\test\pain drain\libraries\lvgl\src/core\lv_obj_style_gen.h **** }
 138:c:\projects\paindrain\arduinolcd\test\pain drain\libraries\lvgl\src/core\lv_obj_style_gen.h **** 
 139:c:\projects\paindrain\arduinolcd\test\pain drain\libraries\lvgl\src/core\lv_obj_style_gen.h **** static inline lv_color_t lv_obj_get_style_bg_color(const struct _lv_obj_t * obj, uint32_t part)
 140:c:\projects\paindrain\arduinolcd\test\pain drain\libraries\lvgl\src/core\lv_obj_style_gen.h **** {
 141:c:\projects\paindrain\arduinolcd\test\pain drain\libraries\lvgl\src/core\lv_obj_style_gen.h ****     lv_style_value_t v = lv_obj_get_style_prop(obj, part, LV_STYLE_BG_COLOR);
 142:c:\projects\paindrain\arduinolcd\test\pain drain\libraries\lvgl\src/core\lv_obj_style_gen.h ****     return v.color;
 143:c:\projects\paindrain\arduinolcd\test\pain drain\libraries\lvgl\src/core\lv_obj_style_gen.h **** }
 144:c:\projects\paindrain\arduinolcd\test\pain drain\libraries\lvgl\src/core\lv_obj_style_gen.h **** 
 145:c:\projects\paindrain\arduinolcd\test\pain drain\libraries\lvgl\src/core\lv_obj_style_gen.h **** static inline lv_color_t lv_obj_get_style_bg_color_filtered(const struct _lv_obj_t * obj, uint32_t 
 146:c:\projects\paindrain\arduinolcd\test\pain drain\libraries\lvgl\src/core\lv_obj_style_gen.h **** {
 147:c:\projects\paindrain\arduinolcd\test\pain drain\libraries\lvgl\src/core\lv_obj_style_gen.h ****     lv_style_value_t v = _lv_obj_style_apply_color_filter(obj, part, lv_obj_get_style_prop(obj, par
 148:c:\projects\paindrain\arduinolcd\test\pain drain\libraries\lvgl\src/core\lv_obj_style_gen.h ****     return v.color;
 149:c:\projects\paindrain\arduinolcd\test\pain drain\libraries\lvgl\src/core\lv_obj_style_gen.h **** }
 150:c:\projects\paindrain\arduinolcd\test\pain drain\libraries\lvgl\src/core\lv_obj_style_gen.h **** 
 151:c:\projects\paindrain\arduinolcd\test\pain drain\libraries\lvgl\src/core\lv_obj_style_gen.h **** static inline lv_opa_t lv_obj_get_style_bg_opa(const struct _lv_obj_t * obj, uint32_t part)
 152:c:\projects\paindrain\arduinolcd\test\pain drain\libraries\lvgl\src/core\lv_obj_style_gen.h **** {
 153:c:\projects\paindrain\arduinolcd\test\pain drain\libraries\lvgl\src/core\lv_obj_style_gen.h ****     lv_style_value_t v = lv_obj_get_style_prop(obj, part, LV_STYLE_BG_OPA);
 154:c:\projects\paindrain\arduinolcd\test\pain drain\libraries\lvgl\src/core\lv_obj_style_gen.h ****     return (lv_opa_t)v.num;
 155:c:\projects\paindrain\arduinolcd\test\pain drain\libraries\lvgl\src/core\lv_obj_style_gen.h **** }
 156:c:\projects\paindrain\arduinolcd\test\pain drain\libraries\lvgl\src/core\lv_obj_style_gen.h **** 
 157:c:\projects\paindrain\arduinolcd\test\pain drain\libraries\lvgl\src/core\lv_obj_style_gen.h **** static inline lv_color_t lv_obj_get_style_bg_grad_color(const struct _lv_obj_t * obj, uint32_t part
 158:c:\projects\paindrain\arduinolcd\test\pain drain\libraries\lvgl\src/core\lv_obj_style_gen.h **** {
 159:c:\projects\paindrain\arduinolcd\test\pain drain\libraries\lvgl\src/core\lv_obj_style_gen.h ****     lv_style_value_t v = lv_obj_get_style_prop(obj, part, LV_STYLE_BG_GRAD_COLOR);
 160:c:\projects\paindrain\arduinolcd\test\pain drain\libraries\lvgl\src/core\lv_obj_style_gen.h ****     return v.color;
 161:c:\projects\paindrain\arduinolcd\test\pain drain\libraries\lvgl\src/core\lv_obj_style_gen.h **** }
 162:c:\projects\paindrain\arduinolcd\test\pain drain\libraries\lvgl\src/core\lv_obj_style_gen.h **** 
 163:c:\projects\paindrain\arduinolcd\test\pain drain\libraries\lvgl\src/core\lv_obj_style_gen.h **** static inline lv_color_t lv_obj_get_style_bg_grad_color_filtered(const struct _lv_obj_t * obj, uint
 164:c:\projects\paindrain\arduinolcd\test\pain drain\libraries\lvgl\src/core\lv_obj_style_gen.h **** {
 165:c:\projects\paindrain\arduinolcd\test\pain drain\libraries\lvgl\src/core\lv_obj_style_gen.h ****     lv_style_value_t v = _lv_obj_style_apply_color_filter(obj, part, lv_obj_get_style_prop(obj, par
 166:c:\projects\paindrain\arduinolcd\test\pain drain\libraries\lvgl\src/core\lv_obj_style_gen.h ****     return v.color;
ARM GAS  C:\Users\haske\AppData\Local\Temp\cc7oyVf6.s 			page 21


 167:c:\projects\paindrain\arduinolcd\test\pain drain\libraries\lvgl\src/core\lv_obj_style_gen.h **** }
 168:c:\projects\paindrain\arduinolcd\test\pain drain\libraries\lvgl\src/core\lv_obj_style_gen.h **** 
 169:c:\projects\paindrain\arduinolcd\test\pain drain\libraries\lvgl\src/core\lv_obj_style_gen.h **** static inline lv_grad_dir_t lv_obj_get_style_bg_grad_dir(const struct _lv_obj_t * obj, uint32_t par
 170:c:\projects\paindrain\arduinolcd\test\pain drain\libraries\lvgl\src/core\lv_obj_style_gen.h **** {
 171:c:\projects\paindrain\arduinolcd\test\pain drain\libraries\lvgl\src/core\lv_obj_style_gen.h ****     lv_style_value_t v = lv_obj_get_style_prop(obj, part, LV_STYLE_BG_GRAD_DIR);
 172:c:\projects\paindrain\arduinolcd\test\pain drain\libraries\lvgl\src/core\lv_obj_style_gen.h ****     return (lv_grad_dir_t)v.num;
 173:c:\projects\paindrain\arduinolcd\test\pain drain\libraries\lvgl\src/core\lv_obj_style_gen.h **** }
 174:c:\projects\paindrain\arduinolcd\test\pain drain\libraries\lvgl\src/core\lv_obj_style_gen.h **** 
 175:c:\projects\paindrain\arduinolcd\test\pain drain\libraries\lvgl\src/core\lv_obj_style_gen.h **** static inline lv_coord_t lv_obj_get_style_bg_main_stop(const struct _lv_obj_t * obj, uint32_t part)
 176:c:\projects\paindrain\arduinolcd\test\pain drain\libraries\lvgl\src/core\lv_obj_style_gen.h **** {
 177:c:\projects\paindrain\arduinolcd\test\pain drain\libraries\lvgl\src/core\lv_obj_style_gen.h ****     lv_style_value_t v = lv_obj_get_style_prop(obj, part, LV_STYLE_BG_MAIN_STOP);
 178:c:\projects\paindrain\arduinolcd\test\pain drain\libraries\lvgl\src/core\lv_obj_style_gen.h ****     return (lv_coord_t)v.num;
 179:c:\projects\paindrain\arduinolcd\test\pain drain\libraries\lvgl\src/core\lv_obj_style_gen.h **** }
 180:c:\projects\paindrain\arduinolcd\test\pain drain\libraries\lvgl\src/core\lv_obj_style_gen.h **** 
 181:c:\projects\paindrain\arduinolcd\test\pain drain\libraries\lvgl\src/core\lv_obj_style_gen.h **** static inline lv_coord_t lv_obj_get_style_bg_grad_stop(const struct _lv_obj_t * obj, uint32_t part)
 182:c:\projects\paindrain\arduinolcd\test\pain drain\libraries\lvgl\src/core\lv_obj_style_gen.h **** {
 183:c:\projects\paindrain\arduinolcd\test\pain drain\libraries\lvgl\src/core\lv_obj_style_gen.h ****     lv_style_value_t v = lv_obj_get_style_prop(obj, part, LV_STYLE_BG_GRAD_STOP);
 184:c:\projects\paindrain\arduinolcd\test\pain drain\libraries\lvgl\src/core\lv_obj_style_gen.h ****     return (lv_coord_t)v.num;
 185:c:\projects\paindrain\arduinolcd\test\pain drain\libraries\lvgl\src/core\lv_obj_style_gen.h **** }
 186:c:\projects\paindrain\arduinolcd\test\pain drain\libraries\lvgl\src/core\lv_obj_style_gen.h **** 
 187:c:\projects\paindrain\arduinolcd\test\pain drain\libraries\lvgl\src/core\lv_obj_style_gen.h **** static inline const lv_grad_dsc_t * lv_obj_get_style_bg_grad(const struct _lv_obj_t * obj, uint32_t
 188:c:\projects\paindrain\arduinolcd\test\pain drain\libraries\lvgl\src/core\lv_obj_style_gen.h **** {
 189:c:\projects\paindrain\arduinolcd\test\pain drain\libraries\lvgl\src/core\lv_obj_style_gen.h ****     lv_style_value_t v = lv_obj_get_style_prop(obj, part, LV_STYLE_BG_GRAD);
 190:c:\projects\paindrain\arduinolcd\test\pain drain\libraries\lvgl\src/core\lv_obj_style_gen.h ****     return (const lv_grad_dsc_t *)v.ptr;
 191:c:\projects\paindrain\arduinolcd\test\pain drain\libraries\lvgl\src/core\lv_obj_style_gen.h **** }
 192:c:\projects\paindrain\arduinolcd\test\pain drain\libraries\lvgl\src/core\lv_obj_style_gen.h **** 
 193:c:\projects\paindrain\arduinolcd\test\pain drain\libraries\lvgl\src/core\lv_obj_style_gen.h **** static inline lv_dither_mode_t lv_obj_get_style_bg_dither_mode(const struct _lv_obj_t * obj, uint32
 194:c:\projects\paindrain\arduinolcd\test\pain drain\libraries\lvgl\src/core\lv_obj_style_gen.h **** {
 195:c:\projects\paindrain\arduinolcd\test\pain drain\libraries\lvgl\src/core\lv_obj_style_gen.h ****     lv_style_value_t v = lv_obj_get_style_prop(obj, part, LV_STYLE_BG_DITHER_MODE);
 196:c:\projects\paindrain\arduinolcd\test\pain drain\libraries\lvgl\src/core\lv_obj_style_gen.h ****     return (lv_dither_mode_t)v.num;
 197:c:\projects\paindrain\arduinolcd\test\pain drain\libraries\lvgl\src/core\lv_obj_style_gen.h **** }
 198:c:\projects\paindrain\arduinolcd\test\pain drain\libraries\lvgl\src/core\lv_obj_style_gen.h **** 
 199:c:\projects\paindrain\arduinolcd\test\pain drain\libraries\lvgl\src/core\lv_obj_style_gen.h **** static inline const void * lv_obj_get_style_bg_img_src(const struct _lv_obj_t * obj, uint32_t part)
 200:c:\projects\paindrain\arduinolcd\test\pain drain\libraries\lvgl\src/core\lv_obj_style_gen.h **** {
 201:c:\projects\paindrain\arduinolcd\test\pain drain\libraries\lvgl\src/core\lv_obj_style_gen.h ****     lv_style_value_t v = lv_obj_get_style_prop(obj, part, LV_STYLE_BG_IMG_SRC);
 202:c:\projects\paindrain\arduinolcd\test\pain drain\libraries\lvgl\src/core\lv_obj_style_gen.h ****     return (const void *)v.ptr;
 203:c:\projects\paindrain\arduinolcd\test\pain drain\libraries\lvgl\src/core\lv_obj_style_gen.h **** }
 204:c:\projects\paindrain\arduinolcd\test\pain drain\libraries\lvgl\src/core\lv_obj_style_gen.h **** 
 205:c:\projects\paindrain\arduinolcd\test\pain drain\libraries\lvgl\src/core\lv_obj_style_gen.h **** static inline lv_opa_t lv_obj_get_style_bg_img_opa(const struct _lv_obj_t * obj, uint32_t part)
 206:c:\projects\paindrain\arduinolcd\test\pain drain\libraries\lvgl\src/core\lv_obj_style_gen.h **** {
 207:c:\projects\paindrain\arduinolcd\test\pain drain\libraries\lvgl\src/core\lv_obj_style_gen.h ****     lv_style_value_t v = lv_obj_get_style_prop(obj, part, LV_STYLE_BG_IMG_OPA);
 208:c:\projects\paindrain\arduinolcd\test\pain drain\libraries\lvgl\src/core\lv_obj_style_gen.h ****     return (lv_opa_t)v.num;
 209:c:\projects\paindrain\arduinolcd\test\pain drain\libraries\lvgl\src/core\lv_obj_style_gen.h **** }
 210:c:\projects\paindrain\arduinolcd\test\pain drain\libraries\lvgl\src/core\lv_obj_style_gen.h **** 
 211:c:\projects\paindrain\arduinolcd\test\pain drain\libraries\lvgl\src/core\lv_obj_style_gen.h **** static inline lv_color_t lv_obj_get_style_bg_img_recolor(const struct _lv_obj_t * obj, uint32_t par
 212:c:\projects\paindrain\arduinolcd\test\pain drain\libraries\lvgl\src/core\lv_obj_style_gen.h **** {
 213:c:\projects\paindrain\arduinolcd\test\pain drain\libraries\lvgl\src/core\lv_obj_style_gen.h ****     lv_style_value_t v = lv_obj_get_style_prop(obj, part, LV_STYLE_BG_IMG_RECOLOR);
 214:c:\projects\paindrain\arduinolcd\test\pain drain\libraries\lvgl\src/core\lv_obj_style_gen.h ****     return v.color;
 215:c:\projects\paindrain\arduinolcd\test\pain drain\libraries\lvgl\src/core\lv_obj_style_gen.h **** }
 216:c:\projects\paindrain\arduinolcd\test\pain drain\libraries\lvgl\src/core\lv_obj_style_gen.h **** 
 217:c:\projects\paindrain\arduinolcd\test\pain drain\libraries\lvgl\src/core\lv_obj_style_gen.h **** static inline lv_color_t lv_obj_get_style_bg_img_recolor_filtered(const struct _lv_obj_t * obj, uin
 218:c:\projects\paindrain\arduinolcd\test\pain drain\libraries\lvgl\src/core\lv_obj_style_gen.h **** {
 219:c:\projects\paindrain\arduinolcd\test\pain drain\libraries\lvgl\src/core\lv_obj_style_gen.h ****     lv_style_value_t v = _lv_obj_style_apply_color_filter(obj, part, lv_obj_get_style_prop(obj, par
 220:c:\projects\paindrain\arduinolcd\test\pain drain\libraries\lvgl\src/core\lv_obj_style_gen.h ****     return v.color;
 221:c:\projects\paindrain\arduinolcd\test\pain drain\libraries\lvgl\src/core\lv_obj_style_gen.h **** }
 222:c:\projects\paindrain\arduinolcd\test\pain drain\libraries\lvgl\src/core\lv_obj_style_gen.h **** 
 223:c:\projects\paindrain\arduinolcd\test\pain drain\libraries\lvgl\src/core\lv_obj_style_gen.h **** static inline lv_opa_t lv_obj_get_style_bg_img_recolor_opa(const struct _lv_obj_t * obj, uint32_t p
ARM GAS  C:\Users\haske\AppData\Local\Temp\cc7oyVf6.s 			page 22


 224:c:\projects\paindrain\arduinolcd\test\pain drain\libraries\lvgl\src/core\lv_obj_style_gen.h **** {
 225:c:\projects\paindrain\arduinolcd\test\pain drain\libraries\lvgl\src/core\lv_obj_style_gen.h ****     lv_style_value_t v = lv_obj_get_style_prop(obj, part, LV_STYLE_BG_IMG_RECOLOR_OPA);
 226:c:\projects\paindrain\arduinolcd\test\pain drain\libraries\lvgl\src/core\lv_obj_style_gen.h ****     return (lv_opa_t)v.num;
 227:c:\projects\paindrain\arduinolcd\test\pain drain\libraries\lvgl\src/core\lv_obj_style_gen.h **** }
 228:c:\projects\paindrain\arduinolcd\test\pain drain\libraries\lvgl\src/core\lv_obj_style_gen.h **** 
 229:c:\projects\paindrain\arduinolcd\test\pain drain\libraries\lvgl\src/core\lv_obj_style_gen.h **** static inline bool lv_obj_get_style_bg_img_tiled(const struct _lv_obj_t * obj, uint32_t part)
 230:c:\projects\paindrain\arduinolcd\test\pain drain\libraries\lvgl\src/core\lv_obj_style_gen.h **** {
 231:c:\projects\paindrain\arduinolcd\test\pain drain\libraries\lvgl\src/core\lv_obj_style_gen.h ****     lv_style_value_t v = lv_obj_get_style_prop(obj, part, LV_STYLE_BG_IMG_TILED);
 232:c:\projects\paindrain\arduinolcd\test\pain drain\libraries\lvgl\src/core\lv_obj_style_gen.h ****     return (bool)v.num;
 233:c:\projects\paindrain\arduinolcd\test\pain drain\libraries\lvgl\src/core\lv_obj_style_gen.h **** }
 234:c:\projects\paindrain\arduinolcd\test\pain drain\libraries\lvgl\src/core\lv_obj_style_gen.h **** 
 235:c:\projects\paindrain\arduinolcd\test\pain drain\libraries\lvgl\src/core\lv_obj_style_gen.h **** static inline lv_color_t lv_obj_get_style_border_color(const struct _lv_obj_t * obj, uint32_t part)
 236:c:\projects\paindrain\arduinolcd\test\pain drain\libraries\lvgl\src/core\lv_obj_style_gen.h **** {
 237:c:\projects\paindrain\arduinolcd\test\pain drain\libraries\lvgl\src/core\lv_obj_style_gen.h ****     lv_style_value_t v = lv_obj_get_style_prop(obj, part, LV_STYLE_BORDER_COLOR);
 238:c:\projects\paindrain\arduinolcd\test\pain drain\libraries\lvgl\src/core\lv_obj_style_gen.h ****     return v.color;
 239:c:\projects\paindrain\arduinolcd\test\pain drain\libraries\lvgl\src/core\lv_obj_style_gen.h **** }
 240:c:\projects\paindrain\arduinolcd\test\pain drain\libraries\lvgl\src/core\lv_obj_style_gen.h **** 
 241:c:\projects\paindrain\arduinolcd\test\pain drain\libraries\lvgl\src/core\lv_obj_style_gen.h **** static inline lv_color_t lv_obj_get_style_border_color_filtered(const struct _lv_obj_t * obj, uint3
 242:c:\projects\paindrain\arduinolcd\test\pain drain\libraries\lvgl\src/core\lv_obj_style_gen.h **** {
 243:c:\projects\paindrain\arduinolcd\test\pain drain\libraries\lvgl\src/core\lv_obj_style_gen.h ****     lv_style_value_t v = _lv_obj_style_apply_color_filter(obj, part, lv_obj_get_style_prop(obj, par
 244:c:\projects\paindrain\arduinolcd\test\pain drain\libraries\lvgl\src/core\lv_obj_style_gen.h ****     return v.color;
 245:c:\projects\paindrain\arduinolcd\test\pain drain\libraries\lvgl\src/core\lv_obj_style_gen.h **** }
 246:c:\projects\paindrain\arduinolcd\test\pain drain\libraries\lvgl\src/core\lv_obj_style_gen.h **** 
 247:c:\projects\paindrain\arduinolcd\test\pain drain\libraries\lvgl\src/core\lv_obj_style_gen.h **** static inline lv_opa_t lv_obj_get_style_border_opa(const struct _lv_obj_t * obj, uint32_t part)
 248:c:\projects\paindrain\arduinolcd\test\pain drain\libraries\lvgl\src/core\lv_obj_style_gen.h **** {
 249:c:\projects\paindrain\arduinolcd\test\pain drain\libraries\lvgl\src/core\lv_obj_style_gen.h ****     lv_style_value_t v = lv_obj_get_style_prop(obj, part, LV_STYLE_BORDER_OPA);
 250:c:\projects\paindrain\arduinolcd\test\pain drain\libraries\lvgl\src/core\lv_obj_style_gen.h ****     return (lv_opa_t)v.num;
 251:c:\projects\paindrain\arduinolcd\test\pain drain\libraries\lvgl\src/core\lv_obj_style_gen.h **** }
 252:c:\projects\paindrain\arduinolcd\test\pain drain\libraries\lvgl\src/core\lv_obj_style_gen.h **** 
 253:c:\projects\paindrain\arduinolcd\test\pain drain\libraries\lvgl\src/core\lv_obj_style_gen.h **** static inline lv_coord_t lv_obj_get_style_border_width(const struct _lv_obj_t * obj, uint32_t part)
 254:c:\projects\paindrain\arduinolcd\test\pain drain\libraries\lvgl\src/core\lv_obj_style_gen.h **** {
 255:c:\projects\paindrain\arduinolcd\test\pain drain\libraries\lvgl\src/core\lv_obj_style_gen.h ****     lv_style_value_t v = lv_obj_get_style_prop(obj, part, LV_STYLE_BORDER_WIDTH);
 256:c:\projects\paindrain\arduinolcd\test\pain drain\libraries\lvgl\src/core\lv_obj_style_gen.h ****     return (lv_coord_t)v.num;
 257:c:\projects\paindrain\arduinolcd\test\pain drain\libraries\lvgl\src/core\lv_obj_style_gen.h **** }
 258:c:\projects\paindrain\arduinolcd\test\pain drain\libraries\lvgl\src/core\lv_obj_style_gen.h **** 
 259:c:\projects\paindrain\arduinolcd\test\pain drain\libraries\lvgl\src/core\lv_obj_style_gen.h **** static inline lv_border_side_t lv_obj_get_style_border_side(const struct _lv_obj_t * obj, uint32_t 
 260:c:\projects\paindrain\arduinolcd\test\pain drain\libraries\lvgl\src/core\lv_obj_style_gen.h **** {
 261:c:\projects\paindrain\arduinolcd\test\pain drain\libraries\lvgl\src/core\lv_obj_style_gen.h ****     lv_style_value_t v = lv_obj_get_style_prop(obj, part, LV_STYLE_BORDER_SIDE);
 262:c:\projects\paindrain\arduinolcd\test\pain drain\libraries\lvgl\src/core\lv_obj_style_gen.h ****     return (lv_border_side_t)v.num;
 263:c:\projects\paindrain\arduinolcd\test\pain drain\libraries\lvgl\src/core\lv_obj_style_gen.h **** }
 264:c:\projects\paindrain\arduinolcd\test\pain drain\libraries\lvgl\src/core\lv_obj_style_gen.h **** 
 265:c:\projects\paindrain\arduinolcd\test\pain drain\libraries\lvgl\src/core\lv_obj_style_gen.h **** static inline bool lv_obj_get_style_border_post(const struct _lv_obj_t * obj, uint32_t part)
 266:c:\projects\paindrain\arduinolcd\test\pain drain\libraries\lvgl\src/core\lv_obj_style_gen.h **** {
 267:c:\projects\paindrain\arduinolcd\test\pain drain\libraries\lvgl\src/core\lv_obj_style_gen.h ****     lv_style_value_t v = lv_obj_get_style_prop(obj, part, LV_STYLE_BORDER_POST);
 268:c:\projects\paindrain\arduinolcd\test\pain drain\libraries\lvgl\src/core\lv_obj_style_gen.h ****     return (bool)v.num;
 269:c:\projects\paindrain\arduinolcd\test\pain drain\libraries\lvgl\src/core\lv_obj_style_gen.h **** }
 270:c:\projects\paindrain\arduinolcd\test\pain drain\libraries\lvgl\src/core\lv_obj_style_gen.h **** 
 271:c:\projects\paindrain\arduinolcd\test\pain drain\libraries\lvgl\src/core\lv_obj_style_gen.h **** static inline lv_coord_t lv_obj_get_style_outline_width(const struct _lv_obj_t * obj, uint32_t part
 272:c:\projects\paindrain\arduinolcd\test\pain drain\libraries\lvgl\src/core\lv_obj_style_gen.h **** {
 273:c:\projects\paindrain\arduinolcd\test\pain drain\libraries\lvgl\src/core\lv_obj_style_gen.h ****     lv_style_value_t v = lv_obj_get_style_prop(obj, part, LV_STYLE_OUTLINE_WIDTH);
 274:c:\projects\paindrain\arduinolcd\test\pain drain\libraries\lvgl\src/core\lv_obj_style_gen.h ****     return (lv_coord_t)v.num;
 275:c:\projects\paindrain\arduinolcd\test\pain drain\libraries\lvgl\src/core\lv_obj_style_gen.h **** }
 276:c:\projects\paindrain\arduinolcd\test\pain drain\libraries\lvgl\src/core\lv_obj_style_gen.h **** 
 277:c:\projects\paindrain\arduinolcd\test\pain drain\libraries\lvgl\src/core\lv_obj_style_gen.h **** static inline lv_color_t lv_obj_get_style_outline_color(const struct _lv_obj_t * obj, uint32_t part
 278:c:\projects\paindrain\arduinolcd\test\pain drain\libraries\lvgl\src/core\lv_obj_style_gen.h **** {
 279:c:\projects\paindrain\arduinolcd\test\pain drain\libraries\lvgl\src/core\lv_obj_style_gen.h ****     lv_style_value_t v = lv_obj_get_style_prop(obj, part, LV_STYLE_OUTLINE_COLOR);
 280:c:\projects\paindrain\arduinolcd\test\pain drain\libraries\lvgl\src/core\lv_obj_style_gen.h ****     return v.color;
ARM GAS  C:\Users\haske\AppData\Local\Temp\cc7oyVf6.s 			page 23


 281:c:\projects\paindrain\arduinolcd\test\pain drain\libraries\lvgl\src/core\lv_obj_style_gen.h **** }
 282:c:\projects\paindrain\arduinolcd\test\pain drain\libraries\lvgl\src/core\lv_obj_style_gen.h **** 
 283:c:\projects\paindrain\arduinolcd\test\pain drain\libraries\lvgl\src/core\lv_obj_style_gen.h **** static inline lv_color_t lv_obj_get_style_outline_color_filtered(const struct _lv_obj_t * obj, uint
 284:c:\projects\paindrain\arduinolcd\test\pain drain\libraries\lvgl\src/core\lv_obj_style_gen.h **** {
 285:c:\projects\paindrain\arduinolcd\test\pain drain\libraries\lvgl\src/core\lv_obj_style_gen.h ****     lv_style_value_t v = _lv_obj_style_apply_color_filter(obj, part, lv_obj_get_style_prop(obj, par
 286:c:\projects\paindrain\arduinolcd\test\pain drain\libraries\lvgl\src/core\lv_obj_style_gen.h ****     return v.color;
 287:c:\projects\paindrain\arduinolcd\test\pain drain\libraries\lvgl\src/core\lv_obj_style_gen.h **** }
 288:c:\projects\paindrain\arduinolcd\test\pain drain\libraries\lvgl\src/core\lv_obj_style_gen.h **** 
 289:c:\projects\paindrain\arduinolcd\test\pain drain\libraries\lvgl\src/core\lv_obj_style_gen.h **** static inline lv_opa_t lv_obj_get_style_outline_opa(const struct _lv_obj_t * obj, uint32_t part)
 290:c:\projects\paindrain\arduinolcd\test\pain drain\libraries\lvgl\src/core\lv_obj_style_gen.h **** {
 291:c:\projects\paindrain\arduinolcd\test\pain drain\libraries\lvgl\src/core\lv_obj_style_gen.h ****     lv_style_value_t v = lv_obj_get_style_prop(obj, part, LV_STYLE_OUTLINE_OPA);
 292:c:\projects\paindrain\arduinolcd\test\pain drain\libraries\lvgl\src/core\lv_obj_style_gen.h ****     return (lv_opa_t)v.num;
 293:c:\projects\paindrain\arduinolcd\test\pain drain\libraries\lvgl\src/core\lv_obj_style_gen.h **** }
 294:c:\projects\paindrain\arduinolcd\test\pain drain\libraries\lvgl\src/core\lv_obj_style_gen.h **** 
 295:c:\projects\paindrain\arduinolcd\test\pain drain\libraries\lvgl\src/core\lv_obj_style_gen.h **** static inline lv_coord_t lv_obj_get_style_outline_pad(const struct _lv_obj_t * obj, uint32_t part)
 296:c:\projects\paindrain\arduinolcd\test\pain drain\libraries\lvgl\src/core\lv_obj_style_gen.h **** {
 297:c:\projects\paindrain\arduinolcd\test\pain drain\libraries\lvgl\src/core\lv_obj_style_gen.h ****     lv_style_value_t v = lv_obj_get_style_prop(obj, part, LV_STYLE_OUTLINE_PAD);
 298:c:\projects\paindrain\arduinolcd\test\pain drain\libraries\lvgl\src/core\lv_obj_style_gen.h ****     return (lv_coord_t)v.num;
 299:c:\projects\paindrain\arduinolcd\test\pain drain\libraries\lvgl\src/core\lv_obj_style_gen.h **** }
 300:c:\projects\paindrain\arduinolcd\test\pain drain\libraries\lvgl\src/core\lv_obj_style_gen.h **** 
 301:c:\projects\paindrain\arduinolcd\test\pain drain\libraries\lvgl\src/core\lv_obj_style_gen.h **** static inline lv_coord_t lv_obj_get_style_shadow_width(const struct _lv_obj_t * obj, uint32_t part)
 302:c:\projects\paindrain\arduinolcd\test\pain drain\libraries\lvgl\src/core\lv_obj_style_gen.h **** {
 303:c:\projects\paindrain\arduinolcd\test\pain drain\libraries\lvgl\src/core\lv_obj_style_gen.h ****     lv_style_value_t v = lv_obj_get_style_prop(obj, part, LV_STYLE_SHADOW_WIDTH);
 304:c:\projects\paindrain\arduinolcd\test\pain drain\libraries\lvgl\src/core\lv_obj_style_gen.h ****     return (lv_coord_t)v.num;
 305:c:\projects\paindrain\arduinolcd\test\pain drain\libraries\lvgl\src/core\lv_obj_style_gen.h **** }
 306:c:\projects\paindrain\arduinolcd\test\pain drain\libraries\lvgl\src/core\lv_obj_style_gen.h **** 
 307:c:\projects\paindrain\arduinolcd\test\pain drain\libraries\lvgl\src/core\lv_obj_style_gen.h **** static inline lv_coord_t lv_obj_get_style_shadow_ofs_x(const struct _lv_obj_t * obj, uint32_t part)
 308:c:\projects\paindrain\arduinolcd\test\pain drain\libraries\lvgl\src/core\lv_obj_style_gen.h **** {
 309:c:\projects\paindrain\arduinolcd\test\pain drain\libraries\lvgl\src/core\lv_obj_style_gen.h ****     lv_style_value_t v = lv_obj_get_style_prop(obj, part, LV_STYLE_SHADOW_OFS_X);
 310:c:\projects\paindrain\arduinolcd\test\pain drain\libraries\lvgl\src/core\lv_obj_style_gen.h ****     return (lv_coord_t)v.num;
 311:c:\projects\paindrain\arduinolcd\test\pain drain\libraries\lvgl\src/core\lv_obj_style_gen.h **** }
 312:c:\projects\paindrain\arduinolcd\test\pain drain\libraries\lvgl\src/core\lv_obj_style_gen.h **** 
 313:c:\projects\paindrain\arduinolcd\test\pain drain\libraries\lvgl\src/core\lv_obj_style_gen.h **** static inline lv_coord_t lv_obj_get_style_shadow_ofs_y(const struct _lv_obj_t * obj, uint32_t part)
 314:c:\projects\paindrain\arduinolcd\test\pain drain\libraries\lvgl\src/core\lv_obj_style_gen.h **** {
 315:c:\projects\paindrain\arduinolcd\test\pain drain\libraries\lvgl\src/core\lv_obj_style_gen.h ****     lv_style_value_t v = lv_obj_get_style_prop(obj, part, LV_STYLE_SHADOW_OFS_Y);
 316:c:\projects\paindrain\arduinolcd\test\pain drain\libraries\lvgl\src/core\lv_obj_style_gen.h ****     return (lv_coord_t)v.num;
 317:c:\projects\paindrain\arduinolcd\test\pain drain\libraries\lvgl\src/core\lv_obj_style_gen.h **** }
 318:c:\projects\paindrain\arduinolcd\test\pain drain\libraries\lvgl\src/core\lv_obj_style_gen.h **** 
 319:c:\projects\paindrain\arduinolcd\test\pain drain\libraries\lvgl\src/core\lv_obj_style_gen.h **** static inline lv_coord_t lv_obj_get_style_shadow_spread(const struct _lv_obj_t * obj, uint32_t part
 320:c:\projects\paindrain\arduinolcd\test\pain drain\libraries\lvgl\src/core\lv_obj_style_gen.h **** {
 321:c:\projects\paindrain\arduinolcd\test\pain drain\libraries\lvgl\src/core\lv_obj_style_gen.h ****     lv_style_value_t v = lv_obj_get_style_prop(obj, part, LV_STYLE_SHADOW_SPREAD);
 322:c:\projects\paindrain\arduinolcd\test\pain drain\libraries\lvgl\src/core\lv_obj_style_gen.h ****     return (lv_coord_t)v.num;
 323:c:\projects\paindrain\arduinolcd\test\pain drain\libraries\lvgl\src/core\lv_obj_style_gen.h **** }
 324:c:\projects\paindrain\arduinolcd\test\pain drain\libraries\lvgl\src/core\lv_obj_style_gen.h **** 
 325:c:\projects\paindrain\arduinolcd\test\pain drain\libraries\lvgl\src/core\lv_obj_style_gen.h **** static inline lv_color_t lv_obj_get_style_shadow_color(const struct _lv_obj_t * obj, uint32_t part)
 326:c:\projects\paindrain\arduinolcd\test\pain drain\libraries\lvgl\src/core\lv_obj_style_gen.h **** {
 327:c:\projects\paindrain\arduinolcd\test\pain drain\libraries\lvgl\src/core\lv_obj_style_gen.h ****     lv_style_value_t v = lv_obj_get_style_prop(obj, part, LV_STYLE_SHADOW_COLOR);
 328:c:\projects\paindrain\arduinolcd\test\pain drain\libraries\lvgl\src/core\lv_obj_style_gen.h ****     return v.color;
 329:c:\projects\paindrain\arduinolcd\test\pain drain\libraries\lvgl\src/core\lv_obj_style_gen.h **** }
 330:c:\projects\paindrain\arduinolcd\test\pain drain\libraries\lvgl\src/core\lv_obj_style_gen.h **** 
 331:c:\projects\paindrain\arduinolcd\test\pain drain\libraries\lvgl\src/core\lv_obj_style_gen.h **** static inline lv_color_t lv_obj_get_style_shadow_color_filtered(const struct _lv_obj_t * obj, uint3
 332:c:\projects\paindrain\arduinolcd\test\pain drain\libraries\lvgl\src/core\lv_obj_style_gen.h **** {
 333:c:\projects\paindrain\arduinolcd\test\pain drain\libraries\lvgl\src/core\lv_obj_style_gen.h ****     lv_style_value_t v = _lv_obj_style_apply_color_filter(obj, part, lv_obj_get_style_prop(obj, par
 334:c:\projects\paindrain\arduinolcd\test\pain drain\libraries\lvgl\src/core\lv_obj_style_gen.h ****     return v.color;
 335:c:\projects\paindrain\arduinolcd\test\pain drain\libraries\lvgl\src/core\lv_obj_style_gen.h **** }
 336:c:\projects\paindrain\arduinolcd\test\pain drain\libraries\lvgl\src/core\lv_obj_style_gen.h **** 
 337:c:\projects\paindrain\arduinolcd\test\pain drain\libraries\lvgl\src/core\lv_obj_style_gen.h **** static inline lv_opa_t lv_obj_get_style_shadow_opa(const struct _lv_obj_t * obj, uint32_t part)
ARM GAS  C:\Users\haske\AppData\Local\Temp\cc7oyVf6.s 			page 24


 338:c:\projects\paindrain\arduinolcd\test\pain drain\libraries\lvgl\src/core\lv_obj_style_gen.h **** {
 339:c:\projects\paindrain\arduinolcd\test\pain drain\libraries\lvgl\src/core\lv_obj_style_gen.h ****     lv_style_value_t v = lv_obj_get_style_prop(obj, part, LV_STYLE_SHADOW_OPA);
 340:c:\projects\paindrain\arduinolcd\test\pain drain\libraries\lvgl\src/core\lv_obj_style_gen.h ****     return (lv_opa_t)v.num;
 341:c:\projects\paindrain\arduinolcd\test\pain drain\libraries\lvgl\src/core\lv_obj_style_gen.h **** }
 342:c:\projects\paindrain\arduinolcd\test\pain drain\libraries\lvgl\src/core\lv_obj_style_gen.h **** 
 343:c:\projects\paindrain\arduinolcd\test\pain drain\libraries\lvgl\src/core\lv_obj_style_gen.h **** static inline lv_opa_t lv_obj_get_style_img_opa(const struct _lv_obj_t * obj, uint32_t part)
 344:c:\projects\paindrain\arduinolcd\test\pain drain\libraries\lvgl\src/core\lv_obj_style_gen.h **** {
 345:c:\projects\paindrain\arduinolcd\test\pain drain\libraries\lvgl\src/core\lv_obj_style_gen.h ****     lv_style_value_t v = lv_obj_get_style_prop(obj, part, LV_STYLE_IMG_OPA);
 346:c:\projects\paindrain\arduinolcd\test\pain drain\libraries\lvgl\src/core\lv_obj_style_gen.h ****     return (lv_opa_t)v.num;
 347:c:\projects\paindrain\arduinolcd\test\pain drain\libraries\lvgl\src/core\lv_obj_style_gen.h **** }
 348:c:\projects\paindrain\arduinolcd\test\pain drain\libraries\lvgl\src/core\lv_obj_style_gen.h **** 
 349:c:\projects\paindrain\arduinolcd\test\pain drain\libraries\lvgl\src/core\lv_obj_style_gen.h **** static inline lv_color_t lv_obj_get_style_img_recolor(const struct _lv_obj_t * obj, uint32_t part)
 350:c:\projects\paindrain\arduinolcd\test\pain drain\libraries\lvgl\src/core\lv_obj_style_gen.h **** {
 351:c:\projects\paindrain\arduinolcd\test\pain drain\libraries\lvgl\src/core\lv_obj_style_gen.h ****     lv_style_value_t v = lv_obj_get_style_prop(obj, part, LV_STYLE_IMG_RECOLOR);
 352:c:\projects\paindrain\arduinolcd\test\pain drain\libraries\lvgl\src/core\lv_obj_style_gen.h ****     return v.color;
 353:c:\projects\paindrain\arduinolcd\test\pain drain\libraries\lvgl\src/core\lv_obj_style_gen.h **** }
 354:c:\projects\paindrain\arduinolcd\test\pain drain\libraries\lvgl\src/core\lv_obj_style_gen.h **** 
 355:c:\projects\paindrain\arduinolcd\test\pain drain\libraries\lvgl\src/core\lv_obj_style_gen.h **** static inline lv_color_t lv_obj_get_style_img_recolor_filtered(const struct _lv_obj_t * obj, uint32
 356:c:\projects\paindrain\arduinolcd\test\pain drain\libraries\lvgl\src/core\lv_obj_style_gen.h **** {
 357:c:\projects\paindrain\arduinolcd\test\pain drain\libraries\lvgl\src/core\lv_obj_style_gen.h ****     lv_style_value_t v = _lv_obj_style_apply_color_filter(obj, part, lv_obj_get_style_prop(obj, par
 358:c:\projects\paindrain\arduinolcd\test\pain drain\libraries\lvgl\src/core\lv_obj_style_gen.h ****     return v.color;
 359:c:\projects\paindrain\arduinolcd\test\pain drain\libraries\lvgl\src/core\lv_obj_style_gen.h **** }
 360:c:\projects\paindrain\arduinolcd\test\pain drain\libraries\lvgl\src/core\lv_obj_style_gen.h **** 
 361:c:\projects\paindrain\arduinolcd\test\pain drain\libraries\lvgl\src/core\lv_obj_style_gen.h **** static inline lv_opa_t lv_obj_get_style_img_recolor_opa(const struct _lv_obj_t * obj, uint32_t part
 362:c:\projects\paindrain\arduinolcd\test\pain drain\libraries\lvgl\src/core\lv_obj_style_gen.h **** {
 363:c:\projects\paindrain\arduinolcd\test\pain drain\libraries\lvgl\src/core\lv_obj_style_gen.h ****     lv_style_value_t v = lv_obj_get_style_prop(obj, part, LV_STYLE_IMG_RECOLOR_OPA);
 364:c:\projects\paindrain\arduinolcd\test\pain drain\libraries\lvgl\src/core\lv_obj_style_gen.h ****     return (lv_opa_t)v.num;
 365:c:\projects\paindrain\arduinolcd\test\pain drain\libraries\lvgl\src/core\lv_obj_style_gen.h **** }
 366:c:\projects\paindrain\arduinolcd\test\pain drain\libraries\lvgl\src/core\lv_obj_style_gen.h **** 
 367:c:\projects\paindrain\arduinolcd\test\pain drain\libraries\lvgl\src/core\lv_obj_style_gen.h **** static inline lv_coord_t lv_obj_get_style_line_width(const struct _lv_obj_t * obj, uint32_t part)
 368:c:\projects\paindrain\arduinolcd\test\pain drain\libraries\lvgl\src/core\lv_obj_style_gen.h **** {
 369:c:\projects\paindrain\arduinolcd\test\pain drain\libraries\lvgl\src/core\lv_obj_style_gen.h ****     lv_style_value_t v = lv_obj_get_style_prop(obj, part, LV_STYLE_LINE_WIDTH);
 370:c:\projects\paindrain\arduinolcd\test\pain drain\libraries\lvgl\src/core\lv_obj_style_gen.h ****     return (lv_coord_t)v.num;
 371:c:\projects\paindrain\arduinolcd\test\pain drain\libraries\lvgl\src/core\lv_obj_style_gen.h **** }
 372:c:\projects\paindrain\arduinolcd\test\pain drain\libraries\lvgl\src/core\lv_obj_style_gen.h **** 
 373:c:\projects\paindrain\arduinolcd\test\pain drain\libraries\lvgl\src/core\lv_obj_style_gen.h **** static inline lv_coord_t lv_obj_get_style_line_dash_width(const struct _lv_obj_t * obj, uint32_t pa
 374:c:\projects\paindrain\arduinolcd\test\pain drain\libraries\lvgl\src/core\lv_obj_style_gen.h **** {
 375:c:\projects\paindrain\arduinolcd\test\pain drain\libraries\lvgl\src/core\lv_obj_style_gen.h ****     lv_style_value_t v = lv_obj_get_style_prop(obj, part, LV_STYLE_LINE_DASH_WIDTH);
 376:c:\projects\paindrain\arduinolcd\test\pain drain\libraries\lvgl\src/core\lv_obj_style_gen.h ****     return (lv_coord_t)v.num;
 377:c:\projects\paindrain\arduinolcd\test\pain drain\libraries\lvgl\src/core\lv_obj_style_gen.h **** }
 378:c:\projects\paindrain\arduinolcd\test\pain drain\libraries\lvgl\src/core\lv_obj_style_gen.h **** 
 379:c:\projects\paindrain\arduinolcd\test\pain drain\libraries\lvgl\src/core\lv_obj_style_gen.h **** static inline lv_coord_t lv_obj_get_style_line_dash_gap(const struct _lv_obj_t * obj, uint32_t part
 380:c:\projects\paindrain\arduinolcd\test\pain drain\libraries\lvgl\src/core\lv_obj_style_gen.h **** {
 381:c:\projects\paindrain\arduinolcd\test\pain drain\libraries\lvgl\src/core\lv_obj_style_gen.h ****     lv_style_value_t v = lv_obj_get_style_prop(obj, part, LV_STYLE_LINE_DASH_GAP);
 382:c:\projects\paindrain\arduinolcd\test\pain drain\libraries\lvgl\src/core\lv_obj_style_gen.h ****     return (lv_coord_t)v.num;
 383:c:\projects\paindrain\arduinolcd\test\pain drain\libraries\lvgl\src/core\lv_obj_style_gen.h **** }
 384:c:\projects\paindrain\arduinolcd\test\pain drain\libraries\lvgl\src/core\lv_obj_style_gen.h **** 
 385:c:\projects\paindrain\arduinolcd\test\pain drain\libraries\lvgl\src/core\lv_obj_style_gen.h **** static inline bool lv_obj_get_style_line_rounded(const struct _lv_obj_t * obj, uint32_t part)
 386:c:\projects\paindrain\arduinolcd\test\pain drain\libraries\lvgl\src/core\lv_obj_style_gen.h **** {
 387:c:\projects\paindrain\arduinolcd\test\pain drain\libraries\lvgl\src/core\lv_obj_style_gen.h ****     lv_style_value_t v = lv_obj_get_style_prop(obj, part, LV_STYLE_LINE_ROUNDED);
 388:c:\projects\paindrain\arduinolcd\test\pain drain\libraries\lvgl\src/core\lv_obj_style_gen.h ****     return (bool)v.num;
 389:c:\projects\paindrain\arduinolcd\test\pain drain\libraries\lvgl\src/core\lv_obj_style_gen.h **** }
 390:c:\projects\paindrain\arduinolcd\test\pain drain\libraries\lvgl\src/core\lv_obj_style_gen.h **** 
 391:c:\projects\paindrain\arduinolcd\test\pain drain\libraries\lvgl\src/core\lv_obj_style_gen.h **** static inline lv_color_t lv_obj_get_style_line_color(const struct _lv_obj_t * obj, uint32_t part)
 392:c:\projects\paindrain\arduinolcd\test\pain drain\libraries\lvgl\src/core\lv_obj_style_gen.h **** {
 393:c:\projects\paindrain\arduinolcd\test\pain drain\libraries\lvgl\src/core\lv_obj_style_gen.h ****     lv_style_value_t v = lv_obj_get_style_prop(obj, part, LV_STYLE_LINE_COLOR);
 394:c:\projects\paindrain\arduinolcd\test\pain drain\libraries\lvgl\src/core\lv_obj_style_gen.h ****     return v.color;
ARM GAS  C:\Users\haske\AppData\Local\Temp\cc7oyVf6.s 			page 25


 395:c:\projects\paindrain\arduinolcd\test\pain drain\libraries\lvgl\src/core\lv_obj_style_gen.h **** }
 396:c:\projects\paindrain\arduinolcd\test\pain drain\libraries\lvgl\src/core\lv_obj_style_gen.h **** 
 397:c:\projects\paindrain\arduinolcd\test\pain drain\libraries\lvgl\src/core\lv_obj_style_gen.h **** static inline lv_color_t lv_obj_get_style_line_color_filtered(const struct _lv_obj_t * obj, uint32_
 398:c:\projects\paindrain\arduinolcd\test\pain drain\libraries\lvgl\src/core\lv_obj_style_gen.h **** {
 399:c:\projects\paindrain\arduinolcd\test\pain drain\libraries\lvgl\src/core\lv_obj_style_gen.h ****     lv_style_value_t v = _lv_obj_style_apply_color_filter(obj, part, lv_obj_get_style_prop(obj, par
 400:c:\projects\paindrain\arduinolcd\test\pain drain\libraries\lvgl\src/core\lv_obj_style_gen.h ****     return v.color;
 401:c:\projects\paindrain\arduinolcd\test\pain drain\libraries\lvgl\src/core\lv_obj_style_gen.h **** }
 402:c:\projects\paindrain\arduinolcd\test\pain drain\libraries\lvgl\src/core\lv_obj_style_gen.h **** 
 403:c:\projects\paindrain\arduinolcd\test\pain drain\libraries\lvgl\src/core\lv_obj_style_gen.h **** static inline lv_opa_t lv_obj_get_style_line_opa(const struct _lv_obj_t * obj, uint32_t part)
 404:c:\projects\paindrain\arduinolcd\test\pain drain\libraries\lvgl\src/core\lv_obj_style_gen.h **** {
 405:c:\projects\paindrain\arduinolcd\test\pain drain\libraries\lvgl\src/core\lv_obj_style_gen.h ****     lv_style_value_t v = lv_obj_get_style_prop(obj, part, LV_STYLE_LINE_OPA);
 406:c:\projects\paindrain\arduinolcd\test\pain drain\libraries\lvgl\src/core\lv_obj_style_gen.h ****     return (lv_opa_t)v.num;
 407:c:\projects\paindrain\arduinolcd\test\pain drain\libraries\lvgl\src/core\lv_obj_style_gen.h **** }
 408:c:\projects\paindrain\arduinolcd\test\pain drain\libraries\lvgl\src/core\lv_obj_style_gen.h **** 
 409:c:\projects\paindrain\arduinolcd\test\pain drain\libraries\lvgl\src/core\lv_obj_style_gen.h **** static inline lv_coord_t lv_obj_get_style_arc_width(const struct _lv_obj_t * obj, uint32_t part)
 410:c:\projects\paindrain\arduinolcd\test\pain drain\libraries\lvgl\src/core\lv_obj_style_gen.h **** {
 411:c:\projects\paindrain\arduinolcd\test\pain drain\libraries\lvgl\src/core\lv_obj_style_gen.h ****     lv_style_value_t v = lv_obj_get_style_prop(obj, part, LV_STYLE_ARC_WIDTH);
 412:c:\projects\paindrain\arduinolcd\test\pain drain\libraries\lvgl\src/core\lv_obj_style_gen.h ****     return (lv_coord_t)v.num;
 413:c:\projects\paindrain\arduinolcd\test\pain drain\libraries\lvgl\src/core\lv_obj_style_gen.h **** }
 414:c:\projects\paindrain\arduinolcd\test\pain drain\libraries\lvgl\src/core\lv_obj_style_gen.h **** 
 415:c:\projects\paindrain\arduinolcd\test\pain drain\libraries\lvgl\src/core\lv_obj_style_gen.h **** static inline bool lv_obj_get_style_arc_rounded(const struct _lv_obj_t * obj, uint32_t part)
 416:c:\projects\paindrain\arduinolcd\test\pain drain\libraries\lvgl\src/core\lv_obj_style_gen.h **** {
 417:c:\projects\paindrain\arduinolcd\test\pain drain\libraries\lvgl\src/core\lv_obj_style_gen.h ****     lv_style_value_t v = lv_obj_get_style_prop(obj, part, LV_STYLE_ARC_ROUNDED);
 418:c:\projects\paindrain\arduinolcd\test\pain drain\libraries\lvgl\src/core\lv_obj_style_gen.h ****     return (bool)v.num;
 419:c:\projects\paindrain\arduinolcd\test\pain drain\libraries\lvgl\src/core\lv_obj_style_gen.h **** }
 420:c:\projects\paindrain\arduinolcd\test\pain drain\libraries\lvgl\src/core\lv_obj_style_gen.h **** 
 421:c:\projects\paindrain\arduinolcd\test\pain drain\libraries\lvgl\src/core\lv_obj_style_gen.h **** static inline lv_color_t lv_obj_get_style_arc_color(const struct _lv_obj_t * obj, uint32_t part)
 422:c:\projects\paindrain\arduinolcd\test\pain drain\libraries\lvgl\src/core\lv_obj_style_gen.h **** {
 423:c:\projects\paindrain\arduinolcd\test\pain drain\libraries\lvgl\src/core\lv_obj_style_gen.h ****     lv_style_value_t v = lv_obj_get_style_prop(obj, part, LV_STYLE_ARC_COLOR);
 424:c:\projects\paindrain\arduinolcd\test\pain drain\libraries\lvgl\src/core\lv_obj_style_gen.h ****     return v.color;
 425:c:\projects\paindrain\arduinolcd\test\pain drain\libraries\lvgl\src/core\lv_obj_style_gen.h **** }
 426:c:\projects\paindrain\arduinolcd\test\pain drain\libraries\lvgl\src/core\lv_obj_style_gen.h **** 
 427:c:\projects\paindrain\arduinolcd\test\pain drain\libraries\lvgl\src/core\lv_obj_style_gen.h **** static inline lv_color_t lv_obj_get_style_arc_color_filtered(const struct _lv_obj_t * obj, uint32_t
 428:c:\projects\paindrain\arduinolcd\test\pain drain\libraries\lvgl\src/core\lv_obj_style_gen.h **** {
 429:c:\projects\paindrain\arduinolcd\test\pain drain\libraries\lvgl\src/core\lv_obj_style_gen.h ****     lv_style_value_t v = _lv_obj_style_apply_color_filter(obj, part, lv_obj_get_style_prop(obj, par
 430:c:\projects\paindrain\arduinolcd\test\pain drain\libraries\lvgl\src/core\lv_obj_style_gen.h ****     return v.color;
 431:c:\projects\paindrain\arduinolcd\test\pain drain\libraries\lvgl\src/core\lv_obj_style_gen.h **** }
 432:c:\projects\paindrain\arduinolcd\test\pain drain\libraries\lvgl\src/core\lv_obj_style_gen.h **** 
 433:c:\projects\paindrain\arduinolcd\test\pain drain\libraries\lvgl\src/core\lv_obj_style_gen.h **** static inline lv_opa_t lv_obj_get_style_arc_opa(const struct _lv_obj_t * obj, uint32_t part)
 434:c:\projects\paindrain\arduinolcd\test\pain drain\libraries\lvgl\src/core\lv_obj_style_gen.h **** {
 435:c:\projects\paindrain\arduinolcd\test\pain drain\libraries\lvgl\src/core\lv_obj_style_gen.h ****     lv_style_value_t v = lv_obj_get_style_prop(obj, part, LV_STYLE_ARC_OPA);
 436:c:\projects\paindrain\arduinolcd\test\pain drain\libraries\lvgl\src/core\lv_obj_style_gen.h ****     return (lv_opa_t)v.num;
 437:c:\projects\paindrain\arduinolcd\test\pain drain\libraries\lvgl\src/core\lv_obj_style_gen.h **** }
 438:c:\projects\paindrain\arduinolcd\test\pain drain\libraries\lvgl\src/core\lv_obj_style_gen.h **** 
 439:c:\projects\paindrain\arduinolcd\test\pain drain\libraries\lvgl\src/core\lv_obj_style_gen.h **** static inline const void * lv_obj_get_style_arc_img_src(const struct _lv_obj_t * obj, uint32_t part
 440:c:\projects\paindrain\arduinolcd\test\pain drain\libraries\lvgl\src/core\lv_obj_style_gen.h **** {
 441:c:\projects\paindrain\arduinolcd\test\pain drain\libraries\lvgl\src/core\lv_obj_style_gen.h ****     lv_style_value_t v = lv_obj_get_style_prop(obj, part, LV_STYLE_ARC_IMG_SRC);
 442:c:\projects\paindrain\arduinolcd\test\pain drain\libraries\lvgl\src/core\lv_obj_style_gen.h ****     return (const void *)v.ptr;
 443:c:\projects\paindrain\arduinolcd\test\pain drain\libraries\lvgl\src/core\lv_obj_style_gen.h **** }
 444:c:\projects\paindrain\arduinolcd\test\pain drain\libraries\lvgl\src/core\lv_obj_style_gen.h **** 
 445:c:\projects\paindrain\arduinolcd\test\pain drain\libraries\lvgl\src/core\lv_obj_style_gen.h **** static inline lv_color_t lv_obj_get_style_text_color(const struct _lv_obj_t * obj, uint32_t part)
 446:c:\projects\paindrain\arduinolcd\test\pain drain\libraries\lvgl\src/core\lv_obj_style_gen.h **** {
 447:c:\projects\paindrain\arduinolcd\test\pain drain\libraries\lvgl\src/core\lv_obj_style_gen.h ****     lv_style_value_t v = lv_obj_get_style_prop(obj, part, LV_STYLE_TEXT_COLOR);
 448:c:\projects\paindrain\arduinolcd\test\pain drain\libraries\lvgl\src/core\lv_obj_style_gen.h ****     return v.color;
 449:c:\projects\paindrain\arduinolcd\test\pain drain\libraries\lvgl\src/core\lv_obj_style_gen.h **** }
 450:c:\projects\paindrain\arduinolcd\test\pain drain\libraries\lvgl\src/core\lv_obj_style_gen.h **** 
 451:c:\projects\paindrain\arduinolcd\test\pain drain\libraries\lvgl\src/core\lv_obj_style_gen.h **** static inline lv_color_t lv_obj_get_style_text_color_filtered(const struct _lv_obj_t * obj, uint32_
ARM GAS  C:\Users\haske\AppData\Local\Temp\cc7oyVf6.s 			page 26


 452:c:\projects\paindrain\arduinolcd\test\pain drain\libraries\lvgl\src/core\lv_obj_style_gen.h **** {
 453:c:\projects\paindrain\arduinolcd\test\pain drain\libraries\lvgl\src/core\lv_obj_style_gen.h ****     lv_style_value_t v = _lv_obj_style_apply_color_filter(obj, part, lv_obj_get_style_prop(obj, par
 454:c:\projects\paindrain\arduinolcd\test\pain drain\libraries\lvgl\src/core\lv_obj_style_gen.h ****     return v.color;
 455:c:\projects\paindrain\arduinolcd\test\pain drain\libraries\lvgl\src/core\lv_obj_style_gen.h **** }
 456:c:\projects\paindrain\arduinolcd\test\pain drain\libraries\lvgl\src/core\lv_obj_style_gen.h **** 
 457:c:\projects\paindrain\arduinolcd\test\pain drain\libraries\lvgl\src/core\lv_obj_style_gen.h **** static inline lv_opa_t lv_obj_get_style_text_opa(const struct _lv_obj_t * obj, uint32_t part)
 458:c:\projects\paindrain\arduinolcd\test\pain drain\libraries\lvgl\src/core\lv_obj_style_gen.h **** {
 459:c:\projects\paindrain\arduinolcd\test\pain drain\libraries\lvgl\src/core\lv_obj_style_gen.h ****     lv_style_value_t v = lv_obj_get_style_prop(obj, part, LV_STYLE_TEXT_OPA);
 460:c:\projects\paindrain\arduinolcd\test\pain drain\libraries\lvgl\src/core\lv_obj_style_gen.h ****     return (lv_opa_t)v.num;
 461:c:\projects\paindrain\arduinolcd\test\pain drain\libraries\lvgl\src/core\lv_obj_style_gen.h **** }
 462:c:\projects\paindrain\arduinolcd\test\pain drain\libraries\lvgl\src/core\lv_obj_style_gen.h **** 
 463:c:\projects\paindrain\arduinolcd\test\pain drain\libraries\lvgl\src/core\lv_obj_style_gen.h **** static inline const lv_font_t * lv_obj_get_style_text_font(const struct _lv_obj_t * obj, uint32_t p
 464:c:\projects\paindrain\arduinolcd\test\pain drain\libraries\lvgl\src/core\lv_obj_style_gen.h **** {
 465:c:\projects\paindrain\arduinolcd\test\pain drain\libraries\lvgl\src/core\lv_obj_style_gen.h ****     lv_style_value_t v = lv_obj_get_style_prop(obj, part, LV_STYLE_TEXT_FONT);
 466:c:\projects\paindrain\arduinolcd\test\pain drain\libraries\lvgl\src/core\lv_obj_style_gen.h ****     return (const lv_font_t *)v.ptr;
 467:c:\projects\paindrain\arduinolcd\test\pain drain\libraries\lvgl\src/core\lv_obj_style_gen.h **** }
 468:c:\projects\paindrain\arduinolcd\test\pain drain\libraries\lvgl\src/core\lv_obj_style_gen.h **** 
 469:c:\projects\paindrain\arduinolcd\test\pain drain\libraries\lvgl\src/core\lv_obj_style_gen.h **** static inline lv_coord_t lv_obj_get_style_text_letter_space(const struct _lv_obj_t * obj, uint32_t 
 470:c:\projects\paindrain\arduinolcd\test\pain drain\libraries\lvgl\src/core\lv_obj_style_gen.h **** {
 471:c:\projects\paindrain\arduinolcd\test\pain drain\libraries\lvgl\src/core\lv_obj_style_gen.h ****     lv_style_value_t v = lv_obj_get_style_prop(obj, part, LV_STYLE_TEXT_LETTER_SPACE);
 222              		.loc 2 471 0
 223 0016 5822     		movs	r2, #88
 224 0018 0021     		movs	r1, #0
 225 001a 2000     		movs	r0, r4
 226              	.LVL18:
 227 001c FFF7FEFF 		bl	lv_obj_get_style_prop
 228              	.LVL19:
 472:c:\projects\paindrain\arduinolcd\test\pain drain\libraries\lvgl\src/core\lv_obj_style_gen.h ****     return (lv_coord_t)v.num;
 229              		.loc 2 472 0
 230 0020 00B2     		sxth	r0, r0
 231              	.LVL20:
 232              	.LBE82:
 233              	.LBE81:
 234 0022 01E0     		b	.L19
 235              	.LVL21:
 236              	.L18:
 669:..\..\..\arduinoLCD\test\Pain Drain\libraries\lvgl\src\extra\widgets\span/lv_span.c ****     }
 237              		.loc 1 669 0
 238 0024 019B     		ldr	r3, [sp, #4]
 239 0026 18B2     		sxth	r0, r3
 240              	.LVL22:
 241              	.L19:
 672:..\..\..\arduinoLCD\test\Pain Drain\libraries\lvgl\src\extra\widgets\span/lv_span.c **** 
 242              		.loc 1 672 0
 243 0028 02B0     		add	sp, sp, #8
 244              		@ sp needed
 245              	.LVL23:
 246 002a 10BD     		pop	{r4, pc}
 247              		.cfi_endproc
 248              	.LFE233:
 249              		.size	lv_span_get_style_text_letter_space, .-lv_span_get_style_text_letter_space
 250              		.section	.text.lv_span_get_style_text_color,"ax",%progbits
 251              		.align	2
 252              		.code	16
 253              		.thumb_func
 254              		.type	lv_span_get_style_text_color, %function
 255              	lv_span_get_style_text_color:
ARM GAS  C:\Users\haske\AppData\Local\Temp\cc7oyVf6.s 			page 27


 256              	.LFB234:
 675:..\..\..\arduinoLCD\test\Pain Drain\libraries\lvgl\src\extra\widgets\span/lv_span.c ****     lv_style_value_t value;
 257              		.loc 1 675 0
 258              		.cfi_startproc
 259              		@ args = 0, pretend = 0, frame = 8
 260              		@ frame_needed = 0, uses_anonymous_args = 0
 261              	.LVL24:
 262 0000 10B5     		push	{r4, lr}
 263              		.cfi_def_cfa_offset 8
 264              		.cfi_offset 4, -8
 265              		.cfi_offset 14, -4
 266 0002 82B0     		sub	sp, sp, #8
 267              		.cfi_def_cfa_offset 16
 268 0004 0400     		movs	r4, r0
 677:..\..\..\arduinoLCD\test\Pain Drain\libraries\lvgl\src\extra\widgets\span/lv_span.c ****     if(res != LV_RES_OK) {
 269              		.loc 1 677 0
 270 0006 0831     		adds	r1, r1, #8
 271              	.LVL25:
 272 0008 0800     		movs	r0, r1
 273              	.LVL26:
 274 000a 01AA     		add	r2, sp, #4
 275 000c 5521     		movs	r1, #85
 276              	.LVL27:
 277 000e FFF7FEFF 		bl	lv_style_get_prop
 278              	.LVL28:
 678:..\..\..\arduinoLCD\test\Pain Drain\libraries\lvgl\src\extra\widgets\span/lv_span.c ****         value.color = lv_obj_get_style_text_color(par, LV_PART_MAIN);
 279              		.loc 1 678 0
 280 0012 0128     		cmp	r0, #1
 281 0014 06D0     		beq	.L21
 282              	.LVL29:
 283              	.LBB83:
 284              	.LBB84:
 447:c:\projects\paindrain\arduinolcd\test\pain drain\libraries\lvgl\src/core\lv_obj_style_gen.h ****     return v.color;
 285              		.loc 2 447 0
 286 0016 5522     		movs	r2, #85
 287 0018 0021     		movs	r1, #0
 288 001a 2000     		movs	r0, r4
 289              	.LVL30:
 290 001c FFF7FEFF 		bl	lv_obj_get_style_prop
 291              	.LVL31:
 292              	.LBE84:
 293              	.LBE83:
 679:..\..\..\arduinoLCD\test\Pain Drain\libraries\lvgl\src\extra\widgets\span/lv_span.c ****     }
 294              		.loc 1 679 0
 295 0020 01AB     		add	r3, sp, #4
 296              	.LVL32:
 297 0022 1880     		strh	r0, [r3]
 298              	.L21:
 681:..\..\..\arduinoLCD\test\Pain Drain\libraries\lvgl\src\extra\widgets\span/lv_span.c **** }
 299              		.loc 1 681 0
 300 0024 01AB     		add	r3, sp, #4
 301 0026 1888     		ldrh	r0, [r3]
 682:..\..\..\arduinoLCD\test\Pain Drain\libraries\lvgl\src\extra\widgets\span/lv_span.c **** 
 302              		.loc 1 682 0
 303 0028 02B0     		add	sp, sp, #8
 304              		@ sp needed
 305              	.LVL33:
ARM GAS  C:\Users\haske\AppData\Local\Temp\cc7oyVf6.s 			page 28


 306 002a 10BD     		pop	{r4, pc}
 307              		.cfi_endproc
 308              	.LFE234:
 309              		.size	lv_span_get_style_text_color, .-lv_span_get_style_text_color
 310              		.section	.text.lv_span_get_style_text_opa,"ax",%progbits
 311              		.align	2
 312              		.code	16
 313              		.thumb_func
 314              		.type	lv_span_get_style_text_opa, %function
 315              	lv_span_get_style_text_opa:
 316              	.LFB235:
 685:..\..\..\arduinoLCD\test\Pain Drain\libraries\lvgl\src\extra\widgets\span/lv_span.c ****     lv_opa_t opa;
 317              		.loc 1 685 0
 318              		.cfi_startproc
 319              		@ args = 0, pretend = 0, frame = 8
 320              		@ frame_needed = 0, uses_anonymous_args = 0
 321              	.LVL34:
 322 0000 10B5     		push	{r4, lr}
 323              		.cfi_def_cfa_offset 8
 324              		.cfi_offset 4, -8
 325              		.cfi_offset 14, -4
 326 0002 82B0     		sub	sp, sp, #8
 327              		.cfi_def_cfa_offset 16
 328 0004 0400     		movs	r4, r0
 688:..\..\..\arduinoLCD\test\Pain Drain\libraries\lvgl\src\extra\widgets\span/lv_span.c ****     if(res != LV_RES_OK) {
 329              		.loc 1 688 0
 330 0006 0831     		adds	r1, r1, #8
 331              	.LVL35:
 332 0008 0800     		movs	r0, r1
 333              	.LVL36:
 334 000a 01AA     		add	r2, sp, #4
 335 000c 5621     		movs	r1, #86
 336              	.LVL37:
 337 000e FFF7FEFF 		bl	lv_style_get_prop
 338              	.LVL38:
 689:..\..\..\arduinoLCD\test\Pain Drain\libraries\lvgl\src\extra\widgets\span/lv_span.c ****         opa = (lv_opa_t)lv_obj_get_style_text_opa(par, LV_PART_MAIN);
 339              		.loc 1 689 0
 340 0012 0128     		cmp	r0, #1
 341 0014 06D0     		beq	.L23
 342              	.LVL39:
 343              	.LBB85:
 344              	.LBB86:
 459:c:\projects\paindrain\arduinolcd\test\pain drain\libraries\lvgl\src/core\lv_obj_style_gen.h ****     return (lv_opa_t)v.num;
 345              		.loc 2 459 0
 346 0016 5622     		movs	r2, #86
 347 0018 0021     		movs	r1, #0
 348 001a 2000     		movs	r0, r4
 349              	.LVL40:
 350 001c FFF7FEFF 		bl	lv_obj_get_style_prop
 351              	.LVL41:
 460:c:\projects\paindrain\arduinolcd\test\pain drain\libraries\lvgl\src/core\lv_obj_style_gen.h **** }
 352              		.loc 2 460 0
 353 0020 C0B2     		uxtb	r0, r0
 354              	.LVL42:
 355              	.LBE86:
 356              	.LBE85:
 357 0022 01E0     		b	.L24
ARM GAS  C:\Users\haske\AppData\Local\Temp\cc7oyVf6.s 			page 29


 358              	.LVL43:
 359              	.L23:
 693:..\..\..\arduinoLCD\test\Pain Drain\libraries\lvgl\src\extra\widgets\span/lv_span.c ****     }
 360              		.loc 1 693 0
 361 0024 019B     		ldr	r3, [sp, #4]
 362 0026 D8B2     		uxtb	r0, r3
 363              	.LVL44:
 364              	.L24:
 696:..\..\..\arduinoLCD\test\Pain Drain\libraries\lvgl\src\extra\widgets\span/lv_span.c **** 
 365              		.loc 1 696 0
 366 0028 02B0     		add	sp, sp, #8
 367              		@ sp needed
 368              	.LVL45:
 369 002a 10BD     		pop	{r4, pc}
 370              		.cfi_endproc
 371              	.LFE235:
 372              		.size	lv_span_get_style_text_opa, .-lv_span_get_style_text_opa
 373              		.section	.text.lv_span_get_style_text_font,"ax",%progbits
 374              		.align	2
 375              		.code	16
 376              		.thumb_func
 377              		.type	lv_span_get_style_text_font, %function
 378              	lv_span_get_style_text_font:
 379              	.LFB232:
 647:..\..\..\arduinoLCD\test\Pain Drain\libraries\lvgl\src\extra\widgets\span/lv_span.c ****     const lv_font_t * font;
 380              		.loc 1 647 0
 381              		.cfi_startproc
 382              		@ args = 0, pretend = 0, frame = 8
 383              		@ frame_needed = 0, uses_anonymous_args = 0
 384              	.LVL46:
 385 0000 10B5     		push	{r4, lr}
 386              		.cfi_def_cfa_offset 8
 387              		.cfi_offset 4, -8
 388              		.cfi_offset 14, -4
 389 0002 82B0     		sub	sp, sp, #8
 390              		.cfi_def_cfa_offset 16
 391 0004 0400     		movs	r4, r0
 650:..\..\..\arduinoLCD\test\Pain Drain\libraries\lvgl\src\extra\widgets\span/lv_span.c ****     if(res != LV_RES_OK) {
 392              		.loc 1 650 0
 393 0006 0831     		adds	r1, r1, #8
 394              	.LVL47:
 395 0008 0800     		movs	r0, r1
 396              	.LVL48:
 397 000a 01AA     		add	r2, sp, #4
 398 000c 5721     		movs	r1, #87
 399              	.LVL49:
 400 000e FFF7FEFF 		bl	lv_style_get_prop
 401              	.LVL50:
 651:..\..\..\arduinoLCD\test\Pain Drain\libraries\lvgl\src\extra\widgets\span/lv_span.c ****         font = lv_obj_get_style_text_font(par, LV_PART_MAIN);
 402              		.loc 1 651 0
 403 0012 0128     		cmp	r0, #1
 404 0014 05D0     		beq	.L26
 405              	.LVL51:
 406              	.LBB87:
 407              	.LBB88:
 465:c:\projects\paindrain\arduinolcd\test\pain drain\libraries\lvgl\src/core\lv_obj_style_gen.h ****     return (const lv_font_t *)v.ptr;
 408              		.loc 2 465 0
ARM GAS  C:\Users\haske\AppData\Local\Temp\cc7oyVf6.s 			page 30


 409 0016 5722     		movs	r2, #87
 410 0018 0021     		movs	r1, #0
 411 001a 2000     		movs	r0, r4
 412              	.LVL52:
 413 001c FFF7FEFF 		bl	lv_obj_get_style_prop
 414              	.LVL53:
 415              	.LBE88:
 416              	.LBE87:
 417 0020 00E0     		b	.L27
 418              	.LVL54:
 419              	.L26:
 655:..\..\..\arduinoLCD\test\Pain Drain\libraries\lvgl\src\extra\widgets\span/lv_span.c ****     }
 420              		.loc 1 655 0
 421 0022 0198     		ldr	r0, [sp, #4]
 422              	.LVL55:
 423              	.L27:
 658:..\..\..\arduinoLCD\test\Pain Drain\libraries\lvgl\src\extra\widgets\span/lv_span.c **** 
 424              		.loc 1 658 0
 425 0024 02B0     		add	sp, sp, #8
 426              		@ sp needed
 427              	.LVL56:
 428 0026 10BD     		pop	{r4, pc}
 429              		.cfi_endproc
 430              	.LFE232:
 431              		.size	lv_span_get_style_text_font, .-lv_span_get_style_text_font
 432              		.section	.text.lv_span_get_style_text_blend_mode,"ax",%progbits
 433              		.align	2
 434              		.code	16
 435              		.thumb_func
 436              		.type	lv_span_get_style_text_blend_mode, %function
 437              	lv_span_get_style_text_blend_mode:
 438              	.LFB236:
 699:..\..\..\arduinoLCD\test\Pain Drain\libraries\lvgl\src\extra\widgets\span/lv_span.c ****     lv_blend_mode_t mode;
 439              		.loc 1 699 0
 440              		.cfi_startproc
 441              		@ args = 0, pretend = 0, frame = 8
 442              		@ frame_needed = 0, uses_anonymous_args = 0
 443              	.LVL57:
 444 0000 10B5     		push	{r4, lr}
 445              		.cfi_def_cfa_offset 8
 446              		.cfi_offset 4, -8
 447              		.cfi_offset 14, -4
 448 0002 82B0     		sub	sp, sp, #8
 449              		.cfi_def_cfa_offset 16
 450 0004 0400     		movs	r4, r0
 702:..\..\..\arduinoLCD\test\Pain Drain\libraries\lvgl\src\extra\widgets\span/lv_span.c ****     if(res != LV_RES_OK) {
 451              		.loc 1 702 0
 452 0006 0831     		adds	r1, r1, #8
 453              	.LVL58:
 454 0008 0800     		movs	r0, r1
 455              	.LVL59:
 456 000a 01AA     		add	r2, sp, #4
 457 000c 6721     		movs	r1, #103
 458              	.LVL60:
 459 000e FFF7FEFF 		bl	lv_style_get_prop
 460              	.LVL61:
 703:..\..\..\arduinoLCD\test\Pain Drain\libraries\lvgl\src\extra\widgets\span/lv_span.c ****         mode = (lv_blend_mode_t)lv_obj_get_style_blend_mode(par, LV_PART_MAIN);
ARM GAS  C:\Users\haske\AppData\Local\Temp\cc7oyVf6.s 			page 31


 461              		.loc 1 703 0
 462 0012 0128     		cmp	r0, #1
 463 0014 06D0     		beq	.L29
 464              	.LVL62:
 465              	.LBB89:
 466              	.LBB90:
 473:c:\projects\paindrain\arduinolcd\test\pain drain\libraries\lvgl\src/core\lv_obj_style_gen.h **** }
 474:c:\projects\paindrain\arduinolcd\test\pain drain\libraries\lvgl\src/core\lv_obj_style_gen.h **** 
 475:c:\projects\paindrain\arduinolcd\test\pain drain\libraries\lvgl\src/core\lv_obj_style_gen.h **** static inline lv_coord_t lv_obj_get_style_text_line_space(const struct _lv_obj_t * obj, uint32_t pa
 476:c:\projects\paindrain\arduinolcd\test\pain drain\libraries\lvgl\src/core\lv_obj_style_gen.h **** {
 477:c:\projects\paindrain\arduinolcd\test\pain drain\libraries\lvgl\src/core\lv_obj_style_gen.h ****     lv_style_value_t v = lv_obj_get_style_prop(obj, part, LV_STYLE_TEXT_LINE_SPACE);
 478:c:\projects\paindrain\arduinolcd\test\pain drain\libraries\lvgl\src/core\lv_obj_style_gen.h ****     return (lv_coord_t)v.num;
 479:c:\projects\paindrain\arduinolcd\test\pain drain\libraries\lvgl\src/core\lv_obj_style_gen.h **** }
 480:c:\projects\paindrain\arduinolcd\test\pain drain\libraries\lvgl\src/core\lv_obj_style_gen.h **** 
 481:c:\projects\paindrain\arduinolcd\test\pain drain\libraries\lvgl\src/core\lv_obj_style_gen.h **** static inline lv_text_decor_t lv_obj_get_style_text_decor(const struct _lv_obj_t * obj, uint32_t pa
 482:c:\projects\paindrain\arduinolcd\test\pain drain\libraries\lvgl\src/core\lv_obj_style_gen.h **** {
 483:c:\projects\paindrain\arduinolcd\test\pain drain\libraries\lvgl\src/core\lv_obj_style_gen.h ****     lv_style_value_t v = lv_obj_get_style_prop(obj, part, LV_STYLE_TEXT_DECOR);
 484:c:\projects\paindrain\arduinolcd\test\pain drain\libraries\lvgl\src/core\lv_obj_style_gen.h ****     return (lv_text_decor_t)v.num;
 485:c:\projects\paindrain\arduinolcd\test\pain drain\libraries\lvgl\src/core\lv_obj_style_gen.h **** }
 486:c:\projects\paindrain\arduinolcd\test\pain drain\libraries\lvgl\src/core\lv_obj_style_gen.h **** 
 487:c:\projects\paindrain\arduinolcd\test\pain drain\libraries\lvgl\src/core\lv_obj_style_gen.h **** static inline lv_text_align_t lv_obj_get_style_text_align(const struct _lv_obj_t * obj, uint32_t pa
 488:c:\projects\paindrain\arduinolcd\test\pain drain\libraries\lvgl\src/core\lv_obj_style_gen.h **** {
 489:c:\projects\paindrain\arduinolcd\test\pain drain\libraries\lvgl\src/core\lv_obj_style_gen.h ****     lv_style_value_t v = lv_obj_get_style_prop(obj, part, LV_STYLE_TEXT_ALIGN);
 490:c:\projects\paindrain\arduinolcd\test\pain drain\libraries\lvgl\src/core\lv_obj_style_gen.h ****     return (lv_text_align_t)v.num;
 491:c:\projects\paindrain\arduinolcd\test\pain drain\libraries\lvgl\src/core\lv_obj_style_gen.h **** }
 492:c:\projects\paindrain\arduinolcd\test\pain drain\libraries\lvgl\src/core\lv_obj_style_gen.h **** 
 493:c:\projects\paindrain\arduinolcd\test\pain drain\libraries\lvgl\src/core\lv_obj_style_gen.h **** static inline lv_coord_t lv_obj_get_style_radius(const struct _lv_obj_t * obj, uint32_t part)
 494:c:\projects\paindrain\arduinolcd\test\pain drain\libraries\lvgl\src/core\lv_obj_style_gen.h **** {
 495:c:\projects\paindrain\arduinolcd\test\pain drain\libraries\lvgl\src/core\lv_obj_style_gen.h ****     lv_style_value_t v = lv_obj_get_style_prop(obj, part, LV_STYLE_RADIUS);
 496:c:\projects\paindrain\arduinolcd\test\pain drain\libraries\lvgl\src/core\lv_obj_style_gen.h ****     return (lv_coord_t)v.num;
 497:c:\projects\paindrain\arduinolcd\test\pain drain\libraries\lvgl\src/core\lv_obj_style_gen.h **** }
 498:c:\projects\paindrain\arduinolcd\test\pain drain\libraries\lvgl\src/core\lv_obj_style_gen.h **** 
 499:c:\projects\paindrain\arduinolcd\test\pain drain\libraries\lvgl\src/core\lv_obj_style_gen.h **** static inline bool lv_obj_get_style_clip_corner(const struct _lv_obj_t * obj, uint32_t part)
 500:c:\projects\paindrain\arduinolcd\test\pain drain\libraries\lvgl\src/core\lv_obj_style_gen.h **** {
 501:c:\projects\paindrain\arduinolcd\test\pain drain\libraries\lvgl\src/core\lv_obj_style_gen.h ****     lv_style_value_t v = lv_obj_get_style_prop(obj, part, LV_STYLE_CLIP_CORNER);
 502:c:\projects\paindrain\arduinolcd\test\pain drain\libraries\lvgl\src/core\lv_obj_style_gen.h ****     return (bool)v.num;
 503:c:\projects\paindrain\arduinolcd\test\pain drain\libraries\lvgl\src/core\lv_obj_style_gen.h **** }
 504:c:\projects\paindrain\arduinolcd\test\pain drain\libraries\lvgl\src/core\lv_obj_style_gen.h **** 
 505:c:\projects\paindrain\arduinolcd\test\pain drain\libraries\lvgl\src/core\lv_obj_style_gen.h **** static inline lv_opa_t lv_obj_get_style_opa(const struct _lv_obj_t * obj, uint32_t part)
 506:c:\projects\paindrain\arduinolcd\test\pain drain\libraries\lvgl\src/core\lv_obj_style_gen.h **** {
 507:c:\projects\paindrain\arduinolcd\test\pain drain\libraries\lvgl\src/core\lv_obj_style_gen.h ****     lv_style_value_t v = lv_obj_get_style_prop(obj, part, LV_STYLE_OPA);
 508:c:\projects\paindrain\arduinolcd\test\pain drain\libraries\lvgl\src/core\lv_obj_style_gen.h ****     return (lv_opa_t)v.num;
 509:c:\projects\paindrain\arduinolcd\test\pain drain\libraries\lvgl\src/core\lv_obj_style_gen.h **** }
 510:c:\projects\paindrain\arduinolcd\test\pain drain\libraries\lvgl\src/core\lv_obj_style_gen.h **** 
 511:c:\projects\paindrain\arduinolcd\test\pain drain\libraries\lvgl\src/core\lv_obj_style_gen.h **** static inline const lv_color_filter_dsc_t * lv_obj_get_style_color_filter_dsc(const struct _lv_obj_
 512:c:\projects\paindrain\arduinolcd\test\pain drain\libraries\lvgl\src/core\lv_obj_style_gen.h **** {
 513:c:\projects\paindrain\arduinolcd\test\pain drain\libraries\lvgl\src/core\lv_obj_style_gen.h ****     lv_style_value_t v = lv_obj_get_style_prop(obj, part, LV_STYLE_COLOR_FILTER_DSC);
 514:c:\projects\paindrain\arduinolcd\test\pain drain\libraries\lvgl\src/core\lv_obj_style_gen.h ****     return (const lv_color_filter_dsc_t *)v.ptr;
 515:c:\projects\paindrain\arduinolcd\test\pain drain\libraries\lvgl\src/core\lv_obj_style_gen.h **** }
 516:c:\projects\paindrain\arduinolcd\test\pain drain\libraries\lvgl\src/core\lv_obj_style_gen.h **** 
 517:c:\projects\paindrain\arduinolcd\test\pain drain\libraries\lvgl\src/core\lv_obj_style_gen.h **** static inline lv_opa_t lv_obj_get_style_color_filter_opa(const struct _lv_obj_t * obj, uint32_t par
 518:c:\projects\paindrain\arduinolcd\test\pain drain\libraries\lvgl\src/core\lv_obj_style_gen.h **** {
 519:c:\projects\paindrain\arduinolcd\test\pain drain\libraries\lvgl\src/core\lv_obj_style_gen.h ****     lv_style_value_t v = lv_obj_get_style_prop(obj, part, LV_STYLE_COLOR_FILTER_OPA);
 520:c:\projects\paindrain\arduinolcd\test\pain drain\libraries\lvgl\src/core\lv_obj_style_gen.h ****     return (lv_opa_t)v.num;
 521:c:\projects\paindrain\arduinolcd\test\pain drain\libraries\lvgl\src/core\lv_obj_style_gen.h **** }
 522:c:\projects\paindrain\arduinolcd\test\pain drain\libraries\lvgl\src/core\lv_obj_style_gen.h **** 
 523:c:\projects\paindrain\arduinolcd\test\pain drain\libraries\lvgl\src/core\lv_obj_style_gen.h **** static inline const lv_anim_t * lv_obj_get_style_anim(const struct _lv_obj_t * obj, uint32_t part)
ARM GAS  C:\Users\haske\AppData\Local\Temp\cc7oyVf6.s 			page 32


 524:c:\projects\paindrain\arduinolcd\test\pain drain\libraries\lvgl\src/core\lv_obj_style_gen.h **** {
 525:c:\projects\paindrain\arduinolcd\test\pain drain\libraries\lvgl\src/core\lv_obj_style_gen.h ****     lv_style_value_t v = lv_obj_get_style_prop(obj, part, LV_STYLE_ANIM);
 526:c:\projects\paindrain\arduinolcd\test\pain drain\libraries\lvgl\src/core\lv_obj_style_gen.h ****     return (const lv_anim_t *)v.ptr;
 527:c:\projects\paindrain\arduinolcd\test\pain drain\libraries\lvgl\src/core\lv_obj_style_gen.h **** }
 528:c:\projects\paindrain\arduinolcd\test\pain drain\libraries\lvgl\src/core\lv_obj_style_gen.h **** 
 529:c:\projects\paindrain\arduinolcd\test\pain drain\libraries\lvgl\src/core\lv_obj_style_gen.h **** static inline uint32_t lv_obj_get_style_anim_time(const struct _lv_obj_t * obj, uint32_t part)
 530:c:\projects\paindrain\arduinolcd\test\pain drain\libraries\lvgl\src/core\lv_obj_style_gen.h **** {
 531:c:\projects\paindrain\arduinolcd\test\pain drain\libraries\lvgl\src/core\lv_obj_style_gen.h ****     lv_style_value_t v = lv_obj_get_style_prop(obj, part, LV_STYLE_ANIM_TIME);
 532:c:\projects\paindrain\arduinolcd\test\pain drain\libraries\lvgl\src/core\lv_obj_style_gen.h ****     return (uint32_t)v.num;
 533:c:\projects\paindrain\arduinolcd\test\pain drain\libraries\lvgl\src/core\lv_obj_style_gen.h **** }
 534:c:\projects\paindrain\arduinolcd\test\pain drain\libraries\lvgl\src/core\lv_obj_style_gen.h **** 
 535:c:\projects\paindrain\arduinolcd\test\pain drain\libraries\lvgl\src/core\lv_obj_style_gen.h **** static inline uint32_t lv_obj_get_style_anim_speed(const struct _lv_obj_t * obj, uint32_t part)
 536:c:\projects\paindrain\arduinolcd\test\pain drain\libraries\lvgl\src/core\lv_obj_style_gen.h **** {
 537:c:\projects\paindrain\arduinolcd\test\pain drain\libraries\lvgl\src/core\lv_obj_style_gen.h ****     lv_style_value_t v = lv_obj_get_style_prop(obj, part, LV_STYLE_ANIM_SPEED);
 538:c:\projects\paindrain\arduinolcd\test\pain drain\libraries\lvgl\src/core\lv_obj_style_gen.h ****     return (uint32_t)v.num;
 539:c:\projects\paindrain\arduinolcd\test\pain drain\libraries\lvgl\src/core\lv_obj_style_gen.h **** }
 540:c:\projects\paindrain\arduinolcd\test\pain drain\libraries\lvgl\src/core\lv_obj_style_gen.h **** 
 541:c:\projects\paindrain\arduinolcd\test\pain drain\libraries\lvgl\src/core\lv_obj_style_gen.h **** static inline const lv_style_transition_dsc_t * lv_obj_get_style_transition(const struct _lv_obj_t 
 542:c:\projects\paindrain\arduinolcd\test\pain drain\libraries\lvgl\src/core\lv_obj_style_gen.h **** {
 543:c:\projects\paindrain\arduinolcd\test\pain drain\libraries\lvgl\src/core\lv_obj_style_gen.h ****     lv_style_value_t v = lv_obj_get_style_prop(obj, part, LV_STYLE_TRANSITION);
 544:c:\projects\paindrain\arduinolcd\test\pain drain\libraries\lvgl\src/core\lv_obj_style_gen.h ****     return (const lv_style_transition_dsc_t *)v.ptr;
 545:c:\projects\paindrain\arduinolcd\test\pain drain\libraries\lvgl\src/core\lv_obj_style_gen.h **** }
 546:c:\projects\paindrain\arduinolcd\test\pain drain\libraries\lvgl\src/core\lv_obj_style_gen.h **** 
 547:c:\projects\paindrain\arduinolcd\test\pain drain\libraries\lvgl\src/core\lv_obj_style_gen.h **** static inline lv_blend_mode_t lv_obj_get_style_blend_mode(const struct _lv_obj_t * obj, uint32_t pa
 548:c:\projects\paindrain\arduinolcd\test\pain drain\libraries\lvgl\src/core\lv_obj_style_gen.h **** {
 549:c:\projects\paindrain\arduinolcd\test\pain drain\libraries\lvgl\src/core\lv_obj_style_gen.h ****     lv_style_value_t v = lv_obj_get_style_prop(obj, part, LV_STYLE_BLEND_MODE);
 467              		.loc 2 549 0
 468 0016 6722     		movs	r2, #103
 469 0018 0021     		movs	r1, #0
 470 001a 2000     		movs	r0, r4
 471              	.LVL63:
 472 001c FFF7FEFF 		bl	lv_obj_get_style_prop
 473              	.LVL64:
 550:c:\projects\paindrain\arduinolcd\test\pain drain\libraries\lvgl\src/core\lv_obj_style_gen.h ****     return (lv_blend_mode_t)v.num;
 474              		.loc 2 550 0
 475 0020 C0B2     		uxtb	r0, r0
 476              	.LVL65:
 477              	.LBE90:
 478              	.LBE89:
 479 0022 01E0     		b	.L30
 480              	.LVL66:
 481              	.L29:
 707:..\..\..\arduinoLCD\test\Pain Drain\libraries\lvgl\src\extra\widgets\span/lv_span.c ****     }
 482              		.loc 1 707 0
 483 0024 019B     		ldr	r3, [sp, #4]
 484 0026 D8B2     		uxtb	r0, r3
 485              	.LVL67:
 486              	.L30:
 710:..\..\..\arduinoLCD\test\Pain Drain\libraries\lvgl\src\extra\widgets\span/lv_span.c **** 
 487              		.loc 1 710 0
 488 0028 02B0     		add	sp, sp, #8
 489              		@ sp needed
 490              	.LVL68:
 491 002a 10BD     		pop	{r4, pc}
 492              		.cfi_endproc
 493              	.LFE236:
 494              		.size	lv_span_get_style_text_blend_mode, .-lv_span_get_style_text_blend_mode
ARM GAS  C:\Users\haske\AppData\Local\Temp\cc7oyVf6.s 			page 33


 495              		.section	.text.lv_span_get_style_text_decor,"ax",%progbits
 496              		.align	2
 497              		.code	16
 498              		.thumb_func
 499              		.type	lv_span_get_style_text_decor, %function
 500              	lv_span_get_style_text_decor:
 501              	.LFB237:
 713:..\..\..\arduinoLCD\test\Pain Drain\libraries\lvgl\src\extra\widgets\span/lv_span.c ****     int32_t decor;
 502              		.loc 1 713 0
 503              		.cfi_startproc
 504              		@ args = 0, pretend = 0, frame = 8
 505              		@ frame_needed = 0, uses_anonymous_args = 0
 506              	.LVL69:
 507 0000 10B5     		push	{r4, lr}
 508              		.cfi_def_cfa_offset 8
 509              		.cfi_offset 4, -8
 510              		.cfi_offset 14, -4
 511 0002 82B0     		sub	sp, sp, #8
 512              		.cfi_def_cfa_offset 16
 513 0004 0400     		movs	r4, r0
 716:..\..\..\arduinoLCD\test\Pain Drain\libraries\lvgl\src\extra\widgets\span/lv_span.c ****     if(res != LV_RES_OK) {
 514              		.loc 1 716 0
 515 0006 0831     		adds	r1, r1, #8
 516              	.LVL70:
 517 0008 0800     		movs	r0, r1
 518              	.LVL71:
 519 000a 01AA     		add	r2, sp, #4
 520 000c 5A21     		movs	r1, #90
 521              	.LVL72:
 522 000e FFF7FEFF 		bl	lv_style_get_prop
 523              	.LVL73:
 717:..\..\..\arduinoLCD\test\Pain Drain\libraries\lvgl\src\extra\widgets\span/lv_span.c ****         decor = (lv_text_decor_t)lv_obj_get_style_text_decor(par, LV_PART_MAIN);;
 524              		.loc 1 717 0
 525 0012 0128     		cmp	r0, #1
 526 0014 07D0     		beq	.L32
 527              	.LVL74:
 528              	.LBB91:
 529              	.LBB92:
 483:c:\projects\paindrain\arduinolcd\test\pain drain\libraries\lvgl\src/core\lv_obj_style_gen.h ****     return (lv_text_decor_t)v.num;
 530              		.loc 2 483 0
 531 0016 5A22     		movs	r2, #90
 532 0018 0021     		movs	r1, #0
 533 001a 2000     		movs	r0, r4
 534              	.LVL75:
 535 001c FFF7FEFF 		bl	lv_obj_get_style_prop
 536              	.LVL76:
 537 0020 FF23     		movs	r3, #255
 538              	.LVL77:
 539 0022 1840     		ands	r0, r3
 540              	.LVL78:
 541              	.LBE92:
 542              	.LBE91:
 543 0024 00E0     		b	.L33
 544              	.LVL79:
 545              	.L32:
 721:..\..\..\arduinoLCD\test\Pain Drain\libraries\lvgl\src\extra\widgets\span/lv_span.c ****     }
 546              		.loc 1 721 0
ARM GAS  C:\Users\haske\AppData\Local\Temp\cc7oyVf6.s 			page 34


 547 0026 0198     		ldr	r0, [sp, #4]
 548              	.LVL80:
 549              	.L33:
 724:..\..\..\arduinoLCD\test\Pain Drain\libraries\lvgl\src\extra\widgets\span/lv_span.c **** 
 550              		.loc 1 724 0
 551 0028 02B0     		add	sp, sp, #8
 552              		@ sp needed
 553              	.LVL81:
 554 002a 10BD     		pop	{r4, pc}
 555              		.cfi_endproc
 556              	.LFE237:
 557              		.size	lv_span_get_style_text_decor, .-lv_span_get_style_text_decor
 558              		.section	.text.lv_txt_get_snippet,"ax",%progbits
 559              		.align	2
 560              		.code	16
 561              		.thumb_func
 562              		.type	lv_txt_get_snippet, %function
 563              	lv_txt_get_snippet:
 564              	.LFB227:
 602:..\..\..\arduinoLCD\test\Pain Drain\libraries\lvgl\src\extra\widgets\span/lv_span.c ****     if(txt == NULL || txt[0] == '\0') {
 565              		.loc 1 602 0
 566              		.cfi_startproc
 567              		@ args = 12, pretend = 0, frame = 0
 568              		@ frame_needed = 0, uses_anonymous_args = 0
 569              	.LVL82:
 570 0000 30B5     		push	{r4, r5, lr}
 571              		.cfi_def_cfa_offset 12
 572              		.cfi_offset 4, -12
 573              		.cfi_offset 5, -8
 574              		.cfi_offset 14, -4
 575 0002 83B0     		sub	sp, sp, #12
 576              		.cfi_def_cfa_offset 24
 577 0004 0400     		movs	r4, r0
 578 0006 1D00     		movs	r5, r3
 579 0008 06AB     		add	r3, sp, #24
 580              	.LVL83:
 581 000a 1878     		ldrb	r0, [r3]
 582              	.LVL84:
 603:..\..\..\arduinoLCD\test\Pain Drain\libraries\lvgl\src\extra\widgets\span/lv_span.c ****         *end_ofs = 0;
 583              		.loc 1 603 0
 584 000c 002C     		cmp	r4, #0
 585 000e 02D0     		beq	.L35
 603:..\..\..\arduinoLCD\test\Pain Drain\libraries\lvgl\src\extra\widgets\span/lv_span.c ****         *end_ofs = 0;
 586              		.loc 1 603 0 is_stmt 0 discriminator 1
 587 0010 2378     		ldrb	r3, [r4]
 588              	.LVL85:
 589 0012 002B     		cmp	r3, #0
 590 0014 06D1     		bne	.L36
 591              	.L35:
 604:..\..\..\arduinoLCD\test\Pain Drain\libraries\lvgl\src\extra\widgets\span/lv_span.c ****         *use_width = 0;
 592              		.loc 1 604 0 is_stmt 1
 593 0016 0023     		movs	r3, #0
 594 0018 089A     		ldr	r2, [sp, #32]
 595              	.LVL86:
 596 001a 1360     		str	r3, [r2]
 605:..\..\..\arduinoLCD\test\Pain Drain\libraries\lvgl\src\extra\widgets\span/lv_span.c ****         return false;
 597              		.loc 1 605 0
ARM GAS  C:\Users\haske\AppData\Local\Temp\cc7oyVf6.s 			page 35


 598 001c 079A     		ldr	r2, [sp, #28]
 599 001e 1380     		strh	r3, [r2]
 606:..\..\..\arduinoLCD\test\Pain Drain\libraries\lvgl\src\extra\widgets\span/lv_span.c ****     }
 600              		.loc 1 606 0
 601 0020 0020     		movs	r0, #0
 602 0022 15E0     		b	.L37
 603              	.LVL87:
 604              	.L36:
 609:..\..\..\arduinoLCD\test\Pain Drain\libraries\lvgl\src\extra\widgets\span/lv_span.c ****     *end_ofs = ofs;
 605              		.loc 1 609 0
 606 0024 0190     		str	r0, [sp, #4]
 607 0026 079B     		ldr	r3, [sp, #28]
 608 0028 0093     		str	r3, [sp]
 609 002a 2B00     		movs	r3, r5
 610 002c 2000     		movs	r0, r4
 611 002e FFF7FEFF 		bl	_lv_txt_get_next_line
 612              	.LVL88:
 610:..\..\..\arduinoLCD\test\Pain Drain\libraries\lvgl\src\extra\widgets\span/lv_span.c **** 
 613              		.loc 1 610 0
 614 0032 089B     		ldr	r3, [sp, #32]
 615 0034 1860     		str	r0, [r3]
 612:..\..\..\arduinoLCD\test\Pain Drain\libraries\lvgl\src\extra\widgets\span/lv_span.c ****         return false;
 616              		.loc 1 612 0
 617 0036 235C     		ldrb	r3, [r4, r0]
 618 0038 002B     		cmp	r3, #0
 619 003a 06D1     		bne	.L38
 612:..\..\..\arduinoLCD\test\Pain Drain\libraries\lvgl\src\extra\widgets\span/lv_span.c ****         return false;
 620              		.loc 1 612 0 is_stmt 0 discriminator 1
 621 003c 079B     		ldr	r3, [sp, #28]
 622 003e 0022     		movs	r2, #0
 623 0040 9B5E     		ldrsh	r3, [r3, r2]
 624 0042 9D42     		cmp	r5, r3
 625 0044 03DC     		bgt	.L39
 616:..\..\..\arduinoLCD\test\Pain Drain\libraries\lvgl\src\extra\widgets\span/lv_span.c ****     }
 626              		.loc 1 616 0 is_stmt 1
 627 0046 0120     		movs	r0, #1
 628              	.LVL89:
 629 0048 02E0     		b	.L37
 630              	.LVL90:
 631              	.L38:
 632 004a 0120     		movs	r0, #1
 633              	.LVL91:
 634 004c 00E0     		b	.L37
 635              	.LVL92:
 636              	.L39:
 613:..\..\..\arduinoLCD\test\Pain Drain\libraries\lvgl\src\extra\widgets\span/lv_span.c ****     }
 637              		.loc 1 613 0
 638 004e 0020     		movs	r0, #0
 639              	.LVL93:
 640              	.L37:
 618:..\..\..\arduinoLCD\test\Pain Drain\libraries\lvgl\src\extra\widgets\span/lv_span.c **** 
 641              		.loc 1 618 0
 642 0050 03B0     		add	sp, sp, #12
 643              		@ sp needed
 644              	.LVL94:
 645 0052 30BD     		pop	{r4, r5, pc}
 646              		.cfi_endproc
ARM GAS  C:\Users\haske\AppData\Local\Temp\cc7oyVf6.s 			page 36


 647              	.LFE227:
 648              		.size	lv_txt_get_snippet, .-lv_txt_get_snippet
 649              		.section	.text.lv_snippet_push,"ax",%progbits
 650              		.align	2
 651              		.code	16
 652              		.thumb_func
 653              		.type	lv_snippet_push, %function
 654              	lv_snippet_push:
 655              	.LFB228:
 621:..\..\..\arduinoLCD\test\Pain Drain\libraries\lvgl\src\extra\widgets\span/lv_span.c ****     if(snippet_stack.index < LV_SPAN_SNIPPET_STACK_SIZE) {
 656              		.loc 1 621 0
 657              		.cfi_startproc
 658              		@ args = 0, pretend = 0, frame = 0
 659              		@ frame_needed = 0, uses_anonymous_args = 0
 660              	.LVL95:
 661 0000 10B5     		push	{r4, lr}
 662              		.cfi_def_cfa_offset 8
 663              		.cfi_offset 4, -8
 664              		.cfi_offset 14, -4
 622:..\..\..\arduinoLCD\test\Pain Drain\libraries\lvgl\src\extra\widgets\span/lv_span.c ****         memcpy(&snippet_stack.stack[snippet_stack.index], item, sizeof(lv_snippet_t));
 665              		.loc 1 622 0
 666 0002 A023     		movs	r3, #160
 667 0004 DB00     		lsls	r3, r3, #3
 668 0006 0A4A     		ldr	r2, .L42
 669 0008 D35A     		ldrh	r3, [r2, r3]
 670 000a 3F2B     		cmp	r3, #63
 671 000c 0ED8     		bhi	.L40
 623:..\..\..\arduinoLCD\test\Pain Drain\libraries\lvgl\src\extra\widgets\span/lv_span.c ****         snippet_stack.index++;
 672              		.loc 1 623 0
 673 000e 1400     		movs	r4, r2
 674 0010 9A00     		lsls	r2, r3, #2
 675 0012 D318     		adds	r3, r2, r3
 676 0014 9A00     		lsls	r2, r3, #2
 677 0016 A318     		adds	r3, r4, r2
 678 0018 1422     		movs	r2, #20
 679 001a 0100     		movs	r1, r0
 680 001c 1800     		movs	r0, r3
 681              	.LVL96:
 682 001e FFF7FEFF 		bl	memcpy
 683              	.LVL97:
 624:..\..\..\arduinoLCD\test\Pain Drain\libraries\lvgl\src\extra\widgets\span/lv_span.c ****     }
 684              		.loc 1 624 0
 685 0022 A022     		movs	r2, #160
 686 0024 D200     		lsls	r2, r2, #3
 687 0026 A35A     		ldrh	r3, [r4, r2]
 688 0028 0133     		adds	r3, r3, #1
 689 002a A352     		strh	r3, [r4, r2]
 690              	.L40:
 629:..\..\..\arduinoLCD\test\Pain Drain\libraries\lvgl\src\extra\widgets\span/lv_span.c **** 
 691              		.loc 1 629 0
 692              		@ sp needed
 693 002c 10BD     		pop	{r4, pc}
 694              	.L43:
 695 002e C046     		.align	2
 696              	.L42:
 697 0030 00000000 		.word	.LANCHOR0
 698              		.cfi_endproc
ARM GAS  C:\Users\haske\AppData\Local\Temp\cc7oyVf6.s 			page 37


 699              	.LFE228:
 700              		.size	lv_snippet_push, .-lv_snippet_push
 701              		.section	.text.lv_draw_span,"ax",%progbits
 702              		.align	2
 703              		.code	16
 704              		.thumb_func
 705              		.type	lv_draw_span, %function
 706              	lv_draw_span:
 707              	.LFB240:
 750:..\..\..\arduinoLCD\test\Pain Drain\libraries\lvgl\src\extra\widgets\span/lv_span.c **** 
 751:..\..\..\arduinoLCD\test\Pain Drain\libraries\lvgl\src\extra\widgets\span/lv_span.c **** /**
 752:..\..\..\arduinoLCD\test\Pain Drain\libraries\lvgl\src\extra\widgets\span/lv_span.c ****  * draw span group
 753:..\..\..\arduinoLCD\test\Pain Drain\libraries\lvgl\src\extra\widgets\span/lv_span.c ****  * @param spans obj handle
 754:..\..\..\arduinoLCD\test\Pain Drain\libraries\lvgl\src\extra\widgets\span/lv_span.c ****  * @param coords coordinates of the label
 755:..\..\..\arduinoLCD\test\Pain Drain\libraries\lvgl\src\extra\widgets\span/lv_span.c ****  * @param mask the label will be drawn only in this area
 756:..\..\..\arduinoLCD\test\Pain Drain\libraries\lvgl\src\extra\widgets\span/lv_span.c ****  */
 757:..\..\..\arduinoLCD\test\Pain Drain\libraries\lvgl\src\extra\widgets\span/lv_span.c **** static void lv_draw_span(lv_obj_t * obj, lv_draw_ctx_t * draw_ctx)
 758:..\..\..\arduinoLCD\test\Pain Drain\libraries\lvgl\src\extra\widgets\span/lv_span.c **** {
 708              		.loc 1 758 0
 709              		.cfi_startproc
 710              		@ args = 0, pretend = 0, frame = 208
 711              		@ frame_needed = 0, uses_anonymous_args = 0
 712              	.LVL98:
 713 0000 F0B5     		push	{r4, r5, r6, r7, lr}
 714              		.cfi_def_cfa_offset 20
 715              		.cfi_offset 4, -20
 716              		.cfi_offset 5, -16
 717              		.cfi_offset 6, -12
 718              		.cfi_offset 7, -8
 719              		.cfi_offset 14, -4
 720 0002 5F46     		mov	r7, fp
 721 0004 5646     		mov	r6, r10
 722 0006 4D46     		mov	r5, r9
 723 0008 4446     		mov	r4, r8
 724 000a F0B4     		push	{r4, r5, r6, r7}
 725              		.cfi_def_cfa_offset 36
 726              		.cfi_offset 8, -36
 727              		.cfi_offset 9, -32
 728              		.cfi_offset 10, -28
 729              		.cfi_offset 11, -24
 730 000c B9B0     		sub	sp, sp, #228
 731              		.cfi_def_cfa_offset 264
 732 000e 0400     		movs	r4, r0
 733 0010 0890     		str	r0, [sp, #32]
 734 0012 0D00     		movs	r5, r1
 735 0014 0691     		str	r1, [sp, #24]
 759:..\..\..\arduinoLCD\test\Pain Drain\libraries\lvgl\src\extra\widgets\span/lv_span.c **** 
 760:..\..\..\arduinoLCD\test\Pain Drain\libraries\lvgl\src\extra\widgets\span/lv_span.c ****     lv_area_t coords;
 761:..\..\..\arduinoLCD\test\Pain Drain\libraries\lvgl\src\extra\widgets\span/lv_span.c ****     lv_obj_get_content_coords(obj, &coords);
 736              		.loc 1 761 0
 737 0016 36A9     		add	r1, sp, #216
 738              	.LVL99:
 739 0018 FFF7FEFF 		bl	lv_obj_get_content_coords
 740              	.LVL100:
 762:..\..\..\arduinoLCD\test\Pain Drain\libraries\lvgl\src\extra\widgets\span/lv_span.c **** 
 763:..\..\..\arduinoLCD\test\Pain Drain\libraries\lvgl\src\extra\widgets\span/lv_span.c ****     lv_spangroup_t * spans = (lv_spangroup_t *)obj;
 764:..\..\..\arduinoLCD\test\Pain Drain\libraries\lvgl\src\extra\widgets\span/lv_span.c **** 
ARM GAS  C:\Users\haske\AppData\Local\Temp\cc7oyVf6.s 			page 38


 765:..\..\..\arduinoLCD\test\Pain Drain\libraries\lvgl\src\extra\widgets\span/lv_span.c ****     /* return if not span */
 766:..\..\..\arduinoLCD\test\Pain Drain\libraries\lvgl\src\extra\widgets\span/lv_span.c ****     if(_lv_ll_get_head(&spans->child_ll) == NULL) {
 741              		.loc 1 766 0
 742 001c 2300     		movs	r3, r4
 743 001e 3033     		adds	r3, r3, #48
 744 0020 0D93     		str	r3, [sp, #52]
 745 0022 1800     		movs	r0, r3
 746 0024 FFF7FEFF 		bl	_lv_ll_get_head
 747              	.LVL101:
 748 0028 0028     		cmp	r0, #0
 749 002a 00D1     		bne	.LCB729
 750 002c 20E3     		b	.L44	@long jump
 751              	.LCB729:
 767:..\..\..\arduinoLCD\test\Pain Drain\libraries\lvgl\src\extra\widgets\span/lv_span.c ****         return;
 768:..\..\..\arduinoLCD\test\Pain Drain\libraries\lvgl\src\extra\widgets\span/lv_span.c ****     }
 769:..\..\..\arduinoLCD\test\Pain Drain\libraries\lvgl\src\extra\widgets\span/lv_span.c **** 
 770:..\..\..\arduinoLCD\test\Pain Drain\libraries\lvgl\src\extra\widgets\span/lv_span.c ****     /* return if no draw area */
 771:..\..\..\arduinoLCD\test\Pain Drain\libraries\lvgl\src\extra\widgets\span/lv_span.c ****     lv_area_t clip_area;
 772:..\..\..\arduinoLCD\test\Pain Drain\libraries\lvgl\src\extra\widgets\span/lv_span.c ****     if(!_lv_area_intersect(&clip_area, &coords, draw_ctx->clip_area))  return;
 752              		.loc 1 772 0
 753 002e AB68     		ldr	r3, [r5, #8]
 754 0030 0593     		str	r3, [sp, #20]
 755 0032 1A00     		movs	r2, r3
 756 0034 36A9     		add	r1, sp, #216
 757 0036 34A8     		add	r0, sp, #208
 758 0038 FFF7FEFF 		bl	_lv_area_intersect
 759              	.LVL102:
 760 003c 1990     		str	r0, [sp, #100]
 761 003e 0028     		cmp	r0, #0
 762 0040 00D1     		bne	.LCB739
 763 0042 15E3     		b	.L44	@long jump
 764              	.LCB739:
 773:..\..\..\arduinoLCD\test\Pain Drain\libraries\lvgl\src\extra\widgets\span/lv_span.c ****     const lv_area_t * clip_area_ori = draw_ctx->clip_area;
 765              		.loc 1 773 0
 766 0044 069A     		ldr	r2, [sp, #24]
 767 0046 9368     		ldr	r3, [r2, #8]
 768 0048 1C93     		str	r3, [sp, #112]
 769              	.LVL103:
 774:..\..\..\arduinoLCD\test\Pain Drain\libraries\lvgl\src\extra\widgets\span/lv_span.c ****     draw_ctx->clip_area = &clip_area;
 770              		.loc 1 774 0
 771 004a 34AB     		add	r3, sp, #208
 772              	.LVL104:
 773 004c 9360     		str	r3, [r2, #8]
 774              	.LVL105:
 775              	.LBB93:
 776              	.LBB94:
 477:c:\projects\paindrain\arduinolcd\test\pain drain\libraries\lvgl\src/core\lv_obj_style_gen.h ****     return (lv_coord_t)v.num;
 777              		.loc 2 477 0
 778 004e 5922     		movs	r2, #89
 779 0050 0021     		movs	r1, #0
 780 0052 089F     		ldr	r7, [sp, #32]
 781 0054 3800     		movs	r0, r7
 782 0056 FFF7FEFF 		bl	lv_obj_get_style_prop
 783              	.LVL106:
 784 005a 1190     		str	r0, [sp, #68]
 478:c:\projects\paindrain\arduinolcd\test\pain drain\libraries\lvgl\src/core\lv_obj_style_gen.h **** }
 785              		.loc 2 478 0
ARM GAS  C:\Users\haske\AppData\Local\Temp\cc7oyVf6.s 			page 39


 786 005c 03B2     		sxth	r3, r0
 787 005e 1793     		str	r3, [sp, #92]
 788              	.LVL107:
 789              	.LBE94:
 790              	.LBE93:
 791              	.LBB95:
 792              	.LBB96:
 793              		.file 3 "c:\\projects\\paindrain\\arduinolcd\\test\\pain drain\\libraries\\lvgl\\src\\misc\\lv_are
   1:c:\projects\paindrain\arduinolcd\test\pain drain\libraries\lvgl\src\misc\lv_area.h **** /**
   2:c:\projects\paindrain\arduinolcd\test\pain drain\libraries\lvgl\src\misc\lv_area.h ****  * @file lv_area.h
   3:c:\projects\paindrain\arduinolcd\test\pain drain\libraries\lvgl\src\misc\lv_area.h ****  *
   4:c:\projects\paindrain\arduinolcd\test\pain drain\libraries\lvgl\src\misc\lv_area.h ****  */
   5:c:\projects\paindrain\arduinolcd\test\pain drain\libraries\lvgl\src\misc\lv_area.h **** 
   6:c:\projects\paindrain\arduinolcd\test\pain drain\libraries\lvgl\src\misc\lv_area.h **** #ifndef LV_AREA_H
   7:c:\projects\paindrain\arduinolcd\test\pain drain\libraries\lvgl\src\misc\lv_area.h **** #define LV_AREA_H
   8:c:\projects\paindrain\arduinolcd\test\pain drain\libraries\lvgl\src\misc\lv_area.h **** 
   9:c:\projects\paindrain\arduinolcd\test\pain drain\libraries\lvgl\src\misc\lv_area.h **** #ifdef __cplusplus
  10:c:\projects\paindrain\arduinolcd\test\pain drain\libraries\lvgl\src\misc\lv_area.h **** extern "C" {
  11:c:\projects\paindrain\arduinolcd\test\pain drain\libraries\lvgl\src\misc\lv_area.h **** #endif
  12:c:\projects\paindrain\arduinolcd\test\pain drain\libraries\lvgl\src\misc\lv_area.h **** 
  13:c:\projects\paindrain\arduinolcd\test\pain drain\libraries\lvgl\src\misc\lv_area.h **** /*********************
  14:c:\projects\paindrain\arduinolcd\test\pain drain\libraries\lvgl\src\misc\lv_area.h ****  *      INCLUDES
  15:c:\projects\paindrain\arduinolcd\test\pain drain\libraries\lvgl\src\misc\lv_area.h ****  *********************/
  16:c:\projects\paindrain\arduinolcd\test\pain drain\libraries\lvgl\src\misc\lv_area.h **** #include "../lv_conf_internal.h"
  17:c:\projects\paindrain\arduinolcd\test\pain drain\libraries\lvgl\src\misc\lv_area.h **** #include <stdbool.h>
  18:c:\projects\paindrain\arduinolcd\test\pain drain\libraries\lvgl\src\misc\lv_area.h **** #include <stdint.h>
  19:c:\projects\paindrain\arduinolcd\test\pain drain\libraries\lvgl\src\misc\lv_area.h **** 
  20:c:\projects\paindrain\arduinolcd\test\pain drain\libraries\lvgl\src\misc\lv_area.h **** /*********************
  21:c:\projects\paindrain\arduinolcd\test\pain drain\libraries\lvgl\src\misc\lv_area.h ****  *      DEFINES
  22:c:\projects\paindrain\arduinolcd\test\pain drain\libraries\lvgl\src\misc\lv_area.h ****  *********************/
  23:c:\projects\paindrain\arduinolcd\test\pain drain\libraries\lvgl\src\misc\lv_area.h **** 
  24:c:\projects\paindrain\arduinolcd\test\pain drain\libraries\lvgl\src\misc\lv_area.h **** #if LV_USE_LARGE_COORD
  25:c:\projects\paindrain\arduinolcd\test\pain drain\libraries\lvgl\src\misc\lv_area.h **** typedef int32_t lv_coord_t;
  26:c:\projects\paindrain\arduinolcd\test\pain drain\libraries\lvgl\src\misc\lv_area.h **** #else
  27:c:\projects\paindrain\arduinolcd\test\pain drain\libraries\lvgl\src\misc\lv_area.h **** typedef int16_t lv_coord_t;
  28:c:\projects\paindrain\arduinolcd\test\pain drain\libraries\lvgl\src\misc\lv_area.h **** #endif
  29:c:\projects\paindrain\arduinolcd\test\pain drain\libraries\lvgl\src\misc\lv_area.h **** 
  30:c:\projects\paindrain\arduinolcd\test\pain drain\libraries\lvgl\src\misc\lv_area.h **** /**********************
  31:c:\projects\paindrain\arduinolcd\test\pain drain\libraries\lvgl\src\misc\lv_area.h ****  *      TYPEDEFS
  32:c:\projects\paindrain\arduinolcd\test\pain drain\libraries\lvgl\src\misc\lv_area.h ****  **********************/
  33:c:\projects\paindrain\arduinolcd\test\pain drain\libraries\lvgl\src\misc\lv_area.h **** 
  34:c:\projects\paindrain\arduinolcd\test\pain drain\libraries\lvgl\src\misc\lv_area.h **** /**
  35:c:\projects\paindrain\arduinolcd\test\pain drain\libraries\lvgl\src\misc\lv_area.h ****  * Represents a point on the screen.
  36:c:\projects\paindrain\arduinolcd\test\pain drain\libraries\lvgl\src\misc\lv_area.h ****  */
  37:c:\projects\paindrain\arduinolcd\test\pain drain\libraries\lvgl\src\misc\lv_area.h **** typedef struct {
  38:c:\projects\paindrain\arduinolcd\test\pain drain\libraries\lvgl\src\misc\lv_area.h ****     lv_coord_t x;
  39:c:\projects\paindrain\arduinolcd\test\pain drain\libraries\lvgl\src\misc\lv_area.h ****     lv_coord_t y;
  40:c:\projects\paindrain\arduinolcd\test\pain drain\libraries\lvgl\src\misc\lv_area.h **** } lv_point_t;
  41:c:\projects\paindrain\arduinolcd\test\pain drain\libraries\lvgl\src\misc\lv_area.h **** 
  42:c:\projects\paindrain\arduinolcd\test\pain drain\libraries\lvgl\src\misc\lv_area.h **** /** Represents an area of the screen.*/
  43:c:\projects\paindrain\arduinolcd\test\pain drain\libraries\lvgl\src\misc\lv_area.h **** typedef struct {
  44:c:\projects\paindrain\arduinolcd\test\pain drain\libraries\lvgl\src\misc\lv_area.h ****     lv_coord_t x1;
  45:c:\projects\paindrain\arduinolcd\test\pain drain\libraries\lvgl\src\misc\lv_area.h ****     lv_coord_t y1;
  46:c:\projects\paindrain\arduinolcd\test\pain drain\libraries\lvgl\src\misc\lv_area.h ****     lv_coord_t x2;
  47:c:\projects\paindrain\arduinolcd\test\pain drain\libraries\lvgl\src\misc\lv_area.h ****     lv_coord_t y2;
  48:c:\projects\paindrain\arduinolcd\test\pain drain\libraries\lvgl\src\misc\lv_area.h **** } lv_area_t;
  49:c:\projects\paindrain\arduinolcd\test\pain drain\libraries\lvgl\src\misc\lv_area.h **** 
ARM GAS  C:\Users\haske\AppData\Local\Temp\cc7oyVf6.s 			page 40


  50:c:\projects\paindrain\arduinolcd\test\pain drain\libraries\lvgl\src\misc\lv_area.h **** /** Alignments*/
  51:c:\projects\paindrain\arduinolcd\test\pain drain\libraries\lvgl\src\misc\lv_area.h **** enum {
  52:c:\projects\paindrain\arduinolcd\test\pain drain\libraries\lvgl\src\misc\lv_area.h ****     LV_ALIGN_DEFAULT = 0,
  53:c:\projects\paindrain\arduinolcd\test\pain drain\libraries\lvgl\src\misc\lv_area.h ****     LV_ALIGN_TOP_LEFT,
  54:c:\projects\paindrain\arduinolcd\test\pain drain\libraries\lvgl\src\misc\lv_area.h ****     LV_ALIGN_TOP_MID,
  55:c:\projects\paindrain\arduinolcd\test\pain drain\libraries\lvgl\src\misc\lv_area.h ****     LV_ALIGN_TOP_RIGHT,
  56:c:\projects\paindrain\arduinolcd\test\pain drain\libraries\lvgl\src\misc\lv_area.h ****     LV_ALIGN_BOTTOM_LEFT,
  57:c:\projects\paindrain\arduinolcd\test\pain drain\libraries\lvgl\src\misc\lv_area.h ****     LV_ALIGN_BOTTOM_MID,
  58:c:\projects\paindrain\arduinolcd\test\pain drain\libraries\lvgl\src\misc\lv_area.h ****     LV_ALIGN_BOTTOM_RIGHT,
  59:c:\projects\paindrain\arduinolcd\test\pain drain\libraries\lvgl\src\misc\lv_area.h ****     LV_ALIGN_LEFT_MID,
  60:c:\projects\paindrain\arduinolcd\test\pain drain\libraries\lvgl\src\misc\lv_area.h ****     LV_ALIGN_RIGHT_MID,
  61:c:\projects\paindrain\arduinolcd\test\pain drain\libraries\lvgl\src\misc\lv_area.h ****     LV_ALIGN_CENTER,
  62:c:\projects\paindrain\arduinolcd\test\pain drain\libraries\lvgl\src\misc\lv_area.h **** 
  63:c:\projects\paindrain\arduinolcd\test\pain drain\libraries\lvgl\src\misc\lv_area.h ****     LV_ALIGN_OUT_TOP_LEFT,
  64:c:\projects\paindrain\arduinolcd\test\pain drain\libraries\lvgl\src\misc\lv_area.h ****     LV_ALIGN_OUT_TOP_MID,
  65:c:\projects\paindrain\arduinolcd\test\pain drain\libraries\lvgl\src\misc\lv_area.h ****     LV_ALIGN_OUT_TOP_RIGHT,
  66:c:\projects\paindrain\arduinolcd\test\pain drain\libraries\lvgl\src\misc\lv_area.h ****     LV_ALIGN_OUT_BOTTOM_LEFT,
  67:c:\projects\paindrain\arduinolcd\test\pain drain\libraries\lvgl\src\misc\lv_area.h ****     LV_ALIGN_OUT_BOTTOM_MID,
  68:c:\projects\paindrain\arduinolcd\test\pain drain\libraries\lvgl\src\misc\lv_area.h ****     LV_ALIGN_OUT_BOTTOM_RIGHT,
  69:c:\projects\paindrain\arduinolcd\test\pain drain\libraries\lvgl\src\misc\lv_area.h ****     LV_ALIGN_OUT_LEFT_TOP,
  70:c:\projects\paindrain\arduinolcd\test\pain drain\libraries\lvgl\src\misc\lv_area.h ****     LV_ALIGN_OUT_LEFT_MID,
  71:c:\projects\paindrain\arduinolcd\test\pain drain\libraries\lvgl\src\misc\lv_area.h ****     LV_ALIGN_OUT_LEFT_BOTTOM,
  72:c:\projects\paindrain\arduinolcd\test\pain drain\libraries\lvgl\src\misc\lv_area.h ****     LV_ALIGN_OUT_RIGHT_TOP,
  73:c:\projects\paindrain\arduinolcd\test\pain drain\libraries\lvgl\src\misc\lv_area.h ****     LV_ALIGN_OUT_RIGHT_MID,
  74:c:\projects\paindrain\arduinolcd\test\pain drain\libraries\lvgl\src\misc\lv_area.h ****     LV_ALIGN_OUT_RIGHT_BOTTOM,
  75:c:\projects\paindrain\arduinolcd\test\pain drain\libraries\lvgl\src\misc\lv_area.h **** };
  76:c:\projects\paindrain\arduinolcd\test\pain drain\libraries\lvgl\src\misc\lv_area.h **** typedef uint8_t lv_align_t;
  77:c:\projects\paindrain\arduinolcd\test\pain drain\libraries\lvgl\src\misc\lv_area.h **** 
  78:c:\projects\paindrain\arduinolcd\test\pain drain\libraries\lvgl\src\misc\lv_area.h **** enum {
  79:c:\projects\paindrain\arduinolcd\test\pain drain\libraries\lvgl\src\misc\lv_area.h ****     LV_DIR_NONE     = 0x00,
  80:c:\projects\paindrain\arduinolcd\test\pain drain\libraries\lvgl\src\misc\lv_area.h ****     LV_DIR_LEFT     = (1 << 0),
  81:c:\projects\paindrain\arduinolcd\test\pain drain\libraries\lvgl\src\misc\lv_area.h ****     LV_DIR_RIGHT    = (1 << 1),
  82:c:\projects\paindrain\arduinolcd\test\pain drain\libraries\lvgl\src\misc\lv_area.h ****     LV_DIR_TOP      = (1 << 2),
  83:c:\projects\paindrain\arduinolcd\test\pain drain\libraries\lvgl\src\misc\lv_area.h ****     LV_DIR_BOTTOM   = (1 << 3),
  84:c:\projects\paindrain\arduinolcd\test\pain drain\libraries\lvgl\src\misc\lv_area.h ****     LV_DIR_HOR      = LV_DIR_LEFT | LV_DIR_RIGHT,
  85:c:\projects\paindrain\arduinolcd\test\pain drain\libraries\lvgl\src\misc\lv_area.h ****     LV_DIR_VER      = LV_DIR_TOP | LV_DIR_BOTTOM,
  86:c:\projects\paindrain\arduinolcd\test\pain drain\libraries\lvgl\src\misc\lv_area.h ****     LV_DIR_ALL      = LV_DIR_HOR | LV_DIR_VER,
  87:c:\projects\paindrain\arduinolcd\test\pain drain\libraries\lvgl\src\misc\lv_area.h **** };
  88:c:\projects\paindrain\arduinolcd\test\pain drain\libraries\lvgl\src\misc\lv_area.h **** 
  89:c:\projects\paindrain\arduinolcd\test\pain drain\libraries\lvgl\src\misc\lv_area.h **** typedef uint8_t lv_dir_t;
  90:c:\projects\paindrain\arduinolcd\test\pain drain\libraries\lvgl\src\misc\lv_area.h **** 
  91:c:\projects\paindrain\arduinolcd\test\pain drain\libraries\lvgl\src\misc\lv_area.h **** /**********************
  92:c:\projects\paindrain\arduinolcd\test\pain drain\libraries\lvgl\src\misc\lv_area.h ****  * GLOBAL PROTOTYPES
  93:c:\projects\paindrain\arduinolcd\test\pain drain\libraries\lvgl\src\misc\lv_area.h ****  **********************/
  94:c:\projects\paindrain\arduinolcd\test\pain drain\libraries\lvgl\src\misc\lv_area.h **** 
  95:c:\projects\paindrain\arduinolcd\test\pain drain\libraries\lvgl\src\misc\lv_area.h **** /**
  96:c:\projects\paindrain\arduinolcd\test\pain drain\libraries\lvgl\src\misc\lv_area.h ****  * Initialize an area
  97:c:\projects\paindrain\arduinolcd\test\pain drain\libraries\lvgl\src\misc\lv_area.h ****  * @param area_p pointer to an area
  98:c:\projects\paindrain\arduinolcd\test\pain drain\libraries\lvgl\src\misc\lv_area.h ****  * @param x1 left coordinate of the area
  99:c:\projects\paindrain\arduinolcd\test\pain drain\libraries\lvgl\src\misc\lv_area.h ****  * @param y1 top coordinate of the area
 100:c:\projects\paindrain\arduinolcd\test\pain drain\libraries\lvgl\src\misc\lv_area.h ****  * @param x2 right coordinate of the area
 101:c:\projects\paindrain\arduinolcd\test\pain drain\libraries\lvgl\src\misc\lv_area.h ****  * @param y2 bottom coordinate of the area
 102:c:\projects\paindrain\arduinolcd\test\pain drain\libraries\lvgl\src\misc\lv_area.h ****  */
 103:c:\projects\paindrain\arduinolcd\test\pain drain\libraries\lvgl\src\misc\lv_area.h **** void lv_area_set(lv_area_t * area_p, lv_coord_t x1, lv_coord_t y1, lv_coord_t x2, lv_coord_t y2);
 104:c:\projects\paindrain\arduinolcd\test\pain drain\libraries\lvgl\src\misc\lv_area.h **** 
 105:c:\projects\paindrain\arduinolcd\test\pain drain\libraries\lvgl\src\misc\lv_area.h **** /**
 106:c:\projects\paindrain\arduinolcd\test\pain drain\libraries\lvgl\src\misc\lv_area.h ****  * Copy an area
ARM GAS  C:\Users\haske\AppData\Local\Temp\cc7oyVf6.s 			page 41


 107:c:\projects\paindrain\arduinolcd\test\pain drain\libraries\lvgl\src\misc\lv_area.h ****  * @param dest pointer to the destination area
 108:c:\projects\paindrain\arduinolcd\test\pain drain\libraries\lvgl\src\misc\lv_area.h ****  * @param src pointer to the source area
 109:c:\projects\paindrain\arduinolcd\test\pain drain\libraries\lvgl\src\misc\lv_area.h ****  */
 110:c:\projects\paindrain\arduinolcd\test\pain drain\libraries\lvgl\src\misc\lv_area.h **** inline static void lv_area_copy(lv_area_t * dest, const lv_area_t * src)
 111:c:\projects\paindrain\arduinolcd\test\pain drain\libraries\lvgl\src\misc\lv_area.h **** {
 112:c:\projects\paindrain\arduinolcd\test\pain drain\libraries\lvgl\src\misc\lv_area.h ****     dest->x1 = src->x1;
 113:c:\projects\paindrain\arduinolcd\test\pain drain\libraries\lvgl\src\misc\lv_area.h ****     dest->y1 = src->y1;
 114:c:\projects\paindrain\arduinolcd\test\pain drain\libraries\lvgl\src\misc\lv_area.h ****     dest->x2 = src->x2;
 115:c:\projects\paindrain\arduinolcd\test\pain drain\libraries\lvgl\src\misc\lv_area.h ****     dest->y2 = src->y2;
 116:c:\projects\paindrain\arduinolcd\test\pain drain\libraries\lvgl\src\misc\lv_area.h **** }
 117:c:\projects\paindrain\arduinolcd\test\pain drain\libraries\lvgl\src\misc\lv_area.h **** 
 118:c:\projects\paindrain\arduinolcd\test\pain drain\libraries\lvgl\src\misc\lv_area.h **** /**
 119:c:\projects\paindrain\arduinolcd\test\pain drain\libraries\lvgl\src\misc\lv_area.h ****  * Get the width of an area
 120:c:\projects\paindrain\arduinolcd\test\pain drain\libraries\lvgl\src\misc\lv_area.h ****  * @param area_p pointer to an area
 121:c:\projects\paindrain\arduinolcd\test\pain drain\libraries\lvgl\src\misc\lv_area.h ****  * @return the width of the area (if x1 == x2 -> width = 1)
 122:c:\projects\paindrain\arduinolcd\test\pain drain\libraries\lvgl\src\misc\lv_area.h ****  */
 123:c:\projects\paindrain\arduinolcd\test\pain drain\libraries\lvgl\src\misc\lv_area.h **** static inline lv_coord_t lv_area_get_width(const lv_area_t * area_p)
 124:c:\projects\paindrain\arduinolcd\test\pain drain\libraries\lvgl\src\misc\lv_area.h **** {
 125:c:\projects\paindrain\arduinolcd\test\pain drain\libraries\lvgl\src\misc\lv_area.h ****     return (lv_coord_t)(area_p->x2 - area_p->x1 + 1);
 794              		.loc 3 125 0
 795 0060 36AC     		add	r4, sp, #216
 796              	.LVL108:
 797 0062 0422     		movs	r2, #4
 798 0064 A35E     		ldrsh	r3, [r4, r2]
 799 0066 0021     		movs	r1, #0
 800 0068 625E     		ldrsh	r2, [r4, r1]
 801 006a 9B1A     		subs	r3, r3, r2
 802 006c 0133     		adds	r3, r3, #1
 803 006e 9BB2     		uxth	r3, r3
 804 0070 1D00     		movs	r5, r3
 805              	.LVL109:
 806 0072 1393     		str	r3, [sp, #76]
 807 0074 1AB2     		sxth	r2, r3
 808 0076 1892     		str	r2, [sp, #96]
 809              	.LVL110:
 810              	.LBE96:
 811              	.LBE95:
 775:..\..\..\arduinoLCD\test\Pain Drain\libraries\lvgl\src\extra\widgets\span/lv_span.c **** 
 776:..\..\..\arduinoLCD\test\Pain Drain\libraries\lvgl\src\extra\widgets\span/lv_span.c ****     /* init draw variable */
 777:..\..\..\arduinoLCD\test\Pain Drain\libraries\lvgl\src\extra\widgets\span/lv_span.c ****     lv_text_flag_t txt_flag = LV_TEXT_FLAG_NONE;
 778:..\..\..\arduinoLCD\test\Pain Drain\libraries\lvgl\src\extra\widgets\span/lv_span.c ****     lv_coord_t line_space = lv_obj_get_style_text_line_space(obj, LV_PART_MAIN);;
 779:..\..\..\arduinoLCD\test\Pain Drain\libraries\lvgl\src\extra\widgets\span/lv_span.c ****     lv_coord_t max_width = lv_area_get_width(&coords);
 780:..\..\..\arduinoLCD\test\Pain Drain\libraries\lvgl\src\extra\widgets\span/lv_span.c ****     lv_coord_t indent = convert_indent_pct(obj, max_width);
 812              		.loc 1 780 0
 813 0078 1100     		movs	r1, r2
 814 007a 3800     		movs	r0, r7
 815 007c FFF7FEFF 		bl	convert_indent_pct
 816              	.LVL111:
 817 0080 1D90     		str	r0, [sp, #116]
 818              	.LVL112:
 781:..\..\..\arduinoLCD\test\Pain Drain\libraries\lvgl\src\extra\widgets\span/lv_span.c ****     lv_coord_t max_w  = max_width - indent; /* first line need minus indent */
 819              		.loc 1 781 0
 820 0082 86B2     		uxth	r6, r0
 821 0084 AD1B     		subs	r5, r5, r6
 822 0086 2DB2     		sxth	r5, r5
 823              	.LVL113:
 824              	.LBB97:
ARM GAS  C:\Users\haske\AppData\Local\Temp\cc7oyVf6.s 			page 42


 825              	.LBB98:
 507:c:\projects\paindrain\arduinolcd\test\pain drain\libraries\lvgl\src/core\lv_obj_style_gen.h ****     return (lv_opa_t)v.num;
 826              		.loc 2 507 0
 827 0088 6022     		movs	r2, #96
 828 008a 0021     		movs	r1, #0
 829 008c 3800     		movs	r0, r7
 830              	.LVL114:
 831 008e FFF7FEFF 		bl	lv_obj_get_style_prop
 832              	.LVL115:
 508:c:\projects\paindrain\arduinolcd\test\pain drain\libraries\lvgl\src/core\lv_obj_style_gen.h **** }
 833              		.loc 2 508 0
 834 0092 C3B2     		uxtb	r3, r0
 835 0094 1493     		str	r3, [sp, #80]
 836              	.LVL116:
 837              	.LBE98:
 838              	.LBE97:
 782:..\..\..\arduinoLCD\test\Pain Drain\libraries\lvgl\src\extra\widgets\span/lv_span.c ****     lv_opa_t obj_opa = lv_obj_get_style_opa(obj, LV_PART_MAIN);
 783:..\..\..\arduinoLCD\test\Pain Drain\libraries\lvgl\src\extra\widgets\span/lv_span.c **** 
 784:..\..\..\arduinoLCD\test\Pain Drain\libraries\lvgl\src\extra\widgets\span/lv_span.c ****     /* coords of draw span-txt */
 785:..\..\..\arduinoLCD\test\Pain Drain\libraries\lvgl\src\extra\widgets\span/lv_span.c ****     lv_point_t txt_pos;
 786:..\..\..\arduinoLCD\test\Pain Drain\libraries\lvgl\src\extra\widgets\span/lv_span.c ****     txt_pos.y = coords.y1;
 839              		.loc 1 786 0
 840 0096 0222     		movs	r2, #2
 841 0098 A35E     		ldrsh	r3, [r4, r2]
 842 009a 33AA     		add	r2, sp, #204
 843 009c 5380     		strh	r3, [r2, #2]
 787:..\..\..\arduinoLCD\test\Pain Drain\libraries\lvgl\src\extra\widgets\span/lv_span.c ****     txt_pos.x = coords.x1 + indent; /* first line need add indent */
 844              		.loc 1 787 0
 845 009e 0021     		movs	r1, #0
 846 00a0 635E     		ldrsh	r3, [r4, r1]
 847 00a2 F618     		adds	r6, r6, r3
 848              	.LVL117:
 849 00a4 1680     		strh	r6, [r2]
 788:..\..\..\arduinoLCD\test\Pain Drain\libraries\lvgl\src\extra\widgets\span/lv_span.c **** 
 789:..\..\..\arduinoLCD\test\Pain Drain\libraries\lvgl\src\extra\widgets\span/lv_span.c ****     lv_span_t * cur_span = _lv_ll_get_head(&spans->child_ll);
 850              		.loc 1 789 0
 851 00a6 0D98     		ldr	r0, [sp, #52]
 852 00a8 FFF7FEFF 		bl	_lv_ll_get_head
 853              	.LVL118:
 854 00ac 0A90     		str	r0, [sp, #40]
 855              	.LVL119:
 790:..\..\..\arduinoLCD\test\Pain Drain\libraries\lvgl\src\extra\widgets\span/lv_span.c ****     const char * cur_txt = cur_span->txt;
 856              		.loc 1 790 0
 857 00ae 0368     		ldr	r3, [r0]
 858 00b0 9B46     		mov	fp, r3
 859              	.LVL120:
 860              	.LBB99:
 861              	.LBB100:
 728:..\..\..\arduinoLCD\test\Pain Drain\libraries\lvgl\src\extra\widgets\span/lv_span.c ****         *text = "";
 862              		.loc 1 728 0
 863 00b2 002B     		cmp	r3, #0
 864 00b4 01D1     		bne	.L46
 729:..\..\..\arduinoLCD\test\Pain Drain\libraries\lvgl\src\extra\widgets\span/lv_span.c ****         LV_LOG_ERROR("occur an error that span text == NULL");
 865              		.loc 1 729 0
 866 00b6 B84B     		ldr	r3, .L110
 867              	.LVL121:
 868 00b8 9B46     		mov	fp, r3
ARM GAS  C:\Users\haske\AppData\Local\Temp\cc7oyVf6.s 			page 43


 869              	.LVL122:
 870              	.L46:
 871              	.LBE100:
 872              	.LBE99:
 791:..\..\..\arduinoLCD\test\Pain Drain\libraries\lvgl\src\extra\widgets\span/lv_span.c ****     span_text_check(&cur_txt);
 792:..\..\..\arduinoLCD\test\Pain Drain\libraries\lvgl\src\extra\widgets\span/lv_span.c ****     uint32_t cur_txt_ofs = 0;
 793:..\..\..\arduinoLCD\test\Pain Drain\libraries\lvgl\src\extra\widgets\span/lv_span.c ****     lv_snippet_t snippet;   /* use to save cur_span info and push it to stack */
 794:..\..\..\arduinoLCD\test\Pain Drain\libraries\lvgl\src\extra\widgets\span/lv_span.c ****     lv_memset_00(&snippet, sizeof(snippet));
 873              		.loc 1 794 0
 874 00ba 1421     		movs	r1, #20
 875 00bc 2EA8     		add	r0, sp, #184
 876              	.LVL123:
 877 00be FFF7FEFF 		bl	lv_memset_00
 878              	.LVL124:
 795:..\..\..\arduinoLCD\test\Pain Drain\libraries\lvgl\src\extra\widgets\span/lv_span.c **** 
 796:..\..\..\arduinoLCD\test\Pain Drain\libraries\lvgl\src\extra\widgets\span/lv_span.c ****     lv_draw_label_dsc_t label_draw_dsc;
 797:..\..\..\arduinoLCD\test\Pain Drain\libraries\lvgl\src\extra\widgets\span/lv_span.c ****     lv_draw_label_dsc_init(&label_draw_dsc);
 879              		.loc 1 797 0
 880 00c2 26A8     		add	r0, sp, #152
 881 00c4 FFF7FEFF 		bl	lv_draw_label_dsc_init
 882              	.LVL125:
 798:..\..\..\arduinoLCD\test\Pain Drain\libraries\lvgl\src\extra\widgets\span/lv_span.c **** 
 799:..\..\..\arduinoLCD\test\Pain Drain\libraries\lvgl\src\extra\widgets\span/lv_span.c ****     bool is_first_line = true;
 883              		.loc 1 799 0
 884 00c8 0123     		movs	r3, #1
 885 00ca 9946     		mov	r9, r3
 792:..\..\..\arduinoLCD\test\Pain Drain\libraries\lvgl\src\extra\widgets\span/lv_span.c ****     lv_snippet_t snippet;   /* use to save cur_span info and push it to stack */
 886              		.loc 1 792 0
 887 00cc 0023     		movs	r3, #0
 888 00ce 9846     		mov	r8, r3
 889 00d0 5B46     		mov	r3, fp
 890 00d2 C346     		mov	fp, r8
 891              	.LVL126:
 892 00d4 9846     		mov	r8, r3
 800:..\..\..\arduinoLCD\test\Pain Drain\libraries\lvgl\src\extra\widgets\span/lv_span.c ****     /* the loop control how many lines need to draw */
 801:..\..\..\arduinoLCD\test\Pain Drain\libraries\lvgl\src\extra\widgets\span/lv_span.c ****     while(cur_span) {
 893              		.loc 1 801 0
 894 00d6 C4E2     		b	.L47
 895              	.LVL127:
 896              	.L93:
 897              	.LBB101:
 802:..\..\..\arduinoLCD\test\Pain Drain\libraries\lvgl\src\extra\widgets\span/lv_span.c ****         bool is_end_line = false;
 803:..\..\..\arduinoLCD\test\Pain Drain\libraries\lvgl\src\extra\widgets\span/lv_span.c ****         bool ellipsis_valid = false;
 804:..\..\..\arduinoLCD\test\Pain Drain\libraries\lvgl\src\extra\widgets\span/lv_span.c ****         lv_coord_t max_line_h = 0;  /* the max height of span-font when a line have a lot of span *
 805:..\..\..\arduinoLCD\test\Pain Drain\libraries\lvgl\src\extra\widgets\span/lv_span.c ****         lv_coord_t max_baseline = 0; /*baseline of the highest span*/
 806:..\..\..\arduinoLCD\test\Pain Drain\libraries\lvgl\src\extra\widgets\span/lv_span.c ****         lv_snippet_clear();
 898              		.loc 1 806 0
 899 00d8 FFF7FEFF 		bl	lv_snippet_clear
 900              	.LVL128:
 805:..\..\..\arduinoLCD\test\Pain Drain\libraries\lvgl\src\extra\widgets\span/lv_span.c ****         lv_snippet_clear();
 901              		.loc 1 805 0
 902 00dc 0023     		movs	r3, #0
 903 00de 0B93     		str	r3, [sp, #44]
 804:..\..\..\arduinoLCD\test\Pain Drain\libraries\lvgl\src\extra\widgets\span/lv_span.c ****         lv_coord_t max_baseline = 0; /*baseline of the highest span*/
 904              		.loc 1 804 0
 905 00e0 0793     		str	r3, [sp, #28]
 906 00e2 5E46     		mov	r6, fp
ARM GAS  C:\Users\haske\AppData\Local\Temp\cc7oyVf6.s 			page 44


 907 00e4 4746     		mov	r7, r8
 908              	.LVL129:
 909              	.L48:
 910              	.LBB102:
 807:..\..\..\arduinoLCD\test\Pain Drain\libraries\lvgl\src\extra\widgets\span/lv_span.c **** 
 808:..\..\..\arduinoLCD\test\Pain Drain\libraries\lvgl\src\extra\widgets\span/lv_span.c ****         /* the loop control to find a line and push the relevant span info into stack  */
 809:..\..\..\arduinoLCD\test\Pain Drain\libraries\lvgl\src\extra\widgets\span/lv_span.c ****         while(1) {
 810:..\..\..\arduinoLCD\test\Pain Drain\libraries\lvgl\src\extra\widgets\span/lv_span.c ****             /* switch to the next span when current is end */
 811:..\..\..\arduinoLCD\test\Pain Drain\libraries\lvgl\src\extra\widgets\span/lv_span.c ****             if(cur_txt[cur_txt_ofs] == '\0') {
 911              		.loc 1 811 0
 912 00e6 BB19     		adds	r3, r7, r6
 913 00e8 9846     		mov	r8, r3
 914 00ea 1B78     		ldrb	r3, [r3]
 915 00ec 002B     		cmp	r3, #0
 916 00ee 0DD1     		bne	.L49
 812:..\..\..\arduinoLCD\test\Pain Drain\libraries\lvgl\src\extra\widgets\span/lv_span.c ****                 cur_span = _lv_ll_get_next(&spans->child_ll, cur_span);
 917              		.loc 1 812 0
 918 00f0 0A99     		ldr	r1, [sp, #40]
 919 00f2 0D98     		ldr	r0, [sp, #52]
 920 00f4 FFF7FEFF 		bl	_lv_ll_get_next
 921              	.LVL130:
 922 00f8 0A90     		str	r0, [sp, #40]
 923              	.LVL131:
 813:..\..\..\arduinoLCD\test\Pain Drain\libraries\lvgl\src\extra\widgets\span/lv_span.c ****                 if(cur_span == NULL) break;
 924              		.loc 1 813 0
 925 00fa 0028     		cmp	r0, #0
 926 00fc 00D1     		bne	.LCB917
 927 00fe ADE0     		b	.L50	@long jump
 928              	.LCB917:
 814:..\..\..\arduinoLCD\test\Pain Drain\libraries\lvgl\src\extra\widgets\span/lv_span.c ****                 cur_txt = cur_span->txt;
 929              		.loc 1 814 0
 930 0100 0768     		ldr	r7, [r0]
 931              	.LVL132:
 932              	.LBB103:
 933              	.LBB104:
 728:..\..\..\arduinoLCD\test\Pain Drain\libraries\lvgl\src\extra\widgets\span/lv_span.c ****         *text = "";
 934              		.loc 1 728 0
 935 0102 002F     		cmp	r7, #0
 936 0104 00D1     		bne	.L51
 729:..\..\..\arduinoLCD\test\Pain Drain\libraries\lvgl\src\extra\widgets\span/lv_span.c ****         LV_LOG_ERROR("occur an error that span text == NULL");
 937              		.loc 1 729 0
 938 0106 A44F     		ldr	r7, .L110
 939              	.LVL133:
 940              	.L51:
 941              	.LBE104:
 942              	.LBE103:
 815:..\..\..\arduinoLCD\test\Pain Drain\libraries\lvgl\src\extra\widgets\span/lv_span.c ****                 span_text_check(&cur_txt);
 816:..\..\..\arduinoLCD\test\Pain Drain\libraries\lvgl\src\extra\widgets\span/lv_span.c ****                 cur_txt_ofs = 0;
 943              		.loc 1 816 0
 944 0108 0026     		movs	r6, #0
 945 010a ECE7     		b	.L48
 946              	.LVL134:
 947              	.L49:
 817:..\..\..\arduinoLCD\test\Pain Drain\libraries\lvgl\src\extra\widgets\span/lv_span.c ****                 /* maybe also cur_txt[cur_txt_ofs] == '\0' */
 818:..\..\..\arduinoLCD\test\Pain Drain\libraries\lvgl\src\extra\widgets\span/lv_span.c ****                 continue;
 819:..\..\..\arduinoLCD\test\Pain Drain\libraries\lvgl\src\extra\widgets\span/lv_span.c ****             }
 820:..\..\..\arduinoLCD\test\Pain Drain\libraries\lvgl\src\extra\widgets\span/lv_span.c **** 
ARM GAS  C:\Users\haske\AppData\Local\Temp\cc7oyVf6.s 			page 45


 821:..\..\..\arduinoLCD\test\Pain Drain\libraries\lvgl\src\extra\widgets\span/lv_span.c ****             /* init span info to snippet. */
 822:..\..\..\arduinoLCD\test\Pain Drain\libraries\lvgl\src\extra\widgets\span/lv_span.c ****             if(cur_txt_ofs == 0) {
 948              		.loc 1 822 0
 949 010c 002E     		cmp	r6, #0
 950 010e 14D1     		bne	.L53
 823:..\..\..\arduinoLCD\test\Pain Drain\libraries\lvgl\src\extra\widgets\span/lv_span.c ****                 snippet.span = cur_span;
 951              		.loc 1 823 0
 952 0110 2EAC     		add	r4, sp, #184
 953 0112 0A9B     		ldr	r3, [sp, #40]
 954 0114 2E93     		str	r3, [sp, #184]
 824:..\..\..\arduinoLCD\test\Pain Drain\libraries\lvgl\src\extra\widgets\span/lv_span.c ****                 snippet.font = lv_span_get_style_text_font(obj, cur_span);
 955              		.loc 1 824 0
 956 0116 9A46     		mov	r10, r3
 957 0118 1900     		movs	r1, r3
 958 011a 0898     		ldr	r0, [sp, #32]
 959 011c FFF7FEFF 		bl	lv_span_get_style_text_font
 960              	.LVL135:
 961 0120 A060     		str	r0, [r4, #8]
 825:..\..\..\arduinoLCD\test\Pain Drain\libraries\lvgl\src\extra\widgets\span/lv_span.c ****                 snippet.letter_space = lv_span_get_style_text_letter_space(obj, cur_span);
 962              		.loc 1 825 0
 963 0122 5146     		mov	r1, r10
 964 0124 0898     		ldr	r0, [sp, #32]
 965 0126 FFF7FEFF 		bl	lv_span_get_style_text_letter_space
 966              	.LVL136:
 967 012a 6082     		strh	r0, [r4, #18]
 968              	.LVL137:
 969              	.LBB105:
 970              	.LBB106:
 971              		.file 4 "c:\\projects\\paindrain\\arduinolcd\\test\\pain drain\\libraries\\lvgl\\src\\font\\lv_fon
   1:c:\projects\paindrain\arduinolcd\test\pain drain\libraries\lvgl\src\font\lv_font.h **** /**
   2:c:\projects\paindrain\arduinolcd\test\pain drain\libraries\lvgl\src\font\lv_font.h ****  * @file lv_font.h
   3:c:\projects\paindrain\arduinolcd\test\pain drain\libraries\lvgl\src\font\lv_font.h ****  *
   4:c:\projects\paindrain\arduinolcd\test\pain drain\libraries\lvgl\src\font\lv_font.h ****  */
   5:c:\projects\paindrain\arduinolcd\test\pain drain\libraries\lvgl\src\font\lv_font.h **** 
   6:c:\projects\paindrain\arduinolcd\test\pain drain\libraries\lvgl\src\font\lv_font.h **** #ifndef LV_FONT_H
   7:c:\projects\paindrain\arduinolcd\test\pain drain\libraries\lvgl\src\font\lv_font.h **** #define LV_FONT_H
   8:c:\projects\paindrain\arduinolcd\test\pain drain\libraries\lvgl\src\font\lv_font.h **** 
   9:c:\projects\paindrain\arduinolcd\test\pain drain\libraries\lvgl\src\font\lv_font.h **** #ifdef __cplusplus
  10:c:\projects\paindrain\arduinolcd\test\pain drain\libraries\lvgl\src\font\lv_font.h **** extern "C" {
  11:c:\projects\paindrain\arduinolcd\test\pain drain\libraries\lvgl\src\font\lv_font.h **** #endif
  12:c:\projects\paindrain\arduinolcd\test\pain drain\libraries\lvgl\src\font\lv_font.h **** 
  13:c:\projects\paindrain\arduinolcd\test\pain drain\libraries\lvgl\src\font\lv_font.h **** /*********************
  14:c:\projects\paindrain\arduinolcd\test\pain drain\libraries\lvgl\src\font\lv_font.h ****  *      INCLUDES
  15:c:\projects\paindrain\arduinolcd\test\pain drain\libraries\lvgl\src\font\lv_font.h ****  *********************/
  16:c:\projects\paindrain\arduinolcd\test\pain drain\libraries\lvgl\src\font\lv_font.h **** #include "../lv_conf_internal.h"
  17:c:\projects\paindrain\arduinolcd\test\pain drain\libraries\lvgl\src\font\lv_font.h **** #include <stdint.h>
  18:c:\projects\paindrain\arduinolcd\test\pain drain\libraries\lvgl\src\font\lv_font.h **** #include <stddef.h>
  19:c:\projects\paindrain\arduinolcd\test\pain drain\libraries\lvgl\src\font\lv_font.h **** #include <stdbool.h>
  20:c:\projects\paindrain\arduinolcd\test\pain drain\libraries\lvgl\src\font\lv_font.h **** 
  21:c:\projects\paindrain\arduinolcd\test\pain drain\libraries\lvgl\src\font\lv_font.h **** #include "lv_symbol_def.h"
  22:c:\projects\paindrain\arduinolcd\test\pain drain\libraries\lvgl\src\font\lv_font.h **** #include "../misc/lv_area.h"
  23:c:\projects\paindrain\arduinolcd\test\pain drain\libraries\lvgl\src\font\lv_font.h **** 
  24:c:\projects\paindrain\arduinolcd\test\pain drain\libraries\lvgl\src\font\lv_font.h **** /*********************
  25:c:\projects\paindrain\arduinolcd\test\pain drain\libraries\lvgl\src\font\lv_font.h ****  *      DEFINES
  26:c:\projects\paindrain\arduinolcd\test\pain drain\libraries\lvgl\src\font\lv_font.h ****  *********************/
  27:c:\projects\paindrain\arduinolcd\test\pain drain\libraries\lvgl\src\font\lv_font.h **** 
  28:c:\projects\paindrain\arduinolcd\test\pain drain\libraries\lvgl\src\font\lv_font.h **** /* imgfont identifier */
ARM GAS  C:\Users\haske\AppData\Local\Temp\cc7oyVf6.s 			page 46


  29:c:\projects\paindrain\arduinolcd\test\pain drain\libraries\lvgl\src\font\lv_font.h **** #define LV_IMGFONT_BPP 9
  30:c:\projects\paindrain\arduinolcd\test\pain drain\libraries\lvgl\src\font\lv_font.h **** 
  31:c:\projects\paindrain\arduinolcd\test\pain drain\libraries\lvgl\src\font\lv_font.h **** /**********************
  32:c:\projects\paindrain\arduinolcd\test\pain drain\libraries\lvgl\src\font\lv_font.h ****  *      TYPEDEFS
  33:c:\projects\paindrain\arduinolcd\test\pain drain\libraries\lvgl\src\font\lv_font.h ****  **********************/
  34:c:\projects\paindrain\arduinolcd\test\pain drain\libraries\lvgl\src\font\lv_font.h **** 
  35:c:\projects\paindrain\arduinolcd\test\pain drain\libraries\lvgl\src\font\lv_font.h **** /*------------------
  36:c:\projects\paindrain\arduinolcd\test\pain drain\libraries\lvgl\src\font\lv_font.h ****  * General types
  37:c:\projects\paindrain\arduinolcd\test\pain drain\libraries\lvgl\src\font\lv_font.h ****  *-----------------*/
  38:c:\projects\paindrain\arduinolcd\test\pain drain\libraries\lvgl\src\font\lv_font.h **** 
  39:c:\projects\paindrain\arduinolcd\test\pain drain\libraries\lvgl\src\font\lv_font.h **** struct _lv_font_t;
  40:c:\projects\paindrain\arduinolcd\test\pain drain\libraries\lvgl\src\font\lv_font.h **** /** Describes the properties of a glyph.*/
  41:c:\projects\paindrain\arduinolcd\test\pain drain\libraries\lvgl\src\font\lv_font.h **** typedef struct {
  42:c:\projects\paindrain\arduinolcd\test\pain drain\libraries\lvgl\src\font\lv_font.h ****     const struct _lv_font_t *
  43:c:\projects\paindrain\arduinolcd\test\pain drain\libraries\lvgl\src\font\lv_font.h ****         resolved_font; /**< Pointer to a font where the glyph was actually found after handling fal
  44:c:\projects\paindrain\arduinolcd\test\pain drain\libraries\lvgl\src\font\lv_font.h ****     uint16_t adv_w; /**< The glyph needs this space. Draw the next glyph after this width.*/
  45:c:\projects\paindrain\arduinolcd\test\pain drain\libraries\lvgl\src\font\lv_font.h ****     uint16_t box_w; /**< Width of the glyph's bounding box*/
  46:c:\projects\paindrain\arduinolcd\test\pain drain\libraries\lvgl\src\font\lv_font.h ****     uint16_t box_h; /**< Height of the glyph's bounding box*/
  47:c:\projects\paindrain\arduinolcd\test\pain drain\libraries\lvgl\src\font\lv_font.h ****     int16_t ofs_x;  /**< x offset of the bounding box*/
  48:c:\projects\paindrain\arduinolcd\test\pain drain\libraries\lvgl\src\font\lv_font.h ****     int16_t ofs_y;  /**< y offset of the bounding box*/
  49:c:\projects\paindrain\arduinolcd\test\pain drain\libraries\lvgl\src\font\lv_font.h ****     uint8_t bpp: 4;  /**< Bit-per-pixel: 1, 2, 4, 8*/
  50:c:\projects\paindrain\arduinolcd\test\pain drain\libraries\lvgl\src\font\lv_font.h ****     uint8_t is_placeholder: 1; /** Glyph is missing. But placeholder will still be displayed */
  51:c:\projects\paindrain\arduinolcd\test\pain drain\libraries\lvgl\src\font\lv_font.h **** } lv_font_glyph_dsc_t;
  52:c:\projects\paindrain\arduinolcd\test\pain drain\libraries\lvgl\src\font\lv_font.h **** 
  53:c:\projects\paindrain\arduinolcd\test\pain drain\libraries\lvgl\src\font\lv_font.h **** /** The bitmaps might be upscaled by 3 to achieve subpixel rendering.*/
  54:c:\projects\paindrain\arduinolcd\test\pain drain\libraries\lvgl\src\font\lv_font.h **** enum {
  55:c:\projects\paindrain\arduinolcd\test\pain drain\libraries\lvgl\src\font\lv_font.h ****     LV_FONT_SUBPX_NONE,
  56:c:\projects\paindrain\arduinolcd\test\pain drain\libraries\lvgl\src\font\lv_font.h ****     LV_FONT_SUBPX_HOR,
  57:c:\projects\paindrain\arduinolcd\test\pain drain\libraries\lvgl\src\font\lv_font.h ****     LV_FONT_SUBPX_VER,
  58:c:\projects\paindrain\arduinolcd\test\pain drain\libraries\lvgl\src\font\lv_font.h ****     LV_FONT_SUBPX_BOTH,
  59:c:\projects\paindrain\arduinolcd\test\pain drain\libraries\lvgl\src\font\lv_font.h **** };
  60:c:\projects\paindrain\arduinolcd\test\pain drain\libraries\lvgl\src\font\lv_font.h **** 
  61:c:\projects\paindrain\arduinolcd\test\pain drain\libraries\lvgl\src\font\lv_font.h **** typedef uint8_t lv_font_subpx_t;
  62:c:\projects\paindrain\arduinolcd\test\pain drain\libraries\lvgl\src\font\lv_font.h **** 
  63:c:\projects\paindrain\arduinolcd\test\pain drain\libraries\lvgl\src\font\lv_font.h **** /** Describe the properties of a font*/
  64:c:\projects\paindrain\arduinolcd\test\pain drain\libraries\lvgl\src\font\lv_font.h **** typedef struct _lv_font_t {
  65:c:\projects\paindrain\arduinolcd\test\pain drain\libraries\lvgl\src\font\lv_font.h ****     /** Get a glyph's descriptor from a font*/
  66:c:\projects\paindrain\arduinolcd\test\pain drain\libraries\lvgl\src\font\lv_font.h ****     bool (*get_glyph_dsc)(const struct _lv_font_t *, lv_font_glyph_dsc_t *, uint32_t letter, uint32
  67:c:\projects\paindrain\arduinolcd\test\pain drain\libraries\lvgl\src\font\lv_font.h **** 
  68:c:\projects\paindrain\arduinolcd\test\pain drain\libraries\lvgl\src\font\lv_font.h ****     /** Get a glyph's bitmap from a font*/
  69:c:\projects\paindrain\arduinolcd\test\pain drain\libraries\lvgl\src\font\lv_font.h ****     const uint8_t * (*get_glyph_bitmap)(const struct _lv_font_t *, uint32_t);
  70:c:\projects\paindrain\arduinolcd\test\pain drain\libraries\lvgl\src\font\lv_font.h **** 
  71:c:\projects\paindrain\arduinolcd\test\pain drain\libraries\lvgl\src\font\lv_font.h ****     /*Pointer to the font in a font pack (must have the same line height)*/
  72:c:\projects\paindrain\arduinolcd\test\pain drain\libraries\lvgl\src\font\lv_font.h ****     lv_coord_t line_height;         /**< The real line height where any text fits*/
  73:c:\projects\paindrain\arduinolcd\test\pain drain\libraries\lvgl\src\font\lv_font.h ****     lv_coord_t base_line;           /**< Base line measured from the top of the line_height*/
  74:c:\projects\paindrain\arduinolcd\test\pain drain\libraries\lvgl\src\font\lv_font.h ****     uint8_t subpx  : 2;             /**< An element of `lv_font_subpx_t`*/
  75:c:\projects\paindrain\arduinolcd\test\pain drain\libraries\lvgl\src\font\lv_font.h **** 
  76:c:\projects\paindrain\arduinolcd\test\pain drain\libraries\lvgl\src\font\lv_font.h ****     int8_t underline_position;      /**< Distance between the top of the underline and base line (<
  77:c:\projects\paindrain\arduinolcd\test\pain drain\libraries\lvgl\src\font\lv_font.h ****     int8_t underline_thickness;     /**< Thickness of the underline*/
  78:c:\projects\paindrain\arduinolcd\test\pain drain\libraries\lvgl\src\font\lv_font.h **** 
  79:c:\projects\paindrain\arduinolcd\test\pain drain\libraries\lvgl\src\font\lv_font.h ****     const void * dsc;               /**< Store implementation specific or run_time data or caching 
  80:c:\projects\paindrain\arduinolcd\test\pain drain\libraries\lvgl\src\font\lv_font.h ****     const struct _lv_font_t * fallback;   /**< Fallback font for missing glyph. Resolved recursivel
  81:c:\projects\paindrain\arduinolcd\test\pain drain\libraries\lvgl\src\font\lv_font.h **** #if LV_USE_USER_DATA
  82:c:\projects\paindrain\arduinolcd\test\pain drain\libraries\lvgl\src\font\lv_font.h ****     void * user_data;               /**< Custom user data for font.*/
  83:c:\projects\paindrain\arduinolcd\test\pain drain\libraries\lvgl\src\font\lv_font.h **** #endif
  84:c:\projects\paindrain\arduinolcd\test\pain drain\libraries\lvgl\src\font\lv_font.h **** } lv_font_t;
  85:c:\projects\paindrain\arduinolcd\test\pain drain\libraries\lvgl\src\font\lv_font.h **** 
ARM GAS  C:\Users\haske\AppData\Local\Temp\cc7oyVf6.s 			page 47


  86:c:\projects\paindrain\arduinolcd\test\pain drain\libraries\lvgl\src\font\lv_font.h **** /**********************
  87:c:\projects\paindrain\arduinolcd\test\pain drain\libraries\lvgl\src\font\lv_font.h ****  * GLOBAL PROTOTYPES
  88:c:\projects\paindrain\arduinolcd\test\pain drain\libraries\lvgl\src\font\lv_font.h ****  **********************/
  89:c:\projects\paindrain\arduinolcd\test\pain drain\libraries\lvgl\src\font\lv_font.h **** 
  90:c:\projects\paindrain\arduinolcd\test\pain drain\libraries\lvgl\src\font\lv_font.h **** /**
  91:c:\projects\paindrain\arduinolcd\test\pain drain\libraries\lvgl\src\font\lv_font.h ****  * Return with the bitmap of a font.
  92:c:\projects\paindrain\arduinolcd\test\pain drain\libraries\lvgl\src\font\lv_font.h ****  * @param font_p pointer to a font
  93:c:\projects\paindrain\arduinolcd\test\pain drain\libraries\lvgl\src\font\lv_font.h ****  * @param letter a UNICODE character code
